{
 "array_types" :
 [
  {
   "alignment" : 1,
   "linker_set_key" : "char [0]",
   "name" : "char [0]",
   "referenced_type" : "type-6",
   "self_type" : "type-126",
   "source_file" : "/system/core/liblog/include/log/log_read.h"
  },
  {
   "linker_set_key" : "float []",
   "name" : "float []",
   "referenced_type" : "type-913",
   "self_type" : "type-1713",
   "source_file" : "/system/core/libsystem/include/system/graphics.h"
  },
  {
   "alignment" : 4,
   "linker_set_key" : "int [0]",
   "name" : "int [0]",
   "referenced_type" : "type-22",
   "self_type" : "type-466",
   "source_file" : "/system/core/libcutils/include/cutils/native_handle.h"
  },
  {
   "alignment" : 4,
   "linker_set_key" : "int [32]",
   "name" : "int [32]",
   "referenced_type" : "type-22",
   "self_type" : "type-1184",
   "size" : 128,
   "source_file" : "/system/libhidl/base/include/hidl/HidlSupport.h"
  },
  {
   "alignment" : 1,
   "linker_set_key" : "unsigned char [32]",
   "name" : "unsigned char [32]",
   "referenced_type" : "type-123",
   "self_type" : "type-588",
   "size" : 32,
   "source_file" : "/system/libhidl/base/include/hidl/HidlSupport.h"
  },
  {
   "alignment" : 1,
   "linker_set_key" : "unsigned char [4]",
   "name" : "unsigned char [4]",
   "referenced_type" : "type-123",
   "self_type" : "type-1357",
   "size" : 4,
   "source_file" : "/system/libhidl/base/include/hidl/HidlSupport.h"
  },
  {
   "alignment" : 1,
   "linker_set_key" : "unsigned char [5121]",
   "name" : "unsigned char [5121]",
   "referenced_type" : "type-123",
   "self_type" : "type-122",
   "size" : 5121,
   "source_file" : "/system/core/liblog/include/log/log_read.h"
  },
  {
   "alignment" : 1,
   "linker_set_key" : "unsigned char [6]",
   "name" : "unsigned char [6]",
   "referenced_type" : "type-123",
   "self_type" : "type-1323",
   "size" : 6,
   "source_file" : "/system/libhidl/base/include/hidl/HidlSupport.h"
  },
  {
   "alignment" : 4,
   "linker_set_key" : "unsigned int [8]",
   "name" : "unsigned int [8]",
   "referenced_type" : "type-2",
   "self_type" : "type-1697",
   "size" : 32,
   "source_file" : "/system/core/libsystem/include/system/graphics.h"
  }
 ],
 "builtin_types" :
 [
  {
   "alignment" : 1,
   "is_integral" : true,
   "is_unsigned" : true,
   "linker_set_key" : "bool",
   "name" : "bool",
   "referenced_type" : "type-29",
   "self_type" : "type-29",
   "size" : 1
  },
  {
   "alignment" : 1,
   "is_integral" : true,
   "is_unsigned" : true,
   "linker_set_key" : "char",
   "name" : "char",
   "referenced_type" : "type-6",
   "self_type" : "type-6",
   "size" : 1
  },
  {
   "alignment" : 2,
   "is_integral" : true,
   "is_unsigned" : true,
   "linker_set_key" : "char16_t",
   "name" : "char16_t",
   "referenced_type" : "type-239",
   "self_type" : "type-239",
   "size" : 2
  },
  {
   "alignment" : 8,
   "linker_set_key" : "double",
   "name" : "double",
   "referenced_type" : "type-921",
   "self_type" : "type-921",
   "size" : 8
  },
  {
   "alignment" : 4,
   "linker_set_key" : "float",
   "name" : "float",
   "referenced_type" : "type-913",
   "self_type" : "type-913",
   "size" : 4
  },
  {
   "alignment" : 4,
   "is_integral" : true,
   "linker_set_key" : "int",
   "name" : "int",
   "referenced_type" : "type-22",
   "self_type" : "type-22",
   "size" : 4
  },
  {
   "alignment" : 4,
   "is_integral" : true,
   "linker_set_key" : "long",
   "name" : "long",
   "referenced_type" : "type-847",
   "self_type" : "type-847",
   "size" : 4
  },
  {
   "alignment" : 8,
   "linker_set_key" : "long double",
   "name" : "long double",
   "referenced_type" : "type-1855",
   "self_type" : "type-1855",
   "size" : 8
  },
  {
   "alignment" : 8,
   "is_integral" : true,
   "linker_set_key" : "long long",
   "name" : "long long",
   "referenced_type" : "type-225",
   "self_type" : "type-225",
   "size" : 8
  },
  {
   "alignment" : 2,
   "is_integral" : true,
   "linker_set_key" : "short",
   "name" : "short",
   "referenced_type" : "type-791",
   "self_type" : "type-791",
   "size" : 2
  },
  {
   "alignment" : 1,
   "is_integral" : true,
   "linker_set_key" : "signed char",
   "name" : "signed char",
   "referenced_type" : "type-939",
   "self_type" : "type-939",
   "size" : 1
  },
  {
   "alignment" : 1,
   "is_integral" : true,
   "is_unsigned" : true,
   "linker_set_key" : "unsigned char",
   "name" : "unsigned char",
   "referenced_type" : "type-123",
   "self_type" : "type-123",
   "size" : 1
  },
  {
   "alignment" : 4,
   "is_integral" : true,
   "is_unsigned" : true,
   "linker_set_key" : "unsigned int",
   "name" : "unsigned int",
   "referenced_type" : "type-2",
   "self_type" : "type-2",
   "size" : 4
  },
  {
   "alignment" : 4,
   "is_integral" : true,
   "is_unsigned" : true,
   "linker_set_key" : "unsigned long",
   "name" : "unsigned long",
   "referenced_type" : "type-882",
   "self_type" : "type-882",
   "size" : 4
  },
  {
   "alignment" : 8,
   "is_integral" : true,
   "is_unsigned" : true,
   "linker_set_key" : "unsigned long long",
   "name" : "unsigned long long",
   "referenced_type" : "type-7",
   "self_type" : "type-7",
   "size" : 8
  },
  {
   "alignment" : 2,
   "is_integral" : true,
   "is_unsigned" : true,
   "linker_set_key" : "unsigned short",
   "name" : "unsigned short",
   "referenced_type" : "type-125",
   "self_type" : "type-125",
   "size" : 2
  },
  {
   "linker_set_key" : "void",
   "name" : "void",
   "referenced_type" : "type-25",
   "self_type" : "type-25"
  }
 ],
 "elf_functions" :
 [
  {
   "binding" : "weak",
   "name" : "_ZN7android8hardware10fromBinderINS0_5audio4V2_010IStreamOutENS3_13BpHwStreamOutENS3_13BnHwStreamOutEEENS_2spIT_EERKNS7_INS0_7IBinderEEE"
  },
  {
   "binding" : "weak",
   "name" : "_ZN7android8hardware10fromBinderINS0_5audio4V2_018IStreamOutCallbackENS3_21BpHwStreamOutCallbackENS3_21BnHwStreamOutCallbackEEENS_2spIT_EERKNS7_INS0_7IBinderEEE"
  },
  {
   "binding" : "weak",
   "name" : "_ZN7android8hardware10fromBinderINS0_5audio4V2_07IDeviceENS3_10BpHwDeviceENS3_10BnHwDeviceEEENS_2spIT_EERKNS7_INS0_7IBinderEEE"
  },
  {
   "binding" : "weak",
   "name" : "_ZN7android8hardware10fromBinderINS0_5audio4V2_09IStreamInENS3_12BpHwStreamInENS3_12BnHwStreamInEEENS_2spIT_EERKNS7_INS0_7IBinderEEE"
  },
  {
   "name" : "_ZN7android8hardware5audio4V2_010BnHwDevice10onTransactEjRKNS0_6ParcelEPS4_jNSt3__18functionIFvRS4_EEE"
  },
  {
   "name" : "_ZN7android8hardware5audio4V2_010BnHwDevice12getDebugInfoENSt3__18functionIFvRKNS_4hidl4base4V1_09DebugInfoEEEE"
  },
  {
   "name" : "_ZN7android8hardware5audio4V2_010BnHwDevice15_hidl_debugDumpEPNS_4hidl4base4V1_08BnHwBaseERKNS0_6ParcelEPS9_NSt3__18functionIFvRS9_EEE"
  },
  {
   "name" : "_ZN7android8hardware5audio4V2_010BnHwDevice15_hidl_initCheckEPNS_4hidl4base4V1_08BnHwBaseERKNS0_6ParcelEPS9_NSt3__18functionIFvRS9_EEE"
  },
  {
   "name" : "_ZN7android8hardware5audio4V2_010BnHwDevice16_hidl_getMicMuteEPNS_4hidl4base4V1_08BnHwBaseERKNS0_6ParcelEPS9_NSt3__18functionIFvRS9_EEE"
  },
  {
   "name" : "_ZN7android8hardware5audio4V2_010BnHwDevice16_hidl_setMicMuteEPNS_4hidl4base4V1_08BnHwBaseERKNS0_6ParcelEPS9_NSt3__18functionIFvRS9_EEE"
  },
  {
   "name" : "_ZN7android8hardware5audio4V2_010BnHwDevice17_hidl_getHwAvSyncEPNS_4hidl4base4V1_08BnHwBaseERKNS0_6ParcelEPS9_NSt3__18functionIFvRS9_EEE"
  },
  {
   "name" : "_ZN7android8hardware5audio4V2_010BnHwDevice18_hidl_getAudioPortEPNS_4hidl4base4V1_08BnHwBaseERKNS0_6ParcelEPS9_NSt3__18functionIFvRS9_EEE"
  },
  {
   "name" : "_ZN7android8hardware5audio4V2_010BnHwDevice19_hidl_getMasterMuteEPNS_4hidl4base4V1_08BnHwBaseERKNS0_6ParcelEPS9_NSt3__18functionIFvRS9_EEE"
  },
  {
   "name" : "_ZN7android8hardware5audio4V2_010BnHwDevice19_hidl_getParametersEPNS_4hidl4base4V1_08BnHwBaseERKNS0_6ParcelEPS9_NSt3__18functionIFvRS9_EEE"
  },
  {
   "name" : "_ZN7android8hardware5audio4V2_010BnHwDevice19_hidl_setMasterMuteEPNS_4hidl4base4V1_08BnHwBaseERKNS0_6ParcelEPS9_NSt3__18functionIFvRS9_EEE"
  },
  {
   "name" : "_ZN7android8hardware5audio4V2_010BnHwDevice19_hidl_setParametersEPNS_4hidl4base4V1_08BnHwBaseERKNS0_6ParcelEPS9_NSt3__18functionIFvRS9_EEE"
  },
  {
   "name" : "_ZN7android8hardware5audio4V2_010BnHwDevice20_hidl_setScreenStateEPNS_4hidl4base4V1_08BnHwBaseERKNS0_6ParcelEPS9_NSt3__18functionIFvRS9_EEE"
  },
  {
   "name" : "_ZN7android8hardware5audio4V2_010BnHwDevice21_hidl_getMasterVolumeEPNS_4hidl4base4V1_08BnHwBaseERKNS0_6ParcelEPS9_NSt3__18functionIFvRS9_EEE"
  },
  {
   "name" : "_ZN7android8hardware5audio4V2_010BnHwDevice21_hidl_openInputStreamEPNS_4hidl4base4V1_08BnHwBaseERKNS0_6ParcelEPS9_NSt3__18functionIFvRS9_EEE"
  },
  {
   "name" : "_ZN7android8hardware5audio4V2_010BnHwDevice21_hidl_setMasterVolumeEPNS_4hidl4base4V1_08BnHwBaseERKNS0_6ParcelEPS9_NSt3__18functionIFvRS9_EEE"
  },
  {
   "name" : "_ZN7android8hardware5audio4V2_010BnHwDevice22_hidl_createAudioPatchEPNS_4hidl4base4V1_08BnHwBaseERKNS0_6ParcelEPS9_NSt3__18functionIFvRS9_EEE"
  },
  {
   "name" : "_ZN7android8hardware5audio4V2_010BnHwDevice22_hidl_openOutputStreamEPNS_4hidl4base4V1_08BnHwBaseERKNS0_6ParcelEPS9_NSt3__18functionIFvRS9_EEE"
  },
  {
   "name" : "_ZN7android8hardware5audio4V2_010BnHwDevice23_hidl_releaseAudioPatchEPNS_4hidl4base4V1_08BnHwBaseERKNS0_6ParcelEPS9_NSt3__18functionIFvRS9_EEE"
  },
  {
   "name" : "_ZN7android8hardware5audio4V2_010BnHwDevice24_hidl_getInputBufferSizeEPNS_4hidl4base4V1_08BnHwBaseERKNS0_6ParcelEPS9_NSt3__18functionIFvRS9_EEE"
  },
  {
   "name" : "_ZN7android8hardware5audio4V2_010BnHwDevice24_hidl_setAudioPortConfigEPNS_4hidl4base4V1_08BnHwBaseERKNS0_6ParcelEPS9_NSt3__18functionIFvRS9_EEE"
  },
  {
   "name" : "_ZN7android8hardware5audio4V2_010BnHwDevice26_hidl_supportsAudioPatchesEPNS_4hidl4base4V1_08BnHwBaseERKNS0_6ParcelEPS9_NSt3__18functionIFvRS9_EEE"
  },
  {
   "name" : "_ZN7android8hardware5audio4V2_010BnHwDevice4pingEv"
  },
  {
   "name" : "_ZN7android8hardware5audio4V2_010BnHwDeviceC1ERKNS_2spINS2_7IDeviceEEE"
  },
  {
   "name" : "_ZN7android8hardware5audio4V2_010BnHwDeviceC2ERKNS_2spINS2_7IDeviceEEE"
  },
  {
   "name" : "_ZN7android8hardware5audio4V2_010BnHwDeviceD0Ev"
  },
  {
   "name" : "_ZN7android8hardware5audio4V2_010BnHwDeviceD1Ev"
  },
  {
   "name" : "_ZN7android8hardware5audio4V2_010BnHwDeviceD2Ev"
  },
  {
   "name" : "_ZN7android8hardware5audio4V2_010BnHwStream10_hidl_stopEPNS_4hidl4base4V1_08BnHwBaseERKNS0_6ParcelEPS9_NSt3__18functionIFvRS9_EEE"
  },
  {
   "name" : "_ZN7android8hardware5audio4V2_010BnHwStream10onTransactEjRKNS0_6ParcelEPS4_jNSt3__18functionIFvRS4_EEE"
  },
  {
   "name" : "_ZN7android8hardware5audio4V2_010BnHwStream11_hidl_closeEPNS_4hidl4base4V1_08BnHwBaseERKNS0_6ParcelEPS9_NSt3__18functionIFvRS9_EEE"
  },
  {
   "name" : "_ZN7android8hardware5audio4V2_010BnHwStream11_hidl_startEPNS_4hidl4base4V1_08BnHwBaseERKNS0_6ParcelEPS9_NSt3__18functionIFvRS9_EEE"
  },
  {
   "name" : "_ZN7android8hardware5audio4V2_010BnHwStream12getDebugInfoENSt3__18functionIFvRKNS_4hidl4base4V1_09DebugInfoEEEE"
  },
  {
   "name" : "_ZN7android8hardware5audio4V2_010BnHwStream13_hidl_standbyEPNS_4hidl4base4V1_08BnHwBaseERKNS0_6ParcelEPS9_NSt3__18functionIFvRS9_EEE"
  },
  {
   "name" : "_ZN7android8hardware5audio4V2_010BnHwStream15_hidl_addEffectEPNS_4hidl4base4V1_08BnHwBaseERKNS0_6ParcelEPS9_NSt3__18functionIFvRS9_EEE"
  },
  {
   "name" : "_ZN7android8hardware5audio4V2_010BnHwStream15_hidl_debugDumpEPNS_4hidl4base4V1_08BnHwBaseERKNS0_6ParcelEPS9_NSt3__18functionIFvRS9_EEE"
  },
  {
   "name" : "_ZN7android8hardware5audio4V2_010BnHwStream15_hidl_getDeviceEPNS_4hidl4base4V1_08BnHwBaseERKNS0_6ParcelEPS9_NSt3__18functionIFvRS9_EEE"
  },
  {
   "name" : "_ZN7android8hardware5audio4V2_010BnHwStream15_hidl_getFormatEPNS_4hidl4base4V1_08BnHwBaseERKNS0_6ParcelEPS9_NSt3__18functionIFvRS9_EEE"
  },
  {
   "name" : "_ZN7android8hardware5audio4V2_010BnHwStream15_hidl_setDeviceEPNS_4hidl4base4V1_08BnHwBaseERKNS0_6ParcelEPS9_NSt3__18functionIFvRS9_EEE"
  },
  {
   "name" : "_ZN7android8hardware5audio4V2_010BnHwStream15_hidl_setFormatEPNS_4hidl4base4V1_08BnHwBaseERKNS0_6ParcelEPS9_NSt3__18functionIFvRS9_EEE"
  },
  {
   "name" : "_ZN7android8hardware5audio4V2_010BnHwStream17_hidl_setHwAvSyncEPNS_4hidl4base4V1_08BnHwBaseERKNS0_6ParcelEPS9_NSt3__18functionIFvRS9_EEE"
  },
  {
   "name" : "_ZN7android8hardware5audio4V2_010BnHwStream18_hidl_getFrameSizeEPNS_4hidl4base4V1_08BnHwBaseERKNS0_6ParcelEPS9_NSt3__18functionIFvRS9_EEE"
  },
  {
   "name" : "_ZN7android8hardware5audio4V2_010BnHwStream18_hidl_removeEffectEPNS_4hidl4base4V1_08BnHwBaseERKNS0_6ParcelEPS9_NSt3__18functionIFvRS9_EEE"
  },
  {
   "name" : "_ZN7android8hardware5audio4V2_010BnHwStream19_hidl_getBufferSizeEPNS_4hidl4base4V1_08BnHwBaseERKNS0_6ParcelEPS9_NSt3__18functionIFvRS9_EEE"
  },
  {
   "name" : "_ZN7android8hardware5audio4V2_010BnHwStream19_hidl_getFrameCountEPNS_4hidl4base4V1_08BnHwBaseERKNS0_6ParcelEPS9_NSt3__18functionIFvRS9_EEE"
  },
  {
   "name" : "_ZN7android8hardware5audio4V2_010BnHwStream19_hidl_getParametersEPNS_4hidl4base4V1_08BnHwBaseERKNS0_6ParcelEPS9_NSt3__18functionIFvRS9_EEE"
  },
  {
   "name" : "_ZN7android8hardware5audio4V2_010BnHwStream19_hidl_getSampleRateEPNS_4hidl4base4V1_08BnHwBaseERKNS0_6ParcelEPS9_NSt3__18functionIFvRS9_EEE"
  },
  {
   "name" : "_ZN7android8hardware5audio4V2_010BnHwStream19_hidl_setParametersEPNS_4hidl4base4V1_08BnHwBaseERKNS0_6ParcelEPS9_NSt3__18functionIFvRS9_EEE"
  },
  {
   "name" : "_ZN7android8hardware5audio4V2_010BnHwStream19_hidl_setSampleRateEPNS_4hidl4base4V1_08BnHwBaseERKNS0_6ParcelEPS9_NSt3__18functionIFvRS9_EEE"
  },
  {
   "name" : "_ZN7android8hardware5audio4V2_010BnHwStream20_hidl_getChannelMaskEPNS_4hidl4base4V1_08BnHwBaseERKNS0_6ParcelEPS9_NSt3__18functionIFvRS9_EEE"
  },
  {
   "name" : "_ZN7android8hardware5audio4V2_010BnHwStream20_hidl_setChannelMaskEPNS_4hidl4base4V1_08BnHwBaseERKNS0_6ParcelEPS9_NSt3__18functionIFvRS9_EEE"
  },
  {
   "name" : "_ZN7android8hardware5audio4V2_010BnHwStream21_hidl_getMmapPositionEPNS_4hidl4base4V1_08BnHwBaseERKNS0_6ParcelEPS9_NSt3__18functionIFvRS9_EEE"
  },
  {
   "name" : "_ZN7android8hardware5audio4V2_010BnHwStream22_hidl_createMmapBufferEPNS_4hidl4base4V1_08BnHwBaseERKNS0_6ParcelEPS9_NSt3__18functionIFvRS9_EEE"
  },
  {
   "name" : "_ZN7android8hardware5audio4V2_010BnHwStream23_hidl_setConnectedStateEPNS_4hidl4base4V1_08BnHwBaseERKNS0_6ParcelEPS9_NSt3__18functionIFvRS9_EEE"
  },
  {
   "name" : "_ZN7android8hardware5audio4V2_010BnHwStream24_hidl_getAudioPropertiesEPNS_4hidl4base4V1_08BnHwBaseERKNS0_6ParcelEPS9_NSt3__18functionIFvRS9_EEE"
  },
  {
   "name" : "_ZN7android8hardware5audio4V2_010BnHwStream25_hidl_getSupportedFormatsEPNS_4hidl4base4V1_08BnHwBaseERKNS0_6ParcelEPS9_NSt3__18functionIFvRS9_EEE"
  },
  {
   "name" : "_ZN7android8hardware5audio4V2_010BnHwStream29_hidl_getSupportedSampleRatesEPNS_4hidl4base4V1_08BnHwBaseERKNS0_6ParcelEPS9_NSt3__18functionIFvRS9_EEE"
  },
  {
   "name" : "_ZN7android8hardware5audio4V2_010BnHwStream30_hidl_getSupportedChannelMasksEPNS_4hidl4base4V1_08BnHwBaseERKNS0_6ParcelEPS9_NSt3__18functionIFvRS9_EEE"
  },
  {
   "name" : "_ZN7android8hardware5audio4V2_010BnHwStream4pingEv"
  },
  {
   "name" : "_ZN7android8hardware5audio4V2_010BnHwStreamC1ERKNS_2spINS2_7IStreamEEE"
  },
  {
   "name" : "_ZN7android8hardware5audio4V2_010BnHwStreamC2ERKNS_2spINS2_7IStreamEEE"
  },
  {
   "name" : "_ZN7android8hardware5audio4V2_010BnHwStreamD0Ev"
  },
  {
   "name" : "_ZN7android8hardware5audio4V2_010BnHwStreamD1Ev"
  },
  {
   "name" : "_ZN7android8hardware5audio4V2_010BnHwStreamD2Ev"
  },
  {
   "name" : "_ZN7android8hardware5audio4V2_010BpHwDevice10getMicMuteENSt3__18functionIFvNS2_6ResultEbEEE"
  },
  {
   "name" : "_ZN7android8hardware5audio4V2_010BpHwDevice10setMicMuteEb"
  },
  {
   "name" : "_ZN7android8hardware5audio4V2_010BpHwDevice11getHwAvSyncEv"
  },
  {
   "name" : "_ZN7android8hardware5audio4V2_010BpHwDevice11linkToDeathERKNS_2spINS0_20hidl_death_recipientEEEy"
  },
  {
   "name" : "_ZN7android8hardware5audio4V2_010BpHwDevice12getAudioPortERKNS1_6common4V2_09AudioPortENSt3__18functionIFvNS2_6ResultES8_EEE"
  },
  {
   "name" : "_ZN7android8hardware5audio4V2_010BpHwDevice12getDebugInfoENSt3__18functionIFvRKNS_4hidl4base4V1_09DebugInfoEEEE"
  },
  {
   "name" : "_ZN7android8hardware5audio4V2_010BpHwDevice12getHashChainENSt3__18functionIFvRKNS0_8hidl_vecINS0_10hidl_arrayIhLj32EJEEEEEEEE"
  },
  {
   "name" : "_ZN7android8hardware5audio4V2_010BpHwDevice13getMasterMuteENSt3__18functionIFvNS2_6ResultEbEEE"
  },
  {
   "name" : "_ZN7android8hardware5audio4V2_010BpHwDevice13getParametersERKNS0_8hidl_vecINS0_11hidl_stringEEENSt3__18functionIFvNS2_6ResultERKNS4_INS2_14ParameterValueEEEEEE"
  },
  {
   "name" : "_ZN7android8hardware5audio4V2_010BpHwDevice13setMasterMuteEb"
  },
  {
   "name" : "_ZN7android8hardware5audio4V2_010BpHwDevice13setParametersERKNS0_8hidl_vecINS2_14ParameterValueEEE"
  },
  {
   "name" : "_ZN7android8hardware5audio4V2_010BpHwDevice13unlinkToDeathERKNS_2spINS0_20hidl_death_recipientEEE"
  },
  {
   "name" : "_ZN7android8hardware5audio4V2_010BpHwDevice14interfaceChainENSt3__18functionIFvRKNS0_8hidl_vecINS0_11hidl_stringEEEEEE"
  },
  {
   "name" : "_ZN7android8hardware5audio4V2_010BpHwDevice14setScreenStateEb"
  },
  {
   "name" : "_ZN7android8hardware5audio4V2_010BpHwDevice15_hidl_debugDumpEPNS0_10IInterfaceEPNS0_7details16HidlInstrumentorERKNS0_11hidl_handleE"
  },
  {
   "name" : "_ZN7android8hardware5audio4V2_010BpHwDevice15_hidl_initCheckEPNS0_10IInterfaceEPNS0_7details16HidlInstrumentorE"
  },
  {
   "name" : "_ZN7android8hardware5audio4V2_010BpHwDevice15getMasterVolumeENSt3__18functionIFvNS2_6ResultEfEEE"
  },
  {
   "name" : "_ZN7android8hardware5audio4V2_010BpHwDevice15openInputStreamEiRKNS2_13DeviceAddressERKNS1_6common4V2_011AudioConfigENS8_14AudioInputFlagENS8_11AudioSourceENSt3__18functionIFvNS2_6ResultERKNS_2spINS2_9IStreamInEEESB_EEE"
  },
  {
   "name" : "_ZN7android8hardware5audio4V2_010BpHwDevice15setMasterVolumeEf"
  },
  {
   "name" : "_ZN7android8hardware5audio4V2_010BpHwDevice16_hidl_getMicMuteEPNS0_10IInterfaceEPNS0_7details16HidlInstrumentorENSt3__18functionIFvNS2_6ResultEbEEE"
  },
  {
   "name" : "_ZN7android8hardware5audio4V2_010BpHwDevice16_hidl_setMicMuteEPNS0_10IInterfaceEPNS0_7details16HidlInstrumentorEb"
  },
  {
   "name" : "_ZN7android8hardware5audio4V2_010BpHwDevice16createAudioPatchERKNS0_8hidl_vecINS1_6common4V2_015AudioPortConfigEEESA_NSt3__18functionIFvNS2_6ResultEiEEE"
  },
  {
   "name" : "_ZN7android8hardware5audio4V2_010BpHwDevice16openOutputStreamEiRKNS2_13DeviceAddressERKNS1_6common4V2_011AudioConfigENS8_15AudioOutputFlagENSt3__18functionIFvNS2_6ResultERKNS_2spINS2_10IStreamOutEEESB_EEE"
  },
  {
   "name" : "_ZN7android8hardware5audio4V2_010BpHwDevice17_hidl_getHwAvSyncEPNS0_10IInterfaceEPNS0_7details16HidlInstrumentorE"
  },
  {
   "name" : "_ZN7android8hardware5audio4V2_010BpHwDevice17releaseAudioPatchEi"
  },
  {
   "name" : "_ZN7android8hardware5audio4V2_010BpHwDevice18_hidl_getAudioPortEPNS0_10IInterfaceEPNS0_7details16HidlInstrumentorERKNS1_6common4V2_09AudioPortENSt3__18functionIFvNS2_6ResultESD_EEE"
  },
  {
   "name" : "_ZN7android8hardware5audio4V2_010BpHwDevice18getInputBufferSizeERKNS1_6common4V2_011AudioConfigENSt3__18functionIFvNS2_6ResultEyEEE"
  },
  {
   "name" : "_ZN7android8hardware5audio4V2_010BpHwDevice18setAudioPortConfigERKNS1_6common4V2_015AudioPortConfigE"
  },
  {
   "name" : "_ZN7android8hardware5audio4V2_010BpHwDevice19_hidl_getMasterMuteEPNS0_10IInterfaceEPNS0_7details16HidlInstrumentorENSt3__18functionIFvNS2_6ResultEbEEE"
  },
  {
   "name" : "_ZN7android8hardware5audio4V2_010BpHwDevice19_hidl_getParametersEPNS0_10IInterfaceEPNS0_7details16HidlInstrumentorERKNS0_8hidl_vecINS0_11hidl_stringEEENSt3__18functionIFvNS2_6ResultERKNS9_INS2_14ParameterValueEEEEEE"
  },
  {
   "name" : "_ZN7android8hardware5audio4V2_010BpHwDevice19_hidl_setMasterMuteEPNS0_10IInterfaceEPNS0_7details16HidlInstrumentorEb"
  },
  {
   "name" : "_ZN7android8hardware5audio4V2_010BpHwDevice19_hidl_setParametersEPNS0_10IInterfaceEPNS0_7details16HidlInstrumentorERKNS0_8hidl_vecINS2_14ParameterValueEEE"
  },
  {
   "name" : "_ZN7android8hardware5audio4V2_010BpHwDevice19interfaceDescriptorENSt3__18functionIFvRKNS0_11hidl_stringEEEE"
  },
  {
   "name" : "_ZN7android8hardware5audio4V2_010BpHwDevice20_hidl_setScreenStateEPNS0_10IInterfaceEPNS0_7details16HidlInstrumentorEb"
  },
  {
   "name" : "_ZN7android8hardware5audio4V2_010BpHwDevice20supportsAudioPatchesEv"
  },
  {
   "name" : "_ZN7android8hardware5audio4V2_010BpHwDevice21_hidl_getMasterVolumeEPNS0_10IInterfaceEPNS0_7details16HidlInstrumentorENSt3__18functionIFvNS2_6ResultEfEEE"
  },
  {
   "name" : "_ZN7android8hardware5audio4V2_010BpHwDevice21_hidl_openInputStreamEPNS0_10IInterfaceEPNS0_7details16HidlInstrumentorEiRKNS2_13DeviceAddressERKNS1_6common4V2_011AudioConfigENSD_14AudioInputFlagENSD_11AudioSourceENSt3__18functionIFvNS2_6ResultERKNS_2spINS2_9IStreamInEEESG_EEE"
  },
  {
   "name" : "_ZN7android8hardware5audio4V2_010BpHwDevice21_hidl_setMasterVolumeEPNS0_10IInterfaceEPNS0_7details16HidlInstrumentorEf"
  },
  {
   "name" : "_ZN7android8hardware5audio4V2_010BpHwDevice21notifySyspropsChangedEv"
  },
  {
   "name" : "_ZN7android8hardware5audio4V2_010BpHwDevice21setHALInstrumentationEv"
  },
  {
   "name" : "_ZN7android8hardware5audio4V2_010BpHwDevice22_hidl_createAudioPatchEPNS0_10IInterfaceEPNS0_7details16HidlInstrumentorERKNS0_8hidl_vecINS1_6common4V2_015AudioPortConfigEEESF_NSt3__18functionIFvNS2_6ResultEiEEE"
  },
  {
   "name" : "_ZN7android8hardware5audio4V2_010BpHwDevice22_hidl_openOutputStreamEPNS0_10IInterfaceEPNS0_7details16HidlInstrumentorEiRKNS2_13DeviceAddressERKNS1_6common4V2_011AudioConfigENSD_15AudioOutputFlagENSt3__18functionIFvNS2_6ResultERKNS_2spINS2_10IStreamOutEEESG_EEE"
  },
  {
   "name" : "_ZN7android8hardware5audio4V2_010BpHwDevice23_hidl_releaseAudioPatchEPNS0_10IInterfaceEPNS0_7details16HidlInstrumentorEi"
  },
  {
   "name" : "_ZN7android8hardware5audio4V2_010BpHwDevice24_hidl_getInputBufferSizeEPNS0_10IInterfaceEPNS0_7details16HidlInstrumentorERKNS1_6common4V2_011AudioConfigENSt3__18functionIFvNS2_6ResultEyEEE"
  },
  {
   "name" : "_ZN7android8hardware5audio4V2_010BpHwDevice24_hidl_setAudioPortConfigEPNS0_10IInterfaceEPNS0_7details16HidlInstrumentorERKNS1_6common4V2_015AudioPortConfigE"
  },
  {
   "name" : "_ZN7android8hardware5audio4V2_010BpHwDevice26_hidl_supportsAudioPatchesEPNS0_10IInterfaceEPNS0_7details16HidlInstrumentorE"
  },
  {
   "name" : "_ZN7android8hardware5audio4V2_010BpHwDevice4pingEv"
  },
  {
   "name" : "_ZN7android8hardware5audio4V2_010BpHwDevice5debugERKNS0_11hidl_handleERKNS0_8hidl_vecINS0_11hidl_stringEEE"
  },
  {
   "name" : "_ZN7android8hardware5audio4V2_010BpHwDevice9debugDumpERKNS0_11hidl_handleE"
  },
  {
   "name" : "_ZN7android8hardware5audio4V2_010BpHwDevice9initCheckEv"
  },
  {
   "name" : "_ZN7android8hardware5audio4V2_010BpHwDeviceC1ERKNS_2spINS0_7IBinderEEE"
  },
  {
   "name" : "_ZN7android8hardware5audio4V2_010BpHwDeviceC2ERKNS_2spINS0_7IBinderEEE"
  },
  {
   "name" : "_ZN7android8hardware5audio4V2_010BpHwStream10_hidl_stopEPNS0_10IInterfaceEPNS0_7details16HidlInstrumentorE"
  },
  {
   "name" : "_ZN7android8hardware5audio4V2_010BpHwStream11_hidl_closeEPNS0_10IInterfaceEPNS0_7details16HidlInstrumentorE"
  },
  {
   "name" : "_ZN7android8hardware5audio4V2_010BpHwStream11_hidl_startEPNS0_10IInterfaceEPNS0_7details16HidlInstrumentorE"
  },
  {
   "name" : "_ZN7android8hardware5audio4V2_010BpHwStream11linkToDeathERKNS_2spINS0_20hidl_death_recipientEEEy"
  },
  {
   "name" : "_ZN7android8hardware5audio4V2_010BpHwStream11setHwAvSyncEj"
  },
  {
   "name" : "_ZN7android8hardware5audio4V2_010BpHwStream12getDebugInfoENSt3__18functionIFvRKNS_4hidl4base4V1_09DebugInfoEEEE"
  },
  {
   "name" : "_ZN7android8hardware5audio4V2_010BpHwStream12getFrameSizeEv"
  },
  {
   "name" : "_ZN7android8hardware5audio4V2_010BpHwStream12getHashChainENSt3__18functionIFvRKNS0_8hidl_vecINS0_10hidl_arrayIhLj32EJEEEEEEEE"
  },
  {
   "name" : "_ZN7android8hardware5audio4V2_010BpHwStream12removeEffectEy"
  },
  {
   "name" : "_ZN7android8hardware5audio4V2_010BpHwStream13_hidl_standbyEPNS0_10IInterfaceEPNS0_7details16HidlInstrumentorE"
  },
  {
   "name" : "_ZN7android8hardware5audio4V2_010BpHwStream13getBufferSizeEv"
  },
  {
   "name" : "_ZN7android8hardware5audio4V2_010BpHwStream13getFrameCountEv"
  },
  {
   "name" : "_ZN7android8hardware5audio4V2_010BpHwStream13getParametersERKNS0_8hidl_vecINS0_11hidl_stringEEENSt3__18functionIFvNS2_6ResultERKNS4_INS2_14ParameterValueEEEEEE"
  },
  {
   "name" : "_ZN7android8hardware5audio4V2_010BpHwStream13getSampleRateEv"
  },
  {
   "name" : "_ZN7android8hardware5audio4V2_010BpHwStream13setParametersERKNS0_8hidl_vecINS2_14ParameterValueEEE"
  },
  {
   "name" : "_ZN7android8hardware5audio4V2_010BpHwStream13setSampleRateEj"
  },
  {
   "name" : "_ZN7android8hardware5audio4V2_010BpHwStream13unlinkToDeathERKNS_2spINS0_20hidl_death_recipientEEE"
  },
  {
   "name" : "_ZN7android8hardware5audio4V2_010BpHwStream14getChannelMaskEv"
  },
  {
   "name" : "_ZN7android8hardware5audio4V2_010BpHwStream14interfaceChainENSt3__18functionIFvRKNS0_8hidl_vecINS0_11hidl_stringEEEEEE"
  },
  {
   "name" : "_ZN7android8hardware5audio4V2_010BpHwStream14setChannelMaskENS1_6common4V2_016AudioChannelMaskE"
  },
  {
   "name" : "_ZN7android8hardware5audio4V2_010BpHwStream15_hidl_addEffectEPNS0_10IInterfaceEPNS0_7details16HidlInstrumentorEy"
  },
  {
   "name" : "_ZN7android8hardware5audio4V2_010BpHwStream15_hidl_debugDumpEPNS0_10IInterfaceEPNS0_7details16HidlInstrumentorERKNS0_11hidl_handleE"
  },
  {
   "name" : "_ZN7android8hardware5audio4V2_010BpHwStream15_hidl_getDeviceEPNS0_10IInterfaceEPNS0_7details16HidlInstrumentorE"
  },
  {
   "name" : "_ZN7android8hardware5audio4V2_010BpHwStream15_hidl_getFormatEPNS0_10IInterfaceEPNS0_7details16HidlInstrumentorE"
  },
  {
   "name" : "_ZN7android8hardware5audio4V2_010BpHwStream15_hidl_setDeviceEPNS0_10IInterfaceEPNS0_7details16HidlInstrumentorERKNS2_13DeviceAddressE"
  },
  {
   "name" : "_ZN7android8hardware5audio4V2_010BpHwStream15_hidl_setFormatEPNS0_10IInterfaceEPNS0_7details16HidlInstrumentorENS1_6common4V2_011AudioFormatE"
  },
  {
   "name" : "_ZN7android8hardware5audio4V2_010BpHwStream15getMmapPositionENSt3__18functionIFvNS2_6ResultERKNS2_12MmapPositionEEEE"
  },
  {
   "name" : "_ZN7android8hardware5audio4V2_010BpHwStream16createMmapBufferEiNSt3__18functionIFvNS2_6ResultERKNS2_14MmapBufferInfoEEEE"
  },
  {
   "name" : "_ZN7android8hardware5audio4V2_010BpHwStream17_hidl_setHwAvSyncEPNS0_10IInterfaceEPNS0_7details16HidlInstrumentorEj"
  },
  {
   "name" : "_ZN7android8hardware5audio4V2_010BpHwStream17setConnectedStateERKNS2_13DeviceAddressEb"
  },
  {
   "name" : "_ZN7android8hardware5audio4V2_010BpHwStream18_hidl_getFrameSizeEPNS0_10IInterfaceEPNS0_7details16HidlInstrumentorE"
  },
  {
   "name" : "_ZN7android8hardware5audio4V2_010BpHwStream18_hidl_removeEffectEPNS0_10IInterfaceEPNS0_7details16HidlInstrumentorEy"
  },
  {
   "name" : "_ZN7android8hardware5audio4V2_010BpHwStream18getAudioPropertiesENSt3__18functionIFvjNS1_6common4V2_016AudioChannelMaskENS7_11AudioFormatEEEE"
  },
  {
   "name" : "_ZN7android8hardware5audio4V2_010BpHwStream19_hidl_getBufferSizeEPNS0_10IInterfaceEPNS0_7details16HidlInstrumentorE"
  },
  {
   "name" : "_ZN7android8hardware5audio4V2_010BpHwStream19_hidl_getFrameCountEPNS0_10IInterfaceEPNS0_7details16HidlInstrumentorE"
  },
  {
   "name" : "_ZN7android8hardware5audio4V2_010BpHwStream19_hidl_getParametersEPNS0_10IInterfaceEPNS0_7details16HidlInstrumentorERKNS0_8hidl_vecINS0_11hidl_stringEEENSt3__18functionIFvNS2_6ResultERKNS9_INS2_14ParameterValueEEEEEE"
  },
  {
   "name" : "_ZN7android8hardware5audio4V2_010BpHwStream19_hidl_getSampleRateEPNS0_10IInterfaceEPNS0_7details16HidlInstrumentorE"
  },
  {
   "name" : "_ZN7android8hardware5audio4V2_010BpHwStream19_hidl_setParametersEPNS0_10IInterfaceEPNS0_7details16HidlInstrumentorERKNS0_8hidl_vecINS2_14ParameterValueEEE"
  },
  {
   "name" : "_ZN7android8hardware5audio4V2_010BpHwStream19_hidl_setSampleRateEPNS0_10IInterfaceEPNS0_7details16HidlInstrumentorEj"
  },
  {
   "name" : "_ZN7android8hardware5audio4V2_010BpHwStream19getSupportedFormatsENSt3__18functionIFvRKNS0_8hidl_vecINS1_6common4V2_011AudioFormatEEEEEE"
  },
  {
   "name" : "_ZN7android8hardware5audio4V2_010BpHwStream19interfaceDescriptorENSt3__18functionIFvRKNS0_11hidl_stringEEEE"
  },
  {
   "name" : "_ZN7android8hardware5audio4V2_010BpHwStream20_hidl_getChannelMaskEPNS0_10IInterfaceEPNS0_7details16HidlInstrumentorE"
  },
  {
   "name" : "_ZN7android8hardware5audio4V2_010BpHwStream20_hidl_setChannelMaskEPNS0_10IInterfaceEPNS0_7details16HidlInstrumentorENS1_6common4V2_016AudioChannelMaskE"
  },
  {
   "name" : "_ZN7android8hardware5audio4V2_010BpHwStream21_hidl_getMmapPositionEPNS0_10IInterfaceEPNS0_7details16HidlInstrumentorENSt3__18functionIFvNS2_6ResultERKNS2_12MmapPositionEEEE"
  },
  {
   "name" : "_ZN7android8hardware5audio4V2_010BpHwStream21notifySyspropsChangedEv"
  },
  {
   "name" : "_ZN7android8hardware5audio4V2_010BpHwStream21setHALInstrumentationEv"
  },
  {
   "name" : "_ZN7android8hardware5audio4V2_010BpHwStream22_hidl_createMmapBufferEPNS0_10IInterfaceEPNS0_7details16HidlInstrumentorEiNSt3__18functionIFvNS2_6ResultERKNS2_14MmapBufferInfoEEEE"
  },
  {
   "name" : "_ZN7android8hardware5audio4V2_010BpHwStream23_hidl_setConnectedStateEPNS0_10IInterfaceEPNS0_7details16HidlInstrumentorERKNS2_13DeviceAddressEb"
  },
  {
   "name" : "_ZN7android8hardware5audio4V2_010BpHwStream23getSupportedSampleRatesENSt3__18functionIFvRKNS0_8hidl_vecIjEEEEE"
  },
  {
   "name" : "_ZN7android8hardware5audio4V2_010BpHwStream24_hidl_getAudioPropertiesEPNS0_10IInterfaceEPNS0_7details16HidlInstrumentorENSt3__18functionIFvjNS1_6common4V2_016AudioChannelMaskENSC_11AudioFormatEEEE"
  },
  {
   "name" : "_ZN7android8hardware5audio4V2_010BpHwStream24getSupportedChannelMasksENSt3__18functionIFvRKNS0_8hidl_vecINS1_6common4V2_016AudioChannelMaskEEEEEE"
  },
  {
   "name" : "_ZN7android8hardware5audio4V2_010BpHwStream25_hidl_getSupportedFormatsEPNS0_10IInterfaceEPNS0_7details16HidlInstrumentorENSt3__18functionIFvRKNS0_8hidl_vecINS1_6common4V2_011AudioFormatEEEEEE"
  },
  {
   "name" : "_ZN7android8hardware5audio4V2_010BpHwStream29_hidl_getSupportedSampleRatesEPNS0_10IInterfaceEPNS0_7details16HidlInstrumentorENSt3__18functionIFvRKNS0_8hidl_vecIjEEEEE"
  },
  {
   "name" : "_ZN7android8hardware5audio4V2_010BpHwStream30_hidl_getSupportedChannelMasksEPNS0_10IInterfaceEPNS0_7details16HidlInstrumentorENSt3__18functionIFvRKNS0_8hidl_vecINS1_6common4V2_016AudioChannelMaskEEEEEE"
  },
  {
   "name" : "_ZN7android8hardware5audio4V2_010BpHwStream4pingEv"
  },
  {
   "name" : "_ZN7android8hardware5audio4V2_010BpHwStream4stopEv"
  },
  {
   "name" : "_ZN7android8hardware5audio4V2_010BpHwStream5closeEv"
  },
  {
   "name" : "_ZN7android8hardware5audio4V2_010BpHwStream5debugERKNS0_11hidl_handleERKNS0_8hidl_vecINS0_11hidl_stringEEE"
  },
  {
   "name" : "_ZN7android8hardware5audio4V2_010BpHwStream5startEv"
  },
  {
   "name" : "_ZN7android8hardware5audio4V2_010BpHwStream7standbyEv"
  },
  {
   "name" : "_ZN7android8hardware5audio4V2_010BpHwStream9addEffectEy"
  },
  {
   "name" : "_ZN7android8hardware5audio4V2_010BpHwStream9debugDumpERKNS0_11hidl_handleE"
  },
  {
   "name" : "_ZN7android8hardware5audio4V2_010BpHwStream9getDeviceEv"
  },
  {
   "name" : "_ZN7android8hardware5audio4V2_010BpHwStream9getFormatEv"
  },
  {
   "name" : "_ZN7android8hardware5audio4V2_010BpHwStream9setDeviceERKNS2_13DeviceAddressE"
  },
  {
   "name" : "_ZN7android8hardware5audio4V2_010BpHwStream9setFormatENS1_6common4V2_011AudioFormatE"
  },
  {
   "name" : "_ZN7android8hardware5audio4V2_010BpHwStreamC1ERKNS_2spINS0_7IBinderEEE"
  },
  {
   "name" : "_ZN7android8hardware5audio4V2_010BpHwStreamC2ERKNS_2spINS0_7IBinderEEE"
  },
  {
   "name" : "_ZN7android8hardware5audio4V2_010BsStreamIn13addOnewayTaskENSt3__18functionIFvvEEE"
  },
  {
   "name" : "_ZN7android8hardware5audio4V2_010BsStreamInC1ENS_2spINS2_9IStreamInEEE"
  },
  {
   "name" : "_ZN7android8hardware5audio4V2_010BsStreamInC2ENS_2spINS2_9IStreamInEEE"
  },
  {
   "name" : "_ZN7android8hardware5audio4V2_010IStreamOut10getServiceERKNSt3__112basic_stringIcNS4_11char_traitsIcEENS4_9allocatorIcEEEEb"
  },
  {
   "name" : "_ZN7android8hardware5audio4V2_010IStreamOut11linkToDeathERKNS_2spINS0_20hidl_death_recipientEEEy"
  },
  {
   "name" : "_ZN7android8hardware5audio4V2_010IStreamOut12getDebugInfoENSt3__18functionIFvRKNS_4hidl4base4V1_09DebugInfoEEEE"
  },
  {
   "name" : "_ZN7android8hardware5audio4V2_010IStreamOut12getHashChainENSt3__18functionIFvRKNS0_8hidl_vecINS0_10hidl_arrayIhLj32EJEEEEEEEE"
  },
  {
   "name" : "_ZN7android8hardware5audio4V2_010IStreamOut13tryGetServiceERKNSt3__112basic_stringIcNS4_11char_traitsIcEENS4_9allocatorIcEEEEb"
  },
  {
   "name" : "_ZN7android8hardware5audio4V2_010IStreamOut13unlinkToDeathERKNS_2spINS0_20hidl_death_recipientEEE"
  },
  {
   "name" : "_ZN7android8hardware5audio4V2_010IStreamOut14interfaceChainENSt3__18functionIFvRKNS0_8hidl_vecINS0_11hidl_stringEEEEEE"
  },
  {
   "name" : "_ZN7android8hardware5audio4V2_010IStreamOut17registerAsServiceERKNSt3__112basic_stringIcNS4_11char_traitsIcEENS4_9allocatorIcEEEE"
  },
  {
   "name" : "_ZN7android8hardware5audio4V2_010IStreamOut19interfaceDescriptorENSt3__18functionIFvRKNS0_11hidl_stringEEEE"
  },
  {
   "name" : "_ZN7android8hardware5audio4V2_010IStreamOut21notifySyspropsChangedEv"
  },
  {
   "name" : "_ZN7android8hardware5audio4V2_010IStreamOut21setHALInstrumentationEv"
  },
  {
   "name" : "_ZN7android8hardware5audio4V2_010IStreamOut24registerForNotificationsERKNSt3__112basic_stringIcNS4_11char_traitsIcEENS4_9allocatorIcEEEERKNS_2spINS_4hidl7manager4V1_020IServiceNotificationEEE"
  },
  {
   "name" : "_ZN7android8hardware5audio4V2_010IStreamOut4pingEv"
  },
  {
   "name" : "_ZN7android8hardware5audio4V2_010IStreamOut5debugERKNS0_11hidl_handleERKNS0_8hidl_vecINS0_11hidl_stringEEE"
  },
  {
   "name" : "_ZN7android8hardware5audio4V2_010IStreamOut8castFromERKNS_2spINS2_7IStreamEEEb"
  },
  {
   "name" : "_ZN7android8hardware5audio4V2_010IStreamOut8castFromERKNS_2spINS_4hidl4base4V1_05IBaseEEEb"
  },
  {
   "name" : "_ZN7android8hardware5audio4V2_010IStreamOut8castFromERKNS_2spIS3_EEb"
  },
  {
   "name" : "_ZN7android8hardware5audio4V2_011BsStreamOut13addOnewayTaskENSt3__18functionIFvvEEE"
  },
  {
   "name" : "_ZN7android8hardware5audio4V2_011BsStreamOutC1ENS_2spINS2_10IStreamOutEEE"
  },
  {
   "name" : "_ZN7android8hardware5audio4V2_011BsStreamOutC2ENS_2spINS2_10IStreamOutEEE"
  },
  {
   "name" : "_ZN7android8hardware5audio4V2_012BnHwStreamIn10onTransactEjRKNS0_6ParcelEPS4_jNSt3__18functionIFvRS4_EEE"
  },
  {
   "name" : "_ZN7android8hardware5audio4V2_012BnHwStreamIn12getDebugInfoENSt3__18functionIFvRKNS_4hidl4base4V1_09DebugInfoEEEE"
  },
  {
   "name" : "_ZN7android8hardware5audio4V2_012BnHwStreamIn13_hidl_setGainEPNS_4hidl4base4V1_08BnHwBaseERKNS0_6ParcelEPS9_NSt3__18functionIFvRS9_EEE"
  },
  {
   "name" : "_ZN7android8hardware5audio4V2_012BnHwStreamIn20_hidl_getAudioSourceEPNS_4hidl4base4V1_08BnHwBaseERKNS0_6ParcelEPS9_NSt3__18functionIFvRS9_EEE"
  },
  {
   "name" : "_ZN7android8hardware5audio4V2_012BnHwStreamIn23_hidl_prepareForReadingEPNS_4hidl4base4V1_08BnHwBaseERKNS0_6ParcelEPS9_NSt3__18functionIFvRS9_EEE"
  },
  {
   "name" : "_ZN7android8hardware5audio4V2_012BnHwStreamIn24_hidl_getCapturePositionEPNS_4hidl4base4V1_08BnHwBaseERKNS0_6ParcelEPS9_NSt3__18functionIFvRS9_EEE"
  },
  {
   "name" : "_ZN7android8hardware5audio4V2_012BnHwStreamIn24_hidl_getInputFramesLostEPNS_4hidl4base4V1_08BnHwBaseERKNS0_6ParcelEPS9_NSt3__18functionIFvRS9_EEE"
  },
  {
   "name" : "_ZN7android8hardware5audio4V2_012BnHwStreamIn4pingEv"
  },
  {
   "name" : "_ZN7android8hardware5audio4V2_012BnHwStreamInC1ERKNS_2spINS2_9IStreamInEEE"
  },
  {
   "name" : "_ZN7android8hardware5audio4V2_012BnHwStreamInC2ERKNS_2spINS2_9IStreamInEEE"
  },
  {
   "name" : "_ZN7android8hardware5audio4V2_012BnHwStreamInD0Ev"
  },
  {
   "name" : "_ZN7android8hardware5audio4V2_012BnHwStreamInD1Ev"
  },
  {
   "name" : "_ZN7android8hardware5audio4V2_012BnHwStreamInD2Ev"
  },
  {
   "name" : "_ZN7android8hardware5audio4V2_012BpHwStreamIn11linkToDeathERKNS_2spINS0_20hidl_death_recipientEEEy"
  },
  {
   "name" : "_ZN7android8hardware5audio4V2_012BpHwStreamIn11setHwAvSyncEj"
  },
  {
   "name" : "_ZN7android8hardware5audio4V2_012BpHwStreamIn12getDebugInfoENSt3__18functionIFvRKNS_4hidl4base4V1_09DebugInfoEEEE"
  },
  {
   "name" : "_ZN7android8hardware5audio4V2_012BpHwStreamIn12getFrameSizeEv"
  },
  {
   "name" : "_ZN7android8hardware5audio4V2_012BpHwStreamIn12getHashChainENSt3__18functionIFvRKNS0_8hidl_vecINS0_10hidl_arrayIhLj32EJEEEEEEEE"
  },
  {
   "name" : "_ZN7android8hardware5audio4V2_012BpHwStreamIn12removeEffectEy"
  },
  {
   "name" : "_ZN7android8hardware5audio4V2_012BpHwStreamIn13_hidl_setGainEPNS0_10IInterfaceEPNS0_7details16HidlInstrumentorEf"
  },
  {
   "name" : "_ZN7android8hardware5audio4V2_012BpHwStreamIn13getBufferSizeEv"
  },
  {
   "name" : "_ZN7android8hardware5audio4V2_012BpHwStreamIn13getFrameCountEv"
  },
  {
   "name" : "_ZN7android8hardware5audio4V2_012BpHwStreamIn13getParametersERKNS0_8hidl_vecINS0_11hidl_stringEEENSt3__18functionIFvNS2_6ResultERKNS4_INS2_14ParameterValueEEEEEE"
  },
  {
   "name" : "_ZN7android8hardware5audio4V2_012BpHwStreamIn13getSampleRateEv"
  },
  {
   "name" : "_ZN7android8hardware5audio4V2_012BpHwStreamIn13setParametersERKNS0_8hidl_vecINS2_14ParameterValueEEE"
  },
  {
   "name" : "_ZN7android8hardware5audio4V2_012BpHwStreamIn13setSampleRateEj"
  },
  {
   "name" : "_ZN7android8hardware5audio4V2_012BpHwStreamIn13unlinkToDeathERKNS_2spINS0_20hidl_death_recipientEEE"
  },
  {
   "name" : "_ZN7android8hardware5audio4V2_012BpHwStreamIn14getAudioSourceENSt3__18functionIFvNS2_6ResultENS1_6common4V2_011AudioSourceEEEE"
  },
  {
   "name" : "_ZN7android8hardware5audio4V2_012BpHwStreamIn14getChannelMaskEv"
  },
  {
   "name" : "_ZN7android8hardware5audio4V2_012BpHwStreamIn14interfaceChainENSt3__18functionIFvRKNS0_8hidl_vecINS0_11hidl_stringEEEEEE"
  },
  {
   "name" : "_ZN7android8hardware5audio4V2_012BpHwStreamIn14setChannelMaskENS1_6common4V2_016AudioChannelMaskE"
  },
  {
   "name" : "_ZN7android8hardware5audio4V2_012BpHwStreamIn15getMmapPositionENSt3__18functionIFvNS2_6ResultERKNS2_12MmapPositionEEEE"
  },
  {
   "name" : "_ZN7android8hardware5audio4V2_012BpHwStreamIn16createMmapBufferEiNSt3__18functionIFvNS2_6ResultERKNS2_14MmapBufferInfoEEEE"
  },
  {
   "name" : "_ZN7android8hardware5audio4V2_012BpHwStreamIn17prepareForReadingEjjNSt3__18functionIFvNS2_6ResultERKNS0_12MQDescriptorINS2_9IStreamIn14ReadParametersELNS0_8MQFlavorE1EEERKNS7_IhLSA_1EEERKNS7_INS8_10ReadStatusELSA_1EEERKNS1_6common4V2_010ThreadInfoEEEE"
  },
  {
   "name" : "_ZN7android8hardware5audio4V2_012BpHwStreamIn17setConnectedStateERKNS2_13DeviceAddressEb"
  },
  {
   "name" : "_ZN7android8hardware5audio4V2_012BpHwStreamIn18getAudioPropertiesENSt3__18functionIFvjNS1_6common4V2_016AudioChannelMaskENS7_11AudioFormatEEEE"
  },
  {
   "name" : "_ZN7android8hardware5audio4V2_012BpHwStreamIn18getCapturePositionENSt3__18functionIFvNS2_6ResultEyyEEE"
  },
  {
   "name" : "_ZN7android8hardware5audio4V2_012BpHwStreamIn18getInputFramesLostEv"
  },
  {
   "name" : "_ZN7android8hardware5audio4V2_012BpHwStreamIn19getSupportedFormatsENSt3__18functionIFvRKNS0_8hidl_vecINS1_6common4V2_011AudioFormatEEEEEE"
  },
  {
   "name" : "_ZN7android8hardware5audio4V2_012BpHwStreamIn19interfaceDescriptorENSt3__18functionIFvRKNS0_11hidl_stringEEEE"
  },
  {
   "name" : "_ZN7android8hardware5audio4V2_012BpHwStreamIn20_hidl_getAudioSourceEPNS0_10IInterfaceEPNS0_7details16HidlInstrumentorENSt3__18functionIFvNS2_6ResultENS1_6common4V2_011AudioSourceEEEE"
  },
  {
   "name" : "_ZN7android8hardware5audio4V2_012BpHwStreamIn21notifySyspropsChangedEv"
  },
  {
   "name" : "_ZN7android8hardware5audio4V2_012BpHwStreamIn21setHALInstrumentationEv"
  },
  {
   "name" : "_ZN7android8hardware5audio4V2_012BpHwStreamIn23_hidl_prepareForReadingEPNS0_10IInterfaceEPNS0_7details16HidlInstrumentorEjjNSt3__18functionIFvNS2_6ResultERKNS0_12MQDescriptorINS2_9IStreamIn14ReadParametersELNS0_8MQFlavorE1EEERKNSC_IhLSF_1EEERKNSC_INSD_10ReadStatusELSF_1EEERKNS1_6common4V2_010ThreadInfoEEEE"
  },
  {
   "name" : "_ZN7android8hardware5audio4V2_012BpHwStreamIn23getSupportedSampleRatesENSt3__18functionIFvRKNS0_8hidl_vecIjEEEEE"
  },
  {
   "name" : "_ZN7android8hardware5audio4V2_012BpHwStreamIn24_hidl_getCapturePositionEPNS0_10IInterfaceEPNS0_7details16HidlInstrumentorENSt3__18functionIFvNS2_6ResultEyyEEE"
  },
  {
   "name" : "_ZN7android8hardware5audio4V2_012BpHwStreamIn24_hidl_getInputFramesLostEPNS0_10IInterfaceEPNS0_7details16HidlInstrumentorE"
  },
  {
   "name" : "_ZN7android8hardware5audio4V2_012BpHwStreamIn24getSupportedChannelMasksENSt3__18functionIFvRKNS0_8hidl_vecINS1_6common4V2_016AudioChannelMaskEEEEEE"
  },
  {
   "name" : "_ZN7android8hardware5audio4V2_012BpHwStreamIn4pingEv"
  },
  {
   "name" : "_ZN7android8hardware5audio4V2_012BpHwStreamIn4stopEv"
  },
  {
   "name" : "_ZN7android8hardware5audio4V2_012BpHwStreamIn5closeEv"
  },
  {
   "name" : "_ZN7android8hardware5audio4V2_012BpHwStreamIn5debugERKNS0_11hidl_handleERKNS0_8hidl_vecINS0_11hidl_stringEEE"
  },
  {
   "name" : "_ZN7android8hardware5audio4V2_012BpHwStreamIn5startEv"
  },
  {
   "name" : "_ZN7android8hardware5audio4V2_012BpHwStreamIn7setGainEf"
  },
  {
   "name" : "_ZN7android8hardware5audio4V2_012BpHwStreamIn7standbyEv"
  },
  {
   "name" : "_ZN7android8hardware5audio4V2_012BpHwStreamIn9addEffectEy"
  },
  {
   "name" : "_ZN7android8hardware5audio4V2_012BpHwStreamIn9debugDumpERKNS0_11hidl_handleE"
  },
  {
   "name" : "_ZN7android8hardware5audio4V2_012BpHwStreamIn9getDeviceEv"
  },
  {
   "name" : "_ZN7android8hardware5audio4V2_012BpHwStreamIn9getFormatEv"
  },
  {
   "name" : "_ZN7android8hardware5audio4V2_012BpHwStreamIn9setDeviceERKNS2_13DeviceAddressE"
  },
  {
   "name" : "_ZN7android8hardware5audio4V2_012BpHwStreamIn9setFormatENS1_6common4V2_011AudioFormatE"
  },
  {
   "name" : "_ZN7android8hardware5audio4V2_012BpHwStreamInC1ERKNS_2spINS0_7IBinderEEE"
  },
  {
   "name" : "_ZN7android8hardware5audio4V2_012BpHwStreamInC2ERKNS_2spINS0_7IBinderEEE"
  },
  {
   "name" : "_ZN7android8hardware5audio4V2_013BnHwStreamOut10onTransactEjRKNS0_6ParcelEPS4_jNSt3__18functionIFvRS4_EEE"
  },
  {
   "name" : "_ZN7android8hardware5audio4V2_013BnHwStreamOut11_hidl_drainEPNS_4hidl4base4V1_08BnHwBaseERKNS0_6ParcelEPS9_NSt3__18functionIFvRS9_EEE"
  },
  {
   "name" : "_ZN7android8hardware5audio4V2_013BnHwStreamOut11_hidl_flushEPNS_4hidl4base4V1_08BnHwBaseERKNS0_6ParcelEPS9_NSt3__18functionIFvRS9_EEE"
  },
  {
   "name" : "_ZN7android8hardware5audio4V2_013BnHwStreamOut11_hidl_pauseEPNS_4hidl4base4V1_08BnHwBaseERKNS0_6ParcelEPS9_NSt3__18functionIFvRS9_EEE"
  },
  {
   "name" : "_ZN7android8hardware5audio4V2_013BnHwStreamOut12_hidl_resumeEPNS_4hidl4base4V1_08BnHwBaseERKNS0_6ParcelEPS9_NSt3__18functionIFvRS9_EEE"
  },
  {
   "name" : "_ZN7android8hardware5audio4V2_013BnHwStreamOut12getDebugInfoENSt3__18functionIFvRKNS_4hidl4base4V1_09DebugInfoEEEE"
  },
  {
   "name" : "_ZN7android8hardware5audio4V2_013BnHwStreamOut15_hidl_setVolumeEPNS_4hidl4base4V1_08BnHwBaseERKNS0_6ParcelEPS9_NSt3__18functionIFvRS9_EEE"
  },
  {
   "name" : "_ZN7android8hardware5audio4V2_013BnHwStreamOut16_hidl_getLatencyEPNS_4hidl4base4V1_08BnHwBaseERKNS0_6ParcelEPS9_NSt3__18functionIFvRS9_EEE"
  },
  {
   "name" : "_ZN7android8hardware5audio4V2_013BnHwStreamOut17_hidl_setCallbackEPNS_4hidl4base4V1_08BnHwBaseERKNS0_6ParcelEPS9_NSt3__18functionIFvRS9_EEE"
  },
  {
   "name" : "_ZN7android8hardware5audio4V2_013BnHwStreamOut19_hidl_clearCallbackEPNS_4hidl4base4V1_08BnHwBaseERKNS0_6ParcelEPS9_NSt3__18functionIFvRS9_EEE"
  },
  {
   "name" : "_ZN7android8hardware5audio4V2_013BnHwStreamOut19_hidl_supportsDrainEPNS_4hidl4base4V1_08BnHwBaseERKNS0_6ParcelEPS9_NSt3__18functionIFvRS9_EEE"
  },
  {
   "name" : "_ZN7android8hardware5audio4V2_013BnHwStreamOut23_hidl_getRenderPositionEPNS_4hidl4base4V1_08BnHwBaseERKNS0_6ParcelEPS9_NSt3__18functionIFvRS9_EEE"
  },
  {
   "name" : "_ZN7android8hardware5audio4V2_013BnHwStreamOut23_hidl_prepareForWritingEPNS_4hidl4base4V1_08BnHwBaseERKNS0_6ParcelEPS9_NSt3__18functionIFvRS9_EEE"
  },
  {
   "name" : "_ZN7android8hardware5audio4V2_013BnHwStreamOut27_hidl_getNextWriteTimestampEPNS_4hidl4base4V1_08BnHwBaseERKNS0_6ParcelEPS9_NSt3__18functionIFvRS9_EEE"
  },
  {
   "name" : "_ZN7android8hardware5audio4V2_013BnHwStreamOut28_hidl_supportsPauseAndResumeEPNS_4hidl4base4V1_08BnHwBaseERKNS0_6ParcelEPS9_NSt3__18functionIFvRS9_EEE"
  },
  {
   "name" : "_ZN7android8hardware5audio4V2_013BnHwStreamOut29_hidl_getPresentationPositionEPNS_4hidl4base4V1_08BnHwBaseERKNS0_6ParcelEPS9_NSt3__18functionIFvRS9_EEE"
  },
  {
   "name" : "_ZN7android8hardware5audio4V2_013BnHwStreamOut4pingEv"
  },
  {
   "name" : "_ZN7android8hardware5audio4V2_013BnHwStreamOutC1ERKNS_2spINS2_10IStreamOutEEE"
  },
  {
   "name" : "_ZN7android8hardware5audio4V2_013BnHwStreamOutC2ERKNS_2spINS2_10IStreamOutEEE"
  },
  {
   "name" : "_ZN7android8hardware5audio4V2_013BnHwStreamOutD0Ev"
  },
  {
   "name" : "_ZN7android8hardware5audio4V2_013BnHwStreamOutD1Ev"
  },
  {
   "name" : "_ZN7android8hardware5audio4V2_013BnHwStreamOutD2Ev"
  },
  {
   "name" : "_ZN7android8hardware5audio4V2_013BpHwStreamOut10getLatencyEv"
  },
  {
   "name" : "_ZN7android8hardware5audio4V2_013BpHwStreamOut11_hidl_drainEPNS0_10IInterfaceEPNS0_7details16HidlInstrumentorENS2_10AudioDrainE"
  },
  {
   "name" : "_ZN7android8hardware5audio4V2_013BpHwStreamOut11_hidl_flushEPNS0_10IInterfaceEPNS0_7details16HidlInstrumentorE"
  },
  {
   "name" : "_ZN7android8hardware5audio4V2_013BpHwStreamOut11_hidl_pauseEPNS0_10IInterfaceEPNS0_7details16HidlInstrumentorE"
  },
  {
   "name" : "_ZN7android8hardware5audio4V2_013BpHwStreamOut11linkToDeathERKNS_2spINS0_20hidl_death_recipientEEEy"
  },
  {
   "name" : "_ZN7android8hardware5audio4V2_013BpHwStreamOut11setCallbackERKNS_2spINS2_18IStreamOutCallbackEEE"
  },
  {
   "name" : "_ZN7android8hardware5audio4V2_013BpHwStreamOut11setHwAvSyncEj"
  },
  {
   "name" : "_ZN7android8hardware5audio4V2_013BpHwStreamOut12_hidl_resumeEPNS0_10IInterfaceEPNS0_7details16HidlInstrumentorE"
  },
  {
   "name" : "_ZN7android8hardware5audio4V2_013BpHwStreamOut12getDebugInfoENSt3__18functionIFvRKNS_4hidl4base4V1_09DebugInfoEEEE"
  },
  {
   "name" : "_ZN7android8hardware5audio4V2_013BpHwStreamOut12getFrameSizeEv"
  },
  {
   "name" : "_ZN7android8hardware5audio4V2_013BpHwStreamOut12getHashChainENSt3__18functionIFvRKNS0_8hidl_vecINS0_10hidl_arrayIhLj32EJEEEEEEEE"
  },
  {
   "name" : "_ZN7android8hardware5audio4V2_013BpHwStreamOut12removeEffectEy"
  },
  {
   "name" : "_ZN7android8hardware5audio4V2_013BpHwStreamOut13clearCallbackEv"
  },
  {
   "name" : "_ZN7android8hardware5audio4V2_013BpHwStreamOut13getBufferSizeEv"
  },
  {
   "name" : "_ZN7android8hardware5audio4V2_013BpHwStreamOut13getFrameCountEv"
  },
  {
   "name" : "_ZN7android8hardware5audio4V2_013BpHwStreamOut13getParametersERKNS0_8hidl_vecINS0_11hidl_stringEEENSt3__18functionIFvNS2_6ResultERKNS4_INS2_14ParameterValueEEEEEE"
  },
  {
   "name" : "_ZN7android8hardware5audio4V2_013BpHwStreamOut13getSampleRateEv"
  },
  {
   "name" : "_ZN7android8hardware5audio4V2_013BpHwStreamOut13setParametersERKNS0_8hidl_vecINS2_14ParameterValueEEE"
  },
  {
   "name" : "_ZN7android8hardware5audio4V2_013BpHwStreamOut13setSampleRateEj"
  },
  {
   "name" : "_ZN7android8hardware5audio4V2_013BpHwStreamOut13supportsDrainEv"
  },
  {
   "name" : "_ZN7android8hardware5audio4V2_013BpHwStreamOut13unlinkToDeathERKNS_2spINS0_20hidl_death_recipientEEE"
  },
  {
   "name" : "_ZN7android8hardware5audio4V2_013BpHwStreamOut14getChannelMaskEv"
  },
  {
   "name" : "_ZN7android8hardware5audio4V2_013BpHwStreamOut14interfaceChainENSt3__18functionIFvRKNS0_8hidl_vecINS0_11hidl_stringEEEEEE"
  },
  {
   "name" : "_ZN7android8hardware5audio4V2_013BpHwStreamOut14setChannelMaskENS1_6common4V2_016AudioChannelMaskE"
  },
  {
   "name" : "_ZN7android8hardware5audio4V2_013BpHwStreamOut15_hidl_setVolumeEPNS0_10IInterfaceEPNS0_7details16HidlInstrumentorEff"
  },
  {
   "name" : "_ZN7android8hardware5audio4V2_013BpHwStreamOut15getMmapPositionENSt3__18functionIFvNS2_6ResultERKNS2_12MmapPositionEEEE"
  },
  {
   "name" : "_ZN7android8hardware5audio4V2_013BpHwStreamOut16_hidl_getLatencyEPNS0_10IInterfaceEPNS0_7details16HidlInstrumentorE"
  },
  {
   "name" : "_ZN7android8hardware5audio4V2_013BpHwStreamOut16createMmapBufferEiNSt3__18functionIFvNS2_6ResultERKNS2_14MmapBufferInfoEEEE"
  },
  {
   "name" : "_ZN7android8hardware5audio4V2_013BpHwStreamOut17_hidl_setCallbackEPNS0_10IInterfaceEPNS0_7details16HidlInstrumentorERKNS_2spINS2_18IStreamOutCallbackEEE"
  },
  {
   "name" : "_ZN7android8hardware5audio4V2_013BpHwStreamOut17getRenderPositionENSt3__18functionIFvNS2_6ResultEjEEE"
  },
  {
   "name" : "_ZN7android8hardware5audio4V2_013BpHwStreamOut17prepareForWritingEjjNSt3__18functionIFvNS2_6ResultERKNS0_12MQDescriptorINS2_10IStreamOut12WriteCommandELNS0_8MQFlavorE1EEERKNS7_IhLSA_1EEERKNS7_INS8_11WriteStatusELSA_1EEERKNS1_6common4V2_010ThreadInfoEEEE"
  },
  {
   "name" : "_ZN7android8hardware5audio4V2_013BpHwStreamOut17setConnectedStateERKNS2_13DeviceAddressEb"
  },
  {
   "name" : "_ZN7android8hardware5audio4V2_013BpHwStreamOut18getAudioPropertiesENSt3__18functionIFvjNS1_6common4V2_016AudioChannelMaskENS7_11AudioFormatEEEE"
  },
  {
   "name" : "_ZN7android8hardware5audio4V2_013BpHwStreamOut19_hidl_clearCallbackEPNS0_10IInterfaceEPNS0_7details16HidlInstrumentorE"
  },
  {
   "name" : "_ZN7android8hardware5audio4V2_013BpHwStreamOut19_hidl_supportsDrainEPNS0_10IInterfaceEPNS0_7details16HidlInstrumentorE"
  },
  {
   "name" : "_ZN7android8hardware5audio4V2_013BpHwStreamOut19getSupportedFormatsENSt3__18functionIFvRKNS0_8hidl_vecINS1_6common4V2_011AudioFormatEEEEEE"
  },
  {
   "name" : "_ZN7android8hardware5audio4V2_013BpHwStreamOut19interfaceDescriptorENSt3__18functionIFvRKNS0_11hidl_stringEEEE"
  },
  {
   "name" : "_ZN7android8hardware5audio4V2_013BpHwStreamOut21getNextWriteTimestampENSt3__18functionIFvNS2_6ResultExEEE"
  },
  {
   "name" : "_ZN7android8hardware5audio4V2_013BpHwStreamOut21notifySyspropsChangedEv"
  },
  {
   "name" : "_ZN7android8hardware5audio4V2_013BpHwStreamOut21setHALInstrumentationEv"
  },
  {
   "name" : "_ZN7android8hardware5audio4V2_013BpHwStreamOut22supportsPauseAndResumeENSt3__18functionIFvbbEEE"
  },
  {
   "name" : "_ZN7android8hardware5audio4V2_013BpHwStreamOut23_hidl_getRenderPositionEPNS0_10IInterfaceEPNS0_7details16HidlInstrumentorENSt3__18functionIFvNS2_6ResultEjEEE"
  },
  {
   "name" : "_ZN7android8hardware5audio4V2_013BpHwStreamOut23_hidl_prepareForWritingEPNS0_10IInterfaceEPNS0_7details16HidlInstrumentorEjjNSt3__18functionIFvNS2_6ResultERKNS0_12MQDescriptorINS2_10IStreamOut12WriteCommandELNS0_8MQFlavorE1EEERKNSC_IhLSF_1EEERKNSC_INSD_11WriteStatusELSF_1EEERKNS1_6common4V2_010ThreadInfoEEEE"
  },
  {
   "name" : "_ZN7android8hardware5audio4V2_013BpHwStreamOut23getPresentationPositionENSt3__18functionIFvNS2_6ResultEyRKNS2_8TimeSpecEEEE"
  },
  {
   "name" : "_ZN7android8hardware5audio4V2_013BpHwStreamOut23getSupportedSampleRatesENSt3__18functionIFvRKNS0_8hidl_vecIjEEEEE"
  },
  {
   "name" : "_ZN7android8hardware5audio4V2_013BpHwStreamOut24getSupportedChannelMasksENSt3__18functionIFvRKNS0_8hidl_vecINS1_6common4V2_016AudioChannelMaskEEEEEE"
  },
  {
   "name" : "_ZN7android8hardware5audio4V2_013BpHwStreamOut27_hidl_getNextWriteTimestampEPNS0_10IInterfaceEPNS0_7details16HidlInstrumentorENSt3__18functionIFvNS2_6ResultExEEE"
  },
  {
   "name" : "_ZN7android8hardware5audio4V2_013BpHwStreamOut28_hidl_supportsPauseAndResumeEPNS0_10IInterfaceEPNS0_7details16HidlInstrumentorENSt3__18functionIFvbbEEE"
  },
  {
   "name" : "_ZN7android8hardware5audio4V2_013BpHwStreamOut29_hidl_getPresentationPositionEPNS0_10IInterfaceEPNS0_7details16HidlInstrumentorENSt3__18functionIFvNS2_6ResultEyRKNS2_8TimeSpecEEEE"
  },
  {
   "name" : "_ZN7android8hardware5audio4V2_013BpHwStreamOut4pingEv"
  },
  {
   "name" : "_ZN7android8hardware5audio4V2_013BpHwStreamOut4stopEv"
  },
  {
   "name" : "_ZN7android8hardware5audio4V2_013BpHwStreamOut5closeEv"
  },
  {
   "name" : "_ZN7android8hardware5audio4V2_013BpHwStreamOut5debugERKNS0_11hidl_handleERKNS0_8hidl_vecINS0_11hidl_stringEEE"
  },
  {
   "name" : "_ZN7android8hardware5audio4V2_013BpHwStreamOut5drainENS2_10AudioDrainE"
  },
  {
   "name" : "_ZN7android8hardware5audio4V2_013BpHwStreamOut5flushEv"
  },
  {
   "name" : "_ZN7android8hardware5audio4V2_013BpHwStreamOut5pauseEv"
  },
  {
   "name" : "_ZN7android8hardware5audio4V2_013BpHwStreamOut5startEv"
  },
  {
   "name" : "_ZN7android8hardware5audio4V2_013BpHwStreamOut6resumeEv"
  },
  {
   "name" : "_ZN7android8hardware5audio4V2_013BpHwStreamOut7standbyEv"
  },
  {
   "name" : "_ZN7android8hardware5audio4V2_013BpHwStreamOut9addEffectEy"
  },
  {
   "name" : "_ZN7android8hardware5audio4V2_013BpHwStreamOut9debugDumpERKNS0_11hidl_handleE"
  },
  {
   "name" : "_ZN7android8hardware5audio4V2_013BpHwStreamOut9getDeviceEv"
  },
  {
   "name" : "_ZN7android8hardware5audio4V2_013BpHwStreamOut9getFormatEv"
  },
  {
   "name" : "_ZN7android8hardware5audio4V2_013BpHwStreamOut9setDeviceERKNS2_13DeviceAddressE"
  },
  {
   "name" : "_ZN7android8hardware5audio4V2_013BpHwStreamOut9setFormatENS1_6common4V2_011AudioFormatE"
  },
  {
   "name" : "_ZN7android8hardware5audio4V2_013BpHwStreamOut9setVolumeEff"
  },
  {
   "name" : "_ZN7android8hardware5audio4V2_013BpHwStreamOutC1ERKNS_2spINS0_7IBinderEEE"
  },
  {
   "name" : "_ZN7android8hardware5audio4V2_013BpHwStreamOutC2ERKNS_2spINS0_7IBinderEEE"
  },
  {
   "name" : "_ZN7android8hardware5audio4V2_014IPrimaryDevice10getServiceERKNSt3__112basic_stringIcNS4_11char_traitsIcEENS4_9allocatorIcEEEEb"
  },
  {
   "name" : "_ZN7android8hardware5audio4V2_014IPrimaryDevice11linkToDeathERKNS_2spINS0_20hidl_death_recipientEEEy"
  },
  {
   "name" : "_ZN7android8hardware5audio4V2_014IPrimaryDevice12getDebugInfoENSt3__18functionIFvRKNS_4hidl4base4V1_09DebugInfoEEEE"
  },
  {
   "name" : "_ZN7android8hardware5audio4V2_014IPrimaryDevice12getHashChainENSt3__18functionIFvRKNS0_8hidl_vecINS0_10hidl_arrayIhLj32EJEEEEEEEE"
  },
  {
   "name" : "_ZN7android8hardware5audio4V2_014IPrimaryDevice13tryGetServiceERKNSt3__112basic_stringIcNS4_11char_traitsIcEENS4_9allocatorIcEEEEb"
  },
  {
   "name" : "_ZN7android8hardware5audio4V2_014IPrimaryDevice13unlinkToDeathERKNS_2spINS0_20hidl_death_recipientEEE"
  },
  {
   "name" : "_ZN7android8hardware5audio4V2_014IPrimaryDevice14interfaceChainENSt3__18functionIFvRKNS0_8hidl_vecINS0_11hidl_stringEEEEEE"
  },
  {
   "name" : "_ZN7android8hardware5audio4V2_014IPrimaryDevice17registerAsServiceERKNSt3__112basic_stringIcNS4_11char_traitsIcEENS4_9allocatorIcEEEE"
  },
  {
   "name" : "_ZN7android8hardware5audio4V2_014IPrimaryDevice19interfaceDescriptorENSt3__18functionIFvRKNS0_11hidl_stringEEEE"
  },
  {
   "name" : "_ZN7android8hardware5audio4V2_014IPrimaryDevice21notifySyspropsChangedEv"
  },
  {
   "name" : "_ZN7android8hardware5audio4V2_014IPrimaryDevice21setHALInstrumentationEv"
  },
  {
   "name" : "_ZN7android8hardware5audio4V2_014IPrimaryDevice24registerForNotificationsERKNSt3__112basic_stringIcNS4_11char_traitsIcEENS4_9allocatorIcEEEERKNS_2spINS_4hidl7manager4V1_020IServiceNotificationEEE"
  },
  {
   "name" : "_ZN7android8hardware5audio4V2_014IPrimaryDevice4pingEv"
  },
  {
   "name" : "_ZN7android8hardware5audio4V2_014IPrimaryDevice5debugERKNS0_11hidl_handleERKNS0_8hidl_vecINS0_11hidl_stringEEE"
  },
  {
   "name" : "_ZN7android8hardware5audio4V2_014IPrimaryDevice8castFromERKNS_2spINS2_7IDeviceEEEb"
  },
  {
   "name" : "_ZN7android8hardware5audio4V2_014IPrimaryDevice8castFromERKNS_2spINS_4hidl4base4V1_05IBaseEEEb"
  },
  {
   "name" : "_ZN7android8hardware5audio4V2_014IPrimaryDevice8castFromERKNS_2spIS3_EEb"
  },
  {
   "name" : "_ZN7android8hardware5audio4V2_015BsPrimaryDevice13addOnewayTaskENSt3__18functionIFvvEEE"
  },
  {
   "name" : "_ZN7android8hardware5audio4V2_015BsPrimaryDeviceC1ENS_2spINS2_14IPrimaryDeviceEEE"
  },
  {
   "name" : "_ZN7android8hardware5audio4V2_015BsPrimaryDeviceC2ENS_2spINS2_14IPrimaryDeviceEEE"
  },
  {
   "name" : "_ZN7android8hardware5audio4V2_015IDevicesFactory10getServiceERKNSt3__112basic_stringIcNS4_11char_traitsIcEENS4_9allocatorIcEEEEb"
  },
  {
   "name" : "_ZN7android8hardware5audio4V2_015IDevicesFactory11linkToDeathERKNS_2spINS0_20hidl_death_recipientEEEy"
  },
  {
   "name" : "_ZN7android8hardware5audio4V2_015IDevicesFactory12getDebugInfoENSt3__18functionIFvRKNS_4hidl4base4V1_09DebugInfoEEEE"
  },
  {
   "name" : "_ZN7android8hardware5audio4V2_015IDevicesFactory12getHashChainENSt3__18functionIFvRKNS0_8hidl_vecINS0_10hidl_arrayIhLj32EJEEEEEEEE"
  },
  {
   "name" : "_ZN7android8hardware5audio4V2_015IDevicesFactory13tryGetServiceERKNSt3__112basic_stringIcNS4_11char_traitsIcEENS4_9allocatorIcEEEEb"
  },
  {
   "name" : "_ZN7android8hardware5audio4V2_015IDevicesFactory13unlinkToDeathERKNS_2spINS0_20hidl_death_recipientEEE"
  },
  {
   "name" : "_ZN7android8hardware5audio4V2_015IDevicesFactory14interfaceChainENSt3__18functionIFvRKNS0_8hidl_vecINS0_11hidl_stringEEEEEE"
  },
  {
   "name" : "_ZN7android8hardware5audio4V2_015IDevicesFactory17registerAsServiceERKNSt3__112basic_stringIcNS4_11char_traitsIcEENS4_9allocatorIcEEEE"
  },
  {
   "name" : "_ZN7android8hardware5audio4V2_015IDevicesFactory19interfaceDescriptorENSt3__18functionIFvRKNS0_11hidl_stringEEEE"
  },
  {
   "name" : "_ZN7android8hardware5audio4V2_015IDevicesFactory21notifySyspropsChangedEv"
  },
  {
   "name" : "_ZN7android8hardware5audio4V2_015IDevicesFactory21setHALInstrumentationEv"
  },
  {
   "name" : "_ZN7android8hardware5audio4V2_015IDevicesFactory24registerForNotificationsERKNSt3__112basic_stringIcNS4_11char_traitsIcEENS4_9allocatorIcEEEERKNS_2spINS_4hidl7manager4V1_020IServiceNotificationEEE"
  },
  {
   "name" : "_ZN7android8hardware5audio4V2_015IDevicesFactory4pingEv"
  },
  {
   "name" : "_ZN7android8hardware5audio4V2_015IDevicesFactory5debugERKNS0_11hidl_handleERKNS0_8hidl_vecINS0_11hidl_stringEEE"
  },
  {
   "name" : "_ZN7android8hardware5audio4V2_015IDevicesFactory8castFromERKNS_2spINS_4hidl4base4V1_05IBaseEEEb"
  },
  {
   "name" : "_ZN7android8hardware5audio4V2_015IDevicesFactory8castFromERKNS_2spIS3_EEb"
  },
  {
   "name" : "_ZN7android8hardware5audio4V2_016BsDevicesFactory13addOnewayTaskENSt3__18functionIFvvEEE"
  },
  {
   "name" : "_ZN7android8hardware5audio4V2_016BsDevicesFactoryC1ENS_2spINS2_15IDevicesFactoryEEE"
  },
  {
   "name" : "_ZN7android8hardware5audio4V2_016BsDevicesFactoryC2ENS_2spINS2_15IDevicesFactoryEEE"
  },
  {
   "name" : "_ZN7android8hardware5audio4V2_017BnHwPrimaryDevice10onTransactEjRKNS0_6ParcelEPS4_jNSt3__18functionIFvRS4_EEE"
  },
  {
   "name" : "_ZN7android8hardware5audio4V2_017BnHwPrimaryDevice12getDebugInfoENSt3__18functionIFvRKNS_4hidl4base4V1_09DebugInfoEEEE"
  },
  {
   "name" : "_ZN7android8hardware5audio4V2_017BnHwPrimaryDevice13_hidl_setModeEPNS_4hidl4base4V1_08BnHwBaseERKNS0_6ParcelEPS9_NSt3__18functionIFvRS9_EEE"
  },
  {
   "name" : "_ZN7android8hardware5audio4V2_017BnHwPrimaryDevice16_hidl_getTtyModeEPNS_4hidl4base4V1_08BnHwBaseERKNS0_6ParcelEPS9_NSt3__18functionIFvRS9_EEE"
  },
  {
   "name" : "_ZN7android8hardware5audio4V2_017BnHwPrimaryDevice16_hidl_setTtyModeEPNS_4hidl4base4V1_08BnHwBaseERKNS0_6ParcelEPS9_NSt3__18functionIFvRS9_EEE"
  },
  {
   "name" : "_ZN7android8hardware5audio4V2_017BnHwPrimaryDevice19_hidl_getHacEnabledEPNS_4hidl4base4V1_08BnHwBaseERKNS0_6ParcelEPS9_NSt3__18functionIFvRS9_EEE"
  },
  {
   "name" : "_ZN7android8hardware5audio4V2_017BnHwPrimaryDevice19_hidl_setHacEnabledEPNS_4hidl4base4V1_08BnHwBaseERKNS0_6ParcelEPS9_NSt3__18functionIFvRS9_EEE"
  },
  {
   "name" : "_ZN7android8hardware5audio4V2_017BnHwPrimaryDevice20_hidl_setVoiceVolumeEPNS_4hidl4base4V1_08BnHwBaseERKNS0_6ParcelEPS9_NSt3__18functionIFvRS9_EEE"
  },
  {
   "name" : "_ZN7android8hardware5audio4V2_017BnHwPrimaryDevice25_hidl_getBtScoNrecEnabledEPNS_4hidl4base4V1_08BnHwBaseERKNS0_6ParcelEPS9_NSt3__18functionIFvRS9_EEE"
  },
  {
   "name" : "_ZN7android8hardware5audio4V2_017BnHwPrimaryDevice25_hidl_setBtScoNrecEnabledEPNS_4hidl4base4V1_08BnHwBaseERKNS0_6ParcelEPS9_NSt3__18functionIFvRS9_EEE"
  },
  {
   "name" : "_ZN7android8hardware5audio4V2_017BnHwPrimaryDevice29_hidl_getBtScoWidebandEnabledEPNS_4hidl4base4V1_08BnHwBaseERKNS0_6ParcelEPS9_NSt3__18functionIFvRS9_EEE"
  },
  {
   "name" : "_ZN7android8hardware5audio4V2_017BnHwPrimaryDevice29_hidl_setBtScoWidebandEnabledEPNS_4hidl4base4V1_08BnHwBaseERKNS0_6ParcelEPS9_NSt3__18functionIFvRS9_EEE"
  },
  {
   "name" : "_ZN7android8hardware5audio4V2_017BnHwPrimaryDevice4pingEv"
  },
  {
   "name" : "_ZN7android8hardware5audio4V2_017BnHwPrimaryDeviceC1ERKNS_2spINS2_14IPrimaryDeviceEEE"
  },
  {
   "name" : "_ZN7android8hardware5audio4V2_017BnHwPrimaryDeviceC2ERKNS_2spINS2_14IPrimaryDeviceEEE"
  },
  {
   "name" : "_ZN7android8hardware5audio4V2_017BnHwPrimaryDeviceD0Ev"
  },
  {
   "name" : "_ZN7android8hardware5audio4V2_017BnHwPrimaryDeviceD1Ev"
  },
  {
   "name" : "_ZN7android8hardware5audio4V2_017BnHwPrimaryDeviceD2Ev"
  },
  {
   "name" : "_ZN7android8hardware5audio4V2_017BpHwPrimaryDevice10getMicMuteENSt3__18functionIFvNS2_6ResultEbEEE"
  },
  {
   "name" : "_ZN7android8hardware5audio4V2_017BpHwPrimaryDevice10getTtyModeENSt3__18functionIFvNS2_6ResultENS2_14IPrimaryDevice7TtyModeEEEE"
  },
  {
   "name" : "_ZN7android8hardware5audio4V2_017BpHwPrimaryDevice10setMicMuteEb"
  },
  {
   "name" : "_ZN7android8hardware5audio4V2_017BpHwPrimaryDevice10setTtyModeENS2_14IPrimaryDevice7TtyModeE"
  },
  {
   "name" : "_ZN7android8hardware5audio4V2_017BpHwPrimaryDevice11getHwAvSyncEv"
  },
  {
   "name" : "_ZN7android8hardware5audio4V2_017BpHwPrimaryDevice11linkToDeathERKNS_2spINS0_20hidl_death_recipientEEEy"
  },
  {
   "name" : "_ZN7android8hardware5audio4V2_017BpHwPrimaryDevice12getAudioPortERKNS1_6common4V2_09AudioPortENSt3__18functionIFvNS2_6ResultES8_EEE"
  },
  {
   "name" : "_ZN7android8hardware5audio4V2_017BpHwPrimaryDevice12getDebugInfoENSt3__18functionIFvRKNS_4hidl4base4V1_09DebugInfoEEEE"
  },
  {
   "name" : "_ZN7android8hardware5audio4V2_017BpHwPrimaryDevice12getHashChainENSt3__18functionIFvRKNS0_8hidl_vecINS0_10hidl_arrayIhLj32EJEEEEEEEE"
  },
  {
   "name" : "_ZN7android8hardware5audio4V2_017BpHwPrimaryDevice13_hidl_setModeEPNS0_10IInterfaceEPNS0_7details16HidlInstrumentorENS1_6common4V2_09AudioModeE"
  },
  {
   "name" : "_ZN7android8hardware5audio4V2_017BpHwPrimaryDevice13getHacEnabledENSt3__18functionIFvNS2_6ResultEbEEE"
  },
  {
   "name" : "_ZN7android8hardware5audio4V2_017BpHwPrimaryDevice13getMasterMuteENSt3__18functionIFvNS2_6ResultEbEEE"
  },
  {
   "name" : "_ZN7android8hardware5audio4V2_017BpHwPrimaryDevice13getParametersERKNS0_8hidl_vecINS0_11hidl_stringEEENSt3__18functionIFvNS2_6ResultERKNS4_INS2_14ParameterValueEEEEEE"
  },
  {
   "name" : "_ZN7android8hardware5audio4V2_017BpHwPrimaryDevice13setHacEnabledEb"
  },
  {
   "name" : "_ZN7android8hardware5audio4V2_017BpHwPrimaryDevice13setMasterMuteEb"
  },
  {
   "name" : "_ZN7android8hardware5audio4V2_017BpHwPrimaryDevice13setParametersERKNS0_8hidl_vecINS2_14ParameterValueEEE"
  },
  {
   "name" : "_ZN7android8hardware5audio4V2_017BpHwPrimaryDevice13unlinkToDeathERKNS_2spINS0_20hidl_death_recipientEEE"
  },
  {
   "name" : "_ZN7android8hardware5audio4V2_017BpHwPrimaryDevice14interfaceChainENSt3__18functionIFvRKNS0_8hidl_vecINS0_11hidl_stringEEEEEE"
  },
  {
   "name" : "_ZN7android8hardware5audio4V2_017BpHwPrimaryDevice14setScreenStateEb"
  },
  {
   "name" : "_ZN7android8hardware5audio4V2_017BpHwPrimaryDevice14setVoiceVolumeEf"
  },
  {
   "name" : "_ZN7android8hardware5audio4V2_017BpHwPrimaryDevice15getMasterVolumeENSt3__18functionIFvNS2_6ResultEfEEE"
  },
  {
   "name" : "_ZN7android8hardware5audio4V2_017BpHwPrimaryDevice15openInputStreamEiRKNS2_13DeviceAddressERKNS1_6common4V2_011AudioConfigENS8_14AudioInputFlagENS8_11AudioSourceENSt3__18functionIFvNS2_6ResultERKNS_2spINS2_9IStreamInEEESB_EEE"
  },
  {
   "name" : "_ZN7android8hardware5audio4V2_017BpHwPrimaryDevice15setMasterVolumeEf"
  },
  {
   "name" : "_ZN7android8hardware5audio4V2_017BpHwPrimaryDevice16_hidl_getTtyModeEPNS0_10IInterfaceEPNS0_7details16HidlInstrumentorENSt3__18functionIFvNS2_6ResultENS2_14IPrimaryDevice7TtyModeEEEE"
  },
  {
   "name" : "_ZN7android8hardware5audio4V2_017BpHwPrimaryDevice16_hidl_setTtyModeEPNS0_10IInterfaceEPNS0_7details16HidlInstrumentorENS2_14IPrimaryDevice7TtyModeE"
  },
  {
   "name" : "_ZN7android8hardware5audio4V2_017BpHwPrimaryDevice16createAudioPatchERKNS0_8hidl_vecINS1_6common4V2_015AudioPortConfigEEESA_NSt3__18functionIFvNS2_6ResultEiEEE"
  },
  {
   "name" : "_ZN7android8hardware5audio4V2_017BpHwPrimaryDevice16openOutputStreamEiRKNS2_13DeviceAddressERKNS1_6common4V2_011AudioConfigENS8_15AudioOutputFlagENSt3__18functionIFvNS2_6ResultERKNS_2spINS2_10IStreamOutEEESB_EEE"
  },
  {
   "name" : "_ZN7android8hardware5audio4V2_017BpHwPrimaryDevice17releaseAudioPatchEi"
  },
  {
   "name" : "_ZN7android8hardware5audio4V2_017BpHwPrimaryDevice18getInputBufferSizeERKNS1_6common4V2_011AudioConfigENSt3__18functionIFvNS2_6ResultEyEEE"
  },
  {
   "name" : "_ZN7android8hardware5audio4V2_017BpHwPrimaryDevice18setAudioPortConfigERKNS1_6common4V2_015AudioPortConfigE"
  },
  {
   "name" : "_ZN7android8hardware5audio4V2_017BpHwPrimaryDevice19_hidl_getHacEnabledEPNS0_10IInterfaceEPNS0_7details16HidlInstrumentorENSt3__18functionIFvNS2_6ResultEbEEE"
  },
  {
   "name" : "_ZN7android8hardware5audio4V2_017BpHwPrimaryDevice19_hidl_setHacEnabledEPNS0_10IInterfaceEPNS0_7details16HidlInstrumentorEb"
  },
  {
   "name" : "_ZN7android8hardware5audio4V2_017BpHwPrimaryDevice19getBtScoNrecEnabledENSt3__18functionIFvNS2_6ResultEbEEE"
  },
  {
   "name" : "_ZN7android8hardware5audio4V2_017BpHwPrimaryDevice19interfaceDescriptorENSt3__18functionIFvRKNS0_11hidl_stringEEEE"
  },
  {
   "name" : "_ZN7android8hardware5audio4V2_017BpHwPrimaryDevice19setBtScoNrecEnabledEb"
  },
  {
   "name" : "_ZN7android8hardware5audio4V2_017BpHwPrimaryDevice20_hidl_setVoiceVolumeEPNS0_10IInterfaceEPNS0_7details16HidlInstrumentorEf"
  },
  {
   "name" : "_ZN7android8hardware5audio4V2_017BpHwPrimaryDevice20supportsAudioPatchesEv"
  },
  {
   "name" : "_ZN7android8hardware5audio4V2_017BpHwPrimaryDevice21notifySyspropsChangedEv"
  },
  {
   "name" : "_ZN7android8hardware5audio4V2_017BpHwPrimaryDevice21setHALInstrumentationEv"
  },
  {
   "name" : "_ZN7android8hardware5audio4V2_017BpHwPrimaryDevice23getBtScoWidebandEnabledENSt3__18functionIFvNS2_6ResultEbEEE"
  },
  {
   "name" : "_ZN7android8hardware5audio4V2_017BpHwPrimaryDevice23setBtScoWidebandEnabledEb"
  },
  {
   "name" : "_ZN7android8hardware5audio4V2_017BpHwPrimaryDevice25_hidl_getBtScoNrecEnabledEPNS0_10IInterfaceEPNS0_7details16HidlInstrumentorENSt3__18functionIFvNS2_6ResultEbEEE"
  },
  {
   "name" : "_ZN7android8hardware5audio4V2_017BpHwPrimaryDevice25_hidl_setBtScoNrecEnabledEPNS0_10IInterfaceEPNS0_7details16HidlInstrumentorEb"
  },
  {
   "name" : "_ZN7android8hardware5audio4V2_017BpHwPrimaryDevice29_hidl_getBtScoWidebandEnabledEPNS0_10IInterfaceEPNS0_7details16HidlInstrumentorENSt3__18functionIFvNS2_6ResultEbEEE"
  },
  {
   "name" : "_ZN7android8hardware5audio4V2_017BpHwPrimaryDevice29_hidl_setBtScoWidebandEnabledEPNS0_10IInterfaceEPNS0_7details16HidlInstrumentorEb"
  },
  {
   "name" : "_ZN7android8hardware5audio4V2_017BpHwPrimaryDevice4pingEv"
  },
  {
   "name" : "_ZN7android8hardware5audio4V2_017BpHwPrimaryDevice5debugERKNS0_11hidl_handleERKNS0_8hidl_vecINS0_11hidl_stringEEE"
  },
  {
   "name" : "_ZN7android8hardware5audio4V2_017BpHwPrimaryDevice7setModeENS1_6common4V2_09AudioModeE"
  },
  {
   "name" : "_ZN7android8hardware5audio4V2_017BpHwPrimaryDevice9debugDumpERKNS0_11hidl_handleE"
  },
  {
   "name" : "_ZN7android8hardware5audio4V2_017BpHwPrimaryDevice9initCheckEv"
  },
  {
   "name" : "_ZN7android8hardware5audio4V2_017BpHwPrimaryDeviceC1ERKNS_2spINS0_7IBinderEEE"
  },
  {
   "name" : "_ZN7android8hardware5audio4V2_017BpHwPrimaryDeviceC2ERKNS_2spINS0_7IBinderEEE"
  },
  {
   "name" : "_ZN7android8hardware5audio4V2_018BnHwDevicesFactory10onTransactEjRKNS0_6ParcelEPS4_jNSt3__18functionIFvRS4_EEE"
  },
  {
   "name" : "_ZN7android8hardware5audio4V2_018BnHwDevicesFactory12getDebugInfoENSt3__18functionIFvRKNS_4hidl4base4V1_09DebugInfoEEEE"
  },
  {
   "name" : "_ZN7android8hardware5audio4V2_018BnHwDevicesFactory16_hidl_openDeviceEPNS_4hidl4base4V1_08BnHwBaseERKNS0_6ParcelEPS9_NSt3__18functionIFvRS9_EEE"
  },
  {
   "name" : "_ZN7android8hardware5audio4V2_018BnHwDevicesFactory4pingEv"
  },
  {
   "name" : "_ZN7android8hardware5audio4V2_018BnHwDevicesFactoryC1ERKNS_2spINS2_15IDevicesFactoryEEE"
  },
  {
   "name" : "_ZN7android8hardware5audio4V2_018BnHwDevicesFactoryC2ERKNS_2spINS2_15IDevicesFactoryEEE"
  },
  {
   "name" : "_ZN7android8hardware5audio4V2_018BnHwDevicesFactoryD0Ev"
  },
  {
   "name" : "_ZN7android8hardware5audio4V2_018BnHwDevicesFactoryD1Ev"
  },
  {
   "name" : "_ZN7android8hardware5audio4V2_018BnHwDevicesFactoryD2Ev"
  },
  {
   "name" : "_ZN7android8hardware5audio4V2_018BpHwDevicesFactory10openDeviceENS2_15IDevicesFactory6DeviceENSt3__18functionIFvNS2_6ResultERKNS_2spINS2_7IDeviceEEEEEE"
  },
  {
   "name" : "_ZN7android8hardware5audio4V2_018BpHwDevicesFactory11linkToDeathERKNS_2spINS0_20hidl_death_recipientEEEy"
  },
  {
   "name" : "_ZN7android8hardware5audio4V2_018BpHwDevicesFactory12getDebugInfoENSt3__18functionIFvRKNS_4hidl4base4V1_09DebugInfoEEEE"
  },
  {
   "name" : "_ZN7android8hardware5audio4V2_018BpHwDevicesFactory12getHashChainENSt3__18functionIFvRKNS0_8hidl_vecINS0_10hidl_arrayIhLj32EJEEEEEEEE"
  },
  {
   "name" : "_ZN7android8hardware5audio4V2_018BpHwDevicesFactory13unlinkToDeathERKNS_2spINS0_20hidl_death_recipientEEE"
  },
  {
   "name" : "_ZN7android8hardware5audio4V2_018BpHwDevicesFactory14interfaceChainENSt3__18functionIFvRKNS0_8hidl_vecINS0_11hidl_stringEEEEEE"
  },
  {
   "name" : "_ZN7android8hardware5audio4V2_018BpHwDevicesFactory16_hidl_openDeviceEPNS0_10IInterfaceEPNS0_7details16HidlInstrumentorENS2_15IDevicesFactory6DeviceENSt3__18functionIFvNS2_6ResultERKNS_2spINS2_7IDeviceEEEEEE"
  },
  {
   "name" : "_ZN7android8hardware5audio4V2_018BpHwDevicesFactory19interfaceDescriptorENSt3__18functionIFvRKNS0_11hidl_stringEEEE"
  },
  {
   "name" : "_ZN7android8hardware5audio4V2_018BpHwDevicesFactory21notifySyspropsChangedEv"
  },
  {
   "name" : "_ZN7android8hardware5audio4V2_018BpHwDevicesFactory21setHALInstrumentationEv"
  },
  {
   "name" : "_ZN7android8hardware5audio4V2_018BpHwDevicesFactory4pingEv"
  },
  {
   "name" : "_ZN7android8hardware5audio4V2_018BpHwDevicesFactory5debugERKNS0_11hidl_handleERKNS0_8hidl_vecINS0_11hidl_stringEEE"
  },
  {
   "name" : "_ZN7android8hardware5audio4V2_018BpHwDevicesFactoryC1ERKNS_2spINS0_7IBinderEEE"
  },
  {
   "name" : "_ZN7android8hardware5audio4V2_018BpHwDevicesFactoryC2ERKNS_2spINS0_7IBinderEEE"
  },
  {
   "name" : "_ZN7android8hardware5audio4V2_018IStreamOutCallback10getServiceERKNSt3__112basic_stringIcNS4_11char_traitsIcEENS4_9allocatorIcEEEEb"
  },
  {
   "name" : "_ZN7android8hardware5audio4V2_018IStreamOutCallback11linkToDeathERKNS_2spINS0_20hidl_death_recipientEEEy"
  },
  {
   "name" : "_ZN7android8hardware5audio4V2_018IStreamOutCallback12getDebugInfoENSt3__18functionIFvRKNS_4hidl4base4V1_09DebugInfoEEEE"
  },
  {
   "name" : "_ZN7android8hardware5audio4V2_018IStreamOutCallback12getHashChainENSt3__18functionIFvRKNS0_8hidl_vecINS0_10hidl_arrayIhLj32EJEEEEEEEE"
  },
  {
   "name" : "_ZN7android8hardware5audio4V2_018IStreamOutCallback13tryGetServiceERKNSt3__112basic_stringIcNS4_11char_traitsIcEENS4_9allocatorIcEEEEb"
  },
  {
   "name" : "_ZN7android8hardware5audio4V2_018IStreamOutCallback13unlinkToDeathERKNS_2spINS0_20hidl_death_recipientEEE"
  },
  {
   "name" : "_ZN7android8hardware5audio4V2_018IStreamOutCallback14interfaceChainENSt3__18functionIFvRKNS0_8hidl_vecINS0_11hidl_stringEEEEEE"
  },
  {
   "name" : "_ZN7android8hardware5audio4V2_018IStreamOutCallback17registerAsServiceERKNSt3__112basic_stringIcNS4_11char_traitsIcEENS4_9allocatorIcEEEE"
  },
  {
   "name" : "_ZN7android8hardware5audio4V2_018IStreamOutCallback19interfaceDescriptorENSt3__18functionIFvRKNS0_11hidl_stringEEEE"
  },
  {
   "name" : "_ZN7android8hardware5audio4V2_018IStreamOutCallback21notifySyspropsChangedEv"
  },
  {
   "name" : "_ZN7android8hardware5audio4V2_018IStreamOutCallback21setHALInstrumentationEv"
  },
  {
   "name" : "_ZN7android8hardware5audio4V2_018IStreamOutCallback24registerForNotificationsERKNSt3__112basic_stringIcNS4_11char_traitsIcEENS4_9allocatorIcEEEERKNS_2spINS_4hidl7manager4V1_020IServiceNotificationEEE"
  },
  {
   "name" : "_ZN7android8hardware5audio4V2_018IStreamOutCallback4pingEv"
  },
  {
   "name" : "_ZN7android8hardware5audio4V2_018IStreamOutCallback5debugERKNS0_11hidl_handleERKNS0_8hidl_vecINS0_11hidl_stringEEE"
  },
  {
   "name" : "_ZN7android8hardware5audio4V2_018IStreamOutCallback8castFromERKNS_2spINS_4hidl4base4V1_05IBaseEEEb"
  },
  {
   "name" : "_ZN7android8hardware5audio4V2_018IStreamOutCallback8castFromERKNS_2spIS3_EEb"
  },
  {
   "name" : "_ZN7android8hardware5audio4V2_019BsStreamOutCallback13addOnewayTaskENSt3__18functionIFvvEEE"
  },
  {
   "name" : "_ZN7android8hardware5audio4V2_019BsStreamOutCallbackC1ENS_2spINS2_18IStreamOutCallbackEEE"
  },
  {
   "name" : "_ZN7android8hardware5audio4V2_019BsStreamOutCallbackC2ENS_2spINS2_18IStreamOutCallbackEEE"
  },
  {
   "name" : "_ZN7android8hardware5audio4V2_021BnHwStreamOutCallback10onTransactEjRKNS0_6ParcelEPS4_jNSt3__18functionIFvRS4_EEE"
  },
  {
   "name" : "_ZN7android8hardware5audio4V2_021BnHwStreamOutCallback12getDebugInfoENSt3__18functionIFvRKNS_4hidl4base4V1_09DebugInfoEEEE"
  },
  {
   "name" : "_ZN7android8hardware5audio4V2_021BnHwStreamOutCallback13_hidl_onErrorEPNS_4hidl4base4V1_08BnHwBaseERKNS0_6ParcelEPS9_NSt3__18functionIFvRS9_EEE"
  },
  {
   "name" : "_ZN7android8hardware5audio4V2_021BnHwStreamOutCallback18_hidl_onDrainReadyEPNS_4hidl4base4V1_08BnHwBaseERKNS0_6ParcelEPS9_NSt3__18functionIFvRS9_EEE"
  },
  {
   "name" : "_ZN7android8hardware5audio4V2_021BnHwStreamOutCallback18_hidl_onWriteReadyEPNS_4hidl4base4V1_08BnHwBaseERKNS0_6ParcelEPS9_NSt3__18functionIFvRS9_EEE"
  },
  {
   "name" : "_ZN7android8hardware5audio4V2_021BnHwStreamOutCallback4pingEv"
  },
  {
   "name" : "_ZN7android8hardware5audio4V2_021BnHwStreamOutCallbackC1ERKNS_2spINS2_18IStreamOutCallbackEEE"
  },
  {
   "name" : "_ZN7android8hardware5audio4V2_021BnHwStreamOutCallbackC2ERKNS_2spINS2_18IStreamOutCallbackEEE"
  },
  {
   "name" : "_ZN7android8hardware5audio4V2_021BnHwStreamOutCallbackD0Ev"
  },
  {
   "name" : "_ZN7android8hardware5audio4V2_021BnHwStreamOutCallbackD1Ev"
  },
  {
   "name" : "_ZN7android8hardware5audio4V2_021BnHwStreamOutCallbackD2Ev"
  },
  {
   "name" : "_ZN7android8hardware5audio4V2_021BpHwStreamOutCallback11linkToDeathERKNS_2spINS0_20hidl_death_recipientEEEy"
  },
  {
   "name" : "_ZN7android8hardware5audio4V2_021BpHwStreamOutCallback12getDebugInfoENSt3__18functionIFvRKNS_4hidl4base4V1_09DebugInfoEEEE"
  },
  {
   "name" : "_ZN7android8hardware5audio4V2_021BpHwStreamOutCallback12getHashChainENSt3__18functionIFvRKNS0_8hidl_vecINS0_10hidl_arrayIhLj32EJEEEEEEEE"
  },
  {
   "name" : "_ZN7android8hardware5audio4V2_021BpHwStreamOutCallback12onDrainReadyEv"
  },
  {
   "name" : "_ZN7android8hardware5audio4V2_021BpHwStreamOutCallback12onWriteReadyEv"
  },
  {
   "name" : "_ZN7android8hardware5audio4V2_021BpHwStreamOutCallback13_hidl_onErrorEPNS0_10IInterfaceEPNS0_7details16HidlInstrumentorE"
  },
  {
   "name" : "_ZN7android8hardware5audio4V2_021BpHwStreamOutCallback13unlinkToDeathERKNS_2spINS0_20hidl_death_recipientEEE"
  },
  {
   "name" : "_ZN7android8hardware5audio4V2_021BpHwStreamOutCallback14interfaceChainENSt3__18functionIFvRKNS0_8hidl_vecINS0_11hidl_stringEEEEEE"
  },
  {
   "name" : "_ZN7android8hardware5audio4V2_021BpHwStreamOutCallback18_hidl_onDrainReadyEPNS0_10IInterfaceEPNS0_7details16HidlInstrumentorE"
  },
  {
   "name" : "_ZN7android8hardware5audio4V2_021BpHwStreamOutCallback18_hidl_onWriteReadyEPNS0_10IInterfaceEPNS0_7details16HidlInstrumentorE"
  },
  {
   "name" : "_ZN7android8hardware5audio4V2_021BpHwStreamOutCallback19interfaceDescriptorENSt3__18functionIFvRKNS0_11hidl_stringEEEE"
  },
  {
   "name" : "_ZN7android8hardware5audio4V2_021BpHwStreamOutCallback21notifySyspropsChangedEv"
  },
  {
   "name" : "_ZN7android8hardware5audio4V2_021BpHwStreamOutCallback21setHALInstrumentationEv"
  },
  {
   "name" : "_ZN7android8hardware5audio4V2_021BpHwStreamOutCallback4pingEv"
  },
  {
   "name" : "_ZN7android8hardware5audio4V2_021BpHwStreamOutCallback5debugERKNS0_11hidl_handleERKNS0_8hidl_vecINS0_11hidl_stringEEE"
  },
  {
   "name" : "_ZN7android8hardware5audio4V2_021BpHwStreamOutCallback7onErrorEv"
  },
  {
   "name" : "_ZN7android8hardware5audio4V2_021BpHwStreamOutCallbackC1ERKNS_2spINS0_7IBinderEEE"
  },
  {
   "name" : "_ZN7android8hardware5audio4V2_021BpHwStreamOutCallbackC2ERKNS_2spINS0_7IBinderEEE"
  },
  {
   "name" : "_ZN7android8hardware5audio4V2_021writeEmbeddedToParcelERKNS2_13DeviceAddressEPNS0_6ParcelEjj"
  },
  {
   "name" : "_ZN7android8hardware5audio4V2_021writeEmbeddedToParcelERKNS2_14MmapBufferInfoEPNS0_6ParcelEjj"
  },
  {
   "name" : "_ZN7android8hardware5audio4V2_021writeEmbeddedToParcelERKNS2_14ParameterValueEPNS0_6ParcelEjj"
  },
  {
   "name" : "_ZN7android8hardware5audio4V2_022readEmbeddedFromParcelERKNS2_13DeviceAddressERKNS0_6ParcelEjj"
  },
  {
   "name" : "_ZN7android8hardware5audio4V2_022readEmbeddedFromParcelERKNS2_14MmapBufferInfoERKNS0_6ParcelEjj"
  },
  {
   "name" : "_ZN7android8hardware5audio4V2_022readEmbeddedFromParcelERKNS2_14ParameterValueERKNS0_6ParcelEjj"
  },
  {
   "name" : "_ZN7android8hardware5audio4V2_07IDevice10getServiceERKNSt3__112basic_stringIcNS4_11char_traitsIcEENS4_9allocatorIcEEEEb"
  },
  {
   "name" : "_ZN7android8hardware5audio4V2_07IDevice11linkToDeathERKNS_2spINS0_20hidl_death_recipientEEEy"
  },
  {
   "name" : "_ZN7android8hardware5audio4V2_07IDevice12getDebugInfoENSt3__18functionIFvRKNS_4hidl4base4V1_09DebugInfoEEEE"
  },
  {
   "name" : "_ZN7android8hardware5audio4V2_07IDevice12getHashChainENSt3__18functionIFvRKNS0_8hidl_vecINS0_10hidl_arrayIhLj32EJEEEEEEEE"
  },
  {
   "name" : "_ZN7android8hardware5audio4V2_07IDevice13tryGetServiceERKNSt3__112basic_stringIcNS4_11char_traitsIcEENS4_9allocatorIcEEEEb"
  },
  {
   "name" : "_ZN7android8hardware5audio4V2_07IDevice13unlinkToDeathERKNS_2spINS0_20hidl_death_recipientEEE"
  },
  {
   "name" : "_ZN7android8hardware5audio4V2_07IDevice14interfaceChainENSt3__18functionIFvRKNS0_8hidl_vecINS0_11hidl_stringEEEEEE"
  },
  {
   "name" : "_ZN7android8hardware5audio4V2_07IDevice17registerAsServiceERKNSt3__112basic_stringIcNS4_11char_traitsIcEENS4_9allocatorIcEEEE"
  },
  {
   "name" : "_ZN7android8hardware5audio4V2_07IDevice19interfaceDescriptorENSt3__18functionIFvRKNS0_11hidl_stringEEEE"
  },
  {
   "name" : "_ZN7android8hardware5audio4V2_07IDevice21notifySyspropsChangedEv"
  },
  {
   "name" : "_ZN7android8hardware5audio4V2_07IDevice21setHALInstrumentationEv"
  },
  {
   "name" : "_ZN7android8hardware5audio4V2_07IDevice24registerForNotificationsERKNSt3__112basic_stringIcNS4_11char_traitsIcEENS4_9allocatorIcEEEERKNS_2spINS_4hidl7manager4V1_020IServiceNotificationEEE"
  },
  {
   "name" : "_ZN7android8hardware5audio4V2_07IDevice4pingEv"
  },
  {
   "name" : "_ZN7android8hardware5audio4V2_07IDevice5debugERKNS0_11hidl_handleERKNS0_8hidl_vecINS0_11hidl_stringEEE"
  },
  {
   "name" : "_ZN7android8hardware5audio4V2_07IDevice8castFromERKNS_2spINS_4hidl4base4V1_05IBaseEEEb"
  },
  {
   "name" : "_ZN7android8hardware5audio4V2_07IDevice8castFromERKNS_2spIS3_EEb"
  },
  {
   "name" : "_ZN7android8hardware5audio4V2_07IStream10getServiceERKNSt3__112basic_stringIcNS4_11char_traitsIcEENS4_9allocatorIcEEEEb"
  },
  {
   "name" : "_ZN7android8hardware5audio4V2_07IStream11linkToDeathERKNS_2spINS0_20hidl_death_recipientEEEy"
  },
  {
   "name" : "_ZN7android8hardware5audio4V2_07IStream12getDebugInfoENSt3__18functionIFvRKNS_4hidl4base4V1_09DebugInfoEEEE"
  },
  {
   "name" : "_ZN7android8hardware5audio4V2_07IStream12getHashChainENSt3__18functionIFvRKNS0_8hidl_vecINS0_10hidl_arrayIhLj32EJEEEEEEEE"
  },
  {
   "name" : "_ZN7android8hardware5audio4V2_07IStream13tryGetServiceERKNSt3__112basic_stringIcNS4_11char_traitsIcEENS4_9allocatorIcEEEEb"
  },
  {
   "name" : "_ZN7android8hardware5audio4V2_07IStream13unlinkToDeathERKNS_2spINS0_20hidl_death_recipientEEE"
  },
  {
   "name" : "_ZN7android8hardware5audio4V2_07IStream14interfaceChainENSt3__18functionIFvRKNS0_8hidl_vecINS0_11hidl_stringEEEEEE"
  },
  {
   "name" : "_ZN7android8hardware5audio4V2_07IStream17registerAsServiceERKNSt3__112basic_stringIcNS4_11char_traitsIcEENS4_9allocatorIcEEEE"
  },
  {
   "name" : "_ZN7android8hardware5audio4V2_07IStream19interfaceDescriptorENSt3__18functionIFvRKNS0_11hidl_stringEEEE"
  },
  {
   "name" : "_ZN7android8hardware5audio4V2_07IStream21notifySyspropsChangedEv"
  },
  {
   "name" : "_ZN7android8hardware5audio4V2_07IStream21setHALInstrumentationEv"
  },
  {
   "name" : "_ZN7android8hardware5audio4V2_07IStream24registerForNotificationsERKNSt3__112basic_stringIcNS4_11char_traitsIcEENS4_9allocatorIcEEEERKNS_2spINS_4hidl7manager4V1_020IServiceNotificationEEE"
  },
  {
   "name" : "_ZN7android8hardware5audio4V2_07IStream4pingEv"
  },
  {
   "name" : "_ZN7android8hardware5audio4V2_07IStream5debugERKNS0_11hidl_handleERKNS0_8hidl_vecINS0_11hidl_stringEEE"
  },
  {
   "name" : "_ZN7android8hardware5audio4V2_07IStream8castFromERKNS_2spINS_4hidl4base4V1_05IBaseEEEb"
  },
  {
   "name" : "_ZN7android8hardware5audio4V2_07IStream8castFromERKNS_2spIS3_EEb"
  },
  {
   "name" : "_ZN7android8hardware5audio4V2_08BsDevice13addOnewayTaskENSt3__18functionIFvvEEE"
  },
  {
   "name" : "_ZN7android8hardware5audio4V2_08BsDeviceC1ENS_2spINS2_7IDeviceEEE"
  },
  {
   "name" : "_ZN7android8hardware5audio4V2_08BsDeviceC2ENS_2spINS2_7IDeviceEEE"
  },
  {
   "name" : "_ZN7android8hardware5audio4V2_08BsStream13addOnewayTaskENSt3__18functionIFvvEEE"
  },
  {
   "name" : "_ZN7android8hardware5audio4V2_08BsStreamC1ENS_2spINS2_7IStreamEEE"
  },
  {
   "name" : "_ZN7android8hardware5audio4V2_08BsStreamC2ENS_2spINS2_7IStreamEEE"
  },
  {
   "name" : "_ZN7android8hardware5audio4V2_09IStreamIn10getServiceERKNSt3__112basic_stringIcNS4_11char_traitsIcEENS4_9allocatorIcEEEEb"
  },
  {
   "name" : "_ZN7android8hardware5audio4V2_09IStreamIn11linkToDeathERKNS_2spINS0_20hidl_death_recipientEEEy"
  },
  {
   "name" : "_ZN7android8hardware5audio4V2_09IStreamIn12getDebugInfoENSt3__18functionIFvRKNS_4hidl4base4V1_09DebugInfoEEEE"
  },
  {
   "name" : "_ZN7android8hardware5audio4V2_09IStreamIn12getHashChainENSt3__18functionIFvRKNS0_8hidl_vecINS0_10hidl_arrayIhLj32EJEEEEEEEE"
  },
  {
   "name" : "_ZN7android8hardware5audio4V2_09IStreamIn13tryGetServiceERKNSt3__112basic_stringIcNS4_11char_traitsIcEENS4_9allocatorIcEEEEb"
  },
  {
   "name" : "_ZN7android8hardware5audio4V2_09IStreamIn13unlinkToDeathERKNS_2spINS0_20hidl_death_recipientEEE"
  },
  {
   "name" : "_ZN7android8hardware5audio4V2_09IStreamIn14interfaceChainENSt3__18functionIFvRKNS0_8hidl_vecINS0_11hidl_stringEEEEEE"
  },
  {
   "name" : "_ZN7android8hardware5audio4V2_09IStreamIn17registerAsServiceERKNSt3__112basic_stringIcNS4_11char_traitsIcEENS4_9allocatorIcEEEE"
  },
  {
   "name" : "_ZN7android8hardware5audio4V2_09IStreamIn19interfaceDescriptorENSt3__18functionIFvRKNS0_11hidl_stringEEEE"
  },
  {
   "name" : "_ZN7android8hardware5audio4V2_09IStreamIn21notifySyspropsChangedEv"
  },
  {
   "name" : "_ZN7android8hardware5audio4V2_09IStreamIn21setHALInstrumentationEv"
  },
  {
   "name" : "_ZN7android8hardware5audio4V2_09IStreamIn24registerForNotificationsERKNSt3__112basic_stringIcNS4_11char_traitsIcEENS4_9allocatorIcEEEERKNS_2spINS_4hidl7manager4V1_020IServiceNotificationEEE"
  },
  {
   "name" : "_ZN7android8hardware5audio4V2_09IStreamIn4pingEv"
  },
  {
   "name" : "_ZN7android8hardware5audio4V2_09IStreamIn5debugERKNS0_11hidl_handleERKNS0_8hidl_vecINS0_11hidl_stringEEE"
  },
  {
   "name" : "_ZN7android8hardware5audio4V2_09IStreamIn8castFromERKNS_2spINS2_7IStreamEEEb"
  },
  {
   "name" : "_ZN7android8hardware5audio4V2_09IStreamIn8castFromERKNS_2spINS_4hidl4base4V1_05IBaseEEEb"
  },
  {
   "name" : "_ZN7android8hardware5audio4V2_09IStreamIn8castFromERKNS_2spIS3_EEb"
  },
  {
   "binding" : "weak",
   "name" : "_ZN7android8hardware7details13castInterfaceINS0_5audio4V2_010IStreamOutENS4_7IStreamENS4_13BpHwStreamOutEEENS0_6ReturnINS_2spIT_EEEENS9_IT0_EEPKcb"
  },
  {
   "binding" : "weak",
   "name" : "_ZN7android8hardware7details13castInterfaceINS0_5audio4V2_010IStreamOutENS_4hidl4base4V1_05IBaseENS4_13BpHwStreamOutEEENS0_6ReturnINS_2spIT_EEEENSC_IT0_EEPKcb"
  },
  {
   "binding" : "weak",
   "name" : "_ZN7android8hardware7details13castInterfaceINS0_5audio4V2_014IPrimaryDeviceENS4_7IDeviceENS4_17BpHwPrimaryDeviceEEENS0_6ReturnINS_2spIT_EEEENS9_IT0_EEPKcb"
  },
  {
   "binding" : "weak",
   "name" : "_ZN7android8hardware7details13castInterfaceINS0_5audio4V2_014IPrimaryDeviceENS_4hidl4base4V1_05IBaseENS4_17BpHwPrimaryDeviceEEENS0_6ReturnINS_2spIT_EEEENSC_IT0_EEPKcb"
  },
  {
   "binding" : "weak",
   "name" : "_ZN7android8hardware7details13castInterfaceINS0_5audio4V2_015IDevicesFactoryENS_4hidl4base4V1_05IBaseENS4_18BpHwDevicesFactoryEEENS0_6ReturnINS_2spIT_EEEENSC_IT0_EEPKcb"
  },
  {
   "binding" : "weak",
   "name" : "_ZN7android8hardware7details13castInterfaceINS0_5audio4V2_018IStreamOutCallbackENS_4hidl4base4V1_05IBaseENS4_21BpHwStreamOutCallbackEEENS0_6ReturnINS_2spIT_EEEENSC_IT0_EEPKcb"
  },
  {
   "binding" : "weak",
   "name" : "_ZN7android8hardware7details13castInterfaceINS0_5audio4V2_07IDeviceENS_4hidl4base4V1_05IBaseENS4_10BpHwDeviceEEENS0_6ReturnINS_2spIT_EEEENSC_IT0_EEPKcb"
  },
  {
   "binding" : "weak",
   "name" : "_ZN7android8hardware7details13castInterfaceINS0_5audio4V2_07IStreamENS_4hidl4base4V1_05IBaseENS4_10BpHwStreamEEENS0_6ReturnINS_2spIT_EEEENSC_IT0_EEPKcb"
  },
  {
   "binding" : "weak",
   "name" : "_ZN7android8hardware7details13castInterfaceINS0_5audio4V2_09IStreamInENS4_7IStreamENS4_12BpHwStreamInEEENS0_6ReturnINS_2spIT_EEEENS9_IT0_EEPKcb"
  },
  {
   "binding" : "weak",
   "name" : "_ZN7android8hardware7details13castInterfaceINS0_5audio4V2_09IStreamInENS_4hidl4base4V1_05IBaseENS4_12BpHwStreamInEEENS0_6ReturnINS_2spIT_EEEENSC_IT0_EEPKcb"
  },
  {
   "binding" : "weak",
   "name" : "_ZN7android8hardware7details15wrapPassthroughINS0_5audio4V2_010IStreamOutEvEENS_2spIT_EES8_"
  },
  {
   "binding" : "weak",
   "name" : "_ZN7android8hardware7details15wrapPassthroughINS0_5audio4V2_018IStreamOutCallbackEvEENS_2spIT_EES8_"
  },
  {
   "binding" : "weak",
   "name" : "_ZN7android8hardware7details15wrapPassthroughINS0_5audio4V2_07IDeviceEvEENS_2spIT_EES8_"
  },
  {
   "binding" : "weak",
   "name" : "_ZN7android8hardware7details15wrapPassthroughINS0_5audio4V2_09IStreamInEvEENS_2spIT_EES8_"
  },
  {
   "binding" : "weak",
   "name" : "_ZN7android8hardware7details18getServiceInternalINS0_5audio4V2_010BpHwDeviceENS4_7IDeviceEvvEENS_2spIT0_EERKNSt3__112basic_stringIcNSA_11char_traitsIcEENSA_9allocatorIcEEEEbb"
  },
  {
   "binding" : "weak",
   "name" : "_ZN7android8hardware7details18getServiceInternalINS0_5audio4V2_010BpHwStreamENS4_7IStreamEvvEENS_2spIT0_EERKNSt3__112basic_stringIcNSA_11char_traitsIcEENSA_9allocatorIcEEEEbb"
  },
  {
   "binding" : "weak",
   "name" : "_ZN7android8hardware7details18getServiceInternalINS0_5audio4V2_012BpHwStreamInENS4_9IStreamInEvvEENS_2spIT0_EERKNSt3__112basic_stringIcNSA_11char_traitsIcEENSA_9allocatorIcEEEEbb"
  },
  {
   "binding" : "weak",
   "name" : "_ZN7android8hardware7details18getServiceInternalINS0_5audio4V2_013BpHwStreamOutENS4_10IStreamOutEvvEENS_2spIT0_EERKNSt3__112basic_stringIcNSA_11char_traitsIcEENSA_9allocatorIcEEEEbb"
  },
  {
   "binding" : "weak",
   "name" : "_ZN7android8hardware7details18getServiceInternalINS0_5audio4V2_017BpHwPrimaryDeviceENS4_14IPrimaryDeviceEvvEENS_2spIT0_EERKNSt3__112basic_stringIcNSA_11char_traitsIcEENSA_9allocatorIcEEEEbb"
  },
  {
   "binding" : "weak",
   "name" : "_ZN7android8hardware7details18getServiceInternalINS0_5audio4V2_018BpHwDevicesFactoryENS4_15IDevicesFactoryEvvEENS_2spIT0_EERKNSt3__112basic_stringIcNSA_11char_traitsIcEENSA_9allocatorIcEEEEbb"
  },
  {
   "binding" : "weak",
   "name" : "_ZN7android8hardware7details18getServiceInternalINS0_5audio4V2_021BpHwStreamOutCallbackENS4_18IStreamOutCallbackEvvEENS_2spIT0_EERKNSt3__112basic_stringIcNSA_11char_traitsIcEENSA_9allocatorIcEEEEbb"
  },
  {
   "binding" : "weak",
   "name" : "_ZNSt3__113__tree_removeIPNS_16__tree_node_baseIPvEEEEvT_S5_"
  },
  {
   "binding" : "weak",
   "name" : "_ZNSt3__127__tree_balance_after_insertIPNS_16__tree_node_baseIPvEEEEvT_S5_"
  },
  {
   "binding" : "weak",
   "name" : "_ZNSt3__16__treeINS_12__value_typeINS_12basic_stringIcNS_11char_traitsIcEENS_9allocatorIcEEEENS_8functionIFN7android2spINS9_4hidl4base4V1_05IBaseEEEPvEEEEENS_19__map_value_compareIS7_SJ_NS_4lessIS7_EELb1EEENS5_ISJ_EEE12__find_equalIS7_EERPNS_16__tree_node_baseISG_EERPNS_15__tree_end_nodeIST_EERKT_"
  },
  {
   "binding" : "weak",
   "name" : "_ZNSt3__16__treeINS_12__value_typeINS_12basic_stringIcNS_11char_traitsIcEENS_9allocatorIcEEEENS_8functionIFN7android2spINS9_4hidl4base4V1_05IBaseEEEPvEEEEENS_19__map_value_compareIS7_SJ_NS_4lessIS7_EELb1EEENS5_ISJ_EEE4findIS7_EENS_15__tree_iteratorISJ_PNS_11__tree_nodeISJ_SG_EEiEERKT_"
  },
  {
   "binding" : "weak",
   "name" : "_ZNSt3__16__treeINS_12__value_typeINS_12basic_stringIcNS_11char_traitsIcEENS_9allocatorIcEEEENS_8functionIFN7android2spINS9_4hidl4base4V1_05IBaseEEEPvEEEEENS_19__map_value_compareIS7_SJ_NS_4lessIS7_EELb1EEENS5_ISJ_EEE5eraseENS_21__tree_const_iteratorISJ_PNS_11__tree_nodeISJ_SG_EEiEE"
  },
  {
   "binding" : "weak",
   "name" : "_ZNSt3__16__treeINS_12__value_typeINS_12basic_stringIcNS_11char_traitsIcEENS_9allocatorIcEEEENS_8functionIFN7android2spINS9_8hardware7IBinderEEEPvEEEEENS_19__map_value_compareIS7_SH_NS_4lessIS7_EELb1EEENS5_ISH_EEE12__find_equalIS7_EERPNS_16__tree_node_baseISE_EERPNS_15__tree_end_nodeISR_EERKT_"
  },
  {
   "binding" : "weak",
   "name" : "_ZNSt3__16__treeINS_12__value_typeINS_12basic_stringIcNS_11char_traitsIcEENS_9allocatorIcEEEENS_8functionIFN7android2spINS9_8hardware7IBinderEEEPvEEEEENS_19__map_value_compareIS7_SH_NS_4lessIS7_EELb1EEENS5_ISH_EEE4findIS7_EENS_15__tree_iteratorISH_PNS_11__tree_nodeISH_SE_EEiEERKT_"
  },
  {
   "binding" : "weak",
   "name" : "_ZNSt3__16__treeINS_12__value_typeINS_12basic_stringIcNS_11char_traitsIcEENS_9allocatorIcEEEENS_8functionIFN7android2spINS9_8hardware7IBinderEEEPvEEEEENS_19__map_value_compareIS7_SH_NS_4lessIS7_EELb1EEENS5_ISH_EEE5eraseENS_21__tree_const_iteratorISH_PNS_11__tree_nodeISH_SE_EEiEE"
  },
  {
   "binding" : "weak",
   "name" : "_ZNSt3__16vectorIN7android2spINS1_8hardware27hidl_binder_death_recipientEEENS_9allocatorIS5_EEE21__push_back_slow_pathIS5_EEvOT_"
  },
  {
   "binding" : "weak",
   "name" : "_ZNSt3__16vectorINS_8functionIFvN7android8hardware7details16HidlInstrumentor20InstrumentationEventEPKcS8_S8_S8_PNS0_IPvNS_9allocatorIS9_EEEEEEENSA_ISF_EEEC2ERKSH_"
  },
  {
   "binding" : "weak",
   "name" : "_ZNSt3__16vectorIPvNS_9allocatorIS1_EEE21__push_back_slow_pathIS1_EEvOT_"
  },
  {
   "name" : "_ZThn20_N7android8hardware5audio4V2_010BnHwDeviceD0Ev"
  },
  {
   "name" : "_ZThn20_N7android8hardware5audio4V2_010BnHwDeviceD1Ev"
  },
  {
   "name" : "_ZThn20_N7android8hardware5audio4V2_010BnHwStreamD0Ev"
  },
  {
   "name" : "_ZThn20_N7android8hardware5audio4V2_010BnHwStreamD1Ev"
  },
  {
   "name" : "_ZThn20_N7android8hardware5audio4V2_012BnHwStreamInD0Ev"
  },
  {
   "name" : "_ZThn20_N7android8hardware5audio4V2_012BnHwStreamInD1Ev"
  },
  {
   "name" : "_ZThn20_N7android8hardware5audio4V2_013BnHwStreamOutD0Ev"
  },
  {
   "name" : "_ZThn20_N7android8hardware5audio4V2_013BnHwStreamOutD1Ev"
  },
  {
   "name" : "_ZThn20_N7android8hardware5audio4V2_017BnHwPrimaryDeviceD0Ev"
  },
  {
   "name" : "_ZThn20_N7android8hardware5audio4V2_017BnHwPrimaryDeviceD1Ev"
  },
  {
   "name" : "_ZThn20_N7android8hardware5audio4V2_018BnHwDevicesFactoryD0Ev"
  },
  {
   "name" : "_ZThn20_N7android8hardware5audio4V2_018BnHwDevicesFactoryD1Ev"
  },
  {
   "name" : "_ZThn20_N7android8hardware5audio4V2_021BnHwStreamOutCallbackD0Ev"
  },
  {
   "name" : "_ZThn20_N7android8hardware5audio4V2_021BnHwStreamOutCallbackD1Ev"
  },
  {
   "name" : "_ZTv0_n12_N7android8hardware5audio4V2_010BnHwDeviceD0Ev"
  },
  {
   "name" : "_ZTv0_n12_N7android8hardware5audio4V2_010BnHwDeviceD1Ev"
  },
  {
   "name" : "_ZTv0_n12_N7android8hardware5audio4V2_010BnHwStreamD0Ev"
  },
  {
   "name" : "_ZTv0_n12_N7android8hardware5audio4V2_010BnHwStreamD1Ev"
  },
  {
   "name" : "_ZTv0_n12_N7android8hardware5audio4V2_012BnHwStreamInD0Ev"
  },
  {
   "name" : "_ZTv0_n12_N7android8hardware5audio4V2_012BnHwStreamInD1Ev"
  },
  {
   "name" : "_ZTv0_n12_N7android8hardware5audio4V2_013BnHwStreamOutD0Ev"
  },
  {
   "name" : "_ZTv0_n12_N7android8hardware5audio4V2_013BnHwStreamOutD1Ev"
  },
  {
   "name" : "_ZTv0_n12_N7android8hardware5audio4V2_017BnHwPrimaryDeviceD0Ev"
  },
  {
   "name" : "_ZTv0_n12_N7android8hardware5audio4V2_017BnHwPrimaryDeviceD1Ev"
  },
  {
   "name" : "_ZTv0_n12_N7android8hardware5audio4V2_018BnHwDevicesFactoryD0Ev"
  },
  {
   "name" : "_ZTv0_n12_N7android8hardware5audio4V2_018BnHwDevicesFactoryD1Ev"
  },
  {
   "name" : "_ZTv0_n12_N7android8hardware5audio4V2_021BnHwStreamOutCallbackD0Ev"
  },
  {
   "name" : "_ZTv0_n12_N7android8hardware5audio4V2_021BnHwStreamOutCallbackD1Ev"
  },
  {
   "name" : "__aeabi_memclr"
  },
  {
   "name" : "__aeabi_memclr4"
  },
  {
   "name" : "__aeabi_memclr8"
  },
  {
   "name" : "__aeabi_memcpy"
  },
  {
   "name" : "__aeabi_memcpy4"
  },
  {
   "name" : "__aeabi_memcpy8"
  },
  {
   "name" : "__aeabi_memset"
  },
  {
   "name" : "__aeabi_memset4"
  },
  {
   "name" : "__aeabi_memset8"
  }
 ],
 "elf_objects" :
 [
  {
   "name" : "_ZN7android8hardware5audio4V2_010IStreamOut10descriptorE"
  },
  {
   "name" : "_ZN7android8hardware5audio4V2_014IPrimaryDevice10descriptorE"
  },
  {
   "name" : "_ZN7android8hardware5audio4V2_015IDevicesFactory10descriptorE"
  },
  {
   "name" : "_ZN7android8hardware5audio4V2_018IStreamOutCallback10descriptorE"
  },
  {
   "name" : "_ZN7android8hardware5audio4V2_07IDevice10descriptorE"
  },
  {
   "name" : "_ZN7android8hardware5audio4V2_07IStream10descriptorE"
  },
  {
   "name" : "_ZN7android8hardware5audio4V2_09IStreamIn10descriptorE"
  },
  {
   "name" : "_ZTCN7android8hardware5audio4V2_010BnHwDeviceE0_NS0_7IBinderE"
  },
  {
   "name" : "_ZTCN7android8hardware5audio4V2_010BnHwDeviceE0_NS0_9BHwBinderE"
  },
  {
   "name" : "_ZTCN7android8hardware5audio4V2_010BnHwDeviceE0_NS_4hidl4base4V1_08BnHwBaseE"
  },
  {
   "name" : "_ZTCN7android8hardware5audio4V2_010BnHwStreamE0_NS0_7IBinderE"
  },
  {
   "name" : "_ZTCN7android8hardware5audio4V2_010BnHwStreamE0_NS0_9BHwBinderE"
  },
  {
   "name" : "_ZTCN7android8hardware5audio4V2_010BnHwStreamE0_NS_4hidl4base4V1_08BnHwBaseE"
  },
  {
   "name" : "_ZTCN7android8hardware5audio4V2_010BpHwDeviceE0_NS0_11BpInterfaceINS2_7IDeviceEEE"
  },
  {
   "name" : "_ZTCN7android8hardware5audio4V2_010BpHwDeviceE0_NS2_7IDeviceE"
  },
  {
   "name" : "_ZTCN7android8hardware5audio4V2_010BpHwDeviceE0_NS_4hidl4base4V1_05IBaseE"
  },
  {
   "name" : "_ZTCN7android8hardware5audio4V2_010BpHwDeviceE4_NS0_10IInterfaceE"
  },
  {
   "name" : "_ZTCN7android8hardware5audio4V2_010BpHwDeviceE8_NS0_11BpHwRefBaseE"
  },
  {
   "name" : "_ZTCN7android8hardware5audio4V2_010BpHwStreamE0_NS0_11BpInterfaceINS2_7IStreamEEE"
  },
  {
   "name" : "_ZTCN7android8hardware5audio4V2_010BpHwStreamE0_NS2_7IStreamE"
  },
  {
   "name" : "_ZTCN7android8hardware5audio4V2_010BpHwStreamE0_NS_4hidl4base4V1_05IBaseE"
  },
  {
   "name" : "_ZTCN7android8hardware5audio4V2_010BpHwStreamE4_NS0_10IInterfaceE"
  },
  {
   "name" : "_ZTCN7android8hardware5audio4V2_010BpHwStreamE8_NS0_11BpHwRefBaseE"
  },
  {
   "binding" : "weak",
   "name" : "_ZTCN7android8hardware5audio4V2_010BsStreamInE0_NS2_9IStreamInE"
  },
  {
   "name" : "_ZTCN7android8hardware5audio4V2_010IStreamOutE0_NS2_7IStreamE"
  },
  {
   "name" : "_ZTCN7android8hardware5audio4V2_010IStreamOutE0_NS_4hidl4base4V1_05IBaseE"
  },
  {
   "binding" : "weak",
   "name" : "_ZTCN7android8hardware5audio4V2_011BsStreamOutE0_NS2_10IStreamOutE"
  },
  {
   "name" : "_ZTCN7android8hardware5audio4V2_012BnHwStreamInE0_NS0_7IBinderE"
  },
  {
   "name" : "_ZTCN7android8hardware5audio4V2_012BnHwStreamInE0_NS0_9BHwBinderE"
  },
  {
   "name" : "_ZTCN7android8hardware5audio4V2_012BnHwStreamInE0_NS_4hidl4base4V1_08BnHwBaseE"
  },
  {
   "name" : "_ZTCN7android8hardware5audio4V2_012BpHwStreamInE0_NS0_11BpInterfaceINS2_9IStreamInEEE"
  },
  {
   "name" : "_ZTCN7android8hardware5audio4V2_012BpHwStreamInE0_NS2_7IStreamE"
  },
  {
   "name" : "_ZTCN7android8hardware5audio4V2_012BpHwStreamInE0_NS2_9IStreamInE"
  },
  {
   "name" : "_ZTCN7android8hardware5audio4V2_012BpHwStreamInE0_NS_4hidl4base4V1_05IBaseE"
  },
  {
   "name" : "_ZTCN7android8hardware5audio4V2_012BpHwStreamInE4_NS0_10IInterfaceE"
  },
  {
   "name" : "_ZTCN7android8hardware5audio4V2_012BpHwStreamInE8_NS0_11BpHwRefBaseE"
  },
  {
   "name" : "_ZTCN7android8hardware5audio4V2_013BnHwStreamOutE0_NS0_7IBinderE"
  },
  {
   "name" : "_ZTCN7android8hardware5audio4V2_013BnHwStreamOutE0_NS0_9BHwBinderE"
  },
  {
   "name" : "_ZTCN7android8hardware5audio4V2_013BnHwStreamOutE0_NS_4hidl4base4V1_08BnHwBaseE"
  },
  {
   "name" : "_ZTCN7android8hardware5audio4V2_013BpHwStreamOutE0_NS0_11BpInterfaceINS2_10IStreamOutEEE"
  },
  {
   "name" : "_ZTCN7android8hardware5audio4V2_013BpHwStreamOutE0_NS2_10IStreamOutE"
  },
  {
   "name" : "_ZTCN7android8hardware5audio4V2_013BpHwStreamOutE0_NS2_7IStreamE"
  },
  {
   "name" : "_ZTCN7android8hardware5audio4V2_013BpHwStreamOutE0_NS_4hidl4base4V1_05IBaseE"
  },
  {
   "name" : "_ZTCN7android8hardware5audio4V2_013BpHwStreamOutE4_NS0_10IInterfaceE"
  },
  {
   "name" : "_ZTCN7android8hardware5audio4V2_013BpHwStreamOutE8_NS0_11BpHwRefBaseE"
  },
  {
   "name" : "_ZTCN7android8hardware5audio4V2_014IPrimaryDeviceE0_NS2_7IDeviceE"
  },
  {
   "name" : "_ZTCN7android8hardware5audio4V2_014IPrimaryDeviceE0_NS_4hidl4base4V1_05IBaseE"
  },
  {
   "binding" : "weak",
   "name" : "_ZTCN7android8hardware5audio4V2_015BsPrimaryDeviceE0_NS2_14IPrimaryDeviceE"
  },
  {
   "name" : "_ZTCN7android8hardware5audio4V2_015IDevicesFactoryE0_NS_4hidl4base4V1_05IBaseE"
  },
  {
   "binding" : "weak",
   "name" : "_ZTCN7android8hardware5audio4V2_016BsDevicesFactoryE0_NS2_15IDevicesFactoryE"
  },
  {
   "name" : "_ZTCN7android8hardware5audio4V2_017BnHwPrimaryDeviceE0_NS0_7IBinderE"
  },
  {
   "name" : "_ZTCN7android8hardware5audio4V2_017BnHwPrimaryDeviceE0_NS0_9BHwBinderE"
  },
  {
   "name" : "_ZTCN7android8hardware5audio4V2_017BnHwPrimaryDeviceE0_NS_4hidl4base4V1_08BnHwBaseE"
  },
  {
   "name" : "_ZTCN7android8hardware5audio4V2_017BpHwPrimaryDeviceE0_NS0_11BpInterfaceINS2_14IPrimaryDeviceEEE"
  },
  {
   "name" : "_ZTCN7android8hardware5audio4V2_017BpHwPrimaryDeviceE0_NS2_14IPrimaryDeviceE"
  },
  {
   "name" : "_ZTCN7android8hardware5audio4V2_017BpHwPrimaryDeviceE0_NS2_7IDeviceE"
  },
  {
   "name" : "_ZTCN7android8hardware5audio4V2_017BpHwPrimaryDeviceE0_NS_4hidl4base4V1_05IBaseE"
  },
  {
   "name" : "_ZTCN7android8hardware5audio4V2_017BpHwPrimaryDeviceE4_NS0_10IInterfaceE"
  },
  {
   "name" : "_ZTCN7android8hardware5audio4V2_017BpHwPrimaryDeviceE8_NS0_11BpHwRefBaseE"
  },
  {
   "name" : "_ZTCN7android8hardware5audio4V2_018BnHwDevicesFactoryE0_NS0_7IBinderE"
  },
  {
   "name" : "_ZTCN7android8hardware5audio4V2_018BnHwDevicesFactoryE0_NS0_9BHwBinderE"
  },
  {
   "name" : "_ZTCN7android8hardware5audio4V2_018BnHwDevicesFactoryE0_NS_4hidl4base4V1_08BnHwBaseE"
  },
  {
   "name" : "_ZTCN7android8hardware5audio4V2_018BpHwDevicesFactoryE0_NS0_11BpInterfaceINS2_15IDevicesFactoryEEE"
  },
  {
   "name" : "_ZTCN7android8hardware5audio4V2_018BpHwDevicesFactoryE0_NS2_15IDevicesFactoryE"
  },
  {
   "name" : "_ZTCN7android8hardware5audio4V2_018BpHwDevicesFactoryE0_NS_4hidl4base4V1_05IBaseE"
  },
  {
   "name" : "_ZTCN7android8hardware5audio4V2_018BpHwDevicesFactoryE4_NS0_10IInterfaceE"
  },
  {
   "name" : "_ZTCN7android8hardware5audio4V2_018BpHwDevicesFactoryE8_NS0_11BpHwRefBaseE"
  },
  {
   "name" : "_ZTCN7android8hardware5audio4V2_018IStreamOutCallbackE0_NS_4hidl4base4V1_05IBaseE"
  },
  {
   "binding" : "weak",
   "name" : "_ZTCN7android8hardware5audio4V2_019BsStreamOutCallbackE0_NS2_18IStreamOutCallbackE"
  },
  {
   "name" : "_ZTCN7android8hardware5audio4V2_021BnHwStreamOutCallbackE0_NS0_7IBinderE"
  },
  {
   "name" : "_ZTCN7android8hardware5audio4V2_021BnHwStreamOutCallbackE0_NS0_9BHwBinderE"
  },
  {
   "name" : "_ZTCN7android8hardware5audio4V2_021BnHwStreamOutCallbackE0_NS_4hidl4base4V1_08BnHwBaseE"
  },
  {
   "name" : "_ZTCN7android8hardware5audio4V2_021BpHwStreamOutCallbackE0_NS0_11BpInterfaceINS2_18IStreamOutCallbackEEE"
  },
  {
   "name" : "_ZTCN7android8hardware5audio4V2_021BpHwStreamOutCallbackE0_NS2_18IStreamOutCallbackE"
  },
  {
   "name" : "_ZTCN7android8hardware5audio4V2_021BpHwStreamOutCallbackE0_NS_4hidl4base4V1_05IBaseE"
  },
  {
   "name" : "_ZTCN7android8hardware5audio4V2_021BpHwStreamOutCallbackE4_NS0_10IInterfaceE"
  },
  {
   "name" : "_ZTCN7android8hardware5audio4V2_021BpHwStreamOutCallbackE8_NS0_11BpHwRefBaseE"
  },
  {
   "name" : "_ZTCN7android8hardware5audio4V2_07IDeviceE0_NS_4hidl4base4V1_05IBaseE"
  },
  {
   "name" : "_ZTCN7android8hardware5audio4V2_07IStreamE0_NS_4hidl4base4V1_05IBaseE"
  },
  {
   "binding" : "weak",
   "name" : "_ZTCN7android8hardware5audio4V2_08BsDeviceE0_NS2_7IDeviceE"
  },
  {
   "binding" : "weak",
   "name" : "_ZTCN7android8hardware5audio4V2_08BsStreamE0_NS2_7IStreamE"
  },
  {
   "name" : "_ZTCN7android8hardware5audio4V2_09IStreamInE0_NS2_7IStreamE"
  },
  {
   "name" : "_ZTCN7android8hardware5audio4V2_09IStreamInE0_NS_4hidl4base4V1_05IBaseE"
  },
  {
   "name" : "_ZTTN7android8hardware5audio4V2_010BnHwDeviceE"
  },
  {
   "name" : "_ZTTN7android8hardware5audio4V2_010BnHwStreamE"
  },
  {
   "name" : "_ZTTN7android8hardware5audio4V2_010BpHwDeviceE"
  },
  {
   "name" : "_ZTTN7android8hardware5audio4V2_010BpHwStreamE"
  },
  {
   "name" : "_ZTTN7android8hardware5audio4V2_010IStreamOutE"
  },
  {
   "name" : "_ZTTN7android8hardware5audio4V2_012BnHwStreamInE"
  },
  {
   "name" : "_ZTTN7android8hardware5audio4V2_012BpHwStreamInE"
  },
  {
   "name" : "_ZTTN7android8hardware5audio4V2_013BnHwStreamOutE"
  },
  {
   "name" : "_ZTTN7android8hardware5audio4V2_013BpHwStreamOutE"
  },
  {
   "name" : "_ZTTN7android8hardware5audio4V2_014IPrimaryDeviceE"
  },
  {
   "name" : "_ZTTN7android8hardware5audio4V2_015IDevicesFactoryE"
  },
  {
   "name" : "_ZTTN7android8hardware5audio4V2_017BnHwPrimaryDeviceE"
  },
  {
   "name" : "_ZTTN7android8hardware5audio4V2_017BpHwPrimaryDeviceE"
  },
  {
   "name" : "_ZTTN7android8hardware5audio4V2_018BnHwDevicesFactoryE"
  },
  {
   "name" : "_ZTTN7android8hardware5audio4V2_018BpHwDevicesFactoryE"
  },
  {
   "name" : "_ZTTN7android8hardware5audio4V2_018IStreamOutCallbackE"
  },
  {
   "name" : "_ZTTN7android8hardware5audio4V2_021BnHwStreamOutCallbackE"
  },
  {
   "name" : "_ZTTN7android8hardware5audio4V2_021BpHwStreamOutCallbackE"
  },
  {
   "name" : "_ZTTN7android8hardware5audio4V2_07IDeviceE"
  },
  {
   "name" : "_ZTTN7android8hardware5audio4V2_07IStreamE"
  },
  {
   "name" : "_ZTTN7android8hardware5audio4V2_09IStreamInE"
  },
  {
   "name" : "_ZTVN7android8hardware5audio4V2_010BnHwDeviceE"
  },
  {
   "name" : "_ZTVN7android8hardware5audio4V2_010BnHwStreamE"
  },
  {
   "name" : "_ZTVN7android8hardware5audio4V2_010BpHwDeviceE"
  },
  {
   "name" : "_ZTVN7android8hardware5audio4V2_010BpHwStreamE"
  },
  {
   "binding" : "weak",
   "name" : "_ZTVN7android8hardware5audio4V2_010BsStreamInE"
  },
  {
   "name" : "_ZTVN7android8hardware5audio4V2_010IStreamOutE"
  },
  {
   "binding" : "weak",
   "name" : "_ZTVN7android8hardware5audio4V2_011BsStreamOutE"
  },
  {
   "name" : "_ZTVN7android8hardware5audio4V2_012BnHwStreamInE"
  },
  {
   "name" : "_ZTVN7android8hardware5audio4V2_012BpHwStreamInE"
  },
  {
   "name" : "_ZTVN7android8hardware5audio4V2_013BnHwStreamOutE"
  },
  {
   "name" : "_ZTVN7android8hardware5audio4V2_013BpHwStreamOutE"
  },
  {
   "name" : "_ZTVN7android8hardware5audio4V2_014IPrimaryDeviceE"
  },
  {
   "binding" : "weak",
   "name" : "_ZTVN7android8hardware5audio4V2_015BsPrimaryDeviceE"
  },
  {
   "name" : "_ZTVN7android8hardware5audio4V2_015IDevicesFactoryE"
  },
  {
   "binding" : "weak",
   "name" : "_ZTVN7android8hardware5audio4V2_016BsDevicesFactoryE"
  },
  {
   "name" : "_ZTVN7android8hardware5audio4V2_017BnHwPrimaryDeviceE"
  },
  {
   "name" : "_ZTVN7android8hardware5audio4V2_017BpHwPrimaryDeviceE"
  },
  {
   "name" : "_ZTVN7android8hardware5audio4V2_018BnHwDevicesFactoryE"
  },
  {
   "name" : "_ZTVN7android8hardware5audio4V2_018BpHwDevicesFactoryE"
  },
  {
   "name" : "_ZTVN7android8hardware5audio4V2_018IStreamOutCallbackE"
  },
  {
   "binding" : "weak",
   "name" : "_ZTVN7android8hardware5audio4V2_019BsStreamOutCallbackE"
  },
  {
   "name" : "_ZTVN7android8hardware5audio4V2_021BnHwStreamOutCallbackE"
  },
  {
   "name" : "_ZTVN7android8hardware5audio4V2_021BpHwStreamOutCallbackE"
  },
  {
   "name" : "_ZTVN7android8hardware5audio4V2_07IDeviceE"
  },
  {
   "name" : "_ZTVN7android8hardware5audio4V2_07IStreamE"
  },
  {
   "binding" : "weak",
   "name" : "_ZTVN7android8hardware5audio4V2_08BsDeviceE"
  },
  {
   "binding" : "weak",
   "name" : "_ZTVN7android8hardware5audio4V2_08BsStreamE"
  },
  {
   "name" : "_ZTVN7android8hardware5audio4V2_09IStreamInE"
  }
 ],
 "enum_types" :
 [
  {
   "alignment" : 4,
   "enum_fields" :
   [
    {
     "enum_field_value" : 0,
     "name" : "android::Condition::WAKE_UP_ONE"
    },
    {
     "enum_field_value" : 1,
     "name" : "android::Condition::WAKE_UP_ALL"
    }
   ],
   "linker_set_key" : "android::Condition::WakeUpType",
   "name" : "android::Condition::WakeUpType",
   "referenced_type" : "type-1739",
   "self_type" : "type-1739",
   "size" : 4,
   "source_file" : "/system/core/libutils/include/utils/Condition.h",
   "underlying_type" : "type-2",
   "unique_id" : "_ZTSN7android9Condition10WakeUpTypeE"
  },
  {
   "alignment" : 4,
   "enum_fields" :
   [
    {
     "enum_field_value" : 0,
     "name" : "android::String16::kEmptyString"
    }
   ],
   "linker_set_key" : "android::String16::StaticLinkage",
   "name" : "android::String16::StaticLinkage",
   "referenced_type" : "type-1471",
   "self_type" : "type-1471",
   "size" : 4,
   "source_file" : "/system/core/libutils/include/utils/String16.h",
   "underlying_type" : "type-2",
   "unique_id" : "_ZTSN7android8String1613StaticLinkageE"
  },
  {
   "alignment" : 4,
   "enum_fields" :
   [
    {
     "enum_field_value" : 0,
     "name" : "android::String8::kEmptyString"
    }
   ],
   "linker_set_key" : "android::String8::StaticLinkage",
   "name" : "android::String8::StaticLinkage",
   "referenced_type" : "type-1439",
   "self_type" : "type-1439",
   "size" : 4,
   "source_file" : "/system/core/libutils/include/utils/String8.h",
   "underlying_type" : "type-2",
   "unique_id" : "_ZTSN7android7String813StaticLinkageE"
  },
  {
   "alignment" : 4,
   "enum_fields" :
   [
    {
     "enum_field_value" : 0,
     "name" : "android::hardware::HidlReturnRestriction::NONE"
    },
    {
     "enum_field_value" : 1,
     "name" : "android::hardware::HidlReturnRestriction::ERROR_IF_UNCHECKED"
    },
    {
     "enum_field_value" : 2,
     "name" : "android::hardware::HidlReturnRestriction::FATAL_IF_UNCHECKED"
    }
   ],
   "linker_set_key" : "android::hardware::HidlReturnRestriction",
   "name" : "android::hardware::HidlReturnRestriction",
   "referenced_type" : "type-698",
   "self_type" : "type-698",
   "size" : 4,
   "source_file" : "/system/libhidl/base/include/hidl/Status.h",
   "underlying_type" : "type-22",
   "unique_id" : "_ZTSN7android8hardware21HidlReturnRestrictionE"
  },
  {
   "alignment" : 4,
   "enum_fields" :
   [
    {
     "enum_field_value" : 0,
     "name" : "android::hardware::MQDescriptor<android::hardware::audio::V2_0::IStreamIn::ReadParameters, android::hardware::kSynchronizedReadWrite>::READPTRPOS"
    },
    {
     "enum_field_value" : 1,
     "name" : "android::hardware::MQDescriptor<android::hardware::audio::V2_0::IStreamIn::ReadParameters, android::hardware::kSynchronizedReadWrite>::WRITEPTRPOS"
    },
    {
     "enum_field_value" : 2,
     "name" : "android::hardware::MQDescriptor<android::hardware::audio::V2_0::IStreamIn::ReadParameters, android::hardware::kSynchronizedReadWrite>::DATAPTRPOS"
    },
    {
     "enum_field_value" : 3,
     "name" : "android::hardware::MQDescriptor<android::hardware::audio::V2_0::IStreamIn::ReadParameters, android::hardware::kSynchronizedReadWrite>::EVFLAGWORDPOS"
    }
   ],
   "linker_set_key" : "android::hardware::MQDescriptor<ReadParameters, android::hardware::kSynchronizedReadWrite>::GrantorType",
   "name" : "android::hardware::MQDescriptor<ReadParameters, android::hardware::kSynchronizedReadWrite>::GrantorType",
   "referenced_type" : "type-635",
   "self_type" : "type-635",
   "size" : 4,
   "source_file" : "/system/libhidl/base/include/hidl/MQDescriptor.h",
   "underlying_type" : "type-22",
   "unique_id" : "_ZTSN7android8hardware12MQDescriptorINS0_5audio4V2_09IStreamIn14ReadParametersELNS0_8MQFlavorE1EE11GrantorTypeE"
  },
  {
   "alignment" : 4,
   "enum_fields" :
   [
    {
     "enum_field_value" : 0,
     "name" : "android::hardware::MQDescriptor<android::hardware::audio::V2_0::IStreamIn::ReadStatus, android::hardware::kSynchronizedReadWrite>::READPTRPOS"
    },
    {
     "enum_field_value" : 1,
     "name" : "android::hardware::MQDescriptor<android::hardware::audio::V2_0::IStreamIn::ReadStatus, android::hardware::kSynchronizedReadWrite>::WRITEPTRPOS"
    },
    {
     "enum_field_value" : 2,
     "name" : "android::hardware::MQDescriptor<android::hardware::audio::V2_0::IStreamIn::ReadStatus, android::hardware::kSynchronizedReadWrite>::DATAPTRPOS"
    },
    {
     "enum_field_value" : 3,
     "name" : "android::hardware::MQDescriptor<android::hardware::audio::V2_0::IStreamIn::ReadStatus, android::hardware::kSynchronizedReadWrite>::EVFLAGWORDPOS"
    }
   ],
   "linker_set_key" : "android::hardware::MQDescriptor<ReadStatus, android::hardware::kSynchronizedReadWrite>::GrantorType",
   "name" : "android::hardware::MQDescriptor<ReadStatus, android::hardware::kSynchronizedReadWrite>::GrantorType",
   "referenced_type" : "type-649",
   "self_type" : "type-649",
   "size" : 4,
   "source_file" : "/system/libhidl/base/include/hidl/MQDescriptor.h",
   "underlying_type" : "type-22",
   "unique_id" : "_ZTSN7android8hardware12MQDescriptorINS0_5audio4V2_09IStreamIn10ReadStatusELNS0_8MQFlavorE1EE11GrantorTypeE"
  },
  {
   "alignment" : 4,
   "enum_fields" :
   [
    {
     "enum_field_value" : 0,
     "name" : "android::hardware::MQDescriptor<android::hardware::audio::V2_0::IStreamOut::WriteCommand, android::hardware::kSynchronizedReadWrite>::READPTRPOS"
    },
    {
     "enum_field_value" : 1,
     "name" : "android::hardware::MQDescriptor<android::hardware::audio::V2_0::IStreamOut::WriteCommand, android::hardware::kSynchronizedReadWrite>::WRITEPTRPOS"
    },
    {
     "enum_field_value" : 2,
     "name" : "android::hardware::MQDescriptor<android::hardware::audio::V2_0::IStreamOut::WriteCommand, android::hardware::kSynchronizedReadWrite>::DATAPTRPOS"
    },
    {
     "enum_field_value" : 3,
     "name" : "android::hardware::MQDescriptor<android::hardware::audio::V2_0::IStreamOut::WriteCommand, android::hardware::kSynchronizedReadWrite>::EVFLAGWORDPOS"
    }
   ],
   "linker_set_key" : "android::hardware::MQDescriptor<WriteCommand, android::hardware::kSynchronizedReadWrite>::GrantorType",
   "name" : "android::hardware::MQDescriptor<WriteCommand, android::hardware::kSynchronizedReadWrite>::GrantorType",
   "referenced_type" : "type-803",
   "self_type" : "type-803",
   "size" : 4,
   "source_file" : "/system/libhidl/base/include/hidl/MQDescriptor.h",
   "underlying_type" : "type-22",
   "unique_id" : "_ZTSN7android8hardware12MQDescriptorINS0_5audio4V2_010IStreamOut12WriteCommandELNS0_8MQFlavorE1EE11GrantorTypeE"
  },
  {
   "alignment" : 4,
   "enum_fields" :
   [
    {
     "enum_field_value" : 0,
     "name" : "android::hardware::MQDescriptor<android::hardware::audio::V2_0::IStreamOut::WriteStatus, android::hardware::kSynchronizedReadWrite>::READPTRPOS"
    },
    {
     "enum_field_value" : 1,
     "name" : "android::hardware::MQDescriptor<android::hardware::audio::V2_0::IStreamOut::WriteStatus, android::hardware::kSynchronizedReadWrite>::WRITEPTRPOS"
    },
    {
     "enum_field_value" : 2,
     "name" : "android::hardware::MQDescriptor<android::hardware::audio::V2_0::IStreamOut::WriteStatus, android::hardware::kSynchronizedReadWrite>::DATAPTRPOS"
    },
    {
     "enum_field_value" : 3,
     "name" : "android::hardware::MQDescriptor<android::hardware::audio::V2_0::IStreamOut::WriteStatus, android::hardware::kSynchronizedReadWrite>::EVFLAGWORDPOS"
    }
   ],
   "linker_set_key" : "android::hardware::MQDescriptor<WriteStatus, android::hardware::kSynchronizedReadWrite>::GrantorType",
   "name" : "android::hardware::MQDescriptor<WriteStatus, android::hardware::kSynchronizedReadWrite>::GrantorType",
   "referenced_type" : "type-813",
   "self_type" : "type-813",
   "size" : 4,
   "source_file" : "/system/libhidl/base/include/hidl/MQDescriptor.h",
   "underlying_type" : "type-22",
   "unique_id" : "_ZTSN7android8hardware12MQDescriptorINS0_5audio4V2_010IStreamOut11WriteStatusELNS0_8MQFlavorE1EE11GrantorTypeE"
  },
  {
   "alignment" : 4,
   "enum_fields" :
   [
    {
     "enum_field_value" : 0,
     "name" : "android::hardware::MQDescriptor<char, android::hardware::kSynchronizedReadWrite>::READPTRPOS"
    },
    {
     "enum_field_value" : 1,
     "name" : "android::hardware::MQDescriptor<char, android::hardware::kSynchronizedReadWrite>::WRITEPTRPOS"
    },
    {
     "enum_field_value" : 2,
     "name" : "android::hardware::MQDescriptor<char, android::hardware::kSynchronizedReadWrite>::DATAPTRPOS"
    },
    {
     "enum_field_value" : 3,
     "name" : "android::hardware::MQDescriptor<char, android::hardware::kSynchronizedReadWrite>::EVFLAGWORDPOS"
    }
   ],
   "linker_set_key" : "android::hardware::MQDescriptor<char, android::hardware::kSynchronizedReadWrite>::GrantorType",
   "name" : "android::hardware::MQDescriptor<char, android::hardware::kSynchronizedReadWrite>::GrantorType",
   "referenced_type" : "type-1399",
   "self_type" : "type-1399",
   "size" : 4,
   "source_file" : "/system/libhidl/base/include/hidl/MQDescriptor.h",
   "underlying_type" : "type-22",
   "unique_id" : "_ZTSN7android8hardware12MQDescriptorIcLNS0_8MQFlavorE1EE11GrantorTypeE"
  },
  {
   "alignment" : 4,
   "enum_fields" :
   [
    {
     "enum_field_value" : 0,
     "name" : "android::hardware::MQDescriptor<unsigned char, android::hardware::kSynchronizedReadWrite>::READPTRPOS"
    },
    {
     "enum_field_value" : 1,
     "name" : "android::hardware::MQDescriptor<unsigned char, android::hardware::kSynchronizedReadWrite>::WRITEPTRPOS"
    },
    {
     "enum_field_value" : 2,
     "name" : "android::hardware::MQDescriptor<unsigned char, android::hardware::kSynchronizedReadWrite>::DATAPTRPOS"
    },
    {
     "enum_field_value" : 3,
     "name" : "android::hardware::MQDescriptor<unsigned char, android::hardware::kSynchronizedReadWrite>::EVFLAGWORDPOS"
    }
   ],
   "linker_set_key" : "android::hardware::MQDescriptor<unsigned char, android::hardware::kSynchronizedReadWrite>::GrantorType",
   "name" : "android::hardware::MQDescriptor<unsigned char, android::hardware::kSynchronizedReadWrite>::GrantorType",
   "referenced_type" : "type-640",
   "self_type" : "type-640",
   "size" : 4,
   "source_file" : "/system/libhidl/base/include/hidl/MQDescriptor.h",
   "underlying_type" : "type-22",
   "unique_id" : "_ZTSN7android8hardware12MQDescriptorIhLNS0_8MQFlavorE1EE11GrantorTypeE"
  },
  {
   "alignment" : 4,
   "enum_fields" :
   [
    {
     "enum_field_value" : 1,
     "name" : "android::hardware::kSynchronizedReadWrite"
    },
    {
     "enum_field_value" : 2,
     "name" : "android::hardware::kUnsynchronizedWrite"
    }
   ],
   "linker_set_key" : "android::hardware::MQFlavor",
   "name" : "android::hardware::MQFlavor",
   "referenced_type" : "type-1393",
   "self_type" : "type-1393",
   "size" : 4,
   "source_file" : "/system/libhidl/base/include/hidl/MQDescriptor.h",
   "underlying_type" : "type-2",
   "unique_id" : "_ZTSN7android8hardware8MQFlavorE"
  },
  {
   "alignment" : 4,
   "enum_fields" :
   [
    {
     "enum_field_value" : 0,
     "name" : "android::hardware::ProcessState::CallRestriction::NONE"
    },
    {
     "enum_field_value" : 1,
     "name" : "android::hardware::ProcessState::CallRestriction::ERROR_IF_NOT_ONEWAY"
    },
    {
     "enum_field_value" : 2,
     "name" : "android::hardware::ProcessState::CallRestriction::FATAL_IF_NOT_ONEWAY"
    }
   ],
   "linker_set_key" : "android::hardware::ProcessState::CallRestriction",
   "name" : "android::hardware::ProcessState::CallRestriction",
   "referenced_type" : "type-247",
   "self_type" : "type-247",
   "size" : 4,
   "source_file" : "/system/libhwbinder/include/hwbinder/ProcessState.h",
   "underlying_type" : "type-22",
   "unique_id" : "_ZTSN7android8hardware12ProcessState15CallRestrictionE"
  },
  {
   "alignment" : 4,
   "enum_fields" :
   [
    {
     "enum_field_value" : 0,
     "name" : "android::hardware::Status::EX_NONE"
    },
    {
     "enum_field_value" : -1,
     "name" : "android::hardware::Status::EX_SECURITY"
    },
    {
     "enum_field_value" : -2,
     "name" : "android::hardware::Status::EX_BAD_PARCELABLE"
    },
    {
     "enum_field_value" : -3,
     "name" : "android::hardware::Status::EX_ILLEGAL_ARGUMENT"
    },
    {
     "enum_field_value" : -4,
     "name" : "android::hardware::Status::EX_NULL_POINTER"
    },
    {
     "enum_field_value" : -5,
     "name" : "android::hardware::Status::EX_ILLEGAL_STATE"
    },
    {
     "enum_field_value" : -6,
     "name" : "android::hardware::Status::EX_NETWORK_MAIN_THREAD"
    },
    {
     "enum_field_value" : -7,
     "name" : "android::hardware::Status::EX_UNSUPPORTED_OPERATION"
    },
    {
     "enum_field_value" : -128,
     "name" : "android::hardware::Status::EX_HAS_REPLY_HEADER"
    },
    {
     "enum_field_value" : -129,
     "name" : "android::hardware::Status::EX_TRANSACTION_FAILED"
    }
   ],
   "linker_set_key" : "android::hardware::Status::Exception",
   "name" : "android::hardware::Status::Exception",
   "referenced_type" : "type-555",
   "self_type" : "type-555",
   "size" : 4,
   "source_file" : "/system/libhidl/base/include/hidl/Status.h",
   "underlying_type" : "type-22",
   "unique_id" : "_ZTSN7android8hardware6Status9ExceptionE"
  },
  {
   "alignment" : 4,
   "enum_fields" :
   [
    {
     "enum_field_value" : 0,
     "name" : "android::hardware::audio::V2_0::AudioDrain::ALL"
    },
    {
     "enum_field_value" : 1,
     "name" : "android::hardware::audio::V2_0::AudioDrain::EARLY_NOTIFY"
    }
   ],
   "linker_set_key" : "android::hardware::audio::V2_0::AudioDrain",
   "name" : "android::hardware::audio::V2_0::AudioDrain",
   "referenced_type" : "type-1919",
   "self_type" : "type-1919",
   "size" : 4,
   "source_file" : "/out/soong/.intermediates/hardware/interfaces/audio/2.0/android.hardware.audio@2.0_genc++_headers/gen/android/hardware/audio/2.0/types.h",
   "underlying_type" : "type-22",
   "unique_id" : "_ZTSN7android8hardware5audio4V2_010AudioDrainE"
  },
  {
   "alignment" : 4,
   "enum_fields" :
   [
    {
     "enum_field_value" : 0,
     "name" : "android::hardware::audio::V2_0::IDevicesFactory::Device::PRIMARY"
    },
    {
     "enum_field_value" : 1,
     "name" : "android::hardware::audio::V2_0::IDevicesFactory::Device::A2DP"
    },
    {
     "enum_field_value" : 2,
     "name" : "android::hardware::audio::V2_0::IDevicesFactory::Device::USB"
    },
    {
     "enum_field_value" : 3,
     "name" : "android::hardware::audio::V2_0::IDevicesFactory::Device::R_SUBMIX"
    },
    {
     "enum_field_value" : 4,
     "name" : "android::hardware::audio::V2_0::IDevicesFactory::Device::STUB"
    }
   ],
   "linker_set_key" : "android::hardware::audio::V2_0::IDevicesFactory::Device",
   "name" : "android::hardware::audio::V2_0::IDevicesFactory::Device",
   "referenced_type" : "type-190",
   "self_type" : "type-190",
   "size" : 4,
   "source_file" : "/out/soong/.intermediates/hardware/interfaces/audio/2.0/android.hardware.audio@2.0_genc++_headers/gen/android/hardware/audio/2.0/IDevicesFactory.h",
   "underlying_type" : "type-22",
   "unique_id" : "_ZTSN7android8hardware5audio4V2_015IDevicesFactory6DeviceE"
  },
  {
   "alignment" : 4,
   "enum_fields" :
   [
    {
     "enum_field_value" : 0,
     "name" : "android::hardware::audio::V2_0::IPrimaryDevice::TtyMode::OFF"
    },
    {
     "enum_field_value" : 1,
     "name" : "android::hardware::audio::V2_0::IPrimaryDevice::TtyMode::VCO"
    },
    {
     "enum_field_value" : 2,
     "name" : "android::hardware::audio::V2_0::IPrimaryDevice::TtyMode::HCO"
    },
    {
     "enum_field_value" : 3,
     "name" : "android::hardware::audio::V2_0::IPrimaryDevice::TtyMode::FULL"
    }
   ],
   "linker_set_key" : "android::hardware::audio::V2_0::IPrimaryDevice::TtyMode",
   "name" : "android::hardware::audio::V2_0::IPrimaryDevice::TtyMode",
   "referenced_type" : "type-362",
   "self_type" : "type-362",
   "size" : 4,
   "source_file" : "/out/soong/.intermediates/hardware/interfaces/audio/2.0/android.hardware.audio@2.0_genc++_headers/gen/android/hardware/audio/2.0/IPrimaryDevice.h",
   "underlying_type" : "type-22",
   "unique_id" : "_ZTSN7android8hardware5audio4V2_014IPrimaryDevice7TtyModeE"
  },
  {
   "alignment" : 4,
   "enum_fields" :
   [
    {
     "enum_field_value" : 0,
     "name" : "android::hardware::audio::V2_0::IStreamIn::ReadCommand::READ"
    },
    {
     "enum_field_value" : 1,
     "name" : "android::hardware::audio::V2_0::IStreamIn::ReadCommand::GET_CAPTURE_POSITION"
    }
   ],
   "linker_set_key" : "android::hardware::audio::V2_0::IStreamIn::ReadCommand",
   "name" : "android::hardware::audio::V2_0::IStreamIn::ReadCommand",
   "referenced_type" : "type-627",
   "self_type" : "type-627",
   "size" : 4,
   "source_file" : "/out/soong/.intermediates/hardware/interfaces/audio/2.0/android.hardware.audio@2.0_genc++_headers/gen/android/hardware/audio/2.0/IStreamIn.h",
   "underlying_type" : "type-22",
   "unique_id" : "_ZTSN7android8hardware5audio4V2_09IStreamIn11ReadCommandE"
  },
  {
   "alignment" : 4,
   "enum_fields" :
   [
    {
     "enum_field_value" : 0,
     "name" : "android::hardware::audio::V2_0::IStreamOut::WriteCommand::WRITE"
    },
    {
     "enum_field_value" : 1,
     "name" : "android::hardware::audio::V2_0::IStreamOut::WriteCommand::GET_PRESENTATION_POSITION"
    },
    {
     "enum_field_value" : 2,
     "name" : "android::hardware::audio::V2_0::IStreamOut::WriteCommand::GET_LATENCY"
    }
   ],
   "linker_set_key" : "android::hardware::audio::V2_0::IStreamOut::WriteCommand",
   "name" : "android::hardware::audio::V2_0::IStreamOut::WriteCommand",
   "referenced_type" : "type-798",
   "self_type" : "type-798",
   "size" : 4,
   "source_file" : "/out/soong/.intermediates/hardware/interfaces/audio/2.0/android.hardware.audio@2.0_genc++_headers/gen/android/hardware/audio/2.0/IStreamOut.h",
   "underlying_type" : "type-22",
   "unique_id" : "_ZTSN7android8hardware5audio4V2_010IStreamOut12WriteCommandE"
  },
  {
   "alignment" : 4,
   "enum_fields" :
   [
    {
     "enum_field_value" : 1,
     "name" : "android::hardware::audio::V2_0::MessageQueueFlagBits::NOT_EMPTY"
    },
    {
     "enum_field_value" : 2,
     "name" : "android::hardware::audio::V2_0::MessageQueueFlagBits::NOT_FULL"
    }
   ],
   "linker_set_key" : "android::hardware::audio::V2_0::MessageQueueFlagBits",
   "name" : "android::hardware::audio::V2_0::MessageQueueFlagBits",
   "referenced_type" : "type-1924",
   "self_type" : "type-1924",
   "size" : 4,
   "source_file" : "/out/soong/.intermediates/hardware/interfaces/audio/2.0/android.hardware.audio@2.0_genc++_headers/gen/android/hardware/audio/2.0/types.h",
   "underlying_type" : "type-2",
   "unique_id" : "_ZTSN7android8hardware5audio4V2_020MessageQueueFlagBitsE"
  },
  {
   "alignment" : 4,
   "enum_fields" :
   [
    {
     "enum_field_value" : 0,
     "name" : "android::hardware::audio::V2_0::Result::OK"
    },
    {
     "enum_field_value" : 1,
     "name" : "android::hardware::audio::V2_0::Result::NOT_INITIALIZED"
    },
    {
     "enum_field_value" : 2,
     "name" : "android::hardware::audio::V2_0::Result::INVALID_ARGUMENTS"
    },
    {
     "enum_field_value" : 3,
     "name" : "android::hardware::audio::V2_0::Result::INVALID_STATE"
    },
    {
     "enum_field_value" : 4,
     "name" : "android::hardware::audio::V2_0::Result::NOT_SUPPORTED"
    }
   ],
   "linker_set_key" : "android::hardware::audio::V2_0::Result",
   "name" : "android::hardware::audio::V2_0::Result",
   "referenced_type" : "type-612",
   "self_type" : "type-612",
   "size" : 4,
   "source_file" : "/out/soong/.intermediates/hardware/interfaces/audio/2.0/android.hardware.audio@2.0_genc++_headers/gen/android/hardware/audio/2.0/types.h",
   "underlying_type" : "type-22",
   "unique_id" : "_ZTSN7android8hardware5audio4V2_06ResultE"
  },
  {
   "alignment" : 4,
   "enum_fields" :
   [
    {
     "enum_field_value" : 0,
     "name" : "android::hardware::audio::common::V2_0::AudioChannelMask::REPRESENTATION_POSITION"
    },
    {
     "enum_field_value" : 2,
     "name" : "android::hardware::audio::common::V2_0::AudioChannelMask::REPRESENTATION_INDEX"
    },
    {
     "enum_field_value" : 0,
     "name" : "android::hardware::audio::common::V2_0::AudioChannelMask::NONE"
    },
    {
     "enum_field_value" : -1073741824,
     "name" : "android::hardware::audio::common::V2_0::AudioChannelMask::INVALID"
    },
    {
     "enum_field_value" : 1,
     "name" : "android::hardware::audio::common::V2_0::AudioChannelMask::OUT_FRONT_LEFT"
    },
    {
     "enum_field_value" : 2,
     "name" : "android::hardware::audio::common::V2_0::AudioChannelMask::OUT_FRONT_RIGHT"
    },
    {
     "enum_field_value" : 4,
     "name" : "android::hardware::audio::common::V2_0::AudioChannelMask::OUT_FRONT_CENTER"
    },
    {
     "enum_field_value" : 8,
     "name" : "android::hardware::audio::common::V2_0::AudioChannelMask::OUT_LOW_FREQUENCY"
    },
    {
     "enum_field_value" : 16,
     "name" : "android::hardware::audio::common::V2_0::AudioChannelMask::OUT_BACK_LEFT"
    },
    {
     "enum_field_value" : 32,
     "name" : "android::hardware::audio::common::V2_0::AudioChannelMask::OUT_BACK_RIGHT"
    },
    {
     "enum_field_value" : 64,
     "name" : "android::hardware::audio::common::V2_0::AudioChannelMask::OUT_FRONT_LEFT_OF_CENTER"
    },
    {
     "enum_field_value" : 128,
     "name" : "android::hardware::audio::common::V2_0::AudioChannelMask::OUT_FRONT_RIGHT_OF_CENTER"
    },
    {
     "enum_field_value" : 256,
     "name" : "android::hardware::audio::common::V2_0::AudioChannelMask::OUT_BACK_CENTER"
    },
    {
     "enum_field_value" : 512,
     "name" : "android::hardware::audio::common::V2_0::AudioChannelMask::OUT_SIDE_LEFT"
    },
    {
     "enum_field_value" : 1024,
     "name" : "android::hardware::audio::common::V2_0::AudioChannelMask::OUT_SIDE_RIGHT"
    },
    {
     "enum_field_value" : 2048,
     "name" : "android::hardware::audio::common::V2_0::AudioChannelMask::OUT_TOP_CENTER"
    },
    {
     "enum_field_value" : 4096,
     "name" : "android::hardware::audio::common::V2_0::AudioChannelMask::OUT_TOP_FRONT_LEFT"
    },
    {
     "enum_field_value" : 8192,
     "name" : "android::hardware::audio::common::V2_0::AudioChannelMask::OUT_TOP_FRONT_CENTER"
    },
    {
     "enum_field_value" : 16384,
     "name" : "android::hardware::audio::common::V2_0::AudioChannelMask::OUT_TOP_FRONT_RIGHT"
    },
    {
     "enum_field_value" : 32768,
     "name" : "android::hardware::audio::common::V2_0::AudioChannelMask::OUT_TOP_BACK_LEFT"
    },
    {
     "enum_field_value" : 65536,
     "name" : "android::hardware::audio::common::V2_0::AudioChannelMask::OUT_TOP_BACK_CENTER"
    },
    {
     "enum_field_value" : 131072,
     "name" : "android::hardware::audio::common::V2_0::AudioChannelMask::OUT_TOP_BACK_RIGHT"
    },
    {
     "enum_field_value" : 1,
     "name" : "android::hardware::audio::common::V2_0::AudioChannelMask::OUT_MONO"
    },
    {
     "enum_field_value" : 3,
     "name" : "android::hardware::audio::common::V2_0::AudioChannelMask::OUT_STEREO"
    },
    {
     "enum_field_value" : 11,
     "name" : "android::hardware::audio::common::V2_0::AudioChannelMask::OUT_2POINT1"
    },
    {
     "enum_field_value" : 51,
     "name" : "android::hardware::audio::common::V2_0::AudioChannelMask::OUT_QUAD"
    },
    {
     "enum_field_value" : 51,
     "name" : "android::hardware::audio::common::V2_0::AudioChannelMask::OUT_QUAD_BACK"
    },
    {
     "enum_field_value" : 1539,
     "name" : "android::hardware::audio::common::V2_0::AudioChannelMask::OUT_QUAD_SIDE"
    },
    {
     "enum_field_value" : 263,
     "name" : "android::hardware::audio::common::V2_0::AudioChannelMask::OUT_SURROUND"
    },
    {
     "enum_field_value" : 55,
     "name" : "android::hardware::audio::common::V2_0::AudioChannelMask::OUT_PENTA"
    },
    {
     "enum_field_value" : 63,
     "name" : "android::hardware::audio::common::V2_0::AudioChannelMask::OUT_5POINT1"
    },
    {
     "enum_field_value" : 63,
     "name" : "android::hardware::audio::common::V2_0::AudioChannelMask::OUT_5POINT1_BACK"
    },
    {
     "enum_field_value" : 1551,
     "name" : "android::hardware::audio::common::V2_0::AudioChannelMask::OUT_5POINT1_SIDE"
    },
    {
     "enum_field_value" : 319,
     "name" : "android::hardware::audio::common::V2_0::AudioChannelMask::OUT_6POINT1"
    },
    {
     "enum_field_value" : 1599,
     "name" : "android::hardware::audio::common::V2_0::AudioChannelMask::OUT_7POINT1"
    },
    {
     "enum_field_value" : 262143,
     "name" : "android::hardware::audio::common::V2_0::AudioChannelMask::OUT_ALL"
    },
    {
     "enum_field_value" : 4,
     "name" : "android::hardware::audio::common::V2_0::AudioChannelMask::IN_LEFT"
    },
    {
     "enum_field_value" : 8,
     "name" : "android::hardware::audio::common::V2_0::AudioChannelMask::IN_RIGHT"
    },
    {
     "enum_field_value" : 16,
     "name" : "android::hardware::audio::common::V2_0::AudioChannelMask::IN_FRONT"
    },
    {
     "enum_field_value" : 32,
     "name" : "android::hardware::audio::common::V2_0::AudioChannelMask::IN_BACK"
    },
    {
     "enum_field_value" : 64,
     "name" : "android::hardware::audio::common::V2_0::AudioChannelMask::IN_LEFT_PROCESSED"
    },
    {
     "enum_field_value" : 128,
     "name" : "android::hardware::audio::common::V2_0::AudioChannelMask::IN_RIGHT_PROCESSED"
    },
    {
     "enum_field_value" : 256,
     "name" : "android::hardware::audio::common::V2_0::AudioChannelMask::IN_FRONT_PROCESSED"
    },
    {
     "enum_field_value" : 512,
     "name" : "android::hardware::audio::common::V2_0::AudioChannelMask::IN_BACK_PROCESSED"
    },
    {
     "enum_field_value" : 1024,
     "name" : "android::hardware::audio::common::V2_0::AudioChannelMask::IN_PRESSURE"
    },
    {
     "enum_field_value" : 2048,
     "name" : "android::hardware::audio::common::V2_0::AudioChannelMask::IN_X_AXIS"
    },
    {
     "enum_field_value" : 4096,
     "name" : "android::hardware::audio::common::V2_0::AudioChannelMask::IN_Y_AXIS"
    },
    {
     "enum_field_value" : 8192,
     "name" : "android::hardware::audio::common::V2_0::AudioChannelMask::IN_Z_AXIS"
    },
    {
     "enum_field_value" : 16384,
     "name" : "android::hardware::audio::common::V2_0::AudioChannelMask::IN_VOICE_UPLINK"
    },
    {
     "enum_field_value" : 32768,
     "name" : "android::hardware::audio::common::V2_0::AudioChannelMask::IN_VOICE_DNLINK"
    },
    {
     "enum_field_value" : 16,
     "name" : "android::hardware::audio::common::V2_0::AudioChannelMask::IN_MONO"
    },
    {
     "enum_field_value" : 12,
     "name" : "android::hardware::audio::common::V2_0::AudioChannelMask::IN_STEREO"
    },
    {
     "enum_field_value" : 48,
     "name" : "android::hardware::audio::common::V2_0::AudioChannelMask::IN_FRONT_BACK"
    },
    {
     "enum_field_value" : 252,
     "name" : "android::hardware::audio::common::V2_0::AudioChannelMask::IN_6"
    },
    {
     "enum_field_value" : 16400,
     "name" : "android::hardware::audio::common::V2_0::AudioChannelMask::IN_VOICE_UPLINK_MONO"
    },
    {
     "enum_field_value" : 32784,
     "name" : "android::hardware::audio::common::V2_0::AudioChannelMask::IN_VOICE_DNLINK_MONO"
    },
    {
     "enum_field_value" : 49168,
     "name" : "android::hardware::audio::common::V2_0::AudioChannelMask::IN_VOICE_CALL_MONO"
    },
    {
     "enum_field_value" : 65532,
     "name" : "android::hardware::audio::common::V2_0::AudioChannelMask::IN_ALL"
    },
    {
     "enum_field_value" : 30,
     "name" : "android::hardware::audio::common::V2_0::AudioChannelMask::COUNT_MAX"
    },
    {
     "enum_field_value" : -2147483648,
     "name" : "android::hardware::audio::common::V2_0::AudioChannelMask::INDEX_HDR"
    },
    {
     "enum_field_value" : -2147483647,
     "name" : "android::hardware::audio::common::V2_0::AudioChannelMask::INDEX_MASK_1"
    },
    {
     "enum_field_value" : -2147483645,
     "name" : "android::hardware::audio::common::V2_0::AudioChannelMask::INDEX_MASK_2"
    },
    {
     "enum_field_value" : -2147483641,
     "name" : "android::hardware::audio::common::V2_0::AudioChannelMask::INDEX_MASK_3"
    },
    {
     "enum_field_value" : -2147483633,
     "name" : "android::hardware::audio::common::V2_0::AudioChannelMask::INDEX_MASK_4"
    },
    {
     "enum_field_value" : -2147483617,
     "name" : "android::hardware::audio::common::V2_0::AudioChannelMask::INDEX_MASK_5"
    },
    {
     "enum_field_value" : -2147483585,
     "name" : "android::hardware::audio::common::V2_0::AudioChannelMask::INDEX_MASK_6"
    },
    {
     "enum_field_value" : -2147483521,
     "name" : "android::hardware::audio::common::V2_0::AudioChannelMask::INDEX_MASK_7"
    },
    {
     "enum_field_value" : -2147483393,
     "name" : "android::hardware::audio::common::V2_0::AudioChannelMask::INDEX_MASK_8"
    }
   ],
   "linker_set_key" : "android::hardware::audio::common::V2_0::AudioChannelMask",
   "name" : "android::hardware::audio::common::V2_0::AudioChannelMask",
   "referenced_type" : "type-409",
   "self_type" : "type-409",
   "size" : 4,
   "source_file" : "/out/soong/.intermediates/hardware/interfaces/audio/common/2.0/android.hardware.audio.common@2.0_genc++_headers/gen/android/hardware/audio/common/2.0/types.h",
   "underlying_type" : "type-2",
   "unique_id" : "_ZTSN7android8hardware5audio6common4V2_016AudioChannelMaskE"
  },
  {
   "alignment" : 4,
   "enum_fields" :
   [
    {
     "enum_field_value" : 0,
     "name" : "android::hardware::audio::common::V2_0::AudioDevice::NONE"
    },
    {
     "enum_field_value" : -2147483648,
     "name" : "android::hardware::audio::common::V2_0::AudioDevice::BIT_IN"
    },
    {
     "enum_field_value" : 1073741824,
     "name" : "android::hardware::audio::common::V2_0::AudioDevice::BIT_DEFAULT"
    },
    {
     "enum_field_value" : 1,
     "name" : "android::hardware::audio::common::V2_0::AudioDevice::OUT_EARPIECE"
    },
    {
     "enum_field_value" : 2,
     "name" : "android::hardware::audio::common::V2_0::AudioDevice::OUT_SPEAKER"
    },
    {
     "enum_field_value" : 4,
     "name" : "android::hardware::audio::common::V2_0::AudioDevice::OUT_WIRED_HEADSET"
    },
    {
     "enum_field_value" : 8,
     "name" : "android::hardware::audio::common::V2_0::AudioDevice::OUT_WIRED_HEADPHONE"
    },
    {
     "enum_field_value" : 16,
     "name" : "android::hardware::audio::common::V2_0::AudioDevice::OUT_BLUETOOTH_SCO"
    },
    {
     "enum_field_value" : 32,
     "name" : "android::hardware::audio::common::V2_0::AudioDevice::OUT_BLUETOOTH_SCO_HEADSET"
    },
    {
     "enum_field_value" : 64,
     "name" : "android::hardware::audio::common::V2_0::AudioDevice::OUT_BLUETOOTH_SCO_CARKIT"
    },
    {
     "enum_field_value" : 128,
     "name" : "android::hardware::audio::common::V2_0::AudioDevice::OUT_BLUETOOTH_A2DP"
    },
    {
     "enum_field_value" : 256,
     "name" : "android::hardware::audio::common::V2_0::AudioDevice::OUT_BLUETOOTH_A2DP_HEADPHONES"
    },
    {
     "enum_field_value" : 512,
     "name" : "android::hardware::audio::common::V2_0::AudioDevice::OUT_BLUETOOTH_A2DP_SPEAKER"
    },
    {
     "enum_field_value" : 1024,
     "name" : "android::hardware::audio::common::V2_0::AudioDevice::OUT_AUX_DIGITAL"
    },
    {
     "enum_field_value" : 1024,
     "name" : "android::hardware::audio::common::V2_0::AudioDevice::OUT_HDMI"
    },
    {
     "enum_field_value" : 2048,
     "name" : "android::hardware::audio::common::V2_0::AudioDevice::OUT_ANLG_DOCK_HEADSET"
    },
    {
     "enum_field_value" : 4096,
     "name" : "android::hardware::audio::common::V2_0::AudioDevice::OUT_DGTL_DOCK_HEADSET"
    },
    {
     "enum_field_value" : 8192,
     "name" : "android::hardware::audio::common::V2_0::AudioDevice::OUT_USB_ACCESSORY"
    },
    {
     "enum_field_value" : 16384,
     "name" : "android::hardware::audio::common::V2_0::AudioDevice::OUT_USB_DEVICE"
    },
    {
     "enum_field_value" : 32768,
     "name" : "android::hardware::audio::common::V2_0::AudioDevice::OUT_REMOTE_SUBMIX"
    },
    {
     "enum_field_value" : 65536,
     "name" : "android::hardware::audio::common::V2_0::AudioDevice::OUT_TELEPHONY_TX"
    },
    {
     "enum_field_value" : 131072,
     "name" : "android::hardware::audio::common::V2_0::AudioDevice::OUT_LINE"
    },
    {
     "enum_field_value" : 262144,
     "name" : "android::hardware::audio::common::V2_0::AudioDevice::OUT_HDMI_ARC"
    },
    {
     "enum_field_value" : 524288,
     "name" : "android::hardware::audio::common::V2_0::AudioDevice::OUT_SPDIF"
    },
    {
     "enum_field_value" : 1048576,
     "name" : "android::hardware::audio::common::V2_0::AudioDevice::OUT_FM"
    },
    {
     "enum_field_value" : 2097152,
     "name" : "android::hardware::audio::common::V2_0::AudioDevice::OUT_AUX_LINE"
    },
    {
     "enum_field_value" : 4194304,
     "name" : "android::hardware::audio::common::V2_0::AudioDevice::OUT_SPEAKER_SAFE"
    },
    {
     "enum_field_value" : 8388608,
     "name" : "android::hardware::audio::common::V2_0::AudioDevice::OUT_IP"
    },
    {
     "enum_field_value" : 16777216,
     "name" : "android::hardware::audio::common::V2_0::AudioDevice::OUT_BUS"
    },
    {
     "enum_field_value" : 33554432,
     "name" : "android::hardware::audio::common::V2_0::AudioDevice::OUT_PROXY"
    },
    {
     "enum_field_value" : 67108864,
     "name" : "android::hardware::audio::common::V2_0::AudioDevice::OUT_USB_HEADSET"
    },
    {
     "enum_field_value" : 1073741824,
     "name" : "android::hardware::audio::common::V2_0::AudioDevice::OUT_DEFAULT"
    },
    {
     "enum_field_value" : 1207959551,
     "name" : "android::hardware::audio::common::V2_0::AudioDevice::OUT_ALL"
    },
    {
     "enum_field_value" : 896,
     "name" : "android::hardware::audio::common::V2_0::AudioDevice::OUT_ALL_A2DP"
    },
    {
     "enum_field_value" : 112,
     "name" : "android::hardware::audio::common::V2_0::AudioDevice::OUT_ALL_SCO"
    },
    {
     "enum_field_value" : 67133440,
     "name" : "android::hardware::audio::common::V2_0::AudioDevice::OUT_ALL_USB"
    },
    {
     "enum_field_value" : -2147483647,
     "name" : "android::hardware::audio::common::V2_0::AudioDevice::IN_COMMUNICATION"
    },
    {
     "enum_field_value" : -2147483646,
     "name" : "android::hardware::audio::common::V2_0::AudioDevice::IN_AMBIENT"
    },
    {
     "enum_field_value" : -2147483644,
     "name" : "android::hardware::audio::common::V2_0::AudioDevice::IN_BUILTIN_MIC"
    },
    {
     "enum_field_value" : -2147483640,
     "name" : "android::hardware::audio::common::V2_0::AudioDevice::IN_BLUETOOTH_SCO_HEADSET"
    },
    {
     "enum_field_value" : -2147483632,
     "name" : "android::hardware::audio::common::V2_0::AudioDevice::IN_WIRED_HEADSET"
    },
    {
     "enum_field_value" : -2147483616,
     "name" : "android::hardware::audio::common::V2_0::AudioDevice::IN_AUX_DIGITAL"
    },
    {
     "enum_field_value" : -2147483616,
     "name" : "android::hardware::audio::common::V2_0::AudioDevice::IN_HDMI"
    },
    {
     "enum_field_value" : -2147483584,
     "name" : "android::hardware::audio::common::V2_0::AudioDevice::IN_VOICE_CALL"
    },
    {
     "enum_field_value" : -2147483584,
     "name" : "android::hardware::audio::common::V2_0::AudioDevice::IN_TELEPHONY_RX"
    },
    {
     "enum_field_value" : -2147483520,
     "name" : "android::hardware::audio::common::V2_0::AudioDevice::IN_BACK_MIC"
    },
    {
     "enum_field_value" : -2147483392,
     "name" : "android::hardware::audio::common::V2_0::AudioDevice::IN_REMOTE_SUBMIX"
    },
    {
     "enum_field_value" : -2147483136,
     "name" : "android::hardware::audio::common::V2_0::AudioDevice::IN_ANLG_DOCK_HEADSET"
    },
    {
     "enum_field_value" : -2147482624,
     "name" : "android::hardware::audio::common::V2_0::AudioDevice::IN_DGTL_DOCK_HEADSET"
    },
    {
     "enum_field_value" : -2147481600,
     "name" : "android::hardware::audio::common::V2_0::AudioDevice::IN_USB_ACCESSORY"
    },
    {
     "enum_field_value" : -2147479552,
     "name" : "android::hardware::audio::common::V2_0::AudioDevice::IN_USB_DEVICE"
    },
    {
     "enum_field_value" : -2147475456,
     "name" : "android::hardware::audio::common::V2_0::AudioDevice::IN_FM_TUNER"
    },
    {
     "enum_field_value" : -2147467264,
     "name" : "android::hardware::audio::common::V2_0::AudioDevice::IN_TV_TUNER"
    },
    {
     "enum_field_value" : -2147450880,
     "name" : "android::hardware::audio::common::V2_0::AudioDevice::IN_LINE"
    },
    {
     "enum_field_value" : -2147418112,
     "name" : "android::hardware::audio::common::V2_0::AudioDevice::IN_SPDIF"
    },
    {
     "enum_field_value" : -2147352576,
     "name" : "android::hardware::audio::common::V2_0::AudioDevice::IN_BLUETOOTH_A2DP"
    },
    {
     "enum_field_value" : -2147221504,
     "name" : "android::hardware::audio::common::V2_0::AudioDevice::IN_LOOPBACK"
    },
    {
     "enum_field_value" : -2146959360,
     "name" : "android::hardware::audio::common::V2_0::AudioDevice::IN_IP"
    },
    {
     "enum_field_value" : -2146435072,
     "name" : "android::hardware::audio::common::V2_0::AudioDevice::IN_BUS"
    },
    {
     "enum_field_value" : -2130706432,
     "name" : "android::hardware::audio::common::V2_0::AudioDevice::IN_PROXY"
    },
    {
     "enum_field_value" : -2113929216,
     "name" : "android::hardware::audio::common::V2_0::AudioDevice::IN_USB_HEADSET"
    },
    {
     "enum_field_value" : -1073741824,
     "name" : "android::hardware::audio::common::V2_0::AudioDevice::IN_DEFAULT"
    },
    {
     "enum_field_value" : -1021313025,
     "name" : "android::hardware::audio::common::V2_0::AudioDevice::IN_ALL"
    },
    {
     "enum_field_value" : -2147483640,
     "name" : "android::hardware::audio::common::V2_0::AudioDevice::IN_ALL_SCO"
    },
    {
     "enum_field_value" : -2113923072,
     "name" : "android::hardware::audio::common::V2_0::AudioDevice::IN_ALL_USB"
    }
   ],
   "linker_set_key" : "android::hardware::audio::common::V2_0::AudioDevice",
   "name" : "android::hardware::audio::common::V2_0::AudioDevice",
   "referenced_type" : "type-424",
   "self_type" : "type-424",
   "size" : 4,
   "source_file" : "/out/soong/.intermediates/hardware/interfaces/audio/common/2.0/android.hardware.audio.common@2.0_genc++_headers/gen/android/hardware/audio/common/2.0/types.h",
   "underlying_type" : "type-2",
   "unique_id" : "_ZTSN7android8hardware5audio6common4V2_011AudioDeviceE"
  },
  {
   "alignment" : 4,
   "enum_fields" :
   [
    {
     "enum_field_value" : -1,
     "name" : "android::hardware::audio::common::V2_0::AudioFormat::INVALID"
    },
    {
     "enum_field_value" : 0,
     "name" : "android::hardware::audio::common::V2_0::AudioFormat::DEFAULT"
    },
    {
     "enum_field_value" : 0,
     "name" : "android::hardware::audio::common::V2_0::AudioFormat::PCM"
    },
    {
     "enum_field_value" : 16777216,
     "name" : "android::hardware::audio::common::V2_0::AudioFormat::MP3"
    },
    {
     "enum_field_value" : 33554432,
     "name" : "android::hardware::audio::common::V2_0::AudioFormat::AMR_NB"
    },
    {
     "enum_field_value" : 50331648,
     "name" : "android::hardware::audio::common::V2_0::AudioFormat::AMR_WB"
    },
    {
     "enum_field_value" : 67108864,
     "name" : "android::hardware::audio::common::V2_0::AudioFormat::AAC"
    },
    {
     "enum_field_value" : 83886080,
     "name" : "android::hardware::audio::common::V2_0::AudioFormat::HE_AAC_V1"
    },
    {
     "enum_field_value" : 100663296,
     "name" : "android::hardware::audio::common::V2_0::AudioFormat::HE_AAC_V2"
    },
    {
     "enum_field_value" : 117440512,
     "name" : "android::hardware::audio::common::V2_0::AudioFormat::VORBIS"
    },
    {
     "enum_field_value" : 134217728,
     "name" : "android::hardware::audio::common::V2_0::AudioFormat::OPUS"
    },
    {
     "enum_field_value" : 150994944,
     "name" : "android::hardware::audio::common::V2_0::AudioFormat::AC3"
    },
    {
     "enum_field_value" : 167772160,
     "name" : "android::hardware::audio::common::V2_0::AudioFormat::E_AC3"
    },
    {
     "enum_field_value" : 184549376,
     "name" : "android::hardware::audio::common::V2_0::AudioFormat::DTS"
    },
    {
     "enum_field_value" : 201326592,
     "name" : "android::hardware::audio::common::V2_0::AudioFormat::DTS_HD"
    },
    {
     "enum_field_value" : 218103808,
     "name" : "android::hardware::audio::common::V2_0::AudioFormat::IEC61937"
    },
    {
     "enum_field_value" : 234881024,
     "name" : "android::hardware::audio::common::V2_0::AudioFormat::DOLBY_TRUEHD"
    },
    {
     "enum_field_value" : 268435456,
     "name" : "android::hardware::audio::common::V2_0::AudioFormat::EVRC"
    },
    {
     "enum_field_value" : 285212672,
     "name" : "android::hardware::audio::common::V2_0::AudioFormat::EVRCB"
    },
    {
     "enum_field_value" : 301989888,
     "name" : "android::hardware::audio::common::V2_0::AudioFormat::EVRCWB"
    },
    {
     "enum_field_value" : 318767104,
     "name" : "android::hardware::audio::common::V2_0::AudioFormat::EVRCNW"
    },
    {
     "enum_field_value" : 335544320,
     "name" : "android::hardware::audio::common::V2_0::AudioFormat::AAC_ADIF"
    },
    {
     "enum_field_value" : 352321536,
     "name" : "android::hardware::audio::common::V2_0::AudioFormat::WMA"
    },
    {
     "enum_field_value" : 369098752,
     "name" : "android::hardware::audio::common::V2_0::AudioFormat::WMA_PRO"
    },
    {
     "enum_field_value" : 385875968,
     "name" : "android::hardware::audio::common::V2_0::AudioFormat::AMR_WB_PLUS"
    },
    {
     "enum_field_value" : 402653184,
     "name" : "android::hardware::audio::common::V2_0::AudioFormat::MP2"
    },
    {
     "enum_field_value" : 419430400,
     "name" : "android::hardware::audio::common::V2_0::AudioFormat::QCELP"
    },
    {
     "enum_field_value" : 436207616,
     "name" : "android::hardware::audio::common::V2_0::AudioFormat::DSD"
    },
    {
     "enum_field_value" : 452984832,
     "name" : "android::hardware::audio::common::V2_0::AudioFormat::FLAC"
    },
    {
     "enum_field_value" : 469762048,
     "name" : "android::hardware::audio::common::V2_0::AudioFormat::ALAC"
    },
    {
     "enum_field_value" : 486539264,
     "name" : "android::hardware::audio::common::V2_0::AudioFormat::APE"
    },
    {
     "enum_field_value" : 503316480,
     "name" : "android::hardware::audio::common::V2_0::AudioFormat::AAC_ADTS"
    },
    {
     "enum_field_value" : 520093696,
     "name" : "android::hardware::audio::common::V2_0::AudioFormat::SBC"
    },
    {
     "enum_field_value" : 536870912,
     "name" : "android::hardware::audio::common::V2_0::AudioFormat::APTX"
    },
    {
     "enum_field_value" : 553648128,
     "name" : "android::hardware::audio::common::V2_0::AudioFormat::APTX_HD"
    },
    {
     "enum_field_value" : 570425344,
     "name" : "android::hardware::audio::common::V2_0::AudioFormat::AC4"
    },
    {
     "enum_field_value" : 587202560,
     "name" : "android::hardware::audio::common::V2_0::AudioFormat::LDAC"
    },
    {
     "enum_field_value" : -16777216,
     "name" : "android::hardware::audio::common::V2_0::AudioFormat::MAIN_MASK"
    },
    {
     "enum_field_value" : 16777215,
     "name" : "android::hardware::audio::common::V2_0::AudioFormat::SUB_MASK"
    },
    {
     "enum_field_value" : 1,
     "name" : "android::hardware::audio::common::V2_0::AudioFormat::PCM_SUB_16_BIT"
    },
    {
     "enum_field_value" : 2,
     "name" : "android::hardware::audio::common::V2_0::AudioFormat::PCM_SUB_8_BIT"
    },
    {
     "enum_field_value" : 3,
     "name" : "android::hardware::audio::common::V2_0::AudioFormat::PCM_SUB_32_BIT"
    },
    {
     "enum_field_value" : 4,
     "name" : "android::hardware::audio::common::V2_0::AudioFormat::PCM_SUB_8_24_BIT"
    },
    {
     "enum_field_value" : 5,
     "name" : "android::hardware::audio::common::V2_0::AudioFormat::PCM_SUB_FLOAT"
    },
    {
     "enum_field_value" : 6,
     "name" : "android::hardware::audio::common::V2_0::AudioFormat::PCM_SUB_24_BIT_PACKED"
    },
    {
     "enum_field_value" : 0,
     "name" : "android::hardware::audio::common::V2_0::AudioFormat::MP3_SUB_NONE"
    },
    {
     "enum_field_value" : 0,
     "name" : "android::hardware::audio::common::V2_0::AudioFormat::AMR_SUB_NONE"
    },
    {
     "enum_field_value" : 1,
     "name" : "android::hardware::audio::common::V2_0::AudioFormat::AAC_SUB_MAIN"
    },
    {
     "enum_field_value" : 2,
     "name" : "android::hardware::audio::common::V2_0::AudioFormat::AAC_SUB_LC"
    },
    {
     "enum_field_value" : 4,
     "name" : "android::hardware::audio::common::V2_0::AudioFormat::AAC_SUB_SSR"
    },
    {
     "enum_field_value" : 8,
     "name" : "android::hardware::audio::common::V2_0::AudioFormat::AAC_SUB_LTP"
    },
    {
     "enum_field_value" : 16,
     "name" : "android::hardware::audio::common::V2_0::AudioFormat::AAC_SUB_HE_V1"
    },
    {
     "enum_field_value" : 32,
     "name" : "android::hardware::audio::common::V2_0::AudioFormat::AAC_SUB_SCALABLE"
    },
    {
     "enum_field_value" : 64,
     "name" : "android::hardware::audio::common::V2_0::AudioFormat::AAC_SUB_ERLC"
    },
    {
     "enum_field_value" : 128,
     "name" : "android::hardware::audio::common::V2_0::AudioFormat::AAC_SUB_LD"
    },
    {
     "enum_field_value" : 256,
     "name" : "android::hardware::audio::common::V2_0::AudioFormat::AAC_SUB_HE_V2"
    },
    {
     "enum_field_value" : 512,
     "name" : "android::hardware::audio::common::V2_0::AudioFormat::AAC_SUB_ELD"
    },
    {
     "enum_field_value" : 0,
     "name" : "android::hardware::audio::common::V2_0::AudioFormat::VORBIS_SUB_NONE"
    },
    {
     "enum_field_value" : 1,
     "name" : "android::hardware::audio::common::V2_0::AudioFormat::PCM_16_BIT"
    },
    {
     "enum_field_value" : 2,
     "name" : "android::hardware::audio::common::V2_0::AudioFormat::PCM_8_BIT"
    },
    {
     "enum_field_value" : 3,
     "name" : "android::hardware::audio::common::V2_0::AudioFormat::PCM_32_BIT"
    },
    {
     "enum_field_value" : 4,
     "name" : "android::hardware::audio::common::V2_0::AudioFormat::PCM_8_24_BIT"
    },
    {
     "enum_field_value" : 5,
     "name" : "android::hardware::audio::common::V2_0::AudioFormat::PCM_FLOAT"
    },
    {
     "enum_field_value" : 6,
     "name" : "android::hardware::audio::common::V2_0::AudioFormat::PCM_24_BIT_PACKED"
    },
    {
     "enum_field_value" : 67108865,
     "name" : "android::hardware::audio::common::V2_0::AudioFormat::AAC_MAIN"
    },
    {
     "enum_field_value" : 67108866,
     "name" : "android::hardware::audio::common::V2_0::AudioFormat::AAC_LC"
    },
    {
     "enum_field_value" : 67108868,
     "name" : "android::hardware::audio::common::V2_0::AudioFormat::AAC_SSR"
    },
    {
     "enum_field_value" : 67108872,
     "name" : "android::hardware::audio::common::V2_0::AudioFormat::AAC_LTP"
    },
    {
     "enum_field_value" : 67108880,
     "name" : "android::hardware::audio::common::V2_0::AudioFormat::AAC_HE_V1"
    },
    {
     "enum_field_value" : 67108896,
     "name" : "android::hardware::audio::common::V2_0::AudioFormat::AAC_SCALABLE"
    },
    {
     "enum_field_value" : 67108928,
     "name" : "android::hardware::audio::common::V2_0::AudioFormat::AAC_ERLC"
    },
    {
     "enum_field_value" : 67108992,
     "name" : "android::hardware::audio::common::V2_0::AudioFormat::AAC_LD"
    },
    {
     "enum_field_value" : 67109120,
     "name" : "android::hardware::audio::common::V2_0::AudioFormat::AAC_HE_V2"
    },
    {
     "enum_field_value" : 67109376,
     "name" : "android::hardware::audio::common::V2_0::AudioFormat::AAC_ELD"
    },
    {
     "enum_field_value" : 503316481,
     "name" : "android::hardware::audio::common::V2_0::AudioFormat::AAC_ADTS_MAIN"
    },
    {
     "enum_field_value" : 503316482,
     "name" : "android::hardware::audio::common::V2_0::AudioFormat::AAC_ADTS_LC"
    },
    {
     "enum_field_value" : 503316484,
     "name" : "android::hardware::audio::common::V2_0::AudioFormat::AAC_ADTS_SSR"
    },
    {
     "enum_field_value" : 503316488,
     "name" : "android::hardware::audio::common::V2_0::AudioFormat::AAC_ADTS_LTP"
    },
    {
     "enum_field_value" : 503316496,
     "name" : "android::hardware::audio::common::V2_0::AudioFormat::AAC_ADTS_HE_V1"
    },
    {
     "enum_field_value" : 503316512,
     "name" : "android::hardware::audio::common::V2_0::AudioFormat::AAC_ADTS_SCALABLE"
    },
    {
     "enum_field_value" : 503316544,
     "name" : "android::hardware::audio::common::V2_0::AudioFormat::AAC_ADTS_ERLC"
    },
    {
     "enum_field_value" : 503316608,
     "name" : "android::hardware::audio::common::V2_0::AudioFormat::AAC_ADTS_LD"
    },
    {
     "enum_field_value" : 503316736,
     "name" : "android::hardware::audio::common::V2_0::AudioFormat::AAC_ADTS_HE_V2"
    },
    {
     "enum_field_value" : 503316992,
     "name" : "android::hardware::audio::common::V2_0::AudioFormat::AAC_ADTS_ELD"
    }
   ],
   "linker_set_key" : "android::hardware::audio::common::V2_0::AudioFormat",
   "name" : "android::hardware::audio::common::V2_0::AudioFormat",
   "referenced_type" : "type-416",
   "self_type" : "type-416",
   "size" : 4,
   "source_file" : "/out/soong/.intermediates/hardware/interfaces/audio/common/2.0/android.hardware.audio.common@2.0_genc++_headers/gen/android/hardware/audio/common/2.0/types.h",
   "underlying_type" : "type-2",
   "unique_id" : "_ZTSN7android8hardware5audio6common4V2_011AudioFormatE"
  },
  {
   "alignment" : 4,
   "enum_fields" :
   [
    {
     "enum_field_value" : 1,
     "name" : "android::hardware::audio::common::V2_0::AudioGainMode::JOINT"
    },
    {
     "enum_field_value" : 2,
     "name" : "android::hardware::audio::common::V2_0::AudioGainMode::CHANNELS"
    },
    {
     "enum_field_value" : 4,
     "name" : "android::hardware::audio::common::V2_0::AudioGainMode::RAMP"
    }
   ],
   "linker_set_key" : "android::hardware::audio::common::V2_0::AudioGainMode",
   "name" : "android::hardware::audio::common::V2_0::AudioGainMode",
   "referenced_type" : "type-1133",
   "self_type" : "type-1133",
   "size" : 4,
   "source_file" : "/out/soong/.intermediates/hardware/interfaces/audio/common/2.0/android.hardware.audio.common@2.0_genc++_headers/gen/android/hardware/audio/common/2.0/types.h",
   "underlying_type" : "type-2",
   "unique_id" : "_ZTSN7android8hardware5audio6common4V2_013AudioGainModeE"
  },
  {
   "alignment" : 4,
   "enum_fields" :
   [
    {
     "enum_field_value" : 0,
     "name" : "android::hardware::audio::common::V2_0::AudioHandleConsts::AUDIO_IO_HANDLE_NONE"
    },
    {
     "enum_field_value" : 0,
     "name" : "android::hardware::audio::common::V2_0::AudioHandleConsts::AUDIO_MODULE_HANDLE_NONE"
    },
    {
     "enum_field_value" : 0,
     "name" : "android::hardware::audio::common::V2_0::AudioHandleConsts::AUDIO_PORT_HANDLE_NONE"
    },
    {
     "enum_field_value" : 0,
     "name" : "android::hardware::audio::common::V2_0::AudioHandleConsts::AUDIO_PATCH_HANDLE_NONE"
    }
   ],
   "linker_set_key" : "android::hardware::audio::common::V2_0::AudioHandleConsts",
   "name" : "android::hardware::audio::common::V2_0::AudioHandleConsts",
   "referenced_type" : "type-1791",
   "self_type" : "type-1791",
   "size" : 4,
   "source_file" : "/out/soong/.intermediates/hardware/interfaces/audio/common/2.0/android.hardware.audio.common@2.0_genc++_headers/gen/android/hardware/audio/common/2.0/types.h",
   "underlying_type" : "type-22",
   "unique_id" : "_ZTSN7android8hardware5audio6common4V2_017AudioHandleConstsE"
  },
  {
   "alignment" : 4,
   "enum_fields" :
   [
    {
     "enum_field_value" : 0,
     "name" : "android::hardware::audio::common::V2_0::AudioInputFlag::NONE"
    },
    {
     "enum_field_value" : 1,
     "name" : "android::hardware::audio::common::V2_0::AudioInputFlag::FAST"
    },
    {
     "enum_field_value" : 2,
     "name" : "android::hardware::audio::common::V2_0::AudioInputFlag::HW_HOTWORD"
    },
    {
     "enum_field_value" : 4,
     "name" : "android::hardware::audio::common::V2_0::AudioInputFlag::RAW"
    },
    {
     "enum_field_value" : 8,
     "name" : "android::hardware::audio::common::V2_0::AudioInputFlag::SYNC"
    },
    {
     "enum_field_value" : 16,
     "name" : "android::hardware::audio::common::V2_0::AudioInputFlag::MMAP_NOIRQ"
    },
    {
     "enum_field_value" : 32,
     "name" : "android::hardware::audio::common::V2_0::AudioInputFlag::VOIP_TX"
    }
   ],
   "linker_set_key" : "android::hardware::audio::common::V2_0::AudioInputFlag",
   "name" : "android::hardware::audio::common::V2_0::AudioInputFlag",
   "referenced_type" : "type-1819",
   "self_type" : "type-1819",
   "size" : 4,
   "source_file" : "/out/soong/.intermediates/hardware/interfaces/audio/common/2.0/android.hardware.audio.common@2.0_genc++_headers/gen/android/hardware/audio/common/2.0/types.h",
   "underlying_type" : "type-22",
   "unique_id" : "_ZTSN7android8hardware5audio6common4V2_014AudioInputFlagE"
  },
  {
   "alignment" : 4,
   "enum_fields" :
   [
    {
     "enum_field_value" : 0,
     "name" : "android::hardware::audio::common::V2_0::AudioInterleave::LEFT"
    },
    {
     "enum_field_value" : 1,
     "name" : "android::hardware::audio::common::V2_0::AudioInterleave::RIGHT"
    }
   ],
   "linker_set_key" : "android::hardware::audio::common::V2_0::AudioInterleave",
   "name" : "android::hardware::audio::common::V2_0::AudioInterleave",
   "referenced_type" : "type-1797",
   "self_type" : "type-1797",
   "size" : 4,
   "source_file" : "/out/soong/.intermediates/hardware/interfaces/audio/common/2.0/android.hardware.audio.common@2.0_genc++_headers/gen/android/hardware/audio/common/2.0/types.h",
   "underlying_type" : "type-22",
   "unique_id" : "_ZTSN7android8hardware5audio6common4V2_015AudioInterleaveE"
  },
  {
   "alignment" : 4,
   "enum_fields" :
   [
    {
     "enum_field_value" : 0,
     "name" : "android::hardware::audio::common::V2_0::AudioMixLatencyClass::LOW"
    },
    {
     "enum_field_value" : 1,
     "name" : "android::hardware::audio::common::V2_0::AudioMixLatencyClass::NORMAL"
    }
   ],
   "linker_set_key" : "android::hardware::audio::common::V2_0::AudioMixLatencyClass",
   "name" : "android::hardware::audio::common::V2_0::AudioMixLatencyClass",
   "referenced_type" : "type-1854",
   "self_type" : "type-1854",
   "size" : 4,
   "source_file" : "/out/soong/.intermediates/hardware/interfaces/audio/common/2.0/android.hardware.audio.common@2.0_genc++_headers/gen/android/hardware/audio/common/2.0/types.h",
   "underlying_type" : "type-22",
   "unique_id" : "_ZTSN7android8hardware5audio6common4V2_020AudioMixLatencyClassE"
  },
  {
   "alignment" : 4,
   "enum_fields" :
   [
    {
     "enum_field_value" : -2,
     "name" : "android::hardware::audio::common::V2_0::AudioMode::INVALID"
    },
    {
     "enum_field_value" : -1,
     "name" : "android::hardware::audio::common::V2_0::AudioMode::CURRENT"
    },
    {
     "enum_field_value" : 0,
     "name" : "android::hardware::audio::common::V2_0::AudioMode::NORMAL"
    },
    {
     "enum_field_value" : 1,
     "name" : "android::hardware::audio::common::V2_0::AudioMode::RINGTONE"
    },
    {
     "enum_field_value" : 2,
     "name" : "android::hardware::audio::common::V2_0::AudioMode::IN_CALL"
    },
    {
     "enum_field_value" : 3,
     "name" : "android::hardware::audio::common::V2_0::AudioMode::IN_COMMUNICATION"
    },
    {
     "enum_field_value" : 4,
     "name" : "android::hardware::audio::common::V2_0::AudioMode::CNT"
    },
    {
     "enum_field_value" : 3,
     "name" : "android::hardware::audio::common::V2_0::AudioMode::MAX"
    }
   ],
   "linker_set_key" : "android::hardware::audio::common::V2_0::AudioMode",
   "name" : "android::hardware::audio::common::V2_0::AudioMode",
   "referenced_type" : "type-1798",
   "self_type" : "type-1798",
   "size" : 4,
   "source_file" : "/out/soong/.intermediates/hardware/interfaces/audio/common/2.0/android.hardware.audio.common@2.0_genc++_headers/gen/android/hardware/audio/common/2.0/types.h",
   "underlying_type" : "type-22",
   "unique_id" : "_ZTSN7android8hardware5audio6common4V2_09AudioModeE"
  },
  {
   "alignment" : 4,
   "enum_fields" :
   [
    {
     "enum_field_value" : 0,
     "name" : "android::hardware::audio::common::V2_0::AudioOutputFlag::NONE"
    },
    {
     "enum_field_value" : 1,
     "name" : "android::hardware::audio::common::V2_0::AudioOutputFlag::DIRECT"
    },
    {
     "enum_field_value" : 2,
     "name" : "android::hardware::audio::common::V2_0::AudioOutputFlag::PRIMARY"
    },
    {
     "enum_field_value" : 4,
     "name" : "android::hardware::audio::common::V2_0::AudioOutputFlag::FAST"
    },
    {
     "enum_field_value" : 8,
     "name" : "android::hardware::audio::common::V2_0::AudioOutputFlag::DEEP_BUFFER"
    },
    {
     "enum_field_value" : 16,
     "name" : "android::hardware::audio::common::V2_0::AudioOutputFlag::COMPRESS_OFFLOAD"
    },
    {
     "enum_field_value" : 32,
     "name" : "android::hardware::audio::common::V2_0::AudioOutputFlag::NON_BLOCKING"
    },
    {
     "enum_field_value" : 64,
     "name" : "android::hardware::audio::common::V2_0::AudioOutputFlag::HW_AV_SYNC"
    },
    {
     "enum_field_value" : 128,
     "name" : "android::hardware::audio::common::V2_0::AudioOutputFlag::TTS"
    },
    {
     "enum_field_value" : 256,
     "name" : "android::hardware::audio::common::V2_0::AudioOutputFlag::RAW"
    },
    {
     "enum_field_value" : 512,
     "name" : "android::hardware::audio::common::V2_0::AudioOutputFlag::SYNC"
    },
    {
     "enum_field_value" : 1024,
     "name" : "android::hardware::audio::common::V2_0::AudioOutputFlag::IEC958_NONAUDIO"
    },
    {
     "enum_field_value" : 8192,
     "name" : "android::hardware::audio::common::V2_0::AudioOutputFlag::DIRECT_PCM"
    },
    {
     "enum_field_value" : 16384,
     "name" : "android::hardware::audio::common::V2_0::AudioOutputFlag::MMAP_NOIRQ"
    },
    {
     "enum_field_value" : 32768,
     "name" : "android::hardware::audio::common::V2_0::AudioOutputFlag::VOIP_RX"
    }
   ],
   "linker_set_key" : "android::hardware::audio::common::V2_0::AudioOutputFlag",
   "name" : "android::hardware::audio::common::V2_0::AudioOutputFlag",
   "referenced_type" : "type-1810",
   "self_type" : "type-1810",
   "size" : 4,
   "source_file" : "/out/soong/.intermediates/hardware/interfaces/audio/common/2.0/android.hardware.audio.common@2.0_genc++_headers/gen/android/hardware/audio/common/2.0/types.h",
   "underlying_type" : "type-22",
   "unique_id" : "_ZTSN7android8hardware5audio6common4V2_015AudioOutputFlagE"
  },
  {
   "alignment" : 4,
   "enum_fields" :
   [
    {
     "enum_field_value" : 1,
     "name" : "android::hardware::audio::common::V2_0::AudioPortConfigMask::SAMPLE_RATE"
    },
    {
     "enum_field_value" : 2,
     "name" : "android::hardware::audio::common::V2_0::AudioPortConfigMask::CHANNEL_MASK"
    },
    {
     "enum_field_value" : 4,
     "name" : "android::hardware::audio::common::V2_0::AudioPortConfigMask::FORMAT"
    },
    {
     "enum_field_value" : 8,
     "name" : "android::hardware::audio::common::V2_0::AudioPortConfigMask::GAIN"
    },
    {
     "enum_field_value" : 15,
     "name" : "android::hardware::audio::common::V2_0::AudioPortConfigMask::ALL"
    }
   ],
   "linker_set_key" : "android::hardware::audio::common::V2_0::AudioPortConfigMask",
   "name" : "android::hardware::audio::common::V2_0::AudioPortConfigMask",
   "referenced_type" : "type-1181",
   "self_type" : "type-1181",
   "size" : 4,
   "source_file" : "/out/soong/.intermediates/hardware/interfaces/audio/common/2.0/android.hardware.audio.common@2.0_genc++_headers/gen/android/hardware/audio/common/2.0/types.h",
   "underlying_type" : "type-2",
   "unique_id" : "_ZTSN7android8hardware5audio6common4V2_019AudioPortConfigMaskE"
  },
  {
   "alignment" : 4,
   "enum_fields" :
   [
    {
     "enum_field_value" : 0,
     "name" : "android::hardware::audio::common::V2_0::AudioPortRole::NONE"
    },
    {
     "enum_field_value" : 1,
     "name" : "android::hardware::audio::common::V2_0::AudioPortRole::SOURCE"
    },
    {
     "enum_field_value" : 2,
     "name" : "android::hardware::audio::common::V2_0::AudioPortRole::SINK"
    }
   ],
   "linker_set_key" : "android::hardware::audio::common::V2_0::AudioPortRole",
   "name" : "android::hardware::audio::common::V2_0::AudioPortRole",
   "referenced_type" : "type-1186",
   "self_type" : "type-1186",
   "size" : 4,
   "source_file" : "/out/soong/.intermediates/hardware/interfaces/audio/common/2.0/android.hardware.audio.common@2.0_genc++_headers/gen/android/hardware/audio/common/2.0/types.h",
   "underlying_type" : "type-22",
   "unique_id" : "_ZTSN7android8hardware5audio6common4V2_013AudioPortRoleE"
  },
  {
   "alignment" : 4,
   "enum_fields" :
   [
    {
     "enum_field_value" : 0,
     "name" : "android::hardware::audio::common::V2_0::AudioPortType::NONE"
    },
    {
     "enum_field_value" : 1,
     "name" : "android::hardware::audio::common::V2_0::AudioPortType::DEVICE"
    },
    {
     "enum_field_value" : 2,
     "name" : "android::hardware::audio::common::V2_0::AudioPortType::MIX"
    },
    {
     "enum_field_value" : 3,
     "name" : "android::hardware::audio::common::V2_0::AudioPortType::SESSION"
    }
   ],
   "linker_set_key" : "android::hardware::audio::common::V2_0::AudioPortType",
   "name" : "android::hardware::audio::common::V2_0::AudioPortType",
   "referenced_type" : "type-1185",
   "self_type" : "type-1185",
   "size" : 4,
   "source_file" : "/out/soong/.intermediates/hardware/interfaces/audio/common/2.0/android.hardware.audio.common@2.0_genc++_headers/gen/android/hardware/audio/common/2.0/types.h",
   "underlying_type" : "type-22",
   "unique_id" : "_ZTSN7android8hardware5audio6common4V2_013AudioPortTypeE"
  },
  {
   "alignment" : 4,
   "enum_fields" :
   [
    {
     "enum_field_value" : -1,
     "name" : "android::hardware::audio::common::V2_0::AudioSessionConsts::OUTPUT_STAGE"
    },
    {
     "enum_field_value" : 0,
     "name" : "android::hardware::audio::common::V2_0::AudioSessionConsts::OUTPUT_MIX"
    },
    {
     "enum_field_value" : 0,
     "name" : "android::hardware::audio::common::V2_0::AudioSessionConsts::ALLOCATE"
    },
    {
     "enum_field_value" : 0,
     "name" : "android::hardware::audio::common::V2_0::AudioSessionConsts::NONE"
    }
   ],
   "linker_set_key" : "android::hardware::audio::common::V2_0::AudioSessionConsts",
   "name" : "android::hardware::audio::common::V2_0::AudioSessionConsts",
   "referenced_type" : "type-1795",
   "self_type" : "type-1795",
   "size" : 4,
   "source_file" : "/out/soong/.intermediates/hardware/interfaces/audio/common/2.0/android.hardware.audio.common@2.0_genc++_headers/gen/android/hardware/audio/common/2.0/types.h",
   "underlying_type" : "type-22",
   "unique_id" : "_ZTSN7android8hardware5audio6common4V2_018AudioSessionConstsE"
  },
  {
   "alignment" : 4,
   "enum_fields" :
   [
    {
     "enum_field_value" : 0,
     "name" : "android::hardware::audio::common::V2_0::AudioSource::DEFAULT"
    },
    {
     "enum_field_value" : 1,
     "name" : "android::hardware::audio::common::V2_0::AudioSource::MIC"
    },
    {
     "enum_field_value" : 2,
     "name" : "android::hardware::audio::common::V2_0::AudioSource::VOICE_UPLINK"
    },
    {
     "enum_field_value" : 3,
     "name" : "android::hardware::audio::common::V2_0::AudioSource::VOICE_DOWNLINK"
    },
    {
     "enum_field_value" : 4,
     "name" : "android::hardware::audio::common::V2_0::AudioSource::VOICE_CALL"
    },
    {
     "enum_field_value" : 5,
     "name" : "android::hardware::audio::common::V2_0::AudioSource::CAMCORDER"
    },
    {
     "enum_field_value" : 6,
     "name" : "android::hardware::audio::common::V2_0::AudioSource::VOICE_RECOGNITION"
    },
    {
     "enum_field_value" : 7,
     "name" : "android::hardware::audio::common::V2_0::AudioSource::VOICE_COMMUNICATION"
    },
    {
     "enum_field_value" : 8,
     "name" : "android::hardware::audio::common::V2_0::AudioSource::REMOTE_SUBMIX"
    },
    {
     "enum_field_value" : 9,
     "name" : "android::hardware::audio::common::V2_0::AudioSource::UNPROCESSED"
    },
    {
     "enum_field_value" : 10,
     "name" : "android::hardware::audio::common::V2_0::AudioSource::CNT"
    },
    {
     "enum_field_value" : 9,
     "name" : "android::hardware::audio::common::V2_0::AudioSource::MAX"
    },
    {
     "enum_field_value" : 1998,
     "name" : "android::hardware::audio::common::V2_0::AudioSource::FM_TUNER"
    },
    {
     "enum_field_value" : 1999,
     "name" : "android::hardware::audio::common::V2_0::AudioSource::HOTWORD"
    }
   ],
   "linker_set_key" : "android::hardware::audio::common::V2_0::AudioSource",
   "name" : "android::hardware::audio::common::V2_0::AudioSource",
   "referenced_type" : "type-1192",
   "self_type" : "type-1192",
   "size" : 4,
   "source_file" : "/out/soong/.intermediates/hardware/interfaces/audio/common/2.0/android.hardware.audio.common@2.0_genc++_headers/gen/android/hardware/audio/common/2.0/types.h",
   "underlying_type" : "type-22",
   "unique_id" : "_ZTSN7android8hardware5audio6common4V2_011AudioSourceE"
  },
  {
   "alignment" : 4,
   "enum_fields" :
   [
    {
     "enum_field_value" : -1,
     "name" : "android::hardware::audio::common::V2_0::AudioStreamType::DEFAULT"
    },
    {
     "enum_field_value" : 0,
     "name" : "android::hardware::audio::common::V2_0::AudioStreamType::MIN"
    },
    {
     "enum_field_value" : 0,
     "name" : "android::hardware::audio::common::V2_0::AudioStreamType::VOICE_CALL"
    },
    {
     "enum_field_value" : 1,
     "name" : "android::hardware::audio::common::V2_0::AudioStreamType::SYSTEM"
    },
    {
     "enum_field_value" : 2,
     "name" : "android::hardware::audio::common::V2_0::AudioStreamType::RING"
    },
    {
     "enum_field_value" : 3,
     "name" : "android::hardware::audio::common::V2_0::AudioStreamType::MUSIC"
    },
    {
     "enum_field_value" : 4,
     "name" : "android::hardware::audio::common::V2_0::AudioStreamType::ALARM"
    },
    {
     "enum_field_value" : 5,
     "name" : "android::hardware::audio::common::V2_0::AudioStreamType::NOTIFICATION"
    },
    {
     "enum_field_value" : 6,
     "name" : "android::hardware::audio::common::V2_0::AudioStreamType::BLUETOOTH_SCO"
    },
    {
     "enum_field_value" : 7,
     "name" : "android::hardware::audio::common::V2_0::AudioStreamType::ENFORCED_AUDIBLE"
    },
    {
     "enum_field_value" : 8,
     "name" : "android::hardware::audio::common::V2_0::AudioStreamType::DTMF"
    },
    {
     "enum_field_value" : 9,
     "name" : "android::hardware::audio::common::V2_0::AudioStreamType::TTS"
    },
    {
     "enum_field_value" : 10,
     "name" : "android::hardware::audio::common::V2_0::AudioStreamType::ACCESSIBILITY"
    },
    {
     "enum_field_value" : 11,
     "name" : "android::hardware::audio::common::V2_0::AudioStreamType::REROUTING"
    },
    {
     "enum_field_value" : 12,
     "name" : "android::hardware::audio::common::V2_0::AudioStreamType::PATCH"
    },
    {
     "enum_field_value" : 11,
     "name" : "android::hardware::audio::common::V2_0::AudioStreamType::PUBLIC_CNT"
    },
    {
     "enum_field_value" : 12,
     "name" : "android::hardware::audio::common::V2_0::AudioStreamType::FOR_POLICY_CNT"
    },
    {
     "enum_field_value" : 13,
     "name" : "android::hardware::audio::common::V2_0::AudioStreamType::CNT"
    }
   ],
   "linker_set_key" : "android::hardware::audio::common::V2_0::AudioStreamType",
   "name" : "android::hardware::audio::common::V2_0::AudioStreamType",
   "referenced_type" : "type-1191",
   "self_type" : "type-1191",
   "size" : 4,
   "source_file" : "/out/soong/.intermediates/hardware/interfaces/audio/common/2.0/android.hardware.audio.common@2.0_genc++_headers/gen/android/hardware/audio/common/2.0/types.h",
   "underlying_type" : "type-22",
   "unique_id" : "_ZTSN7android8hardware5audio6common4V2_015AudioStreamTypeE"
  },
  {
   "alignment" : 4,
   "enum_fields" :
   [
    {
     "enum_field_value" : 0,
     "name" : "android::hardware::audio::common::V2_0::AudioUsage::UNKNOWN"
    },
    {
     "enum_field_value" : 1,
     "name" : "android::hardware::audio::common::V2_0::AudioUsage::MEDIA"
    },
    {
     "enum_field_value" : 2,
     "name" : "android::hardware::audio::common::V2_0::AudioUsage::VOICE_COMMUNICATION"
    },
    {
     "enum_field_value" : 3,
     "name" : "android::hardware::audio::common::V2_0::AudioUsage::VOICE_COMMUNICATION_SIGNALLING"
    },
    {
     "enum_field_value" : 4,
     "name" : "android::hardware::audio::common::V2_0::AudioUsage::ALARM"
    },
    {
     "enum_field_value" : 5,
     "name" : "android::hardware::audio::common::V2_0::AudioUsage::NOTIFICATION"
    },
    {
     "enum_field_value" : 6,
     "name" : "android::hardware::audio::common::V2_0::AudioUsage::NOTIFICATION_TELEPHONY_RINGTONE"
    },
    {
     "enum_field_value" : 7,
     "name" : "android::hardware::audio::common::V2_0::AudioUsage::NOTIFICATION_COMMUNICATION_REQUEST"
    },
    {
     "enum_field_value" : 8,
     "name" : "android::hardware::audio::common::V2_0::AudioUsage::NOTIFICATION_COMMUNICATION_INSTANT"
    },
    {
     "enum_field_value" : 9,
     "name" : "android::hardware::audio::common::V2_0::AudioUsage::NOTIFICATION_COMMUNICATION_DELAYED"
    },
    {
     "enum_field_value" : 10,
     "name" : "android::hardware::audio::common::V2_0::AudioUsage::NOTIFICATION_EVENT"
    },
    {
     "enum_field_value" : 11,
     "name" : "android::hardware::audio::common::V2_0::AudioUsage::ASSISTANCE_ACCESSIBILITY"
    },
    {
     "enum_field_value" : 12,
     "name" : "android::hardware::audio::common::V2_0::AudioUsage::ASSISTANCE_NAVIGATION_GUIDANCE"
    },
    {
     "enum_field_value" : 13,
     "name" : "android::hardware::audio::common::V2_0::AudioUsage::ASSISTANCE_SONIFICATION"
    },
    {
     "enum_field_value" : 14,
     "name" : "android::hardware::audio::common::V2_0::AudioUsage::GAME"
    },
    {
     "enum_field_value" : 15,
     "name" : "android::hardware::audio::common::V2_0::AudioUsage::VIRTUAL_SOURCE"
    },
    {
     "enum_field_value" : 16,
     "name" : "android::hardware::audio::common::V2_0::AudioUsage::ASSISTANT"
    },
    {
     "enum_field_value" : 17,
     "name" : "android::hardware::audio::common::V2_0::AudioUsage::CNT"
    },
    {
     "enum_field_value" : 16,
     "name" : "android::hardware::audio::common::V2_0::AudioUsage::MAX"
    }
   ],
   "linker_set_key" : "android::hardware::audio::common::V2_0::AudioUsage",
   "name" : "android::hardware::audio::common::V2_0::AudioUsage",
   "referenced_type" : "type-1830",
   "self_type" : "type-1830",
   "size" : 4,
   "source_file" : "/out/soong/.intermediates/hardware/interfaces/audio/common/2.0/android.hardware.audio.common@2.0_genc++_headers/gen/android/hardware/audio/common/2.0/types.h",
   "underlying_type" : "type-22",
   "unique_id" : "_ZTSN7android8hardware5audio6common4V2_010AudioUsageE"
  },
  {
   "alignment" : 4,
   "enum_fields" :
   [
    {
     "enum_field_value" : 2,
     "name" : "android::hardware::audio::common::V2_0::FixedChannelCount::FCC_2"
    },
    {
     "enum_field_value" : 8,
     "name" : "android::hardware::audio::common::V2_0::FixedChannelCount::FCC_8"
    }
   ],
   "linker_set_key" : "android::hardware::audio::common::V2_0::FixedChannelCount",
   "name" : "android::hardware::audio::common::V2_0::FixedChannelCount",
   "referenced_type" : "type-1796",
   "self_type" : "type-1796",
   "size" : 4,
   "source_file" : "/out/soong/.intermediates/hardware/interfaces/audio/common/2.0/android.hardware.audio.common@2.0_genc++_headers/gen/android/hardware/audio/common/2.0/types.h",
   "underlying_type" : "type-22",
   "unique_id" : "_ZTSN7android8hardware5audio6common4V2_017FixedChannelCountE"
  },
  {
   "alignment" : 4,
   "enum_fields" :
   [
    {
     "enum_field_value" : 0,
     "name" : "android::hardware::details::HidlInstrumentor::SERVER_API_ENTRY"
    },
    {
     "enum_field_value" : 1,
     "name" : "android::hardware::details::HidlInstrumentor::SERVER_API_EXIT"
    },
    {
     "enum_field_value" : 2,
     "name" : "android::hardware::details::HidlInstrumentor::CLIENT_API_ENTRY"
    },
    {
     "enum_field_value" : 3,
     "name" : "android::hardware::details::HidlInstrumentor::CLIENT_API_EXIT"
    },
    {
     "enum_field_value" : 4,
     "name" : "android::hardware::details::HidlInstrumentor::SYNC_CALLBACK_ENTRY"
    },
    {
     "enum_field_value" : 5,
     "name" : "android::hardware::details::HidlInstrumentor::SYNC_CALLBACK_EXIT"
    },
    {
     "enum_field_value" : 6,
     "name" : "android::hardware::details::HidlInstrumentor::ASYNC_CALLBACK_ENTRY"
    },
    {
     "enum_field_value" : 7,
     "name" : "android::hardware::details::HidlInstrumentor::ASYNC_CALLBACK_EXIT"
    },
    {
     "enum_field_value" : 8,
     "name" : "android::hardware::details::HidlInstrumentor::PASSTHROUGH_ENTRY"
    },
    {
     "enum_field_value" : 9,
     "name" : "android::hardware::details::HidlInstrumentor::PASSTHROUGH_EXIT"
    }
   ],
   "linker_set_key" : "android::hardware::details::HidlInstrumentor::InstrumentationEvent",
   "name" : "android::hardware::details::HidlInstrumentor::InstrumentationEvent",
   "referenced_type" : "type-1134",
   "self_type" : "type-1134",
   "size" : 4,
   "source_file" : "/system/libhidl/base/include/hidl/HidlInternal.h",
   "underlying_type" : "type-2",
   "unique_id" : "_ZTSN7android8hardware7details16HidlInstrumentor20InstrumentationEventE"
  },
  {
   "alignment" : 4,
   "enum_fields" :
   [
    {
     "enum_field_value" : 0,
     "name" : "android::hidl::base::V1_0::DebugInfo::Architecture::UNKNOWN"
    },
    {
     "enum_field_value" : 1,
     "name" : "android::hidl::base::V1_0::DebugInfo::Architecture::IS_64BIT"
    },
    {
     "enum_field_value" : 2,
     "name" : "android::hidl::base::V1_0::DebugInfo::Architecture::IS_32BIT"
    }
   ],
   "linker_set_key" : "android::hidl::base::V1_0::DebugInfo::Architecture",
   "name" : "android::hidl::base::V1_0::DebugInfo::Architecture",
   "referenced_type" : "type-1410",
   "self_type" : "type-1410",
   "size" : 4,
   "source_file" : "/out/soong/.intermediates/system/libhidl/transport/base/1.0/android.hidl.base@1.0_genc++_headers/gen/android/hidl/base/1.0/types.h",
   "underlying_type" : "type-22",
   "unique_id" : "_ZTSN7android4hidl4base4V1_09DebugInfo12ArchitectureE"
  },
  {
   "alignment" : 4,
   "enum_fields" :
   [
    {
     "enum_field_value" : -1,
     "name" : "android::hidl::manager::V1_0::IServiceManager::PidConstant::NO_PID"
    }
   ],
   "linker_set_key" : "android::hidl::manager::V1_0::IServiceManager::PidConstant",
   "name" : "android::hidl::manager::V1_0::IServiceManager::PidConstant",
   "referenced_type" : "type-1779",
   "self_type" : "type-1779",
   "size" : 4,
   "source_file" : "/out/soong/.intermediates/system/libhidl/transport/manager/1.0/android.hidl.manager@1.0_genc++_headers/gen/android/hidl/manager/1.0/IServiceManager.h",
   "underlying_type" : "type-22",
   "unique_id" : "_ZTSN7android4hidl7manager4V1_015IServiceManager11PidConstantE"
  },
  {
   "alignment" : 1,
   "enum_fields" :
   [
    {
     "enum_field_value" : 0,
     "name" : "android::hidl::manager::V1_0::IServiceManager::Transport::EMPTY"
    },
    {
     "enum_field_value" : 1,
     "name" : "android::hidl::manager::V1_0::IServiceManager::Transport::HWBINDER"
    },
    {
     "enum_field_value" : 2,
     "name" : "android::hidl::manager::V1_0::IServiceManager::Transport::PASSTHROUGH"
    }
   ],
   "linker_set_key" : "android::hidl::manager::V1_0::IServiceManager::Transport",
   "name" : "android::hidl::manager::V1_0::IServiceManager::Transport",
   "referenced_type" : "type-1775",
   "self_type" : "type-1775",
   "size" : 1,
   "source_file" : "/out/soong/.intermediates/system/libhidl/transport/manager/1.0/android.hidl.manager@1.0_genc++_headers/gen/android/hidl/manager/1.0/IServiceManager.h",
   "underlying_type" : "type-123",
   "unique_id" : "_ZTSN7android4hidl7manager4V1_015IServiceManager9TransportE"
  },
  {
   "alignment" : 4,
   "enum_fields" :
   [
    {
     "enum_field_value" : 0,
     "name" : "ANDROID_LOG_UNKNOWN"
    },
    {
     "enum_field_value" : 1,
     "name" : "ANDROID_LOG_DEFAULT"
    },
    {
     "enum_field_value" : 2,
     "name" : "ANDROID_LOG_VERBOSE"
    },
    {
     "enum_field_value" : 3,
     "name" : "ANDROID_LOG_DEBUG"
    },
    {
     "enum_field_value" : 4,
     "name" : "ANDROID_LOG_INFO"
    },
    {
     "enum_field_value" : 5,
     "name" : "ANDROID_LOG_WARN"
    },
    {
     "enum_field_value" : 6,
     "name" : "ANDROID_LOG_ERROR"
    },
    {
     "enum_field_value" : 7,
     "name" : "ANDROID_LOG_FATAL"
    },
    {
     "enum_field_value" : 8,
     "name" : "ANDROID_LOG_SILENT"
    }
   ],
   "linker_set_key" : "android_LogPriority",
   "name" : "android_LogPriority",
   "referenced_type" : "type-1",
   "self_type" : "type-1",
   "size" : 4,
   "source_file" : "/system/core/liblog/include/android/log.h",
   "underlying_type" : "type-2",
   "unique_id" : "android_LogPriority"
  },
  {
   "alignment" : 4,
   "enum_fields" :
   [
    {
     "enum_field_value" : 0,
     "name" : "HAL_COLOR_MODE_NATIVE"
    },
    {
     "enum_field_value" : 1,
     "name" : "HAL_COLOR_MODE_STANDARD_BT601_625"
    },
    {
     "enum_field_value" : 2,
     "name" : "HAL_COLOR_MODE_STANDARD_BT601_625_UNADJUSTED"
    },
    {
     "enum_field_value" : 3,
     "name" : "HAL_COLOR_MODE_STANDARD_BT601_525"
    },
    {
     "enum_field_value" : 4,
     "name" : "HAL_COLOR_MODE_STANDARD_BT601_525_UNADJUSTED"
    },
    {
     "enum_field_value" : 5,
     "name" : "HAL_COLOR_MODE_STANDARD_BT709"
    },
    {
     "enum_field_value" : 6,
     "name" : "HAL_COLOR_MODE_DCI_P3"
    },
    {
     "enum_field_value" : 7,
     "name" : "HAL_COLOR_MODE_SRGB"
    },
    {
     "enum_field_value" : 8,
     "name" : "HAL_COLOR_MODE_ADOBE_RGB"
    },
    {
     "enum_field_value" : 9,
     "name" : "HAL_COLOR_MODE_DISPLAY_P3"
    }
   ],
   "linker_set_key" : "android_color_mode_t",
   "name" : "android_color_mode_t",
   "referenced_type" : "type-1639",
   "self_type" : "type-1639",
   "size" : 4,
   "source_file" : "/system/core/libsystem/include/system/graphics-base-v1.0.h",
   "underlying_type" : "type-2",
   "unique_id" : "android_color_mode_t"
  },
  {
   "alignment" : 4,
   "enum_fields" :
   [
    {
     "enum_field_value" : 10,
     "name" : "HAL_COLOR_MODE_BT2020"
    },
    {
     "enum_field_value" : 11,
     "name" : "HAL_COLOR_MODE_BT2100_PQ"
    },
    {
     "enum_field_value" : 12,
     "name" : "HAL_COLOR_MODE_BT2100_HLG"
    }
   ],
   "linker_set_key" : "android_color_mode_v1_1_t",
   "name" : "android_color_mode_v1_1_t",
   "referenced_type" : "type-1654",
   "self_type" : "type-1654",
   "size" : 4,
   "source_file" : "/system/core/libsystem/include/system/graphics-base-v1.1.h",
   "underlying_type" : "type-2",
   "unique_id" : "android_color_mode_v1_1_t"
  },
  {
   "alignment" : 4,
   "enum_fields" :
   [
    {
     "enum_field_value" : 0,
     "name" : "HAL_COLOR_TRANSFORM_IDENTITY"
    },
    {
     "enum_field_value" : 1,
     "name" : "HAL_COLOR_TRANSFORM_ARBITRARY_MATRIX"
    },
    {
     "enum_field_value" : 2,
     "name" : "HAL_COLOR_TRANSFORM_VALUE_INVERSE"
    },
    {
     "enum_field_value" : 3,
     "name" : "HAL_COLOR_TRANSFORM_GRAYSCALE"
    },
    {
     "enum_field_value" : 4,
     "name" : "HAL_COLOR_TRANSFORM_CORRECT_PROTANOPIA"
    },
    {
     "enum_field_value" : 5,
     "name" : "HAL_COLOR_TRANSFORM_CORRECT_DEUTERANOPIA"
    },
    {
     "enum_field_value" : 6,
     "name" : "HAL_COLOR_TRANSFORM_CORRECT_TRITANOPIA"
    }
   ],
   "linker_set_key" : "android_color_transform_t",
   "name" : "android_color_transform_t",
   "referenced_type" : "type-1640",
   "self_type" : "type-1640",
   "size" : 4,
   "source_file" : "/system/core/libsystem/include/system/graphics-base-v1.0.h",
   "underlying_type" : "type-2",
   "unique_id" : "android_color_transform_t"
  },
  {
   "alignment" : 4,
   "enum_fields" :
   [
    {
     "enum_field_value" : 0,
     "name" : "HAL_DATASPACE_UNKNOWN"
    },
    {
     "enum_field_value" : 1,
     "name" : "HAL_DATASPACE_ARBITRARY"
    },
    {
     "enum_field_value" : 16,
     "name" : "HAL_DATASPACE_STANDARD_SHIFT"
    },
    {
     "enum_field_value" : 4128768,
     "name" : "HAL_DATASPACE_STANDARD_MASK"
    },
    {
     "enum_field_value" : 0,
     "name" : "HAL_DATASPACE_STANDARD_UNSPECIFIED"
    },
    {
     "enum_field_value" : 65536,
     "name" : "HAL_DATASPACE_STANDARD_BT709"
    },
    {
     "enum_field_value" : 131072,
     "name" : "HAL_DATASPACE_STANDARD_BT601_625"
    },
    {
     "enum_field_value" : 196608,
     "name" : "HAL_DATASPACE_STANDARD_BT601_625_UNADJUSTED"
    },
    {
     "enum_field_value" : 262144,
     "name" : "HAL_DATASPACE_STANDARD_BT601_525"
    },
    {
     "enum_field_value" : 327680,
     "name" : "HAL_DATASPACE_STANDARD_BT601_525_UNADJUSTED"
    },
    {
     "enum_field_value" : 393216,
     "name" : "HAL_DATASPACE_STANDARD_BT2020"
    },
    {
     "enum_field_value" : 458752,
     "name" : "HAL_DATASPACE_STANDARD_BT2020_CONSTANT_LUMINANCE"
    },
    {
     "enum_field_value" : 524288,
     "name" : "HAL_DATASPACE_STANDARD_BT470M"
    },
    {
     "enum_field_value" : 589824,
     "name" : "HAL_DATASPACE_STANDARD_FILM"
    },
    {
     "enum_field_value" : 655360,
     "name" : "HAL_DATASPACE_STANDARD_DCI_P3"
    },
    {
     "enum_field_value" : 720896,
     "name" : "HAL_DATASPACE_STANDARD_ADOBE_RGB"
    },
    {
     "enum_field_value" : 22,
     "name" : "HAL_DATASPACE_TRANSFER_SHIFT"
    },
    {
     "enum_field_value" : 130023424,
     "name" : "HAL_DATASPACE_TRANSFER_MASK"
    },
    {
     "enum_field_value" : 0,
     "name" : "HAL_DATASPACE_TRANSFER_UNSPECIFIED"
    },
    {
     "enum_field_value" : 4194304,
     "name" : "HAL_DATASPACE_TRANSFER_LINEAR"
    },
    {
     "enum_field_value" : 8388608,
     "name" : "HAL_DATASPACE_TRANSFER_SRGB"
    },
    {
     "enum_field_value" : 12582912,
     "name" : "HAL_DATASPACE_TRANSFER_SMPTE_170M"
    },
    {
     "enum_field_value" : 16777216,
     "name" : "HAL_DATASPACE_TRANSFER_GAMMA2_2"
    },
    {
     "enum_field_value" : 20971520,
     "name" : "HAL_DATASPACE_TRANSFER_GAMMA2_6"
    },
    {
     "enum_field_value" : 25165824,
     "name" : "HAL_DATASPACE_TRANSFER_GAMMA2_8"
    },
    {
     "enum_field_value" : 29360128,
     "name" : "HAL_DATASPACE_TRANSFER_ST2084"
    },
    {
     "enum_field_value" : 33554432,
     "name" : "HAL_DATASPACE_TRANSFER_HLG"
    },
    {
     "enum_field_value" : 27,
     "name" : "HAL_DATASPACE_RANGE_SHIFT"
    },
    {
     "enum_field_value" : 939524096,
     "name" : "HAL_DATASPACE_RANGE_MASK"
    },
    {
     "enum_field_value" : 0,
     "name" : "HAL_DATASPACE_RANGE_UNSPECIFIED"
    },
    {
     "enum_field_value" : 134217728,
     "name" : "HAL_DATASPACE_RANGE_FULL"
    },
    {
     "enum_field_value" : 268435456,
     "name" : "HAL_DATASPACE_RANGE_LIMITED"
    },
    {
     "enum_field_value" : 402653184,
     "name" : "HAL_DATASPACE_RANGE_EXTENDED"
    },
    {
     "enum_field_value" : 512,
     "name" : "HAL_DATASPACE_SRGB_LINEAR"
    },
    {
     "enum_field_value" : 138477568,
     "name" : "HAL_DATASPACE_V0_SRGB_LINEAR"
    },
    {
     "enum_field_value" : 406913024,
     "name" : "HAL_DATASPACE_V0_SCRGB_LINEAR"
    },
    {
     "enum_field_value" : 513,
     "name" : "HAL_DATASPACE_SRGB"
    },
    {
     "enum_field_value" : 142671872,
     "name" : "HAL_DATASPACE_V0_SRGB"
    },
    {
     "enum_field_value" : 411107328,
     "name" : "HAL_DATASPACE_V0_SCRGB"
    },
    {
     "enum_field_value" : 257,
     "name" : "HAL_DATASPACE_JFIF"
    },
    {
     "enum_field_value" : 146931712,
     "name" : "HAL_DATASPACE_V0_JFIF"
    },
    {
     "enum_field_value" : 258,
     "name" : "HAL_DATASPACE_BT601_625"
    },
    {
     "enum_field_value" : 281149440,
     "name" : "HAL_DATASPACE_V0_BT601_625"
    },
    {
     "enum_field_value" : 259,
     "name" : "HAL_DATASPACE_BT601_525"
    },
    {
     "enum_field_value" : 281280512,
     "name" : "HAL_DATASPACE_V0_BT601_525"
    },
    {
     "enum_field_value" : 260,
     "name" : "HAL_DATASPACE_BT709"
    },
    {
     "enum_field_value" : 281083904,
     "name" : "HAL_DATASPACE_V0_BT709"
    },
    {
     "enum_field_value" : 139067392,
     "name" : "HAL_DATASPACE_DCI_P3_LINEAR"
    },
    {
     "enum_field_value" : 155844608,
     "name" : "HAL_DATASPACE_DCI_P3"
    },
    {
     "enum_field_value" : 139067392,
     "name" : "HAL_DATASPACE_DISPLAY_P3_LINEAR"
    },
    {
     "enum_field_value" : 143261696,
     "name" : "HAL_DATASPACE_DISPLAY_P3"
    },
    {
     "enum_field_value" : 151715840,
     "name" : "HAL_DATASPACE_ADOBE_RGB"
    },
    {
     "enum_field_value" : 138805248,
     "name" : "HAL_DATASPACE_BT2020_LINEAR"
    },
    {
     "enum_field_value" : 147193856,
     "name" : "HAL_DATASPACE_BT2020"
    },
    {
     "enum_field_value" : 163971072,
     "name" : "HAL_DATASPACE_BT2020_PQ"
    },
    {
     "enum_field_value" : 4096,
     "name" : "HAL_DATASPACE_DEPTH"
    },
    {
     "enum_field_value" : 4097,
     "name" : "HAL_DATASPACE_SENSOR"
    }
   ],
   "linker_set_key" : "android_dataspace_t",
   "name" : "android_dataspace_t",
   "referenced_type" : "type-1635",
   "self_type" : "type-1635",
   "size" : 4,
   "source_file" : "/system/core/libsystem/include/system/graphics-base-v1.0.h",
   "underlying_type" : "type-2",
   "unique_id" : "android_dataspace_t"
  },
  {
   "alignment" : 4,
   "enum_fields" :
   [
    {
     "enum_field_value" : 281411584,
     "name" : "HAL_DATASPACE_BT2020_ITU"
    },
    {
     "enum_field_value" : 298188800,
     "name" : "HAL_DATASPACE_BT2020_ITU_PQ"
    },
    {
     "enum_field_value" : 302383104,
     "name" : "HAL_DATASPACE_BT2020_ITU_HLG"
    },
    {
     "enum_field_value" : 168165376,
     "name" : "HAL_DATASPACE_BT2020_HLG"
    }
   ],
   "linker_set_key" : "android_dataspace_v1_1_t",
   "name" : "android_dataspace_v1_1_t",
   "referenced_type" : "type-1649",
   "self_type" : "type-1649",
   "size" : 4,
   "source_file" : "/system/core/libsystem/include/system/graphics-base-v1.1.h",
   "underlying_type" : "type-2",
   "unique_id" : "android_dataspace_v1_1_t"
  },
  {
   "alignment" : 4,
   "enum_fields" :
   [
    {
     "enum_field_value" : 142999552,
     "name" : "HAL_DATASPACE_DISPLAY_BT2020"
    },
    {
     "enum_field_value" : 4098,
     "name" : "HAL_DATASPACE_DYNAMIC_DEPTH"
    },
    {
     "enum_field_value" : 4099,
     "name" : "HAL_DATASPACE_JPEG_APP_SEGMENTS"
    },
    {
     "enum_field_value" : 4100,
     "name" : "HAL_DATASPACE_HEIF"
    }
   ],
   "linker_set_key" : "android_dataspace_v1_2_t",
   "name" : "android_dataspace_v1_2_t",
   "referenced_type" : "type-1667",
   "self_type" : "type-1667",
   "size" : 4,
   "source_file" : "/system/core/libsystem/include/system/graphics-base-v1.2.h",
   "underlying_type" : "type-2",
   "unique_id" : "android_dataspace_v1_2_t"
  },
  {
   "alignment" : 4,
   "enum_fields" :
   [
    {
     "enum_field_value" : 1,
     "name" : "FLEX_COMPONENT_Y"
    },
    {
     "enum_field_value" : 2,
     "name" : "FLEX_COMPONENT_Cb"
    },
    {
     "enum_field_value" : 4,
     "name" : "FLEX_COMPONENT_Cr"
    },
    {
     "enum_field_value" : 1024,
     "name" : "FLEX_COMPONENT_R"
    },
    {
     "enum_field_value" : 2048,
     "name" : "FLEX_COMPONENT_G"
    },
    {
     "enum_field_value" : 4096,
     "name" : "FLEX_COMPONENT_B"
    },
    {
     "enum_field_value" : 1073741824,
     "name" : "FLEX_COMPONENT_A"
    }
   ],
   "linker_set_key" : "android_flex_component",
   "name" : "android_flex_component",
   "referenced_type" : "type-1707",
   "self_type" : "type-1707",
   "size" : 4,
   "source_file" : "/system/core/libsystem/include/system/graphics.h",
   "underlying_type" : "type-2",
   "unique_id" : "android_flex_component"
  },
  {
   "alignment" : 4,
   "enum_fields" :
   [
    {
     "enum_field_value" : 0,
     "name" : "FLEX_FORMAT_INVALID"
    },
    {
     "enum_field_value" : 1,
     "name" : "FLEX_FORMAT_Y"
    },
    {
     "enum_field_value" : 7,
     "name" : "FLEX_FORMAT_YCbCr"
    },
    {
     "enum_field_value" : 1073741831,
     "name" : "FLEX_FORMAT_YCbCrA"
    },
    {
     "enum_field_value" : 7168,
     "name" : "FLEX_FORMAT_RGB"
    },
    {
     "enum_field_value" : 1073748992,
     "name" : "FLEX_FORMAT_RGBA"
    }
   ],
   "linker_set_key" : "android_flex_format",
   "name" : "android_flex_format",
   "referenced_type" : "type-1709",
   "self_type" : "type-1709",
   "size" : 4,
   "source_file" : "/system/core/libsystem/include/system/graphics.h",
   "underlying_type" : "type-2",
   "unique_id" : "android_flex_format"
  },
  {
   "alignment" : 4,
   "enum_fields" :
   [
    {
     "enum_field_value" : 1,
     "name" : "HAL_HDR_DOLBY_VISION"
    },
    {
     "enum_field_value" : 2,
     "name" : "HAL_HDR_HDR10"
    },
    {
     "enum_field_value" : 3,
     "name" : "HAL_HDR_HLG"
    }
   ],
   "linker_set_key" : "android_hdr_t",
   "name" : "android_hdr_t",
   "referenced_type" : "type-1647",
   "self_type" : "type-1647",
   "size" : 4,
   "source_file" : "/system/core/libsystem/include/system/graphics-base-v1.0.h",
   "underlying_type" : "type-2",
   "unique_id" : "android_hdr_t"
  },
  {
   "alignment" : 4,
   "enum_fields" :
   [
    {
     "enum_field_value" : 4,
     "name" : "HAL_HDR_HDR10_PLUS"
    }
   ],
   "linker_set_key" : "android_hdr_v1_2_t",
   "name" : "android_hdr_v1_2_t",
   "referenced_type" : "type-1658",
   "self_type" : "type-1658",
   "size" : 4,
   "source_file" : "/system/core/libsystem/include/system/graphics-base-v1.2.h",
   "underlying_type" : "type-2",
   "unique_id" : "android_hdr_v1_2_t"
  },
  {
   "alignment" : 4,
   "enum_fields" :
   [
    {
     "enum_field_value" : 39,
     "name" : "HAL_PIXEL_FORMAT_YCBCR_422_888"
    },
    {
     "enum_field_value" : 40,
     "name" : "HAL_PIXEL_FORMAT_YCBCR_444_888"
    },
    {
     "enum_field_value" : 41,
     "name" : "HAL_PIXEL_FORMAT_FLEX_RGB_888"
    },
    {
     "enum_field_value" : 42,
     "name" : "HAL_PIXEL_FORMAT_FLEX_RGBA_8888"
    }
   ],
   "linker_set_key" : "android_pixel_format_sw_t",
   "name" : "android_pixel_format_sw_t",
   "referenced_type" : "type-1689",
   "self_type" : "type-1689",
   "size" : 4,
   "source_file" : "/system/core/libsystem/include/system/graphics-sw.h",
   "underlying_type" : "type-2",
   "unique_id" : "_ZTS25android_pixel_format_sw_t"
  },
  {
   "alignment" : 4,
   "enum_fields" :
   [
    {
     "enum_field_value" : 1,
     "name" : "HAL_PIXEL_FORMAT_RGBA_8888"
    },
    {
     "enum_field_value" : 2,
     "name" : "HAL_PIXEL_FORMAT_RGBX_8888"
    },
    {
     "enum_field_value" : 3,
     "name" : "HAL_PIXEL_FORMAT_RGB_888"
    },
    {
     "enum_field_value" : 4,
     "name" : "HAL_PIXEL_FORMAT_RGB_565"
    },
    {
     "enum_field_value" : 5,
     "name" : "HAL_PIXEL_FORMAT_BGRA_8888"
    },
    {
     "enum_field_value" : 16,
     "name" : "HAL_PIXEL_FORMAT_YCBCR_422_SP"
    },
    {
     "enum_field_value" : 17,
     "name" : "HAL_PIXEL_FORMAT_YCRCB_420_SP"
    },
    {
     "enum_field_value" : 20,
     "name" : "HAL_PIXEL_FORMAT_YCBCR_422_I"
    },
    {
     "enum_field_value" : 22,
     "name" : "HAL_PIXEL_FORMAT_RGBA_FP16"
    },
    {
     "enum_field_value" : 32,
     "name" : "HAL_PIXEL_FORMAT_RAW16"
    },
    {
     "enum_field_value" : 33,
     "name" : "HAL_PIXEL_FORMAT_BLOB"
    },
    {
     "enum_field_value" : 34,
     "name" : "HAL_PIXEL_FORMAT_IMPLEMENTATION_DEFINED"
    },
    {
     "enum_field_value" : 35,
     "name" : "HAL_PIXEL_FORMAT_YCBCR_420_888"
    },
    {
     "enum_field_value" : 36,
     "name" : "HAL_PIXEL_FORMAT_RAW_OPAQUE"
    },
    {
     "enum_field_value" : 37,
     "name" : "HAL_PIXEL_FORMAT_RAW10"
    },
    {
     "enum_field_value" : 38,
     "name" : "HAL_PIXEL_FORMAT_RAW12"
    },
    {
     "enum_field_value" : 43,
     "name" : "HAL_PIXEL_FORMAT_RGBA_1010102"
    },
    {
     "enum_field_value" : 538982489,
     "name" : "HAL_PIXEL_FORMAT_Y8"
    },
    {
     "enum_field_value" : 540422489,
     "name" : "HAL_PIXEL_FORMAT_Y16"
    },
    {
     "enum_field_value" : 842094169,
     "name" : "HAL_PIXEL_FORMAT_YV12"
    }
   ],
   "linker_set_key" : "android_pixel_format_t",
   "name" : "android_pixel_format_t",
   "referenced_type" : "type-1631",
   "self_type" : "type-1631",
   "size" : 4,
   "source_file" : "/system/core/libsystem/include/system/graphics-base-v1.0.h",
   "underlying_type" : "type-2",
   "unique_id" : "android_pixel_format_t"
  },
  {
   "alignment" : 4,
   "enum_fields" :
   [
    {
     "enum_field_value" : 48,
     "name" : "HAL_PIXEL_FORMAT_DEPTH_16"
    },
    {
     "enum_field_value" : 49,
     "name" : "HAL_PIXEL_FORMAT_DEPTH_24"
    },
    {
     "enum_field_value" : 50,
     "name" : "HAL_PIXEL_FORMAT_DEPTH_24_STENCIL_8"
    },
    {
     "enum_field_value" : 51,
     "name" : "HAL_PIXEL_FORMAT_DEPTH_32F"
    },
    {
     "enum_field_value" : 52,
     "name" : "HAL_PIXEL_FORMAT_DEPTH_32F_STENCIL_8"
    },
    {
     "enum_field_value" : 53,
     "name" : "HAL_PIXEL_FORMAT_STENCIL_8"
    },
    {
     "enum_field_value" : 54,
     "name" : "HAL_PIXEL_FORMAT_YCBCR_P010"
    }
   ],
   "linker_set_key" : "android_pixel_format_v1_1_t",
   "name" : "android_pixel_format_v1_1_t",
   "referenced_type" : "type-1648",
   "self_type" : "type-1648",
   "size" : 4,
   "source_file" : "/system/core/libsystem/include/system/graphics-base-v1.1.h",
   "underlying_type" : "type-2",
   "unique_id" : "android_pixel_format_v1_1_t"
  },
  {
   "alignment" : 4,
   "enum_fields" :
   [
    {
     "enum_field_value" : 55,
     "name" : "HAL_PIXEL_FORMAT_HSV_888"
    }
   ],
   "linker_set_key" : "android_pixel_format_v1_2_t",
   "name" : "android_pixel_format_v1_2_t",
   "referenced_type" : "type-1678",
   "self_type" : "type-1678",
   "size" : 4,
   "source_file" : "/system/core/libsystem/include/system/graphics-base-v1.2.h",
   "underlying_type" : "type-2",
   "unique_id" : "android_pixel_format_v1_2_t"
  },
  {
   "alignment" : 4,
   "enum_fields" :
   [
    {
     "enum_field_value" : 0,
     "name" : "HAL_RENDER_INTENT_COLORIMETRIC"
    },
    {
     "enum_field_value" : 1,
     "name" : "HAL_RENDER_INTENT_ENHANCE"
    },
    {
     "enum_field_value" : 2,
     "name" : "HAL_RENDER_INTENT_TONE_MAP_COLORIMETRIC"
    },
    {
     "enum_field_value" : 3,
     "name" : "HAL_RENDER_INTENT_TONE_MAP_ENHANCE"
    }
   ],
   "linker_set_key" : "android_render_intent_v1_1_t",
   "name" : "android_render_intent_v1_1_t",
   "referenced_type" : "type-1655",
   "self_type" : "type-1655",
   "size" : 4,
   "source_file" : "/system/core/libsystem/include/system/graphics-base-v1.1.h",
   "underlying_type" : "type-2",
   "unique_id" : "android_render_intent_v1_1_t"
  },
  {
   "alignment" : 4,
   "enum_fields" :
   [
    {
     "enum_field_value" : 1,
     "name" : "HAL_TRANSFORM_FLIP_H"
    },
    {
     "enum_field_value" : 2,
     "name" : "HAL_TRANSFORM_FLIP_V"
    },
    {
     "enum_field_value" : 4,
     "name" : "HAL_TRANSFORM_ROT_90"
    },
    {
     "enum_field_value" : 3,
     "name" : "HAL_TRANSFORM_ROT_180"
    },
    {
     "enum_field_value" : 7,
     "name" : "HAL_TRANSFORM_ROT_270"
    }
   ],
   "linker_set_key" : "android_transform_t",
   "name" : "android_transform_t",
   "referenced_type" : "type-1632",
   "self_type" : "type-1632",
   "size" : 4,
   "source_file" : "/system/core/libsystem/include/system/graphics-base-v1.0.h",
   "underlying_type" : "type-2",
   "unique_id" : "android_transform_t"
  },
  {
   "alignment" : 4,
   "enum_fields" :
   [
    {
     "enum_field_value" : 0,
     "name" : "LOG_ID_MIN"
    },
    {
     "enum_field_value" : 0,
     "name" : "LOG_ID_MAIN"
    },
    {
     "enum_field_value" : 1,
     "name" : "LOG_ID_RADIO"
    },
    {
     "enum_field_value" : 2,
     "name" : "LOG_ID_EVENTS"
    },
    {
     "enum_field_value" : 3,
     "name" : "LOG_ID_SYSTEM"
    },
    {
     "enum_field_value" : 4,
     "name" : "LOG_ID_CRASH"
    },
    {
     "enum_field_value" : 5,
     "name" : "LOG_ID_STATS"
    },
    {
     "enum_field_value" : 6,
     "name" : "LOG_ID_SECURITY"
    },
    {
     "enum_field_value" : 7,
     "name" : "LOG_ID_KERNEL"
    },
    {
     "enum_field_value" : 8,
     "name" : "LOG_ID_MAX"
    }
   ],
   "linker_set_key" : "log_id",
   "name" : "log_id",
   "referenced_type" : "type-669",
   "self_type" : "type-669",
   "size" : 4,
   "source_file" : "/system/core/liblog/include/android/log.h",
   "underlying_type" : "type-2",
   "unique_id" : "log_id"
  }
 ],
 "function_types" :
 [
  {
   "alignment" : 4,
   "linker_set_key" : "bool (const android::String16 &, const android::sp<android::hardware::IBinder> &, void *)",
   "name" : "bool (const android::String16 &, const android::sp<android::hardware::IBinder> &, void *)",
   "parameters" :
   [
    {
     "referenced_type" : "type-234"
    },
    {
     "referenced_type" : "type-240"
    },
    {
     "referenced_type" : "type-24"
    }
   ],
   "referenced_type" : "type-233",
   "return_type" : "type-29",
   "self_type" : "type-233",
   "source_file" : "/system/libhwbinder/include/hwbinder/ProcessState.h"
  },
  {
   "alignment" : 4,
   "linker_set_key" : "int (void *)",
   "name" : "int (void *)",
   "parameters" :
   [
    {
     "referenced_type" : "type-24"
    }
   ],
   "referenced_type" : "type-1717",
   "return_type" : "type-22",
   "self_type" : "type-1717",
   "source_file" : "/system/core/libutils/include/utils/AndroidThreads.h"
  },
  {
   "alignment" : 4,
   "linker_set_key" : "void (android::hardware::Parcel *, const unsigned char *, unsigned int, const unsigned long long *, unsigned int, void *)",
   "name" : "void (android::hardware::Parcel *, const unsigned char *, unsigned int, const unsigned long long *, unsigned int, void *)",
   "parameters" :
   [
    {
     "referenced_type" : "type-1487"
    },
    {
     "referenced_type" : "type-1249"
    },
    {
     "referenced_type" : "type-2"
    },
    {
     "referenced_type" : "type-1488"
    },
    {
     "referenced_type" : "type-2"
    },
    {
     "referenced_type" : "type-24"
    }
   ],
   "referenced_type" : "type-1486",
   "return_type" : "type-25",
   "self_type" : "type-1486",
   "source_file" : "/system/libhwbinder/include/hwbinder/Parcel.h"
  }
 ],
 "functions" :
 [
  {
   "function_name" : "android::hardware::fromBinder",
   "linker_set_key" : "_ZN7android8hardware10fromBinderINS0_5audio4V2_010IStreamOutENS3_13BpHwStreamOutENS3_13BnHwStreamOutEEENS_2spIT_EERKNS7_INS0_7IBinderEEE",
   "parameters" :
   [
    {
     "referenced_type" : "type-240"
    }
   ],
   "return_type" : "type-103",
   "source_file" : "/system/libhidl/transport/include/hidl/HidlBinderSupport.h",
   "template_args" : [ "type-105", "type-470", "type-1516" ]
  },
  {
   "function_name" : "android::hardware::fromBinder",
   "linker_set_key" : "_ZN7android8hardware10fromBinderINS0_5audio4V2_018IStreamOutCallbackENS3_21BpHwStreamOutCallbackENS3_21BnHwStreamOutCallbackEEENS_2spIT_EERKNS7_INS0_7IBinderEEE",
   "parameters" :
   [
    {
     "referenced_type" : "type-240"
    }
   ],
   "return_type" : "type-445",
   "source_file" : "/system/libhidl/transport/include/hidl/HidlBinderSupport.h",
   "template_args" : [ "type-447", "type-755", "type-1964" ]
  },
  {
   "function_name" : "android::hardware::fromBinder",
   "linker_set_key" : "_ZN7android8hardware10fromBinderINS0_5audio4V2_07IDeviceENS3_10BpHwDeviceENS3_10BnHwDeviceEEENS_2spIT_EERKNS7_INS0_7IBinderEEE",
   "parameters" :
   [
    {
     "referenced_type" : "type-240"
    }
   ],
   "return_type" : "type-17",
   "source_file" : "/system/libhidl/transport/include/hidl/HidlBinderSupport.h",
   "template_args" : [ "type-19", "type-88", "type-16" ]
  },
  {
   "function_name" : "android::hardware::fromBinder",
   "linker_set_key" : "_ZN7android8hardware10fromBinderINS0_5audio4V2_09IStreamInENS3_12BpHwStreamInENS3_12BnHwStreamInEEENS_2spIT_EERKNS7_INS0_7IBinderEEE",
   "parameters" :
   [
    {
     "referenced_type" : "type-240"
    }
   ],
   "return_type" : "type-132",
   "source_file" : "/system/libhidl/transport/include/hidl/HidlBinderSupport.h",
   "template_args" : [ "type-134", "type-398", "type-1517" ]
  },
  {
   "function_name" : "android::hardware::audio::V2_0::BnHwDevice::onTransact",
   "linker_set_key" : "_ZN7android8hardware5audio4V2_010BnHwDevice10onTransactEjRKNS0_6ParcelEPS4_jNSt3__18functionIFvRS4_EEE",
   "parameters" :
   [
    {
     "is_this_ptr" : true,
     "referenced_type" : "type-15"
    },
    {
     "referenced_type" : "type-2"
    },
    {
     "referenced_type" : "type-1503"
    },
    {
     "referenced_type" : "type-1487"
    },
    {
     "default_arg" : true,
     "referenced_type" : "type-2"
    },
    {
     "default_arg" : true,
     "referenced_type" : "type-1996"
    }
   ],
   "return_type" : "type-22",
   "source_file" : "/out/soong/.intermediates/hardware/interfaces/audio/2.0/android.hardware.audio@2.0_genc++_headers/gen/android/hardware/audio/2.0/BnHwDevice.h"
  },
  {
   "access" : "private",
   "function_name" : "android::hardware::audio::V2_0::BnHwDevice::getDebugInfo",
   "linker_set_key" : "_ZN7android8hardware5audio4V2_010BnHwDevice12getDebugInfoENSt3__18functionIFvRKNS_4hidl4base4V1_09DebugInfoEEEE",
   "parameters" :
   [
    {
     "is_this_ptr" : true,
     "referenced_type" : "type-15"
    },
    {
     "referenced_type" : "type-1997"
    }
   ],
   "return_type" : "type-707",
   "source_file" : "/out/soong/.intermediates/hardware/interfaces/audio/2.0/android.hardware.audio@2.0_genc++_headers/gen/android/hardware/audio/2.0/BnHwDevice.h"
  },
  {
   "function_name" : "android::hardware::audio::V2_0::BnHwDevice::_hidl_debugDump",
   "linker_set_key" : "_ZN7android8hardware5audio4V2_010BnHwDevice15_hidl_debugDumpEPNS_4hidl4base4V1_08BnHwBaseERKNS0_6ParcelEPS9_NSt3__18functionIFvRS9_EEE",
   "parameters" :
   [
    {
     "referenced_type" : "type-1507"
    },
    {
     "referenced_type" : "type-1503"
    },
    {
     "referenced_type" : "type-1487"
    },
    {
     "referenced_type" : "type-1998"
    }
   ],
   "return_type" : "type-22",
   "source_file" : "/out/soong/.intermediates/hardware/interfaces/audio/2.0/android.hardware.audio@2.0_genc++_headers/gen/android/hardware/audio/2.0/BnHwDevice.h"
  },
  {
   "function_name" : "android::hardware::audio::V2_0::BnHwDevice::_hidl_initCheck",
   "linker_set_key" : "_ZN7android8hardware5audio4V2_010BnHwDevice15_hidl_initCheckEPNS_4hidl4base4V1_08BnHwBaseERKNS0_6ParcelEPS9_NSt3__18functionIFvRS9_EEE",
   "parameters" :
   [
    {
     "referenced_type" : "type-1507"
    },
    {
     "referenced_type" : "type-1503"
    },
    {
     "referenced_type" : "type-1487"
    },
    {
     "referenced_type" : "type-1999"
    }
   ],
   "return_type" : "type-22",
   "source_file" : "/out/soong/.intermediates/hardware/interfaces/audio/2.0/android.hardware.audio@2.0_genc++_headers/gen/android/hardware/audio/2.0/BnHwDevice.h"
  },
  {
   "function_name" : "android::hardware::audio::V2_0::BnHwDevice::_hidl_getMicMute",
   "linker_set_key" : "_ZN7android8hardware5audio4V2_010BnHwDevice16_hidl_getMicMuteEPNS_4hidl4base4V1_08BnHwBaseERKNS0_6ParcelEPS9_NSt3__18functionIFvRS9_EEE",
   "parameters" :
   [
    {
     "referenced_type" : "type-1507"
    },
    {
     "referenced_type" : "type-1503"
    },
    {
     "referenced_type" : "type-1487"
    },
    {
     "referenced_type" : "type-2000"
    }
   ],
   "return_type" : "type-22",
   "source_file" : "/out/soong/.intermediates/hardware/interfaces/audio/2.0/android.hardware.audio@2.0_genc++_headers/gen/android/hardware/audio/2.0/BnHwDevice.h"
  },
  {
   "function_name" : "android::hardware::audio::V2_0::BnHwDevice::_hidl_setMicMute",
   "linker_set_key" : "_ZN7android8hardware5audio4V2_010BnHwDevice16_hidl_setMicMuteEPNS_4hidl4base4V1_08BnHwBaseERKNS0_6ParcelEPS9_NSt3__18functionIFvRS9_EEE",
   "parameters" :
   [
    {
     "referenced_type" : "type-1507"
    },
    {
     "referenced_type" : "type-1503"
    },
    {
     "referenced_type" : "type-1487"
    },
    {
     "referenced_type" : "type-2001"
    }
   ],
   "return_type" : "type-22",
   "source_file" : "/out/soong/.intermediates/hardware/interfaces/audio/2.0/android.hardware.audio@2.0_genc++_headers/gen/android/hardware/audio/2.0/BnHwDevice.h"
  },
  {
   "function_name" : "android::hardware::audio::V2_0::BnHwDevice::_hidl_getHwAvSync",
   "linker_set_key" : "_ZN7android8hardware5audio4V2_010BnHwDevice17_hidl_getHwAvSyncEPNS_4hidl4base4V1_08BnHwBaseERKNS0_6ParcelEPS9_NSt3__18functionIFvRS9_EEE",
   "parameters" :
   [
    {
     "referenced_type" : "type-1507"
    },
    {
     "referenced_type" : "type-1503"
    },
    {
     "referenced_type" : "type-1487"
    },
    {
     "referenced_type" : "type-2002"
    }
   ],
   "return_type" : "type-22",
   "source_file" : "/out/soong/.intermediates/hardware/interfaces/audio/2.0/android.hardware.audio@2.0_genc++_headers/gen/android/hardware/audio/2.0/BnHwDevice.h"
  },
  {
   "function_name" : "android::hardware::audio::V2_0::BnHwDevice::_hidl_getAudioPort",
   "linker_set_key" : "_ZN7android8hardware5audio4V2_010BnHwDevice18_hidl_getAudioPortEPNS_4hidl4base4V1_08BnHwBaseERKNS0_6ParcelEPS9_NSt3__18functionIFvRS9_EEE",
   "parameters" :
   [
    {
     "referenced_type" : "type-1507"
    },
    {
     "referenced_type" : "type-1503"
    },
    {
     "referenced_type" : "type-1487"
    },
    {
     "referenced_type" : "type-2003"
    }
   ],
   "return_type" : "type-22",
   "source_file" : "/out/soong/.intermediates/hardware/interfaces/audio/2.0/android.hardware.audio@2.0_genc++_headers/gen/android/hardware/audio/2.0/BnHwDevice.h"
  },
  {
   "function_name" : "android::hardware::audio::V2_0::BnHwDevice::_hidl_getMasterMute",
   "linker_set_key" : "_ZN7android8hardware5audio4V2_010BnHwDevice19_hidl_getMasterMuteEPNS_4hidl4base4V1_08BnHwBaseERKNS0_6ParcelEPS9_NSt3__18functionIFvRS9_EEE",
   "parameters" :
   [
    {
     "referenced_type" : "type-1507"
    },
    {
     "referenced_type" : "type-1503"
    },
    {
     "referenced_type" : "type-1487"
    },
    {
     "referenced_type" : "type-2004"
    }
   ],
   "return_type" : "type-22",
   "source_file" : "/out/soong/.intermediates/hardware/interfaces/audio/2.0/android.hardware.audio@2.0_genc++_headers/gen/android/hardware/audio/2.0/BnHwDevice.h"
  },
  {
   "function_name" : "android::hardware::audio::V2_0::BnHwDevice::_hidl_getParameters",
   "linker_set_key" : "_ZN7android8hardware5audio4V2_010BnHwDevice19_hidl_getParametersEPNS_4hidl4base4V1_08BnHwBaseERKNS0_6ParcelEPS9_NSt3__18functionIFvRS9_EEE",
   "parameters" :
   [
    {
     "referenced_type" : "type-1507"
    },
    {
     "referenced_type" : "type-1503"
    },
    {
     "referenced_type" : "type-1487"
    },
    {
     "referenced_type" : "type-2005"
    }
   ],
   "return_type" : "type-22",
   "source_file" : "/out/soong/.intermediates/hardware/interfaces/audio/2.0/android.hardware.audio@2.0_genc++_headers/gen/android/hardware/audio/2.0/BnHwDevice.h"
  },
  {
   "function_name" : "android::hardware::audio::V2_0::BnHwDevice::_hidl_setMasterMute",
   "linker_set_key" : "_ZN7android8hardware5audio4V2_010BnHwDevice19_hidl_setMasterMuteEPNS_4hidl4base4V1_08BnHwBaseERKNS0_6ParcelEPS9_NSt3__18functionIFvRS9_EEE",
   "parameters" :
   [
    {
     "referenced_type" : "type-1507"
    },
    {
     "referenced_type" : "type-1503"
    },
    {
     "referenced_type" : "type-1487"
    },
    {
     "referenced_type" : "type-2006"
    }
   ],
   "return_type" : "type-22",
   "source_file" : "/out/soong/.intermediates/hardware/interfaces/audio/2.0/android.hardware.audio@2.0_genc++_headers/gen/android/hardware/audio/2.0/BnHwDevice.h"
  },
  {
   "function_name" : "android::hardware::audio::V2_0::BnHwDevice::_hidl_setParameters",
   "linker_set_key" : "_ZN7android8hardware5audio4V2_010BnHwDevice19_hidl_setParametersEPNS_4hidl4base4V1_08BnHwBaseERKNS0_6ParcelEPS9_NSt3__18functionIFvRS9_EEE",
   "parameters" :
   [
    {
     "referenced_type" : "type-1507"
    },
    {
     "referenced_type" : "type-1503"
    },
    {
     "referenced_type" : "type-1487"
    },
    {
     "referenced_type" : "type-2007"
    }
   ],
   "return_type" : "type-22",
   "source_file" : "/out/soong/.intermediates/hardware/interfaces/audio/2.0/android.hardware.audio@2.0_genc++_headers/gen/android/hardware/audio/2.0/BnHwDevice.h"
  },
  {
   "function_name" : "android::hardware::audio::V2_0::BnHwDevice::_hidl_setScreenState",
   "linker_set_key" : "_ZN7android8hardware5audio4V2_010BnHwDevice20_hidl_setScreenStateEPNS_4hidl4base4V1_08BnHwBaseERKNS0_6ParcelEPS9_NSt3__18functionIFvRS9_EEE",
   "parameters" :
   [
    {
     "referenced_type" : "type-1507"
    },
    {
     "referenced_type" : "type-1503"
    },
    {
     "referenced_type" : "type-1487"
    },
    {
     "referenced_type" : "type-2008"
    }
   ],
   "return_type" : "type-22",
   "source_file" : "/out/soong/.intermediates/hardware/interfaces/audio/2.0/android.hardware.audio@2.0_genc++_headers/gen/android/hardware/audio/2.0/BnHwDevice.h"
  },
  {
   "function_name" : "android::hardware::audio::V2_0::BnHwDevice::_hidl_getMasterVolume",
   "linker_set_key" : "_ZN7android8hardware5audio4V2_010BnHwDevice21_hidl_getMasterVolumeEPNS_4hidl4base4V1_08BnHwBaseERKNS0_6ParcelEPS9_NSt3__18functionIFvRS9_EEE",
   "parameters" :
   [
    {
     "referenced_type" : "type-1507"
    },
    {
     "referenced_type" : "type-1503"
    },
    {
     "referenced_type" : "type-1487"
    },
    {
     "referenced_type" : "type-2009"
    }
   ],
   "return_type" : "type-22",
   "source_file" : "/out/soong/.intermediates/hardware/interfaces/audio/2.0/android.hardware.audio@2.0_genc++_headers/gen/android/hardware/audio/2.0/BnHwDevice.h"
  },
  {
   "function_name" : "android::hardware::audio::V2_0::BnHwDevice::_hidl_openInputStream",
   "linker_set_key" : "_ZN7android8hardware5audio4V2_010BnHwDevice21_hidl_openInputStreamEPNS_4hidl4base4V1_08BnHwBaseERKNS0_6ParcelEPS9_NSt3__18functionIFvRS9_EEE",
   "parameters" :
   [
    {
     "referenced_type" : "type-1507"
    },
    {
     "referenced_type" : "type-1503"
    },
    {
     "referenced_type" : "type-1487"
    },
    {
     "referenced_type" : "type-2010"
    }
   ],
   "return_type" : "type-22",
   "source_file" : "/out/soong/.intermediates/hardware/interfaces/audio/2.0/android.hardware.audio@2.0_genc++_headers/gen/android/hardware/audio/2.0/BnHwDevice.h"
  },
  {
   "function_name" : "android::hardware::audio::V2_0::BnHwDevice::_hidl_setMasterVolume",
   "linker_set_key" : "_ZN7android8hardware5audio4V2_010BnHwDevice21_hidl_setMasterVolumeEPNS_4hidl4base4V1_08BnHwBaseERKNS0_6ParcelEPS9_NSt3__18functionIFvRS9_EEE",
   "parameters" :
   [
    {
     "referenced_type" : "type-1507"
    },
    {
     "referenced_type" : "type-1503"
    },
    {
     "referenced_type" : "type-1487"
    },
    {
     "referenced_type" : "type-2011"
    }
   ],
   "return_type" : "type-22",
   "source_file" : "/out/soong/.intermediates/hardware/interfaces/audio/2.0/android.hardware.audio@2.0_genc++_headers/gen/android/hardware/audio/2.0/BnHwDevice.h"
  },
  {
   "function_name" : "android::hardware::audio::V2_0::BnHwDevice::_hidl_createAudioPatch",
   "linker_set_key" : "_ZN7android8hardware5audio4V2_010BnHwDevice22_hidl_createAudioPatchEPNS_4hidl4base4V1_08BnHwBaseERKNS0_6ParcelEPS9_NSt3__18functionIFvRS9_EEE",
   "parameters" :
   [
    {
     "referenced_type" : "type-1507"
    },
    {
     "referenced_type" : "type-1503"
    },
    {
     "referenced_type" : "type-1487"
    },
    {
     "referenced_type" : "type-2012"
    }
   ],
   "return_type" : "type-22",
   "source_file" : "/out/soong/.intermediates/hardware/interfaces/audio/2.0/android.hardware.audio@2.0_genc++_headers/gen/android/hardware/audio/2.0/BnHwDevice.h"
  },
  {
   "function_name" : "android::hardware::audio::V2_0::BnHwDevice::_hidl_openOutputStream",
   "linker_set_key" : "_ZN7android8hardware5audio4V2_010BnHwDevice22_hidl_openOutputStreamEPNS_4hidl4base4V1_08BnHwBaseERKNS0_6ParcelEPS9_NSt3__18functionIFvRS9_EEE",
   "parameters" :
   [
    {
     "referenced_type" : "type-1507"
    },
    {
     "referenced_type" : "type-1503"
    },
    {
     "referenced_type" : "type-1487"
    },
    {
     "referenced_type" : "type-2013"
    }
   ],
   "return_type" : "type-22",
   "source_file" : "/out/soong/.intermediates/hardware/interfaces/audio/2.0/android.hardware.audio@2.0_genc++_headers/gen/android/hardware/audio/2.0/BnHwDevice.h"
  },
  {
   "function_name" : "android::hardware::audio::V2_0::BnHwDevice::_hidl_releaseAudioPatch",
   "linker_set_key" : "_ZN7android8hardware5audio4V2_010BnHwDevice23_hidl_releaseAudioPatchEPNS_4hidl4base4V1_08BnHwBaseERKNS0_6ParcelEPS9_NSt3__18functionIFvRS9_EEE",
   "parameters" :
   [
    {
     "referenced_type" : "type-1507"
    },
    {
     "referenced_type" : "type-1503"
    },
    {
     "referenced_type" : "type-1487"
    },
    {
     "referenced_type" : "type-2014"
    }
   ],
   "return_type" : "type-22",
   "source_file" : "/out/soong/.intermediates/hardware/interfaces/audio/2.0/android.hardware.audio@2.0_genc++_headers/gen/android/hardware/audio/2.0/BnHwDevice.h"
  },
  {
   "function_name" : "android::hardware::audio::V2_0::BnHwDevice::_hidl_getInputBufferSize",
   "linker_set_key" : "_ZN7android8hardware5audio4V2_010BnHwDevice24_hidl_getInputBufferSizeEPNS_4hidl4base4V1_08BnHwBaseERKNS0_6ParcelEPS9_NSt3__18functionIFvRS9_EEE",
   "parameters" :
   [
    {
     "referenced_type" : "type-1507"
    },
    {
     "referenced_type" : "type-1503"
    },
    {
     "referenced_type" : "type-1487"
    },
    {
     "referenced_type" : "type-2015"
    }
   ],
   "return_type" : "type-22",
   "source_file" : "/out/soong/.intermediates/hardware/interfaces/audio/2.0/android.hardware.audio@2.0_genc++_headers/gen/android/hardware/audio/2.0/BnHwDevice.h"
  },
  {
   "function_name" : "android::hardware::audio::V2_0::BnHwDevice::_hidl_setAudioPortConfig",
   "linker_set_key" : "_ZN7android8hardware5audio4V2_010BnHwDevice24_hidl_setAudioPortConfigEPNS_4hidl4base4V1_08BnHwBaseERKNS0_6ParcelEPS9_NSt3__18functionIFvRS9_EEE",
   "parameters" :
   [
    {
     "referenced_type" : "type-1507"
    },
    {
     "referenced_type" : "type-1503"
    },
    {
     "referenced_type" : "type-1487"
    },
    {
     "referenced_type" : "type-2016"
    }
   ],
   "return_type" : "type-22",
   "source_file" : "/out/soong/.intermediates/hardware/interfaces/audio/2.0/android.hardware.audio@2.0_genc++_headers/gen/android/hardware/audio/2.0/BnHwDevice.h"
  },
  {
   "function_name" : "android::hardware::audio::V2_0::BnHwDevice::_hidl_supportsAudioPatches",
   "linker_set_key" : "_ZN7android8hardware5audio4V2_010BnHwDevice26_hidl_supportsAudioPatchesEPNS_4hidl4base4V1_08BnHwBaseERKNS0_6ParcelEPS9_NSt3__18functionIFvRS9_EEE",
   "parameters" :
   [
    {
     "referenced_type" : "type-1507"
    },
    {
     "referenced_type" : "type-1503"
    },
    {
     "referenced_type" : "type-1487"
    },
    {
     "referenced_type" : "type-2017"
    }
   ],
   "return_type" : "type-22",
   "source_file" : "/out/soong/.intermediates/hardware/interfaces/audio/2.0/android.hardware.audio@2.0_genc++_headers/gen/android/hardware/audio/2.0/BnHwDevice.h"
  },
  {
   "access" : "private",
   "function_name" : "android::hardware::audio::V2_0::BnHwDevice::ping",
   "linker_set_key" : "_ZN7android8hardware5audio4V2_010BnHwDevice4pingEv",
   "parameters" :
   [
    {
     "is_this_ptr" : true,
     "referenced_type" : "type-15"
    }
   ],
   "return_type" : "type-707",
   "source_file" : "/out/soong/.intermediates/hardware/interfaces/audio/2.0/android.hardware.audio@2.0_genc++_headers/gen/android/hardware/audio/2.0/BnHwDevice.h"
  },
  {
   "function_name" : "android::hardware::audio::V2_0::BnHwDevice::BnHwDevice",
   "linker_set_key" : "_ZN7android8hardware5audio4V2_010BnHwDeviceC1ERKNS_2spINS2_7IDeviceEEE",
   "parameters" :
   [
    {
     "is_this_ptr" : true,
     "referenced_type" : "type-15"
    },
    {
     "referenced_type" : "type-1743"
    }
   ],
   "return_type" : "type-25",
   "source_file" : "/out/soong/.intermediates/hardware/interfaces/audio/2.0/android.hardware.audio@2.0_genc++_headers/gen/android/hardware/audio/2.0/BnHwDevice.h"
  },
  {
   "function_name" : "android::hardware::audio::V2_0::BnHwDevice::BnHwDevice",
   "linker_set_key" : "_ZN7android8hardware5audio4V2_010BnHwDeviceC2ERKNS_2spINS2_7IDeviceEEE",
   "parameters" :
   [
    {
     "is_this_ptr" : true,
     "referenced_type" : "type-15"
    },
    {
     "referenced_type" : "type-1743"
    }
   ],
   "return_type" : "type-25",
   "source_file" : "/out/soong/.intermediates/hardware/interfaces/audio/2.0/android.hardware.audio@2.0_genc++_headers/gen/android/hardware/audio/2.0/BnHwDevice.h"
  },
  {
   "function_name" : "android::hardware::audio::V2_0::BnHwDevice::~BnHwDevice",
   "linker_set_key" : "_ZN7android8hardware5audio4V2_010BnHwDeviceD0Ev",
   "parameters" :
   [
    {
     "is_this_ptr" : true,
     "referenced_type" : "type-15"
    }
   ],
   "return_type" : "type-25",
   "source_file" : "/out/soong/.intermediates/hardware/interfaces/audio/2.0/android.hardware.audio@2.0_genc++_headers/gen/android/hardware/audio/2.0/BnHwDevice.h"
  },
  {
   "function_name" : "android::hardware::audio::V2_0::BnHwDevice::~BnHwDevice",
   "linker_set_key" : "_ZN7android8hardware5audio4V2_010BnHwDeviceD1Ev",
   "parameters" :
   [
    {
     "is_this_ptr" : true,
     "referenced_type" : "type-15"
    }
   ],
   "return_type" : "type-25",
   "source_file" : "/out/soong/.intermediates/hardware/interfaces/audio/2.0/android.hardware.audio@2.0_genc++_headers/gen/android/hardware/audio/2.0/BnHwDevice.h"
  },
  {
   "function_name" : "android::hardware::audio::V2_0::BnHwDevice::~BnHwDevice",
   "linker_set_key" : "_ZN7android8hardware5audio4V2_010BnHwDeviceD2Ev",
   "parameters" :
   [
    {
     "is_this_ptr" : true,
     "referenced_type" : "type-15"
    }
   ],
   "return_type" : "type-25",
   "source_file" : "/out/soong/.intermediates/hardware/interfaces/audio/2.0/android.hardware.audio@2.0_genc++_headers/gen/android/hardware/audio/2.0/BnHwDevice.h"
  },
  {
   "function_name" : "android::hardware::audio::V2_0::BnHwStream::_hidl_stop",
   "linker_set_key" : "_ZN7android8hardware5audio4V2_010BnHwStream10_hidl_stopEPNS_4hidl4base4V1_08BnHwBaseERKNS0_6ParcelEPS9_NSt3__18functionIFvRS9_EEE",
   "parameters" :
   [
    {
     "referenced_type" : "type-1507"
    },
    {
     "referenced_type" : "type-1503"
    },
    {
     "referenced_type" : "type-1487"
    },
    {
     "referenced_type" : "type-2018"
    }
   ],
   "return_type" : "type-22",
   "source_file" : "/out/soong/.intermediates/hardware/interfaces/audio/2.0/android.hardware.audio@2.0_genc++_headers/gen/android/hardware/audio/2.0/BnHwStream.h"
  },
  {
   "function_name" : "android::hardware::audio::V2_0::BnHwStream::onTransact",
   "linker_set_key" : "_ZN7android8hardware5audio4V2_010BnHwStream10onTransactEjRKNS0_6ParcelEPS4_jNSt3__18functionIFvRS4_EEE",
   "parameters" :
   [
    {
     "is_this_ptr" : true,
     "referenced_type" : "type-1956"
    },
    {
     "referenced_type" : "type-2"
    },
    {
     "referenced_type" : "type-1503"
    },
    {
     "referenced_type" : "type-1487"
    },
    {
     "default_arg" : true,
     "referenced_type" : "type-2"
    },
    {
     "default_arg" : true,
     "referenced_type" : "type-2019"
    }
   ],
   "return_type" : "type-22",
   "source_file" : "/out/soong/.intermediates/hardware/interfaces/audio/2.0/android.hardware.audio@2.0_genc++_headers/gen/android/hardware/audio/2.0/BnHwStream.h"
  },
  {
   "function_name" : "android::hardware::audio::V2_0::BnHwStream::_hidl_close",
   "linker_set_key" : "_ZN7android8hardware5audio4V2_010BnHwStream11_hidl_closeEPNS_4hidl4base4V1_08BnHwBaseERKNS0_6ParcelEPS9_NSt3__18functionIFvRS9_EEE",
   "parameters" :
   [
    {
     "referenced_type" : "type-1507"
    },
    {
     "referenced_type" : "type-1503"
    },
    {
     "referenced_type" : "type-1487"
    },
    {
     "referenced_type" : "type-2020"
    }
   ],
   "return_type" : "type-22",
   "source_file" : "/out/soong/.intermediates/hardware/interfaces/audio/2.0/android.hardware.audio@2.0_genc++_headers/gen/android/hardware/audio/2.0/BnHwStream.h"
  },
  {
   "function_name" : "android::hardware::audio::V2_0::BnHwStream::_hidl_start",
   "linker_set_key" : "_ZN7android8hardware5audio4V2_010BnHwStream11_hidl_startEPNS_4hidl4base4V1_08BnHwBaseERKNS0_6ParcelEPS9_NSt3__18functionIFvRS9_EEE",
   "parameters" :
   [
    {
     "referenced_type" : "type-1507"
    },
    {
     "referenced_type" : "type-1503"
    },
    {
     "referenced_type" : "type-1487"
    },
    {
     "referenced_type" : "type-2021"
    }
   ],
   "return_type" : "type-22",
   "source_file" : "/out/soong/.intermediates/hardware/interfaces/audio/2.0/android.hardware.audio@2.0_genc++_headers/gen/android/hardware/audio/2.0/BnHwStream.h"
  },
  {
   "access" : "private",
   "function_name" : "android::hardware::audio::V2_0::BnHwStream::getDebugInfo",
   "linker_set_key" : "_ZN7android8hardware5audio4V2_010BnHwStream12getDebugInfoENSt3__18functionIFvRKNS_4hidl4base4V1_09DebugInfoEEEE",
   "parameters" :
   [
    {
     "is_this_ptr" : true,
     "referenced_type" : "type-1956"
    },
    {
     "referenced_type" : "type-2022"
    }
   ],
   "return_type" : "type-707",
   "source_file" : "/out/soong/.intermediates/hardware/interfaces/audio/2.0/android.hardware.audio@2.0_genc++_headers/gen/android/hardware/audio/2.0/BnHwStream.h"
  },
  {
   "function_name" : "android::hardware::audio::V2_0::BnHwStream::_hidl_standby",
   "linker_set_key" : "_ZN7android8hardware5audio4V2_010BnHwStream13_hidl_standbyEPNS_4hidl4base4V1_08BnHwBaseERKNS0_6ParcelEPS9_NSt3__18functionIFvRS9_EEE",
   "parameters" :
   [
    {
     "referenced_type" : "type-1507"
    },
    {
     "referenced_type" : "type-1503"
    },
    {
     "referenced_type" : "type-1487"
    },
    {
     "referenced_type" : "type-2023"
    }
   ],
   "return_type" : "type-22",
   "source_file" : "/out/soong/.intermediates/hardware/interfaces/audio/2.0/android.hardware.audio@2.0_genc++_headers/gen/android/hardware/audio/2.0/BnHwStream.h"
  },
  {
   "function_name" : "android::hardware::audio::V2_0::BnHwStream::_hidl_addEffect",
   "linker_set_key" : "_ZN7android8hardware5audio4V2_010BnHwStream15_hidl_addEffectEPNS_4hidl4base4V1_08BnHwBaseERKNS0_6ParcelEPS9_NSt3__18functionIFvRS9_EEE",
   "parameters" :
   [
    {
     "referenced_type" : "type-1507"
    },
    {
     "referenced_type" : "type-1503"
    },
    {
     "referenced_type" : "type-1487"
    },
    {
     "referenced_type" : "type-2024"
    }
   ],
   "return_type" : "type-22",
   "source_file" : "/out/soong/.intermediates/hardware/interfaces/audio/2.0/android.hardware.audio@2.0_genc++_headers/gen/android/hardware/audio/2.0/BnHwStream.h"
  },
  {
   "function_name" : "android::hardware::audio::V2_0::BnHwStream::_hidl_debugDump",
   "linker_set_key" : "_ZN7android8hardware5audio4V2_010BnHwStream15_hidl_debugDumpEPNS_4hidl4base4V1_08BnHwBaseERKNS0_6ParcelEPS9_NSt3__18functionIFvRS9_EEE",
   "parameters" :
   [
    {
     "referenced_type" : "type-1507"
    },
    {
     "referenced_type" : "type-1503"
    },
    {
     "referenced_type" : "type-1487"
    },
    {
     "referenced_type" : "type-2025"
    }
   ],
   "return_type" : "type-22",
   "source_file" : "/out/soong/.intermediates/hardware/interfaces/audio/2.0/android.hardware.audio@2.0_genc++_headers/gen/android/hardware/audio/2.0/BnHwStream.h"
  },
  {
   "function_name" : "android::hardware::audio::V2_0::BnHwStream::_hidl_getDevice",
   "linker_set_key" : "_ZN7android8hardware5audio4V2_010BnHwStream15_hidl_getDeviceEPNS_4hidl4base4V1_08BnHwBaseERKNS0_6ParcelEPS9_NSt3__18functionIFvRS9_EEE",
   "parameters" :
   [
    {
     "referenced_type" : "type-1507"
    },
    {
     "referenced_type" : "type-1503"
    },
    {
     "referenced_type" : "type-1487"
    },
    {
     "referenced_type" : "type-2026"
    }
   ],
   "return_type" : "type-22",
   "source_file" : "/out/soong/.intermediates/hardware/interfaces/audio/2.0/android.hardware.audio@2.0_genc++_headers/gen/android/hardware/audio/2.0/BnHwStream.h"
  },
  {
   "function_name" : "android::hardware::audio::V2_0::BnHwStream::_hidl_getFormat",
   "linker_set_key" : "_ZN7android8hardware5audio4V2_010BnHwStream15_hidl_getFormatEPNS_4hidl4base4V1_08BnHwBaseERKNS0_6ParcelEPS9_NSt3__18functionIFvRS9_EEE",
   "parameters" :
   [
    {
     "referenced_type" : "type-1507"
    },
    {
     "referenced_type" : "type-1503"
    },
    {
     "referenced_type" : "type-1487"
    },
    {
     "referenced_type" : "type-2027"
    }
   ],
   "return_type" : "type-22",
   "source_file" : "/out/soong/.intermediates/hardware/interfaces/audio/2.0/android.hardware.audio@2.0_genc++_headers/gen/android/hardware/audio/2.0/BnHwStream.h"
  },
  {
   "function_name" : "android::hardware::audio::V2_0::BnHwStream::_hidl_setDevice",
   "linker_set_key" : "_ZN7android8hardware5audio4V2_010BnHwStream15_hidl_setDeviceEPNS_4hidl4base4V1_08BnHwBaseERKNS0_6ParcelEPS9_NSt3__18functionIFvRS9_EEE",
   "parameters" :
   [
    {
     "referenced_type" : "type-1507"
    },
    {
     "referenced_type" : "type-1503"
    },
    {
     "referenced_type" : "type-1487"
    },
    {
     "referenced_type" : "type-2028"
    }
   ],
   "return_type" : "type-22",
   "source_file" : "/out/soong/.intermediates/hardware/interfaces/audio/2.0/android.hardware.audio@2.0_genc++_headers/gen/android/hardware/audio/2.0/BnHwStream.h"
  },
  {
   "function_name" : "android::hardware::audio::V2_0::BnHwStream::_hidl_setFormat",
   "linker_set_key" : "_ZN7android8hardware5audio4V2_010BnHwStream15_hidl_setFormatEPNS_4hidl4base4V1_08BnHwBaseERKNS0_6ParcelEPS9_NSt3__18functionIFvRS9_EEE",
   "parameters" :
   [
    {
     "referenced_type" : "type-1507"
    },
    {
     "referenced_type" : "type-1503"
    },
    {
     "referenced_type" : "type-1487"
    },
    {
     "referenced_type" : "type-2029"
    }
   ],
   "return_type" : "type-22",
   "source_file" : "/out/soong/.intermediates/hardware/interfaces/audio/2.0/android.hardware.audio@2.0_genc++_headers/gen/android/hardware/audio/2.0/BnHwStream.h"
  },
  {
   "function_name" : "android::hardware::audio::V2_0::BnHwStream::_hidl_setHwAvSync",
   "linker_set_key" : "_ZN7android8hardware5audio4V2_010BnHwStream17_hidl_setHwAvSyncEPNS_4hidl4base4V1_08BnHwBaseERKNS0_6ParcelEPS9_NSt3__18functionIFvRS9_EEE",
   "parameters" :
   [
    {
     "referenced_type" : "type-1507"
    },
    {
     "referenced_type" : "type-1503"
    },
    {
     "referenced_type" : "type-1487"
    },
    {
     "referenced_type" : "type-2030"
    }
   ],
   "return_type" : "type-22",
   "source_file" : "/out/soong/.intermediates/hardware/interfaces/audio/2.0/android.hardware.audio@2.0_genc++_headers/gen/android/hardware/audio/2.0/BnHwStream.h"
  },
  {
   "function_name" : "android::hardware::audio::V2_0::BnHwStream::_hidl_getFrameSize",
   "linker_set_key" : "_ZN7android8hardware5audio4V2_010BnHwStream18_hidl_getFrameSizeEPNS_4hidl4base4V1_08BnHwBaseERKNS0_6ParcelEPS9_NSt3__18functionIFvRS9_EEE",
   "parameters" :
   [
    {
     "referenced_type" : "type-1507"
    },
    {
     "referenced_type" : "type-1503"
    },
    {
     "referenced_type" : "type-1487"
    },
    {
     "referenced_type" : "type-2031"
    }
   ],
   "return_type" : "type-22",
   "source_file" : "/out/soong/.intermediates/hardware/interfaces/audio/2.0/android.hardware.audio@2.0_genc++_headers/gen/android/hardware/audio/2.0/BnHwStream.h"
  },
  {
   "function_name" : "android::hardware::audio::V2_0::BnHwStream::_hidl_removeEffect",
   "linker_set_key" : "_ZN7android8hardware5audio4V2_010BnHwStream18_hidl_removeEffectEPNS_4hidl4base4V1_08BnHwBaseERKNS0_6ParcelEPS9_NSt3__18functionIFvRS9_EEE",
   "parameters" :
   [
    {
     "referenced_type" : "type-1507"
    },
    {
     "referenced_type" : "type-1503"
    },
    {
     "referenced_type" : "type-1487"
    },
    {
     "referenced_type" : "type-2032"
    }
   ],
   "return_type" : "type-22",
   "source_file" : "/out/soong/.intermediates/hardware/interfaces/audio/2.0/android.hardware.audio@2.0_genc++_headers/gen/android/hardware/audio/2.0/BnHwStream.h"
  },
  {
   "function_name" : "android::hardware::audio::V2_0::BnHwStream::_hidl_getBufferSize",
   "linker_set_key" : "_ZN7android8hardware5audio4V2_010BnHwStream19_hidl_getBufferSizeEPNS_4hidl4base4V1_08BnHwBaseERKNS0_6ParcelEPS9_NSt3__18functionIFvRS9_EEE",
   "parameters" :
   [
    {
     "referenced_type" : "type-1507"
    },
    {
     "referenced_type" : "type-1503"
    },
    {
     "referenced_type" : "type-1487"
    },
    {
     "referenced_type" : "type-2033"
    }
   ],
   "return_type" : "type-22",
   "source_file" : "/out/soong/.intermediates/hardware/interfaces/audio/2.0/android.hardware.audio@2.0_genc++_headers/gen/android/hardware/audio/2.0/BnHwStream.h"
  },
  {
   "function_name" : "android::hardware::audio::V2_0::BnHwStream::_hidl_getFrameCount",
   "linker_set_key" : "_ZN7android8hardware5audio4V2_010BnHwStream19_hidl_getFrameCountEPNS_4hidl4base4V1_08BnHwBaseERKNS0_6ParcelEPS9_NSt3__18functionIFvRS9_EEE",
   "parameters" :
   [
    {
     "referenced_type" : "type-1507"
    },
    {
     "referenced_type" : "type-1503"
    },
    {
     "referenced_type" : "type-1487"
    },
    {
     "referenced_type" : "type-2034"
    }
   ],
   "return_type" : "type-22",
   "source_file" : "/out/soong/.intermediates/hardware/interfaces/audio/2.0/android.hardware.audio@2.0_genc++_headers/gen/android/hardware/audio/2.0/BnHwStream.h"
  },
  {
   "function_name" : "android::hardware::audio::V2_0::BnHwStream::_hidl_getParameters",
   "linker_set_key" : "_ZN7android8hardware5audio4V2_010BnHwStream19_hidl_getParametersEPNS_4hidl4base4V1_08BnHwBaseERKNS0_6ParcelEPS9_NSt3__18functionIFvRS9_EEE",
   "parameters" :
   [
    {
     "referenced_type" : "type-1507"
    },
    {
     "referenced_type" : "type-1503"
    },
    {
     "referenced_type" : "type-1487"
    },
    {
     "referenced_type" : "type-2035"
    }
   ],
   "return_type" : "type-22",
   "source_file" : "/out/soong/.intermediates/hardware/interfaces/audio/2.0/android.hardware.audio@2.0_genc++_headers/gen/android/hardware/audio/2.0/BnHwStream.h"
  },
  {
   "function_name" : "android::hardware::audio::V2_0::BnHwStream::_hidl_getSampleRate",
   "linker_set_key" : "_ZN7android8hardware5audio4V2_010BnHwStream19_hidl_getSampleRateEPNS_4hidl4base4V1_08BnHwBaseERKNS0_6ParcelEPS9_NSt3__18functionIFvRS9_EEE",
   "parameters" :
   [
    {
     "referenced_type" : "type-1507"
    },
    {
     "referenced_type" : "type-1503"
    },
    {
     "referenced_type" : "type-1487"
    },
    {
     "referenced_type" : "type-2036"
    }
   ],
   "return_type" : "type-22",
   "source_file" : "/out/soong/.intermediates/hardware/interfaces/audio/2.0/android.hardware.audio@2.0_genc++_headers/gen/android/hardware/audio/2.0/BnHwStream.h"
  },
  {
   "function_name" : "android::hardware::audio::V2_0::BnHwStream::_hidl_setParameters",
   "linker_set_key" : "_ZN7android8hardware5audio4V2_010BnHwStream19_hidl_setParametersEPNS_4hidl4base4V1_08BnHwBaseERKNS0_6ParcelEPS9_NSt3__18functionIFvRS9_EEE",
   "parameters" :
   [
    {
     "referenced_type" : "type-1507"
    },
    {
     "referenced_type" : "type-1503"
    },
    {
     "referenced_type" : "type-1487"
    },
    {
     "referenced_type" : "type-2037"
    }
   ],
   "return_type" : "type-22",
   "source_file" : "/out/soong/.intermediates/hardware/interfaces/audio/2.0/android.hardware.audio@2.0_genc++_headers/gen/android/hardware/audio/2.0/BnHwStream.h"
  },
  {
   "function_name" : "android::hardware::audio::V2_0::BnHwStream::_hidl_setSampleRate",
   "linker_set_key" : "_ZN7android8hardware5audio4V2_010BnHwStream19_hidl_setSampleRateEPNS_4hidl4base4V1_08BnHwBaseERKNS0_6ParcelEPS9_NSt3__18functionIFvRS9_EEE",
   "parameters" :
   [
    {
     "referenced_type" : "type-1507"
    },
    {
     "referenced_type" : "type-1503"
    },
    {
     "referenced_type" : "type-1487"
    },
    {
     "referenced_type" : "type-2038"
    }
   ],
   "return_type" : "type-22",
   "source_file" : "/out/soong/.intermediates/hardware/interfaces/audio/2.0/android.hardware.audio@2.0_genc++_headers/gen/android/hardware/audio/2.0/BnHwStream.h"
  },
  {
   "function_name" : "android::hardware::audio::V2_0::BnHwStream::_hidl_getChannelMask",
   "linker_set_key" : "_ZN7android8hardware5audio4V2_010BnHwStream20_hidl_getChannelMaskEPNS_4hidl4base4V1_08BnHwBaseERKNS0_6ParcelEPS9_NSt3__18functionIFvRS9_EEE",
   "parameters" :
   [
    {
     "referenced_type" : "type-1507"
    },
    {
     "referenced_type" : "type-1503"
    },
    {
     "referenced_type" : "type-1487"
    },
    {
     "referenced_type" : "type-2039"
    }
   ],
   "return_type" : "type-22",
   "source_file" : "/out/soong/.intermediates/hardware/interfaces/audio/2.0/android.hardware.audio@2.0_genc++_headers/gen/android/hardware/audio/2.0/BnHwStream.h"
  },
  {
   "function_name" : "android::hardware::audio::V2_0::BnHwStream::_hidl_setChannelMask",
   "linker_set_key" : "_ZN7android8hardware5audio4V2_010BnHwStream20_hidl_setChannelMaskEPNS_4hidl4base4V1_08BnHwBaseERKNS0_6ParcelEPS9_NSt3__18functionIFvRS9_EEE",
   "parameters" :
   [
    {
     "referenced_type" : "type-1507"
    },
    {
     "referenced_type" : "type-1503"
    },
    {
     "referenced_type" : "type-1487"
    },
    {
     "referenced_type" : "type-2040"
    }
   ],
   "return_type" : "type-22",
   "source_file" : "/out/soong/.intermediates/hardware/interfaces/audio/2.0/android.hardware.audio@2.0_genc++_headers/gen/android/hardware/audio/2.0/BnHwStream.h"
  },
  {
   "function_name" : "android::hardware::audio::V2_0::BnHwStream::_hidl_getMmapPosition",
   "linker_set_key" : "_ZN7android8hardware5audio4V2_010BnHwStream21_hidl_getMmapPositionEPNS_4hidl4base4V1_08BnHwBaseERKNS0_6ParcelEPS9_NSt3__18functionIFvRS9_EEE",
   "parameters" :
   [
    {
     "referenced_type" : "type-1507"
    },
    {
     "referenced_type" : "type-1503"
    },
    {
     "referenced_type" : "type-1487"
    },
    {
     "referenced_type" : "type-2041"
    }
   ],
   "return_type" : "type-22",
   "source_file" : "/out/soong/.intermediates/hardware/interfaces/audio/2.0/android.hardware.audio@2.0_genc++_headers/gen/android/hardware/audio/2.0/BnHwStream.h"
  },
  {
   "function_name" : "android::hardware::audio::V2_0::BnHwStream::_hidl_createMmapBuffer",
   "linker_set_key" : "_ZN7android8hardware5audio4V2_010BnHwStream22_hidl_createMmapBufferEPNS_4hidl4base4V1_08BnHwBaseERKNS0_6ParcelEPS9_NSt3__18functionIFvRS9_EEE",
   "parameters" :
   [
    {
     "referenced_type" : "type-1507"
    },
    {
     "referenced_type" : "type-1503"
    },
    {
     "referenced_type" : "type-1487"
    },
    {
     "referenced_type" : "type-2042"
    }
   ],
   "return_type" : "type-22",
   "source_file" : "/out/soong/.intermediates/hardware/interfaces/audio/2.0/android.hardware.audio@2.0_genc++_headers/gen/android/hardware/audio/2.0/BnHwStream.h"
  },
  {
   "function_name" : "android::hardware::audio::V2_0::BnHwStream::_hidl_setConnectedState",
   "linker_set_key" : "_ZN7android8hardware5audio4V2_010BnHwStream23_hidl_setConnectedStateEPNS_4hidl4base4V1_08BnHwBaseERKNS0_6ParcelEPS9_NSt3__18functionIFvRS9_EEE",
   "parameters" :
   [
    {
     "referenced_type" : "type-1507"
    },
    {
     "referenced_type" : "type-1503"
    },
    {
     "referenced_type" : "type-1487"
    },
    {
     "referenced_type" : "type-2043"
    }
   ],
   "return_type" : "type-22",
   "source_file" : "/out/soong/.intermediates/hardware/interfaces/audio/2.0/android.hardware.audio@2.0_genc++_headers/gen/android/hardware/audio/2.0/BnHwStream.h"
  },
  {
   "function_name" : "android::hardware::audio::V2_0::BnHwStream::_hidl_getAudioProperties",
   "linker_set_key" : "_ZN7android8hardware5audio4V2_010BnHwStream24_hidl_getAudioPropertiesEPNS_4hidl4base4V1_08BnHwBaseERKNS0_6ParcelEPS9_NSt3__18functionIFvRS9_EEE",
   "parameters" :
   [
    {
     "referenced_type" : "type-1507"
    },
    {
     "referenced_type" : "type-1503"
    },
    {
     "referenced_type" : "type-1487"
    },
    {
     "referenced_type" : "type-2044"
    }
   ],
   "return_type" : "type-22",
   "source_file" : "/out/soong/.intermediates/hardware/interfaces/audio/2.0/android.hardware.audio@2.0_genc++_headers/gen/android/hardware/audio/2.0/BnHwStream.h"
  },
  {
   "function_name" : "android::hardware::audio::V2_0::BnHwStream::_hidl_getSupportedFormats",
   "linker_set_key" : "_ZN7android8hardware5audio4V2_010BnHwStream25_hidl_getSupportedFormatsEPNS_4hidl4base4V1_08BnHwBaseERKNS0_6ParcelEPS9_NSt3__18functionIFvRS9_EEE",
   "parameters" :
   [
    {
     "referenced_type" : "type-1507"
    },
    {
     "referenced_type" : "type-1503"
    },
    {
     "referenced_type" : "type-1487"
    },
    {
     "referenced_type" : "type-2045"
    }
   ],
   "return_type" : "type-22",
   "source_file" : "/out/soong/.intermediates/hardware/interfaces/audio/2.0/android.hardware.audio@2.0_genc++_headers/gen/android/hardware/audio/2.0/BnHwStream.h"
  },
  {
   "function_name" : "android::hardware::audio::V2_0::BnHwStream::_hidl_getSupportedSampleRates",
   "linker_set_key" : "_ZN7android8hardware5audio4V2_010BnHwStream29_hidl_getSupportedSampleRatesEPNS_4hidl4base4V1_08BnHwBaseERKNS0_6ParcelEPS9_NSt3__18functionIFvRS9_EEE",
   "parameters" :
   [
    {
     "referenced_type" : "type-1507"
    },
    {
     "referenced_type" : "type-1503"
    },
    {
     "referenced_type" : "type-1487"
    },
    {
     "referenced_type" : "type-2046"
    }
   ],
   "return_type" : "type-22",
   "source_file" : "/out/soong/.intermediates/hardware/interfaces/audio/2.0/android.hardware.audio@2.0_genc++_headers/gen/android/hardware/audio/2.0/BnHwStream.h"
  },
  {
   "function_name" : "android::hardware::audio::V2_0::BnHwStream::_hidl_getSupportedChannelMasks",
   "linker_set_key" : "_ZN7android8hardware5audio4V2_010BnHwStream30_hidl_getSupportedChannelMasksEPNS_4hidl4base4V1_08BnHwBaseERKNS0_6ParcelEPS9_NSt3__18functionIFvRS9_EEE",
   "parameters" :
   [
    {
     "referenced_type" : "type-1507"
    },
    {
     "referenced_type" : "type-1503"
    },
    {
     "referenced_type" : "type-1487"
    },
    {
     "referenced_type" : "type-2047"
    }
   ],
   "return_type" : "type-22",
   "source_file" : "/out/soong/.intermediates/hardware/interfaces/audio/2.0/android.hardware.audio@2.0_genc++_headers/gen/android/hardware/audio/2.0/BnHwStream.h"
  },
  {
   "access" : "private",
   "function_name" : "android::hardware::audio::V2_0::BnHwStream::ping",
   "linker_set_key" : "_ZN7android8hardware5audio4V2_010BnHwStream4pingEv",
   "parameters" :
   [
    {
     "is_this_ptr" : true,
     "referenced_type" : "type-1956"
    }
   ],
   "return_type" : "type-707",
   "source_file" : "/out/soong/.intermediates/hardware/interfaces/audio/2.0/android.hardware.audio@2.0_genc++_headers/gen/android/hardware/audio/2.0/BnHwStream.h"
  },
  {
   "function_name" : "android::hardware::audio::V2_0::BnHwStream::BnHwStream",
   "linker_set_key" : "_ZN7android8hardware5audio4V2_010BnHwStreamC1ERKNS_2spINS2_7IStreamEEE",
   "parameters" :
   [
    {
     "is_this_ptr" : true,
     "referenced_type" : "type-1956"
    },
    {
     "referenced_type" : "type-392"
    }
   ],
   "return_type" : "type-25",
   "source_file" : "/out/soong/.intermediates/hardware/interfaces/audio/2.0/android.hardware.audio@2.0_genc++_headers/gen/android/hardware/audio/2.0/BnHwStream.h"
  },
  {
   "function_name" : "android::hardware::audio::V2_0::BnHwStream::BnHwStream",
   "linker_set_key" : "_ZN7android8hardware5audio4V2_010BnHwStreamC2ERKNS_2spINS2_7IStreamEEE",
   "parameters" :
   [
    {
     "is_this_ptr" : true,
     "referenced_type" : "type-1956"
    },
    {
     "referenced_type" : "type-392"
    }
   ],
   "return_type" : "type-25",
   "source_file" : "/out/soong/.intermediates/hardware/interfaces/audio/2.0/android.hardware.audio@2.0_genc++_headers/gen/android/hardware/audio/2.0/BnHwStream.h"
  },
  {
   "function_name" : "android::hardware::audio::V2_0::BnHwStream::~BnHwStream",
   "linker_set_key" : "_ZN7android8hardware5audio4V2_010BnHwStreamD0Ev",
   "parameters" :
   [
    {
     "is_this_ptr" : true,
     "referenced_type" : "type-1956"
    }
   ],
   "return_type" : "type-25",
   "source_file" : "/out/soong/.intermediates/hardware/interfaces/audio/2.0/android.hardware.audio@2.0_genc++_headers/gen/android/hardware/audio/2.0/BnHwStream.h"
  },
  {
   "function_name" : "android::hardware::audio::V2_0::BnHwStream::~BnHwStream",
   "linker_set_key" : "_ZN7android8hardware5audio4V2_010BnHwStreamD1Ev",
   "parameters" :
   [
    {
     "is_this_ptr" : true,
     "referenced_type" : "type-1956"
    }
   ],
   "return_type" : "type-25",
   "source_file" : "/out/soong/.intermediates/hardware/interfaces/audio/2.0/android.hardware.audio@2.0_genc++_headers/gen/android/hardware/audio/2.0/BnHwStream.h"
  },
  {
   "function_name" : "android::hardware::audio::V2_0::BnHwStream::~BnHwStream",
   "linker_set_key" : "_ZN7android8hardware5audio4V2_010BnHwStreamD2Ev",
   "parameters" :
   [
    {
     "is_this_ptr" : true,
     "referenced_type" : "type-1956"
    }
   ],
   "return_type" : "type-25",
   "source_file" : "/out/soong/.intermediates/hardware/interfaces/audio/2.0/android.hardware.audio@2.0_genc++_headers/gen/android/hardware/audio/2.0/BnHwStream.h"
  },
  {
   "function_name" : "android::hardware::audio::V2_0::BpHwDevice::getMicMute",
   "linker_set_key" : "_ZN7android8hardware5audio4V2_010BpHwDevice10getMicMuteENSt3__18functionIFvNS2_6ResultEbEEE",
   "parameters" :
   [
    {
     "is_this_ptr" : true,
     "referenced_type" : "type-99"
    },
    {
     "referenced_type" : "type-2048"
    }
   ],
   "return_type" : "type-707",
   "source_file" : "/out/soong/.intermediates/hardware/interfaces/audio/2.0/android.hardware.audio@2.0_genc++_headers/gen/android/hardware/audio/2.0/BpHwDevice.h"
  },
  {
   "function_name" : "android::hardware::audio::V2_0::BpHwDevice::setMicMute",
   "linker_set_key" : "_ZN7android8hardware5audio4V2_010BpHwDevice10setMicMuteEb",
   "parameters" :
   [
    {
     "is_this_ptr" : true,
     "referenced_type" : "type-99"
    },
    {
     "referenced_type" : "type-29"
    }
   ],
   "return_type" : "type-611",
   "source_file" : "/out/soong/.intermediates/hardware/interfaces/audio/2.0/android.hardware.audio@2.0_genc++_headers/gen/android/hardware/audio/2.0/BpHwDevice.h"
  },
  {
   "function_name" : "android::hardware::audio::V2_0::BpHwDevice::getHwAvSync",
   "linker_set_key" : "_ZN7android8hardware5audio4V2_010BpHwDevice11getHwAvSyncEv",
   "parameters" :
   [
    {
     "is_this_ptr" : true,
     "referenced_type" : "type-99"
    }
   ],
   "return_type" : "type-581",
   "source_file" : "/out/soong/.intermediates/hardware/interfaces/audio/2.0/android.hardware.audio@2.0_genc++_headers/gen/android/hardware/audio/2.0/BpHwDevice.h"
  },
  {
   "function_name" : "android::hardware::audio::V2_0::BpHwDevice::linkToDeath",
   "linker_set_key" : "_ZN7android8hardware5audio4V2_010BpHwDevice11linkToDeathERKNS_2spINS0_20hidl_death_recipientEEEy",
   "parameters" :
   [
    {
     "is_this_ptr" : true,
     "referenced_type" : "type-99"
    },
    {
     "referenced_type" : "type-1988"
    },
    {
     "referenced_type" : "type-7"
    }
   ],
   "return_type" : "type-568",
   "source_file" : "/out/soong/.intermediates/hardware/interfaces/audio/2.0/android.hardware.audio@2.0_genc++_headers/gen/android/hardware/audio/2.0/BpHwDevice.h"
  },
  {
   "function_name" : "android::hardware::audio::V2_0::BpHwDevice::getAudioPort",
   "linker_set_key" : "_ZN7android8hardware5audio4V2_010BpHwDevice12getAudioPortERKNS1_6common4V2_09AudioPortENSt3__18functionIFvNS2_6ResultES8_EEE",
   "parameters" :
   [
    {
     "is_this_ptr" : true,
     "referenced_type" : "type-99"
    },
    {
     "referenced_type" : "type-1980"
    },
    {
     "referenced_type" : "type-2049"
    }
   ],
   "return_type" : "type-707",
   "source_file" : "/out/soong/.intermediates/hardware/interfaces/audio/2.0/android.hardware.audio@2.0_genc++_headers/gen/android/hardware/audio/2.0/BpHwDevice.h"
  },
  {
   "function_name" : "android::hardware::audio::V2_0::BpHwDevice::getDebugInfo",
   "linker_set_key" : "_ZN7android8hardware5audio4V2_010BpHwDevice12getDebugInfoENSt3__18functionIFvRKNS_4hidl4base4V1_09DebugInfoEEEE",
   "parameters" :
   [
    {
     "is_this_ptr" : true,
     "referenced_type" : "type-99"
    },
    {
     "referenced_type" : "type-2050"
    }
   ],
   "return_type" : "type-707",
   "source_file" : "/out/soong/.intermediates/hardware/interfaces/audio/2.0/android.hardware.audio@2.0_genc++_headers/gen/android/hardware/audio/2.0/BpHwDevice.h"
  },
  {
   "function_name" : "android::hardware::audio::V2_0::BpHwDevice::getHashChain",
   "linker_set_key" : "_ZN7android8hardware5audio4V2_010BpHwDevice12getHashChainENSt3__18functionIFvRKNS0_8hidl_vecINS0_10hidl_arrayIhLj32EJEEEEEEEE",
   "parameters" :
   [
    {
     "is_this_ptr" : true,
     "referenced_type" : "type-99"
    },
    {
     "referenced_type" : "type-2051"
    }
   ],
   "return_type" : "type-707",
   "source_file" : "/out/soong/.intermediates/hardware/interfaces/audio/2.0/android.hardware.audio@2.0_genc++_headers/gen/android/hardware/audio/2.0/BpHwDevice.h"
  },
  {
   "function_name" : "android::hardware::audio::V2_0::BpHwDevice::getMasterMute",
   "linker_set_key" : "_ZN7android8hardware5audio4V2_010BpHwDevice13getMasterMuteENSt3__18functionIFvNS2_6ResultEbEEE",
   "parameters" :
   [
    {
     "is_this_ptr" : true,
     "referenced_type" : "type-99"
    },
    {
     "referenced_type" : "type-2052"
    }
   ],
   "return_type" : "type-707",
   "source_file" : "/out/soong/.intermediates/hardware/interfaces/audio/2.0/android.hardware.audio@2.0_genc++_headers/gen/android/hardware/audio/2.0/BpHwDevice.h"
  },
  {
   "function_name" : "android::hardware::audio::V2_0::BpHwDevice::getParameters",
   "linker_set_key" : "_ZN7android8hardware5audio4V2_010BpHwDevice13getParametersERKNS0_8hidl_vecINS0_11hidl_stringEEENSt3__18functionIFvNS2_6ResultERKNS4_INS2_14ParameterValueEEEEEE",
   "parameters" :
   [
    {
     "is_this_ptr" : true,
     "referenced_type" : "type-99"
    },
    {
     "referenced_type" : "type-1512"
    },
    {
     "referenced_type" : "type-2053"
    }
   ],
   "return_type" : "type-707",
   "source_file" : "/out/soong/.intermediates/hardware/interfaces/audio/2.0/android.hardware.audio@2.0_genc++_headers/gen/android/hardware/audio/2.0/BpHwDevice.h"
  },
  {
   "function_name" : "android::hardware::audio::V2_0::BpHwDevice::setMasterMute",
   "linker_set_key" : "_ZN7android8hardware5audio4V2_010BpHwDevice13setMasterMuteEb",
   "parameters" :
   [
    {
     "is_this_ptr" : true,
     "referenced_type" : "type-99"
    },
    {
     "referenced_type" : "type-29"
    }
   ],
   "return_type" : "type-611",
   "source_file" : "/out/soong/.intermediates/hardware/interfaces/audio/2.0/android.hardware.audio@2.0_genc++_headers/gen/android/hardware/audio/2.0/BpHwDevice.h"
  },
  {
   "function_name" : "android::hardware::audio::V2_0::BpHwDevice::setParameters",
   "linker_set_key" : "_ZN7android8hardware5audio4V2_010BpHwDevice13setParametersERKNS0_8hidl_vecINS2_14ParameterValueEEE",
   "parameters" :
   [
    {
     "is_this_ptr" : true,
     "referenced_type" : "type-99"
    },
    {
     "referenced_type" : "type-1508"
    }
   ],
   "return_type" : "type-611",
   "source_file" : "/out/soong/.intermediates/hardware/interfaces/audio/2.0/android.hardware.audio@2.0_genc++_headers/gen/android/hardware/audio/2.0/BpHwDevice.h"
  },
  {
   "function_name" : "android::hardware::audio::V2_0::BpHwDevice::unlinkToDeath",
   "linker_set_key" : "_ZN7android8hardware5audio4V2_010BpHwDevice13unlinkToDeathERKNS_2spINS0_20hidl_death_recipientEEE",
   "parameters" :
   [
    {
     "is_this_ptr" : true,
     "referenced_type" : "type-99"
    },
    {
     "referenced_type" : "type-1988"
    }
   ],
   "return_type" : "type-568",
   "source_file" : "/out/soong/.intermediates/hardware/interfaces/audio/2.0/android.hardware.audio@2.0_genc++_headers/gen/android/hardware/audio/2.0/BpHwDevice.h"
  },
  {
   "function_name" : "android::hardware::audio::V2_0::BpHwDevice::interfaceChain",
   "linker_set_key" : "_ZN7android8hardware5audio4V2_010BpHwDevice14interfaceChainENSt3__18functionIFvRKNS0_8hidl_vecINS0_11hidl_stringEEEEEE",
   "parameters" :
   [
    {
     "is_this_ptr" : true,
     "referenced_type" : "type-99"
    },
    {
     "referenced_type" : "type-2054"
    }
   ],
   "return_type" : "type-707",
   "source_file" : "/out/soong/.intermediates/hardware/interfaces/audio/2.0/android.hardware.audio@2.0_genc++_headers/gen/android/hardware/audio/2.0/BpHwDevice.h"
  },
  {
   "function_name" : "android::hardware::audio::V2_0::BpHwDevice::setScreenState",
   "linker_set_key" : "_ZN7android8hardware5audio4V2_010BpHwDevice14setScreenStateEb",
   "parameters" :
   [
    {
     "is_this_ptr" : true,
     "referenced_type" : "type-99"
    },
    {
     "referenced_type" : "type-29"
    }
   ],
   "return_type" : "type-611",
   "source_file" : "/out/soong/.intermediates/hardware/interfaces/audio/2.0/android.hardware.audio@2.0_genc++_headers/gen/android/hardware/audio/2.0/BpHwDevice.h"
  },
  {
   "function_name" : "android::hardware::audio::V2_0::BpHwDevice::_hidl_debugDump",
   "linker_set_key" : "_ZN7android8hardware5audio4V2_010BpHwDevice15_hidl_debugDumpEPNS0_10IInterfaceEPNS0_7details16HidlInstrumentorERKNS0_11hidl_handleE",
   "parameters" :
   [
    {
     "referenced_type" : "type-207"
    },
    {
     "referenced_type" : "type-1242"
    },
    {
     "referenced_type" : "type-1389"
    }
   ],
   "return_type" : "type-707",
   "source_file" : "/out/soong/.intermediates/hardware/interfaces/audio/2.0/android.hardware.audio@2.0_genc++_headers/gen/android/hardware/audio/2.0/BpHwDevice.h"
  },
  {
   "function_name" : "android::hardware::audio::V2_0::BpHwDevice::_hidl_initCheck",
   "linker_set_key" : "_ZN7android8hardware5audio4V2_010BpHwDevice15_hidl_initCheckEPNS0_10IInterfaceEPNS0_7details16HidlInstrumentorE",
   "parameters" :
   [
    {
     "referenced_type" : "type-207"
    },
    {
     "referenced_type" : "type-1242"
    }
   ],
   "return_type" : "type-611",
   "source_file" : "/out/soong/.intermediates/hardware/interfaces/audio/2.0/android.hardware.audio@2.0_genc++_headers/gen/android/hardware/audio/2.0/BpHwDevice.h"
  },
  {
   "function_name" : "android::hardware::audio::V2_0::BpHwDevice::getMasterVolume",
   "linker_set_key" : "_ZN7android8hardware5audio4V2_010BpHwDevice15getMasterVolumeENSt3__18functionIFvNS2_6ResultEfEEE",
   "parameters" :
   [
    {
     "is_this_ptr" : true,
     "referenced_type" : "type-99"
    },
    {
     "referenced_type" : "type-2055"
    }
   ],
   "return_type" : "type-707",
   "source_file" : "/out/soong/.intermediates/hardware/interfaces/audio/2.0/android.hardware.audio@2.0_genc++_headers/gen/android/hardware/audio/2.0/BpHwDevice.h"
  },
  {
   "function_name" : "android::hardware::audio::V2_0::BpHwDevice::openInputStream",
   "linker_set_key" : "_ZN7android8hardware5audio4V2_010BpHwDevice15openInputStreamEiRKNS2_13DeviceAddressERKNS1_6common4V2_011AudioConfigENS8_14AudioInputFlagENS8_11AudioSourceENSt3__18functionIFvNS2_6ResultERKNS_2spINS2_9IStreamInEEESB_EEE",
   "parameters" :
   [
    {
     "is_this_ptr" : true,
     "referenced_type" : "type-99"
    },
    {
     "referenced_type" : "type-22"
    },
    {
     "referenced_type" : "type-1978"
    },
    {
     "referenced_type" : "type-1976"
    },
    {
     "referenced_type" : "type-1819"
    },
    {
     "referenced_type" : "type-1192"
    },
    {
     "referenced_type" : "type-2056"
    }
   ],
   "return_type" : "type-707",
   "source_file" : "/out/soong/.intermediates/hardware/interfaces/audio/2.0/android.hardware.audio@2.0_genc++_headers/gen/android/hardware/audio/2.0/BpHwDevice.h"
  },
  {
   "function_name" : "android::hardware::audio::V2_0::BpHwDevice::setMasterVolume",
   "linker_set_key" : "_ZN7android8hardware5audio4V2_010BpHwDevice15setMasterVolumeEf",
   "parameters" :
   [
    {
     "is_this_ptr" : true,
     "referenced_type" : "type-99"
    },
    {
     "referenced_type" : "type-913"
    }
   ],
   "return_type" : "type-611",
   "source_file" : "/out/soong/.intermediates/hardware/interfaces/audio/2.0/android.hardware.audio@2.0_genc++_headers/gen/android/hardware/audio/2.0/BpHwDevice.h"
  },
  {
   "function_name" : "android::hardware::audio::V2_0::BpHwDevice::_hidl_getMicMute",
   "linker_set_key" : "_ZN7android8hardware5audio4V2_010BpHwDevice16_hidl_getMicMuteEPNS0_10IInterfaceEPNS0_7details16HidlInstrumentorENSt3__18functionIFvNS2_6ResultEbEEE",
   "parameters" :
   [
    {
     "referenced_type" : "type-207"
    },
    {
     "referenced_type" : "type-1242"
    },
    {
     "referenced_type" : "type-2057"
    }
   ],
   "return_type" : "type-707",
   "source_file" : "/out/soong/.intermediates/hardware/interfaces/audio/2.0/android.hardware.audio@2.0_genc++_headers/gen/android/hardware/audio/2.0/BpHwDevice.h"
  },
  {
   "function_name" : "android::hardware::audio::V2_0::BpHwDevice::_hidl_setMicMute",
   "linker_set_key" : "_ZN7android8hardware5audio4V2_010BpHwDevice16_hidl_setMicMuteEPNS0_10IInterfaceEPNS0_7details16HidlInstrumentorEb",
   "parameters" :
   [
    {
     "referenced_type" : "type-207"
    },
    {
     "referenced_type" : "type-1242"
    },
    {
     "referenced_type" : "type-29"
    }
   ],
   "return_type" : "type-611",
   "source_file" : "/out/soong/.intermediates/hardware/interfaces/audio/2.0/android.hardware.audio@2.0_genc++_headers/gen/android/hardware/audio/2.0/BpHwDevice.h"
  },
  {
   "function_name" : "android::hardware::audio::V2_0::BpHwDevice::createAudioPatch",
   "linker_set_key" : "_ZN7android8hardware5audio4V2_010BpHwDevice16createAudioPatchERKNS0_8hidl_vecINS1_6common4V2_015AudioPortConfigEEESA_NSt3__18functionIFvNS2_6ResultEiEEE",
   "parameters" :
   [
    {
     "is_this_ptr" : true,
     "referenced_type" : "type-99"
    },
    {
     "referenced_type" : "type-1509"
    },
    {
     "referenced_type" : "type-1509"
    },
    {
     "referenced_type" : "type-2058"
    }
   ],
   "return_type" : "type-707",
   "source_file" : "/out/soong/.intermediates/hardware/interfaces/audio/2.0/android.hardware.audio@2.0_genc++_headers/gen/android/hardware/audio/2.0/BpHwDevice.h"
  },
  {
   "function_name" : "android::hardware::audio::V2_0::BpHwDevice::openOutputStream",
   "linker_set_key" : "_ZN7android8hardware5audio4V2_010BpHwDevice16openOutputStreamEiRKNS2_13DeviceAddressERKNS1_6common4V2_011AudioConfigENS8_15AudioOutputFlagENSt3__18functionIFvNS2_6ResultERKNS_2spINS2_10IStreamOutEEESB_EEE",
   "parameters" :
   [
    {
     "is_this_ptr" : true,
     "referenced_type" : "type-99"
    },
    {
     "referenced_type" : "type-22"
    },
    {
     "referenced_type" : "type-1978"
    },
    {
     "referenced_type" : "type-1976"
    },
    {
     "referenced_type" : "type-1810"
    },
    {
     "referenced_type" : "type-2059"
    }
   ],
   "return_type" : "type-707",
   "source_file" : "/out/soong/.intermediates/hardware/interfaces/audio/2.0/android.hardware.audio@2.0_genc++_headers/gen/android/hardware/audio/2.0/BpHwDevice.h"
  },
  {
   "function_name" : "android::hardware::audio::V2_0::BpHwDevice::_hidl_getHwAvSync",
   "linker_set_key" : "_ZN7android8hardware5audio4V2_010BpHwDevice17_hidl_getHwAvSyncEPNS0_10IInterfaceEPNS0_7details16HidlInstrumentorE",
   "parameters" :
   [
    {
     "referenced_type" : "type-207"
    },
    {
     "referenced_type" : "type-1242"
    }
   ],
   "return_type" : "type-581",
   "source_file" : "/out/soong/.intermediates/hardware/interfaces/audio/2.0/android.hardware.audio@2.0_genc++_headers/gen/android/hardware/audio/2.0/BpHwDevice.h"
  },
  {
   "function_name" : "android::hardware::audio::V2_0::BpHwDevice::releaseAudioPatch",
   "linker_set_key" : "_ZN7android8hardware5audio4V2_010BpHwDevice17releaseAudioPatchEi",
   "parameters" :
   [
    {
     "is_this_ptr" : true,
     "referenced_type" : "type-99"
    },
    {
     "referenced_type" : "type-22"
    }
   ],
   "return_type" : "type-611",
   "source_file" : "/out/soong/.intermediates/hardware/interfaces/audio/2.0/android.hardware.audio@2.0_genc++_headers/gen/android/hardware/audio/2.0/BpHwDevice.h"
  },
  {
   "function_name" : "android::hardware::audio::V2_0::BpHwDevice::_hidl_getAudioPort",
   "linker_set_key" : "_ZN7android8hardware5audio4V2_010BpHwDevice18_hidl_getAudioPortEPNS0_10IInterfaceEPNS0_7details16HidlInstrumentorERKNS1_6common4V2_09AudioPortENSt3__18functionIFvNS2_6ResultESD_EEE",
   "parameters" :
   [
    {
     "referenced_type" : "type-207"
    },
    {
     "referenced_type" : "type-1242"
    },
    {
     "referenced_type" : "type-1980"
    },
    {
     "referenced_type" : "type-2060"
    }
   ],
   "return_type" : "type-707",
   "source_file" : "/out/soong/.intermediates/hardware/interfaces/audio/2.0/android.hardware.audio@2.0_genc++_headers/gen/android/hardware/audio/2.0/BpHwDevice.h"
  },
  {
   "function_name" : "android::hardware::audio::V2_0::BpHwDevice::getInputBufferSize",
   "linker_set_key" : "_ZN7android8hardware5audio4V2_010BpHwDevice18getInputBufferSizeERKNS1_6common4V2_011AudioConfigENSt3__18functionIFvNS2_6ResultEyEEE",
   "parameters" :
   [
    {
     "is_this_ptr" : true,
     "referenced_type" : "type-99"
    },
    {
     "referenced_type" : "type-1976"
    },
    {
     "referenced_type" : "type-2061"
    }
   ],
   "return_type" : "type-707",
   "source_file" : "/out/soong/.intermediates/hardware/interfaces/audio/2.0/android.hardware.audio@2.0_genc++_headers/gen/android/hardware/audio/2.0/BpHwDevice.h"
  },
  {
   "function_name" : "android::hardware::audio::V2_0::BpHwDevice::setAudioPortConfig",
   "linker_set_key" : "_ZN7android8hardware5audio4V2_010BpHwDevice18setAudioPortConfigERKNS1_6common4V2_015AudioPortConfigE",
   "parameters" :
   [
    {
     "is_this_ptr" : true,
     "referenced_type" : "type-99"
    },
    {
     "referenced_type" : "type-1981"
    }
   ],
   "return_type" : "type-611",
   "source_file" : "/out/soong/.intermediates/hardware/interfaces/audio/2.0/android.hardware.audio@2.0_genc++_headers/gen/android/hardware/audio/2.0/BpHwDevice.h"
  },
  {
   "function_name" : "android::hardware::audio::V2_0::BpHwDevice::_hidl_getMasterMute",
   "linker_set_key" : "_ZN7android8hardware5audio4V2_010BpHwDevice19_hidl_getMasterMuteEPNS0_10IInterfaceEPNS0_7details16HidlInstrumentorENSt3__18functionIFvNS2_6ResultEbEEE",
   "parameters" :
   [
    {
     "referenced_type" : "type-207"
    },
    {
     "referenced_type" : "type-1242"
    },
    {
     "referenced_type" : "type-2062"
    }
   ],
   "return_type" : "type-707",
   "source_file" : "/out/soong/.intermediates/hardware/interfaces/audio/2.0/android.hardware.audio@2.0_genc++_headers/gen/android/hardware/audio/2.0/BpHwDevice.h"
  },
  {
   "function_name" : "android::hardware::audio::V2_0::BpHwDevice::_hidl_getParameters",
   "linker_set_key" : "_ZN7android8hardware5audio4V2_010BpHwDevice19_hidl_getParametersEPNS0_10IInterfaceEPNS0_7details16HidlInstrumentorERKNS0_8hidl_vecINS0_11hidl_stringEEENSt3__18functionIFvNS2_6ResultERKNS9_INS2_14ParameterValueEEEEEE",
   "parameters" :
   [
    {
     "referenced_type" : "type-207"
    },
    {
     "referenced_type" : "type-1242"
    },
    {
     "referenced_type" : "type-1512"
    },
    {
     "referenced_type" : "type-2063"
    }
   ],
   "return_type" : "type-707",
   "source_file" : "/out/soong/.intermediates/hardware/interfaces/audio/2.0/android.hardware.audio@2.0_genc++_headers/gen/android/hardware/audio/2.0/BpHwDevice.h"
  },
  {
   "function_name" : "android::hardware::audio::V2_0::BpHwDevice::_hidl_setMasterMute",
   "linker_set_key" : "_ZN7android8hardware5audio4V2_010BpHwDevice19_hidl_setMasterMuteEPNS0_10IInterfaceEPNS0_7details16HidlInstrumentorEb",
   "parameters" :
   [
    {
     "referenced_type" : "type-207"
    },
    {
     "referenced_type" : "type-1242"
    },
    {
     "referenced_type" : "type-29"
    }
   ],
   "return_type" : "type-611",
   "source_file" : "/out/soong/.intermediates/hardware/interfaces/audio/2.0/android.hardware.audio@2.0_genc++_headers/gen/android/hardware/audio/2.0/BpHwDevice.h"
  },
  {
   "function_name" : "android::hardware::audio::V2_0::BpHwDevice::_hidl_setParameters",
   "linker_set_key" : "_ZN7android8hardware5audio4V2_010BpHwDevice19_hidl_setParametersEPNS0_10IInterfaceEPNS0_7details16HidlInstrumentorERKNS0_8hidl_vecINS2_14ParameterValueEEE",
   "parameters" :
   [
    {
     "referenced_type" : "type-207"
    },
    {
     "referenced_type" : "type-1242"
    },
    {
     "referenced_type" : "type-1508"
    }
   ],
   "return_type" : "type-611",
   "source_file" : "/out/soong/.intermediates/hardware/interfaces/audio/2.0/android.hardware.audio@2.0_genc++_headers/gen/android/hardware/audio/2.0/BpHwDevice.h"
  },
  {
   "function_name" : "android::hardware::audio::V2_0::BpHwDevice::interfaceDescriptor",
   "linker_set_key" : "_ZN7android8hardware5audio4V2_010BpHwDevice19interfaceDescriptorENSt3__18functionIFvRKNS0_11hidl_stringEEEE",
   "parameters" :
   [
    {
     "is_this_ptr" : true,
     "referenced_type" : "type-99"
    },
    {
     "referenced_type" : "type-2064"
    }
   ],
   "return_type" : "type-707",
   "source_file" : "/out/soong/.intermediates/hardware/interfaces/audio/2.0/android.hardware.audio@2.0_genc++_headers/gen/android/hardware/audio/2.0/BpHwDevice.h"
  },
  {
   "function_name" : "android::hardware::audio::V2_0::BpHwDevice::_hidl_setScreenState",
   "linker_set_key" : "_ZN7android8hardware5audio4V2_010BpHwDevice20_hidl_setScreenStateEPNS0_10IInterfaceEPNS0_7details16HidlInstrumentorEb",
   "parameters" :
   [
    {
     "referenced_type" : "type-207"
    },
    {
     "referenced_type" : "type-1242"
    },
    {
     "referenced_type" : "type-29"
    }
   ],
   "return_type" : "type-611",
   "source_file" : "/out/soong/.intermediates/hardware/interfaces/audio/2.0/android.hardware.audio@2.0_genc++_headers/gen/android/hardware/audio/2.0/BpHwDevice.h"
  },
  {
   "function_name" : "android::hardware::audio::V2_0::BpHwDevice::supportsAudioPatches",
   "linker_set_key" : "_ZN7android8hardware5audio4V2_010BpHwDevice20supportsAudioPatchesEv",
   "parameters" :
   [
    {
     "is_this_ptr" : true,
     "referenced_type" : "type-99"
    }
   ],
   "return_type" : "type-568",
   "source_file" : "/out/soong/.intermediates/hardware/interfaces/audio/2.0/android.hardware.audio@2.0_genc++_headers/gen/android/hardware/audio/2.0/BpHwDevice.h"
  },
  {
   "function_name" : "android::hardware::audio::V2_0::BpHwDevice::_hidl_getMasterVolume",
   "linker_set_key" : "_ZN7android8hardware5audio4V2_010BpHwDevice21_hidl_getMasterVolumeEPNS0_10IInterfaceEPNS0_7details16HidlInstrumentorENSt3__18functionIFvNS2_6ResultEfEEE",
   "parameters" :
   [
    {
     "referenced_type" : "type-207"
    },
    {
     "referenced_type" : "type-1242"
    },
    {
     "referenced_type" : "type-2065"
    }
   ],
   "return_type" : "type-707",
   "source_file" : "/out/soong/.intermediates/hardware/interfaces/audio/2.0/android.hardware.audio@2.0_genc++_headers/gen/android/hardware/audio/2.0/BpHwDevice.h"
  },
  {
   "function_name" : "android::hardware::audio::V2_0::BpHwDevice::_hidl_openInputStream",
   "linker_set_key" : "_ZN7android8hardware5audio4V2_010BpHwDevice21_hidl_openInputStreamEPNS0_10IInterfaceEPNS0_7details16HidlInstrumentorEiRKNS2_13DeviceAddressERKNS1_6common4V2_011AudioConfigENSD_14AudioInputFlagENSD_11AudioSourceENSt3__18functionIFvNS2_6ResultERKNS_2spINS2_9IStreamInEEESG_EEE",
   "parameters" :
   [
    {
     "referenced_type" : "type-207"
    },
    {
     "referenced_type" : "type-1242"
    },
    {
     "referenced_type" : "type-22"
    },
    {
     "referenced_type" : "type-1978"
    },
    {
     "referenced_type" : "type-1976"
    },
    {
     "referenced_type" : "type-1819"
    },
    {
     "referenced_type" : "type-1192"
    },
    {
     "referenced_type" : "type-2066"
    }
   ],
   "return_type" : "type-707",
   "source_file" : "/out/soong/.intermediates/hardware/interfaces/audio/2.0/android.hardware.audio@2.0_genc++_headers/gen/android/hardware/audio/2.0/BpHwDevice.h"
  },
  {
   "function_name" : "android::hardware::audio::V2_0::BpHwDevice::_hidl_setMasterVolume",
   "linker_set_key" : "_ZN7android8hardware5audio4V2_010BpHwDevice21_hidl_setMasterVolumeEPNS0_10IInterfaceEPNS0_7details16HidlInstrumentorEf",
   "parameters" :
   [
    {
     "referenced_type" : "type-207"
    },
    {
     "referenced_type" : "type-1242"
    },
    {
     "referenced_type" : "type-913"
    }
   ],
   "return_type" : "type-611",
   "source_file" : "/out/soong/.intermediates/hardware/interfaces/audio/2.0/android.hardware.audio@2.0_genc++_headers/gen/android/hardware/audio/2.0/BpHwDevice.h"
  },
  {
   "function_name" : "android::hardware::audio::V2_0::BpHwDevice::notifySyspropsChanged",
   "linker_set_key" : "_ZN7android8hardware5audio4V2_010BpHwDevice21notifySyspropsChangedEv",
   "parameters" :
   [
    {
     "is_this_ptr" : true,
     "referenced_type" : "type-99"
    }
   ],
   "return_type" : "type-707",
   "source_file" : "/out/soong/.intermediates/hardware/interfaces/audio/2.0/android.hardware.audio@2.0_genc++_headers/gen/android/hardware/audio/2.0/BpHwDevice.h"
  },
  {
   "function_name" : "android::hardware::audio::V2_0::BpHwDevice::setHALInstrumentation",
   "linker_set_key" : "_ZN7android8hardware5audio4V2_010BpHwDevice21setHALInstrumentationEv",
   "parameters" :
   [
    {
     "is_this_ptr" : true,
     "referenced_type" : "type-99"
    }
   ],
   "return_type" : "type-707",
   "source_file" : "/out/soong/.intermediates/hardware/interfaces/audio/2.0/android.hardware.audio@2.0_genc++_headers/gen/android/hardware/audio/2.0/BpHwDevice.h"
  },
  {
   "function_name" : "android::hardware::audio::V2_0::BpHwDevice::_hidl_createAudioPatch",
   "linker_set_key" : "_ZN7android8hardware5audio4V2_010BpHwDevice22_hidl_createAudioPatchEPNS0_10IInterfaceEPNS0_7details16HidlInstrumentorERKNS0_8hidl_vecINS1_6common4V2_015AudioPortConfigEEESF_NSt3__18functionIFvNS2_6ResultEiEEE",
   "parameters" :
   [
    {
     "referenced_type" : "type-207"
    },
    {
     "referenced_type" : "type-1242"
    },
    {
     "referenced_type" : "type-1509"
    },
    {
     "referenced_type" : "type-1509"
    },
    {
     "referenced_type" : "type-2067"
    }
   ],
   "return_type" : "type-707",
   "source_file" : "/out/soong/.intermediates/hardware/interfaces/audio/2.0/android.hardware.audio@2.0_genc++_headers/gen/android/hardware/audio/2.0/BpHwDevice.h"
  },
  {
   "function_name" : "android::hardware::audio::V2_0::BpHwDevice::_hidl_openOutputStream",
   "linker_set_key" : "_ZN7android8hardware5audio4V2_010BpHwDevice22_hidl_openOutputStreamEPNS0_10IInterfaceEPNS0_7details16HidlInstrumentorEiRKNS2_13DeviceAddressERKNS1_6common4V2_011AudioConfigENSD_15AudioOutputFlagENSt3__18functionIFvNS2_6ResultERKNS_2spINS2_10IStreamOutEEESG_EEE",
   "parameters" :
   [
    {
     "referenced_type" : "type-207"
    },
    {
     "referenced_type" : "type-1242"
    },
    {
     "referenced_type" : "type-22"
    },
    {
     "referenced_type" : "type-1978"
    },
    {
     "referenced_type" : "type-1976"
    },
    {
     "referenced_type" : "type-1810"
    },
    {
     "referenced_type" : "type-2068"
    }
   ],
   "return_type" : "type-707",
   "source_file" : "/out/soong/.intermediates/hardware/interfaces/audio/2.0/android.hardware.audio@2.0_genc++_headers/gen/android/hardware/audio/2.0/BpHwDevice.h"
  },
  {
   "function_name" : "android::hardware::audio::V2_0::BpHwDevice::_hidl_releaseAudioPatch",
   "linker_set_key" : "_ZN7android8hardware5audio4V2_010BpHwDevice23_hidl_releaseAudioPatchEPNS0_10IInterfaceEPNS0_7details16HidlInstrumentorEi",
   "parameters" :
   [
    {
     "referenced_type" : "type-207"
    },
    {
     "referenced_type" : "type-1242"
    },
    {
     "referenced_type" : "type-22"
    }
   ],
   "return_type" : "type-611",
   "source_file" : "/out/soong/.intermediates/hardware/interfaces/audio/2.0/android.hardware.audio@2.0_genc++_headers/gen/android/hardware/audio/2.0/BpHwDevice.h"
  },
  {
   "function_name" : "android::hardware::audio::V2_0::BpHwDevice::_hidl_getInputBufferSize",
   "linker_set_key" : "_ZN7android8hardware5audio4V2_010BpHwDevice24_hidl_getInputBufferSizeEPNS0_10IInterfaceEPNS0_7details16HidlInstrumentorERKNS1_6common4V2_011AudioConfigENSt3__18functionIFvNS2_6ResultEyEEE",
   "parameters" :
   [
    {
     "referenced_type" : "type-207"
    },
    {
     "referenced_type" : "type-1242"
    },
    {
     "referenced_type" : "type-1976"
    },
    {
     "referenced_type" : "type-2069"
    }
   ],
   "return_type" : "type-707",
   "source_file" : "/out/soong/.intermediates/hardware/interfaces/audio/2.0/android.hardware.audio@2.0_genc++_headers/gen/android/hardware/audio/2.0/BpHwDevice.h"
  },
  {
   "function_name" : "android::hardware::audio::V2_0::BpHwDevice::_hidl_setAudioPortConfig",
   "linker_set_key" : "_ZN7android8hardware5audio4V2_010BpHwDevice24_hidl_setAudioPortConfigEPNS0_10IInterfaceEPNS0_7details16HidlInstrumentorERKNS1_6common4V2_015AudioPortConfigE",
   "parameters" :
   [
    {
     "referenced_type" : "type-207"
    },
    {
     "referenced_type" : "type-1242"
    },
    {
     "referenced_type" : "type-1981"
    }
   ],
   "return_type" : "type-611",
   "source_file" : "/out/soong/.intermediates/hardware/interfaces/audio/2.0/android.hardware.audio@2.0_genc++_headers/gen/android/hardware/audio/2.0/BpHwDevice.h"
  },
  {
   "function_name" : "android::hardware::audio::V2_0::BpHwDevice::_hidl_supportsAudioPatches",
   "linker_set_key" : "_ZN7android8hardware5audio4V2_010BpHwDevice26_hidl_supportsAudioPatchesEPNS0_10IInterfaceEPNS0_7details16HidlInstrumentorE",
   "parameters" :
   [
    {
     "referenced_type" : "type-207"
    },
    {
     "referenced_type" : "type-1242"
    }
   ],
   "return_type" : "type-568",
   "source_file" : "/out/soong/.intermediates/hardware/interfaces/audio/2.0/android.hardware.audio@2.0_genc++_headers/gen/android/hardware/audio/2.0/BpHwDevice.h"
  },
  {
   "function_name" : "android::hardware::audio::V2_0::BpHwDevice::ping",
   "linker_set_key" : "_ZN7android8hardware5audio4V2_010BpHwDevice4pingEv",
   "parameters" :
   [
    {
     "is_this_ptr" : true,
     "referenced_type" : "type-99"
    }
   ],
   "return_type" : "type-707",
   "source_file" : "/out/soong/.intermediates/hardware/interfaces/audio/2.0/android.hardware.audio@2.0_genc++_headers/gen/android/hardware/audio/2.0/BpHwDevice.h"
  },
  {
   "function_name" : "android::hardware::audio::V2_0::BpHwDevice::debug",
   "linker_set_key" : "_ZN7android8hardware5audio4V2_010BpHwDevice5debugERKNS0_11hidl_handleERKNS0_8hidl_vecINS0_11hidl_stringEEE",
   "parameters" :
   [
    {
     "is_this_ptr" : true,
     "referenced_type" : "type-99"
    },
    {
     "referenced_type" : "type-1389"
    },
    {
     "referenced_type" : "type-1512"
    }
   ],
   "return_type" : "type-707",
   "source_file" : "/out/soong/.intermediates/hardware/interfaces/audio/2.0/android.hardware.audio@2.0_genc++_headers/gen/android/hardware/audio/2.0/BpHwDevice.h"
  },
  {
   "function_name" : "android::hardware::audio::V2_0::BpHwDevice::debugDump",
   "linker_set_key" : "_ZN7android8hardware5audio4V2_010BpHwDevice9debugDumpERKNS0_11hidl_handleE",
   "parameters" :
   [
    {
     "is_this_ptr" : true,
     "referenced_type" : "type-99"
    },
    {
     "referenced_type" : "type-1389"
    }
   ],
   "return_type" : "type-707",
   "source_file" : "/out/soong/.intermediates/hardware/interfaces/audio/2.0/android.hardware.audio@2.0_genc++_headers/gen/android/hardware/audio/2.0/BpHwDevice.h"
  },
  {
   "function_name" : "android::hardware::audio::V2_0::BpHwDevice::initCheck",
   "linker_set_key" : "_ZN7android8hardware5audio4V2_010BpHwDevice9initCheckEv",
   "parameters" :
   [
    {
     "is_this_ptr" : true,
     "referenced_type" : "type-99"
    }
   ],
   "return_type" : "type-611",
   "source_file" : "/out/soong/.intermediates/hardware/interfaces/audio/2.0/android.hardware.audio@2.0_genc++_headers/gen/android/hardware/audio/2.0/BpHwDevice.h"
  },
  {
   "function_name" : "android::hardware::audio::V2_0::BpHwDevice::BpHwDevice",
   "linker_set_key" : "_ZN7android8hardware5audio4V2_010BpHwDeviceC1ERKNS_2spINS0_7IBinderEEE",
   "parameters" :
   [
    {
     "is_this_ptr" : true,
     "referenced_type" : "type-99"
    },
    {
     "referenced_type" : "type-240"
    }
   ],
   "return_type" : "type-25",
   "source_file" : "/out/soong/.intermediates/hardware/interfaces/audio/2.0/android.hardware.audio@2.0_genc++_headers/gen/android/hardware/audio/2.0/BpHwDevice.h"
  },
  {
   "function_name" : "android::hardware::audio::V2_0::BpHwDevice::BpHwDevice",
   "linker_set_key" : "_ZN7android8hardware5audio4V2_010BpHwDeviceC2ERKNS_2spINS0_7IBinderEEE",
   "parameters" :
   [
    {
     "is_this_ptr" : true,
     "referenced_type" : "type-99"
    },
    {
     "referenced_type" : "type-240"
    }
   ],
   "return_type" : "type-25",
   "source_file" : "/out/soong/.intermediates/hardware/interfaces/audio/2.0/android.hardware.audio@2.0_genc++_headers/gen/android/hardware/audio/2.0/BpHwDevice.h"
  },
  {
   "function_name" : "android::hardware::audio::V2_0::BpHwStream::_hidl_stop",
   "linker_set_key" : "_ZN7android8hardware5audio4V2_010BpHwStream10_hidl_stopEPNS0_10IInterfaceEPNS0_7details16HidlInstrumentorE",
   "parameters" :
   [
    {
     "referenced_type" : "type-207"
    },
    {
     "referenced_type" : "type-1242"
    }
   ],
   "return_type" : "type-611",
   "source_file" : "/out/soong/.intermediates/hardware/interfaces/audio/2.0/android.hardware.audio@2.0_genc++_headers/gen/android/hardware/audio/2.0/BpHwStream.h"
  },
  {
   "function_name" : "android::hardware::audio::V2_0::BpHwStream::_hidl_close",
   "linker_set_key" : "_ZN7android8hardware5audio4V2_010BpHwStream11_hidl_closeEPNS0_10IInterfaceEPNS0_7details16HidlInstrumentorE",
   "parameters" :
   [
    {
     "referenced_type" : "type-207"
    },
    {
     "referenced_type" : "type-1242"
    }
   ],
   "return_type" : "type-611",
   "source_file" : "/out/soong/.intermediates/hardware/interfaces/audio/2.0/android.hardware.audio@2.0_genc++_headers/gen/android/hardware/audio/2.0/BpHwStream.h"
  },
  {
   "function_name" : "android::hardware::audio::V2_0::BpHwStream::_hidl_start",
   "linker_set_key" : "_ZN7android8hardware5audio4V2_010BpHwStream11_hidl_startEPNS0_10IInterfaceEPNS0_7details16HidlInstrumentorE",
   "parameters" :
   [
    {
     "referenced_type" : "type-207"
    },
    {
     "referenced_type" : "type-1242"
    }
   ],
   "return_type" : "type-611",
   "source_file" : "/out/soong/.intermediates/hardware/interfaces/audio/2.0/android.hardware.audio@2.0_genc++_headers/gen/android/hardware/audio/2.0/BpHwStream.h"
  },
  {
   "function_name" : "android::hardware::audio::V2_0::BpHwStream::linkToDeath",
   "linker_set_key" : "_ZN7android8hardware5audio4V2_010BpHwStream11linkToDeathERKNS_2spINS0_20hidl_death_recipientEEEy",
   "parameters" :
   [
    {
     "is_this_ptr" : true,
     "referenced_type" : "type-387"
    },
    {
     "referenced_type" : "type-1988"
    },
    {
     "referenced_type" : "type-7"
    }
   ],
   "return_type" : "type-568",
   "source_file" : "/out/soong/.intermediates/hardware/interfaces/audio/2.0/android.hardware.audio@2.0_genc++_headers/gen/android/hardware/audio/2.0/BpHwStream.h"
  },
  {
   "function_name" : "android::hardware::audio::V2_0::BpHwStream::setHwAvSync",
   "linker_set_key" : "_ZN7android8hardware5audio4V2_010BpHwStream11setHwAvSyncEj",
   "parameters" :
   [
    {
     "is_this_ptr" : true,
     "referenced_type" : "type-387"
    },
    {
     "referenced_type" : "type-2"
    }
   ],
   "return_type" : "type-611",
   "source_file" : "/out/soong/.intermediates/hardware/interfaces/audio/2.0/android.hardware.audio@2.0_genc++_headers/gen/android/hardware/audio/2.0/BpHwStream.h"
  },
  {
   "function_name" : "android::hardware::audio::V2_0::BpHwStream::getDebugInfo",
   "linker_set_key" : "_ZN7android8hardware5audio4V2_010BpHwStream12getDebugInfoENSt3__18functionIFvRKNS_4hidl4base4V1_09DebugInfoEEEE",
   "parameters" :
   [
    {
     "is_this_ptr" : true,
     "referenced_type" : "type-387"
    },
    {
     "referenced_type" : "type-2070"
    }
   ],
   "return_type" : "type-707",
   "source_file" : "/out/soong/.intermediates/hardware/interfaces/audio/2.0/android.hardware.audio@2.0_genc++_headers/gen/android/hardware/audio/2.0/BpHwStream.h"
  },
  {
   "function_name" : "android::hardware::audio::V2_0::BpHwStream::getFrameSize",
   "linker_set_key" : "_ZN7android8hardware5audio4V2_010BpHwStream12getFrameSizeEv",
   "parameters" :
   [
    {
     "is_this_ptr" : true,
     "referenced_type" : "type-387"
    }
   ],
   "return_type" : "type-402",
   "source_file" : "/out/soong/.intermediates/hardware/interfaces/audio/2.0/android.hardware.audio@2.0_genc++_headers/gen/android/hardware/audio/2.0/BpHwStream.h"
  },
  {
   "function_name" : "android::hardware::audio::V2_0::BpHwStream::getHashChain",
   "linker_set_key" : "_ZN7android8hardware5audio4V2_010BpHwStream12getHashChainENSt3__18functionIFvRKNS0_8hidl_vecINS0_10hidl_arrayIhLj32EJEEEEEEEE",
   "parameters" :
   [
    {
     "is_this_ptr" : true,
     "referenced_type" : "type-387"
    },
    {
     "referenced_type" : "type-2071"
    }
   ],
   "return_type" : "type-707",
   "source_file" : "/out/soong/.intermediates/hardware/interfaces/audio/2.0/android.hardware.audio@2.0_genc++_headers/gen/android/hardware/audio/2.0/BpHwStream.h"
  },
  {
   "function_name" : "android::hardware::audio::V2_0::BpHwStream::removeEffect",
   "linker_set_key" : "_ZN7android8hardware5audio4V2_010BpHwStream12removeEffectEy",
   "parameters" :
   [
    {
     "is_this_ptr" : true,
     "referenced_type" : "type-387"
    },
    {
     "referenced_type" : "type-7"
    }
   ],
   "return_type" : "type-611",
   "source_file" : "/out/soong/.intermediates/hardware/interfaces/audio/2.0/android.hardware.audio@2.0_genc++_headers/gen/android/hardware/audio/2.0/BpHwStream.h"
  },
  {
   "function_name" : "android::hardware::audio::V2_0::BpHwStream::_hidl_standby",
   "linker_set_key" : "_ZN7android8hardware5audio4V2_010BpHwStream13_hidl_standbyEPNS0_10IInterfaceEPNS0_7details16HidlInstrumentorE",
   "parameters" :
   [
    {
     "referenced_type" : "type-207"
    },
    {
     "referenced_type" : "type-1242"
    }
   ],
   "return_type" : "type-611",
   "source_file" : "/out/soong/.intermediates/hardware/interfaces/audio/2.0/android.hardware.audio@2.0_genc++_headers/gen/android/hardware/audio/2.0/BpHwStream.h"
  },
  {
   "function_name" : "android::hardware::audio::V2_0::BpHwStream::getBufferSize",
   "linker_set_key" : "_ZN7android8hardware5audio4V2_010BpHwStream13getBufferSizeEv",
   "parameters" :
   [
    {
     "is_this_ptr" : true,
     "referenced_type" : "type-387"
    }
   ],
   "return_type" : "type-402",
   "source_file" : "/out/soong/.intermediates/hardware/interfaces/audio/2.0/android.hardware.audio@2.0_genc++_headers/gen/android/hardware/audio/2.0/BpHwStream.h"
  },
  {
   "function_name" : "android::hardware::audio::V2_0::BpHwStream::getFrameCount",
   "linker_set_key" : "_ZN7android8hardware5audio4V2_010BpHwStream13getFrameCountEv",
   "parameters" :
   [
    {
     "is_this_ptr" : true,
     "referenced_type" : "type-387"
    }
   ],
   "return_type" : "type-402",
   "source_file" : "/out/soong/.intermediates/hardware/interfaces/audio/2.0/android.hardware.audio@2.0_genc++_headers/gen/android/hardware/audio/2.0/BpHwStream.h"
  },
  {
   "function_name" : "android::hardware::audio::V2_0::BpHwStream::getParameters",
   "linker_set_key" : "_ZN7android8hardware5audio4V2_010BpHwStream13getParametersERKNS0_8hidl_vecINS0_11hidl_stringEEENSt3__18functionIFvNS2_6ResultERKNS4_INS2_14ParameterValueEEEEEE",
   "parameters" :
   [
    {
     "is_this_ptr" : true,
     "referenced_type" : "type-387"
    },
    {
     "referenced_type" : "type-1512"
    },
    {
     "referenced_type" : "type-2072"
    }
   ],
   "return_type" : "type-707",
   "source_file" : "/out/soong/.intermediates/hardware/interfaces/audio/2.0/android.hardware.audio@2.0_genc++_headers/gen/android/hardware/audio/2.0/BpHwStream.h"
  },
  {
   "function_name" : "android::hardware::audio::V2_0::BpHwStream::getSampleRate",
   "linker_set_key" : "_ZN7android8hardware5audio4V2_010BpHwStream13getSampleRateEv",
   "parameters" :
   [
    {
     "is_this_ptr" : true,
     "referenced_type" : "type-387"
    }
   ],
   "return_type" : "type-581",
   "source_file" : "/out/soong/.intermediates/hardware/interfaces/audio/2.0/android.hardware.audio@2.0_genc++_headers/gen/android/hardware/audio/2.0/BpHwStream.h"
  },
  {
   "function_name" : "android::hardware::audio::V2_0::BpHwStream::setParameters",
   "linker_set_key" : "_ZN7android8hardware5audio4V2_010BpHwStream13setParametersERKNS0_8hidl_vecINS2_14ParameterValueEEE",
   "parameters" :
   [
    {
     "is_this_ptr" : true,
     "referenced_type" : "type-387"
    },
    {
     "referenced_type" : "type-1508"
    }
   ],
   "return_type" : "type-611",
   "source_file" : "/out/soong/.intermediates/hardware/interfaces/audio/2.0/android.hardware.audio@2.0_genc++_headers/gen/android/hardware/audio/2.0/BpHwStream.h"
  },
  {
   "function_name" : "android::hardware::audio::V2_0::BpHwStream::setSampleRate",
   "linker_set_key" : "_ZN7android8hardware5audio4V2_010BpHwStream13setSampleRateEj",
   "parameters" :
   [
    {
     "is_this_ptr" : true,
     "referenced_type" : "type-387"
    },
    {
     "referenced_type" : "type-2"
    }
   ],
   "return_type" : "type-611",
   "source_file" : "/out/soong/.intermediates/hardware/interfaces/audio/2.0/android.hardware.audio@2.0_genc++_headers/gen/android/hardware/audio/2.0/BpHwStream.h"
  },
  {
   "function_name" : "android::hardware::audio::V2_0::BpHwStream::unlinkToDeath",
   "linker_set_key" : "_ZN7android8hardware5audio4V2_010BpHwStream13unlinkToDeathERKNS_2spINS0_20hidl_death_recipientEEE",
   "parameters" :
   [
    {
     "is_this_ptr" : true,
     "referenced_type" : "type-387"
    },
    {
     "referenced_type" : "type-1988"
    }
   ],
   "return_type" : "type-568",
   "source_file" : "/out/soong/.intermediates/hardware/interfaces/audio/2.0/android.hardware.audio@2.0_genc++_headers/gen/android/hardware/audio/2.0/BpHwStream.h"
  },
  {
   "function_name" : "android::hardware::audio::V2_0::BpHwStream::getChannelMask",
   "linker_set_key" : "_ZN7android8hardware5audio4V2_010BpHwStream14getChannelMaskEv",
   "parameters" :
   [
    {
     "is_this_ptr" : true,
     "referenced_type" : "type-387"
    }
   ],
   "return_type" : "type-408",
   "source_file" : "/out/soong/.intermediates/hardware/interfaces/audio/2.0/android.hardware.audio@2.0_genc++_headers/gen/android/hardware/audio/2.0/BpHwStream.h"
  },
  {
   "function_name" : "android::hardware::audio::V2_0::BpHwStream::interfaceChain",
   "linker_set_key" : "_ZN7android8hardware5audio4V2_010BpHwStream14interfaceChainENSt3__18functionIFvRKNS0_8hidl_vecINS0_11hidl_stringEEEEEE",
   "parameters" :
   [
    {
     "is_this_ptr" : true,
     "referenced_type" : "type-387"
    },
    {
     "referenced_type" : "type-2073"
    }
   ],
   "return_type" : "type-707",
   "source_file" : "/out/soong/.intermediates/hardware/interfaces/audio/2.0/android.hardware.audio@2.0_genc++_headers/gen/android/hardware/audio/2.0/BpHwStream.h"
  },
  {
   "function_name" : "android::hardware::audio::V2_0::BpHwStream::setChannelMask",
   "linker_set_key" : "_ZN7android8hardware5audio4V2_010BpHwStream14setChannelMaskENS1_6common4V2_016AudioChannelMaskE",
   "parameters" :
   [
    {
     "is_this_ptr" : true,
     "referenced_type" : "type-387"
    },
    {
     "referenced_type" : "type-409"
    }
   ],
   "return_type" : "type-611",
   "source_file" : "/out/soong/.intermediates/hardware/interfaces/audio/2.0/android.hardware.audio@2.0_genc++_headers/gen/android/hardware/audio/2.0/BpHwStream.h"
  },
  {
   "function_name" : "android::hardware::audio::V2_0::BpHwStream::_hidl_addEffect",
   "linker_set_key" : "_ZN7android8hardware5audio4V2_010BpHwStream15_hidl_addEffectEPNS0_10IInterfaceEPNS0_7details16HidlInstrumentorEy",
   "parameters" :
   [
    {
     "referenced_type" : "type-207"
    },
    {
     "referenced_type" : "type-1242"
    },
    {
     "referenced_type" : "type-7"
    }
   ],
   "return_type" : "type-611",
   "source_file" : "/out/soong/.intermediates/hardware/interfaces/audio/2.0/android.hardware.audio@2.0_genc++_headers/gen/android/hardware/audio/2.0/BpHwStream.h"
  },
  {
   "function_name" : "android::hardware::audio::V2_0::BpHwStream::_hidl_debugDump",
   "linker_set_key" : "_ZN7android8hardware5audio4V2_010BpHwStream15_hidl_debugDumpEPNS0_10IInterfaceEPNS0_7details16HidlInstrumentorERKNS0_11hidl_handleE",
   "parameters" :
   [
    {
     "referenced_type" : "type-207"
    },
    {
     "referenced_type" : "type-1242"
    },
    {
     "referenced_type" : "type-1389"
    }
   ],
   "return_type" : "type-707",
   "source_file" : "/out/soong/.intermediates/hardware/interfaces/audio/2.0/android.hardware.audio@2.0_genc++_headers/gen/android/hardware/audio/2.0/BpHwStream.h"
  },
  {
   "function_name" : "android::hardware::audio::V2_0::BpHwStream::_hidl_getDevice",
   "linker_set_key" : "_ZN7android8hardware5audio4V2_010BpHwStream15_hidl_getDeviceEPNS0_10IInterfaceEPNS0_7details16HidlInstrumentorE",
   "parameters" :
   [
    {
     "referenced_type" : "type-207"
    },
    {
     "referenced_type" : "type-1242"
    }
   ],
   "return_type" : "type-423",
   "source_file" : "/out/soong/.intermediates/hardware/interfaces/audio/2.0/android.hardware.audio@2.0_genc++_headers/gen/android/hardware/audio/2.0/BpHwStream.h"
  },
  {
   "function_name" : "android::hardware::audio::V2_0::BpHwStream::_hidl_getFormat",
   "linker_set_key" : "_ZN7android8hardware5audio4V2_010BpHwStream15_hidl_getFormatEPNS0_10IInterfaceEPNS0_7details16HidlInstrumentorE",
   "parameters" :
   [
    {
     "referenced_type" : "type-207"
    },
    {
     "referenced_type" : "type-1242"
    }
   ],
   "return_type" : "type-415",
   "source_file" : "/out/soong/.intermediates/hardware/interfaces/audio/2.0/android.hardware.audio@2.0_genc++_headers/gen/android/hardware/audio/2.0/BpHwStream.h"
  },
  {
   "function_name" : "android::hardware::audio::V2_0::BpHwStream::_hidl_setDevice",
   "linker_set_key" : "_ZN7android8hardware5audio4V2_010BpHwStream15_hidl_setDeviceEPNS0_10IInterfaceEPNS0_7details16HidlInstrumentorERKNS2_13DeviceAddressE",
   "parameters" :
   [
    {
     "referenced_type" : "type-207"
    },
    {
     "referenced_type" : "type-1242"
    },
    {
     "referenced_type" : "type-1978"
    }
   ],
   "return_type" : "type-611",
   "source_file" : "/out/soong/.intermediates/hardware/interfaces/audio/2.0/android.hardware.audio@2.0_genc++_headers/gen/android/hardware/audio/2.0/BpHwStream.h"
  },
  {
   "function_name" : "android::hardware::audio::V2_0::BpHwStream::_hidl_setFormat",
   "linker_set_key" : "_ZN7android8hardware5audio4V2_010BpHwStream15_hidl_setFormatEPNS0_10IInterfaceEPNS0_7details16HidlInstrumentorENS1_6common4V2_011AudioFormatE",
   "parameters" :
   [
    {
     "referenced_type" : "type-207"
    },
    {
     "referenced_type" : "type-1242"
    },
    {
     "referenced_type" : "type-416"
    }
   ],
   "return_type" : "type-611",
   "source_file" : "/out/soong/.intermediates/hardware/interfaces/audio/2.0/android.hardware.audio@2.0_genc++_headers/gen/android/hardware/audio/2.0/BpHwStream.h"
  },
  {
   "function_name" : "android::hardware::audio::V2_0::BpHwStream::getMmapPosition",
   "linker_set_key" : "_ZN7android8hardware5audio4V2_010BpHwStream15getMmapPositionENSt3__18functionIFvNS2_6ResultERKNS2_12MmapPositionEEEE",
   "parameters" :
   [
    {
     "is_this_ptr" : true,
     "referenced_type" : "type-387"
    },
    {
     "referenced_type" : "type-2074"
    }
   ],
   "return_type" : "type-707",
   "source_file" : "/out/soong/.intermediates/hardware/interfaces/audio/2.0/android.hardware.audio@2.0_genc++_headers/gen/android/hardware/audio/2.0/BpHwStream.h"
  },
  {
   "function_name" : "android::hardware::audio::V2_0::BpHwStream::createMmapBuffer",
   "linker_set_key" : "_ZN7android8hardware5audio4V2_010BpHwStream16createMmapBufferEiNSt3__18functionIFvNS2_6ResultERKNS2_14MmapBufferInfoEEEE",
   "parameters" :
   [
    {
     "is_this_ptr" : true,
     "referenced_type" : "type-387"
    },
    {
     "referenced_type" : "type-22"
    },
    {
     "referenced_type" : "type-2075"
    }
   ],
   "return_type" : "type-707",
   "source_file" : "/out/soong/.intermediates/hardware/interfaces/audio/2.0/android.hardware.audio@2.0_genc++_headers/gen/android/hardware/audio/2.0/BpHwStream.h"
  },
  {
   "function_name" : "android::hardware::audio::V2_0::BpHwStream::_hidl_setHwAvSync",
   "linker_set_key" : "_ZN7android8hardware5audio4V2_010BpHwStream17_hidl_setHwAvSyncEPNS0_10IInterfaceEPNS0_7details16HidlInstrumentorEj",
   "parameters" :
   [
    {
     "referenced_type" : "type-207"
    },
    {
     "referenced_type" : "type-1242"
    },
    {
     "referenced_type" : "type-2"
    }
   ],
   "return_type" : "type-611",
   "source_file" : "/out/soong/.intermediates/hardware/interfaces/audio/2.0/android.hardware.audio@2.0_genc++_headers/gen/android/hardware/audio/2.0/BpHwStream.h"
  },
  {
   "function_name" : "android::hardware::audio::V2_0::BpHwStream::setConnectedState",
   "linker_set_key" : "_ZN7android8hardware5audio4V2_010BpHwStream17setConnectedStateERKNS2_13DeviceAddressEb",
   "parameters" :
   [
    {
     "is_this_ptr" : true,
     "referenced_type" : "type-387"
    },
    {
     "referenced_type" : "type-1978"
    },
    {
     "referenced_type" : "type-29"
    }
   ],
   "return_type" : "type-611",
   "source_file" : "/out/soong/.intermediates/hardware/interfaces/audio/2.0/android.hardware.audio@2.0_genc++_headers/gen/android/hardware/audio/2.0/BpHwStream.h"
  },
  {
   "function_name" : "android::hardware::audio::V2_0::BpHwStream::_hidl_getFrameSize",
   "linker_set_key" : "_ZN7android8hardware5audio4V2_010BpHwStream18_hidl_getFrameSizeEPNS0_10IInterfaceEPNS0_7details16HidlInstrumentorE",
   "parameters" :
   [
    {
     "referenced_type" : "type-207"
    },
    {
     "referenced_type" : "type-1242"
    }
   ],
   "return_type" : "type-402",
   "source_file" : "/out/soong/.intermediates/hardware/interfaces/audio/2.0/android.hardware.audio@2.0_genc++_headers/gen/android/hardware/audio/2.0/BpHwStream.h"
  },
  {
   "function_name" : "android::hardware::audio::V2_0::BpHwStream::_hidl_removeEffect",
   "linker_set_key" : "_ZN7android8hardware5audio4V2_010BpHwStream18_hidl_removeEffectEPNS0_10IInterfaceEPNS0_7details16HidlInstrumentorEy",
   "parameters" :
   [
    {
     "referenced_type" : "type-207"
    },
    {
     "referenced_type" : "type-1242"
    },
    {
     "referenced_type" : "type-7"
    }
   ],
   "return_type" : "type-611",
   "source_file" : "/out/soong/.intermediates/hardware/interfaces/audio/2.0/android.hardware.audio@2.0_genc++_headers/gen/android/hardware/audio/2.0/BpHwStream.h"
  },
  {
   "function_name" : "android::hardware::audio::V2_0::BpHwStream::getAudioProperties",
   "linker_set_key" : "_ZN7android8hardware5audio4V2_010BpHwStream18getAudioPropertiesENSt3__18functionIFvjNS1_6common4V2_016AudioChannelMaskENS7_11AudioFormatEEEE",
   "parameters" :
   [
    {
     "is_this_ptr" : true,
     "referenced_type" : "type-387"
    },
    {
     "referenced_type" : "type-2076"
    }
   ],
   "return_type" : "type-707",
   "source_file" : "/out/soong/.intermediates/hardware/interfaces/audio/2.0/android.hardware.audio@2.0_genc++_headers/gen/android/hardware/audio/2.0/BpHwStream.h"
  },
  {
   "function_name" : "android::hardware::audio::V2_0::BpHwStream::_hidl_getBufferSize",
   "linker_set_key" : "_ZN7android8hardware5audio4V2_010BpHwStream19_hidl_getBufferSizeEPNS0_10IInterfaceEPNS0_7details16HidlInstrumentorE",
   "parameters" :
   [
    {
     "referenced_type" : "type-207"
    },
    {
     "referenced_type" : "type-1242"
    }
   ],
   "return_type" : "type-402",
   "source_file" : "/out/soong/.intermediates/hardware/interfaces/audio/2.0/android.hardware.audio@2.0_genc++_headers/gen/android/hardware/audio/2.0/BpHwStream.h"
  },
  {
   "function_name" : "android::hardware::audio::V2_0::BpHwStream::_hidl_getFrameCount",
   "linker_set_key" : "_ZN7android8hardware5audio4V2_010BpHwStream19_hidl_getFrameCountEPNS0_10IInterfaceEPNS0_7details16HidlInstrumentorE",
   "parameters" :
   [
    {
     "referenced_type" : "type-207"
    },
    {
     "referenced_type" : "type-1242"
    }
   ],
   "return_type" : "type-402",
   "source_file" : "/out/soong/.intermediates/hardware/interfaces/audio/2.0/android.hardware.audio@2.0_genc++_headers/gen/android/hardware/audio/2.0/BpHwStream.h"
  },
  {
   "function_name" : "android::hardware::audio::V2_0::BpHwStream::_hidl_getParameters",
   "linker_set_key" : "_ZN7android8hardware5audio4V2_010BpHwStream19_hidl_getParametersEPNS0_10IInterfaceEPNS0_7details16HidlInstrumentorERKNS0_8hidl_vecINS0_11hidl_stringEEENSt3__18functionIFvNS2_6ResultERKNS9_INS2_14ParameterValueEEEEEE",
   "parameters" :
   [
    {
     "referenced_type" : "type-207"
    },
    {
     "referenced_type" : "type-1242"
    },
    {
     "referenced_type" : "type-1512"
    },
    {
     "referenced_type" : "type-2077"
    }
   ],
   "return_type" : "type-707",
   "source_file" : "/out/soong/.intermediates/hardware/interfaces/audio/2.0/android.hardware.audio@2.0_genc++_headers/gen/android/hardware/audio/2.0/BpHwStream.h"
  },
  {
   "function_name" : "android::hardware::audio::V2_0::BpHwStream::_hidl_getSampleRate",
   "linker_set_key" : "_ZN7android8hardware5audio4V2_010BpHwStream19_hidl_getSampleRateEPNS0_10IInterfaceEPNS0_7details16HidlInstrumentorE",
   "parameters" :
   [
    {
     "referenced_type" : "type-207"
    },
    {
     "referenced_type" : "type-1242"
    }
   ],
   "return_type" : "type-581",
   "source_file" : "/out/soong/.intermediates/hardware/interfaces/audio/2.0/android.hardware.audio@2.0_genc++_headers/gen/android/hardware/audio/2.0/BpHwStream.h"
  },
  {
   "function_name" : "android::hardware::audio::V2_0::BpHwStream::_hidl_setParameters",
   "linker_set_key" : "_ZN7android8hardware5audio4V2_010BpHwStream19_hidl_setParametersEPNS0_10IInterfaceEPNS0_7details16HidlInstrumentorERKNS0_8hidl_vecINS2_14ParameterValueEEE",
   "parameters" :
   [
    {
     "referenced_type" : "type-207"
    },
    {
     "referenced_type" : "type-1242"
    },
    {
     "referenced_type" : "type-1508"
    }
   ],
   "return_type" : "type-611",
   "source_file" : "/out/soong/.intermediates/hardware/interfaces/audio/2.0/android.hardware.audio@2.0_genc++_headers/gen/android/hardware/audio/2.0/BpHwStream.h"
  },
  {
   "function_name" : "android::hardware::audio::V2_0::BpHwStream::_hidl_setSampleRate",
   "linker_set_key" : "_ZN7android8hardware5audio4V2_010BpHwStream19_hidl_setSampleRateEPNS0_10IInterfaceEPNS0_7details16HidlInstrumentorEj",
   "parameters" :
   [
    {
     "referenced_type" : "type-207"
    },
    {
     "referenced_type" : "type-1242"
    },
    {
     "referenced_type" : "type-2"
    }
   ],
   "return_type" : "type-611",
   "source_file" : "/out/soong/.intermediates/hardware/interfaces/audio/2.0/android.hardware.audio@2.0_genc++_headers/gen/android/hardware/audio/2.0/BpHwStream.h"
  },
  {
   "function_name" : "android::hardware::audio::V2_0::BpHwStream::getSupportedFormats",
   "linker_set_key" : "_ZN7android8hardware5audio4V2_010BpHwStream19getSupportedFormatsENSt3__18functionIFvRKNS0_8hidl_vecINS1_6common4V2_011AudioFormatEEEEEE",
   "parameters" :
   [
    {
     "is_this_ptr" : true,
     "referenced_type" : "type-387"
    },
    {
     "referenced_type" : "type-2078"
    }
   ],
   "return_type" : "type-707",
   "source_file" : "/out/soong/.intermediates/hardware/interfaces/audio/2.0/android.hardware.audio@2.0_genc++_headers/gen/android/hardware/audio/2.0/BpHwStream.h"
  },
  {
   "function_name" : "android::hardware::audio::V2_0::BpHwStream::interfaceDescriptor",
   "linker_set_key" : "_ZN7android8hardware5audio4V2_010BpHwStream19interfaceDescriptorENSt3__18functionIFvRKNS0_11hidl_stringEEEE",
   "parameters" :
   [
    {
     "is_this_ptr" : true,
     "referenced_type" : "type-387"
    },
    {
     "referenced_type" : "type-2079"
    }
   ],
   "return_type" : "type-707",
   "source_file" : "/out/soong/.intermediates/hardware/interfaces/audio/2.0/android.hardware.audio@2.0_genc++_headers/gen/android/hardware/audio/2.0/BpHwStream.h"
  },
  {
   "function_name" : "android::hardware::audio::V2_0::BpHwStream::_hidl_getChannelMask",
   "linker_set_key" : "_ZN7android8hardware5audio4V2_010BpHwStream20_hidl_getChannelMaskEPNS0_10IInterfaceEPNS0_7details16HidlInstrumentorE",
   "parameters" :
   [
    {
     "referenced_type" : "type-207"
    },
    {
     "referenced_type" : "type-1242"
    }
   ],
   "return_type" : "type-408",
   "source_file" : "/out/soong/.intermediates/hardware/interfaces/audio/2.0/android.hardware.audio@2.0_genc++_headers/gen/android/hardware/audio/2.0/BpHwStream.h"
  },
  {
   "function_name" : "android::hardware::audio::V2_0::BpHwStream::_hidl_setChannelMask",
   "linker_set_key" : "_ZN7android8hardware5audio4V2_010BpHwStream20_hidl_setChannelMaskEPNS0_10IInterfaceEPNS0_7details16HidlInstrumentorENS1_6common4V2_016AudioChannelMaskE",
   "parameters" :
   [
    {
     "referenced_type" : "type-207"
    },
    {
     "referenced_type" : "type-1242"
    },
    {
     "referenced_type" : "type-409"
    }
   ],
   "return_type" : "type-611",
   "source_file" : "/out/soong/.intermediates/hardware/interfaces/audio/2.0/android.hardware.audio@2.0_genc++_headers/gen/android/hardware/audio/2.0/BpHwStream.h"
  },
  {
   "function_name" : "android::hardware::audio::V2_0::BpHwStream::_hidl_getMmapPosition",
   "linker_set_key" : "_ZN7android8hardware5audio4V2_010BpHwStream21_hidl_getMmapPositionEPNS0_10IInterfaceEPNS0_7details16HidlInstrumentorENSt3__18functionIFvNS2_6ResultERKNS2_12MmapPositionEEEE",
   "parameters" :
   [
    {
     "referenced_type" : "type-207"
    },
    {
     "referenced_type" : "type-1242"
    },
    {
     "referenced_type" : "type-2080"
    }
   ],
   "return_type" : "type-707",
   "source_file" : "/out/soong/.intermediates/hardware/interfaces/audio/2.0/android.hardware.audio@2.0_genc++_headers/gen/android/hardware/audio/2.0/BpHwStream.h"
  },
  {
   "function_name" : "android::hardware::audio::V2_0::BpHwStream::notifySyspropsChanged",
   "linker_set_key" : "_ZN7android8hardware5audio4V2_010BpHwStream21notifySyspropsChangedEv",
   "parameters" :
   [
    {
     "is_this_ptr" : true,
     "referenced_type" : "type-387"
    }
   ],
   "return_type" : "type-707",
   "source_file" : "/out/soong/.intermediates/hardware/interfaces/audio/2.0/android.hardware.audio@2.0_genc++_headers/gen/android/hardware/audio/2.0/BpHwStream.h"
  },
  {
   "function_name" : "android::hardware::audio::V2_0::BpHwStream::setHALInstrumentation",
   "linker_set_key" : "_ZN7android8hardware5audio4V2_010BpHwStream21setHALInstrumentationEv",
   "parameters" :
   [
    {
     "is_this_ptr" : true,
     "referenced_type" : "type-387"
    }
   ],
   "return_type" : "type-707",
   "source_file" : "/out/soong/.intermediates/hardware/interfaces/audio/2.0/android.hardware.audio@2.0_genc++_headers/gen/android/hardware/audio/2.0/BpHwStream.h"
  },
  {
   "function_name" : "android::hardware::audio::V2_0::BpHwStream::_hidl_createMmapBuffer",
   "linker_set_key" : "_ZN7android8hardware5audio4V2_010BpHwStream22_hidl_createMmapBufferEPNS0_10IInterfaceEPNS0_7details16HidlInstrumentorEiNSt3__18functionIFvNS2_6ResultERKNS2_14MmapBufferInfoEEEE",
   "parameters" :
   [
    {
     "referenced_type" : "type-207"
    },
    {
     "referenced_type" : "type-1242"
    },
    {
     "referenced_type" : "type-22"
    },
    {
     "referenced_type" : "type-2081"
    }
   ],
   "return_type" : "type-707",
   "source_file" : "/out/soong/.intermediates/hardware/interfaces/audio/2.0/android.hardware.audio@2.0_genc++_headers/gen/android/hardware/audio/2.0/BpHwStream.h"
  },
  {
   "function_name" : "android::hardware::audio::V2_0::BpHwStream::_hidl_setConnectedState",
   "linker_set_key" : "_ZN7android8hardware5audio4V2_010BpHwStream23_hidl_setConnectedStateEPNS0_10IInterfaceEPNS0_7details16HidlInstrumentorERKNS2_13DeviceAddressEb",
   "parameters" :
   [
    {
     "referenced_type" : "type-207"
    },
    {
     "referenced_type" : "type-1242"
    },
    {
     "referenced_type" : "type-1978"
    },
    {
     "referenced_type" : "type-29"
    }
   ],
   "return_type" : "type-611",
   "source_file" : "/out/soong/.intermediates/hardware/interfaces/audio/2.0/android.hardware.audio@2.0_genc++_headers/gen/android/hardware/audio/2.0/BpHwStream.h"
  },
  {
   "function_name" : "android::hardware::audio::V2_0::BpHwStream::getSupportedSampleRates",
   "linker_set_key" : "_ZN7android8hardware5audio4V2_010BpHwStream23getSupportedSampleRatesENSt3__18functionIFvRKNS0_8hidl_vecIjEEEEE",
   "parameters" :
   [
    {
     "is_this_ptr" : true,
     "referenced_type" : "type-387"
    },
    {
     "referenced_type" : "type-2082"
    }
   ],
   "return_type" : "type-707",
   "source_file" : "/out/soong/.intermediates/hardware/interfaces/audio/2.0/android.hardware.audio@2.0_genc++_headers/gen/android/hardware/audio/2.0/BpHwStream.h"
  },
  {
   "function_name" : "android::hardware::audio::V2_0::BpHwStream::_hidl_getAudioProperties",
   "linker_set_key" : "_ZN7android8hardware5audio4V2_010BpHwStream24_hidl_getAudioPropertiesEPNS0_10IInterfaceEPNS0_7details16HidlInstrumentorENSt3__18functionIFvjNS1_6common4V2_016AudioChannelMaskENSC_11AudioFormatEEEE",
   "parameters" :
   [
    {
     "referenced_type" : "type-207"
    },
    {
     "referenced_type" : "type-1242"
    },
    {
     "referenced_type" : "type-2083"
    }
   ],
   "return_type" : "type-707",
   "source_file" : "/out/soong/.intermediates/hardware/interfaces/audio/2.0/android.hardware.audio@2.0_genc++_headers/gen/android/hardware/audio/2.0/BpHwStream.h"
  },
  {
   "function_name" : "android::hardware::audio::V2_0::BpHwStream::getSupportedChannelMasks",
   "linker_set_key" : "_ZN7android8hardware5audio4V2_010BpHwStream24getSupportedChannelMasksENSt3__18functionIFvRKNS0_8hidl_vecINS1_6common4V2_016AudioChannelMaskEEEEEE",
   "parameters" :
   [
    {
     "is_this_ptr" : true,
     "referenced_type" : "type-387"
    },
    {
     "referenced_type" : "type-2084"
    }
   ],
   "return_type" : "type-707",
   "source_file" : "/out/soong/.intermediates/hardware/interfaces/audio/2.0/android.hardware.audio@2.0_genc++_headers/gen/android/hardware/audio/2.0/BpHwStream.h"
  },
  {
   "function_name" : "android::hardware::audio::V2_0::BpHwStream::_hidl_getSupportedFormats",
   "linker_set_key" : "_ZN7android8hardware5audio4V2_010BpHwStream25_hidl_getSupportedFormatsEPNS0_10IInterfaceEPNS0_7details16HidlInstrumentorENSt3__18functionIFvRKNS0_8hidl_vecINS1_6common4V2_011AudioFormatEEEEEE",
   "parameters" :
   [
    {
     "referenced_type" : "type-207"
    },
    {
     "referenced_type" : "type-1242"
    },
    {
     "referenced_type" : "type-2085"
    }
   ],
   "return_type" : "type-707",
   "source_file" : "/out/soong/.intermediates/hardware/interfaces/audio/2.0/android.hardware.audio@2.0_genc++_headers/gen/android/hardware/audio/2.0/BpHwStream.h"
  },
  {
   "function_name" : "android::hardware::audio::V2_0::BpHwStream::_hidl_getSupportedSampleRates",
   "linker_set_key" : "_ZN7android8hardware5audio4V2_010BpHwStream29_hidl_getSupportedSampleRatesEPNS0_10IInterfaceEPNS0_7details16HidlInstrumentorENSt3__18functionIFvRKNS0_8hidl_vecIjEEEEE",
   "parameters" :
   [
    {
     "referenced_type" : "type-207"
    },
    {
     "referenced_type" : "type-1242"
    },
    {
     "referenced_type" : "type-2086"
    }
   ],
   "return_type" : "type-707",
   "source_file" : "/out/soong/.intermediates/hardware/interfaces/audio/2.0/android.hardware.audio@2.0_genc++_headers/gen/android/hardware/audio/2.0/BpHwStream.h"
  },
  {
   "function_name" : "android::hardware::audio::V2_0::BpHwStream::_hidl_getSupportedChannelMasks",
   "linker_set_key" : "_ZN7android8hardware5audio4V2_010BpHwStream30_hidl_getSupportedChannelMasksEPNS0_10IInterfaceEPNS0_7details16HidlInstrumentorENSt3__18functionIFvRKNS0_8hidl_vecINS1_6common4V2_016AudioChannelMaskEEEEEE",
   "parameters" :
   [
    {
     "referenced_type" : "type-207"
    },
    {
     "referenced_type" : "type-1242"
    },
    {
     "referenced_type" : "type-2087"
    }
   ],
   "return_type" : "type-707",
   "source_file" : "/out/soong/.intermediates/hardware/interfaces/audio/2.0/android.hardware.audio@2.0_genc++_headers/gen/android/hardware/audio/2.0/BpHwStream.h"
  },
  {
   "function_name" : "android::hardware::audio::V2_0::BpHwStream::ping",
   "linker_set_key" : "_ZN7android8hardware5audio4V2_010BpHwStream4pingEv",
   "parameters" :
   [
    {
     "is_this_ptr" : true,
     "referenced_type" : "type-387"
    }
   ],
   "return_type" : "type-707",
   "source_file" : "/out/soong/.intermediates/hardware/interfaces/audio/2.0/android.hardware.audio@2.0_genc++_headers/gen/android/hardware/audio/2.0/BpHwStream.h"
  },
  {
   "function_name" : "android::hardware::audio::V2_0::BpHwStream::stop",
   "linker_set_key" : "_ZN7android8hardware5audio4V2_010BpHwStream4stopEv",
   "parameters" :
   [
    {
     "is_this_ptr" : true,
     "referenced_type" : "type-387"
    }
   ],
   "return_type" : "type-611",
   "source_file" : "/out/soong/.intermediates/hardware/interfaces/audio/2.0/android.hardware.audio@2.0_genc++_headers/gen/android/hardware/audio/2.0/BpHwStream.h"
  },
  {
   "function_name" : "android::hardware::audio::V2_0::BpHwStream::close",
   "linker_set_key" : "_ZN7android8hardware5audio4V2_010BpHwStream5closeEv",
   "parameters" :
   [
    {
     "is_this_ptr" : true,
     "referenced_type" : "type-387"
    }
   ],
   "return_type" : "type-611",
   "source_file" : "/out/soong/.intermediates/hardware/interfaces/audio/2.0/android.hardware.audio@2.0_genc++_headers/gen/android/hardware/audio/2.0/BpHwStream.h"
  },
  {
   "function_name" : "android::hardware::audio::V2_0::BpHwStream::debug",
   "linker_set_key" : "_ZN7android8hardware5audio4V2_010BpHwStream5debugERKNS0_11hidl_handleERKNS0_8hidl_vecINS0_11hidl_stringEEE",
   "parameters" :
   [
    {
     "is_this_ptr" : true,
     "referenced_type" : "type-387"
    },
    {
     "referenced_type" : "type-1389"
    },
    {
     "referenced_type" : "type-1512"
    }
   ],
   "return_type" : "type-707",
   "source_file" : "/out/soong/.intermediates/hardware/interfaces/audio/2.0/android.hardware.audio@2.0_genc++_headers/gen/android/hardware/audio/2.0/BpHwStream.h"
  },
  {
   "function_name" : "android::hardware::audio::V2_0::BpHwStream::start",
   "linker_set_key" : "_ZN7android8hardware5audio4V2_010BpHwStream5startEv",
   "parameters" :
   [
    {
     "is_this_ptr" : true,
     "referenced_type" : "type-387"
    }
   ],
   "return_type" : "type-611",
   "source_file" : "/out/soong/.intermediates/hardware/interfaces/audio/2.0/android.hardware.audio@2.0_genc++_headers/gen/android/hardware/audio/2.0/BpHwStream.h"
  },
  {
   "function_name" : "android::hardware::audio::V2_0::BpHwStream::standby",
   "linker_set_key" : "_ZN7android8hardware5audio4V2_010BpHwStream7standbyEv",
   "parameters" :
   [
    {
     "is_this_ptr" : true,
     "referenced_type" : "type-387"
    }
   ],
   "return_type" : "type-611",
   "source_file" : "/out/soong/.intermediates/hardware/interfaces/audio/2.0/android.hardware.audio@2.0_genc++_headers/gen/android/hardware/audio/2.0/BpHwStream.h"
  },
  {
   "function_name" : "android::hardware::audio::V2_0::BpHwStream::addEffect",
   "linker_set_key" : "_ZN7android8hardware5audio4V2_010BpHwStream9addEffectEy",
   "parameters" :
   [
    {
     "is_this_ptr" : true,
     "referenced_type" : "type-387"
    },
    {
     "referenced_type" : "type-7"
    }
   ],
   "return_type" : "type-611",
   "source_file" : "/out/soong/.intermediates/hardware/interfaces/audio/2.0/android.hardware.audio@2.0_genc++_headers/gen/android/hardware/audio/2.0/BpHwStream.h"
  },
  {
   "function_name" : "android::hardware::audio::V2_0::BpHwStream::debugDump",
   "linker_set_key" : "_ZN7android8hardware5audio4V2_010BpHwStream9debugDumpERKNS0_11hidl_handleE",
   "parameters" :
   [
    {
     "is_this_ptr" : true,
     "referenced_type" : "type-387"
    },
    {
     "referenced_type" : "type-1389"
    }
   ],
   "return_type" : "type-707",
   "source_file" : "/out/soong/.intermediates/hardware/interfaces/audio/2.0/android.hardware.audio@2.0_genc++_headers/gen/android/hardware/audio/2.0/BpHwStream.h"
  },
  {
   "function_name" : "android::hardware::audio::V2_0::BpHwStream::getDevice",
   "linker_set_key" : "_ZN7android8hardware5audio4V2_010BpHwStream9getDeviceEv",
   "parameters" :
   [
    {
     "is_this_ptr" : true,
     "referenced_type" : "type-387"
    }
   ],
   "return_type" : "type-423",
   "source_file" : "/out/soong/.intermediates/hardware/interfaces/audio/2.0/android.hardware.audio@2.0_genc++_headers/gen/android/hardware/audio/2.0/BpHwStream.h"
  },
  {
   "function_name" : "android::hardware::audio::V2_0::BpHwStream::getFormat",
   "linker_set_key" : "_ZN7android8hardware5audio4V2_010BpHwStream9getFormatEv",
   "parameters" :
   [
    {
     "is_this_ptr" : true,
     "referenced_type" : "type-387"
    }
   ],
   "return_type" : "type-415",
   "source_file" : "/out/soong/.intermediates/hardware/interfaces/audio/2.0/android.hardware.audio@2.0_genc++_headers/gen/android/hardware/audio/2.0/BpHwStream.h"
  },
  {
   "function_name" : "android::hardware::audio::V2_0::BpHwStream::setDevice",
   "linker_set_key" : "_ZN7android8hardware5audio4V2_010BpHwStream9setDeviceERKNS2_13DeviceAddressE",
   "parameters" :
   [
    {
     "is_this_ptr" : true,
     "referenced_type" : "type-387"
    },
    {
     "referenced_type" : "type-1978"
    }
   ],
   "return_type" : "type-611",
   "source_file" : "/out/soong/.intermediates/hardware/interfaces/audio/2.0/android.hardware.audio@2.0_genc++_headers/gen/android/hardware/audio/2.0/BpHwStream.h"
  },
  {
   "function_name" : "android::hardware::audio::V2_0::BpHwStream::setFormat",
   "linker_set_key" : "_ZN7android8hardware5audio4V2_010BpHwStream9setFormatENS1_6common4V2_011AudioFormatE",
   "parameters" :
   [
    {
     "is_this_ptr" : true,
     "referenced_type" : "type-387"
    },
    {
     "referenced_type" : "type-416"
    }
   ],
   "return_type" : "type-611",
   "source_file" : "/out/soong/.intermediates/hardware/interfaces/audio/2.0/android.hardware.audio@2.0_genc++_headers/gen/android/hardware/audio/2.0/BpHwStream.h"
  },
  {
   "function_name" : "android::hardware::audio::V2_0::BpHwStream::BpHwStream",
   "linker_set_key" : "_ZN7android8hardware5audio4V2_010BpHwStreamC1ERKNS_2spINS0_7IBinderEEE",
   "parameters" :
   [
    {
     "is_this_ptr" : true,
     "referenced_type" : "type-387"
    },
    {
     "referenced_type" : "type-240"
    }
   ],
   "return_type" : "type-25",
   "source_file" : "/out/soong/.intermediates/hardware/interfaces/audio/2.0/android.hardware.audio@2.0_genc++_headers/gen/android/hardware/audio/2.0/BpHwStream.h"
  },
  {
   "function_name" : "android::hardware::audio::V2_0::BpHwStream::BpHwStream",
   "linker_set_key" : "_ZN7android8hardware5audio4V2_010BpHwStreamC2ERKNS_2spINS0_7IBinderEEE",
   "parameters" :
   [
    {
     "is_this_ptr" : true,
     "referenced_type" : "type-387"
    },
    {
     "referenced_type" : "type-240"
    }
   ],
   "return_type" : "type-25",
   "source_file" : "/out/soong/.intermediates/hardware/interfaces/audio/2.0/android.hardware.audio@2.0_genc++_headers/gen/android/hardware/audio/2.0/BpHwStream.h"
  },
  {
   "access" : "private",
   "function_name" : "android::hardware::audio::V2_0::BsStreamIn::addOnewayTask",
   "linker_set_key" : "_ZN7android8hardware5audio4V2_010BsStreamIn13addOnewayTaskENSt3__18functionIFvvEEE",
   "parameters" :
   [
    {
     "is_this_ptr" : true,
     "referenced_type" : "type-566"
    },
    {
     "referenced_type" : "type-2090"
    }
   ],
   "return_type" : "type-707",
   "source_file" : "/out/soong/.intermediates/hardware/interfaces/audio/2.0/android.hardware.audio@2.0_genc++_headers/gen/android/hardware/audio/2.0/BsStreamIn.h"
  },
  {
   "function_name" : "android::hardware::audio::V2_0::BsStreamIn::BsStreamIn",
   "linker_set_key" : "_ZN7android8hardware5audio4V2_010BsStreamInC1ENS_2spINS2_9IStreamInEEE",
   "parameters" :
   [
    {
     "is_this_ptr" : true,
     "referenced_type" : "type-566"
    },
    {
     "referenced_type" : "type-131"
    }
   ],
   "return_type" : "type-25",
   "source_file" : "/out/soong/.intermediates/hardware/interfaces/audio/2.0/android.hardware.audio@2.0_genc++_headers/gen/android/hardware/audio/2.0/BsStreamIn.h"
  },
  {
   "function_name" : "android::hardware::audio::V2_0::BsStreamIn::BsStreamIn",
   "linker_set_key" : "_ZN7android8hardware5audio4V2_010BsStreamInC2ENS_2spINS2_9IStreamInEEE",
   "parameters" :
   [
    {
     "is_this_ptr" : true,
     "referenced_type" : "type-566"
    },
    {
     "referenced_type" : "type-131"
    }
   ],
   "return_type" : "type-25",
   "source_file" : "/out/soong/.intermediates/hardware/interfaces/audio/2.0/android.hardware.audio@2.0_genc++_headers/gen/android/hardware/audio/2.0/BsStreamIn.h"
  },
  {
   "function_name" : "android::hardware::audio::V2_0::IStreamOut::getService",
   "linker_set_key" : "_ZN7android8hardware5audio4V2_010IStreamOut10getServiceERKNSt3__112basic_stringIcNS4_11char_traitsIcEENS4_9allocatorIcEEEEb",
   "parameters" :
   [
    {
     "default_arg" : true,
     "referenced_type" : "type-829"
    },
    {
     "default_arg" : true,
     "referenced_type" : "type-29"
    }
   ],
   "return_type" : "type-103",
   "source_file" : "/out/soong/.intermediates/hardware/interfaces/audio/2.0/android.hardware.audio@2.0_genc++_headers/gen/android/hardware/audio/2.0/IStreamOut.h"
  },
  {
   "function_name" : "android::hardware::audio::V2_0::IStreamOut::linkToDeath",
   "linker_set_key" : "_ZN7android8hardware5audio4V2_010IStreamOut11linkToDeathERKNS_2spINS0_20hidl_death_recipientEEEy",
   "parameters" :
   [
    {
     "is_this_ptr" : true,
     "referenced_type" : "type-104"
    },
    {
     "referenced_type" : "type-1988"
    },
    {
     "referenced_type" : "type-7"
    }
   ],
   "return_type" : "type-568",
   "source_file" : "/out/soong/.intermediates/hardware/interfaces/audio/2.0/android.hardware.audio@2.0_genc++_headers/gen/android/hardware/audio/2.0/IStreamOut.h"
  },
  {
   "function_name" : "android::hardware::audio::V2_0::IStreamOut::getDebugInfo",
   "linker_set_key" : "_ZN7android8hardware5audio4V2_010IStreamOut12getDebugInfoENSt3__18functionIFvRKNS_4hidl4base4V1_09DebugInfoEEEE",
   "parameters" :
   [
    {
     "is_this_ptr" : true,
     "referenced_type" : "type-104"
    },
    {
     "referenced_type" : "type-2103"
    }
   ],
   "return_type" : "type-707",
   "source_file" : "/out/soong/.intermediates/hardware/interfaces/audio/2.0/android.hardware.audio@2.0_genc++_headers/gen/android/hardware/audio/2.0/IStreamOut.h"
  },
  {
   "function_name" : "android::hardware::audio::V2_0::IStreamOut::getHashChain",
   "linker_set_key" : "_ZN7android8hardware5audio4V2_010IStreamOut12getHashChainENSt3__18functionIFvRKNS0_8hidl_vecINS0_10hidl_arrayIhLj32EJEEEEEEEE",
   "parameters" :
   [
    {
     "is_this_ptr" : true,
     "referenced_type" : "type-104"
    },
    {
     "referenced_type" : "type-2104"
    }
   ],
   "return_type" : "type-707",
   "source_file" : "/out/soong/.intermediates/hardware/interfaces/audio/2.0/android.hardware.audio@2.0_genc++_headers/gen/android/hardware/audio/2.0/IStreamOut.h"
  },
  {
   "function_name" : "android::hardware::audio::V2_0::IStreamOut::tryGetService",
   "linker_set_key" : "_ZN7android8hardware5audio4V2_010IStreamOut13tryGetServiceERKNSt3__112basic_stringIcNS4_11char_traitsIcEENS4_9allocatorIcEEEEb",
   "parameters" :
   [
    {
     "default_arg" : true,
     "referenced_type" : "type-829"
    },
    {
     "default_arg" : true,
     "referenced_type" : "type-29"
    }
   ],
   "return_type" : "type-103",
   "source_file" : "/out/soong/.intermediates/hardware/interfaces/audio/2.0/android.hardware.audio@2.0_genc++_headers/gen/android/hardware/audio/2.0/IStreamOut.h"
  },
  {
   "function_name" : "android::hardware::audio::V2_0::IStreamOut::unlinkToDeath",
   "linker_set_key" : "_ZN7android8hardware5audio4V2_010IStreamOut13unlinkToDeathERKNS_2spINS0_20hidl_death_recipientEEE",
   "parameters" :
   [
    {
     "is_this_ptr" : true,
     "referenced_type" : "type-104"
    },
    {
     "referenced_type" : "type-1988"
    }
   ],
   "return_type" : "type-568",
   "source_file" : "/out/soong/.intermediates/hardware/interfaces/audio/2.0/android.hardware.audio@2.0_genc++_headers/gen/android/hardware/audio/2.0/IStreamOut.h"
  },
  {
   "function_name" : "android::hardware::audio::V2_0::IStreamOut::interfaceChain",
   "linker_set_key" : "_ZN7android8hardware5audio4V2_010IStreamOut14interfaceChainENSt3__18functionIFvRKNS0_8hidl_vecINS0_11hidl_stringEEEEEE",
   "parameters" :
   [
    {
     "is_this_ptr" : true,
     "referenced_type" : "type-104"
    },
    {
     "referenced_type" : "type-2105"
    }
   ],
   "return_type" : "type-707",
   "source_file" : "/out/soong/.intermediates/hardware/interfaces/audio/2.0/android.hardware.audio@2.0_genc++_headers/gen/android/hardware/audio/2.0/IStreamOut.h"
  },
  {
   "function_name" : "android::hardware::audio::V2_0::IStreamOut::registerAsService",
   "linker_set_key" : "_ZN7android8hardware5audio4V2_010IStreamOut17registerAsServiceERKNSt3__112basic_stringIcNS4_11char_traitsIcEENS4_9allocatorIcEEEE",
   "parameters" :
   [
    {
     "is_this_ptr" : true,
     "referenced_type" : "type-104"
    },
    {
     "default_arg" : true,
     "referenced_type" : "type-829"
    }
   ],
   "return_type" : "type-22",
   "source_file" : "/out/soong/.intermediates/hardware/interfaces/audio/2.0/android.hardware.audio@2.0_genc++_headers/gen/android/hardware/audio/2.0/IStreamOut.h"
  },
  {
   "function_name" : "android::hardware::audio::V2_0::IStreamOut::interfaceDescriptor",
   "linker_set_key" : "_ZN7android8hardware5audio4V2_010IStreamOut19interfaceDescriptorENSt3__18functionIFvRKNS0_11hidl_stringEEEE",
   "parameters" :
   [
    {
     "is_this_ptr" : true,
     "referenced_type" : "type-104"
    },
    {
     "referenced_type" : "type-2106"
    }
   ],
   "return_type" : "type-707",
   "source_file" : "/out/soong/.intermediates/hardware/interfaces/audio/2.0/android.hardware.audio@2.0_genc++_headers/gen/android/hardware/audio/2.0/IStreamOut.h"
  },
  {
   "function_name" : "android::hardware::audio::V2_0::IStreamOut::notifySyspropsChanged",
   "linker_set_key" : "_ZN7android8hardware5audio4V2_010IStreamOut21notifySyspropsChangedEv",
   "parameters" :
   [
    {
     "is_this_ptr" : true,
     "referenced_type" : "type-104"
    }
   ],
   "return_type" : "type-707",
   "source_file" : "/out/soong/.intermediates/hardware/interfaces/audio/2.0/android.hardware.audio@2.0_genc++_headers/gen/android/hardware/audio/2.0/IStreamOut.h"
  },
  {
   "function_name" : "android::hardware::audio::V2_0::IStreamOut::setHALInstrumentation",
   "linker_set_key" : "_ZN7android8hardware5audio4V2_010IStreamOut21setHALInstrumentationEv",
   "parameters" :
   [
    {
     "is_this_ptr" : true,
     "referenced_type" : "type-104"
    }
   ],
   "return_type" : "type-707",
   "source_file" : "/out/soong/.intermediates/hardware/interfaces/audio/2.0/android.hardware.audio@2.0_genc++_headers/gen/android/hardware/audio/2.0/IStreamOut.h"
  },
  {
   "function_name" : "android::hardware::audio::V2_0::IStreamOut::registerForNotifications",
   "linker_set_key" : "_ZN7android8hardware5audio4V2_010IStreamOut24registerForNotificationsERKNSt3__112basic_stringIcNS4_11char_traitsIcEENS4_9allocatorIcEEEERKNS_2spINS_4hidl7manager4V1_020IServiceNotificationEEE",
   "parameters" :
   [
    {
     "referenced_type" : "type-829"
    },
    {
     "referenced_type" : "type-1948"
    }
   ],
   "return_type" : "type-29",
   "source_file" : "/out/soong/.intermediates/hardware/interfaces/audio/2.0/android.hardware.audio@2.0_genc++_headers/gen/android/hardware/audio/2.0/IStreamOut.h"
  },
  {
   "function_name" : "android::hardware::audio::V2_0::IStreamOut::ping",
   "linker_set_key" : "_ZN7android8hardware5audio4V2_010IStreamOut4pingEv",
   "parameters" :
   [
    {
     "is_this_ptr" : true,
     "referenced_type" : "type-104"
    }
   ],
   "return_type" : "type-707",
   "source_file" : "/out/soong/.intermediates/hardware/interfaces/audio/2.0/android.hardware.audio@2.0_genc++_headers/gen/android/hardware/audio/2.0/IStreamOut.h"
  },
  {
   "function_name" : "android::hardware::audio::V2_0::IStreamOut::debug",
   "linker_set_key" : "_ZN7android8hardware5audio4V2_010IStreamOut5debugERKNS0_11hidl_handleERKNS0_8hidl_vecINS0_11hidl_stringEEE",
   "parameters" :
   [
    {
     "is_this_ptr" : true,
     "referenced_type" : "type-104"
    },
    {
     "referenced_type" : "type-1389"
    },
    {
     "referenced_type" : "type-1512"
    }
   ],
   "return_type" : "type-707",
   "source_file" : "/out/soong/.intermediates/hardware/interfaces/audio/2.0/android.hardware.audio@2.0_genc++_headers/gen/android/hardware/audio/2.0/IStreamOut.h"
  },
  {
   "function_name" : "android::hardware::audio::V2_0::IStreamOut::castFrom",
   "linker_set_key" : "_ZN7android8hardware5audio4V2_010IStreamOut8castFromERKNS_2spINS2_7IStreamEEEb",
   "parameters" :
   [
    {
     "referenced_type" : "type-392"
    },
    {
     "default_arg" : true,
     "referenced_type" : "type-29"
    }
   ],
   "return_type" : "type-767",
   "source_file" : "/out/soong/.intermediates/hardware/interfaces/audio/2.0/android.hardware.audio@2.0_genc++_headers/gen/android/hardware/audio/2.0/IStreamOut.h"
  },
  {
   "function_name" : "android::hardware::audio::V2_0::IStreamOut::castFrom",
   "linker_set_key" : "_ZN7android8hardware5audio4V2_010IStreamOut8castFromERKNS_2spINS_4hidl4base4V1_05IBaseEEEb",
   "parameters" :
   [
    {
     "referenced_type" : "type-72"
    },
    {
     "default_arg" : true,
     "referenced_type" : "type-29"
    }
   ],
   "return_type" : "type-767",
   "source_file" : "/out/soong/.intermediates/hardware/interfaces/audio/2.0/android.hardware.audio@2.0_genc++_headers/gen/android/hardware/audio/2.0/IStreamOut.h"
  },
  {
   "function_name" : "android::hardware::audio::V2_0::IStreamOut::castFrom",
   "linker_set_key" : "_ZN7android8hardware5audio4V2_010IStreamOut8castFromERKNS_2spIS3_EEb",
   "parameters" :
   [
    {
     "referenced_type" : "type-130"
    },
    {
     "default_arg" : true,
     "referenced_type" : "type-29"
    }
   ],
   "return_type" : "type-767",
   "source_file" : "/out/soong/.intermediates/hardware/interfaces/audio/2.0/android.hardware.audio@2.0_genc++_headers/gen/android/hardware/audio/2.0/IStreamOut.h"
  },
  {
   "access" : "private",
   "function_name" : "android::hardware::audio::V2_0::BsStreamOut::addOnewayTask",
   "linker_set_key" : "_ZN7android8hardware5audio4V2_011BsStreamOut13addOnewayTaskENSt3__18functionIFvvEEE",
   "parameters" :
   [
    {
     "is_this_ptr" : true,
     "referenced_type" : "type-749"
    },
    {
     "referenced_type" : "type-2109"
    }
   ],
   "return_type" : "type-707",
   "source_file" : "/out/soong/.intermediates/hardware/interfaces/audio/2.0/android.hardware.audio@2.0_genc++_headers/gen/android/hardware/audio/2.0/BsStreamOut.h"
  },
  {
   "function_name" : "android::hardware::audio::V2_0::BsStreamOut::BsStreamOut",
   "linker_set_key" : "_ZN7android8hardware5audio4V2_011BsStreamOutC1ENS_2spINS2_10IStreamOutEEE",
   "parameters" :
   [
    {
     "is_this_ptr" : true,
     "referenced_type" : "type-749"
    },
    {
     "referenced_type" : "type-102"
    }
   ],
   "return_type" : "type-25",
   "source_file" : "/out/soong/.intermediates/hardware/interfaces/audio/2.0/android.hardware.audio@2.0_genc++_headers/gen/android/hardware/audio/2.0/BsStreamOut.h"
  },
  {
   "function_name" : "android::hardware::audio::V2_0::BsStreamOut::BsStreamOut",
   "linker_set_key" : "_ZN7android8hardware5audio4V2_011BsStreamOutC2ENS_2spINS2_10IStreamOutEEE",
   "parameters" :
   [
    {
     "is_this_ptr" : true,
     "referenced_type" : "type-749"
    },
    {
     "referenced_type" : "type-102"
    }
   ],
   "return_type" : "type-25",
   "source_file" : "/out/soong/.intermediates/hardware/interfaces/audio/2.0/android.hardware.audio@2.0_genc++_headers/gen/android/hardware/audio/2.0/BsStreamOut.h"
  },
  {
   "function_name" : "android::hardware::audio::V2_0::BnHwStreamIn::onTransact",
   "linker_set_key" : "_ZN7android8hardware5audio4V2_012BnHwStreamIn10onTransactEjRKNS0_6ParcelEPS4_jNSt3__18functionIFvRS4_EEE",
   "parameters" :
   [
    {
     "is_this_ptr" : true,
     "referenced_type" : "type-1960"
    },
    {
     "referenced_type" : "type-2"
    },
    {
     "referenced_type" : "type-1503"
    },
    {
     "referenced_type" : "type-1487"
    },
    {
     "default_arg" : true,
     "referenced_type" : "type-2"
    },
    {
     "default_arg" : true,
     "referenced_type" : "type-2124"
    }
   ],
   "return_type" : "type-22",
   "source_file" : "/out/soong/.intermediates/hardware/interfaces/audio/2.0/android.hardware.audio@2.0_genc++_headers/gen/android/hardware/audio/2.0/BnHwStreamIn.h"
  },
  {
   "access" : "private",
   "function_name" : "android::hardware::audio::V2_0::BnHwStreamIn::getDebugInfo",
   "linker_set_key" : "_ZN7android8hardware5audio4V2_012BnHwStreamIn12getDebugInfoENSt3__18functionIFvRKNS_4hidl4base4V1_09DebugInfoEEEE",
   "parameters" :
   [
    {
     "is_this_ptr" : true,
     "referenced_type" : "type-1960"
    },
    {
     "referenced_type" : "type-2125"
    }
   ],
   "return_type" : "type-707",
   "source_file" : "/out/soong/.intermediates/hardware/interfaces/audio/2.0/android.hardware.audio@2.0_genc++_headers/gen/android/hardware/audio/2.0/BnHwStreamIn.h"
  },
  {
   "function_name" : "android::hardware::audio::V2_0::BnHwStreamIn::_hidl_setGain",
   "linker_set_key" : "_ZN7android8hardware5audio4V2_012BnHwStreamIn13_hidl_setGainEPNS_4hidl4base4V1_08BnHwBaseERKNS0_6ParcelEPS9_NSt3__18functionIFvRS9_EEE",
   "parameters" :
   [
    {
     "referenced_type" : "type-1507"
    },
    {
     "referenced_type" : "type-1503"
    },
    {
     "referenced_type" : "type-1487"
    },
    {
     "referenced_type" : "type-2126"
    }
   ],
   "return_type" : "type-22",
   "source_file" : "/out/soong/.intermediates/hardware/interfaces/audio/2.0/android.hardware.audio@2.0_genc++_headers/gen/android/hardware/audio/2.0/BnHwStreamIn.h"
  },
  {
   "function_name" : "android::hardware::audio::V2_0::BnHwStreamIn::_hidl_getAudioSource",
   "linker_set_key" : "_ZN7android8hardware5audio4V2_012BnHwStreamIn20_hidl_getAudioSourceEPNS_4hidl4base4V1_08BnHwBaseERKNS0_6ParcelEPS9_NSt3__18functionIFvRS9_EEE",
   "parameters" :
   [
    {
     "referenced_type" : "type-1507"
    },
    {
     "referenced_type" : "type-1503"
    },
    {
     "referenced_type" : "type-1487"
    },
    {
     "referenced_type" : "type-2127"
    }
   ],
   "return_type" : "type-22",
   "source_file" : "/out/soong/.intermediates/hardware/interfaces/audio/2.0/android.hardware.audio@2.0_genc++_headers/gen/android/hardware/audio/2.0/BnHwStreamIn.h"
  },
  {
   "function_name" : "android::hardware::audio::V2_0::BnHwStreamIn::_hidl_prepareForReading",
   "linker_set_key" : "_ZN7android8hardware5audio4V2_012BnHwStreamIn23_hidl_prepareForReadingEPNS_4hidl4base4V1_08BnHwBaseERKNS0_6ParcelEPS9_NSt3__18functionIFvRS9_EEE",
   "parameters" :
   [
    {
     "referenced_type" : "type-1507"
    },
    {
     "referenced_type" : "type-1503"
    },
    {
     "referenced_type" : "type-1487"
    },
    {
     "referenced_type" : "type-2128"
    }
   ],
   "return_type" : "type-22",
   "source_file" : "/out/soong/.intermediates/hardware/interfaces/audio/2.0/android.hardware.audio@2.0_genc++_headers/gen/android/hardware/audio/2.0/BnHwStreamIn.h"
  },
  {
   "function_name" : "android::hardware::audio::V2_0::BnHwStreamIn::_hidl_getCapturePosition",
   "linker_set_key" : "_ZN7android8hardware5audio4V2_012BnHwStreamIn24_hidl_getCapturePositionEPNS_4hidl4base4V1_08BnHwBaseERKNS0_6ParcelEPS9_NSt3__18functionIFvRS9_EEE",
   "parameters" :
   [
    {
     "referenced_type" : "type-1507"
    },
    {
     "referenced_type" : "type-1503"
    },
    {
     "referenced_type" : "type-1487"
    },
    {
     "referenced_type" : "type-2129"
    }
   ],
   "return_type" : "type-22",
   "source_file" : "/out/soong/.intermediates/hardware/interfaces/audio/2.0/android.hardware.audio@2.0_genc++_headers/gen/android/hardware/audio/2.0/BnHwStreamIn.h"
  },
  {
   "function_name" : "android::hardware::audio::V2_0::BnHwStreamIn::_hidl_getInputFramesLost",
   "linker_set_key" : "_ZN7android8hardware5audio4V2_012BnHwStreamIn24_hidl_getInputFramesLostEPNS_4hidl4base4V1_08BnHwBaseERKNS0_6ParcelEPS9_NSt3__18functionIFvRS9_EEE",
   "parameters" :
   [
    {
     "referenced_type" : "type-1507"
    },
    {
     "referenced_type" : "type-1503"
    },
    {
     "referenced_type" : "type-1487"
    },
    {
     "referenced_type" : "type-2130"
    }
   ],
   "return_type" : "type-22",
   "source_file" : "/out/soong/.intermediates/hardware/interfaces/audio/2.0/android.hardware.audio@2.0_genc++_headers/gen/android/hardware/audio/2.0/BnHwStreamIn.h"
  },
  {
   "access" : "private",
   "function_name" : "android::hardware::audio::V2_0::BnHwStreamIn::ping",
   "linker_set_key" : "_ZN7android8hardware5audio4V2_012BnHwStreamIn4pingEv",
   "parameters" :
   [
    {
     "is_this_ptr" : true,
     "referenced_type" : "type-1960"
    }
   ],
   "return_type" : "type-707",
   "source_file" : "/out/soong/.intermediates/hardware/interfaces/audio/2.0/android.hardware.audio@2.0_genc++_headers/gen/android/hardware/audio/2.0/BnHwStreamIn.h"
  },
  {
   "function_name" : "android::hardware::audio::V2_0::BnHwStreamIn::BnHwStreamIn",
   "linker_set_key" : "_ZN7android8hardware5audio4V2_012BnHwStreamInC1ERKNS_2spINS2_9IStreamInEEE",
   "parameters" :
   [
    {
     "is_this_ptr" : true,
     "referenced_type" : "type-1960"
    },
    {
     "referenced_type" : "type-153"
    }
   ],
   "return_type" : "type-25",
   "source_file" : "/out/soong/.intermediates/hardware/interfaces/audio/2.0/android.hardware.audio@2.0_genc++_headers/gen/android/hardware/audio/2.0/BnHwStreamIn.h"
  },
  {
   "function_name" : "android::hardware::audio::V2_0::BnHwStreamIn::BnHwStreamIn",
   "linker_set_key" : "_ZN7android8hardware5audio4V2_012BnHwStreamInC2ERKNS_2spINS2_9IStreamInEEE",
   "parameters" :
   [
    {
     "is_this_ptr" : true,
     "referenced_type" : "type-1960"
    },
    {
     "referenced_type" : "type-153"
    }
   ],
   "return_type" : "type-25",
   "source_file" : "/out/soong/.intermediates/hardware/interfaces/audio/2.0/android.hardware.audio@2.0_genc++_headers/gen/android/hardware/audio/2.0/BnHwStreamIn.h"
  },
  {
   "function_name" : "android::hardware::audio::V2_0::BnHwStreamIn::~BnHwStreamIn",
   "linker_set_key" : "_ZN7android8hardware5audio4V2_012BnHwStreamInD0Ev",
   "parameters" :
   [
    {
     "is_this_ptr" : true,
     "referenced_type" : "type-1960"
    }
   ],
   "return_type" : "type-25",
   "source_file" : "/out/soong/.intermediates/hardware/interfaces/audio/2.0/android.hardware.audio@2.0_genc++_headers/gen/android/hardware/audio/2.0/BnHwStreamIn.h"
  },
  {
   "function_name" : "android::hardware::audio::V2_0::BnHwStreamIn::~BnHwStreamIn",
   "linker_set_key" : "_ZN7android8hardware5audio4V2_012BnHwStreamInD1Ev",
   "parameters" :
   [
    {
     "is_this_ptr" : true,
     "referenced_type" : "type-1960"
    }
   ],
   "return_type" : "type-25",
   "source_file" : "/out/soong/.intermediates/hardware/interfaces/audio/2.0/android.hardware.audio@2.0_genc++_headers/gen/android/hardware/audio/2.0/BnHwStreamIn.h"
  },
  {
   "function_name" : "android::hardware::audio::V2_0::BnHwStreamIn::~BnHwStreamIn",
   "linker_set_key" : "_ZN7android8hardware5audio4V2_012BnHwStreamInD2Ev",
   "parameters" :
   [
    {
     "is_this_ptr" : true,
     "referenced_type" : "type-1960"
    }
   ],
   "return_type" : "type-25",
   "source_file" : "/out/soong/.intermediates/hardware/interfaces/audio/2.0/android.hardware.audio@2.0_genc++_headers/gen/android/hardware/audio/2.0/BnHwStreamIn.h"
  },
  {
   "function_name" : "android::hardware::audio::V2_0::BpHwStreamIn::linkToDeath",
   "linker_set_key" : "_ZN7android8hardware5audio4V2_012BpHwStreamIn11linkToDeathERKNS_2spINS0_20hidl_death_recipientEEEy",
   "parameters" :
   [
    {
     "is_this_ptr" : true,
     "referenced_type" : "type-417"
    },
    {
     "referenced_type" : "type-1988"
    },
    {
     "referenced_type" : "type-7"
    }
   ],
   "return_type" : "type-568",
   "source_file" : "/out/soong/.intermediates/hardware/interfaces/audio/2.0/android.hardware.audio@2.0_genc++_headers/gen/android/hardware/audio/2.0/BpHwStreamIn.h"
  },
  {
   "function_name" : "android::hardware::audio::V2_0::BpHwStreamIn::setHwAvSync",
   "linker_set_key" : "_ZN7android8hardware5audio4V2_012BpHwStreamIn11setHwAvSyncEj",
   "parameters" :
   [
    {
     "is_this_ptr" : true,
     "referenced_type" : "type-417"
    },
    {
     "referenced_type" : "type-2"
    }
   ],
   "return_type" : "type-611",
   "source_file" : "/out/soong/.intermediates/hardware/interfaces/audio/2.0/android.hardware.audio@2.0_genc++_headers/gen/android/hardware/audio/2.0/BpHwStreamIn.h"
  },
  {
   "function_name" : "android::hardware::audio::V2_0::BpHwStreamIn::getDebugInfo",
   "linker_set_key" : "_ZN7android8hardware5audio4V2_012BpHwStreamIn12getDebugInfoENSt3__18functionIFvRKNS_4hidl4base4V1_09DebugInfoEEEE",
   "parameters" :
   [
    {
     "is_this_ptr" : true,
     "referenced_type" : "type-417"
    },
    {
     "referenced_type" : "type-2131"
    }
   ],
   "return_type" : "type-707",
   "source_file" : "/out/soong/.intermediates/hardware/interfaces/audio/2.0/android.hardware.audio@2.0_genc++_headers/gen/android/hardware/audio/2.0/BpHwStreamIn.h"
  },
  {
   "function_name" : "android::hardware::audio::V2_0::BpHwStreamIn::getFrameSize",
   "linker_set_key" : "_ZN7android8hardware5audio4V2_012BpHwStreamIn12getFrameSizeEv",
   "parameters" :
   [
    {
     "is_this_ptr" : true,
     "referenced_type" : "type-417"
    }
   ],
   "return_type" : "type-402",
   "source_file" : "/out/soong/.intermediates/hardware/interfaces/audio/2.0/android.hardware.audio@2.0_genc++_headers/gen/android/hardware/audio/2.0/BpHwStreamIn.h"
  },
  {
   "function_name" : "android::hardware::audio::V2_0::BpHwStreamIn::getHashChain",
   "linker_set_key" : "_ZN7android8hardware5audio4V2_012BpHwStreamIn12getHashChainENSt3__18functionIFvRKNS0_8hidl_vecINS0_10hidl_arrayIhLj32EJEEEEEEEE",
   "parameters" :
   [
    {
     "is_this_ptr" : true,
     "referenced_type" : "type-417"
    },
    {
     "referenced_type" : "type-2132"
    }
   ],
   "return_type" : "type-707",
   "source_file" : "/out/soong/.intermediates/hardware/interfaces/audio/2.0/android.hardware.audio@2.0_genc++_headers/gen/android/hardware/audio/2.0/BpHwStreamIn.h"
  },
  {
   "function_name" : "android::hardware::audio::V2_0::BpHwStreamIn::removeEffect",
   "linker_set_key" : "_ZN7android8hardware5audio4V2_012BpHwStreamIn12removeEffectEy",
   "parameters" :
   [
    {
     "is_this_ptr" : true,
     "referenced_type" : "type-417"
    },
    {
     "referenced_type" : "type-7"
    }
   ],
   "return_type" : "type-611",
   "source_file" : "/out/soong/.intermediates/hardware/interfaces/audio/2.0/android.hardware.audio@2.0_genc++_headers/gen/android/hardware/audio/2.0/BpHwStreamIn.h"
  },
  {
   "function_name" : "android::hardware::audio::V2_0::BpHwStreamIn::_hidl_setGain",
   "linker_set_key" : "_ZN7android8hardware5audio4V2_012BpHwStreamIn13_hidl_setGainEPNS0_10IInterfaceEPNS0_7details16HidlInstrumentorEf",
   "parameters" :
   [
    {
     "referenced_type" : "type-207"
    },
    {
     "referenced_type" : "type-1242"
    },
    {
     "referenced_type" : "type-913"
    }
   ],
   "return_type" : "type-611",
   "source_file" : "/out/soong/.intermediates/hardware/interfaces/audio/2.0/android.hardware.audio@2.0_genc++_headers/gen/android/hardware/audio/2.0/BpHwStreamIn.h"
  },
  {
   "function_name" : "android::hardware::audio::V2_0::BpHwStreamIn::getBufferSize",
   "linker_set_key" : "_ZN7android8hardware5audio4V2_012BpHwStreamIn13getBufferSizeEv",
   "parameters" :
   [
    {
     "is_this_ptr" : true,
     "referenced_type" : "type-417"
    }
   ],
   "return_type" : "type-402",
   "source_file" : "/out/soong/.intermediates/hardware/interfaces/audio/2.0/android.hardware.audio@2.0_genc++_headers/gen/android/hardware/audio/2.0/BpHwStreamIn.h"
  },
  {
   "function_name" : "android::hardware::audio::V2_0::BpHwStreamIn::getFrameCount",
   "linker_set_key" : "_ZN7android8hardware5audio4V2_012BpHwStreamIn13getFrameCountEv",
   "parameters" :
   [
    {
     "is_this_ptr" : true,
     "referenced_type" : "type-417"
    }
   ],
   "return_type" : "type-402",
   "source_file" : "/out/soong/.intermediates/hardware/interfaces/audio/2.0/android.hardware.audio@2.0_genc++_headers/gen/android/hardware/audio/2.0/BpHwStreamIn.h"
  },
  {
   "function_name" : "android::hardware::audio::V2_0::BpHwStreamIn::getParameters",
   "linker_set_key" : "_ZN7android8hardware5audio4V2_012BpHwStreamIn13getParametersERKNS0_8hidl_vecINS0_11hidl_stringEEENSt3__18functionIFvNS2_6ResultERKNS4_INS2_14ParameterValueEEEEEE",
   "parameters" :
   [
    {
     "is_this_ptr" : true,
     "referenced_type" : "type-417"
    },
    {
     "referenced_type" : "type-1512"
    },
    {
     "referenced_type" : "type-2133"
    }
   ],
   "return_type" : "type-707",
   "source_file" : "/out/soong/.intermediates/hardware/interfaces/audio/2.0/android.hardware.audio@2.0_genc++_headers/gen/android/hardware/audio/2.0/BpHwStreamIn.h"
  },
  {
   "function_name" : "android::hardware::audio::V2_0::BpHwStreamIn::getSampleRate",
   "linker_set_key" : "_ZN7android8hardware5audio4V2_012BpHwStreamIn13getSampleRateEv",
   "parameters" :
   [
    {
     "is_this_ptr" : true,
     "referenced_type" : "type-417"
    }
   ],
   "return_type" : "type-581",
   "source_file" : "/out/soong/.intermediates/hardware/interfaces/audio/2.0/android.hardware.audio@2.0_genc++_headers/gen/android/hardware/audio/2.0/BpHwStreamIn.h"
  },
  {
   "function_name" : "android::hardware::audio::V2_0::BpHwStreamIn::setParameters",
   "linker_set_key" : "_ZN7android8hardware5audio4V2_012BpHwStreamIn13setParametersERKNS0_8hidl_vecINS2_14ParameterValueEEE",
   "parameters" :
   [
    {
     "is_this_ptr" : true,
     "referenced_type" : "type-417"
    },
    {
     "referenced_type" : "type-1508"
    }
   ],
   "return_type" : "type-611",
   "source_file" : "/out/soong/.intermediates/hardware/interfaces/audio/2.0/android.hardware.audio@2.0_genc++_headers/gen/android/hardware/audio/2.0/BpHwStreamIn.h"
  },
  {
   "function_name" : "android::hardware::audio::V2_0::BpHwStreamIn::setSampleRate",
   "linker_set_key" : "_ZN7android8hardware5audio4V2_012BpHwStreamIn13setSampleRateEj",
   "parameters" :
   [
    {
     "is_this_ptr" : true,
     "referenced_type" : "type-417"
    },
    {
     "referenced_type" : "type-2"
    }
   ],
   "return_type" : "type-611",
   "source_file" : "/out/soong/.intermediates/hardware/interfaces/audio/2.0/android.hardware.audio@2.0_genc++_headers/gen/android/hardware/audio/2.0/BpHwStreamIn.h"
  },
  {
   "function_name" : "android::hardware::audio::V2_0::BpHwStreamIn::unlinkToDeath",
   "linker_set_key" : "_ZN7android8hardware5audio4V2_012BpHwStreamIn13unlinkToDeathERKNS_2spINS0_20hidl_death_recipientEEE",
   "parameters" :
   [
    {
     "is_this_ptr" : true,
     "referenced_type" : "type-417"
    },
    {
     "referenced_type" : "type-1988"
    }
   ],
   "return_type" : "type-568",
   "source_file" : "/out/soong/.intermediates/hardware/interfaces/audio/2.0/android.hardware.audio@2.0_genc++_headers/gen/android/hardware/audio/2.0/BpHwStreamIn.h"
  },
  {
   "function_name" : "android::hardware::audio::V2_0::BpHwStreamIn::getAudioSource",
   "linker_set_key" : "_ZN7android8hardware5audio4V2_012BpHwStreamIn14getAudioSourceENSt3__18functionIFvNS2_6ResultENS1_6common4V2_011AudioSourceEEEE",
   "parameters" :
   [
    {
     "is_this_ptr" : true,
     "referenced_type" : "type-417"
    },
    {
     "referenced_type" : "type-2134"
    }
   ],
   "return_type" : "type-707",
   "source_file" : "/out/soong/.intermediates/hardware/interfaces/audio/2.0/android.hardware.audio@2.0_genc++_headers/gen/android/hardware/audio/2.0/BpHwStreamIn.h"
  },
  {
   "function_name" : "android::hardware::audio::V2_0::BpHwStreamIn::getChannelMask",
   "linker_set_key" : "_ZN7android8hardware5audio4V2_012BpHwStreamIn14getChannelMaskEv",
   "parameters" :
   [
    {
     "is_this_ptr" : true,
     "referenced_type" : "type-417"
    }
   ],
   "return_type" : "type-408",
   "source_file" : "/out/soong/.intermediates/hardware/interfaces/audio/2.0/android.hardware.audio@2.0_genc++_headers/gen/android/hardware/audio/2.0/BpHwStreamIn.h"
  },
  {
   "function_name" : "android::hardware::audio::V2_0::BpHwStreamIn::interfaceChain",
   "linker_set_key" : "_ZN7android8hardware5audio4V2_012BpHwStreamIn14interfaceChainENSt3__18functionIFvRKNS0_8hidl_vecINS0_11hidl_stringEEEEEE",
   "parameters" :
   [
    {
     "is_this_ptr" : true,
     "referenced_type" : "type-417"
    },
    {
     "referenced_type" : "type-2135"
    }
   ],
   "return_type" : "type-707",
   "source_file" : "/out/soong/.intermediates/hardware/interfaces/audio/2.0/android.hardware.audio@2.0_genc++_headers/gen/android/hardware/audio/2.0/BpHwStreamIn.h"
  },
  {
   "function_name" : "android::hardware::audio::V2_0::BpHwStreamIn::setChannelMask",
   "linker_set_key" : "_ZN7android8hardware5audio4V2_012BpHwStreamIn14setChannelMaskENS1_6common4V2_016AudioChannelMaskE",
   "parameters" :
   [
    {
     "is_this_ptr" : true,
     "referenced_type" : "type-417"
    },
    {
     "referenced_type" : "type-409"
    }
   ],
   "return_type" : "type-611",
   "source_file" : "/out/soong/.intermediates/hardware/interfaces/audio/2.0/android.hardware.audio@2.0_genc++_headers/gen/android/hardware/audio/2.0/BpHwStreamIn.h"
  },
  {
   "function_name" : "android::hardware::audio::V2_0::BpHwStreamIn::getMmapPosition",
   "linker_set_key" : "_ZN7android8hardware5audio4V2_012BpHwStreamIn15getMmapPositionENSt3__18functionIFvNS2_6ResultERKNS2_12MmapPositionEEEE",
   "parameters" :
   [
    {
     "is_this_ptr" : true,
     "referenced_type" : "type-417"
    },
    {
     "referenced_type" : "type-2136"
    }
   ],
   "return_type" : "type-707",
   "source_file" : "/out/soong/.intermediates/hardware/interfaces/audio/2.0/android.hardware.audio@2.0_genc++_headers/gen/android/hardware/audio/2.0/BpHwStreamIn.h"
  },
  {
   "function_name" : "android::hardware::audio::V2_0::BpHwStreamIn::createMmapBuffer",
   "linker_set_key" : "_ZN7android8hardware5audio4V2_012BpHwStreamIn16createMmapBufferEiNSt3__18functionIFvNS2_6ResultERKNS2_14MmapBufferInfoEEEE",
   "parameters" :
   [
    {
     "is_this_ptr" : true,
     "referenced_type" : "type-417"
    },
    {
     "referenced_type" : "type-22"
    },
    {
     "referenced_type" : "type-2137"
    }
   ],
   "return_type" : "type-707",
   "source_file" : "/out/soong/.intermediates/hardware/interfaces/audio/2.0/android.hardware.audio@2.0_genc++_headers/gen/android/hardware/audio/2.0/BpHwStreamIn.h"
  },
  {
   "function_name" : "android::hardware::audio::V2_0::BpHwStreamIn::prepareForReading",
   "linker_set_key" : "_ZN7android8hardware5audio4V2_012BpHwStreamIn17prepareForReadingEjjNSt3__18functionIFvNS2_6ResultERKNS0_12MQDescriptorINS2_9IStreamIn14ReadParametersELNS0_8MQFlavorE1EEERKNS7_IhLSA_1EEERKNS7_INS8_10ReadStatusELSA_1EEERKNS1_6common4V2_010ThreadInfoEEEE",
   "parameters" :
   [
    {
     "is_this_ptr" : true,
     "referenced_type" : "type-417"
    },
    {
     "referenced_type" : "type-2"
    },
    {
     "referenced_type" : "type-2"
    },
    {
     "referenced_type" : "type-2138"
    }
   ],
   "return_type" : "type-707",
   "source_file" : "/out/soong/.intermediates/hardware/interfaces/audio/2.0/android.hardware.audio@2.0_genc++_headers/gen/android/hardware/audio/2.0/BpHwStreamIn.h"
  },
  {
   "function_name" : "android::hardware::audio::V2_0::BpHwStreamIn::setConnectedState",
   "linker_set_key" : "_ZN7android8hardware5audio4V2_012BpHwStreamIn17setConnectedStateERKNS2_13DeviceAddressEb",
   "parameters" :
   [
    {
     "is_this_ptr" : true,
     "referenced_type" : "type-417"
    },
    {
     "referenced_type" : "type-1978"
    },
    {
     "referenced_type" : "type-29"
    }
   ],
   "return_type" : "type-611",
   "source_file" : "/out/soong/.intermediates/hardware/interfaces/audio/2.0/android.hardware.audio@2.0_genc++_headers/gen/android/hardware/audio/2.0/BpHwStreamIn.h"
  },
  {
   "function_name" : "android::hardware::audio::V2_0::BpHwStreamIn::getAudioProperties",
   "linker_set_key" : "_ZN7android8hardware5audio4V2_012BpHwStreamIn18getAudioPropertiesENSt3__18functionIFvjNS1_6common4V2_016AudioChannelMaskENS7_11AudioFormatEEEE",
   "parameters" :
   [
    {
     "is_this_ptr" : true,
     "referenced_type" : "type-417"
    },
    {
     "referenced_type" : "type-2139"
    }
   ],
   "return_type" : "type-707",
   "source_file" : "/out/soong/.intermediates/hardware/interfaces/audio/2.0/android.hardware.audio@2.0_genc++_headers/gen/android/hardware/audio/2.0/BpHwStreamIn.h"
  },
  {
   "function_name" : "android::hardware::audio::V2_0::BpHwStreamIn::getCapturePosition",
   "linker_set_key" : "_ZN7android8hardware5audio4V2_012BpHwStreamIn18getCapturePositionENSt3__18functionIFvNS2_6ResultEyyEEE",
   "parameters" :
   [
    {
     "is_this_ptr" : true,
     "referenced_type" : "type-417"
    },
    {
     "referenced_type" : "type-2140"
    }
   ],
   "return_type" : "type-707",
   "source_file" : "/out/soong/.intermediates/hardware/interfaces/audio/2.0/android.hardware.audio@2.0_genc++_headers/gen/android/hardware/audio/2.0/BpHwStreamIn.h"
  },
  {
   "function_name" : "android::hardware::audio::V2_0::BpHwStreamIn::getInputFramesLost",
   "linker_set_key" : "_ZN7android8hardware5audio4V2_012BpHwStreamIn18getInputFramesLostEv",
   "parameters" :
   [
    {
     "is_this_ptr" : true,
     "referenced_type" : "type-417"
    }
   ],
   "return_type" : "type-581",
   "source_file" : "/out/soong/.intermediates/hardware/interfaces/audio/2.0/android.hardware.audio@2.0_genc++_headers/gen/android/hardware/audio/2.0/BpHwStreamIn.h"
  },
  {
   "function_name" : "android::hardware::audio::V2_0::BpHwStreamIn::getSupportedFormats",
   "linker_set_key" : "_ZN7android8hardware5audio4V2_012BpHwStreamIn19getSupportedFormatsENSt3__18functionIFvRKNS0_8hidl_vecINS1_6common4V2_011AudioFormatEEEEEE",
   "parameters" :
   [
    {
     "is_this_ptr" : true,
     "referenced_type" : "type-417"
    },
    {
     "referenced_type" : "type-2141"
    }
   ],
   "return_type" : "type-707",
   "source_file" : "/out/soong/.intermediates/hardware/interfaces/audio/2.0/android.hardware.audio@2.0_genc++_headers/gen/android/hardware/audio/2.0/BpHwStreamIn.h"
  },
  {
   "function_name" : "android::hardware::audio::V2_0::BpHwStreamIn::interfaceDescriptor",
   "linker_set_key" : "_ZN7android8hardware5audio4V2_012BpHwStreamIn19interfaceDescriptorENSt3__18functionIFvRKNS0_11hidl_stringEEEE",
   "parameters" :
   [
    {
     "is_this_ptr" : true,
     "referenced_type" : "type-417"
    },
    {
     "referenced_type" : "type-2142"
    }
   ],
   "return_type" : "type-707",
   "source_file" : "/out/soong/.intermediates/hardware/interfaces/audio/2.0/android.hardware.audio@2.0_genc++_headers/gen/android/hardware/audio/2.0/BpHwStreamIn.h"
  },
  {
   "function_name" : "android::hardware::audio::V2_0::BpHwStreamIn::_hidl_getAudioSource",
   "linker_set_key" : "_ZN7android8hardware5audio4V2_012BpHwStreamIn20_hidl_getAudioSourceEPNS0_10IInterfaceEPNS0_7details16HidlInstrumentorENSt3__18functionIFvNS2_6ResultENS1_6common4V2_011AudioSourceEEEE",
   "parameters" :
   [
    {
     "referenced_type" : "type-207"
    },
    {
     "referenced_type" : "type-1242"
    },
    {
     "referenced_type" : "type-2143"
    }
   ],
   "return_type" : "type-707",
   "source_file" : "/out/soong/.intermediates/hardware/interfaces/audio/2.0/android.hardware.audio@2.0_genc++_headers/gen/android/hardware/audio/2.0/BpHwStreamIn.h"
  },
  {
   "function_name" : "android::hardware::audio::V2_0::BpHwStreamIn::notifySyspropsChanged",
   "linker_set_key" : "_ZN7android8hardware5audio4V2_012BpHwStreamIn21notifySyspropsChangedEv",
   "parameters" :
   [
    {
     "is_this_ptr" : true,
     "referenced_type" : "type-417"
    }
   ],
   "return_type" : "type-707",
   "source_file" : "/out/soong/.intermediates/hardware/interfaces/audio/2.0/android.hardware.audio@2.0_genc++_headers/gen/android/hardware/audio/2.0/BpHwStreamIn.h"
  },
  {
   "function_name" : "android::hardware::audio::V2_0::BpHwStreamIn::setHALInstrumentation",
   "linker_set_key" : "_ZN7android8hardware5audio4V2_012BpHwStreamIn21setHALInstrumentationEv",
   "parameters" :
   [
    {
     "is_this_ptr" : true,
     "referenced_type" : "type-417"
    }
   ],
   "return_type" : "type-707",
   "source_file" : "/out/soong/.intermediates/hardware/interfaces/audio/2.0/android.hardware.audio@2.0_genc++_headers/gen/android/hardware/audio/2.0/BpHwStreamIn.h"
  },
  {
   "function_name" : "android::hardware::audio::V2_0::BpHwStreamIn::_hidl_prepareForReading",
   "linker_set_key" : "_ZN7android8hardware5audio4V2_012BpHwStreamIn23_hidl_prepareForReadingEPNS0_10IInterfaceEPNS0_7details16HidlInstrumentorEjjNSt3__18functionIFvNS2_6ResultERKNS0_12MQDescriptorINS2_9IStreamIn14ReadParametersELNS0_8MQFlavorE1EEERKNSC_IhLSF_1EEERKNSC_INSD_10ReadStatusELSF_1EEERKNS1_6common4V2_010ThreadInfoEEEE",
   "parameters" :
   [
    {
     "referenced_type" : "type-207"
    },
    {
     "referenced_type" : "type-1242"
    },
    {
     "referenced_type" : "type-2"
    },
    {
     "referenced_type" : "type-2"
    },
    {
     "referenced_type" : "type-2144"
    }
   ],
   "return_type" : "type-707",
   "source_file" : "/out/soong/.intermediates/hardware/interfaces/audio/2.0/android.hardware.audio@2.0_genc++_headers/gen/android/hardware/audio/2.0/BpHwStreamIn.h"
  },
  {
   "function_name" : "android::hardware::audio::V2_0::BpHwStreamIn::getSupportedSampleRates",
   "linker_set_key" : "_ZN7android8hardware5audio4V2_012BpHwStreamIn23getSupportedSampleRatesENSt3__18functionIFvRKNS0_8hidl_vecIjEEEEE",
   "parameters" :
   [
    {
     "is_this_ptr" : true,
     "referenced_type" : "type-417"
    },
    {
     "referenced_type" : "type-2145"
    }
   ],
   "return_type" : "type-707",
   "source_file" : "/out/soong/.intermediates/hardware/interfaces/audio/2.0/android.hardware.audio@2.0_genc++_headers/gen/android/hardware/audio/2.0/BpHwStreamIn.h"
  },
  {
   "function_name" : "android::hardware::audio::V2_0::BpHwStreamIn::_hidl_getCapturePosition",
   "linker_set_key" : "_ZN7android8hardware5audio4V2_012BpHwStreamIn24_hidl_getCapturePositionEPNS0_10IInterfaceEPNS0_7details16HidlInstrumentorENSt3__18functionIFvNS2_6ResultEyyEEE",
   "parameters" :
   [
    {
     "referenced_type" : "type-207"
    },
    {
     "referenced_type" : "type-1242"
    },
    {
     "referenced_type" : "type-2146"
    }
   ],
   "return_type" : "type-707",
   "source_file" : "/out/soong/.intermediates/hardware/interfaces/audio/2.0/android.hardware.audio@2.0_genc++_headers/gen/android/hardware/audio/2.0/BpHwStreamIn.h"
  },
  {
   "function_name" : "android::hardware::audio::V2_0::BpHwStreamIn::_hidl_getInputFramesLost",
   "linker_set_key" : "_ZN7android8hardware5audio4V2_012BpHwStreamIn24_hidl_getInputFramesLostEPNS0_10IInterfaceEPNS0_7details16HidlInstrumentorE",
   "parameters" :
   [
    {
     "referenced_type" : "type-207"
    },
    {
     "referenced_type" : "type-1242"
    }
   ],
   "return_type" : "type-581",
   "source_file" : "/out/soong/.intermediates/hardware/interfaces/audio/2.0/android.hardware.audio@2.0_genc++_headers/gen/android/hardware/audio/2.0/BpHwStreamIn.h"
  },
  {
   "function_name" : "android::hardware::audio::V2_0::BpHwStreamIn::getSupportedChannelMasks",
   "linker_set_key" : "_ZN7android8hardware5audio4V2_012BpHwStreamIn24getSupportedChannelMasksENSt3__18functionIFvRKNS0_8hidl_vecINS1_6common4V2_016AudioChannelMaskEEEEEE",
   "parameters" :
   [
    {
     "is_this_ptr" : true,
     "referenced_type" : "type-417"
    },
    {
     "referenced_type" : "type-2147"
    }
   ],
   "return_type" : "type-707",
   "source_file" : "/out/soong/.intermediates/hardware/interfaces/audio/2.0/android.hardware.audio@2.0_genc++_headers/gen/android/hardware/audio/2.0/BpHwStreamIn.h"
  },
  {
   "function_name" : "android::hardware::audio::V2_0::BpHwStreamIn::ping",
   "linker_set_key" : "_ZN7android8hardware5audio4V2_012BpHwStreamIn4pingEv",
   "parameters" :
   [
    {
     "is_this_ptr" : true,
     "referenced_type" : "type-417"
    }
   ],
   "return_type" : "type-707",
   "source_file" : "/out/soong/.intermediates/hardware/interfaces/audio/2.0/android.hardware.audio@2.0_genc++_headers/gen/android/hardware/audio/2.0/BpHwStreamIn.h"
  },
  {
   "function_name" : "android::hardware::audio::V2_0::BpHwStreamIn::stop",
   "linker_set_key" : "_ZN7android8hardware5audio4V2_012BpHwStreamIn4stopEv",
   "parameters" :
   [
    {
     "is_this_ptr" : true,
     "referenced_type" : "type-417"
    }
   ],
   "return_type" : "type-611",
   "source_file" : "/out/soong/.intermediates/hardware/interfaces/audio/2.0/android.hardware.audio@2.0_genc++_headers/gen/android/hardware/audio/2.0/BpHwStreamIn.h"
  },
  {
   "function_name" : "android::hardware::audio::V2_0::BpHwStreamIn::close",
   "linker_set_key" : "_ZN7android8hardware5audio4V2_012BpHwStreamIn5closeEv",
   "parameters" :
   [
    {
     "is_this_ptr" : true,
     "referenced_type" : "type-417"
    }
   ],
   "return_type" : "type-611",
   "source_file" : "/out/soong/.intermediates/hardware/interfaces/audio/2.0/android.hardware.audio@2.0_genc++_headers/gen/android/hardware/audio/2.0/BpHwStreamIn.h"
  },
  {
   "function_name" : "android::hardware::audio::V2_0::BpHwStreamIn::debug",
   "linker_set_key" : "_ZN7android8hardware5audio4V2_012BpHwStreamIn5debugERKNS0_11hidl_handleERKNS0_8hidl_vecINS0_11hidl_stringEEE",
   "parameters" :
   [
    {
     "is_this_ptr" : true,
     "referenced_type" : "type-417"
    },
    {
     "referenced_type" : "type-1389"
    },
    {
     "referenced_type" : "type-1512"
    }
   ],
   "return_type" : "type-707",
   "source_file" : "/out/soong/.intermediates/hardware/interfaces/audio/2.0/android.hardware.audio@2.0_genc++_headers/gen/android/hardware/audio/2.0/BpHwStreamIn.h"
  },
  {
   "function_name" : "android::hardware::audio::V2_0::BpHwStreamIn::start",
   "linker_set_key" : "_ZN7android8hardware5audio4V2_012BpHwStreamIn5startEv",
   "parameters" :
   [
    {
     "is_this_ptr" : true,
     "referenced_type" : "type-417"
    }
   ],
   "return_type" : "type-611",
   "source_file" : "/out/soong/.intermediates/hardware/interfaces/audio/2.0/android.hardware.audio@2.0_genc++_headers/gen/android/hardware/audio/2.0/BpHwStreamIn.h"
  },
  {
   "function_name" : "android::hardware::audio::V2_0::BpHwStreamIn::setGain",
   "linker_set_key" : "_ZN7android8hardware5audio4V2_012BpHwStreamIn7setGainEf",
   "parameters" :
   [
    {
     "is_this_ptr" : true,
     "referenced_type" : "type-417"
    },
    {
     "referenced_type" : "type-913"
    }
   ],
   "return_type" : "type-611",
   "source_file" : "/out/soong/.intermediates/hardware/interfaces/audio/2.0/android.hardware.audio@2.0_genc++_headers/gen/android/hardware/audio/2.0/BpHwStreamIn.h"
  },
  {
   "function_name" : "android::hardware::audio::V2_0::BpHwStreamIn::standby",
   "linker_set_key" : "_ZN7android8hardware5audio4V2_012BpHwStreamIn7standbyEv",
   "parameters" :
   [
    {
     "is_this_ptr" : true,
     "referenced_type" : "type-417"
    }
   ],
   "return_type" : "type-611",
   "source_file" : "/out/soong/.intermediates/hardware/interfaces/audio/2.0/android.hardware.audio@2.0_genc++_headers/gen/android/hardware/audio/2.0/BpHwStreamIn.h"
  },
  {
   "function_name" : "android::hardware::audio::V2_0::BpHwStreamIn::addEffect",
   "linker_set_key" : "_ZN7android8hardware5audio4V2_012BpHwStreamIn9addEffectEy",
   "parameters" :
   [
    {
     "is_this_ptr" : true,
     "referenced_type" : "type-417"
    },
    {
     "referenced_type" : "type-7"
    }
   ],
   "return_type" : "type-611",
   "source_file" : "/out/soong/.intermediates/hardware/interfaces/audio/2.0/android.hardware.audio@2.0_genc++_headers/gen/android/hardware/audio/2.0/BpHwStreamIn.h"
  },
  {
   "function_name" : "android::hardware::audio::V2_0::BpHwStreamIn::debugDump",
   "linker_set_key" : "_ZN7android8hardware5audio4V2_012BpHwStreamIn9debugDumpERKNS0_11hidl_handleE",
   "parameters" :
   [
    {
     "is_this_ptr" : true,
     "referenced_type" : "type-417"
    },
    {
     "referenced_type" : "type-1389"
    }
   ],
   "return_type" : "type-707",
   "source_file" : "/out/soong/.intermediates/hardware/interfaces/audio/2.0/android.hardware.audio@2.0_genc++_headers/gen/android/hardware/audio/2.0/BpHwStreamIn.h"
  },
  {
   "function_name" : "android::hardware::audio::V2_0::BpHwStreamIn::getDevice",
   "linker_set_key" : "_ZN7android8hardware5audio4V2_012BpHwStreamIn9getDeviceEv",
   "parameters" :
   [
    {
     "is_this_ptr" : true,
     "referenced_type" : "type-417"
    }
   ],
   "return_type" : "type-423",
   "source_file" : "/out/soong/.intermediates/hardware/interfaces/audio/2.0/android.hardware.audio@2.0_genc++_headers/gen/android/hardware/audio/2.0/BpHwStreamIn.h"
  },
  {
   "function_name" : "android::hardware::audio::V2_0::BpHwStreamIn::getFormat",
   "linker_set_key" : "_ZN7android8hardware5audio4V2_012BpHwStreamIn9getFormatEv",
   "parameters" :
   [
    {
     "is_this_ptr" : true,
     "referenced_type" : "type-417"
    }
   ],
   "return_type" : "type-415",
   "source_file" : "/out/soong/.intermediates/hardware/interfaces/audio/2.0/android.hardware.audio@2.0_genc++_headers/gen/android/hardware/audio/2.0/BpHwStreamIn.h"
  },
  {
   "function_name" : "android::hardware::audio::V2_0::BpHwStreamIn::setDevice",
   "linker_set_key" : "_ZN7android8hardware5audio4V2_012BpHwStreamIn9setDeviceERKNS2_13DeviceAddressE",
   "parameters" :
   [
    {
     "is_this_ptr" : true,
     "referenced_type" : "type-417"
    },
    {
     "referenced_type" : "type-1978"
    }
   ],
   "return_type" : "type-611",
   "source_file" : "/out/soong/.intermediates/hardware/interfaces/audio/2.0/android.hardware.audio@2.0_genc++_headers/gen/android/hardware/audio/2.0/BpHwStreamIn.h"
  },
  {
   "function_name" : "android::hardware::audio::V2_0::BpHwStreamIn::setFormat",
   "linker_set_key" : "_ZN7android8hardware5audio4V2_012BpHwStreamIn9setFormatENS1_6common4V2_011AudioFormatE",
   "parameters" :
   [
    {
     "is_this_ptr" : true,
     "referenced_type" : "type-417"
    },
    {
     "referenced_type" : "type-416"
    }
   ],
   "return_type" : "type-611",
   "source_file" : "/out/soong/.intermediates/hardware/interfaces/audio/2.0/android.hardware.audio@2.0_genc++_headers/gen/android/hardware/audio/2.0/BpHwStreamIn.h"
  },
  {
   "function_name" : "android::hardware::audio::V2_0::BpHwStreamIn::BpHwStreamIn",
   "linker_set_key" : "_ZN7android8hardware5audio4V2_012BpHwStreamInC1ERKNS_2spINS0_7IBinderEEE",
   "parameters" :
   [
    {
     "is_this_ptr" : true,
     "referenced_type" : "type-417"
    },
    {
     "referenced_type" : "type-240"
    }
   ],
   "return_type" : "type-25",
   "source_file" : "/out/soong/.intermediates/hardware/interfaces/audio/2.0/android.hardware.audio@2.0_genc++_headers/gen/android/hardware/audio/2.0/BpHwStreamIn.h"
  },
  {
   "function_name" : "android::hardware::audio::V2_0::BpHwStreamIn::BpHwStreamIn",
   "linker_set_key" : "_ZN7android8hardware5audio4V2_012BpHwStreamInC2ERKNS_2spINS0_7IBinderEEE",
   "parameters" :
   [
    {
     "is_this_ptr" : true,
     "referenced_type" : "type-417"
    },
    {
     "referenced_type" : "type-240"
    }
   ],
   "return_type" : "type-25",
   "source_file" : "/out/soong/.intermediates/hardware/interfaces/audio/2.0/android.hardware.audio@2.0_genc++_headers/gen/android/hardware/audio/2.0/BpHwStreamIn.h"
  },
  {
   "function_name" : "android::hardware::audio::V2_0::BnHwStreamOut::onTransact",
   "linker_set_key" : "_ZN7android8hardware5audio4V2_013BnHwStreamOut10onTransactEjRKNS0_6ParcelEPS4_jNSt3__18functionIFvRS4_EEE",
   "parameters" :
   [
    {
     "is_this_ptr" : true,
     "referenced_type" : "type-1969"
    },
    {
     "referenced_type" : "type-2"
    },
    {
     "referenced_type" : "type-1503"
    },
    {
     "referenced_type" : "type-1487"
    },
    {
     "default_arg" : true,
     "referenced_type" : "type-2"
    },
    {
     "default_arg" : true,
     "referenced_type" : "type-2148"
    }
   ],
   "return_type" : "type-22",
   "source_file" : "/out/soong/.intermediates/hardware/interfaces/audio/2.0/android.hardware.audio@2.0_genc++_headers/gen/android/hardware/audio/2.0/BnHwStreamOut.h"
  },
  {
   "function_name" : "android::hardware::audio::V2_0::BnHwStreamOut::_hidl_drain",
   "linker_set_key" : "_ZN7android8hardware5audio4V2_013BnHwStreamOut11_hidl_drainEPNS_4hidl4base4V1_08BnHwBaseERKNS0_6ParcelEPS9_NSt3__18functionIFvRS9_EEE",
   "parameters" :
   [
    {
     "referenced_type" : "type-1507"
    },
    {
     "referenced_type" : "type-1503"
    },
    {
     "referenced_type" : "type-1487"
    },
    {
     "referenced_type" : "type-2149"
    }
   ],
   "return_type" : "type-22",
   "source_file" : "/out/soong/.intermediates/hardware/interfaces/audio/2.0/android.hardware.audio@2.0_genc++_headers/gen/android/hardware/audio/2.0/BnHwStreamOut.h"
  },
  {
   "function_name" : "android::hardware::audio::V2_0::BnHwStreamOut::_hidl_flush",
   "linker_set_key" : "_ZN7android8hardware5audio4V2_013BnHwStreamOut11_hidl_flushEPNS_4hidl4base4V1_08BnHwBaseERKNS0_6ParcelEPS9_NSt3__18functionIFvRS9_EEE",
   "parameters" :
   [
    {
     "referenced_type" : "type-1507"
    },
    {
     "referenced_type" : "type-1503"
    },
    {
     "referenced_type" : "type-1487"
    },
    {
     "referenced_type" : "type-2150"
    }
   ],
   "return_type" : "type-22",
   "source_file" : "/out/soong/.intermediates/hardware/interfaces/audio/2.0/android.hardware.audio@2.0_genc++_headers/gen/android/hardware/audio/2.0/BnHwStreamOut.h"
  },
  {
   "function_name" : "android::hardware::audio::V2_0::BnHwStreamOut::_hidl_pause",
   "linker_set_key" : "_ZN7android8hardware5audio4V2_013BnHwStreamOut11_hidl_pauseEPNS_4hidl4base4V1_08BnHwBaseERKNS0_6ParcelEPS9_NSt3__18functionIFvRS9_EEE",
   "parameters" :
   [
    {
     "referenced_type" : "type-1507"
    },
    {
     "referenced_type" : "type-1503"
    },
    {
     "referenced_type" : "type-1487"
    },
    {
     "referenced_type" : "type-2151"
    }
   ],
   "return_type" : "type-22",
   "source_file" : "/out/soong/.intermediates/hardware/interfaces/audio/2.0/android.hardware.audio@2.0_genc++_headers/gen/android/hardware/audio/2.0/BnHwStreamOut.h"
  },
  {
   "function_name" : "android::hardware::audio::V2_0::BnHwStreamOut::_hidl_resume",
   "linker_set_key" : "_ZN7android8hardware5audio4V2_013BnHwStreamOut12_hidl_resumeEPNS_4hidl4base4V1_08BnHwBaseERKNS0_6ParcelEPS9_NSt3__18functionIFvRS9_EEE",
   "parameters" :
   [
    {
     "referenced_type" : "type-1507"
    },
    {
     "referenced_type" : "type-1503"
    },
    {
     "referenced_type" : "type-1487"
    },
    {
     "referenced_type" : "type-2152"
    }
   ],
   "return_type" : "type-22",
   "source_file" : "/out/soong/.intermediates/hardware/interfaces/audio/2.0/android.hardware.audio@2.0_genc++_headers/gen/android/hardware/audio/2.0/BnHwStreamOut.h"
  },
  {
   "access" : "private",
   "function_name" : "android::hardware::audio::V2_0::BnHwStreamOut::getDebugInfo",
   "linker_set_key" : "_ZN7android8hardware5audio4V2_013BnHwStreamOut12getDebugInfoENSt3__18functionIFvRKNS_4hidl4base4V1_09DebugInfoEEEE",
   "parameters" :
   [
    {
     "is_this_ptr" : true,
     "referenced_type" : "type-1969"
    },
    {
     "referenced_type" : "type-2153"
    }
   ],
   "return_type" : "type-707",
   "source_file" : "/out/soong/.intermediates/hardware/interfaces/audio/2.0/android.hardware.audio@2.0_genc++_headers/gen/android/hardware/audio/2.0/BnHwStreamOut.h"
  },
  {
   "function_name" : "android::hardware::audio::V2_0::BnHwStreamOut::_hidl_setVolume",
   "linker_set_key" : "_ZN7android8hardware5audio4V2_013BnHwStreamOut15_hidl_setVolumeEPNS_4hidl4base4V1_08BnHwBaseERKNS0_6ParcelEPS9_NSt3__18functionIFvRS9_EEE",
   "parameters" :
   [
    {
     "referenced_type" : "type-1507"
    },
    {
     "referenced_type" : "type-1503"
    },
    {
     "referenced_type" : "type-1487"
    },
    {
     "referenced_type" : "type-2154"
    }
   ],
   "return_type" : "type-22",
   "source_file" : "/out/soong/.intermediates/hardware/interfaces/audio/2.0/android.hardware.audio@2.0_genc++_headers/gen/android/hardware/audio/2.0/BnHwStreamOut.h"
  },
  {
   "function_name" : "android::hardware::audio::V2_0::BnHwStreamOut::_hidl_getLatency",
   "linker_set_key" : "_ZN7android8hardware5audio4V2_013BnHwStreamOut16_hidl_getLatencyEPNS_4hidl4base4V1_08BnHwBaseERKNS0_6ParcelEPS9_NSt3__18functionIFvRS9_EEE",
   "parameters" :
   [
    {
     "referenced_type" : "type-1507"
    },
    {
     "referenced_type" : "type-1503"
    },
    {
     "referenced_type" : "type-1487"
    },
    {
     "referenced_type" : "type-2155"
    }
   ],
   "return_type" : "type-22",
   "source_file" : "/out/soong/.intermediates/hardware/interfaces/audio/2.0/android.hardware.audio@2.0_genc++_headers/gen/android/hardware/audio/2.0/BnHwStreamOut.h"
  },
  {
   "function_name" : "android::hardware::audio::V2_0::BnHwStreamOut::_hidl_setCallback",
   "linker_set_key" : "_ZN7android8hardware5audio4V2_013BnHwStreamOut17_hidl_setCallbackEPNS_4hidl4base4V1_08BnHwBaseERKNS0_6ParcelEPS9_NSt3__18functionIFvRS9_EEE",
   "parameters" :
   [
    {
     "referenced_type" : "type-1507"
    },
    {
     "referenced_type" : "type-1503"
    },
    {
     "referenced_type" : "type-1487"
    },
    {
     "referenced_type" : "type-2156"
    }
   ],
   "return_type" : "type-22",
   "source_file" : "/out/soong/.intermediates/hardware/interfaces/audio/2.0/android.hardware.audio@2.0_genc++_headers/gen/android/hardware/audio/2.0/BnHwStreamOut.h"
  },
  {
   "function_name" : "android::hardware::audio::V2_0::BnHwStreamOut::_hidl_clearCallback",
   "linker_set_key" : "_ZN7android8hardware5audio4V2_013BnHwStreamOut19_hidl_clearCallbackEPNS_4hidl4base4V1_08BnHwBaseERKNS0_6ParcelEPS9_NSt3__18functionIFvRS9_EEE",
   "parameters" :
   [
    {
     "referenced_type" : "type-1507"
    },
    {
     "referenced_type" : "type-1503"
    },
    {
     "referenced_type" : "type-1487"
    },
    {
     "referenced_type" : "type-2157"
    }
   ],
   "return_type" : "type-22",
   "source_file" : "/out/soong/.intermediates/hardware/interfaces/audio/2.0/android.hardware.audio@2.0_genc++_headers/gen/android/hardware/audio/2.0/BnHwStreamOut.h"
  },
  {
   "function_name" : "android::hardware::audio::V2_0::BnHwStreamOut::_hidl_supportsDrain",
   "linker_set_key" : "_ZN7android8hardware5audio4V2_013BnHwStreamOut19_hidl_supportsDrainEPNS_4hidl4base4V1_08BnHwBaseERKNS0_6ParcelEPS9_NSt3__18functionIFvRS9_EEE",
   "parameters" :
   [
    {
     "referenced_type" : "type-1507"
    },
    {
     "referenced_type" : "type-1503"
    },
    {
     "referenced_type" : "type-1487"
    },
    {
     "referenced_type" : "type-2158"
    }
   ],
   "return_type" : "type-22",
   "source_file" : "/out/soong/.intermediates/hardware/interfaces/audio/2.0/android.hardware.audio@2.0_genc++_headers/gen/android/hardware/audio/2.0/BnHwStreamOut.h"
  },
  {
   "function_name" : "android::hardware::audio::V2_0::BnHwStreamOut::_hidl_getRenderPosition",
   "linker_set_key" : "_ZN7android8hardware5audio4V2_013BnHwStreamOut23_hidl_getRenderPositionEPNS_4hidl4base4V1_08BnHwBaseERKNS0_6ParcelEPS9_NSt3__18functionIFvRS9_EEE",
   "parameters" :
   [
    {
     "referenced_type" : "type-1507"
    },
    {
     "referenced_type" : "type-1503"
    },
    {
     "referenced_type" : "type-1487"
    },
    {
     "referenced_type" : "type-2159"
    }
   ],
   "return_type" : "type-22",
   "source_file" : "/out/soong/.intermediates/hardware/interfaces/audio/2.0/android.hardware.audio@2.0_genc++_headers/gen/android/hardware/audio/2.0/BnHwStreamOut.h"
  },
  {
   "function_name" : "android::hardware::audio::V2_0::BnHwStreamOut::_hidl_prepareForWriting",
   "linker_set_key" : "_ZN7android8hardware5audio4V2_013BnHwStreamOut23_hidl_prepareForWritingEPNS_4hidl4base4V1_08BnHwBaseERKNS0_6ParcelEPS9_NSt3__18functionIFvRS9_EEE",
   "parameters" :
   [
    {
     "referenced_type" : "type-1507"
    },
    {
     "referenced_type" : "type-1503"
    },
    {
     "referenced_type" : "type-1487"
    },
    {
     "referenced_type" : "type-2160"
    }
   ],
   "return_type" : "type-22",
   "source_file" : "/out/soong/.intermediates/hardware/interfaces/audio/2.0/android.hardware.audio@2.0_genc++_headers/gen/android/hardware/audio/2.0/BnHwStreamOut.h"
  },
  {
   "function_name" : "android::hardware::audio::V2_0::BnHwStreamOut::_hidl_getNextWriteTimestamp",
   "linker_set_key" : "_ZN7android8hardware5audio4V2_013BnHwStreamOut27_hidl_getNextWriteTimestampEPNS_4hidl4base4V1_08BnHwBaseERKNS0_6ParcelEPS9_NSt3__18functionIFvRS9_EEE",
   "parameters" :
   [
    {
     "referenced_type" : "type-1507"
    },
    {
     "referenced_type" : "type-1503"
    },
    {
     "referenced_type" : "type-1487"
    },
    {
     "referenced_type" : "type-2161"
    }
   ],
   "return_type" : "type-22",
   "source_file" : "/out/soong/.intermediates/hardware/interfaces/audio/2.0/android.hardware.audio@2.0_genc++_headers/gen/android/hardware/audio/2.0/BnHwStreamOut.h"
  },
  {
   "function_name" : "android::hardware::audio::V2_0::BnHwStreamOut::_hidl_supportsPauseAndResume",
   "linker_set_key" : "_ZN7android8hardware5audio4V2_013BnHwStreamOut28_hidl_supportsPauseAndResumeEPNS_4hidl4base4V1_08BnHwBaseERKNS0_6ParcelEPS9_NSt3__18functionIFvRS9_EEE",
   "parameters" :
   [
    {
     "referenced_type" : "type-1507"
    },
    {
     "referenced_type" : "type-1503"
    },
    {
     "referenced_type" : "type-1487"
    },
    {
     "referenced_type" : "type-2162"
    }
   ],
   "return_type" : "type-22",
   "source_file" : "/out/soong/.intermediates/hardware/interfaces/audio/2.0/android.hardware.audio@2.0_genc++_headers/gen/android/hardware/audio/2.0/BnHwStreamOut.h"
  },
  {
   "function_name" : "android::hardware::audio::V2_0::BnHwStreamOut::_hidl_getPresentationPosition",
   "linker_set_key" : "_ZN7android8hardware5audio4V2_013BnHwStreamOut29_hidl_getPresentationPositionEPNS_4hidl4base4V1_08BnHwBaseERKNS0_6ParcelEPS9_NSt3__18functionIFvRS9_EEE",
   "parameters" :
   [
    {
     "referenced_type" : "type-1507"
    },
    {
     "referenced_type" : "type-1503"
    },
    {
     "referenced_type" : "type-1487"
    },
    {
     "referenced_type" : "type-2163"
    }
   ],
   "return_type" : "type-22",
   "source_file" : "/out/soong/.intermediates/hardware/interfaces/audio/2.0/android.hardware.audio@2.0_genc++_headers/gen/android/hardware/audio/2.0/BnHwStreamOut.h"
  },
  {
   "access" : "private",
   "function_name" : "android::hardware::audio::V2_0::BnHwStreamOut::ping",
   "linker_set_key" : "_ZN7android8hardware5audio4V2_013BnHwStreamOut4pingEv",
   "parameters" :
   [
    {
     "is_this_ptr" : true,
     "referenced_type" : "type-1969"
    }
   ],
   "return_type" : "type-707",
   "source_file" : "/out/soong/.intermediates/hardware/interfaces/audio/2.0/android.hardware.audio@2.0_genc++_headers/gen/android/hardware/audio/2.0/BnHwStreamOut.h"
  },
  {
   "function_name" : "android::hardware::audio::V2_0::BnHwStreamOut::BnHwStreamOut",
   "linker_set_key" : "_ZN7android8hardware5audio4V2_013BnHwStreamOutC1ERKNS_2spINS2_10IStreamOutEEE",
   "parameters" :
   [
    {
     "is_this_ptr" : true,
     "referenced_type" : "type-1969"
    },
    {
     "referenced_type" : "type-130"
    }
   ],
   "return_type" : "type-25",
   "source_file" : "/out/soong/.intermediates/hardware/interfaces/audio/2.0/android.hardware.audio@2.0_genc++_headers/gen/android/hardware/audio/2.0/BnHwStreamOut.h"
  },
  {
   "function_name" : "android::hardware::audio::V2_0::BnHwStreamOut::BnHwStreamOut",
   "linker_set_key" : "_ZN7android8hardware5audio4V2_013BnHwStreamOutC2ERKNS_2spINS2_10IStreamOutEEE",
   "parameters" :
   [
    {
     "is_this_ptr" : true,
     "referenced_type" : "type-1969"
    },
    {
     "referenced_type" : "type-130"
    }
   ],
   "return_type" : "type-25",
   "source_file" : "/out/soong/.intermediates/hardware/interfaces/audio/2.0/android.hardware.audio@2.0_genc++_headers/gen/android/hardware/audio/2.0/BnHwStreamOut.h"
  },
  {
   "function_name" : "android::hardware::audio::V2_0::BnHwStreamOut::~BnHwStreamOut",
   "linker_set_key" : "_ZN7android8hardware5audio4V2_013BnHwStreamOutD0Ev",
   "parameters" :
   [
    {
     "is_this_ptr" : true,
     "referenced_type" : "type-1969"
    }
   ],
   "return_type" : "type-25",
   "source_file" : "/out/soong/.intermediates/hardware/interfaces/audio/2.0/android.hardware.audio@2.0_genc++_headers/gen/android/hardware/audio/2.0/BnHwStreamOut.h"
  },
  {
   "function_name" : "android::hardware::audio::V2_0::BnHwStreamOut::~BnHwStreamOut",
   "linker_set_key" : "_ZN7android8hardware5audio4V2_013BnHwStreamOutD1Ev",
   "parameters" :
   [
    {
     "is_this_ptr" : true,
     "referenced_type" : "type-1969"
    }
   ],
   "return_type" : "type-25",
   "source_file" : "/out/soong/.intermediates/hardware/interfaces/audio/2.0/android.hardware.audio@2.0_genc++_headers/gen/android/hardware/audio/2.0/BnHwStreamOut.h"
  },
  {
   "function_name" : "android::hardware::audio::V2_0::BnHwStreamOut::~BnHwStreamOut",
   "linker_set_key" : "_ZN7android8hardware5audio4V2_013BnHwStreamOutD2Ev",
   "parameters" :
   [
    {
     "is_this_ptr" : true,
     "referenced_type" : "type-1969"
    }
   ],
   "return_type" : "type-25",
   "source_file" : "/out/soong/.intermediates/hardware/interfaces/audio/2.0/android.hardware.audio@2.0_genc++_headers/gen/android/hardware/audio/2.0/BnHwStreamOut.h"
  },
  {
   "function_name" : "android::hardware::audio::V2_0::BpHwStreamOut::getLatency",
   "linker_set_key" : "_ZN7android8hardware5audio4V2_013BpHwStreamOut10getLatencyEv",
   "parameters" :
   [
    {
     "is_this_ptr" : true,
     "referenced_type" : "type-482"
    }
   ],
   "return_type" : "type-581",
   "source_file" : "/out/soong/.intermediates/hardware/interfaces/audio/2.0/android.hardware.audio@2.0_genc++_headers/gen/android/hardware/audio/2.0/BpHwStreamOut.h"
  },
  {
   "function_name" : "android::hardware::audio::V2_0::BpHwStreamOut::_hidl_drain",
   "linker_set_key" : "_ZN7android8hardware5audio4V2_013BpHwStreamOut11_hidl_drainEPNS0_10IInterfaceEPNS0_7details16HidlInstrumentorENS2_10AudioDrainE",
   "parameters" :
   [
    {
     "referenced_type" : "type-207"
    },
    {
     "referenced_type" : "type-1242"
    },
    {
     "referenced_type" : "type-1919"
    }
   ],
   "return_type" : "type-611",
   "source_file" : "/out/soong/.intermediates/hardware/interfaces/audio/2.0/android.hardware.audio@2.0_genc++_headers/gen/android/hardware/audio/2.0/BpHwStreamOut.h"
  },
  {
   "function_name" : "android::hardware::audio::V2_0::BpHwStreamOut::_hidl_flush",
   "linker_set_key" : "_ZN7android8hardware5audio4V2_013BpHwStreamOut11_hidl_flushEPNS0_10IInterfaceEPNS0_7details16HidlInstrumentorE",
   "parameters" :
   [
    {
     "referenced_type" : "type-207"
    },
    {
     "referenced_type" : "type-1242"
    }
   ],
   "return_type" : "type-611",
   "source_file" : "/out/soong/.intermediates/hardware/interfaces/audio/2.0/android.hardware.audio@2.0_genc++_headers/gen/android/hardware/audio/2.0/BpHwStreamOut.h"
  },
  {
   "function_name" : "android::hardware::audio::V2_0::BpHwStreamOut::_hidl_pause",
   "linker_set_key" : "_ZN7android8hardware5audio4V2_013BpHwStreamOut11_hidl_pauseEPNS0_10IInterfaceEPNS0_7details16HidlInstrumentorE",
   "parameters" :
   [
    {
     "referenced_type" : "type-207"
    },
    {
     "referenced_type" : "type-1242"
    }
   ],
   "return_type" : "type-611",
   "source_file" : "/out/soong/.intermediates/hardware/interfaces/audio/2.0/android.hardware.audio@2.0_genc++_headers/gen/android/hardware/audio/2.0/BpHwStreamOut.h"
  },
  {
   "function_name" : "android::hardware::audio::V2_0::BpHwStreamOut::linkToDeath",
   "linker_set_key" : "_ZN7android8hardware5audio4V2_013BpHwStreamOut11linkToDeathERKNS_2spINS0_20hidl_death_recipientEEEy",
   "parameters" :
   [
    {
     "is_this_ptr" : true,
     "referenced_type" : "type-482"
    },
    {
     "referenced_type" : "type-1988"
    },
    {
     "referenced_type" : "type-7"
    }
   ],
   "return_type" : "type-568",
   "source_file" : "/out/soong/.intermediates/hardware/interfaces/audio/2.0/android.hardware.audio@2.0_genc++_headers/gen/android/hardware/audio/2.0/BpHwStreamOut.h"
  },
  {
   "function_name" : "android::hardware::audio::V2_0::BpHwStreamOut::setCallback",
   "linker_set_key" : "_ZN7android8hardware5audio4V2_013BpHwStreamOut11setCallbackERKNS_2spINS2_18IStreamOutCallbackEEE",
   "parameters" :
   [
    {
     "is_this_ptr" : true,
     "referenced_type" : "type-482"
    },
    {
     "referenced_type" : "type-462"
    }
   ],
   "return_type" : "type-611",
   "source_file" : "/out/soong/.intermediates/hardware/interfaces/audio/2.0/android.hardware.audio@2.0_genc++_headers/gen/android/hardware/audio/2.0/BpHwStreamOut.h"
  },
  {
   "function_name" : "android::hardware::audio::V2_0::BpHwStreamOut::setHwAvSync",
   "linker_set_key" : "_ZN7android8hardware5audio4V2_013BpHwStreamOut11setHwAvSyncEj",
   "parameters" :
   [
    {
     "is_this_ptr" : true,
     "referenced_type" : "type-482"
    },
    {
     "referenced_type" : "type-2"
    }
   ],
   "return_type" : "type-611",
   "source_file" : "/out/soong/.intermediates/hardware/interfaces/audio/2.0/android.hardware.audio@2.0_genc++_headers/gen/android/hardware/audio/2.0/BpHwStreamOut.h"
  },
  {
   "function_name" : "android::hardware::audio::V2_0::BpHwStreamOut::_hidl_resume",
   "linker_set_key" : "_ZN7android8hardware5audio4V2_013BpHwStreamOut12_hidl_resumeEPNS0_10IInterfaceEPNS0_7details16HidlInstrumentorE",
   "parameters" :
   [
    {
     "referenced_type" : "type-207"
    },
    {
     "referenced_type" : "type-1242"
    }
   ],
   "return_type" : "type-611",
   "source_file" : "/out/soong/.intermediates/hardware/interfaces/audio/2.0/android.hardware.audio@2.0_genc++_headers/gen/android/hardware/audio/2.0/BpHwStreamOut.h"
  },
  {
   "function_name" : "android::hardware::audio::V2_0::BpHwStreamOut::getDebugInfo",
   "linker_set_key" : "_ZN7android8hardware5audio4V2_013BpHwStreamOut12getDebugInfoENSt3__18functionIFvRKNS_4hidl4base4V1_09DebugInfoEEEE",
   "parameters" :
   [
    {
     "is_this_ptr" : true,
     "referenced_type" : "type-482"
    },
    {
     "referenced_type" : "type-2164"
    }
   ],
   "return_type" : "type-707",
   "source_file" : "/out/soong/.intermediates/hardware/interfaces/audio/2.0/android.hardware.audio@2.0_genc++_headers/gen/android/hardware/audio/2.0/BpHwStreamOut.h"
  },
  {
   "function_name" : "android::hardware::audio::V2_0::BpHwStreamOut::getFrameSize",
   "linker_set_key" : "_ZN7android8hardware5audio4V2_013BpHwStreamOut12getFrameSizeEv",
   "parameters" :
   [
    {
     "is_this_ptr" : true,
     "referenced_type" : "type-482"
    }
   ],
   "return_type" : "type-402",
   "source_file" : "/out/soong/.intermediates/hardware/interfaces/audio/2.0/android.hardware.audio@2.0_genc++_headers/gen/android/hardware/audio/2.0/BpHwStreamOut.h"
  },
  {
   "function_name" : "android::hardware::audio::V2_0::BpHwStreamOut::getHashChain",
   "linker_set_key" : "_ZN7android8hardware5audio4V2_013BpHwStreamOut12getHashChainENSt3__18functionIFvRKNS0_8hidl_vecINS0_10hidl_arrayIhLj32EJEEEEEEEE",
   "parameters" :
   [
    {
     "is_this_ptr" : true,
     "referenced_type" : "type-482"
    },
    {
     "referenced_type" : "type-2165"
    }
   ],
   "return_type" : "type-707",
   "source_file" : "/out/soong/.intermediates/hardware/interfaces/audio/2.0/android.hardware.audio@2.0_genc++_headers/gen/android/hardware/audio/2.0/BpHwStreamOut.h"
  },
  {
   "function_name" : "android::hardware::audio::V2_0::BpHwStreamOut::removeEffect",
   "linker_set_key" : "_ZN7android8hardware5audio4V2_013BpHwStreamOut12removeEffectEy",
   "parameters" :
   [
    {
     "is_this_ptr" : true,
     "referenced_type" : "type-482"
    },
    {
     "referenced_type" : "type-7"
    }
   ],
   "return_type" : "type-611",
   "source_file" : "/out/soong/.intermediates/hardware/interfaces/audio/2.0/android.hardware.audio@2.0_genc++_headers/gen/android/hardware/audio/2.0/BpHwStreamOut.h"
  },
  {
   "function_name" : "android::hardware::audio::V2_0::BpHwStreamOut::clearCallback",
   "linker_set_key" : "_ZN7android8hardware5audio4V2_013BpHwStreamOut13clearCallbackEv",
   "parameters" :
   [
    {
     "is_this_ptr" : true,
     "referenced_type" : "type-482"
    }
   ],
   "return_type" : "type-611",
   "source_file" : "/out/soong/.intermediates/hardware/interfaces/audio/2.0/android.hardware.audio@2.0_genc++_headers/gen/android/hardware/audio/2.0/BpHwStreamOut.h"
  },
  {
   "function_name" : "android::hardware::audio::V2_0::BpHwStreamOut::getBufferSize",
   "linker_set_key" : "_ZN7android8hardware5audio4V2_013BpHwStreamOut13getBufferSizeEv",
   "parameters" :
   [
    {
     "is_this_ptr" : true,
     "referenced_type" : "type-482"
    }
   ],
   "return_type" : "type-402",
   "source_file" : "/out/soong/.intermediates/hardware/interfaces/audio/2.0/android.hardware.audio@2.0_genc++_headers/gen/android/hardware/audio/2.0/BpHwStreamOut.h"
  },
  {
   "function_name" : "android::hardware::audio::V2_0::BpHwStreamOut::getFrameCount",
   "linker_set_key" : "_ZN7android8hardware5audio4V2_013BpHwStreamOut13getFrameCountEv",
   "parameters" :
   [
    {
     "is_this_ptr" : true,
     "referenced_type" : "type-482"
    }
   ],
   "return_type" : "type-402",
   "source_file" : "/out/soong/.intermediates/hardware/interfaces/audio/2.0/android.hardware.audio@2.0_genc++_headers/gen/android/hardware/audio/2.0/BpHwStreamOut.h"
  },
  {
   "function_name" : "android::hardware::audio::V2_0::BpHwStreamOut::getParameters",
   "linker_set_key" : "_ZN7android8hardware5audio4V2_013BpHwStreamOut13getParametersERKNS0_8hidl_vecINS0_11hidl_stringEEENSt3__18functionIFvNS2_6ResultERKNS4_INS2_14ParameterValueEEEEEE",
   "parameters" :
   [
    {
     "is_this_ptr" : true,
     "referenced_type" : "type-482"
    },
    {
     "referenced_type" : "type-1512"
    },
    {
     "referenced_type" : "type-2166"
    }
   ],
   "return_type" : "type-707",
   "source_file" : "/out/soong/.intermediates/hardware/interfaces/audio/2.0/android.hardware.audio@2.0_genc++_headers/gen/android/hardware/audio/2.0/BpHwStreamOut.h"
  },
  {
   "function_name" : "android::hardware::audio::V2_0::BpHwStreamOut::getSampleRate",
   "linker_set_key" : "_ZN7android8hardware5audio4V2_013BpHwStreamOut13getSampleRateEv",
   "parameters" :
   [
    {
     "is_this_ptr" : true,
     "referenced_type" : "type-482"
    }
   ],
   "return_type" : "type-581",
   "source_file" : "/out/soong/.intermediates/hardware/interfaces/audio/2.0/android.hardware.audio@2.0_genc++_headers/gen/android/hardware/audio/2.0/BpHwStreamOut.h"
  },
  {
   "function_name" : "android::hardware::audio::V2_0::BpHwStreamOut::setParameters",
   "linker_set_key" : "_ZN7android8hardware5audio4V2_013BpHwStreamOut13setParametersERKNS0_8hidl_vecINS2_14ParameterValueEEE",
   "parameters" :
   [
    {
     "is_this_ptr" : true,
     "referenced_type" : "type-482"
    },
    {
     "referenced_type" : "type-1508"
    }
   ],
   "return_type" : "type-611",
   "source_file" : "/out/soong/.intermediates/hardware/interfaces/audio/2.0/android.hardware.audio@2.0_genc++_headers/gen/android/hardware/audio/2.0/BpHwStreamOut.h"
  },
  {
   "function_name" : "android::hardware::audio::V2_0::BpHwStreamOut::setSampleRate",
   "linker_set_key" : "_ZN7android8hardware5audio4V2_013BpHwStreamOut13setSampleRateEj",
   "parameters" :
   [
    {
     "is_this_ptr" : true,
     "referenced_type" : "type-482"
    },
    {
     "referenced_type" : "type-2"
    }
   ],
   "return_type" : "type-611",
   "source_file" : "/out/soong/.intermediates/hardware/interfaces/audio/2.0/android.hardware.audio@2.0_genc++_headers/gen/android/hardware/audio/2.0/BpHwStreamOut.h"
  },
  {
   "function_name" : "android::hardware::audio::V2_0::BpHwStreamOut::supportsDrain",
   "linker_set_key" : "_ZN7android8hardware5audio4V2_013BpHwStreamOut13supportsDrainEv",
   "parameters" :
   [
    {
     "is_this_ptr" : true,
     "referenced_type" : "type-482"
    }
   ],
   "return_type" : "type-568",
   "source_file" : "/out/soong/.intermediates/hardware/interfaces/audio/2.0/android.hardware.audio@2.0_genc++_headers/gen/android/hardware/audio/2.0/BpHwStreamOut.h"
  },
  {
   "function_name" : "android::hardware::audio::V2_0::BpHwStreamOut::unlinkToDeath",
   "linker_set_key" : "_ZN7android8hardware5audio4V2_013BpHwStreamOut13unlinkToDeathERKNS_2spINS0_20hidl_death_recipientEEE",
   "parameters" :
   [
    {
     "is_this_ptr" : true,
     "referenced_type" : "type-482"
    },
    {
     "referenced_type" : "type-1988"
    }
   ],
   "return_type" : "type-568",
   "source_file" : "/out/soong/.intermediates/hardware/interfaces/audio/2.0/android.hardware.audio@2.0_genc++_headers/gen/android/hardware/audio/2.0/BpHwStreamOut.h"
  },
  {
   "function_name" : "android::hardware::audio::V2_0::BpHwStreamOut::getChannelMask",
   "linker_set_key" : "_ZN7android8hardware5audio4V2_013BpHwStreamOut14getChannelMaskEv",
   "parameters" :
   [
    {
     "is_this_ptr" : true,
     "referenced_type" : "type-482"
    }
   ],
   "return_type" : "type-408",
   "source_file" : "/out/soong/.intermediates/hardware/interfaces/audio/2.0/android.hardware.audio@2.0_genc++_headers/gen/android/hardware/audio/2.0/BpHwStreamOut.h"
  },
  {
   "function_name" : "android::hardware::audio::V2_0::BpHwStreamOut::interfaceChain",
   "linker_set_key" : "_ZN7android8hardware5audio4V2_013BpHwStreamOut14interfaceChainENSt3__18functionIFvRKNS0_8hidl_vecINS0_11hidl_stringEEEEEE",
   "parameters" :
   [
    {
     "is_this_ptr" : true,
     "referenced_type" : "type-482"
    },
    {
     "referenced_type" : "type-2167"
    }
   ],
   "return_type" : "type-707",
   "source_file" : "/out/soong/.intermediates/hardware/interfaces/audio/2.0/android.hardware.audio@2.0_genc++_headers/gen/android/hardware/audio/2.0/BpHwStreamOut.h"
  },
  {
   "function_name" : "android::hardware::audio::V2_0::BpHwStreamOut::setChannelMask",
   "linker_set_key" : "_ZN7android8hardware5audio4V2_013BpHwStreamOut14setChannelMaskENS1_6common4V2_016AudioChannelMaskE",
   "parameters" :
   [
    {
     "is_this_ptr" : true,
     "referenced_type" : "type-482"
    },
    {
     "referenced_type" : "type-409"
    }
   ],
   "return_type" : "type-611",
   "source_file" : "/out/soong/.intermediates/hardware/interfaces/audio/2.0/android.hardware.audio@2.0_genc++_headers/gen/android/hardware/audio/2.0/BpHwStreamOut.h"
  },
  {
   "function_name" : "android::hardware::audio::V2_0::BpHwStreamOut::_hidl_setVolume",
   "linker_set_key" : "_ZN7android8hardware5audio4V2_013BpHwStreamOut15_hidl_setVolumeEPNS0_10IInterfaceEPNS0_7details16HidlInstrumentorEff",
   "parameters" :
   [
    {
     "referenced_type" : "type-207"
    },
    {
     "referenced_type" : "type-1242"
    },
    {
     "referenced_type" : "type-913"
    },
    {
     "referenced_type" : "type-913"
    }
   ],
   "return_type" : "type-611",
   "source_file" : "/out/soong/.intermediates/hardware/interfaces/audio/2.0/android.hardware.audio@2.0_genc++_headers/gen/android/hardware/audio/2.0/BpHwStreamOut.h"
  },
  {
   "function_name" : "android::hardware::audio::V2_0::BpHwStreamOut::getMmapPosition",
   "linker_set_key" : "_ZN7android8hardware5audio4V2_013BpHwStreamOut15getMmapPositionENSt3__18functionIFvNS2_6ResultERKNS2_12MmapPositionEEEE",
   "parameters" :
   [
    {
     "is_this_ptr" : true,
     "referenced_type" : "type-482"
    },
    {
     "referenced_type" : "type-2168"
    }
   ],
   "return_type" : "type-707",
   "source_file" : "/out/soong/.intermediates/hardware/interfaces/audio/2.0/android.hardware.audio@2.0_genc++_headers/gen/android/hardware/audio/2.0/BpHwStreamOut.h"
  },
  {
   "function_name" : "android::hardware::audio::V2_0::BpHwStreamOut::_hidl_getLatency",
   "linker_set_key" : "_ZN7android8hardware5audio4V2_013BpHwStreamOut16_hidl_getLatencyEPNS0_10IInterfaceEPNS0_7details16HidlInstrumentorE",
   "parameters" :
   [
    {
     "referenced_type" : "type-207"
    },
    {
     "referenced_type" : "type-1242"
    }
   ],
   "return_type" : "type-581",
   "source_file" : "/out/soong/.intermediates/hardware/interfaces/audio/2.0/android.hardware.audio@2.0_genc++_headers/gen/android/hardware/audio/2.0/BpHwStreamOut.h"
  },
  {
   "function_name" : "android::hardware::audio::V2_0::BpHwStreamOut::createMmapBuffer",
   "linker_set_key" : "_ZN7android8hardware5audio4V2_013BpHwStreamOut16createMmapBufferEiNSt3__18functionIFvNS2_6ResultERKNS2_14MmapBufferInfoEEEE",
   "parameters" :
   [
    {
     "is_this_ptr" : true,
     "referenced_type" : "type-482"
    },
    {
     "referenced_type" : "type-22"
    },
    {
     "referenced_type" : "type-2169"
    }
   ],
   "return_type" : "type-707",
   "source_file" : "/out/soong/.intermediates/hardware/interfaces/audio/2.0/android.hardware.audio@2.0_genc++_headers/gen/android/hardware/audio/2.0/BpHwStreamOut.h"
  },
  {
   "function_name" : "android::hardware::audio::V2_0::BpHwStreamOut::_hidl_setCallback",
   "linker_set_key" : "_ZN7android8hardware5audio4V2_013BpHwStreamOut17_hidl_setCallbackEPNS0_10IInterfaceEPNS0_7details16HidlInstrumentorERKNS_2spINS2_18IStreamOutCallbackEEE",
   "parameters" :
   [
    {
     "referenced_type" : "type-207"
    },
    {
     "referenced_type" : "type-1242"
    },
    {
     "referenced_type" : "type-462"
    }
   ],
   "return_type" : "type-611",
   "source_file" : "/out/soong/.intermediates/hardware/interfaces/audio/2.0/android.hardware.audio@2.0_genc++_headers/gen/android/hardware/audio/2.0/BpHwStreamOut.h"
  },
  {
   "function_name" : "android::hardware::audio::V2_0::BpHwStreamOut::getRenderPosition",
   "linker_set_key" : "_ZN7android8hardware5audio4V2_013BpHwStreamOut17getRenderPositionENSt3__18functionIFvNS2_6ResultEjEEE",
   "parameters" :
   [
    {
     "is_this_ptr" : true,
     "referenced_type" : "type-482"
    },
    {
     "referenced_type" : "type-2170"
    }
   ],
   "return_type" : "type-707",
   "source_file" : "/out/soong/.intermediates/hardware/interfaces/audio/2.0/android.hardware.audio@2.0_genc++_headers/gen/android/hardware/audio/2.0/BpHwStreamOut.h"
  },
  {
   "function_name" : "android::hardware::audio::V2_0::BpHwStreamOut::prepareForWriting",
   "linker_set_key" : "_ZN7android8hardware5audio4V2_013BpHwStreamOut17prepareForWritingEjjNSt3__18functionIFvNS2_6ResultERKNS0_12MQDescriptorINS2_10IStreamOut12WriteCommandELNS0_8MQFlavorE1EEERKNS7_IhLSA_1EEERKNS7_INS8_11WriteStatusELSA_1EEERKNS1_6common4V2_010ThreadInfoEEEE",
   "parameters" :
   [
    {
     "is_this_ptr" : true,
     "referenced_type" : "type-482"
    },
    {
     "referenced_type" : "type-2"
    },
    {
     "referenced_type" : "type-2"
    },
    {
     "referenced_type" : "type-2171"
    }
   ],
   "return_type" : "type-707",
   "source_file" : "/out/soong/.intermediates/hardware/interfaces/audio/2.0/android.hardware.audio@2.0_genc++_headers/gen/android/hardware/audio/2.0/BpHwStreamOut.h"
  },
  {
   "function_name" : "android::hardware::audio::V2_0::BpHwStreamOut::setConnectedState",
   "linker_set_key" : "_ZN7android8hardware5audio4V2_013BpHwStreamOut17setConnectedStateERKNS2_13DeviceAddressEb",
   "parameters" :
   [
    {
     "is_this_ptr" : true,
     "referenced_type" : "type-482"
    },
    {
     "referenced_type" : "type-1978"
    },
    {
     "referenced_type" : "type-29"
    }
   ],
   "return_type" : "type-611",
   "source_file" : "/out/soong/.intermediates/hardware/interfaces/audio/2.0/android.hardware.audio@2.0_genc++_headers/gen/android/hardware/audio/2.0/BpHwStreamOut.h"
  },
  {
   "function_name" : "android::hardware::audio::V2_0::BpHwStreamOut::getAudioProperties",
   "linker_set_key" : "_ZN7android8hardware5audio4V2_013BpHwStreamOut18getAudioPropertiesENSt3__18functionIFvjNS1_6common4V2_016AudioChannelMaskENS7_11AudioFormatEEEE",
   "parameters" :
   [
    {
     "is_this_ptr" : true,
     "referenced_type" : "type-482"
    },
    {
     "referenced_type" : "type-2172"
    }
   ],
   "return_type" : "type-707",
   "source_file" : "/out/soong/.intermediates/hardware/interfaces/audio/2.0/android.hardware.audio@2.0_genc++_headers/gen/android/hardware/audio/2.0/BpHwStreamOut.h"
  },
  {
   "function_name" : "android::hardware::audio::V2_0::BpHwStreamOut::_hidl_clearCallback",
   "linker_set_key" : "_ZN7android8hardware5audio4V2_013BpHwStreamOut19_hidl_clearCallbackEPNS0_10IInterfaceEPNS0_7details16HidlInstrumentorE",
   "parameters" :
   [
    {
     "referenced_type" : "type-207"
    },
    {
     "referenced_type" : "type-1242"
    }
   ],
   "return_type" : "type-611",
   "source_file" : "/out/soong/.intermediates/hardware/interfaces/audio/2.0/android.hardware.audio@2.0_genc++_headers/gen/android/hardware/audio/2.0/BpHwStreamOut.h"
  },
  {
   "function_name" : "android::hardware::audio::V2_0::BpHwStreamOut::_hidl_supportsDrain",
   "linker_set_key" : "_ZN7android8hardware5audio4V2_013BpHwStreamOut19_hidl_supportsDrainEPNS0_10IInterfaceEPNS0_7details16HidlInstrumentorE",
   "parameters" :
   [
    {
     "referenced_type" : "type-207"
    },
    {
     "referenced_type" : "type-1242"
    }
   ],
   "return_type" : "type-568",
   "source_file" : "/out/soong/.intermediates/hardware/interfaces/audio/2.0/android.hardware.audio@2.0_genc++_headers/gen/android/hardware/audio/2.0/BpHwStreamOut.h"
  },
  {
   "function_name" : "android::hardware::audio::V2_0::BpHwStreamOut::getSupportedFormats",
   "linker_set_key" : "_ZN7android8hardware5audio4V2_013BpHwStreamOut19getSupportedFormatsENSt3__18functionIFvRKNS0_8hidl_vecINS1_6common4V2_011AudioFormatEEEEEE",
   "parameters" :
   [
    {
     "is_this_ptr" : true,
     "referenced_type" : "type-482"
    },
    {
     "referenced_type" : "type-2173"
    }
   ],
   "return_type" : "type-707",
   "source_file" : "/out/soong/.intermediates/hardware/interfaces/audio/2.0/android.hardware.audio@2.0_genc++_headers/gen/android/hardware/audio/2.0/BpHwStreamOut.h"
  },
  {
   "function_name" : "android::hardware::audio::V2_0::BpHwStreamOut::interfaceDescriptor",
   "linker_set_key" : "_ZN7android8hardware5audio4V2_013BpHwStreamOut19interfaceDescriptorENSt3__18functionIFvRKNS0_11hidl_stringEEEE",
   "parameters" :
   [
    {
     "is_this_ptr" : true,
     "referenced_type" : "type-482"
    },
    {
     "referenced_type" : "type-2174"
    }
   ],
   "return_type" : "type-707",
   "source_file" : "/out/soong/.intermediates/hardware/interfaces/audio/2.0/android.hardware.audio@2.0_genc++_headers/gen/android/hardware/audio/2.0/BpHwStreamOut.h"
  },
  {
   "function_name" : "android::hardware::audio::V2_0::BpHwStreamOut::getNextWriteTimestamp",
   "linker_set_key" : "_ZN7android8hardware5audio4V2_013BpHwStreamOut21getNextWriteTimestampENSt3__18functionIFvNS2_6ResultExEEE",
   "parameters" :
   [
    {
     "is_this_ptr" : true,
     "referenced_type" : "type-482"
    },
    {
     "referenced_type" : "type-2175"
    }
   ],
   "return_type" : "type-707",
   "source_file" : "/out/soong/.intermediates/hardware/interfaces/audio/2.0/android.hardware.audio@2.0_genc++_headers/gen/android/hardware/audio/2.0/BpHwStreamOut.h"
  },
  {
   "function_name" : "android::hardware::audio::V2_0::BpHwStreamOut::notifySyspropsChanged",
   "linker_set_key" : "_ZN7android8hardware5audio4V2_013BpHwStreamOut21notifySyspropsChangedEv",
   "parameters" :
   [
    {
     "is_this_ptr" : true,
     "referenced_type" : "type-482"
    }
   ],
   "return_type" : "type-707",
   "source_file" : "/out/soong/.intermediates/hardware/interfaces/audio/2.0/android.hardware.audio@2.0_genc++_headers/gen/android/hardware/audio/2.0/BpHwStreamOut.h"
  },
  {
   "function_name" : "android::hardware::audio::V2_0::BpHwStreamOut::setHALInstrumentation",
   "linker_set_key" : "_ZN7android8hardware5audio4V2_013BpHwStreamOut21setHALInstrumentationEv",
   "parameters" :
   [
    {
     "is_this_ptr" : true,
     "referenced_type" : "type-482"
    }
   ],
   "return_type" : "type-707",
   "source_file" : "/out/soong/.intermediates/hardware/interfaces/audio/2.0/android.hardware.audio@2.0_genc++_headers/gen/android/hardware/audio/2.0/BpHwStreamOut.h"
  },
  {
   "function_name" : "android::hardware::audio::V2_0::BpHwStreamOut::supportsPauseAndResume",
   "linker_set_key" : "_ZN7android8hardware5audio4V2_013BpHwStreamOut22supportsPauseAndResumeENSt3__18functionIFvbbEEE",
   "parameters" :
   [
    {
     "is_this_ptr" : true,
     "referenced_type" : "type-482"
    },
    {
     "referenced_type" : "type-2176"
    }
   ],
   "return_type" : "type-707",
   "source_file" : "/out/soong/.intermediates/hardware/interfaces/audio/2.0/android.hardware.audio@2.0_genc++_headers/gen/android/hardware/audio/2.0/BpHwStreamOut.h"
  },
  {
   "function_name" : "android::hardware::audio::V2_0::BpHwStreamOut::_hidl_getRenderPosition",
   "linker_set_key" : "_ZN7android8hardware5audio4V2_013BpHwStreamOut23_hidl_getRenderPositionEPNS0_10IInterfaceEPNS0_7details16HidlInstrumentorENSt3__18functionIFvNS2_6ResultEjEEE",
   "parameters" :
   [
    {
     "referenced_type" : "type-207"
    },
    {
     "referenced_type" : "type-1242"
    },
    {
     "referenced_type" : "type-2177"
    }
   ],
   "return_type" : "type-707",
   "source_file" : "/out/soong/.intermediates/hardware/interfaces/audio/2.0/android.hardware.audio@2.0_genc++_headers/gen/android/hardware/audio/2.0/BpHwStreamOut.h"
  },
  {
   "function_name" : "android::hardware::audio::V2_0::BpHwStreamOut::_hidl_prepareForWriting",
   "linker_set_key" : "_ZN7android8hardware5audio4V2_013BpHwStreamOut23_hidl_prepareForWritingEPNS0_10IInterfaceEPNS0_7details16HidlInstrumentorEjjNSt3__18functionIFvNS2_6ResultERKNS0_12MQDescriptorINS2_10IStreamOut12WriteCommandELNS0_8MQFlavorE1EEERKNSC_IhLSF_1EEERKNSC_INSD_11WriteStatusELSF_1EEERKNS1_6common4V2_010ThreadInfoEEEE",
   "parameters" :
   [
    {
     "referenced_type" : "type-207"
    },
    {
     "referenced_type" : "type-1242"
    },
    {
     "referenced_type" : "type-2"
    },
    {
     "referenced_type" : "type-2"
    },
    {
     "referenced_type" : "type-2178"
    }
   ],
   "return_type" : "type-707",
   "source_file" : "/out/soong/.intermediates/hardware/interfaces/audio/2.0/android.hardware.audio@2.0_genc++_headers/gen/android/hardware/audio/2.0/BpHwStreamOut.h"
  },
  {
   "function_name" : "android::hardware::audio::V2_0::BpHwStreamOut::getPresentationPosition",
   "linker_set_key" : "_ZN7android8hardware5audio4V2_013BpHwStreamOut23getPresentationPositionENSt3__18functionIFvNS2_6ResultEyRKNS2_8TimeSpecEEEE",
   "parameters" :
   [
    {
     "is_this_ptr" : true,
     "referenced_type" : "type-482"
    },
    {
     "referenced_type" : "type-2179"
    }
   ],
   "return_type" : "type-707",
   "source_file" : "/out/soong/.intermediates/hardware/interfaces/audio/2.0/android.hardware.audio@2.0_genc++_headers/gen/android/hardware/audio/2.0/BpHwStreamOut.h"
  },
  {
   "function_name" : "android::hardware::audio::V2_0::BpHwStreamOut::getSupportedSampleRates",
   "linker_set_key" : "_ZN7android8hardware5audio4V2_013BpHwStreamOut23getSupportedSampleRatesENSt3__18functionIFvRKNS0_8hidl_vecIjEEEEE",
   "parameters" :
   [
    {
     "is_this_ptr" : true,
     "referenced_type" : "type-482"
    },
    {
     "referenced_type" : "type-2180"
    }
   ],
   "return_type" : "type-707",
   "source_file" : "/out/soong/.intermediates/hardware/interfaces/audio/2.0/android.hardware.audio@2.0_genc++_headers/gen/android/hardware/audio/2.0/BpHwStreamOut.h"
  },
  {
   "function_name" : "android::hardware::audio::V2_0::BpHwStreamOut::getSupportedChannelMasks",
   "linker_set_key" : "_ZN7android8hardware5audio4V2_013BpHwStreamOut24getSupportedChannelMasksENSt3__18functionIFvRKNS0_8hidl_vecINS1_6common4V2_016AudioChannelMaskEEEEEE",
   "parameters" :
   [
    {
     "is_this_ptr" : true,
     "referenced_type" : "type-482"
    },
    {
     "referenced_type" : "type-2181"
    }
   ],
   "return_type" : "type-707",
   "source_file" : "/out/soong/.intermediates/hardware/interfaces/audio/2.0/android.hardware.audio@2.0_genc++_headers/gen/android/hardware/audio/2.0/BpHwStreamOut.h"
  },
  {
   "function_name" : "android::hardware::audio::V2_0::BpHwStreamOut::_hidl_getNextWriteTimestamp",
   "linker_set_key" : "_ZN7android8hardware5audio4V2_013BpHwStreamOut27_hidl_getNextWriteTimestampEPNS0_10IInterfaceEPNS0_7details16HidlInstrumentorENSt3__18functionIFvNS2_6ResultExEEE",
   "parameters" :
   [
    {
     "referenced_type" : "type-207"
    },
    {
     "referenced_type" : "type-1242"
    },
    {
     "referenced_type" : "type-2182"
    }
   ],
   "return_type" : "type-707",
   "source_file" : "/out/soong/.intermediates/hardware/interfaces/audio/2.0/android.hardware.audio@2.0_genc++_headers/gen/android/hardware/audio/2.0/BpHwStreamOut.h"
  },
  {
   "function_name" : "android::hardware::audio::V2_0::BpHwStreamOut::_hidl_supportsPauseAndResume",
   "linker_set_key" : "_ZN7android8hardware5audio4V2_013BpHwStreamOut28_hidl_supportsPauseAndResumeEPNS0_10IInterfaceEPNS0_7details16HidlInstrumentorENSt3__18functionIFvbbEEE",
   "parameters" :
   [
    {
     "referenced_type" : "type-207"
    },
    {
     "referenced_type" : "type-1242"
    },
    {
     "referenced_type" : "type-2183"
    }
   ],
   "return_type" : "type-707",
   "source_file" : "/out/soong/.intermediates/hardware/interfaces/audio/2.0/android.hardware.audio@2.0_genc++_headers/gen/android/hardware/audio/2.0/BpHwStreamOut.h"
  },
  {
   "function_name" : "android::hardware::audio::V2_0::BpHwStreamOut::_hidl_getPresentationPosition",
   "linker_set_key" : "_ZN7android8hardware5audio4V2_013BpHwStreamOut29_hidl_getPresentationPositionEPNS0_10IInterfaceEPNS0_7details16HidlInstrumentorENSt3__18functionIFvNS2_6ResultEyRKNS2_8TimeSpecEEEE",
   "parameters" :
   [
    {
     "referenced_type" : "type-207"
    },
    {
     "referenced_type" : "type-1242"
    },
    {
     "referenced_type" : "type-2184"
    }
   ],
   "return_type" : "type-707",
   "source_file" : "/out/soong/.intermediates/hardware/interfaces/audio/2.0/android.hardware.audio@2.0_genc++_headers/gen/android/hardware/audio/2.0/BpHwStreamOut.h"
  },
  {
   "function_name" : "android::hardware::audio::V2_0::BpHwStreamOut::ping",
   "linker_set_key" : "_ZN7android8hardware5audio4V2_013BpHwStreamOut4pingEv",
   "parameters" :
   [
    {
     "is_this_ptr" : true,
     "referenced_type" : "type-482"
    }
   ],
   "return_type" : "type-707",
   "source_file" : "/out/soong/.intermediates/hardware/interfaces/audio/2.0/android.hardware.audio@2.0_genc++_headers/gen/android/hardware/audio/2.0/BpHwStreamOut.h"
  },
  {
   "function_name" : "android::hardware::audio::V2_0::BpHwStreamOut::stop",
   "linker_set_key" : "_ZN7android8hardware5audio4V2_013BpHwStreamOut4stopEv",
   "parameters" :
   [
    {
     "is_this_ptr" : true,
     "referenced_type" : "type-482"
    }
   ],
   "return_type" : "type-611",
   "source_file" : "/out/soong/.intermediates/hardware/interfaces/audio/2.0/android.hardware.audio@2.0_genc++_headers/gen/android/hardware/audio/2.0/BpHwStreamOut.h"
  },
  {
   "function_name" : "android::hardware::audio::V2_0::BpHwStreamOut::close",
   "linker_set_key" : "_ZN7android8hardware5audio4V2_013BpHwStreamOut5closeEv",
   "parameters" :
   [
    {
     "is_this_ptr" : true,
     "referenced_type" : "type-482"
    }
   ],
   "return_type" : "type-611",
   "source_file" : "/out/soong/.intermediates/hardware/interfaces/audio/2.0/android.hardware.audio@2.0_genc++_headers/gen/android/hardware/audio/2.0/BpHwStreamOut.h"
  },
  {
   "function_name" : "android::hardware::audio::V2_0::BpHwStreamOut::debug",
   "linker_set_key" : "_ZN7android8hardware5audio4V2_013BpHwStreamOut5debugERKNS0_11hidl_handleERKNS0_8hidl_vecINS0_11hidl_stringEEE",
   "parameters" :
   [
    {
     "is_this_ptr" : true,
     "referenced_type" : "type-482"
    },
    {
     "referenced_type" : "type-1389"
    },
    {
     "referenced_type" : "type-1512"
    }
   ],
   "return_type" : "type-707",
   "source_file" : "/out/soong/.intermediates/hardware/interfaces/audio/2.0/android.hardware.audio@2.0_genc++_headers/gen/android/hardware/audio/2.0/BpHwStreamOut.h"
  },
  {
   "function_name" : "android::hardware::audio::V2_0::BpHwStreamOut::drain",
   "linker_set_key" : "_ZN7android8hardware5audio4V2_013BpHwStreamOut5drainENS2_10AudioDrainE",
   "parameters" :
   [
    {
     "is_this_ptr" : true,
     "referenced_type" : "type-482"
    },
    {
     "referenced_type" : "type-1919"
    }
   ],
   "return_type" : "type-611",
   "source_file" : "/out/soong/.intermediates/hardware/interfaces/audio/2.0/android.hardware.audio@2.0_genc++_headers/gen/android/hardware/audio/2.0/BpHwStreamOut.h"
  },
  {
   "function_name" : "android::hardware::audio::V2_0::BpHwStreamOut::flush",
   "linker_set_key" : "_ZN7android8hardware5audio4V2_013BpHwStreamOut5flushEv",
   "parameters" :
   [
    {
     "is_this_ptr" : true,
     "referenced_type" : "type-482"
    }
   ],
   "return_type" : "type-611",
   "source_file" : "/out/soong/.intermediates/hardware/interfaces/audio/2.0/android.hardware.audio@2.0_genc++_headers/gen/android/hardware/audio/2.0/BpHwStreamOut.h"
  },
  {
   "function_name" : "android::hardware::audio::V2_0::BpHwStreamOut::pause",
   "linker_set_key" : "_ZN7android8hardware5audio4V2_013BpHwStreamOut5pauseEv",
   "parameters" :
   [
    {
     "is_this_ptr" : true,
     "referenced_type" : "type-482"
    }
   ],
   "return_type" : "type-611",
   "source_file" : "/out/soong/.intermediates/hardware/interfaces/audio/2.0/android.hardware.audio@2.0_genc++_headers/gen/android/hardware/audio/2.0/BpHwStreamOut.h"
  },
  {
   "function_name" : "android::hardware::audio::V2_0::BpHwStreamOut::start",
   "linker_set_key" : "_ZN7android8hardware5audio4V2_013BpHwStreamOut5startEv",
   "parameters" :
   [
    {
     "is_this_ptr" : true,
     "referenced_type" : "type-482"
    }
   ],
   "return_type" : "type-611",
   "source_file" : "/out/soong/.intermediates/hardware/interfaces/audio/2.0/android.hardware.audio@2.0_genc++_headers/gen/android/hardware/audio/2.0/BpHwStreamOut.h"
  },
  {
   "function_name" : "android::hardware::audio::V2_0::BpHwStreamOut::resume",
   "linker_set_key" : "_ZN7android8hardware5audio4V2_013BpHwStreamOut6resumeEv",
   "parameters" :
   [
    {
     "is_this_ptr" : true,
     "referenced_type" : "type-482"
    }
   ],
   "return_type" : "type-611",
   "source_file" : "/out/soong/.intermediates/hardware/interfaces/audio/2.0/android.hardware.audio@2.0_genc++_headers/gen/android/hardware/audio/2.0/BpHwStreamOut.h"
  },
  {
   "function_name" : "android::hardware::audio::V2_0::BpHwStreamOut::standby",
   "linker_set_key" : "_ZN7android8hardware5audio4V2_013BpHwStreamOut7standbyEv",
   "parameters" :
   [
    {
     "is_this_ptr" : true,
     "referenced_type" : "type-482"
    }
   ],
   "return_type" : "type-611",
   "source_file" : "/out/soong/.intermediates/hardware/interfaces/audio/2.0/android.hardware.audio@2.0_genc++_headers/gen/android/hardware/audio/2.0/BpHwStreamOut.h"
  },
  {
   "function_name" : "android::hardware::audio::V2_0::BpHwStreamOut::addEffect",
   "linker_set_key" : "_ZN7android8hardware5audio4V2_013BpHwStreamOut9addEffectEy",
   "parameters" :
   [
    {
     "is_this_ptr" : true,
     "referenced_type" : "type-482"
    },
    {
     "referenced_type" : "type-7"
    }
   ],
   "return_type" : "type-611",
   "source_file" : "/out/soong/.intermediates/hardware/interfaces/audio/2.0/android.hardware.audio@2.0_genc++_headers/gen/android/hardware/audio/2.0/BpHwStreamOut.h"
  },
  {
   "function_name" : "android::hardware::audio::V2_0::BpHwStreamOut::debugDump",
   "linker_set_key" : "_ZN7android8hardware5audio4V2_013BpHwStreamOut9debugDumpERKNS0_11hidl_handleE",
   "parameters" :
   [
    {
     "is_this_ptr" : true,
     "referenced_type" : "type-482"
    },
    {
     "referenced_type" : "type-1389"
    }
   ],
   "return_type" : "type-707",
   "source_file" : "/out/soong/.intermediates/hardware/interfaces/audio/2.0/android.hardware.audio@2.0_genc++_headers/gen/android/hardware/audio/2.0/BpHwStreamOut.h"
  },
  {
   "function_name" : "android::hardware::audio::V2_0::BpHwStreamOut::getDevice",
   "linker_set_key" : "_ZN7android8hardware5audio4V2_013BpHwStreamOut9getDeviceEv",
   "parameters" :
   [
    {
     "is_this_ptr" : true,
     "referenced_type" : "type-482"
    }
   ],
   "return_type" : "type-423",
   "source_file" : "/out/soong/.intermediates/hardware/interfaces/audio/2.0/android.hardware.audio@2.0_genc++_headers/gen/android/hardware/audio/2.0/BpHwStreamOut.h"
  },
  {
   "function_name" : "android::hardware::audio::V2_0::BpHwStreamOut::getFormat",
   "linker_set_key" : "_ZN7android8hardware5audio4V2_013BpHwStreamOut9getFormatEv",
   "parameters" :
   [
    {
     "is_this_ptr" : true,
     "referenced_type" : "type-482"
    }
   ],
   "return_type" : "type-415",
   "source_file" : "/out/soong/.intermediates/hardware/interfaces/audio/2.0/android.hardware.audio@2.0_genc++_headers/gen/android/hardware/audio/2.0/BpHwStreamOut.h"
  },
  {
   "function_name" : "android::hardware::audio::V2_0::BpHwStreamOut::setDevice",
   "linker_set_key" : "_ZN7android8hardware5audio4V2_013BpHwStreamOut9setDeviceERKNS2_13DeviceAddressE",
   "parameters" :
   [
    {
     "is_this_ptr" : true,
     "referenced_type" : "type-482"
    },
    {
     "referenced_type" : "type-1978"
    }
   ],
   "return_type" : "type-611",
   "source_file" : "/out/soong/.intermediates/hardware/interfaces/audio/2.0/android.hardware.audio@2.0_genc++_headers/gen/android/hardware/audio/2.0/BpHwStreamOut.h"
  },
  {
   "function_name" : "android::hardware::audio::V2_0::BpHwStreamOut::setFormat",
   "linker_set_key" : "_ZN7android8hardware5audio4V2_013BpHwStreamOut9setFormatENS1_6common4V2_011AudioFormatE",
   "parameters" :
   [
    {
     "is_this_ptr" : true,
     "referenced_type" : "type-482"
    },
    {
     "referenced_type" : "type-416"
    }
   ],
   "return_type" : "type-611",
   "source_file" : "/out/soong/.intermediates/hardware/interfaces/audio/2.0/android.hardware.audio@2.0_genc++_headers/gen/android/hardware/audio/2.0/BpHwStreamOut.h"
  },
  {
   "function_name" : "android::hardware::audio::V2_0::BpHwStreamOut::setVolume",
   "linker_set_key" : "_ZN7android8hardware5audio4V2_013BpHwStreamOut9setVolumeEff",
   "parameters" :
   [
    {
     "is_this_ptr" : true,
     "referenced_type" : "type-482"
    },
    {
     "referenced_type" : "type-913"
    },
    {
     "referenced_type" : "type-913"
    }
   ],
   "return_type" : "type-611",
   "source_file" : "/out/soong/.intermediates/hardware/interfaces/audio/2.0/android.hardware.audio@2.0_genc++_headers/gen/android/hardware/audio/2.0/BpHwStreamOut.h"
  },
  {
   "function_name" : "android::hardware::audio::V2_0::BpHwStreamOut::BpHwStreamOut",
   "linker_set_key" : "_ZN7android8hardware5audio4V2_013BpHwStreamOutC1ERKNS_2spINS0_7IBinderEEE",
   "parameters" :
   [
    {
     "is_this_ptr" : true,
     "referenced_type" : "type-482"
    },
    {
     "referenced_type" : "type-240"
    }
   ],
   "return_type" : "type-25",
   "source_file" : "/out/soong/.intermediates/hardware/interfaces/audio/2.0/android.hardware.audio@2.0_genc++_headers/gen/android/hardware/audio/2.0/BpHwStreamOut.h"
  },
  {
   "function_name" : "android::hardware::audio::V2_0::BpHwStreamOut::BpHwStreamOut",
   "linker_set_key" : "_ZN7android8hardware5audio4V2_013BpHwStreamOutC2ERKNS_2spINS0_7IBinderEEE",
   "parameters" :
   [
    {
     "is_this_ptr" : true,
     "referenced_type" : "type-482"
    },
    {
     "referenced_type" : "type-240"
    }
   ],
   "return_type" : "type-25",
   "source_file" : "/out/soong/.intermediates/hardware/interfaces/audio/2.0/android.hardware.audio@2.0_genc++_headers/gen/android/hardware/audio/2.0/BpHwStreamOut.h"
  },
  {
   "function_name" : "android::hardware::audio::V2_0::IPrimaryDevice::getService",
   "linker_set_key" : "_ZN7android8hardware5audio4V2_014IPrimaryDevice10getServiceERKNSt3__112basic_stringIcNS4_11char_traitsIcEENS4_9allocatorIcEEEEb",
   "parameters" :
   [
    {
     "default_arg" : true,
     "referenced_type" : "type-288"
    },
    {
     "default_arg" : true,
     "referenced_type" : "type-29"
    }
   ],
   "return_type" : "type-212",
   "source_file" : "/out/soong/.intermediates/hardware/interfaces/audio/2.0/android.hardware.audio@2.0_genc++_headers/gen/android/hardware/audio/2.0/IPrimaryDevice.h"
  },
  {
   "function_name" : "android::hardware::audio::V2_0::IPrimaryDevice::linkToDeath",
   "linker_set_key" : "_ZN7android8hardware5audio4V2_014IPrimaryDevice11linkToDeathERKNS_2spINS0_20hidl_death_recipientEEEy",
   "parameters" :
   [
    {
     "is_this_ptr" : true,
     "referenced_type" : "type-213"
    },
    {
     "referenced_type" : "type-1988"
    },
    {
     "referenced_type" : "type-7"
    }
   ],
   "return_type" : "type-568",
   "source_file" : "/out/soong/.intermediates/hardware/interfaces/audio/2.0/android.hardware.audio@2.0_genc++_headers/gen/android/hardware/audio/2.0/IPrimaryDevice.h"
  },
  {
   "function_name" : "android::hardware::audio::V2_0::IPrimaryDevice::getDebugInfo",
   "linker_set_key" : "_ZN7android8hardware5audio4V2_014IPrimaryDevice12getDebugInfoENSt3__18functionIFvRKNS_4hidl4base4V1_09DebugInfoEEEE",
   "parameters" :
   [
    {
     "is_this_ptr" : true,
     "referenced_type" : "type-213"
    },
    {
     "referenced_type" : "type-2185"
    }
   ],
   "return_type" : "type-707",
   "source_file" : "/out/soong/.intermediates/hardware/interfaces/audio/2.0/android.hardware.audio@2.0_genc++_headers/gen/android/hardware/audio/2.0/IPrimaryDevice.h"
  },
  {
   "function_name" : "android::hardware::audio::V2_0::IPrimaryDevice::getHashChain",
   "linker_set_key" : "_ZN7android8hardware5audio4V2_014IPrimaryDevice12getHashChainENSt3__18functionIFvRKNS0_8hidl_vecINS0_10hidl_arrayIhLj32EJEEEEEEEE",
   "parameters" :
   [
    {
     "is_this_ptr" : true,
     "referenced_type" : "type-213"
    },
    {
     "referenced_type" : "type-2186"
    }
   ],
   "return_type" : "type-707",
   "source_file" : "/out/soong/.intermediates/hardware/interfaces/audio/2.0/android.hardware.audio@2.0_genc++_headers/gen/android/hardware/audio/2.0/IPrimaryDevice.h"
  },
  {
   "function_name" : "android::hardware::audio::V2_0::IPrimaryDevice::tryGetService",
   "linker_set_key" : "_ZN7android8hardware5audio4V2_014IPrimaryDevice13tryGetServiceERKNSt3__112basic_stringIcNS4_11char_traitsIcEENS4_9allocatorIcEEEEb",
   "parameters" :
   [
    {
     "default_arg" : true,
     "referenced_type" : "type-288"
    },
    {
     "default_arg" : true,
     "referenced_type" : "type-29"
    }
   ],
   "return_type" : "type-212",
   "source_file" : "/out/soong/.intermediates/hardware/interfaces/audio/2.0/android.hardware.audio@2.0_genc++_headers/gen/android/hardware/audio/2.0/IPrimaryDevice.h"
  },
  {
   "function_name" : "android::hardware::audio::V2_0::IPrimaryDevice::unlinkToDeath",
   "linker_set_key" : "_ZN7android8hardware5audio4V2_014IPrimaryDevice13unlinkToDeathERKNS_2spINS0_20hidl_death_recipientEEE",
   "parameters" :
   [
    {
     "is_this_ptr" : true,
     "referenced_type" : "type-213"
    },
    {
     "referenced_type" : "type-1988"
    }
   ],
   "return_type" : "type-568",
   "source_file" : "/out/soong/.intermediates/hardware/interfaces/audio/2.0/android.hardware.audio@2.0_genc++_headers/gen/android/hardware/audio/2.0/IPrimaryDevice.h"
  },
  {
   "function_name" : "android::hardware::audio::V2_0::IPrimaryDevice::interfaceChain",
   "linker_set_key" : "_ZN7android8hardware5audio4V2_014IPrimaryDevice14interfaceChainENSt3__18functionIFvRKNS0_8hidl_vecINS0_11hidl_stringEEEEEE",
   "parameters" :
   [
    {
     "is_this_ptr" : true,
     "referenced_type" : "type-213"
    },
    {
     "referenced_type" : "type-2187"
    }
   ],
   "return_type" : "type-707",
   "source_file" : "/out/soong/.intermediates/hardware/interfaces/audio/2.0/android.hardware.audio@2.0_genc++_headers/gen/android/hardware/audio/2.0/IPrimaryDevice.h"
  },
  {
   "function_name" : "android::hardware::audio::V2_0::IPrimaryDevice::registerAsService",
   "linker_set_key" : "_ZN7android8hardware5audio4V2_014IPrimaryDevice17registerAsServiceERKNSt3__112basic_stringIcNS4_11char_traitsIcEENS4_9allocatorIcEEEE",
   "parameters" :
   [
    {
     "is_this_ptr" : true,
     "referenced_type" : "type-213"
    },
    {
     "default_arg" : true,
     "referenced_type" : "type-288"
    }
   ],
   "return_type" : "type-22",
   "source_file" : "/out/soong/.intermediates/hardware/interfaces/audio/2.0/android.hardware.audio@2.0_genc++_headers/gen/android/hardware/audio/2.0/IPrimaryDevice.h"
  },
  {
   "function_name" : "android::hardware::audio::V2_0::IPrimaryDevice::interfaceDescriptor",
   "linker_set_key" : "_ZN7android8hardware5audio4V2_014IPrimaryDevice19interfaceDescriptorENSt3__18functionIFvRKNS0_11hidl_stringEEEE",
   "parameters" :
   [
    {
     "is_this_ptr" : true,
     "referenced_type" : "type-213"
    },
    {
     "referenced_type" : "type-2188"
    }
   ],
   "return_type" : "type-707",
   "source_file" : "/out/soong/.intermediates/hardware/interfaces/audio/2.0/android.hardware.audio@2.0_genc++_headers/gen/android/hardware/audio/2.0/IPrimaryDevice.h"
  },
  {
   "function_name" : "android::hardware::audio::V2_0::IPrimaryDevice::notifySyspropsChanged",
   "linker_set_key" : "_ZN7android8hardware5audio4V2_014IPrimaryDevice21notifySyspropsChangedEv",
   "parameters" :
   [
    {
     "is_this_ptr" : true,
     "referenced_type" : "type-213"
    }
   ],
   "return_type" : "type-707",
   "source_file" : "/out/soong/.intermediates/hardware/interfaces/audio/2.0/android.hardware.audio@2.0_genc++_headers/gen/android/hardware/audio/2.0/IPrimaryDevice.h"
  },
  {
   "function_name" : "android::hardware::audio::V2_0::IPrimaryDevice::setHALInstrumentation",
   "linker_set_key" : "_ZN7android8hardware5audio4V2_014IPrimaryDevice21setHALInstrumentationEv",
   "parameters" :
   [
    {
     "is_this_ptr" : true,
     "referenced_type" : "type-213"
    }
   ],
   "return_type" : "type-707",
   "source_file" : "/out/soong/.intermediates/hardware/interfaces/audio/2.0/android.hardware.audio@2.0_genc++_headers/gen/android/hardware/audio/2.0/IPrimaryDevice.h"
  },
  {
   "function_name" : "android::hardware::audio::V2_0::IPrimaryDevice::registerForNotifications",
   "linker_set_key" : "_ZN7android8hardware5audio4V2_014IPrimaryDevice24registerForNotificationsERKNSt3__112basic_stringIcNS4_11char_traitsIcEENS4_9allocatorIcEEEERKNS_2spINS_4hidl7manager4V1_020IServiceNotificationEEE",
   "parameters" :
   [
    {
     "referenced_type" : "type-288"
    },
    {
     "referenced_type" : "type-1948"
    }
   ],
   "return_type" : "type-29",
   "source_file" : "/out/soong/.intermediates/hardware/interfaces/audio/2.0/android.hardware.audio@2.0_genc++_headers/gen/android/hardware/audio/2.0/IPrimaryDevice.h"
  },
  {
   "function_name" : "android::hardware::audio::V2_0::IPrimaryDevice::ping",
   "linker_set_key" : "_ZN7android8hardware5audio4V2_014IPrimaryDevice4pingEv",
   "parameters" :
   [
    {
     "is_this_ptr" : true,
     "referenced_type" : "type-213"
    }
   ],
   "return_type" : "type-707",
   "source_file" : "/out/soong/.intermediates/hardware/interfaces/audio/2.0/android.hardware.audio@2.0_genc++_headers/gen/android/hardware/audio/2.0/IPrimaryDevice.h"
  },
  {
   "function_name" : "android::hardware::audio::V2_0::IPrimaryDevice::debug",
   "linker_set_key" : "_ZN7android8hardware5audio4V2_014IPrimaryDevice5debugERKNS0_11hidl_handleERKNS0_8hidl_vecINS0_11hidl_stringEEE",
   "parameters" :
   [
    {
     "is_this_ptr" : true,
     "referenced_type" : "type-213"
    },
    {
     "referenced_type" : "type-1389"
    },
    {
     "referenced_type" : "type-1512"
    }
   ],
   "return_type" : "type-707",
   "source_file" : "/out/soong/.intermediates/hardware/interfaces/audio/2.0/android.hardware.audio@2.0_genc++_headers/gen/android/hardware/audio/2.0/IPrimaryDevice.h"
  },
  {
   "function_name" : "android::hardware::audio::V2_0::IPrimaryDevice::castFrom",
   "linker_set_key" : "_ZN7android8hardware5audio4V2_014IPrimaryDevice8castFromERKNS_2spINS2_7IDeviceEEEb",
   "parameters" :
   [
    {
     "referenced_type" : "type-1743"
    },
    {
     "default_arg" : true,
     "referenced_type" : "type-29"
    }
   ],
   "return_type" : "type-261",
   "source_file" : "/out/soong/.intermediates/hardware/interfaces/audio/2.0/android.hardware.audio@2.0_genc++_headers/gen/android/hardware/audio/2.0/IPrimaryDevice.h"
  },
  {
   "function_name" : "android::hardware::audio::V2_0::IPrimaryDevice::castFrom",
   "linker_set_key" : "_ZN7android8hardware5audio4V2_014IPrimaryDevice8castFromERKNS_2spINS_4hidl4base4V1_05IBaseEEEb",
   "parameters" :
   [
    {
     "referenced_type" : "type-72"
    },
    {
     "default_arg" : true,
     "referenced_type" : "type-29"
    }
   ],
   "return_type" : "type-261",
   "source_file" : "/out/soong/.intermediates/hardware/interfaces/audio/2.0/android.hardware.audio@2.0_genc++_headers/gen/android/hardware/audio/2.0/IPrimaryDevice.h"
  },
  {
   "function_name" : "android::hardware::audio::V2_0::IPrimaryDevice::castFrom",
   "linker_set_key" : "_ZN7android8hardware5audio4V2_014IPrimaryDevice8castFromERKNS_2spIS3_EEb",
   "parameters" :
   [
    {
     "referenced_type" : "type-215"
    },
    {
     "default_arg" : true,
     "referenced_type" : "type-29"
    }
   ],
   "return_type" : "type-261",
   "source_file" : "/out/soong/.intermediates/hardware/interfaces/audio/2.0/android.hardware.audio@2.0_genc++_headers/gen/android/hardware/audio/2.0/IPrimaryDevice.h"
  },
  {
   "access" : "private",
   "function_name" : "android::hardware::audio::V2_0::BsPrimaryDevice::addOnewayTask",
   "linker_set_key" : "_ZN7android8hardware5audio4V2_015BsPrimaryDevice13addOnewayTaskENSt3__18functionIFvvEEE",
   "parameters" :
   [
    {
     "is_this_ptr" : true,
     "referenced_type" : "type-251"
    },
    {
     "referenced_type" : "type-2194"
    }
   ],
   "return_type" : "type-707",
   "source_file" : "/out/soong/.intermediates/hardware/interfaces/audio/2.0/android.hardware.audio@2.0_genc++_headers/gen/android/hardware/audio/2.0/BsPrimaryDevice.h"
  },
  {
   "function_name" : "android::hardware::audio::V2_0::BsPrimaryDevice::BsPrimaryDevice",
   "linker_set_key" : "_ZN7android8hardware5audio4V2_015BsPrimaryDeviceC1ENS_2spINS2_14IPrimaryDeviceEEE",
   "parameters" :
   [
    {
     "is_this_ptr" : true,
     "referenced_type" : "type-251"
    },
    {
     "referenced_type" : "type-211"
    }
   ],
   "return_type" : "type-25",
   "source_file" : "/out/soong/.intermediates/hardware/interfaces/audio/2.0/android.hardware.audio@2.0_genc++_headers/gen/android/hardware/audio/2.0/BsPrimaryDevice.h"
  },
  {
   "function_name" : "android::hardware::audio::V2_0::BsPrimaryDevice::BsPrimaryDevice",
   "linker_set_key" : "_ZN7android8hardware5audio4V2_015BsPrimaryDeviceC2ENS_2spINS2_14IPrimaryDeviceEEE",
   "parameters" :
   [
    {
     "is_this_ptr" : true,
     "referenced_type" : "type-251"
    },
    {
     "referenced_type" : "type-211"
    }
   ],
   "return_type" : "type-25",
   "source_file" : "/out/soong/.intermediates/hardware/interfaces/audio/2.0/android.hardware.audio@2.0_genc++_headers/gen/android/hardware/audio/2.0/BsPrimaryDevice.h"
  },
  {
   "function_name" : "android::hardware::audio::V2_0::IDevicesFactory::getService",
   "linker_set_key" : "_ZN7android8hardware5audio4V2_015IDevicesFactory10getServiceERKNSt3__112basic_stringIcNS4_11char_traitsIcEENS4_9allocatorIcEEEEb",
   "parameters" :
   [
    {
     "default_arg" : true,
     "referenced_type" : "type-112"
    },
    {
     "default_arg" : true,
     "referenced_type" : "type-29"
    }
   ],
   "return_type" : "type-33",
   "source_file" : "/out/soong/.intermediates/hardware/interfaces/audio/2.0/android.hardware.audio@2.0_genc++_headers/gen/android/hardware/audio/2.0/IDevicesFactory.h"
  },
  {
   "function_name" : "android::hardware::audio::V2_0::IDevicesFactory::linkToDeath",
   "linker_set_key" : "_ZN7android8hardware5audio4V2_015IDevicesFactory11linkToDeathERKNS_2spINS0_20hidl_death_recipientEEEy",
   "parameters" :
   [
    {
     "is_this_ptr" : true,
     "referenced_type" : "type-34"
    },
    {
     "referenced_type" : "type-1988"
    },
    {
     "referenced_type" : "type-7"
    }
   ],
   "return_type" : "type-568",
   "source_file" : "/out/soong/.intermediates/hardware/interfaces/audio/2.0/android.hardware.audio@2.0_genc++_headers/gen/android/hardware/audio/2.0/IDevicesFactory.h"
  },
  {
   "function_name" : "android::hardware::audio::V2_0::IDevicesFactory::getDebugInfo",
   "linker_set_key" : "_ZN7android8hardware5audio4V2_015IDevicesFactory12getDebugInfoENSt3__18functionIFvRKNS_4hidl4base4V1_09DebugInfoEEEE",
   "parameters" :
   [
    {
     "is_this_ptr" : true,
     "referenced_type" : "type-34"
    },
    {
     "referenced_type" : "type-2207"
    }
   ],
   "return_type" : "type-707",
   "source_file" : "/out/soong/.intermediates/hardware/interfaces/audio/2.0/android.hardware.audio@2.0_genc++_headers/gen/android/hardware/audio/2.0/IDevicesFactory.h"
  },
  {
   "function_name" : "android::hardware::audio::V2_0::IDevicesFactory::getHashChain",
   "linker_set_key" : "_ZN7android8hardware5audio4V2_015IDevicesFactory12getHashChainENSt3__18functionIFvRKNS0_8hidl_vecINS0_10hidl_arrayIhLj32EJEEEEEEEE",
   "parameters" :
   [
    {
     "is_this_ptr" : true,
     "referenced_type" : "type-34"
    },
    {
     "referenced_type" : "type-2208"
    }
   ],
   "return_type" : "type-707",
   "source_file" : "/out/soong/.intermediates/hardware/interfaces/audio/2.0/android.hardware.audio@2.0_genc++_headers/gen/android/hardware/audio/2.0/IDevicesFactory.h"
  },
  {
   "function_name" : "android::hardware::audio::V2_0::IDevicesFactory::tryGetService",
   "linker_set_key" : "_ZN7android8hardware5audio4V2_015IDevicesFactory13tryGetServiceERKNSt3__112basic_stringIcNS4_11char_traitsIcEENS4_9allocatorIcEEEEb",
   "parameters" :
   [
    {
     "default_arg" : true,
     "referenced_type" : "type-112"
    },
    {
     "default_arg" : true,
     "referenced_type" : "type-29"
    }
   ],
   "return_type" : "type-33",
   "source_file" : "/out/soong/.intermediates/hardware/interfaces/audio/2.0/android.hardware.audio@2.0_genc++_headers/gen/android/hardware/audio/2.0/IDevicesFactory.h"
  },
  {
   "function_name" : "android::hardware::audio::V2_0::IDevicesFactory::unlinkToDeath",
   "linker_set_key" : "_ZN7android8hardware5audio4V2_015IDevicesFactory13unlinkToDeathERKNS_2spINS0_20hidl_death_recipientEEE",
   "parameters" :
   [
    {
     "is_this_ptr" : true,
     "referenced_type" : "type-34"
    },
    {
     "referenced_type" : "type-1988"
    }
   ],
   "return_type" : "type-568",
   "source_file" : "/out/soong/.intermediates/hardware/interfaces/audio/2.0/android.hardware.audio@2.0_genc++_headers/gen/android/hardware/audio/2.0/IDevicesFactory.h"
  },
  {
   "function_name" : "android::hardware::audio::V2_0::IDevicesFactory::interfaceChain",
   "linker_set_key" : "_ZN7android8hardware5audio4V2_015IDevicesFactory14interfaceChainENSt3__18functionIFvRKNS0_8hidl_vecINS0_11hidl_stringEEEEEE",
   "parameters" :
   [
    {
     "is_this_ptr" : true,
     "referenced_type" : "type-34"
    },
    {
     "referenced_type" : "type-2209"
    }
   ],
   "return_type" : "type-707",
   "source_file" : "/out/soong/.intermediates/hardware/interfaces/audio/2.0/android.hardware.audio@2.0_genc++_headers/gen/android/hardware/audio/2.0/IDevicesFactory.h"
  },
  {
   "function_name" : "android::hardware::audio::V2_0::IDevicesFactory::registerAsService",
   "linker_set_key" : "_ZN7android8hardware5audio4V2_015IDevicesFactory17registerAsServiceERKNSt3__112basic_stringIcNS4_11char_traitsIcEENS4_9allocatorIcEEEE",
   "parameters" :
   [
    {
     "is_this_ptr" : true,
     "referenced_type" : "type-34"
    },
    {
     "default_arg" : true,
     "referenced_type" : "type-112"
    }
   ],
   "return_type" : "type-22",
   "source_file" : "/out/soong/.intermediates/hardware/interfaces/audio/2.0/android.hardware.audio@2.0_genc++_headers/gen/android/hardware/audio/2.0/IDevicesFactory.h"
  },
  {
   "function_name" : "android::hardware::audio::V2_0::IDevicesFactory::interfaceDescriptor",
   "linker_set_key" : "_ZN7android8hardware5audio4V2_015IDevicesFactory19interfaceDescriptorENSt3__18functionIFvRKNS0_11hidl_stringEEEE",
   "parameters" :
   [
    {
     "is_this_ptr" : true,
     "referenced_type" : "type-34"
    },
    {
     "referenced_type" : "type-2210"
    }
   ],
   "return_type" : "type-707",
   "source_file" : "/out/soong/.intermediates/hardware/interfaces/audio/2.0/android.hardware.audio@2.0_genc++_headers/gen/android/hardware/audio/2.0/IDevicesFactory.h"
  },
  {
   "function_name" : "android::hardware::audio::V2_0::IDevicesFactory::notifySyspropsChanged",
   "linker_set_key" : "_ZN7android8hardware5audio4V2_015IDevicesFactory21notifySyspropsChangedEv",
   "parameters" :
   [
    {
     "is_this_ptr" : true,
     "referenced_type" : "type-34"
    }
   ],
   "return_type" : "type-707",
   "source_file" : "/out/soong/.intermediates/hardware/interfaces/audio/2.0/android.hardware.audio@2.0_genc++_headers/gen/android/hardware/audio/2.0/IDevicesFactory.h"
  },
  {
   "function_name" : "android::hardware::audio::V2_0::IDevicesFactory::setHALInstrumentation",
   "linker_set_key" : "_ZN7android8hardware5audio4V2_015IDevicesFactory21setHALInstrumentationEv",
   "parameters" :
   [
    {
     "is_this_ptr" : true,
     "referenced_type" : "type-34"
    }
   ],
   "return_type" : "type-707",
   "source_file" : "/out/soong/.intermediates/hardware/interfaces/audio/2.0/android.hardware.audio@2.0_genc++_headers/gen/android/hardware/audio/2.0/IDevicesFactory.h"
  },
  {
   "function_name" : "android::hardware::audio::V2_0::IDevicesFactory::registerForNotifications",
   "linker_set_key" : "_ZN7android8hardware5audio4V2_015IDevicesFactory24registerForNotificationsERKNSt3__112basic_stringIcNS4_11char_traitsIcEENS4_9allocatorIcEEEERKNS_2spINS_4hidl7manager4V1_020IServiceNotificationEEE",
   "parameters" :
   [
    {
     "referenced_type" : "type-112"
    },
    {
     "referenced_type" : "type-1948"
    }
   ],
   "return_type" : "type-29",
   "source_file" : "/out/soong/.intermediates/hardware/interfaces/audio/2.0/android.hardware.audio@2.0_genc++_headers/gen/android/hardware/audio/2.0/IDevicesFactory.h"
  },
  {
   "function_name" : "android::hardware::audio::V2_0::IDevicesFactory::ping",
   "linker_set_key" : "_ZN7android8hardware5audio4V2_015IDevicesFactory4pingEv",
   "parameters" :
   [
    {
     "is_this_ptr" : true,
     "referenced_type" : "type-34"
    }
   ],
   "return_type" : "type-707",
   "source_file" : "/out/soong/.intermediates/hardware/interfaces/audio/2.0/android.hardware.audio@2.0_genc++_headers/gen/android/hardware/audio/2.0/IDevicesFactory.h"
  },
  {
   "function_name" : "android::hardware::audio::V2_0::IDevicesFactory::debug",
   "linker_set_key" : "_ZN7android8hardware5audio4V2_015IDevicesFactory5debugERKNS0_11hidl_handleERKNS0_8hidl_vecINS0_11hidl_stringEEE",
   "parameters" :
   [
    {
     "is_this_ptr" : true,
     "referenced_type" : "type-34"
    },
    {
     "referenced_type" : "type-1389"
    },
    {
     "referenced_type" : "type-1512"
    }
   ],
   "return_type" : "type-707",
   "source_file" : "/out/soong/.intermediates/hardware/interfaces/audio/2.0/android.hardware.audio@2.0_genc++_headers/gen/android/hardware/audio/2.0/IDevicesFactory.h"
  },
  {
   "function_name" : "android::hardware::audio::V2_0::IDevicesFactory::castFrom",
   "linker_set_key" : "_ZN7android8hardware5audio4V2_015IDevicesFactory8castFromERKNS_2spINS_4hidl4base4V1_05IBaseEEEb",
   "parameters" :
   [
    {
     "referenced_type" : "type-72"
    },
    {
     "default_arg" : true,
     "referenced_type" : "type-29"
    }
   ],
   "return_type" : "type-75",
   "source_file" : "/out/soong/.intermediates/hardware/interfaces/audio/2.0/android.hardware.audio@2.0_genc++_headers/gen/android/hardware/audio/2.0/IDevicesFactory.h"
  },
  {
   "function_name" : "android::hardware::audio::V2_0::IDevicesFactory::castFrom",
   "linker_set_key" : "_ZN7android8hardware5audio4V2_015IDevicesFactory8castFromERKNS_2spIS3_EEb",
   "parameters" :
   [
    {
     "referenced_type" : "type-1993"
    },
    {
     "default_arg" : true,
     "referenced_type" : "type-29"
    }
   ],
   "return_type" : "type-75",
   "source_file" : "/out/soong/.intermediates/hardware/interfaces/audio/2.0/android.hardware.audio@2.0_genc++_headers/gen/android/hardware/audio/2.0/IDevicesFactory.h"
  },
  {
   "access" : "private",
   "function_name" : "android::hardware::audio::V2_0::BsDevicesFactory::addOnewayTask",
   "linker_set_key" : "_ZN7android8hardware5audio4V2_016BsDevicesFactory13addOnewayTaskENSt3__18functionIFvvEEE",
   "parameters" :
   [
    {
     "is_this_ptr" : true,
     "referenced_type" : "type-46"
    },
    {
     "referenced_type" : "type-2214"
    }
   ],
   "return_type" : "type-707",
   "source_file" : "/out/soong/.intermediates/hardware/interfaces/audio/2.0/android.hardware.audio@2.0_genc++_headers/gen/android/hardware/audio/2.0/BsDevicesFactory.h"
  },
  {
   "function_name" : "android::hardware::audio::V2_0::BsDevicesFactory::BsDevicesFactory",
   "linker_set_key" : "_ZN7android8hardware5audio4V2_016BsDevicesFactoryC1ENS_2spINS2_15IDevicesFactoryEEE",
   "parameters" :
   [
    {
     "is_this_ptr" : true,
     "referenced_type" : "type-46"
    },
    {
     "referenced_type" : "type-43"
    }
   ],
   "return_type" : "type-25",
   "source_file" : "/out/soong/.intermediates/hardware/interfaces/audio/2.0/android.hardware.audio@2.0_genc++_headers/gen/android/hardware/audio/2.0/BsDevicesFactory.h"
  },
  {
   "function_name" : "android::hardware::audio::V2_0::BsDevicesFactory::BsDevicesFactory",
   "linker_set_key" : "_ZN7android8hardware5audio4V2_016BsDevicesFactoryC2ENS_2spINS2_15IDevicesFactoryEEE",
   "parameters" :
   [
    {
     "is_this_ptr" : true,
     "referenced_type" : "type-46"
    },
    {
     "referenced_type" : "type-43"
    }
   ],
   "return_type" : "type-25",
   "source_file" : "/out/soong/.intermediates/hardware/interfaces/audio/2.0/android.hardware.audio@2.0_genc++_headers/gen/android/hardware/audio/2.0/BsDevicesFactory.h"
  },
  {
   "function_name" : "android::hardware::audio::V2_0::BnHwPrimaryDevice::onTransact",
   "linker_set_key" : "_ZN7android8hardware5audio4V2_017BnHwPrimaryDevice10onTransactEjRKNS0_6ParcelEPS4_jNSt3__18functionIFvRS4_EEE",
   "parameters" :
   [
    {
     "is_this_ptr" : true,
     "referenced_type" : "type-249"
    },
    {
     "referenced_type" : "type-2"
    },
    {
     "referenced_type" : "type-1503"
    },
    {
     "referenced_type" : "type-1487"
    },
    {
     "default_arg" : true,
     "referenced_type" : "type-2"
    },
    {
     "default_arg" : true,
     "referenced_type" : "type-2217"
    }
   ],
   "return_type" : "type-22",
   "source_file" : "/out/soong/.intermediates/hardware/interfaces/audio/2.0/android.hardware.audio@2.0_genc++_headers/gen/android/hardware/audio/2.0/BnHwPrimaryDevice.h"
  },
  {
   "access" : "private",
   "function_name" : "android::hardware::audio::V2_0::BnHwPrimaryDevice::getDebugInfo",
   "linker_set_key" : "_ZN7android8hardware5audio4V2_017BnHwPrimaryDevice12getDebugInfoENSt3__18functionIFvRKNS_4hidl4base4V1_09DebugInfoEEEE",
   "parameters" :
   [
    {
     "is_this_ptr" : true,
     "referenced_type" : "type-249"
    },
    {
     "referenced_type" : "type-2218"
    }
   ],
   "return_type" : "type-707",
   "source_file" : "/out/soong/.intermediates/hardware/interfaces/audio/2.0/android.hardware.audio@2.0_genc++_headers/gen/android/hardware/audio/2.0/BnHwPrimaryDevice.h"
  },
  {
   "function_name" : "android::hardware::audio::V2_0::BnHwPrimaryDevice::_hidl_setMode",
   "linker_set_key" : "_ZN7android8hardware5audio4V2_017BnHwPrimaryDevice13_hidl_setModeEPNS_4hidl4base4V1_08BnHwBaseERKNS0_6ParcelEPS9_NSt3__18functionIFvRS9_EEE",
   "parameters" :
   [
    {
     "referenced_type" : "type-1507"
    },
    {
     "referenced_type" : "type-1503"
    },
    {
     "referenced_type" : "type-1487"
    },
    {
     "referenced_type" : "type-2219"
    }
   ],
   "return_type" : "type-22",
   "source_file" : "/out/soong/.intermediates/hardware/interfaces/audio/2.0/android.hardware.audio@2.0_genc++_headers/gen/android/hardware/audio/2.0/BnHwPrimaryDevice.h"
  },
  {
   "function_name" : "android::hardware::audio::V2_0::BnHwPrimaryDevice::_hidl_getTtyMode",
   "linker_set_key" : "_ZN7android8hardware5audio4V2_017BnHwPrimaryDevice16_hidl_getTtyModeEPNS_4hidl4base4V1_08BnHwBaseERKNS0_6ParcelEPS9_NSt3__18functionIFvRS9_EEE",
   "parameters" :
   [
    {
     "referenced_type" : "type-1507"
    },
    {
     "referenced_type" : "type-1503"
    },
    {
     "referenced_type" : "type-1487"
    },
    {
     "referenced_type" : "type-2220"
    }
   ],
   "return_type" : "type-22",
   "source_file" : "/out/soong/.intermediates/hardware/interfaces/audio/2.0/android.hardware.audio@2.0_genc++_headers/gen/android/hardware/audio/2.0/BnHwPrimaryDevice.h"
  },
  {
   "function_name" : "android::hardware::audio::V2_0::BnHwPrimaryDevice::_hidl_setTtyMode",
   "linker_set_key" : "_ZN7android8hardware5audio4V2_017BnHwPrimaryDevice16_hidl_setTtyModeEPNS_4hidl4base4V1_08BnHwBaseERKNS0_6ParcelEPS9_NSt3__18functionIFvRS9_EEE",
   "parameters" :
   [
    {
     "referenced_type" : "type-1507"
    },
    {
     "referenced_type" : "type-1503"
    },
    {
     "referenced_type" : "type-1487"
    },
    {
     "referenced_type" : "type-2221"
    }
   ],
   "return_type" : "type-22",
   "source_file" : "/out/soong/.intermediates/hardware/interfaces/audio/2.0/android.hardware.audio@2.0_genc++_headers/gen/android/hardware/audio/2.0/BnHwPrimaryDevice.h"
  },
  {
   "function_name" : "android::hardware::audio::V2_0::BnHwPrimaryDevice::_hidl_getHacEnabled",
   "linker_set_key" : "_ZN7android8hardware5audio4V2_017BnHwPrimaryDevice19_hidl_getHacEnabledEPNS_4hidl4base4V1_08BnHwBaseERKNS0_6ParcelEPS9_NSt3__18functionIFvRS9_EEE",
   "parameters" :
   [
    {
     "referenced_type" : "type-1507"
    },
    {
     "referenced_type" : "type-1503"
    },
    {
     "referenced_type" : "type-1487"
    },
    {
     "referenced_type" : "type-2222"
    }
   ],
   "return_type" : "type-22",
   "source_file" : "/out/soong/.intermediates/hardware/interfaces/audio/2.0/android.hardware.audio@2.0_genc++_headers/gen/android/hardware/audio/2.0/BnHwPrimaryDevice.h"
  },
  {
   "function_name" : "android::hardware::audio::V2_0::BnHwPrimaryDevice::_hidl_setHacEnabled",
   "linker_set_key" : "_ZN7android8hardware5audio4V2_017BnHwPrimaryDevice19_hidl_setHacEnabledEPNS_4hidl4base4V1_08BnHwBaseERKNS0_6ParcelEPS9_NSt3__18functionIFvRS9_EEE",
   "parameters" :
   [
    {
     "referenced_type" : "type-1507"
    },
    {
     "referenced_type" : "type-1503"
    },
    {
     "referenced_type" : "type-1487"
    },
    {
     "referenced_type" : "type-2223"
    }
   ],
   "return_type" : "type-22",
   "source_file" : "/out/soong/.intermediates/hardware/interfaces/audio/2.0/android.hardware.audio@2.0_genc++_headers/gen/android/hardware/audio/2.0/BnHwPrimaryDevice.h"
  },
  {
   "function_name" : "android::hardware::audio::V2_0::BnHwPrimaryDevice::_hidl_setVoiceVolume",
   "linker_set_key" : "_ZN7android8hardware5audio4V2_017BnHwPrimaryDevice20_hidl_setVoiceVolumeEPNS_4hidl4base4V1_08BnHwBaseERKNS0_6ParcelEPS9_NSt3__18functionIFvRS9_EEE",
   "parameters" :
   [
    {
     "referenced_type" : "type-1507"
    },
    {
     "referenced_type" : "type-1503"
    },
    {
     "referenced_type" : "type-1487"
    },
    {
     "referenced_type" : "type-2224"
    }
   ],
   "return_type" : "type-22",
   "source_file" : "/out/soong/.intermediates/hardware/interfaces/audio/2.0/android.hardware.audio@2.0_genc++_headers/gen/android/hardware/audio/2.0/BnHwPrimaryDevice.h"
  },
  {
   "function_name" : "android::hardware::audio::V2_0::BnHwPrimaryDevice::_hidl_getBtScoNrecEnabled",
   "linker_set_key" : "_ZN7android8hardware5audio4V2_017BnHwPrimaryDevice25_hidl_getBtScoNrecEnabledEPNS_4hidl4base4V1_08BnHwBaseERKNS0_6ParcelEPS9_NSt3__18functionIFvRS9_EEE",
   "parameters" :
   [
    {
     "referenced_type" : "type-1507"
    },
    {
     "referenced_type" : "type-1503"
    },
    {
     "referenced_type" : "type-1487"
    },
    {
     "referenced_type" : "type-2225"
    }
   ],
   "return_type" : "type-22",
   "source_file" : "/out/soong/.intermediates/hardware/interfaces/audio/2.0/android.hardware.audio@2.0_genc++_headers/gen/android/hardware/audio/2.0/BnHwPrimaryDevice.h"
  },
  {
   "function_name" : "android::hardware::audio::V2_0::BnHwPrimaryDevice::_hidl_setBtScoNrecEnabled",
   "linker_set_key" : "_ZN7android8hardware5audio4V2_017BnHwPrimaryDevice25_hidl_setBtScoNrecEnabledEPNS_4hidl4base4V1_08BnHwBaseERKNS0_6ParcelEPS9_NSt3__18functionIFvRS9_EEE",
   "parameters" :
   [
    {
     "referenced_type" : "type-1507"
    },
    {
     "referenced_type" : "type-1503"
    },
    {
     "referenced_type" : "type-1487"
    },
    {
     "referenced_type" : "type-2226"
    }
   ],
   "return_type" : "type-22",
   "source_file" : "/out/soong/.intermediates/hardware/interfaces/audio/2.0/android.hardware.audio@2.0_genc++_headers/gen/android/hardware/audio/2.0/BnHwPrimaryDevice.h"
  },
  {
   "function_name" : "android::hardware::audio::V2_0::BnHwPrimaryDevice::_hidl_getBtScoWidebandEnabled",
   "linker_set_key" : "_ZN7android8hardware5audio4V2_017BnHwPrimaryDevice29_hidl_getBtScoWidebandEnabledEPNS_4hidl4base4V1_08BnHwBaseERKNS0_6ParcelEPS9_NSt3__18functionIFvRS9_EEE",
   "parameters" :
   [
    {
     "referenced_type" : "type-1507"
    },
    {
     "referenced_type" : "type-1503"
    },
    {
     "referenced_type" : "type-1487"
    },
    {
     "referenced_type" : "type-2227"
    }
   ],
   "return_type" : "type-22",
   "source_file" : "/out/soong/.intermediates/hardware/interfaces/audio/2.0/android.hardware.audio@2.0_genc++_headers/gen/android/hardware/audio/2.0/BnHwPrimaryDevice.h"
  },
  {
   "function_name" : "android::hardware::audio::V2_0::BnHwPrimaryDevice::_hidl_setBtScoWidebandEnabled",
   "linker_set_key" : "_ZN7android8hardware5audio4V2_017BnHwPrimaryDevice29_hidl_setBtScoWidebandEnabledEPNS_4hidl4base4V1_08BnHwBaseERKNS0_6ParcelEPS9_NSt3__18functionIFvRS9_EEE",
   "parameters" :
   [
    {
     "referenced_type" : "type-1507"
    },
    {
     "referenced_type" : "type-1503"
    },
    {
     "referenced_type" : "type-1487"
    },
    {
     "referenced_type" : "type-2228"
    }
   ],
   "return_type" : "type-22",
   "source_file" : "/out/soong/.intermediates/hardware/interfaces/audio/2.0/android.hardware.audio@2.0_genc++_headers/gen/android/hardware/audio/2.0/BnHwPrimaryDevice.h"
  },
  {
   "access" : "private",
   "function_name" : "android::hardware::audio::V2_0::BnHwPrimaryDevice::ping",
   "linker_set_key" : "_ZN7android8hardware5audio4V2_017BnHwPrimaryDevice4pingEv",
   "parameters" :
   [
    {
     "is_this_ptr" : true,
     "referenced_type" : "type-249"
    }
   ],
   "return_type" : "type-707",
   "source_file" : "/out/soong/.intermediates/hardware/interfaces/audio/2.0/android.hardware.audio@2.0_genc++_headers/gen/android/hardware/audio/2.0/BnHwPrimaryDevice.h"
  },
  {
   "function_name" : "android::hardware::audio::V2_0::BnHwPrimaryDevice::BnHwPrimaryDevice",
   "linker_set_key" : "_ZN7android8hardware5audio4V2_017BnHwPrimaryDeviceC1ERKNS_2spINS2_14IPrimaryDeviceEEE",
   "parameters" :
   [
    {
     "is_this_ptr" : true,
     "referenced_type" : "type-249"
    },
    {
     "referenced_type" : "type-215"
    }
   ],
   "return_type" : "type-25",
   "source_file" : "/out/soong/.intermediates/hardware/interfaces/audio/2.0/android.hardware.audio@2.0_genc++_headers/gen/android/hardware/audio/2.0/BnHwPrimaryDevice.h"
  },
  {
   "function_name" : "android::hardware::audio::V2_0::BnHwPrimaryDevice::BnHwPrimaryDevice",
   "linker_set_key" : "_ZN7android8hardware5audio4V2_017BnHwPrimaryDeviceC2ERKNS_2spINS2_14IPrimaryDeviceEEE",
   "parameters" :
   [
    {
     "is_this_ptr" : true,
     "referenced_type" : "type-249"
    },
    {
     "referenced_type" : "type-215"
    }
   ],
   "return_type" : "type-25",
   "source_file" : "/out/soong/.intermediates/hardware/interfaces/audio/2.0/android.hardware.audio@2.0_genc++_headers/gen/android/hardware/audio/2.0/BnHwPrimaryDevice.h"
  },
  {
   "function_name" : "android::hardware::audio::V2_0::BnHwPrimaryDevice::~BnHwPrimaryDevice",
   "linker_set_key" : "_ZN7android8hardware5audio4V2_017BnHwPrimaryDeviceD0Ev",
   "parameters" :
   [
    {
     "is_this_ptr" : true,
     "referenced_type" : "type-249"
    }
   ],
   "return_type" : "type-25",
   "source_file" : "/out/soong/.intermediates/hardware/interfaces/audio/2.0/android.hardware.audio@2.0_genc++_headers/gen/android/hardware/audio/2.0/BnHwPrimaryDevice.h"
  },
  {
   "function_name" : "android::hardware::audio::V2_0::BnHwPrimaryDevice::~BnHwPrimaryDevice",
   "linker_set_key" : "_ZN7android8hardware5audio4V2_017BnHwPrimaryDeviceD1Ev",
   "parameters" :
   [
    {
     "is_this_ptr" : true,
     "referenced_type" : "type-249"
    }
   ],
   "return_type" : "type-25",
   "source_file" : "/out/soong/.intermediates/hardware/interfaces/audio/2.0/android.hardware.audio@2.0_genc++_headers/gen/android/hardware/audio/2.0/BnHwPrimaryDevice.h"
  },
  {
   "function_name" : "android::hardware::audio::V2_0::BnHwPrimaryDevice::~BnHwPrimaryDevice",
   "linker_set_key" : "_ZN7android8hardware5audio4V2_017BnHwPrimaryDeviceD2Ev",
   "parameters" :
   [
    {
     "is_this_ptr" : true,
     "referenced_type" : "type-249"
    }
   ],
   "return_type" : "type-25",
   "source_file" : "/out/soong/.intermediates/hardware/interfaces/audio/2.0/android.hardware.audio@2.0_genc++_headers/gen/android/hardware/audio/2.0/BnHwPrimaryDevice.h"
  },
  {
   "function_name" : "android::hardware::audio::V2_0::BpHwPrimaryDevice::getMicMute",
   "linker_set_key" : "_ZN7android8hardware5audio4V2_017BpHwPrimaryDevice10getMicMuteENSt3__18functionIFvNS2_6ResultEbEEE",
   "parameters" :
   [
    {
     "is_this_ptr" : true,
     "referenced_type" : "type-256"
    },
    {
     "referenced_type" : "type-2229"
    }
   ],
   "return_type" : "type-707",
   "source_file" : "/out/soong/.intermediates/hardware/interfaces/audio/2.0/android.hardware.audio@2.0_genc++_headers/gen/android/hardware/audio/2.0/BpHwPrimaryDevice.h"
  },
  {
   "function_name" : "android::hardware::audio::V2_0::BpHwPrimaryDevice::getTtyMode",
   "linker_set_key" : "_ZN7android8hardware5audio4V2_017BpHwPrimaryDevice10getTtyModeENSt3__18functionIFvNS2_6ResultENS2_14IPrimaryDevice7TtyModeEEEE",
   "parameters" :
   [
    {
     "is_this_ptr" : true,
     "referenced_type" : "type-256"
    },
    {
     "referenced_type" : "type-2230"
    }
   ],
   "return_type" : "type-707",
   "source_file" : "/out/soong/.intermediates/hardware/interfaces/audio/2.0/android.hardware.audio@2.0_genc++_headers/gen/android/hardware/audio/2.0/BpHwPrimaryDevice.h"
  },
  {
   "function_name" : "android::hardware::audio::V2_0::BpHwPrimaryDevice::setMicMute",
   "linker_set_key" : "_ZN7android8hardware5audio4V2_017BpHwPrimaryDevice10setMicMuteEb",
   "parameters" :
   [
    {
     "is_this_ptr" : true,
     "referenced_type" : "type-256"
    },
    {
     "referenced_type" : "type-29"
    }
   ],
   "return_type" : "type-611",
   "source_file" : "/out/soong/.intermediates/hardware/interfaces/audio/2.0/android.hardware.audio@2.0_genc++_headers/gen/android/hardware/audio/2.0/BpHwPrimaryDevice.h"
  },
  {
   "function_name" : "android::hardware::audio::V2_0::BpHwPrimaryDevice::setTtyMode",
   "linker_set_key" : "_ZN7android8hardware5audio4V2_017BpHwPrimaryDevice10setTtyModeENS2_14IPrimaryDevice7TtyModeE",
   "parameters" :
   [
    {
     "is_this_ptr" : true,
     "referenced_type" : "type-256"
    },
    {
     "referenced_type" : "type-362"
    }
   ],
   "return_type" : "type-611",
   "source_file" : "/out/soong/.intermediates/hardware/interfaces/audio/2.0/android.hardware.audio@2.0_genc++_headers/gen/android/hardware/audio/2.0/BpHwPrimaryDevice.h"
  },
  {
   "function_name" : "android::hardware::audio::V2_0::BpHwPrimaryDevice::getHwAvSync",
   "linker_set_key" : "_ZN7android8hardware5audio4V2_017BpHwPrimaryDevice11getHwAvSyncEv",
   "parameters" :
   [
    {
     "is_this_ptr" : true,
     "referenced_type" : "type-256"
    }
   ],
   "return_type" : "type-581",
   "source_file" : "/out/soong/.intermediates/hardware/interfaces/audio/2.0/android.hardware.audio@2.0_genc++_headers/gen/android/hardware/audio/2.0/BpHwPrimaryDevice.h"
  },
  {
   "function_name" : "android::hardware::audio::V2_0::BpHwPrimaryDevice::linkToDeath",
   "linker_set_key" : "_ZN7android8hardware5audio4V2_017BpHwPrimaryDevice11linkToDeathERKNS_2spINS0_20hidl_death_recipientEEEy",
   "parameters" :
   [
    {
     "is_this_ptr" : true,
     "referenced_type" : "type-256"
    },
    {
     "referenced_type" : "type-1988"
    },
    {
     "referenced_type" : "type-7"
    }
   ],
   "return_type" : "type-568",
   "source_file" : "/out/soong/.intermediates/hardware/interfaces/audio/2.0/android.hardware.audio@2.0_genc++_headers/gen/android/hardware/audio/2.0/BpHwPrimaryDevice.h"
  },
  {
   "function_name" : "android::hardware::audio::V2_0::BpHwPrimaryDevice::getAudioPort",
   "linker_set_key" : "_ZN7android8hardware5audio4V2_017BpHwPrimaryDevice12getAudioPortERKNS1_6common4V2_09AudioPortENSt3__18functionIFvNS2_6ResultES8_EEE",
   "parameters" :
   [
    {
     "is_this_ptr" : true,
     "referenced_type" : "type-256"
    },
    {
     "referenced_type" : "type-1980"
    },
    {
     "referenced_type" : "type-2231"
    }
   ],
   "return_type" : "type-707",
   "source_file" : "/out/soong/.intermediates/hardware/interfaces/audio/2.0/android.hardware.audio@2.0_genc++_headers/gen/android/hardware/audio/2.0/BpHwPrimaryDevice.h"
  },
  {
   "function_name" : "android::hardware::audio::V2_0::BpHwPrimaryDevice::getDebugInfo",
   "linker_set_key" : "_ZN7android8hardware5audio4V2_017BpHwPrimaryDevice12getDebugInfoENSt3__18functionIFvRKNS_4hidl4base4V1_09DebugInfoEEEE",
   "parameters" :
   [
    {
     "is_this_ptr" : true,
     "referenced_type" : "type-256"
    },
    {
     "referenced_type" : "type-2232"
    }
   ],
   "return_type" : "type-707",
   "source_file" : "/out/soong/.intermediates/hardware/interfaces/audio/2.0/android.hardware.audio@2.0_genc++_headers/gen/android/hardware/audio/2.0/BpHwPrimaryDevice.h"
  },
  {
   "function_name" : "android::hardware::audio::V2_0::BpHwPrimaryDevice::getHashChain",
   "linker_set_key" : "_ZN7android8hardware5audio4V2_017BpHwPrimaryDevice12getHashChainENSt3__18functionIFvRKNS0_8hidl_vecINS0_10hidl_arrayIhLj32EJEEEEEEEE",
   "parameters" :
   [
    {
     "is_this_ptr" : true,
     "referenced_type" : "type-256"
    },
    {
     "referenced_type" : "type-2233"
    }
   ],
   "return_type" : "type-707",
   "source_file" : "/out/soong/.intermediates/hardware/interfaces/audio/2.0/android.hardware.audio@2.0_genc++_headers/gen/android/hardware/audio/2.0/BpHwPrimaryDevice.h"
  },
  {
   "function_name" : "android::hardware::audio::V2_0::BpHwPrimaryDevice::_hidl_setMode",
   "linker_set_key" : "_ZN7android8hardware5audio4V2_017BpHwPrimaryDevice13_hidl_setModeEPNS0_10IInterfaceEPNS0_7details16HidlInstrumentorENS1_6common4V2_09AudioModeE",
   "parameters" :
   [
    {
     "referenced_type" : "type-207"
    },
    {
     "referenced_type" : "type-1242"
    },
    {
     "referenced_type" : "type-1798"
    }
   ],
   "return_type" : "type-611",
   "source_file" : "/out/soong/.intermediates/hardware/interfaces/audio/2.0/android.hardware.audio@2.0_genc++_headers/gen/android/hardware/audio/2.0/BpHwPrimaryDevice.h"
  },
  {
   "function_name" : "android::hardware::audio::V2_0::BpHwPrimaryDevice::getHacEnabled",
   "linker_set_key" : "_ZN7android8hardware5audio4V2_017BpHwPrimaryDevice13getHacEnabledENSt3__18functionIFvNS2_6ResultEbEEE",
   "parameters" :
   [
    {
     "is_this_ptr" : true,
     "referenced_type" : "type-256"
    },
    {
     "referenced_type" : "type-2234"
    }
   ],
   "return_type" : "type-707",
   "source_file" : "/out/soong/.intermediates/hardware/interfaces/audio/2.0/android.hardware.audio@2.0_genc++_headers/gen/android/hardware/audio/2.0/BpHwPrimaryDevice.h"
  },
  {
   "function_name" : "android::hardware::audio::V2_0::BpHwPrimaryDevice::getMasterMute",
   "linker_set_key" : "_ZN7android8hardware5audio4V2_017BpHwPrimaryDevice13getMasterMuteENSt3__18functionIFvNS2_6ResultEbEEE",
   "parameters" :
   [
    {
     "is_this_ptr" : true,
     "referenced_type" : "type-256"
    },
    {
     "referenced_type" : "type-2235"
    }
   ],
   "return_type" : "type-707",
   "source_file" : "/out/soong/.intermediates/hardware/interfaces/audio/2.0/android.hardware.audio@2.0_genc++_headers/gen/android/hardware/audio/2.0/BpHwPrimaryDevice.h"
  },
  {
   "function_name" : "android::hardware::audio::V2_0::BpHwPrimaryDevice::getParameters",
   "linker_set_key" : "_ZN7android8hardware5audio4V2_017BpHwPrimaryDevice13getParametersERKNS0_8hidl_vecINS0_11hidl_stringEEENSt3__18functionIFvNS2_6ResultERKNS4_INS2_14ParameterValueEEEEEE",
   "parameters" :
   [
    {
     "is_this_ptr" : true,
     "referenced_type" : "type-256"
    },
    {
     "referenced_type" : "type-1512"
    },
    {
     "referenced_type" : "type-2236"
    }
   ],
   "return_type" : "type-707",
   "source_file" : "/out/soong/.intermediates/hardware/interfaces/audio/2.0/android.hardware.audio@2.0_genc++_headers/gen/android/hardware/audio/2.0/BpHwPrimaryDevice.h"
  },
  {
   "function_name" : "android::hardware::audio::V2_0::BpHwPrimaryDevice::setHacEnabled",
   "linker_set_key" : "_ZN7android8hardware5audio4V2_017BpHwPrimaryDevice13setHacEnabledEb",
   "parameters" :
   [
    {
     "is_this_ptr" : true,
     "referenced_type" : "type-256"
    },
    {
     "referenced_type" : "type-29"
    }
   ],
   "return_type" : "type-611",
   "source_file" : "/out/soong/.intermediates/hardware/interfaces/audio/2.0/android.hardware.audio@2.0_genc++_headers/gen/android/hardware/audio/2.0/BpHwPrimaryDevice.h"
  },
  {
   "function_name" : "android::hardware::audio::V2_0::BpHwPrimaryDevice::setMasterMute",
   "linker_set_key" : "_ZN7android8hardware5audio4V2_017BpHwPrimaryDevice13setMasterMuteEb",
   "parameters" :
   [
    {
     "is_this_ptr" : true,
     "referenced_type" : "type-256"
    },
    {
     "referenced_type" : "type-29"
    }
   ],
   "return_type" : "type-611",
   "source_file" : "/out/soong/.intermediates/hardware/interfaces/audio/2.0/android.hardware.audio@2.0_genc++_headers/gen/android/hardware/audio/2.0/BpHwPrimaryDevice.h"
  },
  {
   "function_name" : "android::hardware::audio::V2_0::BpHwPrimaryDevice::setParameters",
   "linker_set_key" : "_ZN7android8hardware5audio4V2_017BpHwPrimaryDevice13setParametersERKNS0_8hidl_vecINS2_14ParameterValueEEE",
   "parameters" :
   [
    {
     "is_this_ptr" : true,
     "referenced_type" : "type-256"
    },
    {
     "referenced_type" : "type-1508"
    }
   ],
   "return_type" : "type-611",
   "source_file" : "/out/soong/.intermediates/hardware/interfaces/audio/2.0/android.hardware.audio@2.0_genc++_headers/gen/android/hardware/audio/2.0/BpHwPrimaryDevice.h"
  },
  {
   "function_name" : "android::hardware::audio::V2_0::BpHwPrimaryDevice::unlinkToDeath",
   "linker_set_key" : "_ZN7android8hardware5audio4V2_017BpHwPrimaryDevice13unlinkToDeathERKNS_2spINS0_20hidl_death_recipientEEE",
   "parameters" :
   [
    {
     "is_this_ptr" : true,
     "referenced_type" : "type-256"
    },
    {
     "referenced_type" : "type-1988"
    }
   ],
   "return_type" : "type-568",
   "source_file" : "/out/soong/.intermediates/hardware/interfaces/audio/2.0/android.hardware.audio@2.0_genc++_headers/gen/android/hardware/audio/2.0/BpHwPrimaryDevice.h"
  },
  {
   "function_name" : "android::hardware::audio::V2_0::BpHwPrimaryDevice::interfaceChain",
   "linker_set_key" : "_ZN7android8hardware5audio4V2_017BpHwPrimaryDevice14interfaceChainENSt3__18functionIFvRKNS0_8hidl_vecINS0_11hidl_stringEEEEEE",
   "parameters" :
   [
    {
     "is_this_ptr" : true,
     "referenced_type" : "type-256"
    },
    {
     "referenced_type" : "type-2237"
    }
   ],
   "return_type" : "type-707",
   "source_file" : "/out/soong/.intermediates/hardware/interfaces/audio/2.0/android.hardware.audio@2.0_genc++_headers/gen/android/hardware/audio/2.0/BpHwPrimaryDevice.h"
  },
  {
   "function_name" : "android::hardware::audio::V2_0::BpHwPrimaryDevice::setScreenState",
   "linker_set_key" : "_ZN7android8hardware5audio4V2_017BpHwPrimaryDevice14setScreenStateEb",
   "parameters" :
   [
    {
     "is_this_ptr" : true,
     "referenced_type" : "type-256"
    },
    {
     "referenced_type" : "type-29"
    }
   ],
   "return_type" : "type-611",
   "source_file" : "/out/soong/.intermediates/hardware/interfaces/audio/2.0/android.hardware.audio@2.0_genc++_headers/gen/android/hardware/audio/2.0/BpHwPrimaryDevice.h"
  },
  {
   "function_name" : "android::hardware::audio::V2_0::BpHwPrimaryDevice::setVoiceVolume",
   "linker_set_key" : "_ZN7android8hardware5audio4V2_017BpHwPrimaryDevice14setVoiceVolumeEf",
   "parameters" :
   [
    {
     "is_this_ptr" : true,
     "referenced_type" : "type-256"
    },
    {
     "referenced_type" : "type-913"
    }
   ],
   "return_type" : "type-611",
   "source_file" : "/out/soong/.intermediates/hardware/interfaces/audio/2.0/android.hardware.audio@2.0_genc++_headers/gen/android/hardware/audio/2.0/BpHwPrimaryDevice.h"
  },
  {
   "function_name" : "android::hardware::audio::V2_0::BpHwPrimaryDevice::getMasterVolume",
   "linker_set_key" : "_ZN7android8hardware5audio4V2_017BpHwPrimaryDevice15getMasterVolumeENSt3__18functionIFvNS2_6ResultEfEEE",
   "parameters" :
   [
    {
     "is_this_ptr" : true,
     "referenced_type" : "type-256"
    },
    {
     "referenced_type" : "type-2238"
    }
   ],
   "return_type" : "type-707",
   "source_file" : "/out/soong/.intermediates/hardware/interfaces/audio/2.0/android.hardware.audio@2.0_genc++_headers/gen/android/hardware/audio/2.0/BpHwPrimaryDevice.h"
  },
  {
   "function_name" : "android::hardware::audio::V2_0::BpHwPrimaryDevice::openInputStream",
   "linker_set_key" : "_ZN7android8hardware5audio4V2_017BpHwPrimaryDevice15openInputStreamEiRKNS2_13DeviceAddressERKNS1_6common4V2_011AudioConfigENS8_14AudioInputFlagENS8_11AudioSourceENSt3__18functionIFvNS2_6ResultERKNS_2spINS2_9IStreamInEEESB_EEE",
   "parameters" :
   [
    {
     "is_this_ptr" : true,
     "referenced_type" : "type-256"
    },
    {
     "referenced_type" : "type-22"
    },
    {
     "referenced_type" : "type-1978"
    },
    {
     "referenced_type" : "type-1976"
    },
    {
     "referenced_type" : "type-1819"
    },
    {
     "referenced_type" : "type-1192"
    },
    {
     "referenced_type" : "type-2239"
    }
   ],
   "return_type" : "type-707",
   "source_file" : "/out/soong/.intermediates/hardware/interfaces/audio/2.0/android.hardware.audio@2.0_genc++_headers/gen/android/hardware/audio/2.0/BpHwPrimaryDevice.h"
  },
  {
   "function_name" : "android::hardware::audio::V2_0::BpHwPrimaryDevice::setMasterVolume",
   "linker_set_key" : "_ZN7android8hardware5audio4V2_017BpHwPrimaryDevice15setMasterVolumeEf",
   "parameters" :
   [
    {
     "is_this_ptr" : true,
     "referenced_type" : "type-256"
    },
    {
     "referenced_type" : "type-913"
    }
   ],
   "return_type" : "type-611",
   "source_file" : "/out/soong/.intermediates/hardware/interfaces/audio/2.0/android.hardware.audio@2.0_genc++_headers/gen/android/hardware/audio/2.0/BpHwPrimaryDevice.h"
  },
  {
   "function_name" : "android::hardware::audio::V2_0::BpHwPrimaryDevice::_hidl_getTtyMode",
   "linker_set_key" : "_ZN7android8hardware5audio4V2_017BpHwPrimaryDevice16_hidl_getTtyModeEPNS0_10IInterfaceEPNS0_7details16HidlInstrumentorENSt3__18functionIFvNS2_6ResultENS2_14IPrimaryDevice7TtyModeEEEE",
   "parameters" :
   [
    {
     "referenced_type" : "type-207"
    },
    {
     "referenced_type" : "type-1242"
    },
    {
     "referenced_type" : "type-2240"
    }
   ],
   "return_type" : "type-707",
   "source_file" : "/out/soong/.intermediates/hardware/interfaces/audio/2.0/android.hardware.audio@2.0_genc++_headers/gen/android/hardware/audio/2.0/BpHwPrimaryDevice.h"
  },
  {
   "function_name" : "android::hardware::audio::V2_0::BpHwPrimaryDevice::_hidl_setTtyMode",
   "linker_set_key" : "_ZN7android8hardware5audio4V2_017BpHwPrimaryDevice16_hidl_setTtyModeEPNS0_10IInterfaceEPNS0_7details16HidlInstrumentorENS2_14IPrimaryDevice7TtyModeE",
   "parameters" :
   [
    {
     "referenced_type" : "type-207"
    },
    {
     "referenced_type" : "type-1242"
    },
    {
     "referenced_type" : "type-362"
    }
   ],
   "return_type" : "type-611",
   "source_file" : "/out/soong/.intermediates/hardware/interfaces/audio/2.0/android.hardware.audio@2.0_genc++_headers/gen/android/hardware/audio/2.0/BpHwPrimaryDevice.h"
  },
  {
   "function_name" : "android::hardware::audio::V2_0::BpHwPrimaryDevice::createAudioPatch",
   "linker_set_key" : "_ZN7android8hardware5audio4V2_017BpHwPrimaryDevice16createAudioPatchERKNS0_8hidl_vecINS1_6common4V2_015AudioPortConfigEEESA_NSt3__18functionIFvNS2_6ResultEiEEE",
   "parameters" :
   [
    {
     "is_this_ptr" : true,
     "referenced_type" : "type-256"
    },
    {
     "referenced_type" : "type-1509"
    },
    {
     "referenced_type" : "type-1509"
    },
    {
     "referenced_type" : "type-2241"
    }
   ],
   "return_type" : "type-707",
   "source_file" : "/out/soong/.intermediates/hardware/interfaces/audio/2.0/android.hardware.audio@2.0_genc++_headers/gen/android/hardware/audio/2.0/BpHwPrimaryDevice.h"
  },
  {
   "function_name" : "android::hardware::audio::V2_0::BpHwPrimaryDevice::openOutputStream",
   "linker_set_key" : "_ZN7android8hardware5audio4V2_017BpHwPrimaryDevice16openOutputStreamEiRKNS2_13DeviceAddressERKNS1_6common4V2_011AudioConfigENS8_15AudioOutputFlagENSt3__18functionIFvNS2_6ResultERKNS_2spINS2_10IStreamOutEEESB_EEE",
   "parameters" :
   [
    {
     "is_this_ptr" : true,
     "referenced_type" : "type-256"
    },
    {
     "referenced_type" : "type-22"
    },
    {
     "referenced_type" : "type-1978"
    },
    {
     "referenced_type" : "type-1976"
    },
    {
     "referenced_type" : "type-1810"
    },
    {
     "referenced_type" : "type-2242"
    }
   ],
   "return_type" : "type-707",
   "source_file" : "/out/soong/.intermediates/hardware/interfaces/audio/2.0/android.hardware.audio@2.0_genc++_headers/gen/android/hardware/audio/2.0/BpHwPrimaryDevice.h"
  },
  {
   "function_name" : "android::hardware::audio::V2_0::BpHwPrimaryDevice::releaseAudioPatch",
   "linker_set_key" : "_ZN7android8hardware5audio4V2_017BpHwPrimaryDevice17releaseAudioPatchEi",
   "parameters" :
   [
    {
     "is_this_ptr" : true,
     "referenced_type" : "type-256"
    },
    {
     "referenced_type" : "type-22"
    }
   ],
   "return_type" : "type-611",
   "source_file" : "/out/soong/.intermediates/hardware/interfaces/audio/2.0/android.hardware.audio@2.0_genc++_headers/gen/android/hardware/audio/2.0/BpHwPrimaryDevice.h"
  },
  {
   "function_name" : "android::hardware::audio::V2_0::BpHwPrimaryDevice::getInputBufferSize",
   "linker_set_key" : "_ZN7android8hardware5audio4V2_017BpHwPrimaryDevice18getInputBufferSizeERKNS1_6common4V2_011AudioConfigENSt3__18functionIFvNS2_6ResultEyEEE",
   "parameters" :
   [
    {
     "is_this_ptr" : true,
     "referenced_type" : "type-256"
    },
    {
     "referenced_type" : "type-1976"
    },
    {
     "referenced_type" : "type-2243"
    }
   ],
   "return_type" : "type-707",
   "source_file" : "/out/soong/.intermediates/hardware/interfaces/audio/2.0/android.hardware.audio@2.0_genc++_headers/gen/android/hardware/audio/2.0/BpHwPrimaryDevice.h"
  },
  {
   "function_name" : "android::hardware::audio::V2_0::BpHwPrimaryDevice::setAudioPortConfig",
   "linker_set_key" : "_ZN7android8hardware5audio4V2_017BpHwPrimaryDevice18setAudioPortConfigERKNS1_6common4V2_015AudioPortConfigE",
   "parameters" :
   [
    {
     "is_this_ptr" : true,
     "referenced_type" : "type-256"
    },
    {
     "referenced_type" : "type-1981"
    }
   ],
   "return_type" : "type-611",
   "source_file" : "/out/soong/.intermediates/hardware/interfaces/audio/2.0/android.hardware.audio@2.0_genc++_headers/gen/android/hardware/audio/2.0/BpHwPrimaryDevice.h"
  },
  {
   "function_name" : "android::hardware::audio::V2_0::BpHwPrimaryDevice::_hidl_getHacEnabled",
   "linker_set_key" : "_ZN7android8hardware5audio4V2_017BpHwPrimaryDevice19_hidl_getHacEnabledEPNS0_10IInterfaceEPNS0_7details16HidlInstrumentorENSt3__18functionIFvNS2_6ResultEbEEE",
   "parameters" :
   [
    {
     "referenced_type" : "type-207"
    },
    {
     "referenced_type" : "type-1242"
    },
    {
     "referenced_type" : "type-2244"
    }
   ],
   "return_type" : "type-707",
   "source_file" : "/out/soong/.intermediates/hardware/interfaces/audio/2.0/android.hardware.audio@2.0_genc++_headers/gen/android/hardware/audio/2.0/BpHwPrimaryDevice.h"
  },
  {
   "function_name" : "android::hardware::audio::V2_0::BpHwPrimaryDevice::_hidl_setHacEnabled",
   "linker_set_key" : "_ZN7android8hardware5audio4V2_017BpHwPrimaryDevice19_hidl_setHacEnabledEPNS0_10IInterfaceEPNS0_7details16HidlInstrumentorEb",
   "parameters" :
   [
    {
     "referenced_type" : "type-207"
    },
    {
     "referenced_type" : "type-1242"
    },
    {
     "referenced_type" : "type-29"
    }
   ],
   "return_type" : "type-611",
   "source_file" : "/out/soong/.intermediates/hardware/interfaces/audio/2.0/android.hardware.audio@2.0_genc++_headers/gen/android/hardware/audio/2.0/BpHwPrimaryDevice.h"
  },
  {
   "function_name" : "android::hardware::audio::V2_0::BpHwPrimaryDevice::getBtScoNrecEnabled",
   "linker_set_key" : "_ZN7android8hardware5audio4V2_017BpHwPrimaryDevice19getBtScoNrecEnabledENSt3__18functionIFvNS2_6ResultEbEEE",
   "parameters" :
   [
    {
     "is_this_ptr" : true,
     "referenced_type" : "type-256"
    },
    {
     "referenced_type" : "type-2245"
    }
   ],
   "return_type" : "type-707",
   "source_file" : "/out/soong/.intermediates/hardware/interfaces/audio/2.0/android.hardware.audio@2.0_genc++_headers/gen/android/hardware/audio/2.0/BpHwPrimaryDevice.h"
  },
  {
   "function_name" : "android::hardware::audio::V2_0::BpHwPrimaryDevice::interfaceDescriptor",
   "linker_set_key" : "_ZN7android8hardware5audio4V2_017BpHwPrimaryDevice19interfaceDescriptorENSt3__18functionIFvRKNS0_11hidl_stringEEEE",
   "parameters" :
   [
    {
     "is_this_ptr" : true,
     "referenced_type" : "type-256"
    },
    {
     "referenced_type" : "type-2246"
    }
   ],
   "return_type" : "type-707",
   "source_file" : "/out/soong/.intermediates/hardware/interfaces/audio/2.0/android.hardware.audio@2.0_genc++_headers/gen/android/hardware/audio/2.0/BpHwPrimaryDevice.h"
  },
  {
   "function_name" : "android::hardware::audio::V2_0::BpHwPrimaryDevice::setBtScoNrecEnabled",
   "linker_set_key" : "_ZN7android8hardware5audio4V2_017BpHwPrimaryDevice19setBtScoNrecEnabledEb",
   "parameters" :
   [
    {
     "is_this_ptr" : true,
     "referenced_type" : "type-256"
    },
    {
     "referenced_type" : "type-29"
    }
   ],
   "return_type" : "type-611",
   "source_file" : "/out/soong/.intermediates/hardware/interfaces/audio/2.0/android.hardware.audio@2.0_genc++_headers/gen/android/hardware/audio/2.0/BpHwPrimaryDevice.h"
  },
  {
   "function_name" : "android::hardware::audio::V2_0::BpHwPrimaryDevice::_hidl_setVoiceVolume",
   "linker_set_key" : "_ZN7android8hardware5audio4V2_017BpHwPrimaryDevice20_hidl_setVoiceVolumeEPNS0_10IInterfaceEPNS0_7details16HidlInstrumentorEf",
   "parameters" :
   [
    {
     "referenced_type" : "type-207"
    },
    {
     "referenced_type" : "type-1242"
    },
    {
     "referenced_type" : "type-913"
    }
   ],
   "return_type" : "type-611",
   "source_file" : "/out/soong/.intermediates/hardware/interfaces/audio/2.0/android.hardware.audio@2.0_genc++_headers/gen/android/hardware/audio/2.0/BpHwPrimaryDevice.h"
  },
  {
   "function_name" : "android::hardware::audio::V2_0::BpHwPrimaryDevice::supportsAudioPatches",
   "linker_set_key" : "_ZN7android8hardware5audio4V2_017BpHwPrimaryDevice20supportsAudioPatchesEv",
   "parameters" :
   [
    {
     "is_this_ptr" : true,
     "referenced_type" : "type-256"
    }
   ],
   "return_type" : "type-568",
   "source_file" : "/out/soong/.intermediates/hardware/interfaces/audio/2.0/android.hardware.audio@2.0_genc++_headers/gen/android/hardware/audio/2.0/BpHwPrimaryDevice.h"
  },
  {
   "function_name" : "android::hardware::audio::V2_0::BpHwPrimaryDevice::notifySyspropsChanged",
   "linker_set_key" : "_ZN7android8hardware5audio4V2_017BpHwPrimaryDevice21notifySyspropsChangedEv",
   "parameters" :
   [
    {
     "is_this_ptr" : true,
     "referenced_type" : "type-256"
    }
   ],
   "return_type" : "type-707",
   "source_file" : "/out/soong/.intermediates/hardware/interfaces/audio/2.0/android.hardware.audio@2.0_genc++_headers/gen/android/hardware/audio/2.0/BpHwPrimaryDevice.h"
  },
  {
   "function_name" : "android::hardware::audio::V2_0::BpHwPrimaryDevice::setHALInstrumentation",
   "linker_set_key" : "_ZN7android8hardware5audio4V2_017BpHwPrimaryDevice21setHALInstrumentationEv",
   "parameters" :
   [
    {
     "is_this_ptr" : true,
     "referenced_type" : "type-256"
    }
   ],
   "return_type" : "type-707",
   "source_file" : "/out/soong/.intermediates/hardware/interfaces/audio/2.0/android.hardware.audio@2.0_genc++_headers/gen/android/hardware/audio/2.0/BpHwPrimaryDevice.h"
  },
  {
   "function_name" : "android::hardware::audio::V2_0::BpHwPrimaryDevice::getBtScoWidebandEnabled",
   "linker_set_key" : "_ZN7android8hardware5audio4V2_017BpHwPrimaryDevice23getBtScoWidebandEnabledENSt3__18functionIFvNS2_6ResultEbEEE",
   "parameters" :
   [
    {
     "is_this_ptr" : true,
     "referenced_type" : "type-256"
    },
    {
     "referenced_type" : "type-2247"
    }
   ],
   "return_type" : "type-707",
   "source_file" : "/out/soong/.intermediates/hardware/interfaces/audio/2.0/android.hardware.audio@2.0_genc++_headers/gen/android/hardware/audio/2.0/BpHwPrimaryDevice.h"
  },
  {
   "function_name" : "android::hardware::audio::V2_0::BpHwPrimaryDevice::setBtScoWidebandEnabled",
   "linker_set_key" : "_ZN7android8hardware5audio4V2_017BpHwPrimaryDevice23setBtScoWidebandEnabledEb",
   "parameters" :
   [
    {
     "is_this_ptr" : true,
     "referenced_type" : "type-256"
    },
    {
     "referenced_type" : "type-29"
    }
   ],
   "return_type" : "type-611",
   "source_file" : "/out/soong/.intermediates/hardware/interfaces/audio/2.0/android.hardware.audio@2.0_genc++_headers/gen/android/hardware/audio/2.0/BpHwPrimaryDevice.h"
  },
  {
   "function_name" : "android::hardware::audio::V2_0::BpHwPrimaryDevice::_hidl_getBtScoNrecEnabled",
   "linker_set_key" : "_ZN7android8hardware5audio4V2_017BpHwPrimaryDevice25_hidl_getBtScoNrecEnabledEPNS0_10IInterfaceEPNS0_7details16HidlInstrumentorENSt3__18functionIFvNS2_6ResultEbEEE",
   "parameters" :
   [
    {
     "referenced_type" : "type-207"
    },
    {
     "referenced_type" : "type-1242"
    },
    {
     "referenced_type" : "type-2248"
    }
   ],
   "return_type" : "type-707",
   "source_file" : "/out/soong/.intermediates/hardware/interfaces/audio/2.0/android.hardware.audio@2.0_genc++_headers/gen/android/hardware/audio/2.0/BpHwPrimaryDevice.h"
  },
  {
   "function_name" : "android::hardware::audio::V2_0::BpHwPrimaryDevice::_hidl_setBtScoNrecEnabled",
   "linker_set_key" : "_ZN7android8hardware5audio4V2_017BpHwPrimaryDevice25_hidl_setBtScoNrecEnabledEPNS0_10IInterfaceEPNS0_7details16HidlInstrumentorEb",
   "parameters" :
   [
    {
     "referenced_type" : "type-207"
    },
    {
     "referenced_type" : "type-1242"
    },
    {
     "referenced_type" : "type-29"
    }
   ],
   "return_type" : "type-611",
   "source_file" : "/out/soong/.intermediates/hardware/interfaces/audio/2.0/android.hardware.audio@2.0_genc++_headers/gen/android/hardware/audio/2.0/BpHwPrimaryDevice.h"
  },
  {
   "function_name" : "android::hardware::audio::V2_0::BpHwPrimaryDevice::_hidl_getBtScoWidebandEnabled",
   "linker_set_key" : "_ZN7android8hardware5audio4V2_017BpHwPrimaryDevice29_hidl_getBtScoWidebandEnabledEPNS0_10IInterfaceEPNS0_7details16HidlInstrumentorENSt3__18functionIFvNS2_6ResultEbEEE",
   "parameters" :
   [
    {
     "referenced_type" : "type-207"
    },
    {
     "referenced_type" : "type-1242"
    },
    {
     "referenced_type" : "type-2249"
    }
   ],
   "return_type" : "type-707",
   "source_file" : "/out/soong/.intermediates/hardware/interfaces/audio/2.0/android.hardware.audio@2.0_genc++_headers/gen/android/hardware/audio/2.0/BpHwPrimaryDevice.h"
  },
  {
   "function_name" : "android::hardware::audio::V2_0::BpHwPrimaryDevice::_hidl_setBtScoWidebandEnabled",
   "linker_set_key" : "_ZN7android8hardware5audio4V2_017BpHwPrimaryDevice29_hidl_setBtScoWidebandEnabledEPNS0_10IInterfaceEPNS0_7details16HidlInstrumentorEb",
   "parameters" :
   [
    {
     "referenced_type" : "type-207"
    },
    {
     "referenced_type" : "type-1242"
    },
    {
     "referenced_type" : "type-29"
    }
   ],
   "return_type" : "type-611",
   "source_file" : "/out/soong/.intermediates/hardware/interfaces/audio/2.0/android.hardware.audio@2.0_genc++_headers/gen/android/hardware/audio/2.0/BpHwPrimaryDevice.h"
  },
  {
   "function_name" : "android::hardware::audio::V2_0::BpHwPrimaryDevice::ping",
   "linker_set_key" : "_ZN7android8hardware5audio4V2_017BpHwPrimaryDevice4pingEv",
   "parameters" :
   [
    {
     "is_this_ptr" : true,
     "referenced_type" : "type-256"
    }
   ],
   "return_type" : "type-707",
   "source_file" : "/out/soong/.intermediates/hardware/interfaces/audio/2.0/android.hardware.audio@2.0_genc++_headers/gen/android/hardware/audio/2.0/BpHwPrimaryDevice.h"
  },
  {
   "function_name" : "android::hardware::audio::V2_0::BpHwPrimaryDevice::debug",
   "linker_set_key" : "_ZN7android8hardware5audio4V2_017BpHwPrimaryDevice5debugERKNS0_11hidl_handleERKNS0_8hidl_vecINS0_11hidl_stringEEE",
   "parameters" :
   [
    {
     "is_this_ptr" : true,
     "referenced_type" : "type-256"
    },
    {
     "referenced_type" : "type-1389"
    },
    {
     "referenced_type" : "type-1512"
    }
   ],
   "return_type" : "type-707",
   "source_file" : "/out/soong/.intermediates/hardware/interfaces/audio/2.0/android.hardware.audio@2.0_genc++_headers/gen/android/hardware/audio/2.0/BpHwPrimaryDevice.h"
  },
  {
   "function_name" : "android::hardware::audio::V2_0::BpHwPrimaryDevice::setMode",
   "linker_set_key" : "_ZN7android8hardware5audio4V2_017BpHwPrimaryDevice7setModeENS1_6common4V2_09AudioModeE",
   "parameters" :
   [
    {
     "is_this_ptr" : true,
     "referenced_type" : "type-256"
    },
    {
     "referenced_type" : "type-1798"
    }
   ],
   "return_type" : "type-611",
   "source_file" : "/out/soong/.intermediates/hardware/interfaces/audio/2.0/android.hardware.audio@2.0_genc++_headers/gen/android/hardware/audio/2.0/BpHwPrimaryDevice.h"
  },
  {
   "function_name" : "android::hardware::audio::V2_0::BpHwPrimaryDevice::debugDump",
   "linker_set_key" : "_ZN7android8hardware5audio4V2_017BpHwPrimaryDevice9debugDumpERKNS0_11hidl_handleE",
   "parameters" :
   [
    {
     "is_this_ptr" : true,
     "referenced_type" : "type-256"
    },
    {
     "referenced_type" : "type-1389"
    }
   ],
   "return_type" : "type-707",
   "source_file" : "/out/soong/.intermediates/hardware/interfaces/audio/2.0/android.hardware.audio@2.0_genc++_headers/gen/android/hardware/audio/2.0/BpHwPrimaryDevice.h"
  },
  {
   "function_name" : "android::hardware::audio::V2_0::BpHwPrimaryDevice::initCheck",
   "linker_set_key" : "_ZN7android8hardware5audio4V2_017BpHwPrimaryDevice9initCheckEv",
   "parameters" :
   [
    {
     "is_this_ptr" : true,
     "referenced_type" : "type-256"
    }
   ],
   "return_type" : "type-611",
   "source_file" : "/out/soong/.intermediates/hardware/interfaces/audio/2.0/android.hardware.audio@2.0_genc++_headers/gen/android/hardware/audio/2.0/BpHwPrimaryDevice.h"
  },
  {
   "function_name" : "android::hardware::audio::V2_0::BpHwPrimaryDevice::BpHwPrimaryDevice",
   "linker_set_key" : "_ZN7android8hardware5audio4V2_017BpHwPrimaryDeviceC1ERKNS_2spINS0_7IBinderEEE",
   "parameters" :
   [
    {
     "is_this_ptr" : true,
     "referenced_type" : "type-256"
    },
    {
     "referenced_type" : "type-240"
    }
   ],
   "return_type" : "type-25",
   "source_file" : "/out/soong/.intermediates/hardware/interfaces/audio/2.0/android.hardware.audio@2.0_genc++_headers/gen/android/hardware/audio/2.0/BpHwPrimaryDevice.h"
  },
  {
   "function_name" : "android::hardware::audio::V2_0::BpHwPrimaryDevice::BpHwPrimaryDevice",
   "linker_set_key" : "_ZN7android8hardware5audio4V2_017BpHwPrimaryDeviceC2ERKNS_2spINS0_7IBinderEEE",
   "parameters" :
   [
    {
     "is_this_ptr" : true,
     "referenced_type" : "type-256"
    },
    {
     "referenced_type" : "type-240"
    }
   ],
   "return_type" : "type-25",
   "source_file" : "/out/soong/.intermediates/hardware/interfaces/audio/2.0/android.hardware.audio@2.0_genc++_headers/gen/android/hardware/audio/2.0/BpHwPrimaryDevice.h"
  },
  {
   "function_name" : "android::hardware::audio::V2_0::BnHwDevicesFactory::onTransact",
   "linker_set_key" : "_ZN7android8hardware5audio4V2_018BnHwDevicesFactory10onTransactEjRKNS0_6ParcelEPS4_jNSt3__18functionIFvRS4_EEE",
   "parameters" :
   [
    {
     "is_this_ptr" : true,
     "referenced_type" : "type-36"
    },
    {
     "referenced_type" : "type-2"
    },
    {
     "referenced_type" : "type-1503"
    },
    {
     "referenced_type" : "type-1487"
    },
    {
     "default_arg" : true,
     "referenced_type" : "type-2"
    },
    {
     "default_arg" : true,
     "referenced_type" : "type-2250"
    }
   ],
   "return_type" : "type-22",
   "source_file" : "/out/soong/.intermediates/hardware/interfaces/audio/2.0/android.hardware.audio@2.0_genc++_headers/gen/android/hardware/audio/2.0/BnHwDevicesFactory.h"
  },
  {
   "access" : "private",
   "function_name" : "android::hardware::audio::V2_0::BnHwDevicesFactory::getDebugInfo",
   "linker_set_key" : "_ZN7android8hardware5audio4V2_018BnHwDevicesFactory12getDebugInfoENSt3__18functionIFvRKNS_4hidl4base4V1_09DebugInfoEEEE",
   "parameters" :
   [
    {
     "is_this_ptr" : true,
     "referenced_type" : "type-36"
    },
    {
     "referenced_type" : "type-2251"
    }
   ],
   "return_type" : "type-707",
   "source_file" : "/out/soong/.intermediates/hardware/interfaces/audio/2.0/android.hardware.audio@2.0_genc++_headers/gen/android/hardware/audio/2.0/BnHwDevicesFactory.h"
  },
  {
   "function_name" : "android::hardware::audio::V2_0::BnHwDevicesFactory::_hidl_openDevice",
   "linker_set_key" : "_ZN7android8hardware5audio4V2_018BnHwDevicesFactory16_hidl_openDeviceEPNS_4hidl4base4V1_08BnHwBaseERKNS0_6ParcelEPS9_NSt3__18functionIFvRS9_EEE",
   "parameters" :
   [
    {
     "referenced_type" : "type-1507"
    },
    {
     "referenced_type" : "type-1503"
    },
    {
     "referenced_type" : "type-1487"
    },
    {
     "referenced_type" : "type-2252"
    }
   ],
   "return_type" : "type-22",
   "source_file" : "/out/soong/.intermediates/hardware/interfaces/audio/2.0/android.hardware.audio@2.0_genc++_headers/gen/android/hardware/audio/2.0/BnHwDevicesFactory.h"
  },
  {
   "access" : "private",
   "function_name" : "android::hardware::audio::V2_0::BnHwDevicesFactory::ping",
   "linker_set_key" : "_ZN7android8hardware5audio4V2_018BnHwDevicesFactory4pingEv",
   "parameters" :
   [
    {
     "is_this_ptr" : true,
     "referenced_type" : "type-36"
    }
   ],
   "return_type" : "type-707",
   "source_file" : "/out/soong/.intermediates/hardware/interfaces/audio/2.0/android.hardware.audio@2.0_genc++_headers/gen/android/hardware/audio/2.0/BnHwDevicesFactory.h"
  },
  {
   "function_name" : "android::hardware::audio::V2_0::BnHwDevicesFactory::BnHwDevicesFactory",
   "linker_set_key" : "_ZN7android8hardware5audio4V2_018BnHwDevicesFactoryC1ERKNS_2spINS2_15IDevicesFactoryEEE",
   "parameters" :
   [
    {
     "is_this_ptr" : true,
     "referenced_type" : "type-36"
    },
    {
     "referenced_type" : "type-1993"
    }
   ],
   "return_type" : "type-25",
   "source_file" : "/out/soong/.intermediates/hardware/interfaces/audio/2.0/android.hardware.audio@2.0_genc++_headers/gen/android/hardware/audio/2.0/BnHwDevicesFactory.h"
  },
  {
   "function_name" : "android::hardware::audio::V2_0::BnHwDevicesFactory::BnHwDevicesFactory",
   "linker_set_key" : "_ZN7android8hardware5audio4V2_018BnHwDevicesFactoryC2ERKNS_2spINS2_15IDevicesFactoryEEE",
   "parameters" :
   [
    {
     "is_this_ptr" : true,
     "referenced_type" : "type-36"
    },
    {
     "referenced_type" : "type-1993"
    }
   ],
   "return_type" : "type-25",
   "source_file" : "/out/soong/.intermediates/hardware/interfaces/audio/2.0/android.hardware.audio@2.0_genc++_headers/gen/android/hardware/audio/2.0/BnHwDevicesFactory.h"
  },
  {
   "function_name" : "android::hardware::audio::V2_0::BnHwDevicesFactory::~BnHwDevicesFactory",
   "linker_set_key" : "_ZN7android8hardware5audio4V2_018BnHwDevicesFactoryD0Ev",
   "parameters" :
   [
    {
     "is_this_ptr" : true,
     "referenced_type" : "type-36"
    }
   ],
   "return_type" : "type-25",
   "source_file" : "/out/soong/.intermediates/hardware/interfaces/audio/2.0/android.hardware.audio@2.0_genc++_headers/gen/android/hardware/audio/2.0/BnHwDevicesFactory.h"
  },
  {
   "function_name" : "android::hardware::audio::V2_0::BnHwDevicesFactory::~BnHwDevicesFactory",
   "linker_set_key" : "_ZN7android8hardware5audio4V2_018BnHwDevicesFactoryD1Ev",
   "parameters" :
   [
    {
     "is_this_ptr" : true,
     "referenced_type" : "type-36"
    }
   ],
   "return_type" : "type-25",
   "source_file" : "/out/soong/.intermediates/hardware/interfaces/audio/2.0/android.hardware.audio@2.0_genc++_headers/gen/android/hardware/audio/2.0/BnHwDevicesFactory.h"
  },
  {
   "function_name" : "android::hardware::audio::V2_0::BnHwDevicesFactory::~BnHwDevicesFactory",
   "linker_set_key" : "_ZN7android8hardware5audio4V2_018BnHwDevicesFactoryD2Ev",
   "parameters" :
   [
    {
     "is_this_ptr" : true,
     "referenced_type" : "type-36"
    }
   ],
   "return_type" : "type-25",
   "source_file" : "/out/soong/.intermediates/hardware/interfaces/audio/2.0/android.hardware.audio@2.0_genc++_headers/gen/android/hardware/audio/2.0/BnHwDevicesFactory.h"
  },
  {
   "function_name" : "android::hardware::audio::V2_0::BpHwDevicesFactory::openDevice",
   "linker_set_key" : "_ZN7android8hardware5audio4V2_018BpHwDevicesFactory10openDeviceENS2_15IDevicesFactory6DeviceENSt3__18functionIFvNS2_6ResultERKNS_2spINS2_7IDeviceEEEEEE",
   "parameters" :
   [
    {
     "is_this_ptr" : true,
     "referenced_type" : "type-56"
    },
    {
     "referenced_type" : "type-190"
    },
    {
     "referenced_type" : "type-2253"
    }
   ],
   "return_type" : "type-707",
   "source_file" : "/out/soong/.intermediates/hardware/interfaces/audio/2.0/android.hardware.audio@2.0_genc++_headers/gen/android/hardware/audio/2.0/BpHwDevicesFactory.h"
  },
  {
   "function_name" : "android::hardware::audio::V2_0::BpHwDevicesFactory::linkToDeath",
   "linker_set_key" : "_ZN7android8hardware5audio4V2_018BpHwDevicesFactory11linkToDeathERKNS_2spINS0_20hidl_death_recipientEEEy",
   "parameters" :
   [
    {
     "is_this_ptr" : true,
     "referenced_type" : "type-56"
    },
    {
     "referenced_type" : "type-1988"
    },
    {
     "referenced_type" : "type-7"
    }
   ],
   "return_type" : "type-568",
   "source_file" : "/out/soong/.intermediates/hardware/interfaces/audio/2.0/android.hardware.audio@2.0_genc++_headers/gen/android/hardware/audio/2.0/BpHwDevicesFactory.h"
  },
  {
   "function_name" : "android::hardware::audio::V2_0::BpHwDevicesFactory::getDebugInfo",
   "linker_set_key" : "_ZN7android8hardware5audio4V2_018BpHwDevicesFactory12getDebugInfoENSt3__18functionIFvRKNS_4hidl4base4V1_09DebugInfoEEEE",
   "parameters" :
   [
    {
     "is_this_ptr" : true,
     "referenced_type" : "type-56"
    },
    {
     "referenced_type" : "type-2254"
    }
   ],
   "return_type" : "type-707",
   "source_file" : "/out/soong/.intermediates/hardware/interfaces/audio/2.0/android.hardware.audio@2.0_genc++_headers/gen/android/hardware/audio/2.0/BpHwDevicesFactory.h"
  },
  {
   "function_name" : "android::hardware::audio::V2_0::BpHwDevicesFactory::getHashChain",
   "linker_set_key" : "_ZN7android8hardware5audio4V2_018BpHwDevicesFactory12getHashChainENSt3__18functionIFvRKNS0_8hidl_vecINS0_10hidl_arrayIhLj32EJEEEEEEEE",
   "parameters" :
   [
    {
     "is_this_ptr" : true,
     "referenced_type" : "type-56"
    },
    {
     "referenced_type" : "type-2255"
    }
   ],
   "return_type" : "type-707",
   "source_file" : "/out/soong/.intermediates/hardware/interfaces/audio/2.0/android.hardware.audio@2.0_genc++_headers/gen/android/hardware/audio/2.0/BpHwDevicesFactory.h"
  },
  {
   "function_name" : "android::hardware::audio::V2_0::BpHwDevicesFactory::unlinkToDeath",
   "linker_set_key" : "_ZN7android8hardware5audio4V2_018BpHwDevicesFactory13unlinkToDeathERKNS_2spINS0_20hidl_death_recipientEEE",
   "parameters" :
   [
    {
     "is_this_ptr" : true,
     "referenced_type" : "type-56"
    },
    {
     "referenced_type" : "type-1988"
    }
   ],
   "return_type" : "type-568",
   "source_file" : "/out/soong/.intermediates/hardware/interfaces/audio/2.0/android.hardware.audio@2.0_genc++_headers/gen/android/hardware/audio/2.0/BpHwDevicesFactory.h"
  },
  {
   "function_name" : "android::hardware::audio::V2_0::BpHwDevicesFactory::interfaceChain",
   "linker_set_key" : "_ZN7android8hardware5audio4V2_018BpHwDevicesFactory14interfaceChainENSt3__18functionIFvRKNS0_8hidl_vecINS0_11hidl_stringEEEEEE",
   "parameters" :
   [
    {
     "is_this_ptr" : true,
     "referenced_type" : "type-56"
    },
    {
     "referenced_type" : "type-2256"
    }
   ],
   "return_type" : "type-707",
   "source_file" : "/out/soong/.intermediates/hardware/interfaces/audio/2.0/android.hardware.audio@2.0_genc++_headers/gen/android/hardware/audio/2.0/BpHwDevicesFactory.h"
  },
  {
   "function_name" : "android::hardware::audio::V2_0::BpHwDevicesFactory::_hidl_openDevice",
   "linker_set_key" : "_ZN7android8hardware5audio4V2_018BpHwDevicesFactory16_hidl_openDeviceEPNS0_10IInterfaceEPNS0_7details16HidlInstrumentorENS2_15IDevicesFactory6DeviceENSt3__18functionIFvNS2_6ResultERKNS_2spINS2_7IDeviceEEEEEE",
   "parameters" :
   [
    {
     "referenced_type" : "type-207"
    },
    {
     "referenced_type" : "type-1242"
    },
    {
     "referenced_type" : "type-190"
    },
    {
     "referenced_type" : "type-2257"
    }
   ],
   "return_type" : "type-707",
   "source_file" : "/out/soong/.intermediates/hardware/interfaces/audio/2.0/android.hardware.audio@2.0_genc++_headers/gen/android/hardware/audio/2.0/BpHwDevicesFactory.h"
  },
  {
   "function_name" : "android::hardware::audio::V2_0::BpHwDevicesFactory::interfaceDescriptor",
   "linker_set_key" : "_ZN7android8hardware5audio4V2_018BpHwDevicesFactory19interfaceDescriptorENSt3__18functionIFvRKNS0_11hidl_stringEEEE",
   "parameters" :
   [
    {
     "is_this_ptr" : true,
     "referenced_type" : "type-56"
    },
    {
     "referenced_type" : "type-2258"
    }
   ],
   "return_type" : "type-707",
   "source_file" : "/out/soong/.intermediates/hardware/interfaces/audio/2.0/android.hardware.audio@2.0_genc++_headers/gen/android/hardware/audio/2.0/BpHwDevicesFactory.h"
  },
  {
   "function_name" : "android::hardware::audio::V2_0::BpHwDevicesFactory::notifySyspropsChanged",
   "linker_set_key" : "_ZN7android8hardware5audio4V2_018BpHwDevicesFactory21notifySyspropsChangedEv",
   "parameters" :
   [
    {
     "is_this_ptr" : true,
     "referenced_type" : "type-56"
    }
   ],
   "return_type" : "type-707",
   "source_file" : "/out/soong/.intermediates/hardware/interfaces/audio/2.0/android.hardware.audio@2.0_genc++_headers/gen/android/hardware/audio/2.0/BpHwDevicesFactory.h"
  },
  {
   "function_name" : "android::hardware::audio::V2_0::BpHwDevicesFactory::setHALInstrumentation",
   "linker_set_key" : "_ZN7android8hardware5audio4V2_018BpHwDevicesFactory21setHALInstrumentationEv",
   "parameters" :
   [
    {
     "is_this_ptr" : true,
     "referenced_type" : "type-56"
    }
   ],
   "return_type" : "type-707",
   "source_file" : "/out/soong/.intermediates/hardware/interfaces/audio/2.0/android.hardware.audio@2.0_genc++_headers/gen/android/hardware/audio/2.0/BpHwDevicesFactory.h"
  },
  {
   "function_name" : "android::hardware::audio::V2_0::BpHwDevicesFactory::ping",
   "linker_set_key" : "_ZN7android8hardware5audio4V2_018BpHwDevicesFactory4pingEv",
   "parameters" :
   [
    {
     "is_this_ptr" : true,
     "referenced_type" : "type-56"
    }
   ],
   "return_type" : "type-707",
   "source_file" : "/out/soong/.intermediates/hardware/interfaces/audio/2.0/android.hardware.audio@2.0_genc++_headers/gen/android/hardware/audio/2.0/BpHwDevicesFactory.h"
  },
  {
   "function_name" : "android::hardware::audio::V2_0::BpHwDevicesFactory::debug",
   "linker_set_key" : "_ZN7android8hardware5audio4V2_018BpHwDevicesFactory5debugERKNS0_11hidl_handleERKNS0_8hidl_vecINS0_11hidl_stringEEE",
   "parameters" :
   [
    {
     "is_this_ptr" : true,
     "referenced_type" : "type-56"
    },
    {
     "referenced_type" : "type-1389"
    },
    {
     "referenced_type" : "type-1512"
    }
   ],
   "return_type" : "type-707",
   "source_file" : "/out/soong/.intermediates/hardware/interfaces/audio/2.0/android.hardware.audio@2.0_genc++_headers/gen/android/hardware/audio/2.0/BpHwDevicesFactory.h"
  },
  {
   "function_name" : "android::hardware::audio::V2_0::BpHwDevicesFactory::BpHwDevicesFactory",
   "linker_set_key" : "_ZN7android8hardware5audio4V2_018BpHwDevicesFactoryC1ERKNS_2spINS0_7IBinderEEE",
   "parameters" :
   [
    {
     "is_this_ptr" : true,
     "referenced_type" : "type-56"
    },
    {
     "referenced_type" : "type-240"
    }
   ],
   "return_type" : "type-25",
   "source_file" : "/out/soong/.intermediates/hardware/interfaces/audio/2.0/android.hardware.audio@2.0_genc++_headers/gen/android/hardware/audio/2.0/BpHwDevicesFactory.h"
  },
  {
   "function_name" : "android::hardware::audio::V2_0::BpHwDevicesFactory::BpHwDevicesFactory",
   "linker_set_key" : "_ZN7android8hardware5audio4V2_018BpHwDevicesFactoryC2ERKNS_2spINS0_7IBinderEEE",
   "parameters" :
   [
    {
     "is_this_ptr" : true,
     "referenced_type" : "type-56"
    },
    {
     "referenced_type" : "type-240"
    }
   ],
   "return_type" : "type-25",
   "source_file" : "/out/soong/.intermediates/hardware/interfaces/audio/2.0/android.hardware.audio@2.0_genc++_headers/gen/android/hardware/audio/2.0/BpHwDevicesFactory.h"
  },
  {
