{
 "array_types" :
 [
  {
   "linker_set_key" : "char *[]",
   "name" : "char *[]",
   "referenced_type" : "type-5",
   "self_type" : "type-368",
   "source_file" : "/out/soong/.intermediates/bionic/libc/libc.llndk/android_arm_armv8-a_vendor_shared/gen/include/time.h"
  },
  {
   "alignment" : 1,
   "linker_set_key" : "char [0]",
   "name" : "char [0]",
   "referenced_type" : "type-6",
   "self_type" : "type-114",
   "source_file" : "/system/core/liblog/include/log/log_read.h"
  },
  {
   "alignment" : 1,
   "linker_set_key" : "char [120]",
   "name" : "char [120]",
   "referenced_type" : "type-6",
   "self_type" : "type-365",
   "size" : 120,
   "source_file" : "/out/soong/.intermediates/bionic/libc/libc.llndk/android_arm_armv8-a_vendor_shared/gen/include/sys/ucontext.h"
  },
  {
   "alignment" : 1,
   "linker_set_key" : "char [32]",
   "name" : "char [32]",
   "referenced_type" : "type-6",
   "self_type" : "type-482",
   "size" : 32,
   "source_file" : "/out/soong/.intermediates/bionic/libc/libc.llndk/android_arm_armv8-a_vendor_shared/gen/include/sys/user.h"
  },
  {
   "alignment" : 1,
   "linker_set_key" : "char [4]",
   "name" : "char [4]",
   "referenced_type" : "type-6",
   "self_type" : "type-47",
   "size" : 4,
   "source_file" : "/bionic/libc/kernel/uapi/asm-generic/siginfo.h"
  },
  {
   "alignment" : 4,
   "linker_set_key" : "const char *[65]",
   "name" : "const char *[65]",
   "referenced_type" : "type-91",
   "self_type" : "type-489",
   "size" : 260,
   "source_file" : "/out/soong/.intermediates/bionic/libc/libc.llndk/android_arm_armv8-a_vendor_shared/gen/include/signal.h"
  },
  {
   "alignment" : 8,
   "linker_set_key" : "double [32]",
   "name" : "double [32]",
   "referenced_type" : "type-185",
   "self_type" : "type-193",
   "size" : 256,
   "source_file" : "/external/libunwind_llvm/src/Registers.hpp"
  },
  {
   "alignment" : 4,
   "linker_set_key" : "fp_reg [8]",
   "name" : "fp_reg [8]",
   "referenced_type" : "type-450",
   "self_type" : "type-449",
   "size" : 96,
   "source_file" : "/out/soong/.intermediates/bionic/libc/libc.llndk/android_arm_armv8-a_vendor_shared/gen/include/sys/user.h"
  },
  {
   "alignment" : 4,
   "linker_set_key" : "int [10]",
   "name" : "int [10]",
   "referenced_type" : "type-4",
   "self_type" : "type-374",
   "size" : 40,
   "source_file" : "/out/soong/.intermediates/bionic/libc/libc.llndk/android_arm_armv8-a_vendor_shared/gen/include/bits/pthread_types.h"
  },
  {
   "alignment" : 4,
   "linker_set_key" : "int [13]",
   "name" : "int [13]",
   "referenced_type" : "type-4",
   "self_type" : "type-343",
   "size" : 52,
   "source_file" : "/bionic/libc/kernel/uapi/asm-generic/siginfo.h"
  },
  {
   "alignment" : 4,
   "linker_set_key" : "int [1]",
   "name" : "int [1]",
   "referenced_type" : "type-4",
   "self_type" : "type-380",
   "size" : 4,
   "source_file" : "/out/soong/.intermediates/bionic/libc/libc.llndk/android_arm_armv8-a_vendor_shared/gen/include/bits/pthread_types.h"
  },
  {
   "alignment" : 4,
   "linker_set_key" : "int [256]",
   "name" : "int [256]",
   "referenced_type" : "type-4",
   "self_type" : "type-88",
   "size" : 1024,
   "source_file" : "/external/expat/lib/expat.h"
  },
  {
   "alignment" : 4,
   "linker_set_key" : "int [2]",
   "name" : "int [2]",
   "referenced_type" : "type-4",
   "self_type" : "type-28",
   "size" : 8,
   "source_file" : "/bionic/libc/kernel/uapi/asm-generic/posix_types.h"
  },
  {
   "alignment" : 4,
   "linker_set_key" : "int [32]",
   "name" : "int [32]",
   "referenced_type" : "type-4",
   "self_type" : "type-51",
   "size" : 128,
   "source_file" : "/bionic/libc/kernel/uapi/asm-generic/siginfo.h"
  },
  {
   "alignment" : 4,
   "linker_set_key" : "int [8]",
   "name" : "int [8]",
   "referenced_type" : "type-4",
   "self_type" : "type-337",
   "size" : 32,
   "source_file" : "/out/soong/.intermediates/bionic/libc/libc.llndk/android_arm_armv8-a_vendor_shared/gen/include/bits/pthread_types.h"
  },
  {
   "alignment" : 8,
   "linker_set_key" : "libunwind::Registers_ppc64::ppc64_vsr_t [64]",
   "name" : "libunwind::Registers_ppc64::ppc64_vsr_t [64]",
   "referenced_type" : "type-200",
   "self_type" : "type-202",
   "size" : 1024,
   "source_file" : "/external/libunwind_llvm/src/Registers.hpp"
  },
  {
   "alignment" : 4,
   "linker_set_key" : "libunwind::v128 [32]",
   "name" : "libunwind::v128 [32]",
   "referenced_type" : "type-178",
   "self_type" : "type-194",
   "size" : 512,
   "source_file" : "/external/libunwind_llvm/src/Registers.hpp"
  },
  {
   "alignment" : 1,
   "linker_set_key" : "unsigned char [16]",
   "name" : "unsigned char [16]",
   "referenced_type" : "type-17",
   "self_type" : "type-247",
   "size" : 16,
   "source_file" : "/bionic/libc/kernel/uapi/linux/elf.h"
  },
  {
   "alignment" : 1,
   "linker_set_key" : "unsigned char [5121]",
   "name" : "unsigned char [5121]",
   "referenced_type" : "type-17",
   "self_type" : "type-120",
   "size" : 5121,
   "source_file" : "/system/core/liblog/include/log/log_read.h"
  },
  {
   "alignment" : 1,
   "linker_set_key" : "unsigned char [8]",
   "name" : "unsigned char [8]",
   "referenced_type" : "type-17",
   "self_type" : "type-451",
   "size" : 8,
   "source_file" : "/out/soong/.intermediates/bionic/libc/libc.llndk/android_arm_armv8-a_vendor_shared/gen/include/sys/user.h"
  },
  {
   "alignment" : 4,
   "linker_set_key" : "unsigned int [13]",
   "name" : "unsigned int [13]",
   "referenced_type" : "type-9",
   "self_type" : "type-144",
   "size" : 52,
   "source_file" : "/external/libunwind_llvm/src/Registers.hpp"
  },
  {
   "alignment" : 4,
   "linker_set_key" : "unsigned int [32]",
   "name" : "unsigned int [32]",
   "referenced_type" : "type-9",
   "self_type" : "type-133",
   "size" : 128,
   "source_file" : "/external/libunwind_llvm/src/Registers.hpp"
  },
  {
   "alignment" : 4,
   "linker_set_key" : "unsigned int [4]",
   "name" : "unsigned int [4]",
   "referenced_type" : "type-9",
   "self_type" : "type-164",
   "size" : 16,
   "source_file" : "/external/libunwind_llvm/include/unwind.h"
  },
  {
   "alignment" : 4,
   "linker_set_key" : "unsigned int [5]",
   "name" : "unsigned int [5]",
   "referenced_type" : "type-9",
   "self_type" : "type-162",
   "size" : 20,
   "source_file" : "/external/libunwind_llvm/include/unwind.h"
  },
  {
   "alignment" : 4,
   "linker_set_key" : "unsigned int [8]",
   "name" : "unsigned int [8]",
   "referenced_type" : "type-9",
   "self_type" : "type-495",
   "size" : 32,
   "source_file" : "/external/tinyalsa/include/tinyalsa/asoundlib.h"
  },
  {
   "alignment" : 4,
   "linker_set_key" : "unsigned long [128]",
   "name" : "unsigned long [128]",
   "referenced_type" : "type-3",
   "self_type" : "type-366",
   "size" : 512,
   "source_file" : "/out/soong/.intermediates/bionic/libc/libc.llndk/android_arm_armv8-a_vendor_shared/gen/include/sys/ucontext.h"
  },
  {
   "alignment" : 4,
   "linker_set_key" : "unsigned long [18]",
   "name" : "unsigned long [18]",
   "referenced_type" : "type-3",
   "self_type" : "type-464",
   "size" : 72,
   "source_file" : "/out/soong/.intermediates/bionic/libc/libc.llndk/android_arm_armv8-a_vendor_shared/gen/include/sys/user.h"
  },
  {
   "alignment" : 4,
   "linker_set_key" : "unsigned long [1]",
   "name" : "unsigned long [1]",
   "referenced_type" : "type-3",
   "self_type" : "type-303",
   "size" : 4,
   "source_file" : "/out/soong/.intermediates/bionic/libc/libc.llndk/android_arm_armv8-a_vendor_shared/gen/include/sched.h"
  },
  {
   "alignment" : 4,
   "linker_set_key" : "unsigned long [2]",
   "name" : "unsigned long [2]",
   "referenced_type" : "type-3",
   "self_type" : "type-354",
   "size" : 8,
   "source_file" : "/out/soong/.intermediates/bionic/libc/libc.llndk/android_arm_armv8-a_vendor_shared/gen/include/bits/signal_types.h"
  },
  {
   "alignment" : 4,
   "linker_set_key" : "unsigned long [32]",
   "name" : "unsigned long [32]",
   "referenced_type" : "type-3",
   "self_type" : "type-2",
   "size" : 128,
   "source_file" : "/bionic/libc/kernel/uapi/linux/posix_types.h"
  },
  {
   "alignment" : 8,
   "linker_set_key" : "unsigned long long [14]",
   "name" : "unsigned long long [14]",
   "referenced_type" : "type-107",
   "self_type" : "type-110",
   "size" : 112,
   "source_file" : "/bionic/libc/kernel/uapi/linux/stat.h"
  },
  {
   "alignment" : 8,
   "linker_set_key" : "unsigned long long [167]",
   "name" : "unsigned long long [167]",
   "referenced_type" : "type-107",
   "self_type" : "type-137",
   "size" : 1336,
   "source_file" : "/external/libunwind_llvm/include/libunwind.h"
  },
  {
   "alignment" : 8,
   "linker_set_key" : "unsigned long long [16]",
   "name" : "unsigned long long [16]",
   "referenced_type" : "type-107",
   "self_type" : "type-147",
   "size" : 128,
   "source_file" : "/external/libunwind_llvm/src/Registers.hpp"
  },
  {
   "alignment" : 8,
   "linker_set_key" : "unsigned long long [179]",
   "name" : "unsigned long long [179]",
   "referenced_type" : "type-107",
   "self_type" : "type-151",
   "size" : 1432,
   "source_file" : "/external/libunwind_llvm/include/libunwind.h"
  },
  {
   "alignment" : 8,
   "linker_set_key" : "unsigned long long [17]",
   "name" : "unsigned long long [17]",
   "referenced_type" : "type-107",
   "self_type" : "type-146",
   "size" : 136,
   "source_file" : "/external/libunwind_llvm/src/Registers.hpp"
  },
  {
   "alignment" : 8,
   "linker_set_key" : "unsigned long long [29]",
   "name" : "unsigned long long [29]",
   "referenced_type" : "type-107",
   "self_type" : "type-209",
   "size" : 232,
   "source_file" : "/external/libunwind_llvm/src/Registers.hpp"
  },
  {
   "alignment" : 8,
   "linker_set_key" : "unsigned long long [32]",
   "name" : "unsigned long long [32]",
   "referenced_type" : "type-107",
   "self_type" : "type-228",
   "size" : 256,
   "source_file" : "/out/soong/.intermediates/bionic/libc/libc.llndk/android_arm_armv8-a_vendor_shared/gen/include/sys/user.h"
  },
  {
   "alignment" : 2,
   "linker_set_key" : "unsigned short [1]",
   "name" : "unsigned short [1]",
   "referenced_type" : "type-108",
   "self_type" : "type-109",
   "size" : 2,
   "source_file" : "/bionic/libc/kernel/uapi/linux/stat.h"
  },
  {
   "alignment" : 4,
   "linker_set_key" : "user_fpregs::fp_reg [8]",
   "name" : "user_fpregs::fp_reg [8]",
   "referenced_type" : "type-359",
   "self_type" : "type-360",
   "size" : 96,
   "source_file" : "/out/soong/.intermediates/bionic/libc/libc.llndk/android_arm_armv8-a_vendor_shared/gen/include/sys/user.h"
  }
 ],
 "builtin_types" :
 [
  {
   "alignment" : 1,
   "is_integral" : true,
   "is_unsigned" : true,
   "linker_set_key" : "bool",
   "name" : "bool",
   "referenced_type" : "type-145",
   "self_type" : "type-145",
   "size" : 1
  },
  {
   "alignment" : 1,
   "is_integral" : true,
   "is_unsigned" : true,
   "linker_set_key" : "char",
   "name" : "char",
   "referenced_type" : "type-6",
   "self_type" : "type-6",
   "size" : 1
  },
  {
   "alignment" : 8,
   "linker_set_key" : "double",
   "name" : "double",
   "referenced_type" : "type-185",
   "self_type" : "type-185",
   "size" : 8
  },
  {
   "alignment" : 4,
   "is_integral" : true,
   "linker_set_key" : "int",
   "name" : "int",
   "referenced_type" : "type-4",
   "self_type" : "type-4",
   "size" : 4
  },
  {
   "alignment" : 4,
   "is_integral" : true,
   "linker_set_key" : "long",
   "name" : "long",
   "referenced_type" : "type-13",
   "self_type" : "type-13",
   "size" : 4
  },
  {
   "alignment" : 8,
   "linker_set_key" : "long double",
   "name" : "long double",
   "referenced_type" : "type-130",
   "self_type" : "type-130",
   "size" : 8
  },
  {
   "alignment" : 8,
   "is_integral" : true,
   "linker_set_key" : "long long",
   "name" : "long long",
   "referenced_type" : "type-72",
   "self_type" : "type-72",
   "size" : 8
  },
  {
   "alignment" : 2,
   "is_integral" : true,
   "linker_set_key" : "short",
   "name" : "short",
   "referenced_type" : "type-45",
   "self_type" : "type-45",
   "size" : 2
  },
  {
   "alignment" : 1,
   "is_integral" : true,
   "is_unsigned" : true,
   "linker_set_key" : "unsigned char",
   "name" : "unsigned char",
   "referenced_type" : "type-17",
   "self_type" : "type-17",
   "size" : 1
  },
  {
   "alignment" : 4,
   "is_integral" : true,
   "is_unsigned" : true,
   "linker_set_key" : "unsigned int",
   "name" : "unsigned int",
   "referenced_type" : "type-9",
   "self_type" : "type-9",
   "size" : 4
  },
  {
   "alignment" : 4,
   "is_integral" : true,
   "is_unsigned" : true,
   "linker_set_key" : "unsigned long",
   "name" : "unsigned long",
   "referenced_type" : "type-3",
   "self_type" : "type-3",
   "size" : 4
  },
  {
   "alignment" : 8,
   "is_integral" : true,
   "is_unsigned" : true,
   "linker_set_key" : "unsigned long long",
   "name" : "unsigned long long",
   "referenced_type" : "type-107",
   "self_type" : "type-107",
   "size" : 8
  },
  {
   "alignment" : 2,
   "is_integral" : true,
   "is_unsigned" : true,
   "linker_set_key" : "unsigned short",
   "name" : "unsigned short",
   "referenced_type" : "type-108",
   "self_type" : "type-108",
   "size" : 2
  },
  {
   "linker_set_key" : "void",
   "name" : "void",
   "referenced_type" : "type-15",
   "self_type" : "type-15"
  }
 ],
 "elf_functions" :
 [
  {
   "name" : "__aeabi_memclr"
  },
  {
   "name" : "__aeabi_memclr4"
  },
  {
   "name" : "__aeabi_memclr8"
  },
  {
   "name" : "__aeabi_memcpy"
  },
  {
   "name" : "__aeabi_memcpy4"
  },
  {
   "name" : "__aeabi_memcpy8"
  },
  {
   "name" : "__aeabi_memset"
  },
  {
   "name" : "__aeabi_memset4"
  },
  {
   "name" : "__aeabi_memset8"
  },
  {
   "name" : "audio_route_apply_and_update_path"
  },
  {
   "name" : "audio_route_apply_path"
  },
  {
   "name" : "audio_route_free"
  },
  {
   "name" : "audio_route_init"
  },
  {
   "name" : "audio_route_reset"
  },
  {
   "name" : "audio_route_reset_and_update_path"
  },
  {
   "name" : "audio_route_reset_path"
  },
  {
   "name" : "audio_route_update_mixer"
  }
 ],
 "elf_objects" : [],
 "enum_types" :
 [
  {
   "alignment" : 4,
   "enum_fields" :
   [
    {
     "enum_field_value" : 0,
     "name" : "(anonymous namespace)::Descriptor::SU16"
    },
    {
     "enum_field_value" : 1,
     "name" : "(anonymous namespace)::Descriptor::LU16"
    },
    {
     "enum_field_value" : 3,
     "name" : "(anonymous namespace)::Descriptor::LU32"
    },
    {
     "enum_field_value" : 4,
     "name" : "(anonymous namespace)::Descriptor::RESERVED0"
    },
    {
     "enum_field_value" : 5,
     "name" : "(anonymous namespace)::Descriptor::RESERVED1"
    },
    {
     "enum_field_value" : 6,
     "name" : "(anonymous namespace)::Descriptor::RESERVED2"
    },
    {
     "enum_field_value" : 7,
     "name" : "(anonymous namespace)::Descriptor::RESERVED3"
    },
    {
     "enum_field_value" : 8,
     "name" : "(anonymous namespace)::Descriptor::RESERVED4"
    },
    {
     "enum_field_value" : 9,
     "name" : "(anonymous namespace)::Descriptor::RESERVED5"
    },
    {
     "enum_field_value" : 10,
     "name" : "(anonymous namespace)::Descriptor::RESERVED6"
    },
    {
     "enum_field_value" : 11,
     "name" : "(anonymous namespace)::Descriptor::RESERVED7"
    },
    {
     "enum_field_value" : 12,
     "name" : "(anonymous namespace)::Descriptor::RESERVED8"
    },
    {
     "enum_field_value" : 13,
     "name" : "(anonymous namespace)::Descriptor::RESERVED9"
    },
    {
     "enum_field_value" : 14,
     "name" : "(anonymous namespace)::Descriptor::RESERVED10"
    },
    {
     "enum_field_value" : 15,
     "name" : "(anonymous namespace)::Descriptor::RESERVED11"
    }
   ],
   "linker_set_key" : "Descriptor::Format",
   "name" : "Descriptor::Format",
   "referenced_type" : "type-437",
   "self_type" : "type-437",
   "size" : 4,
   "source_file" : "/external/libunwind_llvm/src/Unwind-EHABI.cpp",
   "underlying_type" : "type-9",
   "unique_id" : "_ZTSN12_GLOBAL__N_110Descriptor6FormatE"
  },
  {
   "alignment" : 4,
   "enum_fields" :
   [
    {
     "enum_field_value" : 0,
     "name" : "(anonymous namespace)::Descriptor::CLEANUP"
    },
    {
     "enum_field_value" : 1,
     "name" : "(anonymous namespace)::Descriptor::FUNC"
    },
    {
     "enum_field_value" : 2,
     "name" : "(anonymous namespace)::Descriptor::CATCH"
    },
    {
     "enum_field_value" : 4,
     "name" : "(anonymous namespace)::Descriptor::INVALID"
    }
   ],
   "linker_set_key" : "Descriptor::Kind",
   "name" : "Descriptor::Kind",
   "referenced_type" : "type-438",
   "self_type" : "type-438",
   "size" : 4,
   "source_file" : "/external/libunwind_llvm/src/Unwind-EHABI.cpp",
   "underlying_type" : "type-9",
   "unique_id" : "_ZTSN12_GLOBAL__N_110Descriptor4KindE"
  },
  {
   "alignment" : 4,
   "enum_fields" :
   [
    {
     "enum_field_value" : 0,
     "name" : "XML_CQUANT_NONE"
    },
    {
     "enum_field_value" : 1,
     "name" : "XML_CQUANT_OPT"
    },
    {
     "enum_field_value" : 2,
     "name" : "XML_CQUANT_REP"
    },
    {
     "enum_field_value" : 3,
     "name" : "XML_CQUANT_PLUS"
    }
   ],
   "linker_set_key" : "XML_Content_Quant",
   "name" : "XML_Content_Quant",
   "referenced_type" : "type-77",
   "self_type" : "type-77",
   "size" : 4,
   "source_file" : "/external/expat/lib/expat.h",
   "underlying_type" : "type-9",
   "unique_id" : "XML_Content_Quant"
  },
  {
   "alignment" : 4,
   "enum_fields" :
   [
    {
     "enum_field_value" : 1,
     "name" : "XML_CTYPE_EMPTY"
    },
    {
     "enum_field_value" : 2,
     "name" : "XML_CTYPE_ANY"
    },
    {
     "enum_field_value" : 3,
     "name" : "XML_CTYPE_MIXED"
    },
    {
     "enum_field_value" : 4,
     "name" : "XML_CTYPE_NAME"
    },
    {
     "enum_field_value" : 5,
     "name" : "XML_CTYPE_CHOICE"
    },
    {
     "enum_field_value" : 6,
     "name" : "XML_CTYPE_SEQ"
    }
   ],
   "linker_set_key" : "XML_Content_Type",
   "name" : "XML_Content_Type",
   "referenced_type" : "type-76",
   "self_type" : "type-76",
   "size" : 4,
   "source_file" : "/external/expat/lib/expat.h",
   "underlying_type" : "type-9",
   "unique_id" : "XML_Content_Type"
  },
  {
   "alignment" : 4,
   "enum_fields" :
   [
    {
     "enum_field_value" : 0,
     "name" : "XML_ERROR_NONE"
    },
    {
     "enum_field_value" : 1,
     "name" : "XML_ERROR_NO_MEMORY"
    },
    {
     "enum_field_value" : 2,
     "name" : "XML_ERROR_SYNTAX"
    },
    {
     "enum_field_value" : 3,
     "name" : "XML_ERROR_NO_ELEMENTS"
    },
    {
     "enum_field_value" : 4,
     "name" : "XML_ERROR_INVALID_TOKEN"
    },
    {
     "enum_field_value" : 5,
     "name" : "XML_ERROR_UNCLOSED_TOKEN"
    },
    {
     "enum_field_value" : 6,
     "name" : "XML_ERROR_PARTIAL_CHAR"
    },
    {
     "enum_field_value" : 7,
     "name" : "XML_ERROR_TAG_MISMATCH"
    },
    {
     "enum_field_value" : 8,
     "name" : "XML_ERROR_DUPLICATE_ATTRIBUTE"
    },
    {
     "enum_field_value" : 9,
     "name" : "XML_ERROR_JUNK_AFTER_DOC_ELEMENT"
    },
    {
     "enum_field_value" : 10,
     "name" : "XML_ERROR_PARAM_ENTITY_REF"
    },
    {
     "enum_field_value" : 11,
     "name" : "XML_ERROR_UNDEFINED_ENTITY"
    },
    {
     "enum_field_value" : 12,
     "name" : "XML_ERROR_RECURSIVE_ENTITY_REF"
    },
    {
     "enum_field_value" : 13,
     "name" : "XML_ERROR_ASYNC_ENTITY"
    },
    {
     "enum_field_value" : 14,
     "name" : "XML_ERROR_BAD_CHAR_REF"
    },
    {
     "enum_field_value" : 15,
     "name" : "XML_ERROR_BINARY_ENTITY_REF"
    },
    {
     "enum_field_value" : 16,
     "name" : "XML_ERROR_ATTRIBUTE_EXTERNAL_ENTITY_REF"
    },
    {
     "enum_field_value" : 17,
     "name" : "XML_ERROR_MISPLACED_XML_PI"
    },
    {
     "enum_field_value" : 18,
     "name" : "XML_ERROR_UNKNOWN_ENCODING"
    },
    {
     "enum_field_value" : 19,
     "name" : "XML_ERROR_INCORRECT_ENCODING"
    },
    {
     "enum_field_value" : 20,
     "name" : "XML_ERROR_UNCLOSED_CDATA_SECTION"
    },
    {
     "enum_field_value" : 21,
     "name" : "XML_ERROR_EXTERNAL_ENTITY_HANDLING"
    },
    {
     "enum_field_value" : 22,
     "name" : "XML_ERROR_NOT_STANDALONE"
    },
    {
     "enum_field_value" : 23,
     "name" : "XML_ERROR_UNEXPECTED_STATE"
    },
    {
     "enum_field_value" : 24,
     "name" : "XML_ERROR_ENTITY_DECLARED_IN_PE"
    },
    {
     "enum_field_value" : 25,
     "name" : "XML_ERROR_FEATURE_REQUIRES_XML_DTD"
    },
    {
     "enum_field_value" : 26,
     "name" : "XML_ERROR_CANT_CHANGE_FEATURE_ONCE_PARSING"
    },
    {
     "enum_field_value" : 27,
     "name" : "XML_ERROR_UNBOUND_PREFIX"
    },
    {
     "enum_field_value" : 28,
     "name" : "XML_ERROR_UNDECLARING_PREFIX"
    },
    {
     "enum_field_value" : 29,
     "name" : "XML_ERROR_INCOMPLETE_PE"
    },
    {
     "enum_field_value" : 30,
     "name" : "XML_ERROR_XML_DECL"
    },
    {
     "enum_field_value" : 31,
     "name" : "XML_ERROR_TEXT_DECL"
    },
    {
     "enum_field_value" : 32,
     "name" : "XML_ERROR_PUBLICID"
    },
    {
     "enum_field_value" : 33,
     "name" : "XML_ERROR_SUSPENDED"
    },
    {
     "enum_field_value" : 34,
     "name" : "XML_ERROR_NOT_SUSPENDED"
    },
    {
     "enum_field_value" : 35,
     "name" : "XML_ERROR_ABORTED"
    },
    {
     "enum_field_value" : 36,
     "name" : "XML_ERROR_FINISHED"
    },
    {
     "enum_field_value" : 37,
     "name" : "XML_ERROR_SUSPEND_PE"
    },
    {
     "enum_field_value" : 38,
     "name" : "XML_ERROR_RESERVED_PREFIX_XML"
    },
    {
     "enum_field_value" : 39,
     "name" : "XML_ERROR_RESERVED_PREFIX_XMLNS"
    },
    {
     "enum_field_value" : 40,
     "name" : "XML_ERROR_RESERVED_NAMESPACE_URI"
    },
    {
     "enum_field_value" : 41,
     "name" : "XML_ERROR_INVALID_ARGUMENT"
    }
   ],
   "linker_set_key" : "XML_Error",
   "name" : "XML_Error",
   "referenced_type" : "type-75",
   "self_type" : "type-75",
   "size" : 4,
   "source_file" : "/external/expat/lib/expat.h",
   "underlying_type" : "type-9",
   "unique_id" : "XML_Error"
  },
  {
   "alignment" : 4,
   "enum_fields" :
   [
    {
     "enum_field_value" : 0,
     "name" : "XML_FEATURE_END"
    },
    {
     "enum_field_value" : 1,
     "name" : "XML_FEATURE_UNICODE"
    },
    {
     "enum_field_value" : 2,
     "name" : "XML_FEATURE_UNICODE_WCHAR_T"
    },
    {
     "enum_field_value" : 3,
     "name" : "XML_FEATURE_DTD"
    },
    {
     "enum_field_value" : 4,
     "name" : "XML_FEATURE_CONTEXT_BYTES"
    },
    {
     "enum_field_value" : 5,
     "name" : "XML_FEATURE_MIN_SIZE"
    },
    {
     "enum_field_value" : 6,
     "name" : "XML_FEATURE_SIZEOF_XML_CHAR"
    },
    {
     "enum_field_value" : 7,
     "name" : "XML_FEATURE_SIZEOF_XML_LCHAR"
    },
    {
     "enum_field_value" : 8,
     "name" : "XML_FEATURE_NS"
    },
    {
     "enum_field_value" : 9,
     "name" : "XML_FEATURE_LARGE_SIZE"
    },
    {
     "enum_field_value" : 10,
     "name" : "XML_FEATURE_ATTR_INFO"
    }
   ],
   "linker_set_key" : "XML_FeatureEnum",
   "name" : "XML_FeatureEnum",
   "referenced_type" : "type-97",
   "self_type" : "type-97",
   "size" : 4,
   "source_file" : "/external/expat/lib/expat.h",
   "underlying_type" : "type-9",
   "unique_id" : "XML_FeatureEnum"
  },
  {
   "alignment" : 4,
   "enum_fields" :
   [
    {
     "enum_field_value" : 0,
     "name" : "XML_PARAM_ENTITY_PARSING_NEVER"
    },
    {
     "enum_field_value" : 1,
     "name" : "XML_PARAM_ENTITY_PARSING_UNLESS_STANDALONE"
    },
    {
     "enum_field_value" : 2,
     "name" : "XML_PARAM_ENTITY_PARSING_ALWAYS"
    }
   ],
   "linker_set_key" : "XML_ParamEntityParsing",
   "name" : "XML_ParamEntityParsing",
   "referenced_type" : "type-95",
   "self_type" : "type-95",
   "size" : 4,
   "source_file" : "/external/expat/lib/expat.h",
   "underlying_type" : "type-9",
   "unique_id" : "XML_ParamEntityParsing"
  },
  {
   "alignment" : 4,
   "enum_fields" :
   [
    {
     "enum_field_value" : 0,
     "name" : "XML_INITIALIZED"
    },
    {
     "enum_field_value" : 1,
     "name" : "XML_PARSING"
    },
    {
     "enum_field_value" : 2,
     "name" : "XML_FINISHED"
    },
    {
     "enum_field_value" : 3,
     "name" : "XML_SUSPENDED"
    }
   ],
   "linker_set_key" : "XML_Parsing",
   "name" : "XML_Parsing",
   "referenced_type" : "type-93",
   "self_type" : "type-93",
   "size" : 4,
   "source_file" : "/external/expat/lib/expat.h",
   "underlying_type" : "type-9",
   "unique_id" : "XML_Parsing"
  },
  {
   "alignment" : 4,
   "enum_fields" :
   [
    {
     "enum_field_value" : 0,
     "name" : "XML_STATUS_ERROR"
    },
    {
     "enum_field_value" : 1,
     "name" : "XML_STATUS_OK"
    },
    {
     "enum_field_value" : 2,
     "name" : "XML_STATUS_SUSPENDED"
    }
   ],
   "linker_set_key" : "XML_Status",
   "name" : "XML_Status",
   "referenced_type" : "type-74",
   "self_type" : "type-74",
   "size" : 4,
   "source_file" : "/external/expat/lib/expat.h",
   "underlying_type" : "type-9",
   "unique_id" : "XML_Status"
  },
  {
   "alignment" : 4,
   "enum_fields" :
   [
    {
     "enum_field_value" : 1,
     "name" : "_UA_SEARCH_PHASE"
    },
    {
     "enum_field_value" : 2,
     "name" : "_UA_CLEANUP_PHASE"
    },
    {
     "enum_field_value" : 4,
     "name" : "_UA_HANDLER_FRAME"
    },
    {
     "enum_field_value" : 8,
     "name" : "_UA_FORCE_UNWIND"
    },
    {
     "enum_field_value" : 16,
     "name" : "_UA_END_OF_STACK"
    }
   ],
   "linker_set_key" : "_Unwind_Action",
   "name" : "_Unwind_Action",
   "referenced_type" : "type-155",
   "self_type" : "type-155",
   "size" : 4,
   "source_file" : "/external/libunwind_llvm/include/unwind.h",
   "underlying_type" : "type-9",
   "unique_id" : "_ZTS14_Unwind_Action"
  },
  {
   "alignment" : 4,
   "enum_fields" :
   [
    {
     "enum_field_value" : 1,
     "name" : "_UA_SEARCH_PHASE"
    },
    {
     "enum_field_value" : 2,
     "name" : "_UA_CLEANUP_PHASE"
    },
    {
     "enum_field_value" : 4,
     "name" : "_UA_HANDLER_FRAME"
    },
    {
     "enum_field_value" : 8,
     "name" : "_UA_FORCE_UNWIND"
    },
    {
     "enum_field_value" : 16,
     "name" : "_UA_END_OF_STACK"
    }
   ],
   "linker_set_key" : "_Unwind_Action",
   "name" : "_Unwind_Action",
   "referenced_type" : "type-453",
   "self_type" : "type-453",
   "size" : 4,
   "source_file" : "/external/libunwind_llvm/include/unwind.h",
   "underlying_type" : "type-9",
   "unique_id" : "_Unwind_Action"
  },
  {
   "alignment" : 4,
   "enum_fields" :
   [
    {
     "enum_field_value" : 0,
     "name" : "_URC_NO_REASON"
    },
    {
     "enum_field_value" : 0,
     "name" : "_URC_OK"
    },
    {
     "enum_field_value" : 1,
     "name" : "_URC_FOREIGN_EXCEPTION_CAUGHT"
    },
    {
     "enum_field_value" : 2,
     "name" : "_URC_FATAL_PHASE2_ERROR"
    },
    {
     "enum_field_value" : 3,
     "name" : "_URC_FATAL_PHASE1_ERROR"
    },
    {
     "enum_field_value" : 4,
     "name" : "_URC_NORMAL_STOP"
    },
    {
     "enum_field_value" : 5,
     "name" : "_URC_END_OF_STACK"
    },
    {
     "enum_field_value" : 6,
     "name" : "_URC_HANDLER_FOUND"
    },
    {
     "enum_field_value" : 7,
     "name" : "_URC_INSTALL_CONTEXT"
    },
    {
     "enum_field_value" : 8,
     "name" : "_URC_CONTINUE_UNWIND"
    },
    {
     "enum_field_value" : 9,
     "name" : "_URC_FAILURE"
    }
   ],
   "linker_set_key" : "_Unwind_Reason_Code",
   "name" : "_Unwind_Reason_Code",
   "referenced_type" : "type-154",
   "self_type" : "type-154",
   "size" : 4,
   "source_file" : "/external/libunwind_llvm/include/unwind.h",
   "underlying_type" : "type-9",
   "unique_id" : "_ZTS19_Unwind_Reason_Code"
  },
  {
   "alignment" : 4,
   "enum_fields" :
   [
    {
     "enum_field_value" : 0,
     "name" : "_URC_NO_REASON"
    },
    {
     "enum_field_value" : 0,
     "name" : "_URC_OK"
    },
    {
     "enum_field_value" : 1,
     "name" : "_URC_FOREIGN_EXCEPTION_CAUGHT"
    },
    {
     "enum_field_value" : 2,
     "name" : "_URC_FATAL_PHASE2_ERROR"
    },
    {
     "enum_field_value" : 3,
     "name" : "_URC_FATAL_PHASE1_ERROR"
    },
    {
     "enum_field_value" : 4,
     "name" : "_URC_NORMAL_STOP"
    },
    {
     "enum_field_value" : 5,
     "name" : "_URC_END_OF_STACK"
    },
    {
     "enum_field_value" : 6,
     "name" : "_URC_HANDLER_FOUND"
    },
    {
     "enum_field_value" : 7,
     "name" : "_URC_INSTALL_CONTEXT"
    },
    {
     "enum_field_value" : 8,
     "name" : "_URC_CONTINUE_UNWIND"
    },
    {
     "enum_field_value" : 9,
     "name" : "_URC_FAILURE"
    }
   ],
   "linker_set_key" : "_Unwind_Reason_Code",
   "name" : "_Unwind_Reason_Code",
   "referenced_type" : "type-439",
   "self_type" : "type-439",
   "size" : 4,
   "source_file" : "/external/libunwind_llvm/include/unwind.h",
   "underlying_type" : "type-9",
   "unique_id" : "_Unwind_Reason_Code"
  },
  {
   "alignment" : 4,
   "enum_fields" :
   [
    {
     "enum_field_value" : 0,
     "name" : "_UVRSD_UINT32"
    },
    {
     "enum_field_value" : 1,
     "name" : "_UVRSD_VFPX"
    },
    {
     "enum_field_value" : 3,
     "name" : "_UVRSD_UINT64"
    },
    {
     "enum_field_value" : 4,
     "name" : "_UVRSD_FLOAT"
    },
    {
     "enum_field_value" : 5,
     "name" : "_UVRSD_DOUBLE"
    }
   ],
   "linker_set_key" : "_Unwind_VRS_DataRepresentation",
   "name" : "_Unwind_VRS_DataRepresentation",
   "referenced_type" : "type-169",
   "self_type" : "type-169",
   "size" : 4,
   "source_file" : "/external/libunwind_llvm/include/unwind.h",
   "underlying_type" : "type-9",
   "unique_id" : "_Unwind_VRS_DataRepresentation"
  },
  {
   "alignment" : 4,
   "enum_fields" :
   [
    {
     "enum_field_value" : 0,
     "name" : "_UVRSC_CORE"
    },
    {
     "enum_field_value" : 1,
     "name" : "_UVRSC_VFP"
    },
    {
     "enum_field_value" : 3,
     "name" : "_UVRSC_WMMXD"
    },
    {
     "enum_field_value" : 4,
     "name" : "_UVRSC_WMMXC"
    }
   ],
   "linker_set_key" : "_Unwind_VRS_RegClass",
   "name" : "_Unwind_VRS_RegClass",
   "referenced_type" : "type-167",
   "self_type" : "type-167",
   "size" : 4,
   "source_file" : "/external/libunwind_llvm/include/unwind.h",
   "underlying_type" : "type-9",
   "unique_id" : "_Unwind_VRS_RegClass"
  },
  {
   "alignment" : 4,
   "enum_fields" :
   [
    {
     "enum_field_value" : 0,
     "name" : "_UVRSR_OK"
    },
    {
     "enum_field_value" : 1,
     "name" : "_UVRSR_NOT_IMPLEMENTED"
    },
    {
     "enum_field_value" : 2,
     "name" : "_UVRSR_FAILED"
    }
   ],
   "linker_set_key" : "_Unwind_VRS_Result",
   "name" : "_Unwind_VRS_Result",
   "referenced_type" : "type-170",
   "self_type" : "type-170",
   "size" : 4,
   "source_file" : "/external/libunwind_llvm/include/unwind.h",
   "underlying_type" : "type-9",
   "unique_id" : "_Unwind_VRS_Result"
  },
  {
   "alignment" : 4,
   "enum_fields" :
   [
    {
     "enum_field_value" : 0,
     "name" : "ANDROID_LOG_UNKNOWN"
    },
    {
     "enum_field_value" : 1,
     "name" : "ANDROID_LOG_DEFAULT"
    },
    {
     "enum_field_value" : 2,
     "name" : "ANDROID_LOG_VERBOSE"
    },
    {
     "enum_field_value" : 3,
     "name" : "ANDROID_LOG_DEBUG"
    },
    {
     "enum_field_value" : 4,
     "name" : "ANDROID_LOG_INFO"
    },
    {
     "enum_field_value" : 5,
     "name" : "ANDROID_LOG_WARN"
    },
    {
     "enum_field_value" : 6,
     "name" : "ANDROID_LOG_ERROR"
    },
    {
     "enum_field_value" : 7,
     "name" : "ANDROID_LOG_FATAL"
    },
    {
     "enum_field_value" : 8,
     "name" : "ANDROID_LOG_SILENT"
    }
   ],
   "linker_set_key" : "android_LogPriority",
   "name" : "android_LogPriority",
   "referenced_type" : "type-99",
   "self_type" : "type-99",
   "size" : 4,
   "source_file" : "/system/core/liblog/include/android/log.h",
   "underlying_type" : "type-9",
   "unique_id" : "android_LogPriority"
  },
  {
   "alignment" : 4,
   "enum_fields" :
   [
    {
     "enum_field_value" : 0,
     "name" : "LOG_ID_MIN"
    },
    {
     "enum_field_value" : 0,
     "name" : "LOG_ID_MAIN"
    },
    {
     "enum_field_value" : 1,
     "name" : "LOG_ID_RADIO"
    },
    {
     "enum_field_value" : 2,
     "name" : "LOG_ID_EVENTS"
    },
    {
     "enum_field_value" : 3,
     "name" : "LOG_ID_SYSTEM"
    },
    {
     "enum_field_value" : 4,
     "name" : "LOG_ID_CRASH"
    },
    {
     "enum_field_value" : 5,
     "name" : "LOG_ID_STATS"
    },
    {
     "enum_field_value" : 6,
     "name" : "LOG_ID_SECURITY"
    },
    {
     "enum_field_value" : 7,
     "name" : "LOG_ID_KERNEL"
    },
    {
     "enum_field_value" : 8,
     "name" : "LOG_ID_MAX"
    }
   ],
   "linker_set_key" : "log_id",
   "name" : "log_id",
   "referenced_type" : "type-101",
   "self_type" : "type-101",
   "size" : 4,
   "source_file" : "/system/core/liblog/include/android/log.h",
   "underlying_type" : "type-9",
   "unique_id" : "log_id"
  },
  {
   "alignment" : 4,
   "enum_fields" :
   [
    {
     "enum_field_value" : 0,
     "name" : "MIXER_CTL_TYPE_BOOL"
    },
    {
     "enum_field_value" : 1,
     "name" : "MIXER_CTL_TYPE_INT"
    },
    {
     "enum_field_value" : 2,
     "name" : "MIXER_CTL_TYPE_ENUM"
    },
    {
     "enum_field_value" : 3,
     "name" : "MIXER_CTL_TYPE_BYTE"
    },
    {
     "enum_field_value" : 4,
     "name" : "MIXER_CTL_TYPE_IEC958"
    },
    {
     "enum_field_value" : 5,
     "name" : "MIXER_CTL_TYPE_INT64"
    },
    {
     "enum_field_value" : 6,
     "name" : "MIXER_CTL_TYPE_UNKNOWN"
    },
    {
     "enum_field_value" : 7,
     "name" : "MIXER_CTL_TYPE_MAX"
    }
   ],
   "linker_set_key" : "mixer_ctl_type",
   "name" : "mixer_ctl_type",
   "referenced_type" : "type-498",
   "self_type" : "type-498",
   "size" : 4,
   "source_file" : "/external/tinyalsa/include/tinyalsa/asoundlib.h",
   "underlying_type" : "type-9",
   "unique_id" : "mixer_ctl_type"
  },
  {
   "alignment" : 4,
   "enum_fields" :
   [
    {
     "enum_field_value" : -1,
     "name" : "PCM_FORMAT_INVALID"
    },
    {
     "enum_field_value" : 0,
     "name" : "PCM_FORMAT_S16_LE"
    },
    {
     "enum_field_value" : 1,
     "name" : "PCM_FORMAT_S32_LE"
    },
    {
     "enum_field_value" : 2,
     "name" : "PCM_FORMAT_S8"
    },
    {
     "enum_field_value" : 3,
     "name" : "PCM_FORMAT_S24_LE"
    },
    {
     "enum_field_value" : 4,
     "name" : "PCM_FORMAT_S24_3LE"
    },
    {
     "enum_field_value" : 5,
     "name" : "PCM_FORMAT_MAX"
    }
   ],
   "linker_set_key" : "pcm_format",
   "name" : "pcm_format",
   "referenced_type" : "type-493",
   "self_type" : "type-493",
   "size" : 4,
   "source_file" : "/external/tinyalsa/include/tinyalsa/asoundlib.h",
   "underlying_type" : "type-4",
   "unique_id" : "pcm_format"
  },
  {
   "alignment" : 4,
   "enum_fields" :
   [
    {
     "enum_field_value" : 0,
     "name" : "PCM_PARAM_ACCESS"
    },
    {
     "enum_field_value" : 1,
     "name" : "PCM_PARAM_FORMAT"
    },
    {
     "enum_field_value" : 2,
     "name" : "PCM_PARAM_SUBFORMAT"
    },
    {
     "enum_field_value" : 3,
     "name" : "PCM_PARAM_SAMPLE_BITS"
    },
    {
     "enum_field_value" : 4,
     "name" : "PCM_PARAM_FRAME_BITS"
    },
    {
     "enum_field_value" : 5,
     "name" : "PCM_PARAM_CHANNELS"
    },
    {
     "enum_field_value" : 6,
     "name" : "PCM_PARAM_RATE"
    },
    {
     "enum_field_value" : 7,
     "name" : "PCM_PARAM_PERIOD_TIME"
    },
    {
     "enum_field_value" : 8,
     "name" : "PCM_PARAM_PERIOD_SIZE"
    },
    {
     "enum_field_value" : 9,
     "name" : "PCM_PARAM_PERIOD_BYTES"
    },
    {
     "enum_field_value" : 10,
     "name" : "PCM_PARAM_PERIODS"
    },
    {
     "enum_field_value" : 11,
     "name" : "PCM_PARAM_BUFFER_TIME"
    },
    {
     "enum_field_value" : 12,
     "name" : "PCM_PARAM_BUFFER_SIZE"
    },
    {
     "enum_field_value" : 13,
     "name" : "PCM_PARAM_BUFFER_BYTES"
    },
    {
     "enum_field_value" : 14,
     "name" : "PCM_PARAM_TICK_TIME"
    }
   ],
   "linker_set_key" : "pcm_param",
   "name" : "pcm_param",
   "referenced_type" : "type-497",
   "self_type" : "type-497",
   "size" : 4,
   "source_file" : "/external/tinyalsa/include/tinyalsa/asoundlib.h",
   "underlying_type" : "type-9",
   "unique_id" : "pcm_param"
  }
 ],
 "function_types" :
 [
  {
   "alignment" : 4,
   "linker_set_key" : "_Unwind_Reason_Code (_Unwind_Context *, void *)",
   "name" : "_Unwind_Reason_Code (_Unwind_Context *, void *)",
   "parameters" :
   [
    {
     "referenced_type" : "type-466"
    },
    {
     "referenced_type" : "type-14"
    }
   ],
   "referenced_type" : "type-465",
   "return_type" : "type-439",
   "self_type" : "type-465",
   "source_file" : "/external/libunwind_llvm/include/unwind.h"
  },
  {
   "alignment" : 4,
   "linker_set_key" : "int (void *, const char *)",
   "name" : "int (void *, const char *)",
   "parameters" :
   [
    {
     "referenced_type" : "type-14"
    },
    {
     "referenced_type" : "type-91"
    }
   ],
   "referenced_type" : "type-90",
   "return_type" : "type-4",
   "self_type" : "type-90",
   "source_file" : "/external/expat/lib/expat.h"
  },
  {
   "alignment" : 4,
   "linker_set_key" : "void ()",
   "name" : "void ()",
   "referenced_type" : "type-335",
   "return_type" : "type-15",
   "self_type" : "type-335",
   "source_file" : "/bionic/libc/kernel/uapi/asm-arm/asm/signal.h"
  },
  {
   "alignment" : 4,
   "linker_set_key" : "void (_Unwind_Reason_Code, _Unwind_Control_Block *)",
   "name" : "void (_Unwind_Reason_Code, _Unwind_Control_Block *)",
   "parameters" :
   [
    {
     "referenced_type" : "type-154"
    },
    {
     "referenced_type" : "type-159"
    }
   ],
   "referenced_type" : "type-158",
   "return_type" : "type-15",
   "self_type" : "type-158",
   "source_file" : "/external/libunwind_llvm/include/unwind.h"
  },
  {
   "alignment" : 4,
   "linker_set_key" : "void (_Unwind_Reason_Code, _Unwind_Control_Block *)",
   "name" : "void (_Unwind_Reason_Code, _Unwind_Control_Block *)",
   "parameters" :
   [
    {
     "referenced_type" : "type-439"
    },
    {
     "referenced_type" : "type-440"
    }
   ],
   "referenced_type" : "type-443",
   "return_type" : "type-15",
   "self_type" : "type-443",
   "source_file" : "/external/libunwind_llvm/include/unwind.h"
  },
  {
   "alignment" : 4,
   "linker_set_key" : "void (int)",
   "name" : "void (int)",
   "parameters" :
   [
    {
     "referenced_type" : "type-4"
    }
   ],
   "referenced_type" : "type-315",
   "return_type" : "type-15",
   "self_type" : "type-315",
   "source_file" : "/bionic/libc/kernel/uapi/asm-arm/asm/signal.h"
  },
  {
   "alignment" : 4,
   "linker_set_key" : "void (int, siginfo *, void *)",
   "name" : "void (int, siginfo *, void *)",
   "parameters" :
   [
    {
     "referenced_type" : "type-4"
    },
    {
     "referenced_type" : "type-318"
    },
    {
     "referenced_type" : "type-14"
    }
   ],
   "referenced_type" : "type-317",
   "return_type" : "type-15",
   "self_type" : "type-317",
   "source_file" : "/bionic/libc/kernel/uapi/asm-arm/asm/signal.h"
  },
  {
   "alignment" : 4,
   "linker_set_key" : "void (int, siginfo *, void *)",
   "name" : "void (int, siginfo *, void *)",
   "parameters" :
   [
    {
     "referenced_type" : "type-4"
    },
    {
     "referenced_type" : "type-33"
    },
    {
     "referenced_type" : "type-14"
    }
   ],
   "referenced_type" : "type-32",
   "return_type" : "type-15",
   "self_type" : "type-32",
   "source_file" : "/bionic/libc/kernel/uapi/asm-arm/asm/signal.h"
  },
  {
   "alignment" : 4,
   "linker_set_key" : "void (sigval)",
   "name" : "void (sigval)",
   "parameters" :
   [
    {
     "referenced_type" : "type-325"
    }
   ],
   "referenced_type" : "type-346",
   "return_type" : "type-15",
   "self_type" : "type-346",
   "source_file" : "/bionic/libc/kernel/uapi/asm-generic/siginfo.h"
  },
  {
   "alignment" : 4,
   "linker_set_key" : "void (sigval)",
   "name" : "void (sigval)",
   "parameters" :
   [
    {
     "referenced_type" : "type-40"
    }
   ],
   "referenced_type" : "type-351",
   "return_type" : "type-15",
   "self_type" : "type-351",
   "source_file" : "/bionic/libc/kernel/uapi/asm-generic/siginfo.h"
  },
  {
   "alignment" : 4,
   "linker_set_key" : "void (void *)",
   "name" : "void (void *)",
   "parameters" :
   [
    {
     "referenced_type" : "type-14"
    }
   ],
   "referenced_type" : "type-86",
   "return_type" : "type-15",
   "self_type" : "type-86",
   "source_file" : "/external/expat/lib/expat.h"
  },
  {
   "alignment" : 4,
   "linker_set_key" : "void (void *, const void *)",
   "name" : "void (void *, const void *)",
   "parameters" :
   [
    {
     "referenced_type" : "type-14"
    },
    {
     "referenced_type" : "type-57"
    }
   ],
   "referenced_type" : "type-64",
   "return_type" : "type-15",
   "self_type" : "type-64",
   "source_file" : "/out/soong/.intermediates/bionic/libc/libc.llndk/android_arm_armv8-a_vendor_shared/gen/include/malloc.h"
  },
  {
   "alignment" : 4,
   "linker_set_key" : "void (void)",
   "name" : "void (void)",
   "referenced_type" : "type-295",
   "return_type" : "type-15",
   "self_type" : "type-295",
   "source_file" : "/bionic/libc/kernel/uapi/asm-arm/asm/signal.h"
  },
  {
   "alignment" : 4,
   "linker_set_key" : "void *(unsigned int)",
   "name" : "void *(unsigned int)",
   "parameters" :
   [
    {
     "referenced_type" : "type-9"
    }
   ],
   "referenced_type" : "type-82",
   "return_type" : "type-14",
   "self_type" : "type-82",
   "source_file" : "/external/expat/lib/expat.h"
  },
  {
   "alignment" : 4,
   "linker_set_key" : "void *(unsigned int, const void *)",
   "name" : "void *(unsigned int, const void *)",
   "parameters" :
   [
    {
     "referenced_type" : "type-9"
    },
    {
     "referenced_type" : "type-57"
    }
   ],
   "referenced_type" : "type-56",
   "return_type" : "type-14",
   "self_type" : "type-56",
   "source_file" : "/out/soong/.intermediates/bionic/libc/libc.llndk/android_arm_armv8-a_vendor_shared/gen/include/malloc.h"
  },
  {
   "alignment" : 4,
   "linker_set_key" : "void *(unsigned int, unsigned int, const void *)",
   "name" : "void *(unsigned int, unsigned int, const void *)",
   "parameters" :
   [
    {
     "referenced_type" : "type-9"
    },
    {
     "referenced_type" : "type-9"
    },
    {
     "referenced_type" : "type-57"
    }
   ],
   "referenced_type" : "type-67",
   "return_type" : "type-14",
   "self_type" : "type-67",
   "source_file" : "/out/soong/.intermediates/bionic/libc/libc.llndk/android_arm_armv8-a_vendor_shared/gen/include/malloc.h"
  },
  {
   "alignment" : 4,
   "linker_set_key" : "void *(void *, unsigned int)",
   "name" : "void *(void *, unsigned int)",
   "parameters" :
   [
    {
     "referenced_type" : "type-14"
    },
    {
     "referenced_type" : "type-9"
    }
   ],
   "referenced_type" : "type-84",
   "return_type" : "type-14",
   "self_type" : "type-84",
   "source_file" : "/external/expat/lib/expat.h"
  },
  {
   "alignment" : 4,
   "linker_set_key" : "void *(void *, unsigned int, const void *)",
   "name" : "void *(void *, unsigned int, const void *)",
   "parameters" :
   [
    {
     "referenced_type" : "type-14"
    },
    {
     "referenced_type" : "type-9"
    },
    {
     "referenced_type" : "type-57"
    }
   ],
   "referenced_type" : "type-61",
   "return_type" : "type-14",
   "self_type" : "type-61",
   "source_file" : "/out/soong/.intermediates/bionic/libc/libc.llndk/android_arm_armv8-a_vendor_shared/gen/include/malloc.h"
  }
 ],
 "functions" :
 [
  {
   "function_name" : "audio_route_apply_and_update_path",
   "linker_set_key" : "audio_route_apply_and_update_path",
   "parameters" :
   [
    {
     "referenced_type" : "type-30"
    },
    {
     "referenced_type" : "type-91"
    }
   ],
   "return_type" : "type-4",
   "source_file" : "/system/media/audio_route/audio_route.c"
  },
  {
   "function_name" : "audio_route_apply_path",
   "linker_set_key" : "audio_route_apply_path",
   "parameters" :
   [
    {
     "referenced_type" : "type-30"
    },
    {
     "referenced_type" : "type-91"
    }
   ],
   "return_type" : "type-4",
   "source_file" : "/system/media/audio_route/audio_route.c"
  },
  {
   "function_name" : "audio_route_free",
   "linker_set_key" : "audio_route_free",
   "parameters" :
   [
    {
     "referenced_type" : "type-30"
    }
   ],
   "return_type" : "type-15",
   "source_file" : "/system/media/audio_route/audio_route.c"
  },
  {
   "function_name" : "audio_route_init",
   "linker_set_key" : "audio_route_init",
   "parameters" :
   [
    {
     "referenced_type" : "type-9"
    },
    {
     "referenced_type" : "type-91"
    }
   ],
   "return_type" : "type-30",
   "source_file" : "/system/media/audio_route/audio_route.c"
  },
  {
   "function_name" : "audio_route_reset",
   "linker_set_key" : "audio_route_reset",
   "parameters" :
   [
    {
     "referenced_type" : "type-30"
    }
   ],
   "return_type" : "type-15",
   "source_file" : "/system/media/audio_route/audio_route.c"
  },
  {
   "function_name" : "audio_route_reset_and_update_path",
   "linker_set_key" : "audio_route_reset_and_update_path",
   "parameters" :
   [
    {
     "referenced_type" : "type-30"
    },
    {
     "referenced_type" : "type-91"
    }
   ],
   "return_type" : "type-4",
   "source_file" : "/system/media/audio_route/audio_route.c"
  },
  {
   "function_name" : "audio_route_reset_path",
   "linker_set_key" : "audio_route_reset_path",
   "parameters" :
   [
    {
     "referenced_type" : "type-30"
    },
    {
     "referenced_type" : "type-91"
    }
   ],
   "return_type" : "type-4",
   "source_file" : "/system/media/audio_route/audio_route.c"
  },
  {
   "function_name" : "audio_route_update_mixer",
   "linker_set_key" : "audio_route_update_mixer",
   "parameters" :
   [
    {
     "referenced_type" : "type-30"
    }
   ],
   "return_type" : "type-4",
   "source_file" : "/system/media/audio_route/audio_route.c"
  }
 ],
 "global_vars" : [],
 "lvalue_reference_types" :
 [
  {
   "alignment" : 4,
   "linker_set_key" : "const libunwind::EHABISectionIterator<libunwind::LocalAddressSpace> &",
   "name" : "const libunwind::EHABISectionIterator<libunwind::LocalAddressSpace> &",
   "referenced_type" : "type-387",
   "self_type" : "type-388",
   "size" : 4,
   "source_file" : "/external/libunwind_llvm/src/UnwindCursor.hpp"
  },
  {
   "alignment" : 4,
   "linker_set_key" : "const libunwind::UnwindInfoSections &",
   "name" : "const libunwind::UnwindInfoSections &",
   "referenced_type" : "type-378",
   "self_type" : "type-381",
   "size" : 4,
   "source_file" : "/external/libunwind_llvm/src/UnwindCursor.hpp"
  },
  {
   "alignment" : 4,
   "linker_set_key" : "libunwind::EHABISectionIterator<libunwind::LocalAddressSpace> &",
   "name" : "libunwind::EHABISectionIterator<libunwind::LocalAddressSpace> &",
   "referenced_type" : "type-383",
   "self_type" : "type-386",
   "size" : 4,
   "source_file" : "/external/libunwind_llvm/src/UnwindCursor.hpp"
  },
  {
   "alignment" : 4,
   "linker_set_key" : "libunwind::LocalAddressSpace &",
   "name" : "libunwind::LocalAddressSpace &",
   "referenced_type" : "type-141",
   "self_type" : "type-140",
   "size" : 4,
   "source_file" : "/external/libunwind_llvm/src/UnwindCursor.hpp"
  },
  {
   "alignment" : 4,
   "linker_set_key" : "libunwind::UnwindInfoSections &",
   "name" : "libunwind::UnwindInfoSections &",
   "referenced_type" : "type-285",
   "self_type" : "type-288",
   "size" : 4,
   "source_file" : "/external/libunwind_llvm/src/AddressSpace.hpp"
  },
  {
   "alignment" : 4,
   "linker_set_key" : "unsigned int &",
   "name" : "unsigned int &",
   "referenced_type" : "type-9",
   "self_type" : "type-287",
   "size" : 4,
   "source_file" : "/external/libunwind_llvm/src/AddressSpace.hpp"
  }
 ],
 "pointer_types" :
 [
  {
   "alignment" : 4,
   "linker_set_key" : "XML_cp *",
   "name" : "XML_cp *",
   "referenced_type" : "type-78",
   "self_type" : "type-79",
   "size" : 4,
   "source_file" : "/external/expat/lib/expat.h"
  },
  {
   "alignment" : 4,
   "linker_set_key" : "_Unwind_Context *",
   "name" : "_Unwind_Context *",
   "referenced_type" : "type-427",
   "self_type" : "type-426",
   "size" : 4,
   "source_file" : "/external/libunwind_llvm/include/unwind.h"
  },
  {
   "alignment" : 4,
   "linker_set_key" : "_Unwind_Context *",
   "name" : "_Unwind_Context *",
   "referenced_type" : "type-467",
   "self_type" : "type-466",
   "size" : 4,
   "source_file" : "/external/libunwind_llvm/include/unwind.h"
  },
  {
   "alignment" : 4,
   "linker_set_key" : "_Unwind_Context *",
   "name" : "_Unwind_Context *",
   "referenced_type" : "type-478",
   "self_type" : "type-477",
   "size" : 4,
   "source_file" : "/external/libunwind_llvm/include/unwind.h"
  },
  {
   "alignment" : 4,
   "linker_set_key" : "_Unwind_Control_Block *",
   "name" : "_Unwind_Control_Block *",
   "referenced_type" : "type-156",
   "self_type" : "type-159",
   "size" : 4,
   "source_file" : "/external/libunwind_llvm/include/unwind.h"
  },
  {
   "alignment" : 4,
   "linker_set_key" : "_Unwind_Control_Block *",
   "name" : "_Unwind_Control_Block *",
   "referenced_type" : "type-441",
   "self_type" : "type-440",
   "size" : 4,
   "source_file" : "/external/libunwind_llvm/include/unwind.h"
  },
  {
   "alignment" : 4,
   "linker_set_key" : "_Unwind_Reason_Code (*)(_Unwind_Context *, void *)",
   "name" : "_Unwind_Reason_Code (*)(_Unwind_Context *, void *)",
   "referenced_type" : "type-465",
   "self_type" : "type-468",
   "size" : 4,
   "source_file" : "/external/libunwind_llvm/include/unwind.h"
  },
  {
   "alignment" : 4,
   "linker_set_key" : "__pthread_cleanup_t *",
   "name" : "__pthread_cleanup_t *",
   "referenced_type" : "type-370",
   "self_type" : "type-371",
   "size" : 4,
   "source_file" : "/out/soong/.intermediates/bionic/libc/libc.llndk/android_arm_armv8-a_vendor_shared/gen/include/pthread.h"
  },
  {
   "alignment" : 4,
   "linker_set_key" : "__sFILE *",
   "name" : "__sFILE *",
   "referenced_type" : "type-393",
   "self_type" : "type-392",
   "size" : 4,
   "source_file" : "/out/soong/.intermediates/bionic/libc/libc.llndk/android_arm_armv8-a_vendor_shared/gen/include/stdio.h"
  },
  {
   "alignment" : 4,
   "linker_set_key" : "__sFILE *",
   "name" : "__sFILE *",
   "referenced_type" : "type-431",
   "self_type" : "type-430",
   "size" : 4,
   "source_file" : "/out/soong/.intermediates/bionic/libc/libc.llndk/android_arm_armv8-a_vendor_shared/gen/include/stdio.h"
  },
  {
   "alignment" : 4,
   "linker_set_key" : "__sFILE *",
   "name" : "__sFILE *",
   "referenced_type" : "type-455",
   "self_type" : "type-454",
   "size" : 4,
   "source_file" : "/out/soong/.intermediates/bionic/libc/libc.llndk/android_arm_armv8-a_vendor_shared/gen/include/stdio.h"
  },
  {
   "alignment" : 4,
   "linker_set_key" : "__sFILE *",
   "name" : "__sFILE *",
   "referenced_type" : "type-457",
   "self_type" : "type-456",
   "size" : 4,
   "source_file" : "/out/soong/.intermediates/bionic/libc/libc.llndk/android_arm_armv8-a_vendor_shared/gen/include/stdio.h"
  },
  {
   "alignment" : 4,
   "linker_set_key" : "__sFILE *",
   "name" : "__sFILE *",
   "referenced_type" : "type-473",
   "self_type" : "type-472",
   "size" : 4,
   "source_file" : "/out/soong/.intermediates/bionic/libc/libc.llndk/android_arm_armv8-a_vendor_shared/gen/include/stdio.h"
  },
  {
   "alignment" : 4,
   "linker_set_key" : "__sFILE *",
   "name" : "__sFILE *",
   "referenced_type" : "type-53",
   "self_type" : "type-52",
   "size" : 4,
   "source_file" : "/out/soong/.intermediates/bionic/libc/libc.llndk/android_arm_armv8-a_vendor_shared/gen/include/stdio.h"
  },
  {
   "alignment" : 4,
   "linker_set_key" : "audio_route *",
   "name" : "audio_route *",
   "referenced_type" : "type-18",
   "self_type" : "type-30",
   "size" : 4,
   "source_file" : "/system/media/audio_route/audio_route.c"
  },
  {
   "alignment" : 4,
   "linker_set_key" : "char *",
   "name" : "char *",
   "referenced_type" : "type-6",
   "self_type" : "type-5",
   "size" : 4,
   "source_file" : "/external/expat/lib/expat.h"
  },
  {
   "alignment" : 4,
   "linker_set_key" : "const char *",
   "name" : "const char *",
   "referenced_type" : "type-92",
   "self_type" : "type-91",
   "size" : 4,
   "source_file" : "/external/expat/lib/expat.h"
  },
  {
   "alignment" : 4,
   "linker_set_key" : "const elf32_phdr *",
   "name" : "const elf32_phdr *",
   "referenced_type" : "type-278",
   "self_type" : "type-277",
   "size" : 4,
   "source_file" : "/out/soong/.intermediates/bionic/libc/libc.llndk/android_arm_armv8-a_vendor_shared/gen/include/link.h"
  },
  {
   "alignment" : 4,
   "linker_set_key" : "const libunwind::EHABISectionIterator<libunwind::LocalAddressSpace> *",
   "name" : "const libunwind::EHABISectionIterator<libunwind::LocalAddressSpace> *",
   "referenced_type" : "type-387",
   "self_type" : "type-389",
   "size" : 4,
   "source_file" : "/external/libunwind_llvm/src/UnwindCursor.hpp"
  },
  {
   "alignment" : 4,
   "linker_set_key" : "const libunwind::Registers_arm *",
   "name" : "const libunwind::Registers_arm *",
   "referenced_type" : "type-215",
   "self_type" : "type-216",
   "size" : 4,
   "source_file" : "/external/libunwind_llvm/src/Registers.hpp"
  },
  {
   "alignment" : 4,
   "linker_set_key" : "const libunwind::Registers_arm64 *",
   "name" : "const libunwind::Registers_arm64 *",
   "referenced_type" : "type-212",
   "self_type" : "type-213",
   "size" : 4,
   "source_file" : "/external/libunwind_llvm/src/Registers.hpp"
  },
  {
   "alignment" : 4,
   "linker_set_key" : "const libunwind::Registers_mips_newabi *",
   "name" : "const libunwind::Registers_mips_newabi *",
   "referenced_type" : "type-231",
   "self_type" : "type-232",
   "size" : 4,
   "source_file" : "/external/libunwind_llvm/src/Registers.hpp"
  },
  {
   "alignment" : 4,
   "linker_set_key" : "const libunwind::Registers_mips_o32 *",
   "name" : "const libunwind::Registers_mips_o32 *",
   "referenced_type" : "type-225",
   "self_type" : "type-226",
   "size" : 4,
   "source_file" : "/external/libunwind_llvm/src/Registers.hpp"
  },
  {
   "alignment" : 4,
   "linker_set_key" : "const libunwind::Registers_or1k *",
   "name" : "const libunwind::Registers_or1k *",
   "referenced_type" : "type-220",
   "self_type" : "type-221",
   "size" : 4,
   "source_file" : "/external/libunwind_llvm/src/Registers.hpp"
  },
  {
   "alignment" : 4,
   "linker_set_key" : "const libunwind::Registers_ppc *",
   "name" : "const libunwind::Registers_ppc *",
   "referenced_type" : "type-197",
   "self_type" : "type-198",
   "size" : 4,
   "source_file" : "/external/libunwind_llvm/src/Registers.hpp"
  },
  {
   "alignment" : 4,
   "linker_set_key" : "const libunwind::Registers_ppc64 *",
   "name" : "const libunwind::Registers_ppc64 *",
   "referenced_type" : "type-206",
   "self_type" : "type-207",
   "size" : 4,
   "source_file" : "/external/libunwind_llvm/src/Registers.hpp"
  },
  {
   "alignment" : 4,
   "linker_set_key" : "const libunwind::Registers_sparc *",
   "name" : "const libunwind::Registers_sparc *",
   "referenced_type" : "type-234",
   "self_type" : "type-235",
   "size" : 4,
   "source_file" : "/external/libunwind_llvm/src/Registers.hpp"
  },
  {
   "alignment" : 4,
   "linker_set_key" : "const libunwind::Registers_x86 *",
   "name" : "const libunwind::Registers_x86 *",
   "referenced_type" : "type-183",
   "self_type" : "type-184",
   "size" : 4,
   "source_file" : "/external/libunwind_llvm/src/Registers.hpp"
  },
  {
   "alignment" : 4,
   "linker_set_key" : "const libunwind::Registers_x86_64 *",
   "name" : "const libunwind::Registers_x86_64 *",
   "referenced_type" : "type-189",
   "self_type" : "type-190",
   "size" : 4,
   "source_file" : "/external/libunwind_llvm/src/Registers.hpp"
  },
  {
   "alignment" : 4,
   "linker_set_key" : "const libunwind::UnwindInfoSections *",
   "name" : "const libunwind::UnwindInfoSections *",
   "referenced_type" : "type-378",
   "self_type" : "type-384",
   "size" : 4,
   "source_file" : "/external/libunwind_llvm/src/UnwindCursor.hpp"
  },
  {
   "alignment" : 4,
   "linker_set_key" : "const unsigned int *",
   "name" : "const unsigned int *",
   "referenced_type" : "type-394",
   "self_type" : "type-436",
   "size" : 4,
   "source_file" : "/external/libunwind_llvm/src/libunwind_ext.h"
  },
  {
   "alignment" : 4,
   "linker_set_key" : "const void *",
   "name" : "const void *",
   "referenced_type" : "type-58",
   "self_type" : "type-57",
   "size" : 4,
   "source_file" : "/out/soong/.intermediates/bionic/libc/libc.llndk/android_arm_armv8-a_vendor_shared/gen/include/malloc.h"
  },
  {
   "alignment" : 4,
   "linker_set_key" : "dwarf_eh_bases *",
   "name" : "dwarf_eh_bases *",
   "referenced_type" : "type-171",
   "self_type" : "type-469",
   "size" : 4,
   "source_file" : "/external/libunwind_llvm/include/unwind.h"
  },
  {
   "alignment" : 4,
   "linker_set_key" : "dynamic *",
   "name" : "dynamic *",
   "referenced_type" : "type-236",
   "self_type" : "type-280",
   "size" : 4,
   "source_file" : "/out/soong/.intermediates/bionic/libc/libc.llndk/android_arm_armv8-a_vendor_shared/gen/include/link.h"
  },
  {
   "alignment" : 4,
   "linker_set_key" : "int (*)(void *, const char *)",
   "name" : "int (*)(void *, const char *)",
   "referenced_type" : "type-90",
   "self_type" : "type-89",
   "size" : 4,
   "source_file" : "/external/expat/lib/expat.h"
  },
  {
   "alignment" : 4,
   "linker_set_key" : "int *",
   "name" : "int *",
   "referenced_type" : "type-4",
   "self_type" : "type-11",
   "size" : 4,
   "source_file" : "/system/media/audio_route/audio_route.c"
  },
  {
   "alignment" : 4,
   "linker_set_key" : "libunwind::AbstractUnwindCursor *",
   "name" : "libunwind::AbstractUnwindCursor *",
   "referenced_type" : "type-149",
   "self_type" : "type-376",
   "size" : 4,
   "source_file" : "/external/libunwind_llvm/src/UnwindCursor.hpp"
  },
  {
   "alignment" : 4,
   "linker_set_key" : "libunwind::EHABISectionIterator<libunwind::LocalAddressSpace> *",
   "name" : "libunwind::EHABISectionIterator<libunwind::LocalAddressSpace> *",
   "referenced_type" : "type-383",
   "self_type" : "type-385",
   "size" : 4,
   "source_file" : "/external/libunwind_llvm/src/UnwindCursor.hpp"
  },
  {
   "alignment" : 4,
   "linker_set_key" : "libunwind::LocalAddressSpace *",
   "name" : "libunwind::LocalAddressSpace *",
   "referenced_type" : "type-141",
   "self_type" : "type-286",
   "size" : 4,
   "source_file" : "/external/libunwind_llvm/src/AddressSpace.hpp"
  },
  {
   "alignment" : 4,
   "linker_set_key" : "libunwind::RWMutex *",
   "name" : "libunwind::RWMutex *",
   "referenced_type" : "type-372",
   "self_type" : "type-375",
   "size" : 4,
   "source_file" : "/external/libunwind_llvm/src/RWMutex.hpp"
  },
  {
   "alignment" : 4,
   "linker_set_key" : "libunwind::Registers_arm *",
   "name" : "libunwind::Registers_arm *",
   "referenced_type" : "type-142",
   "self_type" : "type-214",
   "size" : 4,
   "source_file" : "/external/libunwind_llvm/src/Registers.hpp"
  },
  {
   "alignment" : 4,
   "linker_set_key" : "libunwind::Registers_arm64 *",
   "name" : "libunwind::Registers_arm64 *",
   "referenced_type" : "type-211",
   "self_type" : "type-210",
   "size" : 4,
   "source_file" : "/external/libunwind_llvm/src/Registers.hpp"
  },
  {
   "alignment" : 4,
   "linker_set_key" : "libunwind::Registers_mips_newabi *",
   "name" : "libunwind::Registers_mips_newabi *",
   "referenced_type" : "type-230",
   "self_type" : "type-229",
   "size" : 4,
   "source_file" : "/external/libunwind_llvm/src/Registers.hpp"
  },
  {
   "alignment" : 4,
   "linker_set_key" : "libunwind::Registers_mips_o32 *",
   "name" : "libunwind::Registers_mips_o32 *",
   "referenced_type" : "type-224",
   "self_type" : "type-223",
   "size" : 4,
   "source_file" : "/external/libunwind_llvm/src/Registers.hpp"
  },
  {
   "alignment" : 4,
   "linker_set_key" : "libunwind::Registers_or1k *",
   "name" : "libunwind::Registers_or1k *",
   "referenced_type" : "type-219",
   "self_type" : "type-218",
   "size" : 4,
   "source_file" : "/external/libunwind_llvm/src/Registers.hpp"
  },
  {
   "alignment" : 4,
   "linker_set_key" : "libunwind::Registers_ppc *",
   "name" : "libunwind::Registers_ppc *",
   "referenced_type" : "type-196",
   "self_type" : "type-195",
   "size" : 4,
   "source_file" : "/external/libunwind_llvm/src/Registers.hpp"
  },
  {
   "alignment" : 4,
   "linker_set_key" : "libunwind::Registers_ppc64 *",
   "name" : "libunwind::Registers_ppc64 *",
   "referenced_type" : "type-204",
   "self_type" : "type-203",
   "size" : 4,
   "source_file" : "/external/libunwind_llvm/src/Registers.hpp"
  },
  {
   "alignment" : 4,
   "linker_set_key" : "libunwind::Registers_sparc *",
   "name" : "libunwind::Registers_sparc *",
   "referenced_type" : "type-131",
   "self_type" : "type-233",
   "size" : 4,
   "source_file" : "/external/libunwind_llvm/src/Registers.hpp"
  },
  {
   "alignment" : 4,
   "linker_set_key" : "libunwind::Registers_x86 *",
   "name" : "libunwind::Registers_x86 *",
   "referenced_type" : "type-182",
   "self_type" : "type-181",
   "size" : 4,
   "source_file" : "/external/libunwind_llvm/src/Registers.hpp"
  },
  {
   "alignment" : 4,
   "linker_set_key" : "libunwind::Registers_x86_64 *",
   "name" : "libunwind::Registers_x86_64 *",
   "referenced_type" : "type-188",
   "self_type" : "type-187",
   "size" : 4,
   "source_file" : "/external/libunwind_llvm/src/Registers.hpp"
  },
  {
   "alignment" : 4,
   "linker_set_key" : "libunwind::UnwindCursor<libunwind::LocalAddressSpace, libunwind::Registers_arm> *",
   "name" : "libunwind::UnwindCursor<libunwind::LocalAddressSpace, libunwind::Registers_arm> *",
   "referenced_type" : "type-139",
   "self_type" : "type-377",
   "size" : 4,
   "source_file" : "/external/libunwind_llvm/src/UnwindCursor.hpp"
  },
  {
   "alignment" : 4,
   "linker_set_key" : "libunwind::UnwindInfoSections *",
   "name" : "libunwind::UnwindInfoSections *",
   "referenced_type" : "type-285",
   "self_type" : "type-290",
   "size" : 4,
   "source_file" : "/external/libunwind_llvm/src/AddressSpace.hpp"
  },
  {
   "alignment" : 4,
   "linker_set_key" : "link_map *",
   "name" : "link_map *",
   "referenced_type" : "type-279",
   "self_type" : "type-281",
   "size" : 4,
   "source_file" : "/out/soong/.intermediates/bionic/libc/libc.llndk/android_arm_armv8-a_vendor_shared/gen/include/link.h"
  },
  {
   "alignment" : 4,
   "linker_set_key" : "long *",
   "name" : "long *",
   "referenced_type" : "type-13",
   "self_type" : "type-12",
   "size" : 4,
   "source_file" : "/system/media/audio_route/audio_route.c"
  },
  {
   "alignment" : 4,
   "linker_set_key" : "mixer *",
   "name" : "mixer *",
   "referenced_type" : "type-20",
   "self_type" : "type-19",
   "size" : 4,
   "source_file" : "/system/media/audio_route/audio_route.c"
  },
  {
   "alignment" : 4,
   "linker_set_key" : "mixer_ctl *",
   "name" : "mixer_ctl *",
   "referenced_type" : "type-24",
   "self_type" : "type-23",
   "size" : 4,
   "source_file" : "/system/media/audio_route/audio_route.c"
  },
  {
   "alignment" : 4,
   "linker_set_key" : "mixer_path *",
   "name" : "mixer_path *",
   "referenced_type" : "type-26",
   "self_type" : "type-25",
   "size" : 4,
   "source_file" : "/system/media/audio_route/audio_route.c"
  },
  {
   "alignment" : 4,
   "linker_set_key" : "mixer_setting *",
   "name" : "mixer_setting *",
   "referenced_type" : "type-8",
   "self_type" : "type-7",
   "size" : 4,
   "source_file" : "/system/media/audio_route/audio_route.c"
  },
  {
   "alignment" : 4,
   "linker_set_key" : "mixer_state *",
   "name" : "mixer_state *",
   "referenced_type" : "type-22",
   "self_type" : "type-21",
   "size" : 4,
   "source_file" : "/system/media/audio_route/audio_route.c"
  },
  {
   "alignment" : 4,
   "linker_set_key" : "siginfo *",
   "name" : "siginfo *",
   "referenced_type" : "type-319",
   "self_type" : "type-318",
   "size" : 4,
   "source_file" : "/bionic/libc/kernel/uapi/asm-arm/asm/signal.h"
  },
  {
   "alignment" : 4,
   "linker_set_key" : "siginfo *",
   "name" : "siginfo *",
   "referenced_type" : "type-34",
   "self_type" : "type-33",
   "size" : 4,
   "source_file" : "/bionic/libc/kernel/uapi/asm-arm/asm/signal.h"
  },
  {
   "alignment" : 4,
   "linker_set_key" : "ucontext *",
   "name" : "ucontext *",
   "referenced_type" : "type-361",
   "self_type" : "type-362",
   "size" : 4,
   "source_file" : "/out/soong/.intermediates/bionic/libc/libc.llndk/android_arm_armv8-a_vendor_shared/gen/include/sys/ucontext.h"
  },
  {
   "alignment" : 4,
   "linker_set_key" : "ucontext *",
   "name" : "ucontext *",
   "referenced_type" : "type-485",
   "self_type" : "type-486",
   "size" : 4,
   "source_file" : "/out/soong/.intermediates/bionic/libc/libc.llndk/android_arm_armv8-a_vendor_shared/gen/include/sys/ucontext.h"
  },
  {
   "alignment" : 4,
   "linker_set_key" : "unsigned char *",
   "name" : "unsigned char *",
   "referenced_type" : "type-17",
   "self_type" : "type-16",
   "size" : 4,
   "source_file" : "/system/media/audio_route/audio_route.c"
  },
  {
   "alignment" : 4,
   "linker_set_key" : "unsigned int *",
   "name" : "unsigned int *",
   "referenced_type" : "type-9",
   "self_type" : "type-166",
   "size" : 4,
   "source_file" : "/external/libunwind_llvm/include/libunwind.h"
  },
  {
   "alignment" : 4,
   "linker_set_key" : "unsigned long long *",
   "name" : "unsigned long long *",
   "referenced_type" : "type-107",
   "self_type" : "type-205",
   "size" : 4,
   "source_file" : "/external/libunwind_llvm/include/libunwind.h"
  },
  {
   "alignment" : 4,
   "linker_set_key" : "unw_addr_space *",
   "name" : "unw_addr_space *",
   "referenced_type" : "type-283",
   "self_type" : "type-282",
   "size" : 4,
   "source_file" : "/external/libunwind_llvm/include/libunwind.h"
  },
  {
   "alignment" : 4,
   "linker_set_key" : "unw_addr_space *",
   "name" : "unw_addr_space *",
   "referenced_type" : "type-435",
   "self_type" : "type-434",
   "size" : 4,
   "source_file" : "/external/libunwind_llvm/include/libunwind.h"
  },
  {
   "alignment" : 4,
   "linker_set_key" : "unw_addr_space *",
   "name" : "unw_addr_space *",
   "referenced_type" : "type-462",
   "self_type" : "type-461",
   "size" : 4,
   "source_file" : "/external/libunwind_llvm/include/libunwind.h"
  },
  {
   "alignment" : 4,
   "linker_set_key" : "unw_addr_space *",
   "name" : "unw_addr_space *",
   "referenced_type" : "type-476",
   "self_type" : "type-475",
   "size" : 4,
   "source_file" : "/external/libunwind_llvm/include/libunwind.h"
  },
  {
   "alignment" : 4,
   "linker_set_key" : "unw_context_t *",
   "name" : "unw_context_t *",
   "referenced_type" : "type-136",
   "self_type" : "type-179",
   "size" : 4,
   "source_file" : "/external/libunwind_llvm/include/libunwind.h"
  },
  {
   "alignment" : 4,
   "linker_set_key" : "unw_cursor_t *",
   "name" : "unw_cursor_t *",
   "referenced_type" : "type-150",
   "self_type" : "type-168",
   "size" : 4,
   "source_file" : "/external/libunwind_llvm/include/libunwind.h"
  },
  {
   "alignment" : 4,
   "linker_set_key" : "unw_proc_info_t *",
   "name" : "unw_proc_info_t *",
   "referenced_type" : "type-148",
   "self_type" : "type-251",
   "size" : 4,
   "source_file" : "/external/libunwind_llvm/include/libunwind.h"
  },
  {
   "alignment" : 4,
   "linker_set_key" : "user_fpregs *",
   "name" : "user_fpregs *",
   "referenced_type" : "type-448",
   "self_type" : "type-483",
   "size" : 4,
   "source_file" : "/out/soong/.intermediates/bionic/libc/libc.llndk/android_arm_armv8-a_vendor_shared/gen/include/sys/user.h"
  },
  {
   "alignment" : 4,
   "linker_set_key" : "user_regs *",
   "name" : "user_regs *",
   "referenced_type" : "type-463",
   "self_type" : "type-481",
   "size" : 4,
   "source_file" : "/out/soong/.intermediates/bionic/libc/libc.llndk/android_arm_armv8-a_vendor_shared/gen/include/sys/user.h"
  },
  {
   "alignment" : 4,
   "linker_set_key" : "void (*)()",
   "name" : "void (*)()",
   "referenced_type" : "type-335",
   "self_type" : "type-334",
   "size" : 4,
   "source_file" : "/bionic/libc/kernel/uapi/asm-arm/asm/signal.h"
  },
  {
   "alignment" : 4,
   "linker_set_key" : "void (*)(_Unwind_Reason_Code, _Unwind_Control_Block *)",
   "name" : "void (*)(_Unwind_Reason_Code, _Unwind_Control_Block *)",
   "referenced_type" : "type-158",
   "self_type" : "type-157",
   "size" : 4,
   "source_file" : "/external/libunwind_llvm/include/unwind.h"
  },
  {
   "alignment" : 4,
   "linker_set_key" : "void (*)(_Unwind_Reason_Code, _Unwind_Control_Block *)",
   "name" : "void (*)(_Unwind_Reason_Code, _Unwind_Control_Block *)",
   "referenced_type" : "type-443",
   "self_type" : "type-442",
   "size" : 4,
   "source_file" : "/external/libunwind_llvm/include/unwind.h"
  },
  {
   "alignment" : 4,
   "linker_set_key" : "void (*)(int)",
   "name" : "void (*)(int)",
   "referenced_type" : "type-315",
   "self_type" : "type-314",
   "size" : 4,
   "source_file" : "/bionic/libc/kernel/uapi/asm-arm/asm/signal.h"
  },
  {
   "alignment" : 4,
   "linker_set_key" : "void (*)(int, siginfo *, void *)",
   "name" : "void (*)(int, siginfo *, void *)",
   "referenced_type" : "type-317",
   "self_type" : "type-316",
   "size" : 4,
   "source_file" : "/bionic/libc/kernel/uapi/asm-arm/asm/signal.h"
  },
  {
   "alignment" : 4,
   "linker_set_key" : "void (*)(int, siginfo *, void *)",
   "name" : "void (*)(int, siginfo *, void *)",
   "referenced_type" : "type-32",
   "self_type" : "type-31",
   "size" : 4,
   "source_file" : "/bionic/libc/kernel/uapi/asm-arm/asm/signal.h"
  },
  {
   "alignment" : 4,
   "linker_set_key" : "void (*)(sigval)",
   "name" : "void (*)(sigval)",
   "referenced_type" : "type-346",
   "self_type" : "type-345",
   "size" : 4,
   "source_file" : "/bionic/libc/kernel/uapi/asm-generic/siginfo.h"
  },
  {
   "alignment" : 4,
   "linker_set_key" : "void (*)(sigval)",
   "name" : "void (*)(sigval)",
   "referenced_type" : "type-351",
   "self_type" : "type-350",
   "size" : 4,
   "source_file" : "/bionic/libc/kernel/uapi/asm-generic/siginfo.h"
  },
  {
   "alignment" : 4,
   "linker_set_key" : "void (*)(void *)",
   "name" : "void (*)(void *)",
   "referenced_type" : "type-86",
   "self_type" : "type-85",
   "size" : 4,
   "source_file" : "/external/expat/lib/expat.h"
  },
  {
   "alignment" : 4,
   "linker_set_key" : "void (*)(void *, const void *)",
   "name" : "void (*)(void *, const void *)",
   "referenced_type" : "type-64",
   "self_type" : "type-63",
   "size" : 4,
   "source_file" : "/out/soong/.intermediates/bionic/libc/libc.llndk/android_arm_armv8-a_vendor_shared/gen/include/malloc.h"
  },
  {
   "alignment" : 4,
   "linker_set_key" : "void (*)(void)",
   "name" : "void (*)(void)",
   "referenced_type" : "type-295",
   "self_type" : "type-294",
   "size" : 4,
   "source_file" : "/bionic/libc/kernel/uapi/asm-arm/asm/signal.h"
  },
  {
   "alignment" : 4,
   "linker_set_key" : "void *",
   "name" : "void *",
   "referenced_type" : "type-15",
   "self_type" : "type-14",
   "size" : 4,
   "source_file" : "/out/soong/.intermediates/bionic/libc/libc.llndk/android_arm_armv8-a_vendor_shared/gen/include/bits/pthread_types.h"
  },
  {
   "alignment" : 4,
   "linker_set_key" : "void *(*)(unsigned int)",
   "name" : "void *(*)(unsigned int)",
   "referenced_type" : "type-82",
   "self_type" : "type-81",
   "size" : 4,
   "source_file" : "/external/expat/lib/expat.h"
  },
  {
   "alignment" : 4,
   "linker_set_key" : "void *(*)(unsigned int, const void *)",
   "name" : "void *(*)(unsigned int, const void *)",
   "referenced_type" : "type-56",
   "self_type" : "type-55",
   "size" : 4,
   "source_file" : "/out/soong/.intermediates/bionic/libc/libc.llndk/android_arm_armv8-a_vendor_shared/gen/include/malloc.h"
  },
  {
   "alignment" : 4,
   "linker_set_key" : "void *(*)(unsigned int, unsigned int, const void *)",
   "name" : "void *(*)(unsigned int, unsigned int, const void *)",
   "referenced_type" : "type-67",
   "self_type" : "type-66",
   "size" : 4,
   "source_file" : "/out/soong/.intermediates/bionic/libc/libc.llndk/android_arm_armv8-a_vendor_shared/gen/include/malloc.h"
  },
  {
   "alignment" : 4,
   "linker_set_key" : "void *(*)(void *, unsigned int)",
   "name" : "void *(*)(void *, unsigned int)",
   "referenced_type" : "type-84",
   "self_type" : "type-83",
   "size" : 4,
   "source_file" : "/external/expat/lib/expat.h"
  },
  {
   "alignment" : 4,
   "linker_set_key" : "void *(*)(void *, unsigned int, const void *)",
   "name" : "void *(*)(void *, unsigned int, const void *)",
   "referenced_type" : "type-61",
   "self_type" : "type-60",
   "size" : 4,
   "source_file" : "/out/soong/.intermediates/bionic/libc/libc.llndk/android_arm_armv8-a_vendor_shared/gen/include/malloc.h"
  }
 ],
 "qualified_types" :
 [
  {
   "alignment" : 4,
   "is_const" : true,
   "linker_set_key" : "char *const",
   "name" : "char *const",
   "referenced_type" : "type-5",
   "self_type" : "type-175",
   "size" : 4,
   "source_file" : "/out/soong/.intermediates/bionic/libc/libc.llndk/android_arm_armv8-a_vendor_shared/gen/include/string.h"
  },
  {
   "alignment" : 1,
   "is_const" : true,
   "linker_set_key" : "const bool",
   "name" : "const bool",
   "referenced_type" : "type-145",
   "self_type" : "type-396",
   "size" : 1,
   "source_file" : "/external/libunwind_llvm/src/config.h"
  },
  {
   "alignment" : 1,
   "is_const" : true,
   "linker_set_key" : "const char",
   "name" : "const char",
   "referenced_type" : "type-6",
   "self_type" : "type-92",
   "size" : 1,
   "source_file" : "/external/expat/lib/expat.h"
  },
  {
   "alignment" : 4,
   "is_const" : true,
   "linker_set_key" : "const char *const",
   "name" : "const char *const",
   "referenced_type" : "type-91",
   "self_type" : "type-174",
   "size" : 4,
   "source_file" : "/out/soong/.intermediates/bionic/libc/libc.llndk/android_arm_armv8-a_vendor_shared/gen/include/string.h"
  },
  {
   "alignment" : 4,
   "is_const" : true,
   "linker_set_key" : "const char *const[65]",
   "name" : "const char *const[65]",
   "referenced_type" : "type-489",
   "self_type" : "type-490",
   "size" : 260,
   "source_file" : "/out/soong/.intermediates/bionic/libc/libc.llndk/android_arm_armv8-a_vendor_shared/gen/include/signal.h"
  },
  {
   "alignment" : 4,
   "is_const" : true,
   "linker_set_key" : "const elf32_phdr",
   "name" : "const elf32_phdr",
   "referenced_type" : "type-249",
   "self_type" : "type-278",
   "size" : 32,
   "source_file" : "/out/soong/.intermediates/bionic/libc/libc.llndk/android_arm_armv8-a_vendor_shared/gen/include/link.h"
  },
  {
   "alignment" : 4,
   "is_const" : true,
   "linker_set_key" : "const libunwind::EHABISectionIterator<libunwind::LocalAddressSpace>",
   "name" : "const libunwind::EHABISectionIterator<libunwind::LocalAddressSpace>",
   "referenced_type" : "type-383",
   "self_type" : "type-387",
   "size" : 12,
   "source_file" : "/external/libunwind_llvm/src/UnwindCursor.hpp"
  },
  {
   "alignment" : 8,
   "is_const" : true,
   "linker_set_key" : "const libunwind::Registers_arm",
   "name" : "const libunwind::Registers_arm",
   "referenced_type" : "type-142",
   "self_type" : "type-215",
   "size" : 336,
   "source_file" : "/external/libunwind_llvm/src/Registers.hpp"
  },
  {
   "alignment" : 8,
   "is_const" : true,
   "linker_set_key" : "const libunwind::Registers_arm64",
   "name" : "const libunwind::Registers_arm64",
   "referenced_type" : "type-211",
   "self_type" : "type-212",
   "size" : 528,
   "source_file" : "/external/libunwind_llvm/src/Registers.hpp"
  },
  {
   "alignment" : 8,
   "is_const" : true,
   "linker_set_key" : "const libunwind::Registers_mips_newabi",
   "name" : "const libunwind::Registers_mips_newabi",
   "referenced_type" : "type-230",
   "self_type" : "type-231",
   "size" : 280,
   "source_file" : "/external/libunwind_llvm/src/Registers.hpp"
  },
  {
   "alignment" : 4,
   "is_const" : true,
   "linker_set_key" : "const libunwind::Registers_mips_o32",
   "name" : "const libunwind::Registers_mips_o32",
   "referenced_type" : "type-224",
   "self_type" : "type-225",
   "size" : 140,
   "source_file" : "/external/libunwind_llvm/src/Registers.hpp"
  },
  {
   "alignment" : 4,
   "is_const" : true,
   "linker_set_key" : "const libunwind::Registers_or1k",
   "name" : "const libunwind::Registers_or1k",
   "referenced_type" : "type-219",
   "self_type" : "type-220",
   "size" : 136,
   "source_file" : "/external/libunwind_llvm/src/Registers.hpp"
  },
  {
   "alignment" : 8,
   "is_const" : true,
   "linker_set_key" : "const libunwind::Registers_ppc",
   "name" : "const libunwind::Registers_ppc",
   "referenced_type" : "type-196",
   "self_type" : "type-197",
   "size" : 936,
   "source_file" : "/external/libunwind_llvm/src/Registers.hpp"
  },
  {
   "alignment" : 8,
   "is_const" : true,
   "linker_set_key" : "const libunwind::Registers_ppc64",
   "name" : "const libunwind::Registers_ppc64",
   "referenced_type" : "type-204",
   "self_type" : "type-206",
   "size" : 1336,
   "source_file" : "/external/libunwind_llvm/src/Registers.hpp"
  },
  {
   "alignment" : 4,
   "is_const" : true,
   "linker_set_key" : "const libunwind::Registers_sparc",
   "name" : "const libunwind::Registers_sparc",
   "referenced_type" : "type-131",
   "self_type" : "type-234",
   "size" : 128,
   "source_file" : "/external/libunwind_llvm/src/Registers.hpp"
  },
  {
   "alignment" : 4,
   "is_const" : true,
   "linker_set_key" : "const libunwind::Registers_x86",
   "name" : "const libunwind::Registers_x86",
   "referenced_type" : "type-182",
   "self_type" : "type-183",
   "size" : 64,
   "source_file" : "/external/libunwind_llvm/src/Registers.hpp"
  },
  {
   "alignment" : 8,
   "is_const" : true,
   "linker_set_key" : "const libunwind::Registers_x86_64",
   "name" : "const libunwind::Registers_x86_64",
   "referenced_type" : "type-188",
   "self_type" : "type-189",
   "size" : 168,
   "source_file" : "/external/libunwind_llvm/src/Registers.hpp"
  },
  {
   "alignment" : 4,
   "is_const" : true,
   "linker_set_key" : "const libunwind::UnwindInfoSections",
   "name" : "const libunwind::UnwindInfoSections",
   "referenced_type" : "type-285",
   "self_type" : "type-378",
   "size" : 8,
   "source_file" : "/external/libunwind_llvm/src/UnwindCursor.hpp"
  },
  {
   "alignment" : 4,
   "is_const" : true,
   "linker_set_key" : "const unsigned int",
   "name" : "const unsigned int",
   "referenced_type" : "type-9",
   "self_type" : "type-394",
   "size" : 4,
   "source_file" : "/external/libunwind_llvm/src/config.h"
  },
  {
   "is_const" : true,
   "linker_set_key" : "const void",
   "name" : "const void",
   "referenced_type" : "type-15",
   "self_type" : "type-58",
   "source_file" : "/out/soong/.intermediates/bionic/libc/libc.llndk/android_arm_armv8-a_vendor_shared/gen/include/malloc.h"
  },
  {
   "alignment" : 4,
   "is_const" : true,
   "linker_set_key" : "const void *const",
   "name" : "const void *const",
   "referenced_type" : "type-57",
   "self_type" : "type-172",
   "size" : 4,
   "source_file" : "/out/soong/.intermediates/bionic/libc/libc.llndk/android_arm_armv8-a_vendor_shared/gen/include/string.h"
  },
  {
   "alignment" : 4,
   "is_volatile" : true,
   "linker_set_key" : "void (*volatile)(void *, const void *)",
   "name" : "void (*volatile)(void *, const void *)",
   "referenced_type" : "type-63",
   "self_type" : "type-65",
   "size" : 4,
   "source_file" : "/out/soong/.intermediates/bionic/libc/libc.llndk/android_arm_armv8-a_vendor_shared/gen/include/malloc.h"
  },
  {
   "alignment" : 4,
   "is_volatile" : true,
   "linker_set_key" : "void *(*volatile)(unsigned int, const void *)",
   "name" : "void *(*volatile)(unsigned int, const void *)",
   "referenced_type" : "type-55",
   "self_type" : "type-59",
   "size" : 4,
   "source_file" : "/out/soong/.intermediates/bionic/libc/libc.llndk/android_arm_armv8-a_vendor_shared/gen/include/malloc.h"
  },
  {
   "alignment" : 4,
   "is_volatile" : true,
   "linker_set_key" : "void *(*volatile)(unsigned int, unsigned int, const void *)",
   "name" : "void *(*volatile)(unsigned int, unsigned int, const void *)",
   "referenced_type" : "type-66",
   "self_type" : "type-68",
   "size" : 4,
   "source_file" : "/out/soong/.intermediates/bionic/libc/libc.llndk/android_arm_armv8-a_vendor_shared/gen/include/malloc.h"
  },
  {
   "alignment" : 4,
   "is_volatile" : true,
   "linker_set_key" : "void *(*volatile)(void *, unsigned int, const void *)",
   "name" : "void *(*volatile)(void *, unsigned int, const void *)",
   "referenced_type" : "type-60",
   "self_type" : "type-62",
   "size" : 4,
   "source_file" : "/out/soong/.intermediates/bionic/libc/libc.llndk/android_arm_armv8-a_vendor_shared/gen/include/malloc.h"
  },
  {
   "alignment" : 4,
   "is_const" : true,
   "linker_set_key" : "void *const",
   "name" : "void *const",
   "referenced_type" : "type-14",
   "self_type" : "type-173",
   "size" : 4,
   "source_file" : "/out/soong/.intermediates/bionic/libc/libc.llndk/android_arm_armv8-a_vendor_shared/gen/include/string.h"
  }
 ],
 "record_types" :
 [
  {
   "alignment" : 4,
   "fields" :
   [
    {
     "field_name" : "dli_fname",
     "referenced_type" : "type-91"
    },
    {
     "field_name" : "dli_fbase",
     "field_offset" : 32,
     "referenced_type" : "type-14"
    },
    {
     "field_name" : "dli_sname",
     "field_offset" : 64,
     "referenced_type" : "type-91"
    },
    {
     "field_name" : "dli_saddr",
     "field_offset" : 96,
     "referenced_type" : "type-14"
    }
   ],
   "linker_set_key" : "Dl_info",
   "name" : "Dl_info",
   "referenced_type" : "type-176",
   "self_type" : "type-176",
   "size" : 16,
   "source_file" : "/out/soong/.intermediates/bionic/libc/libc.llndk/android_arm_armv8-a_vendor_shared/gen/include/dlfcn.h",
   "unique_id" : "Dl_info"
  },
  {
   "alignment" : 4,
   "fields" :
   [
    {
     "field_name" : "ch_type",
     "referenced_type" : "type-9"
    },
    {
     "field_name" : "ch_size",
     "field_offset" : 32,
     "referenced_type" : "type-9"
    },
    {
     "field_name" : "ch_addralign",
     "field_offset" : 64,
     "referenced_type" : "type-9"
    }
   ],
   "linker_set_key" : "Elf32_Chdr",
   "name" : "Elf32_Chdr",
   "referenced_type" : "type-260",
   "self_type" : "type-260",
   "size" : 12,
   "source_file" : "/out/soong/.intermediates/bionic/libc/libc.llndk/android_arm_armv8-a_vendor_shared/gen/include/elf.h",
   "unique_id" : "_ZTS10Elf32_Chdr"
  },
  {
   "alignment" : 4,
   "fields" :
   [
    {
     "field_name" : "l_name",
     "referenced_type" : "type-9"
    },
    {
     "field_name" : "l_time_stamp",
     "field_offset" : 32,
     "referenced_type" : "type-9"
    },
    {
     "field_name" : "l_checksum",
     "field_offset" : 64,
     "referenced_type" : "type-9"
    },
    {
     "field_name" : "l_version",
     "field_offset" : 96,
     "referenced_type" : "type-9"
    },
    {
     "field_name" : "l_flags",
     "field_offset" : 128,
     "referenced_type" : "type-9"
    }
   ],
   "linker_set_key" : "Elf32_Lib",
   "name" : "Elf32_Lib",
   "referenced_type" : "type-262",
   "self_type" : "type-262",
   "size" : 20,
   "source_file" : "/out/soong/.intermediates/bionic/libc/libc.llndk/android_arm_armv8-a_vendor_shared/gen/include/elf.h",
   "unique_id" : "_ZTS9Elf32_Lib"
  },
  {
   "alignment" : 8,
   "fields" :
   [
    {
     "field_name" : "m_value",
     "referenced_type" : "type-107"
    },
    {
     "field_name" : "m_info",
     "field_offset" : 64,
     "referenced_type" : "type-9"
    },
    {
     "field_name" : "m_poffset",
     "field_offset" : 96,
     "referenced_type" : "type-9"
    },
    {
     "field_name" : "m_repeat",
     "field_offset" : 128,
     "referenced_type" : "type-108"
    },
    {
     "field_name" : "m_stride",
     "field_offset" : 144,
     "referenced_type" : "type-108"
    }
   ],
   "linker_set_key" : "Elf32_Move",
   "name" : "Elf32_Move",
   "referenced_type" : "type-264",
   "self_type" : "type-264",
   "size" : 24,
   "source_file" : "/out/soong/.intermediates/bionic/libc/libc.llndk/android_arm_armv8-a_vendor_shared/gen/include/elf.h",
   "unique_id" : "_ZTS10Elf32_Move"
  },
  {
   "alignment" : 2,
   "fields" :
   [
    {
     "field_name" : "si_boundto",
     "referenced_type" : "type-108"
    },
    {
     "field_name" : "si_flags",
     "field_offset" : 16,
     "referenced_type" : "type-108"
    }
   ],
   "linker_set_key" : "Elf32_Syminfo",
   "name" : "Elf32_Syminfo",
   "referenced_type" : "type-266",
   "self_type" : "type-266",
   "size" : 4,
   "source_file" : "/out/soong/.intermediates/bionic/libc/libc.llndk/android_arm_armv8-a_vendor_shared/gen/include/elf.h",
   "unique_id" : "_ZTS13Elf32_Syminfo"
  },
  {
   "alignment" : 4,
   "fields" :
   [
    {
     "field_name" : "vda_name",
     "referenced_type" : "type-9"
    },
    {
     "field_name" : "vda_next",
     "field_offset" : 32,
     "referenced_type" : "type-9"
    }
   ],
   "linker_set_key" : "Elf32_Verdaux",
   "name" : "Elf32_Verdaux",
   "referenced_type" : "type-269",
   "self_type" : "type-269",
   "size" : 8,
   "source_file" : "/out/soong/.intermediates/bionic/libc/libc.llndk/android_arm_armv8-a_vendor_shared/gen/include/elf.h",
   "unique_id" : "_ZTS13Elf32_Verdaux"
  },
  {
   "alignment" : 4,
   "fields" :
   [
    {
     "field_name" : "vd_version",
     "referenced_type" : "type-108"
    },
    {
     "field_name" : "vd_flags",
     "field_offset" : 16,
     "referenced_type" : "type-108"
    },
    {
     "field_name" : "vd_ndx",
     "field_offset" : 32,
     "referenced_type" : "type-108"
    },
    {
     "field_name" : "vd_cnt",
     "field_offset" : 48,
     "referenced_type" : "type-108"
    },
    {
     "field_name" : "vd_hash",
     "field_offset" : 64,
     "referenced_type" : "type-9"
    },
    {
     "field_name" : "vd_aux",
     "field_offset" : 96,
     "referenced_type" : "type-9"
    },
    {
     "field_name" : "vd_next",
     "field_offset" : 128,
     "referenced_type" : "type-9"
    }
   ],
   "linker_set_key" : "Elf32_Verdef",
   "name" : "Elf32_Verdef",
   "referenced_type" : "type-268",
   "self_type" : "type-268",
   "size" : 20,
   "source_file" : "/out/soong/.intermediates/bionic/libc/libc.llndk/android_arm_armv8-a_vendor_shared/gen/include/elf.h",
   "unique_id" : "_ZTS12Elf32_Verdef"
  },
  {
   "alignment" : 4,
   "fields" :
   [
    {
     "field_name" : "vna_hash",
     "referenced_type" : "type-9"
    },
    {
     "field_name" : "vna_flags",
     "field_offset" : 32,
     "referenced_type" : "type-108"
    },
    {
     "field_name" : "vna_other",
     "field_offset" : 48,
     "referenced_type" : "type-108"
    },
    {
     "field_name" : "vna_name",
     "field_offset" : 64,
     "referenced_type" : "type-9"
    },
    {
     "field_name" : "vna_next",
     "field_offset" : 96,
     "referenced_type" : "type-9"
    }
   ],
   "linker_set_key" : "Elf32_Vernaux",
   "name" : "Elf32_Vernaux",
   "referenced_type" : "type-273",
   "self_type" : "type-273",
   "size" : 16,
   "source_file" : "/out/soong/.intermediates/bionic/libc/libc.llndk/android_arm_armv8-a_vendor_shared/gen/include/elf.h",
   "unique_id" : "_ZTS13Elf32_Vernaux"
  },
  {
   "alignment" : 4,
   "fields" :
   [
    {
     "field_name" : "vn_version",
     "referenced_type" : "type-108"
    },
    {
     "field_name" : "vn_cnt",
     "field_offset" : 16,
     "referenced_type" : "type-108"
    },
    {
     "field_name" : "vn_file",
     "field_offset" : 32,
     "referenced_type" : "type-9"
    },
    {
     "field_name" : "vn_aux",
     "field_offset" : 64,
     "referenced_type" : "type-9"
    },
    {
     "field_name" : "vn_next",
     "field_offset" : 96,
     "referenced_type" : "type-9"
    }
   ],
   "linker_set_key" : "Elf32_Verneed",
   "name" : "Elf32_Verneed",
   "referenced_type" : "type-272",
   "self_type" : "type-272",
   "size" : 16,
   "source_file" : "/out/soong/.intermediates/bionic/libc/libc.llndk/android_arm_armv8-a_vendor_shared/gen/include/elf.h",
   "unique_id" : "_ZTS13Elf32_Verneed"
  },
  {
   "alignment" : 4,
   "fields" :
   [
    {
     "field_name" : "a_type",
     "referenced_type" : "type-9"
    },
    {
     "field_name" : "a_un",
     "field_offset" : 32,
     "referenced_type" : "type-257"
    }
   ],
   "linker_set_key" : "Elf32_auxv_t",
   "name" : "Elf32_auxv_t",
   "referenced_type" : "type-256",
   "self_type" : "type-256",
   "size" : 8,
   "source_file" : "/out/soong/.intermediates/bionic/libc/libc.llndk/android_arm_armv8-a_vendor_shared/gen/include/elf.h",
   "unique_id" : "_ZTS12Elf32_auxv_t"
  },
  {
   "alignment" : 4,
   "fields" :
   [
    {
     "field_name" : "a_val",
     "referenced_type" : "type-9"
    }
   ],
   "is_anonymous" : true,
   "linker_set_key" : "Elf32_auxv_t::(anonymous union at out/soong/.intermediates/bionic/libc/libc.llndk/android_arm_armv8-a_vendor_shared/gen/include/elf.h:49:3) at out/soong/.intermediates/bionic/libc/libc.llndk/android_arm_armv8-a_vendor_shared/gen/include/elf.h:49:3",
   "name" : "Elf32_auxv_t::(anonymous union at out/soong/.intermediates/bionic/libc/libc.llndk/android_arm_armv8-a_vendor_shared/gen/include/elf.h:49:3) at out/soong/.intermediates/bionic/libc/libc.llndk/android_arm_armv8-a_vendor_shared/gen/include/elf.h:49:3",
   "record_kind" : "union",
   "referenced_type" : "type-257",
   "self_type" : "type-257",
   "size" : 4,
   "source_file" : "/out/soong/.intermediates/bionic/libc/libc.llndk/android_arm_armv8-a_vendor_shared/gen/include/elf.h",
   "unique_id" : "_ZTSN12Elf32_auxv_tUt_E"
  },
  {
   "alignment" : 8,
   "fields" :
   [
    {
     "field_name" : "ch_type",
     "referenced_type" : "type-9"
    },
    {
     "field_name" : "ch_reserved",
     "field_offset" : 32,
     "referenced_type" : "type-9"
    },
    {
     "field_name" : "ch_size",
     "field_offset" : 64,
     "referenced_type" : "type-107"
    },
    {
     "field_name" : "ch_addralign",
     "field_offset" : 128,
     "referenced_type" : "type-107"
    }
   ],
   "linker_set_key" : "Elf64_Chdr",
   "name" : "Elf64_Chdr",
   "referenced_type" : "type-261",
   "self_type" : "type-261",
   "size" : 24,
   "source_file" : "/out/soong/.intermediates/bionic/libc/libc.llndk/android_arm_armv8-a_vendor_shared/gen/include/elf.h",
   "unique_id" : "_ZTS10Elf64_Chdr"
  },
  {
   "alignment" : 8,
   "fields" :
   [
    {
     "field_name" : "d_tag",
     "referenced_type" : "type-72"
    },
    {
     "field_name" : "d_un",
     "field_offset" : 64,
     "referenced_type" : "type-239"
    }
   ],
   "linker_set_key" : "Elf64_Dyn",
   "name" : "Elf64_Dyn",
   "referenced_type" : "type-238",
   "self_type" : "type-238",
   "size" : 16,
   "source_file" : "/bionic/libc/kernel/uapi/linux/elf.h",
   "unique_id" : "_ZTS9Elf64_Dyn"
  },
  {
   "alignment" : 8,
   "fields" :
   [
    {
     "field_name" : "d_val",
     "referenced_type" : "type-107"
    },
    {
     "field_name" : "d_ptr",
     "referenced_type" : "type-107"
    }
   ],
   "is_anonymous" : true,
   "linker_set_key" : "Elf64_Dyn::(anonymous union at bionic/libc/kernel/uapi/linux/elf.h:126:3) at bionic/libc/kernel/uapi/linux/elf.h:126:3",
   "name" : "Elf64_Dyn::(anonymous union at bionic/libc/kernel/uapi/linux/elf.h:126:3) at bionic/libc/kernel/uapi/linux/elf.h:126:3",
   "record_kind" : "union",
   "referenced_type" : "type-239",
   "self_type" : "type-239",
   "size" : 8,
   "source_file" : "/bionic/libc/kernel/uapi/linux/elf.h",
   "unique_id" : "_ZTSN9Elf64_DynUt_E"
  },
  {
   "alignment" : 4,
   "fields" :
   [
    {
     "field_name" : "l_name",
     "referenced_type" : "type-9"
    },
    {
     "field_name" : "l_time_stamp",
     "field_offset" : 32,
     "referenced_type" : "type-9"
    },
    {
     "field_name" : "l_checksum",
     "field_offset" : 64,
     "referenced_type" : "type-9"
    },
    {
     "field_name" : "l_version",
     "field_offset" : 96,
     "referenced_type" : "type-9"
    },
    {
     "field_name" : "l_flags",
     "field_offset" : 128,
     "referenced_type" : "type-9"
    }
   ],
   "linker_set_key" : "Elf64_Lib",
   "name" : "Elf64_Lib",
   "referenced_type" : "type-263",
   "self_type" : "type-263",
   "size" : 20,
   "source_file" : "/out/soong/.intermediates/bionic/libc/libc.llndk/android_arm_armv8-a_vendor_shared/gen/include/elf.h",
   "unique_id" : "_ZTS9Elf64_Lib"
  },
  {
   "alignment" : 8,
   "fields" :
   [
    {
     "field_name" : "m_value",
     "referenced_type" : "type-107"
    },
    {
     "field_name" : "m_info",
     "field_offset" : 64,
     "referenced_type" : "type-107"
    },
    {
     "field_name" : "m_poffset",
     "field_offset" : 128,
     "referenced_type" : "type-107"
    },
    {
     "field_name" : "m_repeat",
     "field_offset" : 192,
     "referenced_type" : "type-108"
    },
    {
     "field_name" : "m_stride",
     "field_offset" : 208,
     "referenced_type" : "type-108"
    }
   ],
   "linker_set_key" : "Elf64_Move",
   "name" : "Elf64_Move",
   "referenced_type" : "type-265",
   "self_type" : "type-265",
   "size" : 32,
   "source_file" : "/out/soong/.intermediates/bionic/libc/libc.llndk/android_arm_armv8-a_vendor_shared/gen/include/elf.h",
   "unique_id" : "_ZTS10Elf64_Move"
  },
  {
   "alignment" : 2,
   "fields" :
   [
    {
     "field_name" : "si_boundto",
     "referenced_type" : "type-108"
    },
    {
     "field_name" : "si_flags",
     "field_offset" : 16,
     "referenced_type" : "type-108"
    }
   ],
   "linker_set_key" : "Elf64_Syminfo",
   "name" : "Elf64_Syminfo",
   "referenced_type" : "type-267",
   "self_type" : "type-267",
   "size" : 4,
   "source_file" : "/out/soong/.intermediates/bionic/libc/libc.llndk/android_arm_armv8-a_vendor_shared/gen/include/elf.h",
   "unique_id" : "_ZTS13Elf64_Syminfo"
  },
  {
   "alignment" : 4,
   "fields" :
   [
    {
     "field_name" : "vda_name",
     "referenced_type" : "type-9"
    },
    {
     "field_name" : "vda_next",
     "field_offset" : 32,
     "referenced_type" : "type-9"
    }
   ],
   "linker_set_key" : "Elf64_Verdaux",
   "name" : "Elf64_Verdaux",
   "referenced_type" : "type-271",
   "self_type" : "type-271",
   "size" : 8,
   "source_file" : "/out/soong/.intermediates/bionic/libc/libc.llndk/android_arm_armv8-a_vendor_shared/gen/include/elf.h",
   "unique_id" : "_ZTS13Elf64_Verdaux"
  },
  {
   "alignment" : 4,
   "fields" :
   [
    {
     "field_name" : "vd_version",
     "referenced_type" : "type-108"
    },
    {
     "field_name" : "vd_flags",
     "field_offset" : 16,
     "referenced_type" : "type-108"
    },
    {
     "field_name" : "vd_ndx",
     "field_offset" : 32,
     "referenced_type" : "type-108"
    },
    {
     "field_name" : "vd_cnt",
     "field_offset" : 48,
     "referenced_type" : "type-108"
    },
    {
     "field_name" : "vd_hash",
     "field_offset" : 64,
     "referenced_type" : "type-9"
    },
    {
     "field_name" : "vd_aux",
     "field_offset" : 96,
     "referenced_type" : "type-9"
    },
    {
     "field_name" : "vd_next",
     "field_offset" : 128,
     "referenced_type" : "type-9"
    }
   ],
   "linker_set_key" : "Elf64_Verdef",
   "name" : "Elf64_Verdef",
   "referenced_type" : "type-270",
   "self_type" : "type-270",
   "size" : 20,
   "source_file" : "/out/soong/.intermediates/bionic/libc/libc.llndk/android_arm_armv8-a_vendor_shared/gen/include/elf.h",
   "unique_id" : "_ZTS12Elf64_Verdef"
  },
  {
   "alignment" : 4,
   "fields" :
   [
    {
     "field_name" : "vna_hash",
     "referenced_type" : "type-9"
    },
    {
     "field_name" : "vna_flags",
     "field_offset" : 32,
     "referenced_type" : "type-108"
    },
    {
     "field_name" : "vna_other",
     "field_offset" : 48,
     "referenced_type" : "type-108"
    },
    {
     "field_name" : "vna_name",
     "field_offset" : 64,
     "referenced_type" : "type-9"
    },
    {
     "field_name" : "vna_next",
     "field_offset" : 96,
     "referenced_type" : "type-9"
    }
   ],
   "linker_set_key" : "Elf64_Vernaux",
   "name" : "Elf64_Vernaux",
   "referenced_type" : "type-275",
   "self_type" : "type-275",
   "size" : 16,
   "source_file" : "/out/soong/.intermediates/bionic/libc/libc.llndk/android_arm_armv8-a_vendor_shared/gen/include/elf.h",
   "unique_id" : "_ZTS13Elf64_Vernaux"
  },
  {
   "alignment" : 4,
   "fields" :
   [
    {
     "field_name" : "vn_version",
     "referenced_type" : "type-108"
    },
    {
     "field_name" : "vn_cnt",
     "field_offset" : 16,
     "referenced_type" : "type-108"
    },
    {
     "field_name" : "vn_file",
     "field_offset" : 32,
     "referenced_type" : "type-9"
    },
    {
     "field_name" : "vn_aux",
     "field_offset" : 64,
     "referenced_type" : "type-9"
    },
    {
     "field_name" : "vn_next",
     "field_offset" : 96,
     "referenced_type" : "type-9"
    }
   ],
   "linker_set_key" : "Elf64_Verneed",
   "name" : "Elf64_Verneed",
   "referenced_type" : "type-274",
   "self_type" : "type-274",
   "size" : 16,
   "source_file" : "/out/soong/.intermediates/bionic/libc/libc.llndk/android_arm_armv8-a_vendor_shared/gen/include/elf.h",
   "unique_id" : "_ZTS13Elf64_Verneed"
  },
  {
   "alignment" : 8,
   "fields" :
   [
    {
     "field_name" : "a_type",
     "referenced_type" : "type-107"
    },
    {
     "field_name" : "a_un",
     "field_offset" : 64,
     "referenced_type" : "type-259"
    }
   ],
   "linker_set_key" : "Elf64_auxv_t",
   "name" : "Elf64_auxv_t",
   "referenced_type" : "type-258",
   "self_type" : "type-258",
   "size" : 16,
   "source_file" : "/out/soong/.intermediates/bionic/libc/libc.llndk/android_arm_armv8-a_vendor_shared/gen/include/elf.h",
   "unique_id" : "_ZTS12Elf64_auxv_t"
  },
  {
   "alignment" : 8,
   "fields" :
   [
    {
     "field_name" : "a_val",
     "referenced_type" : "type-107"
    }
   ],
   "is_anonymous" : true,
   "linker_set_key" : "Elf64_auxv_t::(anonymous union at out/soong/.intermediates/bionic/libc/libc.llndk/android_arm_armv8-a_vendor_shared/gen/include/elf.h:56:3) at out/soong/.intermediates/bionic/libc/libc.llndk/android_arm_armv8-a_vendor_shared/gen/include/elf.h:56:3",
   "name" : "Elf64_auxv_t::(anonymous union at out/soong/.intermediates/bionic/libc/libc.llndk/android_arm_armv8-a_vendor_shared/gen/include/elf.h:56:3) at out/soong/.intermediates/bionic/libc/libc.llndk/android_arm_armv8-a_vendor_shared/gen/include/elf.h:56:3",
   "record_kind" : "union",
   "referenced_type" : "type-259",
   "self_type" : "type-259",
   "size" : 8,
   "source_file" : "/out/soong/.intermediates/bionic/libc/libc.llndk/android_arm_armv8-a_vendor_shared/gen/include/elf.h",
   "unique_id" : "_ZTSN12Elf64_auxv_tUt_E"
  },
  {
   "alignment" : 4,
   "fields" :
   [
    {
     "field_name" : "map",
     "referenced_type" : "type-88"
    },
    {
     "field_name" : "data",
     "field_offset" : 8192,
     "referenced_type" : "type-14"
    },
    {
     "field_name" : "convert",
     "field_offset" : 8224,
     "referenced_type" : "type-89"
    },
    {
     "field_name" : "release",
     "field_offset" : 8256,
     "referenced_type" : "type-85"
    }
   ],
   "linker_set_key" : "XML_Encoding",
   "name" : "XML_Encoding",
   "referenced_type" : "type-87",
   "self_type" : "type-87",
   "size" : 1036,
   "source_file" : "/external/expat/lib/expat.h",
   "unique_id" : "XML_Encoding"
  },
  {
   "alignment" : 4,
   "fields" :
   [
    {
     "field_name" : "major",
     "referenced_type" : "type-4"
    },
    {
     "field_name" : "minor",
     "field_offset" : 32,
     "referenced_type" : "type-4"
    },
    {
     "field_name" : "micro",
     "field_offset" : 64,
     "referenced_type" : "type-4"
    }
   ],
   "linker_set_key" : "XML_Expat_Version",
   "name" : "XML_Expat_Version",
   "referenced_type" : "type-96",
   "self_type" : "type-96",
   "size" : 12,
   "source_file" : "/external/expat/lib/expat.h",
   "unique_id" : "XML_Expat_Version"
  },
  {
   "alignment" : 4,
   "fields" :
   [
    {
     "field_name" : "feature",
     "referenced_type" : "type-97"
    },
    {
     "field_name" : "name",
     "field_offset" : 32,
     "referenced_type" : "type-91"
    },
    {
     "field_name" : "value",
     "field_offset" : 64,
     "referenced_type" : "type-13"
    }
   ],
   "linker_set_key" : "XML_Feature",
   "name" : "XML_Feature",
   "referenced_type" : "type-98",
   "self_type" : "type-98",
   "size" : 12,
   "source_file" : "/external/expat/lib/expat.h",
   "unique_id" : "XML_Feature"
  },
  {
   "alignment" : 4,
   "fields" :
   [
    {
     "field_name" : "malloc_fcn",
     "referenced_type" : "type-81"
    },
    {
     "field_name" : "realloc_fcn",
     "field_offset" : 32,
     "referenced_type" : "type-83"
    },
    {
     "field_name" : "free_fcn",
     "field_offset" : 64,
     "referenced_type" : "type-85"
    }
   ],
   "linker_set_key" : "XML_Memory_Handling_Suite",
   "name" : "XML_Memory_Handling_Suite",
   "referenced_type" : "type-80",
   "self_type" : "type-80",
   "size" : 12,
   "source_file" : "/external/expat/lib/expat.h",
   "unique_id" : "XML_Memory_Handling_Suite"
  },
  {
   "alignment" : 4,
   "fields" :
   [
    {
     "field_name" : "parsing",
     "referenced_type" : "type-93"
    },
    {
     "field_name" : "finalBuffer",
     "field_offset" : 32,
     "referenced_type" : "type-17"
    }
   ],
   "linker_set_key" : "XML_ParsingStatus",
   "name" : "XML_ParsingStatus",
   "referenced_type" : "type-94",
   "self_type" : "type-94",
   "size" : 8,
   "source_file" : "/external/expat/lib/expat.h",
   "unique_id" : "XML_ParsingStatus"
  },
  {
   "alignment" : 4,
   "fields" :
   [
    {
     "field_name" : "type",
     "referenced_type" : "type-76"
    },
    {
     "field_name" : "quant",
     "field_offset" : 32,
     "referenced_type" : "type-77"
    },
    {
     "field_name" : "name",
     "field_offset" : 64,
     "referenced_type" : "type-5"
    },
    {
     "field_name" : "numchildren",
     "field_offset" : 96,
     "referenced_type" : "type-9"
    },
    {
     "field_name" : "children",
     "field_offset" : 128,
     "referenced_type" : "type-79"
    }
   ],
   "linker_set_key" : "XML_cp",
   "name" : "XML_cp",
   "referenced_type" : "type-78",
   "self_type" : "type-78",
   "size" : 20,
   "source_file" : "/external/expat/lib/expat.h",
   "unique_id" : "XML_cp"
  },
  {
   "alignment" : 8,
   "fields" :
   [
    {
     "field_name" : "exception_class",
     "referenced_type" : "type-107"
    },
    {
     "field_name" : "exception_cleanup",
     "field_offset" : 64,
     "referenced_type" : "type-157"
    },
    {
     "field_name" : "unwinder_cache",
     "field_offset" : 96,
     "referenced_type" : "type-160"
    },
    {
     "field_name" : "barrier_cache",
     "field_offset" : 256,
     "referenced_type" : "type-161"
    },
    {
     "field_name" : "cleanup_cache",
     "field_offset" : 448,
     "referenced_type" : "type-163"
    },
    {
     "field_name" : "pr_cache",
     "field_offset" : 576,
     "referenced_type" : "type-165"
    },
    {
     "field_offset" : 704,
     "referenced_type" : "type-72"
    }
   ],
   "linker_set_key" : "_Unwind_Control_Block",
   "name" : "_Unwind_Control_Block",
   "referenced_type" : "type-156",
   "self_type" : "type-156",
   "size" : 88,
   "source_file" : "/external/libunwind_llvm/include/unwind.h",
   "unique_id" : "_ZTS21_Unwind_Control_Block"
  },
  {
   "alignment" : 8,
   "fields" :
   [
    {
     "field_name" : "exception_class",
     "referenced_type" : "type-107"
    },
    {
     "field_name" : "exception_cleanup",
     "field_offset" : 64,
     "referenced_type" : "type-442"
    },
    {
     "field_name" : "unwinder_cache",
     "field_offset" : 96,
     "referenced_type" : "type-444"
    },
    {
     "field_name" : "barrier_cache",
     "field_offset" : 256,
     "referenced_type" : "type-445"
    },
    {
     "field_name" : "cleanup_cache",
     "field_offset" : 448,
     "referenced_type" : "type-446"
    },
    {
     "field_name" : "pr_cache",
     "field_offset" : 576,
     "referenced_type" : "type-447"
    },
    {
     "field_offset" : 704,
     "referenced_type" : "type-72"
    }
   ],
   "linker_set_key" : "_Unwind_Control_Block",
   "name" : "_Unwind_Control_Block",
   "referenced_type" : "type-441",
   "self_type" : "type-441",
   "size" : 88,
   "source_file" : "/external/libunwind_llvm/include/unwind.h",
   "unique_id" : "_Unwind_Control_Block"
  },
  {
   "alignment" : 4,
   "fields" :
   [
    {
     "field_name" : "reserved1",
     "referenced_type" : "type-9"
    },
    {
     "field_name" : "reserved2",
     "field_offset" : 32,
     "referenced_type" : "type-9"
    },
    {
     "field_name" : "reserved3",
     "field_offset" : 64,
     "referenced_type" : "type-9"
    },
    {
     "field_name" : "reserved4",
     "field_offset" : 96,
     "referenced_type" : "type-9"
    },
    {
     "field_name" : "reserved5",
     "field_offset" : 128,
     "referenced_type" : "type-9"
    }
   ],
   "is_anonymous" : true,
   "linker_set_key" : "_Unwind_Control_Block::(anonymous struct at external/libunwind_llvm/include/unwind.h:79:3) at external/libunwind_llvm/include/unwind.h:79:3",
   "name" : "_Unwind_Control_Block::(anonymous struct at external/libunwind_llvm/include/unwind.h:79:3) at external/libunwind_llvm/include/unwind.h:79:3",
   "referenced_type" : "type-160",
   "self_type" : "type-160",
   "size" : 20,
   "source_file" : "/external/libunwind_llvm/include/unwind.h",
   "unique_id" : "_ZTSN21_Unwind_Control_BlockUt_E"
  },
  {
   "alignment" : 4,
   "fields" :
   [
    {
     "field_name" : "reserved1",
     "referenced_type" : "type-9"
    },
    {
     "field_name" : "reserved2",
     "field_offset" : 32,
     "referenced_type" : "type-9"
    },
    {
     "field_name" : "reserved3",
     "field_offset" : 64,
     "referenced_type" : "type-9"
    },
    {
     "field_name" : "reserved4",
     "field_offset" : 96,
     "referenced_type" : "type-9"
    },
    {
     "field_name" : "reserved5",
     "field_offset" : 128,
     "referenced_type" : "type-9"
    }
   ],
   "is_anonymous" : true,
   "linker_set_key" : "_Unwind_Control_Block::(anonymous struct at external/libunwind_llvm/include/unwind.h:79:3) at external/libunwind_llvm/include/unwind.h:79:3",
   "name" : "_Unwind_Control_Block::(anonymous struct at external/libunwind_llvm/include/unwind.h:79:3) at external/libunwind_llvm/include/unwind.h:79:3",
   "referenced_type" : "type-444",
   "self_type" : "type-444",
   "size" : 20,
   "source_file" : "/external/libunwind_llvm/include/unwind.h",
   "unique_id" : "_Unwind_Control_Block::(anonymous struct at external/libunwind_llvm/include/unwind.h:79:3)"
  },
  {
   "alignment" : 4,
   "fields" :
   [
    {
     "field_name" : "sp",
     "referenced_type" : "type-9"
    },
    {
     "field_name" : "bitpattern",
     "field_offset" : 32,
     "referenced_type" : "type-162"
    }
   ],
   "is_anonymous" : true,
   "linker_set_key" : "_Unwind_Control_Block::(anonymous struct at external/libunwind_llvm/include/unwind.h:88:3) at external/libunwind_llvm/include/unwind.h:88:3",
   "name" : "_Unwind_Control_Block::(anonymous struct at external/libunwind_llvm/include/unwind.h:88:3) at external/libunwind_llvm/include/unwind.h:88:3",
   "referenced_type" : "type-161",
   "self_type" : "type-161",
   "size" : 24,
   "source_file" : "/external/libunwind_llvm/include/unwind.h",
   "unique_id" : "_ZTSN21_Unwind_Control_BlockUt0_E"
  },
  {
   "alignment" : 4,
   "fields" :
   [
    {
     "field_name" : "sp",
     "referenced_type" : "type-9"
    },
    {
     "field_name" : "bitpattern",
     "field_offset" : 32,
     "referenced_type" : "type-162"
    }
   ],
   "is_anonymous" : true,
   "linker_set_key" : "_Unwind_Control_Block::(anonymous struct at external/libunwind_llvm/include/unwind.h:88:3) at external/libunwind_llvm/include/unwind.h:88:3",
   "name" : "_Unwind_Control_Block::(anonymous struct at external/libunwind_llvm/include/unwind.h:88:3) at external/libunwind_llvm/include/unwind.h:88:3",
   "referenced_type" : "type-445",
   "self_type" : "type-445",
   "size" : 24,
   "source_file" : "/external/libunwind_llvm/include/unwind.h",
   "unique_id" : "_Unwind_Control_Block::(anonymous struct at external/libunwind_llvm/include/unwind.h:88:3)"
  },
  {
   "alignment" : 4,
   "fields" :
   [
    {
     "field_name" : "bitpattern",
     "referenced_type" : "type-164"
    }
   ],
   "is_anonymous" : true,
   "linker_set_key" : "_Unwind_Control_Block::(anonymous struct at external/libunwind_llvm/include/unwind.h:94:3) at external/libunwind_llvm/include/unwind.h:94:3",
   "name" : "_Unwind_Control_Block::(anonymous struct at external/libunwind_llvm/include/unwind.h:94:3) at external/libunwind_llvm/include/unwind.h:94:3",
   "referenced_type" : "type-163",
   "self_type" : "type-163",
   "size" : 16,
   "source_file" : "/external/libunwind_llvm/include/unwind.h",
   "unique_id" : "_ZTSN21_Unwind_Control_BlockUt1_E"
  },
  {
   "alignment" : 4,
   "fields" :
   [
    {
     "field_name" : "bitpattern",
     "referenced_type" : "type-164"
    }
   ],
   "is_anonymous" : true,
   "linker_set_key" : "_Unwind_Control_Block::(anonymous struct at external/libunwind_llvm/include/unwind.h:94:3) at external/libunwind_llvm/include/unwind.h:94:3",
   "name" : "_Unwind_Control_Block::(anonymous struct at external/libunwind_llvm/include/unwind.h:94:3) at external/libunwind_llvm/include/unwind.h:94:3",
   "referenced_type" : "type-446",
   "self_type" : "type-446",
   "size" : 16,
   "source_file" : "/external/libunwind_llvm/include/unwind.h",
   "unique_id" : "_Unwind_Control_Block::(anonymous struct at external/libunwind_llvm/include/unwind.h:94:3)"
  },
  {
   "alignment" : 4,
   "fields" :
   [
    {
     "field_name" : "fnstart",
     "referenced_type" : "type-9"
    },
    {
     "field_name" : "ehtp",
     "field_offset" : 32,
     "referenced_type" : "type-166"
    },
    {
     "field_name" : "additional",
     "field_offset" : 64,
     "referenced_type" : "type-9"
    },
    {
     "field_name" : "reserved1",
     "field_offset" : 96,
     "referenced_type" : "type-9"
    }
   ],
   "is_anonymous" : true,
   "linker_set_key" : "_Unwind_Control_Block::(anonymous struct at external/libunwind_llvm/include/unwind.h:99:3) at external/libunwind_llvm/include/unwind.h:99:3",
   "name" : "_Unwind_Control_Block::(anonymous struct at external/libunwind_llvm/include/unwind.h:99:3) at external/libunwind_llvm/include/unwind.h:99:3",
   "referenced_type" : "type-165",
   "self_type" : "type-165",
   "size" : 16,
   "source_file" : "/external/libunwind_llvm/include/unwind.h",
   "unique_id" : "_ZTSN21_Unwind_Control_BlockUt2_E"
  },
  {
   "alignment" : 4,
   "fields" :
   [
    {
     "field_name" : "fnstart",
     "referenced_type" : "type-9"
    },
    {
     "field_name" : "ehtp",
     "field_offset" : 32,
     "referenced_type" : "type-166"
    },
    {
     "field_name" : "additional",
     "field_offset" : 64,
     "referenced_type" : "type-9"
    },
    {
     "field_name" : "reserved1",
     "field_offset" : 96,
     "referenced_type" : "type-9"
    }
   ],
   "is_anonymous" : true,
   "linker_set_key" : "_Unwind_Control_Block::(anonymous struct at external/libunwind_llvm/include/unwind.h:99:3) at external/libunwind_llvm/include/unwind.h:99:3",
   "name" : "_Unwind_Control_Block::(anonymous struct at external/libunwind_llvm/include/unwind.h:99:3) at external/libunwind_llvm/include/unwind.h:99:3",
   "referenced_type" : "type-447",
   "self_type" : "type-447",
   "size" : 16,
   "source_file" : "/external/libunwind_llvm/include/unwind.h",
   "unique_id" : "_Unwind_Control_Block::(anonymous struct at external/libunwind_llvm/include/unwind.h:99:3)"
  },
  {
   "alignment" : 4,
   "fields" :
   [
    {
     "field_name" : "fds_bits",
     "referenced_type" : "type-2"
    }
   ],
   "linker_set_key" : "__kernel_fd_set",
   "name" : "__kernel_fd_set",
   "referenced_type" : "type-1",
   "self_type" : "type-1",
   "size" : 128,
   "source_file" : "/bionic/libc/kernel/uapi/linux/posix_types.h",
   "unique_id" : "__kernel_fd_set"
  },
  {
   "alignment" : 4,
   "fields" :
   [
    {
     "field_name" : "fds_bits",
     "referenced_type" : "type-2"
    }
   ],
   "linker_set_key" : "__kernel_fd_set",
   "name" : "__kernel_fd_set",
   "referenced_type" : "type-293",
   "self_type" : "type-293",
   "size" : 128,
   "source_file" : "/bionic/libc/kernel/uapi/linux/posix_types.h",
   "unique_id" : "_ZTS15__kernel_fd_set"
  },
  {
   "alignment" : 4,
   "fields" :
   [
    {
     "field_name" : "val",
     "referenced_type" : "type-28"
    }
   ],
   "linker_set_key" : "__kernel_fsid_t",
   "name" : "__kernel_fsid_t",
   "referenced_type" : "type-340",
   "self_type" : "type-340",
   "size" : 8,
   "source_file" : "/bionic/libc/kernel/uapi/asm-generic/posix_types.h",
   "unique_id" : "_ZTS15__kernel_fsid_t"
  },
  {
   "alignment" : 4,
   "fields" :
   [
    {
     "field_name" : "val",
     "referenced_type" : "type-28"
    }
   ],
   "linker_set_key" : "__kernel_fsid_t",
   "name" : "__kernel_fsid_t",
   "referenced_type" : "type-73",
   "self_type" : "type-73",
   "size" : 8,
   "source_file" : "/bionic/libc/kernel/uapi/asm-generic/posix_types.h",
   "unique_id" : "__kernel_fsid_t"
  },
  {
   "alignment" : 8,
   "fields" :
   [
    {
     "field_name" : "it_interval",
     "referenced_type" : "type-126"
    },
    {
     "field_name" : "it_value",
     "field_offset" : 128,
     "referenced_type" : "type-126"
    }
   ],
   "linker_set_key" : "__kernel_itimerspec",
   "name" : "__kernel_itimerspec",
   "referenced_type" : "type-127",
   "self_type" : "type-127",
   "size" : 32,
   "source_file" : "/bionic/libc/kernel/uapi/linux/time.h",
   "unique_id" : "__kernel_itimerspec"
  },
  {
   "alignment" : 8,
   "fields" :
   [
    {
     "field_name" : "it_interval",
     "referenced_type" : "type-308"
    },
    {
     "field_name" : "it_value",
     "field_offset" : 128,
     "referenced_type" : "type-308"
    }
   ],
   "linker_set_key" : "__kernel_itimerspec",
   "name" : "__kernel_itimerspec",
   "referenced_type" : "type-309",
   "self_type" : "type-309",
   "size" : 32,
   "source_file" : "/bionic/libc/kernel/uapi/linux/time.h",
   "unique_id" : "_ZTS19__kernel_itimerspec"
  },
  {
   "alignment" : 4,
   "fields" :
   [
    {
     "field_name" : "tv_sec",
     "referenced_type" : "type-13"
    },
    {
     "field_name" : "tv_usec",
     "field_offset" : 32,
     "referenced_type" : "type-13"
    }
   ],
   "linker_set_key" : "__kernel_old_timeval",
   "name" : "__kernel_old_timeval",
   "referenced_type" : "type-128",
   "self_type" : "type-128",
   "size" : 8,
   "source_file" : "/bionic/libc/kernel/uapi/linux/time.h",
   "unique_id" : "__kernel_old_timeval"
  },
  {
   "alignment" : 4,
   "fields" :
   [
    {
     "field_name" : "tv_sec",
     "referenced_type" : "type-13"
    },
    {
     "field_name" : "tv_usec",
     "field_offset" : 32,
     "referenced_type" : "type-13"
    }
   ],
   "linker_set_key" : "__kernel_old_timeval",
   "name" : "__kernel_old_timeval",
   "referenced_type" : "type-310",
   "self_type" : "type-310",
   "size" : 8,
   "source_file" : "/bionic/libc/kernel/uapi/linux/time.h",
   "unique_id" : "_ZTS20__kernel_old_timeval"
  },
  {
   "alignment" : 4,
   "fields" :
   [
    {
     "field_name" : "_u",
     "referenced_type" : "type-313"
    },
    {
     "field_name" : "sa_mask",
     "field_offset" : 32,
     "referenced_type" : "type-3"
    },
    {
     "field_name" : "sa_flags",
     "field_offset" : 64,
     "referenced_type" : "type-3"
    },
    {
     "field_name" : "sa_restorer",
     "field_offset" : 96,
     "referenced_type" : "type-334"
    }
   ],
   "linker_set_key" : "__kernel_sigaction",
   "name" : "__kernel_sigaction",
   "referenced_type" : "type-312",
   "self_type" : "type-312",
   "size" : 16,
   "source_file" : "/bionic/libc/kernel/uapi/asm-arm/asm/signal.h",
   "unique_id" : "_ZTS18__kernel_sigaction"
  },
  {
   "alignment" : 4,
   "fields" :
   [
    {
     "field_name" : "_u",
     "referenced_type" : "type-471"
    },
    {
     "field_name" : "sa_mask",
     "field_offset" : 32,
     "referenced_type" : "type-3"
    },
    {
     "field_name" : "sa_flags",
     "field_offset" : 64,
     "referenced_type" : "type-3"
    },
    {
     "field_name" : "sa_restorer",
     "field_offset" : 96,
     "referenced_type" : "type-294"
    }
   ],
   "linker_set_key" : "__kernel_sigaction",
   "name" : "__kernel_sigaction",
   "referenced_type" : "type-470",
   "self_type" : "type-470",
   "size" : 16,
   "source_file" : "/bionic/libc/kernel/uapi/asm-arm/asm/signal.h",
   "unique_id" : "__kernel_sigaction"
  },
  {
   "alignment" : 4,
   "fields" :
   [
    {
     "field_name" : "_sa_handler",
     "referenced_type" : "type-314"
    },
    {
     "field_name" : "_sa_sigaction",
     "referenced_type" : "type-316"
    }
   ],
   "is_anonymous" : true,
   "linker_set_key" : "__kernel_sigaction::(anonymous union at bionic/libc/kernel/uapi/asm-arm/asm/signal.h:77:3) at bionic/libc/kernel/uapi/asm-arm/asm/signal.h:77:3",
   "name" : "__kernel_sigaction::(anonymous union at bionic/libc/kernel/uapi/asm-arm/asm/signal.h:77:3) at bionic/libc/kernel/uapi/asm-arm/asm/signal.h:77:3",
   "record_kind" : "union",
   "referenced_type" : "type-313",
   "self_type" : "type-313",
   "size" : 4,
   "source_file" : "/bionic/libc/kernel/uapi/asm-arm/asm/signal.h",
   "unique_id" : "_ZTSN18__kernel_sigactionUt_E"
  },
  {
   "alignment" : 4,
   "fields" :
   [
    {
     "field_name" : "_sa_handler",
     "referenced_type" : "type-314"
    },
    {
     "field_name" : "_sa_sigaction",
     "referenced_type" : "type-31"
    }
   ],
   "is_anonymous" : true,
   "linker_set_key" : "__kernel_sigaction::(anonymous union at bionic/libc/kernel/uapi/asm-arm/asm/signal.h:77:3) at bionic/libc/kernel/uapi/asm-arm/asm/signal.h:77:3",
   "name" : "__kernel_sigaction::(anonymous union at bionic/libc/kernel/uapi/asm-arm/asm/signal.h:77:3) at bionic/libc/kernel/uapi/asm-arm/asm/signal.h:77:3",
   "record_kind" : "union",
   "referenced_type" : "type-471",
   "self_type" : "type-471",
   "size" : 4,
   "source_file" : "/bionic/libc/kernel/uapi/asm-arm/asm/signal.h",
   "unique_id" : "__kernel_sigaction::(anonymous union at bionic/libc/kernel/uapi/asm-arm/asm/signal.h:77:3)"
  },
  {
   "alignment" : 8,
   "fields" :
   [
    {
     "field_name" : "tv_sec",
     "referenced_type" : "type-72"
    },
    {
     "field_name" : "tv_nsec",
     "field_offset" : 64,
     "referenced_type" : "type-72"
    }
   ],
   "linker_set_key" : "__kernel_timespec",
   "name" : "__kernel_timespec",
   "referenced_type" : "type-126",
   "self_type" : "type-126",
   "size" : 16,
   "source_file" : "/bionic/libc/kernel/uapi/linux/time.h",
   "unique_id" : "__kernel_timespec"
  },
  {
   "alignment" : 8,
   "fields" :
   [
    {
     "field_name" : "tv_sec",
     "referenced_type" : "type-72"
    },
    {
     "field_name" : "tv_nsec",
     "field_offset" : 64,
     "referenced_type" : "type-72"
    }
   ],
   "linker_set_key" : "__kernel_timespec",
   "name" : "__kernel_timespec",
   "referenced_type" : "type-308",
   "self_type" : "type-308",
   "size" : 16,
   "source_file" : "/bionic/libc/kernel/uapi/linux/time.h",
   "unique_id" : "_ZTS17__kernel_timespec"
  },
  {
   "alignment" : 4,
   "fields" :
   [
    {
     "field_name" : "__cleanup_prev",
     "referenced_type" : "type-371"
    },
    {
     "field_name" : "__cleanup_routine",
     "field_offset" : 32,
     "referenced_type" : "type-85"
    },
    {
     "field_name" : "__cleanup_arg",
     "field_offset" : 64,
     "referenced_type" : "type-14"
    }
   ],
   "linker_set_key" : "__pthread_cleanup_t",
   "name" : "__pthread_cleanup_t",
   "referenced_type" : "type-370",
   "self_type" : "type-370",
   "size" : 12,
   "source_file" : "/out/soong/.intermediates/bionic/libc/libc.llndk/android_arm_armv8-a_vendor_shared/gen/include/pthread.h",
   "unique_id" : "__pthread_cleanup_t"
  },
  {
   "alignment" : 4,
   "fields" :
   [
    {
     "field_name" : "_kill",
     "referenced_type" : "type-323"
    },
    {
     "field_name" : "_timer",
     "referenced_type" : "type-324"
    },
    {
     "field_name" : "_rt",
     "referenced_type" : "type-326"
    },
    {
     "field_name" : "_sigchld",
     "referenced_type" : "type-327"
    },
    {
     "field_name" : "_sigfault",
     "referenced_type" : "type-328"
    },
    {
     "field_name" : "_sigpoll",
     "referenced_type" : "type-332"
    },
    {
     "field_name" : "_sigsys",
     "referenced_type" : "type-333"
    }
   ],
   "linker_set_key" : "__sifields",
   "name" : "__sifields",
   "record_kind" : "union",
   "referenced_type" : "type-322",
   "self_type" : "type-322",
   "size" : 20,
   "source_file" : "/bionic/libc/kernel/uapi/asm-generic/siginfo.h",
   "unique_id" : "_ZTS10__sifields"
  },
  {
   "alignment" : 4,
   "fields" :
   [
    {
     "field_name" : "_kill",
     "referenced_type" : "type-38"
    },
    {
     "field_name" : "_timer",
     "referenced_type" : "type-39"
    },
    {
     "field_name" : "_rt",
     "referenced_type" : "type-41"
    },
    {
     "field_name" : "_sigchld",
     "referenced_type" : "type-42"
    },
    {
     "field_name" : "_sigfault",
     "referenced_type" : "type-43"
    },
    {
     "field_name" : "_sigpoll",
     "referenced_type" : "type-49"
    },
    {
     "field_name" : "_sigsys",
     "referenced_type" : "type-50"
    }
   ],
   "linker_set_key" : "__sifields",
   "name" : "__sifields",
   "record_kind" : "union",
   "referenced_type" : "type-37",
   "self_type" : "type-37",
   "size" : 20,
   "source_file" : "/bionic/libc/kernel/uapi/asm-generic/siginfo.h",
   "unique_id" : "__sifields"
  },
  {
   "alignment" : 4,
   "fields" :
   [
    {
     "field_name" : "_pid",
     "referenced_type" : "type-4"
    },
    {
     "field_name" : "_uid",
     "field_offset" : 32,
     "referenced_type" : "type-9"
    }
   ],
   "is_anonymous" : true,
   "linker_set_key" : "__sifields::(anonymous struct at bionic/libc/kernel/uapi/asm-generic/siginfo.h:38:3) at bionic/libc/kernel/uapi/asm-generic/siginfo.h:38:3",
   "name" : "__sifields::(anonymous struct at bionic/libc/kernel/uapi/asm-generic/siginfo.h:38:3) at bionic/libc/kernel/uapi/asm-generic/siginfo.h:38:3",
   "referenced_type" : "type-323",
   "self_type" : "type-323",
   "size" : 8,
   "source_file" : "/bionic/libc/kernel/uapi/asm-generic/siginfo.h",
   "unique_id" : "_ZTSN10__sifieldsUt_E"
  },
  {
   "alignment" : 4,
   "fields" :
   [
    {
     "field_name" : "_pid",
     "referenced_type" : "type-4"
    },
    {
     "field_name" : "_uid",
     "field_offset" : 32,
     "referenced_type" : "type-9"
    }
   ],
   "is_anonymous" : true,
   "linker_set_key" : "__sifields::(anonymous struct at bionic/libc/kernel/uapi/asm-generic/siginfo.h:38:3) at bionic/libc/kernel/uapi/asm-generic/siginfo.h:38:3",
   "name" : "__sifields::(anonymous struct at bionic/libc/kernel/uapi/asm-generic/siginfo.h:38:3) at bionic/libc/kernel/uapi/asm-generic/siginfo.h:38:3",
   "referenced_type" : "type-38",
   "self_type" : "type-38",
   "size" : 8,
   "source_file" : "/bionic/libc/kernel/uapi/asm-generic/siginfo.h",
   "unique_id" : "__sifields::(anonymous struct at bionic/libc/kernel/uapi/asm-generic/siginfo.h:38:3)"
  },
  {
   "alignment" : 4,
   "fields" :
   [
    {
     "field_name" : "_tid",
     "referenced_type" : "type-4"
    },
    {
     "field_name" : "_overrun",
     "field_offset" : 32,
     "referenced_type" : "type-4"
    },
    {
     "field_name" : "_sigval",
     "field_offset" : 64,
     "referenced_type" : "type-325"
    },
    {
     "field_name" : "_sys_private",
     "field_offset" : 96,
     "referenced_type" : "type-4"
    }
   ],
   "is_anonymous" : true,
   "linker_set_key" : "__sifields::(anonymous struct at bionic/libc/kernel/uapi/asm-generic/siginfo.h:42:3) at bionic/libc/kernel/uapi/asm-generic/siginfo.h:42:3",
   "name" : "__sifields::(anonymous struct at bionic/libc/kernel/uapi/asm-generic/siginfo.h:42:3) at bionic/libc/kernel/uapi/asm-generic/siginfo.h:42:3",
   "referenced_type" : "type-324",
   "self_type" : "type-324",
   "size" : 16,
   "source_file" : "/bionic/libc/kernel/uapi/asm-generic/siginfo.h",
   "unique_id" : "_ZTSN10__sifieldsUt0_E"
  },
  {
   "alignment" : 4,
   "fields" :
   [
    {
     "field_name" : "_tid",
     "referenced_type" : "type-4"
    },
    {
     "field_name" : "_overrun",
     "field_offset" : 32,
     "referenced_type" : "type-4"
    },
    {
     "field_name" : "_sigval",
     "field_offset" : 64,
     "referenced_type" : "type-40"
    },
    {
     "field_name" : "_sys_private",
     "field_offset" : 96,
     "referenced_type" : "type-4"
    }
   ],
   "is_anonymous" : true,
   "linker_set_key" : "__sifields::(anonymous struct at bionic/libc/kernel/uapi/asm-generic/siginfo.h:42:3) at bionic/libc/kernel/uapi/asm-generic/siginfo.h:42:3",
   "name" : "__sifields::(anonymous struct at bionic/libc/kernel/uapi/asm-generic/siginfo.h:42:3) at bionic/libc/kernel/uapi/asm-generic/siginfo.h:42:3",
   "referenced_type" : "type-39",
   "self_type" : "type-39",
   "size" : 16,
   "source_file" : "/bionic/libc/kernel/uapi/asm-generic/siginfo.h",
   "unique_id" : "__sifields::(anonymous struct at bionic/libc/kernel/uapi/asm-generic/siginfo.h:42:3)"
  },
  {
   "alignment" : 4,
   "fields" :
   [
    {
     "field_name" : "_pid",
     "referenced_type" : "type-4"
    },
    {
     "field_name" : "_uid",
     "field_offset" : 32,
     "referenced_type" : "type-9"
    },
    {
     "field_name" : "_sigval",
     "field_offset" : 64,
     "referenced_type" : "type-325"
    }
   ],
   "is_anonymous" : true,
   "linker_set_key" : "__sifields::(anonymous struct at bionic/libc/kernel/uapi/asm-generic/siginfo.h:48:3) at bionic/libc/kernel/uapi/asm-generic/siginfo.h:48:3",
   "name" : "__sifields::(anonymous struct at bionic/libc/kernel/uapi/asm-generic/siginfo.h:48:3) at bionic/libc/kernel/uapi/asm-generic/siginfo.h:48:3",
   "referenced_type" : "type-326",
   "self_type" : "type-326",
   "size" : 12,
   "source_file" : "/bionic/libc/kernel/uapi/asm-generic/siginfo.h",
   "unique_id" : "_ZTSN10__sifieldsUt1_E"
  },
  {
   "alignment" : 4,
   "fields" :
   [
    {
     "field_name" : "_pid",
     "referenced_type" : "type-4"
    },
    {
     "field_name" : "_uid",
     "field_offset" : 32,
     "referenced_type" : "type-9"
    },
    {
     "field_name" : "_sigval",
     "field_offset" : 64,
     "referenced_type" : "type-40"
    }
   ],
   "is_anonymous" : true,
   "linker_set_key" : "__sifields::(anonymous struct at bionic/libc/kernel/uapi/asm-generic/siginfo.h:48:3) at bionic/libc/kernel/uapi/asm-generic/siginfo.h:48:3",
   "name" : "__sifields::(anonymous struct at bionic/libc/kernel/uapi/asm-generic/siginfo.h:48:3) at bionic/libc/kernel/uapi/asm-generic/siginfo.h:48:3",
   "referenced_type" : "type-41",
   "self_type" : "type-41",
   "size" : 12,
   "source_file" : "/bionic/libc/kernel/uapi/asm-generic/siginfo.h",
   "unique_id" : "__sifields::(anonymous struct at bionic/libc/kernel/uapi/asm-generic/siginfo.h:48:3)"
  },
  {
   "alignment" : 4,
   "fields" :
   [
    {
     "field_name" : "_pid",
     "referenced_type" : "type-4"
    },
    {
     "field_name" : "_uid",
     "field_offset" : 32,
     "referenced_type" : "type-9"
    },
    {
     "field_name" : "_status",
     "field_offset" : 64,
     "referenced_type" : "type-4"
    },
    {
     "field_name" : "_utime",
     "field_offset" : 96,
     "referenced_type" : "type-13"
    },
    {
     "field_name" : "_stime",
     "field_offset" : 128,
     "referenced_type" : "type-13"
    }
   ],
   "is_anonymous" : true,
   "linker_set_key" : "__sifields::(anonymous struct at bionic/libc/kernel/uapi/asm-generic/siginfo.h:53:3) at bionic/libc/kernel/uapi/asm-generic/siginfo.h:53:3",
   "name" : "__sifields::(anonymous struct at bionic/libc/kernel/uapi/asm-generic/siginfo.h:53:3) at bionic/libc/kernel/uapi/asm-generic/siginfo.h:53:3",
   "referenced_type" : "type-327",
   "self_type" : "type-327",
   "size" : 20,
   "source_file" : "/bionic/libc/kernel/uapi/asm-generic/siginfo.h",
   "unique_id" : "_ZTSN10__sifieldsUt2_E"
  },
  {
   "alignment" : 4,
   "fields" :
   [
    {
     "field_name" : "_pid",
     "referenced_type" : "type-4"
    },
    {
     "field_name" : "_uid",
     "field_offset" : 32,
     "referenced_type" : "type-9"
    },
    {
     "field_name" : "_status",
     "field_offset" : 64,
     "referenced_type" : "type-4"
    },
    {
     "field_name" : "_utime",
     "field_offset" : 96,
     "referenced_type" : "type-13"
    },
    {
     "field_name" : "_stime",
     "field_offset" : 128,
     "referenced_type" : "type-13"
    }
   ],
   "is_anonymous" : true,
   "linker_set_key" : "__sifields::(anonymous struct at bionic/libc/kernel/uapi/asm-generic/siginfo.h:53:3) at bionic/libc/kernel/uapi/asm-generic/siginfo.h:53:3",
   "name" : "__sifields::(anonymous struct at bionic/libc/kernel/uapi/asm-generic/siginfo.h:53:3) at bionic/libc/kernel/uapi/asm-generic/siginfo.h:53:3",
   "referenced_type" : "type-42",
   "self_type" : "type-42",
   "size" : 20,
   "source_file" : "/bionic/libc/kernel/uapi/asm-generic/siginfo.h",
   "unique_id" : "__sifields::(anonymous struct at bionic/libc/kernel/uapi/asm-generic/siginfo.h:53:3)"
  },
  {
   "alignment" : 4,
   "fields" :
   [
    {
     "field_name" : "_addr",
     "referenced_type" : "type-14"
    },
    {
     "field_offset" : 32,
     "referenced_type" : "type-329"
    }
   ],
   "is_anonymous" : true,
   "linker_set_key" : "__sifields::(anonymous struct at bionic/libc/kernel/uapi/asm-generic/siginfo.h:60:3) at bionic/libc/kernel/uapi/asm-generic/siginfo.h:60:3",
   "name" : "__sifields::(anonymous struct at bionic/libc/kernel/uapi/asm-generic/siginfo.h:60:3) at bionic/libc/kernel/uapi/asm-generic/siginfo.h:60:3",
   "referenced_type" : "type-328",
   "self_type" : "type-328",
   "size" : 16,
   "source_file" : "/bionic/libc/kernel/uapi/asm-generic/siginfo.h",
   "unique_id" : "_ZTSN10__sifieldsUt3_E"
  },
  {
   "alignment" : 4,
   "fields" :
   [
    {
     "field_name" : "_addr",
     "referenced_type" : "type-14"
    },
    {
     "field_offset" : 32,
     "referenced_type" : "type-44"
    }
   ],
   "is_anonymous" : true,
   "linker_set_key" : "__sifields::(anonymous struct at bionic/libc/kernel/uapi/asm-generic/siginfo.h:60:3) at bionic/libc/kernel/uapi/asm-generic/siginfo.h:60:3",
   "name" : "__sifields::(anonymous struct at bionic/libc/kernel/uapi/asm-generic/siginfo.h:60:3) at bionic/libc/kernel/uapi/asm-generic/siginfo.h:60:3",
   "referenced_type" : "type-43",
   "self_type" : "type-43",
   "size" : 16,
   "source_file" : "/bionic/libc/kernel/uapi/asm-generic/siginfo.h",
   "unique_id" : "__sifields::(anonymous struct at bionic/libc/kernel/uapi/asm-generic/siginfo.h:60:3)"
  },
  {
   "alignment" : 4,
   "fields" :
   [
    {
     "field_name" : "_addr_lsb",
     "referenced_type" : "type-45"
    },
    {
     "field_name" : "_addr_bnd",
     "referenced_type" : "type-330"
    },
    {
     "field_name" : "_addr_pkey",
     "referenced_type" : "type-331"
    }
   ],
   "is_anonymous" : true,
   "linker_set_key" : "__sifields::(anonymous struct at bionic/libc/kernel/uapi/asm-generic/siginfo.h:60:3)::(anonymous union at bionic/libc/kernel/uapi/asm-generic/siginfo.h:71:5) at bionic/libc/kernel/uapi/asm-generic/siginfo.h:71:5",
   "name" : "__sifields::(anonymous struct at bionic/libc/kernel/uapi/asm-generic/siginfo.h:60:3)::(anonymous union at bionic/libc/kernel/uapi/asm-generic/siginfo.h:71:5) at bionic/libc/kernel/uapi/asm-generic/siginfo.h:71:5",
   "record_kind" : "union",
   "referenced_type" : "type-329",
   "self_type" : "type-329",
   "size" : 12,
   "source_file" : "/bionic/libc/kernel/uapi/asm-generic/siginfo.h",
   "unique_id" : "_ZTSN10__sifieldsUt3_Ut_E"
  },
  {
   "alignment" : 4,
   "fields" :
   [
    {
     "field_name" : "_addr_lsb",
     "referenced_type" : "type-45"
    },
    {
     "field_name" : "_addr_bnd",
     "referenced_type" : "type-46"
    },
    {
     "field_name" : "_addr_pkey",
     "referenced_type" : "type-48"
    }
   ],
   "is_anonymous" : true,
   "linker_set_key" : "__sifields::(anonymous struct at bionic/libc/kernel/uapi/asm-generic/siginfo.h:60:3)::(anonymous union at bionic/libc/kernel/uapi/asm-generic/siginfo.h:71:5) at bionic/libc/kernel/uapi/asm-generic/siginfo.h:71:5",
   "name" : "__sifields::(anonymous struct at bionic/libc/kernel/uapi/asm-generic/siginfo.h:60:3)::(anonymous union at bionic/libc/kernel/uapi/asm-generic/siginfo.h:71:5) at bionic/libc/kernel/uapi/asm-generic/siginfo.h:71:5",
   "record_kind" : "union",
   "referenced_type" : "type-44",
   "self_type" : "type-44",
   "size" : 12,
   "source_file" : "/bionic/libc/kernel/uapi/asm-generic/siginfo.h",
   "unique_id" : "__sifields::(anonymous struct at bionic/libc/kernel/uapi/asm-generic/siginfo.h:60:3)::(anonymous union at bionic/libc/kernel/uapi/asm-generic/siginfo.h:71:5)"
  },
  {
   "alignment" : 4,
   "fields" :
   [
    {
     "field_name" : "_dummy_bnd",
     "referenced_type" : "type-47"
    },
    {
     "field_name" : "_lower",
     "field_offset" : 32,
     "referenced_type" : "type-14"
    },
    {
     "field_name" : "_upper",
     "field_offset" : 64,
     "referenced_type" : "type-14"
    }
   ],
   "is_anonymous" : true,
   "linker_set_key" : "__sifields::(anonymous struct at bionic/libc/kernel/uapi/asm-generic/siginfo.h:60:3)::(anonymous union at bionic/libc/kernel/uapi/asm-generic/siginfo.h:71:5)::(anonymous struct at bionic/libc/kernel/uapi/asm-generic/siginfo.h:73:7) at bionic/libc/kernel/uapi/asm-generic/siginfo.h:73:7",
   "name" : "__sifields::(anonymous struct at bionic/libc/kernel/uapi/asm-generic/siginfo.h:60:3)::(anonymous union at bionic/libc/kernel/uapi/asm-generic/siginfo.h:71:5)::(anonymous struct at bionic/libc/kernel/uapi/asm-generic/siginfo.h:73:7) at bionic/libc/kernel/uapi/asm-generic/siginfo.h:73:7",
   "referenced_type" : "type-330",
   "self_type" : "type-330",
   "size" : 12,
   "source_file" : "/bionic/libc/kernel/uapi/asm-generic/siginfo.h",
   "unique_id" : "_ZTSN10__sifieldsUt3_Ut_Ut_E"
  },
  {
   "alignment" : 4,
   "fields" :
   [
    {
     "field_name" : "_dummy_bnd",
     "referenced_type" : "type-47"
    },
    {
     "field_name" : "_lower",
     "field_offset" : 32,
     "referenced_type" : "type-14"
    },
    {
     "field_name" : "_upper",
     "field_offset" : 64,
     "referenced_type" : "type-14"
    }
   ],
   "is_anonymous" : true,
   "linker_set_key" : "__sifields::(anonymous struct at bionic/libc/kernel/uapi/asm-generic/siginfo.h:60:3)::(anonymous union at bionic/libc/kernel/uapi/asm-generic/siginfo.h:71:5)::(anonymous struct at bionic/libc/kernel/uapi/asm-generic/siginfo.h:73:7) at bionic/libc/kernel/uapi/asm-generic/siginfo.h:73:7",
   "name" : "__sifields::(anonymous struct at bionic/libc/kernel/uapi/asm-generic/siginfo.h:60:3)::(anonymous union at bionic/libc/kernel/uapi/asm-generic/siginfo.h:71:5)::(anonymous struct at bionic/libc/kernel/uapi/asm-generic/siginfo.h:73:7) at bionic/libc/kernel/uapi/asm-generic/siginfo.h:73:7",
   "referenced_type" : "type-46",
   "self_type" : "type-46",
   "size" : 12,
   "source_file" : "/bionic/libc/kernel/uapi/asm-generic/siginfo.h",
   "unique_id" : "__sifields::(anonymous struct at bionic/libc/kernel/uapi/asm-generic/siginfo.h:60:3)::(anonymous union at bionic/libc/kernel/uapi/asm-generic/siginfo.h:71:5)::(anonymous struct at bionic/libc/kernel/uapi/asm-generic/siginfo.h:73:7)"
  },
  {
   "alignment" : 4,
   "fields" :
   [
    {
     "field_name" : "_dummy_pkey",
     "referenced_type" : "type-47"
    },
    {
     "field_name" : "_pkey",
     "field_offset" : 32,
     "referenced_type" : "type-9"
    }
   ],
   "is_anonymous" : true,
   "linker_set_key" : "__sifields::(anonymous struct at bionic/libc/kernel/uapi/asm-generic/siginfo.h:60:3)::(anonymous union at bionic/libc/kernel/uapi/asm-generic/siginfo.h:71:5)::(anonymous struct at bionic/libc/kernel/uapi/asm-generic/siginfo.h:78:7) at bionic/libc/kernel/uapi/asm-generic/siginfo.h:78:7",
   "name" : "__sifields::(anonymous struct at bionic/libc/kernel/uapi/asm-generic/siginfo.h:60:3)::(anonymous union at bionic/libc/kernel/uapi/asm-generic/siginfo.h:71:5)::(anonymous struct at bionic/libc/kernel/uapi/asm-generic/siginfo.h:78:7) at bionic/libc/kernel/uapi/asm-generic/siginfo.h:78:7",
   "referenced_type" : "type-331",
   "self_type" : "type-331",
   "size" : 8,
   "source_file" : "/bionic/libc/kernel/uapi/asm-generic/siginfo.h",
   "unique_id" : "_ZTSN10__sifieldsUt3_Ut_Ut0_E"
  },
  {
   "alignment" : 4,
   "fields" :
   [
    {
     "field_name" : "_dummy_pkey",
     "referenced_type" : "type-47"
    },
    {
     "field_name" : "_pkey",
     "field_offset" : 32,
     "referenced_type" : "type-9"
    }
   ],
   "is_anonymous" : true,
   "linker_set_key" : "__sifields::(anonymous struct at bionic/libc/kernel/uapi/asm-generic/siginfo.h:60:3)::(anonymous union at bionic/libc/kernel/uapi/asm-generic/siginfo.h:71:5)::(anonymous struct at bionic/libc/kernel/uapi/asm-generic/siginfo.h:78:7) at bionic/libc/kernel/uapi/asm-generic/siginfo.h:78:7",
   "name" : "__sifields::(anonymous struct at bionic/libc/kernel/uapi/asm-generic/siginfo.h:60:3)::(anonymous union at bionic/libc/kernel/uapi/asm-generic/siginfo.h:71:5)::(anonymous struct at bionic/libc/kernel/uapi/asm-generic/siginfo.h:78:7) at bionic/libc/kernel/uapi/asm-generic/siginfo.h:78:7",
   "referenced_type" : "type-48",
   "self_type" : "type-48",
   "size" : 8,
   "source_file" : "/bionic/libc/kernel/uapi/asm-generic/siginfo.h",
   "unique_id" : "__sifields::(anonymous struct at bionic/libc/kernel/uapi/asm-generic/siginfo.h:60:3)::(anonymous union at bionic/libc/kernel/uapi/asm-generic/siginfo.h:71:5)::(anonymous struct at bionic/libc/kernel/uapi/asm-generic/siginfo.h:78:7)"
  },
  {
   "alignment" : 4,
   "fields" :
   [
    {
     "field_name" : "_band",
     "referenced_type" : "type-13"
    },
    {
     "field_name" : "_fd",
     "field_offset" : 32,
     "referenced_type" : "type-4"
    }
   ],
   "is_anonymous" : true,
   "linker_set_key" : "__sifields::(anonymous struct at bionic/libc/kernel/uapi/asm-generic/siginfo.h:84:3) at bionic/libc/kernel/uapi/asm-generic/siginfo.h:84:3",
   "name" : "__sifields::(anonymous struct at bionic/libc/kernel/uapi/asm-generic/siginfo.h:84:3) at bionic/libc/kernel/uapi/asm-generic/siginfo.h:84:3",
   "referenced_type" : "type-332",
   "self_type" : "type-332",
   "size" : 8,
   "source_file" : "/bionic/libc/kernel/uapi/asm-generic/siginfo.h",
   "unique_id" : "_ZTSN10__sifieldsUt4_E"
  },
  {
   "alignment" : 4,
   "fields" :
   [
    {
     "field_name" : "_band",
     "referenced_type" : "type-13"
    },
    {
     "field_name" : "_fd",
     "field_offset" : 32,
     "referenced_type" : "type-4"
    }
   ],
   "is_anonymous" : true,
   "linker_set_key" : "__sifields::(anonymous struct at bionic/libc/kernel/uapi/asm-generic/siginfo.h:84:3) at bionic/libc/kernel/uapi/asm-generic/siginfo.h:84:3",
   "name" : "__sifields::(anonymous struct at bionic/libc/kernel/uapi/asm-generic/siginfo.h:84:3) at bionic/libc/kernel/uapi/asm-generic/siginfo.h:84:3",
   "referenced_type" : "type-49",
   "self_type" : "type-49",
   "size" : 8,
   "source_file" : "/bionic/libc/kernel/uapi/asm-generic/siginfo.h",
   "unique_id" : "__sifields::(anonymous struct at bionic/libc/kernel/uapi/asm-generic/siginfo.h:84:3)"
  },
  {
   "alignment" : 4,
   "fields" :
   [
    {
     "field_name" : "_call_addr",
     "referenced_type" : "type-14"
    },
    {
     "field_name" : "_syscall",
     "field_offset" : 32,
     "referenced_type" : "type-4"
    },
    {
     "field_name" : "_arch",
     "field_offset" : 64,
     "referenced_type" : "type-9"
    }
   ],
   "is_anonymous" : true,
   "linker_set_key" : "__sifields::(anonymous struct at bionic/libc/kernel/uapi/asm-generic/siginfo.h:88:3) at bionic/libc/kernel/uapi/asm-generic/siginfo.h:88:3",
   "name" : "__sifields::(anonymous struct at bionic/libc/kernel/uapi/asm-generic/siginfo.h:88:3) at bionic/libc/kernel/uapi/asm-generic/siginfo.h:88:3",
   "referenced_type" : "type-333",
   "self_type" : "type-333",
   "size" : 12,
   "source_file" : "/bionic/libc/kernel/uapi/asm-generic/siginfo.h",
   "unique_id" : "_ZTSN10__sifieldsUt5_E"
  },
  {
   "alignment" : 4,
   "fields" :
   [
    {
     "field_name" : "_call_addr",
     "referenced_type" : "type-14"
    },
    {
     "field_name" : "_syscall",
     "field_offset" : 32,
     "referenced_type" : "type-4"
    },
    {
     "field_name" : "_arch",
     "field_offset" : 64,
     "referenced_type" : "type-9"
    }
   ],
   "is_anonymous" : true,
   "linker_set_key" : "__sifields::(anonymous struct at bionic/libc/kernel/uapi/asm-generic/siginfo.h:88:3) at bionic/libc/kernel/uapi/asm-generic/siginfo.h:88:3",
   "name" : "__sifields::(anonymous struct at bionic/libc/kernel/uapi/asm-generic/siginfo.h:88:3) at bionic/libc/kernel/uapi/asm-generic/siginfo.h:88:3",
   "referenced_type" : "type-50",
   "self_type" : "type-50",
   "size" : 12,
   "source_file" : "/bionic/libc/kernel/uapi/asm-generic/siginfo.h",
   "unique_id" : "__sifields::(anonymous struct at bionic/libc/kernel/uapi/asm-generic/siginfo.h:88:3)"
  },
  {
   "alignment" : 4,
   "fields" :
   [
    {
     "field_name" : "mixer",
     "referenced_type" : "type-19"
    },
    {
     "field_name" : "num_mixer_ctls",
     "field_offset" : 32,
     "referenced_type" : "type-9"
    },
    {
     "field_name" : "mixer_state",
     "field_offset" : 64,
     "referenced_type" : "type-21"
    },
    {
     "field_name" : "mixer_path_size",
     "field_offset" : 96,
     "referenced_type" : "type-9"
    },
    {
     "field_name" : "num_mixer_paths",
     "field_offset" : 128,
     "referenced_type" : "type-9"
    },
    {
     "field_name" : "mixer_path",
     "field_offset" : 160,
     "referenced_type" : "type-25"
    }
   ],
   "linker_set_key" : "audio_route",
   "name" : "audio_route",
   "referenced_type" : "type-18",
   "self_type" : "type-18",
   "size" : 24,
   "source_file" : "/system/media/audio_route/audio_route.c",
   "unique_id" : "audio_route"
  },
  {
   "alignment" : 1,
   "linker_set_key" : "check_fit<Registers_arm, unw_context_t>::blk_count<libunwind::Registers_arm>",
   "name" : "check_fit<Registers_arm, unw_context_t>::blk_count<libunwind::Registers_arm>",
   "referenced_type" : "type-413",
   "self_type" : "type-413",
   "size" : 1,
   "source_file" : "/external/libunwind_llvm/src/config.h",
   "template_args" : [ "type-142" ],
   "unique_id" : "_ZTSN9check_fitIN9libunwind13Registers_armE13unw_context_tE9blk_countIS1_EE"
  },
  {
   "alignment" : 1,
   "linker_set_key" : "check_fit<Registers_arm, unw_context_t>::blk_count<unw_context_t>",
   "name" : "check_fit<Registers_arm, unw_context_t>::blk_count<unw_context_t>",
   "referenced_type" : "type-414",
   "self_type" : "type-414",
   "size" : 1,
   "source_file" : "/external/libunwind_llvm/src/config.h",
   "template_args" : [ "type-136" ],
   "unique_id" : "_ZTSN9check_fitIN9libunwind13Registers_armE13unw_context_tE9blk_countIS2_EE"
  },
  {
   "alignment" : 1,
   "linker_set_key" : "check_fit<Registers_arm64, unw_context_t>::blk_count<libunwind::Registers_arm64>",
   "name" : "check_fit<Registers_arm64, unw_context_t>::blk_count<libunwind::Registers_arm64>",
   "referenced_type" : "type-410",
   "self_type" : "type-410",
   "size" : 1,
   "source_file" : "/external/libunwind_llvm/src/config.h",
   "template_args" : [ "type-211" ],
   "unique_id" : "_ZTSN9check_fitIN9libunwind15Registers_arm64E13unw_context_tE9blk_countIS1_EE"
  },
  {
   "alignment" : 1,
   "linker_set_key" : "check_fit<Registers_arm64, unw_context_t>::blk_count<unw_context_t>",
   "name" : "check_fit<Registers_arm64, unw_context_t>::blk_count<unw_context_t>",
   "referenced_type" : "type-411",
   "self_type" : "type-411",
   "size" : 1,
   "source_file" : "/external/libunwind_llvm/src/config.h",
   "template_args" : [ "type-136" ],
   "unique_id" : "_ZTSN9check_fitIN9libunwind15Registers_arm64E13unw_context_tE9blk_countIS2_EE"
  },
  {
   "alignment" : 1,
   "linker_set_key" : "check_fit<Registers_mips_newabi, unw_context_t>::blk_count<libunwind::Registers_mips_newabi>",
   "name" : "check_fit<Registers_mips_newabi, unw_context_t>::blk_count<libunwind::Registers_mips_newabi>",
   "referenced_type" : "type-423",
   "self_type" : "type-423",
   "size" : 1,
   "source_file" : "/external/libunwind_llvm/src/config.h",
   "template_args" : [ "type-230" ],
   "unique_id" : "_ZTSN9check_fitIN9libunwind21Registers_mips_newabiE13unw_context_tE9blk_countIS1_EE"
  },
  {
   "alignment" : 1,
   "linker_set_key" : "check_fit<Registers_mips_newabi, unw_context_t>::blk_count<unw_context_t>",
   "name" : "check_fit<Registers_mips_newabi, unw_context_t>::blk_count<unw_context_t>",
   "referenced_type" : "type-424",
   "self_type" : "type-424",
   "size" : 1,
   "source_file" : "/external/libunwind_llvm/src/config.h",
   "template_args" : [ "type-136" ],
   "unique_id" : "_ZTSN9check_fitIN9libunwind21Registers_mips_newabiE13unw_context_tE9blk_countIS2_EE"
  },
  {
   "alignment" : 1,
   "linker_set_key" : "check_fit<Registers_mips_o32, unw_context_t>::blk_count<libunwind::Registers_mips_o32>",
   "name" : "check_fit<Registers_mips_o32, unw_context_t>::blk_count<libunwind::Registers_mips_o32>",
   "referenced_type" : "type-420",
   "self_type" : "type-420",
   "size" : 1,
   "source_file" : "/external/libunwind_llvm/src/config.h",
   "template_args" : [ "type-224" ],
   "unique_id" : "_ZTSN9check_fitIN9libunwind18Registers_mips_o32E13unw_context_tE9blk_countIS1_EE"
  },
  {
   "alignment" : 1,
   "linker_set_key" : "check_fit<Registers_mips_o32, unw_context_t>::blk_count<unw_context_t>",
   "name" : "check_fit<Registers_mips_o32, unw_context_t>::blk_count<unw_context_t>",
   "referenced_type" : "type-421",
   "self_type" : "type-421",
   "size" : 1,
   "source_file" : "/external/libunwind_llvm/src/config.h",
   "template_args" : [ "type-136" ],
   "unique_id" : "_ZTSN9check_fitIN9libunwind18Registers_mips_o32E13unw_context_tE9blk_countIS2_EE"
  },
  {
   "alignment" : 1,
   "linker_set_key" : "check_fit<Registers_or1k, unw_context_t>::blk_count<libunwind::Registers_or1k>",
   "name" : "check_fit<Registers_or1k, unw_context_t>::blk_count<libunwind::Registers_or1k>",
   "referenced_type" : "type-417",
   "self_type" : "type-417",
   "size" : 1,
   "source_file" : "/external/libunwind_llvm/src/config.h",
   "template_args" : [ "type-219" ],
   "unique_id" : "_ZTSN9check_fitIN9libunwind14Registers_or1kE13unw_context_tE9blk_countIS1_EE"
  },
  {
   "alignment" : 1,
   "linker_set_key" : "check_fit<Registers_or1k, unw_context_t>::blk_count<unw_context_t>",
   "name" : "check_fit<Registers_or1k, unw_context_t>::blk_count<unw_context_t>",
   "referenced_type" : "type-418",
   "self_type" : "type-418",
   "size" : 1,
   "source_file" : "/external/libunwind_llvm/src/config.h",
   "template_args" : [ "type-136" ],
   "unique_id" : "_ZTSN9check_fitIN9libunwind14Registers_or1kE13unw_context_tE9blk_countIS2_EE"
  },
  {
   "alignment" : 1,
   "linker_set_key" : "check_fit<Registers_ppc, unw_context_t>::blk_count<libunwind::Registers_ppc>",
   "name" : "check_fit<Registers_ppc, unw_context_t>::blk_count<libunwind::Registers_ppc>",
   "referenced_type" : "type-404",
   "self_type" : "type-404",
   "size" : 1,
   "source_file" : "/external/libunwind_llvm/src/config.h",
   "template_args" : [ "type-196" ],
   "unique_id" : "_ZTSN9check_fitIN9libunwind13Registers_ppcE13unw_context_tE9blk_countIS1_EE"
  },
  {
   "alignment" : 1,
   "linker_set_key" : "check_fit<Registers_ppc, unw_context_t>::blk_count<unw_context_t>",
   "name" : "check_fit<Registers_ppc, unw_context_t>::blk_count<unw_context_t>",
   "referenced_type" : "type-405",
   "self_type" : "type-405",
   "size" : 1,
   "source_file" : "/external/libunwind_llvm/src/config.h",
   "template_args" : [ "type-136" ],
   "unique_id" : "_ZTSN9check_fitIN9libunwind13Registers_ppcE13unw_context_tE9blk_countIS2_EE"
  },
  {
   "alignment" : 1,
   "linker_set_key" : "check_fit<Registers_ppc64, unw_context_t>::blk_count<libunwind::Registers_ppc64>",
   "name" : "check_fit<Registers_ppc64, unw_context_t>::blk_count<libunwind::Registers_ppc64>",
   "referenced_type" : "type-407",
   "self_type" : "type-407",
   "size" : 1,
   "source_file" : "/external/libunwind_llvm/src/config.h",
   "template_args" : [ "type-204" ],
   "unique_id" : "_ZTSN9check_fitIN9libunwind15Registers_ppc64E13unw_context_tE9blk_countIS1_EE"
  },
  {
   "alignment" : 1,
   "linker_set_key" : "check_fit<Registers_ppc64, unw_context_t>::blk_count<unw_context_t>",
   "name" : "check_fit<Registers_ppc64, unw_context_t>::blk_count<unw_context_t>",
   "referenced_type" : "type-408",
   "self_type" : "type-408",
   "size" : 1,
   "source_file" : "/external/libunwind_llvm/src/config.h",
   "template_args" : [ "type-136" ],
   "unique_id" : "_ZTSN9check_fitIN9libunwind15Registers_ppc64E13unw_context_tE9blk_countIS2_EE"
  },
  {
   "alignment" : 1,
   "linker_set_key" : "check_fit<Registers_sparc, unw_context_t>::blk_count<libunwind::Registers_sparc>",
   "name" : "check_fit<Registers_sparc, unw_context_t>::blk_count<libunwind::Registers_sparc>",
   "referenced_type" : "type-134",
   "self_type" : "type-134",
   "size" : 1,
   "source_file" : "/external/libunwind_llvm/src/config.h",
   "template_args" : [ "type-131" ],
   "unique_id" : "_ZTSN9check_fitIN9libunwind15Registers_sparcE13unw_context_tE9blk_countIS1_EE"
  },
  {
   "alignment" : 1,
   "linker_set_key" : "check_fit<Registers_sparc, unw_context_t>::blk_count<unw_context_t>",
   "name" : "check_fit<Registers_sparc, unw_context_t>::blk_count<unw_context_t>",
   "referenced_type" : "type-135",
   "self_type" : "type-135",
   "size" : 1,
   "source_file" : "/external/libunwind_llvm/src/config.h",
   "template_args" : [ "type-136" ],
   "unique_id" : "_ZTSN9check_fitIN9libunwind15Registers_sparcE13unw_context_tE9blk_countIS2_EE"
  },
  {
   "alignment" : 1,
   "linker_set_key" : "check_fit<Registers_x86, unw_context_t>::blk_count<libunwind::Registers_x86>",
   "name" : "check_fit<Registers_x86, unw_context_t>::blk_count<libunwind::Registers_x86>",
   "referenced_type" : "type-398",
   "self_type" : "type-398",
   "size" : 1,
   "source_file" : "/external/libunwind_llvm/src/config.h",
   "template_args" : [ "type-182" ],
   "unique_id" : "_ZTSN9check_fitIN9libunwind13Registers_x86E13unw_context_tE9blk_countIS1_EE"
  },
  {
   "alignment" : 1,
   "linker_set_key" : "check_fit<Registers_x86, unw_context_t>::blk_count<unw_context_t>",
   "name" : "check_fit<Registers_x86, unw_context_t>::blk_count<unw_context_t>",
   "referenced_type" : "type-399",
   "self_type" : "type-399",
   "size" : 1,
   "source_file" : "/external/libunwind_llvm/src/config.h",
   "template_args" : [ "type-136" ],
   "unique_id" : "_ZTSN9check_fitIN9libunwind13Registers_x86E13unw_context_tE9blk_countIS2_EE"
  },
  {
   "alignment" : 1,
   "linker_set_key" : "check_fit<Registers_x86_64, unw_context_t>::blk_count<libunwind::Registers_x86_64>",
   "name" : "check_fit<Registers_x86_64, unw_context_t>::blk_count<libunwind::Registers_x86_64>",
   "referenced_type" : "type-401",
   "self_type" : "type-401",
   "size" : 1,
   "source_file" : "/external/libunwind_llvm/src/config.h",
   "template_args" : [ "type-188" ],
   "unique_id" : "_ZTSN9check_fitIN9libunwind16Registers_x86_64E13unw_context_tE9blk_countIS1_EE"
  },
  {
   "alignment" : 1,
   "linker_set_key" : "check_fit<Registers_x86_64, unw_context_t>::blk_count<unw_context_t>",
   "name" : "check_fit<Registers_x86_64, unw_context_t>::blk_count<unw_context_t>",
   "referenced_type" : "type-402",
   "self_type" : "type-402",
   "size" : 1,
   "source_file" : "/external/libunwind_llvm/src/config.h",
   "template_args" : [ "type-136" ],
   "unique_id" : "_ZTSN9check_fitIN9libunwind16Registers_x86_64E13unw_context_tE9blk_countIS2_EE"
  },
  {
   "alignment" : 1,
   "linker_set_key" : "check_fit<UnwindCursor<LocalAddressSpace, Registers_arm>, unw_cursor_t>::blk_count<libunwind::UnwindCursor<libunwind::LocalAddressSpace, libunwind::Registers_arm> >",
   "name" : "check_fit<UnwindCursor<LocalAddressSpace, Registers_arm>, unw_cursor_t>::blk_count<libunwind::UnwindCursor<libunwind::LocalAddressSpace, libunwind::Registers_arm> >",
   "referenced_type" : "type-152",
   "self_type" : "type-152",
   "size" : 1,
   "source_file" : "/external/libunwind_llvm/src/config.h",
   "template_args" : [ "type-139" ],
   "unique_id" : "_ZTSN9check_fitIN9libunwind12UnwindCursorINS0_17LocalAddressSpaceENS0_13Registers_armEEE12unw_cursor_tE9blk_countIS4_EE"
  },
  {
   "alignment" : 1,
   "linker_set_key" : "check_fit<UnwindCursor<LocalAddressSpace, Registers_arm>, unw_cursor_t>::blk_count<unw_cursor_t>",
   "name" : "check_fit<UnwindCursor<LocalAddressSpace, Registers_arm>, unw_cursor_t>::blk_count<unw_cursor_t>",
   "referenced_type" : "type-153",
   "self_type" : "type-153",
   "size" : 1,
   "source_file" : "/external/libunwind_llvm/src/config.h",
   "template_args" : [ "type-150" ],
   "unique_id" : "_ZTSN9check_fitIN9libunwind12UnwindCursorINS0_17LocalAddressSpaceENS0_13Registers_armEEE12unw_cursor_tE9blk_countIS5_EE"
  },
  {
   "alignment" : 1,
   "linker_set_key" : "check_fit<libunwind::Registers_arm, unw_context_t>",
   "name" : "check_fit<libunwind::Registers_arm, unw_context_t>",
   "referenced_type" : "type-412",
   "self_type" : "type-412",
   "size" : 1,
   "source_file" : "/external/libunwind_llvm/src/config.h",
   "template_args" : [ "type-142", "type-136" ],
   "unique_id" : "_ZTS9check_fitIN9libunwind13Registers_armE13unw_context_tE"
  },
  {
   "alignment" : 1,
   "linker_set_key" : "check_fit<libunwind::Registers_arm64, unw_context_t>",
   "name" : "check_fit<libunwind::Registers_arm64, unw_context_t>",
   "referenced_type" : "type-409",
   "self_type" : "type-409",
   "size" : 1,
   "source_file" : "/external/libunwind_llvm/src/config.h",
   "template_args" : [ "type-211", "type-136" ],
   "unique_id" : "_ZTS9check_fitIN9libunwind15Registers_arm64E13unw_context_tE"
  },
  {
   "alignment" : 1,
   "linker_set_key" : "check_fit<libunwind::Registers_mips_newabi, unw_context_t>",
   "name" : "check_fit<libunwind::Registers_mips_newabi, unw_context_t>",
   "referenced_type" : "type-422",
   "self_type" : "type-422",
   "size" : 1,
   "source_file" : "/external/libunwind_llvm/src/config.h",
   "template_args" : [ "type-230", "type-136" ],
   "unique_id" : "_ZTS9check_fitIN9libunwind21Registers_mips_newabiE13unw_context_tE"
  },
  {
   "alignment" : 1,
   "linker_set_key" : "check_fit<libunwind::Registers_mips_o32, unw_context_t>",
   "name" : "check_fit<libunwind::Registers_mips_o32, unw_context_t>",
   "referenced_type" : "type-419",
   "self_type" : "type-419",
   "size" : 1,
   "source_file" : "/external/libunwind_llvm/src/config.h",
   "template_args" : [ "type-224", "type-136" ],
   "unique_id" : "_ZTS9check_fitIN9libunwind18Registers_mips_o32E13unw_context_tE"
  },
  {
   "alignment" : 1,
   "linker_set_key" : "check_fit<libunwind::Registers_or1k, unw_context_t>",
   "name" : "check_fit<libunwind::Registers_or1k, unw_context_t>",
   "referenced_type" : "type-415",
   "self_type" : "type-415",
   "size" : 1,
   "source_file" : "/external/libunwind_llvm/src/config.h",
   "template_args" : [ "type-219", "type-136" ],
   "unique_id" : "_ZTS9check_fitIN9libunwind14Registers_or1kE13unw_context_tE"
  },
  {
   "alignment" : 1,
   "linker_set_key" : "check_fit<libunwind::Registers_ppc, unw_context_t>",
   "name" : "check_fit<libunwind::Registers_ppc, unw_context_t>",
   "referenced_type" : "type-403",
   "self_type" : "type-403",
   "size" : 1,
   "source_file" : "/external/libunwind_llvm/src/config.h",
   "template_args" : [ "type-196", "type-136" ],
   "unique_id" : "_ZTS9check_fitIN9libunwind13Registers_ppcE13unw_context_tE"
  },
  {
   "alignment" : 1,
   "linker_set_key" : "check_fit<libunwind::Registers_ppc64, unw_context_t>",
   "name" : "check_fit<libunwind::Registers_ppc64, unw_context_t>",
   "referenced_type" : "type-406",
   "self_type" : "type-406",
   "size" : 1,
   "source_file" : "/external/libunwind_llvm/src/config.h",
   "template_args" : [ "type-204", "type-136" ],
   "unique_id" : "_ZTS9check_fitIN9libunwind15Registers_ppc64E13unw_context_tE"
  },
  {
   "alignment" : 1,
   "linker_set_key" : "check_fit<libunwind::Registers_sparc, unw_context_t>",
   "name" : "check_fit<libunwind::Registers_sparc, unw_context_t>",
   "referenced_type" : "type-425",
   "self_type" : "type-425",
   "size" : 1,
   "source_file" : "/external/libunwind_llvm/src/config.h",
   "template_args" : [ "type-131", "type-136" ],
   "unique_id" : "_ZTS9check_fitIN9libunwind15Registers_sparcE13unw_context_tE"
  },
  {
   "alignment" : 1,
   "linker_set_key" : "check_fit<libunwind::Registers_x86, unw_context_t>",
   "name" : "check_fit<libunwind::Registers_x86, unw_context_t>",
   "referenced_type" : "type-397",
   "self_type" : "type-397",
   "size" : 1,
   "source_file" : "/external/libunwind_llvm/src/config.h",
   "template_args" : [ "type-182", "type-136" ],
   "unique_id" : "_ZTS9check_fitIN9libunwind13Registers_x86E13unw_context_tE"
  },
  {
   "alignment" : 1,
   "linker_set_key" : "check_fit<libunwind::Registers_x86_64, unw_context_t>",
   "name" : "check_fit<libunwind::Registers_x86_64, unw_context_t>",
   "referenced_type" : "type-400",
   "self_type" : "type-400",
   "size" : 1,
   "source_file" : "/external/libunwind_llvm/src/config.h",
   "template_args" : [ "type-188", "type-136" ],
   "unique_id" : "_ZTS9check_fitIN9libunwind16Registers_x86_64E13unw_context_tE"
  },
  {
   "alignment" : 1,
   "linker_set_key" : "check_fit<libunwind::UnwindCursor<libunwind::LocalAddressSpace, libunwind::Registers_arm>, unw_cursor_t>",
   "name" : "check_fit<libunwind::UnwindCursor<libunwind::LocalAddressSpace, libunwind::Registers_arm>, unw_cursor_t>",
   "referenced_type" : "type-138",
   "self_type" : "type-138",
   "size" : 1,
   "source_file" : "/external/libunwind_llvm/src/config.h",
   "template_args" : [ "type-139", "type-150" ],
   "unique_id" : "_ZTS9check_fitIN9libunwind12UnwindCursorINS0_17LocalAddressSpaceENS0_13Registers_armEEE12unw_cursor_tE"
  },
  {
   "alignment" : 4,
   "fields" :
   [
    {
     "field_name" : "ar",
     "referenced_type" : "type-30"
    },
    {
     "field_name" : "path",
     "field_offset" : 32,
     "referenced_type" : "type-25"
    },
    {
     "field_name" : "level",
     "field_offset" : 64,
     "referenced_type" : "type-4"
    }
   ],
   "linker_set_key" : "config_parse_state",
   "name" : "config_parse_state",
   "referenced_type" : "type-29",
   "self_type" : "type-29",
   "size" : 12,
   "source_file" : "/system/media/audio_route/audio_route.c",
   "unique_id" : "config_parse_state"
  },
  {
   "alignment" : 4,
   "fields" :
   [
    {
     "field_name" : "__bits",
     "referenced_type" : "type-303"
    }
   ],
   "linker_set_key" : "cpu_set_t",
   "name" : "cpu_set_t",
   "referenced_type" : "type-302",
   "self_type" : "type-302",
   "size" : 4,
   "source_file" : "/out/soong/.intermediates/bionic/libc/libc.llndk/android_arm_armv8-a_vendor_shared/gen/include/sched.h",
   "unique_id" : "cpu_set_t"
  },
  {
   "alignment" : 4,
   "fields" :
   [
    {
     "field_name" : "enumerated",
     "referenced_type" : "type-11"
    },
    {
     "field_name" : "integer",
     "referenced_type" : "type-12"
    },
    {
     "field_name" : "ptr",
     "referenced_type" : "type-14"
    },
    {
     "field_name" : "bytes",
     "referenced_type" : "type-16"
    }
   ],
   "linker_set_key" : "ctl_values",
   "name" : "ctl_values",
   "record_kind" : "union",
   "referenced_type" : "type-10",
   "self_type" : "type-10",
   "size" : 4,
   "source_file" : "/system/media/audio_route/audio_route.c",
   "unique_id" : "ctl_values"
  },
  {
   "alignment" : 4,
   "fields" :
   [
    {
     "field_name" : "quot",
     "referenced_type" : "type-4"
    },
    {
     "field_name" : "rem",
     "field_offset" : 32,
     "referenced_type" : "type-4"
    }
   ],
   "linker_set_key" : "div_t",
   "name" : "div_t",
   "referenced_type" : "type-69",
   "self_type" : "type-69",
   "size" : 8,
   "source_file" : "/out/soong/.intermediates/bionic/libc/libc.llndk/android_arm_armv8-a_vendor_shared/gen/include/stdlib.h",
   "unique_id" : "div_t"
  },
  {
   "alignment" : 4,
   "fields" :
   [
    {
     "field_name" : "addressSpace",
     "referenced_type" : "type-286"
    },
    {
     "field_name" : "sects",
     "field_offset" : 32,
     "referenced_type" : "type-290"
    },
    {
     "field_name" : "targetAddr",
     "field_offset" : 64,
     "referenced_type" : "type-9"
    }
   ],
   "linker_set_key" : "dl_iterate_cb_data",
   "name" : "dl_iterate_cb_data",
   "referenced_type" : "type-289",
   "self_type" : "type-289",
   "size" : 12,
   "source_file" : "/external/libunwind_llvm/src/AddressSpace.hpp",
   "unique_id" : "_ZTSZN9libunwind17LocalAddressSpace18findUnwindSectionsEjRNS_18UnwindInfoSectionsEE18dl_iterate_cb_data"
  },
  {
   "alignment" : 4,
   "fields" :
   [
    {
     "field_name" : "dlpi_addr",
     "referenced_type" : "type-9"
    },
    {
     "field_name" : "dlpi_name",
     "field_offset" : 32,
     "referenced_type" : "type-91"
    },
    {
     "field_name" : "dlpi_phdr",
     "field_offset" : 64,
     "referenced_type" : "type-277"
    },
    {
     "field_name" : "dlpi_phnum",
     "field_offset" : 96,
     "referenced_type" : "type-108"
    }
   ],
   "linker_set_key" : "dl_phdr_info",
   "name" : "dl_phdr_info",
   "referenced_type" : "type-276",
   "self_type" : "type-276",
   "size" : 16,
   "source_file" : "/out/soong/.intermediates/bionic/libc/libc.llndk/android_arm_armv8-a_vendor_shared/gen/include/link.h",
   "unique_id" : "dl_phdr_info"
  },
  {
   "alignment" : 4,
   "fields" :
   [
    {
     "field_name" : "tbase",
     "referenced_type" : "type-9"
    },
    {
     "field_name" : "dbase",
     "field_offset" : 32,
     "referenced_type" : "type-9"
    },
    {
     "field_name" : "func",
     "field_offset" : 64,
     "referenced_type" : "type-9"
    }
   ],
   "linker_set_key" : "dwarf_eh_bases",
   "name" : "dwarf_eh_bases",
   "referenced_type" : "type-171",
   "self_type" : "type-171",
   "size" : 12,
   "source_file" : "/external/libunwind_llvm/include/unwind.h",
   "unique_id" : "dwarf_eh_bases"
  },
  {
   "alignment" : 4,
   "fields" :
   [
    {
     "field_name" : "d_tag",
     "referenced_type" : "type-4"
    },
    {
     "field_name" : "d_un",
     "field_offset" : 32,
     "referenced_type" : "type-237"
    }
   ],
   "linker_set_key" : "dynamic",
   "name" : "dynamic",
   "referenced_type" : "type-236",
   "self_type" : "type-236",
   "size" : 8,
   "source_file" : "/bionic/libc/kernel/uapi/linux/elf.h",
   "unique_id" : "_ZTS7dynamic"
  },
  {
   "alignment" : 4,
   "fields" :
   [
    {
     "field_name" : "d_val",
     "referenced_type" : "type-4"
    },
    {
     "field_name" : "d_ptr",
     "referenced_type" : "type-9"
    }
   ],
   "is_anonymous" : true,
   "linker_set_key" : "dynamic::(anonymous union at bionic/libc/kernel/uapi/linux/elf.h:119:3) at bionic/libc/kernel/uapi/linux/elf.h:119:3",
   "name" : "dynamic::(anonymous union at bionic/libc/kernel/uapi/linux/elf.h:119:3) at bionic/libc/kernel/uapi/linux/elf.h:119:3",
   "record_kind" : "union",
   "referenced_type" : "type-237",
   "self_type" : "type-237",
   "size" : 4,
   "source_file" : "/bionic/libc/kernel/uapi/linux/elf.h",
   "unique_id" : "_ZTSN7dynamicUt_E"
  },
  {
   "alignment" : 4,
   "fields" :
   [
    {
     "field_name" : "e_ident",
     "referenced_type" : "type-247"
    },
    {
     "field_name" : "e_type",
     "field_offset" : 128,
     "referenced_type" : "type-108"
    },
    {
     "field_name" : "e_machine",
     "field_offset" : 144,
     "referenced_type" : "type-108"
    },
    {
     "field_name" : "e_version",
     "field_offset" : 160,
     "referenced_type" : "type-9"
    },
    {
     "field_name" : "e_entry",
     "field_offset" : 192,
     "referenced_type" : "type-9"
    },
    {
     "field_name" : "e_phoff",
     "field_offset" : 224,
     "referenced_type" : "type-9"
    },
    {
     "field_name" : "e_shoff",
     "field_offset" : 256,
     "referenced_type" : "type-9"
    },
    {
     "field_name" : "e_flags",
     "field_offset" : 288,
     "referenced_type" : "type-9"
    },
    {
     "field_name" : "e_ehsize",
     "field_offset" : 320,
     "referenced_type" : "type-108"
    },
    {
     "field_name" : "e_phentsize",
     "field_offset" : 336,
     "referenced_type" : "type-108"
    },
    {
     "field_name" : "e_phnum",
     "field_offset" : 352,
     "referenced_type" : "type-108"
    },
    {
     "field_name" : "e_shentsize",
     "field_offset" : 368,
     "referenced_type" : "type-108"
    },
    {
     "field_name" : "e_shnum",
     "field_offset" : 384,
     "referenced_type" : "type-108"
    },
    {
     "field_name" : "e_shstrndx",
     "field_offset" : 400,
     "referenced_type" : "type-108"
    }
   ],
   "linker_set_key" : "elf32_hdr",
   "name" : "elf32_hdr",
   "referenced_type" : "type-246",
   "self_type" : "type-246",
   "size" : 52,
   "source_file" : "/bionic/libc/kernel/uapi/linux/elf.h",
   "unique_id" : "_ZTS9elf32_hdr"
  },
  {
   "alignment" : 4,
   "fields" :
   [
    {
     "field_name" : "n_namesz",
     "referenced_type" : "type-9"
    },
    {
     "field_name" : "n_descsz",
     "field_offset" : 32,
     "referenced_type" : "type-9"
    },
    {
     "field_name" : "n_type",
     "field_offset" : 64,
     "referenced_type" : "type-9"
    }
   ],
   "linker_set_key" : "elf32_note",
   "name" : "elf32_note",
   "referenced_type" : "type-254",
   "self_type" : "type-254",
   "size" : 12,
   "source_file" : "/bionic/libc/kernel/uapi/linux/elf.h",
   "unique_id" : "_ZTS10elf32_note"
  },
  {
   "alignment" : 4,
   "fields" :
   [
    {
     "field_name" : "p_type",
     "referenced_type" : "type-9"
    },
    {
     "field_name" : "p_offset",
     "field_offset" : 32,
     "referenced_type" : "type-9"
    },
    {
     "field_name" : "p_vaddr",
     "field_offset" : 64,
     "referenced_type" : "type-9"
    },
    {
     "field_name" : "p_paddr",
     "field_offset" : 96,
     "referenced_type" : "type-9"
    },
    {
     "field_name" : "p_filesz",
     "field_offset" : 128,
     "referenced_type" : "type-9"
    },
    {
     "field_name" : "p_memsz",
     "field_offset" : 160,
     "referenced_type" : "type-9"
    },
    {
     "field_name" : "p_flags",
     "field_offset" : 192,
     "referenced_type" : "type-9"
    },
    {
     "field_name" : "p_align",
     "field_offset" : 224,
     "referenced_type" : "type-9"
    }
   ],
   "linker_set_key" : "elf32_phdr",
   "name" : "elf32_phdr",
   "referenced_type" : "type-249",
   "self_type" : "type-249",
   "size" : 32,
   "source_file" : "/bionic/libc/kernel/uapi/linux/elf.h",
   "unique_id" : "_ZTS10elf32_phdr"
  },
  {
   "alignment" : 4,
   "fields" :
   [
    {
     "field_name" : "r_offset",
     "referenced_type" : "type-9"
    },
    {
     "field_name" : "r_info",
     "field_offset" : 32,
     "referenced_type" : "type-9"
    }
   ],
   "linker_set_key" : "elf32_rel",
   "name" : "elf32_rel",
   "referenced_type" : "type-240",
   "self_type" : "type-240",
   "size" : 8,
   "source_file" : "/bionic/libc/kernel/uapi/linux/elf.h",
   "unique_id" : "_ZTS9elf32_rel"
  },
  {
   "alignment" : 4,
   "fields" :
   [
    {
     "field_name" : "r_offset",
     "referenced_type" : "type-9"
    },
    {
     "field_name" : "r_info",
     "field_offset" : 32,
     "referenced_type" : "type-9"
    },
    {
     "field_name" : "r_addend",
     "field_offset" : 64,
     "referenced_type" : "type-4"
    }
   ],
   "linker_set_key" : "elf32_rela",
   "name" : "elf32_rela",
   "referenced_type" : "type-242",
   "self_type" : "type-242",
   "size" : 12,
   "source_file" : "/bionic/libc/kernel/uapi/linux/elf.h",
   "unique_id" : "_ZTS10elf32_rela"
  },
  {
   "alignment" : 4,
   "fields" :
   [
    {
     "field_name" : "sh_name",
     "referenced_type" : "type-9"
    },
    {
     "field_name" : "sh_type",
     "field_offset" : 32,
     "referenced_type" : "type-9"
    },
    {
     "field_name" : "sh_flags",
     "field_offset" : 64,
     "referenced_type" : "type-9"
    },
    {
     "field_name" : "sh_addr",
     "field_offset" : 96,
     "referenced_type" : "type-9"
    },
    {
     "field_name" : "sh_offset",
     "field_offset" : 128,
     "referenced_type" : "type-9"
    },
    {
     "field_name" : "sh_size",
     "field_offset" : 160,
     "referenced_type" : "type-9"
    },
    {
     "field_name" : "sh_link",
     "field_offset" : 192,
     "referenced_type" : "type-9"
    },
    {
     "field_name" : "sh_info",
     "field_offset" : 224,
     "referenced_type" : "type-9"
    },
    {
     "field_name" : "sh_addralign",
     "field_offset" : 256,
     "referenced_type" : "type-9"
    },
    {
     "field_name" : "sh_entsize",
     "field_offset" : 288,
     "referenced_type" : "type-9"
    }
   ],
   "linker_set_key" : "elf32_shdr",
   "name" : "elf32_shdr",
   "referenced_type" : "type-252",
   "self_type" : "type-252",
   "size" : 40,
   "source_file" : "/bionic/libc/kernel/uapi/linux/elf.h",
   "unique_id" : "_ZTS10elf32_shdr"
  },
  {
   "alignment" : 4,
   "fields" :
   [
    {
     "field_name" : "st_name",
     "referenced_type" : "type-9"
    },
    {
     "field_name" : "st_value",
     "field_offset" : 32,
     "referenced_type" : "type-9"
    },
    {
     "field_name" : "st_size",
     "field_offset" : 64,
     "referenced_type" : "type-9"
    },
    {
     "field_name" : "st_info",
     "field_offset" : 96,
     "referenced_type" : "type-17"
    },
    {
     "field_name" : "st_other",
     "field_offset" : 104,
     "referenced_type" : "type-17"
    },
    {
     "field_name" : "st_shndx",
     "field_offset" : 112,
     "referenced_type" : "type-108"
    }
   ],
   "linker_set_key" : "elf32_sym",
   "name" : "elf32_sym",
   "referenced_type" : "type-244",
   "self_type" : "type-244",
   "size" : 16,
   "source_file" : "/bionic/libc/kernel/uapi/linux/elf.h",
   "unique_id" : "_ZTS9elf32_sym"
  },
  {
   "alignment" : 8,
   "fields" :
   [
    {
     "field_name" : "e_ident",
     "referenced_type" : "type-247"
    },
    {
     "field_name" : "e_type",
     "field_offset" : 128,
     "referenced_type" : "type-108"
    },
    {
     "field_name" : "e_machine",
     "field_offset" : 144,
     "referenced_type" : "type-108"
    },
    {
     "field_name" : "e_version",
     "field_offset" : 160,
     "referenced_type" : "type-9"
    },
    {
     "field_name" : "e_entry",
     "field_offset" : 192,
     "referenced_type" : "type-107"
    },
    {
     "field_name" : "e_phoff",
     "field_offset" : 256,
     "referenced_type" : "type-107"
    },
    {
     "field_name" : "e_shoff",
     "field_offset" : 320,
     "referenced_type" : "type-107"
    },
    {
     "field_name" : "e_flags",
     "field_offset" : 384,
     "referenced_type" : "type-9"
    },
    {
     "field_name" : "e_ehsize",
     "field_offset" : 416,
     "referenced_type" : "type-108"
    },
    {
     "field_name" : "e_phentsize",
     "field_offset" : 432,
     "referenced_type" : "type-108"
    },
    {
     "field_name" : "e_phnum",
     "field_offset" : 448,
     "referenced_type" : "type-108"
    },
    {
     "field_name" : "e_shentsize",
     "field_offset" : 464,
     "referenced_type" : "type-108"
    },
    {
     "field_name" : "e_shnum",
     "field_offset" : 480,
     "referenced_type" : "type-108"
    },
    {
     "field_name" : "e_shstrndx",
     "field_offset" : 496,
     "referenced_type" : "type-108"
    }
   ],
   "linker_set_key" : "elf64_hdr",
   "name" : "elf64_hdr",
   "referenced_type" : "type-248",
   "self_type" : "type-248",
   "size" : 64,
   "source_file" : "/bionic/libc/kernel/uapi/linux/elf.h",
   "unique_id" : "_ZTS9elf64_hdr"
  },
  {
   "alignment" : 4,
   "fields" :
   [
    {
     "field_name" : "n_namesz",
     "referenced_type" : "type-9"
    },
    {
     "field_name" : "n_descsz",
     "field_offset" : 32,
     "referenced_type" : "type-9"
    },
    {
     "field_name" : "n_type",
     "field_offset" : 64,
     "referenced_type" : "type-9"
    }
   ],
   "linker_set_key" : "elf64_note",
   "name" : "elf64_note",
   "referenced_type" : "type-255",
   "self_type" : "type-255",
   "size" : 12,
   "source_file" : "/bionic/libc/kernel/uapi/linux/elf.h",
   "unique_id" : "_ZTS10elf64_note"
  },
  {
   "alignment" : 8,
   "fields" :
   [
    {
     "field_name" : "p_type",
     "referenced_type" : "type-9"
    },
    {
     "field_name" : "p_flags",
     "field_offset" : 32,
     "referenced_type" : "type-9"
    },
    {
     "field_name" : "p_offset",
     "field_offset" : 64,
     "referenced_type" : "type-107"
    },
    {
     "field_name" : "p_vaddr",
     "field_offset" : 128,
     "referenced_type" : "type-107"
    },
    {
     "field_name" : "p_paddr",
     "field_offset" : 192,
     "referenced_type" : "type-107"
    },
    {
     "field_name" : "p_filesz",
     "field_offset" : 256,
     "referenced_type" : "type-107"
    },
    {
     "field_name" : "p_memsz",
     "field_offset" : 320,
     "referenced_type" : "type-107"
    },
    {
     "field_name" : "p_align",
     "field_offset" : 384,
     "referenced_type" : "type-107"
    }
   ],
   "linker_set_key" : "elf64_phdr",
   "name" : "elf64_phdr",
   "referenced_type" : "type-250",
   "self_type" : "type-250",
   "size" : 56,
   "source_file" : "/bionic/libc/kernel/uapi/linux/elf.h",
   "unique_id" : "_ZTS10elf64_phdr"
  },
  {
   "alignment" : 8,
   "fields" :
   [
    {
     "field_name" : "r_offset",
     "referenced_type" : "type-107"
    },
    {
     "field_name" : "r_info",
     "field_offset" : 64,
     "referenced_type" : "type-107"
    }
   ],
   "linker_set_key" : "elf64_rel",
   "name" : "elf64_rel",
   "referenced_type" : "type-241",
   "self_type" : "type-241",
   "size" : 16,
   "source_file" : "/bionic/libc/kernel/uapi/linux/elf.h",
   "unique_id" : "_ZTS9elf64_rel"
  },
  {
   "alignment" : 8,
   "fields" :
   [
    {
     "field_name" : "r_offset",
     "referenced_type" : "type-107"
    },
    {
     "field_name" : "r_info",
     "field_offset" : 64,
     "referenced_type" : "type-107"
    },
    {
     "field_name" : "r_addend",
     "field_offset" : 128,
     "referenced_type" : "type-72"
    }
   ],
   "linker_set_key" : "elf64_rela",
   "name" : "elf64_rela",
   "referenced_type" : "type-243",
   "self_type" : "type-243",
   "size" : 24,
   "source_file" : "/bionic/libc/kernel/uapi/linux/elf.h",
   "unique_id" : "_ZTS10elf64_rela"
  },
  {
   "alignment" : 8,
   "fields" :
   [
    {
     "field_name" : "sh_name",
     "referenced_type" : "type-9"
    },
    {
     "field_name" : "sh_type",
     "field_offset" : 32,
     "referenced_type" : "type-9"
    },
    {
     "field_name" : "sh_flags",
     "field_offset" : 64,
     "referenced_type" : "type-107"
    },
    {
     "field_name" : "sh_addr",
     "field_offset" : 128,
     "referenced_type" : "type-107"
    },
    {
     "field_name" : "sh_offset",
     "field_offset" : 192,
     "referenced_type" : "type-107"
    },
    {
     "field_name" : "sh_size",
     "field_offset" : 256,
     "referenced_type" : "type-107"
    },
    {
     "field_name" : "sh_link",
     "field_offset" : 320,
     "referenced_type" : "type-9"
    },
    {
     "field_name" : "sh_info",
     "field_offset" : 352,
     "referenced_type" : "type-9"
    },
    {
     "field_name" : "sh_addralign",
     "field_offset" : 384,
     "referenced_type" : "type-107"
    },
    {
     "field_name" : "sh_entsize",
     "field_offset" : 448,
     "referenced_type" : "type-107"
    }
   ],
   "linker_set_key" : "elf64_shdr",
   "name" : "elf64_shdr",
   "referenced_type" : "type-253",
   "self_type" : "type-253",
   "size" : 64,
   "source_file" : "/bionic/libc/kernel/uapi/linux/elf.h",
   "unique_id" : "_ZTS10elf64_shdr"
  },
  {
   "alignment" : 8,
   "fields" :
   [
    {
     "field_name" : "st_name",
     "referenced_type" : "type-9"
    },
    {
     "field_name" : "st_info",
     "field_offset" : 32,
     "referenced_type" : "type-17"
    },
    {
     "field_name" : "st_other",
     "field_offset" : 40,
     "referenced_type" : "type-17"
    },
    {
     "field_name" : "st_shndx",
     "field_offset" : 48,
     "referenced_type" : "type-108"
    },
    {
     "field_name" : "st_value",
     "field_offset" : 64,
     "referenced_type" : "type-107"
    },
    {
     "field_name" : "st_size",
     "field_offset" : 128,
     "referenced_type" : "type-107"
    }
   ],
   "linker_set_key" : "elf64_sym",
   "name" : "elf64_sym",
   "referenced_type" : "type-245",
   "self_type" : "type-245",
   "size" : 24,
   "source_file" : "/bionic/libc/kernel/uapi/linux/elf.h",
   "unique_id" : "_ZTS9elf64_sym"
  },
  {
   "alignment" : 4,
   "fields" :
   [
    {
     "field_name" : "type",
     "referenced_type" : "type-4"
    },
    {
     "field_name" : "pid",
     "field_offset" : 32,
     "referenced_type" : "type-4"
    }
   ],
   "linker_set_key" : "f_owner_ex",
   "name" : "f_owner_ex",
   "referenced_type" : "type-102",
   "self_type" : "type-102",
   "size" : 8,
   "source_file" : "/bionic/libc/kernel/uapi/asm-generic/fcntl.h",
   "unique_id" : "f_owner_ex"
  },
  {
   "alignment" : 4,
   "fields" :
   [
    {
     "field_name" : "fds_bits",
     "referenced_type" : "type-2"
    }
   ],
   "linker_set_key" : "fd_set",
   "name" : "fd_set",
   "referenced_type" : "type-492",
   "self_type" : "type-492",
   "size" : 128,
   "source_file" : "/out/soong/.intermediates/bionic/libc/libc.llndk/android_arm_armv8-a_vendor_shared/gen/include/sys/select.h",
   "unique_id" : "fd_set"
  },
  {
   "alignment" : 4,
   "fields" :
   [
    {
     "field_name" : "l_type",
     "referenced_type" : "type-45"
    },
    {
     "field_name" : "l_whence",
     "field_offset" : 16,
     "referenced_type" : "type-45"
    },
    {
     "field_name" : "l_start",
     "field_offset" : 32,
     "referenced_type" : "type-13"
    },
    {
     "field_name" : "l_len",
     "field_offset" : 64,
     "referenced_type" : "type-13"
    },
    {
     "field_name" : "l_pid",
     "field_offset" : 96,
     "referenced_type" : "type-4"
    }
   ],
   "linker_set_key" : "flock",
   "name" : "flock",
   "referenced_type" : "type-103",
   "self_type" : "type-103",
   "size" : 16,
   "source_file" : "/bionic/libc/kernel/uapi/asm-generic/fcntl.h",
   "unique_id" : "flock"
  },
  {
   "alignment" : 8,
   "fields" :
   [
    {
     "field_name" : "l_type",
     "referenced_type" : "type-45"
    },
    {
     "field_name" : "l_whence",
     "field_offset" : 16,
     "referenced_type" : "type-45"
    },
    {
     "field_name" : "l_start",
     "field_offset" : 64,
     "referenced_type" : "type-72"
    },
    {
     "field_name" : "l_len",
     "field_offset" : 128,
     "referenced_type" : "type-72"
    },
    {
     "field_name" : "l_pid",
     "field_offset" : 192,
     "referenced_type" : "type-4"
    }
   ],
   "linker_set_key" : "flock64",
   "name" : "flock64",
   "referenced_type" : "type-104",
   "self_type" : "type-104",
   "size" : 32,
   "source_file" : "/bionic/libc/kernel/uapi/asm-generic/fcntl.h",
   "unique_id" : "flock64"
  },
  {
   "alignment" : 4,
   "fields" :
   [
    {
     "field_name" : "sign1",
     "referenced_type" : "type-9"
    },
    {
     "field_name" : "unused",
     "field_offset" : 1,
     "referenced_type" : "type-9"
    },
    {
     "field_name" : "sign2",
     "field_offset" : 16,
     "referenced_type" : "type-9"
    },
    {
     "field_name" : "exponent",
     "field_offset" : 17,
     "referenced_type" : "type-9"
    },
    {
     "field_name" : "j",
     "field_offset" : 31,
     "referenced_type" : "type-9"
    },
    {
     "field_name" : "mantissa1",
     "field_offset" : 32,
     "referenced_type" : "type-9"
    },
    {
     "field_name" : "mantissa0",
     "field_offset" : 64,
     "referenced_type" : "type-9"
    }
   ],
   "linker_set_key" : "fp_reg",
   "name" : "fp_reg",
   "referenced_type" : "type-450",
   "self_type" : "type-450",
   "size" : 12,
   "source_file" : "/out/soong/.intermediates/bionic/libc/libc.llndk/android_arm_armv8-a_vendor_shared/gen/include/sys/user.h",
   "unique_id" : "fp_reg"
  },
  {
   "alignment" : 8,
   "fields" :
   [
    {
     "field_name" : "quot",
     "referenced_type" : "type-72"
    },
    {
     "field_name" : "rem",
     "field_offset" : 64,
     "referenced_type" : "type-72"
    }
   ],
   "linker_set_key" : "imaxdiv_t",
   "name" : "imaxdiv_t",
   "referenced_type" : "type-177",
   "self_type" : "type-177",
   "size" : 16,
   "source_file" : "/out/soong/.intermediates/bionic/libc/libc.llndk/android_arm_armv8-a_vendor_shared/gen/include/inttypes.h",
   "unique_id" : "_ZTS9imaxdiv_t"
  },
  {
   "alignment" : 8,
   "fields" :
   [
    {
     "field_name" : "quot",
     "referenced_type" : "type-72"
    },
    {
     "field_name" : "rem",
     "field_offset" : 64,
     "referenced_type" : "type-72"
    }
   ],
   "linker_set_key" : "imaxdiv_t",
   "name" : "imaxdiv_t",
   "referenced_type" : "type-452",
   "self_type" : "type-452",
   "size" : 16,
   "source_file" : "/out/soong/.intermediates/bionic/libc/libc.llndk/android_arm_armv8-a_vendor_shared/gen/include/inttypes.h",
   "unique_id" : "imaxdiv_t"
  },
  {
   "alignment" : 4,
   "fields" :
   [
    {
     "field_name" : "iov_base",
     "referenced_type" : "type-14"
    },
    {
     "field_name" : "iov_len",
     "field_offset" : 32,
     "referenced_type" : "type-9"
    }
   ],
   "linker_set_key" : "iovec",
   "name" : "iovec",
   "referenced_type" : "type-111",
   "self_type" : "type-111",
   "size" : 8,
   "source_file" : "/bionic/libc/kernel/uapi/linux/uio.h",
   "unique_id" : "iovec"
  },
  {
   "alignment" : 4,
   "fields" :
   [
    {
     "field_name" : "it_interval",
     "referenced_type" : "type-121"
    },
    {
     "field_name" : "it_value",
     "field_offset" : 64,
     "referenced_type" : "type-121"
    }
   ],
   "linker_set_key" : "itimerspec",
   "name" : "itimerspec",
   "referenced_type" : "type-124",
   "self_type" : "type-124",
   "size" : 16,
   "source_file" : "/bionic/libc/kernel/uapi/linux/time.h",
   "unique_id" : "itimerspec"
  },
  {
   "alignment" : 4,
   "fields" :
   [
    {
     "field_name" : "it_interval",
     "referenced_type" : "type-300"
    },
    {
     "field_name" : "it_value",
     "field_offset" : 64,
     "referenced_type" : "type-300"
    }
   ],
   "linker_set_key" : "itimerspec",
   "name" : "itimerspec",
   "referenced_type" : "type-306",
   "self_type" : "type-306",
   "size" : 16,
   "source_file" : "/bionic/libc/kernel/uapi/linux/time.h",
   "unique_id" : "_ZTS10itimerspec"
  },
  {
   "alignment" : 4,
   "fields" :
   [
    {
     "field_name" : "it_interval",
     "referenced_type" : "type-122"
    },
    {
     "field_name" : "it_value",
     "field_offset" : 64,
     "referenced_type" : "type-122"
    }
   ],
   "linker_set_key" : "itimerval",
   "name" : "itimerval",
   "referenced_type" : "type-125",
   "self_type" : "type-125",
   "size" : 16,
   "source_file" : "/bionic/libc/kernel/uapi/linux/time.h",
   "unique_id" : "itimerval"
  },
  {
   "alignment" : 4,
   "fields" :
   [
    {
     "field_name" : "it_interval",
     "referenced_type" : "type-304"
    },
    {
     "field_name" : "it_value",
     "field_offset" : 64,
     "referenced_type" : "type-304"
    }
   ],
   "linker_set_key" : "itimerval",
   "name" : "itimerval",
   "referenced_type" : "type-307",
   "self_type" : "type-307",
   "size" : 16,
   "source_file" : "/bionic/libc/kernel/uapi/linux/time.h",
   "unique_id" : "_ZTS9itimerval"
  },
  {
   "alignment" : 4,
   "fields" :
   [
    {
     "field_name" : "quot",
     "referenced_type" : "type-13"
    },
    {
     "field_name" : "rem",
     "field_offset" : 32,
     "referenced_type" : "type-13"
    }
   ],
   "linker_set_key" : "ldiv_t",
   "name" : "ldiv_t",
   "referenced_type" : "type-70",
   "self_type" : "type-70",
   "size" : 8,
   "source_file" : "/out/soong/.intermediates/bionic/libc/libc.llndk/android_arm_armv8-a_vendor_shared/gen/include/stdlib.h",
   "unique_id" : "ldiv_t"
  },
  {
   "alignment" : 4,
   "linker_set_key" : "libunwind::AbstractUnwindCursor",
   "name" : "libunwind::AbstractUnwindCursor",
   "record_kind" : "class",
   "referenced_type" : "type-149",
   "self_type" : "type-149",
   "size" : 4,
   "source_file" : "/external/libunwind_llvm/src/UnwindCursor.hpp",
   "unique_id" : "_ZTSN9libunwind20AbstractUnwindCursorE",
   "vtable_components" :
   [
    {
     "kind" : "offset_to_top"
    },
    {
     "kind" : "rtti",
     "mangled_component_name" : "_ZTIN9libunwind20AbstractUnwindCursorE"
    },
    {
     "kind" : "complete_dtor_pointer",
     "mangled_component_name" : "_ZN9libunwind20AbstractUnwindCursorD1Ev"
    },
    {
     "kind" : "deleting_dtor_pointer",
     "mangled_component_name" : "_ZN9libunwind20AbstractUnwindCursorD0Ev"
    },
    {
     "mangled_component_name" : "_ZN9libunwind20AbstractUnwindCursor8validRegEi"
    },
    {
     "mangled_component_name" : "_ZN9libunwind20AbstractUnwindCursor6getRegEi"
    },
    {
     "mangled_component_name" : "_ZN9libunwind20AbstractUnwindCursor6setRegEij"
    },
    {
     "mangled_component_name" : "_ZN9libunwind20AbstractUnwindCursor13validFloatRegEi"
    },
    {
     "mangled_component_name" : "_ZN9libunwind20AbstractUnwindCursor11getFloatRegEi"
    },
    {
     "mangled_component_name" : "_ZN9libunwind20AbstractUnwindCursor11setFloatRegEiy"
    },
    {
     "mangled_component_name" : "_ZN9libunwind20AbstractUnwindCursor4stepEv"
    },
    {
     "mangled_component_name" : "_ZN9libunwind20AbstractUnwindCursor7getInfoEP15unw_proc_info_t"
    },
    {
     "mangled_component_name" : "_ZN9libunwind20AbstractUnwindCursor6jumptoEv"
    },
    {
     "mangled_component_name" : "_ZN9libunwind20AbstractUnwindCursor13isSignalFrameEv"
    },
    {
     "mangled_component_name" : "_ZN9libunwind20AbstractUnwindCursor15getFunctionNameEPcjPj"
    },
    {
     "mangled_component_name" : "_ZN9libunwind20AbstractUnwindCursor24setInfoBasedOnIPRegisterEb"
    },
    {
     "mangled_component_name" : "_ZN9libunwind20AbstractUnwindCursor15getRegisterNameEi"
    },
    {
     "mangled_component_name" : "_ZN9libunwind20AbstractUnwindCursor10saveVFPAsXEv"
    }
   ]
  },
  {
   "alignment" : 4,
   "fields" :
   [
    {
     "field_name" : "functionOffset",
     "referenced_type" : "type-9"
    },
    {
     "field_name" : "data",
     "field_offset" : 32,
     "referenced_type" : "type-9"
    }
   ],
   "linker_set_key" : "libunwind::EHABIIndexEntry",
   "name" : "libunwind::EHABIIndexEntry",
   "referenced_type" : "type-382",
   "self_type" : "type-382",
   "size" : 8,
   "source_file" : "/external/libunwind_llvm/src/UnwindCursor.hpp",
   "unique_id" : "_ZTSN9libunwind15EHABIIndexEntryE"
  },
  {
   "alignment" : 4,
   "fields" :
   [
    {
     "access" : "private",
     "field_name" : "_i",
     "referenced_type" : "type-9"
    },
    {
     "access" : "private",
     "field_name" : "_addressSpace",
     "field_offset" : 32,
     "referenced_type" : "type-286"
    },
    {
     "access" : "private",
     "field_name" : "_sects",
     "field_offset" : 64,
     "referenced_type" : "type-384"
    }
   ],
   "linker_set_key" : "libunwind::EHABISectionIterator<libunwind::LocalAddressSpace>",
   "name" : "libunwind::EHABISectionIterator<libunwind::LocalAddressSpace>",
   "referenced_type" : "type-383",
   "self_type" : "type-383",
   "size" : 12,
   "source_file" : "/external/libunwind_llvm/src/UnwindCursor.hpp",
   "template_args" : [ "type-141" ],
   "unique_id" : "_ZTSN9libunwind20EHABISectionIteratorINS_17LocalAddressSpaceEEE"
  },
  {
   "alignment" : 1,
   "linker_set_key" : "libunwind::LocalAddressSpace",
   "name" : "libunwind::LocalAddressSpace",
   "record_kind" : "class",
   "referenced_type" : "type-141",
   "self_type" : "type-141",
   "size" : 1,
   "source_file" : "/external/libunwind_llvm/src/AddressSpace.hpp",
   "unique_id" : "_ZTSN9libunwind17LocalAddressSpaceE"
  },
  {
   "alignment" : 4,
   "fields" :
   [
    {
     "access" : "private",
     "field_name" : "_lock",
     "referenced_type" : "type-373"
    }
   ],
   "linker_set_key" : "libunwind::RWMutex",
   "name" : "libunwind::RWMutex",
   "record_kind" : "class",
   "referenced_type" : "type-372",
   "self_type" : "type-372",
   "size" : 40,
   "source_file" : "/external/libunwind_llvm/src/RWMutex.hpp",
   "unique_id" : "_ZTSN9libunwind7RWMutexE"
  },
  {
   "alignment" : 8,
   "fields" :
   [
    {
     "access" : "private",
     "field_name" : "_registers",
     "referenced_type" : "type-143"
    },
    {
     "access" : "private",
     "field_name" : "_use_X_for_vfp_save",
     "field_offset" : 512,
     "referenced_type" : "type-145"
    },
    {
     "access" : "private",
     "field_name" : "_saved_vfp_d0_d15",
     "field_offset" : 520,
     "referenced_type" : "type-145"
    },
    {
     "access" : "private",
     "field_name" : "_saved_vfp_d16_d31",
     "field_offset" : 528,
     "referenced_type" : "type-145"
    },
    {
     "access" : "private",
     "field_name" : "_vfp_d0_d15_pad",
     "field_offset" : 576,
     "referenced_type" : "type-146"
    },
    {
     "access" : "private",
     "field_name" : "_vfp_d16_d31",
     "field_offset" : 1664,
     "referenced_type" : "type-147"
    }
   ],
   "linker_set_key" : "libunwind::Registers_arm",
   "name" : "libunwind::Registers_arm",
   "record_kind" : "class",
   "referenced_type" : "type-142",
   "self_type" : "type-142",
   "size" : 336,
   "source_file" : "/external/libunwind_llvm/src/Registers.hpp",
   "unique_id" : "_ZTSN9libunwind13Registers_armE"
  },
  {
   "alignment" : 8,
   "fields" :
   [
    {
     "access" : "private",
     "field_name" : "_registers",
     "referenced_type" : "type-208"
    },
    {
     "access" : "private",
     "field_name" : "_vectorHalfRegisters",
     "field_offset" : 2176,
     "referenced_type" : "type-193"
    }
   ],
   "linker_set_key" : "libunwind::Registers_arm64",
   "name" : "libunwind::Registers_arm64",
   "record_kind" : "class",
   "referenced_type" : "type-211",
   "self_type" : "type-211",
   "size" : 528,
   "source_file" : "/external/libunwind_llvm/src/Registers.hpp",
   "unique_id" : "_ZTSN9libunwind15Registers_arm64E"
  },
  {
   "access" : "private",
   "alignment" : 8,
   "fields" :
   [
    {
     "field_name" : "__x",
     "referenced_type" : "type-209"
    },
    {
     "field_name" : "__fp",
     "field_offset" : 1856,
     "referenced_type" : "type-107"
    },
    {
     "field_name" : "__lr",
     "field_offset" : 1920,
     "referenced_type" : "type-107"
    },
    {
     "field_name" : "__sp",
     "field_offset" : 1984,
     "referenced_type" : "type-107"
    },
    {
     "field_name" : "__pc",
     "field_offset" : 2048,
     "referenced_type" : "type-107"
    },
    {
     "field_name" : "__ra_sign_state",
     "field_offset" : 2112,
     "referenced_type" : "type-107"
    }
   ],
   "linker_set_key" : "libunwind::Registers_arm64::GPRs",
   "name" : "libunwind::Registers_arm64::GPRs",
   "referenced_type" : "type-208",
   "self_type" : "type-208",
   "size" : 272,
   "source_file" : "/external/libunwind_llvm/src/Registers.hpp",
   "unique_id" : "_ZTSN9libunwind15Registers_arm644GPRsE"
  },
  {
   "access" : "private",
   "alignment" : 4,
   "fields" :
   [
    {
     "field_name" : "__r",
     "referenced_type" : "type-144"
    },
    {
     "field_name" : "__sp",
     "field_offset" : 416,
     "referenced_type" : "type-9"
    },
    {
     "field_name" : "__lr",
     "field_offset" : 448,
     "referenced_type" : "type-9"
    },
    {
     "field_name" : "__pc",
     "field_offset" : 480,
     "referenced_type" : "type-9"
    }
   ],
   "linker_set_key" : "libunwind::Registers_arm::GPRs",
   "name" : "libunwind::Registers_arm::GPRs",
   "referenced_type" : "type-143",
   "self_type" : "type-143",
   "size" : 64,
   "source_file" : "/external/libunwind_llvm/src/Registers.hpp",
   "unique_id" : "_ZTSN9libunwind13Registers_arm4GPRsE"
  },
  {
   "alignment" : 8,
   "fields" :
   [
    {
     "access" : "private",
     "field_name" : "_registers",
     "referenced_type" : "type-227"
    }
   ],
   "linker_set_key" : "libunwind::Registers_mips_newabi",
   "name" : "libunwind::Registers_mips_newabi",
   "record_kind" : "class",
   "referenced_type" : "type-230",
   "self_type" : "type-230",
   "size" : 280,
   "source_file" : "/external/libunwind_llvm/src/Registers.hpp",
   "unique_id" : "_ZTSN9libunwind21Registers_mips_newabiE"
  },
  {
   "access" : "private",
   "alignment" : 8,
   "fields" :
   [
    {
     "field_name" : "__r",
     "referenced_type" : "type-228"
    },
    {
     "field_name" : "__pc",
     "field_offset" : 2048,
     "referenced_type" : "type-107"
    },
    {
     "field_name" : "__hi",
     "field_offset" : 2112,
     "referenced_type" : "type-107"
    },
    {
     "field_name" : "__lo",
     "field_offset" : 2176,
     "referenced_type" : "type-107"
    }
   ],
   "linker_set_key" : "libunwind::Registers_mips_newabi::mips_newabi_thread_state_t",
   "name" : "libunwind::Registers_mips_newabi::mips_newabi_thread_state_t",
   "referenced_type" : "type-227",
   "self_type" : "type-227",
   "size" : 280,
   "source_file" : "/external/libunwind_llvm/src/Registers.hpp",
   "unique_id" : "_ZTSN9libunwind21Registers_mips_newabi26mips_newabi_thread_state_tE"
  },
  {
   "alignment" : 4,
   "fields" :
   [
    {
     "access" : "private",
     "field_name" : "_registers",
     "referenced_type" : "type-222"
    }
   ],
   "linker_set_key" : "libunwind::Registers_mips_o32",
   "name" : "libunwind::Registers_mips_o32",
   "record_kind" : "class",
   "referenced_type" : "type-224",
   "self_type" : "type-224",
   "size" : 140,
   "source_file" : "/external/libunwind_llvm/src/Registers.hpp",
   "unique_id" : "_ZTSN9libunwind18Registers_mips_o32E"
  },
  {
   "access" : "private",
   "alignment" : 4,
   "fields" :
   [
    {
     "field_name" : "__r",
     "referenced_type" : "type-133"
    },
    {
     "field_name" : "__pc",
     "field_offset" : 1024,
     "referenced_type" : "type-9"
    },
    {
     "field_name" : "__hi",
     "field_offset" : 1056,
     "referenced_type" : "type-9"
    },
    {
     "field_name" : "__lo",
     "field_offset" : 1088,
     "referenced_type" : "type-9"
    }
   ],
   "linker_set_key" : "libunwind::Registers_mips_o32::mips_o32_thread_state_t",
   "name" : "libunwind::Registers_mips_o32::mips_o32_thread_state_t",
   "referenced_type" : "type-222",
   "self_type" : "type-222",
   "size" : 140,
   "source_file" : "/external/libunwind_llvm/src/Registers.hpp",
   "unique_id" : "_ZTSN9libunwind18Registers_mips_o3223mips_o32_thread_state_tE"
  },
  {
   "alignment" : 4,
   "fields" :
   [
    {
     "access" : "private",
     "field_name" : "_registers",
     "referenced_type" : "type-217"
    }
   ],
   "linker_set_key" : "libunwind::Registers_or1k",
   "name" : "libunwind::Registers_or1k",
   "record_kind" : "class",
   "referenced_type" : "type-219",
   "self_type" : "type-219",
   "size" : 136,
   "source_file" : "/external/libunwind_llvm/src/Registers.hpp",
   "unique_id" : "_ZTSN9libunwind14Registers_or1kE"
  },
  {
   "access" : "private",
   "alignment" : 4,
   "fields" :
   [
    {
     "field_name" : "__r",
     "referenced_type" : "type-133"
    },
    {
     "field_name" : "__pc",
     "field_offset" : 1024,
     "referenced_type" : "type-9"
    },
    {
     "field_name" : "__epcr",
     "field_offset" : 1056,
     "referenced_type" : "type-9"
    }
   ],
   "linker_set_key" : "libunwind::Registers_or1k::or1k_thread_state_t",
   "name" : "libunwind::Registers_or1k::or1k_thread_state_t",
   "referenced_type" : "type-217",
   "self_type" : "type-217",
   "size" : 136,
   "source_file" : "/external/libunwind_llvm/src/Registers.hpp",
   "unique_id" : "_ZTSN9libunwind14Registers_or1k19or1k_thread_state_tE"
  },
  {
   "alignment" : 8,
   "fields" :
   [
    {
     "access" : "private",
     "field_name" : "_registers",
     "referenced_type" : "type-191"
    },
    {
     "access" : "private",
     "field_name" : "_floatRegisters",
     "field_offset" : 1280,
     "referenced_type" : "type-192"
    },
    {
     "access" : "private",
     "field_name" : "_vectorRegisters",
     "field_offset" : 3392,
     "referenced_type" : "type-194"
    }
   ],
   "linker_set_key" : "libunwind::Registers_ppc",
   "name" : "libunwind::Registers_ppc",
   "record_kind" : "class",
   "referenced_type" : "type-196",
   "self_type" : "type-196",
   "size" : 936,
   "source_file" : "/external/libunwind_llvm/src/Registers.hpp",
   "unique_id" : "_ZTSN9libunwind13Registers_ppcE"
  },
  {
   "alignment" : 8,
   "fields" :
   [
    {
     "access" : "private",
     "field_name" : "_registers",
     "referenced_type" : "type-199"
    },
    {
     "access" : "private",
     "field_name" : "_vectorScalarRegisters",
     "field_offset" : 2496,
     "referenced_type" : "type-202"
    }
   ],
   "linker_set_key" : "libunwind::Registers_ppc64",
   "name" : "libunwind::Registers_ppc64",
   "record_kind" : "class",
   "referenced_type" : "type-204",
   "self_type" : "type-204",
   "size" : 1336,
   "source_file" : "/external/libunwind_llvm/src/Registers.hpp",
   "unique_id" : "_ZTSN9libunwind15Registers_ppc64E"
  },
  {
   "access" : "private",
   "alignment" : 8,
   "fields" :
   [
    {
     "field_name" : "__srr0",
     "referenced_type" : "type-107"
    },
    {
     "field_name" : "__srr1",
     "field_offset" : 64,
     "referenced_type" : "type-107"
    },
    {
     "field_name" : "__r0",
     "field_offset" : 128,
     "referenced_type" : "type-107"
    },
    {
     "field_name" : "__r1",
     "field_offset" : 192,
     "referenced_type" : "type-107"
    },
    {
     "field_name" : "__r2",
     "field_offset" : 256,
     "referenced_type" : "type-107"
    },
    {
     "field_name" : "__r3",
     "field_offset" : 320,
     "referenced_type" : "type-107"
    },
    {
     "field_name" : "__r4",
     "field_offset" : 384,
     "referenced_type" : "type-107"
    },
    {
     "field_name" : "__r5",
     "field_offset" : 448,
     "referenced_type" : "type-107"
    },
    {
     "field_name" : "__r6",
     "field_offset" : 512,
     "referenced_type" : "type-107"
    },
    {
     "field_name" : "__r7",
     "field_offset" : 576,
     "referenced_type" : "type-107"
    },
    {
     "field_name" : "__r8",
     "field_offset" : 640,
     "referenced_type" : "type-107"
    },
    {
     "field_name" : "__r9",
     "field_offset" : 704,
     "referenced_type" : "type-107"
    },
    {
     "field_name" : "__r10",
     "field_offset" : 768,
     "referenced_type" : "type-107"
    },
    {
     "field_name" : "__r11",
     "field_offset" : 832,
     "referenced_type" : "type-107"
    },
    {
     "field_name" : "__r12",
     "field_offset" : 896,
     "referenced_type" : "type-107"
    },
    {
     "field_name" : "__r13",
     "field_offset" : 960,
     "referenced_type" : "type-107"
    },
    {
     "field_name" : "__r14",
     "field_offset" : 1024,
     "referenced_type" : "type-107"
    },
    {
     "field_name" : "__r15",
     "field_offset" : 1088,
     "referenced_type" : "type-107"
    },
    {
     "field_name" : "__r16",
     "field_offset" : 1152,
     "referenced_type" : "type-107"
    },
    {
     "field_name" : "__r17",
     "field_offset" : 1216,
     "referenced_type" : "type-107"
    },
    {
     "field_name" : "__r18",
     "field_offset" : 1280,
     "referenced_type" : "type-107"
    },
    {
     "field_name" : "__r19",
     "field_offset" : 1344,
     "referenced_type" : "type-107"
    },
    {
     "field_name" : "__r20",
     "field_offset" : 1408,
     "referenced_type" : "type-107"
    },
    {
     "field_name" : "__r21",
     "field_offset" : 1472,
     "referenced_type" : "type-107"
    },
    {
     "field_name" : "__r22",
     "field_offset" : 1536,
     "referenced_type" : "type-107"
    },
    {
     "field_name" : "__r23",
     "field_offset" : 1600,
     "referenced_type" : "type-107"
    },
    {
     "field_name" : "__r24",
     "field_offset" : 1664,
     "referenced_type" : "type-107"
    },
    {
     "field_name" : "__r25",
     "field_offset" : 1728,
     "referenced_type" : "type-107"
    },
    {
     "field_name" : "__r26",
     "field_offset" : 1792,
     "referenced_type" : "type-107"
    },
    {
     "field_name" : "__r27",
     "field_offset" : 1856,
     "referenced_type" : "type-107"
    },
    {
     "field_name" : "__r28",
     "field_offset" : 1920,
     "referenced_type" : "type-107"
    },
    {
     "field_name" : "__r29",
     "field_offset" : 1984,
     "referenced_type" : "type-107"
    },
    {
     "field_name" : "__r30",
     "field_offset" : 2048,
     "referenced_type" : "type-107"
    },
    {
     "field_name" : "__r31",
     "field_offset" : 2112,
     "referenced_type" : "type-107"
    },
    {
     "field_name" : "__cr",
     "field_offset" : 2176,
     "referenced_type" : "type-107"
    },
    {
     "field_name" : "__xer",
     "field_offset" : 2240,
     "referenced_type" : "type-107"
    },
    {
     "field_name" : "__lr",
     "field_offset" : 2304,
     "referenced_type" : "type-107"
    },
    {
     "field_name" : "__ctr",
     "field_offset" : 2368,
     "referenced_type" : "type-107"
    },
    {
     "field_name" : "__vrsave",
     "field_offset" : 2432,
     "referenced_type" : "type-107"
    }
   ],
   "linker_set_key" : "libunwind::Registers_ppc64::ppc64_thread_state_t",
   "name" : "libunwind::Registers_ppc64::ppc64_thread_state_t",
   "referenced_type" : "type-199",
   "self_type" : "type-199",
   "size" : 312,
   "source_file" : "/external/libunwind_llvm/src/Registers.hpp",
   "unique_id" : "_ZTSN9libunwind15Registers_ppc6420ppc64_thread_state_tE"
  },
  {
   "access" : "private",
   "alignment" : 8,
   "fields" :
   [
    {
     "field_name" : "asfloat",
     "referenced_type" : "type-201"
    },
    {
     "field_name" : "v",
     "referenced_type" : "type-178"
    }
   ],
   "linker_set_key" : "libunwind::Registers_ppc64::ppc64_vsr_t",
   "name" : "libunwind::Registers_ppc64::ppc64_vsr_t",
   "record_kind" : "union",
   "referenced_type" : "type-200",
   "self_type" : "type-200",
   "size" : 16,
   "source_file" : "/external/libunwind_llvm/src/Registers.hpp",
   "unique_id" : "_ZTSN9libunwind15Registers_ppc6411ppc64_vsr_tE"
  },
  {
   "alignment" : 8,
   "fields" :
   [
    {
     "field_name" : "f",
     "referenced_type" : "type-185"
    },
    {
     "field_name" : "v2",
     "field_offset" : 64,
     "referenced_type" : "type-107"
    }
   ],
   "linker_set_key" : "libunwind::Registers_ppc64::ppc64_vsr_t::asfloat_s",
   "name" : "libunwind::Registers_ppc64::ppc64_vsr_t::asfloat_s",
   "referenced_type" : "type-201",
   "self_type" : "type-201",
   "size" : 16,
   "source_file" : "/external/libunwind_llvm/src/Registers.hpp",
   "unique_id" : "_ZTSN9libunwind15Registers_ppc6411ppc64_vsr_t9asfloat_sE"
  },
  {
   "access" : "private",
   "alignment" : 8,
   "fields" :
   [
    {
     "field_name" : "__fpregs",
     "referenced_type" : "type-193"
    },
    {
     "field_name" : "__fpscr_pad",
     "field_offset" : 2048,
     "referenced_type" : "type-9"
    },
    {
     "field_name" : "__fpscr",
     "field_offset" : 2080,
     "referenced_type" : "type-9"
    }
   ],
   "linker_set_key" : "libunwind::Registers_ppc::ppc_float_state_t",
   "name" : "libunwind::Registers_ppc::ppc_float_state_t",
   "referenced_type" : "type-192",
   "self_type" : "type-192",
   "size" : 264,
   "source_file" : "/external/libunwind_llvm/src/Registers.hpp",
   "unique_id" : "_ZTSN9libunwind13Registers_ppc17ppc_float_state_tE"
  },
  {
   "access" : "private",
   "alignment" : 4,
   "fields" :
   [
    {
     "field_name" : "__srr0",
     "referenced_type" : "type-9"
    },
    {
     "field_name" : "__srr1",
     "field_offset" : 32,
     "referenced_type" : "type-9"
    },
    {
     "field_name" : "__r0",
     "field_offset" : 64,
     "referenced_type" : "type-9"
    },
    {
     "field_name" : "__r1",
     "field_offset" : 96,
     "referenced_type" : "type-9"
    },
    {
     "field_name" : "__r2",
     "field_offset" : 128,
     "referenced_type" : "type-9"
    },
    {
     "field_name" : "__r3",
     "field_offset" : 160,
     "referenced_type" : "type-9"
    },
    {
     "field_name" : "__r4",
     "field_offset" : 192,
     "referenced_type" : "type-9"
    },
    {
     "field_name" : "__r5",
     "field_offset" : 224,
     "referenced_type" : "type-9"
    },
    {
     "field_name" : "__r6",
     "field_offset" : 256,
     "referenced_type" : "type-9"
    },
    {
     "field_name" : "__r7",
     "field_offset" : 288,
     "referenced_type" : "type-9"
    },
    {
     "field_name" : "__r8",
     "field_offset" : 320,
     "referenced_type" : "type-9"
    },
    {
     "field_name" : "__r9",
     "field_offset" : 352,
     "referenced_type" : "type-9"
    },
    {
     "field_name" : "__r10",
     "field_offset" : 384,
     "referenced_type" : "type-9"
    },
    {
     "field_name" : "__r11",
     "field_offset" : 416,
     "referenced_type" : "type-9"
    },
    {
     "field_name" : "__r12",
     "field_offset" : 448,
     "referenced_type" : "type-9"
    },
    {
     "field_name" : "__r13",
     "field_offset" : 480,
     "referenced_type" : "type-9"
    },
    {
     "field_name" : "__r14",
     "field_offset" : 512,
     "referenced_type" : "type-9"
    },
    {
     "field_name" : "__r15",
     "field_offset" : 544,
     "referenced_type" : "type-9"
    },
    {
     "field_name" : "__r16",
     "field_offset" : 576,
     "referenced_type" : "type-9"
    },
    {
     "field_name" : "__r17",
     "field_offset" : 608,
     "referenced_type" : "type-9"
    },
    {
     "field_name" : "__r18",
     "field_offset" : 640,
     "referenced_type" : "type-9"
    },
    {
     "field_name" : "__r19",
     "field_offset" : 672,
     "referenced_type" : "type-9"
    },
    {
     "field_name" : "__r20",
     "field_offset" : 704,
     "referenced_type" : "type-9"
    },
    {
     "field_name" : "__r21",
     "field_offset" : 736,
     "referenced_type" : "type-9"
    },
    {
     "field_name" : "__r22",
     "field_offset" : 768,
     "referenced_type" : "type-9"
    },
    {
     "field_name" : "__r23",
     "field_offset" : 800,
     "referenced_type" : "type-9"
    },
    {
     "field_name" : "__r24",
     "field_offset" : 832,
     "referenced_type" : "type-9"
    },
    {
     "field_name" : "__r25",
     "field_offset" : 864,
     "referenced_type" : "type-9"
    },
    {
     "field_name" : "__r26",
     "field_offset" : 896,
     "referenced_type" : "type-9"
    },
    {
     "field_name" : "__r27",
     "field_offset" : 928,
     "referenced_type" : "type-9"
    },
    {
     "field_name" : "__r28",
     "field_offset" : 960,
     "referenced_type" : "type-9"
    },
    {
     "field_name" : "__r29",
     "field_offset" : 992,
     "referenced_type" : "type-9"
    },
    {
     "field_name" : "__r30",
     "field_offset" : 1024,
     "referenced_type" : "type-9"
    },
    {
     "field_name" : "__r31",
     "field_offset" : 1056,
     "referenced_type" : "type-9"
    },
    {
     "field_name" : "__cr",
     "field_offset" : 1088,
     "referenced_type" : "type-9"
    },
    {
     "field_name" : "__xer",
     "field_offset" : 1120,
     "referenced_type" : "type-9"
    },
    {
     "field_name" : "__lr",
     "field_offset" : 1152,
     "referenced_type" : "type-9"
    },
    {
     "field_name" : "__ctr",
     "field_offset" : 1184,
     "referenced_type" : "type-9"
    },
    {
     "field_name" : "__mq",
     "field_offset" : 1216,
     "referenced_type" : "type-9"
    },
    {
     "field_name" : "__vrsave",
     "field_offset" : 1248,
     "referenced_type" : "type-9"
    }
   ],
   "linker_set_key" : "libunwind::Registers_ppc::ppc_thread_state_t",
   "name" : "libunwind::Registers_ppc::ppc_thread_state_t",
   "referenced_type" : "type-191",
   "self_type" : "type-191",
   "size" : 160,
   "source_file" : "/external/libunwind_llvm/src/Registers.hpp",
   "unique_id" : "_ZTSN9libunwind13Registers_ppc18ppc_thread_state_tE"
  },
  {
   "alignment" : 4,
   "fields" :
   [
    {
     "access" : "private",
     "field_name" : "_registers",
     "referenced_type" : "type-132"
    }
   ],
   "linker_set_key" : "libunwind::Registers_sparc",
   "name" : "libunwind::Registers_sparc",
   "record_kind" : "class",
   "referenced_type" : "type-131",
   "self_type" : "type-131",
   "size" : 128,
   "source_file" : "/external/libunwind_llvm/src/Registers.hpp",
   "unique_id" : "_ZTSN9libunwind15Registers_sparcE"
  },
  {
   "access" : "private",
   "alignment" : 4,
   "fields" :
   [
    {
     "field_name" : "__regs",
     "referenced_type" : "type-133"
    }
   ],
   "linker_set_key" : "libunwind::Registers_sparc::sparc_thread_state_t",
   "name" : "libunwind::Registers_sparc::sparc_thread_state_t",
   "referenced_type" : "type-132",
   "self_type" : "type-132",
   "size" : 128,
   "source_file" : "/external/libunwind_llvm/src/Registers.hpp",
   "unique_id" : "_ZTSN9libunwind15Registers_sparc20sparc_thread_state_tE"
  },
  {
   "alignment" : 4,
   "fields" :
   [
    {
     "access" : "private",
     "field_name" : "_registers",
     "referenced_type" : "type-180"
    }
   ],
   "linker_set_key" : "libunwind::Registers_x86",
   "name" : "libunwind::Registers_x86",
   "record_kind" : "class",
   "referenced_type" : "type-182",
   "self_type" : "type-182",
   "size" : 64,
   "source_file" : "/external/libunwind_llvm/src/Registers.hpp",
   "unique_id" : "_ZTSN9libunwind13Registers_x86E"
  },
  {
   "access" : "private",
   "alignment" : 4,
   "fields" :
   [
    {
     "field_name" : "__eax",
     "referenced_type" : "type-9"
    },
    {
     "field_name" : "__ebx",
     "field_offset" : 32,
     "referenced_type" : "type-9"
    },
    {
     "field_name" : "__ecx",
     "field_offset" : 64,
     "referenced_type" : "type-9"
    },
    {
     "field_name" : "__edx",
     "field_offset" : 96,
     "referenced_type" : "type-9"
    },
    {
     "field_name" : "__edi",
     "field_offset" : 128,
     "referenced_type" : "type-9"
    },
    {
     "field_name" : "__esi",
     "field_offset" : 160,
     "referenced_type" : "type-9"
    },
    {
     "field_name" : "__ebp",
     "field_offset" : 192,
     "referenced_type" : "type-9"
    },
    {
     "field_name" : "__esp",
     "field_offset" : 224,
     "referenced_type" : "type-9"
    },
    {
     "field_name" : "__ss",
     "field_offset" : 256,
     "referenced_type" : "type-9"
    },
    {
     "field_name" : "__eflags",
     "field_offset" : 288,
     "referenced_type" : "type-9"
    },
    {
     "field_name" : "__eip",
     "field_offset" : 320,
     "referenced_type" : "type-9"
    },
    {
     "field_name" : "__cs",
     "field_offset" : 352,
     "referenced_type" : "type-9"
    },
    {
     "field_name" : "__ds",
     "field_offset" : 384,
     "referenced_type" : "type-9"
    },
    {
     "field_name" : "__es",
     "field_offset" : 416,
     "referenced_type" : "type-9"
    },
    {
     "field_name" : "__fs",
     "field_offset" : 448,
     "referenced_type" : "type-9"
    },
    {
     "field_name" : "__gs",
     "field_offset" : 480,
     "referenced_type" : "type-9"
    }
   ],
   "linker_set_key" : "libunwind::Registers_x86::GPRs",
   "name" : "libunwind::Registers_x86::GPRs",
   "referenced_type" : "type-180",
   "self_type" : "type-180",
   "size" : 64,
   "source_file" : "/external/libunwind_llvm/src/Registers.hpp",
   "unique_id" : "_ZTSN9libunwind13Registers_x864GPRsE"
  },
  {
   "alignment" : 8,
   "fields" :
   [
    {
     "access" : "private",
     "field_name" : "_registers",
     "referenced_type" : "type-186"
    }
   ],
   "linker_set_key" : "libunwind::Registers_x86_64",
   "name" : "libunwind::Registers_x86_64",
   "record_kind" : "class",
   "referenced_type" : "type-188",
   "self_type" : "type-188",
   "size" : 168,
   "source_file" : "/external/libunwind_llvm/src/Registers.hpp",
   "unique_id" : "_ZTSN9libunwind16Registers_x86_64E"
  },
  {
   "access" : "private",
   "alignment" : 8,
   "fields" :
   [
    {
     "field_name" : "__rax",
     "referenced_type" : "type-107"
    },
    {
     "field_name" : "__rbx",
     "field_offset" : 64,
     "referenced_type" : "type-107"
    },
    {
     "field_name" : "__rcx",
     "field_offset" : 128,
     "referenced_type" : "type-107"
    },
    {
     "field_name" : "__rdx",
     "field_offset" : 192,
     "referenced_type" : "type-107"
    },
    {
     "field_name" : "__rdi",
     "field_offset" : 256,
     "referenced_type" : "type-107"
    },
    {
     "field_name" : "__rsi",
     "field_offset" : 320,
     "referenced_type" : "type-107"
    },
    {
     "field_name" : "__rbp",
     "field_offset" : 384,
     "referenced_type" : "type-107"
    },
    {
     "field_name" : "__rsp",
     "field_offset" : 448,
     "referenced_type" : "type-107"
    },
    {
     "field_name" : "__r8",
     "field_offset" : 512,
     "referenced_type" : "type-107"
    },
    {
     "field_name" : "__r9",
     "field_offset" : 576,
     "referenced_type" : "type-107"
    },
    {
     "field_name" : "__r10",
     "field_offset" : 640,
     "referenced_type" : "type-107"
    },
    {
     "field_name" : "__r11",
     "field_offset" : 704,
     "referenced_type" : "type-107"
    },
    {
     "field_name" : "__r12",
     "field_offset" : 768,
     "referenced_type" : "type-107"
    },
    {
     "field_name" : "__r13",
     "field_offset" : 832,
     "referenced_type" : "type-107"
    },
    {
     "field_name" : "__r14",
     "field_offset" : 896,
     "referenced_type" : "type-107"
    },
    {
     "field_name" : "__r15",
     "field_offset" : 960,
     "referenced_type" : "type-107"
    },
    {
     "field_name" : "__rip",
     "field_offset" : 1024,
     "referenced_type" : "type-107"
    },
    {
     "field_name" : "__rflags",
     "field_offset" : 1088,
     "referenced_type" : "type-107"
    },
    {
     "field_name" : "__cs",
     "field_offset" : 1152,
     "referenced_type" : "type-107"
    },
    {
     "field_name" : "__fs",
     "field_offset" : 1216,
     "referenced_type" : "type-107"
    },
    {
     "field_name" : "__gs",
     "field_offset" : 1280,
     "referenced_type" : "type-107"
    }
   ],
   "linker_set_key" : "libunwind::Registers_x86_64::GPRs",
   "name" : "libunwind::Registers_x86_64::GPRs",
   "referenced_type" : "type-186",
   "self_type" : "type-186",
   "size" : 168,
   "source_file" : "/external/libunwind_llvm/src/Registers.hpp",
   "unique_id" : "_ZTSN9libunwind16Registers_x86_644GPRsE"
  },
  {
   "alignment" : 8,
   "base_specifiers" :
   [
    {
     "referenced_type" : "type-149"
    }
   ],
   "fields" :
   [
    {
     "access" : "private",
     "field_name" : "_addressSpace",
     "field_offset" : 32,
     "referenced_type" : "type-140"
    },
    {
     "access" : "private",
     "field_name" : "_registers",
     "field_offset" : 64,
     "referenced_type" : "type-142"
    },
    {
     "access" : "private",
     "field_name" : "_info",
     "field_offset" : 2752,
     "referenced_type" : "type-148"
    },
    {
     "access" : "private",
     "field_name" : "_unwindInfoMissing",
     "field_offset" : 3072,
     "referenced_type" : "type-145"
    },
    {
     "access" : "private",
     "field_name" : "_isSignalFrame",
     "field_offset" : 3080,
     "referenced_type" : "type-145"
    }
   ],
   "linker_set_key" : "libunwind::UnwindCursor<libunwind::LocalAddressSpace, libunwind::Registers_arm>",
   "name" : "libunwind::UnwindCursor<libunwind::LocalAddressSpace, libunwind::Registers_arm>",
   "record_kind" : "class",
   "referenced_type" : "type-139",
   "self_type" : "type-139",
   "size" : 392,
   "source_file" : "/external/libunwind_llvm/src/UnwindCursor.hpp",
   "template_args" : [ "type-141", "type-142" ],
   "unique_id" : "_ZTSN9libunwind12UnwindCursorINS_17LocalAddressSpaceENS_13Registers_armEEE",
   "vtable_components" :
   [
    {
     "kind" : "offset_to_top"
    },
    {
     "kind" : "rtti",
     "mangled_component_name" : "_ZTIN9libunwind12UnwindCursorINS_17LocalAddressSpaceENS_13Registers_armEEE"
    },
    {
     "kind" : "complete_dtor_pointer",
     "mangled_component_name" : "_ZN9libunwind12UnwindCursorINS_17LocalAddressSpaceENS_13Registers_armEED1Ev"
    },
    {
     "kind" : "deleting_dtor_pointer",
     "mangled_component_name" : "_ZN9libunwind12UnwindCursorINS_17LocalAddressSpaceENS_13Registers_armEED0Ev"
    },
    {
     "mangled_component_name" : "_ZN9libunwind12UnwindCursorINS_17LocalAddressSpaceENS_13Registers_armEE8validRegEi"
    },
    {
     "mangled_component_name" : "_ZN9libunwind12UnwindCursorINS_17LocalAddressSpaceENS_13Registers_armEE6getRegEi"
    },
    {
     "mangled_component_name" : "_ZN9libunwind12UnwindCursorINS_17LocalAddressSpaceENS_13Registers_armEE6setRegEij"
    },
    {
     "mangled_component_name" : "_ZN9libunwind12UnwindCursorINS_17LocalAddressSpaceENS_13Registers_armEE13validFloatRegEi"
    },
    {
     "mangled_component_name" : "_ZN9libunwind12UnwindCursorINS_17LocalAddressSpaceENS_13Registers_armEE11getFloatRegEi"
    },
    {
     "mangled_component_name" : "_ZN9libunwind12UnwindCursorINS_17LocalAddressSpaceENS_13Registers_armEE11setFloatRegEiy"
    },
    {
     "mangled_component_name" : "_ZN9libunwind12UnwindCursorINS_17LocalAddressSpaceENS_13Registers_armEE4stepEv"
    },
    {
     "mangled_component_name" : "_ZN9libunwind12UnwindCursorINS_17LocalAddressSpaceENS_13Registers_armEE7getInfoEP15unw_proc_info_t"
    },
    {
     "mangled_component_name" : "_ZN9libunwind12UnwindCursorINS_17LocalAddressSpaceENS_13Registers_armEE6jumptoEv"
    },
    {
     "mangled_component_name" : "_ZN9libunwind12UnwindCursorINS_17LocalAddressSpaceENS_13Registers_armEE13isSignalFrameEv"
    },
    {
     "mangled_component_name" : "_ZN9libunwind12UnwindCursorINS_17LocalAddressSpaceENS_13Registers_armEE15getFunctionNameEPcjPj"
    },
    {
     "mangled_component_name" : "_ZN9libunwind12UnwindCursorINS_17LocalAddressSpaceENS_13Registers_armEE24setInfoBasedOnIPRegisterEb"
    },
    {
     "mangled_component_name" : "_ZN9libunwind12UnwindCursorINS_17LocalAddressSpaceENS_13Registers_armEE15getRegisterNameEi"
    },
    {
     "mangled_component_name" : "_ZN9libunwind12UnwindCursorINS_17LocalAddressSpaceENS_13Registers_armEE10saveVFPAsXEv"
    }
   ]
  },
  {
   "alignment" : 4,
   "fields" :
   [
    {
     "field_name" : "arm_section",
     "referenced_type" : "type-9"
    },
    {
     "field_name" : "arm_section_length",
     "field_offset" : 32,
     "referenced_type" : "type-9"
    }
   ],
   "linker_set_key" : "libunwind::UnwindInfoSections",
   "name" : "libunwind::UnwindInfoSections",
   "referenced_type" : "type-285",
   "self_type" : "type-285",
   "size" : 8,
   "source_file" : "/external/libunwind_llvm/src/AddressSpace.hpp",
   "unique_id" : "_ZTSN9libunwind18UnwindInfoSectionsE"
  },
  {
   "alignment" : 4,
   "fields" :
   [
    {
     "field_name" : "vec",
     "referenced_type" : "type-164"
    }
   ],
   "linker_set_key" : "libunwind::v128",
   "name" : "libunwind::v128",
   "referenced_type" : "type-178",
   "self_type" : "type-178",
   "size" : 16,
   "source_file" : "/external/libunwind_llvm/src/Registers.hpp",
   "unique_id" : "_ZTSN9libunwind4v128E"
  },
  {
   "alignment" : 4,
   "fields" :
   [
    {
     "field_name" : "l_addr",
     "referenced_type" : "type-9"
    },
    {
     "field_name" : "l_name",
     "field_offset" : 32,
     "referenced_type" : "type-5"
    },
    {
     "field_name" : "l_ld",
     "field_offset" : 64,
     "referenced_type" : "type-280"
    },
    {
     "field_name" : "l_next",
     "field_offset" : 96,
     "referenced_type" : "type-281"
    },
    {
     "field_name" : "l_prev",
     "field_offset" : 128,
     "referenced_type" : "type-281"
    }
   ],
   "linker_set_key" : "link_map",
   "name" : "link_map",
   "referenced_type" : "type-279",
   "self_type" : "type-279",
   "size" : 20,
   "source_file" : "/out/soong/.intermediates/bionic/libc/libc.llndk/android_arm_armv8-a_vendor_shared/gen/include/link.h",
   "unique_id" : "link_map"
  },
  {
   "alignment" : 8,
   "fields" :
   [
    {
     "field_name" : "quot",
     "referenced_type" : "type-72"
    },
    {
     "field_name" : "rem",
     "field_offset" : 64,
     "referenced_type" : "type-72"
    }
   ],
   "linker_set_key" : "lldiv_t",
   "name" : "lldiv_t",
   "referenced_type" : "type-71",
   "self_type" : "type-71",
   "size" : 16,
   "source_file" : "/out/soong/.intermediates/bionic/libc/libc.llndk/android_arm_armv8-a_vendor_shared/gen/include/stdlib.h",
   "unique_id" : "lldiv_t"
  },
  {
   "alignment" : 4,
   "fields" :
   [
    {
     "referenced_type" : "type-119"
    }
   ],
   "linker_set_key" : "log_msg",
   "name" : "log_msg",
   "referenced_type" : "type-118",
   "self_type" : "type-118",
   "size" : 5124,
   "source_file" : "/system/core/liblog/include/log/log_read.h",
   "unique_id" : "log_msg"
  },
  {
   "alignment" : 4,
   "fields" :
   [
    {
     "field_name" : "buf",
     "referenced_type" : "type-120"
    },
    {
     "field_name" : "entry",
     "referenced_type" : "type-117"
    },
    {
     "field_name" : "entry_v4",
     "referenced_type" : "type-117"
    },
    {
     "field_name" : "entry_v3",
     "referenced_type" : "type-116"
    },
    {
     "field_name" : "entry_v2",
     "referenced_type" : "type-115"
    },
    {
     "field_name" : "entry_v1",
     "referenced_type" : "type-113"
    }
   ],
   "is_anonymous" : true,
   "linker_set_key" : "log_msg::(anonymous union at system/core/liblog/include_vndk/log/log_read.h:139:3) at system/core/liblog/include_vndk/log/log_read.h:139:3",
   "name" : "log_msg::(anonymous union at system/core/liblog/include_vndk/log/log_read.h:139:3) at system/core/liblog/include_vndk/log/log_read.h:139:3",
   "record_kind" : "union",
   "referenced_type" : "type-119",
   "self_type" : "type-119",
   "size" : 5124,
   "source_file" : "/system/core/liblog/include/log/log_read.h",
   "unique_id" : "log_msg::(anonymous union at system/core/liblog/include_vndk/log/log_read.h:139:3)"
  },
  {
   "alignment" : 1,
   "fields" :
   [
    {
     "field_name" : "tv_sec",
     "referenced_type" : "type-9"
    },
    {
     "field_name" : "tv_nsec",
     "field_offset" : 32,
     "referenced_type" : "type-9"
    }
   ],
   "linker_set_key" : "log_time",
   "name" : "log_time",
   "referenced_type" : "type-112",
   "self_type" : "type-112",
   "size" : 8,
   "source_file" : "/system/core/liblog/include_vndk/log/log_time.h",
   "unique_id" : "log_time"
  },
  {
   "alignment" : 4,
   "fields" :
   [
    {
     "field_name" : "len",
     "referenced_type" : "type-108"
    },
    {
     "field_name" : "__pad",
     "field_offset" : 16,
     "referenced_type" : "type-108"
    },
    {
     "field_name" : "pid",
     "field_offset" : 32,
     "referenced_type" : "type-4"
    },
    {
     "field_name" : "tid",
     "field_offset" : 64,
     "referenced_type" : "type-4"
    },
    {
     "field_name" : "sec",
     "field_offset" : 96,
     "referenced_type" : "type-4"
    },
    {
     "field_name" : "nsec",
     "field_offset" : 128,
     "referenced_type" : "type-4"
    },
    {
     "field_name" : "msg",
     "field_offset" : 160,
     "referenced_type" : "type-114"
    }
   ],
   "linker_set_key" : "logger_entry",
   "name" : "logger_entry",
   "referenced_type" : "type-113",
   "self_type" : "type-113",
   "size" : 20,
   "source_file" : "/system/core/liblog/include/log/log_read.h",
   "unique_id" : "logger_entry"
  },
  {
   "alignment" : 1,
   "fields" :
   [
    {
     "field_name" : "len",
     "referenced_type" : "type-108"
    },
    {
     "field_name" : "hdr_size",
     "field_offset" : 16,
     "referenced_type" : "type-108"
    },
    {
     "field_name" : "pid",
     "field_offset" : 32,
     "referenced_type" : "type-4"
    },
    {
     "field_name" : "tid",
     "field_offset" : 64,
     "referenced_type" : "type-4"
    },
    {
     "field_name" : "sec",
     "field_offset" : 96,
     "referenced_type" : "type-4"
    },
    {
     "field_name" : "nsec",
     "field_offset" : 128,
     "referenced_type" : "type-4"
    },
    {
     "field_name" : "euid",
     "field_offset" : 160,
     "referenced_type" : "type-9"
    },
    {
     "field_name" : "msg",
     "field_offset" : 192,
     "referenced_type" : "type-114"
    }
   ],
   "linker_set_key" : "logger_entry_v2",
   "name" : "logger_entry_v2",
   "referenced_type" : "type-115",
   "self_type" : "type-115",
   "size" : 24,
   "source_file" : "/system/core/liblog/include/log/log_read.h",
   "unique_id" : "logger_entry_v2"
  },
  {
   "alignment" : 1,
   "fields" :
   [
    {
     "field_name" : "len",
     "referenced_type" : "type-108"
    },
    {
     "field_name" : "hdr_size",
     "field_offset" : 16,
     "referenced_type" : "type-108"
    },
    {
     "field_name" : "pid",
     "field_offset" : 32,
     "referenced_type" : "type-4"
    },
    {
     "field_name" : "tid",
     "field_offset" : 64,
     "referenced_type" : "type-4"
    },
    {
     "field_name" : "sec",
     "field_offset" : 96,
     "referenced_type" : "type-4"
    },
    {
     "field_name" : "nsec",
     "field_offset" : 128,
     "referenced_type" : "type-4"
    },
    {
     "field_name" : "lid",
     "field_offset" : 160,
     "referenced_type" : "type-9"
    },
    {
     "field_name" : "msg",
     "field_offset" : 192,
     "referenced_type" : "type-114"
    }
   ],
   "linker_set_key" : "logger_entry_v3",
   "name" : "logger_entry_v3",
   "referenced_type" : "type-116",
   "self_type" : "type-116",
   "size" : 24,
   "source_file" : "/system/core/liblog/include/log/log_read.h",
   "unique_id" : "logger_entry_v3"
  },
  {
   "alignment" : 4,
   "fields" :
   [
    {
     "field_name" : "len",
     "referenced_type" : "type-108"
    },
    {
     "field_name" : "hdr_size",
     "field_offset" : 16,
     "referenced_type" : "type-108"
    },
    {
     "field_name" : "pid",
     "field_offset" : 32,
     "referenced_type" : "type-4"
    },
    {
     "field_name" : "tid",
     "field_offset" : 64,
     "referenced_type" : "type-9"
    },
    {
     "field_name" : "sec",
     "field_offset" : 96,
     "referenced_type" : "type-9"
    },
    {
     "field_name" : "nsec",
     "field_offset" : 128,
     "referenced_type" : "type-9"
    },
    {
     "field_name" : "lid",
     "field_offset" : 160,
     "referenced_type" : "type-9"
    },
    {
     "field_name" : "uid",
     "field_offset" : 192,
     "referenced_type" : "type-9"
    },
    {
     "field_name" : "msg",
     "field_offset" : 224,
     "referenced_type" : "type-114"
    }
   ],
   "linker_set_key" : "logger_entry_v4",
   "name" : "logger_entry_v4",
   "referenced_type" : "type-117",
   "self_type" : "type-117",
   "size" : 28,
   "source_file" : "/system/core/liblog/include/log/log_read.h",
   "unique_id" : "logger_entry_v4"
  },
  {
   "alignment" : 4,
   "fields" :
   [
    {
     "field_name" : "arena",
     "referenced_type" : "type-9"
    },
    {
     "field_name" : "ordblks",
     "field_offset" : 32,
     "referenced_type" : "type-9"
    },
    {
     "field_name" : "smblks",
     "field_offset" : 64,
     "referenced_type" : "type-9"
    },
    {
     "field_name" : "hblks",
     "field_offset" : 96,
     "referenced_type" : "type-9"
    },
    {
     "field_name" : "hblkhd",
     "field_offset" : 128,
     "referenced_type" : "type-9"
    },
    {
     "field_name" : "usmblks",
     "field_offset" : 160,
     "referenced_type" : "type-9"
    },
    {
     "field_name" : "fsmblks",
     "field_offset" : 192,
     "referenced_type" : "type-9"
    },
    {
     "field_name" : "uordblks",
     "field_offset" : 224,
     "referenced_type" : "type-9"
    },
    {
     "field_name" : "fordblks",
     "field_offset" : 256,
     "referenced_type" : "type-9"
    },
    {
     "field_name" : "keepcost",
     "field_offset" : 288,
     "referenced_type" : "type-9"
    }
   ],
   "linker_set_key" : "mallinfo",
   "name" : "mallinfo",
   "referenced_type" : "type-54",
   "self_type" : "type-54",
   "size" : 40,
   "source_file" : "/out/soong/.intermediates/bionic/libc/libc.llndk/android_arm_armv8-a_vendor_shared/gen/include/malloc.h",
   "unique_id" : "mallinfo"
  },
  {
   "alignment" : 8,
   "fields" :
   [
    {
     "field_name" : "__clang_max_align_nonce1",
     "referenced_type" : "type-72"
    },
    {
     "field_name" : "__clang_max_align_nonce2",
     "field_offset" : 64,
     "referenced_type" : "type-130"
    }
   ],
   "linker_set_key" : "max_align_t",
   "name" : "max_align_t",
   "referenced_type" : "type-129",
   "self_type" : "type-129",
   "size" : 16,
   "source_file" : "/prebuilts/clang-tools/linux-x86/lib64/clang/9.0.1/include/__stddef_max_align_t.h",
   "unique_id" : "_ZTS11max_align_t"
  },
  {
   "alignment" : 4,
   "fields" :
   [
    {
     "field_name" : "name",
     "referenced_type" : "type-5"
    },
    {
     "field_name" : "size",
     "field_offset" : 32,
     "referenced_type" : "type-9"
    },
    {
     "field_name" : "length",
     "field_offset" : 64,
     "referenced_type" : "type-9"
    },
    {
     "field_name" : "setting",
     "field_offset" : 96,
     "referenced_type" : "type-7"
    }
   ],
   "linker_set_key" : "mixer_path",
   "name" : "mixer_path",
   "referenced_type" : "type-26",
   "self_type" : "type-26",
   "size" : 16,
   "source_file" : "/system/media/audio_route/audio_route.c",
   "unique_id" : "mixer_path"
  },
  {
   "alignment" : 4,
   "fields" :
   [
    {
     "field_name" : "ctl_index",
     "referenced_type" : "type-9"
    },
    {
     "field_name" : "num_values",
     "field_offset" : 32,
     "referenced_type" : "type-9"
    },
    {
     "field_name" : "type",
     "field_offset" : 64,
     "referenced_type" : "type-9"
    },
    {
     "field_name" : "value",
     "field_offset" : 96,
     "referenced_type" : "type-10"
    }
   ],
   "linker_set_key" : "mixer_setting",
   "name" : "mixer_setting",
   "referenced_type" : "type-8",
   "self_type" : "type-8",
   "size" : 16,
   "source_file" : "/system/media/audio_route/audio_route.c",
   "unique_id" : "mixer_setting"
  },
  {
   "alignment" : 4,
   "fields" :
   [
    {
     "field_name" : "ctl",
     "referenced_type" : "type-23"
    },
    {
     "field_name" : "num_values",
     "field_offset" : 32,
     "referenced_type" : "type-9"
    },
    {
     "field_name" : "old_value",
     "field_offset" : 64,
     "referenced_type" : "type-10"
    },
    {
     "field_name" : "new_value",
     "field_offset" : 96,
     "referenced_type" : "type-10"
    },
    {
     "field_name" : "reset_value",
     "field_offset" : 128,
     "referenced_type" : "type-10"
    },
    {
     "field_name" : "active_count",
     "field_offset" : 160,
     "referenced_type" : "type-9"
    }
   ],
   "linker_set_key" : "mixer_state",
   "name" : "mixer_state",
   "referenced_type" : "type-22",
   "self_type" : "type-22",
   "size" : 24,
   "source_file" : "/system/media/audio_route/audio_route.c",
   "unique_id" : "mixer_state"
  },
  {
   "alignment" : 4,
   "fields" :
   [
    {
     "field_name" : "ctl_index",
     "referenced_type" : "type-9"
    },
    {
     "field_name" : "index",
     "field_offset" : 32,
     "referenced_type" : "type-4"
    },
    {
     "field_name" : "value",
     "field_offset" : 64,
     "referenced_type" : "type-13"
    }
   ],
   "linker_set_key" : "mixer_value",
   "name" : "mixer_value",
   "referenced_type" : "type-499",
   "self_type" : "type-499",
   "size" : 12,
   "source_file" : "/system/media/audio_route/audio_route.c",
   "unique_id" : "mixer_value"
  },
  {
   "alignment" : 4,
   "fields" :
   [
    {
     "field_name" : "channels",
     "referenced_type" : "type-9"
    },
    {
     "field_name" : "rate",
     "field_offset" : 32,
     "referenced_type" : "type-9"
    },
    {
     "field_name" : "period_size",
     "field_offset" : 64,
     "referenced_type" : "type-9"
    },
    {
     "field_name" : "period_count",
     "field_offset" : 96,
     "referenced_type" : "type-9"
    },
    {
     "field_name" : "format",
     "field_offset" : 128,
     "referenced_type" : "type-493"
    },
    {
     "field_name" : "start_threshold",
     "field_offset" : 160,
     "referenced_type" : "type-9"
    },
    {
     "field_name" : "stop_threshold",
     "field_offset" : 192,
     "referenced_type" : "type-9"
    },
    {
     "field_name" : "silence_threshold",
     "field_offset" : 224,
     "referenced_type" : "type-9"
    },
    {
     "field_name" : "silence_size",
     "field_offset" : 256,
     "referenced_type" : "type-9"
    },
    {
     "field_name" : "avail_min",
     "field_offset" : 288,
     "referenced_type" : "type-4"
    }
   ],
   "linker_set_key" : "pcm_config",
   "name" : "pcm_config",
   "referenced_type" : "type-496",
   "self_type" : "type-496",
   "size" : 40,
   "source_file" : "/external/tinyalsa/include/tinyalsa/asoundlib.h",
   "unique_id" : "pcm_config"
  },
  {
   "alignment" : 4,
   "fields" :
   [
    {
     "field_name" : "bits",
     "referenced_type" : "type-495"
    }
   ],
   "linker_set_key" : "pcm_mask",
   "name" : "pcm_mask",
   "referenced_type" : "type-494",
   "self_type" : "type-494",
   "size" : 32,
   "source_file" : "/external/tinyalsa/include/tinyalsa/asoundlib.h",
   "unique_id" : "pcm_mask"
  },
  {
   "alignment" : 4,
   "fields" :
   [
    {
     "field_name" : "flags",
     "referenced_type" : "type-9"
    },
    {
     "field_name" : "stack_base",
     "field_offset" : 32,
     "referenced_type" : "type-14"
    },
    {
     "field_name" : "stack_size",
     "field_offset" : 64,
     "referenced_type" : "type-9"
    },
    {
     "field_name" : "guard_size",
     "field_offset" : 96,
     "referenced_type" : "type-9"
    },
    {
     "field_name" : "sched_policy",
     "field_offset" : 128,
     "referenced_type" : "type-4"
    },
    {
     "field_name" : "sched_priority",
     "field_offset" : 160,
     "referenced_type" : "type-4"
    }
   ],
   "linker_set_key" : "pthread_attr_t",
   "name" : "pthread_attr_t",
   "referenced_type" : "type-100",
   "self_type" : "type-100",
   "size" : 24,
   "source_file" : "/out/soong/.intermediates/bionic/libc/libc.llndk/android_arm_armv8-a_vendor_shared/gen/include/bits/pthread_types.h",
   "unique_id" : "pthread_attr_t"
  },
  {
   "alignment" : 4,
   "fields" :
   [
    {
     "field_name" : "flags",
     "referenced_type" : "type-9"
    },
    {
     "field_name" : "stack_base",
     "field_offset" : 32,
     "referenced_type" : "type-14"
    },
    {
     "field_name" : "stack_size",
     "field_offset" : 64,
     "referenced_type" : "type-9"
    },
    {
     "field_name" : "guard_size",
     "field_offset" : 96,
     "referenced_type" : "type-9"
    },
    {
     "field_name" : "sched_policy",
     "field_offset" : 128,
     "referenced_type" : "type-4"
    },
    {
     "field_name" : "sched_priority",
     "field_offset" : 160,
     "referenced_type" : "type-4"
    }
   ],
   "linker_set_key" : "pthread_attr_t",
   "name" : "pthread_attr_t",
   "referenced_type" : "type-352",
   "self_type" : "type-352",
   "size" : 24,
   "source_file" : "/out/soong/.intermediates/bionic/libc/libc.llndk/android_arm_armv8-a_vendor_shared/gen/include/bits/pthread_types.h",
   "unique_id" : "_ZTS14pthread_attr_t"
  },
  {
   "alignment" : 4,
   "fields" :
   [
    {
     "field_name" : "__private",
     "referenced_type" : "type-337"
    }
   ],
   "linker_set_key" : "pthread_barrier_t",
   "name" : "pthread_barrier_t",
   "referenced_type" : "type-336",
   "self_type" : "type-336",
   "size" : 32,
   "source_file" : "/out/soong/.intermediates/bionic/libc/libc.llndk/android_arm_armv8-a_vendor_shared/gen/include/bits/pthread_types.h",
   "unique_id" : "pthread_barrier_t"
  },
  {
   "alignment" : 4,
   "fields" :
   [
    {
     "field_name" : "__private",
     "referenced_type" : "type-337"
    }
   ],
   "linker_set_key" : "pthread_barrier_t",
   "name" : "pthread_barrier_t",
   "referenced_type" : "type-367",
   "self_type" : "type-367",
   "size" : 32,
   "source_file" : "/out/soong/.intermediates/bionic/libc/libc.llndk/android_arm_armv8-a_vendor_shared/gen/include/bits/pthread_types.h",
   "unique_id" : "_ZTS17pthread_barrier_t"
  },
  {
   "alignment" : 4,
   "fields" :
   [
    {
     "field_name" : "__private",
     "referenced_type" : "type-380"
    }
   ],
   "linker_set_key" : "pthread_cond_t",
   "name" : "pthread_cond_t",
   "referenced_type" : "type-379",
   "self_type" : "type-379",
   "size" : 4,
   "source_file" : "/out/soong/.intermediates/bionic/libc/libc.llndk/android_arm_armv8-a_vendor_shared/gen/include/bits/pthread_types.h",
   "unique_id" : "_ZTS14pthread_cond_t"
  },
  {
   "alignment" : 4,
   "fields" :
   [
    {
     "field_name" : "__private",
     "referenced_type" : "type-380"
    }
   ],
   "linker_set_key" : "pthread_cond_t",
   "name" : "pthread_cond_t",
   "referenced_type" : "type-395",
   "self_type" : "type-395",
   "size" : 4,
   "source_file" : "/out/soong/.intermediates/bionic/libc/libc.llndk/android_arm_armv8-a_vendor_shared/gen/include/bits/pthread_types.h",
   "unique_id" : "pthread_cond_t"
  },
  {
   "alignment" : 4,
   "fields" :
   [
    {
     "field_name" : "__private",
     "referenced_type" : "type-380"
    }
   ],
   "linker_set_key" : "pthread_mutex_t",
   "name" : "pthread_mutex_t",
   "referenced_type" : "type-390",
   "self_type" : "type-390",
   "size" : 4,
   "source_file" : "/out/soong/.intermediates/bionic/libc/libc.llndk/android_arm_armv8-a_vendor_shared/gen/include/bits/pthread_types.h",
   "unique_id" : "_ZTS15pthread_mutex_t"
  },
  {
   "alignment" : 4,
   "fields" :
   [
    {
     "field_name" : "__private",
     "referenced_type" : "type-380"
    }
   ],
   "linker_set_key" : "pthread_mutex_t",
   "name" : "pthread_mutex_t",
   "referenced_type" : "type-484",
   "self_type" : "type-484",
   "size" : 4,
   "source_file" : "/out/soong/.intermediates/bionic/libc/libc.llndk/android_arm_armv8-a_vendor_shared/gen/include/bits/pthread_types.h",
   "unique_id" : "pthread_mutex_t"
  },
  {
   "alignment" : 4,
   "fields" :
   [
    {
     "field_name" : "__private",
     "referenced_type" : "type-374"
    }
   ],
   "linker_set_key" : "pthread_rwlock_t",
   "name" : "pthread_rwlock_t",
   "referenced_type" : "type-373",
   "self_type" : "type-373",
   "size" : 40,
   "source_file" : "/out/soong/.intermediates/bionic/libc/libc.llndk/android_arm_armv8-a_vendor_shared/gen/include/bits/pthread_types.h",
   "unique_id" : "_ZTS16pthread_rwlock_t"
  },
  {
   "alignment" : 4,
   "fields" :
   [
    {
     "field_name" : "__private",
     "referenced_type" : "type-374"
    }
   ],
   "linker_set_key" : "pthread_rwlock_t",
   "name" : "pthread_rwlock_t",
   "referenced_type" : "type-491",
   "self_type" : "type-491",
   "size" : 40,
   "source_file" : "/out/soong/.intermediates/bionic/libc/libc.llndk/android_arm_armv8-a_vendor_shared/gen/include/bits/pthread_types.h",
   "unique_id" : "pthread_rwlock_t"
  },
  {
   "alignment" : 4,
   "fields" :
   [
    {
     "field_name" : "__private",
     "referenced_type" : "type-28"
    }
   ],
   "linker_set_key" : "pthread_spinlock_t",
   "name" : "pthread_spinlock_t",
   "referenced_type" : "type-27",
   "self_type" : "type-27",
   "size" : 8,
   "source_file" : "/out/soong/.intermediates/bionic/libc/libc.llndk/android_arm_armv8-a_vendor_shared/gen/include/bits/pthread_types.h",
   "unique_id" : "pthread_spinlock_t"
  },
  {
   "alignment" : 4,
   "fields" :
   [
    {
     "field_name" : "__private",
     "referenced_type" : "type-28"
    }
   ],
   "linker_set_key" : "pthread_spinlock_t",
   "name" : "pthread_spinlock_t",
   "referenced_type" : "type-391",
   "self_type" : "type-391",
   "size" : 8,
   "source_file" : "/out/soong/.intermediates/bionic/libc/libc.llndk/android_arm_armv8-a_vendor_shared/gen/include/bits/pthread_types.h",
   "unique_id" : "_ZTS18pthread_spinlock_t"
  },
  {
   "alignment" : 4,
   "fields" :
   [
    {
     "field_name" : "r_version",
     "referenced_type" : "type-4"
    },
    {
     "field_name" : "r_map",
     "field_offset" : 32,
     "referenced_type" : "type-281"
    },
    {
     "field_name" : "r_brk",
     "field_offset" : 64,
     "referenced_type" : "type-9"
    },
    {
     "field_name" : "r_state",
     "field_offset" : 96,
     "referenced_type" : "type-9"
    },
    {
     "field_name" : "r_ldbase",
     "field_offset" : 128,
     "referenced_type" : "type-9"
    }
   ],
   "linker_set_key" : "r_debug",
   "name" : "r_debug",
   "referenced_type" : "type-284",
   "self_type" : "type-284",
   "size" : 20,
   "source_file" : "/out/soong/.intermediates/bionic/libc/libc.llndk/android_arm_armv8-a_vendor_shared/gen/include/link.h",
   "unique_id" : "r_debug"
  },
  {
   "alignment" : 4,
   "fields" :
   [
    {
     "field_name" : "sched_priority",
     "referenced_type" : "type-4"
    }
   ],
   "linker_set_key" : "sched_param",
   "name" : "sched_param",
   "referenced_type" : "type-301",
   "self_type" : "type-301",
   "size" : 4,
   "source_file" : "/out/soong/.intermediates/bionic/libc/libc.llndk/android_arm_armv8-a_vendor_shared/gen/include/sched.h",
   "unique_id" : "sched_param"
  },
  {
   "alignment" : 4,
   "fields" :
   [
    {
     "referenced_type" : "type-356"
    },
    {
     "field_name" : "sa_mask",
     "field_offset" : 32,
     "referenced_type" : "type-3"
    },
    {
     "field_name" : "sa_flags",
     "field_offset" : 64,
     "referenced_type" : "type-4"
    },
    {
     "field_name" : "sa_restorer",
     "field_offset" : 96,
     "referenced_type" : "type-334"
    }
   ],
   "linker_set_key" : "sigaction",
   "name" : "sigaction",
   "referenced_type" : "type-355",
   "self_type" : "type-355",
   "size" : 16,
   "source_file" : "/out/soong/.intermediates/bionic/libc/libc.llndk/android_arm_armv8-a_vendor_shared/gen/include/bits/signal_types.h",
   "unique_id" : "_ZTS9sigaction"
  },
  {
   "alignment" : 4,
   "fields" :
   [
    {
     "referenced_type" : "type-429"
    },
    {
     "field_name" : "sa_mask",
     "field_offset" : 32,
     "referenced_type" : "type-3"
    },
    {
     "field_name" : "sa_flags",
     "field_offset" : 64,
     "referenced_type" : "type-4"
    },
    {
     "field_name" : "sa_restorer",
     "field_offset" : 96,
     "referenced_type" : "type-294"
    }
   ],
   "linker_set_key" : "sigaction",
   "name" : "sigaction",
   "referenced_type" : "type-428",
   "self_type" : "type-428",
   "size" : 16,
   "source_file" : "/out/soong/.intermediates/bionic/libc/libc.llndk/android_arm_armv8-a_vendor_shared/gen/include/bits/signal_types.h",
   "unique_id" : "sigaction"
  },
  {
   "alignment" : 4,
   "fields" :
   [
    {
     "referenced_type" : "type-358"
    },
    {
     "field_name" : "sa_flags",
     "field_offset" : 32,
     "referenced_type" : "type-4"
    },
    {
     "field_name" : "sa_restorer",
     "field_offset" : 64,
     "referenced_type" : "type-334"
    },
    {
     "field_name" : "sa_mask",
     "field_offset" : 96,
     "referenced_type" : "type-353"
    }
   ],
   "linker_set_key" : "sigaction64",
   "name" : "sigaction64",
   "referenced_type" : "type-357",
   "self_type" : "type-357",
   "size" : 20,
   "source_file" : "/out/soong/.intermediates/bionic/libc/libc.llndk/android_arm_armv8-a_vendor_shared/gen/include/bits/signal_types.h",
   "unique_id" : "_ZTS11sigaction64"
  },
  {
   "alignment" : 4,
   "fields" :
   [
    {
     "referenced_type" : "type-433"
    },
    {
     "field_name" : "sa_flags",
     "field_offset" : 32,
     "referenced_type" : "type-4"
    },
    {
     "field_name" : "sa_restorer",
     "field_offset" : 64,
     "referenced_type" : "type-294"
    },
    {
     "field_name" : "sa_mask",
     "field_offset" : 96,
     "referenced_type" : "type-416"
    }
   ],
   "linker_set_key" : "sigaction64",
   "name" : "sigaction64",
   "referenced_type" : "type-432",
   "self_type" : "type-432",
   "size" : 20,
   "source_file" : "/out/soong/.intermediates/bionic/libc/libc.llndk/android_arm_armv8-a_vendor_shared/gen/include/bits/signal_types.h",
   "unique_id" : "sigaction64"
  },
  {
   "alignment" : 4,
   "fields" :
   [
    {
     "field_name" : "sa_handler",
     "referenced_type" : "type-314"
    },
    {
     "field_name" : "sa_sigaction",
     "referenced_type" : "type-316"
    }
   ],
   "is_anonymous" : true,
   "linker_set_key" : "sigaction64::(anonymous union at out/soong/.intermediates/bionic/libc/libc.llndk/android_arm_armv8-a_vendor_shared/gen/include/bits/signal_types.h:116:3) at out/soong/.intermediates/bionic/libc/libc.llndk/android_arm_armv8-a_vendor_shared/gen/include/bits/signal_types.h:116:3",
   "name" : "sigaction64::(anonymous union at out/soong/.intermediates/bionic/libc/libc.llndk/android_arm_armv8-a_vendor_shared/gen/include/bits/signal_types.h:116:3) at out/soong/.intermediates/bionic/libc/libc.llndk/android_arm_armv8-a_vendor_shared/gen/include/bits/signal_types.h:116:3",
   "record_kind" : "union",
   "referenced_type" : "type-358",
   "self_type" : "type-358",
   "size" : 4,
   "source_file" : "/out/soong/.intermediates/bionic/libc/libc.llndk/android_arm_armv8-a_vendor_shared/gen/include/bits/signal_types.h",
   "unique_id" : "_ZTSN11sigaction64Ut_E"
  },
  {
   "alignment" : 4,
   "fields" :
   [
    {
     "field_name" : "sa_handler",
     "referenced_type" : "type-314"
    },
    {
     "field_name" : "sa_sigaction",
     "referenced_type" : "type-31"
    }
   ],
   "is_anonymous" : true,
   "linker_set_key" : "sigaction64::(anonymous union at out/soong/.intermediates/bionic/libc/libc.llndk/android_arm_armv8-a_vendor_shared/gen/include/bits/signal_types.h:116:3) at out/soong/.intermediates/bionic/libc/libc.llndk/android_arm_armv8-a_vendor_shared/gen/include/bits/signal_types.h:116:3",
   "name" : "sigaction64::(anonymous union at out/soong/.intermediates/bionic/libc/libc.llndk/android_arm_armv8-a_vendor_shared/gen/include/bits/signal_types.h:116:3) at out/soong/.intermediates/bionic/libc/libc.llndk/android_arm_armv8-a_vendor_shared/gen/include/bits/signal_types.h:116:3",
   "record_kind" : "union",
   "referenced_type" : "type-433",
   "self_type" : "type-433",
   "size" : 4,
   "source_file" : "/out/soong/.intermediates/bionic/libc/libc.llndk/android_arm_armv8-a_vendor_shared/gen/include/bits/signal_types.h",
   "unique_id" : "sigaction64::(anonymous union at out/soong/.intermediates/bionic/libc/libc.llndk/android_arm_armv8-a_vendor_shared/gen/include/bits/signal_types.h:116:3)"
  },
  {
   "alignment" : 4,
   "fields" :
   [
    {
     "field_name" : "sa_handler",
     "referenced_type" : "type-314"
    },
    {
     "field_name" : "sa_sigaction",
     "referenced_type" : "type-316"
    }
   ],
   "is_anonymous" : true,
   "linker_set_key" : "sigaction::(anonymous union at out/soong/.intermediates/bionic/libc/libc.llndk/android_arm_armv8-a_vendor_shared/gen/include/bits/signal_types.h:105:3) at out/soong/.intermediates/bionic/libc/libc.llndk/android_arm_armv8-a_vendor_shared/gen/include/bits/signal_types.h:105:3",
   "name" : "sigaction::(anonymous union at out/soong/.intermediates/bionic/libc/libc.llndk/android_arm_armv8-a_vendor_shared/gen/include/bits/signal_types.h:105:3) at out/soong/.intermediates/bionic/libc/libc.llndk/android_arm_armv8-a_vendor_shared/gen/include/bits/signal_types.h:105:3",
   "record_kind" : "union",
   "referenced_type" : "type-356",
   "self_type" : "type-356",
   "size" : 4,
   "source_file" : "/out/soong/.intermediates/bionic/libc/libc.llndk/android_arm_armv8-a_vendor_shared/gen/include/bits/signal_types.h",
   "unique_id" : "_ZTSN9sigactionUt_E"
  },
  {
   "alignment" : 4,
   "fields" :
   [
    {
     "field_name" : "sa_handler",
     "referenced_type" : "type-314"
    },
    {
     "field_name" : "sa_sigaction",
     "referenced_type" : "type-31"
    }
   ],
   "is_anonymous" : true,
   "linker_set_key" : "sigaction::(anonymous union at out/soong/.intermediates/bionic/libc/libc.llndk/android_arm_armv8-a_vendor_shared/gen/include/bits/signal_types.h:105:3) at out/soong/.intermediates/bionic/libc/libc.llndk/android_arm_armv8-a_vendor_shared/gen/include/bits/signal_types.h:105:3",
   "name" : "sigaction::(anonymous union at out/soong/.intermediates/bionic/libc/libc.llndk/android_arm_armv8-a_vendor_shared/gen/include/bits/signal_types.h:105:3) at out/soong/.intermediates/bionic/libc/libc.llndk/android_arm_armv8-a_vendor_shared/gen/include/bits/signal_types.h:105:3",
   "record_kind" : "union",
   "referenced_type" : "type-429",
   "self_type" : "type-429",
   "size" : 4,
   "source_file" : "/out/soong/.intermediates/bionic/libc/libc.llndk/android_arm_armv8-a_vendor_shared/gen/include/bits/signal_types.h",
   "unique_id" : "sigaction::(anonymous union at out/soong/.intermediates/bionic/libc/libc.llndk/android_arm_armv8-a_vendor_shared/gen/include/bits/signal_types.h:105:3)"
  },
  {
   "alignment" : 4,
   "fields" :
   [
    {
     "field_name" : "ss_sp",
     "referenced_type" : "type-14"
    },
    {
     "field_name" : "ss_flags",
     "field_offset" : 32,
     "referenced_type" : "type-4"
    },
    {
     "field_name" : "ss_size",
     "field_offset" : 64,
     "referenced_type" : "type-9"
    }
   ],
   "linker_set_key" : "sigaltstack",
   "name" : "sigaltstack",
   "referenced_type" : "type-338",
   "self_type" : "type-338",
   "size" : 12,
   "source_file" : "/bionic/libc/kernel/uapi/asm-arm/asm/signal.h",
   "unique_id" : "sigaltstack"
  },
  {
   "alignment" : 4,
   "fields" :
   [
    {
     "field_name" : "ss_sp",
     "referenced_type" : "type-14"
    },
    {
     "field_name" : "ss_flags",
     "field_offset" : 32,
     "referenced_type" : "type-4"
    },
    {
     "field_name" : "ss_size",
     "field_offset" : 64,
     "referenced_type" : "type-9"
    }
   ],
   "linker_set_key" : "sigaltstack",
   "name" : "sigaltstack",
   "referenced_type" : "type-339",
   "self_type" : "type-339",
   "size" : 12,
   "source_file" : "/bionic/libc/kernel/uapi/asm-arm/asm/signal.h",
   "unique_id" : "_ZTS11sigaltstack"
  },
  {
   "alignment" : 4,
   "fields" :
   [
    {
     "field_name" : "trap_no",
     "referenced_type" : "type-3"
    },
    {
     "field_name" : "error_code",
     "field_offset" : 32,
     "referenced_type" : "type-3"
    },
    {
     "field_name" : "oldmask",
     "field_offset" : 64,
     "referenced_type" : "type-3"
    },
    {
     "field_name" : "arm_r0",
     "field_offset" : 96,
     "referenced_type" : "type-3"
    },
    {
     "field_name" : "arm_r1",
     "field_offset" : 128,
     "referenced_type" : "type-3"
    },
    {
     "field_name" : "arm_r2",
     "field_offset" : 160,
     "referenced_type" : "type-3"
    },
    {
     "field_name" : "arm_r3",
     "field_offset" : 192,
     "referenced_type" : "type-3"
    },
    {
     "field_name" : "arm_r4",
     "field_offset" : 224,
     "referenced_type" : "type-3"
    },
    {
     "field_name" : "arm_r5",
     "field_offset" : 256,
     "referenced_type" : "type-3"
    },
    {
     "field_name" : "arm_r6",
     "field_offset" : 288,
     "referenced_type" : "type-3"
    },
    {
     "field_name" : "arm_r7",
     "field_offset" : 320,
     "referenced_type" : "type-3"
    },
    {
     "field_name" : "arm_r8",
     "field_offset" : 352,
     "referenced_type" : "type-3"
    },
    {
     "field_name" : "arm_r9",
     "field_offset" : 384,
     "referenced_type" : "type-3"
    },
    {
     "field_name" : "arm_r10",
     "field_offset" : 416,
     "referenced_type" : "type-3"
    },
    {
     "field_name" : "arm_fp",
     "field_offset" : 448,
     "referenced_type" : "type-3"
    },
    {
     "field_name" : "arm_ip",
     "field_offset" : 480,
     "referenced_type" : "type-3"
    },
    {
     "field_name" : "arm_sp",
     "field_offset" : 512,
     "referenced_type" : "type-3"
    },
    {
     "field_name" : "arm_lr",
     "field_offset" : 544,
     "referenced_type" : "type-3"
    },
    {
     "field_name" : "arm_pc",
     "field_offset" : 576,
     "referenced_type" : "type-3"
    },
    {
     "field_name" : "arm_cpsr",
     "field_offset" : 608,
     "referenced_type" : "type-3"
    },
    {
     "field_name" : "fault_address",
     "field_offset" : 640,
     "referenced_type" : "type-3"
    }
   ],
   "linker_set_key" : "sigcontext",
   "name" : "sigcontext",
   "referenced_type" : "type-311",
   "self_type" : "type-311",
   "size" : 84,
   "source_file" : "/bionic/libc/kernel/uapi/asm-arm/asm/sigcontext.h",
   "unique_id" : "_ZTS10sigcontext"
  },
  {
   "alignment" : 4,
   "fields" :
   [
    {
     "field_name" : "trap_no",
     "referenced_type" : "type-3"
    },
    {
     "field_name" : "error_code",
     "field_offset" : 32,
     "referenced_type" : "type-3"
    },
    {
     "field_name" : "oldmask",
     "field_offset" : 64,
     "referenced_type" : "type-3"
    },
    {
     "field_name" : "arm_r0",
     "field_offset" : 96,
     "referenced_type" : "type-3"
    },
    {
     "field_name" : "arm_r1",
     "field_offset" : 128,
     "referenced_type" : "type-3"
    },
    {
     "field_name" : "arm_r2",
     "field_offset" : 160,
     "referenced_type" : "type-3"
    },
    {
     "field_name" : "arm_r3",
     "field_offset" : 192,
     "referenced_type" : "type-3"
    },
    {
     "field_name" : "arm_r4",
     "field_offset" : 224,
     "referenced_type" : "type-3"
    },
    {
     "field_name" : "arm_r5",
     "field_offset" : 256,
     "referenced_type" : "type-3"
    },
    {
     "field_name" : "arm_r6",
     "field_offset" : 288,
     "referenced_type" : "type-3"
    },
    {
     "field_name" : "arm_r7",
     "field_offset" : 320,
     "referenced_type" : "type-3"
    },
    {
     "field_name" : "arm_r8",
     "field_offset" : 352,
     "referenced_type" : "type-3"
    },
    {
     "field_name" : "arm_r9",
     "field_offset" : 384,
     "referenced_type" : "type-3"
    },
    {
     "field_name" : "arm_r10",
     "field_offset" : 416,
     "referenced_type" : "type-3"
    },
    {
     "field_name" : "arm_fp",
     "field_offset" : 448,
     "referenced_type" : "type-3"
    },
    {
     "field_name" : "arm_ip",
     "field_offset" : 480,
     "referenced_type" : "type-3"
    },
    {
     "field_name" : "arm_sp",
     "field_offset" : 512,
     "referenced_type" : "type-3"
    },
    {
     "field_name" : "arm_lr",
     "field_offset" : 544,
     "referenced_type" : "type-3"
    },
    {
     "field_name" : "arm_pc",
     "field_offset" : 576,
     "referenced_type" : "type-3"
    },
    {
     "field_name" : "arm_cpsr",
     "field_offset" : 608,
     "referenced_type" : "type-3"
    },
    {
     "field_name" : "fault_address",
     "field_offset" : 640,
     "referenced_type" : "type-3"
    }
   ],
   "linker_set_key" : "sigcontext",
   "name" : "sigcontext",
   "referenced_type" : "type-487",
   "self_type" : "type-487",
   "size" : 84,
   "source_file" : "/bionic/libc/kernel/uapi/asm-arm/asm/sigcontext.h",
   "unique_id" : "sigcontext"
  },
  {
   "alignment" : 4,
   "fields" :
   [
    {
     "field_name" : "sigev_value",
     "referenced_type" : "type-325"
    },
    {
     "field_name" : "sigev_signo",
     "field_offset" : 32,
     "referenced_type" : "type-4"
    },
    {
     "field_name" : "sigev_notify",
     "field_offset" : 64,
     "referenced_type" : "type-4"
    },
    {
     "field_name" : "_sigev_un",
     "field_offset" : 96,
     "referenced_type" : "type-342"
    }
   ],
   "linker_set_key" : "sigevent",
   "name" : "sigevent",
   "referenced_type" : "type-341",
   "self_type" : "type-341",
   "size" : 64,
   "source_file" : "/bionic/libc/kernel/uapi/asm-generic/siginfo.h",
   "unique_id" : "_ZTS8sigevent"
  },
  {
   "alignment" : 4,
   "fields" :
   [
    {
     "field_name" : "sigev_value",
     "referenced_type" : "type-40"
    },
    {
     "field_name" : "sigev_signo",
     "field_offset" : 32,
     "referenced_type" : "type-4"
    },
    {
     "field_name" : "sigev_notify",
     "field_offset" : 64,
     "referenced_type" : "type-4"
    },
    {
     "field_name" : "_sigev_un",
     "field_offset" : 96,
     "referenced_type" : "type-348"
    }
   ],
   "linker_set_key" : "sigevent",
   "name" : "sigevent",
   "referenced_type" : "type-347",
   "self_type" : "type-347",
   "size" : 64,
   "source_file" : "/bionic/libc/kernel/uapi/asm-generic/siginfo.h",
   "unique_id" : "sigevent"
  },
  {
   "alignment" : 4,
   "fields" :
   [
    {
     "field_name" : "_pad",
     "referenced_type" : "type-343"
    },
    {
     "field_name" : "_tid",
     "referenced_type" : "type-4"
    },
    {
     "field_name" : "_sigev_thread",
     "referenced_type" : "type-344"
    }
   ],
   "is_anonymous" : true,
   "linker_set_key" : "sigevent::(anonymous union at bionic/libc/kernel/uapi/asm-generic/siginfo.h:226:3) at bionic/libc/kernel/uapi/asm-generic/siginfo.h:226:3",
   "name" : "sigevent::(anonymous union at bionic/libc/kernel/uapi/asm-generic/siginfo.h:226:3) at bionic/libc/kernel/uapi/asm-generic/siginfo.h:226:3",
   "record_kind" : "union",
   "referenced_type" : "type-342",
   "self_type" : "type-342",
   "size" : 52,
   "source_file" : "/bionic/libc/kernel/uapi/asm-generic/siginfo.h",
   "unique_id" : "_ZTSN8sigeventUt_E"
  },
  {
   "alignment" : 4,
   "fields" :
   [
    {
     "field_name" : "_pad",
     "referenced_type" : "type-343"
    },
    {
     "field_name" : "_tid",
     "referenced_type" : "type-4"
    },
    {
     "field_name" : "_sigev_thread",
     "referenced_type" : "type-349"
    }
   ],
   "is_anonymous" : true,
   "linker_set_key" : "sigevent::(anonymous union at bionic/libc/kernel/uapi/asm-generic/siginfo.h:226:3) at bionic/libc/kernel/uapi/asm-generic/siginfo.h:226:3",
   "name" : "sigevent::(anonymous union at bionic/libc/kernel/uapi/asm-generic/siginfo.h:226:3) at bionic/libc/kernel/uapi/asm-generic/siginfo.h:226:3",
   "record_kind" : "union",
   "referenced_type" : "type-348",
   "self_type" : "type-348",
   "size" : 52,
   "source_file" : "/bionic/libc/kernel/uapi/asm-generic/siginfo.h",
   "unique_id" : "sigevent::(anonymous union at bionic/libc/kernel/uapi/asm-generic/siginfo.h:226:3)"
  },
  {
   "alignment" : 4,
   "fields" :
   [
    {
     "field_name" : "_function",
     "referenced_type" : "type-345"
    },
    {
     "field_name" : "_attribute",
     "field_offset" : 32,
     "referenced_type" : "type-14"
    }
   ],
   "is_anonymous" : true,
   "linker_set_key" : "sigevent::(anonymous union at bionic/libc/kernel/uapi/asm-generic/siginfo.h:226:3)::(anonymous struct at bionic/libc/kernel/uapi/asm-generic/siginfo.h:229:5) at bionic/libc/kernel/uapi/asm-generic/siginfo.h:229:5",
   "name" : "sigevent::(anonymous union at bionic/libc/kernel/uapi/asm-generic/siginfo.h:226:3)::(anonymous struct at bionic/libc/kernel/uapi/asm-generic/siginfo.h:229:5) at bionic/libc/kernel/uapi/asm-generic/siginfo.h:229:5",
   "referenced_type" : "type-344",
   "self_type" : "type-344",
   "size" : 8,
   "source_file" : "/bionic/libc/kernel/uapi/asm-generic/siginfo.h",
   "unique_id" : "_ZTSN8sigeventUt_Ut_E"
  },
  {
   "alignment" : 4,
   "fields" :
   [
    {
     "field_name" : "_function",
     "referenced_type" : "type-350"
    },
    {
     "field_name" : "_attribute",
     "field_offset" : 32,
     "referenced_type" : "type-14"
    }
   ],
   "is_anonymous" : true,
   "linker_set_key" : "sigevent::(anonymous union at bionic/libc/kernel/uapi/asm-generic/siginfo.h:226:3)::(anonymous struct at bionic/libc/kernel/uapi/asm-generic/siginfo.h:229:5) at bionic/libc/kernel/uapi/asm-generic/siginfo.h:229:5",
   "name" : "sigevent::(anonymous union at bionic/libc/kernel/uapi/asm-generic/siginfo.h:226:3)::(anonymous struct at bionic/libc/kernel/uapi/asm-generic/siginfo.h:229:5) at bionic/libc/kernel/uapi/asm-generic/siginfo.h:229:5",
   "referenced_type" : "type-349",
   "self_type" : "type-349",
   "size" : 8,
   "source_file" : "/bionic/libc/kernel/uapi/asm-generic/siginfo.h",
   "unique_id" : "sigevent::(anonymous union at bionic/libc/kernel/uapi/asm-generic/siginfo.h:226:3)::(anonymous struct at bionic/libc/kernel/uapi/asm-generic/siginfo.h:229:5)"
  },
  {
   "alignment" : 4,
   "fields" :
   [
    {
     "referenced_type" : "type-320"
    }
   ],
   "linker_set_key" : "siginfo",
   "name" : "siginfo",
   "referenced_type" : "type-319",
   "self_type" : "type-319",
   "size" : 128,
   "source_file" : "/bionic/libc/kernel/uapi/asm-generic/siginfo.h",
   "unique_id" : "_ZTS7siginfo"
  },
  {
   "alignment" : 4,
   "fields" :
   [
    {
     "referenced_type" : "type-35"
    }
   ],
   "linker_set_key" : "siginfo",
   "name" : "siginfo",
   "referenced_type" : "type-34",
   "self_type" : "type-34",
   "size" : 128,
   "source_file" : "/bionic/libc/kernel/uapi/asm-generic/siginfo.h",
   "unique_id" : "siginfo"
  },
  {
   "alignment" : 4,
   "fields" :
   [
    {
     "referenced_type" : "type-321"
    },
    {
     "field_name" : "_si_pad",
     "referenced_type" : "type-51"
    }
   ],
   "is_anonymous" : true,
   "linker_set_key" : "siginfo::(anonymous union at bionic/libc/kernel/uapi/asm-generic/siginfo.h:102:3) at bionic/libc/kernel/uapi/asm-generic/siginfo.h:102:3",
   "name" : "siginfo::(anonymous union at bionic/libc/kernel/uapi/asm-generic/siginfo.h:102:3) at bionic/libc/kernel/uapi/asm-generic/siginfo.h:102:3",
   "record_kind" : "union",
   "referenced_type" : "type-320",
   "self_type" : "type-320",
   "size" : 128,
   "source_file" : "/bionic/libc/kernel/uapi/asm-generic/siginfo.h",
   "unique_id" : "_ZTSN7siginfoUt_E"
  },
  {
   "alignment" : 4,
   "fields" :
   [
    {
     "referenced_type" : "type-36"
    },
    {
     "field_name" : "_si_pad",
     "referenced_type" : "type-51"
    }
   ],
   "is_anonymous" : true,
   "linker_set_key" : "siginfo::(anonymous union at bionic/libc/kernel/uapi/asm-generic/siginfo.h:102:3) at bionic/libc/kernel/uapi/asm-generic/siginfo.h:102:3",
   "name" : "siginfo::(anonymous union at bionic/libc/kernel/uapi/asm-generic/siginfo.h:102:3) at bionic/libc/kernel/uapi/asm-generic/siginfo.h:102:3",
   "record_kind" : "union",
   "referenced_type" : "type-35",
   "self_type" : "type-35",
   "size" : 128,
   "source_file" : "/bionic/libc/kernel/uapi/asm-generic/siginfo.h",
   "unique_id" : "siginfo::(anonymous union at bionic/libc/kernel/uapi/asm-generic/siginfo.h:102:3)"
  },
  {
   "alignment" : 4,
   "fields" :
   [
    {
     "field_name" : "si_signo",
     "referenced_type" : "type-4"
    },
    {
     "field_name" : "si_errno",
     "field_offset" : 32,
     "referenced_type" : "type-4"
    },
    {
     "field_name" : "si_code",
     "field_offset" : 64,
     "referenced_type" : "type-4"
    },
    {
     "field_name" : "_sifields",
     "field_offset" : 96,
     "referenced_type" : "type-322"
    }
   ],
   "is_anonymous" : true,
   "linker_set_key" : "siginfo::(anonymous union at bionic/libc/kernel/uapi/asm-generic/siginfo.h:102:3)::(anonymous struct at bionic/libc/kernel/uapi/asm-generic/siginfo.h:103:5) at bionic/libc/kernel/uapi/asm-generic/siginfo.h:103:5 <Spelling=bionic/libc/kernel/uapi/asm-generic/siginfo.h:95:19>",
   "name" : "siginfo::(anonymous union at bionic/libc/kernel/uapi/asm-generic/siginfo.h:102:3)::(anonymous struct at bionic/libc/kernel/uapi/asm-generic/siginfo.h:103:5) at bionic/libc/kernel/uapi/asm-generic/siginfo.h:103:5 <Spelling=bionic/libc/kernel/uapi/asm-generic/siginfo.h:95:19>",
   "referenced_type" : "type-321",
   "self_type" : "type-321",
   "size" : 32,
   "source_file" : "/bionic/libc/kernel/uapi/asm-generic/siginfo.h",
   "unique_id" : "_ZTSN7siginfoUt_Ut_E"
  },
  {
   "alignment" : 4,
   "fields" :
   [
    {
     "field_name" : "si_signo",
     "referenced_type" : "type-4"
    },
    {
     "field_name" : "si_errno",
     "field_offset" : 32,
     "referenced_type" : "type-4"
    },
    {
     "field_name" : "si_code",
     "field_offset" : 64,
     "referenced_type" : "type-4"
    },
    {
     "field_name" : "_sifields",
     "field_offset" : 96,
     "referenced_type" : "type-37"
    }
   ],
   "is_anonymous" : true,
   "linker_set_key" : "siginfo::(anonymous union at bionic/libc/kernel/uapi/asm-generic/siginfo.h:102:3)::(anonymous struct at bionic/libc/kernel/uapi/asm-generic/siginfo.h:103:5) at bionic/libc/kernel/uapi/asm-generic/siginfo.h:103:5 <Spelling=bionic/libc/kernel/uapi/asm-generic/siginfo.h:95:19>",
   "name" : "siginfo::(anonymous union at bionic/libc/kernel/uapi/asm-generic/siginfo.h:102:3)::(anonymous struct at bionic/libc/kernel/uapi/asm-generic/siginfo.h:103:5) at bionic/libc/kernel/uapi/asm-generic/siginfo.h:103:5 <Spelling=bionic/libc/kernel/uapi/asm-generic/siginfo.h:95:19>",
   "referenced_type" : "type-36",
   "self_type" : "type-36",
   "size" : 32,
   "source_file" : "/bionic/libc/kernel/uapi/asm-generic/siginfo.h",
   "unique_id" : "siginfo::(anonymous union at bionic/libc/kernel/uapi/asm-generic/siginfo.h:102:3)::(anonymous struct at bionic/libc/kernel/uapi/asm-generic/siginfo.h:103:5)"
  },
  {
   "alignment" : 4,
   "fields" :
   [
    {
     "field_name" : "__bits",
     "referenced_type" : "type-354"
    }
   ],
   "linker_set_key" : "sigset64_t",
   "name" : "sigset64_t",
   "referenced_type" : "type-353",
   "self_type" : "type-353",
   "size" : 8,
   "source_file" : "/out/soong/.intermediates/bionic/libc/libc.llndk/android_arm_armv8-a_vendor_shared/gen/include/bits/signal_types.h",
   "unique_id" : "_ZTS10sigset64_t"
  },
  {
   "alignment" : 4,
   "fields" :
   [
    {
     "field_name" : "__bits",
     "referenced_type" : "type-354"
    }
   ],
   "linker_set_key" : "sigset64_t",
   "name" : "sigset64_t",
   "referenced_type" : "type-416",
   "self_type" : "type-416",
   "size" : 8,
   "source_file" : "/out/soong/.intermediates/bionic/libc/libc.llndk/android_arm_armv8-a_vendor_shared/gen/include/bits/signal_types.h",
   "unique_id" : "sigset64_t"
  },
  {
   "alignment" : 4,
   "fields" :
   [
    {
     "field_name" : "sival_int",
     "referenced_type" : "type-4"
    },
    {
     "field_name" : "sival_ptr",
     "referenced_type" : "type-14"
    }
   ],
   "linker_set_key" : "sigval",
   "name" : "sigval",
   "record_kind" : "union",
   "referenced_type" : "type-325",
   "self_type" : "type-325",
   "size" : 4,
   "source_file" : "/bionic/libc/kernel/uapi/asm-generic/siginfo.h",
   "unique_id" : "_ZTS6sigval"
  },
  {
   "alignment" : 4,
   "fields" :
   [
    {
     "field_name" : "sival_int",
     "referenced_type" : "type-4"
    },
    {
     "field_name" : "sival_ptr",
     "referenced_type" : "type-14"
    }
   ],
   "linker_set_key" : "sigval",
   "name" : "sigval",
   "record_kind" : "union",
   "referenced_type" : "type-40",
   "self_type" : "type-40",
   "size" : 4,
   "source_file" : "/bionic/libc/kernel/uapi/asm-generic/siginfo.h",
   "unique_id" : "sigval"
  },
  {
   "alignment" : 8,
   "fields" :
   [
    {
     "field_name" : "stx_mask",
     "referenced_type" : "type-9"
    },
    {
     "field_name" : "stx_blksize",
     "field_offset" : 32,
     "referenced_type" : "type-9"
    },
    {
     "field_name" : "stx_attributes",
     "field_offset" : 64,
     "referenced_type" : "type-107"
    },
    {
     "field_name" : "stx_nlink",
     "field_offset" : 128,
     "referenced_type" : "type-9"
    },
    {
     "field_name" : "stx_uid",
     "field_offset" : 160,
     "referenced_type" : "type-9"
    },
    {
     "field_name" : "stx_gid",
     "field_offset" : 192,
     "referenced_type" : "type-9"
    },
    {
     "field_name" : "stx_mode",
     "field_offset" : 224,
     "referenced_type" : "type-108"
    },
    {
     "field_name" : "__spare0",
     "field_offset" : 240,
     "referenced_type" : "type-109"
    },
    {
     "field_name" : "stx_ino",
     "field_offset" : 256,
     "referenced_type" : "type-107"
    },
    {
     "field_name" : "stx_size",
     "field_offset" : 320,
     "referenced_type" : "type-107"
    },
    {
     "field_name" : "stx_blocks",
     "field_offset" : 384,
     "referenced_type" : "type-107"
    },
    {
     "field_name" : "stx_attributes_mask",
     "field_offset" : 448,
     "referenced_type" : "type-107"
    },
    {
     "field_name" : "stx_atime",
     "field_offset" : 512,
     "referenced_type" : "type-105"
    },
    {
     "field_name" : "stx_btime",
     "field_offset" : 640,
     "referenced_type" : "type-105"
    },
    {
     "field_name" : "stx_ctime",
     "field_offset" : 768,
     "referenced_type" : "type-105"
    },
    {
     "field_name" : "stx_mtime",
     "field_offset" : 896,
     "referenced_type" : "type-105"
    },
    {
     "field_name" : "stx_rdev_major",
     "field_offset" : 1024,
     "referenced_type" : "type-9"
    },
    {
     "field_name" : "stx_rdev_minor",
     "field_offset" : 1056,
     "referenced_type" : "type-9"
    },
    {
     "field_name" : "stx_dev_major",
     "field_offset" : 1088,
     "referenced_type" : "type-9"
    },
    {
     "field_name" : "stx_dev_minor",
     "field_offset" : 1120,
     "referenced_type" : "type-9"
    },
    {
     "field_name" : "__spare2",
     "field_offset" : 1152,
     "referenced_type" : "type-110"
    }
   ],
   "linker_set_key" : "statx",
   "name" : "statx",
   "referenced_type" : "type-106",
   "self_type" : "type-106",
   "size" : 256,
   "source_file" : "/bionic/libc/kernel/uapi/linux/stat.h",
   "unique_id" : "statx"
  },
  {
   "alignment" : 8,
   "fields" :
   [
    {
     "field_name" : "tv_sec",
     "referenced_type" : "type-72"
    },
    {
     "field_name" : "tv_nsec",
     "field_offset" : 64,
     "referenced_type" : "type-9"
    },
    {
     "field_name" : "__reserved",
     "field_offset" : 96,
     "referenced_type" : "type-4"
    }
   ],
   "linker_set_key" : "statx_timestamp",
   "name" : "statx_timestamp",
   "referenced_type" : "type-105",
   "self_type" : "type-105",
   "size" : 16,
   "source_file" : "/bionic/libc/kernel/uapi/linux/stat.h",
   "unique_id" : "statx_timestamp"
  },
  {
   "alignment" : 4,
   "fields" :
   [
    {
     "field_name" : "tv_sec",
     "referenced_type" : "type-13"
    },
    {
     "field_name" : "tv_nsec",
     "field_offset" : 32,
     "referenced_type" : "type-13"
    }
   ],
   "linker_set_key" : "timespec",
   "name" : "timespec",
   "referenced_type" : "type-121",
   "self_type" : "type-121",
   "size" : 8,
   "source_file" : "/bionic/libc/kernel/uapi/linux/time.h",
   "unique_id" : "timespec"
  },
  {
   "alignment" : 4,
   "fields" :
   [
    {
     "field_name" : "tv_sec",
     "referenced_type" : "type-13"
    },
    {
     "field_name" : "tv_nsec",
     "field_offset" : 32,
     "referenced_type" : "type-13"
    }
   ],
   "linker_set_key" : "timespec",
   "name" : "timespec",
   "referenced_type" : "type-300",
   "self_type" : "type-300",
   "size" : 8,
   "source_file" : "/out/soong/.intermediates/bionic/libc/libc.llndk/android_arm_armv8-a_vendor_shared/gen/include/bits/timespec.h",
   "unique_id" : "_ZTS8timespec"
  },
  {
   "alignment" : 4,
   "fields" :
   [
    {
     "field_name" : "tv_sec",
     "referenced_type" : "type-13"
    },
    {
     "field_name" : "tv_usec",
     "field_offset" : 32,
     "referenced_type" : "type-13"
    }
   ],
   "linker_set_key" : "timeval",
   "name" : "timeval",
   "referenced_type" : "type-122",
   "self_type" : "type-122",
   "size" : 8,
   "source_file" : "/bionic/libc/kernel/uapi/linux/time.h",
   "unique_id" : "timeval"
  },
  {
   "alignment" : 4,
   "fields" :
   [
    {
     "field_name" : "tv_sec",
     "referenced_type" : "type-13"
    },
    {
     "field_name" : "tv_usec",
     "field_offset" : 32,
     "referenced_type" : "type-13"
    }
   ],
   "linker_set_key" : "timeval",
   "name" : "timeval",
   "referenced_type" : "type-304",
   "self_type" : "type-304",
   "size" : 8,
   "source_file" : "/bionic/libc/kernel/uapi/linux/time.h",
   "unique_id" : "_ZTS7timeval"
  },
  {
   "alignment" : 4,
   "fields" :
   [
    {
     "field_name" : "tz_minuteswest",
     "referenced_type" : "type-4"
    },
    {
     "field_name" : "tz_dsttime",
     "field_offset" : 32,
     "referenced_type" : "type-4"
    }
   ],
   "linker_set_key" : "timezone",
   "name" : "timezone",
   "referenced_type" : "type-123",
   "self_type" : "type-123",
   "size" : 8,
   "source_file" : "/bionic/libc/kernel/uapi/linux/time.h",
   "unique_id" : "timezone"
  },
  {
   "alignment" : 4,
   "fields" :
   [
    {
     "field_name" : "tz_minuteswest",
     "referenced_type" : "type-4"
    },
    {
     "field_name" : "tz_dsttime",
     "field_offset" : 32,
     "referenced_type" : "type-4"
    }
   ],
   "linker_set_key" : "timezone",
   "name" : "timezone",
   "referenced_type" : "type-305",
   "self_type" : "type-305",
   "size" : 8,
   "source_file" : "/bionic/libc/kernel/uapi/linux/time.h",
   "unique_id" : "_ZTS8timezone"
  },
  {
   "alignment" : 4,
   "fields" :
   [
    {
     "field_name" : "tm_sec",
     "referenced_type" : "type-4"
    },
    {
     "field_name" : "tm_min",
     "field_offset" : 32,
     "referenced_type" : "type-4"
    },
    {
     "field_name" : "tm_hour",
     "field_offset" : 64,
     "referenced_type" : "type-4"
    },
    {
     "field_name" : "tm_mday",
     "field_offset" : 96,
     "referenced_type" : "type-4"
    },
    {
     "field_name" : "tm_mon",
     "field_offset" : 128,
     "referenced_type" : "type-4"
    },
    {
     "field_name" : "tm_year",
     "field_offset" : 160,
     "referenced_type" : "type-4"
    },
    {
     "field_name" : "tm_wday",
     "field_offset" : 192,
     "referenced_type" : "type-4"
    },
    {
     "field_name" : "tm_yday",
     "field_offset" : 224,
     "referenced_type" : "type-4"
    },
    {
     "field_name" : "tm_isdst",
     "field_offset" : 256,
     "referenced_type" : "type-4"
    },
    {
     "field_name" : "tm_gmtoff",
     "field_offset" : 288,
     "referenced_type" : "type-13"
    },
    {
     "field_name" : "tm_zone",
     "field_offset" : 320,
     "referenced_type" : "type-91"
    }
   ],
   "linker_set_key" : "tm",
   "name" : "tm",
   "referenced_type" : "type-369",
   "self_type" : "type-369",
   "size" : 44,
   "source_file" : "/out/soong/.intermediates/bionic/libc/libc.llndk/android_arm_armv8-a_vendor_shared/gen/include/time.h",
   "unique_id" : "tm"
  },
  {
   "alignment" : 8,
   "fields" :
   [
    {
     "field_name" : "uc_flags",
     "referenced_type" : "type-3"
    },
    {
     "field_name" : "uc_link",
     "field_offset" : 32,
     "referenced_type" : "type-362"
    },
    {
     "field_name" : "uc_stack",
     "field_offset" : 64,
     "referenced_type" : "type-339"
    },
    {
     "field_name" : "uc_mcontext",
     "field_offset" : 160,
     "referenced_type" : "type-311"
    },
    {
     "field_offset" : 832,
     "referenced_type" : "type-363"
    },
    {
     "field_name" : "__padding",
     "field_offset" : 896,
     "referenced_type" : "type-365"
    },
    {
     "field_name" : "uc_regspace",
     "field_offset" : 1856,
     "referenced_type" : "type-366"
    }
   ],
   "linker_set_key" : "ucontext",
   "name" : "ucontext",
   "referenced_type" : "type-361",
   "self_type" : "type-361",
   "size" : 744,
   "source_file" : "/out/soong/.intermediates/bionic/libc/libc.llndk/android_arm_armv8-a_vendor_shared/gen/include/sys/ucontext.h",
   "unique_id" : "ucontext"
  },
  {
   "alignment" : 8,
   "fields" :
   [
    {
     "field_name" : "uc_flags",
     "referenced_type" : "type-3"
    },
    {
     "field_name" : "uc_link",
     "field_offset" : 32,
     "referenced_type" : "type-486"
    },
    {
     "field_name" : "uc_stack",
     "field_offset" : 64,
     "referenced_type" : "type-338"
    },
    {
     "field_name" : "uc_mcontext",
     "field_offset" : 160,
     "referenced_type" : "type-487"
    },
    {
     "field_offset" : 832,
     "referenced_type" : "type-488"
    },
    {
     "field_name" : "__padding",
     "field_offset" : 896,
     "referenced_type" : "type-365"
    },
    {
     "field_name" : "uc_regspace",
     "field_offset" : 1856,
     "referenced_type" : "type-366"
    }
   ],
   "linker_set_key" : "ucontext",
   "name" : "ucontext",
   "referenced_type" : "type-485",
   "self_type" : "type-485",
   "size" : 744,
   "source_file" : "/out/soong/.intermediates/bionic/libc/libc.llndk/android_arm_armv8-a_vendor_shared/gen/include/sys/ucontext.h",
   "unique_id" : "ucontext"
  },
  {
   "alignment" : 4,
   "fields" :
   [
    {
     "referenced_type" : "type-364"
    },
    {
     "field_name" : "uc_sigmask64",
     "referenced_type" : "type-353"
    }
   ],
   "is_anonymous" : true,
   "linker_set_key" : "ucontext::(anonymous union at out/soong/.intermediates/bionic/libc/libc.llndk/android_arm_armv8-a_vendor_shared/gen/include/sys/ucontext.h:90:3) at out/soong/.intermediates/bionic/libc/libc.llndk/android_arm_armv8-a_vendor_shared/gen/include/sys/ucontext.h:90:3",
   "name" : "ucontext::(anonymous union at out/soong/.intermediates/bionic/libc/libc.llndk/android_arm_armv8-a_vendor_shared/gen/include/sys/ucontext.h:90:3) at out/soong/.intermediates/bionic/libc/libc.llndk/android_arm_armv8-a_vendor_shared/gen/include/sys/ucontext.h:90:3",
   "record_kind" : "union",
   "referenced_type" : "type-363",
   "self_type" : "type-363",
   "size" : 8,
   "source_file" : "/out/soong/.intermediates/bionic/libc/libc.llndk/android_arm_armv8-a_vendor_shared/gen/include/sys/ucontext.h",
   "unique_id" : "ucontext::(anonymous union at out/soong/.intermediates/bionic/libc/libc.llndk/android_arm_armv8-a_vendor_shared/gen/include/sys/ucontext.h:90:3)"
  },
  {
   "alignment" : 4,
   "fields" :
   [
    {
     "referenced_type" : "type-364"
    },
    {
     "field_name" : "uc_sigmask64",
     "referenced_type" : "type-416"
    }
   ],
   "is_anonymous" : true,
   "linker_set_key" : "ucontext::(anonymous union at out/soong/.intermediates/bionic/libc/libc.llndk/android_arm_armv8-a_vendor_shared/gen/include/sys/ucontext.h:90:3) at out/soong/.intermediates/bionic/libc/libc.llndk/android_arm_armv8-a_vendor_shared/gen/include/sys/ucontext.h:90:3",
   "name" : "ucontext::(anonymous union at out/soong/.intermediates/bionic/libc/libc.llndk/android_arm_armv8-a_vendor_shared/gen/include/sys/ucontext.h:90:3) at out/soong/.intermediates/bionic/libc/libc.llndk/android_arm_armv8-a_vendor_shared/gen/include/sys/ucontext.h:90:3",
   "record_kind" : "union",
   "referenced_type" : "type-488",
   "self_type" : "type-488",
   "size" : 8,
   "source_file" : "/out/soong/.intermediates/bionic/libc/libc.llndk/android_arm_armv8-a_vendor_shared/gen/include/sys/ucontext.h",
   "unique_id" : "ucontext::(anonymous union at out/soong/.intermediates/bionic/libc/libc.llndk/android_arm_armv8-a_vendor_shared/gen/include/sys/ucontext.h:90:3)"
  },
  {
   "alignment" : 4,
   "fields" :
   [
    {
     "field_name" : "uc_sigmask",
     "referenced_type" : "type-3"
    },
    {
     "field_name" : "__padding_rt_sigset",
     "field_offset" : 32,
     "referenced_type" : "type-9"
    }
   ],
   "is_anonymous" : true,
   "linker_set_key" : "ucontext::(anonymous union at out/soong/.intermediates/bionic/libc/libc.llndk/android_arm_armv8-a_vendor_shared/gen/include/sys/ucontext.h:90:3)::(anonymous struct at out/soong/.intermediates/bionic/libc/libc.llndk/android_arm_armv8-a_vendor_shared/gen/include/sys/ucontext.h:91:5) at out/soong/.intermediates/bionic/libc/libc.llndk/android_arm_armv8-a_vendor_shared/gen/include/sys/ucontext.h:91:5",
   "name" : "ucontext::(anonymous union at out/soong/.intermediates/bionic/libc/libc.llndk/android_arm_armv8-a_vendor_shared/gen/include/sys/ucontext.h:90:3)::(anonymous struct at out/soong/.intermediates/bionic/libc/libc.llndk/android_arm_armv8-a_vendor_shared/gen/include/sys/ucontext.h:91:5) at out/soong/.intermediates/bionic/libc/libc.llndk/android_arm_armv8-a_vendor_shared/gen/include/sys/ucontext.h:91:5",
   "referenced_type" : "type-364",
   "self_type" : "type-364",
   "size" : 8,
   "source_file" : "/out/soong/.intermediates/bionic/libc/libc.llndk/android_arm_armv8-a_vendor_shared/gen/include/sys/ucontext.h",
   "unique_id" : "ucontext::(anonymous union at out/soong/.intermediates/bionic/libc/libc.llndk/android_arm_armv8-a_vendor_shared/gen/include/sys/ucontext.h:90:3)::(anonymous struct at out/soong/.intermediates/bionic/libc/libc.llndk/android_arm_armv8-a_vendor_shared/gen/include/sys/ucontext.h:91:5)"
  },
  {
   "alignment" : 8,
   "fields" :
   [
    {
     "field_name" : "data",
     "referenced_type" : "type-137"
    }
   ],
   "linker_set_key" : "unw_context_t",
   "name" : "unw_context_t",
   "referenced_type" : "type-136",
   "self_type" : "type-136",
   "size" : 1336,
   "source_file" : "/external/libunwind_llvm/include/libunwind.h",
   "unique_id" : "_ZTS13unw_context_t"
  },
  {
   "alignment" : 8,
   "fields" :
   [
    {
     "field_name" : "data",
     "referenced_type" : "type-137"
    }
   ],
   "linker_set_key" : "unw_context_t",
   "name" : "unw_context_t",
   "referenced_type" : "type-458",
   "self_type" : "type-458",
   "size" : 1336,
   "source_file" : "/external/libunwind_llvm/include/libunwind.h",
   "unique_id" : "unw_context_t"
  },
  {
   "alignment" : 8,
   "fields" :
   [
    {
     "field_name" : "data",
     "referenced_type" : "type-151"
    }
   ],
   "linker_set_key" : "unw_cursor_t",
   "name" : "unw_cursor_t",
   "referenced_type" : "type-150",
   "self_type" : "type-150",
   "size" : 1432,
   "source_file" : "/external/libunwind_llvm/include/libunwind.h",
   "unique_id" : "_ZTS12unw_cursor_t"
  },
  {
   "alignment" : 8,
   "fields" :
   [
    {
     "field_name" : "data",
     "referenced_type" : "type-151"
    }
   ],
   "linker_set_key" : "unw_cursor_t",
   "name" : "unw_cursor_t",
   "referenced_type" : "type-459",
   "self_type" : "type-459",
   "size" : 1432,
   "source_file" : "/external/libunwind_llvm/include/libunwind.h",
   "unique_id" : "unw_cursor_t"
  },
  {
   "alignment" : 4,
   "fields" :
   [
    {
     "field_name" : "start_ip",
     "referenced_type" : "type-9"
    },
    {
     "field_name" : "end_ip",
     "field_offset" : 32,
     "referenced_type" : "type-9"
    },
    {
     "field_name" : "lsda",
     "field_offset" : 64,
     "referenced_type" : "type-9"
    },
    {
     "field_name" : "handler",
     "field_offset" : 96,
     "referenced_type" : "type-9"
    },
    {
     "field_name" : "gp",
     "field_offset" : 128,
     "referenced_type" : "type-9"
    },
    {
     "field_name" : "flags",
     "field_offset" : 160,
     "referenced_type" : "type-9"
    },
    {
     "field_name" : "format",
     "field_offset" : 192,
     "referenced_type" : "type-9"
    },
    {
     "field_name" : "unwind_info_size",
     "field_offset" : 224,
     "referenced_type" : "type-9"
    },
    {
     "field_name" : "unwind_info",
     "field_offset" : 256,
     "referenced_type" : "type-9"
    },
    {
     "field_name" : "extra",
     "field_offset" : 288,
     "referenced_type" : "type-9"
    }
   ],
   "linker_set_key" : "unw_proc_info_t",
   "name" : "unw_proc_info_t",
   "referenced_type" : "type-148",
   "self_type" : "type-148",
   "size" : 40,
   "source_file" : "/external/libunwind_llvm/include/libunwind.h",
   "unique_id" : "_ZTS15unw_proc_info_t"
  },
  {
   "alignment" : 4,
   "fields" :
   [
    {
     "field_name" : "start_ip",
     "referenced_type" : "type-9"
    },
    {
     "field_name" : "end_ip",
     "field_offset" : 32,
     "referenced_type" : "type-9"
    },
    {
     "field_name" : "lsda",
     "field_offset" : 64,
     "referenced_type" : "type-9"
    },
    {
     "field_name" : "handler",
     "field_offset" : 96,
     "referenced_type" : "type-9"
    },
    {
     "field_name" : "gp",
     "field_offset" : 128,
     "referenced_type" : "type-9"
    },
    {
     "field_name" : "flags",
     "field_offset" : 160,
     "referenced_type" : "type-9"
    },
    {
     "field_name" : "format",
     "field_offset" : 192,
     "referenced_type" : "type-9"
    },
    {
     "field_name" : "unwind_info_size",
     "field_offset" : 224,
     "referenced_type" : "type-9"
    },
    {
     "field_name" : "unwind_info",
     "field_offset" : 256,
     "referenced_type" : "type-9"
    },
    {
     "field_name" : "extra",
     "field_offset" : 288,
     "referenced_type" : "type-9"
    }
   ],
   "linker_set_key" : "unw_proc_info_t",
   "name" : "unw_proc_info_t",
   "referenced_type" : "type-460",
   "self_type" : "type-460",
   "size" : 40,
   "source_file" : "/external/libunwind_llvm/include/libunwind.h",
   "unique_id" : "unw_proc_info_t"
  },
  {
   "alignment" : 4,
   "fields" :
   [
    {
     "field_name" : "kind",
     "referenced_type" : "type-9"
    },
    {
     "field_name" : "entryPageOffset",
     "field_offset" : 32,
     "referenced_type" : "type-108"
    },
    {
     "field_name" : "entryCount",
     "field_offset" : 48,
     "referenced_type" : "type-108"
    },
    {
     "field_name" : "encodingsPageOffset",
     "field_offset" : 64,
     "referenced_type" : "type-108"
    },
    {
     "field_name" : "encodingsCount",
     "field_offset" : 80,
     "referenced_type" : "type-108"
    }
   ],
   "linker_set_key" : "unwind_info_compressed_second_level_page_header",
   "name" : "unwind_info_compressed_second_level_page_header",
   "referenced_type" : "type-299",
   "self_type" : "type-299",
   "size" : 12,
   "source_file" : "/external/libunwind_llvm/include/mach-o/compact_unwind_encoding.h",
   "unique_id" : "_ZTS47unwind_info_compressed_second_level_page_header"
  },
  {
   "alignment" : 4,
   "fields" :
   [
    {
     "field_name" : "functionOffset",
     "referenced_type" : "type-9"
    },
    {
     "field_name" : "encoding",
     "field_offset" : 32,
     "referenced_type" : "type-9"
    }
   ],
   "linker_set_key" : "unwind_info_regular_second_level_entry",
   "name" : "unwind_info_regular_second_level_entry",
   "referenced_type" : "type-297",
   "self_type" : "type-297",
   "size" : 8,
   "source_file" : "/external/libunwind_llvm/include/mach-o/compact_unwind_encoding.h",
   "unique_id" : "_ZTS38unwind_info_regular_second_level_entry"
  },
  {
   "alignment" : 4,
   "fields" :
   [
    {
     "field_name" : "kind",
     "referenced_type" : "type-9"
    },
    {
     "field_name" : "entryPageOffset",
     "field_offset" : 32,
     "referenced_type" : "type-108"
    },
    {
     "field_name" : "entryCount",
     "field_offset" : 48,
     "referenced_type" : "type-108"
    }
   ],
   "linker_set_key" : "unwind_info_regular_second_level_page_header",
   "name" : "unwind_info_regular_second_level_page_header",
   "referenced_type" : "type-298",
   "self_type" : "type-298",
   "size" : 8,
   "source_file" : "/external/libunwind_llvm/include/mach-o/compact_unwind_encoding.h",
   "unique_id" : "_ZTS44unwind_info_regular_second_level_page_header"
  },
  {
   "alignment" : 4,
   "fields" :
   [
    {
     "field_name" : "version",
     "referenced_type" : "type-9"
    },
    {
     "field_name" : "commonEncodingsArraySectionOffset",
     "field_offset" : 32,
     "referenced_type" : "type-9"
    },
    {
     "field_name" : "commonEncodingsArrayCount",
     "field_offset" : 64,
     "referenced_type" : "type-9"
    },
    {
     "field_name" : "personalityArraySectionOffset",
     "field_offset" : 96,
     "referenced_type" : "type-9"
    },
    {
     "field_name" : "personalityArrayCount",
     "field_offset" : 128,
     "referenced_type" : "type-9"
    },
    {
     "field_name" : "indexSectionOffset",
     "field_offset" : 160,
     "referenced_type" : "type-9"
    },
    {
     "field_name" : "indexCount",
     "field_offset" : 192,
     "referenced_type" : "type-9"
    }
   ],
   "linker_set_key" : "unwind_info_section_header",
   "name" : "unwind_info_section_header",
   "referenced_type" : "type-291",
   "self_type" : "type-291",
   "size" : 28,
   "source_file" : "/external/libunwind_llvm/include/mach-o/compact_unwind_encoding.h",
   "unique_id" : "_ZTS26unwind_info_section_header"
  },
  {
   "alignment" : 4,
   "fields" :
   [
    {
     "field_name" : "functionOffset",
     "referenced_type" : "type-9"
    },
    {
     "field_name" : "secondLevelPagesSectionOffset",
     "field_offset" : 32,
     "referenced_type" : "type-9"
    },
    {
     "field_name" : "lsdaIndexArraySectionOffset",
     "field_offset" : 64,
     "referenced_type" : "type-9"
    }
   ],
   "linker_set_key" : "unwind_info_section_header_index_entry",
   "name" : "unwind_info_section_header_index_entry",
   "referenced_type" : "type-292",
   "self_type" : "type-292",
   "size" : 12,
   "source_file" : "/external/libunwind_llvm/include/mach-o/compact_unwind_encoding.h",
   "unique_id" : "_ZTS38unwind_info_section_header_index_entry"
  },
  {
   "alignment" : 4,
   "fields" :
   [
    {
     "field_name" : "functionOffset",
     "referenced_type" : "type-9"
    },
    {
     "field_name" : "lsdaOffset",
     "field_offset" : 32,
     "referenced_type" : "type-9"
    }
   ],
   "linker_set_key" : "unwind_info_section_header_lsda_index_entry",
   "name" : "unwind_info_section_header_lsda_index_entry",
   "referenced_type" : "type-296",
   "self_type" : "type-296",
   "size" : 8,
   "source_file" : "/external/libunwind_llvm/include/mach-o/compact_unwind_encoding.h",
   "unique_id" : "_ZTS43unwind_info_section_header_lsda_index_entry"
  },
  {
   "alignment" : 4,
   "fields" :
   [
    {
     "field_name" : "regs",
     "referenced_type" : "type-463"
    },
    {
     "field_name" : "u_fpvalid",
     "field_offset" : 576,
     "referenced_type" : "type-4"
    },
    {
     "field_name" : "u_tsize",
     "field_offset" : 608,
     "referenced_type" : "type-3"
    },
    {
     "field_name" : "u_dsize",
     "field_offset" : 640,
     "referenced_type" : "type-3"
    },
    {
     "field_name" : "u_ssize",
     "field_offset" : 672,
     "referenced_type" : "type-3"
    },
    {
     "field_name" : "start_code",
     "field_offset" : 704,
     "referenced_type" : "type-3"
    },
    {
     "field_name" : "start_stack",
     "field_offset" : 736,
     "referenced_type" : "type-3"
    },
    {
     "field_name" : "signal",
     "field_offset" : 768,
     "referenced_type" : "type-13"
    },
    {
     "field_name" : "reserved",
     "field_offset" : 800,
     "referenced_type" : "type-4"
    },
    {
     "field_name" : "u_ar0",
     "field_offset" : 832,
     "referenced_type" : "type-481"
    },
    {
     "field_name" : "magic",
     "field_offset" : 864,
     "referenced_type" : "type-3"
    },
    {
     "field_name" : "u_comm",
     "field_offset" : 896,
     "referenced_type" : "type-482"
    },
    {
     "field_name" : "u_debugreg",
     "field_offset" : 1152,
     "referenced_type" : "type-337"
    },
    {
     "field_name" : "u_fp",
     "field_offset" : 1408,
     "referenced_type" : "type-448"
    },
    {
     "field_name" : "u_fp0",
     "field_offset" : 2336,
     "referenced_type" : "type-483"
    }
   ],
   "linker_set_key" : "user",
   "name" : "user",
   "referenced_type" : "type-480",
   "self_type" : "type-480",
   "size" : 296,
   "source_file" : "/out/soong/.intermediates/bionic/libc/libc.llndk/android_arm_armv8-a_vendor_shared/gen/include/sys/user.h",
   "unique_id" : "user"
  },
  {
   "alignment" : 4,
   "fields" :
   [
    {
     "field_name" : "fpregs",
     "referenced_type" : "type-449"
    },
    {
     "field_name" : "fpsr",
     "field_offset" : 768,
     "referenced_type" : "type-9"
    },
    {
     "field_name" : "fpcr",
     "field_offset" : 800,
     "referenced_type" : "type-9"
    },
    {
     "field_name" : "ftype",
     "field_offset" : 832,
     "referenced_type" : "type-451"
    },
    {
     "field_name" : "init_flag",
     "field_offset" : 896,
     "referenced_type" : "type-9"
    }
   ],
   "linker_set_key" : "user_fpregs",
   "name" : "user_fpregs",
   "referenced_type" : "type-448",
   "self_type" : "type-448",
   "size" : 116,
   "source_file" : "/out/soong/.intermediates/bionic/libc/libc.llndk/android_arm_armv8-a_vendor_shared/gen/include/sys/user.h",
   "unique_id" : "user_fpregs"
  },
  {
   "alignment" : 4,
   "fields" :
   [
    {
     "field_name" : "sign1",
     "referenced_type" : "type-9"
    },
    {
     "field_name" : "unused",
     "field_offset" : 1,
     "referenced_type" : "type-9"
    },
    {
     "field_name" : "sign2",
     "field_offset" : 16,
     "referenced_type" : "type-9"
    },
    {
     "field_name" : "exponent",
     "field_offset" : 17,
     "referenced_type" : "type-9"
    },
    {
     "field_name" : "j",
     "field_offset" : 31,
     "referenced_type" : "type-9"
    },
    {
     "field_name" : "mantissa1",
     "field_offset" : 32,
     "referenced_type" : "type-9"
    },
    {
     "field_name" : "mantissa0",
     "field_offset" : 64,
     "referenced_type" : "type-9"
    }
   ],
   "linker_set_key" : "user_fpregs::fp_reg",
   "name" : "user_fpregs::fp_reg",
   "referenced_type" : "type-359",
   "self_type" : "type-359",
   "size" : 12,
   "source_file" : "/out/soong/.intermediates/bionic/libc/libc.llndk/android_arm_armv8-a_vendor_shared/gen/include/sys/user.h",
   "unique_id" : "user_fpregs::fp_reg"
  },
  {
   "alignment" : 4,
   "fields" :
   [
    {
     "field_name" : "uregs",
     "referenced_type" : "type-464"
    }
   ],
   "linker_set_key" : "user_regs",
   "name" : "user_regs",
   "referenced_type" : "type-463",
   "self_type" : "type-463",
   "size" : 72,
   "source_file" : "/out/soong/.intermediates/bionic/libc/libc.llndk/android_arm_armv8-a_vendor_shared/gen/include/sys/user.h",
   "unique_id" : "user_regs"
  },
  {
   "alignment" : 8,
   "fields" :
   [
    {
     "field_name" : "fpregs",
     "referenced_type" : "type-228"
    },
    {
     "field_name" : "fpscr",
     "field_offset" : 2048,
     "referenced_type" : "type-3"
    }
   ],
   "linker_set_key" : "user_vfp",
   "name" : "user_vfp",
   "referenced_type" : "type-474",
   "self_type" : "type-474",
   "size" : 264,
   "source_file" : "/out/soong/.intermediates/bionic/libc/libc.llndk/android_arm_armv8-a_vendor_shared/gen/include/sys/user.h",
   "unique_id" : "user_vfp"
  },
  {
   "alignment" : 4,
   "fields" :
   [
    {
     "field_name" : "fpexc",
     "referenced_type" : "type-3"
    },
    {
     "field_name" : "fpinst",
     "field_offset" : 32,
     "referenced_type" : "type-3"
    },
    {
     "field_name" : "fpinst2",
     "field_offset" : 64,
     "referenced_type" : "type-3"
    }
   ],
   "linker_set_key" : "user_vfp_exc",
   "name" : "user_vfp_exc",
   "referenced_type" : "type-479",
   "self_type" : "type-479",
   "size" : 12,
   "source_file" : "/out/soong/.intermediates/bionic/libc/libc.llndk/android_arm_armv8-a_vendor_shared/gen/include/sys/user.h",
   "unique_id" : "user_vfp_exc"
  }
 ],
 "rvalue_reference_types" : []
}
