{
 "array_types" :
 [
  {
   "alignment" : 1,
   "linker_set_key" : "char [120]",
   "name" : "char [120]",
   "referenced_type" : "type-92",
   "self_type" : "type-338",
   "size" : 120,
   "source_file" : "/system/core/libunwindstack/include/unwindstack/UcontextArm64.h"
  },
  {
   "alignment" : 4,
   "linker_set_key" : "unsigned int [16]",
   "name" : "unsigned int [16]",
   "referenced_type" : "type-3",
   "self_type" : "type-633",
   "size" : 64,
   "source_file" : "/system/core/libunwindstack/include/unwindstack/UcontextArm.h"
  },
  {
   "alignment" : 4,
   "linker_set_key" : "unsigned int [18]",
   "name" : "unsigned int [18]",
   "referenced_type" : "type-3",
   "self_type" : "type-607",
   "size" : 72,
   "source_file" : "/system/core/libunwindstack/include/unwindstack/UserArm.h"
  },
  {
   "alignment" : 4,
   "linker_set_key" : "unsigned int [45]",
   "name" : "unsigned int [45]",
   "referenced_type" : "type-3",
   "self_type" : "type-612",
   "size" : 180,
   "source_file" : "/system/core/libunwindstack/include/unwindstack/UserMips.h"
  },
  {
   "alignment" : 8,
   "linker_set_key" : "unsigned long long [2]",
   "name" : "unsigned long long [2]",
   "referenced_type" : "type-6",
   "self_type" : "type-274",
   "size" : 16,
   "source_file" : "/system/core/libunwindstack/include/unwindstack/DwarfLocation.h"
  },
  {
   "alignment" : 8,
   "linker_set_key" : "unsigned long long [31]",
   "name" : "unsigned long long [31]",
   "referenced_type" : "type-6",
   "self_type" : "type-609",
   "size" : 248,
   "source_file" : "/system/core/libunwindstack/include/unwindstack/UserArm64.h"
  },
  {
   "alignment" : 8,
   "linker_set_key" : "unsigned long long [32]",
   "name" : "unsigned long long [32]",
   "referenced_type" : "type-6",
   "self_type" : "type-712",
   "size" : 256,
   "source_file" : "/system/core/libunwindstack/include/unwindstack/UcontextMips.h"
  },
  {
   "alignment" : 8,
   "linker_set_key" : "unsigned long long [33]",
   "name" : "unsigned long long [33]",
   "referenced_type" : "type-6",
   "self_type" : "type-336",
   "size" : 264,
   "source_file" : "/system/core/libunwindstack/include/unwindstack/UcontextArm64.h"
  },
  {
   "alignment" : 8,
   "linker_set_key" : "unsigned long long [45]",
   "name" : "unsigned long long [45]",
   "referenced_type" : "type-6",
   "self_type" : "type-615",
   "size" : 360,
   "source_file" : "/system/core/libunwindstack/include/unwindstack/UserMips64.h"
  }
 ],
 "builtin_types" :
 [
  {
   "alignment" : 1,
   "is_integral" : true,
   "is_unsigned" : true,
   "linker_set_key" : "bool",
   "name" : "bool",
   "referenced_type" : "type-72",
   "self_type" : "type-72",
   "size" : 1
  },
  {
   "alignment" : 1,
   "is_integral" : true,
   "is_unsigned" : true,
   "linker_set_key" : "char",
   "name" : "char",
   "referenced_type" : "type-92",
   "self_type" : "type-92",
   "size" : 1
  },
  {
   "alignment" : 8,
   "linker_set_key" : "double",
   "name" : "double",
   "referenced_type" : "type-789",
   "self_type" : "type-789",
   "size" : 8
  },
  {
   "alignment" : 4,
   "is_integral" : true,
   "linker_set_key" : "int",
   "name" : "int",
   "referenced_type" : "type-153",
   "self_type" : "type-153",
   "size" : 4
  },
  {
   "alignment" : 4,
   "is_integral" : true,
   "linker_set_key" : "long",
   "name" : "long",
   "referenced_type" : "type-792",
   "self_type" : "type-792",
   "size" : 4
  },
  {
   "alignment" : 8,
   "linker_set_key" : "long double",
   "name" : "long double",
   "referenced_type" : "type-791",
   "self_type" : "type-791",
   "size" : 8
  },
  {
   "alignment" : 8,
   "is_integral" : true,
   "linker_set_key" : "long long",
   "name" : "long long",
   "referenced_type" : "type-12",
   "self_type" : "type-12",
   "size" : 8
  },
  {
   "alignment" : 2,
   "is_integral" : true,
   "linker_set_key" : "short",
   "name" : "short",
   "referenced_type" : "type-66",
   "self_type" : "type-66",
   "size" : 2
  },
  {
   "alignment" : 1,
   "is_integral" : true,
   "is_unsigned" : true,
   "linker_set_key" : "unsigned char",
   "name" : "unsigned char",
   "referenced_type" : "type-10",
   "self_type" : "type-10",
   "size" : 1
  },
  {
   "alignment" : 4,
   "is_integral" : true,
   "is_unsigned" : true,
   "linker_set_key" : "unsigned int",
   "name" : "unsigned int",
   "referenced_type" : "type-3",
   "self_type" : "type-3",
   "size" : 4
  },
  {
   "alignment" : 4,
   "is_integral" : true,
   "is_unsigned" : true,
   "linker_set_key" : "unsigned long",
   "name" : "unsigned long",
   "referenced_type" : "type-790",
   "self_type" : "type-790",
   "size" : 4
  },
  {
   "alignment" : 8,
   "is_integral" : true,
   "is_unsigned" : true,
   "linker_set_key" : "unsigned long long",
   "name" : "unsigned long long",
   "referenced_type" : "type-6",
   "self_type" : "type-6",
   "size" : 8
  },
  {
   "alignment" : 2,
   "is_integral" : true,
   "is_unsigned" : true,
   "linker_set_key" : "unsigned short",
   "name" : "unsigned short",
   "referenced_type" : "type-2",
   "self_type" : "type-2",
   "size" : 2
  },
  {
   "linker_set_key" : "void",
   "name" : "void",
   "referenced_type" : "type-62",
   "self_type" : "type-62"
  }
 ],
 "elf_functions" :
 [
  {
   "name" : "_Z8demanglePKc"
  },
  {
   "name" : "_ZN11unwindstack10BufferMaps5ParseEv"
  },
  {
   "name" : "_ZN11unwindstack10RegsMips6415GetPcAdjustmentEyPNS_3ElfE"
  },
  {
   "name" : "_ZN11unwindstack10RegsMips6416IterateRegistersENSt3__18functionIFvPKcyEEE"
  },
  {
   "name" : "_ZN11unwindstack10RegsMips6418CreateFromUcontextEPv"
  },
  {
   "name" : "_ZN11unwindstack10RegsMips6419StepIfSignalHandlerEyPNS_3ElfEPNS_6MemoryE"
  },
  {
   "name" : "_ZN11unwindstack10RegsMips6422SetPcFromReturnAddressEPNS_6MemoryE"
  },
  {
   "name" : "_ZN11unwindstack10RegsMips642pcEv"
  },
  {
   "name" : "_ZN11unwindstack10RegsMips642spEv"
  },
  {
   "name" : "_ZN11unwindstack10RegsMips644ArchEv"
  },
  {
   "name" : "_ZN11unwindstack10RegsMips644ReadEPv"
  },
  {
   "name" : "_ZN11unwindstack10RegsMips645CloneEv"
  },
  {
   "name" : "_ZN11unwindstack10RegsMips646set_pcEy"
  },
  {
   "name" : "_ZN11unwindstack10RegsMips646set_spEy"
  },
  {
   "name" : "_ZN11unwindstack10RegsMips64C1Ev"
  },
  {
   "name" : "_ZN11unwindstack10RegsMips64C2Ev"
  },
  {
   "name" : "_ZN11unwindstack10RegsX86_6415GetPcAdjustmentEyPNS_3ElfE"
  },
  {
   "name" : "_ZN11unwindstack10RegsX86_6415SetFromUcontextEPNS_17x86_64_ucontext_tE"
  },
  {
   "name" : "_ZN11unwindstack10RegsX86_6416IterateRegistersENSt3__18functionIFvPKcyEEE"
  },
  {
   "name" : "_ZN11unwindstack10RegsX86_6418CreateFromUcontextEPv"
  },
  {
   "name" : "_ZN11unwindstack10RegsX86_6419StepIfSignalHandlerEyPNS_3ElfEPNS_6MemoryE"
  },
  {
   "name" : "_ZN11unwindstack10RegsX86_6422SetPcFromReturnAddressEPNS_6MemoryE"
  },
  {
   "name" : "_ZN11unwindstack10RegsX86_642pcEv"
  },
  {
   "name" : "_ZN11unwindstack10RegsX86_642spEv"
  },
  {
   "name" : "_ZN11unwindstack10RegsX86_644ArchEv"
  },
  {
   "name" : "_ZN11unwindstack10RegsX86_644ReadEPv"
  },
  {
   "name" : "_ZN11unwindstack10RegsX86_645CloneEv"
  },
  {
   "name" : "_ZN11unwindstack10RegsX86_646set_pcEy"
  },
  {
   "name" : "_ZN11unwindstack10RegsX86_646set_spEy"
  },
  {
   "name" : "_ZN11unwindstack10RegsX86_64C1Ev"
  },
  {
   "name" : "_ZN11unwindstack10RegsX86_64C2Ev"
  },
  {
   "binding" : "weak",
   "name" : "_ZN11unwindstack11DwarfMemory10ReadSignedIaEEbPy"
  },
  {
   "binding" : "weak",
   "name" : "_ZN11unwindstack11DwarfMemory10ReadSignedIiEEbPy"
  },
  {
   "binding" : "weak",
   "name" : "_ZN11unwindstack11DwarfMemory10ReadSignedIsEEbPy"
  },
  {
   "binding" : "weak",
   "name" : "_ZN11unwindstack11DwarfMemory10ReadSignedIxEEbPy"
  },
  {
   "name" : "_ZN11unwindstack11DwarfMemory11ReadSLEB128EPx"
  },
  {
   "name" : "_ZN11unwindstack11DwarfMemory11ReadULEB128EPy"
  },
  {
   "binding" : "weak",
   "name" : "_ZN11unwindstack11DwarfMemory14GetEncodedSizeIjEEjh"
  },
  {
   "binding" : "weak",
   "name" : "_ZN11unwindstack11DwarfMemory14GetEncodedSizeIyEEjh"
  },
  {
   "binding" : "weak",
   "name" : "_ZN11unwindstack11DwarfMemory16ReadEncodedValueIjEEbhPy"
  },
  {
   "binding" : "weak",
   "name" : "_ZN11unwindstack11DwarfMemory16ReadEncodedValueIyEEbhPy"
  },
  {
   "name" : "_ZN11unwindstack11DwarfMemory18AdjustEncodedValueEhPy"
  },
  {
   "name" : "_ZN11unwindstack11DwarfMemory9ReadBytesEPvj"
  },
  {
   "name" : "_ZN11unwindstack11MemoryCache4ReadEyPvj"
  },
  {
   "name" : "_ZN11unwindstack11MemoryLocal4ReadEyPvj"
  },
  {
   "name" : "_ZN11unwindstack11MemoryRange4ReadEyPvj"
  },
  {
   "name" : "_ZN11unwindstack11MemoryRangeC1ERKNSt3__110shared_ptrINS_6MemoryEEEyyy"
  },
  {
   "name" : "_ZN11unwindstack11MemoryRangeC2ERKNSt3__110shared_ptrINS_6MemoryEEEyyy"
  },
  {
   "binding" : "weak",
   "name" : "_ZN11unwindstack12DwarfEhFrameIjEC1EPNS_6MemoryE"
  },
  {
   "binding" : "weak",
   "name" : "_ZN11unwindstack12DwarfEhFrameIjEC2EPNS_6MemoryE"
  },
  {
   "binding" : "weak",
   "name" : "_ZN11unwindstack12DwarfEhFrameIyEC1EPNS_6MemoryE"
  },
  {
   "binding" : "weak",
   "name" : "_ZN11unwindstack12DwarfEhFrameIyEC2EPNS_6MemoryE"
  },
  {
   "name" : "_ZN11unwindstack12DwarfSection4StepEyPNS_4RegsEPNS_6MemoryEPb"
  },
  {
   "name" : "_ZN11unwindstack12DwarfSectionC2EPNS_6MemoryE"
  },
  {
   "binding" : "weak",
   "name" : "_ZN11unwindstack12ElfInterface11GetLoadBiasI9elf32_hdr10elf32_phdrEEyPNS_6MemoryE"
  },
  {
   "binding" : "weak",
   "name" : "_ZN11unwindstack12ElfInterface11GetLoadBiasI9elf64_hdr10elf64_phdrEEyPNS_6MemoryE"
  },
  {
   "binding" : "weak",
   "name" : "_ZN11unwindstack12ElfInterface11ReadBuildIDI10elf32_noteEENSt3__112basic_stringIcNS3_11char_traitsIcEENS3_9allocatorIcEEEEv"
  },
  {
   "binding" : "weak",
   "name" : "_ZN11unwindstack12ElfInterface11ReadBuildIDI10elf64_noteEENSt3__112basic_stringIcNS3_11char_traitsIcEENS3_9allocatorIcEEEEv"
  },
  {
   "binding" : "weak",
   "name" : "_ZN11unwindstack12ElfInterface14ReadAllHeadersI9elf32_hdr10elf32_phdr10elf32_shdrEEbPy"
  },
  {
   "binding" : "weak",
   "name" : "_ZN11unwindstack12ElfInterface14ReadAllHeadersI9elf64_hdr10elf64_phdr10elf64_shdrEEbPy"
  },
  {
   "binding" : "weak",
   "name" : "_ZN11unwindstack12ElfInterface18ReadProgramHeadersI9elf32_hdr10elf32_phdrEEvRKT_Py"
  },
  {
   "binding" : "weak",
   "name" : "_ZN11unwindstack12ElfInterface18ReadProgramHeadersI9elf64_hdr10elf64_phdrEEvRKT_Py"
  },
  {
   "binding" : "weak",
   "name" : "_ZN11unwindstack12ElfInterface18ReadSectionHeadersI9elf32_hdr10elf32_shdrEEvRKT_"
  },
  {
   "binding" : "weak",
   "name" : "_ZN11unwindstack12ElfInterface18ReadSectionHeadersI9elf64_hdr10elf64_shdrEEvRKT_"
  },
  {
   "binding" : "weak",
   "name" : "_ZN11unwindstack12ElfInterface21GetSonameWithTemplateI7dynamicEENSt3__112basic_stringIcNS3_11char_traitsIcEENS3_9allocatorIcEEEEv"
  },
  {
   "binding" : "weak",
   "name" : "_ZN11unwindstack12ElfInterface21GetSonameWithTemplateI9Elf64_DynEENSt3__112basic_stringIcNS3_11char_traitsIcEENS3_9allocatorIcEEEEv"
  },
  {
   "binding" : "weak",
   "name" : "_ZN11unwindstack12ElfInterface21ReadBuildIDFromMemoryI9elf32_hdr10elf32_shdr10elf32_noteEENSt3__112basic_stringIcNS5_11char_traitsIcEENS5_9allocatorIcEEEEPNS_6MemoryE"
  },
  {
   "binding" : "weak",
   "name" : "_ZN11unwindstack12ElfInterface21ReadBuildIDFromMemoryI9elf64_hdr10elf64_shdr10elf64_noteEENSt3__112basic_stringIcNS5_11char_traitsIcEENS5_9allocatorIcEEEEPNS_6MemoryE"
  },
  {
   "binding" : "weak",
   "name" : "_ZN11unwindstack12ElfInterface22GetMaxSizeWithTemplateI9elf32_hdrEEvPNS_6MemoryEPy"
  },
  {
   "binding" : "weak",
   "name" : "_ZN11unwindstack12ElfInterface22GetMaxSizeWithTemplateI9elf64_hdrEEvPNS_6MemoryEPy"
  },
  {
   "binding" : "weak",
   "name" : "_ZN11unwindstack12ElfInterface23InitHeadersWithTemplateIjEEvy"
  },
  {
   "binding" : "weak",
   "name" : "_ZN11unwindstack12ElfInterface23InitHeadersWithTemplateIyEEvy"
  },
  {
   "name" : "_ZN11unwindstack12ElfInterface24CreateGnuDebugdataMemoryEv"
  },
  {
   "binding" : "weak",
   "name" : "_ZN11unwindstack12ElfInterface27GetFunctionNameWithTemplateI9elf32_symEEbyPNSt3__112basic_stringIcNS3_11char_traitsIcEENS3_9allocatorIcEEEEPy"
  },
  {
   "binding" : "weak",
   "name" : "_ZN11unwindstack12ElfInterface27GetFunctionNameWithTemplateI9elf64_symEEbyPNSt3__112basic_stringIcNS3_11char_traitsIcEENS3_9allocatorIcEEEEPy"
  },
  {
   "binding" : "weak",
   "name" : "_ZN11unwindstack12ElfInterface29GetGlobalVariableWithTemplateI9elf32_symEEbRKNSt3__112basic_stringIcNS3_11char_traitsIcEENS3_9allocatorIcEEEEPy"
  },
  {
   "binding" : "weak",
   "name" : "_ZN11unwindstack12ElfInterface29GetGlobalVariableWithTemplateI9elf64_symEEbRKNSt3__112basic_stringIcNS3_11char_traitsIcEENS3_9allocatorIcEEEEPy"
  },
  {
   "name" : "_ZN11unwindstack12ElfInterface4StepEyPNS_4RegsEPNS_6MemoryEPb"
  },
  {
   "name" : "_ZN11unwindstack12ElfInterface9IsValidPcEy"
  },
  {
   "name" : "_ZN11unwindstack12ElfInterfaceD0Ev"
  },
  {
   "name" : "_ZN11unwindstack12ElfInterfaceD1Ev"
  },
  {
   "name" : "_ZN11unwindstack12ElfInterfaceD2Ev"
  },
  {
   "name" : "_ZN11unwindstack12MemoryBuffer4ReadEyPvj"
  },
  {
   "name" : "_ZN11unwindstack12MemoryBuffer6GetPtrEj"
  },
  {
   "name" : "_ZN11unwindstack12MemoryRanges4ReadEyPvj"
  },
  {
   "name" : "_ZN11unwindstack12MemoryRanges6InsertEPNS_11MemoryRangeE"
  },
  {
   "name" : "_ZN11unwindstack12MemoryRemote4ReadEyPvj"
  },
  {
   "name" : "_ZN11unwindstack13LocalUnwinder10GetMapInfoEy"
  },
  {
   "name" : "_ZN11unwindstack13LocalUnwinder17ShouldSkipLibraryERKNSt3__112basic_stringIcNS1_11char_traitsIcEENS1_9allocatorIcEEEE"
  },
  {
   "name" : "_ZN11unwindstack13LocalUnwinder4InitEv"
  },
  {
   "name" : "_ZN11unwindstack13LocalUnwinder6UnwindEPNSt3__16vectorINS_14LocalFrameDataENS1_9allocatorIS3_EEEEj"
  },
  {
   "name" : "_ZN11unwindstack13MemoryOffline4InitERKNSt3__112basic_stringIcNS1_11char_traitsIcEENS1_9allocatorIcEEEEy"
  },
  {
   "name" : "_ZN11unwindstack13MemoryOffline4ReadEyPvj"
  },
  {
   "name" : "_ZN11unwindstack13log_to_stdoutEb"
  },
  {
   "binding" : "weak",
   "name" : "_ZN11unwindstack14GetBuildIDInfoI9elf32_hdr10elf32_shdrEEbPNS_6MemoryEPyS5_"
  },
  {
   "binding" : "weak",
   "name" : "_ZN11unwindstack14GetBuildIDInfoI9elf64_hdr10elf64_shdrEEbPNS_6MemoryEPyS5_"
  },
  {
   "binding" : "weak",
   "name" : "_ZN11unwindstack15DwarfDebugFrameIjEC1EPNS_6MemoryE"
  },
  {
   "binding" : "weak",
   "name" : "_ZN11unwindstack15DwarfDebugFrameIjEC2EPNS_6MemoryE"
  },
  {
   "binding" : "weak",
   "name" : "_ZN11unwindstack15DwarfDebugFrameIyEC1EPNS_6MemoryE"
  },
  {
   "binding" : "weak",
   "name" : "_ZN11unwindstack15DwarfDebugFrameIyEC2EPNS_6MemoryE"
  },
  {
   "name" : "_ZN11unwindstack15ElfInterfaceArm13GetPrel31AddrEjPj"
  },
  {
   "name" : "_ZN11unwindstack15ElfInterfaceArm15GetFunctionNameEyPNSt3__112basic_stringIcNS1_11char_traitsIcEENS1_9allocatorIcEEEEPy"
  },
  {
   "name" : "_ZN11unwindstack15ElfInterfaceArm17HandleUnknownTypeEjyy"
  },
  {
   "name" : "_ZN11unwindstack15ElfInterfaceArm4InitEPy"
  },
  {
   "name" : "_ZN11unwindstack15ElfInterfaceArm4StepEyPNS_4RegsEPNS_6MemoryEPb"
  },
  {
   "name" : "_ZN11unwindstack15ElfInterfaceArm9FindEntryEjPy"
  },
  {
   "name" : "_ZN11unwindstack15ElfInterfaceArm9StepExidxEyPNS_4RegsEPNS_6MemoryEPb"
  },
  {
   "name" : "_ZN11unwindstack15UnwinderFromPid4InitENS_8ArchEnumE"
  },
  {
   "binding" : "weak",
   "name" : "_ZN11unwindstack16DwarfSectionImplIjE12EvalRegisterEPKNS_13DwarfLocationEjPjPv"
  },
  {
   "binding" : "weak",
   "name" : "_ZN11unwindstack16DwarfSectionImplIjE14EvalExpressionERKNS_13DwarfLocationEPNS_6MemoryEPjPNS_8RegsInfoIjEEPb"
  },
  {
   "binding" : "weak",
   "name" : "_ZN11unwindstack16DwarfSectionImplIjE15FillInCieHeaderEPNS_8DwarfCieE"
  },
  {
   "binding" : "weak",
   "name" : "_ZN11unwindstack16DwarfSectionImplIjE15FillInFdeHeaderEPNS_8DwarfFdeE"
  },
  {
   "binding" : "weak",
   "name" : "_ZN11unwindstack16DwarfSectionImplIjE16GetCieFromOffsetEy"
  },
  {
   "binding" : "weak",
   "name" : "_ZN11unwindstack16DwarfSectionImplIjE16GetFdeFromOffsetEy"
  },
  {
   "binding" : "weak",
   "name" : "_ZN11unwindstack16DwarfSectionImplIjE18GetCfaLocationInfoEyPKNS_8DwarfFdeEPNS_14DwarfLocationsE"
  },
  {
   "binding" : "weak",
   "name" : "_ZN11unwindstack16DwarfSectionImplIjE3LogEhyPKNS_8DwarfFdeE"
  },
  {
   "binding" : "weak",
   "name" : "_ZN11unwindstack16DwarfSectionImplIjE4EvalEPKNS_8DwarfCieEPNS_6MemoryERKNS_14DwarfLocationsEPNS_4RegsEPb"
  },
  {
   "binding" : "weak",
   "name" : "_ZN11unwindstack16DwarfSectionImplIjE9FillInCieEPNS_8DwarfCieE"
  },
  {
   "binding" : "weak",
   "name" : "_ZN11unwindstack16DwarfSectionImplIjE9FillInFdeEPNS_8DwarfFdeE"
  },
  {
   "binding" : "weak",
   "name" : "_ZN11unwindstack16DwarfSectionImplIjEC2EPNS_6MemoryE"
  },
  {
   "binding" : "weak",
   "name" : "_ZN11unwindstack16DwarfSectionImplIjED0Ev"
  },
  {
   "binding" : "weak",
   "name" : "_ZN11unwindstack16DwarfSectionImplIyE12EvalRegisterEPKNS_13DwarfLocationEjPyPv"
  },
  {
   "binding" : "weak",
   "name" : "_ZN11unwindstack16DwarfSectionImplIyE14EvalExpressionERKNS_13DwarfLocationEPNS_6MemoryEPyPNS_8RegsInfoIyEEPb"
  },
  {
   "binding" : "weak",
   "name" : "_ZN11unwindstack16DwarfSectionImplIyE15FillInCieHeaderEPNS_8DwarfCieE"
  },
  {
   "binding" : "weak",
   "name" : "_ZN11unwindstack16DwarfSectionImplIyE15FillInFdeHeaderEPNS_8DwarfFdeE"
  },
  {
   "binding" : "weak",
   "name" : "_ZN11unwindstack16DwarfSectionImplIyE16GetCieFromOffsetEy"
  },
  {
   "binding" : "weak",
   "name" : "_ZN11unwindstack16DwarfSectionImplIyE16GetFdeFromOffsetEy"
  },
  {
   "binding" : "weak",
   "name" : "_ZN11unwindstack16DwarfSectionImplIyE18GetCfaLocationInfoEyPKNS_8DwarfFdeEPNS_14DwarfLocationsE"
  },
  {
   "binding" : "weak",
   "name" : "_ZN11unwindstack16DwarfSectionImplIyE3LogEhyPKNS_8DwarfFdeE"
  },
  {
   "binding" : "weak",
   "name" : "_ZN11unwindstack16DwarfSectionImplIyE4EvalEPKNS_8DwarfCieEPNS_6MemoryERKNS_14DwarfLocationsEPNS_4RegsEPb"
  },
  {
   "binding" : "weak",
   "name" : "_ZN11unwindstack16DwarfSectionImplIyE9FillInCieEPNS_8DwarfCieE"
  },
  {
   "binding" : "weak",
   "name" : "_ZN11unwindstack16DwarfSectionImplIyE9FillInFdeEPNS_8DwarfFdeE"
  },
  {
   "binding" : "weak",
   "name" : "_ZN11unwindstack16DwarfSectionImplIyEC2EPNS_6MemoryE"
  },
  {
   "binding" : "weak",
   "name" : "_ZN11unwindstack16DwarfSectionImplIyED0Ev"
  },
  {
   "name" : "_ZN11unwindstack18LocalUpdatableMaps7ReparseEv"
  },
  {
   "name" : "_ZN11unwindstack18MemoryFileAtOffset4InitERKNSt3__112basic_stringIcNS1_11char_traitsIcEENS1_9allocatorIcEEEEyy"
  },
  {
   "name" : "_ZN11unwindstack18MemoryFileAtOffset4ReadEyPvj"
  },
  {
   "name" : "_ZN11unwindstack18MemoryFileAtOffset5ClearEv"
  },
  {
   "name" : "_ZN11unwindstack18MemoryFileAtOffsetD0Ev"
  },
  {
   "name" : "_ZN11unwindstack18MemoryFileAtOffsetD1Ev"
  },
  {
   "name" : "_ZN11unwindstack18MemoryFileAtOffsetD2Ev"
  },
  {
   "name" : "_ZN11unwindstack18MemoryOfflineParts4ReadEyPvj"
  },
  {
   "name" : "_ZN11unwindstack18MemoryOfflinePartsD0Ev"
  },
  {
   "name" : "_ZN11unwindstack18MemoryOfflinePartsD1Ev"
  },
  {
   "name" : "_ZN11unwindstack18MemoryOfflinePartsD2Ev"
  },
  {
   "binding" : "weak",
   "name" : "_ZN11unwindstack19DwarfEhFrameWithHdrIjE12GetFdeFromPcEy"
  },
  {
   "binding" : "weak",
   "name" : "_ZN11unwindstack19DwarfEhFrameWithHdrIjE18GetFdeOffsetFromPcEyPy"
  },
  {
   "binding" : "weak",
   "name" : "_ZN11unwindstack19DwarfEhFrameWithHdrIjE19GetFdeInfoFromIndexEj"
  },
  {
   "binding" : "weak",
   "name" : "_ZN11unwindstack19DwarfEhFrameWithHdrIjE4InitEyyy"
  },
  {
   "binding" : "weak",
   "name" : "_ZN11unwindstack19DwarfEhFrameWithHdrIjE7GetFdesEPNSt3__16vectorIPKNS_8DwarfFdeENS2_9allocatorIS6_EEEE"
  },
  {
   "binding" : "weak",
   "name" : "_ZN11unwindstack19DwarfEhFrameWithHdrIjEC1EPNS_6MemoryE"
  },
  {
   "binding" : "weak",
   "name" : "_ZN11unwindstack19DwarfEhFrameWithHdrIjEC2EPNS_6MemoryE"
  },
  {
   "binding" : "weak",
   "name" : "_ZN11unwindstack19DwarfEhFrameWithHdrIyE12GetFdeFromPcEy"
  },
  {
   "binding" : "weak",
   "name" : "_ZN11unwindstack19DwarfEhFrameWithHdrIyE18GetFdeOffsetFromPcEyPy"
  },
  {
   "binding" : "weak",
   "name" : "_ZN11unwindstack19DwarfEhFrameWithHdrIyE19GetFdeInfoFromIndexEj"
  },
  {
   "binding" : "weak",
   "name" : "_ZN11unwindstack19DwarfEhFrameWithHdrIyE4InitEyyy"
  },
  {
   "binding" : "weak",
   "name" : "_ZN11unwindstack19DwarfEhFrameWithHdrIyE7GetFdesEPNSt3__16vectorIPKNS_8DwarfFdeENS2_9allocatorIS6_EEEE"
  },
  {
   "binding" : "weak",
   "name" : "_ZN11unwindstack19DwarfEhFrameWithHdrIyEC1EPNS_6MemoryE"
  },
  {
   "binding" : "weak",
   "name" : "_ZN11unwindstack19DwarfEhFrameWithHdrIyEC2EPNS_6MemoryE"
  },
  {
   "name" : "_ZN11unwindstack19MemoryOfflineBuffer4ReadEyPvj"
  },
  {
   "name" : "_ZN11unwindstack19MemoryOfflineBuffer5ResetEPKhyy"
  },
  {
   "name" : "_ZN11unwindstack19MemoryOfflineBufferC1EPKhyy"
  },
  {
   "name" : "_ZN11unwindstack19MemoryOfflineBufferC2EPKhyy"
  },
  {
   "binding" : "weak",
   "name" : "_ZN11unwindstack21DwarfSectionImplNoHdrIjE12GetFdeFromPcEy"
  },
  {
   "binding" : "weak",
   "name" : "_ZN11unwindstack21DwarfSectionImplNoHdrIjE15GetNextCieOrFdeEPPNS_8DwarfFdeE"
  },
  {
   "binding" : "weak",
   "name" : "_ZN11unwindstack21DwarfSectionImplNoHdrIjE4InitEyyy"
  },
  {
   "binding" : "weak",
   "name" : "_ZN11unwindstack21DwarfSectionImplNoHdrIjE7GetFdesEPNSt3__16vectorIPKNS_8DwarfFdeENS2_9allocatorIS6_EEEE"
  },
  {
   "binding" : "weak",
   "name" : "_ZN11unwindstack21DwarfSectionImplNoHdrIjE9InsertFdeEPKNS_8DwarfFdeE"
  },
  {
   "binding" : "weak",
   "name" : "_ZN11unwindstack21DwarfSectionImplNoHdrIjEC2EPNS_6MemoryE"
  },
  {
   "binding" : "weak",
   "name" : "_ZN11unwindstack21DwarfSectionImplNoHdrIyE12GetFdeFromPcEy"
  },
  {
   "binding" : "weak",
   "name" : "_ZN11unwindstack21DwarfSectionImplNoHdrIyE15GetNextCieOrFdeEPPNS_8DwarfFdeE"
  },
  {
   "binding" : "weak",
   "name" : "_ZN11unwindstack21DwarfSectionImplNoHdrIyE4InitEyyy"
  },
  {
   "binding" : "weak",
   "name" : "_ZN11unwindstack21DwarfSectionImplNoHdrIyE7GetFdesEPNSt3__16vectorIPKNS_8DwarfFdeENS2_9allocatorIS6_EEEE"
  },
  {
   "binding" : "weak",
   "name" : "_ZN11unwindstack21DwarfSectionImplNoHdrIyE9InsertFdeEPKNS_8DwarfFdeE"
  },
  {
   "binding" : "weak",
   "name" : "_ZN11unwindstack21DwarfSectionImplNoHdrIyEC2EPNS_6MemoryE"
  },
  {
   "name" : "_ZN11unwindstack3Elf10GetBuildIDEPNS_6MemoryE"
  },
  {
   "name" : "_ZN11unwindstack3Elf10GetBuildIDEv"
  },
  {
   "name" : "_ZN11unwindstack3Elf10InvalidateEv"
  },
  {
   "name" : "_ZN11unwindstack3Elf10IsValidElfEPNS_6MemoryE"
  },
  {
   "name" : "_ZN11unwindstack3Elf11CacheUnlockEv"
  },
  {
   "name" : "_ZN11unwindstack3Elf11GetLoadBiasEPNS_6MemoryE"
  },
  {
   "name" : "_ZN11unwindstack3Elf12GetLastErrorEPNS_9ErrorDataE"
  },
  {
   "name" : "_ZN11unwindstack3Elf15GetFunctionNameEyPNSt3__112basic_stringIcNS1_11char_traitsIcEENS1_9allocatorIcEEEEPy"
  },
  {
   "name" : "_ZN11unwindstack3Elf16GetLastErrorCodeEv"
  },
  {
   "name" : "_ZN11unwindstack3Elf16InitGnuDebugdataEv"
  },
  {
   "name" : "_ZN11unwindstack3Elf17GetGlobalVariableERKNSt3__112basic_stringIcNS1_11char_traitsIcEENS1_9allocatorIcEEEEPy"
  },
  {
   "name" : "_ZN11unwindstack3Elf17SetCachingEnabledEb"
  },
  {
   "name" : "_ZN11unwindstack3Elf19GetLastErrorAddressEv"
  },
  {
   "name" : "_ZN11unwindstack3Elf19StepIfSignalHandlerEyPNS_4RegsEPNS_6MemoryE"
  },
  {
   "name" : "_ZN11unwindstack3Elf22CacheAfterCreateMemoryEPNS_7MapInfoE"
  },
  {
   "name" : "_ZN11unwindstack3Elf25CreateInterfaceFromMemoryEPNS_6MemoryE"
  },
  {
   "name" : "_ZN11unwindstack3Elf4InitEv"
  },
  {
   "name" : "_ZN11unwindstack3Elf4StepEyPNS_4RegsEPNS_6MemoryEPb"
  },
  {
   "name" : "_ZN11unwindstack3Elf7GetInfoEPNS_6MemoryEPy"
  },
  {
   "name" : "_ZN11unwindstack3Elf8CacheAddEPNS_7MapInfoE"
  },
  {
   "name" : "_ZN11unwindstack3Elf8CacheGetEPNS_7MapInfoE"
  },
  {
   "name" : "_ZN11unwindstack3Elf8GetRelPcEyPKNS_7MapInfoE"
  },
  {
   "name" : "_ZN11unwindstack3Elf9CacheLockEv"
  },
  {
   "name" : "_ZN11unwindstack3Elf9GetSonameEv"
  },
  {
   "name" : "_ZN11unwindstack3Elf9IsValidPcEy"
  },
  {
   "name" : "_ZN11unwindstack3logEhPKcz"
  },
  {
   "name" : "_ZN11unwindstack4Maps3AddEyyyyRKNSt3__112basic_stringIcNS1_11char_traitsIcEENS1_9allocatorIcEEEEy"
  },
  {
   "name" : "_ZN11unwindstack4Maps4FindEy"
  },
  {
   "name" : "_ZN11unwindstack4Maps4SortEv"
  },
  {
   "name" : "_ZN11unwindstack4Maps5ParseEv"
  },
  {
   "name" : "_ZN11unwindstack4Regs11CurrentArchEv"
  },
  {
   "name" : "_ZN11unwindstack4Regs15CreateFromLocalEv"
  },
  {
   "name" : "_ZN11unwindstack4Regs18CreateFromUcontextENS_8ArchEnumEPv"
  },
  {
   "name" : "_ZN11unwindstack4Regs9RemoteGetEi"
  },
  {
   "name" : "_ZN11unwindstack6Global17GetVariableOffsetEPNS_7MapInfoERKNSt3__112basic_stringIcNS3_11char_traitsIcEENS3_9allocatorIcEEEE"
  },
  {
   "name" : "_ZN11unwindstack6Global19FindAndReadVariableEPNS_4MapsEPKc"
  },
  {
   "name" : "_ZN11unwindstack6Global7SetArchENS_8ArchEnumE"
  },
  {
   "name" : "_ZN11unwindstack6GlobalC2ERNSt3__110shared_ptrINS_6MemoryEEE"
  },
  {
   "name" : "_ZN11unwindstack6GlobalC2ERNSt3__110shared_ptrINS_6MemoryEEERNS1_6vectorINS1_12basic_stringIcNS1_11char_traitsIcEENS1_9allocatorIcEEEENSA_ISC_EEEE"
  },
  {
   "name" : "_ZN11unwindstack6Memory10ReadStringEyPNSt3__112basic_stringIcNS1_11char_traitsIcEENS1_9allocatorIcEEEEy"
  },
  {
   "name" : "_ZN11unwindstack6Memory19CreateProcessMemoryEi"
  },
  {
   "name" : "_ZN11unwindstack6Memory25CreateProcessMemoryCachedEi"
  },
  {
   "name" : "_ZN11unwindstack6Memory9ReadFullyEyPvj"
  },
  {
   "binding" : "weak",
   "name" : "_ZN11unwindstack7DwarfOpIjE10GetLogInfoEyyPNSt3__16vectorINS2_12basic_stringIcNS2_11char_traitsIcEENS2_9allocatorIcEEEENS7_IS9_EEEE"
  },
  {
   "binding" : "weak",
   "name" : "_ZN11unwindstack7DwarfOpIjE10dex_pc_setEv"
  },
  {
   "binding" : "weak",
   "name" : "_ZN11unwindstack7DwarfOpIjE10last_errorEv"
  },
  {
   "binding" : "weak",
   "name" : "_ZN11unwindstack7DwarfOpIjE11is_registerEv"
  },
  {
   "binding" : "weak",
   "name" : "_ZN11unwindstack7DwarfOpIjE12OperandsSizeEv"
  },
  {
   "binding" : "weak",
   "name" : "_ZN11unwindstack7DwarfOpIjE13LastErrorCodeEv"
  },
  {
   "binding" : "weak",
   "name" : "_ZN11unwindstack7DwarfOpIjE13op_deref_sizeEv"
  },
  {
   "binding" : "weak",
   "name" : "_ZN11unwindstack7DwarfOpIjE13set_regs_infoEPNS_8RegsInfoIjEE"
  },
  {
   "binding" : "weak",
   "name" : "_ZN11unwindstack7DwarfOpIjE14op_plus_uconstEv"
  },
  {
   "binding" : "weak",
   "name" : "_ZN11unwindstack7DwarfOpIjE14regular_memoryEv"
  },
  {
   "binding" : "weak",
   "name" : "_ZN11unwindstack7DwarfOpIjE16LastErrorAddressEv"
  },
  {
   "binding" : "weak",
   "name" : "_ZN11unwindstack7DwarfOpIjE18bool_to_dwarf_boolEb"
  },
  {
   "binding" : "weak",
   "name" : "_ZN11unwindstack7DwarfOpIjE18op_not_implementedEv"
  },
  {
   "binding" : "weak",
   "name" : "_ZN11unwindstack7DwarfOpIjE4EvalEyy"
  },
  {
   "binding" : "weak",
   "name" : "_ZN11unwindstack7DwarfOpIjE5op_eqEv"
  },
  {
   "binding" : "weak",
   "name" : "_ZN11unwindstack7DwarfOpIjE5op_geEv"
  },
  {
   "binding" : "weak",
   "name" : "_ZN11unwindstack7DwarfOpIjE5op_gtEv"
  },
  {
   "binding" : "weak",
   "name" : "_ZN11unwindstack7DwarfOpIjE5op_leEv"
  },
  {
   "binding" : "weak",
   "name" : "_ZN11unwindstack7DwarfOpIjE5op_ltEv"
  },
  {
   "binding" : "weak",
   "name" : "_ZN11unwindstack7DwarfOpIjE5op_neEv"
  },
  {
   "binding" : "weak",
   "name" : "_ZN11unwindstack7DwarfOpIjE5op_orEv"
  },
  {
   "binding" : "weak",
   "name" : "_ZN11unwindstack7DwarfOpIjE6DecodeEv"
  },
  {
   "binding" : "weak",
   "name" : "_ZN11unwindstack7DwarfOpIjE6cur_opEv"
  },
  {
   "binding" : "weak",
   "name" : "_ZN11unwindstack7DwarfOpIjE6op_absEv"
  },
  {
   "binding" : "weak",
   "name" : "_ZN11unwindstack7DwarfOpIjE6op_andEv"
  },
  {
   "binding" : "weak",
   "name" : "_ZN11unwindstack7DwarfOpIjE6op_braEv"
  },
  {
   "binding" : "weak",
   "name" : "_ZN11unwindstack7DwarfOpIjE6op_divEv"
  },
  {
   "binding" : "weak",
   "name" : "_ZN11unwindstack7DwarfOpIjE6op_dupEv"
  },
  {
   "binding" : "weak",
   "name" : "_ZN11unwindstack7DwarfOpIjE6op_litEv"
  },
  {
   "binding" : "weak",
   "name" : "_ZN11unwindstack7DwarfOpIjE6op_modEv"
  },
  {
   "binding" : "weak",
   "name" : "_ZN11unwindstack7DwarfOpIjE6op_mulEv"
  },
  {
   "binding" : "weak",
   "name" : "_ZN11unwindstack7DwarfOpIjE6op_negEv"
  },
  {
   "binding" : "weak",
   "name" : "_ZN11unwindstack7DwarfOpIjE6op_nopEv"
  },
  {
   "binding" : "weak",
   "name" : "_ZN11unwindstack7DwarfOpIjE6op_notEv"
  },
  {
   "binding" : "weak",
   "name" : "_ZN11unwindstack7DwarfOpIjE6op_regEv"
  },
  {
   "binding" : "weak",
   "name" : "_ZN11unwindstack7DwarfOpIjE6op_rotEv"
  },
  {
   "binding" : "weak",
   "name" : "_ZN11unwindstack7DwarfOpIjE6op_shlEv"
  },
  {
   "binding" : "weak",
   "name" : "_ZN11unwindstack7DwarfOpIjE6op_shrEv"
  },
  {
   "binding" : "weak",
   "name" : "_ZN11unwindstack7DwarfOpIjE6op_xorEv"
  },
  {
   "binding" : "weak",
   "name" : "_ZN11unwindstack7DwarfOpIjE7StackAtEj"
  },
  {
   "binding" : "weak",
   "name" : "_ZN11unwindstack7DwarfOpIjE7op_bregEv"
  },
  {
   "binding" : "weak",
   "name" : "_ZN11unwindstack7DwarfOpIjE7op_dropEv"
  },
  {
   "binding" : "weak",
   "name" : "_ZN11unwindstack7DwarfOpIjE7op_overEv"
  },
  {
   "binding" : "weak",
   "name" : "_ZN11unwindstack7DwarfOpIjE7op_pickEv"
  },
  {
   "binding" : "weak",
   "name" : "_ZN11unwindstack7DwarfOpIjE7op_plusEv"
  },
  {
   "binding" : "weak",
   "name" : "_ZN11unwindstack7DwarfOpIjE7op_pushEv"
  },
  {
   "binding" : "weak",
   "name" : "_ZN11unwindstack7DwarfOpIjE7op_regxEv"
  },
  {
   "binding" : "weak",
   "name" : "_ZN11unwindstack7DwarfOpIjE7op_shraEv"
  },
  {
   "binding" : "weak",
   "name" : "_ZN11unwindstack7DwarfOpIjE7op_skipEv"
  },
  {
   "binding" : "weak",
   "name" : "_ZN11unwindstack7DwarfOpIjE7op_swapEv"
  },
  {
   "binding" : "weak",
   "name" : "_ZN11unwindstack7DwarfOpIjE8StackPopEv"
  },
  {
   "binding" : "weak",
   "name" : "_ZN11unwindstack7DwarfOpIjE8op_bregxEv"
  },
  {
   "binding" : "weak",
   "name" : "_ZN11unwindstack7DwarfOpIjE8op_derefEv"
  },
  {
   "binding" : "weak",
   "name" : "_ZN11unwindstack7DwarfOpIjE8op_minusEv"
  },
  {
   "binding" : "weak",
   "name" : "_ZN11unwindstack7DwarfOpIjE9OperandAtEj"
  },
  {
   "binding" : "weak",
   "name" : "_ZN11unwindstack7DwarfOpIjE9StackSizeEv"
  },
  {
   "binding" : "weak",
   "name" : "_ZN11unwindstack7DwarfOpIjEC1EPNS_11DwarfMemoryEPNS_6MemoryE"
  },
  {
   "binding" : "weak",
   "name" : "_ZN11unwindstack7DwarfOpIjEC2EPNS_11DwarfMemoryEPNS_6MemoryE"
  },
  {
   "binding" : "weak",
   "name" : "_ZN11unwindstack7DwarfOpIyE10GetLogInfoEyyPNSt3__16vectorINS2_12basic_stringIcNS2_11char_traitsIcEENS2_9allocatorIcEEEENS7_IS9_EEEE"
  },
  {
   "binding" : "weak",
   "name" : "_ZN11unwindstack7DwarfOpIyE10dex_pc_setEv"
  },
  {
   "binding" : "weak",
   "name" : "_ZN11unwindstack7DwarfOpIyE10last_errorEv"
  },
  {
   "binding" : "weak",
   "name" : "_ZN11unwindstack7DwarfOpIyE11is_registerEv"
  },
  {
   "binding" : "weak",
   "name" : "_ZN11unwindstack7DwarfOpIyE12OperandsSizeEv"
  },
  {
   "binding" : "weak",
   "name" : "_ZN11unwindstack7DwarfOpIyE13LastErrorCodeEv"
  },
  {
   "binding" : "weak",
   "name" : "_ZN11unwindstack7DwarfOpIyE13op_deref_sizeEv"
  },
  {
   "binding" : "weak",
   "name" : "_ZN11unwindstack7DwarfOpIyE13set_regs_infoEPNS_8RegsInfoIyEE"
  },
  {
   "binding" : "weak",
   "name" : "_ZN11unwindstack7DwarfOpIyE14op_plus_uconstEv"
  },
  {
   "binding" : "weak",
   "name" : "_ZN11unwindstack7DwarfOpIyE14regular_memoryEv"
  },
  {
   "binding" : "weak",
   "name" : "_ZN11unwindstack7DwarfOpIyE16LastErrorAddressEv"
  },
  {
   "binding" : "weak",
   "name" : "_ZN11unwindstack7DwarfOpIyE18bool_to_dwarf_boolEb"
  },
  {
   "binding" : "weak",
   "name" : "_ZN11unwindstack7DwarfOpIyE18op_not_implementedEv"
  },
  {
   "binding" : "weak",
   "name" : "_ZN11unwindstack7DwarfOpIyE4EvalEyy"
  },
  {
   "binding" : "weak",
   "name" : "_ZN11unwindstack7DwarfOpIyE5op_eqEv"
  },
  {
   "binding" : "weak",
   "name" : "_ZN11unwindstack7DwarfOpIyE5op_geEv"
  },
  {
   "binding" : "weak",
   "name" : "_ZN11unwindstack7DwarfOpIyE5op_gtEv"
  },
  {
   "binding" : "weak",
   "name" : "_ZN11unwindstack7DwarfOpIyE5op_leEv"
  },
  {
   "binding" : "weak",
   "name" : "_ZN11unwindstack7DwarfOpIyE5op_ltEv"
  },
  {
   "binding" : "weak",
   "name" : "_ZN11unwindstack7DwarfOpIyE5op_neEv"
  },
  {
   "binding" : "weak",
   "name" : "_ZN11unwindstack7DwarfOpIyE5op_orEv"
  },
  {
   "binding" : "weak",
   "name" : "_ZN11unwindstack7DwarfOpIyE6DecodeEv"
  },
  {
   "binding" : "weak",
   "name" : "_ZN11unwindstack7DwarfOpIyE6cur_opEv"
  },
  {
   "binding" : "weak",
   "name" : "_ZN11unwindstack7DwarfOpIyE6op_absEv"
  },
  {
   "binding" : "weak",
   "name" : "_ZN11unwindstack7DwarfOpIyE6op_andEv"
  },
  {
   "binding" : "weak",
   "name" : "_ZN11unwindstack7DwarfOpIyE6op_braEv"
  },
  {
   "binding" : "weak",
   "name" : "_ZN11unwindstack7DwarfOpIyE6op_divEv"
  },
  {
   "binding" : "weak",
   "name" : "_ZN11unwindstack7DwarfOpIyE6op_dupEv"
  },
  {
   "binding" : "weak",
   "name" : "_ZN11unwindstack7DwarfOpIyE6op_litEv"
  },
  {
   "binding" : "weak",
   "name" : "_ZN11unwindstack7DwarfOpIyE6op_modEv"
  },
  {
   "binding" : "weak",
   "name" : "_ZN11unwindstack7DwarfOpIyE6op_mulEv"
  },
  {
   "binding" : "weak",
   "name" : "_ZN11unwindstack7DwarfOpIyE6op_negEv"
  },
  {
   "binding" : "weak",
   "name" : "_ZN11unwindstack7DwarfOpIyE6op_nopEv"
  },
  {
   "binding" : "weak",
   "name" : "_ZN11unwindstack7DwarfOpIyE6op_notEv"
  },
  {
   "binding" : "weak",
   "name" : "_ZN11unwindstack7DwarfOpIyE6op_regEv"
  },
  {
   "binding" : "weak",
   "name" : "_ZN11unwindstack7DwarfOpIyE6op_rotEv"
  },
  {
   "binding" : "weak",
   "name" : "_ZN11unwindstack7DwarfOpIyE6op_shlEv"
  },
  {
   "binding" : "weak",
   "name" : "_ZN11unwindstack7DwarfOpIyE6op_shrEv"
  },
  {
   "binding" : "weak",
   "name" : "_ZN11unwindstack7DwarfOpIyE6op_xorEv"
  },
  {
   "binding" : "weak",
   "name" : "_ZN11unwindstack7DwarfOpIyE7StackAtEj"
  },
  {
   "binding" : "weak",
   "name" : "_ZN11unwindstack7DwarfOpIyE7op_bregEv"
  },
  {
   "binding" : "weak",
   "name" : "_ZN11unwindstack7DwarfOpIyE7op_dropEv"
  },
  {
   "binding" : "weak",
   "name" : "_ZN11unwindstack7DwarfOpIyE7op_overEv"
  },
  {
   "binding" : "weak",
   "name" : "_ZN11unwindstack7DwarfOpIyE7op_pickEv"
  },
  {
   "binding" : "weak",
   "name" : "_ZN11unwindstack7DwarfOpIyE7op_plusEv"
  },
  {
   "binding" : "weak",
   "name" : "_ZN11unwindstack7DwarfOpIyE7op_pushEv"
  },
  {
   "binding" : "weak",
   "name" : "_ZN11unwindstack7DwarfOpIyE7op_regxEv"
  },
  {
   "binding" : "weak",
   "name" : "_ZN11unwindstack7DwarfOpIyE7op_shraEv"
  },
  {
   "binding" : "weak",
   "name" : "_ZN11unwindstack7DwarfOpIyE7op_skipEv"
  },
  {
   "binding" : "weak",
   "name" : "_ZN11unwindstack7DwarfOpIyE7op_swapEv"
  },
  {
   "binding" : "weak",
   "name" : "_ZN11unwindstack7DwarfOpIyE8StackPopEv"
  },
  {
   "binding" : "weak",
   "name" : "_ZN11unwindstack7DwarfOpIyE8op_bregxEv"
  },
  {
   "binding" : "weak",
   "name" : "_ZN11unwindstack7DwarfOpIyE8op_derefEv"
  },
  {
   "binding" : "weak",
   "name" : "_ZN11unwindstack7DwarfOpIyE8op_minusEv"
  },
  {
   "binding" : "weak",
   "name" : "_ZN11unwindstack7DwarfOpIyE9OperandAtEj"
  },
  {
   "binding" : "weak",
   "name" : "_ZN11unwindstack7DwarfOpIyE9StackSizeEv"
  },
  {
   "binding" : "weak",
   "name" : "_ZN11unwindstack7DwarfOpIyEC1EPNS_11DwarfMemoryEPNS_6MemoryE"
  },
  {
   "binding" : "weak",
   "name" : "_ZN11unwindstack7DwarfOpIyEC2EPNS_11DwarfMemoryEPNS_6MemoryE"
  },
  {
   "name" : "_ZN11unwindstack7MapInfo10GetBuildIDEv"
  },
  {
   "name" : "_ZN11unwindstack7MapInfo11GetLoadBiasERKNSt3__110shared_ptrINS_6MemoryEEE"
  },
  {
   "name" : "_ZN11unwindstack7MapInfo12CreateMemoryERKNSt3__110shared_ptrINS_6MemoryEEE"
  },
  {
   "name" : "_ZN11unwindstack7MapInfo13GetFileMemoryEv"
  },
  {
   "name" : "_ZN11unwindstack7MapInfo15GetFunctionNameEyPNSt3__112basic_stringIcNS1_11char_traitsIcEENS1_9allocatorIcEEEEPy"
  },
  {
   "name" : "_ZN11unwindstack7MapInfo19GetPrintableBuildIDEv"
  },
  {
   "name" : "_ZN11unwindstack7MapInfo37InitFileMemoryFromPreviousReadOnlyMapEPNS_18MemoryFileAtOffsetE"
  },
  {
   "name" : "_ZN11unwindstack7MapInfo6GetElfERKNSt3__110shared_ptrINS_6MemoryEEENS_8ArchEnumE"
  },
  {
   "name" : "_ZN11unwindstack7MapInfoD1Ev"
  },
  {
   "name" : "_ZN11unwindstack7MapInfoD2Ev"
  },
  {
   "name" : "_ZN11unwindstack7RegsArm15GetPcAdjustmentEyPNS_3ElfE"
  },
  {
   "name" : "_ZN11unwindstack7RegsArm16IterateRegistersENSt3__18functionIFvPKcyEEE"
  },
  {
   "name" : "_ZN11unwindstack7RegsArm18CreateFromUcontextEPv"
  },
  {
   "name" : "_ZN11unwindstack7RegsArm19StepIfSignalHandlerEyPNS_3ElfEPNS_6MemoryE"
  },
  {
   "name" : "_ZN11unwindstack7RegsArm22SetPcFromReturnAddressEPNS_6MemoryE"
  },
  {
   "name" : "_ZN11unwindstack7RegsArm2pcEv"
  },
  {
   "name" : "_ZN11unwindstack7RegsArm2spEv"
  },
  {
   "name" : "_ZN11unwindstack7RegsArm4ArchEv"
  },
  {
   "name" : "_ZN11unwindstack7RegsArm4ReadEPv"
  },
  {
   "name" : "_ZN11unwindstack7RegsArm5CloneEv"
  },
  {
   "name" : "_ZN11unwindstack7RegsArm6set_pcEy"
  },
  {
   "name" : "_ZN11unwindstack7RegsArm6set_spEy"
  },
  {
   "name" : "_ZN11unwindstack7RegsArmC1Ev"
  },
  {
   "name" : "_ZN11unwindstack7RegsArmC2Ev"
  },
  {
   "name" : "_ZN11unwindstack7RegsX8615GetPcAdjustmentEyPNS_3ElfE"
  },
  {
   "name" : "_ZN11unwindstack7RegsX8615SetFromUcontextEPNS_14x86_ucontext_tE"
  },
  {
   "name" : "_ZN11unwindstack7RegsX8616IterateRegistersENSt3__18functionIFvPKcyEEE"
  },
  {
   "name" : "_ZN11unwindstack7RegsX8618CreateFromUcontextEPv"
  },
  {
   "name" : "_ZN11unwindstack7RegsX8619StepIfSignalHandlerEyPNS_3ElfEPNS_6MemoryE"
  },
  {
   "name" : "_ZN11unwindstack7RegsX8622SetPcFromReturnAddressEPNS_6MemoryE"
  },
  {
   "name" : "_ZN11unwindstack7RegsX862pcEv"
  },
  {
   "name" : "_ZN11unwindstack7RegsX862spEv"
  },
  {
   "name" : "_ZN11unwindstack7RegsX864ArchEv"
  },
  {
   "name" : "_ZN11unwindstack7RegsX864ReadEPv"
  },
  {
   "name" : "_ZN11unwindstack7RegsX865CloneEv"
  },
  {
   "name" : "_ZN11unwindstack7RegsX866set_pcEy"
  },
  {
   "name" : "_ZN11unwindstack7RegsX866set_spEy"
  },
  {
   "name" : "_ZN11unwindstack7RegsX86C1Ev"
  },
  {
   "name" : "_ZN11unwindstack7RegsX86C2Ev"
  },
  {
   "name" : "_ZN11unwindstack7Symbols16GetInfoFromCacheEy"
  },
  {
   "binding" : "weak",
   "name" : "_ZN11unwindstack7Symbols7GetNameI9elf32_symEEbyPNS_6MemoryEPNSt3__112basic_stringIcNS5_11char_traitsIcEENS5_9allocatorIcEEEEPy"
  },
  {
   "binding" : "weak",
   "name" : "_ZN11unwindstack7Symbols7GetNameI9elf64_symEEbyPNS_6MemoryEPNSt3__112basic_stringIcNS5_11char_traitsIcEENS5_9allocatorIcEEEEPy"
  },
  {
   "binding" : "weak",
   "name" : "_ZN11unwindstack7Symbols9GetGlobalI9elf32_symEEbPNS_6MemoryERKNSt3__112basic_stringIcNS5_11char_traitsIcEENS5_9allocatorIcEEEEPy"
  },
  {
   "binding" : "weak",
   "name" : "_ZN11unwindstack7Symbols9GetGlobalI9elf64_symEEbPNS_6MemoryERKNSt3__112basic_stringIcNS5_11char_traitsIcEENS5_9allocatorIcEEEEPy"
  },
  {
   "name" : "_ZN11unwindstack7SymbolsC1Eyyyyy"
  },
  {
   "name" : "_ZN11unwindstack7SymbolsC2Eyyyyy"
  },
  {
   "name" : "_ZN11unwindstack8ArmExidx10LogRawDataEv"
  },
  {
   "name" : "_ZN11unwindstack8ArmExidx16ExtractEntryDataEj"
  },
  {
   "name" : "_ZN11unwindstack8ArmExidx4EvalEv"
  },
  {
   "name" : "_ZN11unwindstack8ArmExidx6DecodeEv"
  },
  {
   "name" : "_ZN11unwindstack8ArmExidx8LogByRegEv"
  },
  {
   "binding" : "weak",
   "name" : "_ZN11unwindstack8DwarfCfaIjE10cfa_offsetEPNS_14DwarfLocationsE"
  },
  {
   "binding" : "weak",
   "name" : "_ZN11unwindstack8DwarfCfaIjE10last_errorEv"
  },
  {
   "binding" : "weak",
   "name" : "_ZN11unwindstack8DwarfCfaIjE11cfa_def_cfaEPNS_14DwarfLocationsE"
  },
  {
   "binding" : "weak",
   "name" : "_ZN11unwindstack8DwarfCfaIjE11cfa_restoreEPNS_14DwarfLocationsE"
  },
  {
   "binding" : "weak",
   "name" : "_ZN11unwindstack8DwarfCfaIjE11cfa_set_locEPNS_14DwarfLocationsE"
  },
  {
   "binding" : "weak",
   "name" : "_ZN11unwindstack8DwarfCfaIjE12cfa_registerEPNS_14DwarfLocationsE"
  },
  {
   "binding" : "weak",
   "name" : "_ZN11unwindstack8DwarfCfaIjE13LastErrorCodeEv"
  },
  {
   "binding" : "weak",
   "name" : "_ZN11unwindstack8DwarfCfaIjE13cfa_undefinedEPNS_14DwarfLocationsE"
  },
  {
   "binding" : "weak",
   "name" : "_ZN11unwindstack8DwarfCfaIjE14LogInstructionEjyhPy"
  },
  {
   "binding" : "weak",
   "name" : "_ZN11unwindstack8DwarfCfaIjE14cfa_def_cfa_sfEPNS_14DwarfLocationsE"
  },
  {
   "binding" : "weak",
   "name" : "_ZN11unwindstack8DwarfCfaIjE14cfa_expressionEPNS_14DwarfLocationsE"
  },
  {
   "binding" : "weak",
   "name" : "_ZN11unwindstack8DwarfCfaIjE14cfa_same_valueEPNS_14DwarfLocationsE"
  },
  {
   "binding" : "weak",
   "name" : "_ZN11unwindstack8DwarfCfaIjE14cfa_val_offsetEPNS_14DwarfLocationsE"
  },
  {
   "binding" : "weak",
   "name" : "_ZN11unwindstack8DwarfCfaIjE15GetLocationInfoEyyyPNS_14DwarfLocationsE"
  },
  {
   "binding" : "weak",
   "name" : "_ZN11unwindstack8DwarfCfaIjE15cfa_advance_locEPNS_14DwarfLocationsE"
  },
  {
   "binding" : "weak",
   "name" : "_ZN11unwindstack8DwarfCfaIjE16GetOperandStringEhyPy"
  },
  {
   "binding" : "weak",
   "name" : "_ZN11unwindstack8DwarfCfaIjE16LastErrorAddressEv"
  },
  {
   "binding" : "weak",
   "name" : "_ZN11unwindstack8DwarfCfaIjE16set_cie_loc_regsEPKNS_14DwarfLocationsE"
  },
  {
   "binding" : "weak",
   "name" : "_ZN11unwindstack8DwarfCfaIjE17cfa_restore_stateEPNS_14DwarfLocationsE"
  },
  {
   "binding" : "weak",
   "name" : "_ZN11unwindstack8DwarfCfaIjE17cfa_val_offset_sfEPNS_14DwarfLocationsE"
  },
  {
   "binding" : "weak",
   "name" : "_ZN11unwindstack8DwarfCfaIjE18cfa_def_cfa_offsetEPNS_14DwarfLocationsE"
  },
  {
   "binding" : "weak",
   "name" : "_ZN11unwindstack8DwarfCfaIjE18cfa_remember_stateEPNS_14DwarfLocationsE"
  },
  {
   "binding" : "weak",
   "name" : "_ZN11unwindstack8DwarfCfaIjE18cfa_val_expressionEPNS_14DwarfLocationsE"
  },
  {
   "binding" : "weak",
   "name" : "_ZN11unwindstack8DwarfCfaIjE20cfa_def_cfa_registerEPNS_14DwarfLocationsE"
  },
  {
   "binding" : "weak",
   "name" : "_ZN11unwindstack8DwarfCfaIjE21cfa_def_cfa_offset_sfEPNS_14DwarfLocationsE"
  },
  {
   "binding" : "weak",
   "name" : "_ZN11unwindstack8DwarfCfaIjE22cfa_def_cfa_expressionEPNS_14DwarfLocationsE"
  },
  {
   "binding" : "weak",
   "name" : "_ZN11unwindstack8DwarfCfaIjE22cfa_offset_extended_sfEPNS_14DwarfLocationsE"
  },
  {
   "binding" : "weak",
   "name" : "_ZN11unwindstack8DwarfCfaIjE23LogOffsetRegisterStringEjyh"
  },
  {
   "binding" : "weak",
   "name" : "_ZN11unwindstack8DwarfCfaIjE32cfa_gnu_negative_offset_extendedEPNS_14DwarfLocationsE"
  },
  {
   "binding" : "weak",
   "name" : "_ZN11unwindstack8DwarfCfaIjE3LogEjyyy"
  },
  {
   "binding" : "weak",
   "name" : "_ZN11unwindstack8DwarfCfaIjE6cur_pcEv"
  },
  {
   "binding" : "weak",
   "name" : "_ZN11unwindstack8DwarfCfaIjE7cfa_nopEPNS_14DwarfLocationsE"
  },
  {
   "binding" : "weak",
   "name" : "_ZN11unwindstack8DwarfCfaIjEC1EPNS_11DwarfMemoryEPKNS_8DwarfFdeE"
  },
  {
   "binding" : "weak",
   "name" : "_ZN11unwindstack8DwarfCfaIjEC2EPNS_11DwarfMemoryEPKNS_8DwarfFdeE"
  },
  {
   "binding" : "weak",
   "name" : "_ZN11unwindstack8DwarfCfaIyE10cfa_offsetEPNS_14DwarfLocationsE"
  },
  {
   "binding" : "weak",
   "name" : "_ZN11unwindstack8DwarfCfaIyE10last_errorEv"
  },
  {
   "binding" : "weak",
   "name" : "_ZN11unwindstack8DwarfCfaIyE11cfa_def_cfaEPNS_14DwarfLocationsE"
  },
  {
   "binding" : "weak",
   "name" : "_ZN11unwindstack8DwarfCfaIyE11cfa_restoreEPNS_14DwarfLocationsE"
  },
  {
   "binding" : "weak",
   "name" : "_ZN11unwindstack8DwarfCfaIyE11cfa_set_locEPNS_14DwarfLocationsE"
  },
  {
   "binding" : "weak",
   "name" : "_ZN11unwindstack8DwarfCfaIyE12cfa_registerEPNS_14DwarfLocationsE"
  },
  {
   "binding" : "weak",
   "name" : "_ZN11unwindstack8DwarfCfaIyE13LastErrorCodeEv"
  },
  {
   "binding" : "weak",
   "name" : "_ZN11unwindstack8DwarfCfaIyE13cfa_undefinedEPNS_14DwarfLocationsE"
  },
  {
   "binding" : "weak",
   "name" : "_ZN11unwindstack8DwarfCfaIyE14LogInstructionEjyhPy"
  },
  {
   "binding" : "weak",
   "name" : "_ZN11unwindstack8DwarfCfaIyE14cfa_def_cfa_sfEPNS_14DwarfLocationsE"
  },
  {
   "binding" : "weak",
   "name" : "_ZN11unwindstack8DwarfCfaIyE14cfa_expressionEPNS_14DwarfLocationsE"
  },
  {
   "binding" : "weak",
   "name" : "_ZN11unwindstack8DwarfCfaIyE14cfa_same_valueEPNS_14DwarfLocationsE"
  },
  {
   "binding" : "weak",
   "name" : "_ZN11unwindstack8DwarfCfaIyE14cfa_val_offsetEPNS_14DwarfLocationsE"
  },
  {
   "binding" : "weak",
   "name" : "_ZN11unwindstack8DwarfCfaIyE15GetLocationInfoEyyyPNS_14DwarfLocationsE"
  },
  {
   "binding" : "weak",
   "name" : "_ZN11unwindstack8DwarfCfaIyE15cfa_advance_locEPNS_14DwarfLocationsE"
  },
  {
   "binding" : "weak",
   "name" : "_ZN11unwindstack8DwarfCfaIyE16GetOperandStringEhyPy"
  },
  {
   "binding" : "weak",
   "name" : "_ZN11unwindstack8DwarfCfaIyE16LastErrorAddressEv"
  },
  {
   "binding" : "weak",
   "name" : "_ZN11unwindstack8DwarfCfaIyE16set_cie_loc_regsEPKNS_14DwarfLocationsE"
  },
  {
   "binding" : "weak",
   "name" : "_ZN11unwindstack8DwarfCfaIyE17cfa_restore_stateEPNS_14DwarfLocationsE"
  },
  {
   "binding" : "weak",
   "name" : "_ZN11unwindstack8DwarfCfaIyE17cfa_val_offset_sfEPNS_14DwarfLocationsE"
  },
  {
   "binding" : "weak",
   "name" : "_ZN11unwindstack8DwarfCfaIyE18cfa_def_cfa_offsetEPNS_14DwarfLocationsE"
  },
  {
   "binding" : "weak",
   "name" : "_ZN11unwindstack8DwarfCfaIyE18cfa_remember_stateEPNS_14DwarfLocationsE"
  },
  {
   "binding" : "weak",
   "name" : "_ZN11unwindstack8DwarfCfaIyE18cfa_val_expressionEPNS_14DwarfLocationsE"
  },
  {
   "binding" : "weak",
   "name" : "_ZN11unwindstack8DwarfCfaIyE20cfa_def_cfa_registerEPNS_14DwarfLocationsE"
  },
  {
   "binding" : "weak",
   "name" : "_ZN11unwindstack8DwarfCfaIyE21cfa_def_cfa_offset_sfEPNS_14DwarfLocationsE"
  },
  {
   "binding" : "weak",
   "name" : "_ZN11unwindstack8DwarfCfaIyE22cfa_def_cfa_expressionEPNS_14DwarfLocationsE"
  },
  {
   "binding" : "weak",
   "name" : "_ZN11unwindstack8DwarfCfaIyE22cfa_offset_extended_sfEPNS_14DwarfLocationsE"
  },
  {
   "binding" : "weak",
   "name" : "_ZN11unwindstack8DwarfCfaIyE23LogOffsetRegisterStringEjyh"
  },
  {
   "binding" : "weak",
   "name" : "_ZN11unwindstack8DwarfCfaIyE32cfa_gnu_negative_offset_extendedEPNS_14DwarfLocationsE"
  },
  {
   "binding" : "weak",
   "name" : "_ZN11unwindstack8DwarfCfaIyE3LogEjyyy"
  },
  {
   "binding" : "weak",
   "name" : "_ZN11unwindstack8DwarfCfaIyE6cur_pcEv"
  },
  {
   "binding" : "weak",
   "name" : "_ZN11unwindstack8DwarfCfaIyE7cfa_nopEPNS_14DwarfLocationsE"
  },
  {
   "binding" : "weak",
   "name" : "_ZN11unwindstack8DwarfCfaIyEC1EPNS_11DwarfMemoryEPKNS_8DwarfFdeE"
  },
  {
   "binding" : "weak",
   "name" : "_ZN11unwindstack8DwarfCfaIyEC2EPNS_11DwarfMemoryEPKNS_8DwarfFdeE"
  },
  {
   "name" : "_ZN11unwindstack8JitDebug11ProcessArchEv"
  },
  {
   "name" : "_ZN11unwindstack8JitDebug11ReadEntry64EPyS1_"
  },
  {
   "name" : "_ZN11unwindstack8JitDebug14ReadEntry32PadEPyS1_"
  },
  {
   "name" : "_ZN11unwindstack8JitDebug15ReadEntry32PackEPyS1_"
  },
  {
   "name" : "_ZN11unwindstack8JitDebug16ReadDescriptor32Ey"
  },
  {
   "name" : "_ZN11unwindstack8JitDebug16ReadDescriptor64Ey"
  },
  {
   "name" : "_ZN11unwindstack8JitDebug16ReadVariableDataEy"
  },
  {
   "name" : "_ZN11unwindstack8JitDebug4InitEPNS_4MapsE"
  },
  {
   "name" : "_ZN11unwindstack8JitDebug6GetElfEPNS_4MapsEy"
  },
  {
   "name" : "_ZN11unwindstack8JitDebugC1ERNSt3__110shared_ptrINS_6MemoryEEE"
  },
  {
   "name" : "_ZN11unwindstack8JitDebugC1ERNSt3__110shared_ptrINS_6MemoryEEERNS1_6vectorINS1_12basic_stringIcNS1_11char_traitsIcEENS1_9allocatorIcEEEENSA_ISC_EEEE"
  },
  {
   "name" : "_ZN11unwindstack8JitDebugC2ERNSt3__110shared_ptrINS_6MemoryEEE"
  },
  {
   "name" : "_ZN11unwindstack8JitDebugC2ERNSt3__110shared_ptrINS_6MemoryEEERNS1_6vectorINS1_12basic_stringIcNS1_11char_traitsIcEENS1_9allocatorIcEEEENSA_ISC_EEEE"
  },
  {
   "name" : "_ZN11unwindstack8JitDebugD0Ev"
  },
  {
   "name" : "_ZN11unwindstack8JitDebugD1Ev"
  },
  {
   "name" : "_ZN11unwindstack8JitDebugD2Ev"
  },
  {
   "name" : "_ZN11unwindstack8RegsMips15GetPcAdjustmentEyPNS_3ElfE"
  },
  {
   "name" : "_ZN11unwindstack8RegsMips16IterateRegistersENSt3__18functionIFvPKcyEEE"
  },
  {
   "name" : "_ZN11unwindstack8RegsMips18CreateFromUcontextEPv"
  },
  {
   "name" : "_ZN11unwindstack8RegsMips19StepIfSignalHandlerEyPNS_3ElfEPNS_6MemoryE"
  },
  {
   "name" : "_ZN11unwindstack8RegsMips22SetPcFromReturnAddressEPNS_6MemoryE"
  },
  {
   "name" : "_ZN11unwindstack8RegsMips2pcEv"
  },
  {
   "name" : "_ZN11unwindstack8RegsMips2spEv"
  },
  {
   "name" : "_ZN11unwindstack8RegsMips4ArchEv"
  },
  {
   "name" : "_ZN11unwindstack8RegsMips4ReadEPv"
  },
  {
   "name" : "_ZN11unwindstack8RegsMips5CloneEv"
  },
  {
   "name" : "_ZN11unwindstack8RegsMips6set_pcEy"
  },
  {
   "name" : "_ZN11unwindstack8RegsMips6set_spEy"
  },
  {
   "name" : "_ZN11unwindstack8RegsMipsC1Ev"
  },
  {
   "name" : "_ZN11unwindstack8RegsMipsC2Ev"
  },
  {
   "name" : "_ZN11unwindstack8Unwinder11FillInFrameEPNS_7MapInfoEPNS_3ElfEyy"
  },
  {
   "name" : "_ZN11unwindstack8Unwinder11FormatFrameERKNS_9FrameDataE"
  },
  {
   "name" : "_ZN11unwindstack8Unwinder11FormatFrameEj"
  },
  {
   "name" : "_ZN11unwindstack8Unwinder11SetJitDebugEPNS_8JitDebugENS_8ArchEnumE"
  },
  {
   "name" : "_ZN11unwindstack8Unwinder14FillInDexFrameEv"
  },
  {
   "name" : "_ZN11unwindstack8Unwinder6UnwindEPKNSt3__16vectorINS1_12basic_stringIcNS1_11char_traitsIcEENS1_9allocatorIcEEEENS6_IS8_EEEESC_"
  },
  {
   "name" : "_ZN11unwindstack9RegsArm6415GetPcAdjustmentEyPNS_3ElfE"
  },
  {
   "name" : "_ZN11unwindstack9RegsArm6416IterateRegistersENSt3__18functionIFvPKcyEEE"
  },
  {
   "name" : "_ZN11unwindstack9RegsArm6418CreateFromUcontextEPv"
  },
  {
   "name" : "_ZN11unwindstack9RegsArm6419StepIfSignalHandlerEyPNS_3ElfEPNS_6MemoryE"
  },
  {
   "name" : "_ZN11unwindstack9RegsArm6422SetPcFromReturnAddressEPNS_6MemoryE"
  },
  {
   "name" : "_ZN11unwindstack9RegsArm642pcEv"
  },
  {
   "name" : "_ZN11unwindstack9RegsArm642spEv"
  },
  {
   "name" : "_ZN11unwindstack9RegsArm644ArchEv"
  },
  {
   "name" : "_ZN11unwindstack9RegsArm644ReadEPv"
  },
  {
   "name" : "_ZN11unwindstack9RegsArm645CloneEv"
  },
  {
   "name" : "_ZN11unwindstack9RegsArm646set_pcEy"
  },
  {
   "name" : "_ZN11unwindstack9RegsArm646set_spEy"
  },
  {
   "name" : "_ZN11unwindstack9RegsArm64C1Ev"
  },
  {
   "name" : "_ZN11unwindstack9RegsArm64C2Ev"
  },
  {
   "binding" : "weak",
   "name" : "_ZN7android8procinfo18ReadMapFileContentINSt3__18functionIFvyytymPKcEEEEEbPcRKT_"
  },
  {
   "name" : "_ZN9Demangler13AppendCurrentEPKc"
  },
  {
   "name" : "_ZN9Demangler13AppendCurrentERKNSt3__112basic_stringIcNS0_11char_traitsIcEENS0_9allocatorIcEEEE"
  },
  {
   "name" : "_ZN9Demangler14AppendArgumentERKNSt3__112basic_stringIcNS0_11char_traitsIcEENS0_9allocatorIcEEEE"
  },
  {
   "name" : "_ZN9Demangler14ParseArgumentsEPKc"
  },
  {
   "name" : "_ZN9Demangler16FinalizeTemplateEv"
  },
  {
   "name" : "_ZN9Demangler16FindFunctionNameEPKc"
  },
  {
   "name" : "_ZN9Demangler17ParseFunctionNameEPKc"
  },
  {
   "name" : "_ZN9Demangler18GetArgumentsStringEv"
  },
  {
   "name" : "_ZN9Demangler18ParseComplexStringEPKc"
  },
  {
   "name" : "_ZN9Demangler19GetStringFromLengthEPKcPNSt3__112basic_stringIcNS2_11char_traitsIcEENS2_9allocatorIcEEEE"
  },
  {
   "name" : "_ZN9Demangler20AppendOperatorStringEPKc"
  },
  {
   "name" : "_ZN9Demangler20ParseComplexArgumentEPKc"
  },
  {
   "name" : "_ZN9Demangler20ParseTemplateLiteralEPKc"
  },
  {
   "name" : "_ZN9Demangler21ParseFunctionArgumentEPKc"
  },
  {
   "name" : "_ZN9Demangler22ParseTemplateArgumentsEPKc"
  },
  {
   "name" : "_ZN9Demangler24ParseArgumentsAtTopLevelEPKc"
  },
  {
   "name" : "_ZN9Demangler25ParseFunctionNameTemplateEPKc"
  },
  {
   "name" : "_ZN9Demangler29ParseTemplateArgumentsComplexEPKc"
  },
  {
   "name" : "_ZN9Demangler30ParseFunctionTemplateArgumentsEPKc"
  },
  {
   "name" : "_ZN9Demangler4SaveERKNSt3__112basic_stringIcNS0_11char_traitsIcEENS0_9allocatorIcEEEEb"
  },
  {
   "name" : "_ZN9Demangler5ParseEPKcj"
  },
  {
   "name" : "_ZN9Demangler6ParseSEPKc"
  },
  {
   "name" : "_ZN9Demangler6ParseTEPKc"
  },
  {
   "name" : "_ZNK11unwindstack10RemoteMaps11GetMapsFileEv"
  },
  {
   "name" : "_ZNK11unwindstack18LocalUpdatableMaps11GetMapsFileEv"
  },
  {
   "binding" : "weak",
   "name" : "_ZNSt3__112__deque_baseIN11unwindstack14DwarfLocationsENS_9allocatorIS2_EEE5clearEv"
  },
  {
   "binding" : "weak",
   "name" : "_ZNSt3__112__deque_baseIN9Demangler9StateDataENS_9allocatorIS2_EEE5clearEv"
  },
  {
   "binding" : "weak",
   "name" : "_ZNSt3__112__hash_tableINS_17__hash_value_typeINS_12basic_stringIcNS_11char_traitsIcEENS_9allocatorIcEEEENS_4pairINS_10shared_ptrIN11unwindstack3ElfEEEbEEEENS_22__unordered_map_hasherIS7_SE_NS_4hashIS7_EELb1EEENS_21__unordered_map_equalIS7_SE_NS_8equal_toIS7_EELb1EEENS5_ISE_EEE25__emplace_unique_key_argsIS7_JRKNS_21piecewise_construct_tENS_5tupleIJOS7_EEENST_IJEEEEEENS8_INS_15__hash_iteratorIPNS_11__hash_nodeISE_PvEEEEbEERKT_DpOT0_"
  },
  {
   "binding" : "weak",
   "name" : "_ZNSt3__112__hash_tableINS_17__hash_value_typeINS_12basic_stringIcNS_11char_traitsIcEENS_9allocatorIcEEEENS_4pairINS_10shared_ptrIN11unwindstack3ElfEEEbEEEENS_22__unordered_map_hasherIS7_SE_NS_4hashIS7_EELb1EEENS_21__unordered_map_equalIS7_SE_NS_8equal_toIS7_EELb1EEENS5_ISE_EEE25__emplace_unique_key_argsIS7_JRKNS_21piecewise_construct_tENS_5tupleIJRKS7_EEENST_IJEEEEEENS8_INS_15__hash_iteratorIPNS_11__hash_nodeISE_PvEEEEbEERKT_DpOT0_"
  },
  {
   "binding" : "weak",
   "name" : "_ZNSt3__112__hash_tableINS_17__hash_value_typeINS_12basic_stringIcNS_11char_traitsIcEENS_9allocatorIcEEEENS_4pairINS_10shared_ptrIN11unwindstack3ElfEEEbEEEENS_22__unordered_map_hasherIS7_SE_NS_4hashIS7_EELb1EEENS_21__unordered_map_equalIS7_SE_NS_8equal_toIS7_EELb1EEENS5_ISE_EEE4findIS7_EENS_15__hash_iteratorIPNS_11__hash_nodeISE_PvEEEERKT_"
  },
  {
   "binding" : "weak",
   "name" : "_ZNSt3__112__hash_tableINS_17__hash_value_typeINS_12basic_stringIcNS_11char_traitsIcEENS_9allocatorIcEEEENS_4pairINS_10shared_ptrIN11unwindstack3ElfEEEbEEEENS_22__unordered_map_hasherIS7_SE_NS_4hashIS7_EELb1EEENS_21__unordered_map_equalIS7_SE_NS_8equal_toIS7_EELb1EEENS5_ISE_EEE6rehashEj"
  },
  {
   "binding" : "weak",
   "name" : "_ZNSt3__112__hash_tableINS_17__hash_value_typeINS_12basic_stringIcNS_11char_traitsIcEENS_9allocatorIcEEEENS_4pairINS_10shared_ptrIN11unwindstack3ElfEEEbEEEENS_22__unordered_map_hasherIS7_SE_NS_4hashIS7_EELb1EEENS_21__unordered_map_equalIS7_SE_NS_8equal_toIS7_EELb1EEENS5_ISE_EEE8__rehashEj"
  },
  {
   "binding" : "weak",
   "name" : "_ZNSt3__112__hash_tableINS_17__hash_value_typeIjN11unwindstack13DwarfLocationEEENS_22__unordered_map_hasherIjS4_NS_4hashIjEELb1EEENS_21__unordered_map_equalIjS4_NS_8equal_toIjEELb1EEENS_9allocatorIS4_EEE14__assign_multiINS_21__hash_const_iteratorIPNS_11__hash_nodeIS4_PvEEEEEEvT_SN_"
  },
  {
   "binding" : "weak",
   "name" : "_ZNSt3__112__hash_tableINS_17__hash_value_typeIjN11unwindstack13DwarfLocationEEENS_22__unordered_map_hasherIjS4_NS_4hashIjEELb1EEENS_21__unordered_map_equalIjS4_NS_8equal_toIjEELb1EEENS_9allocatorIS4_EEE14__erase_uniqueIjEEjRKT_"
  },
  {
   "binding" : "weak",
   "name" : "_ZNSt3__112__hash_tableINS_17__hash_value_typeIjN11unwindstack13DwarfLocationEEENS_22__unordered_map_hasherIjS4_NS_4hashIjEELb1EEENS_21__unordered_map_equalIjS4_NS_8equal_toIjEELb1EEENS_9allocatorIS4_EEE25__emplace_unique_key_argsIjJRKNS_21piecewise_construct_tENS_5tupleIJOjEEENSK_IJEEEEEENS_4pairINS_15__hash_iteratorIPNS_11__hash_nodeIS4_PvEEEEbEERKT_DpOT0_"
  },
  {
   "binding" : "weak",
   "name" : "_ZNSt3__112__hash_tableINS_17__hash_value_typeIjN11unwindstack13DwarfLocationEEENS_22__unordered_map_hasherIjS4_NS_4hashIjEELb1EEENS_21__unordered_map_equalIjS4_NS_8equal_toIjEELb1EEENS_9allocatorIS4_EEE25__emplace_unique_key_argsIjJRKNS_21piecewise_construct_tENS_5tupleIJRKjEEENSK_IJEEEEEENS_4pairINS_15__hash_iteratorIPNS_11__hash_nodeIS4_PvEEEEbEERKT_DpOT0_"
  },
  {
   "binding" : "weak",
   "name" : "_ZNSt3__112__hash_tableINS_17__hash_value_typeIjN11unwindstack13DwarfLocationEEENS_22__unordered_map_hasherIjS4_NS_4hashIjEELb1EEENS_21__unordered_map_equalIjS4_NS_8equal_toIjEELb1EEENS_9allocatorIS4_EEE25__emplace_unique_key_argsIjJRKNS_4pairIKjS3_EEEEENSH_INS_15__hash_iteratorIPNS_11__hash_nodeIS4_PvEEEEbEERKT_DpOT0_"
  },
  {
   "binding" : "weak",
   "name" : "_ZNSt3__112__hash_tableINS_17__hash_value_typeIjN11unwindstack13DwarfLocationEEENS_22__unordered_map_hasherIjS4_NS_4hashIjEELb1EEENS_21__unordered_map_equalIjS4_NS_8equal_toIjEELb1EEENS_9allocatorIS4_EEE6rehashEj"
  },
  {
   "binding" : "weak",
   "name" : "_ZNSt3__112__hash_tableINS_17__hash_value_typeIjN11unwindstack13DwarfLocationEEENS_22__unordered_map_hasherIjS4_NS_4hashIjEELb1EEENS_21__unordered_map_equalIjS4_NS_8equal_toIjEELb1EEENS_9allocatorIS4_EEE6removeENS_21__hash_const_iteratorIPNS_11__hash_nodeIS4_PvEEEE"
  },
  {
   "binding" : "weak",
   "name" : "_ZNSt3__112__hash_tableINS_17__hash_value_typeIjN11unwindstack13DwarfLocationEEENS_22__unordered_map_hasherIjS4_NS_4hashIjEELb1EEENS_21__unordered_map_equalIjS4_NS_8equal_toIjEELb1EEENS_9allocatorIS4_EEE8__rehashEj"
  },
  {
   "binding" : "weak",
   "name" : "_ZNSt3__112__hash_tableINS_17__hash_value_typeIjjEENS_22__unordered_map_hasherIjS2_NS_4hashIjEELb1EEENS_21__unordered_map_equalIjS2_NS_8equal_toIjEELb1EEENS_9allocatorIS2_EEE25__emplace_unique_key_argsIjJRKNS_21piecewise_construct_tENS_5tupleIJRKjEEENSI_IJEEEEEENS_4pairINS_15__hash_iteratorIPNS_11__hash_nodeIS2_PvEEEEbEERKT_DpOT0_"
  },
  {
   "binding" : "weak",
   "name" : "_ZNSt3__112__hash_tableINS_17__hash_value_typeIjjEENS_22__unordered_map_hasherIjS2_NS_4hashIjEELb1EEENS_21__unordered_map_equalIjS2_NS_8equal_toIjEELb1EEENS_9allocatorIS2_EEE6rehashEj"
  },
  {
   "binding" : "weak",
   "name" : "_ZNSt3__112__hash_tableINS_17__hash_value_typeIjjEENS_22__unordered_map_hasherIjS2_NS_4hashIjEELb1EEENS_21__unordered_map_equalIjS2_NS_8equal_toIjEELb1EEENS_9allocatorIS2_EEE8__rehashEj"
  },
  {
   "binding" : "weak",
   "name" : "_ZNSt3__112__hash_tableINS_17__hash_value_typeIyA4096_hEENS_22__unordered_map_hasherIyS3_NS_4hashIyEELb1EEENS_21__unordered_map_equalIyS3_NS_8equal_toIyEELb1EEENS_9allocatorIS3_EEE25__emplace_unique_key_argsIyJRKNS_21piecewise_construct_tENS_5tupleIJRKyEEENSJ_IJEEEEEENS_4pairINS_15__hash_iteratorIPNS_11__hash_nodeIS3_PvEEEEbEERKT_DpOT0_"
  },
  {
   "binding" : "weak",
   "name" : "_ZNSt3__112__hash_tableINS_17__hash_value_typeIyA4096_hEENS_22__unordered_map_hasherIyS3_NS_4hashIyEELb1EEENS_21__unordered_map_equalIyS3_NS_8equal_toIyEELb1EEENS_9allocatorIS3_EEE6rehashEj"
  },
  {
   "binding" : "weak",
   "name" : "_ZNSt3__112__hash_tableINS_17__hash_value_typeIyA4096_hEENS_22__unordered_map_hasherIyS3_NS_4hashIyEELb1EEENS_21__unordered_map_equalIyS3_NS_8equal_toIyEELb1EEENS_9allocatorIS3_EEE6removeENS_21__hash_const_iteratorIPNS_11__hash_nodeIS3_PvEEEE"
  },
  {
   "binding" : "weak",
   "name" : "_ZNSt3__112__hash_tableINS_17__hash_value_typeIyA4096_hEENS_22__unordered_map_hasherIyS3_NS_4hashIyEELb1EEENS_21__unordered_map_equalIyS3_NS_8equal_toIyEELb1EEENS_9allocatorIS3_EEE8__rehashEj"
  },
  {
   "binding" : "weak",
   "name" : "_ZNSt3__112__hash_tableINS_17__hash_value_typeIyN11unwindstack14DwarfLocationsEEENS_22__unordered_map_hasherIyS4_NS_4hashIyEELb1EEENS_21__unordered_map_equalIyS4_NS_8equal_toIyEELb1EEENS_9allocatorIS4_EEE25__emplace_unique_key_argsIyJRKNS_21piecewise_construct_tENS_5tupleIJRKyEEENSK_IJEEEEEENS_4pairINS_15__hash_iteratorIPNS_11__hash_nodeIS4_PvEEEEbEERKT_DpOT0_"
  },
  {
   "binding" : "weak",
   "name" : "_ZNSt3__112__hash_tableINS_17__hash_value_typeIyN11unwindstack14DwarfLocationsEEENS_22__unordered_map_hasherIyS4_NS_4hashIyEELb1EEENS_21__unordered_map_equalIyS4_NS_8equal_toIyEELb1EEENS_9allocatorIS4_EEE6rehashEj"
  },
  {
   "binding" : "weak",
   "name" : "_ZNSt3__112__hash_tableINS_17__hash_value_typeIyN11unwindstack14DwarfLocationsEEENS_22__unordered_map_hasherIyS4_NS_4hashIyEELb1EEENS_21__unordered_map_equalIyS4_NS_8equal_toIyEELb1EEENS_9allocatorIS4_EEE8__rehashEj"
  },
  {
   "binding" : "weak",
   "name" : "_ZNSt3__112__hash_tableINS_17__hash_value_typeIyN11unwindstack19DwarfEhFrameWithHdrIjE7FdeInfoEEENS_22__unordered_map_hasherIyS6_NS_4hashIyEELb1EEENS_21__unordered_map_equalIyS6_NS_8equal_toIyEELb1EEENS_9allocatorIS6_EEE25__emplace_unique_key_argsIyJRKNS_21piecewise_construct_tENS_5tupleIJOyEEENSM_IJEEEEEENS_4pairINS_15__hash_iteratorIPNS_11__hash_nodeIS6_PvEEEEbEERKT_DpOT0_"
  },
  {
   "binding" : "weak",
   "name" : "_ZNSt3__112__hash_tableINS_17__hash_value_typeIyN11unwindstack19DwarfEhFrameWithHdrIjE7FdeInfoEEENS_22__unordered_map_hasherIyS6_NS_4hashIyEELb1EEENS_21__unordered_map_equalIyS6_NS_8equal_toIyEELb1EEENS_9allocatorIS6_EEE6rehashEj"
  },
  {
   "binding" : "weak",
   "name" : "_ZNSt3__112__hash_tableINS_17__hash_value_typeIyN11unwindstack19DwarfEhFrameWithHdrIjE7FdeInfoEEENS_22__unordered_map_hasherIyS6_NS_4hashIyEELb1EEENS_21__unordered_map_equalIyS6_NS_8equal_toIyEELb1EEENS_9allocatorIS6_EEE6removeENS_21__hash_const_iteratorIPNS_11__hash_nodeIS6_PvEEEE"
  },
  {
   "binding" : "weak",
   "name" : "_ZNSt3__112__hash_tableINS_17__hash_value_typeIyN11unwindstack19DwarfEhFrameWithHdrIjE7FdeInfoEEENS_22__unordered_map_hasherIyS6_NS_4hashIyEELb1EEENS_21__unordered_map_equalIyS6_NS_8equal_toIyEELb1EEENS_9allocatorIS6_EEE8__rehashEj"
  },
  {
   "binding" : "weak",
   "name" : "_ZNSt3__112__hash_tableINS_17__hash_value_typeIyN11unwindstack19DwarfEhFrameWithHdrIyE7FdeInfoEEENS_22__unordered_map_hasherIyS6_NS_4hashIyEELb1EEENS_21__unordered_map_equalIyS6_NS_8equal_toIyEELb1EEENS_9allocatorIS6_EEE25__emplace_unique_key_argsIyJRKNS_21piecewise_construct_tENS_5tupleIJOyEEENSM_IJEEEEEENS_4pairINS_15__hash_iteratorIPNS_11__hash_nodeIS6_PvEEEEbEERKT_DpOT0_"
  },
  {
   "binding" : "weak",
   "name" : "_ZNSt3__112__hash_tableINS_17__hash_value_typeIyN11unwindstack19DwarfEhFrameWithHdrIyE7FdeInfoEEENS_22__unordered_map_hasherIyS6_NS_4hashIyEELb1EEENS_21__unordered_map_equalIyS6_NS_8equal_toIyEELb1EEENS_9allocatorIS6_EEE6rehashEj"
  },
  {
   "binding" : "weak",
   "name" : "_ZNSt3__112__hash_tableINS_17__hash_value_typeIyN11unwindstack19DwarfEhFrameWithHdrIyE7FdeInfoEEENS_22__unordered_map_hasherIyS6_NS_4hashIyEELb1EEENS_21__unordered_map_equalIyS6_NS_8equal_toIyEELb1EEENS_9allocatorIS6_EEE6removeENS_21__hash_const_iteratorIPNS_11__hash_nodeIS6_PvEEEE"
  },
  {
   "binding" : "weak",
   "name" : "_ZNSt3__112__hash_tableINS_17__hash_value_typeIyN11unwindstack19DwarfEhFrameWithHdrIyE7FdeInfoEEENS_22__unordered_map_hasherIyS6_NS_4hashIyEELb1EEENS_21__unordered_map_equalIyS6_NS_8equal_toIyEELb1EEENS_9allocatorIS6_EEE8__rehashEj"
  },
  {
   "binding" : "weak",
   "name" : "_ZNSt3__112__hash_tableINS_17__hash_value_typeIyN11unwindstack8DwarfCieEEENS_22__unordered_map_hasherIyS4_NS_4hashIyEELb1EEENS_21__unordered_map_equalIyS4_NS_8equal_toIyEELb1EEENS_9allocatorIS4_EEE14__erase_uniqueIyEEjRKT_"
  },
  {
   "binding" : "weak",
   "name" : "_ZNSt3__112__hash_tableINS_17__hash_value_typeIyN11unwindstack8DwarfCieEEENS_22__unordered_map_hasherIyS4_NS_4hashIyEELb1EEENS_21__unordered_map_equalIyS4_NS_8equal_toIyEELb1EEENS_9allocatorIS4_EEE25__emplace_unique_key_argsIyJRKNS_21piecewise_construct_tENS_5tupleIJRKyEEENSK_IJEEEEEENS_4pairINS_15__hash_iteratorIPNS_11__hash_nodeIS4_PvEEEEbEERKT_DpOT0_"
  },
  {
   "binding" : "weak",
   "name" : "_ZNSt3__112__hash_tableINS_17__hash_value_typeIyN11unwindstack8DwarfCieEEENS_22__unordered_map_hasherIyS4_NS_4hashIyEELb1EEENS_21__unordered_map_equalIyS4_NS_8equal_toIyEELb1EEENS_9allocatorIS4_EEE6rehashEj"
  },
  {
   "binding" : "weak",
   "name" : "_ZNSt3__112__hash_tableINS_17__hash_value_typeIyN11unwindstack8DwarfCieEEENS_22__unordered_map_hasherIyS4_NS_4hashIyEELb1EEENS_21__unordered_map_equalIyS4_NS_8equal_toIyEELb1EEENS_9allocatorIS4_EEE6removeENS_21__hash_const_iteratorIPNS_11__hash_nodeIS4_PvEEEE"
  },
  {
   "binding" : "weak",
   "name" : "_ZNSt3__112__hash_tableINS_17__hash_value_typeIyN11unwindstack8DwarfCieEEENS_22__unordered_map_hasherIyS4_NS_4hashIyEELb1EEENS_21__unordered_map_equalIyS4_NS_8equal_toIyEELb1EEENS_9allocatorIS4_EEE8__rehashEj"
  },
  {
   "binding" : "weak",
   "name" : "_ZNSt3__112__hash_tableINS_17__hash_value_typeIyN11unwindstack8DwarfFdeEEENS_22__unordered_map_hasherIyS4_NS_4hashIyEELb1EEENS_21__unordered_map_equalIyS4_NS_8equal_toIyEELb1EEENS_9allocatorIS4_EEE25__emplace_unique_key_argsIyJRKNS_21piecewise_construct_tENS_5tupleIJRKyEEENSK_IJEEEEEENS_4pairINS_15__hash_iteratorIPNS_11__hash_nodeIS4_PvEEEEbEERKT_DpOT0_"
  },
  {
   "binding" : "weak",
   "name" : "_ZNSt3__112__hash_tableINS_17__hash_value_typeIyN11unwindstack8DwarfFdeEEENS_22__unordered_map_hasherIyS4_NS_4hashIyEELb1EEENS_21__unordered_map_equalIyS4_NS_8equal_toIyEELb1EEENS_9allocatorIS4_EEE6rehashEj"
  },
  {
   "binding" : "weak",
   "name" : "_ZNSt3__112__hash_tableINS_17__hash_value_typeIyN11unwindstack8DwarfFdeEEENS_22__unordered_map_hasherIyS4_NS_4hashIyEELb1EEENS_21__unordered_map_equalIyS4_NS_8equal_toIyEELb1EEENS_9allocatorIS4_EEE6removeENS_21__hash_const_iteratorIPNS_11__hash_nodeIS4_PvEEEE"
  },
  {
   "binding" : "weak",
   "name" : "_ZNSt3__112__hash_tableINS_17__hash_value_typeIyN11unwindstack8DwarfFdeEEENS_22__unordered_map_hasherIyS4_NS_4hashIyEELb1EEENS_21__unordered_map_equalIyS4_NS_8equal_toIyEELb1EEENS_9allocatorIS4_EEE8__rehashEj"
  },
  {
   "binding" : "weak",
   "name" : "_ZNSt3__112__hash_tableINS_17__hash_value_typeIyN11unwindstack8LoadInfoEEENS_22__unordered_map_hasherIyS4_NS_4hashIyEELb1EEENS_21__unordered_map_equalIyS4_NS_8equal_toIyEELb1EEENS_9allocatorIS4_EEE25__emplace_unique_key_argsIyJRKNS_21piecewise_construct_tENS_5tupleIJOyEEENSK_IJEEEEEENS_4pairINS_15__hash_iteratorIPNS_11__hash_nodeIS4_PvEEEEbEERKT_DpOT0_"
  },
  {
   "binding" : "weak",
   "name" : "_ZNSt3__112__hash_tableINS_17__hash_value_typeIyN11unwindstack8LoadInfoEEENS_22__unordered_map_hasherIyS4_NS_4hashIyEELb1EEENS_21__unordered_map_equalIyS4_NS_8equal_toIyEELb1EEENS_9allocatorIS4_EEE25__emplace_unique_key_argsIyJRKNS_21piecewise_construct_tENS_5tupleIJRKyEEENSK_IJEEEEEENS_4pairINS_15__hash_iteratorIPNS_11__hash_nodeIS4_PvEEEEbEERKT_DpOT0_"
  },
  {
   "binding" : "weak",
   "name" : "_ZNSt3__112__hash_tableINS_17__hash_value_typeIyN11unwindstack8LoadInfoEEENS_22__unordered_map_hasherIyS4_NS_4hashIyEELb1EEENS_21__unordered_map_equalIyS4_NS_8equal_toIyEELb1EEENS_9allocatorIS4_EEE6rehashEj"
  },
  {
   "binding" : "weak",
   "name" : "_ZNSt3__112__hash_tableINS_17__hash_value_typeIyN11unwindstack8LoadInfoEEENS_22__unordered_map_hasherIyS4_NS_4hashIyEELb1EEENS_21__unordered_map_equalIyS4_NS_8equal_toIyEELb1EEENS_9allocatorIS4_EEE8__rehashEj"
  },
  {
   "binding" : "weak",
   "name" : "_ZNSt3__114__split_bufferIPN11unwindstack14DwarfLocationsENS_9allocatorIS3_EEE10push_frontEOS3_"
  },
  {
   "binding" : "weak",
   "name" : "_ZNSt3__114__split_bufferIPN11unwindstack14DwarfLocationsENS_9allocatorIS3_EEE9push_backEOS3_"
  },
  {
   "binding" : "weak",
   "name" : "_ZNSt3__114__split_bufferIPN11unwindstack14DwarfLocationsERNS_9allocatorIS3_EEE10push_frontERKS3_"
  },
  {
   "binding" : "weak",
   "name" : "_ZNSt3__114__split_bufferIPN11unwindstack14DwarfLocationsERNS_9allocatorIS3_EEE9push_backEOS3_"
  },
  {
   "binding" : "weak",
   "name" : "_ZNSt3__114__split_bufferIPN9Demangler9StateDataENS_9allocatorIS3_EEE10push_frontEOS3_"
  },
  {
   "binding" : "weak",
   "name" : "_ZNSt3__114__split_bufferIPN9Demangler9StateDataENS_9allocatorIS3_EEE9push_backEOS3_"
  },
  {
   "binding" : "weak",
   "name" : "_ZNSt3__114__split_bufferIPN9Demangler9StateDataERNS_9allocatorIS3_EEE10push_frontERKS3_"
  },
  {
   "binding" : "weak",
   "name" : "_ZNSt3__114__split_bufferIPN9Demangler9StateDataERNS_9allocatorIS3_EEE9push_backEOS3_"
  },
  {
   "binding" : "weak",
   "name" : "_ZNSt3__114__split_bufferIPhNS_9allocatorIS1_EEE10push_frontEOS1_"
  },
  {
   "binding" : "weak",
   "name" : "_ZNSt3__114__split_bufferIPhNS_9allocatorIS1_EEE9push_backEOS1_"
  },
  {
   "binding" : "weak",
   "name" : "_ZNSt3__114__split_bufferIPhRNS_9allocatorIS1_EEE10push_frontERKS1_"
  },
  {
   "binding" : "weak",
   "name" : "_ZNSt3__114__split_bufferIPhRNS_9allocatorIS1_EEE9push_backEOS1_"
  },
  {
   "binding" : "weak",
   "name" : "_ZNSt3__114__split_bufferIPjNS_9allocatorIS1_EEE10push_frontEOS1_"
  },
  {
   "binding" : "weak",
   "name" : "_ZNSt3__114__split_bufferIPjNS_9allocatorIS1_EEE10push_frontERKS1_"
  },
  {
   "binding" : "weak",
   "name" : "_ZNSt3__114__split_bufferIPjNS_9allocatorIS1_EEE9push_backEOS1_"
  },
  {
   "binding" : "weak",
   "name" : "_ZNSt3__114__split_bufferIPjRNS_9allocatorIS1_EEE9push_backEOS1_"
  },
  {
   "binding" : "weak",
   "name" : "_ZNSt3__114__split_bufferIPyNS_9allocatorIS1_EEE10push_frontEOS1_"
  },
  {
   "binding" : "weak",
   "name" : "_ZNSt3__114__split_bufferIPyNS_9allocatorIS1_EEE10push_frontERKS1_"
  },
  {
   "binding" : "weak",
   "name" : "_ZNSt3__114__split_bufferIPyNS_9allocatorIS1_EEE9push_backEOS1_"
  },
  {
   "binding" : "weak",
   "name" : "_ZNSt3__114__split_bufferIPyRNS_9allocatorIS1_EEE9push_backEOS1_"
  },
  {
   "binding" : "weak",
   "name" : "_ZNSt3__120__shared_ptr_emplaceIN11unwindstack18MemoryFileAtOffsetENS_9allocatorIS2_EEE16__on_zero_sharedEv"
  },
  {
   "binding" : "weak",
   "name" : "_ZNSt3__120__shared_ptr_emplaceIN11unwindstack18MemoryFileAtOffsetENS_9allocatorIS2_EEE21__on_zero_shared_weakEv"
  },
  {
   "binding" : "weak",
   "name" : "_ZNSt3__120__shared_ptr_pointerIPN11unwindstack11MemoryCacheENS_14default_deleteIS2_EENS_9allocatorIS2_EEE16__on_zero_sharedEv"
  },
  {
   "binding" : "weak",
   "name" : "_ZNSt3__120__shared_ptr_pointerIPN11unwindstack11MemoryCacheENS_14default_deleteIS2_EENS_9allocatorIS2_EEE21__on_zero_shared_weakEv"
  },
  {
   "binding" : "weak",
   "name" : "_ZNSt3__120__shared_ptr_pointerIPN11unwindstack11MemoryLocalENS_14default_deleteIS2_EENS_9allocatorIS2_EEE16__on_zero_sharedEv"
  },
  {
   "binding" : "weak",
   "name" : "_ZNSt3__120__shared_ptr_pointerIPN11unwindstack11MemoryLocalENS_14default_deleteIS2_EENS_9allocatorIS2_EEE21__on_zero_shared_weakEv"
  },
  {
   "binding" : "weak",
   "name" : "_ZNSt3__120__shared_ptr_pointerIPN11unwindstack12MemoryRemoteENS_14default_deleteIS2_EENS_9allocatorIS2_EEE16__on_zero_sharedEv"
  },
  {
   "binding" : "weak",
   "name" : "_ZNSt3__120__shared_ptr_pointerIPN11unwindstack12MemoryRemoteENS_14default_deleteIS2_EENS_9allocatorIS2_EEE21__on_zero_shared_weakEv"
  },
  {
   "binding" : "weak",
   "name" : "_ZNSt3__120__shared_ptr_pointerIPN11unwindstack3ElfENS_14default_deleteIS2_EENS_9allocatorIS2_EEE16__on_zero_sharedEv"
  },
  {
   "binding" : "weak",
   "name" : "_ZNSt3__120__shared_ptr_pointerIPN11unwindstack3ElfENS_14default_deleteIS2_EENS_9allocatorIS2_EEE21__on_zero_shared_weakEv"
  },
  {
   "binding" : "weak",
   "name" : "_ZNSt3__127__insertion_sort_incompleteIRZN11unwindstack7Symbols7GetNameI9elf32_symEEbyPNS1_6MemoryEPNS_12basic_stringIcNS_11char_traitsIcEENS_9allocatorIcEEEEPyEUlRKNS2_4InfoESH_E_PSF_EEbT0_SL_T_"
  },
  {
   "binding" : "weak",
   "name" : "_ZNSt3__127__insertion_sort_incompleteIRZN11unwindstack7Symbols7GetNameI9elf64_symEEbyPNS1_6MemoryEPNS_12basic_stringIcNS_11char_traitsIcEENS_9allocatorIcEEEEPyEUlRKNS2_4InfoESH_E_PSF_EEbT0_SL_T_"
  },
  {
   "binding" : "weak",
   "name" : "_ZNSt3__127__tree_balance_after_insertIPNS_16__tree_node_baseIPvEEEEvT_S5_"
  },
  {
   "binding" : "weak",
   "name" : "_ZNSt3__15dequeIN11unwindstack14DwarfLocationsENS_9allocatorIS2_EEE19__add_back_capacityEv"
  },
  {
   "binding" : "weak",
   "name" : "_ZNSt3__15dequeIN11unwindstack14DwarfLocationsENS_9allocatorIS2_EEE8pop_backEv"
  },
  {
   "binding" : "weak",
   "name" : "_ZNSt3__15dequeIN11unwindstack14DwarfLocationsENS_9allocatorIS2_EEE9push_backERKS2_"
  },
  {
   "binding" : "weak",
   "name" : "_ZNSt3__15dequeIN9Demangler9StateDataENS_9allocatorIS2_EEE19__add_back_capacityEv"
  },
  {
   "binding" : "weak",
   "name" : "_ZNSt3__15dequeIhNS_9allocatorIhEEE19__add_back_capacityEv"
  },
  {
   "binding" : "weak",
   "name" : "_ZNSt3__15dequeIjNS_9allocatorIjEEE20__add_front_capacityEv"
  },
  {
   "binding" : "weak",
   "name" : "_ZNSt3__15dequeIyNS_9allocatorIyEEE20__add_front_capacityEv"
  },
  {
   "binding" : "weak",
   "name" : "_ZNSt3__16__sortIRZN11unwindstack7Symbols7GetNameI9elf32_symEEbyPNS1_6MemoryEPNS_12basic_stringIcNS_11char_traitsIcEENS_9allocatorIcEEEEPyEUlRKNS2_4InfoESH_E_PSF_EEvT0_SL_T_"
  },
  {
   "binding" : "weak",
   "name" : "_ZNSt3__16__sortIRZN11unwindstack7Symbols7GetNameI9elf64_symEEbyPNS1_6MemoryEPNS_12basic_stringIcNS_11char_traitsIcEENS_9allocatorIcEEEEPyEUlRKNS2_4InfoESH_E_PSF_EEvT0_SL_T_"
  },
  {
   "binding" : "weak",
   "name" : "_ZNSt3__16__treeINS_12__value_typeIhiEENS_19__map_value_compareIhS2_NS_4lessIhEELb1EEENS_9allocatorIS2_EEE7destroyEPNS_11__tree_nodeIS2_PvEE"
  },
  {
   "binding" : "weak",
   "name" : "_ZNSt3__16__treeINS_12__value_typeIyN11unwindstack14DwarfLocationsEEENS_19__map_value_compareIyS4_NS_4lessIyEELb1EEENS_9allocatorIS4_EEE25__emplace_unique_key_argsIyJRyS3_EEENS_4pairINS_15__tree_iteratorIS4_PNS_11__tree_nodeIS4_PvEEiEEbEERKT_DpOT0_"
  },
  {
   "binding" : "weak",
   "name" : "_ZNSt3__16__treeINS_12__value_typeIyN11unwindstack14DwarfLocationsEEENS_19__map_value_compareIyS4_NS_4lessIyEELb1EEENS_9allocatorIS4_EEE7destroyEPNS_11__tree_nodeIS4_PvEE"
  },
  {
   "binding" : "weak",
   "name" : "_ZNSt3__16__treeINS_12__value_typeIyNS_10unique_ptrIN11unwindstack11MemoryRangeENS_14default_deleteIS4_EEEEEENS_19__map_value_compareIyS8_NS_4lessIyEELb1EEENS_9allocatorIS8_EEE7destroyEPNS_11__tree_nodeIS8_PvEE"
  },
  {
   "binding" : "weak",
   "name" : "_ZNSt3__16__treeINS_12__value_typeIyNS_4pairIyPKN11unwindstack8DwarfFdeEEEEENS_19__map_value_compareIyS8_NS_4lessIyEELb1EEENS_9allocatorIS8_EEE7destroyEPNS_11__tree_nodeIS8_PvEE"
  },
  {
   "binding" : "weak",
   "name" : "_ZNSt3__16vectorIM9DemanglerFPKcS3_ENS_9allocatorIS5_EEE21__push_back_slow_pathIRKS5_EEvOT_"
  },
  {
   "binding" : "weak",
   "name" : "_ZNSt3__16vectorIM9DemanglerFPKcS3_ENS_9allocatorIS5_EEE21__push_back_slow_pathIS5_EEvOT_"
  },
  {
   "binding" : "weak",
   "name" : "_ZNSt3__16vectorIN11unwindstack14LocalFrameDataENS_9allocatorIS2_EEE24__emplace_back_slow_pathIJRPNS1_7MapInfoEyyRA1_KciEEEvDpOT_"
  },
  {
   "binding" : "weak",
   "name" : "_ZNSt3__16vectorIN11unwindstack14LocalFrameDataENS_9allocatorIS2_EEE24__emplace_back_slow_pathIJRPNS1_7MapInfoEyyRNS_12basic_stringIcNS_11char_traitsIcEENS3_IcEEEERyEEEvDpOT_"
  },
  {
   "binding" : "weak",
   "name" : "_ZNSt3__16vectorIN11unwindstack7Symbols4InfoENS_9allocatorIS3_EEE24__emplace_back_slow_pathIJRyS8_yEEEvDpOT_"
  },
  {
   "binding" : "weak",
   "name" : "_ZNSt3__16vectorIN11unwindstack9FrameDataENS_9allocatorIS2_EEE8__appendEj"
  },
  {
   "binding" : "weak",
   "name" : "_ZNSt3__16vectorINS_10unique_ptrIN11unwindstack7MapInfoENS_14default_deleteIS3_EEEENS_9allocatorIS6_EEE24__emplace_back_slow_pathIJPS3_EEEvDpOT_"
  },
  {
   "binding" : "weak",
   "name" : "_ZNSt3__16vectorINS_10unique_ptrIN11unwindstack7MapInfoENS_14default_deleteIS3_EEEENS_9allocatorIS6_EEE24__emplace_back_slow_pathIJS6_EEEvDpOT_"
  },
  {
   "binding" : "weak",
   "name" : "_ZNSt3__16vectorINS_10unique_ptrIN11unwindstack7MapInfoENS_14default_deleteIS3_EEEENS_9allocatorIS6_EEE8__appendEj"
  },
  {
   "binding" : "weak",
   "name" : "_ZNSt3__16vectorINS_12basic_stringIcNS_11char_traitsIcEENS_9allocatorIcEEEENS4_IS6_EEE21__push_back_slow_pathIRKS6_EEvOT_"
  },
  {
   "binding" : "weak",
   "name" : "_ZNSt3__16vectorINS_12basic_stringIcNS_11char_traitsIcEENS_9allocatorIcEEEENS4_IS6_EEE21__push_back_slow_pathIS6_EEvOT_"
  },
  {
   "binding" : "weak",
   "name" : "_ZNSt3__16vectorINS_12basic_stringIcNS_11char_traitsIcEENS_9allocatorIcEEEENS4_IS6_EEE24__emplace_back_slow_pathIJS6_EEEvDpOT_"
  },
  {
   "binding" : "weak",
   "name" : "_ZNSt3__16vectorINS_12basic_stringIcNS_11char_traitsIcEENS_9allocatorIcEEEENS4_IS6_EEE6assignIPS6_EENS_9enable_ifIXaasr21__is_forward_iteratorIT_EE5valuesr16is_constructibleIS6_NS_15iterator_traitsISC_E9referenceEEE5valueEvE4typeESC_SC_"
  },
  {
   "binding" : "weak",
   "name" : "_ZNSt3__16vectorINS_4pairIyyEENS_9allocatorIS2_EEE21__push_back_slow_pathIS2_EEvOT_"
  },
  {
   "binding" : "weak",
   "name" : "_ZNSt3__16vectorIPKN11unwindstack8DwarfFdeENS_9allocatorIS4_EEE21__push_back_slow_pathIRKS4_EEvOT_"
  },
  {
   "binding" : "weak",
   "name" : "_ZNSt3__16vectorIPKN11unwindstack8DwarfFdeENS_9allocatorIS4_EEE21__push_back_slow_pathIS4_EEvOT_"
  },
  {
   "binding" : "weak",
   "name" : "_ZNSt3__16vectorIPN11unwindstack3ElfENS_9allocatorIS3_EEE21__push_back_slow_pathIRKS3_EEvOT_"
  },
  {
   "binding" : "weak",
   "name" : "_ZNSt3__16vectorIPN11unwindstack7SymbolsENS_9allocatorIS3_EEE21__push_back_slow_pathIS3_EEvOT_"
  },
  {
   "binding" : "weak",
   "name" : "_ZNSt3__16vectorIcNS_9allocatorIcEEE21__push_back_slow_pathIRKcEEvOT_"
  },
  {
   "binding" : "weak",
   "name" : "_ZNSt3__16vectorIhNS_9allocatorIhEEE8__appendEj"
  },
  {
   "binding" : "weak",
   "name" : "_ZNSt3__16vectorIjNS_9allocatorIjEEE21__push_back_slow_pathIjEEvOT_"
  },
  {
   "binding" : "weak",
   "name" : "_ZNSt3__16vectorIyNS_9allocatorIyEEE21__push_back_slow_pathIRKyEEvOT_"
  },
  {
   "binding" : "weak",
   "name" : "_ZNSt3__17__sort4IRZN11unwindstack7Symbols7GetNameI9elf32_symEEbyPNS1_6MemoryEPNS_12basic_stringIcNS_11char_traitsIcEENS_9allocatorIcEEEEPyEUlRKNS2_4InfoESH_E_PSF_EEjT0_SL_SL_SL_T_"
  },
  {
   "binding" : "weak",
   "name" : "_ZNSt3__17__sort4IRZN11unwindstack7Symbols7GetNameI9elf64_symEEbyPNS1_6MemoryEPNS_12basic_stringIcNS_11char_traitsIcEENS_9allocatorIcEEEEPyEUlRKNS2_4InfoESH_E_PSF_EEjT0_SL_SL_SL_T_"
  },
  {
   "binding" : "weak",
   "name" : "_ZNSt3__1plIcNS_11char_traitsIcEENS_9allocatorIcEEEENS_12basic_stringIT_T0_T1_EERKS9_S6_"
  },
  {
   "binding" : "weak",
   "name" : "_ZNSt3__1plIcNS_11char_traitsIcEENS_9allocatorIcEEEENS_12basic_stringIT_T0_T1_EERKS9_SB_"
  },
  {
   "binding" : "weak",
   "name" : "_ZNSt3__1plIcNS_11char_traitsIcEENS_9allocatorIcEEEENS_12basic_stringIT_T0_T1_EES6_RKS9_"
  },
  {
   "name" : "__aeabi_ldivmod"
  },
  {
   "name" : "__aeabi_memclr"
  },
  {
   "name" : "__aeabi_memclr4"
  },
  {
   "name" : "__aeabi_memclr8"
  },
  {
   "name" : "__aeabi_memcpy"
  },
  {
   "name" : "__aeabi_memcpy4"
  },
  {
   "name" : "__aeabi_memcpy8"
  },
  {
   "name" : "__aeabi_memmove"
  },
  {
   "name" : "__aeabi_memmove4"
  },
  {
   "name" : "__aeabi_memmove8"
  },
  {
   "name" : "__aeabi_memset"
  },
  {
   "name" : "__aeabi_memset4"
  },
  {
   "name" : "__aeabi_memset8"
  },
  {
   "name" : "__aeabi_uidiv"
  },
  {
   "name" : "__aeabi_uidivmod"
  },
  {
   "name" : "__aeabi_uldivmod"
  },
  {
   "name" : "__divdi3"
  },
  {
   "name" : "__divmoddi4"
  },
  {
   "name" : "__udivmoddi4"
  },
  {
   "name" : "__udivmodsi4"
  },
  {
   "name" : "__udivsi3"
  }
 ],
 "elf_objects" :
 [
  {
   "name" : "_ZN11unwindstack12DwarfCfaInfo6kTableE"
  },
  {
   "name" : "_ZN11unwindstack3Elf11cache_lock_E"
  },
  {
   "name" : "_ZN11unwindstack3Elf14cache_enabled_E"
  },
  {
   "name" : "_ZN11unwindstack3Elf6cache_E"
  },
  {
   "binding" : "weak",
   "name" : "_ZN11unwindstack7DwarfOpIjE17kOpHandleFuncListE"
  },
  {
   "binding" : "weak",
   "name" : "_ZN11unwindstack7DwarfOpIyE17kOpHandleFuncListE"
  },
  {
   "binding" : "weak",
   "name" : "_ZN11unwindstack8DwarfCfaIjE14kCallbackTableE"
  },
  {
   "binding" : "weak",
   "name" : "_ZN11unwindstack8DwarfCfaIyE14kCallbackTableE"
  },
  {
   "binding" : "weak",
   "name" : "_ZN9Demangler6kTypesE"
  },
  {
   "binding" : "weak",
   "name" : "_ZN9Demangler7kDTypesE"
  },
  {
   "binding" : "weak",
   "name" : "_ZN9Demangler7kSTypesE"
  },
  {
   "name" : "_ZTVN11unwindstack10BufferMapsE"
  },
  {
   "name" : "_ZTVN11unwindstack10RegsMips64E"
  },
  {
   "name" : "_ZTVN11unwindstack10RegsX86_64E"
  },
  {
   "name" : "_ZTVN11unwindstack10RemoteMapsE"
  },
  {
   "binding" : "weak",
   "name" : "_ZTVN11unwindstack11DwarfMemoryE"
  },
  {
   "name" : "_ZTVN11unwindstack11MemoryCacheE"
  },
  {
   "name" : "_ZTVN11unwindstack11MemoryLocalE"
  },
  {
   "name" : "_ZTVN11unwindstack11MemoryRangeE"
  },
  {
   "binding" : "weak",
   "name" : "_ZTVN11unwindstack12DwarfEhFrameIjEE"
  },
  {
   "binding" : "weak",
   "name" : "_ZTVN11unwindstack12DwarfEhFrameIyEE"
  },
  {
   "binding" : "weak",
   "name" : "_ZTVN11unwindstack12DwarfSectionE"
  },
  {
   "name" : "_ZTVN11unwindstack12ElfInterfaceE"
  },
  {
   "name" : "_ZTVN11unwindstack12MemoryBufferE"
  },
  {
   "name" : "_ZTVN11unwindstack12MemoryRangesE"
  },
  {
   "name" : "_ZTVN11unwindstack12MemoryRemoteE"
  },
  {
   "name" : "_ZTVN11unwindstack13MemoryOfflineE"
  },
  {
   "binding" : "weak",
   "name" : "_ZTVN11unwindstack14ElfInterface32E"
  },
  {
   "binding" : "weak",
   "name" : "_ZTVN11unwindstack14ElfInterface64E"
  },
  {
   "binding" : "weak",
   "name" : "_ZTVN11unwindstack15DwarfDebugFrameIjEE"
  },
  {
   "binding" : "weak",
   "name" : "_ZTVN11unwindstack15DwarfDebugFrameIyEE"
  },
  {
   "name" : "_ZTVN11unwindstack15ElfInterfaceArmE"
  },
  {
   "binding" : "weak",
   "name" : "_ZTVN11unwindstack16DwarfSectionImplIjEE"
  },
  {
   "binding" : "weak",
   "name" : "_ZTVN11unwindstack16DwarfSectionImplIyEE"
  },
  {
   "name" : "_ZTVN11unwindstack18LocalUpdatableMapsE"
  },
  {
   "name" : "_ZTVN11unwindstack18MemoryFileAtOffsetE"
  },
  {
   "name" : "_ZTVN11unwindstack18MemoryOfflinePartsE"
  },
  {
   "binding" : "weak",
   "name" : "_ZTVN11unwindstack19DwarfEhFrameWithHdrIjEE"
  },
  {
   "binding" : "weak",
   "name" : "_ZTVN11unwindstack19DwarfEhFrameWithHdrIyEE"
  },
  {
   "name" : "_ZTVN11unwindstack19MemoryOfflineBufferE"
  },
  {
   "binding" : "weak",
   "name" : "_ZTVN11unwindstack21DwarfSectionImplNoHdrIjEE"
  },
  {
   "binding" : "weak",
   "name" : "_ZTVN11unwindstack21DwarfSectionImplNoHdrIyEE"
  },
  {
   "binding" : "weak",
   "name" : "_ZTVN11unwindstack3ElfE"
  },
  {
   "name" : "_ZTVN11unwindstack4MapsE"
  },
  {
   "binding" : "weak",
   "name" : "_ZTVN11unwindstack6GlobalE"
  },
  {
   "name" : "_ZTVN11unwindstack6MemoryE"
  },
  {
   "binding" : "weak",
   "name" : "_ZTVN11unwindstack7DwarfOpIjEE"
  },
  {
   "binding" : "weak",
   "name" : "_ZTVN11unwindstack7DwarfOpIyEE"
  },
  {
   "name" : "_ZTVN11unwindstack7RegsArmE"
  },
  {
   "name" : "_ZTVN11unwindstack7RegsX86E"
  },
  {
   "binding" : "weak",
   "name" : "_ZTVN11unwindstack7SymbolsE"
  },
  {
   "binding" : "weak",
   "name" : "_ZTVN11unwindstack8ArmExidxE"
  },
  {
   "binding" : "weak",
   "name" : "_ZTVN11unwindstack8DwarfCfaIjEE"
  },
  {
   "binding" : "weak",
   "name" : "_ZTVN11unwindstack8DwarfCfaIyEE"
  },
  {
   "name" : "_ZTVN11unwindstack8JitDebugE"
  },
  {
   "binding" : "weak",
   "name" : "_ZTVN11unwindstack8RegsImplIjEE"
  },
  {
   "binding" : "weak",
   "name" : "_ZTVN11unwindstack8RegsImplIyEE"
  },
  {
   "name" : "_ZTVN11unwindstack8RegsMipsE"
  },
  {
   "binding" : "weak",
   "name" : "_ZTVN11unwindstack9LocalMapsE"
  },
  {
   "name" : "_ZTVN11unwindstack9RegsArm64E"
  },
  {
   "binding" : "weak",
   "name" : "_ZTVNSt3__120__shared_ptr_emplaceIN11unwindstack18MemoryFileAtOffsetENS_9allocatorIS2_EEEE"
  },
  {
   "binding" : "weak",
   "name" : "_ZTVNSt3__120__shared_ptr_pointerIPN11unwindstack11MemoryCacheENS_14default_deleteIS2_EENS_9allocatorIS2_EEEE"
  },
  {
   "binding" : "weak",
   "name" : "_ZTVNSt3__120__shared_ptr_pointerIPN11unwindstack11MemoryLocalENS_14default_deleteIS2_EENS_9allocatorIS2_EEEE"
  },
  {
   "binding" : "weak",
   "name" : "_ZTVNSt3__120__shared_ptr_pointerIPN11unwindstack12MemoryRemoteENS_14default_deleteIS2_EENS_9allocatorIS2_EEEE"
  },
  {
   "binding" : "weak",
   "name" : "_ZTVNSt3__120__shared_ptr_pointerIPN11unwindstack3ElfENS_14default_deleteIS2_EENS_9allocatorIS2_EEEE"
  }
 ],
 "enum_types" :
 [
  {
   "alignment" : 1,
   "enum_fields" :
   [
    {
     "enum_field_value" : 0,
     "name" : "unwindstack::ARCH_UNKNOWN"
    },
    {
     "enum_field_value" : 1,
     "name" : "unwindstack::ARCH_ARM"
    },
    {
     "enum_field_value" : 2,
     "name" : "unwindstack::ARCH_ARM64"
    },
    {
     "enum_field_value" : 3,
     "name" : "unwindstack::ARCH_X86"
    },
    {
     "enum_field_value" : 4,
     "name" : "unwindstack::ARCH_X86_64"
    },
    {
     "enum_field_value" : 5,
     "name" : "unwindstack::ARCH_MIPS"
    },
    {
     "enum_field_value" : 6,
     "name" : "unwindstack::ARCH_MIPS64"
    }
   ],
   "linker_set_key" : "unwindstack::ArchEnum",
   "name" : "unwindstack::ArchEnum",
   "referenced_type" : "type-34",
   "self_type" : "type-34",
   "size" : 1,
   "source_file" : "/system/core/libunwindstack/include/unwindstack/Elf.h",
   "underlying_type" : "type-10",
   "unique_id" : "_ZTSN11unwindstack8ArchEnumE"
  },
  {
   "alignment" : 2,
   "enum_fields" :
   [
    {
     "enum_field_value" : 0,
     "name" : "unwindstack::ARM64_REG_R0"
    },
    {
     "enum_field_value" : 1,
     "name" : "unwindstack::ARM64_REG_R1"
    },
    {
     "enum_field_value" : 2,
     "name" : "unwindstack::ARM64_REG_R2"
    },
    {
     "enum_field_value" : 3,
     "name" : "unwindstack::ARM64_REG_R3"
    },
    {
     "enum_field_value" : 4,
     "name" : "unwindstack::ARM64_REG_R4"
    },
    {
     "enum_field_value" : 5,
     "name" : "unwindstack::ARM64_REG_R5"
    },
    {
     "enum_field_value" : 6,
     "name" : "unwindstack::ARM64_REG_R6"
    },
    {
     "enum_field_value" : 7,
     "name" : "unwindstack::ARM64_REG_R7"
    },
    {
     "enum_field_value" : 8,
     "name" : "unwindstack::ARM64_REG_R8"
    },
    {
     "enum_field_value" : 9,
     "name" : "unwindstack::ARM64_REG_R9"
    },
    {
     "enum_field_value" : 10,
     "name" : "unwindstack::ARM64_REG_R10"
    },
    {
     "enum_field_value" : 11,
     "name" : "unwindstack::ARM64_REG_R11"
    },
    {
     "enum_field_value" : 12,
     "name" : "unwindstack::ARM64_REG_R12"
    },
    {
     "enum_field_value" : 13,
     "name" : "unwindstack::ARM64_REG_R13"
    },
    {
     "enum_field_value" : 14,
     "name" : "unwindstack::ARM64_REG_R14"
    },
    {
     "enum_field_value" : 15,
     "name" : "unwindstack::ARM64_REG_R15"
    },
    {
     "enum_field_value" : 16,
     "name" : "unwindstack::ARM64_REG_R16"
    },
    {
     "enum_field_value" : 17,
     "name" : "unwindstack::ARM64_REG_R17"
    },
    {
     "enum_field_value" : 18,
     "name" : "unwindstack::ARM64_REG_R18"
    },
    {
     "enum_field_value" : 19,
     "name" : "unwindstack::ARM64_REG_R19"
    },
    {
     "enum_field_value" : 20,
     "name" : "unwindstack::ARM64_REG_R20"
    },
    {
     "enum_field_value" : 21,
     "name" : "unwindstack::ARM64_REG_R21"
    },
    {
     "enum_field_value" : 22,
     "name" : "unwindstack::ARM64_REG_R22"
    },
    {
     "enum_field_value" : 23,
     "name" : "unwindstack::ARM64_REG_R23"
    },
    {
     "enum_field_value" : 24,
     "name" : "unwindstack::ARM64_REG_R24"
    },
    {
     "enum_field_value" : 25,
     "name" : "unwindstack::ARM64_REG_R25"
    },
    {
     "enum_field_value" : 26,
     "name" : "unwindstack::ARM64_REG_R26"
    },
    {
     "enum_field_value" : 27,
     "name" : "unwindstack::ARM64_REG_R27"
    },
    {
     "enum_field_value" : 28,
     "name" : "unwindstack::ARM64_REG_R28"
    },
    {
     "enum_field_value" : 29,
     "name" : "unwindstack::ARM64_REG_R29"
    },
    {
     "enum_field_value" : 30,
     "name" : "unwindstack::ARM64_REG_R30"
    },
    {
     "enum_field_value" : 31,
     "name" : "unwindstack::ARM64_REG_R31"
    },
    {
     "enum_field_value" : 32,
     "name" : "unwindstack::ARM64_REG_PC"
    },
    {
     "enum_field_value" : 33,
     "name" : "unwindstack::ARM64_REG_LAST"
    },
    {
     "enum_field_value" : 31,
     "name" : "unwindstack::ARM64_REG_SP"
    },
    {
     "enum_field_value" : 30,
     "name" : "unwindstack::ARM64_REG_LR"
    }
   ],
   "linker_set_key" : "unwindstack::Arm64Reg",
   "name" : "unwindstack::Arm64Reg",
   "referenced_type" : "type-652",
   "self_type" : "type-652",
   "size" : 2,
   "source_file" : "/system/core/libunwindstack/include/unwindstack/MachineArm64.h",
   "underlying_type" : "type-2",
   "unique_id" : "_ZTSN11unwindstack8Arm64RegE"
  },
  {
   "alignment" : 2,
   "enum_fields" :
   [
    {
     "enum_field_value" : 0,
     "name" : "unwindstack::ARM_REG_R0"
    },
    {
     "enum_field_value" : 1,
     "name" : "unwindstack::ARM_REG_R1"
    },
    {
     "enum_field_value" : 2,
     "name" : "unwindstack::ARM_REG_R2"
    },
    {
     "enum_field_value" : 3,
     "name" : "unwindstack::ARM_REG_R3"
    },
    {
     "enum_field_value" : 4,
     "name" : "unwindstack::ARM_REG_R4"
    },
    {
     "enum_field_value" : 5,
     "name" : "unwindstack::ARM_REG_R5"
    },
    {
     "enum_field_value" : 6,
     "name" : "unwindstack::ARM_REG_R6"
    },
    {
     "enum_field_value" : 7,
     "name" : "unwindstack::ARM_REG_R7"
    },
    {
     "enum_field_value" : 8,
     "name" : "unwindstack::ARM_REG_R8"
    },
    {
     "enum_field_value" : 9,
     "name" : "unwindstack::ARM_REG_R9"
    },
    {
     "enum_field_value" : 10,
     "name" : "unwindstack::ARM_REG_R10"
    },
    {
     "enum_field_value" : 11,
     "name" : "unwindstack::ARM_REG_R11"
    },
    {
     "enum_field_value" : 12,
     "name" : "unwindstack::ARM_REG_R12"
    },
    {
     "enum_field_value" : 13,
     "name" : "unwindstack::ARM_REG_R13"
    },
    {
     "enum_field_value" : 14,
     "name" : "unwindstack::ARM_REG_R14"
    },
    {
     "enum_field_value" : 15,
     "name" : "unwindstack::ARM_REG_R15"
    },
    {
     "enum_field_value" : 16,
     "name" : "unwindstack::ARM_REG_LAST"
    },
    {
     "enum_field_value" : 13,
     "name" : "unwindstack::ARM_REG_SP"
    },
    {
     "enum_field_value" : 14,
     "name" : "unwindstack::ARM_REG_LR"
    },
    {
     "enum_field_value" : 15,
     "name" : "unwindstack::ARM_REG_PC"
    }
   ],
   "linker_set_key" : "unwindstack::ArmReg",
   "name" : "unwindstack::ArmReg",
   "referenced_type" : "type-1",
   "self_type" : "type-1",
   "size" : 2,
   "source_file" : "/system/core/libunwindstack/include/unwindstack/MachineArm.h",
   "underlying_type" : "type-2",
   "unique_id" : "_ZTSN11unwindstack6ArmRegE"
  },
  {
   "alignment" : 1,
   "enum_fields" :
   [
    {
     "enum_field_value" : 0,
     "name" : "unwindstack::DWARF_ERROR_NONE"
    },
    {
     "enum_field_value" : 1,
     "name" : "unwindstack::DWARF_ERROR_MEMORY_INVALID"
    },
    {
     "enum_field_value" : 2,
     "name" : "unwindstack::DWARF_ERROR_ILLEGAL_VALUE"
    },
    {
     "enum_field_value" : 3,
     "name" : "unwindstack::DWARF_ERROR_ILLEGAL_STATE"
    },
    {
     "enum_field_value" : 4,
     "name" : "unwindstack::DWARF_ERROR_STACK_INDEX_NOT_VALID"
    },
    {
     "enum_field_value" : 5,
     "name" : "unwindstack::DWARF_ERROR_NOT_IMPLEMENTED"
    },
    {
     "enum_field_value" : 6,
     "name" : "unwindstack::DWARF_ERROR_TOO_MANY_ITERATIONS"
    },
    {
     "enum_field_value" : 7,
     "name" : "unwindstack::DWARF_ERROR_CFA_NOT_DEFINED"
    },
    {
     "enum_field_value" : 8,
     "name" : "unwindstack::DWARF_ERROR_UNSUPPORTED_VERSION"
    },
    {
     "enum_field_value" : 9,
     "name" : "unwindstack::DWARF_ERROR_NO_FDES"
    }
   ],
   "linker_set_key" : "unwindstack::DwarfErrorCode",
   "name" : "unwindstack::DwarfErrorCode",
   "referenced_type" : "type-50",
   "self_type" : "type-50",
   "size" : 1,
   "source_file" : "/system/core/libunwindstack/include/unwindstack/DwarfError.h",
   "underlying_type" : "type-10",
   "unique_id" : "_ZTSN11unwindstack14DwarfErrorCodeE"
  },
  {
   "alignment" : 1,
   "enum_fields" :
   [
    {
     "enum_field_value" : 0,
     "name" : "unwindstack::DWARF_LOCATION_INVALID"
    },
    {
     "enum_field_value" : 1,
     "name" : "unwindstack::DWARF_LOCATION_UNDEFINED"
    },
    {
     "enum_field_value" : 2,
     "name" : "unwindstack::DWARF_LOCATION_OFFSET"
    },
    {
     "enum_field_value" : 3,
     "name" : "unwindstack::DWARF_LOCATION_VAL_OFFSET"
    },
    {
     "enum_field_value" : 4,
     "name" : "unwindstack::DWARF_LOCATION_REGISTER"
    },
    {
     "enum_field_value" : 5,
     "name" : "unwindstack::DWARF_LOCATION_EXPRESSION"
    },
    {
     "enum_field_value" : 6,
     "name" : "unwindstack::DWARF_LOCATION_VAL_EXPRESSION"
    }
   ],
   "linker_set_key" : "unwindstack::DwarfLocationEnum",
   "name" : "unwindstack::DwarfLocationEnum",
   "referenced_type" : "type-267",
   "self_type" : "type-267",
   "size" : 1,
   "source_file" : "/system/core/libunwindstack/include/unwindstack/DwarfLocation.h",
   "underlying_type" : "type-10",
   "unique_id" : "_ZTSN11unwindstack17DwarfLocationEnumE"
  },
  {
   "alignment" : 1,
   "enum_fields" :
   [
    {
     "enum_field_value" : 0,
     "name" : "unwindstack::ERROR_NONE"
    },
    {
     "enum_field_value" : 1,
     "name" : "unwindstack::ERROR_MEMORY_INVALID"
    },
    {
     "enum_field_value" : 2,
     "name" : "unwindstack::ERROR_UNWIND_INFO"
    },
    {
     "enum_field_value" : 3,
     "name" : "unwindstack::ERROR_UNSUPPORTED"
    },
    {
     "enum_field_value" : 4,
     "name" : "unwindstack::ERROR_INVALID_MAP"
    },
    {
     "enum_field_value" : 5,
     "name" : "unwindstack::ERROR_MAX_FRAMES_EXCEEDED"
    },
    {
     "enum_field_value" : 6,
     "name" : "unwindstack::ERROR_REPEATED_FRAME"
    },
    {
     "enum_field_value" : 7,
     "name" : "unwindstack::ERROR_INVALID_ELF"
    }
   ],
   "linker_set_key" : "unwindstack::ErrorCode",
   "name" : "unwindstack::ErrorCode",
   "referenced_type" : "type-13",
   "self_type" : "type-13",
   "size" : 1,
   "source_file" : "/system/core/libunwindstack/include/unwindstack/Error.h",
   "underlying_type" : "type-10",
   "unique_id" : "_ZTSN11unwindstack9ErrorCodeE"
  },
  {
   "alignment" : 2,
   "enum_fields" :
   [
    {
     "enum_field_value" : 6,
     "name" : "unwindstack::MIPS32_EF_R0"
    },
    {
     "enum_field_value" : 40,
     "name" : "unwindstack::MIPS32_EF_CP0_EPC"
    }
   ],
   "linker_set_key" : "unwindstack::Mips32UserReg",
   "name" : "unwindstack::Mips32UserReg",
   "referenced_type" : "type-610",
   "self_type" : "type-610",
   "size" : 2,
   "source_file" : "/system/core/libunwindstack/include/unwindstack/UserMips.h",
   "underlying_type" : "type-2",
   "unique_id" : "_ZTSN11unwindstack13Mips32UserRegE"
  },
  {
   "alignment" : 2,
   "enum_fields" :
   [
    {
     "enum_field_value" : 0,
     "name" : "unwindstack::MIPS64_REG_R0"
    },
    {
     "enum_field_value" : 1,
     "name" : "unwindstack::MIPS64_REG_R1"
    },
    {
     "enum_field_value" : 2,
     "name" : "unwindstack::MIPS64_REG_R2"
    },
    {
     "enum_field_value" : 3,
     "name" : "unwindstack::MIPS64_REG_R3"
    },
    {
     "enum_field_value" : 4,
     "name" : "unwindstack::MIPS64_REG_R4"
    },
    {
     "enum_field_value" : 5,
     "name" : "unwindstack::MIPS64_REG_R5"
    },
    {
     "enum_field_value" : 6,
     "name" : "unwindstack::MIPS64_REG_R6"
    },
    {
     "enum_field_value" : 7,
     "name" : "unwindstack::MIPS64_REG_R7"
    },
    {
     "enum_field_value" : 8,
     "name" : "unwindstack::MIPS64_REG_R8"
    },
    {
     "enum_field_value" : 9,
     "name" : "unwindstack::MIPS64_REG_R9"
    },
    {
     "enum_field_value" : 10,
     "name" : "unwindstack::MIPS64_REG_R10"
    },
    {
     "enum_field_value" : 11,
     "name" : "unwindstack::MIPS64_REG_R11"
    },
    {
     "enum_field_value" : 12,
     "name" : "unwindstack::MIPS64_REG_R12"
    },
    {
     "enum_field_value" : 13,
     "name" : "unwindstack::MIPS64_REG_R13"
    },
    {
     "enum_field_value" : 14,
     "name" : "unwindstack::MIPS64_REG_R14"
    },
    {
     "enum_field_value" : 15,
     "name" : "unwindstack::MIPS64_REG_R15"
    },
    {
     "enum_field_value" : 16,
     "name" : "unwindstack::MIPS64_REG_R16"
    },
    {
     "enum_field_value" : 17,
     "name" : "unwindstack::MIPS64_REG_R17"
    },
    {
     "enum_field_value" : 18,
     "name" : "unwindstack::MIPS64_REG_R18"
    },
    {
     "enum_field_value" : 19,
     "name" : "unwindstack::MIPS64_REG_R19"
    },
    {
     "enum_field_value" : 20,
     "name" : "unwindstack::MIPS64_REG_R20"
    },
    {
     "enum_field_value" : 21,
     "name" : "unwindstack::MIPS64_REG_R21"
    },
    {
     "enum_field_value" : 22,
     "name" : "unwindstack::MIPS64_REG_R22"
    },
    {
     "enum_field_value" : 23,
     "name" : "unwindstack::MIPS64_REG_R23"
    },
    {
     "enum_field_value" : 24,
     "name" : "unwindstack::MIPS64_REG_R24"
    },
    {
     "enum_field_value" : 25,
     "name" : "unwindstack::MIPS64_REG_R25"
    },
    {
     "enum_field_value" : 26,
     "name" : "unwindstack::MIPS64_REG_R26"
    },
    {
     "enum_field_value" : 27,
     "name" : "unwindstack::MIPS64_REG_R27"
    },
    {
     "enum_field_value" : 28,
     "name" : "unwindstack::MIPS64_REG_R28"
    },
    {
     "enum_field_value" : 29,
     "name" : "unwindstack::MIPS64_REG_R29"
    },
    {
     "enum_field_value" : 30,
     "name" : "unwindstack::MIPS64_REG_R30"
    },
    {
     "enum_field_value" : 31,
     "name" : "unwindstack::MIPS64_REG_R31"
    },
    {
     "enum_field_value" : 32,
     "name" : "unwindstack::MIPS64_REG_PC"
    },
    {
     "enum_field_value" : 33,
     "name" : "unwindstack::MIPS64_REG_LAST"
    },
    {
     "enum_field_value" : 29,
     "name" : "unwindstack::MIPS64_REG_SP"
    },
    {
     "enum_field_value" : 31,
     "name" : "unwindstack::MIPS64_REG_RA"
    }
   ],
   "linker_set_key" : "unwindstack::Mips64Reg",
   "name" : "unwindstack::Mips64Reg",
   "referenced_type" : "type-731",
   "self_type" : "type-731",
   "size" : 2,
   "source_file" : "/system/core/libunwindstack/include/unwindstack/MachineMips64.h",
   "underlying_type" : "type-2",
   "unique_id" : "_ZTSN11unwindstack9Mips64RegE"
  },
  {
   "alignment" : 2,
   "enum_fields" :
   [
    {
     "enum_field_value" : 0,
     "name" : "unwindstack::MIPS64_EF_R0"
    },
    {
     "enum_field_value" : 34,
     "name" : "unwindstack::MIPS64_EF_CP0_EPC"
    }
   ],
   "linker_set_key" : "unwindstack::Mips64UserReg",
   "name" : "unwindstack::Mips64UserReg",
   "referenced_type" : "type-613",
   "self_type" : "type-613",
   "size" : 2,
   "source_file" : "/system/core/libunwindstack/include/unwindstack/UserMips64.h",
   "underlying_type" : "type-2",
   "unique_id" : "_ZTSN11unwindstack13Mips64UserRegE"
  },
  {
   "alignment" : 2,
   "enum_fields" :
   [
    {
     "enum_field_value" : 0,
     "name" : "unwindstack::MIPS_REG_R0"
    },
    {
     "enum_field_value" : 1,
     "name" : "unwindstack::MIPS_REG_R1"
    },
    {
     "enum_field_value" : 2,
     "name" : "unwindstack::MIPS_REG_R2"
    },
    {
     "enum_field_value" : 3,
     "name" : "unwindstack::MIPS_REG_R3"
    },
    {
     "enum_field_value" : 4,
     "name" : "unwindstack::MIPS_REG_R4"
    },
    {
     "enum_field_value" : 5,
     "name" : "unwindstack::MIPS_REG_R5"
    },
    {
     "enum_field_value" : 6,
     "name" : "unwindstack::MIPS_REG_R6"
    },
    {
     "enum_field_value" : 7,
     "name" : "unwindstack::MIPS_REG_R7"
    },
    {
     "enum_field_value" : 8,
     "name" : "unwindstack::MIPS_REG_R8"
    },
    {
     "enum_field_value" : 9,
     "name" : "unwindstack::MIPS_REG_R9"
    },
    {
     "enum_field_value" : 10,
     "name" : "unwindstack::MIPS_REG_R10"
    },
    {
     "enum_field_value" : 11,
     "name" : "unwindstack::MIPS_REG_R11"
    },
    {
     "enum_field_value" : 12,
     "name" : "unwindstack::MIPS_REG_R12"
    },
    {
     "enum_field_value" : 13,
     "name" : "unwindstack::MIPS_REG_R13"
    },
    {
     "enum_field_value" : 14,
     "name" : "unwindstack::MIPS_REG_R14"
    },
    {
     "enum_field_value" : 15,
     "name" : "unwindstack::MIPS_REG_R15"
    },
    {
     "enum_field_value" : 16,
     "name" : "unwindstack::MIPS_REG_R16"
    },
    {
     "enum_field_value" : 17,
     "name" : "unwindstack::MIPS_REG_R17"
    },
    {
     "enum_field_value" : 18,
     "name" : "unwindstack::MIPS_REG_R18"
    },
    {
     "enum_field_value" : 19,
     "name" : "unwindstack::MIPS_REG_R19"
    },
    {
     "enum_field_value" : 20,
     "name" : "unwindstack::MIPS_REG_R20"
    },
    {
     "enum_field_value" : 21,
     "name" : "unwindstack::MIPS_REG_R21"
    },
    {
     "enum_field_value" : 22,
     "name" : "unwindstack::MIPS_REG_R22"
    },
    {
     "enum_field_value" : 23,
     "name" : "unwindstack::MIPS_REG_R23"
    },
    {
     "enum_field_value" : 24,
     "name" : "unwindstack::MIPS_REG_R24"
    },
    {
     "enum_field_value" : 25,
     "name" : "unwindstack::MIPS_REG_R25"
    },
    {
     "enum_field_value" : 26,
     "name" : "unwindstack::MIPS_REG_R26"
    },
    {
     "enum_field_value" : 27,
     "name" : "unwindstack::MIPS_REG_R27"
    },
    {
     "enum_field_value" : 28,
     "name" : "unwindstack::MIPS_REG_R28"
    },
    {
     "enum_field_value" : 29,
     "name" : "unwindstack::MIPS_REG_R29"
    },
    {
     "enum_field_value" : 30,
     "name" : "unwindstack::MIPS_REG_R30"
    },
    {
     "enum_field_value" : 31,
     "name" : "unwindstack::MIPS_REG_R31"
    },
    {
     "enum_field_value" : 32,
     "name" : "unwindstack::MIPS_REG_PC"
    },
    {
     "enum_field_value" : 33,
     "name" : "unwindstack::MIPS_REG_LAST"
    },
    {
     "enum_field_value" : 29,
     "name" : "unwindstack::MIPS_REG_SP"
    },
    {
     "enum_field_value" : 31,
     "name" : "unwindstack::MIPS_REG_RA"
    }
   ],
   "linker_set_key" : "unwindstack::MipsReg",
   "name" : "unwindstack::MipsReg",
   "referenced_type" : "type-708",
   "self_type" : "type-708",
   "size" : 2,
   "source_file" : "/system/core/libunwindstack/include/unwindstack/MachineMips.h",
   "underlying_type" : "type-2",
   "unique_id" : "_ZTSN11unwindstack7MipsRegE"
  },
  {
   "alignment" : 1,
   "enum_fields" :
   [
    {
     "enum_field_value" : 0,
     "name" : "unwindstack::Regs::LOCATION_UNKNOWN"
    },
    {
     "enum_field_value" : 1,
     "name" : "unwindstack::Regs::LOCATION_REGISTER"
    },
    {
     "enum_field_value" : 2,
     "name" : "unwindstack::Regs::LOCATION_SP_OFFSET"
    }
   ],
   "linker_set_key" : "unwindstack::Regs::LocationEnum",
   "name" : "unwindstack::Regs::LocationEnum",
   "referenced_type" : "type-65",
   "self_type" : "type-65",
   "size" : 1,
   "source_file" : "/system/core/libunwindstack/include/unwindstack/Regs.h",
   "underlying_type" : "type-10",
   "unique_id" : "_ZTSN11unwindstack4Regs12LocationEnumE"
  },
  {
   "alignment" : 2,
   "enum_fields" :
   [
    {
     "enum_field_value" : 0,
     "name" : "unwindstack::X86_REG_EAX"
    },
    {
     "enum_field_value" : 1,
     "name" : "unwindstack::X86_REG_ECX"
    },
    {
     "enum_field_value" : 2,
     "name" : "unwindstack::X86_REG_EDX"
    },
    {
     "enum_field_value" : 3,
     "name" : "unwindstack::X86_REG_EBX"
    },
    {
     "enum_field_value" : 4,
     "name" : "unwindstack::X86_REG_ESP"
    },
    {
     "enum_field_value" : 5,
     "name" : "unwindstack::X86_REG_EBP"
    },
    {
     "enum_field_value" : 6,
     "name" : "unwindstack::X86_REG_ESI"
    },
    {
     "enum_field_value" : 7,
     "name" : "unwindstack::X86_REG_EDI"
    },
    {
     "enum_field_value" : 8,
     "name" : "unwindstack::X86_REG_EIP"
    },
    {
     "enum_field_value" : 9,
     "name" : "unwindstack::X86_REG_EFL"
    },
    {
     "enum_field_value" : 10,
     "name" : "unwindstack::X86_REG_CS"
    },
    {
     "enum_field_value" : 11,
     "name" : "unwindstack::X86_REG_SS"
    },
    {
     "enum_field_value" : 12,
     "name" : "unwindstack::X86_REG_DS"
    },
    {
     "enum_field_value" : 13,
     "name" : "unwindstack::X86_REG_ES"
    },
    {
     "enum_field_value" : 14,
     "name" : "unwindstack::X86_REG_FS"
    },
    {
     "enum_field_value" : 15,
     "name" : "unwindstack::X86_REG_GS"
    },
    {
     "enum_field_value" : 16,
     "name" : "unwindstack::X86_REG_LAST"
    },
    {
     "enum_field_value" : 4,
     "name" : "unwindstack::X86_REG_SP"
    },
    {
     "enum_field_value" : 8,
     "name" : "unwindstack::X86_REG_PC"
    }
   ],
   "linker_set_key" : "unwindstack::X86Reg",
   "name" : "unwindstack::X86Reg",
   "referenced_type" : "type-351",
   "self_type" : "type-351",
   "size" : 2,
   "source_file" : "/system/core/libunwindstack/include/unwindstack/MachineX86.h",
   "underlying_type" : "type-2",
   "unique_id" : "_ZTSN11unwindstack6X86RegE"
  },
  {
   "alignment" : 2,
   "enum_fields" :
   [
    {
     "enum_field_value" : 0,
     "name" : "unwindstack::X86_64_REG_RAX"
    },
    {
     "enum_field_value" : 1,
     "name" : "unwindstack::X86_64_REG_RDX"
    },
    {
     "enum_field_value" : 2,
     "name" : "unwindstack::X86_64_REG_RCX"
    },
    {
     "enum_field_value" : 3,
     "name" : "unwindstack::X86_64_REG_RBX"
    },
    {
     "enum_field_value" : 4,
     "name" : "unwindstack::X86_64_REG_RSI"
    },
    {
     "enum_field_value" : 5,
     "name" : "unwindstack::X86_64_REG_RDI"
    },
    {
     "enum_field_value" : 6,
     "name" : "unwindstack::X86_64_REG_RBP"
    },
    {
     "enum_field_value" : 7,
     "name" : "unwindstack::X86_64_REG_RSP"
    },
    {
     "enum_field_value" : 8,
     "name" : "unwindstack::X86_64_REG_R8"
    },
    {
     "enum_field_value" : 9,
     "name" : "unwindstack::X86_64_REG_R9"
    },
    {
     "enum_field_value" : 10,
     "name" : "unwindstack::X86_64_REG_R10"
    },
    {
     "enum_field_value" : 11,
     "name" : "unwindstack::X86_64_REG_R11"
    },
    {
     "enum_field_value" : 12,
     "name" : "unwindstack::X86_64_REG_R12"
    },
    {
     "enum_field_value" : 13,
     "name" : "unwindstack::X86_64_REG_R13"
    },
    {
     "enum_field_value" : 14,
     "name" : "unwindstack::X86_64_REG_R14"
    },
    {
     "enum_field_value" : 15,
     "name" : "unwindstack::X86_64_REG_R15"
    },
    {
     "enum_field_value" : 16,
     "name" : "unwindstack::X86_64_REG_RIP"
    },
    {
     "enum_field_value" : 17,
     "name" : "unwindstack::X86_64_REG_LAST"
    },
    {
     "enum_field_value" : 7,
     "name" : "unwindstack::X86_64_REG_SP"
    },
    {
     "enum_field_value" : 16,
     "name" : "unwindstack::X86_64_REG_PC"
    }
   ],
   "linker_set_key" : "unwindstack::X86_64Reg",
   "name" : "unwindstack::X86_64Reg",
   "referenced_type" : "type-369",
   "self_type" : "type-369",
   "size" : 2,
   "source_file" : "/system/core/libunwindstack/include/unwindstack/MachineX86_64.h",
   "underlying_type" : "type-2",
   "unique_id" : "_ZTSN11unwindstack9X86_64RegE"
  }
 ],
 "function_types" : [],
 "functions" :
 [
  {
   "function_name" : "unwindstack::BufferMaps::Parse",
   "linker_set_key" : "_ZN11unwindstack10BufferMaps5ParseEv",
   "parameters" :
   [
    {
     "is_this_ptr" : true,
     "referenced_type" : "type-184"
    }
   ],
   "return_type" : "type-72",
   "source_file" : "/system/core/libunwindstack/include/unwindstack/Maps.h"
  },
  {
   "function_name" : "unwindstack::RegsMips64::GetPcAdjustment",
   "linker_set_key" : "_ZN11unwindstack10RegsMips6415GetPcAdjustmentEyPNS_3ElfE",
   "parameters" :
   [
    {
     "is_this_ptr" : true,
     "referenced_type" : "type-601"
    },
    {
     "referenced_type" : "type-6"
    },
    {
     "referenced_type" : "type-191"
    }
   ],
   "return_type" : "type-6",
   "source_file" : "/system/core/libunwindstack/include/unwindstack/RegsMips64.h"
  },
  {
   "function_name" : "unwindstack::RegsMips64::IterateRegisters",
   "linker_set_key" : "_ZN11unwindstack10RegsMips6416IterateRegistersENSt3__18functionIFvPKcyEEE",
   "parameters" :
   [
    {
     "is_this_ptr" : true,
     "referenced_type" : "type-601"
    },
    {
     "referenced_type" : "type-1023"
    }
   ],
   "return_type" : "type-62",
   "source_file" : "/system/core/libunwindstack/include/unwindstack/RegsMips64.h"
  },
  {
   "function_name" : "unwindstack::RegsMips64::CreateFromUcontext",
   "linker_set_key" : "_ZN11unwindstack10RegsMips6418CreateFromUcontextEPv",
   "parameters" :
   [
    {
     "referenced_type" : "type-61"
    }
   ],
   "return_type" : "type-94",
   "source_file" : "/system/core/libunwindstack/include/unwindstack/RegsMips64.h"
  },
  {
   "function_name" : "unwindstack::RegsMips64::StepIfSignalHandler",
   "linker_set_key" : "_ZN11unwindstack10RegsMips6419StepIfSignalHandlerEyPNS_3ElfEPNS_6MemoryE",
   "parameters" :
   [
    {
     "is_this_ptr" : true,
     "referenced_type" : "type-601"
    },
    {
     "referenced_type" : "type-6"
    },
    {
     "referenced_type" : "type-191"
    },
    {
     "referenced_type" : "type-17"
    }
   ],
   "return_type" : "type-72",
   "source_file" : "/system/core/libunwindstack/include/unwindstack/RegsMips64.h"
  },
  {
   "function_name" : "unwindstack::RegsMips64::SetPcFromReturnAddress",
   "linker_set_key" : "_ZN11unwindstack10RegsMips6422SetPcFromReturnAddressEPNS_6MemoryE",
   "parameters" :
   [
    {
     "is_this_ptr" : true,
     "referenced_type" : "type-601"
    },
    {
     "referenced_type" : "type-17"
    }
   ],
   "return_type" : "type-72",
   "source_file" : "/system/core/libunwindstack/include/unwindstack/RegsMips64.h"
  },
  {
   "function_name" : "unwindstack::RegsMips64::pc",
   "linker_set_key" : "_ZN11unwindstack10RegsMips642pcEv",
   "parameters" :
   [
    {
     "is_this_ptr" : true,
     "referenced_type" : "type-601"
    }
   ],
   "return_type" : "type-6",
   "source_file" : "/system/core/libunwindstack/include/unwindstack/RegsMips64.h"
  },
  {
   "function_name" : "unwindstack::RegsMips64::sp",
   "linker_set_key" : "_ZN11unwindstack10RegsMips642spEv",
   "parameters" :
   [
    {
     "is_this_ptr" : true,
     "referenced_type" : "type-601"
    }
   ],
   "return_type" : "type-6",
   "source_file" : "/system/core/libunwindstack/include/unwindstack/RegsMips64.h"
  },
  {
   "function_name" : "unwindstack::RegsMips64::Arch",
   "linker_set_key" : "_ZN11unwindstack10RegsMips644ArchEv",
   "parameters" :
   [
    {
     "is_this_ptr" : true,
     "referenced_type" : "type-601"
    }
   ],
   "return_type" : "type-34",
   "source_file" : "/system/core/libunwindstack/include/unwindstack/RegsMips64.h"
  },
  {
   "function_name" : "unwindstack::RegsMips64::Read",
   "linker_set_key" : "_ZN11unwindstack10RegsMips644ReadEPv",
   "parameters" :
   [
    {
     "referenced_type" : "type-61"
    }
   ],
   "return_type" : "type-94",
   "source_file" : "/system/core/libunwindstack/include/unwindstack/RegsMips64.h"
  },
  {
   "function_name" : "unwindstack::RegsMips64::Clone",
   "linker_set_key" : "_ZN11unwindstack10RegsMips645CloneEv",
   "parameters" :
   [
    {
     "is_this_ptr" : true,
     "referenced_type" : "type-601"
    }
   ],
   "return_type" : "type-94",
   "source_file" : "/system/core/libunwindstack/include/unwindstack/RegsMips64.h"
  },
  {
   "function_name" : "unwindstack::RegsMips64::set_pc",
   "linker_set_key" : "_ZN11unwindstack10RegsMips646set_pcEy",
   "parameters" :
   [
    {
     "is_this_ptr" : true,
     "referenced_type" : "type-601"
    },
    {
     "referenced_type" : "type-6"
    }
   ],
   "return_type" : "type-62",
   "source_file" : "/system/core/libunwindstack/include/unwindstack/RegsMips64.h"
  },
  {
   "function_name" : "unwindstack::RegsMips64::set_sp",
   "linker_set_key" : "_ZN11unwindstack10RegsMips646set_spEy",
   "parameters" :
   [
    {
     "is_this_ptr" : true,
     "referenced_type" : "type-601"
    },
    {
     "referenced_type" : "type-6"
    }
   ],
   "return_type" : "type-62",
   "source_file" : "/system/core/libunwindstack/include/unwindstack/RegsMips64.h"
  },
  {
   "function_name" : "unwindstack::RegsMips64::RegsMips64",
   "linker_set_key" : "_ZN11unwindstack10RegsMips64C1Ev",
   "parameters" :
   [
    {
     "is_this_ptr" : true,
     "referenced_type" : "type-601"
    }
   ],
   "return_type" : "type-62",
   "source_file" : "/system/core/libunwindstack/include/unwindstack/RegsMips64.h"
  },
  {
   "function_name" : "unwindstack::RegsMips64::RegsMips64",
   "linker_set_key" : "_ZN11unwindstack10RegsMips64C2Ev",
   "parameters" :
   [
    {
     "is_this_ptr" : true,
     "referenced_type" : "type-601"
    }
   ],
   "return_type" : "type-62",
   "source_file" : "/system/core/libunwindstack/include/unwindstack/RegsMips64.h"
  },
  {
   "function_name" : "unwindstack::RegsX86_64::GetPcAdjustment",
   "linker_set_key" : "_ZN11unwindstack10RegsX86_6415GetPcAdjustmentEyPNS_3ElfE",
   "parameters" :
   [
    {
     "is_this_ptr" : true,
     "referenced_type" : "type-605"
    },
    {
     "referenced_type" : "type-6"
    },
    {
     "referenced_type" : "type-191"
    }
   ],
   "return_type" : "type-6",
   "source_file" : "/system/core/libunwindstack/include/unwindstack/RegsX86_64.h"
  },
  {
   "function_name" : "unwindstack::RegsX86_64::SetFromUcontext",
   "linker_set_key" : "_ZN11unwindstack10RegsX86_6415SetFromUcontextEPNS_17x86_64_ucontext_tE",
   "parameters" :
   [
    {
     "is_this_ptr" : true,
     "referenced_type" : "type-605"
    },
    {
     "referenced_type" : "type-376"
    }
   ],
   "return_type" : "type-62",
   "source_file" : "/system/core/libunwindstack/include/unwindstack/RegsX86_64.h"
  },
  {
   "function_name" : "unwindstack::RegsX86_64::IterateRegisters",
   "linker_set_key" : "_ZN11unwindstack10RegsX86_6416IterateRegistersENSt3__18functionIFvPKcyEEE",
   "parameters" :
   [
    {
     "is_this_ptr" : true,
     "referenced_type" : "type-605"
    },
    {
     "referenced_type" : "type-653"
    }
   ],
   "return_type" : "type-62",
   "source_file" : "/system/core/libunwindstack/include/unwindstack/RegsX86_64.h"
  },
  {
   "function_name" : "unwindstack::RegsX86_64::CreateFromUcontext",
   "linker_set_key" : "_ZN11unwindstack10RegsX86_6418CreateFromUcontextEPv",
   "parameters" :
   [
    {
     "referenced_type" : "type-61"
    }
   ],
   "return_type" : "type-94",
   "source_file" : "/system/core/libunwindstack/include/unwindstack/RegsX86_64.h"
  },
  {
   "function_name" : "unwindstack::RegsX86_64::StepIfSignalHandler",
   "linker_set_key" : "_ZN11unwindstack10RegsX86_6419StepIfSignalHandlerEyPNS_3ElfEPNS_6MemoryE",
   "parameters" :
   [
    {
     "is_this_ptr" : true,
     "referenced_type" : "type-605"
    },
    {
     "referenced_type" : "type-6"
    },
    {
     "referenced_type" : "type-191"
    },
    {
     "referenced_type" : "type-17"
    }
   ],
   "return_type" : "type-72",
   "source_file" : "/system/core/libunwindstack/include/unwindstack/RegsX86_64.h"
  },
  {
   "function_name" : "unwindstack::RegsX86_64::SetPcFromReturnAddress",
   "linker_set_key" : "_ZN11unwindstack10RegsX86_6422SetPcFromReturnAddressEPNS_6MemoryE",
   "parameters" :
   [
    {
     "is_this_ptr" : true,
     "referenced_type" : "type-605"
    },
    {
     "referenced_type" : "type-17"
    }
   ],
   "return_type" : "type-72",
   "source_file" : "/system/core/libunwindstack/include/unwindstack/RegsX86_64.h"
  },
  {
   "function_name" : "unwindstack::RegsX86_64::pc",
   "linker_set_key" : "_ZN11unwindstack10RegsX86_642pcEv",
   "parameters" :
   [
    {
     "is_this_ptr" : true,
     "referenced_type" : "type-605"
    }
   ],
   "return_type" : "type-6",
   "source_file" : "/system/core/libunwindstack/include/unwindstack/RegsX86_64.h"
  },
  {
   "function_name" : "unwindstack::RegsX86_64::sp",
   "linker_set_key" : "_ZN11unwindstack10RegsX86_642spEv",
   "parameters" :
   [
    {
     "is_this_ptr" : true,
     "referenced_type" : "type-605"
    }
   ],
   "return_type" : "type-6",
   "source_file" : "/system/core/libunwindstack/include/unwindstack/RegsX86_64.h"
  },
  {
   "function_name" : "unwindstack::RegsX86_64::Arch",
   "linker_set_key" : "_ZN11unwindstack10RegsX86_644ArchEv",
   "parameters" :
   [
    {
     "is_this_ptr" : true,
     "referenced_type" : "type-605"
    }
   ],
   "return_type" : "type-34",
   "source_file" : "/system/core/libunwindstack/include/unwindstack/RegsX86_64.h"
  },
  {
   "function_name" : "unwindstack::RegsX86_64::Read",
   "linker_set_key" : "_ZN11unwindstack10RegsX86_644ReadEPv",
   "parameters" :
   [
    {
     "referenced_type" : "type-61"
    }
   ],
   "return_type" : "type-94",
   "source_file" : "/system/core/libunwindstack/include/unwindstack/RegsX86_64.h"
  },
  {
   "function_name" : "unwindstack::RegsX86_64::Clone",
   "linker_set_key" : "_ZN11unwindstack10RegsX86_645CloneEv",
   "parameters" :
   [
    {
     "is_this_ptr" : true,
     "referenced_type" : "type-605"
    }
   ],
   "return_type" : "type-94",
   "source_file" : "/system/core/libunwindstack/include/unwindstack/RegsX86_64.h"
  },
  {
   "function_name" : "unwindstack::RegsX86_64::set_pc",
   "linker_set_key" : "_ZN11unwindstack10RegsX86_646set_pcEy",
   "parameters" :
   [
    {
     "is_this_ptr" : true,
     "referenced_type" : "type-605"
    },
    {
     "referenced_type" : "type-6"
    }
   ],
   "return_type" : "type-62",
   "source_file" : "/system/core/libunwindstack/include/unwindstack/RegsX86_64.h"
  },
  {
   "function_name" : "unwindstack::RegsX86_64::set_sp",
   "linker_set_key" : "_ZN11unwindstack10RegsX86_646set_spEy",
   "parameters" :
   [
    {
     "is_this_ptr" : true,
     "referenced_type" : "type-605"
    },
    {
     "referenced_type" : "type-6"
    }
   ],
   "return_type" : "type-62",
   "source_file" : "/system/core/libunwindstack/include/unwindstack/RegsX86_64.h"
  },
  {
   "function_name" : "unwindstack::RegsX86_64::RegsX86_64",
   "linker_set_key" : "_ZN11unwindstack10RegsX86_64C1Ev",
   "parameters" :
   [
    {
     "is_this_ptr" : true,
     "referenced_type" : "type-605"
    }
   ],
   "return_type" : "type-62",
   "source_file" : "/system/core/libunwindstack/include/unwindstack/RegsX86_64.h"
  },
  {
   "function_name" : "unwindstack::RegsX86_64::RegsX86_64",
   "linker_set_key" : "_ZN11unwindstack10RegsX86_64C2Ev",
   "parameters" :
   [
    {
     "is_this_ptr" : true,
     "referenced_type" : "type-605"
    }
   ],
   "return_type" : "type-62",
   "source_file" : "/system/core/libunwindstack/include/unwindstack/RegsX86_64.h"
  },
  {
   "function_name" : "unwindstack::DwarfMemory::ReadSLEB128",
   "linker_set_key" : "_ZN11unwindstack11DwarfMemory11ReadSLEB128EPx",
   "parameters" :
   [
    {
     "is_this_ptr" : true,
     "referenced_type" : "type-280"
    },
    {
     "referenced_type" : "type-58"
    }
   ],
   "return_type" : "type-72",
   "source_file" : "/system/core/libunwindstack/include/unwindstack/DwarfMemory.h"
  },
  {
   "function_name" : "unwindstack::DwarfMemory::ReadULEB128",
   "linker_set_key" : "_ZN11unwindstack11DwarfMemory11ReadULEB128EPy",
   "parameters" :
   [
    {
     "is_this_ptr" : true,
     "referenced_type" : "type-280"
    },
    {
     "referenced_type" : "type-102"
    }
   ],
   "return_type" : "type-72",
   "source_file" : "/system/core/libunwindstack/include/unwindstack/DwarfMemory.h"
  },
  {
   "function_name" : "unwindstack::DwarfMemory::AdjustEncodedValue",
   "linker_set_key" : "_ZN11unwindstack11DwarfMemory18AdjustEncodedValueEhPy",
   "parameters" :
   [
    {
     "is_this_ptr" : true,
     "referenced_type" : "type-280"
    },
    {
     "referenced_type" : "type-10"
    },
    {
     "referenced_type" : "type-102"
    }
   ],
   "return_type" : "type-72",
   "source_file" : "/system/core/libunwindstack/include/unwindstack/DwarfMemory.h"
  },
  {
   "function_name" : "unwindstack::DwarfMemory::ReadBytes",
   "linker_set_key" : "_ZN11unwindstack11DwarfMemory9ReadBytesEPvj",
   "parameters" :
   [
    {
     "is_this_ptr" : true,
     "referenced_type" : "type-280"
    },
    {
     "referenced_type" : "type-61"
    },
    {
     "referenced_type" : "type-3"
    }
   ],
   "return_type" : "type-72",
   "source_file" : "/system/core/libunwindstack/include/unwindstack/DwarfMemory.h"
  },
  {
   "function_name" : "unwindstack::MemoryCache::Read",
   "linker_set_key" : "_ZN11unwindstack11MemoryCache4ReadEyPvj",
   "parameters" :
   [
    {
     "is_this_ptr" : true,
     "referenced_type" : "type-132"
    },
    {
     "referenced_type" : "type-6"
    },
    {
     "referenced_type" : "type-61"
    },
    {
     "referenced_type" : "type-3"
    }
   ],
   "return_type" : "type-3",
   "source_file" : "/system/core/libunwindstack/include/unwindstack/Memory.h"
  },
  {
   "function_name" : "unwindstack::MemoryLocal::Read",
   "linker_set_key" : "_ZN11unwindstack11MemoryLocal4ReadEyPvj",
   "parameters" :
   [
    {
     "is_this_ptr" : true,
     "referenced_type" : "type-202"
    },
    {
     "referenced_type" : "type-6"
    },
    {
     "referenced_type" : "type-61"
    },
    {
     "referenced_type" : "type-3"
    }
   ],
   "return_type" : "type-3",
   "source_file" : "/system/core/libunwindstack/include/unwindstack/Memory.h"
  },
  {
   "function_name" : "unwindstack::MemoryRange::Read",
   "linker_set_key" : "_ZN11unwindstack11MemoryRange4ReadEyPvj",
   "parameters" :
   [
    {
     "is_this_ptr" : true,
     "referenced_type" : "type-208"
    },
    {
     "referenced_type" : "type-6"
    },
    {
     "referenced_type" : "type-61"
    },
    {
     "referenced_type" : "type-3"
    }
   ],
   "return_type" : "type-3",
   "source_file" : "/system/core/libunwindstack/include/unwindstack/Memory.h"
  },
  {
   "function_name" : "unwindstack::MemoryRange::MemoryRange",
   "linker_set_key" : "_ZN11unwindstack11MemoryRangeC1ERKNSt3__110shared_ptrINS_6MemoryEEEyyy",
   "parameters" :
   [
    {
     "is_this_ptr" : true,
     "referenced_type" : "type-208"
    },
    {
     "referenced_type" : "type-560"
    },
    {
     "referenced_type" : "type-6"
    },
    {
     "referenced_type" : "type-6"
    },
    {
     "referenced_type" : "type-6"
    }
   ],
   "return_type" : "type-62",
   "source_file" : "/system/core/libunwindstack/include/unwindstack/Memory.h"
  },
  {
   "function_name" : "unwindstack::MemoryRange::MemoryRange",
   "linker_set_key" : "_ZN11unwindstack11MemoryRangeC2ERKNSt3__110shared_ptrINS_6MemoryEEEyyy",
   "parameters" :
   [
    {
     "is_this_ptr" : true,
     "referenced_type" : "type-208"
    },
    {
     "referenced_type" : "type-560"
    },
    {
     "referenced_type" : "type-6"
    },
    {
     "referenced_type" : "type-6"
    },
    {
     "referenced_type" : "type-6"
    }
   ],
   "return_type" : "type-62",
   "source_file" : "/system/core/libunwindstack/include/unwindstack/Memory.h"
  },
  {
   "function_name" : "unwindstack::DwarfSection::Step",
   "linker_set_key" : "_ZN11unwindstack12DwarfSection4StepEyPNS_4RegsEPNS_6MemoryEPb",
   "parameters" :
   [
    {
     "is_this_ptr" : true,
     "referenced_type" : "type-282"
    },
    {
     "referenced_type" : "type-6"
    },
    {
     "referenced_type" : "type-94"
    },
    {
     "referenced_type" : "type-17"
    },
    {
     "referenced_type" : "type-71"
    }
   ],
   "return_type" : "type-72",
   "source_file" : "/system/core/libunwindstack/include/unwindstack/DwarfSection.h"
  },
  {
   "function_name" : "unwindstack::DwarfSection::DwarfSection",
   "linker_set_key" : "_ZN11unwindstack12DwarfSectionC2EPNS_6MemoryE",
   "parameters" :
   [
    {
     "is_this_ptr" : true,
     "referenced_type" : "type-282"
    },
    {
     "referenced_type" : "type-17"
    }
   ],
   "return_type" : "type-62",
   "source_file" : "/system/core/libunwindstack/include/unwindstack/DwarfSection.h"
  },
  {
   "access" : "protected",
   "function_name" : "unwindstack::ElfInterface::ReadBuildID",
   "linker_set_key" : "_ZN11unwindstack12ElfInterface11ReadBuildIDI10elf32_noteEENSt3__112basic_stringIcNS3_11char_traitsIcEENS3_9allocatorIcEEEEv",
   "parameters" :
   [
    {
     "is_this_ptr" : true,
     "referenced_type" : "type-23"
    }
   ],
   "return_type" : "type-291",
   "source_file" : "/system/core/libunwindstack/include/unwindstack/ElfInterface.h",
   "template_args" : [ "type-292" ]
  },
  {
   "access" : "protected",
   "function_name" : "unwindstack::ElfInterface::ReadBuildID",
   "linker_set_key" : "_ZN11unwindstack12ElfInterface11ReadBuildIDI10elf64_noteEENSt3__112basic_stringIcNS3_11char_traitsIcEENS3_9allocatorIcEEEEv",
   "parameters" :
   [
    {
     "is_this_ptr" : true,
     "referenced_type" : "type-23"
    }
   ],
   "return_type" : "type-293",
   "source_file" : "/system/core/libunwindstack/include/unwindstack/ElfInterface.h",
   "template_args" : [ "type-294" ]
  },
  {
   "access" : "protected",
   "function_name" : "unwindstack::ElfInterface::ReadAllHeaders",
   "linker_set_key" : "_ZN11unwindstack12ElfInterface14ReadAllHeadersI9elf32_hdr10elf32_phdr10elf32_shdrEEbPy",
   "parameters" :
   [
    {
     "is_this_ptr" : true,
     "referenced_type" : "type-23"
    },
    {
     "referenced_type" : "type-102"
    }
   ],
   "return_type" : "type-72",
   "source_file" : "/system/core/libunwindstack/include/unwindstack/ElfInterface.h",
   "template_args" : [ "type-295", "type-296", "type-297" ]
  },
  {
   "access" : "protected",
   "function_name" : "unwindstack::ElfInterface::ReadAllHeaders",
   "linker_set_key" : "_ZN11unwindstack12ElfInterface14ReadAllHeadersI9elf64_hdr10elf64_phdr10elf64_shdrEEbPy",
   "parameters" :
   [
    {
     "is_this_ptr" : true,
     "referenced_type" : "type-23"
    },
    {
     "referenced_type" : "type-102"
    }
   ],
   "return_type" : "type-72",
   "source_file" : "/system/core/libunwindstack/include/unwindstack/ElfInterface.h",
   "template_args" : [ "type-298", "type-299", "type-300" ]
  },
  {
   "access" : "protected",
   "function_name" : "unwindstack::ElfInterface::ReadProgramHeaders",
   "linker_set_key" : "_ZN11unwindstack12ElfInterface18ReadProgramHeadersI9elf32_hdr10elf32_phdrEEvRKT_Py",
   "parameters" :
   [
    {
     "is_this_ptr" : true,
     "referenced_type" : "type-23"
    },
    {
     "referenced_type" : "type-122"
    },
    {
     "referenced_type" : "type-102"
    }
   ],
   "return_type" : "type-62",
   "source_file" : "/system/core/libunwindstack/include/unwindstack/ElfInterface.h",
   "template_args" : [ "type-301", "type-302" ]
  },
  {
   "access" : "protected",
   "function_name" : "unwindstack::ElfInterface::ReadProgramHeaders",
   "linker_set_key" : "_ZN11unwindstack12ElfInterface18ReadProgramHeadersI9elf64_hdr10elf64_phdrEEvRKT_Py",
   "parameters" :
   [
    {
     "is_this_ptr" : true,
     "referenced_type" : "type-23"
    },
    {
     "referenced_type" : "type-125"
    },
    {
     "referenced_type" : "type-102"
    }
   ],
   "return_type" : "type-62",
   "source_file" : "/system/core/libunwindstack/include/unwindstack/ElfInterface.h",
   "template_args" : [ "type-303", "type-304" ]
  },
  {
   "access" : "protected",
   "function_name" : "unwindstack::ElfInterface::ReadSectionHeaders",
   "linker_set_key" : "_ZN11unwindstack12ElfInterface18ReadSectionHeadersI9elf32_hdr10elf32_shdrEEvRKT_",
   "parameters" :
   [
    {
     "is_this_ptr" : true,
     "referenced_type" : "type-23"
    },
    {
     "referenced_type" : "type-122"
    }
   ],
   "return_type" : "type-62",
   "source_file" : "/system/core/libunwindstack/include/unwindstack/ElfInterface.h",
   "template_args" : [ "type-305", "type-306" ]
  },
  {
   "access" : "protected",
   "function_name" : "unwindstack::ElfInterface::ReadSectionHeaders",
   "linker_set_key" : "_ZN11unwindstack12ElfInterface18ReadSectionHeadersI9elf64_hdr10elf64_shdrEEvRKT_",
   "parameters" :
   [
    {
     "is_this_ptr" : true,
     "referenced_type" : "type-23"
    },
    {
     "referenced_type" : "type-125"
    }
   ],
   "return_type" : "type-62",
   "source_file" : "/system/core/libunwindstack/include/unwindstack/ElfInterface.h",
   "template_args" : [ "type-307", "type-308" ]
  },
  {
   "access" : "protected",
   "function_name" : "unwindstack::ElfInterface::GetSonameWithTemplate",
   "linker_set_key" : "_ZN11unwindstack12ElfInterface21GetSonameWithTemplateI7dynamicEENSt3__112basic_stringIcNS3_11char_traitsIcEENS3_9allocatorIcEEEEv",
   "parameters" :
   [
    {
     "is_this_ptr" : true,
     "referenced_type" : "type-23"
    }
   ],
   "return_type" : "type-309",
   "source_file" : "/system/core/libunwindstack/include/unwindstack/ElfInterface.h",
   "template_args" : [ "type-310" ]
  },
  {
   "access" : "protected",
   "function_name" : "unwindstack::ElfInterface::GetSonameWithTemplate",
   "linker_set_key" : "_ZN11unwindstack12ElfInterface21GetSonameWithTemplateI9Elf64_DynEENSt3__112basic_stringIcNS3_11char_traitsIcEENS3_9allocatorIcEEEEv",
   "parameters" :
   [
    {
     "is_this_ptr" : true,
     "referenced_type" : "type-23"
    }
   ],
   "return_type" : "type-311",
   "source_file" : "/system/core/libunwindstack/include/unwindstack/ElfInterface.h",
   "template_args" : [ "type-312" ]
  },
  {
   "access" : "protected",
   "function_name" : "unwindstack::ElfInterface::GetMaxSizeWithTemplate",
   "linker_set_key" : "_ZN11unwindstack12ElfInterface22GetMaxSizeWithTemplateI9elf32_hdrEEvPNS_6MemoryEPy",
   "parameters" :
   [
    {
     "referenced_type" : "type-17"
    },
    {
     "referenced_type" : "type-102"
    }
   ],
   "return_type" : "type-62",
   "source_file" : "/system/core/libunwindstack/include/unwindstack/ElfInterface.h",
   "template_args" : [ "type-313" ]
  },
  {
   "access" : "protected",
   "function_name" : "unwindstack::ElfInterface::GetMaxSizeWithTemplate",
   "linker_set_key" : "_ZN11unwindstack12ElfInterface22GetMaxSizeWithTemplateI9elf64_hdrEEvPNS_6MemoryEPy",
   "parameters" :
   [
    {
     "referenced_type" : "type-17"
    },
    {
     "referenced_type" : "type-102"
    }
   ],
   "return_type" : "type-62",
   "source_file" : "/system/core/libunwindstack/include/unwindstack/ElfInterface.h",
   "template_args" : [ "type-314" ]
  },
  {
   "access" : "protected",
   "function_name" : "unwindstack::ElfInterface::InitHeadersWithTemplate",
   "linker_set_key" : "_ZN11unwindstack12ElfInterface23InitHeadersWithTemplateIjEEvy",
   "parameters" :
   [
    {
     "is_this_ptr" : true,
     "referenced_type" : "type-23"
    },
    {
     "referenced_type" : "type-6"
    }
   ],
   "return_type" : "type-62",
   "source_file" : "/system/core/libunwindstack/include/unwindstack/ElfInterface.h",
   "template_args" : [ "type-3" ]
  },
  {
   "access" : "protected",
   "function_name" : "unwindstack::ElfInterface::InitHeadersWithTemplate",
   "linker_set_key" : "_ZN11unwindstack12ElfInterface23InitHeadersWithTemplateIyEEvy",
   "parameters" :
   [
    {
     "is_this_ptr" : true,
     "referenced_type" : "type-23"
    },
    {
     "referenced_type" : "type-6"
    }
   ],
   "return_type" : "type-62",
   "source_file" : "/system/core/libunwindstack/include/unwindstack/ElfInterface.h",
   "template_args" : [ "type-6" ]
  },
  {
   "function_name" : "unwindstack::ElfInterface::CreateGnuDebugdataMemory",
   "linker_set_key" : "_ZN11unwindstack12ElfInterface24CreateGnuDebugdataMemoryEv",
   "parameters" :
   [
    {
     "is_this_ptr" : true,
     "referenced_type" : "type-23"
    }
   ],
   "return_type" : "type-17",
   "source_file" : "/system/core/libunwindstack/include/unwindstack/ElfInterface.h"
  },
  {
   "access" : "protected",
   "function_name" : "unwindstack::ElfInterface::GetFunctionNameWithTemplate",
   "linker_set_key" : "_ZN11unwindstack12ElfInterface27GetFunctionNameWithTemplateI9elf32_symEEbyPNSt3__112basic_stringIcNS3_11char_traitsIcEENS3_9allocatorIcEEEEPy",
   "parameters" :
   [
    {
     "is_this_ptr" : true,
     "referenced_type" : "type-23"
    },
    {
     "referenced_type" : "type-6"
    },
    {
     "referenced_type" : "type-126"
    },
    {
     "referenced_type" : "type-102"
    }
   ],
   "return_type" : "type-72",
   "source_file" : "/system/core/libunwindstack/include/unwindstack/ElfInterface.h",
   "template_args" : [ "type-315" ]
  },
  {
   "access" : "protected",
   "function_name" : "unwindstack::ElfInterface::GetFunctionNameWithTemplate",
   "linker_set_key" : "_ZN11unwindstack12ElfInterface27GetFunctionNameWithTemplateI9elf64_symEEbyPNSt3__112basic_stringIcNS3_11char_traitsIcEENS3_9allocatorIcEEEEPy",
   "parameters" :
   [
    {
     "is_this_ptr" : true,
     "referenced_type" : "type-23"
    },
    {
     "referenced_type" : "type-6"
    },
    {
     "referenced_type" : "type-126"
    },
    {
     "referenced_type" : "type-102"
    }
   ],
   "return_type" : "type-72",
   "source_file" : "/system/core/libunwindstack/include/unwindstack/ElfInterface.h",
   "template_args" : [ "type-316" ]
  },
  {
   "access" : "protected",
   "function_name" : "unwindstack::ElfInterface::GetGlobalVariableWithTemplate",
   "linker_set_key" : "_ZN11unwindstack12ElfInterface29GetGlobalVariableWithTemplateI9elf32_symEEbRKNSt3__112basic_stringIcNS3_11char_traitsIcEENS3_9allocatorIcEEEEPy",
   "parameters" :
   [
    {
     "is_this_ptr" : true,
     "referenced_type" : "type-23"
    },
    {
     "referenced_type" : "type-131"
    },
    {
     "referenced_type" : "type-102"
    }
   ],
   "return_type" : "type-72",
   "source_file" : "/system/core/libunwindstack/include/unwindstack/ElfInterface.h",
   "template_args" : [ "type-317" ]
  },
  {
   "access" : "protected",
   "function_name" : "unwindstack::ElfInterface::GetGlobalVariableWithTemplate",
   "linker_set_key" : "_ZN11unwindstack12ElfInterface29GetGlobalVariableWithTemplateI9elf64_symEEbRKNSt3__112basic_stringIcNS3_11char_traitsIcEENS3_9allocatorIcEEEEPy",
   "parameters" :
   [
    {
     "is_this_ptr" : true,
     "referenced_type" : "type-23"
    },
    {
     "referenced_type" : "type-131"
    },
    {
     "referenced_type" : "type-102"
    }
   ],
   "return_type" : "type-72",
   "source_file" : "/system/core/libunwindstack/include/unwindstack/ElfInterface.h",
   "template_args" : [ "type-318" ]
  },
  {
   "function_name" : "unwindstack::ElfInterface::Step",
   "linker_set_key" : "_ZN11unwindstack12ElfInterface4StepEyPNS_4RegsEPNS_6MemoryEPb",
   "parameters" :
   [
    {
     "is_this_ptr" : true,
     "referenced_type" : "type-23"
    },
    {
     "referenced_type" : "type-6"
    },
    {
     "referenced_type" : "type-94"
    },
    {
     "referenced_type" : "type-17"
    },
    {
     "referenced_type" : "type-71"
    }
   ],
   "return_type" : "type-72",
   "source_file" : "/system/core/libunwindstack/include/unwindstack/ElfInterface.h"
  },
  {
   "function_name" : "unwindstack::ElfInterface::IsValidPc",
   "linker_set_key" : "_ZN11unwindstack12ElfInterface9IsValidPcEy",
   "parameters" :
   [
    {
     "is_this_ptr" : true,
     "referenced_type" : "type-23"
    },
    {
     "referenced_type" : "type-6"
    }
   ],
   "return_type" : "type-72",
   "source_file" : "/system/core/libunwindstack/include/unwindstack/ElfInterface.h"
  },
  {
   "function_name" : "unwindstack::ElfInterface::~ElfInterface",
   "linker_set_key" : "_ZN11unwindstack12ElfInterfaceD0Ev",
   "parameters" :
   [
    {
     "is_this_ptr" : true,
     "referenced_type" : "type-23"
    }
   ],
   "return_type" : "type-62",
   "source_file" : "/system/core/libunwindstack/include/unwindstack/ElfInterface.h"
  },
  {
   "function_name" : "unwindstack::ElfInterface::~ElfInterface",
   "linker_set_key" : "_ZN11unwindstack12ElfInterfaceD1Ev",
   "parameters" :
   [
    {
     "is_this_ptr" : true,
     "referenced_type" : "type-23"
    }
   ],
   "return_type" : "type-62",
   "source_file" : "/system/core/libunwindstack/include/unwindstack/ElfInterface.h"
  },
  {
   "function_name" : "unwindstack::ElfInterface::~ElfInterface",
   "linker_set_key" : "_ZN11unwindstack12ElfInterfaceD2Ev",
   "parameters" :
   [
    {
     "is_this_ptr" : true,
     "referenced_type" : "type-23"
    }
   ],
   "return_type" : "type-62",
   "source_file" : "/system/core/libunwindstack/include/unwindstack/ElfInterface.h"
  },
  {
   "function_name" : "unwindstack::MemoryBuffer::Read",
   "linker_set_key" : "_ZN11unwindstack12MemoryBuffer4ReadEyPvj",
   "parameters" :
   [
    {
     "is_this_ptr" : true,
     "referenced_type" : "type-140"
    },
    {
     "referenced_type" : "type-6"
    },
    {
     "referenced_type" : "type-61"
    },
    {
     "referenced_type" : "type-3"
    }
   ],
   "return_type" : "type-3",
   "source_file" : "/system/core/libunwindstack/include/unwindstack/Memory.h"
  },
  {
   "function_name" : "unwindstack::MemoryBuffer::GetPtr",
   "linker_set_key" : "_ZN11unwindstack12MemoryBuffer6GetPtrEj",
   "parameters" :
   [
    {
     "is_this_ptr" : true,
     "referenced_type" : "type-140"
    },
    {
     "referenced_type" : "type-3"
    }
   ],
   "return_type" : "type-142",
   "source_file" : "/system/core/libunwindstack/include/unwindstack/Memory.h"
  },
  {
   "function_name" : "unwindstack::MemoryRanges::Read",
   "linker_set_key" : "_ZN11unwindstack12MemoryRanges4ReadEyPvj",
   "parameters" :
   [
    {
     "is_this_ptr" : true,
     "referenced_type" : "type-225"
    },
    {
     "referenced_type" : "type-6"
    },
    {
     "referenced_type" : "type-61"
    },
    {
     "referenced_type" : "type-3"
    }
   ],
   "return_type" : "type-3",
   "source_file" : "/system/core/libunwindstack/include/unwindstack/Memory.h"
  },
  {
   "function_name" : "unwindstack::MemoryRanges::Insert",
   "linker_set_key" : "_ZN11unwindstack12MemoryRanges6InsertEPNS_11MemoryRangeE",
   "parameters" :
   [
    {
     "is_this_ptr" : true,
     "referenced_type" : "type-225"
    },
    {
     "referenced_type" : "type-208"
    }
   ],
   "return_type" : "type-62",
   "source_file" : "/system/core/libunwindstack/include/unwindstack/Memory.h"
  },
  {
   "function_name" : "unwindstack::MemoryRemote::Read",
   "linker_set_key" : "_ZN11unwindstack12MemoryRemote4ReadEyPvj",
   "parameters" :
   [
    {
     "is_this_ptr" : true,
     "referenced_type" : "type-181"
    },
    {
     "referenced_type" : "type-6"
    },
    {
     "referenced_type" : "type-61"
    },
    {
     "referenced_type" : "type-3"
    }
   ],
   "return_type" : "type-3",
   "source_file" : "/system/core/libunwindstack/include/unwindstack/Memory.h"
  },
  {
   "function_name" : "unwindstack::LocalUnwinder::GetMapInfo",
   "linker_set_key" : "_ZN11unwindstack13LocalUnwinder10GetMapInfoEy",
   "parameters" :
   [
    {
     "is_this_ptr" : true,
     "referenced_type" : "type-576"
    },
    {
     "referenced_type" : "type-6"
    }
   ],
   "return_type" : "type-81",
   "source_file" : "/system/core/libunwindstack/include/unwindstack/LocalUnwinder.h"
  },
  {
   "function_name" : "unwindstack::LocalUnwinder::ShouldSkipLibrary",
   "linker_set_key" : "_ZN11unwindstack13LocalUnwinder17ShouldSkipLibraryERKNSt3__112basic_stringIcNS1_11char_traitsIcEENS1_9allocatorIcEEEE",
   "parameters" :
   [
    {
     "is_this_ptr" : true,
     "referenced_type" : "type-576"
    },
    {
     "referenced_type" : "type-590"
    }
   ],
   "return_type" : "type-72",
   "source_file" : "/system/core/libunwindstack/include/unwindstack/LocalUnwinder.h"
  },
  {
   "function_name" : "unwindstack::LocalUnwinder::Init",
   "linker_set_key" : "_ZN11unwindstack13LocalUnwinder4InitEv",
   "parameters" :
   [
    {
     "is_this_ptr" : true,
     "referenced_type" : "type-576"
    }
   ],
   "return_type" : "type-72",
   "source_file" : "/system/core/libunwindstack/include/unwindstack/LocalUnwinder.h"
  },
  {
   "function_name" : "unwindstack::LocalUnwinder::Unwind",
   "linker_set_key" : "_ZN11unwindstack13LocalUnwinder6UnwindEPNSt3__16vectorINS_14LocalFrameDataENS1_9allocatorIS3_EEEEj",
   "parameters" :
   [
    {
     "is_this_ptr" : true,
     "referenced_type" : "type-576"
    },
    {
     "referenced_type" : "type-580"
    },
    {
     "referenced_type" : "type-3"
    }
   ],
   "return_type" : "type-72",
   "source_file" : "/system/core/libunwindstack/include/unwindstack/LocalUnwinder.h"
  },
  {
   "function_name" : "unwindstack::MemoryOffline::Init",
   "linker_set_key" : "_ZN11unwindstack13MemoryOffline4InitERKNSt3__112basic_stringIcNS1_11char_traitsIcEENS1_9allocatorIcEEEEy",
   "parameters" :
   [
    {
     "is_this_ptr" : true,
     "referenced_type" : "type-236"
    },
    {
     "referenced_type" : "type-557"
    },
    {
     "referenced_type" : "type-6"
    }
   ],
   "return_type" : "type-72",
   "source_file" : "/system/core/libunwindstack/include/unwindstack/Memory.h"
  },
  {
   "function_name" : "unwindstack::MemoryOffline::Read",
   "linker_set_key" : "_ZN11unwindstack13MemoryOffline4ReadEyPvj",
   "parameters" :
   [
    {
     "is_this_ptr" : true,
     "referenced_type" : "type-236"
    },
    {
     "referenced_type" : "type-6"
    },
    {
     "referenced_type" : "type-61"
    },
    {
     "referenced_type" : "type-3"
    }
   ],
   "return_type" : "type-3",
   "source_file" : "/system/core/libunwindstack/include/unwindstack/Memory.h"
  },
  {
   "function_name" : "unwindstack::log_to_stdout",
   "linker_set_key" : "_ZN11unwindstack13log_to_stdoutEb",
   "parameters" :
   [
    {
     "referenced_type" : "type-72"
    }
   ],
   "return_type" : "type-62",
   "source_file" : "/system/core/libunwindstack/include/unwindstack/Log.h"
  },
  {
   "function_name" : "unwindstack::UnwinderFromPid::Init",
   "linker_set_key" : "_ZN11unwindstack15UnwinderFromPid4InitENS_8ArchEnumE",
   "parameters" :
   [
    {
     "is_this_ptr" : true,
     "referenced_type" : "type-780"
    },
    {
     "referenced_type" : "type-34"
    }
   ],
   "return_type" : "type-72",
   "source_file" : "/system/core/libunwindstack/include/unwindstack/Unwinder.h"
  },
  {
   "function_name" : "unwindstack::DwarfSectionImpl<unsigned int>::DwarfSectionImpl",
   "linker_set_key" : "_ZN11unwindstack16DwarfSectionImplIjEC2EPNS_6MemoryE",
   "parameters" :
   [
    {
     "is_this_ptr" : true,
     "referenced_type" : "type-55"
    },
    {
     "referenced_type" : "type-17"
    }
   ],
   "return_type" : "type-62",
   "source_file" : "/system/core/libunwindstack/include/unwindstack/DwarfSection.h"
  },
  {
   "function_name" : "unwindstack::DwarfSectionImpl<unsigned int>::~DwarfSectionImpl",
   "linker_set_key" : "_ZN11unwindstack16DwarfSectionImplIjED0Ev",
   "parameters" :
   [
    {
     "is_this_ptr" : true,
     "referenced_type" : "type-55"
    }
   ],
   "return_type" : "type-62",
   "source_file" : "/system/core/libunwindstack/include/unwindstack/DwarfSection.h"
  },
  {
   "function_name" : "unwindstack::DwarfSectionImpl<unsigned long long>::DwarfSectionImpl",
   "linker_set_key" : "_ZN11unwindstack16DwarfSectionImplIyEC2EPNS_6MemoryE",
   "parameters" :
   [
    {
     "is_this_ptr" : true,
     "referenced_type" : "type-57"
    },
    {
     "referenced_type" : "type-17"
    }
   ],
   "return_type" : "type-62",
   "source_file" : "/system/core/libunwindstack/include/unwindstack/DwarfSection.h"
  },
  {
   "function_name" : "unwindstack::DwarfSectionImpl<unsigned long long>::~DwarfSectionImpl",
   "linker_set_key" : "_ZN11unwindstack16DwarfSectionImplIyED0Ev",
   "parameters" :
   [
    {
     "is_this_ptr" : true,
     "referenced_type" : "type-57"
    }
   ],
   "return_type" : "type-62",
   "source_file" : "/system/core/libunwindstack/include/unwindstack/DwarfSection.h"
  },
  {
   "function_name" : "unwindstack::LocalUpdatableMaps::Reparse",
   "linker_set_key" : "_ZN11unwindstack18LocalUpdatableMaps7ReparseEv",
   "parameters" :
   [
    {
     "is_this_ptr" : true,
     "referenced_type" : "type-182"
    }
   ],
   "return_type" : "type-72",
   "source_file" : "/system/core/libunwindstack/include/unwindstack/Maps.h"
  },
  {
   "function_name" : "unwindstack::MemoryFileAtOffset::Init",
   "linker_set_key" : "_ZN11unwindstack18MemoryFileAtOffset4InitERKNSt3__112basic_stringIcNS1_11char_traitsIcEENS1_9allocatorIcEEEEyy",
   "parameters" :
   [
    {
     "is_this_ptr" : true,
     "referenced_type" : "type-146"
    },
    {
     "referenced_type" : "type-557"
    },
    {
     "referenced_type" : "type-6"
    },
    {
     "default_arg" : true,
     "referenced_type" : "type-6"
    }
   ],
   "return_type" : "type-72",
   "source_file" : "/system/core/libunwindstack/include/unwindstack/Memory.h"
  },
  {
   "function_name" : "unwindstack::MemoryFileAtOffset::Read",
   "linker_set_key" : "_ZN11unwindstack18MemoryFileAtOffset4ReadEyPvj",
   "parameters" :
   [
    {
     "is_this_ptr" : true,
     "referenced_type" : "type-146"
    },
    {
     "referenced_type" : "type-6"
    },
    {
     "referenced_type" : "type-61"
    },
    {
     "referenced_type" : "type-3"
    }
   ],
   "return_type" : "type-3",
   "source_file" : "/system/core/libunwindstack/include/unwindstack/Memory.h"
  },
  {
   "function_name" : "unwindstack::MemoryFileAtOffset::Clear",
   "linker_set_key" : "_ZN11unwindstack18MemoryFileAtOffset5ClearEv",
   "parameters" :
   [
    {
     "is_this_ptr" : true,
     "referenced_type" : "type-146"
    }
   ],
   "return_type" : "type-62",
   "source_file" : "/system/core/libunwindstack/include/unwindstack/Memory.h"
  },
  {
   "function_name" : "unwindstack::MemoryFileAtOffset::~MemoryFileAtOffset",
   "linker_set_key" : "_ZN11unwindstack18MemoryFileAtOffsetD0Ev",
   "parameters" :
   [
    {
     "is_this_ptr" : true,
     "referenced_type" : "type-146"
    }
   ],
   "return_type" : "type-62",
   "source_file" : "/system/core/libunwindstack/include/unwindstack/Memory.h"
  },
  {
   "function_name" : "unwindstack::MemoryFileAtOffset::~MemoryFileAtOffset",
   "linker_set_key" : "_ZN11unwindstack18MemoryFileAtOffsetD1Ev",
   "parameters" :
   [
    {
     "is_this_ptr" : true,
     "referenced_type" : "type-146"
    }
   ],
   "return_type" : "type-62",
   "source_file" : "/system/core/libunwindstack/include/unwindstack/Memory.h"
  },
  {
   "function_name" : "unwindstack::MemoryFileAtOffset::~MemoryFileAtOffset",
   "linker_set_key" : "_ZN11unwindstack18MemoryFileAtOffsetD2Ev",
   "parameters" :
   [
    {
     "is_this_ptr" : true,
     "referenced_type" : "type-146"
    }
   ],
   "return_type" : "type-62",
   "source_file" : "/system/core/libunwindstack/include/unwindstack/Memory.h"
  },
  {
   "function_name" : "unwindstack::MemoryOfflineParts::Read",
   "linker_set_key" : "_ZN11unwindstack18MemoryOfflineParts4ReadEyPvj",
   "parameters" :
   [
    {
     "is_this_ptr" : true,
     "referenced_type" : "type-260"
    },
    {
     "referenced_type" : "type-6"
    },
    {
     "referenced_type" : "type-61"
    },
    {
     "referenced_type" : "type-3"
    }
   ],
   "return_type" : "type-3",
   "source_file" : "/system/core/libunwindstack/include/unwindstack/Memory.h"
  },
  {
   "function_name" : "unwindstack::MemoryOfflineParts::~MemoryOfflineParts",
   "linker_set_key" : "_ZN11unwindstack18MemoryOfflinePartsD0Ev",
   "parameters" :
   [
    {
     "is_this_ptr" : true,
     "referenced_type" : "type-260"
    }
   ],
   "return_type" : "type-62",
   "source_file" : "/system/core/libunwindstack/include/unwindstack/Memory.h"
  },
  {
   "function_name" : "unwindstack::MemoryOfflineParts::~MemoryOfflineParts",
   "linker_set_key" : "_ZN11unwindstack18MemoryOfflinePartsD1Ev",
   "parameters" :
   [
    {
     "is_this_ptr" : true,
     "referenced_type" : "type-260"
    }
   ],
   "return_type" : "type-62",
   "source_file" : "/system/core/libunwindstack/include/unwindstack/Memory.h"
  },
  {
   "function_name" : "unwindstack::MemoryOfflineParts::~MemoryOfflineParts",
   "linker_set_key" : "_ZN11unwindstack18MemoryOfflinePartsD2Ev",
   "parameters" :
   [
    {
     "is_this_ptr" : true,
     "referenced_type" : "type-260"
    }
   ],
   "return_type" : "type-62",
   "source_file" : "/system/core/libunwindstack/include/unwindstack/Memory.h"
  },
  {
   "function_name" : "unwindstack::MemoryOfflineBuffer::Read",
   "linker_set_key" : "_ZN11unwindstack19MemoryOfflineBuffer4ReadEyPvj",
   "parameters" :
   [
    {
     "is_this_ptr" : true,
     "referenced_type" : "type-250"
    },
    {
     "referenced_type" : "type-6"
    },
    {
     "referenced_type" : "type-61"
    },
    {
     "referenced_type" : "type-3"
    }
   ],
   "return_type" : "type-3",
   "source_file" : "/system/core/libunwindstack/include/unwindstack/Memory.h"
  },
  {
   "function_name" : "unwindstack::MemoryOfflineBuffer::Reset",
   "linker_set_key" : "_ZN11unwindstack19MemoryOfflineBuffer5ResetEPKhyy",
   "parameters" :
   [
    {
     "is_this_ptr" : true,
     "referenced_type" : "type-250"
    },
    {
     "referenced_type" : "type-238"
    },
    {
     "referenced_type" : "type-6"
    },
    {
     "referenced_type" : "type-6"
    }
   ],
   "return_type" : "type-62",
   "source_file" : "/system/core/libunwindstack/include/unwindstack/Memory.h"
  },
  {
   "function_name" : "unwindstack::MemoryOfflineBuffer::MemoryOfflineBuffer",
   "linker_set_key" : "_ZN11unwindstack19MemoryOfflineBufferC1EPKhyy",
   "parameters" :
   [
    {
     "is_this_ptr" : true,
     "referenced_type" : "type-250"
    },
    {
     "referenced_type" : "type-238"
    },
    {
     "referenced_type" : "type-6"
    },
    {
     "referenced_type" : "type-6"
    }
   ],
   "return_type" : "type-62",
   "source_file" : "/system/core/libunwindstack/include/unwindstack/Memory.h"
  },
  {
   "function_name" : "unwindstack::MemoryOfflineBuffer::MemoryOfflineBuffer",
   "linker_set_key" : "_ZN11unwindstack19MemoryOfflineBufferC2EPKhyy",
   "parameters" :
   [
    {
     "is_this_ptr" : true,
     "referenced_type" : "type-250"
    },
    {
     "referenced_type" : "type-238"
    },
    {
     "referenced_type" : "type-6"
    },
    {
     "referenced_type" : "type-6"
    }
   ],
   "return_type" : "type-62",
   "source_file" : "/system/core/libunwindstack/include/unwindstack/Memory.h"
  },
  {
   "function_name" : "unwindstack::DwarfSectionImplNoHdr<unsigned int>::DwarfSectionImplNoHdr",
   "linker_set_key" : "_ZN11unwindstack21DwarfSectionImplNoHdrIjEC2EPNS_6MemoryE",
   "parameters" :
   [
    {
     "is_this_ptr" : true,
     "referenced_type" : "type-111"
    },
    {
     "referenced_type" : "type-17"
    }
   ],
   "return_type" : "type-62",
   "source_file" : "/system/core/libunwindstack/include/unwindstack/DwarfSection.h"
  },
  {
   "function_name" : "unwindstack::DwarfSectionImplNoHdr<unsigned long long>::DwarfSectionImplNoHdr",
   "linker_set_key" : "_ZN11unwindstack21DwarfSectionImplNoHdrIyEC2EPNS_6MemoryE",
   "parameters" :
   [
    {
     "is_this_ptr" : true,
     "referenced_type" : "type-115"
    },
    {
     "referenced_type" : "type-17"
    }
   ],
   "return_type" : "type-62",
   "source_file" : "/system/core/libunwindstack/include/unwindstack/DwarfSection.h"
  },
  {
   "function_name" : "unwindstack::Elf::GetBuildID",
   "linker_set_key" : "_ZN11unwindstack3Elf10GetBuildIDEPNS_6MemoryE",
   "parameters" :
   [
    {
     "referenced_type" : "type-17"
    }
   ],
   "return_type" : "type-323",
   "source_file" : "/system/core/libunwindstack/include/unwindstack/Elf.h"
  },
  {
   "function_name" : "unwindstack::Elf::GetBuildID",
   "linker_set_key" : "_ZN11unwindstack3Elf10GetBuildIDEv",
   "parameters" :
   [
    {
     "is_this_ptr" : true,
     "referenced_type" : "type-191"
    }
   ],
   "return_type" : "type-324",
   "source_file" : "/system/core/libunwindstack/include/unwindstack/Elf.h"
  },
  {
   "function_name" : "unwindstack::Elf::Invalidate",
   "linker_set_key" : "_ZN11unwindstack3Elf10InvalidateEv",
   "parameters" :
   [
    {
     "is_this_ptr" : true,
     "referenced_type" : "type-191"
    }
   ],
   "return_type" : "type-62",
   "source_file" : "/system/core/libunwindstack/include/unwindstack/Elf.h"
  },
  {
   "function_name" : "unwindstack::Elf::IsValidElf",
   "linker_set_key" : "_ZN11unwindstack3Elf10IsValidElfEPNS_6MemoryE",
   "parameters" :
   [
    {
     "referenced_type" : "type-17"
    }
   ],
   "return_type" : "type-72",
   "source_file" : "/system/core/libunwindstack/include/unwindstack/Elf.h"
  },
  {
   "function_name" : "unwindstack::Elf::CacheUnlock",
   "linker_set_key" : "_ZN11unwindstack3Elf11CacheUnlockEv",
   "return_type" : "type-62",
   "source_file" : "/system/core/libunwindstack/include/unwindstack/Elf.h"
  },
  {
   "function_name" : "unwindstack::Elf::GetLoadBias",
   "linker_set_key" : "_ZN11unwindstack3Elf11GetLoadBiasEPNS_6MemoryE",
   "parameters" :
   [
    {
     "referenced_type" : "type-17"
    }
   ],
   "return_type" : "type-6",
   "source_file" : "/system/core/libunwindstack/include/unwindstack/Elf.h"
  },
  {
   "function_name" : "unwindstack::Elf::GetLastError",
   "linker_set_key" : "_ZN11unwindstack3Elf12GetLastErrorEPNS_9ErrorDataE",
   "parameters" :
   [
    {
     "is_this_ptr" : true,
     "referenced_type" : "type-191"
    },
    {
     "referenced_type" : "type-86"
    }
   ],
   "return_type" : "type-62",
   "source_file" : "/system/core/libunwindstack/include/unwindstack/Elf.h"
  },
  {
   "function_name" : "unwindstack::Elf::GetFunctionName",
   "linker_set_key" : "_ZN11unwindstack3Elf15GetFunctionNameEyPNSt3__112basic_stringIcNS1_11char_traitsIcEENS1_9allocatorIcEEEEPy",
   "parameters" :
   [
    {
     "is_this_ptr" : true,
     "referenced_type" : "type-191"
    },
    {
     "referenced_type" : "type-6"
    },
    {
     "referenced_type" : "type-98"
    },
    {
     "referenced_type" : "type-102"
    }
   ],
   "return_type" : "type-72",
   "source_file" : "/system/core/libunwindstack/include/unwindstack/Elf.h"
  },
  {
   "function_name" : "unwindstack::Elf::GetLastErrorCode",
   "linker_set_key" : "_ZN11unwindstack3Elf16GetLastErrorCodeEv",
   "parameters" :
   [
    {
     "is_this_ptr" : true,
     "referenced_type" : "type-191"
    }
   ],
   "return_type" : "type-13",
   "source_file" : "/system/core/libunwindstack/include/unwindstack/Elf.h"
  },
  {
   "function_name" : "unwindstack::Elf::InitGnuDebugdata",
   "linker_set_key" : "_ZN11unwindstack3Elf16InitGnuDebugdataEv",
   "parameters" :
   [
    {
     "is_this_ptr" : true,
     "referenced_type" : "type-191"
    }
   ],
   "return_type" : "type-62",
   "source_file" : "/system/core/libunwindstack/include/unwindstack/Elf.h"
  },
  {
   "function_name" : "unwindstack::Elf::GetGlobalVariable",
   "linker_set_key" : "_ZN11unwindstack3Elf17GetGlobalVariableERKNSt3__112basic_stringIcNS1_11char_traitsIcEENS1_9allocatorIcEEEEPy",
   "parameters" :
   [
    {
     "is_this_ptr" : true,
     "referenced_type" : "type-191"
    },
    {
     "referenced_type" : "type-104"
    },
    {
     "referenced_type" : "type-102"
    }
   ],
   "return_type" : "type-72",
   "source_file" : "/system/core/libunwindstack/include/unwindstack/Elf.h"
  },
  {
   "function_name" : "unwindstack::Elf::SetCachingEnabled",
   "linker_set_key" : "_ZN11unwindstack3Elf17SetCachingEnabledEb",
   "parameters" :
   [
    {
     "referenced_type" : "type-72"
    }
   ],
   "return_type" : "type-62",
   "source_file" : "/system/core/libunwindstack/include/unwindstack/Elf.h"
  },
  {
   "function_name" : "unwindstack::Elf::GetLastErrorAddress",
   "linker_set_key" : "_ZN11unwindstack3Elf19GetLastErrorAddressEv",
   "parameters" :
   [
    {
     "is_this_ptr" : true,
     "referenced_type" : "type-191"
    }
   ],
   "return_type" : "type-6",
   "source_file" : "/system/core/libunwindstack/include/unwindstack/Elf.h"
  },
  {
   "function_name" : "unwindstack::Elf::StepIfSignalHandler",
   "linker_set_key" : "_ZN11unwindstack3Elf19StepIfSignalHandlerEyPNS_4RegsEPNS_6MemoryE",
   "parameters" :
   [
    {
     "is_this_ptr" : true,
     "referenced_type" : "type-191"
    },
    {
     "referenced_type" : "type-6"
    },
    {
     "referenced_type" : "type-94"
    },
    {
     "referenced_type" : "type-17"
    }
   ],
   "return_type" : "type-72",
   "source_file" : "/system/core/libunwindstack/include/unwindstack/Elf.h"
  },
  {
   "function_name" : "unwindstack::Elf::CacheAfterCreateMemory",
   "linker_set_key" : "_ZN11unwindstack3Elf22CacheAfterCreateMemoryEPNS_7MapInfoE",
   "parameters" :
   [
    {
     "referenced_type" : "type-81"
    }
   ],
   "return_type" : "type-72",
   "source_file" : "/system/core/libunwindstack/include/unwindstack/Elf.h"
  },
  {
   "function_name" : "unwindstack::Elf::CreateInterfaceFromMemory",
   "linker_set_key" : "_ZN11unwindstack3Elf25CreateInterfaceFromMemoryEPNS_6MemoryE",
   "parameters" :
   [
    {
     "is_this_ptr" : true,
     "referenced_type" : "type-191"
    },
    {
     "referenced_type" : "type-17"
    }
   ],
   "return_type" : "type-23",
   "source_file" : "/system/core/libunwindstack/include/unwindstack/Elf.h"
  },
  {
   "function_name" : "unwindstack::Elf::Init",
   "linker_set_key" : "_ZN11unwindstack3Elf4InitEv",
   "parameters" :
   [
    {
     "is_this_ptr" : true,
     "referenced_type" : "type-191"
    }
   ],
   "return_type" : "type-72",
   "source_file" : "/system/core/libunwindstack/include/unwindstack/Elf.h"
  },
  {
   "function_name" : "unwindstack::Elf::Step",
   "linker_set_key" : "_ZN11unwindstack3Elf4StepEyPNS_4RegsEPNS_6MemoryEPb",
   "parameters" :
   [
    {
     "is_this_ptr" : true,
     "referenced_type" : "type-191"
    },
    {
     "referenced_type" : "type-6"
    },
    {
     "referenced_type" : "type-94"
    },
    {
     "referenced_type" : "type-17"
    },
    {
     "referenced_type" : "type-71"
    }
   ],
   "return_type" : "type-72",
   "source_file" : "/system/core/libunwindstack/include/unwindstack/Elf.h"
  },
  {
   "function_name" : "unwindstack::Elf::GetInfo",
   "linker_set_key" : "_ZN11unwindstack3Elf7GetInfoEPNS_6MemoryEPy",
   "parameters" :
   [
    {
     "referenced_type" : "type-17"
    },
    {
     "referenced_type" : "type-102"
    }
   ],
   "return_type" : "type-72",
   "source_file" : "/system/core/libunwindstack/include/unwindstack/Elf.h"
  },
  {
   "function_name" : "unwindstack::Elf::CacheAdd",
   "linker_set_key" : "_ZN11unwindstack3Elf8CacheAddEPNS_7MapInfoE",
   "parameters" :
   [
    {
     "referenced_type" : "type-81"
    }
   ],
   "return_type" : "type-62",
   "source_file" : "/system/core/libunwindstack/include/unwindstack/Elf.h"
  },
  {
   "function_name" : "unwindstack::Elf::CacheGet",
   "linker_set_key" : "_ZN11unwindstack3Elf8CacheGetEPNS_7MapInfoE",
   "parameters" :
   [
    {
     "referenced_type" : "type-81"
    }
   ],
   "return_type" : "type-72",
   "source_file" : "/system/core/libunwindstack/include/unwindstack/Elf.h"
  },
  {
   "function_name" : "unwindstack::Elf::GetRelPc",
   "linker_set_key" : "_ZN11unwindstack3Elf8GetRelPcEyPKNS_7MapInfoE",
   "parameters" :
   [
    {
     "is_this_ptr" : true,
     "referenced_type" : "type-191"
    },
    {
     "referenced_type" : "type-6"
    },
    {
     "referenced_type" : "type-85"
    }
   ],
   "return_type" : "type-6",
   "source_file" : "/system/core/libunwindstack/include/unwindstack/Elf.h"
  },
  {
   "function_name" : "unwindstack::Elf::CacheLock",
   "linker_set_key" : "_ZN11unwindstack3Elf9CacheLockEv",
   "return_type" : "type-62",
   "source_file" : "/system/core/libunwindstack/include/unwindstack/Elf.h"
  },
  {
   "function_name" : "unwindstack::Elf::GetSoname",
   "linker_set_key" : "_ZN11unwindstack3Elf9GetSonameEv",
   "parameters" :
   [
    {
     "is_this_ptr" : true,
     "referenced_type" : "type-191"
    }
   ],
   "return_type" : "type-325",
   "source_file" : "/system/core/libunwindstack/include/unwindstack/Elf.h"
  },
  {
   "function_name" : "unwindstack::Elf::IsValidPc",
   "linker_set_key" : "_ZN11unwindstack3Elf9IsValidPcEy",
   "parameters" :
   [
    {
     "is_this_ptr" : true,
     "referenced_type" : "type-191"
    },
    {
     "referenced_type" : "type-6"
    }
   ],
   "return_type" : "type-72",
   "source_file" : "/system/core/libunwindstack/include/unwindstack/Elf.h"
  },
  {
   "function_name" : "unwindstack::log",
   "linker_set_key" : "_ZN11unwindstack3logEhPKcz",
   "parameters" :
   [
    {
     "referenced_type" : "type-10"
    },
    {
     "referenced_type" : "type-93"
    }
   ],
   "return_type" : "type-62",
   "source_file" : "/system/core/libunwindstack/include/unwindstack/Log.h"
  },
  {
   "function_name" : "unwindstack::Maps::Add",
   "linker_set_key" : "_ZN11unwindstack4Maps3AddEyyyyRKNSt3__112basic_stringIcNS1_11char_traitsIcEENS1_9allocatorIcEEEEy",
   "parameters" :
   [
    {
     "is_this_ptr" : true,
     "referenced_type" : "type-169"
    },
    {
     "referenced_type" : "type-6"
    },
    {
     "referenced_type" : "type-6"
    },
    {
     "referenced_type" : "type-6"
    },
    {
     "referenced_type" : "type-6"
    },
    {
     "referenced_type" : "type-277"
    },
    {
     "referenced_type" : "type-6"
    }
   ],
   "return_type" : "type-62",
   "source_file" : "/system/core/libunwindstack/include/unwindstack/Maps.h"
  },
  {
   "function_name" : "unwindstack::Maps::Find",
   "linker_set_key" : "_ZN11unwindstack4Maps4FindEy",
   "parameters" :
   [
    {
     "is_this_ptr" : true,
     "referenced_type" : "type-169"
    },
    {
     "referenced_type" : "type-6"
    }
   ],
   "return_type" : "type-81",
   "source_file" : "/system/core/libunwindstack/include/unwindstack/Maps.h"
  },
  {
   "function_name" : "unwindstack::Maps::Sort",
   "linker_set_key" : "_ZN11unwindstack4Maps4SortEv",
   "parameters" :
   [
    {
     "is_this_ptr" : true,
     "referenced_type" : "type-169"
    }
   ],
   "return_type" : "type-62",
   "source_file" : "/system/core/libunwindstack/include/unwindstack/Maps.h"
  },
  {
   "function_name" : "unwindstack::Maps::Parse",
   "linker_set_key" : "_ZN11unwindstack4Maps5ParseEv",
   "parameters" :
   [
    {
     "is_this_ptr" : true,
     "referenced_type" : "type-169"
    }
   ],
   "return_type" : "type-72",
   "source_file" : "/system/core/libunwindstack/include/unwindstack/Maps.h"
  },
  {
   "function_name" : "unwindstack::Regs::CurrentArch",
   "linker_set_key" : "_ZN11unwindstack4Regs11CurrentArchEv",
   "return_type" : "type-34",
   "source_file" : "/system/core/libunwindstack/include/unwindstack/Regs.h"
  },
  {
   "function_name" : "unwindstack::Regs::CreateFromLocal",
   "linker_set_key" : "_ZN11unwindstack4Regs15CreateFromLocalEv",
   "return_type" : "type-94",
   "source_file" : "/system/core/libunwindstack/include/unwindstack/Regs.h"
  },
  {
   "function_name" : "unwindstack::Regs::CreateFromUcontext",
   "linker_set_key" : "_ZN11unwindstack4Regs18CreateFromUcontextENS_8ArchEnumEPv",
   "parameters" :
   [
    {
     "referenced_type" : "type-34"
    },
    {
     "referenced_type" : "type-61"
    }
   ],
   "return_type" : "type-94",
   "source_file" : "/system/core/libunwindstack/include/unwindstack/Regs.h"
  },
  {
   "function_name" : "unwindstack::Regs::RemoteGet",
   "linker_set_key" : "_ZN11unwindstack4Regs9RemoteGetEi",
   "parameters" :
   [
    {
     "referenced_type" : "type-153"
    }
   ],
   "return_type" : "type-94",
   "source_file" : "/system/core/libunwindstack/include/unwindstack/Regs.h"
  },
  {
   "access" : "protected",
   "function_name" : "unwindstack::Global::GetVariableOffset",
   "linker_set_key" : "_ZN11unwindstack6Global17GetVariableOffsetEPNS_7MapInfoERKNSt3__112basic_stringIcNS3_11char_traitsIcEENS3_9allocatorIcEEEE",
   "parameters" :
   [
    {
     "is_this_ptr" : true,
     "referenced_type" : "type-162"
    },
    {
     "referenced_type" : "type-81"
    },
    {
     "referenced_type" : "type-205"
    }
   ],
   "return_type" : "type-6",
   "source_file" : "/system/core/libunwindstack/include/unwindstack/Global.h"
  },
  {
   "access" : "protected",
   "function_name" : "unwindstack::Global::FindAndReadVariable",
   "linker_set_key" : "_ZN11unwindstack6Global19FindAndReadVariableEPNS_4MapsEPKc",
   "parameters" :
   [
    {
     "is_this_ptr" : true,
     "referenced_type" : "type-162"
    },
    {
     "referenced_type" : "type-169"
    },
    {
     "referenced_type" : "type-93"
    }
   ],
   "return_type" : "type-62",
   "source_file" : "/system/core/libunwindstack/include/unwindstack/Global.h"
  },
  {
   "function_name" : "unwindstack::Global::SetArch",
   "linker_set_key" : "_ZN11unwindstack6Global7SetArchENS_8ArchEnumE",
   "parameters" :
   [
    {
     "is_this_ptr" : true,
     "referenced_type" : "type-162"
    },
    {
     "referenced_type" : "type-34"
    }
   ],
   "return_type" : "type-62",
   "source_file" : "/system/core/libunwindstack/include/unwindstack/Global.h"
  },
  {
   "function_name" : "unwindstack::Global::Global",
   "linker_set_key" : "_ZN11unwindstack6GlobalC2ERNSt3__110shared_ptrINS_6MemoryEEE",
   "parameters" :
   [
    {
     "is_this_ptr" : true,
     "referenced_type" : "type-162"
    },
    {
     "referenced_type" : "type-163"
    }
   ],
   "return_type" : "type-62",
   "source_file" : "/system/core/libunwindstack/include/unwindstack/Global.h"
  },
  {
   "function_name" : "unwindstack::Global::Global",
   "linker_set_key" : "_ZN11unwindstack6GlobalC2ERNSt3__110shared_ptrINS_6MemoryEEERNS1_6vectorINS1_12basic_stringIcNS1_11char_traitsIcEENS1_9allocatorIcEEEENSA_ISC_EEEE",
   "parameters" :
   [
    {
     "is_this_ptr" : true,
     "referenced_type" : "type-162"
    },
    {
     "referenced_type" : "type-163"
    },
    {
     "referenced_type" : "type-165"
    }
   ],
   "return_type" : "type-62",
   "source_file" : "/system/core/libunwindstack/include/unwindstack/Global.h"
  },
  {
   "function_name" : "unwindstack::Memory::ReadString",
   "linker_set_key" : "_ZN11unwindstack6Memory10ReadStringEyPNSt3__112basic_stringIcNS1_11char_traitsIcEENS1_9allocatorIcEEEEy",
   "parameters" :
   [
    {
     "is_this_ptr" : true,
     "referenced_type" : "type-17"
    },
    {
     "referenced_type" : "type-6"
    },
    {
     "referenced_type" : "type-562"
    },
    {
     "default_arg" : true,
     "referenced_type" : "type-6"
    }
   ],
   "return_type" : "type-72",
   "source_file" : "/system/core/libunwindstack/include/unwindstack/Memory.h"
  },
  {
   "function_name" : "unwindstack::Memory::CreateProcessMemory",
   "linker_set_key" : "_ZN11unwindstack6Memory19CreateProcessMemoryEi",
   "parameters" :
   [
    {
     "referenced_type" : "type-153"
    }
   ],
   "return_type" : "type-654",
   "source_file" : "/system/core/libunwindstack/include/unwindstack/Memory.h"
  },
  {
   "function_name" : "unwindstack::Memory::CreateProcessMemoryCached",
   "linker_set_key" : "_ZN11unwindstack6Memory25CreateProcessMemoryCachedEi",
   "parameters" :
   [
    {
     "referenced_type" : "type-153"
    }
   ],
   "return_type" : "type-655",
   "source_file" : "/system/core/libunwindstack/include/unwindstack/Memory.h"
  },
  {
   "function_name" : "unwindstack::Memory::ReadFully",
   "linker_set_key" : "_ZN11unwindstack6Memory9ReadFullyEyPvj",
   "parameters" :
   [
    {
     "is_this_ptr" : true,
     "referenced_type" : "type-17"
    },
    {
     "referenced_type" : "type-6"
    },
    {
     "referenced_type" : "type-61"
    },
    {
     "referenced_type" : "type-3"
    }
   ],
   "return_type" : "type-72",
   "source_file" : "/system/core/libunwindstack/include/unwindstack/Memory.h"
  },
  {
   "function_name" : "unwindstack::MapInfo::GetBuildID",
   "linker_set_key" : "_ZN11unwindstack7MapInfo10GetBuildIDEv",
   "parameters" :
   [
    {
     "is_this_ptr" : true,
     "referenced_type" : "type-81"
    }
   ],
   "return_type" : "type-328",
   "source_file" : "/system/core/libunwindstack/include/unwindstack/MapInfo.h"
  },
  {
   "function_name" : "unwindstack::MapInfo::GetLoadBias",
   "linker_set_key" : "_ZN11unwindstack7MapInfo11GetLoadBiasERKNSt3__110shared_ptrINS_6MemoryEEE",
   "parameters" :
   [
    {
     "is_this_ptr" : true,
     "referenced_type" : "type-81"
    },
    {
     "referenced_type" : "type-246"
    }
   ],
   "return_type" : "type-6",
   "source_file" : "/system/core/libunwindstack/include/unwindstack/MapInfo.h"
  },
  {
   "function_name" : "unwindstack::MapInfo::CreateMemory",
   "linker_set_key" : "_ZN11unwindstack7MapInfo12CreateMemoryERKNSt3__110shared_ptrINS_6MemoryEEE",
   "parameters" :
   [
    {
     "is_this_ptr" : true,
     "referenced_type" : "type-81"
    },
    {
     "referenced_type" : "type-246"
    }
   ],
   "return_type" : "type-17",
   "source_file" : "/system/core/libunwindstack/include/unwindstack/MapInfo.h"
  },
  {
   "access" : "private",
   "function_name" : "unwindstack::MapInfo::GetFileMemory",
   "linker_set_key" : "_ZN11unwindstack7MapInfo13GetFileMemoryEv",
   "parameters" :
   [
    {
     "is_this_ptr" : true,
     "referenced_type" : "type-81"
    }
   ],
   "return_type" : "type-17",
   "source_file" : "/system/core/libunwindstack/include/unwindstack/MapInfo.h"
  },
  {
   "function_name" : "unwindstack::MapInfo::GetFunctionName",
   "linker_set_key" : "_ZN11unwindstack7MapInfo15GetFunctionNameEyPNSt3__112basic_stringIcNS1_11char_traitsIcEENS1_9allocatorIcEEEEPy",
   "parameters" :
   [
    {
     "is_this_ptr" : true,
     "referenced_type" : "type-81"
    },
    {
     "referenced_type" : "type-6"
    },
    {
     "referenced_type" : "type-251"
    },
    {
     "referenced_type" : "type-102"
    }
   ],
   "return_type" : "type-72",
   "source_file" : "/system/core/libunwindstack/include/unwindstack/MapInfo.h"
  },
  {
   "function_name" : "unwindstack::MapInfo::GetPrintableBuildID",
   "linker_set_key" : "_ZN11unwindstack7MapInfo19GetPrintableBuildIDEv",
   "parameters" :
   [
    {
     "is_this_ptr" : true,
     "referenced_type" : "type-81"
    }
   ],
   "return_type" : "type-329",
   "source_file" : "/system/core/libunwindstack/include/unwindstack/MapInfo.h"
  },
  {
   "access" : "private",
   "function_name" : "unwindstack::MapInfo::InitFileMemoryFromPreviousReadOnlyMap",
   "linker_set_key" : "_ZN11unwindstack7MapInfo37InitFileMemoryFromPreviousReadOnlyMapEPNS_18MemoryFileAtOffsetE",
   "parameters" :
   [
    {
     "is_this_ptr" : true,
     "referenced_type" : "type-81"
    },
    {
     "referenced_type" : "type-146"
    }
   ],
   "return_type" : "type-72",
   "source_file" : "/system/core/libunwindstack/include/unwindstack/MapInfo.h"
  },
  {
   "function_name" : "unwindstack::MapInfo::GetElf",
   "linker_set_key" : "_ZN11unwindstack7MapInfo6GetElfERKNSt3__110shared_ptrINS_6MemoryEEENS_8ArchEnumE",
   "parameters" :
   [
    {
     "is_this_ptr" : true,
     "referenced_type" : "type-81"
    },
    {
     "referenced_type" : "type-246"
    },
    {
     "referenced_type" : "type-34"
    }
   ],
   "return_type" : "type-191",
   "source_file" : "/system/core/libunwindstack/include/unwindstack/MapInfo.h"
  },
  {
   "function_name" : "unwindstack::MapInfo::~MapInfo",
   "linker_set_key" : "_ZN11unwindstack7MapInfoD1Ev",
   "parameters" :
   [
    {
     "is_this_ptr" : true,
     "referenced_type" : "type-81"
    }
   ],
   "return_type" : "type-62",
   "source_file" : "/system/core/libunwindstack/include/unwindstack/MapInfo.h"
  },
  {
   "function_name" : "unwindstack::MapInfo::~MapInfo",
   "linker_set_key" : "_ZN11unwindstack7MapInfoD2Ev",
   "parameters" :
   [
    {
     "is_this_ptr" : true,
     "referenced_type" : "type-81"
    }
   ],
   "return_type" : "type-62",
   "source_file" : "/system/core/libunwindstack/include/unwindstack/MapInfo.h"
  },
  {
   "function_name" : "unwindstack::RegsArm::GetPcAdjustment",
   "linker_set_key" : "_ZN11unwindstack7RegsArm15GetPcAdjustmentEyPNS_3ElfE",
   "parameters" :
   [
    {
     "is_this_ptr" : true,
     "referenced_type" : "type-128"
    },
    {
     "referenced_type" : "type-6"
    },
    {
     "referenced_type" : "type-191"
    }
   ],
   "return_type" : "type-6",
   "source_file" : "/system/core/libunwindstack/include/unwindstack/RegsArm.h"
  },
  {
   "function_name" : "unwindstack::RegsArm::IterateRegisters",
   "linker_set_key" : "_ZN11unwindstack7RegsArm16IterateRegistersENSt3__18functionIFvPKcyEEE",
   "parameters" :
   [
    {
     "is_this_ptr" : true,
     "referenced_type" : "type-128"
    },
    {
     "referenced_type" : "type-656"
    }
   ],
   "return_type" : "type-62",
   "source_file" : "/system/core/libunwindstack/include/unwindstack/RegsArm.h"
  },
  {
   "function_name" : "unwindstack::RegsArm::CreateFromUcontext",
   "linker_set_key" : "_ZN11unwindstack7RegsArm18CreateFromUcontextEPv",
   "parameters" :
   [
    {
     "referenced_type" : "type-61"
    }
   ],
   "return_type" : "type-94",
   "source_file" : "/system/core/libunwindstack/include/unwindstack/RegsArm.h"
  },
  {
   "function_name" : "unwindstack::RegsArm::StepIfSignalHandler",
   "linker_set_key" : "_ZN11unwindstack7RegsArm19StepIfSignalHandlerEyPNS_3ElfEPNS_6MemoryE",
   "parameters" :
   [
    {
     "is_this_ptr" : true,
     "referenced_type" : "type-128"
    },
    {
     "referenced_type" : "type-6"
    },
    {
     "referenced_type" : "type-191"
    },
    {
     "referenced_type" : "type-17"
    }
   ],
   "return_type" : "type-72",
   "source_file" : "/system/core/libunwindstack/include/unwindstack/RegsArm.h"
  },
  {
   "function_name" : "unwindstack::RegsArm::SetPcFromReturnAddress",
   "linker_set_key" : "_ZN11unwindstack7RegsArm22SetPcFromReturnAddressEPNS_6MemoryE",
   "parameters" :
   [
    {
     "is_this_ptr" : true,
     "referenced_type" : "type-128"
    },
    {
     "referenced_type" : "type-17"
    }
   ],
   "return_type" : "type-72",
   "source_file" : "/system/core/libunwindstack/include/unwindstack/RegsArm.h"
  },
  {
   "function_name" : "unwindstack::RegsArm::pc",
   "linker_set_key" : "_ZN11unwindstack7RegsArm2pcEv",
   "parameters" :
   [
    {
     "is_this_ptr" : true,
     "referenced_type" : "type-128"
    }
   ],
   "return_type" : "type-6",
   "source_file" : "/system/core/libunwindstack/include/unwindstack/RegsArm.h"
  },
  {
   "function_name" : "unwindstack::RegsArm::sp",
   "linker_set_key" : "_ZN11unwindstack7RegsArm2spEv",
   "parameters" :
   [
    {
     "is_this_ptr" : true,
     "referenced_type" : "type-128"
    }
   ],
   "return_type" : "type-6",
   "source_file" : "/system/core/libunwindstack/include/unwindstack/RegsArm.h"
  },
  {
   "function_name" : "unwindstack::RegsArm::Arch",
   "linker_set_key" : "_ZN11unwindstack7RegsArm4ArchEv",
   "parameters" :
   [
    {
     "is_this_ptr" : true,
     "referenced_type" : "type-128"
    }
   ],
   "return_type" : "type-34",
   "source_file" : "/system/core/libunwindstack/include/unwindstack/RegsArm.h"
  },
  {
   "function_name" : "unwindstack::RegsArm::Read",
   "linker_set_key" : "_ZN11unwindstack7RegsArm4ReadEPv",
   "parameters" :
   [
    {
     "referenced_type" : "type-61"
    }
   ],
   "return_type" : "type-94",
   "source_file" : "/system/core/libunwindstack/include/unwindstack/RegsArm.h"
  },
  {
   "function_name" : "unwindstack::RegsArm::Clone",
   "linker_set_key" : "_ZN11unwindstack7RegsArm5CloneEv",
   "parameters" :
   [
    {
     "is_this_ptr" : true,
     "referenced_type" : "type-128"
    }
   ],
   "return_type" : "type-94",
   "source_file" : "/system/core/libunwindstack/include/unwindstack/RegsArm.h"
  },
  {
   "function_name" : "unwindstack::RegsArm::set_pc",
   "linker_set_key" : "_ZN11unwindstack7RegsArm6set_pcEy",
   "parameters" :
   [
    {
     "is_this_ptr" : true,
     "referenced_type" : "type-128"
    },
    {
     "referenced_type" : "type-6"
    }
   ],
   "return_type" : "type-62",
   "source_file" : "/system/core/libunwindstack/include/unwindstack/RegsArm.h"
  },
  {
   "function_name" : "unwindstack::RegsArm::set_sp",
   "linker_set_key" : "_ZN11unwindstack7RegsArm6set_spEy",
   "parameters" :
   [
    {
     "is_this_ptr" : true,
     "referenced_type" : "type-128"
    },
    {
     "referenced_type" : "type-6"
    }
   ],
   "return_type" : "type-62",
   "source_file" : "/system/core/libunwindstack/include/unwindstack/RegsArm.h"
  },
  {
   "function_name" : "unwindstack::RegsArm::RegsArm",
   "linker_set_key" : "_ZN11unwindstack7RegsArmC1Ev",
   "parameters" :
   [
    {
     "is_this_ptr" : true,
     "referenced_type" : "type-128"
    }
   ],
   "return_type" : "type-62",
   "source_file" : "/system/core/libunwindstack/include/unwindstack/RegsArm.h"
  },
  {
   "function_name" : "unwindstack::RegsArm::RegsArm",
   "linker_set_key" : "_ZN11unwindstack7RegsArmC2Ev",
   "parameters" :
   [
    {
     "is_this_ptr" : true,
     "referenced_type" : "type-128"
    }
   ],
   "return_type" : "type-62",
   "source_file" : "/system/core/libunwindstack/include/unwindstack/RegsArm.h"
  },
  {
   "function_name" : "unwindstack::RegsX86::GetPcAdjustment",
   "linker_set_key" : "_ZN11unwindstack7RegsX8615GetPcAdjustmentEyPNS_3ElfE",
   "parameters" :
   [
    {
     "is_this_ptr" : true,
     "referenced_type" : "type-603"
    },
    {
     "referenced_type" : "type-6"
    },
    {
     "referenced_type" : "type-191"
    }
   ],
   "return_type" : "type-6",
   "source_file" : "/system/core/libunwindstack/include/unwindstack/RegsX86.h"
  },
  {
   "function_name" : "unwindstack::RegsX86::SetFromUcontext",
   "linker_set_key" : "_ZN11unwindstack7RegsX8615SetFromUcontextEPNS_14x86_ucontext_tE",
   "parameters" :
   [
    {
     "is_this_ptr" : true,
     "referenced_type" : "type-603"
    },
    {
     "referenced_type" : "type-355"
    }
   ],
   "return_type" : "type-62",
   "source_file" : "/system/core/libunwindstack/include/unwindstack/RegsX86.h"
  },
  {
   "function_name" : "unwindstack::RegsX86::IterateRegisters",
   "linker_set_key" : "_ZN11unwindstack7RegsX8616IterateRegistersENSt3__18functionIFvPKcyEEE",
   "parameters" :
   [
    {
     "is_this_ptr" : true,
     "referenced_type" : "type-603"
    },
    {
     "referenced_type" : "type-657"
    }
   ],
   "return_type" : "type-62",
   "source_file" : "/system/core/libunwindstack/include/unwindstack/RegsX86.h"
  },
  {
   "function_name" : "unwindstack::RegsX86::CreateFromUcontext",
   "linker_set_key" : "_ZN11unwindstack7RegsX8618CreateFromUcontextEPv",
   "parameters" :
   [
    {
     "referenced_type" : "type-61"
    }
   ],
   "return_type" : "type-94",
   "source_file" : "/system/core/libunwindstack/include/unwindstack/RegsX86.h"
  },
  {
   "function_name" : "unwindstack::RegsX86::StepIfSignalHandler",
   "linker_set_key" : "_ZN11unwindstack7RegsX8619StepIfSignalHandlerEyPNS_3ElfEPNS_6MemoryE",
   "parameters" :
   [
    {
     "is_this_ptr" : true,
     "referenced_type" : "type-603"
    },
    {
     "referenced_type" : "type-6"
    },
    {
     "referenced_type" : "type-191"
    },
    {
     "referenced_type" : "type-17"
    }
   ],
   "return_type" : "type-72",
   "source_file" : "/system/core/libunwindstack/include/unwindstack/RegsX86.h"
  },
  {
   "function_name" : "unwindstack::RegsX86::SetPcFromReturnAddress",
   "linker_set_key" : "_ZN11unwindstack7RegsX8622SetPcFromReturnAddressEPNS_6MemoryE",
   "parameters" :
   [
    {
     "is_this_ptr" : true,
     "referenced_type" : "type-603"
    },
    {
     "referenced_type" : "type-17"
    }
   ],
   "return_type" : "type-72",
   "source_file" : "/system/core/libunwindstack/include/unwindstack/RegsX86.h"
  },
  {
   "function_name" : "unwindstack::RegsX86::pc",
   "linker_set_key" : "_ZN11unwindstack7RegsX862pcEv",
   "parameters" :
   [
    {
     "is_this_ptr" : true,
     "referenced_type" : "type-603"
    }
   ],
   "return_type" : "type-6",
   "source_file" : "/system/core/libunwindstack/include/unwindstack/RegsX86.h"
  },
  {
   "function_name" : "unwindstack::RegsX86::sp",
   "linker_set_key" : "_ZN11unwindstack7RegsX862spEv",
   "parameters" :
   [
    {
     "is_this_ptr" : true,
     "referenced_type" : "type-603"
    }
   ],
   "return_type" : "type-6",
   "source_file" : "/system/core/libunwindstack/include/unwindstack/RegsX86.h"
  },
  {
   "function_name" : "unwindstack::RegsX86::Arch",
   "linker_set_key" : "_ZN11unwindstack7RegsX864ArchEv",
   "parameters" :
   [
    {
     "is_this_ptr" : true,
     "referenced_type" : "type-603"
    }
   ],
   "return_type" : "type-34",
   "source_file" : "/system/core/libunwindstack/include/unwindstack/RegsX86.h"
  },
  {
   "function_name" : "unwindstack::RegsX86::Read",
   "linker_set_key" : "_ZN11unwindstack7RegsX864ReadEPv",
   "parameters" :
   [
    {
     "referenced_type" : "type-61"
    }
   ],
   "return_type" : "type-94",
   "source_file" : "/system/core/libunwindstack/include/unwindstack/RegsX86.h"
  },
  {
   "function_name" : "unwindstack::RegsX86::Clone",
   "linker_set_key" : "_ZN11unwindstack7RegsX865CloneEv",
   "parameters" :
   [
    {
     "is_this_ptr" : true,
     "referenced_type" : "type-603"
    }
   ],
   "return_type" : "type-94",
   "source_file" : "/system/core/libunwindstack/include/unwindstack/RegsX86.h"
  },
  {
   "function_name" : "unwindstack::RegsX86::set_pc",
   "linker_set_key" : "_ZN11unwindstack7RegsX866set_pcEy",
   "parameters" :
   [
    {
     "is_this_ptr" : true,
     "referenced_type" : "type-603"
    },
    {
     "referenced_type" : "type-6"
    }
   ],
   "return_type" : "type-62",
   "source_file" : "/system/core/libunwindstack/include/unwindstack/RegsX86.h"
  },
  {
   "function_name" : "unwindstack::RegsX86::set_sp",
   "linker_set_key" : "_ZN11unwindstack7RegsX866set_spEy",
   "parameters" :
   [
    {
     "is_this_ptr" : true,
     "referenced_type" : "type-603"
    },
    {
     "referenced_type" : "type-6"
    }
   ],
   "return_type" : "type-62",
   "source_file" : "/system/core/libunwindstack/include/unwindstack/RegsX86.h"
  },
  {
   "function_name" : "unwindstack::RegsX86::RegsX86",
   "linker_set_key" : "_ZN11unwindstack7RegsX86C1Ev",
   "parameters" :
   [
    {
     "is_this_ptr" : true,
     "referenced_type" : "type-603"
    }
   ],
   "return_type" : "type-62",
   "source_file" : "/system/core/libunwindstack/include/unwindstack/RegsX86.h"
  },
  {
   "function_name" : "unwindstack::RegsX86::RegsX86",
   "linker_set_key" : "_ZN11unwindstack7RegsX86C2Ev",
   "parameters" :
   [
    {
     "is_this_ptr" : true,
     "referenced_type" : "type-603"
    }
   ],
   "return_type" : "type-62",
   "source_file" : "/system/core/libunwindstack/include/unwindstack/RegsX86.h"
  },
  {
   "access" : "private",
   "function_name" : "unwindstack::JitDebug::ProcessArch",
   "linker_set_key" : "_ZN11unwindstack8JitDebug11ProcessArchEv",
   "parameters" :
   [
    {
     "is_this_ptr" : true,
     "referenced_type" : "type-220"
    }
   ],
   "return_type" : "type-62",
   "source_file" : "/system/core/libunwindstack/include/unwindstack/JitDebug.h"
  },
  {
   "access" : "private",
   "function_name" : "unwindstack::JitDebug::ReadEntry64",
   "linker_set_key" : "_ZN11unwindstack8JitDebug11ReadEntry64EPyS1_",
   "parameters" :
   [
    {
     "is_this_ptr" : true,
     "referenced_type" : "type-220"
    },
    {
     "referenced_type" : "type-102"
    },
    {
     "referenced_type" : "type-102"
    }
   ],
   "return_type" : "type-6",
   "source_file" : "/system/core/libunwindstack/include/unwindstack/JitDebug.h"
  },
  {
   "access" : "private",
   "function_name" : "unwindstack::JitDebug::ReadEntry32Pad",
   "linker_set_key" : "_ZN11unwindstack8JitDebug14ReadEntry32PadEPyS1_",
   "parameters" :
   [
    {
     "is_this_ptr" : true,
     "referenced_type" : "type-220"
    },
    {
     "referenced_type" : "type-102"
    },
    {
     "referenced_type" : "type-102"
    }
   ],
   "return_type" : "type-6",
   "source_file" : "/system/core/libunwindstack/include/unwindstack/JitDebug.h"
  },
  {
   "access" : "private",
   "function_name" : "unwindstack::JitDebug::ReadEntry32Pack",
   "linker_set_key" : "_ZN11unwindstack8JitDebug15ReadEntry32PackEPyS1_",
   "parameters" :
   [
    {
     "is_this_ptr" : true,
     "referenced_type" : "type-220"
    },
    {
     "referenced_type" : "type-102"
    },
    {
     "referenced_type" : "type-102"
    }
   ],
   "return_type" : "type-6",
   "source_file" : "/system/core/libunwindstack/include/unwindstack/JitDebug.h"
  },
  {
   "access" : "private",
   "function_name" : "unwindstack::JitDebug::ReadDescriptor32",
   "linker_set_key" : "_ZN11unwindstack8JitDebug16ReadDescriptor32Ey",
   "parameters" :
   [
    {
     "is_this_ptr" : true,
     "referenced_type" : "type-220"
    },
    {
     "referenced_type" : "type-6"
    }
   ],
   "return_type" : "type-6",
   "source_file" : "/system/core/libunwindstack/include/unwindstack/JitDebug.h"
  },
  {
   "access" : "private",
   "function_name" : "unwindstack::JitDebug::ReadDescriptor64",
   "linker_set_key" : "_ZN11unwindstack8JitDebug16ReadDescriptor64Ey",
   "parameters" :
   [
    {
     "is_this_ptr" : true,
     "referenced_type" : "type-220"
    },
    {
     "referenced_type" : "type-6"
    }
   ],
   "return_type" : "type-6",
   "source_file" : "/system/core/libunwindstack/include/unwindstack/JitDebug.h"
  },
  {
   "access" : "private",
   "function_name" : "unwindstack::JitDebug::ReadVariableData",
   "linker_set_key" : "_ZN11unwindstack8JitDebug16ReadVariableDataEy",
   "parameters" :
   [
    {
     "is_this_ptr" : true,
     "referenced_type" : "type-220"
    },
    {
     "referenced_type" : "type-6"
    }
   ],
   "return_type" : "type-72",
   "source_file" : "/system/core/libunwindstack/include/unwindstack/JitDebug.h"
  },
  {
   "access" : "private",
   "function_name" : "unwindstack::JitDebug::Init",
   "linker_set_key" : "_ZN11unwindstack8JitDebug4InitEPNS_4MapsE",
   "parameters" :
   [
    {
     "is_this_ptr" : true,
     "referenced_type" : "type-220"
    },
    {
     "referenced_type" : "type-169"
    }
   ],
   "return_type" : "type-62",
   "source_file" : "/system/core/libunwindstack/include/unwindstack/JitDebug.h"
  },
  {
   "function_name" : "unwindstack::JitDebug::GetElf",
   "linker_set_key" : "_ZN11unwindstack8JitDebug6GetElfEPNS_4MapsEy",
   "parameters" :
   [
    {
     "is_this_ptr" : true,
     "referenced_type" : "type-220"
    },
    {
     "referenced_type" : "type-169"
    },
    {
     "referenced_type" : "type-6"
    }
   ],
   "return_type" : "type-191",
   "source_file" : "/system/core/libunwindstack/include/unwindstack/JitDebug.h"
  },
  {
   "function_name" : "unwindstack::JitDebug::JitDebug",
   "linker_set_key" : "_ZN11unwindstack8JitDebugC1ERNSt3__110shared_ptrINS_6MemoryEEE",
   "parameters" :
   [
    {
     "is_this_ptr" : true,
     "referenced_type" : "type-220"
    },
    {
     "referenced_type" : "type-221"
    }
   ],
   "return_type" : "type-62",
   "source_file" : "/system/core/libunwindstack/include/unwindstack/JitDebug.h"
  },
  {
   "function_name" : "unwindstack::JitDebug::JitDebug",
   "linker_set_key" : "_ZN11unwindstack8JitDebugC1ERNSt3__110shared_ptrINS_6MemoryEEERNS1_6vectorINS1_12basic_stringIcNS1_11char_traitsIcEENS1_9allocatorIcEEEENSA_ISC_EEEE",
   "parameters" :
   [
    {
     "is_this_ptr" : true,
     "referenced_type" : "type-220"
    },
    {
     "referenced_type" : "type-221"
    },
    {
     "referenced_type" : "type-223"
    }
   ],
   "return_type" : "type-62",
   "source_file" : "/system/core/libunwindstack/include/unwindstack/JitDebug.h"
  },
  {
   "function_name" : "unwindstack::JitDebug::JitDebug",
   "linker_set_key" : "_ZN11unwindstack8JitDebugC2ERNSt3__110shared_ptrINS_6MemoryEEE",
   "parameters" :
   [
    {
     "is_this_ptr" : true,
     "referenced_type" : "type-220"
    },
    {
     "referenced_type" : "type-221"
    }
   ],
   "return_type" : "type-62",
   "source_file" : "/system/core/libunwindstack/include/unwindstack/JitDebug.h"
  },
  {
   "function_name" : "unwindstack::JitDebug::JitDebug",
   "linker_set_key" : "_ZN11unwindstack8JitDebugC2ERNSt3__110shared_ptrINS_6MemoryEEERNS1_6vectorINS1_12basic_stringIcNS1_11char_traitsIcEENS1_9allocatorIcEEEENSA_ISC_EEEE",
   "parameters" :
   [
    {
     "is_this_ptr" : true,
     "referenced_type" : "type-220"
    },
    {
     "referenced_type" : "type-221"
    },
    {
     "referenced_type" : "type-223"
    }
   ],
   "return_type" : "type-62",
   "source_file" : "/system/core/libunwindstack/include/unwindstack/JitDebug.h"
  },
  {
   "function_name" : "unwindstack::JitDebug::~JitDebug",
   "linker_set_key" : "_ZN11unwindstack8JitDebugD0Ev",
   "parameters" :
   [
    {
     "is_this_ptr" : true,
     "referenced_type" : "type-220"
    }
   ],
   "return_type" : "type-62",
   "source_file" : "/system/core/libunwindstack/include/unwindstack/JitDebug.h"
  },
  {
   "function_name" : "unwindstack::JitDebug::~JitDebug",
   "linker_set_key" : "_ZN11unwindstack8JitDebugD1Ev",
   "parameters" :
   [
    {
     "is_this_ptr" : true,
     "referenced_type" : "type-220"
    }
   ],
   "return_type" : "type-62",
   "source_file" : "/system/core/libunwindstack/include/unwindstack/JitDebug.h"
  },
  {
   "function_name" : "unwindstack::JitDebug::~JitDebug",
   "linker_set_key" : "_ZN11unwindstack8JitDebugD2Ev",
   "parameters" :
   [
    {
     "is_this_ptr" : true,
     "referenced_type" : "type-220"
    }
   ],
   "return_type" : "type-62",
   "source_file" : "/system/core/libunwindstack/include/unwindstack/JitDebug.h"
  },
  {
   "function_name" : "unwindstack::RegsMips::GetPcAdjustment",
   "linker_set_key" : "_ZN11unwindstack8RegsMips15GetPcAdjustmentEyPNS_3ElfE",
   "parameters" :
   [
    {
     "is_this_ptr" : true,
     "referenced_type" : "type-599"
    },
    {
     "referenced_type" : "type-6"
    },
    {
     "referenced_type" : "type-191"
    }
   ],
   "return_type" : "type-6",
   "source_file" : "/system/core/libunwindstack/include/unwindstack/RegsMips.h"
  },
  {
   "function_name" : "unwindstack::RegsMips::IterateRegisters",
   "linker_set_key" : "_ZN11unwindstack8RegsMips16IterateRegistersENSt3__18functionIFvPKcyEEE",
   "parameters" :
   [
    {
     "is_this_ptr" : true,
     "referenced_type" : "type-599"
    },
    {
     "referenced_type" : "type-1024"
    }
   ],
   "return_type" : "type-62",
   "source_file" : "/system/core/libunwindstack/include/unwindstack/RegsMips.h"
  },
  {
   "function_name" : "unwindstack::RegsMips::CreateFromUcontext",
   "linker_set_key" : "_ZN11unwindstack8RegsMips18CreateFromUcontextEPv",
   "parameters" :
   [
    {
     "referenced_type" : "type-61"
    }
   ],
   "return_type" : "type-94",
   "source_file" : "/system/core/libunwindstack/include/unwindstack/RegsMips.h"
  },
  {
   "function_name" : "unwindstack::RegsMips::StepIfSignalHandler",
   "linker_set_key" : "_ZN11unwindstack8RegsMips19StepIfSignalHandlerEyPNS_3ElfEPNS_6MemoryE",
   "parameters" :
   [
    {
     "is_this_ptr" : true,
     "referenced_type" : "type-599"
    },
    {
     "referenced_type" : "type-6"
    },
    {
     "referenced_type" : "type-191"
    },
    {
     "referenced_type" : "type-17"
    }
   ],
   "return_type" : "type-72",
   "source_file" : "/system/core/libunwindstack/include/unwindstack/RegsMips.h"
  },
  {
   "function_name" : "unwindstack::RegsMips::SetPcFromReturnAddress",
   "linker_set_key" : "_ZN11unwindstack8RegsMips22SetPcFromReturnAddressEPNS_6MemoryE",
   "parameters" :
   [
    {
     "is_this_ptr" : true,
     "referenced_type" : "type-599"
    },
    {
     "referenced_type" : "type-17"
    }
   ],
   "return_type" : "type-72",
   "source_file" : "/system/core/libunwindstack/include/unwindstack/RegsMips.h"
  },
  {
   "function_name" : "unwindstack::RegsMips::pc",
   "linker_set_key" : "_ZN11unwindstack8RegsMips2pcEv",
   "parameters" :
   [
    {
     "is_this_ptr" : true,
     "referenced_type" : "type-599"
    }
   ],
   "return_type" : "type-6",
   "source_file" : "/system/core/libunwindstack/include/unwindstack/RegsMips.h"
  },
  {
   "function_name" : "unwindstack::RegsMips::sp",
   "linker_set_key" : "_ZN11unwindstack8RegsMips2spEv",
   "parameters" :
   [
    {
     "is_this_ptr" : true,
     "referenced_type" : "type-599"
    }
   ],
   "return_type" : "type-6",
   "source_file" : "/system/core/libunwindstack/include/unwindstack/RegsMips.h"
  },
  {
   "function_name" : "unwindstack::RegsMips::Arch",
   "linker_set_key" : "_ZN11unwindstack8RegsMips4ArchEv",
   "parameters" :
   [
    {
     "is_this_ptr" : true,
     "referenced_type" : "type-599"
    }
   ],
   "return_type" : "type-34",
   "source_file" : "/system/core/libunwindstack/include/unwindstack/RegsMips.h"
  },
  {
   "function_name" : "unwindstack::RegsMips::Read",
   "linker_set_key" : "_ZN11unwindstack8RegsMips4ReadEPv",
   "parameters" :
   [
    {
     "referenced_type" : "type-61"
    }
   ],
   "return_type" : "type-94",
   "source_file" : "/system/core/libunwindstack/include/unwindstack/RegsMips.h"
  },
  {
   "function_name" : "unwindstack::RegsMips::Clone",
   "linker_set_key" : "_ZN11unwindstack8RegsMips5CloneEv",
   "parameters" :
   [
    {
     "is_this_ptr" : true,
     "referenced_type" : "type-599"
    }
   ],
   "return_type" : "type-94",
   "source_file" : "/system/core/libunwindstack/include/unwindstack/RegsMips.h"
  },
  {
   "function_name" : "unwindstack::RegsMips::set_pc",
   "linker_set_key" : "_ZN11unwindstack8RegsMips6set_pcEy",
   "parameters" :
   [
    {
     "is_this_ptr" : true,
     "referenced_type" : "type-599"
    },
    {
     "referenced_type" : "type-6"
    }
   ],
   "return_type" : "type-62",
   "source_file" : "/system/core/libunwindstack/include/unwindstack/RegsMips.h"
  },
  {
   "function_name" : "unwindstack::RegsMips::set_sp",
   "linker_set_key" : "_ZN11unwindstack8RegsMips6set_spEy",
   "parameters" :
   [
    {
     "is_this_ptr" : true,
     "referenced_type" : "type-599"
    },
    {
     "referenced_type" : "type-6"
    }
   ],
   "return_type" : "type-62",
   "source_file" : "/system/core/libunwindstack/include/unwindstack/RegsMips.h"
  },
  {
   "function_name" : "unwindstack::RegsMips::RegsMips",
   "linker_set_key" : "_ZN11unwindstack8RegsMipsC1Ev",
   "parameters" :
   [
    {
     "is_this_ptr" : true,
     "referenced_type" : "type-599"
    }
   ],
   "return_type" : "type-62",
   "source_file" : "/system/core/libunwindstack/include/unwindstack/RegsMips.h"
  },
  {
   "function_name" : "unwindstack::RegsMips::RegsMips",
   "linker_set_key" : "_ZN11unwindstack8RegsMipsC2Ev",
   "parameters" :
   [
    {
     "is_this_ptr" : true,
     "referenced_type" : "type-599"
    }
   ],
   "return_type" : "type-62",
   "source_file" : "/system/core/libunwindstack/include/unwindstack/RegsMips.h"
  },
  {
   "access" : "protected",
   "function_name" : "unwindstack::Unwinder::FillInFrame",
   "linker_set_key" : "_ZN11unwindstack8Unwinder11FillInFrameEPNS_7MapInfoEPNS_3ElfEyy",
   "parameters" :
   [
    {
     "is_this_ptr" : true,
     "referenced_type" : "type-765"
    },
    {
     "referenced_type" : "type-81"
    },
    {
     "referenced_type" : "type-191"
    },
    {
     "referenced_type" : "type-6"
    },
    {
     "referenced_type" : "type-6"
    }
   ],
   "return_type" : "type-776",
   "source_file" : "/system/core/libunwindstack/include/unwindstack/Unwinder.h"
  },
  {
   "function_name" : "unwindstack::Unwinder::FormatFrame",
   "linker_set_key" : "_ZN11unwindstack8Unwinder11FormatFrameERKNS_9FrameDataE",
   "parameters" :
   [
    {
     "is_this_ptr" : true,
     "referenced_type" : "type-765"
    },
    {
     "referenced_type" : "type-773"
    }
   ],
   "return_type" : "type-1025",
   "source_file" : "/system/core/libunwindstack/include/unwindstack/Unwinder.h"
  },
  {
   "function_name" : "unwindstack::Unwinder::FormatFrame",
   "linker_set_key" : "_ZN11unwindstack8Unwinder11FormatFrameEj",
   "parameters" :
   [
    {
     "is_this_ptr" : true,
     "referenced_type" : "type-765"
    },
    {
     "referenced_type" : "type-3"
    }
   ],
   "return_type" : "type-1026",
   "source_file" : "/system/core/libunwindstack/include/unwindstack/Unwinder.h"
  },
  {
   "function_name" : "unwindstack::Unwinder::SetJitDebug",
   "linker_set_key" : "_ZN11unwindstack8Unwinder11SetJitDebugEPNS_8JitDebugENS_8ArchEnumE",
   "parameters" :
   [
    {
     "is_this_ptr" : true,
     "referenced_type" : "type-765"
    },
    {
     "referenced_type" : "type-220"
    },
    {
     "referenced_type" : "type-34"
    }
   ],
   "return_type" : "type-62",
   "source_file" : "/system/core/libunwindstack/include/unwindstack/Unwinder.h"
  },
  {
   "access" : "protected",
   "function_name" : "unwindstack::Unwinder::FillInDexFrame",
   "linker_set_key" : "_ZN11unwindstack8Unwinder14FillInDexFrameEv",
   "parameters" :
   [
    {
     "is_this_ptr" : true,
     "referenced_type" : "type-765"
    }
   ],
   "return_type" : "type-62",
   "source_file" : "/system/core/libunwindstack/include/unwindstack/Unwinder.h"
  },
  {
   "function_name" : "unwindstack::Unwinder::Unwind",
   "linker_set_key" : "_ZN11unwindstack8Unwinder6UnwindEPKNSt3__16vectorINS1_12basic_stringIcNS1_11char_traitsIcEENS1_9allocatorIcEEEENS6_IS8_EEEESC_",
   "parameters" :
   [
    {
     "is_this_ptr" : true,
     "referenced_type" : "type-765"
    },
    {
     "default_arg" : true,
     "referenced_type" : "type-768"
    },
    {
     "default_arg" : true,
     "referenced_type" : "type-768"
    }
   ],
   "return_type" : "type-62",
   "source_file" : "/system/core/libunwindstack/include/unwindstack/Unwinder.h"
  },
  {
   "function_name" : "unwindstack::RegsArm64::GetPcAdjustment",
   "linker_set_key" : "_ZN11unwindstack9RegsArm6415GetPcAdjustmentEyPNS_3ElfE",
   "parameters" :
   [
    {
     "is_this_ptr" : true,
     "referenced_type" : "type-597"
    },
    {
     "referenced_type" : "type-6"
    },
    {
     "referenced_type" : "type-191"
    }
   ],
   "return_type" : "type-6",
   "source_file" : "/system/core/libunwindstack/include/unwindstack/RegsArm64.h"
  },
  {
   "function_name" : "unwindstack::RegsArm64::IterateRegisters",
   "linker_set_key" : "_ZN11unwindstack9RegsArm6416IterateRegistersENSt3__18functionIFvPKcyEEE",
   "parameters" :
   [
    {
     "is_this_ptr" : true,
     "referenced_type" : "type-597"
    },
    {
     "referenced_type" : "type-660"
    }
   ],
   "return_type" : "type-62",
   "source_file" : "/system/core/libunwindstack/include/unwindstack/RegsArm64.h"
  },
  {
   "function_name" : "unwindstack::RegsArm64::CreateFromUcontext",
   "linker_set_key" : "_ZN11unwindstack9RegsArm6418CreateFromUcontextEPv",
   "parameters" :
   [
    {
     "referenced_type" : "type-61"
    }
   ],
   "return_type" : "type-94",
   "source_file" : "/system/core/libunwindstack/include/unwindstack/RegsArm64.h"
  },
  {
   "function_name" : "unwindstack::RegsArm64::StepIfSignalHandler",
   "linker_set_key" : "_ZN11unwindstack9RegsArm6419StepIfSignalHandlerEyPNS_3ElfEPNS_6MemoryE",
   "parameters" :
   [
    {
     "is_this_ptr" : true,
     "referenced_type" : "type-597"
    },
    {
     "referenced_type" : "type-6"
    },
    {
     "referenced_type" : "type-191"
    },
    {
     "referenced_type" : "type-17"
    }
   ],
   "return_type" : "type-72",
   "source_file" : "/system/core/libunwindstack/include/unwindstack/RegsArm64.h"
  },
  {
   "function_name" : "unwindstack::RegsArm64::SetPcFromReturnAddress",
   "linker_set_key" : "_ZN11unwindstack9RegsArm6422SetPcFromReturnAddressEPNS_6MemoryE",
   "parameters" :
   [
    {
     "is_this_ptr" : true,
     "referenced_type" : "type-597"
    },
    {
     "referenced_type" : "type-17"
    }
   ],
   "return_type" : "type-72",
   "source_file" : "/system/core/libunwindstack/include/unwindstack/RegsArm64.h"
  },
  {
   "function_name" : "unwindstack::RegsArm64::pc",
   "linker_set_key" : "_ZN11unwindstack9RegsArm642pcEv",
   "parameters" :
   [
    {
     "is_this_ptr" : true,
     "referenced_type" : "type-597"
    }
   ],
   "return_type" : "type-6",
   "source_file" : "/system/core/libunwindstack/include/unwindstack/RegsArm64.h"
  },
  {
   "function_name" : "unwindstack::RegsArm64::sp",
   "linker_set_key" : "_ZN11unwindstack9RegsArm642spEv",
   "parameters" :
   [
    {
     "is_this_ptr" : true,
     "referenced_type" : "type-597"
    }
   ],
   "return_type" : "type-6",
   "source_file" : "/system/core/libunwindstack/include/unwindstack/RegsArm64.h"
  },
  {
   "function_name" : "unwindstack::RegsArm64::Arch",
   "linker_set_key" : "_ZN11unwindstack9RegsArm644ArchEv",
   "parameters" :
   [
    {
     "is_this_ptr" : true,
     "referenced_type" : "type-597"
    }
   ],
   "return_type" : "type-34",
   "source_file" : "/system/core/libunwindstack/include/unwindstack/RegsArm64.h"
  },
  {
   "function_name" : "unwindstack::RegsArm64::Read",
   "linker_set_key" : "_ZN11unwindstack9RegsArm644ReadEPv",
   "parameters" :
   [
    {
     "referenced_type" : "type-61"
    }
   ],
   "return_type" : "type-94",
   "source_file" : "/system/core/libunwindstack/include/unwindstack/RegsArm64.h"
  },
  {
   "function_name" : "unwindstack::RegsArm64::Clone",
   "linker_set_key" : "_ZN11unwindstack9RegsArm645CloneEv",
   "parameters" :
   [
    {
     "is_this_ptr" : true,
     "referenced_type" : "type-597"
    }
   ],
   "return_type" : "type-94",
   "source_file" : "/system/core/libunwindstack/include/unwindstack/RegsArm64.h"
  },
  {
   "function_name" : "unwindstack::RegsArm64::set_pc",
   "linker_set_key" : "_ZN11unwindstack9RegsArm646set_pcEy",
   "parameters" :
   [
    {
     "is_this_ptr" : true,
     "referenced_type" : "type-597"
    },
    {
     "referenced_type" : "type-6"
    }
   ],
   "return_type" : "type-62",
   "source_file" : "/system/core/libunwindstack/include/unwindstack/RegsArm64.h"
  },
  {
   "function_name" : "unwindstack::RegsArm64::set_sp",
   "linker_set_key" : "_ZN11unwindstack9RegsArm646set_spEy",
   "parameters" :
   [
    {
     "is_this_ptr" : true,
     "referenced_type" : "type-597"
    },
    {
     "referenced_type" : "type-6"
    }
   ],
   "return_type" : "type-62",
   "source_file" : "/system/core/libunwindstack/include/unwindstack/RegsArm64.h"
  },
  {
   "function_name" : "unwindstack::RegsArm64::RegsArm64",
   "linker_set_key" : "_ZN11unwindstack9RegsArm64C1Ev",
   "parameters" :
   [
    {
     "is_this_ptr" : true,
     "referenced_type" : "type-597"
    }
   ],
   "return_type" : "type-62",
   "source_file" : "/system/core/libunwindstack/include/unwindstack/RegsArm64.h"
  },
  {
   "function_name" : "unwindstack::RegsArm64::RegsArm64",
   "linker_set_key" : "_ZN11unwindstack9RegsArm64C2Ev",
   "parameters" :
   [
    {
     "is_this_ptr" : true,
     "referenced_type" : "type-597"
    }
   ],
   "return_type" : "type-62",
   "source_file" : "/system/core/libunwindstack/include/unwindstack/RegsArm64.h"
  },
  {
   "function_name" : "unwindstack::RemoteMaps::GetMapsFile",
   "linker_set_key" : "_ZNK11unwindstack10RemoteMaps11GetMapsFileEv",
   "parameters" :
   [
    {
     "is_this_ptr" : true,
     "referenced_type" : "type-264"
    }
   ],
   "return_type" : "type-275",
   "source_file" : "/system/core/libunwindstack/include/unwindstack/Maps.h"
  },
  {
   "function_name" : "unwindstack::LocalUpdatableMaps::GetMapsFile",
   "linker_set_key" : "_ZNK11unwindstack18LocalUpdatableMaps11GetMapsFileEv",
   "parameters" :
   [
    {
     "is_this_ptr" : true,
     "referenced_type" : "type-266"
    }
   ],
   "return_type" : "type-275",
   "source_file" : "/system/core/libunwindstack/include/unwindstack/Maps.h"
  }
 ],
 "global_vars" :
 [
  {
   "access" : "protected",
   "linker_set_key" : "_ZN11unwindstack3Elf11cache_lock_E",
   "name" : "unwindstack::Elf::cache_lock_",
   "referenced_type" : "type-59",
   "source_file" : "/system/core/libunwindstack/include/unwindstack/Elf.h"
  },
  {
   "access" : "protected",
   "linker_set_key" : "_ZN11unwindstack3Elf14cache_enabled_E",
   "name" : "unwindstack::Elf::cache_enabled_",
   "referenced_type" : "type-72",
   "source_file" : "/system/core/libunwindstack/include/unwindstack/Elf.h"
  },
  {
   "access" : "protected",
   "linker_set_key" : "_ZN11unwindstack3Elf6cache_E",
   "name" : "unwindstack::Elf::cache_",
   "referenced_type" : "type-44",
   "source_file" : "/system/core/libunwindstack/include/unwindstack/Elf.h"
  }
 ],
 "lvalue_reference_types" :
 [
  {
   "alignment" : 4,
   "linker_set_key" : "const elf32_hdr &",
   "name" : "const elf32_hdr &",
   "referenced_type" : "type-120",
   "self_type" : "type-122",
   "size" : 4,
   "source_file" : "/system/core/libunwindstack/include/unwindstack/ElfInterface.h"
  },
  {
   "alignment" : 4,
   "linker_set_key" : "const elf32_hdr &",
   "name" : "const elf32_hdr &",
   "referenced_type" : "type-1267",
   "self_type" : "type-1269",
   "size" : 4,
   "source_file" : "/system/core/libunwindstack/include/unwindstack/ElfInterface.h"
  },
  {
   "alignment" : 4,
   "linker_set_key" : "const elf32_hdr &",
   "name" : "const elf32_hdr &",
   "referenced_type" : "type-437",
   "self_type" : "type-439",
   "size" : 4,
   "source_file" : "/system/core/libunwindstack/include/unwindstack/ElfInterface.h"
  },
  {
   "alignment" : 4,
   "linker_set_key" : "const elf32_hdr &",
   "name" : "const elf32_hdr &",
   "referenced_type" : "type-833",
   "self_type" : "type-835",
   "size" : 4,
   "source_file" : "/system/core/libunwindstack/include/unwindstack/ElfInterface.h"
  },
  {
   "alignment" : 4,
   "linker_set_key" : "const elf64_hdr &",
   "name" : "const elf64_hdr &",
   "referenced_type" : "type-123",
   "self_type" : "type-125",
   "size" : 4,
   "source_file" : "/system/core/libunwindstack/include/unwindstack/ElfInterface.h"
  },
  {
   "alignment" : 4,
   "linker_set_key" : "const elf64_hdr &",
   "name" : "const elf64_hdr &",
   "referenced_type" : "type-1270",
   "self_type" : "type-1272",
   "size" : 4,
   "source_file" : "/system/core/libunwindstack/include/unwindstack/ElfInterface.h"
  },
  {
   "alignment" : 4,
   "linker_set_key" : "const elf64_hdr &",
   "name" : "const elf64_hdr &",
   "referenced_type" : "type-440",
   "self_type" : "type-442",
   "size" : 4,
   "source_file" : "/system/core/libunwindstack/include/unwindstack/ElfInterface.h"
  },
  {
   "alignment" : 4,
   "linker_set_key" : "const elf64_hdr &",
   "name" : "const elf64_hdr &",
   "referenced_type" : "type-836",
   "self_type" : "type-838",
   "size" : 4,
   "source_file" : "/system/core/libunwindstack/include/unwindstack/ElfInterface.h"
  },
  {
   "alignment" : 4,
   "linker_set_key" : "const std::basic_string<char, std::char_traits<char>, std::allocator<char> > &",
   "name" : "const std::basic_string<char, std::char_traits<char>, std::allocator<char> > &",
   "referenced_type" : "type-100",
   "self_type" : "type-104",
   "size" : 4,
   "source_file" : "/system/core/libunwindstack/include/unwindstack/ElfInterface.h"
  },
  {
   "alignment" : 4,
   "linker_set_key" : "const std::basic_string<char, std::char_traits<char>, std::allocator<char> > &",
   "name" : "const std::basic_string<char, std::char_traits<char>, std::allocator<char> > &",
   "referenced_type" : "type-1013",
   "self_type" : "type-1015",
   "size" : 4,
   "source_file" : "/system/core/libunwindstack/include/unwindstack/ElfInterface.h"
  },
  {
   "alignment" : 4,
   "linker_set_key" : "const std::basic_string<char, std::char_traits<char>, std::allocator<char> > &",
   "name" : "const std::basic_string<char, std::char_traits<char>, std::allocator<char> > &",
   "referenced_type" : "type-1047",
   "self_type" : "type-1049",
   "size" : 4,
   "source_file" : "/system/core/libunwindstack/include/unwindstack/ElfInterface.h"
  },
  {
   "alignment" : 4,
   "linker_set_key" : "const std::basic_string<char, std::char_traits<char>, std::allocator<char> > &",
   "name" : "const std::basic_string<char, std::char_traits<char>, std::allocator<char> > &",
   "referenced_type" : "type-1072",
   "self_type" : "type-1074",
   "size" : 4,
   "source_file" : "/system/core/libunwindstack/include/unwindstack/ElfInterface.h"
  },
  {
   "alignment" : 4,
   "linker_set_key" : "const std::basic_string<char, std::char_traits<char>, std::allocator<char> > &",
   "name" : "const std::basic_string<char, std::char_traits<char>, std::allocator<char> > &",
   "referenced_type" : "type-1088",
   "self_type" : "type-1090",
   "size" : 4,
   "source_file" : "/system/core/libunwindstack/include/unwindstack/ElfInterface.h"
  },
  {
   "alignment" : 4,
   "linker_set_key" : "const std::basic_string<char, std::char_traits<char>, std::allocator<char> > &",
   "name" : "const std::basic_string<char, std::char_traits<char>, std::allocator<char> > &",
   "referenced_type" : "type-1097",
   "self_type" : "type-1101",
   "size" : 4,
   "source_file" : "/system/core/libunwindstack/include/unwindstack/ElfInterface.h"
  },
  {
   "alignment" : 4,
   "linker_set_key" : "const std::basic_string<char, std::char_traits<char>, std::allocator<char> > &",
   "name" : "const std::basic_string<char, std::char_traits<char>, std::allocator<char> > &",
   "referenced_type" : "type-1107",
   "self_type" : "type-1109",
   "size" : 4,
   "source_file" : "/system/core/libunwindstack/include/unwindstack/ElfInterface.h"
  },
  {
   "alignment" : 4,
   "linker_set_key" : "const std::basic_string<char, std::char_traits<char>, std::allocator<char> > &",
   "name" : "const std::basic_string<char, std::char_traits<char>, std::allocator<char> > &",
   "referenced_type" : "type-1121",
   "self_type" : "type-1125",
   "size" : 4,
   "source_file" : "/system/core/libunwindstack/include/unwindstack/ElfInterface.h"
  },
  {
   "alignment" : 4,
   "linker_set_key" : "const std::basic_string<char, std::char_traits<char>, std::allocator<char> > &",
   "name" : "const std::basic_string<char, std::char_traits<char>, std::allocator<char> > &",
   "referenced_type" : "type-1136",
   "self_type" : "type-1138",
   "size" : 4,
   "source_file" : "/system/core/libunwindstack/include/unwindstack/ElfInterface.h"
  },
  {
   "alignment" : 4,
   "linker_set_key" : "const std::basic_string<char, std::char_traits<char>, std::allocator<char> > &",
   "name" : "const std::basic_string<char, std::char_traits<char>, std::allocator<char> > &",
   "referenced_type" : "type-1149",
   "self_type" : "type-1151",
   "size" : 4,
   "source_file" : "/system/core/libunwindstack/include/unwindstack/ElfInterface.h"
  },
  {
   "alignment" : 4,
   "linker_set_key" : "const std::basic_string<char, std::char_traits<char>, std::allocator<char> > &",
   "name" : "const std::basic_string<char, std::char_traits<char>, std::allocator<char> > &",
   "referenced_type" : "type-1161",
   "self_type" : "type-1163",
   "size" : 4,
   "source_file" : "/system/core/libunwindstack/include/unwindstack/ElfInterface.h"
  },
  {
   "alignment" : 4,
   "linker_set_key" : "const std::basic_string<char, std::char_traits<char>, std::allocator<char> > &",
   "name" : "const std::basic_string<char, std::char_traits<char>, std::allocator<char> > &",
   "referenced_type" : "type-1186",
   "self_type" : "type-1190",
   "size" : 4,
   "source_file" : "/system/core/libunwindstack/include/unwindstack/ElfInterface.h"
  },
  {
   "alignment" : 4,
   "linker_set_key" : "const std::basic_string<char, std::char_traits<char>, std::allocator<char> > &",
   "name" : "const std::basic_string<char, std::char_traits<char>, std::allocator<char> > &",
   "referenced_type" : "type-1217",
   "self_type" : "type-1221",
   "size" : 4,
   "source_file" : "/system/core/libunwindstack/include/unwindstack/ElfInterface.h"
  },
  {
   "alignment" : 4,
   "linker_set_key" : "const std::basic_string<char, std::char_traits<char>, std::allocator<char> > &",
   "name" : "const std::basic_string<char, std::char_traits<char>, std::allocator<char> > &",
   "referenced_type" : "type-1234",
   "self_type" : "type-1237",
   "size" : 4,
   "source_file" : "/system/core/libunwindstack/include/unwindstack/ElfInterface.h"
  },
  {
   "alignment" : 4,
   "linker_set_key" : "const std::basic_string<char, std::char_traits<char>, std::allocator<char> > &",
   "name" : "const std::basic_string<char, std::char_traits<char>, std::allocator<char> > &",
   "referenced_type" : "type-1257",
   "self_type" : "type-1259",
   "size" : 4,
   "source_file" : "/system/core/libunwindstack/include/unwindstack/ElfInterface.h"
  },
  {
   "alignment" : 4,
   "linker_set_key" : "const std::basic_string<char, std::char_traits<char>, std::allocator<char> > &",
   "name" : "const std::basic_string<char, std::char_traits<char>, std::allocator<char> > &",
   "referenced_type" : "type-1275",
   "self_type" : "type-1278",
   "size" : 4,
   "source_file" : "/system/core/libunwindstack/include/unwindstack/ElfInterface.h"
  },
  {
   "alignment" : 4,
   "linker_set_key" : "const std::basic_string<char, std::char_traits<char>, std::allocator<char> > &",
   "name" : "const std::basic_string<char, std::char_traits<char>, std::allocator<char> > &",
   "referenced_type" : "type-129",
   "self_type" : "type-131",
   "size" : 4,
   "source_file" : "/system/core/libunwindstack/include/unwindstack/ElfInterface.h"
  },
  {
   "alignment" : 4,
   "linker_set_key" : "const std::basic_string<char, std::char_traits<char>, std::allocator<char> > &",
   "name" : "const std::basic_string<char, std::char_traits<char>, std::allocator<char> > &",
   "referenced_type" : "type-1291",
   "self_type" : "type-1293",
   "size" : 4,
   "source_file" : "/system/core/libunwindstack/include/unwindstack/ElfInterface.h"
  },
  {
   "alignment" : 4,
   "linker_set_key" : "const std::basic_string<char, std::char_traits<char>, std::allocator<char> > &",
   "name" : "const std::basic_string<char, std::char_traits<char>, std::allocator<char> > &",
   "referenced_type" : "type-1313",
   "self_type" : "type-1325",
   "size" : 4,
   "source_file" : "/system/core/libunwindstack/include/unwindstack/ElfInterface.h"
  },
  {
   "alignment" : 4,
   "linker_set_key" : "const std::basic_string<char, std::char_traits<char>, std::allocator<char> > &",
   "name" : "const std::basic_string<char, std::char_traits<char>, std::allocator<char> > &",
   "referenced_type" : "type-1341",
   "self_type" : "type-1343",
   "size" : 4,
   "source_file" : "/system/core/libunwindstack/include/unwindstack/ElfInterface.h"
  },
  {
   "alignment" : 4,
   "linker_set_key" : "const std::basic_string<char, std::char_traits<char>, std::allocator<char> > &",
   "name" : "const std::basic_string<char, std::char_traits<char>, std::allocator<char> > &",
   "referenced_type" : "type-1358",
   "self_type" : "type-1360",
   "size" : 4,
   "source_file" : "/system/core/libunwindstack/include/unwindstack/ElfInterface.h"
  },
  {
   "alignment" : 4,
   "linker_set_key" : "const std::basic_string<char, std::char_traits<char>, std::allocator<char> > &",
   "name" : "const std::basic_string<char, std::char_traits<char>, std::allocator<char> > &",
   "referenced_type" : "type-1375",
   "self_type" : "type-1378",
   "size" : 4,
   "source_file" : "/system/core/libunwindstack/include/unwindstack/ElfInterface.h"
  },
  {
   "alignment" : 4,
   "linker_set_key" : "const std::basic_string<char, std::char_traits<char>, std::allocator<char> > &",
   "name" : "const std::basic_string<char, std::char_traits<char>, std::allocator<char> > &",
   "referenced_type" : "type-1381",
   "self_type" : "type-1383",
   "size" : 4,
   "source_file" : "/system/core/libunwindstack/include/unwindstack/Memory.h"
  },
  {
   "alignment" : 4,
   "linker_set_key" : "const std::basic_string<char, std::char_traits<char>, std::allocator<char> > &",
   "name" : "const std::basic_string<char, std::char_traits<char>, std::allocator<char> > &",
   "referenced_type" : "type-149",
   "self_type" : "type-151",
   "size" : 4,
   "source_file" : "/system/core/libunwindstack/include/unwindstack/ElfInterface.h"
  },
  {
   "alignment" : 4,
   "linker_set_key" : "const std::basic_string<char, std::char_traits<char>, std::allocator<char> > &",
   "name" : "const std::basic_string<char, std::char_traits<char>, std::allocator<char> > &",
   "referenced_type" : "type-186",
   "self_type" : "type-205",
   "size" : 4,
   "source_file" : "/system/core/libunwindstack/include/unwindstack/ElfInterface.h"
  },
  {
   "alignment" : 4,
   "linker_set_key" : "const std::basic_string<char, std::char_traits<char>, std::allocator<char> > &",
   "name" : "const std::basic_string<char, std::char_traits<char>, std::allocator<char> > &",
   "referenced_type" : "type-233",
   "self_type" : "type-235",
   "size" : 4,
   "source_file" : "/system/core/libunwindstack/include/unwindstack/ElfInterface.h"
  },
  {
   "alignment" : 4,
   "linker_set_key" : "const std::basic_string<char, std::char_traits<char>, std::allocator<char> > &",
   "name" : "const std::basic_string<char, std::char_traits<char>, std::allocator<char> > &",
   "referenced_type" : "type-253",
   "self_type" : "type-255",
   "size" : 4,
   "source_file" : "/system/core/libunwindstack/include/unwindstack/ElfInterface.h"
  },
  {
   "alignment" : 4,
   "linker_set_key" : "const std::basic_string<char, std::char_traits<char>, std::allocator<char> > &",
   "name" : "const std::basic_string<char, std::char_traits<char>, std::allocator<char> > &",
   "referenced_type" : "type-275",
   "self_type" : "type-277",
   "size" : 4,
   "source_file" : "/system/core/libunwindstack/include/unwindstack/ElfInterface.h"
  },
  {
   "alignment" : 4,
   "linker_set_key" : "const std::basic_string<char, std::char_traits<char>, std::allocator<char> > &",
   "name" : "const std::basic_string<char, std::char_traits<char>, std::allocator<char> > &",
   "referenced_type" : "type-344",
   "self_type" : "type-346",
   "size" : 4,
   "source_file" : "/system/core/libunwindstack/include/unwindstack/ElfInterface.h"
  },
  {
   "alignment" : 4,
   "linker_set_key" : "const std::basic_string<char, std::char_traits<char>, std::allocator<char> > &",
   "name" : "const std::basic_string<char, std::char_traits<char>, std::allocator<char> > &",
   "referenced_type" : "type-362",
   "self_type" : "type-364",
   "size" : 4,
   "source_file" : "/system/core/libunwindstack/include/unwindstack/ElfInterface.h"
  },
  {
   "alignment" : 4,
   "linker_set_key" : "const std::basic_string<char, std::char_traits<char>, std::allocator<char> > &",
   "name" : "const std::basic_string<char, std::char_traits<char>, std::allocator<char> > &",
   "referenced_type" : "type-37",
   "self_type" : "type-39",
   "size" : 4,
   "source_file" : "/system/core/libunwindstack/include/unwindstack/ElfInterface.h"
  },
  {
   "alignment" : 4,
   "linker_set_key" : "const std::basic_string<char, std::char_traits<char>, std::allocator<char> > &",
   "name" : "const std::basic_string<char, std::char_traits<char>, std::allocator<char> > &",
   "referenced_type" : "type-383",
   "self_type" : "type-385",
   "size" : 4,
   "source_file" : "/system/core/libunwindstack/include/unwindstack/ElfInterface.h"
  },
  {
   "alignment" : 4,
   "linker_set_key" : "const std::basic_string<char, std::char_traits<char>, std::allocator<char> > &",
   "name" : "const std::basic_string<char, std::char_traits<char>, std::allocator<char> > &",
   "referenced_type" : "type-390",
   "self_type" : "type-392",
   "size" : 4,
   "source_file" : "/system/core/libunwindstack/include/unwindstack/ElfInterface.h"
  },
  {
   "alignment" : 4,
   "linker_set_key" : "const std::basic_string<char, std::char_traits<char>, std::allocator<char> > &",
   "name" : "const std::basic_string<char, std::char_traits<char>, std::allocator<char> > &",
   "referenced_type" : "type-424",
   "self_type" : "type-428",
   "size" : 4,
   "source_file" : "/system/core/libunwindstack/include/unwindstack/ElfInterface.h"
  },
  {
   "alignment" : 4,
   "linker_set_key" : "const std::basic_string<char, std::char_traits<char>, std::allocator<char> > &",
   "name" : "const std::basic_string<char, std::char_traits<char>, std::allocator<char> > &",
   "referenced_type" : "type-446",
   "self_type" : "type-448",
   "size" : 4,
   "source_file" : "/system/core/libunwindstack/include/unwindstack/ElfInterface.h"
  },
  {
   "alignment" : 4,
   "linker_set_key" : "const std::basic_string<char, std::char_traits<char>, std::allocator<char> > &",
   "name" : "const std::basic_string<char, std::char_traits<char>, std::allocator<char> > &",
   "referenced_type" : "type-463",
   "self_type" : "type-465",
   "size" : 4,
   "source_file" : "/system/core/libunwindstack/include/unwindstack/ElfInterface.h"
  },
  {
   "alignment" : 4,
   "linker_set_key" : "const std::basic_string<char, std::char_traits<char>, std::allocator<char> > &",
   "name" : "const std::basic_string<char, std::char_traits<char>, std::allocator<char> > &",
   "referenced_type" : "type-486",
   "self_type" : "type-498",
   "size" : 4,
   "source_file" : "/system/core/libunwindstack/include/unwindstack/ElfInterface.h"
  },
  {
   "alignment" : 4,
   "linker_set_key" : "const std::basic_string<char, std::char_traits<char>, std::allocator<char> > &",
   "name" : "const std::basic_string<char, std::char_traits<char>, std::allocator<char> > &",
   "referenced_type" : "type-515",
   "self_type" : "type-517",
   "size" : 4,
   "source_file" : "/system/core/libunwindstack/include/unwindstack/ElfInterface.h"
  },
  {
   "alignment" : 4,
   "linker_set_key" : "const std::basic_string<char, std::char_traits<char>, std::allocator<char> > &",
   "name" : "const std::basic_string<char, std::char_traits<char>, std::allocator<char> > &",
   "referenced_type" : "type-533",
   "self_type" : "type-535",
   "size" : 4,
   "source_file" : "/system/core/libunwindstack/include/unwindstack/ElfInterface.h"
  },
  {
   "alignment" : 4,
   "linker_set_key" : "const std::basic_string<char, std::char_traits<char>, std::allocator<char> > &",
   "name" : "const std::basic_string<char, std::char_traits<char>, std::allocator<char> > &",
   "referenced_type" : "type-550",
   "self_type" : "type-552",
   "size" : 4,
   "source_file" : "/system/core/libunwindstack/include/unwindstack/ElfInterface.h"
  },
  {
   "alignment" : 4,
   "linker_set_key" : "const std::basic_string<char, std::char_traits<char>, std::allocator<char> > &",
   "name" : "const std::basic_string<char, std::char_traits<char>, std::allocator<char> > &",
   "referenced_type" : "type-555",
   "self_type" : "type-557",
   "size" : 4,
   "source_file" : "/system/core/libunwindstack/include/unwindstack/Memory.h"
  },
  {
   "alignment" : 4,
   "linker_set_key" : "const std::basic_string<char, std::char_traits<char>, std::allocator<char> > &",
   "name" : "const std::basic_string<char, std::char_traits<char>, std::allocator<char> > &",
   "referenced_type" : "type-587",
   "self_type" : "type-590",
   "size" : 4,
   "source_file" : "/system/core/libunwindstack/include/unwindstack/ElfInterface.h"
  },
  {
   "alignment" : 4,
   "linker_set_key" : "const std::basic_string<char, std::char_traits<char>, std::allocator<char> > &",
   "name" : "const std::basic_string<char, std::char_traits<char>, std::allocator<char> > &",
   "referenced_type" : "type-623",
   "self_type" : "type-625",
   "size" : 4,
   "source_file" : "/system/core/libunwindstack/include/unwindstack/ElfInterface.h"
  },
  {
   "alignment" : 4,
   "linker_set_key" : "const std::basic_string<char, std::char_traits<char>, std::allocator<char> > &",
   "name" : "const std::basic_string<char, std::char_traits<char>, std::allocator<char> > &",
   "referenced_type" : "type-642",
   "self_type" : "type-644",
   "size" : 4,
   "source_file" : "/system/core/libunwindstack/include/unwindstack/ElfInterface.h"
  },
  {
   "alignment" : 4,
   "linker_set_key" : "const std::basic_string<char, std::char_traits<char>, std::allocator<char> > &",
   "name" : "const std::basic_string<char, std::char_traits<char>, std::allocator<char> > &",
   "referenced_type" : "type-669",
   "self_type" : "type-671",
   "size" : 4,
   "source_file" : "/system/core/libunwindstack/include/unwindstack/ElfInterface.h"
  },
  {
   "alignment" : 4,
   "linker_set_key" : "const std::basic_string<char, std::char_traits<char>, std::allocator<char> > &",
   "name" : "const std::basic_string<char, std::char_traits<char>, std::allocator<char> > &",
   "referenced_type" : "type-683",
   "self_type" : "type-685",
   "size" : 4,
   "source_file" : "/system/core/libunwindstack/include/unwindstack/ElfInterface.h"
  },
  {
   "alignment" : 4,
   "linker_set_key" : "const std::basic_string<char, std::char_traits<char>, std::allocator<char> > &",
   "name" : "const std::basic_string<char, std::char_traits<char>, std::allocator<char> > &",
   "referenced_type" : "type-700",
   "self_type" : "type-702",
   "size" : 4,
   "source_file" : "/system/core/libunwindstack/include/unwindstack/ElfInterface.h"
  },
  {
   "alignment" : 4,
   "linker_set_key" : "const std::basic_string<char, std::char_traits<char>, std::allocator<char> > &",
   "name" : "const std::basic_string<char, std::char_traits<char>, std::allocator<char> > &",
   "referenced_type" : "type-721",
   "self_type" : "type-723",
   "size" : 4,
   "source_file" : "/system/core/libunwindstack/include/unwindstack/ElfInterface.h"
  },
  {
   "alignment" : 4,
   "linker_set_key" : "const std::basic_string<char, std::char_traits<char>, std::allocator<char> > &",
   "name" : "const std::basic_string<char, std::char_traits<char>, std::allocator<char> > &",
   "referenced_type" : "type-724",
   "self_type" : "type-730",
   "size" : 4,
   "source_file" : "/system/core/libunwindstack/include/unwindstack/ElfInterface.h"
  },
  {
   "alignment" : 4,
   "linker_set_key" : "const std::basic_string<char, std::char_traits<char>, std::allocator<char> > &",
   "name" : "const std::basic_string<char, std::char_traits<char>, std::allocator<char> > &",
   "referenced_type" : "type-741",
   "self_type" : "type-743",
   "size" : 4,
   "source_file" : "/system/core/libunwindstack/include/unwindstack/ElfInterface.h"
  },
  {
   "alignment" : 4,
   "linker_set_key" : "const std::basic_string<char, std::char_traits<char>, std::allocator<char> > &",
   "name" : "const std::basic_string<char, std::char_traits<char>, std::allocator<char> > &",
   "referenced_type" : "type-786",
   "self_type" : "type-788",
   "size" : 4,
   "source_file" : "/system/core/libunwindstack/include/unwindstack/ElfInterface.h"
  },
  {
   "alignment" : 4,
   "linker_set_key" : "const std::basic_string<char, std::char_traits<char>, std::allocator<char> > &",
   "name" : "const std::basic_string<char, std::char_traits<char>, std::allocator<char> > &",
   "referenced_type" : "type-820",
   "self_type" : "type-824",
   "size" : 4,
   "source_file" : "/system/core/libunwindstack/include/unwindstack/ElfInterface.h"
  },
  {
   "alignment" : 4,
   "linker_set_key" : "const std::basic_string<char, std::char_traits<char>, std::allocator<char> > &",
   "name" : "const std::basic_string<char, std::char_traits<char>, std::allocator<char> > &",
   "referenced_type" : "type-842",
   "self_type" : "type-844",
   "size" : 4,
   "source_file" : "/system/core/libunwindstack/include/unwindstack/ElfInterface.h"
  },
  {
   "alignment" : 4,
   "linker_set_key" : "const std::basic_string<char, std::char_traits<char>, std::allocator<char> > &",
   "name" : "const std::basic_string<char, std::char_traits<char>, std::allocator<char> > &",
   "referenced_type" : "type-859",
   "self_type" : "type-861",
   "size" : 4,
   "source_file" : "/system/core/libunwindstack/include/unwindstack/ElfInterface.h"
  },
  {
   "alignment" : 4,
   "linker_set_key" : "const std::basic_string<char, std::char_traits<char>, std::allocator<char> > &",
   "name" : "const std::basic_string<char, std::char_traits<char>, std::allocator<char> > &",
   "referenced_type" : "type-881",
   "self_type" : "type-893",
   "size" : 4,
   "source_file" : "/system/core/libunwindstack/include/unwindstack/ElfInterface.h"
  },
  {
   "alignment" : 4,
   "linker_set_key" : "const std::basic_string<char, std::char_traits<char>, std::allocator<char> > &",
   "name" : "const std::basic_string<char, std::char_traits<char>, std::allocator<char> > &",
   "referenced_type" : "type-909",
   "self_type" : "type-911",
   "size" : 4,
   "source_file" : "/system/core/libunwindstack/include/unwindstack/ElfInterface.h"
  },
  {
   "alignment" : 4,
   "linker_set_key" : "const std::basic_string<char, std::char_traits<char>, std::allocator<char> > &",
   "name" : "const std::basic_string<char, std::char_traits<char>, std::allocator<char> > &",
   "referenced_type" : "type-927",
   "self_type" : "type-929",
   "size" : 4,
   "source_file" : "/system/core/libunwindstack/include/unwindstack/ElfInterface.h"
  },
  {
   "alignment" : 4,
   "linker_set_key" : "const std::basic_string<char, std::char_traits<char>, std::allocator<char> > &",
   "name" : "const std::basic_string<char, std::char_traits<char>, std::allocator<char> > &",
   "referenced_type" : "type-944",
   "self_type" : "type-946",
   "size" : 4,
   "source_file" : "/system/core/libunwindstack/include/unwindstack/ElfInterface.h"
  },
  {
   "alignment" : 4,
   "linker_set_key" : "const std::basic_string<char, std::char_traits<char>, std::allocator<char> > &",
   "name" : "const std::basic_string<char, std::char_traits<char>, std::allocator<char> > &",
   "referenced_type" : "type-949",
   "self_type" : "type-951",
   "size" : 4,
   "source_file" : "/system/core/libunwindstack/include/unwindstack/Memory.h"
  },
  {
   "alignment" : 4,
   "linker_set_key" : "const std::basic_string<char, std::char_traits<char>, std::allocator<char> > &",
   "name" : "const std::basic_string<char, std::char_traits<char>, std::allocator<char> > &",
   "referenced_type" : "type-974",
   "self_type" : "type-977",
   "size" : 4,
   "source_file" : "/system/core/libunwindstack/include/unwindstack/ElfInterface.h"
  },
  {
   "alignment" : 4,
   "linker_set_key" : "const std::basic_string<char, std::char_traits<char>, std::allocator<char> > &",
   "name" : "const std::basic_string<char, std::char_traits<char>, std::allocator<char> > &",
   "referenced_type" : "type-997",
   "self_type" : "type-999",
   "size" : 4,
   "source_file" : "/system/core/libunwindstack/include/unwindstack/ElfInterface.h"
  },
  {
   "alignment" : 4,
   "linker_set_key" : "const std::shared_ptr<unwindstack::Memory> &",
   "name" : "const std::shared_ptr<unwindstack::Memory> &",
   "referenced_type" : "type-1349",
   "self_type" : "type-1352",
   "size" : 4,
   "source_file" : "/system/core/libunwindstack/include/unwindstack/MapInfo.h"
  },
  {
   "alignment" : 4,
   "linker_set_key" : "const std::shared_ptr<unwindstack::Memory> &",
   "name" : "const std::shared_ptr<unwindstack::Memory> &",
   "referenced_type" : "type-1385",
   "self_type" : "type-1387",
   "size" : 4,
   "source_file" : "/system/core/libunwindstack/include/unwindstack/Memory.h"
  },
  {
   "alignment" : 4,
   "linker_set_key" : "const std::shared_ptr<unwindstack::Memory> &",
   "name" : "const std::shared_ptr<unwindstack::Memory> &",
   "referenced_type" : "type-244",
   "self_type" : "type-246",
   "size" : 4,
   "source_file" : "/system/core/libunwindstack/include/unwindstack/MapInfo.h"
  },
  {
   "alignment" : 4,
   "linker_set_key" : "const std::shared_ptr<unwindstack::Memory> &",
   "name" : "const std::shared_ptr<unwindstack::Memory> &",
   "referenced_type" : "type-524",
   "self_type" : "type-526",
   "size" : 4,
   "source_file" : "/system/core/libunwindstack/include/unwindstack/MapInfo.h"
  },
  {
   "alignment" : 4,
   "linker_set_key" : "const std::shared_ptr<unwindstack::Memory> &",
   "name" : "const std::shared_ptr<unwindstack::Memory> &",
   "referenced_type" : "type-558",
   "self_type" : "type-560",
   "size" : 4,
   "source_file" : "/system/core/libunwindstack/include/unwindstack/Memory.h"
  },
  {
   "alignment" : 4,
   "linker_set_key" : "const std::shared_ptr<unwindstack::Memory> &",
   "name" : "const std::shared_ptr<unwindstack::Memory> &",
   "referenced_type" : "type-918",
   "self_type" : "type-920",
   "size" : 4,
   "source_file" : "/system/core/libunwindstack/include/unwindstack/MapInfo.h"
  },
  {
   "alignment" : 4,
   "linker_set_key" : "const std::shared_ptr<unwindstack::Memory> &",
   "name" : "const std::shared_ptr<unwindstack::Memory> &",
   "referenced_type" : "type-952",
   "self_type" : "type-954",
   "size" : 4,
   "source_file" : "/system/core/libunwindstack/include/unwindstack/Memory.h"
  },
  {
   "alignment" : 4,
   "linker_set_key" : "const std::unordered_map<unsigned long long, unwindstack::LoadInfo, std::hash<unsigned long long>, std::equal_to<unsigned long long>, std::allocator<std::pair<const unsigned long long, unwindstack::LoadInfo> > > &",
   "name" : "const std::unordered_map<unsigned long long, unwindstack::LoadInfo, std::hash<unsigned long long>, std::equal_to<unsigned long long>, std::allocator<std::pair<const unsigned long long, unwindstack::LoadInfo> > > &",
   "referenced_type" : "type-1008",
   "self_type" : "type-1007",
   "size" : 4,
   "source_file" : "/system/core/libunwindstack/include/unwindstack/ElfInterface.h"
  },
  {
   "alignment" : 4,
   "linker_set_key" : "const std::unordered_map<unsigned long long, unwindstack::LoadInfo, std::hash<unsigned long long>, std::equal_to<unsigned long long>, std::allocator<std::pair<const unsigned long long, unwindstack::LoadInfo> > > &",
   "name" : "const std::unordered_map<unsigned long long, unwindstack::LoadInfo, std::hash<unsigned long long>, std::equal_to<unsigned long long>, std::allocator<std::pair<const unsigned long long, unwindstack::LoadInfo> > > &",
   "referenced_type" : "type-1043",
   "self_type" : "type-1042",
   "size" : 4,
   "source_file" : "/system/core/libunwindstack/include/unwindstack/ElfInterface.h"
  },
  {
   "alignment" : 4,
   "linker_set_key" : "const std::unordered_map<unsigned long long, unwindstack::LoadInfo, std::hash<unsigned long long>, std::equal_to<unsigned long long>, std::allocator<std::pair<const unsigned long long, unwindstack::LoadInfo> > > &",
   "name" : "const std::unordered_map<unsigned long long, unwindstack::LoadInfo, std::hash<unsigned long long>, std::equal_to<unsigned long long>, std::allocator<std::pair<const unsigned long long, unwindstack::LoadInfo> > > &",
   "referenced_type" : "type-1065",
   "self_type" : "type-1064",
   "size" : 4,
   "source_file" : "/system/core/libunwindstack/include/unwindstack/ElfInterface.h"
  },
  {
   "alignment" : 4,
   "linker_set_key" : "const std::unordered_map<unsigned long long, unwindstack::LoadInfo, std::hash<unsigned long long>, std::equal_to<unsigned long long>, std::allocator<std::pair<const unsigned long long, unwindstack::LoadInfo> > > &",
   "name" : "const std::unordered_map<unsigned long long, unwindstack::LoadInfo, std::hash<unsigned long long>, std::equal_to<unsigned long long>, std::allocator<std::pair<const unsigned long long, unwindstack::LoadInfo> > > &",
   "referenced_type" : "type-1068",
   "self_type" : "type-1067",
   "size" : 4,
   "source_file" : "/system/core/libunwindstack/include/unwindstack/ElfInterface.h"
  },
  {
   "alignment" : 4,
   "linker_set_key" : "const std::unordered_map<unsigned long long, unwindstack::LoadInfo, std::hash<unsigned long long>, std::equal_to<unsigned long long>, std::allocator<std::pair<const unsigned long long, unwindstack::LoadInfo> > > &",
   "name" : "const std::unordered_map<unsigned long long, unwindstack::LoadInfo, std::hash<unsigned long long>, std::equal_to<unsigned long long>, std::allocator<std::pair<const unsigned long long, unwindstack::LoadInfo> > > &",
   "referenced_type" : "type-1083",
   "self_type" : "type-1082",
   "size" : 4,
   "source_file" : "/system/core/libunwindstack/include/unwindstack/ElfInterface.h"
  },
  {
   "alignment" : 4,
   "linker_set_key" : "const std::unordered_map<unsigned long long, unwindstack::LoadInfo, std::hash<unsigned long long>, std::equal_to<unsigned long long>, std::allocator<std::pair<const unsigned long long, unwindstack::LoadInfo> > > &",
   "name" : "const std::unordered_map<unsigned long long, unwindstack::LoadInfo, std::hash<unsigned long long>, std::equal_to<unsigned long long>, std::allocator<std::pair<const unsigned long long, unwindstack::LoadInfo> > > &",
   "referenced_type" : "type-1103",
   "self_type" : "type-1102",
   "size" : 4,
   "source_file" : "/system/core/libunwindstack/include/unwindstack/ElfInterface.h"
  },
  {
   "alignment" : 4,
   "linker_set_key" : "const std::unordered_map<unsigned long long, unwindstack::LoadInfo, std::hash<unsigned long long>, std::equal_to<unsigned long long>, std::allocator<std::pair<const unsigned long long, unwindstack::LoadInfo> > > &",
   "name" : "const std::unordered_map<unsigned long long, unwindstack::LoadInfo, std::hash<unsigned long long>, std::equal_to<unsigned long long>, std::allocator<std::pair<const unsigned long long, unwindstack::LoadInfo> > > &",
   "referenced_type" : "type-1117",
   "self_type" : "type-1116",
   "size" : 4,
   "source_file" : "/system/core/libunwindstack/include/unwindstack/ElfInterface.h"
  },
  {
   "alignment" : 4,
   "linker_set_key" : "const std::unordered_map<unsigned long long, unwindstack::LoadInfo, std::hash<unsigned long long>, std::equal_to<unsigned long long>, std::allocator<std::pair<const unsigned long long, unwindstack::LoadInfo> > > &",
   "name" : "const std::unordered_map<unsigned long long, unwindstack::LoadInfo, std::hash<unsigned long long>, std::equal_to<unsigned long long>, std::allocator<std::pair<const unsigned long long, unwindstack::LoadInfo> > > &",
   "referenced_type" : "type-1132",
   "self_type" : "type-1131",
   "size" : 4,
   "source_file" : "/system/core/libunwindstack/include/unwindstack/ElfInterface.h"
  },
  {
   "alignment" : 4,
   "linker_set_key" : "const std::unordered_map<unsigned long long, unwindstack::LoadInfo, std::hash<unsigned long long>, std::equal_to<unsigned long long>, std::allocator<std::pair<const unsigned long long, unwindstack::LoadInfo> > > &",
   "name" : "const std::unordered_map<unsigned long long, unwindstack::LoadInfo, std::hash<unsigned long long>, std::equal_to<unsigned long long>, std::allocator<std::pair<const unsigned long long, unwindstack::LoadInfo> > > &",
   "referenced_type" : "type-1145",
   "self_type" : "type-1144",
   "size" : 4,
   "source_file" : "/system/core/libunwindstack/include/unwindstack/ElfInterface.h"
  },
  {
   "alignment" : 4,
   "linker_set_key" : "const std::unordered_map<unsigned long long, unwindstack::LoadInfo, std::hash<unsigned long long>, std::equal_to<unsigned long long>, std::allocator<std::pair<const unsigned long long, unwindstack::LoadInfo> > > &",
   "name" : "const std::unordered_map<unsigned long long, unwindstack::LoadInfo, std::hash<unsigned long long>, std::equal_to<unsigned long long>, std::allocator<std::pair<const unsigned long long, unwindstack::LoadInfo> > > &",
   "referenced_type" : "type-1157",
   "self_type" : "type-1156",
   "size" : 4,
   "source_file" : "/system/core/libunwindstack/include/unwindstack/ElfInterface.h"
  },
  {
   "alignment" : 4,
   "linker_set_key" : "const std::unordered_map<unsigned long long, unwindstack::LoadInfo, std::hash<unsigned long long>, std::equal_to<unsigned long long>, std::allocator<std::pair<const unsigned long long, unwindstack::LoadInfo> > > &",
   "name" : "const std::unordered_map<unsigned long long, unwindstack::LoadInfo, std::hash<unsigned long long>, std::equal_to<unsigned long long>, std::allocator<std::pair<const unsigned long long, unwindstack::LoadInfo> > > &",
   "referenced_type" : "type-117",
   "self_type" : "type-116",
   "size" : 4,
   "source_file" : "/system/core/libunwindstack/include/unwindstack/ElfInterface.h"
  },
  {
   "alignment" : 4,
   "linker_set_key" : "const std::unordered_map<unsigned long long, unwindstack::LoadInfo, std::hash<unsigned long long>, std::equal_to<unsigned long long>, std::allocator<std::pair<const unsigned long long, unwindstack::LoadInfo> > > &",
   "name" : "const std::unordered_map<unsigned long long, unwindstack::LoadInfo, std::hash<unsigned long long>, std::equal_to<unsigned long long>, std::allocator<std::pair<const unsigned long long, unwindstack::LoadInfo> > > &",
   "referenced_type" : "type-1182",
   "self_type" : "type-1181",
   "size" : 4,
   "source_file" : "/system/core/libunwindstack/include/unwindstack/ElfInterface.h"
  },
  {
   "alignment" : 4,
   "linker_set_key" : "const std::unordered_map<unsigned long long, unwindstack::LoadInfo, std::hash<unsigned long long>, std::equal_to<unsigned long long>, std::allocator<std::pair<const unsigned long long, unwindstack::LoadInfo> > > &",
   "name" : "const std::unordered_map<unsigned long long, unwindstack::LoadInfo, std::hash<unsigned long long>, std::equal_to<unsigned long long>, std::allocator<std::pair<const unsigned long long, unwindstack::LoadInfo> > > &",
   "referenced_type" : "type-1213",
   "self_type" : "type-1212",
   "size" : 4,
   "source_file" : "/system/core/libunwindstack/include/unwindstack/ElfInterface.h"
  },
  {
   "alignment" : 4,
   "linker_set_key" : "const std::unordered_map<unsigned long long, unwindstack::LoadInfo, std::hash<unsigned long long>, std::equal_to<unsigned long long>, std::allocator<std::pair<const unsigned long long, unwindstack::LoadInfo> > > &",
   "name" : "const std::unordered_map<unsigned long long, unwindstack::LoadInfo, std::hash<unsigned long long>, std::equal_to<unsigned long long>, std::allocator<std::pair<const unsigned long long, unwindstack::LoadInfo> > > &",
   "referenced_type" : "type-1230",
   "self_type" : "type-1229",
   "size" : 4,
   "source_file" : "/system/core/libunwindstack/include/unwindstack/ElfInterface.h"
  },
  {
   "alignment" : 4,
   "linker_set_key" : "const std::unordered_map<unsigned long long, unwindstack::LoadInfo, std::hash<unsigned long long>, std::equal_to<unsigned long long>, std::allocator<std::pair<const unsigned long long, unwindstack::LoadInfo> > > &",
   "name" : "const std::unordered_map<unsigned long long, unwindstack::LoadInfo, std::hash<unsigned long long>, std::equal_to<unsigned long long>, std::allocator<std::pair<const unsigned long long, unwindstack::LoadInfo> > > &",
   "referenced_type" : "type-1253",
   "self_type" : "type-1252",
   "size" : 4,
   "source_file" : "/system/core/libunwindstack/include/unwindstack/ElfInterface.h"
  },
  {
   "alignment" : 4,
   "linker_set_key" : "const std::unordered_map<unsigned long long, unwindstack::LoadInfo, std::hash<unsigned long long>, std::equal_to<unsigned long long>, std::allocator<std::pair<const unsigned long long, unwindstack::LoadInfo> > > &",
   "name" : "const std::unordered_map<unsigned long long, unwindstack::LoadInfo, std::hash<unsigned long long>, std::equal_to<unsigned long long>, std::allocator<std::pair<const unsigned long long, unwindstack::LoadInfo> > > &",
   "referenced_type" : "type-1265",
   "self_type" : "type-1264",
   "size" : 4,
   "source_file" : "/system/core/libunwindstack/include/unwindstack/ElfInterface.h"
  },
  {
   "alignment" : 4,
   "linker_set_key" : "const std::unordered_map<unsigned long long, unwindstack::LoadInfo, std::hash<unsigned long long>, std::equal_to<unsigned long long>, std::allocator<std::pair<const unsigned long long, unwindstack::LoadInfo> > > &",
   "name" : "const std::unordered_map<unsigned long long, unwindstack::LoadInfo, std::hash<unsigned long long>, std::equal_to<unsigned long long>, std::allocator<std::pair<const unsigned long long, unwindstack::LoadInfo> > > &",
   "referenced_type" : "type-1286",
   "self_type" : "type-1285",
   "size" : 4,
   "source_file" : "/system/core/libunwindstack/include/unwindstack/ElfInterface.h"
  },
  {
   "alignment" : 4,
   "linker_set_key" : "const std::unordered_map<unsigned long long, unwindstack::LoadInfo, std::hash<unsigned long long>, std::equal_to<unsigned long long>, std::allocator<std::pair<const unsigned long long, unwindstack::LoadInfo> > > &",
   "name" : "const std::unordered_map<unsigned long long, unwindstack::LoadInfo, std::hash<unsigned long long>, std::equal_to<unsigned long long>, std::allocator<std::pair<const unsigned long long, unwindstack::LoadInfo> > > &",
   "referenced_type" : "type-1320",
   "self_type" : "type-1319",
   "size" : 4,
   "source_file" : "/system/core/libunwindstack/include/unwindstack/ElfInterface.h"
  },
  {
   "alignment" : 4,
   "linker_set_key" : "const std::unordered_map<unsigned long long, unwindstack::LoadInfo, std::hash<unsigned long long>, std::equal_to<unsigned long long>, std::allocator<std::pair<const unsigned long long, unwindstack::LoadInfo> > > &",
   "name" : "const std::unordered_map<unsigned long long, unwindstack::LoadInfo, std::hash<unsigned long long>, std::equal_to<unsigned long long>, std::allocator<std::pair<const unsigned long long, unwindstack::LoadInfo> > > &",
   "referenced_type" : "type-1337",
   "self_type" : "type-1336",
   "size" : 4,
   "source_file" : "/system/core/libunwindstack/include/unwindstack/ElfInterface.h"
  },
  {
   "alignment" : 4,
   "linker_set_key" : "const std::unordered_map<unsigned long long, unwindstack::LoadInfo, std::hash<unsigned long long>, std::equal_to<unsigned long long>, std::allocator<std::pair<const unsigned long long, unwindstack::LoadInfo> > > &",
   "name" : "const std::unordered_map<unsigned long long, unwindstack::LoadInfo, std::hash<unsigned long long>, std::equal_to<unsigned long long>, std::allocator<std::pair<const unsigned long long, unwindstack::LoadInfo> > > &",
   "referenced_type" : "type-1354",
   "self_type" : "type-1353",
   "size" : 4,
   "source_file" : "/system/core/libunwindstack/include/unwindstack/ElfInterface.h"
  },
  {
   "alignment" : 4,
   "linker_set_key" : "const std::unordered_map<unsigned long long, unwindstack::LoadInfo, std::hash<unsigned long long>, std::equal_to<unsigned long long>, std::allocator<std::pair<const unsigned long long, unwindstack::LoadInfo> > > &",
   "name" : "const std::unordered_map<unsigned long long, unwindstack::LoadInfo, std::hash<unsigned long long>, std::equal_to<unsigned long long>, std::allocator<std::pair<const unsigned long long, unwindstack::LoadInfo> > > &",
   "referenced_type" : "type-1371",
   "self_type" : "type-1370",
   "size" : 4,
   "source_file" : "/system/core/libunwindstack/include/unwindstack/ElfInterface.h"
  },
  {
   "alignment" : 4,
   "linker_set_key" : "const std::unordered_map<unsigned long long, unwindstack::LoadInfo, std::hash<unsigned long long>, std::equal_to<unsigned long long>, std::allocator<std::pair<const unsigned long long, unwindstack::LoadInfo> > > &",
   "name" : "const std::unordered_map<unsigned long long, unwindstack::LoadInfo, std::hash<unsigned long long>, std::equal_to<unsigned long long>, std::allocator<std::pair<const unsigned long long, unwindstack::LoadInfo> > > &",
   "referenced_type" : "type-144",
   "self_type" : "type-143",
   "size" : 4,
   "source_file" : "/system/core/libunwindstack/include/unwindstack/ElfInterface.h"
  },
  {
   "alignment" : 4,
   "linker_set_key" : "const std::unordered_map<unsigned long long, unwindstack::LoadInfo, std::hash<unsigned long long>, std::equal_to<unsigned long long>, std::allocator<std::pair<const unsigned long long, unwindstack::LoadInfo> > > &",
   "name" : "const std::unordered_map<unsigned long long, unwindstack::LoadInfo, std::hash<unsigned long long>, std::equal_to<unsigned long long>, std::allocator<std::pair<const unsigned long long, unwindstack::LoadInfo> > > &",
   "referenced_type" : "type-200",
   "self_type" : "type-199",
   "size" : 4,
   "source_file" : "/system/core/libunwindstack/include/unwindstack/ElfInterface.h"
  },
  {
   "alignment" : 4,
   "linker_set_key" : "const std::unordered_map<unsigned long long, unwindstack::LoadInfo, std::hash<unsigned long long>, std::equal_to<unsigned long long>, std::allocator<std::pair<const unsigned long long, unwindstack::LoadInfo> > > &",
   "name" : "const std::unordered_map<unsigned long long, unwindstack::LoadInfo, std::hash<unsigned long long>, std::equal_to<unsigned long long>, std::allocator<std::pair<const unsigned long long, unwindstack::LoadInfo> > > &",
   "referenced_type" : "type-229",
   "self_type" : "type-228",
   "size" : 4,
   "source_file" : "/system/core/libunwindstack/include/unwindstack/ElfInterface.h"
  },
  {
   "alignment" : 4,
   "linker_set_key" : "const std::unordered_map<unsigned long long, unwindstack::LoadInfo, std::hash<unsigned long long>, std::equal_to<unsigned long long>, std::allocator<std::pair<const unsigned long long, unwindstack::LoadInfo> > > &",
   "name" : "const std::unordered_map<unsigned long long, unwindstack::LoadInfo, std::hash<unsigned long long>, std::equal_to<unsigned long long>, std::allocator<std::pair<const unsigned long long, unwindstack::LoadInfo> > > &",
   "referenced_type" : "type-248",
   "self_type" : "type-247",
   "size" : 4,
   "source_file" : "/system/core/libunwindstack/include/unwindstack/ElfInterface.h"
  },
  {
   "alignment" : 4,
   "linker_set_key" : "const std::unordered_map<unsigned long long, unwindstack::LoadInfo, std::hash<unsigned long long>, std::equal_to<unsigned long long>, std::allocator<std::pair<const unsigned long long, unwindstack::LoadInfo> > > &",
   "name" : "const std::unordered_map<unsigned long long, unwindstack::LoadInfo, std::hash<unsigned long long>, std::equal_to<unsigned long long>, std::allocator<std::pair<const unsigned long long, unwindstack::LoadInfo> > > &",
   "referenced_type" : "type-269",
   "self_type" : "type-268",
   "size" : 4,
   "source_file" : "/system/core/libunwindstack/include/unwindstack/ElfInterface.h"
  },
  {
   "alignment" : 4,
   "linker_set_key" : "const std::unordered_map<unsigned long long, unwindstack::LoadInfo, std::hash<unsigned long long>, std::equal_to<unsigned long long>, std::allocator<std::pair<const unsigned long long, unwindstack::LoadInfo> > > &",
   "name" : "const std::unordered_map<unsigned long long, unwindstack::LoadInfo, std::hash<unsigned long long>, std::equal_to<unsigned long long>, std::allocator<std::pair<const unsigned long long, unwindstack::LoadInfo> > > &",
   "referenced_type" : "type-27",
   "self_type" : "type-26",
   "size" : 4,
   "source_file" : "/system/core/libunwindstack/include/unwindstack/ElfInterface.h"
  },
  {
   "alignment" : 4,
   "linker_set_key" : "const std::unordered_map<unsigned long long, unwindstack::LoadInfo, std::hash<unsigned long long>, std::equal_to<unsigned long long>, std::allocator<std::pair<const unsigned long long, unwindstack::LoadInfo> > > &",
   "name" : "const std::unordered_map<unsigned long long, unwindstack::LoadInfo, std::hash<unsigned long long>, std::equal_to<unsigned long long>, std::allocator<std::pair<const unsigned long long, unwindstack::LoadInfo> > > &",
   "referenced_type" : "type-340",
   "self_type" : "type-339",
   "size" : 4,
   "source_file" : "/system/core/libunwindstack/include/unwindstack/ElfInterface.h"
  },
  {
   "alignment" : 4,
   "linker_set_key" : "const std::unordered_map<unsigned long long, unwindstack::LoadInfo, std::hash<unsigned long long>, std::equal_to<unsigned long long>, std::allocator<std::pair<const unsigned long long, unwindstack::LoadInfo> > > &",
   "name" : "const std::unordered_map<unsigned long long, unwindstack::LoadInfo, std::hash<unsigned long long>, std::equal_to<unsigned long long>, std::allocator<std::pair<const unsigned long long, unwindstack::LoadInfo> > > &",
   "referenced_type" : "type-357",
   "self_type" : "type-356",
   "size" : 4,
   "source_file" : "/system/core/libunwindstack/include/unwindstack/ElfInterface.h"
  },
  {
   "alignment" : 4,
   "linker_set_key" : "const std::unordered_map<unsigned long long, unwindstack::LoadInfo, std::hash<unsigned long long>, std::equal_to<unsigned long long>, std::allocator<std::pair<const unsigned long long, unwindstack::LoadInfo> > > &",
   "name" : "const std::unordered_map<unsigned long long, unwindstack::LoadInfo, std::hash<unsigned long long>, std::equal_to<unsigned long long>, std::allocator<std::pair<const unsigned long long, unwindstack::LoadInfo> > > &",
   "referenced_type" : "type-371",
   "self_type" : "type-370",
   "size" : 4,
   "source_file" : "/system/core/libunwindstack/include/unwindstack/ElfInterface.h"
  },
  {
   "alignment" : 4,
   "linker_set_key" : "const std::unordered_map<unsigned long long, unwindstack::LoadInfo, std::hash<unsigned long long>, std::equal_to<unsigned long long>, std::allocator<std::pair<const unsigned long long, unwindstack::LoadInfo> > > &",
   "name" : "const std::unordered_map<unsigned long long, unwindstack::LoadInfo, std::hash<unsigned long long>, std::equal_to<unsigned long long>, std::allocator<std::pair<const unsigned long long, unwindstack::LoadInfo> > > &",
   "referenced_type" : "type-378",
   "self_type" : "type-377",
   "size" : 4,
   "source_file" : "/system/core/libunwindstack/include/unwindstack/ElfInterface.h"
  },
  {
   "alignment" : 4,
   "linker_set_key" : "const std::unordered_map<unsigned long long, unwindstack::LoadInfo, std::hash<unsigned long long>, std::equal_to<unsigned long long>, std::allocator<std::pair<const unsigned long long, unwindstack::LoadInfo> > > &",
   "name" : "const std::unordered_map<unsigned long long, unwindstack::LoadInfo, std::hash<unsigned long long>, std::equal_to<unsigned long long>, std::allocator<std::pair<const unsigned long long, unwindstack::LoadInfo> > > &",
   "referenced_type" : "type-420",
   "self_type" : "type-419",
   "size" : 4,
   "source_file" : "/system/core/libunwindstack/include/unwindstack/ElfInterface.h"
  },
  {
   "alignment" : 4,
   "linker_set_key" : "const std::unordered_map<unsigned long long, unwindstack::LoadInfo, std::hash<unsigned long long>, std::equal_to<unsigned long long>, std::allocator<std::pair<const unsigned long long, unwindstack::LoadInfo> > > &",
   "name" : "const std::unordered_map<unsigned long long, unwindstack::LoadInfo, std::hash<unsigned long long>, std::equal_to<unsigned long long>, std::allocator<std::pair<const unsigned long long, unwindstack::LoadInfo> > > &",
   "referenced_type" : "type-435",
   "self_type" : "type-434",
   "size" : 4,
   "source_file" : "/system/core/libunwindstack/include/unwindstack/ElfInterface.h"
  },
  {
   "alignment" : 4,
   "linker_set_key" : "const std::unordered_map<unsigned long long, unwindstack::LoadInfo, std::hash<unsigned long long>, std::equal_to<unsigned long long>, std::allocator<std::pair<const unsigned long long, unwindstack::LoadInfo> > > &",
   "name" : "const std::unordered_map<unsigned long long, unwindstack::LoadInfo, std::hash<unsigned long long>, std::equal_to<unsigned long long>, std::allocator<std::pair<const unsigned long long, unwindstack::LoadInfo> > > &",
   "referenced_type" : "type-458",
   "self_type" : "type-457",
   "size" : 4,
   "source_file" : "/system/core/libunwindstack/include/unwindstack/ElfInterface.h"
  },
  {
   "alignment" : 4,
   "linker_set_key" : "const std::unordered_map<unsigned long long, unwindstack::LoadInfo, std::hash<unsigned long long>, std::equal_to<unsigned long long>, std::allocator<std::pair<const unsigned long long, unwindstack::LoadInfo> > > &",
   "name" : "const std::unordered_map<unsigned long long, unwindstack::LoadInfo, std::hash<unsigned long long>, std::equal_to<unsigned long long>, std::allocator<std::pair<const unsigned long long, unwindstack::LoadInfo> > > &",
   "referenced_type" : "type-493",
   "self_type" : "type-492",
   "size" : 4,
   "source_file" : "/system/core/libunwindstack/include/unwindstack/ElfInterface.h"
  },
  {
   "alignment" : 4,
   "linker_set_key" : "const std::unordered_map<unsigned long long, unwindstack::LoadInfo, std::hash<unsigned long long>, std::equal_to<unsigned long long>, std::allocator<std::pair<const unsigned long long, unwindstack::LoadInfo> > > &",
   "name" : "const std::unordered_map<unsigned long long, unwindstack::LoadInfo, std::hash<unsigned long long>, std::equal_to<unsigned long long>, std::allocator<std::pair<const unsigned long long, unwindstack::LoadInfo> > > &",
   "referenced_type" : "type-511",
   "self_type" : "type-510",
   "size" : 4,
   "source_file" : "/system/core/libunwindstack/include/unwindstack/ElfInterface.h"
  },
  {
   "alignment" : 4,
   "linker_set_key" : "const std::unordered_map<unsigned long long, unwindstack::LoadInfo, std::hash<unsigned long long>, std::equal_to<unsigned long long>, std::allocator<std::pair<const unsigned long long, unwindstack::LoadInfo> > > &",
   "name" : "const std::unordered_map<unsigned long long, unwindstack::LoadInfo, std::hash<unsigned long long>, std::equal_to<unsigned long long>, std::allocator<std::pair<const unsigned long long, unwindstack::LoadInfo> > > &",
   "referenced_type" : "type-528",
   "self_type" : "type-527",
   "size" : 4,
   "source_file" : "/system/core/libunwindstack/include/unwindstack/ElfInterface.h"
  },
  {
   "alignment" : 4,
   "linker_set_key" : "const std::unordered_map<unsigned long long, unwindstack::LoadInfo, std::hash<unsigned long long>, std::equal_to<unsigned long long>, std::allocator<std::pair<const unsigned long long, unwindstack::LoadInfo> > > &",
   "name" : "const std::unordered_map<unsigned long long, unwindstack::LoadInfo, std::hash<unsigned long long>, std::equal_to<unsigned long long>, std::allocator<std::pair<const unsigned long long, unwindstack::LoadInfo> > > &",
   "referenced_type" : "type-546",
   "self_type" : "type-545",
   "size" : 4,
   "source_file" : "/system/core/libunwindstack/include/unwindstack/ElfInterface.h"
  },
  {
   "alignment" : 4,
   "linker_set_key" : "const std::unordered_map<unsigned long long, unwindstack::LoadInfo, std::hash<unsigned long long>, std::equal_to<unsigned long long>, std::allocator<std::pair<const unsigned long long, unwindstack::LoadInfo> > > &",
   "name" : "const std::unordered_map<unsigned long long, unwindstack::LoadInfo, std::hash<unsigned long long>, std::equal_to<unsigned long long>, std::allocator<std::pair<const unsigned long long, unwindstack::LoadInfo> > > &",
   "referenced_type" : "type-583",
   "self_type" : "type-582",
   "size" : 4,
   "source_file" : "/system/core/libunwindstack/include/unwindstack/ElfInterface.h"
  },
  {
   "alignment" : 4,
   "linker_set_key" : "const std::unordered_map<unsigned long long, unwindstack::LoadInfo, std::hash<unsigned long long>, std::equal_to<unsigned long long>, std::allocator<std::pair<const unsigned long long, unwindstack::LoadInfo> > > &",
   "name" : "const std::unordered_map<unsigned long long, unwindstack::LoadInfo, std::hash<unsigned long long>, std::equal_to<unsigned long long>, std::allocator<std::pair<const unsigned long long, unwindstack::LoadInfo> > > &",
   "referenced_type" : "type-619",
   "self_type" : "type-618",
   "size" : 4,
   "source_file" : "/system/core/libunwindstack/include/unwindstack/ElfInterface.h"
  },
  {
   "alignment" : 4,
   "linker_set_key" : "const std::unordered_map<unsigned long long, unwindstack::LoadInfo, std::hash<unsigned long long>, std::equal_to<unsigned long long>, std::allocator<std::pair<const unsigned long long, unwindstack::LoadInfo> > > &",
   "name" : "const std::unordered_map<unsigned long long, unwindstack::LoadInfo, std::hash<unsigned long long>, std::equal_to<unsigned long long>, std::allocator<std::pair<const unsigned long long, unwindstack::LoadInfo> > > &",
   "referenced_type" : "type-637",
   "self_type" : "type-636",
   "size" : 4,
   "source_file" : "/system/core/libunwindstack/include/unwindstack/ElfInterface.h"
  },
  {
   "alignment" : 4,
   "linker_set_key" : "const std::unordered_map<unsigned long long, unwindstack::LoadInfo, std::hash<unsigned long long>, std::equal_to<unsigned long long>, std::allocator<std::pair<const unsigned long long, unwindstack::LoadInfo> > > &",
   "name" : "const std::unordered_map<unsigned long long, unwindstack::LoadInfo, std::hash<unsigned long long>, std::equal_to<unsigned long long>, std::allocator<std::pair<const unsigned long long, unwindstack::LoadInfo> > > &",
   "referenced_type" : "type-665",
   "self_type" : "type-664",
   "size" : 4,
   "source_file" : "/system/core/libunwindstack/include/unwindstack/ElfInterface.h"
  },
  {
   "alignment" : 4,
   "linker_set_key" : "const std::unordered_map<unsigned long long, unwindstack::LoadInfo, std::hash<unsigned long long>, std::equal_to<unsigned long long>, std::allocator<std::pair<const unsigned long long, unwindstack::LoadInfo> > > &",
   "name" : "const std::unordered_map<unsigned long long, unwindstack::LoadInfo, std::hash<unsigned long long>, std::equal_to<unsigned long long>, std::allocator<std::pair<const unsigned long long, unwindstack::LoadInfo> > > &",
   "referenced_type" : "type-678",
   "self_type" : "type-677",
   "size" : 4,
   "source_file" : "/system/core/libunwindstack/include/unwindstack/ElfInterface.h"
  },
  {
   "alignment" : 4,
   "linker_set_key" : "const std::unordered_map<unsigned long long, unwindstack::LoadInfo, std::hash<unsigned long long>, std::equal_to<unsigned long long>, std::allocator<std::pair<const unsigned long long, unwindstack::LoadInfo> > > &",
   "name" : "const std::unordered_map<unsigned long long, unwindstack::LoadInfo, std::hash<unsigned long long>, std::equal_to<unsigned long long>, std::allocator<std::pair<const unsigned long long, unwindstack::LoadInfo> > > &",
   "referenced_type" : "type-691",
   "self_type" : "type-690",
   "size" : 4,
   "source_file" : "/system/core/libunwindstack/include/unwindstack/ElfInterface.h"
  },
  {
   "alignment" : 4,
   "linker_set_key" : "const std::unordered_map<unsigned long long, unwindstack::LoadInfo, std::hash<unsigned long long>, std::equal_to<unsigned long long>, std::allocator<std::pair<const unsigned long long, unwindstack::LoadInfo> > > &",
   "name" : "const std::unordered_map<unsigned long long, unwindstack::LoadInfo, std::hash<unsigned long long>, std::equal_to<unsigned long long>, std::allocator<std::pair<const unsigned long long, unwindstack::LoadInfo> > > &",
   "referenced_type" : "type-695",
   "self_type" : "type-694",
   "size" : 4,
   "source_file" : "/system/core/libunwindstack/include/unwindstack/ElfInterface.h"
  },
  {
   "alignment" : 4,
   "linker_set_key" : "const std::unordered_map<unsigned long long, unwindstack::LoadInfo, std::hash<unsigned long long>, std::equal_to<unsigned long long>, std::allocator<std::pair<const unsigned long long, unwindstack::LoadInfo> > > &",
   "name" : "const std::unordered_map<unsigned long long, unwindstack::LoadInfo, std::hash<unsigned long long>, std::equal_to<unsigned long long>, std::allocator<std::pair<const unsigned long long, unwindstack::LoadInfo> > > &",
   "referenced_type" : "type-717",
   "self_type" : "type-716",
   "size" : 4,
   "source_file" : "/system/core/libunwindstack/include/unwindstack/ElfInterface.h"
  },
  {
   "alignment" : 4,
   "linker_set_key" : "const std::unordered_map<unsigned long long, unwindstack::LoadInfo, std::hash<unsigned long long>, std::equal_to<unsigned long long>, std::allocator<std::pair<const unsigned long long, unwindstack::LoadInfo> > > &",
   "name" : "const std::unordered_map<unsigned long long, unwindstack::LoadInfo, std::hash<unsigned long long>, std::equal_to<unsigned long long>, std::allocator<std::pair<const unsigned long long, unwindstack::LoadInfo> > > &",
   "referenced_type" : "type-737",
   "self_type" : "type-736",
   "size" : 4,
   "source_file" : "/system/core/libunwindstack/include/unwindstack/ElfInterface.h"
  },
  {
   "alignment" : 4,
   "linker_set_key" : "const std::unordered_map<unsigned long long, unwindstack::LoadInfo, std::hash<unsigned long long>, std::equal_to<unsigned long long>, std::allocator<std::pair<const unsigned long long, unwindstack::LoadInfo> > > &",
   "name" : "const std::unordered_map<unsigned long long, unwindstack::LoadInfo, std::hash<unsigned long long>, std::equal_to<unsigned long long>, std::allocator<std::pair<const unsigned long long, unwindstack::LoadInfo> > > &",
   "referenced_type" : "type-782",
   "self_type" : "type-781",
   "size" : 4,
   "source_file" : "/system/core/libunwindstack/include/unwindstack/ElfInterface.h"
  },
  {
   "alignment" : 4,
   "linker_set_key" : "const std::unordered_map<unsigned long long, unwindstack::LoadInfo, std::hash<unsigned long long>, std::equal_to<unsigned long long>, std::allocator<std::pair<const unsigned long long, unwindstack::LoadInfo> > > &",
   "name" : "const std::unordered_map<unsigned long long, unwindstack::LoadInfo, std::hash<unsigned long long>, std::equal_to<unsigned long long>, std::allocator<std::pair<const unsigned long long, unwindstack::LoadInfo> > > &",
   "referenced_type" : "type-816",
   "self_type" : "type-815",
   "size" : 4,
   "source_file" : "/system/core/libunwindstack/include/unwindstack/ElfInterface.h"
  },
  {
   "alignment" : 4,
   "linker_set_key" : "const std::unordered_map<unsigned long long, unwindstack::LoadInfo, std::hash<unsigned long long>, std::equal_to<unsigned long long>, std::allocator<std::pair<const unsigned long long, unwindstack::LoadInfo> > > &",
   "name" : "const std::unordered_map<unsigned long long, unwindstack::LoadInfo, std::hash<unsigned long long>, std::equal_to<unsigned long long>, std::allocator<std::pair<const unsigned long long, unwindstack::LoadInfo> > > &",
   "referenced_type" : "type-831",
   "self_type" : "type-830",
   "size" : 4,
   "source_file" : "/system/core/libunwindstack/include/unwindstack/ElfInterface.h"
  },
  {
   "alignment" : 4,
   "linker_set_key" : "const std::unordered_map<unsigned long long, unwindstack::LoadInfo, std::hash<unsigned long long>, std::equal_to<unsigned long long>, std::allocator<std::pair<const unsigned long long, unwindstack::LoadInfo> > > &",
   "name" : "const std::unordered_map<unsigned long long, unwindstack::LoadInfo, std::hash<unsigned long long>, std::equal_to<unsigned long long>, std::allocator<std::pair<const unsigned long long, unwindstack::LoadInfo> > > &",
   "referenced_type" : "type-854",
   "self_type" : "type-853",
   "size" : 4,
   "source_file" : "/system/core/libunwindstack/include/unwindstack/ElfInterface.h"
  },
  {
   "alignment" : 4,
   "linker_set_key" : "const std::unordered_map<unsigned long long, unwindstack::LoadInfo, std::hash<unsigned long long>, std::equal_to<unsigned long long>, std::allocator<std::pair<const unsigned long long, unwindstack::LoadInfo> > > &",
   "name" : "const std::unordered_map<unsigned long long, unwindstack::LoadInfo, std::hash<unsigned long long>, std::equal_to<unsigned long long>, std::allocator<std::pair<const unsigned long long, unwindstack::LoadInfo> > > &",
   "referenced_type" : "type-888",
   "self_type" : "type-887",
   "size" : 4,
   "source_file" : "/system/core/libunwindstack/include/unwindstack/ElfInterface.h"
  },
  {
   "alignment" : 4,
   "linker_set_key" : "const std::unordered_map<unsigned long long, unwindstack::LoadInfo, std::hash<unsigned long long>, std::equal_to<unsigned long long>, std::allocator<std::pair<const unsigned long long, unwindstack::LoadInfo> > > &",
   "name" : "const std::unordered_map<unsigned long long, unwindstack::LoadInfo, std::hash<unsigned long long>, std::equal_to<unsigned long long>, std::allocator<std::pair<const unsigned long long, unwindstack::LoadInfo> > > &",
   "referenced_type" : "type-905",
   "self_type" : "type-904",
   "size" : 4,
   "source_file" : "/system/core/libunwindstack/include/unwindstack/ElfInterface.h"
  },
  {
   "alignment" : 4,
   "linker_set_key" : "const std::unordered_map<unsigned long long, unwindstack::LoadInfo, std::hash<unsigned long long>, std::equal_to<unsigned long long>, std::allocator<std::pair<const unsigned long long, unwindstack::LoadInfo> > > &",
   "name" : "const std::unordered_map<unsigned long long, unwindstack::LoadInfo, std::hash<unsigned long long>, std::equal_to<unsigned long long>, std::allocator<std::pair<const unsigned long long, unwindstack::LoadInfo> > > &",
   "referenced_type" : "type-922",
   "self_type" : "type-921",
   "size" : 4,
   "source_file" : "/system/core/libunwindstack/include/unwindstack/ElfInterface.h"
  },
  {
   "alignment" : 4,
   "linker_set_key" : "const std::unordered_map<unsigned long long, unwindstack::LoadInfo, std::hash<unsigned long long>, std::equal_to<unsigned long long>, std::allocator<std::pair<const unsigned long long, unwindstack::LoadInfo> > > &",
   "name" : "const std::unordered_map<unsigned long long, unwindstack::LoadInfo, std::hash<unsigned long long>, std::equal_to<unsigned long long>, std::allocator<std::pair<const unsigned long long, unwindstack::LoadInfo> > > &",
   "referenced_type" : "type-940",
   "self_type" : "type-939",
   "size" : 4,
   "source_file" : "/system/core/libunwindstack/include/unwindstack/ElfInterface.h"
  },
  {
   "alignment" : 4,
   "linker_set_key" : "const std::unordered_map<unsigned long long, unwindstack::LoadInfo, std::hash<unsigned long long>, std::equal_to<unsigned long long>, std::allocator<std::pair<const unsigned long long, unwindstack::LoadInfo> > > &",
   "name" : "const std::unordered_map<unsigned long long, unwindstack::LoadInfo, std::hash<unsigned long long>, std::equal_to<unsigned long long>, std::allocator<std::pair<const unsigned long long, unwindstack::LoadInfo> > > &",
   "referenced_type" : "type-96",
   "self_type" : "type-95",
   "size" : 4,
   "source_file" : "/system/core/libunwindstack/include/unwindstack/ElfInterface.h"
  },
  {
   "alignment" : 4,
   "linker_set_key" : "const std::unordered_map<unsigned long long, unwindstack::LoadInfo, std::hash<unsigned long long>, std::equal_to<unsigned long long>, std::allocator<std::pair<const unsigned long long, unwindstack::LoadInfo> > > &",
   "name" : "const std::unordered_map<unsigned long long, unwindstack::LoadInfo, std::hash<unsigned long long>, std::equal_to<unsigned long long>, std::allocator<std::pair<const unsigned long long, unwindstack::LoadInfo> > > &",
   "referenced_type" : "type-970",
   "self_type" : "type-969",
   "size" : 4,
   "source_file" : "/system/core/libunwindstack/include/unwindstack/ElfInterface.h"
  },
  {
   "alignment" : 4,
   "linker_set_key" : "const std::unordered_map<unsigned long long, unwindstack::LoadInfo, std::hash<unsigned long long>, std::equal_to<unsigned long long>, std::allocator<std::pair<const unsigned long long, unwindstack::LoadInfo> > > &",
   "name" : "const std::unordered_map<unsigned long long, unwindstack::LoadInfo, std::hash<unsigned long long>, std::equal_to<unsigned long long>, std::allocator<std::pair<const unsigned long long, unwindstack::LoadInfo> > > &",
   "referenced_type" : "type-993",
   "self_type" : "type-992",
   "size" : 4,
   "source_file" : "/system/core/libunwindstack/include/unwindstack/ElfInterface.h"
  },
  {
   "alignment" : 4,
   "linker_set_key" : "const std::vector<std::basic_string<char, std::char_traits<char>, std::allocator<char> >, std::allocator<std::basic_string<char, std::char_traits<char>, std::allocator<char> > > > &",
   "name" : "const std::vector<std::basic_string<char, std::char_traits<char>, std::allocator<char> >, std::allocator<std::basic_string<char, std::char_traits<char>, std::allocator<char> > > > &",
   "referenced_type" : "type-1037",
   "self_type" : "type-1039",
   "size" : 4,
   "source_file" : "/system/core/libunwindstack/include/unwindstack/LocalUnwinder.h"
  },
  {
   "alignment" : 4,
   "linker_set_key" : "const std::vector<std::basic_string<char, std::char_traits<char>, std::allocator<char> >, std::allocator<std::basic_string<char, std::char_traits<char>, std::allocator<char> > > > &",
   "name" : "const std::vector<std::basic_string<char, std::char_traits<char>, std::allocator<char> >, std::allocator<std::basic_string<char, std::char_traits<char>, std::allocator<char> > > > &",
   "referenced_type" : "type-577",
   "self_type" : "type-579",
   "size" : 4,
   "source_file" : "/system/core/libunwindstack/include/unwindstack/LocalUnwinder.h"
  },
  {
   "alignment" : 4,
   "linker_set_key" : "const std::vector<std::basic_string<char, std::char_traits<char>, std::allocator<char> >, std::allocator<std::basic_string<char, std::char_traits<char>, std::allocator<char> > > > &",
   "name" : "const std::vector<std::basic_string<char, std::char_traits<char>, std::allocator<char> >, std::allocator<std::basic_string<char, std::char_traits<char>, std::allocator<char> > > > &",
   "referenced_type" : "type-964",
   "self_type" : "type-966",
   "size" : 4,
   "source_file" : "/system/core/libunwindstack/include/unwindstack/LocalUnwinder.h"
  },
  {
   "alignment" : 4,
   "linker_set_key" : "const std::vector<unwindstack::FrameData, std::allocator<unwindstack::FrameData> > &",
   "name" : "const std::vector<unwindstack::FrameData, std::allocator<unwindstack::FrameData> > &",
   "referenced_type" : "type-1173",
   "self_type" : "type-1172",
   "size" : 4,
   "source_file" : "/system/core/libunwindstack/include/unwindstack/Unwinder.h"
  },
  {
   "alignment" : 4,
   "linker_set_key" : "const std::vector<unwindstack::FrameData, std::allocator<unwindstack::FrameData> > &",
   "name" : "const std::vector<unwindstack::FrameData, std::allocator<unwindstack::FrameData> > &",
   "referenced_type" : "type-770",
   "self_type" : "type-769",
   "size" : 4,
   "source_file" : "/system/core/libunwindstack/include/unwindstack/Unwinder.h"
  },
  {
   "alignment" : 4,
   "linker_set_key" : "const unwindstack::DwarfSection::iterator &",
   "name" : "const unwindstack::DwarfSection::iterator &",
   "referenced_type" : "type-288",
   "self_type" : "type-289",
   "size" : 4,
   "source_file" : "/system/core/libunwindstack/include/unwindstack/DwarfSection.h"
  },
  {
   "alignment" : 4,
   "linker_set_key" : "const unwindstack::ErrorData &",
   "name" : "const unwindstack::ErrorData &",
   "referenced_type" : "type-30",
   "self_type" : "type-29",
   "size" : 4,
   "source_file" : "/system/core/libunwindstack/include/unwindstack/ElfInterface.h"
  },
  {
   "alignment" : 4,
   "linker_set_key" : "const unwindstack::FrameData &",
   "name" : "const unwindstack::FrameData &",
   "referenced_type" : "type-772",
   "self_type" : "type-773",
   "size" : 4,
   "source_file" : "/system/core/libunwindstack/include/unwindstack/Unwinder.h"
  },
  {
   "alignment" : 4,
   "linker_set_key" : "const unwindstack::Regs::Location &",
   "name" : "const unwindstack::Regs::Location &",
   "referenced_type" : "type-103",
   "self_type" : "type-105",
   "size" : 4,
   "source_file" : "/system/core/libunwindstack/include/unwindstack/Regs.h"
  },
  {
   "alignment" : 4,
   "linker_set_key" : "std::shared_ptr<unwindstack::Memory> &",
   "name" : "std::shared_ptr<unwindstack::Memory> &",
   "referenced_type" : "type-1178",
   "self_type" : "type-1177",
   "size" : 4,
   "source_file" : "/system/core/libunwindstack/include/unwindstack/Unwinder.h"
  },
  {
   "alignment" : 4,
   "linker_set_key" : "std::shared_ptr<unwindstack::Memory> &",
   "name" : "std::shared_ptr<unwindstack::Memory> &",
   "referenced_type" : "type-1300",
   "self_type" : "type-1299",
   "size" : 4,
   "source_file" : "/system/core/libunwindstack/include/unwindstack/Global.h"
  },
  {
   "alignment" : 4,
   "linker_set_key" : "std::shared_ptr<unwindstack::Memory> &",
   "name" : "std::shared_ptr<unwindstack::Memory> &",
   "referenced_type" : "type-1333",
   "self_type" : "type-1332",
   "size" : 4,
   "source_file" : "/system/core/libunwindstack/include/unwindstack/JitDebug.h"
  },
  {
   "alignment" : 4,
   "linker_set_key" : "std::shared_ptr<unwindstack::Memory> &",
   "name" : "std::shared_ptr<unwindstack::Memory> &",
   "referenced_type" : "type-164",
   "self_type" : "type-163",
   "size" : 4,
   "source_file" : "/system/core/libunwindstack/include/unwindstack/Global.h"
  },
  {
   "alignment" : 4,
   "linker_set_key" : "std::shared_ptr<unwindstack::Memory> &",
   "name" : "std::shared_ptr<unwindstack::Memory> &",
   "referenced_type" : "type-222",
   "self_type" : "type-221",
   "size" : 4,
   "source_file" : "/system/core/libunwindstack/include/unwindstack/JitDebug.h"
  },
  {
   "alignment" : 4,
   "linker_set_key" : "std::shared_ptr<unwindstack::Memory> &",
   "name" : "std::shared_ptr<unwindstack::Memory> &",
   "referenced_type" : "type-472",
   "self_type" : "type-471",
   "size" : 4,
   "source_file" : "/system/core/libunwindstack/include/unwindstack/Global.h"
  },
  {
   "alignment" : 4,
   "linker_set_key" : "std::shared_ptr<unwindstack::Memory> &",
   "name" : "std::shared_ptr<unwindstack::Memory> &",
   "referenced_type" : "type-506",
   "self_type" : "type-505",
   "size" : 4,
   "source_file" : "/system/core/libunwindstack/include/unwindstack/JitDebug.h"
  },
  {
   "alignment" : 4,
   "linker_set_key" : "std::shared_ptr<unwindstack::Memory> &",
   "name" : "std::shared_ptr<unwindstack::Memory> &",
   "referenced_type" : "type-775",
   "self_type" : "type-774",
   "size" : 4,
   "source_file" : "/system/core/libunwindstack/include/unwindstack/Unwinder.h"
  },
  {
   "alignment" : 4,
   "linker_set_key" : "std::shared_ptr<unwindstack::Memory> &",
   "name" : "std::shared_ptr<unwindstack::Memory> &",
   "referenced_type" : "type-868",
   "self_type" : "type-867",
   "size" : 4,
   "source_file" : "/system/core/libunwindstack/include/unwindstack/Global.h"
  },
  {
   "alignment" : 4,
   "linker_set_key" : "std::shared_ptr<unwindstack::Memory> &",
   "name" : "std::shared_ptr<unwindstack::Memory> &",
   "referenced_type" : "type-900",
   "self_type" : "type-899",
   "size" : 4,
   "source_file" : "/system/core/libunwindstack/include/unwindstack/JitDebug.h"
  },
  {
   "alignment" : 4,
   "linker_set_key" : "std::vector<std::basic_string<char, std::char_traits<char>, std::allocator<char> >, std::allocator<std::basic_string<char, std::char_traits<char>, std::allocator<char> > > > &",
   "name" : "std::vector<std::basic_string<char, std::char_traits<char>, std::allocator<char> >, std::allocator<std::basic_string<char, std::char_traits<char>, std::allocator<char> > > > &",
   "referenced_type" : "type-1302",
   "self_type" : "type-1301",
   "size" : 4,
   "source_file" : "/system/core/libunwindstack/include/unwindstack/Global.h"
  },
  {
   "alignment" : 4,
   "linker_set_key" : "std::vector<std::basic_string<char, std::char_traits<char>, std::allocator<char> >, std::allocator<std::basic_string<char, std::char_traits<char>, std::allocator<char> > > > &",
   "name" : "std::vector<std::basic_string<char, std::char_traits<char>, std::allocator<char> >, std::allocator<std::basic_string<char, std::char_traits<char>, std::allocator<char> > > > &",
   "referenced_type" : "type-1335",
   "self_type" : "type-1334",
   "size" : 4,
   "source_file" : "/system/core/libunwindstack/include/unwindstack/JitDebug.h"
  },
  {
   "alignment" : 4,
   "linker_set_key" : "std::vector<std::basic_string<char, std::char_traits<char>, std::allocator<char> >, std::allocator<std::basic_string<char, std::char_traits<char>, std::allocator<char> > > > &",
   "name" : "std::vector<std::basic_string<char, std::char_traits<char>, std::allocator<char> >, std::allocator<std::basic_string<char, std::char_traits<char>, std::allocator<char> > > > &",
   "referenced_type" : "type-166",
   "self_type" : "type-165",
   "size" : 4,
   "source_file" : "/system/core/libunwindstack/include/unwindstack/Global.h"
  },
  {
   "alignment" : 4,
   "linker_set_key" : "std::vector<std::basic_string<char, std::char_traits<char>, std::allocator<char> >, std::allocator<std::basic_string<char, std::char_traits<char>, std::allocator<char> > > > &",
   "name" : "std::vector<std::basic_string<char, std::char_traits<char>, std::allocator<char> >, std::allocator<std::basic_string<char, std::char_traits<char>, std::allocator<char> > > > &",
   "referenced_type" : "type-224",
   "self_type" : "type-223",
   "size" : 4,
   "source_file" : "/system/core/libunwindstack/include/unwindstack/JitDebug.h"
  },
  {
   "alignment" : 4,
   "linker_set_key" : "std::vector<std::basic_string<char, std::char_traits<char>, std::allocator<char> >, std::allocator<std::basic_string<char, std::char_traits<char>, std::allocator<char> > > > &",
   "name" : "std::vector<std::basic_string<char, std::char_traits<char>, std::allocator<char> >, std::allocator<std::basic_string<char, std::char_traits<char>, std::allocator<char> > > > &",
   "referenced_type" : "type-474",
   "self_type" : "type-473",
   "size" : 4,
   "source_file" : "/system/core/libunwindstack/include/unwindstack/Global.h"
  },
  {
   "alignment" : 4,
   "linker_set_key" : "std::vector<std::basic_string<char, std::char_traits<char>, std::allocator<char> >, std::allocator<std::basic_string<char, std::char_traits<char>, std::allocator<char> > > > &",
   "name" : "std::vector<std::basic_string<char, std::char_traits<char>, std::allocator<char> >, std::allocator<std::basic_string<char, std::char_traits<char>, std::allocator<char> > > > &",
   "referenced_type" : "type-508",
   "self_type" : "type-507",
   "size" : 4,
   "source_file" : "/system/core/libunwindstack/include/unwindstack/JitDebug.h"
  },
  {
   "alignment" : 4,
   "linker_set_key" : "std::vector<std::basic_string<char, std::char_traits<char>, std::allocator<char> >, std::allocator<std::basic_string<char, std::char_traits<char>, std::allocator<char> > > > &",
   "name" : "std::vector<std::basic_string<char, std::char_traits<char>, std::allocator<char> >, std::allocator<std::basic_string<char, std::char_traits<char>, std::allocator<char> > > > &",
   "referenced_type" : "type-870",
   "self_type" : "type-869",
   "size" : 4,
   "source_file" : "/system/core/libunwindstack/include/unwindstack/Global.h"
  },
  {
   "alignment" : 4,
   "linker_set_key" : "std::vector<std::basic_string<char, std::char_traits<char>, std::allocator<char> >, std::allocator<std::basic_string<char, std::char_traits<char>, std::allocator<char> > > > &",
   "name" : "std::vector<std::basic_string<char, std::char_traits<char>, std::allocator<char> >, std::allocator<std::basic_string<char, std::char_traits<char>, std::allocator<char> > > > &",
   "referenced_type" : "type-902",
   "self_type" : "type-901",
   "size" : 4,
   "source_file" : "/system/core/libunwindstack/include/unwindstack/JitDebug.h"
  },
  {
   "alignment" : 4,
   "linker_set_key" : "unsigned int &",
   "name" : "unsigned int &",
   "referenced_type" : "type-3",
   "self_type" : "type-112",
   "size" : 4,
   "source_file" : "/system/core/libunwindstack/include/unwindstack/Regs.h"
  },
  {
   "alignment" : 4,
   "linker_set_key" : "unsigned long long &",
   "name" : "unsigned long long &",
   "referenced_type" : "type-6",
   "self_type" : "type-70",
   "size" : 4,
   "source_file" : "/system/core/libunwindstack/include/unwindstack/Regs.h"
  },
  {
   "alignment" : 4,
   "linker_set_key" : "unwindstack::DwarfSection::iterator &",
   "name" : "unwindstack::DwarfSection::iterator &",
   "referenced_type" : "type-283",
   "self_type" : "type-287",
   "size" : 4,
   "source_file" : "/system/core/libunwindstack/include/unwindstack/DwarfSection.h"
  },
  {
   "alignment" : 4,
   "linker_set_key" : "unwindstack::Maps &",
   "name" : "unwindstack::Maps &",
   "referenced_type" : "type-167",
   "self_type" : "type-172",
   "size" : 4,
   "source_file" : "/system/core/libunwindstack/include/unwindstack/Maps.h"
  }
 ],
 "pointer_types" :
 [
  {
   "alignment" : 4,
   "linker_set_key" : "bool *",
   "name" : "bool *",
   "referenced_type" : "type-72",
   "self_type" : "type-71",
   "size" : 4,
   "source_file" : "/system/core/libunwindstack/include/unwindstack/DwarfSection.h"
  },
  {
   "alignment" : 4,
   "linker_set_key" : "const char *",
   "name" : "const char *",
   "referenced_type" : "type-91",
   "self_type" : "type-93",
   "size" : 4,
   "source_file" : "/system/core/libunwindstack/include/unwindstack/MapInfo.h"
  },
  {
   "alignment" : 4,
   "linker_set_key" : "const std::vector<std::basic_string<char, std::char_traits<char>, std::allocator<char> >, std::allocator<std::basic_string<char, std::char_traits<char>, std::allocator<char> > > > *",
   "name" : "const std::vector<std::basic_string<char, std::char_traits<char>, std::allocator<char> >, std::allocator<std::basic_string<char, std::char_traits<char>, std::allocator<char> > > > *",
   "referenced_type" : "type-1169",
   "self_type" : "type-1171",
   "size" : 4,
   "source_file" : "/system/core/libunwindstack/include/unwindstack/Unwinder.h"
  },
  {
   "alignment" : 4,
   "linker_set_key" : "const std::vector<std::basic_string<char, std::char_traits<char>, std::allocator<char> >, std::allocator<std::basic_string<char, std::char_traits<char>, std::allocator<char> > > > *",
   "name" : "const std::vector<std::basic_string<char, std::char_traits<char>, std::allocator<char> >, std::allocator<std::basic_string<char, std::char_traits<char>, std::allocator<char> > > > *",
   "referenced_type" : "type-766",
   "self_type" : "type-768",
   "size" : 4,
   "source_file" : "/system/core/libunwindstack/include/unwindstack/Unwinder.h"
  },
  {
   "alignment" : 4,
   "linker_set_key" : "const unsigned char *",
   "name" : "const unsigned char *",
   "referenced_type" : "type-239",
   "self_type" : "type-238",
   "size" : 4,
   "source_file" : "/system/core/libunwindstack/include/unwindstack/Memory.h"
  },
  {
   "alignment" : 4,
   "linker_set_key" : "const unwindstack::DwarfCie *",
   "name" : "const unwindstack::DwarfCie *",
   "referenced_type" : "type-8",
   "self_type" : "type-7",
   "size" : 4,
   "source_file" : "/system/core/libunwindstack/include/unwindstack/DwarfLocation.h"
  },
  {
   "alignment" : 4,
   "linker_set_key" : "const unwindstack::DwarfFde *",
   "name" : "const unwindstack::DwarfFde *",
   "referenced_type" : "type-4",
   "self_type" : "type-290",
   "size" : 4,
   "source_file" : "/system/core/libunwindstack/include/unwindstack/DwarfSection.h"
  },
  {
   "alignment" : 4,
   "linker_set_key" : "const unwindstack::FileMaps *",
   "name" : "const unwindstack::FileMaps *",
   "referenced_type" : "type-189",
   "self_type" : "type-190",
   "size" : 4,
   "source_file" : "/system/core/libunwindstack/include/unwindstack/Maps.h"
  },
  {
   "alignment" : 4,
   "linker_set_key" : "const unwindstack::LocalUpdatableMaps *",
   "name" : "const unwindstack::LocalUpdatableMaps *",
   "referenced_type" : "type-265",
   "self_type" : "type-266",
   "size" : 4,
   "source_file" : "/system/core/libunwindstack/include/unwindstack/Maps.h"
  },
  {
   "alignment" : 4,
   "linker_set_key" : "const unwindstack::MapInfo *",
   "name" : "const unwindstack::MapInfo *",
   "referenced_type" : "type-77",
   "self_type" : "type-85",
   "size" : 4,
   "source_file" : "/system/core/libunwindstack/include/unwindstack/Elf.h"
  },
  {
   "alignment" : 4,
   "linker_set_key" : "const unwindstack::Maps *",
   "name" : "const unwindstack::Maps *",
   "referenced_type" : "type-173",
   "self_type" : "type-174",
   "size" : 4,
   "source_file" : "/system/core/libunwindstack/include/unwindstack/Maps.h"
  },
  {
   "alignment" : 4,
   "linker_set_key" : "const unwindstack::RemoteMaps *",
   "name" : "const unwindstack::RemoteMaps *",
   "referenced_type" : "type-263",
   "self_type" : "type-264",
   "size" : 4,
   "source_file" : "/system/core/libunwindstack/include/unwindstack/Maps.h"
  },
  {
   "alignment" : 4,
   "linker_set_key" : "long long *",
   "name" : "long long *",
   "referenced_type" : "type-12",
   "self_type" : "type-58",
   "size" : 4,
   "source_file" : "/system/core/libunwindstack/include/unwindstack/DwarfMemory.h"
  },
  {
   "alignment" : 4,
   "linker_set_key" : "std::basic_string<char, std::char_traits<char>, std::allocator<char> > *",
   "name" : "std::basic_string<char, std::char_traits<char>, std::allocator<char> > *",
   "referenced_type" : "type-1012",
   "self_type" : "type-1011",
   "size" : 4,
   "source_file" : "/system/core/libunwindstack/include/unwindstack/ElfInterface.h"
  },
  {
   "alignment" : 4,
   "linker_set_key" : "std::basic_string<char, std::char_traits<char>, std::allocator<char> > *",
   "name" : "std::basic_string<char, std::char_traits<char>, std::allocator<char> > *",
   "referenced_type" : "type-1046",
   "self_type" : "type-1045",
   "size" : 4,
   "source_file" : "/system/core/libunwindstack/include/unwindstack/ElfInterface.h"
  },
  {
   "alignment" : 4,
   "linker_set_key" : "std::basic_string<char, std::char_traits<char>, std::allocator<char> > *",
   "name" : "std::basic_string<char, std::char_traits<char>, std::allocator<char> > *",
   "referenced_type" : "type-1071",
   "self_type" : "type-1070",
   "size" : 4,
   "source_file" : "/system/core/libunwindstack/include/unwindstack/ElfInterface.h"
  },
  {
   "alignment" : 4,
   "linker_set_key" : "std::basic_string<char, std::char_traits<char>, std::allocator<char> > *",
   "name" : "std::basic_string<char, std::char_traits<char>, std::allocator<char> > *",
   "referenced_type" : "type-1087",
   "self_type" : "type-1086",
   "size" : 4,
   "source_file" : "/system/core/libunwindstack/include/unwindstack/ElfInterface.h"
  },
  {
   "alignment" : 4,
   "linker_set_key" : "std::basic_string<char, std::char_traits<char>, std::allocator<char> > *",
   "name" : "std::basic_string<char, std::char_traits<char>, std::allocator<char> > *",
   "referenced_type" : "type-1092",
   "self_type" : "type-1091",
   "size" : 4,
   "source_file" : "/system/core/libunwindstack/include/unwindstack/ElfInterface.h"
  },
  {
   "alignment" : 4,
   "linker_set_key" : "std::basic_string<char, std::char_traits<char>, std::allocator<char> > *",
   "name" : "std::basic_string<char, std::char_traits<char>, std::allocator<char> > *",
   "referenced_type" : "type-1106",
   "self_type" : "type-1105",
   "size" : 4,
   "source_file" : "/system/core/libunwindstack/include/unwindstack/ElfInterface.h"
  },
  {
   "alignment" : 4,
   "linker_set_key" : "std::basic_string<char, std::char_traits<char>, std::allocator<char> > *",
   "name" : "std::basic_string<char, std::char_traits<char>, std::allocator<char> > *",
   "referenced_type" : "type-1120",
   "self_type" : "type-1119",
   "size" : 4,
   "source_file" : "/system/core/libunwindstack/include/unwindstack/ElfInterface.h"
  },
  {
   "alignment" : 4,
   "linker_set_key" : "std::basic_string<char, std::char_traits<char>, std::allocator<char> > *",
   "name" : "std::basic_string<char, std::char_traits<char>, std::allocator<char> > *",
   "referenced_type" : "type-1135",
   "self_type" : "type-1134",
   "size" : 4,
   "source_file" : "/system/core/libunwindstack/include/unwindstack/ElfInterface.h"
  },
  {
   "alignment" : 4,
   "linker_set_key" : "std::basic_string<char, std::char_traits<char>, std::allocator<char> > *",
   "name" : "std::basic_string<char, std::char_traits<char>, std::allocator<char> > *",
   "referenced_type" : "type-1148",
   "self_type" : "type-1147",
   "size" : 4,
   "source_file" : "/system/core/libunwindstack/include/unwindstack/ElfInterface.h"
  },
  {
   "alignment" : 4,
   "linker_set_key" : "std::basic_string<char, std::char_traits<char>, std::allocator<char> > *",
   "name" : "std::basic_string<char, std::char_traits<char>, std::allocator<char> > *",
   "referenced_type" : "type-1160",
   "self_type" : "type-1159",
   "size" : 4,
   "source_file" : "/system/core/libunwindstack/include/unwindstack/ElfInterface.h"
  },
  {
   "alignment" : 4,
   "linker_set_key" : "std::basic_string<char, std::char_traits<char>, std::allocator<char> > *",
   "name" : "std::basic_string<char, std::char_traits<char>, std::allocator<char> > *",
   "referenced_type" : "type-1185",
   "self_type" : "type-1184",
   "size" : 4,
   "source_file" : "/system/core/libunwindstack/include/unwindstack/ElfInterface.h"
  },
  {
   "alignment" : 4,
   "linker_set_key" : "std::basic_string<char, std::char_traits<char>, std::allocator<char> > *",
   "name" : "std::basic_string<char, std::char_traits<char>, std::allocator<char> > *",
   "referenced_type" : "type-1216",
   "self_type" : "type-1215",
   "size" : 4,
   "source_file" : "/system/core/libunwindstack/include/unwindstack/ElfInterface.h"
  },
  {
   "alignment" : 4,
   "linker_set_key" : "std::basic_string<char, std::char_traits<char>, std::allocator<char> > *",
   "name" : "std::basic_string<char, std::char_traits<char>, std::allocator<char> > *",
   "referenced_type" : "type-1233",
   "self_type" : "type-1232",
   "size" : 4,
   "source_file" : "/system/core/libunwindstack/include/unwindstack/ElfInterface.h"
  },
  {
   "alignment" : 4,
   "linker_set_key" : "std::basic_string<char, std::char_traits<char>, std::allocator<char> > *",
   "name" : "std::basic_string<char, std::char_traits<char>, std::allocator<char> > *",
   "referenced_type" : "type-1256",
   "self_type" : "type-1255",
   "size" : 4,
   "source_file" : "/system/core/libunwindstack/include/unwindstack/ElfInterface.h"
  },
  {
   "alignment" : 4,
   "linker_set_key" : "std::basic_string<char, std::char_traits<char>, std::allocator<char> > *",
   "name" : "std::basic_string<char, std::char_traits<char>, std::allocator<char> > *",
   "referenced_type" : "type-127",
   "self_type" : "type-126",
   "size" : 4,
   "source_file" : "/system/core/libunwindstack/include/unwindstack/ElfInterface.h"
  },
  {
   "alignment" : 4,
   "linker_set_key" : "std::basic_string<char, std::char_traits<char>, std::allocator<char> > *",
   "name" : "std::basic_string<char, std::char_traits<char>, std::allocator<char> > *",
   "referenced_type" : "type-1274",
   "self_type" : "type-1273",
   "size" : 4,
   "source_file" : "/system/core/libunwindstack/include/unwindstack/ElfInterface.h"
  },
  {
   "alignment" : 4,
   "linker_set_key" : "std::basic_string<char, std::char_traits<char>, std::allocator<char> > *",
   "name" : "std::basic_string<char, std::char_traits<char>, std::allocator<char> > *",
   "referenced_type" : "type-1290",
   "self_type" : "type-1289",
   "size" : 4,
   "source_file" : "/system/core/libunwindstack/include/unwindstack/ElfInterface.h"
  },
  {
   "alignment" : 4,
   "linker_set_key" : "std::basic_string<char, std::char_traits<char>, std::allocator<char> > *",
   "name" : "std::basic_string<char, std::char_traits<char>, std::allocator<char> > *",
   "referenced_type" : "type-1324",
   "self_type" : "type-1323",
   "size" : 4,
   "source_file" : "/system/core/libunwindstack/include/unwindstack/ElfInterface.h"
  },
  {
   "alignment" : 4,
   "linker_set_key" : "std::basic_string<char, std::char_traits<char>, std::allocator<char> > *",
   "name" : "std::basic_string<char, std::char_traits<char>, std::allocator<char> > *",
   "referenced_type" : "type-1340",
   "self_type" : "type-1339",
   "size" : 4,
   "source_file" : "/system/core/libunwindstack/include/unwindstack/ElfInterface.h"
  },
  {
   "alignment" : 4,
   "linker_set_key" : "std::basic_string<char, std::char_traits<char>, std::allocator<char> > *",
   "name" : "std::basic_string<char, std::char_traits<char>, std::allocator<char> > *",
   "referenced_type" : "type-1357",
   "self_type" : "type-1356",
   "size" : 4,
   "source_file" : "/system/core/libunwindstack/include/unwindstack/ElfInterface.h"
  },
  {
   "alignment" : 4,
   "linker_set_key" : "std::basic_string<char, std::char_traits<char>, std::allocator<char> > *",
   "name" : "std::basic_string<char, std::char_traits<char>, std::allocator<char> > *",
   "referenced_type" : "type-1374",
   "self_type" : "type-1373",
   "size" : 4,
   "source_file" : "/system/core/libunwindstack/include/unwindstack/ElfInterface.h"
  },
  {
   "alignment" : 4,
   "linker_set_key" : "std::basic_string<char, std::char_traits<char>, std::allocator<char> > *",
   "name" : "std::basic_string<char, std::char_traits<char>, std::allocator<char> > *",
   "referenced_type" : "type-1390",
   "self_type" : "type-1389",
   "size" : 4,
   "source_file" : "/system/core/libunwindstack/include/unwindstack/Memory.h"
  },
  {
   "alignment" : 4,
   "linker_set_key" : "std::basic_string<char, std::char_traits<char>, std::allocator<char> > *",
   "name" : "std::basic_string<char, std::char_traits<char>, std::allocator<char> > *",
   "referenced_type" : "type-148",
   "self_type" : "type-147",
   "size" : 4,
   "source_file" : "/system/core/libunwindstack/include/unwindstack/ElfInterface.h"
  },
  {
   "alignment" : 4,
   "linker_set_key" : "std::basic_string<char, std::char_traits<char>, std::allocator<char> > *",
   "name" : "std::basic_string<char, std::char_traits<char>, std::allocator<char> > *",
   "referenced_type" : "type-204",
   "self_type" : "type-203",
   "size" : 4,
   "source_file" : "/system/core/libunwindstack/include/unwindstack/ElfInterface.h"
  },
  {
   "alignment" : 4,
   "linker_set_key" : "std::basic_string<char, std::char_traits<char>, std::allocator<char> > *",
   "name" : "std::basic_string<char, std::char_traits<char>, std::allocator<char> > *",
   "referenced_type" : "type-232",
   "self_type" : "type-231",
   "size" : 4,
   "source_file" : "/system/core/libunwindstack/include/unwindstack/ElfInterface.h"
  },
  {
   "alignment" : 4,
   "linker_set_key" : "std::basic_string<char, std::char_traits<char>, std::allocator<char> > *",
   "name" : "std::basic_string<char, std::char_traits<char>, std::allocator<char> > *",
   "referenced_type" : "type-252",
   "self_type" : "type-251",
   "size" : 4,
   "source_file" : "/system/core/libunwindstack/include/unwindstack/ElfInterface.h"
  },
  {
   "alignment" : 4,
   "linker_set_key" : "std::basic_string<char, std::char_traits<char>, std::allocator<char> > *",
   "name" : "std::basic_string<char, std::char_traits<char>, std::allocator<char> > *",
   "referenced_type" : "type-272",
   "self_type" : "type-271",
   "size" : 4,
   "source_file" : "/system/core/libunwindstack/include/unwindstack/ElfInterface.h"
  },
  {
   "alignment" : 4,
   "linker_set_key" : "std::basic_string<char, std::char_traits<char>, std::allocator<char> > *",
   "name" : "std::basic_string<char, std::char_traits<char>, std::allocator<char> > *",
   "referenced_type" : "type-343",
   "self_type" : "type-342",
   "size" : 4,
   "source_file" : "/system/core/libunwindstack/include/unwindstack/ElfInterface.h"
  },
  {
   "alignment" : 4,
   "linker_set_key" : "std::basic_string<char, std::char_traits<char>, std::allocator<char> > *",
   "name" : "std::basic_string<char, std::char_traits<char>, std::allocator<char> > *",
   "referenced_type" : "type-36",
   "self_type" : "type-35",
   "size" : 4,
   "source_file" : "/system/core/libunwindstack/include/unwindstack/ElfInterface.h"
  },
  {
   "alignment" : 4,
   "linker_set_key" : "std::basic_string<char, std::char_traits<char>, std::allocator<char> > *",
   "name" : "std::basic_string<char, std::char_traits<char>, std::allocator<char> > *",
   "referenced_type" : "type-360",
   "self_type" : "type-359",
   "size" : 4,
   "source_file" : "/system/core/libunwindstack/include/unwindstack/ElfInterface.h"
  },
  {
   "alignment" : 4,
   "linker_set_key" : "std::basic_string<char, std::char_traits<char>, std::allocator<char> > *",
   "name" : "std::basic_string<char, std::char_traits<char>, std::allocator<char> > *",
   "referenced_type" : "type-381",
   "self_type" : "type-380",
   "size" : 4,
   "source_file" : "/system/core/libunwindstack/include/unwindstack/ElfInterface.h"
  },
  {
   "alignment" : 4,
   "linker_set_key" : "std::basic_string<char, std::char_traits<char>, std::allocator<char> > *",
   "name" : "std::basic_string<char, std::char_traits<char>, std::allocator<char> > *",
   "referenced_type" : "type-389",
   "self_type" : "type-388",
   "size" : 4,
   "source_file" : "/system/core/libunwindstack/include/unwindstack/ElfInterface.h"
  },
  {
   "alignment" : 4,
   "linker_set_key" : "std::basic_string<char, std::char_traits<char>, std::allocator<char> > *",
   "name" : "std::basic_string<char, std::char_traits<char>, std::allocator<char> > *",
   "referenced_type" : "type-423",
   "self_type" : "type-422",
   "size" : 4,
   "source_file" : "/system/core/libunwindstack/include/unwindstack/ElfInterface.h"
  },
  {
   "alignment" : 4,
   "linker_set_key" : "std::basic_string<char, std::char_traits<char>, std::allocator<char> > *",
   "name" : "std::basic_string<char, std::char_traits<char>, std::allocator<char> > *",
   "referenced_type" : "type-444",
   "self_type" : "type-443",
   "size" : 4,
   "source_file" : "/system/core/libunwindstack/include/unwindstack/ElfInterface.h"
  },
  {
   "alignment" : 4,
   "linker_set_key" : "std::basic_string<char, std::char_traits<char>, std::allocator<char> > *",
   "name" : "std::basic_string<char, std::char_traits<char>, std::allocator<char> > *",
   "referenced_type" : "type-462",
   "self_type" : "type-461",
   "size" : 4,
   "source_file" : "/system/core/libunwindstack/include/unwindstack/ElfInterface.h"
  },
  {
   "alignment" : 4,
   "linker_set_key" : "std::basic_string<char, std::char_traits<char>, std::allocator<char> > *",
   "name" : "std::basic_string<char, std::char_traits<char>, std::allocator<char> > *",
   "referenced_type" : "type-497",
   "self_type" : "type-496",
   "size" : 4,
   "source_file" : "/system/core/libunwindstack/include/unwindstack/ElfInterface.h"
  },
  {
   "alignment" : 4,
   "linker_set_key" : "std::basic_string<char, std::char_traits<char>, std::allocator<char> > *",
   "name" : "std::basic_string<char, std::char_traits<char>, std::allocator<char> > *",
   "referenced_type" : "type-514",
   "self_type" : "type-513",
   "size" : 4,
   "source_file" : "/system/core/libunwindstack/include/unwindstack/ElfInterface.h"
  },
  {
   "alignment" : 4,
   "linker_set_key" : "std::basic_string<char, std::char_traits<char>, std::allocator<char> > *",
   "name" : "std::basic_string<char, std::char_traits<char>, std::allocator<char> > *",
   "referenced_type" : "type-532",
   "self_type" : "type-531",
   "size" : 4,
   "source_file" : "/system/core/libunwindstack/include/unwindstack/ElfInterface.h"
  },
  {
   "alignment" : 4,
   "linker_set_key" : "std::basic_string<char, std::char_traits<char>, std::allocator<char> > *",
   "name" : "std::basic_string<char, std::char_traits<char>, std::allocator<char> > *",
   "referenced_type" : "type-549",
   "self_type" : "type-548",
   "size" : 4,
   "source_file" : "/system/core/libunwindstack/include/unwindstack/ElfInterface.h"
  },
  {
   "alignment" : 4,
   "linker_set_key" : "std::basic_string<char, std::char_traits<char>, std::allocator<char> > *",
   "name" : "std::basic_string<char, std::char_traits<char>, std::allocator<char> > *",
   "referenced_type" : "type-563",
   "self_type" : "type-562",
   "size" : 4,
   "source_file" : "/system/core/libunwindstack/include/unwindstack/Memory.h"
  },
  {
   "alignment" : 4,
   "linker_set_key" : "std::basic_string<char, std::char_traits<char>, std::allocator<char> > *",
   "name" : "std::basic_string<char, std::char_traits<char>, std::allocator<char> > *",
   "referenced_type" : "type-586",
   "self_type" : "type-585",
   "size" : 4,
   "source_file" : "/system/core/libunwindstack/include/unwindstack/ElfInterface.h"
  },
  {
   "alignment" : 4,
   "linker_set_key" : "std::basic_string<char, std::char_traits<char>, std::allocator<char> > *",
   "name" : "std::basic_string<char, std::char_traits<char>, std::allocator<char> > *",
   "referenced_type" : "type-622",
   "self_type" : "type-621",
   "size" : 4,
   "source_file" : "/system/core/libunwindstack/include/unwindstack/ElfInterface.h"
  },
  {
   "alignment" : 4,
   "linker_set_key" : "std::basic_string<char, std::char_traits<char>, std::allocator<char> > *",
   "name" : "std::basic_string<char, std::char_traits<char>, std::allocator<char> > *",
   "referenced_type" : "type-641",
   "self_type" : "type-640",
   "size" : 4,
   "source_file" : "/system/core/libunwindstack/include/unwindstack/ElfInterface.h"
  },
  {
   "alignment" : 4,
   "linker_set_key" : "std::basic_string<char, std::char_traits<char>, std::allocator<char> > *",
   "name" : "std::basic_string<char, std::char_traits<char>, std::allocator<char> > *",
   "referenced_type" : "type-668",
   "self_type" : "type-667",
   "size" : 4,
   "source_file" : "/system/core/libunwindstack/include/unwindstack/ElfInterface.h"
  },
  {
   "alignment" : 4,
   "linker_set_key" : "std::basic_string<char, std::char_traits<char>, std::allocator<char> > *",
   "name" : "std::basic_string<char, std::char_traits<char>, std::allocator<char> > *",
   "referenced_type" : "type-681",
   "self_type" : "type-680",
   "size" : 4,
   "source_file" : "/system/core/libunwindstack/include/unwindstack/ElfInterface.h"
  },
  {
   "alignment" : 4,
   "linker_set_key" : "std::basic_string<char, std::char_traits<char>, std::allocator<char> > *",
   "name" : "std::basic_string<char, std::char_traits<char>, std::allocator<char> > *",
   "referenced_type" : "type-698",
   "self_type" : "type-697",
   "size" : 4,
   "source_file" : "/system/core/libunwindstack/include/unwindstack/ElfInterface.h"
  },
  {
   "alignment" : 4,
   "linker_set_key" : "std::basic_string<char, std::char_traits<char>, std::allocator<char> > *",
   "name" : "std::basic_string<char, std::char_traits<char>, std::allocator<char> > *",
   "referenced_type" : "type-715",
   "self_type" : "type-714",
   "size" : 4,
   "source_file" : "/system/core/libunwindstack/include/unwindstack/ElfInterface.h"
  },
  {
   "alignment" : 4,
   "linker_set_key" : "std::basic_string<char, std::char_traits<char>, std::allocator<char> > *",
   "name" : "std::basic_string<char, std::char_traits<char>, std::allocator<char> > *",
   "referenced_type" : "type-720",
   "self_type" : "type-719",
   "size" : 4,
   "source_file" : "/system/core/libunwindstack/include/unwindstack/ElfInterface.h"
  },
  {
   "alignment" : 4,
   "linker_set_key" : "std::basic_string<char, std::char_traits<char>, std::allocator<char> > *",
   "name" : "std::basic_string<char, std::char_traits<char>, std::allocator<char> > *",
   "referenced_type" : "type-740",
   "self_type" : "type-739",
   "size" : 4,
   "source_file" : "/system/core/libunwindstack/include/unwindstack/ElfInterface.h"
  },
  {
   "alignment" : 4,
   "linker_set_key" : "std::basic_string<char, std::char_traits<char>, std::allocator<char> > *",
   "name" : "std::basic_string<char, std::char_traits<char>, std::allocator<char> > *",
   "referenced_type" : "type-785",
   "self_type" : "type-784",
   "size" : 4,
   "source_file" : "/system/core/libunwindstack/include/unwindstack/ElfInterface.h"
  },
  {
   "alignment" : 4,
   "linker_set_key" : "std::basic_string<char, std::char_traits<char>, std::allocator<char> > *",
   "name" : "std::basic_string<char, std::char_traits<char>, std::allocator<char> > *",
   "referenced_type" : "type-819",
   "self_type" : "type-818",
   "size" : 4,
   "source_file" : "/system/core/libunwindstack/include/unwindstack/ElfInterface.h"
  },
  {
   "alignment" : 4,
   "linker_set_key" : "std::basic_string<char, std::char_traits<char>, std::allocator<char> > *",
   "name" : "std::basic_string<char, std::char_traits<char>, std::allocator<char> > *",
   "referenced_type" : "type-840",
   "self_type" : "type-839",
   "size" : 4,
   "source_file" : "/system/core/libunwindstack/include/unwindstack/ElfInterface.h"
  },
  {
   "alignment" : 4,
   "linker_set_key" : "std::basic_string<char, std::char_traits<char>, std::allocator<char> > *",
   "name" : "std::basic_string<char, std::char_traits<char>, std::allocator<char> > *",
   "referenced_type" : "type-858",
   "self_type" : "type-857",
   "size" : 4,
   "source_file" : "/system/core/libunwindstack/include/unwindstack/ElfInterface.h"
  },
  {
   "alignment" : 4,
   "linker_set_key" : "std::basic_string<char, std::char_traits<char>, std::allocator<char> > *",
   "name" : "std::basic_string<char, std::char_traits<char>, std::allocator<char> > *",
   "referenced_type" : "type-892",
   "self_type" : "type-891",
   "size" : 4,
   "source_file" : "/system/core/libunwindstack/include/unwindstack/ElfInterface.h"
  },
  {
   "alignment" : 4,
   "linker_set_key" : "std::basic_string<char, std::char_traits<char>, std::allocator<char> > *",
   "name" : "std::basic_string<char, std::char_traits<char>, std::allocator<char> > *",
   "referenced_type" : "type-908",
   "self_type" : "type-907",
   "size" : 4,
   "source_file" : "/system/core/libunwindstack/include/unwindstack/ElfInterface.h"
  },
  {
   "alignment" : 4,
   "linker_set_key" : "std::basic_string<char, std::char_traits<char>, std::allocator<char> > *",
   "name" : "std::basic_string<char, std::char_traits<char>, std::allocator<char> > *",
   "referenced_type" : "type-926",
   "self_type" : "type-925",
   "size" : 4,
   "source_file" : "/system/core/libunwindstack/include/unwindstack/ElfInterface.h"
  },
  {
   "alignment" : 4,
   "linker_set_key" : "std::basic_string<char, std::char_traits<char>, std::allocator<char> > *",
   "name" : "std::basic_string<char, std::char_traits<char>, std::allocator<char> > *",
   "referenced_type" : "type-943",
   "self_type" : "type-942",
   "size" : 4,
   "source_file" : "/system/core/libunwindstack/include/unwindstack/ElfInterface.h"
  },
  {
   "alignment" : 4,
   "linker_set_key" : "std::basic_string<char, std::char_traits<char>, std::allocator<char> > *",
   "name" : "std::basic_string<char, std::char_traits<char>, std::allocator<char> > *",
   "referenced_type" : "type-957",
   "self_type" : "type-956",
   "size" : 4,
   "source_file" : "/system/core/libunwindstack/include/unwindstack/Memory.h"
  },
  {
   "alignment" : 4,
   "linker_set_key" : "std::basic_string<char, std::char_traits<char>, std::allocator<char> > *",
   "name" : "std::basic_string<char, std::char_traits<char>, std::allocator<char> > *",
   "referenced_type" : "type-973",
   "self_type" : "type-972",
   "size" : 4,
   "source_file" : "/system/core/libunwindstack/include/unwindstack/ElfInterface.h"
  },
  {
   "alignment" : 4,
   "linker_set_key" : "std::basic_string<char, std::char_traits<char>, std::allocator<char> > *",
   "name" : "std::basic_string<char, std::char_traits<char>, std::allocator<char> > *",
   "referenced_type" : "type-99",
   "self_type" : "type-98",
   "size" : 4,
   "source_file" : "/system/core/libunwindstack/include/unwindstack/ElfInterface.h"
  },
  {
   "alignment" : 4,
   "linker_set_key" : "std::basic_string<char, std::char_traits<char>, std::allocator<char> > *",
   "name" : "std::basic_string<char, std::char_traits<char>, std::allocator<char> > *",
   "referenced_type" : "type-996",
   "self_type" : "type-995",
   "size" : 4,
   "source_file" : "/system/core/libunwindstack/include/unwindstack/ElfInterface.h"
  },
  {
   "alignment" : 4,
   "linker_set_key" : "std::mutex *",
   "name" : "std::mutex *",
   "referenced_type" : "type-1004",
   "self_type" : "type-1003",
   "size" : 4,
   "source_file" : "/system/core/libunwindstack/include/unwindstack/Elf.h"
  },
  {
   "alignment" : 4,
   "linker_set_key" : "std::mutex *",
   "name" : "std::mutex *",
   "referenced_type" : "type-1022",
   "self_type" : "type-1021",
   "size" : 4,
   "source_file" : "/system/core/libunwindstack/include/unwindstack/Elf.h"
  },
  {
   "alignment" : 4,
   "linker_set_key" : "std::mutex *",
   "name" : "std::mutex *",
   "referenced_type" : "type-1034",
   "self_type" : "type-1033",
   "size" : 4,
   "source_file" : "/system/core/libunwindstack/include/unwindstack/Elf.h"
  },
  {
   "alignment" : 4,
   "linker_set_key" : "std::mutex *",
   "name" : "std::mutex *",
   "referenced_type" : "type-1053",
   "self_type" : "type-1052",
   "size" : 4,
   "source_file" : "/system/core/libunwindstack/include/unwindstack/Elf.h"
  },
  {
   "alignment" : 4,
   "linker_set_key" : "std::mutex *",
   "name" : "std::mutex *",
   "referenced_type" : "type-1079",
   "self_type" : "type-1078",
   "size" : 4,
   "source_file" : "/system/core/libunwindstack/include/unwindstack/Elf.h"
  },
  {
   "alignment" : 4,
   "linker_set_key" : "std::mutex *",
   "name" : "std::mutex *",
   "referenced_type" : "type-1096",
   "self_type" : "type-1095",
   "size" : 4,
   "source_file" : "/system/core/libunwindstack/include/unwindstack/Elf.h"
  },
  {
   "alignment" : 4,
   "linker_set_key" : "std::mutex *",
   "name" : "std::mutex *",
   "referenced_type" : "type-1114",
   "self_type" : "type-1113",
   "size" : 4,
   "source_file" : "/system/core/libunwindstack/include/unwindstack/Elf.h"
  },
  {
   "alignment" : 4,
   "linker_set_key" : "std::mutex *",
   "name" : "std::mutex *",
   "referenced_type" : "type-1129",
   "self_type" : "type-1128",
   "size" : 4,
   "source_file" : "/system/core/libunwindstack/include/unwindstack/Elf.h"
  },
  {
   "alignment" : 4,
   "linker_set_key" : "std::mutex *",
   "name" : "std::mutex *",
   "referenced_type" : "type-1142",
   "self_type" : "type-1141",
   "size" : 4,
   "source_file" : "/system/core/libunwindstack/include/unwindstack/Elf.h"
  },
  {
   "alignment" : 4,
   "linker_set_key" : "std::mutex *",
   "name" : "std::mutex *",
   "referenced_type" : "type-1155",
   "self_type" : "type-1154",
   "size" : 4,
   "source_file" : "/system/core/libunwindstack/include/unwindstack/Elf.h"
  },
  {
   "alignment" : 4,
   "linker_set_key" : "std::mutex *",
   "name" : "std::mutex *",
   "referenced_type" : "type-1167",
   "self_type" : "type-1166",
   "size" : 4,
   "source_file" : "/system/core/libunwindstack/include/unwindstack/Elf.h"
  },
  {
   "alignment" : 4,
   "linker_set_key" : "std::mutex *",
   "name" : "std::mutex *",
   "referenced_type" : "type-1195",
   "self_type" : "type-1194",
   "size" : 4,
   "source_file" : "/system/core/libunwindstack/include/unwindstack/Elf.h"
  },
  {
   "alignment" : 4,
   "linker_set_key" : "std::mutex *",
   "name" : "std::mutex *",
   "referenced_type" : "type-1208",
   "self_type" : "type-1207",
   "size" : 4,
   "source_file" : "/system/core/libunwindstack/include/unwindstack/Elf.h"
  },
  {
   "alignment" : 4,
   "linker_set_key" : "std::mutex *",
   "name" : "std::mutex *",
   "referenced_type" : "type-1226",
   "self_type" : "type-1225",
   "size" : 4,
   "source_file" : "/system/core/libunwindstack/include/unwindstack/Elf.h"
  },
  {
   "alignment" : 4,
   "linker_set_key" : "std::mutex *",
   "name" : "std::mutex *",
   "referenced_type" : "type-1250",
   "self_type" : "type-1249",
   "size" : 4,
   "source_file" : "/system/core/libunwindstack/include/unwindstack/Elf.h"
  },
  {
   "alignment" : 4,
   "linker_set_key" : "std::mutex *",
   "name" : "std::mutex *",
   "referenced_type" : "type-1283",
   "self_type" : "type-1282",
   "size" : 4,
   "source_file" : "/system/core/libunwindstack/include/unwindstack/Elf.h"
  },
  {
   "alignment" : 4,
   "linker_set_key" : "std::mutex *",
   "name" : "std::mutex *",
   "referenced_type" : "type-1297",
   "self_type" : "type-1296",
   "size" : 4,
   "source_file" : "/system/core/libunwindstack/include/unwindstack/Elf.h"
  },
  {
   "alignment" : 4,
   "linker_set_key" : "std::mutex *",
   "name" : "std::mutex *",
   "referenced_type" : "type-1330",
   "self_type" : "type-1329",
   "size" : 4,
   "source_file" : "/system/core/libunwindstack/include/unwindstack/Elf.h"
  },
  {
   "alignment" : 4,
   "linker_set_key" : "std::mutex *",
   "name" : "std::mutex *",
   "referenced_type" : "type-1348",
   "self_type" : "type-1347",
   "size" : 4,
   "source_file" : "/system/core/libunwindstack/include/unwindstack/Elf.h"
  },
  {
   "alignment" : 4,
   "linker_set_key" : "std::mutex *",
   "name" : "std::mutex *",
   "referenced_type" : "type-1364",
   "self_type" : "type-1363",
   "size" : 4,
   "source_file" : "/system/core/libunwindstack/include/unwindstack/Elf.h"
  },
  {
   "alignment" : 4,
   "linker_set_key" : "std::mutex *",
   "name" : "std::mutex *",
   "referenced_type" : "type-139",
   "self_type" : "type-138",
   "size" : 4,
   "source_file" : "/system/core/libunwindstack/include/unwindstack/Elf.h"
  },
  {
   "alignment" : 4,
   "linker_set_key" : "std::mutex *",
   "name" : "std::mutex *",
   "referenced_type" : "type-158",
   "self_type" : "type-157",
   "size" : 4,
   "source_file" : "/system/core/libunwindstack/include/unwindstack/Elf.h"
  },
  {
   "alignment" : 4,
   "linker_set_key" : "std::mutex *",
   "name" : "std::mutex *",
   "referenced_type" : "type-212",
   "self_type" : "type-211",
   "size" : 4,
   "source_file" : "/system/core/libunwindstack/include/unwindstack/Elf.h"
  },
  {
   "alignment" : 4,
   "linker_set_key" : "std::mutex *",
   "name" : "std::mutex *",
   "referenced_type" : "type-243",
   "self_type" : "type-242",
   "size" : 4,
   "source_file" : "/system/core/libunwindstack/include/unwindstack/Elf.h"
  },
  {
   "alignment" : 4,
   "linker_set_key" : "std::mutex *",
   "name" : "std::mutex *",
   "referenced_type" : "type-262",
   "self_type" : "type-261",
   "size" : 4,
   "source_file" : "/system/core/libunwindstack/include/unwindstack/Elf.h"
  },
  {
   "alignment" : 4,
   "linker_set_key" : "std::mutex *",
   "name" : "std::mutex *",
   "referenced_type" : "type-350",
   "self_type" : "type-349",
   "size" : 4,
   "source_file" : "/system/core/libunwindstack/include/unwindstack/Elf.h"
  },
  {
   "alignment" : 4,
   "linker_set_key" : "std::mutex *",
   "name" : "std::mutex *",
   "referenced_type" : "type-368",
   "self_type" : "type-367",
   "size" : 4,
   "source_file" : "/system/core/libunwindstack/include/unwindstack/Elf.h"
  },
  {
   "alignment" : 4,
   "linker_set_key" : "std::mutex *",
   "name" : "std::mutex *",
   "referenced_type" : "type-402",
   "self_type" : "type-401",
   "size" : 4,
   "source_file" : "/system/core/libunwindstack/include/unwindstack/Elf.h"
  },
  {
   "alignment" : 4,
   "linker_set_key" : "std::mutex *",
   "name" : "std::mutex *",
   "referenced_type" : "type-415",
   "self_type" : "type-414",
   "size" : 4,
   "source_file" : "/system/core/libunwindstack/include/unwindstack/Elf.h"
  },
  {
   "alignment" : 4,
   "linker_set_key" : "std::mutex *",
   "name" : "std::mutex *",
   "referenced_type" : "type-454",
   "self_type" : "type-453",
   "size" : 4,
   "source_file" : "/system/core/libunwindstack/include/unwindstack/Elf.h"
  },
  {
   "alignment" : 4,
   "linker_set_key" : "std::mutex *",
   "name" : "std::mutex *",
   "referenced_type" : "type-469",
   "self_type" : "type-468",
   "size" : 4,
   "source_file" : "/system/core/libunwindstack/include/unwindstack/Elf.h"
  },
  {
   "alignment" : 4,
   "linker_set_key" : "std::mutex *",
   "name" : "std::mutex *",
   "referenced_type" : "type-503",
   "self_type" : "type-502",
   "size" : 4,
   "source_file" : "/system/core/libunwindstack/include/unwindstack/Elf.h"
  },
  {
   "alignment" : 4,
   "linker_set_key" : "std::mutex *",
   "name" : "std::mutex *",
   "referenced_type" : "type-522",
   "self_type" : "type-521",
   "size" : 4,
   "source_file" : "/system/core/libunwindstack/include/unwindstack/Elf.h"
  },
  {
   "alignment" : 4,
   "linker_set_key" : "std::mutex *",
   "name" : "std::mutex *",
   "referenced_type" : "type-540",
   "self_type" : "type-539",
   "size" : 4,
   "source_file" : "/system/core/libunwindstack/include/unwindstack/Elf.h"
  },
  {
   "alignment" : 4,
   "linker_set_key" : "std::mutex *",
   "name" : "std::mutex *",
   "referenced_type" : "type-567",
   "self_type" : "type-566",
   "size" : 4,
   "source_file" : "/system/core/libunwindstack/include/unwindstack/Elf.h"
  },
  {
   "alignment" : 4,
   "linker_set_key" : "std::mutex *",
   "name" : "std::mutex *",
   "referenced_type" : "type-595",
   "self_type" : "type-594",
   "size" : 4,
   "source_file" : "/system/core/libunwindstack/include/unwindstack/Elf.h"
  },
  {
   "alignment" : 4,
   "linker_set_key" : "std::mutex *",
   "name" : "std::mutex *",
   "referenced_type" : "type-60",
   "self_type" : "type-59",
   "size" : 4,
   "source_file" : "/system/core/libunwindstack/include/unwindstack/Elf.h"
  },
  {
   "alignment" : 4,
   "linker_set_key" : "std::mutex *",
   "name" : "std::mutex *",
   "referenced_type" : "type-630",
   "self_type" : "type-629",
   "size" : 4,
   "source_file" : "/system/core/libunwindstack/include/unwindstack/Elf.h"
  },
  {
   "alignment" : 4,
   "linker_set_key" : "std::mutex *",
   "name" : "std::mutex *",
   "referenced_type" : "type-651",
   "self_type" : "type-650",
   "size" : 4,
   "source_file" : "/system/core/libunwindstack/include/unwindstack/Elf.h"
  },
  {
   "alignment" : 4,
   "linker_set_key" : "std::mutex *",
   "name" : "std::mutex *",
   "referenced_type" : "type-675",
   "self_type" : "type-674",
   "size" : 4,
   "source_file" : "/system/core/libunwindstack/include/unwindstack/Elf.h"
  },
  {
   "alignment" : 4,
   "linker_set_key" : "std::mutex *",
   "name" : "std::mutex *",
   "referenced_type" : "type-689",
   "self_type" : "type-688",
   "size" : 4,
   "source_file" : "/system/core/libunwindstack/include/unwindstack/Elf.h"
  },
  {
   "alignment" : 4,
   "linker_set_key" : "std::mutex *",
   "name" : "std::mutex *",
   "referenced_type" : "type-707",
   "self_type" : "type-706",
   "size" : 4,
   "source_file" : "/system/core/libunwindstack/include/unwindstack/Elf.h"
  },
  {
   "alignment" : 4,
   "linker_set_key" : "std::mutex *",
   "name" : "std::mutex *",
   "referenced_type" : "type-729",
   "self_type" : "type-728",
   "size" : 4,
   "source_file" : "/system/core/libunwindstack/include/unwindstack/Elf.h"
  },
  {
   "alignment" : 4,
   "linker_set_key" : "std::mutex *",
   "name" : "std::mutex *",
   "referenced_type" : "type-747",
   "self_type" : "type-746",
   "size" : 4,
   "source_file" : "/system/core/libunwindstack/include/unwindstack/Elf.h"
  },
  {
   "alignment" : 4,
   "linker_set_key" : "std::mutex *",
   "name" : "std::mutex *",
   "referenced_type" : "type-799",
   "self_type" : "type-798",
   "size" : 4,
   "source_file" : "/system/core/libunwindstack/include/unwindstack/Elf.h"
  },
  {
   "alignment" : 4,
   "linker_set_key" : "std::mutex *",
   "name" : "std::mutex *",
   "referenced_type" : "type-812",
   "self_type" : "type-811",
   "size" : 4,
   "source_file" : "/system/core/libunwindstack/include/unwindstack/Elf.h"
  },
  {
   "alignment" : 4,
   "linker_set_key" : "std::mutex *",
   "name" : "std::mutex *",
   "referenced_type" : "type-850",
   "self_type" : "type-849",
   "size" : 4,
   "source_file" : "/system/core/libunwindstack/include/unwindstack/Elf.h"
  },
  {
   "alignment" : 4,
   "linker_set_key" : "std::mutex *",
   "name" : "std::mutex *",
   "referenced_type" : "type-865",
   "self_type" : "type-864",
   "size" : 4,
   "source_file" : "/system/core/libunwindstack/include/unwindstack/Elf.h"
  },
  {
   "alignment" : 4,
   "linker_set_key" : "std::mutex *",
   "name" : "std::mutex *",
   "referenced_type" : "type-898",
   "self_type" : "type-897",
   "size" : 4,
   "source_file" : "/system/core/libunwindstack/include/unwindstack/Elf.h"
  },
  {
   "alignment" : 4,
   "linker_set_key" : "std::mutex *",
   "name" : "std::mutex *",
   "referenced_type" : "type-90",
   "self_type" : "type-89",
   "size" : 4,
   "source_file" : "/system/core/libunwindstack/include/unwindstack/Elf.h"
  },
  {
   "alignment" : 4,
   "linker_set_key" : "std::mutex *",
   "name" : "std::mutex *",
   "referenced_type" : "type-916",
   "self_type" : "type-915",
   "size" : 4,
   "source_file" : "/system/core/libunwindstack/include/unwindstack/Elf.h"
  },
  {
   "alignment" : 4,
   "linker_set_key" : "std::mutex *",
   "name" : "std::mutex *",
   "referenced_type" : "type-934",
   "self_type" : "type-933",
   "size" : 4,
   "source_file" : "/system/core/libunwindstack/include/unwindstack/Elf.h"
  },
  {
   "alignment" : 4,
   "linker_set_key" : "std::mutex *",
   "name" : "std::mutex *",
   "referenced_type" : "type-961",
   "self_type" : "type-960",
   "size" : 4,
   "source_file" : "/system/core/libunwindstack/include/unwindstack/Elf.h"
  },
  {
   "alignment" : 4,
   "linker_set_key" : "std::mutex *",
   "name" : "std::mutex *",
   "referenced_type" : "type-982",
   "self_type" : "type-981",
   "size" : 4,
   "source_file" : "/system/core/libunwindstack/include/unwindstack/Elf.h"
  },
  {
   "alignment" : 4,
   "linker_set_key" : "std::unordered_map<std::basic_string<char, std::char_traits<char>, std::allocator<char> >, std::pair<std::shared_ptr<unwindstack::Elf>, bool>, std::hash<std::basic_string<char, std::char_traits<char>, std::allocator<char> > >, std::equal_to<std::basic_string<char, std::char_traits<char>, std::allocator<char> > >, std::allocator<std::pair<const std::basic_string<char, std::char_traits<char>, std::allocator<char> >, std::pair<std::shared_ptr<unwindstack::Elf>, bool> > > > *",
   "name" : "std::unordered_map<std::basic_string<char, std::char_traits<char>, std::allocator<char> >, std::pair<std::shared_ptr<unwindstack::Elf>, bool>, std::hash<std::basic_string<char, std::char_traits<char>, std::allocator<char> > >, std::equal_to<std::basic_string<char, std::char_traits<char>, std::allocator<char> > >, std::allocator<std::pair<const std::basic_string<char, std::char_traits<char>, std::allocator<char> >, std::pair<std::shared_ptr<unwindstack::Elf>, bool> > > > *",
   "referenced_type" : "type-1002",
   "self_type" : "type-1001",
   "size" : 4,
   "source_file" : "/system/core/libunwindstack/include/unwindstack/Elf.h"
  },
  {
   "alignment" : 4,
   "linker_set_key" : "std::unordered_map<std::basic_string<char, std::char_traits<char>, std::allocator<char> >, std::pair<std::shared_ptr<unwindstack::Elf>, bool>, std::hash<std::basic_string<char, std::char_traits<char>, std::allocator<char> > >, std::equal_to<std::basic_string<char, std::char_traits<char>, std::allocator<char> > >, std::allocator<std::pair<const std::basic_string<char, std::char_traits<char>, std::allocator<char> >, std::pair<std::shared_ptr<unwindstack::Elf>, bool> > > > *",
   "name" : "std::unordered_map<std::basic_string<char, std::char_traits<char>, std::allocator<char> >, std::pair<std::shared_ptr<unwindstack::Elf>, bool>, std::hash<std::basic_string<char, std::char_traits<char>, std::allocator<char> > >, std::equal_to<std::basic_string<char, std::char_traits<char>, std::allocator<char> > >, std::allocator<std::pair<const std::basic_string<char, std::char_traits<char>, std::allocator<char> >, std::pair<std::shared_ptr<unwindstack::Elf>, bool> > > > *",
   "referenced_type" : "type-1019",
   "self_type" : "type-1018",
   "size" : 4,
   "source_file" : "/system/core/libunwindstack/include/unwindstack/Elf.h"
  },
  {
   "alignment" : 4,
   "linker_set_key" : "std::unordered_map<std::basic_string<char, std::char_traits<char>, std::allocator<char> >, std::pair<std::shared_ptr<unwindstack::Elf>, bool>, std::hash<std::basic_string<char, std::char_traits<char>, std::allocator<char> > >, std::equal_to<std::basic_string<char, std::char_traits<char>, std::allocator<char> > >, std::allocator<std::pair<const std::basic_string<char, std::char_traits<char>, std::allocator<char> >, std::pair<std::shared_ptr<unwindstack::Elf>, bool> > > > *",
   "name" : "std::unordered_map<std::basic_string<char, std::char_traits<char>, std::allocator<char> >, std::pair<std::shared_ptr<unwindstack::Elf>, bool>, std::hash<std::basic_string<char, std::char_traits<char>, std::allocator<char> > >, std::equal_to<std::basic_string<char, std::char_traits<char>, std::allocator<char> > >, std::allocator<std::pair<const std::basic_string<char, std::char_traits<char>, std::allocator<char> >, std::pair<std::shared_ptr<unwindstack::Elf>, bool> > > > *",
   "referenced_type" : "type-1051",
   "self_type" : "type-1050",
   "size" : 4,
   "source_file" : "/system/core/libunwindstack/include/unwindstack/Elf.h"
  },
  {
   "alignment" : 4,
   "linker_set_key" : "std::unordered_map<std::basic_string<char, std::char_traits<char>, std::allocator<char> >, std::pair<std::shared_ptr<unwindstack::Elf>, bool>, std::hash<std::basic_string<char, std::char_traits<char>, std::allocator<char> > >, std::equal_to<std::basic_string<char, std::char_traits<char>, std::allocator<char> > >, std::allocator<std::pair<const std::basic_string<char, std::char_traits<char>, std::allocator<char> >, std::pair<std::shared_ptr<unwindstack::Elf>, bool> > > > *",
   "name" : "std::unordered_map<std::basic_string<char, std::char_traits<char>, std::allocator<char> >, std::pair<std::shared_ptr<unwindstack::Elf>, bool>, std::hash<std::basic_string<char, std::char_traits<char>, std::allocator<char> > >, std::equal_to<std::basic_string<char, std::char_traits<char>, std::allocator<char> > >, std::allocator<std::pair<const std::basic_string<char, std::char_traits<char>, std::allocator<char> >, std::pair<std::shared_ptr<unwindstack::Elf>, bool> > > > *",
   "referenced_type" : "type-1077",
   "self_type" : "type-1076",
   "size" : 4,
   "source_file" : "/system/core/libunwindstack/include/unwindstack/Elf.h"
  },
  {
   "alignment" : 4,
   "linker_set_key" : "std::unordered_map<std::basic_string<char, std::char_traits<char>, std::allocator<char> >, std::pair<std::shared_ptr<unwindstack::Elf>, bool>, std::hash<std::basic_string<char, std::char_traits<char>, std::allocator<char> > >, std::equal_to<std::basic_string<char, std::char_traits<char>, std::allocator<char> > >, std::allocator<std::pair<const std::basic_string<char, std::char_traits<char>, std::allocator<char> >, std::pair<std::shared_ptr<unwindstack::Elf>, bool> > > > *",
   "name" : "std::unordered_map<std::basic_string<char, std::char_traits<char>, std::allocator<char> >, std::pair<std::shared_ptr<unwindstack::Elf>, bool>, std::hash<std::basic_string<char, std::char_traits<char>, std::allocator<char> > >, std::equal_to<std::basic_string<char, std::char_traits<char>, std::allocator<char> > >, std::allocator<std::pair<const std::basic_string<char, std::char_traits<char>, std::allocator<char> >, std::pair<std::shared_ptr<unwindstack::Elf>, bool> > > > *",
   "referenced_type" : "type-1094",
   "self_type" : "type-1093",
   "size" : 4,
   "source_file" : "/system/core/libunwindstack/include/unwindstack/Elf.h"
  },
  {
   "alignment" : 4,
   "linker_set_key" : "std::unordered_map<std::basic_string<char, std::char_traits<char>, std::allocator<char> >, std::pair<std::shared_ptr<unwindstack::Elf>, bool>, std::hash<std::basic_string<char, std::char_traits<char>, std::allocator<char> > >, std::equal_to<std::basic_string<char, std::char_traits<char>, std::allocator<char> > >, std::allocator<std::pair<const std::basic_string<char, std::char_traits<char>, std::allocator<char> >, std::pair<std::shared_ptr<unwindstack::Elf>, bool> > > > *",
   "name" : "std::unordered_map<std::basic_string<char, std::char_traits<char>, std::allocator<char> >, std::pair<std::shared_ptr<unwindstack::Elf>, bool>, std::hash<std::basic_string<char, std::char_traits<char>, std::allocator<char> > >, std::equal_to<std::basic_string<char, std::char_traits<char>, std::allocator<char> > >, std::allocator<std::pair<const std::basic_string<char, std::char_traits<char>, std::allocator<char> >, std::pair<std::shared_ptr<unwindstack::Elf>, bool> > > > *",
   "referenced_type" : "type-1112",
   "self_type" : "type-1111",
   "size" : 4,
   "source_file" : "/system/core/libunwindstack/include/unwindstack/Elf.h"
  },
  {
   "alignment" : 4,
   "linker_set_key" : "std::unordered_map<std::basic_string<char, std::char_traits<char>, std::allocator<char> >, std::pair<std::shared_ptr<unwindstack::Elf>, bool>, std::hash<std::basic_string<char, std::char_traits<char>, std::allocator<char> > >, std::equal_to<std::basic_string<char, std::char_traits<char>, std::allocator<char> > >, std::allocator<std::pair<const std::basic_string<char, std::char_traits<char>, std::allocator<char> >, std::pair<std::shared_ptr<unwindstack::Elf>, bool> > > > *",
   "name" : "std::unordered_map<std::basic_string<char, std::char_traits<char>, std::allocator<char> >, std::pair<std::shared_ptr<unwindstack::Elf>, bool>, std::hash<std::basic_string<char, std::char_traits<char>, std::allocator<char> > >, std::equal_to<std::basic_string<char, std::char_traits<char>, std::allocator<char> > >, std::allocator<std::pair<const std::basic_string<char, std::char_traits<char>, std::allocator<char> >, std::pair<std::shared_ptr<unwindstack::Elf>, bool> > > > *",
   "referenced_type" : "type-1127",
   "self_type" : "type-1126",
   "size" : 4,
   "source_file" : "/system/core/libunwindstack/include/unwindstack/Elf.h"
  },
  {
   "alignment" : 4,
   "linker_set_key" : "std::unordered_map<std::basic_string<char, std::char_traits<char>, std::allocator<char> >, std::pair<std::shared_ptr<unwindstack::Elf>, bool>, std::hash<std::basic_string<char, std::char_traits<char>, std::allocator<char> > >, std::equal_to<std::basic_string<char, std::char_traits<char>, std::allocator<char> > >, std::allocator<std::pair<const std::basic_string<char, std::char_traits<char>, std::allocator<char> >, std::pair<std::shared_ptr<unwindstack::Elf>, bool> > > > *",
   "name" : "std::unordered_map<std::basic_string<char, std::char_traits<char>, std::allocator<char> >, std::pair<std::shared_ptr<unwindstack::Elf>, bool>, std::hash<std::basic_string<char, std::char_traits<char>, std::allocator<char> > >, std::equal_to<std::basic_string<char, std::char_traits<char>, std::allocator<char> > >, std::allocator<std::pair<const std::basic_string<char, std::char_traits<char>, std::allocator<char> >, std::pair<std::shared_ptr<unwindstack::Elf>, bool> > > > *",
   "referenced_type" : "type-1140",
   "self_type" : "type-1139",
   "size" : 4,
   "source_file" : "/system/core/libunwindstack/include/unwindstack/Elf.h"
  },
  {
   "alignment" : 4,
   "linker_set_key" : "std::unordered_map<std::basic_string<char, std::char_traits<char>, std::allocator<char> >, std::pair<std::shared_ptr<unwindstack::Elf>, bool>, std::hash<std::basic_string<char, std::char_traits<char>, std::allocator<char> > >, std::equal_to<std::basic_string<char, std::char_traits<char>, std::allocator<char> > >, std::allocator<std::pair<const std::basic_string<char, std::char_traits<char>, std::allocator<char> >, std::pair<std::shared_ptr<unwindstack::Elf>, bool> > > > *",
   "name" : "std::unordered_map<std::basic_string<char, std::char_traits<char>, std::allocator<char> >, std::pair<std::shared_ptr<unwindstack::Elf>, bool>, std::hash<std::basic_string<char, std::char_traits<char>, std::allocator<char> > >, std::equal_to<std::basic_string<char, std::char_traits<char>, std::allocator<char> > >, std::allocator<std::pair<const std::basic_string<char, std::char_traits<char>, std::allocator<char> >, std::pair<std::shared_ptr<unwindstack::Elf>, bool> > > > *",
   "referenced_type" : "type-1153",
   "self_type" : "type-1152",
   "size" : 4,
   "source_file" : "/system/core/libunwindstack/include/unwindstack/Elf.h"
  },
  {
   "alignment" : 4,
   "linker_set_key" : "std::unordered_map<std::basic_string<char, std::char_traits<char>, std::allocator<char> >, std::pair<std::shared_ptr<unwindstack::Elf>, bool>, std::hash<std::basic_string<char, std::char_traits<char>, std::allocator<char> > >, std::equal_to<std::basic_string<char, std::char_traits<char>, std::allocator<char> > >, std::allocator<std::pair<const std::basic_string<char, std::char_traits<char>, std::allocator<char> >, std::pair<std::shared_ptr<unwindstack::Elf>, bool> > > > *",
   "name" : "std::unordered_map<std::basic_string<char, std::char_traits<char>, std::allocator<char> >, std::pair<std::shared_ptr<unwindstack::Elf>, bool>, std::hash<std::basic_string<char, std::char_traits<char>, std::allocator<char> > >, std::equal_to<std::basic_string<char, std::char_traits<char>, std::allocator<char> > >, std::allocator<std::pair<const std::basic_string<char, std::char_traits<char>, std::allocator<char> >, std::pair<std::shared_ptr<unwindstack::Elf>, bool> > > > *",
   "referenced_type" : "type-1165",
   "self_type" : "type-1164",
   "size" : 4,
   "source_file" : "/system/core/libunwindstack/include/unwindstack/Elf.h"
  },
  {
   "alignment" : 4,
   "linker_set_key" : "std::unordered_map<std::basic_string<char, std::char_traits<char>, std::allocator<char> >, std::pair<std::shared_ptr<unwindstack::Elf>, bool>, std::hash<std::basic_string<char, std::char_traits<char>, std::allocator<char> > >, std::equal_to<std::basic_string<char, std::char_traits<char>, std::allocator<char> > >, std::allocator<std::pair<const std::basic_string<char, std::char_traits<char>, std::allocator<char> >, std::pair<std::shared_ptr<unwindstack::Elf>, bool> > > > *",
   "name" : "std::unordered_map<std::basic_string<char, std::char_traits<char>, std::allocator<char> >, std::pair<std::shared_ptr<unwindstack::Elf>, bool>, std::hash<std::basic_string<char, std::char_traits<char>, std::allocator<char> > >, std::equal_to<std::basic_string<char, std::char_traits<char>, std::allocator<char> > >, std::allocator<std::pair<const std::basic_string<char, std::char_traits<char>, std::allocator<char> >, std::pair<std::shared_ptr<unwindstack::Elf>, bool> > > > *",
   "referenced_type" : "type-1189",
   "self_type" : "type-1188",
   "size" : 4,
   "source_file" : "/system/core/libunwindstack/include/unwindstack/Elf.h"
  },
  {
   "alignment" : 4,
   "linker_set_key" : "std::unordered_map<std::basic_string<char, std::char_traits<char>, std::allocator<char> >, std::pair<std::shared_ptr<unwindstack::Elf>, bool>, std::hash<std::basic_string<char, std::char_traits<char>, std::allocator<char> > >, std::equal_to<std::basic_string<char, std::char_traits<char>, std::allocator<char> > >, std::allocator<std::pair<const std::basic_string<char, std::char_traits<char>, std::allocator<char> >, std::pair<std::shared_ptr<unwindstack::Elf>, bool> > > > *",
   "name" : "std::unordered_map<std::basic_string<char, std::char_traits<char>, std::allocator<char> >, std::pair<std::shared_ptr<unwindstack::Elf>, bool>, std::hash<std::basic_string<char, std::char_traits<char>, std::allocator<char> > >, std::equal_to<std::basic_string<char, std::char_traits<char>, std::allocator<char> > >, std::allocator<std::pair<const std::basic_string<char, std::char_traits<char>, std::allocator<char> >, std::pair<std::shared_ptr<unwindstack::Elf>, bool> > > > *",
   "referenced_type" : "type-1206",
   "self_type" : "type-1205",
   "size" : 4,
   "source_file" : "/system/core/libunwindstack/include/unwindstack/Elf.h"
  },
  {
   "alignment" : 4,
   "linker_set_key" : "std::unordered_map<std::basic_string<char, std::char_traits<char>, std::allocator<char> >, std::pair<std::shared_ptr<unwindstack::Elf>, bool>, std::hash<std::basic_string<char, std::char_traits<char>, std::allocator<char> > >, std::equal_to<std::basic_string<char, std::char_traits<char>, std::allocator<char> > >, std::allocator<std::pair<const std::basic_string<char, std::char_traits<char>, std::allocator<char> >, std::pair<std::shared_ptr<unwindstack::Elf>, bool> > > > *",
   "name" : "std::unordered_map<std::basic_string<char, std::char_traits<char>, std::allocator<char> >, std::pair<std::shared_ptr<unwindstack::Elf>, bool>, std::hash<std::basic_string<char, std::char_traits<char>, std::allocator<char> > >, std::equal_to<std::basic_string<char, std::char_traits<char>, std::allocator<char> > >, std::allocator<std::pair<const std::basic_string<char, std::char_traits<char>, std::allocator<char> >, std::pair<std::shared_ptr<unwindstack::Elf>, bool> > > > *",
   "referenced_type" : "type-1224",
   "self_type" : "type-1223",
   "size" : 4,
   "source_file" : "/system/core/libunwindstack/include/unwindstack/Elf.h"
  },
  {
   "alignment" : 4,
   "linker_set_key" : "std::unordered_map<std::basic_string<char, std::char_traits<char>, std::allocator<char> >, std::pair<std::shared_ptr<unwindstack::Elf>, bool>, std::hash<std::basic_string<char, std::char_traits<char>, std::allocator<char> > >, std::equal_to<std::basic_string<char, std::char_traits<char>, std::allocator<char> > >, std::allocator<std::pair<const std::basic_string<char, std::char_traits<char>, std::allocator<char> >, std::pair<std::shared_ptr<unwindstack::Elf>, bool> > > > *",
   "name" : "std::unordered_map<std::basic_string<char, std::char_traits<char>, std::allocator<char> >, std::pair<std::shared_ptr<unwindstack::Elf>, bool>, std::hash<std::basic_string<char, std::char_traits<char>, std::allocator<char> > >, std::equal_to<std::basic_string<char, std::char_traits<char>, std::allocator<char> > >, std::allocator<std::pair<const std::basic_string<char, std::char_traits<char>, std::allocator<char> >, std::pair<std::shared_ptr<unwindstack::Elf>, bool> > > > *",
   "referenced_type" : "type-1248",
   "self_type" : "type-1247",
   "size" : 4,
   "source_file" : "/system/core/libunwindstack/include/unwindstack/Elf.h"
  },
  {
   "alignment" : 4,
   "linker_set_key" : "std::unordered_map<std::basic_string<char, std::char_traits<char>, std::allocator<char> >, std::pair<std::shared_ptr<unwindstack::Elf>, bool>, std::hash<std::basic_string<char, std::char_traits<char>, std::allocator<char> > >, std::equal_to<std::basic_string<char, std::char_traits<char>, std::allocator<char> > >, std::allocator<std::pair<const std::basic_string<char, std::char_traits<char>, std::allocator<char> >, std::pair<std::shared_ptr<unwindstack::Elf>, bool> > > > *",
   "name" : "std::unordered_map<std::basic_string<char, std::char_traits<char>, std::allocator<char> >, std::pair<std::shared_ptr<unwindstack::Elf>, bool>, std::hash<std::basic_string<char, std::char_traits<char>, std::allocator<char> > >, std::equal_to<std::basic_string<char, std::char_traits<char>, std::allocator<char> > >, std::allocator<std::pair<const std::basic_string<char, std::char_traits<char>, std::allocator<char> >, std::pair<std::shared_ptr<unwindstack::Elf>, bool> > > > *",
   "referenced_type" : "type-1281",
   "self_type" : "type-1280",
   "size" : 4,
   "source_file" : "/system/core/libunwindstack/include/unwindstack/Elf.h"
  },
  {
   "alignment" : 4,
   "linker_set_key" : "std::unordered_map<std::basic_string<char, std::char_traits<char>, std::allocator<char> >, std::pair<std::shared_ptr<unwindstack::Elf>, bool>, std::hash<std::basic_string<char, std::char_traits<char>, std::allocator<char> > >, std::equal_to<std::basic_string<char, std::char_traits<char>, std::allocator<char> > >, std::allocator<std::pair<const std::basic_string<char, std::char_traits<char>, std::allocator<char> >, std::pair<std::shared_ptr<unwindstack::Elf>, bool> > > > *",
   "name" : "std::unordered_map<std::basic_string<char, std::char_traits<char>, std::allocator<char> >, std::pair<std::shared_ptr<unwindstack::Elf>, bool>, std::hash<std::basic_string<char, std::char_traits<char>, std::allocator<char> > >, std::equal_to<std::basic_string<char, std::char_traits<char>, std::allocator<char> > >, std::allocator<std::pair<const std::basic_string<char, std::char_traits<char>, std::allocator<char> >, std::pair<std::shared_ptr<unwindstack::Elf>, bool> > > > *",
   "referenced_type" : "type-1295",
   "self_type" : "type-1294",
   "size" : 4,
   "source_file" : "/system/core/libunwindstack/include/unwindstack/Elf.h"
  },
  {
   "alignment" : 4,
   "linker_set_key" : "std::unordered_map<std::basic_string<char, std::char_traits<char>, std::allocator<char> >, std::pair<std::shared_ptr<unwindstack::Elf>, bool>, std::hash<std::basic_string<char, std::char_traits<char>, std::allocator<char> > >, std::equal_to<std::basic_string<char, std::char_traits<char>, std::allocator<char> > >, std::allocator<std::pair<const std::basic_string<char, std::char_traits<char>, std::allocator<char> >, std::pair<std::shared_ptr<unwindstack::Elf>, bool> > > > *",
   "name" : "std::unordered_map<std::basic_string<char, std::char_traits<char>, std::allocator<char> >, std::pair<std::shared_ptr<unwindstack::Elf>, bool>, std::hash<std::basic_string<char, std::char_traits<char>, std::allocator<char> > >, std::equal_to<std::basic_string<char, std::char_traits<char>, std::allocator<char> > >, std::allocator<std::pair<const std::basic_string<char, std::char_traits<char>, std::allocator<char> >, std::pair<std::shared_ptr<unwindstack::Elf>, bool> > > > *",
   "referenced_type" : "type-1328",
   "self_type" : "type-1327",
   "size" : 4,
   "source_file" : "/system/core/libunwindstack/include/unwindstack/Elf.h"
  },
  {
   "alignment" : 4,
   "linker_set_key" : "std::unordered_map<std::basic_string<char, std::char_traits<char>, std::allocator<char> >, std::pair<std::shared_ptr<unwindstack::Elf>, bool>, std::hash<std::basic_string<char, std::char_traits<char>, std::allocator<char> > >, std::equal_to<std::basic_string<char, std::char_traits<char>, std::allocator<char> > >, std::allocator<std::pair<const std::basic_string<char, std::char_traits<char>, std::allocator<char> >, std::pair<std::shared_ptr<unwindstack::Elf>, bool> > > > *",
   "name" : "std::unordered_map<std::basic_string<char, std::char_traits<char>, std::allocator<char> >, std::pair<std::shared_ptr<unwindstack::Elf>, bool>, std::hash<std::basic_string<char, std::char_traits<char>, std::allocator<char> > >, std::equal_to<std::basic_string<char, std::char_traits<char>, std::allocator<char> > >, std::allocator<std::pair<const std::basic_string<char, std::char_traits<char>, std::allocator<char> >, std::pair<std::shared_ptr<unwindstack::Elf>, bool> > > > *",
   "referenced_type" : "type-1346",
   "self_type" : "type-1345",
   "size" : 4,
   "source_file" : "/system/core/libunwindstack/include/unwindstack/Elf.h"
  },
  {
   "alignment" : 4,
   "linker_set_key" : "std::unordered_map<std::basic_string<char, std::char_traits<char>, std::allocator<char> >, std::pair<std::shared_ptr<unwindstack::Elf>, bool>, std::hash<std::basic_string<char, std::char_traits<char>, std::allocator<char> > >, std::equal_to<std::basic_string<char, std::char_traits<char>, std::allocator<char> > >, std::allocator<std::pair<const std::basic_string<char, std::char_traits<char>, std::allocator<char> >, std::pair<std::shared_ptr<unwindstack::Elf>, bool> > > > *",
   "name" : "std::unordered_map<std::basic_string<char, std::char_traits<char>, std::allocator<char> >, std::pair<std::shared_ptr<unwindstack::Elf>, bool>, std::hash<std::basic_string<char, std::char_traits<char>, std::allocator<char> > >, std::equal_to<std::basic_string<char, std::char_traits<char>, std::allocator<char> > >, std::allocator<std::pair<const std::basic_string<char, std::char_traits<char>, std::allocator<char> >, std::pair<std::shared_ptr<unwindstack::Elf>, bool> > > > *",
   "referenced_type" : "type-1362",
   "self_type" : "type-1361",
   "size" : 4,
   "source_file" : "/system/core/libunwindstack/include/unwindstack/Elf.h"
  },
  {
   "alignment" : 4,
   "linker_set_key" : "std::unordered_map<std::basic_string<char, std::char_traits<char>, std::allocator<char> >, std::pair<std::shared_ptr<unwindstack::Elf>, bool>, std::hash<std::basic_string<char, std::char_traits<char>, std::allocator<char> > >, std::equal_to<std::basic_string<char, std::char_traits<char>, std::allocator<char> > >, std::allocator<std::pair<const std::basic_string<char, std::char_traits<char>, std::allocator<char> >, std::pair<std::shared_ptr<unwindstack::Elf>, bool> > > > *",
   "name" : "std::unordered_map<std::basic_string<char, std::char_traits<char>, std::allocator<char> >, std::pair<std::shared_ptr<unwindstack::Elf>, bool>, std::hash<std::basic_string<char, std::char_traits<char>, std::allocator<char> > >, std::equal_to<std::basic_string<char, std::char_traits<char>, std::allocator<char> > >, std::allocator<std::pair<const std::basic_string<char, std::char_traits<char>, std::allocator<char> >, std::pair<std::shared_ptr<unwindstack::Elf>, bool> > > > *",
   "referenced_type" : "type-137",
   "self_type" : "type-136",
   "size" : 4,
   "source_file" : "/system/core/libunwindstack/include/unwindstack/Elf.h"
  },
  {
   "alignment" : 4,
   "linker_set_key" : "std::unordered_map<std::basic_string<char, std::char_traits<char>, std::allocator<char> >, std::pair<std::shared_ptr<unwindstack::Elf>, bool>, std::hash<std::basic_string<char, std::char_traits<char>, std::allocator<char> > >, std::equal_to<std::basic_string<char, std::char_traits<char>, std::allocator<char> > >, std::allocator<std::pair<const std::basic_string<char, std::char_traits<char>, std::allocator<char> >, std::pair<std::shared_ptr<unwindstack::Elf>, bool> > > > *",
   "name" : "std::unordered_map<std::basic_string<char, std::char_traits<char>, std::allocator<char> >, std::pair<std::shared_ptr<unwindstack::Elf>, bool>, std::hash<std::basic_string<char, std::char_traits<char>, std::allocator<char> > >, std::equal_to<std::basic_string<char, std::char_traits<char>, std::allocator<char> > >, std::allocator<std::pair<const std::basic_string<char, std::char_traits<char>, std::allocator<char> >, std::pair<std::shared_ptr<unwindstack::Elf>, bool> > > > *",
   "referenced_type" : "type-1392",
   "self_type" : "type-1391",
   "size" : 4,
   "source_file" : "/system/core/libunwindstack/include/unwindstack/Elf.h"
  },
  {
   "alignment" : 4,
   "linker_set_key" : "std::unordered_map<std::basic_string<char, std::char_traits<char>, std::allocator<char> >, std::pair<std::shared_ptr<unwindstack::Elf>, bool>, std::hash<std::basic_string<char, std::char_traits<char>, std::allocator<char> > >, std::equal_to<std::basic_string<char, std::char_traits<char>, std::allocator<char> > >, std::allocator<std::pair<const std::basic_string<char, std::char_traits<char>, std::allocator<char> >, std::pair<std::shared_ptr<unwindstack::Elf>, bool> > > > *",
   "name" : "std::unordered_map<std::basic_string<char, std::char_traits<char>, std::allocator<char> >, std::pair<std::shared_ptr<unwindstack::Elf>, bool>, std::hash<std::basic_string<char, std::char_traits<char>, std::allocator<char> > >, std::equal_to<std::basic_string<char, std::char_traits<char>, std::allocator<char> > >, std::allocator<std::pair<const std::basic_string<char, std::char_traits<char>, std::allocator<char> >, std::pair<std::shared_ptr<unwindstack::Elf>, bool> > > > *",
   "referenced_type" : "type-156",
   "self_type" : "type-155",
   "size" : 4,
   "source_file" : "/system/core/libunwindstack/include/unwindstack/Elf.h"
  },
  {
   "alignment" : 4,
   "linker_set_key" : "std::unordered_map<std::basic_string<char, std::char_traits<char>, std::allocator<char> >, std::pair<std::shared_ptr<unwindstack::Elf>, bool>, std::hash<std::basic_string<char, std::char_traits<char>, std::allocator<char> > >, std::equal_to<std::basic_string<char, std::char_traits<char>, std::allocator<char> > >, std::allocator<std::pair<const std::basic_string<char, std::char_traits<char>, std::allocator<char> >, std::pair<std::shared_ptr<unwindstack::Elf>, bool> > > > *",
   "name" : "std::unordered_map<std::basic_string<char, std::char_traits<char>, std::allocator<char> >, std::pair<std::shared_ptr<unwindstack::Elf>, bool>, std::hash<std::basic_string<char, std::char_traits<char>, std::allocator<char> > >, std::equal_to<std::basic_string<char, std::char_traits<char>, std::allocator<char> > >, std::allocator<std::pair<const std::basic_string<char, std::char_traits<char>, std::allocator<char> >, std::pair<std::shared_ptr<unwindstack::Elf>, bool> > > > *",
   "referenced_type" : "type-210",
   "self_type" : "type-209",
   "size" : 4,
   "source_file" : "/system/core/libunwindstack/include/unwindstack/Elf.h"
  },
  {
   "alignment" : 4,
   "linker_set_key" : "std::unordered_map<std::basic_string<char, std::char_traits<char>, std::allocator<char> >, std::pair<std::shared_ptr<unwindstack::Elf>, bool>, std::hash<std::basic_string<char, std::char_traits<char>, std::allocator<char> > >, std::equal_to<std::basic_string<char, std::char_traits<char>, std::allocator<char> > >, std::allocator<std::pair<const std::basic_string<char, std::char_traits<char>, std::allocator<char> >, std::pair<std::shared_ptr<unwindstack::Elf>, bool> > > > *",
   "name" : "std::unordered_map<std::basic_string<char, std::char_traits<char>, std::allocator<char> >, std::pair<std::shared_ptr<unwindstack::Elf>, bool>, std::hash<std::basic_string<char, std::char_traits<char>, std::allocator<char> > >, std::equal_to<std::basic_string<char, std::char_traits<char>, std::allocator<char> > >, std::allocator<std::pair<const std::basic_string<char, std::char_traits<char>, std::allocator<char> >, std::pair<std::shared_ptr<unwindstack::Elf>, bool> > > > *",
   "referenced_type" : "type-241",
   "self_type" : "type-240",
   "size" : 4,
   "source_file" : "/system/core/libunwindstack/include/unwindstack/Elf.h"
  },
  {
   "alignment" : 4,
   "linker_set_key" : "std::unordered_map<std::basic_string<char, std::char_traits<char>, std::allocator<char> >, std::pair<std::shared_ptr<unwindstack::Elf>, bool>, std::hash<std::basic_string<char, std::char_traits<char>, std::allocator<char> > >, std::equal_to<std::basic_string<char, std::char_traits<char>, std::allocator<char> > >, std::allocator<std::pair<const std::basic_string<char, std::char_traits<char>, std::allocator<char> >, std::pair<std::shared_ptr<unwindstack::Elf>, bool> > > > *",
   "name" : "std::unordered_map<std::basic_string<char, std::char_traits<char>, std::allocator<char> >, std::pair<std::shared_ptr<unwindstack::Elf>, bool>, std::hash<std::basic_string<char, std::char_traits<char>, std::allocator<char> > >, std::equal_to<std::basic_string<char, std::char_traits<char>, std::allocator<char> > >, std::allocator<std::pair<const std::basic_string<char, std::char_traits<char>, std::allocator<char> >, std::pair<std::shared_ptr<unwindstack::Elf>, bool> > > > *",
   "referenced_type" : "type-259",
   "self_type" : "type-258",
   "size" : 4,
   "source_file" : "/system/core/libunwindstack/include/unwindstack/Elf.h"
  },
  {
   "alignment" : 4,
   "linker_set_key" : "std::unordered_map<std::basic_string<char, std::char_traits<char>, std::allocator<char> >, std::pair<std::shared_ptr<unwindstack::Elf>, bool>, std::hash<std::basic_string<char, std::char_traits<char>, std::allocator<char> > >, std::equal_to<std::basic_string<char, std::char_traits<char>, std::allocator<char> > >, std::allocator<std::pair<const std::basic_string<char, std::char_traits<char>, std::allocator<char> >, std::pair<std::shared_ptr<unwindstack::Elf>, bool> > > > *",
   "name" : "std::unordered_map<std::basic_string<char, std::char_traits<char>, std::allocator<char> >, std::pair<std::shared_ptr<unwindstack::Elf>, bool>, std::hash<std::basic_string<char, std::char_traits<char>, std::allocator<char> > >, std::equal_to<std::basic_string<char, std::char_traits<char>, std::allocator<char> > >, std::allocator<std::pair<const std::basic_string<char, std::char_traits<char>, std::allocator<char> >, std::pair<std::shared_ptr<unwindstack::Elf>, bool> > > > *",
   "referenced_type" : "type-348",
   "self_type" : "type-347",
   "size" : 4,
   "source_file" : "/system/core/libunwindstack/include/unwindstack/Elf.h"
  },
  {
   "alignment" : 4,
   "linker_set_key" : "std::unordered_map<std::basic_string<char, std::char_traits<char>, std::allocator<char> >, std::pair<std::shared_ptr<unwindstack::Elf>, bool>, std::hash<std::basic_string<char, std::char_traits<char>, std::allocator<char> > >, std::equal_to<std::basic_string<char, std::char_traits<char>, std::allocator<char> > >, std::allocator<std::pair<const std::basic_string<char, std::char_traits<char>, std::allocator<char> >, std::pair<std::shared_ptr<unwindstack::Elf>, bool> > > > *",
   "name" : "std::unordered_map<std::basic_string<char, std::char_traits<char>, std::allocator<char> >, std::pair<std::shared_ptr<unwindstack::Elf>, bool>, std::hash<std::basic_string<char, std::char_traits<char>, std::allocator<char> > >, std::equal_to<std::basic_string<char, std::char_traits<char>, std::allocator<char> > >, std::allocator<std::pair<const std::basic_string<char, std::char_traits<char>, std::allocator<char> >, std::pair<std::shared_ptr<unwindstack::Elf>, bool> > > > *",
   "referenced_type" : "type-366",
   "self_type" : "type-365",
   "size" : 4,
   "source_file" : "/system/core/libunwindstack/include/unwindstack/Elf.h"
  },
  {
   "alignment" : 4,
   "linker_set_key" : "std::unordered_map<std::basic_string<char, std::char_traits<char>, std::allocator<char> >, std::pair<std::shared_ptr<unwindstack::Elf>, bool>, std::hash<std::basic_string<char, std::char_traits<char>, std::allocator<char> > >, std::equal_to<std::basic_string<char, std::char_traits<char>, std::allocator<char> > >, std::allocator<std::pair<const std::basic_string<char, std::char_traits<char>, std::allocator<char> >, std::pair<std::shared_ptr<unwindstack::Elf>, bool> > > > *",
   "name" : "std::unordered_map<std::basic_string<char, std::char_traits<char>, std::allocator<char> >, std::pair<std::shared_ptr<unwindstack::Elf>, bool>, std::hash<std::basic_string<char, std::char_traits<char>, std::allocator<char> > >, std::equal_to<std::basic_string<char, std::char_traits<char>, std::allocator<char> > >, std::allocator<std::pair<const std::basic_string<char, std::char_traits<char>, std::allocator<char> >, std::pair<std::shared_ptr<unwindstack::Elf>, bool> > > > *",
   "referenced_type" : "type-397",
   "self_type" : "type-396",
   "size" : 4,
   "source_file" : "/system/core/libunwindstack/include/unwindstack/Elf.h"
  },
  {
   "alignment" : 4,
   "linker_set_key" : "std::unordered_map<std::basic_string<char, std::char_traits<char>, std::allocator<char> >, std::pair<std::shared_ptr<unwindstack::Elf>, bool>, std::hash<std::basic_string<char, std::char_traits<char>, std::allocator<char> > >, std::equal_to<std::basic_string<char, std::char_traits<char>, std::allocator<char> > >, std::allocator<std::pair<const std::basic_string<char, std::char_traits<char>, std::allocator<char> >, std::pair<std::shared_ptr<unwindstack::Elf>, bool> > > > *",
   "name" : "std::unordered_map<std::basic_string<char, std::char_traits<char>, std::allocator<char> >, std::pair<std::shared_ptr<unwindstack::Elf>, bool>, std::hash<std::basic_string<char, std::char_traits<char>, std::allocator<char> > >, std::equal_to<std::basic_string<char, std::char_traits<char>, std::allocator<char> > >, std::allocator<std::pair<const std::basic_string<char, std::char_traits<char>, std::allocator<char> >, std::pair<std::shared_ptr<unwindstack::Elf>, bool> > > > *",
   "referenced_type" : "type-413",
   "self_type" : "type-412",
   "size" : 4,
   "source_file" : "/system/core/libunwindstack/include/unwindstack/Elf.h"
  },
  {
   "alignment" : 4,
   "linker_set_key" : "std::unordered_map<std::basic_string<char, std::char_traits<char>, std::allocator<char> >, std::pair<std::shared_ptr<unwindstack::Elf>, bool>, std::hash<std::basic_string<char, std::char_traits<char>, std::allocator<char> > >, std::equal_to<std::basic_string<char, std::char_traits<char>, std::allocator<char> > >, std::allocator<std::pair<const std::basic_string<char, std::char_traits<char>, std::allocator<char> >, std::pair<std::shared_ptr<unwindstack::Elf>, bool> > > > *",
   "name" : "std::unordered_map<std::basic_string<char, std::char_traits<char>, std::allocator<char> >, std::pair<std::shared_ptr<unwindstack::Elf>, bool>, std::hash<std::basic_string<char, std::char_traits<char>, std::allocator<char> > >, std::equal_to<std::basic_string<char, std::char_traits<char>, std::allocator<char> > >, std::allocator<std::pair<const std::basic_string<char, std::char_traits<char>, std::allocator<char> >, std::pair<std::shared_ptr<unwindstack::Elf>, bool> > > > *",
   "referenced_type" : "type-45",
   "self_type" : "type-44",
   "size" : 4,
   "source_file" : "/system/core/libunwindstack/include/unwindstack/Elf.h"
  },
  {
   "alignment" : 4,
   "linker_set_key" : "std::unordered_map<std::basic_string<char, std::char_traits<char>, std::allocator<char> >, std::pair<std::shared_ptr<unwindstack::Elf>, bool>, std::hash<std::basic_string<char, std::char_traits<char>, std::allocator<char> > >, std::equal_to<std::basic_string<char, std::char_traits<char>, std::allocator<char> > >, std::allocator<std::pair<const std::basic_string<char, std::char_traits<char>, std::allocator<char> >, std::pair<std::shared_ptr<unwindstack::Elf>, bool> > > > *",
   "name" : "std::unordered_map<std::basic_string<char, std::char_traits<char>, std::allocator<char> >, std::pair<std::shared_ptr<unwindstack::Elf>, bool>, std::hash<std::basic_string<char, std::char_traits<char>, std::allocator<char> > >, std::equal_to<std::basic_string<char, std::char_traits<char>, std::allocator<char> > >, std::allocator<std::pair<const std::basic_string<char, std::char_traits<char>, std::allocator<char> >, std::pair<std::shared_ptr<unwindstack::Elf>, bool> > > > *",
   "referenced_type" : "type-452",
   "self_type" : "type-451",
   "size" : 4,
   "source_file" : "/system/core/libunwindstack/include/unwindstack/Elf.h"
  },
  {
   "alignment" : 4,
   "linker_set_key" : "std::unordered_map<std::basic_string<char, std::char_traits<char>, std::allocator<char> >, std::pair<std::shared_ptr<unwindstack::Elf>, bool>, std::hash<std::basic_string<char, std::char_traits<char>, std::allocator<char> > >, std::equal_to<std::basic_string<char, std::char_traits<char>, std::allocator<char> > >, std::allocator<std::pair<const std::basic_string<char, std::char_traits<char>, std::allocator<char> >, std::pair<std::shared_ptr<unwindstack::Elf>, bool> > > > *",
   "name" : "std::unordered_map<std::basic_string<char, std::char_traits<char>, std::allocator<char> >, std::pair<std::shared_ptr<unwindstack::Elf>, bool>, std::hash<std::basic_string<char, std::char_traits<char>, std::allocator<char> > >, std::equal_to<std::basic_string<char, std::char_traits<char>, std::allocator<char> > >, std::allocator<std::pair<const std::basic_string<char, std::char_traits<char>, std::allocator<char> >, std::pair<std::shared_ptr<unwindstack::Elf>, bool> > > > *",
   "referenced_type" : "type-467",
   "self_type" : "type-466",
   "size" : 4,
   "source_file" : "/system/core/libunwindstack/include/unwindstack/Elf.h"
  },
  {
   "alignment" : 4,
   "linker_set_key" : "std::unordered_map<std::basic_string<char, std::char_traits<char>, std::allocator<char> >, std::pair<std::shared_ptr<unwindstack::Elf>, bool>, std::hash<std::basic_string<char, std::char_traits<char>, std::allocator<char> > >, std::equal_to<std::basic_string<char, std::char_traits<char>, std::allocator<char> > >, std::allocator<std::pair<const std::basic_string<char, std::char_traits<char>, std::allocator<char> >, std::pair<std::shared_ptr<unwindstack::Elf>, bool> > > > *",
   "name" : "std::unordered_map<std::basic_string<char, std::char_traits<char>, std::allocator<char> >, std::pair<std::shared_ptr<unwindstack::Elf>, bool>, std::hash<std::basic_string<char, std::char_traits<char>, std::allocator<char> > >, std::equal_to<std::basic_string<char, std::char_traits<char>, std::allocator<char> > >, std::allocator<std::pair<const std::basic_string<char, std::char_traits<char>, std::allocator<char> >, std::pair<std::shared_ptr<unwindstack::Elf>, bool> > > > *",
   "referenced_type" : "type-501",
   "self_type" : "type-500",
   "size" : 4,
   "source_file" : "/system/core/libunwindstack/include/unwindstack/Elf.h"
  },
  {
   "alignment" : 4,
   "linker_set_key" : "std::unordered_map<std::basic_string<char, std::char_traits<char>, std::allocator<char> >, std::pair<std::shared_ptr<unwindstack::Elf>, bool>, std::hash<std::basic_string<char, std::char_traits<char>, std::allocator<char> > >, std::equal_to<std::basic_string<char, std::char_traits<char>, std::allocator<char> > >, std::allocator<std::pair<const std::basic_string<char, std::char_traits<char>, std::allocator<char> >, std::pair<std::shared_ptr<unwindstack::Elf>, bool> > > > *",
   "name" : "std::unordered_map<std::basic_string<char, std::char_traits<char>, std::allocator<char> >, std::pair<std::shared_ptr<unwindstack::Elf>, bool>, std::hash<std::basic_string<char, std::char_traits<char>, std::allocator<char> > >, std::equal_to<std::basic_string<char, std::char_traits<char>, std::allocator<char> > >, std::allocator<std::pair<const std::basic_string<char, std::char_traits<char>, std::allocator<char> >, std::pair<std::shared_ptr<unwindstack::Elf>, bool> > > > *",
   "referenced_type" : "type-520",
   "self_type" : "type-519",
   "size" : 4,
   "source_file" : "/system/core/libunwindstack/include/unwindstack/Elf.h"
  },
  {
   "alignment" : 4,
   "linker_set_key" : "std::unordered_map<std::basic_string<char, std::char_traits<char>, std::allocator<char> >, std::pair<std::shared_ptr<unwindstack::Elf>, bool>, std::hash<std::basic_string<char, std::char_traits<char>, std::allocator<char> > >, std::equal_to<std::basic_string<char, std::char_traits<char>, std::allocator<char> > >, std::allocator<std::pair<const std::basic_string<char, std::char_traits<char>, std::allocator<char> >, std::pair<std::shared_ptr<unwindstack::Elf>, bool> > > > *",
   "name" : "std::unordered_map<std::basic_string<char, std::char_traits<char>, std::allocator<char> >, std::pair<std::shared_ptr<unwindstack::Elf>, bool>, std::hash<std::basic_string<char, std::char_traits<char>, std::allocator<char> > >, std::equal_to<std::basic_string<char, std::char_traits<char>, std::allocator<char> > >, std::allocator<std::pair<const std::basic_string<char, std::char_traits<char>, std::allocator<char> >, std::pair<std::shared_ptr<unwindstack::Elf>, bool> > > > *",
   "referenced_type" : "type-537",
   "self_type" : "type-536",
   "size" : 4,
   "source_file" : "/system/core/libunwindstack/include/unwindstack/Elf.h"
  },
  {
   "alignment" : 4,
   "linker_set_key" : "std::unordered_map<std::basic_string<char, std::char_traits<char>, std::allocator<char> >, std::pair<std::shared_ptr<unwindstack::Elf>, bool>, std::hash<std::basic_string<char, std::char_traits<char>, std::allocator<char> > >, std::equal_to<std::basic_string<char, std::char_traits<char>, std::allocator<char> > >, std::allocator<std::pair<const std::basic_string<char, std::char_traits<char>, std::allocator<char> >, std::pair<std::shared_ptr<unwindstack::Elf>, bool> > > > *",
   "name" : "std::unordered_map<std::basic_string<char, std::char_traits<char>, std::allocator<char> >, std::pair<std::shared_ptr<unwindstack::Elf>, bool>, std::hash<std::basic_string<char, std::char_traits<char>, std::allocator<char> > >, std::equal_to<std::basic_string<char, std::char_traits<char>, std::allocator<char> > >, std::allocator<std::pair<const std::basic_string<char, std::char_traits<char>, std::allocator<char> >, std::pair<std::shared_ptr<unwindstack::Elf>, bool> > > > *",
   "referenced_type" : "type-565",
   "self_type" : "type-564",
   "size" : 4,
   "source_file" : "/system/core/libunwindstack/include/unwindstack/Elf.h"
  },
  {
   "alignment" : 4,
   "linker_set_key" : "std::unordered_map<std::basic_string<char, std::char_traits<char>, std::allocator<char> >, std::pair<std::shared_ptr<unwindstack::Elf>, bool>, std::hash<std::basic_string<char, std::char_traits<char>, std::allocator<char> > >, std::equal_to<std::basic_string<char, std::char_traits<char>, std::allocator<char> > >, std::allocator<std::pair<const std::basic_string<char, std::char_traits<char>, std::allocator<char> >, std::pair<std::shared_ptr<unwindstack::Elf>, bool> > > > *",
   "name" : "std::unordered_map<std::basic_string<char, std::char_traits<char>, std::allocator<char> >, std::pair<std::shared_ptr<unwindstack::Elf>, bool>, std::hash<std::basic_string<char, std::char_traits<char>, std::allocator<char> > >, std::equal_to<std::basic_string<char, std::char_traits<char>, std::allocator<char> > >, std::allocator<std::pair<const std::basic_string<char, std::char_traits<char>, std::allocator<char> >, std::pair<std::shared_ptr<unwindstack::Elf>, bool> > > > *",
   "referenced_type" : "type-593",
   "self_type" : "type-592",
   "size" : 4,
   "source_file" : "/system/core/libunwindstack/include/unwindstack/Elf.h"
  },
  {
   "alignment" : 4,
   "linker_set_key" : "std::unordered_map<std::basic_string<char, std::char_traits<char>, std::allocator<char> >, std::pair<std::shared_ptr<unwindstack::Elf>, bool>, std::hash<std::basic_string<char, std::char_traits<char>, std::allocator<char> > >, std::equal_to<std::basic_string<char, std::char_traits<char>, std::allocator<char> > >, std::allocator<std::pair<const std::basic_string<char, std::char_traits<char>, std::allocator<char> >, std::pair<std::shared_ptr<unwindstack::Elf>, bool> > > > *",
   "name" : "std::unordered_map<std::basic_string<char, std::char_traits<char>, std::allocator<char> >, std::pair<std::shared_ptr<unwindstack::Elf>, bool>, std::hash<std::basic_string<char, std::char_traits<char>, std::allocator<char> > >, std::equal_to<std::basic_string<char, std::char_traits<char>, std::allocator<char> > >, std::allocator<std::pair<const std::basic_string<char, std::char_traits<char>, std::allocator<char> >, std::pair<std::shared_ptr<unwindstack::Elf>, bool> > > > *",
   "referenced_type" : "type-628",
   "self_type" : "type-627",
   "size" : 4,
   "source_file" : "/system/core/libunwindstack/include/unwindstack/Elf.h"
  },
  {
   "alignment" : 4,
   "linker_set_key" : "std::unordered_map<std::basic_string<char, std::char_traits<char>, std::allocator<char> >, std::pair<std::shared_ptr<unwindstack::Elf>, bool>, std::hash<std::basic_string<char, std::char_traits<char>, std::allocator<char> > >, std::equal_to<std::basic_string<char, std::char_traits<char>, std::allocator<char> > >, std::allocator<std::pair<const std::basic_string<char, std::char_traits<char>, std::allocator<char> >, std::pair<std::shared_ptr<unwindstack::Elf>, bool> > > > *",
   "name" : "std::unordered_map<std::basic_string<char, std::char_traits<char>, std::allocator<char> >, std::pair<std::shared_ptr<unwindstack::Elf>, bool>, std::hash<std::basic_string<char, std::char_traits<char>, std::allocator<char> > >, std::equal_to<std::basic_string<char, std::char_traits<char>, std::allocator<char> > >, std::allocator<std::pair<const std::basic_string<char, std::char_traits<char>, std::allocator<char> >, std::pair<std::shared_ptr<unwindstack::Elf>, bool> > > > *",
   "referenced_type" : "type-648",
   "self_type" : "type-647",
   "size" : 4,
   "source_file" : "/system/core/libunwindstack/include/unwindstack/Elf.h"
  },
  {
   "alignment" : 4,
   "linker_set_key" : "std::unordered_map<std::basic_string<char, std::char_traits<char>, std::allocator<char> >, std::pair<std::shared_ptr<unwindstack::Elf>, bool>, std::hash<std::basic_string<char, std::char_traits<char>, std::allocator<char> > >, std::equal_to<std::basic_string<char, std::char_traits<char>, std::allocator<char> > >, std::allocator<std::pair<const std::basic_string<char, std::char_traits<char>, std::allocator<char> >, std::pair<std::shared_ptr<unwindstack::Elf>, bool> > > > *",
   "name" : "std::unordered_map<std::basic_string<char, std::char_traits<char>, std::allocator<char> >, std::pair<std::shared_ptr<unwindstack::Elf>, bool>, std::hash<std::basic_string<char, std::char_traits<char>, std::allocator<char> > >, std::equal_to<std::basic_string<char, std::char_traits<char>, std::allocator<char> > >, std::allocator<std::pair<const std::basic_string<char, std::char_traits<char>, std::allocator<char> >, std::pair<std::shared_ptr<unwindstack::Elf>, bool> > > > *",
   "referenced_type" : "type-673",
   "self_type" : "type-672",
   "size" : 4,
   "source_file" : "/system/core/libunwindstack/include/unwindstack/Elf.h"
  },
  {
   "alignment" : 4,
   "linker_set_key" : "std::unordered_map<std::basic_string<char, std::char_traits<char>, std::allocator<char> >, std::pair<std::shared_ptr<unwindstack::Elf>, bool>, std::hash<std::basic_string<char, std::char_traits<char>, std::allocator<char> > >, std::equal_to<std::basic_string<char, std::char_traits<char>, std::allocator<char> > >, std::allocator<std::pair<const std::basic_string<char, std::char_traits<char>, std::allocator<char> >, std::pair<std::shared_ptr<unwindstack::Elf>, bool> > > > *",
   "name" : "std::unordered_map<std::basic_string<char, std::char_traits<char>, std::allocator<char> >, std::pair<std::shared_ptr<unwindstack::Elf>, bool>, std::hash<std::basic_string<char, std::char_traits<char>, std::allocator<char> > >, std::equal_to<std::basic_string<char, std::char_traits<char>, std::allocator<char> > >, std::allocator<std::pair<const std::basic_string<char, std::char_traits<char>, std::allocator<char> >, std::pair<std::shared_ptr<unwindstack::Elf>, bool> > > > *",
   "referenced_type" : "type-687",
   "self_type" : "type-686",
   "size" : 4,
   "source_file" : "/system/core/libunwindstack/include/unwindstack/Elf.h"
  },
  {
   "alignment" : 4,
   "linker_set_key" : "std::unordered_map<std::basic_string<char, std::char_traits<char>, std::allocator<char> >, std::pair<std::shared_ptr<unwindstack::Elf>, bool>, std::hash<std::basic_string<char, std::char_traits<char>, std::allocator<char> > >, std::equal_to<std::basic_string<char, std::char_traits<char>, std::allocator<char> > >, std::allocator<std::pair<const std::basic_string<char, std::char_traits<char>, std::allocator<char> >, std::pair<std::shared_ptr<unwindstack::Elf>, bool> > > > *",
   "name" : "std::unordered_map<std::basic_string<char, std::char_traits<char>, std::allocator<char> >, std::pair<std::shared_ptr<unwindstack::Elf>, bool>, std::hash<std::basic_string<char, std::char_traits<char>, std::allocator<char> > >, std::equal_to<std::basic_string<char, std::char_traits<char>, std::allocator<char> > >, std::allocator<std::pair<const std::basic_string<char, std::char_traits<char>, std::allocator<char> >, std::pair<std::shared_ptr<unwindstack::Elf>, bool> > > > *",
   "referenced_type" : "type-705",
   "self_type" : "type-704",
   "size" : 4,
   "source_file" : "/system/core/libunwindstack/include/unwindstack/Elf.h"
  },
  {
   "alignment" : 4,
   "linker_set_key" : "std::unordered_map<std::basic_string<char, std::char_traits<char>, std::allocator<char> >, std::pair<std::shared_ptr<unwindstack::Elf>, bool>, std::hash<std::basic_string<char, std::char_traits<char>, std::allocator<char> > >, std::equal_to<std::basic_string<char, std::char_traits<char>, std::allocator<char> > >, std::allocator<std::pair<const std::basic_string<char, std::char_traits<char>, std::allocator<char> >, std::pair<std::shared_ptr<unwindstack::Elf>, bool> > > > *",
   "name" : "std::unordered_map<std::basic_string<char, std::char_traits<char>, std::allocator<char> >, std::pair<std::shared_ptr<unwindstack::Elf>, bool>, std::hash<std::basic_string<char, std::char_traits<char>, std::allocator<char> > >, std::equal_to<std::basic_string<char, std::char_traits<char>, std::allocator<char> > >, std::allocator<std::pair<const std::basic_string<char, std::char_traits<char>, std::allocator<char> >, std::pair<std::shared_ptr<unwindstack::Elf>, bool> > > > *",
   "referenced_type" : "type-727",
   "self_type" : "type-726",
   "size" : 4,
   "source_file" : "/system/core/libunwindstack/include/unwindstack/Elf.h"
  },
  {
   "alignment" : 4,
   "linker_set_key" : "std::unordered_map<std::basic_string<char, std::char_traits<char>, std::allocator<char> >, std::pair<std::shared_ptr<unwindstack::Elf>, bool>, std::hash<std::basic_string<char, std::char_traits<char>, std::allocator<char> > >, std::equal_to<std::basic_string<char, std::char_traits<char>, std::allocator<char> > >, std::allocator<std::pair<const std::basic_string<char, std::char_traits<char>, std::allocator<char> >, std::pair<std::shared_ptr<unwindstack::Elf>, bool> > > > *",
   "name" : "std::unordered_map<std::basic_string<char, std::char_traits<char>, std::allocator<char> >, std::pair<std::shared_ptr<unwindstack::Elf>, bool>, std::hash<std::basic_string<char, std::char_traits<char>, std::allocator<char> > >, std::equal_to<std::basic_string<char, std::char_traits<char>, std::allocator<char> > >, std::allocator<std::pair<const std::basic_string<char, std::char_traits<char>, std::allocator<char> >, std::pair<std::shared_ptr<unwindstack::Elf>, bool> > > > *",
   "referenced_type" : "type-745",
   "self_type" : "type-744",
   "size" : 4,
   "source_file" : "/system/core/libunwindstack/include/unwindstack/Elf.h"
  },
  {
   "alignment" : 4,
   "linker_set_key" : "std::unordered_map<std::basic_string<char, std::char_traits<char>, std::allocator<char> >, std::pair<std::shared_ptr<unwindstack::Elf>, bool>, std::hash<std::basic_string<char, std::char_traits<char>, std::allocator<char> > >, std::equal_to<std::basic_string<char, std::char_traits<char>, std::allocator<char> > >, std::allocator<std::pair<const std::basic_string<char, std::char_traits<char>, std::allocator<char> >, std::pair<std::shared_ptr<unwindstack::Elf>, bool> > > > *",
   "name" : "std::unordered_map<std::basic_string<char, std::char_traits<char>, std::allocator<char> >, std::pair<std::shared_ptr<unwindstack::Elf>, bool>, std::hash<std::basic_string<char, std::char_traits<char>, std::allocator<char> > >, std::equal_to<std::basic_string<char, std::char_traits<char>, std::allocator<char> > >, std::allocator<std::pair<const std::basic_string<char, std::char_traits<char>, std::allocator<char> >, std::pair<std::shared_ptr<unwindstack::Elf>, bool> > > > *",
   "referenced_type" : "type-794",
   "self_type" : "type-793",
   "size" : 4,
   "source_file" : "/system/core/libunwindstack/include/unwindstack/Elf.h"
  },
  {
   "alignment" : 4,
   "linker_set_key" : "std::unordered_map<std::basic_string<char, std::char_traits<char>, std::allocator<char> >, std::pair<std::shared_ptr<unwindstack::Elf>, bool>, std::hash<std::basic_string<char, std::char_traits<char>, std::allocator<char> > >, std::equal_to<std::basic_string<char, std::char_traits<char>, std::allocator<char> > >, std::allocator<std::pair<const std::basic_string<char, std::char_traits<char>, std::allocator<char> >, std::pair<std::shared_ptr<unwindstack::Elf>, bool> > > > *",
   "name" : "std::unordered_map<std::basic_string<char, std::char_traits<char>, std::allocator<char> >, std::pair<std::shared_ptr<unwindstack::Elf>, bool>, std::hash<std::basic_string<char, std::char_traits<char>, std::allocator<char> > >, std::equal_to<std::basic_string<char, std::char_traits<char>, std::allocator<char> > >, std::allocator<std::pair<const std::basic_string<char, std::char_traits<char>, std::allocator<char> >, std::pair<std::shared_ptr<unwindstack::Elf>, bool> > > > *",
   "referenced_type" : "type-810",
   "self_type" : "type-809",
   "size" : 4,
   "source_file" : "/system/core/libunwindstack/include/unwindstack/Elf.h"
  },
  {
   "alignment" : 4,
   "linker_set_key" : "std::unordered_map<std::basic_string<char, std::char_traits<char>, std::allocator<char> >, std::pair<std::shared_ptr<unwindstack::Elf>, bool>, std::hash<std::basic_string<char, std::char_traits<char>, std::allocator<char> > >, std::equal_to<std::basic_string<char, std::char_traits<char>, std::allocator<char> > >, std::allocator<std::pair<const std::basic_string<char, std::char_traits<char>, std::allocator<char> >, std::pair<std::shared_ptr<unwindstack::Elf>, bool> > > > *",
   "name" : "std::unordered_map<std::basic_string<char, std::char_traits<char>, std::allocator<char> >, std::pair<std::shared_ptr<unwindstack::Elf>, bool>, std::hash<std::basic_string<char, std::char_traits<char>, std::allocator<char> > >, std::equal_to<std::basic_string<char, std::char_traits<char>, std::allocator<char> > >, std::allocator<std::pair<const std::basic_string<char, std::char_traits<char>, std::allocator<char> >, std::pair<std::shared_ptr<unwindstack::Elf>, bool> > > > *",
   "referenced_type" : "type-848",
   "self_type" : "type-847",
   "size" : 4,
   "source_file" : "/system/core/libunwindstack/include/unwindstack/Elf.h"
  },
  {
   "alignment" : 4,
   "linker_set_key" : "std::unordered_map<std::basic_string<char, std::char_traits<char>, std::allocator<char> >, std::pair<std::shared_ptr<unwindstack::Elf>, bool>, std::hash<std::basic_string<char, std::char_traits<char>, std::allocator<char> > >, std::equal_to<std::basic_string<char, std::char_traits<char>, std::allocator<char> > >, std::allocator<std::pair<const std::basic_string<char, std::char_traits<char>, std::allocator<char> >, std::pair<std::shared_ptr<unwindstack::Elf>, bool> > > > *",
   "name" : "std::unordered_map<std::basic_string<char, std::char_traits<char>, std::allocator<char> >, std::pair<std::shared_ptr<unwindstack::Elf>, bool>, std::hash<std::basic_string<char, std::char_traits<char>, std::allocator<char> > >, std::equal_to<std::basic_string<char, std::char_traits<char>, std::allocator<char> > >, std::allocator<std::pair<const std::basic_string<char, std::char_traits<char>, std::allocator<char> >, std::pair<std::shared_ptr<unwindstack::Elf>, bool> > > > *",
   "referenced_type" : "type-863",
   "self_type" : "type-862",
   "size" : 4,
   "source_file" : "/system/core/libunwindstack/include/unwindstack/Elf.h"
  },
  {
   "alignment" : 4,
   "linker_set_key" : "std::unordered_map<std::basic_string<char, std::char_traits<char>, std::allocator<char> >, std::pair<std::shared_ptr<unwindstack::Elf>, bool>, std::hash<std::basic_string<char, std::char_traits<char>, std::allocator<char> > >, std::equal_to<std::basic_string<char, std::char_traits<char>, std::allocator<char> > >, std::allocator<std::pair<const std::basic_string<char, std::char_traits<char>, std::allocator<char> >, std::pair<std::shared_ptr<unwindstack::Elf>, bool> > > > *",
   "name" : "std::unordered_map<std::basic_string<char, std::char_traits<char>, std::allocator<char> >, std::pair<std::shared_ptr<unwindstack::Elf>, bool>, std::hash<std::basic_string<char, std::char_traits<char>, std::allocator<char> > >, std::equal_to<std::basic_string<char, std::char_traits<char>, std::allocator<char> > >, std::allocator<std::pair<const std::basic_string<char, std::char_traits<char>, std::allocator<char> >, std::pair<std::shared_ptr<unwindstack::Elf>, bool> > > > *",
   "referenced_type" : "type-88",
   "self_type" : "type-87",
   "size" : 4,
   "source_file" : "/system/core/libunwindstack/include/unwindstack/Elf.h"
  },
  {
   "alignment" : 4,
   "linker_set_key" : "std::unordered_map<std::basic_string<char, std::char_traits<char>, std::allocator<char> >, std::pair<std::shared_ptr<unwindstack::Elf>, bool>, std::hash<std::basic_string<char, std::char_traits<char>, std::allocator<char> > >, std::equal_to<std::basic_string<char, std::char_traits<char>, std::allocator<char> > >, std::allocator<std::pair<const std::basic_string<char, std::char_traits<char>, std::allocator<char> >, std::pair<std::shared_ptr<unwindstack::Elf>, bool> > > > *",
   "name" : "std::unordered_map<std::basic_string<char, std::char_traits<char>, std::allocator<char> >, std::pair<std::shared_ptr<unwindstack::Elf>, bool>, std::hash<std::basic_string<char, std::char_traits<char>, std::allocator<char> > >, std::equal_to<std::basic_string<char, std::char_traits<char>, std::allocator<char> > >, std::allocator<std::pair<const std::basic_string<char, std::char_traits<char>, std::allocator<char> >, std::pair<std::shared_ptr<unwindstack::Elf>, bool> > > > *",
   "referenced_type" : "type-896",
   "self_type" : "type-895",
   "size" : 4,
   "source_file" : "/system/core/libunwindstack/include/unwindstack/Elf.h"
  },
  {
   "alignment" : 4,
   "linker_set_key" : "std::unordered_map<std::basic_string<char, std::char_traits<char>, std::allocator<char> >, std::pair<std::shared_ptr<unwindstack::Elf>, bool>, std::hash<std::basic_string<char, std::char_traits<char>, std::allocator<char> > >, std::equal_to<std::basic_string<char, std::char_traits<char>, std::allocator<char> > >, std::allocator<std::pair<const std::basic_string<char, std::char_traits<char>, std::allocator<char> >, std::pair<std::shared_ptr<unwindstack::Elf>, bool> > > > *",
   "name" : "std::unordered_map<std::basic_string<char, std::char_traits<char>, std::allocator<char> >, std::pair<std::shared_ptr<unwindstack::Elf>, bool>, std::hash<std::basic_string<char, std::char_traits<char>, std::allocator<char> > >, std::equal_to<std::basic_string<char, std::char_traits<char>, std::allocator<char> > >, std::allocator<std::pair<const std::basic_string<char, std::char_traits<char>, std::allocator<char> >, std::pair<std::shared_ptr<unwindstack::Elf>, bool> > > > *",
   "referenced_type" : "type-914",
   "self_type" : "type-913",
   "size" : 4,
   "source_file" : "/system/core/libunwindstack/include/unwindstack/Elf.h"
  },
  {
   "alignment" : 4,
   "linker_set_key" : "std::unordered_map<std::basic_string<char, std::char_traits<char>, std::allocator<char> >, std::pair<std::shared_ptr<unwindstack::Elf>, bool>, std::hash<std::basic_string<char, std::char_traits<char>, std::allocator<char> > >, std::equal_to<std::basic_string<char, std::char_traits<char>, std::allocator<char> > >, std::allocator<std::pair<const std::basic_string<char, std::char_traits<char>, std::allocator<char> >, std::pair<std::shared_ptr<unwindstack::Elf>, bool> > > > *",
   "name" : "std::unordered_map<std::basic_string<char, std::char_traits<char>, std::allocator<char> >, std::pair<std::shared_ptr<unwindstack::Elf>, bool>, std::hash<std::basic_string<char, std::char_traits<char>, std::allocator<char> > >, std::equal_to<std::basic_string<char, std::char_traits<char>, std::allocator<char> > >, std::allocator<std::pair<const std::basic_string<char, std::char_traits<char>, std::allocator<char> >, std::pair<std::shared_ptr<unwindstack::Elf>, bool> > > > *",
   "referenced_type" : "type-931",
   "self_type" : "type-930",
   "size" : 4,
   "source_file" : "/system/core/libunwindstack/include/unwindstack/Elf.h"
  },
  {
   "alignment" : 4,
   "linker_set_key" : "std::unordered_map<std::basic_string<char, std::char_traits<char>, std::allocator<char> >, std::pair<std::shared_ptr<unwindstack::Elf>, bool>, std::hash<std::basic_string<char, std::char_traits<char>, std::allocator<char> > >, std::equal_to<std::basic_string<char, std::char_traits<char>, std::allocator<char> > >, std::allocator<std::pair<const std::basic_string<char, std::char_traits<char>, std::allocator<char> >, std::pair<std::shared_ptr<unwindstack::Elf>, bool> > > > *",
   "name" : "std::unordered_map<std::basic_string<char, std::char_traits<char>, std::allocator<char> >, std::pair<std::shared_ptr<unwindstack::Elf>, bool>, std::hash<std::basic_string<char, std::char_traits<char>, std::allocator<char> > >, std::equal_to<std::basic_string<char, std::char_traits<char>, std::allocator<char> > >, std::allocator<std::pair<const std::basic_string<char, std::char_traits<char>, std::allocator<char> >, std::pair<std::shared_ptr<unwindstack::Elf>, bool> > > > *",
   "referenced_type" : "type-959",
   "self_type" : "type-958",
   "size" : 4,
   "source_file" : "/system/core/libunwindstack/include/unwindstack/Elf.h"
  },
  {
   "alignment" : 4,
   "linker_set_key" : "std::unordered_map<std::basic_string<char, std::char_traits<char>, std::allocator<char> >, std::pair<std::shared_ptr<unwindstack::Elf>, bool>, std::hash<std::basic_string<char, std::char_traits<char>, std::allocator<char> > >, std::equal_to<std::basic_string<char, std::char_traits<char>, std::allocator<char> > >, std::allocator<std::pair<const std::basic_string<char, std::char_traits<char>, std::allocator<char> >, std::pair<std::shared_ptr<unwindstack::Elf>, bool> > > > *",
   "name" : "std::unordered_map<std::basic_string<char, std::char_traits<char>, std::allocator<char> >, std::pair<std::shared_ptr<unwindstack::Elf>, bool>, std::hash<std::basic_string<char, std::char_traits<char>, std::allocator<char> > >, std::equal_to<std::basic_string<char, std::char_traits<char>, std::allocator<char> > >, std::allocator<std::pair<const std::basic_string<char, std::char_traits<char>, std::allocator<char> >, std::pair<std::shared_ptr<unwindstack::Elf>, bool> > > > *",
   "referenced_type" : "type-980",
   "self_type" : "type-979",
   "size" : 4,
   "source_file" : "/system/core/libunwindstack/include/unwindstack/Elf.h"
  },
  {
   "alignment" : 4,
   "linker_set_key" : "std::vector<unwindstack::LocalFrameData, std::allocator<unwindstack::LocalFrameData> > *",
   "name" : "std::vector<unwindstack::LocalFrameData, std::allocator<unwindstack::LocalFrameData> > *",
   "referenced_type" : "type-1041",
   "self_type" : "type-1040",
   "size" : 4,
   "source_file" : "/system/core/libunwindstack/include/unwindstack/LocalUnwinder.h"
  },
  {
   "alignment" : 4,
   "linker_set_key" : "std::vector<unwindstack::LocalFrameData, std::allocator<unwindstack::LocalFrameData> > *",
   "name" : "std::vector<unwindstack::LocalFrameData, std::allocator<unwindstack::LocalFrameData> > *",
   "referenced_type" : "type-581",
   "self_type" : "type-580",
   "size" : 4,
   "source_file" : "/system/core/libunwindstack/include/unwindstack/LocalUnwinder.h"
  },
  {
   "alignment" : 4,
   "linker_set_key" : "std::vector<unwindstack::LocalFrameData, std::allocator<unwindstack::LocalFrameData> > *",
   "name" : "std::vector<unwindstack::LocalFrameData, std::allocator<unwindstack::LocalFrameData> > *",
   "referenced_type" : "type-968",
   "self_type" : "type-967",
   "size" : 4,
   "source_file" : "/system/core/libunwindstack/include/unwindstack/LocalUnwinder.h"
  },
  {
   "alignment" : 4,
   "linker_set_key" : "unsigned char *",
   "name" : "unsigned char *",
   "referenced_type" : "type-10",
   "self_type" : "type-142",
   "size" : 4,
   "source_file" : "/system/core/libunwindstack/include/unwindstack/Memory.h"
  },
  {
   "alignment" : 4,
   "linker_set_key" : "unsigned int *",
   "name" : "unsigned int *",
   "referenced_type" : "type-3",
   "self_type" : "type-31",
   "size" : 4,
   "source_file" : "/system/core/libunwindstack/include/unwindstack/Memory.h"
  },
  {
   "alignment" : 4,
   "linker_set_key" : "unsigned long long *",
   "name" : "unsigned long long *",
   "referenced_type" : "type-6",
   "self_type" : "type-102",
   "size" : 4,
   "source_file" : "/system/core/libunwindstack/include/unwindstack/Memory.h"
  },
  {
   "alignment" : 4,
   "linker_set_key" : "unwindstack::BufferMaps *",
   "name" : "unwindstack::BufferMaps *",
   "referenced_type" : "type-183",
   "self_type" : "type-184",
   "size" : 4,
   "source_file" : "/system/core/libunwindstack/include/unwindstack/Maps.h"
  },
  {
   "alignment" : 4,
   "linker_set_key" : "unwindstack::DwarfMemory *",
   "name" : "unwindstack::DwarfMemory *",
   "referenced_type" : "type-48",
   "self_type" : "type-280",
   "size" : 4,
   "source_file" : "/system/core/libunwindstack/include/unwindstack/DwarfMemory.h"
  },
  {
   "alignment" : 4,
   "linker_set_key" : "unwindstack::DwarfSection *",
   "name" : "unwindstack::DwarfSection *",
   "referenced_type" : "type-47",
   "self_type" : "type-282",
   "size" : 4,
   "source_file" : "/system/core/libunwindstack/include/unwindstack/DwarfSection.h"
  },
  {
   "alignment" : 4,
   "linker_set_key" : "unwindstack::DwarfSection::iterator *",
   "name" : "unwindstack::DwarfSection::iterator *",
   "referenced_type" : "type-283",
   "self_type" : "type-286",
   "size" : 4,
   "source_file" : "/system/core/libunwindstack/include/unwindstack/DwarfSection.h"
  },
  {
   "alignment" : 4,
   "linker_set_key" : "unwindstack::DwarfSectionImpl<unsigned int> *",
   "name" : "unwindstack::DwarfSectionImpl<unsigned int> *",
   "referenced_type" : "type-46",
   "self_type" : "type-55",
   "size" : 4,
   "source_file" : "/system/core/libunwindstack/include/unwindstack/DwarfSection.h"
  },
  {
   "alignment" : 4,
   "linker_set_key" : "unwindstack::DwarfSectionImpl<unsigned long long> *",
   "name" : "unwindstack::DwarfSectionImpl<unsigned long long> *",
   "referenced_type" : "type-56",
   "self_type" : "type-57",
   "size" : 4,
   "source_file" : "/system/core/libunwindstack/include/unwindstack/DwarfSection.h"
  },
  {
   "alignment" : 4,
   "linker_set_key" : "unwindstack::DwarfSectionImplNoHdr<unsigned int> *",
   "name" : "unwindstack::DwarfSectionImplNoHdr<unsigned int> *",
   "referenced_type" : "type-109",
   "self_type" : "type-111",
   "size" : 4,
   "source_file" : "/system/core/libunwindstack/include/unwindstack/DwarfSection.h"
  },
  {
   "alignment" : 4,
   "linker_set_key" : "unwindstack::DwarfSectionImplNoHdr<unsigned long long> *",
   "name" : "unwindstack::DwarfSectionImplNoHdr<unsigned long long> *",
   "referenced_type" : "type-113",
   "self_type" : "type-115",
   "size" : 4,
   "source_file" : "/system/core/libunwindstack/include/unwindstack/DwarfSection.h"
  },
  {
   "alignment" : 4,
   "linker_set_key" : "unwindstack::Elf *",
   "name" : "unwindstack::Elf *",
   "referenced_type" : "type-192",
   "self_type" : "type-191",
   "size" : 4,
   "source_file" : "/system/core/libunwindstack/include/unwindstack/Elf.h"
  },
  {
   "alignment" : 4,
   "linker_set_key" : "unwindstack::ElfInterface *",
   "name" : "unwindstack::ElfInterface *",
   "referenced_type" : "type-16",
   "self_type" : "type-23",
   "size" : 4,
   "source_file" : "/system/core/libunwindstack/include/unwindstack/ElfInterface.h"
  },
  {
   "alignment" : 4,
   "linker_set_key" : "unwindstack::ElfInterface32 *",
   "name" : "unwindstack::ElfInterface32 *",
   "referenced_type" : "type-32",
   "self_type" : "type-33",
   "size" : 4,
   "source_file" : "/system/core/libunwindstack/include/unwindstack/ElfInterface.h"
  },
  {
   "alignment" : 4,
   "linker_set_key" : "unwindstack::ElfInterface64 *",
   "name" : "unwindstack::ElfInterface64 *",
   "referenced_type" : "type-40",
   "self_type" : "type-41",
   "size" : 4,
   "source_file" : "/system/core/libunwindstack/include/unwindstack/ElfInterface.h"
  },
  {
   "alignment" : 4,
   "linker_set_key" : "unwindstack::ErrorData *",
   "name" : "unwindstack::ErrorData *",
   "referenced_type" : "type-14",
   "self_type" : "type-86",
   "size" : 4,
   "source_file" : "/system/core/libunwindstack/include/unwindstack/Elf.h"
  },
  {
   "alignment" : 4,
   "linker_set_key" : "unwindstack::FileMaps *",
   "name" : "unwindstack::FileMaps *",
   "referenced_type" : "type-185",
   "self_type" : "type-188",
   "size" : 4,
   "source_file" : "/system/core/libunwindstack/include/unwindstack/Maps.h"
  },
  {
   "alignment" : 4,
   "linker_set_key" : "unwindstack::FrameData *",
   "name" : "unwindstack::FrameData *",
   "referenced_type" : "type-756",
   "self_type" : "type-776",
   "size" : 4,
   "source_file" : "/system/core/libunwindstack/include/unwindstack/Unwinder.h"
  },
  {
   "alignment" : 4,
   "linker_set_key" : "unwindstack::Global *",
   "name" : "unwindstack::Global *",
   "referenced_type" : "type-159",
   "self_type" : "type-162",
   "size" : 4,
   "source_file" : "/system/core/libunwindstack/include/unwindstack/Global.h"
  },
  {
   "alignment" : 4,
   "linker_set_key" : "unwindstack::JitDebug *",
   "name" : "unwindstack::JitDebug *",
   "referenced_type" : "type-213",
   "self_type" : "type-220",
   "size" : 4,
   "source_file" : "/system/core/libunwindstack/include/unwindstack/JitDebug.h"
  },
  {
   "alignment" : 4,
   "linker_set_key" : "unwindstack::LocalFrameData *",
   "name" : "unwindstack::LocalFrameData *",
   "referenced_type" : "type-568",
   "self_type" : "type-570",
   "size" : 4,
   "source_file" : "/system/core/libunwindstack/include/unwindstack/LocalUnwinder.h"
  },
  {
   "alignment" : 4,
   "linker_set_key" : "unwindstack::LocalMaps *",
   "name" : "unwindstack::LocalMaps *",
   "referenced_type" : "type-177",
   "self_type" : "type-178",
   "size" : 4,
   "source_file" : "/system/core/libunwindstack/include/unwindstack/Maps.h"
  },
  {
   "alignment" : 4,
   "linker_set_key" : "unwindstack::LocalUnwinder *",
   "name" : "unwindstack::LocalUnwinder *",
   "referenced_type" : "type-571",
   "self_type" : "type-576",
   "size" : 4,
   "source_file" : "/system/core/libunwindstack/include/unwindstack/LocalUnwinder.h"
  },
  {
   "alignment" : 4,
   "linker_set_key" : "unwindstack::LocalUpdatableMaps *",
   "name" : "unwindstack::LocalUpdatableMaps *",
   "referenced_type" : "type-179",
   "self_type" : "type-182",
   "size" : 4,
   "source_file" : "/system/core/libunwindstack/include/unwindstack/Maps.h"
  },
  {
   "alignment" : 4,
   "linker_set_key" : "unwindstack::MapInfo *",
   "name" : "unwindstack::MapInfo *",
   "referenced_type" : "type-78",
   "self_type" : "type-81",
   "size" : 4,
   "source_file" : "/system/core/libunwindstack/include/unwindstack/Elf.h"
  },
  {
   "alignment" : 4,
   "linker_set_key" : "unwindstack::Maps *",
   "name" : "unwindstack::Maps *",
   "referenced_type" : "type-167",
   "self_type" : "type-169",
   "size" : 4,
   "source_file" : "/system/core/libunwindstack/include/unwindstack/Global.h"
  },
  {
   "alignment" : 4,
   "linker_set_key" : "unwindstack::Memory *",
   "name" : "unwindstack::Memory *",
   "referenced_type" : "type-1124",
   "self_type" : "type-1123",
   "size" : 4,
   "source_file" : "/system/core/libunwindstack/include/unwindstack/DwarfMemory.h"
  },
  {
   "alignment" : 4,
   "linker_set_key" : "unwindstack::Memory *",
   "name" : "unwindstack::Memory *",
   "referenced_type" : "type-1239",
   "self_type" : "type-1238",
   "size" : 4,
   "source_file" : "/system/core/libunwindstack/include/unwindstack/DwarfMemory.h"
  },
  {
   "alignment" : 4,
   "linker_set_key" : "unwindstack::Memory *",
   "name" : "unwindstack::Memory *",
   "referenced_type" : "type-18",
   "self_type" : "type-17",
   "size" : 4,
   "source_file" : "/system/core/libunwindstack/include/unwindstack/Memory.h"
  },
  {
   "alignment" : 4,
   "linker_set_key" : "unwindstack::Memory *",
   "name" : "unwindstack::Memory *",
   "referenced_type" : "type-395",
   "self_type" : "type-394",
   "size" : 4,
   "source_file" : "/system/core/libunwindstack/include/unwindstack/DwarfMemory.h"
  },
  {
   "alignment" : 4,
   "linker_set_key" : "unwindstack::Memory *",
   "name" : "unwindstack::Memory *",
   "referenced_type" : "type-43",
   "self_type" : "type-42",
   "size" : 4,
   "source_file" : "/system/core/libunwindstack/include/unwindstack/DwarfMemory.h"
  },
  {
   "alignment" : 4,
   "linker_set_key" : "unwindstack::Memory *",
   "name" : "unwindstack::Memory *",
   "referenced_type" : "type-755",
   "self_type" : "type-754",
   "size" : 4,
   "source_file" : "/system/core/libunwindstack/include/unwindstack/DwarfMemory.h"
  },
  {
   "alignment" : 4,
   "linker_set_key" : "unwindstack::MemoryBuffer *",
   "name" : "unwindstack::MemoryBuffer *",
   "referenced_type" : "type-134",
   "self_type" : "type-140",
   "size" : 4,
   "source_file" : "/system/core/libunwindstack/include/unwindstack/Memory.h"
  },
  {
   "alignment" : 4,
   "linker_set_key" : "unwindstack::MemoryCache *",
   "name" : "unwindstack::MemoryCache *",
   "referenced_type" : "type-74",
   "self_type" : "type-132",
   "size" : 4,
   "source_file" : "/system/core/libunwindstack/include/unwindstack/Memory.h"
  },
  {
   "alignment" : 4,
   "linker_set_key" : "unwindstack::MemoryFileAtOffset *",
   "name" : "unwindstack::MemoryFileAtOffset *",
   "referenced_type" : "type-141",
   "self_type" : "type-146",
   "size" : 4,
   "source_file" : "/system/core/libunwindstack/include/unwindstack/Memory.h"
  },
  {
   "alignment" : 4,
   "linker_set_key" : "unwindstack::MemoryLocal *",
   "name" : "unwindstack::MemoryLocal *",
   "referenced_type" : "type-198",
   "self_type" : "type-202",
   "size" : 4,
   "source_file" : "/system/core/libunwindstack/include/unwindstack/Memory.h"
  },
  {
   "alignment" : 4,
   "linker_set_key" : "unwindstack::MemoryOffline *",
   "name" : "unwindstack::MemoryOffline *",
   "referenced_type" : "type-226",
   "self_type" : "type-236",
   "size" : 4,
   "source_file" : "/system/core/libunwindstack/include/unwindstack/Memory.h"
  },
  {
   "alignment" : 4,
   "linker_set_key" : "unwindstack::MemoryOfflineBuffer *",
   "name" : "unwindstack::MemoryOfflineBuffer *",
   "referenced_type" : "type-237",
   "self_type" : "type-250",
   "size" : 4,
   "source_file" : "/system/core/libunwindstack/include/unwindstack/Memory.h"
  },
  {
   "alignment" : 4,
   "linker_set_key" : "unwindstack::MemoryOfflineParts *",
   "name" : "unwindstack::MemoryOfflineParts *",
   "referenced_type" : "type-256",
   "self_type" : "type-260",
   "size" : 4,
   "source_file" : "/system/core/libunwindstack/include/unwindstack/Memory.h"
  },
  {
   "alignment" : 4,
   "linker_set_key" : "unwindstack::MemoryRange *",
   "name" : "unwindstack::MemoryRange *",
   "referenced_type" : "type-206",
   "self_type" : "type-208",
   "size" : 4,
   "source_file" : "/system/core/libunwindstack/include/unwindstack/Memory.h"
  },
  {
   "alignment" : 4,
   "linker_set_key" : "unwindstack::MemoryRanges *",
   "name" : "unwindstack::MemoryRanges *",
   "referenced_type" : "type-218",
   "self_type" : "type-225",
   "size" : 4,
   "source_file" : "/system/core/libunwindstack/include/unwindstack/Memory.h"
  },
  {
   "alignment" : 4,
   "linker_set_key" : "unwindstack::MemoryRemote *",
   "name" : "unwindstack::MemoryRemote *",
   "referenced_type" : "type-152",
   "self_type" : "type-181",
   "size" : 4,
   "source_file" : "/system/core/libunwindstack/include/unwindstack/Memory.h"
  },
  {
   "alignment" : 4,
   "linker_set_key" : "unwindstack::Regs *",
   "name" : "unwindstack::Regs *",
   "referenced_type" : "type-63",
   "self_type" : "type-94",
   "size" : 4,
   "source_file" : "/system/core/libunwindstack/include/unwindstack/Regs.h"
  },
  {
   "alignment" : 4,
   "linker_set_key" : "unwindstack::Regs::Location *",
   "name" : "unwindstack::Regs::Location *",
   "referenced_type" : "type-64",
   "self_type" : "type-73",
   "size" : 4,
   "source_file" : "/system/core/libunwindstack/include/unwindstack/Regs.h"
  },
  {
   "alignment" : 4,
   "linker_set_key" : "unwindstack::RegsArm *",
   "name" : "unwindstack::RegsArm *",
   "referenced_type" : "type-119",
   "self_type" : "type-128",
   "size" : 4,
   "source_file" : "/system/core/libunwindstack/include/unwindstack/RegsArm.h"
  },
  {
   "alignment" : 4,
   "linker_set_key" : "unwindstack::RegsArm64 *",
   "name" : "unwindstack::RegsArm64 *",
   "referenced_type" : "type-596",
   "self_type" : "type-597",
   "size" : 4,
   "source_file" : "/system/core/libunwindstack/include/unwindstack/RegsArm64.h"
  },
  {
   "alignment" : 4,
   "linker_set_key" : "unwindstack::RegsImpl<unsigned int> *",
   "name" : "unwindstack::RegsImpl<unsigned int> *",
   "referenced_type" : "type-106",
   "self_type" : "type-108",
   "size" : 4,
   "source_file" : "/system/core/libunwindstack/include/unwindstack/Regs.h"
  },
  {
   "alignment" : 4,
   "linker_set_key" : "unwindstack::RegsImpl<unsigned long long> *",
   "name" : "unwindstack::RegsImpl<unsigned long long> *",
   "referenced_type" : "type-67",
   "self_type" : "type-69",
   "size" : 4,
   "source_file" : "/system/core/libunwindstack/include/unwindstack/Regs.h"
  },
  {
   "alignment" : 4,
   "linker_set_key" : "unwindstack::RegsMips *",
   "name" : "unwindstack::RegsMips *",
   "referenced_type" : "type-598",
   "self_type" : "type-599",
   "size" : 4,
   "source_file" : "/system/core/libunwindstack/include/unwindstack/RegsMips.h"
  },
  {
   "alignment" : 4,
   "linker_set_key" : "unwindstack::RegsMips64 *",
   "name" : "unwindstack::RegsMips64 *",
   "referenced_type" : "type-600",
   "self_type" : "type-601",
   "size" : 4,
   "source_file" : "/system/core/libunwindstack/include/unwindstack/RegsMips64.h"
  },
  {
   "alignment" : 4,
   "linker_set_key" : "unwindstack::RegsX86 *",
   "name" : "unwindstack::RegsX86 *",
   "referenced_type" : "type-602",
   "self_type" : "type-603",
   "size" : 4,
   "source_file" : "/system/core/libunwindstack/include/unwindstack/RegsX86.h"
  },
  {
   "alignment" : 4,
   "linker_set_key" : "unwindstack::RegsX86_64 *",
   "name" : "unwindstack::RegsX86_64 *",
   "referenced_type" : "type-604",
   "self_type" : "type-605",
   "size" : 4,
   "source_file" : "/system/core/libunwindstack/include/unwindstack/RegsX86_64.h"
  },
  {
   "alignment" : 4,
   "linker_set_key" : "unwindstack::RemoteMaps *",
   "name" : "unwindstack::RemoteMaps *",
   "referenced_type" : "type-175",
   "self_type" : "type-176",
   "size" : 4,
   "source_file" : "/system/core/libunwindstack/include/unwindstack/Maps.h"
  },
  {
   "alignment" : 4,
   "linker_set_key" : "unwindstack::Unwinder *",
   "name" : "unwindstack::Unwinder *",
   "referenced_type" : "type-759",
   "self_type" : "type-765",
   "size" : 4,
   "source_file" : "/system/core/libunwindstack/include/unwindstack/Unwinder.h"
  },
  {
   "alignment" : 4,
   "linker_set_key" : "unwindstack::UnwinderFromPid *",
   "name" : "unwindstack::UnwinderFromPid *",
   "referenced_type" : "type-777",
   "self_type" : "type-780",
   "size" : 4,
   "source_file" : "/system/core/libunwindstack/include/unwindstack/Unwinder.h"
  },
  {
   "alignment" : 4,
   "linker_set_key" : "unwindstack::x86_64_ucontext_t *",
   "name" : "unwindstack::x86_64_ucontext_t *",
   "referenced_type" : "type-373",
   "self_type" : "type-376",
   "size" : 4,
   "source_file" : "/system/core/libunwindstack/include/unwindstack/RegsX86_64.h"
  },
  {
   "alignment" : 4,
   "linker_set_key" : "unwindstack::x86_ucontext_t *",
   "name" : "unwindstack::x86_ucontext_t *",
   "referenced_type" : "type-352",
   "self_type" : "type-355",
   "size" : 4,
   "source_file" : "/system/core/libunwindstack/include/unwindstack/RegsX86.h"
  },
  {
   "alignment" : 4,
   "linker_set_key" : "void *",
   "name" : "void *",
   "referenced_type" : "type-62",
   "self_type" : "type-61",
   "size" : 4,
   "source_file" : "/system/core/libunwindstack/include/unwindstack/DwarfMemory.h"
  }
 ],
 "qualified_types" :
 [
  {
   "alignment" : 1,
   "is_const" : true,
   "linker_set_key" : "const char",
   "name" : "const char",
   "referenced_type" : "type-92",
   "self_type" : "type-91",
   "size" : 1,
   "source_file" : "/system/core/libunwindstack/include/unwindstack/MapInfo.h"
  },
  {
   "alignment" : 4,
   "is_const" : true,
   "linker_set_key" : "const elf32_hdr",
   "name" : "const elf32_hdr",
   "referenced_type" : "type-121",
   "self_type" : "type-120",
   "size" : 52,
   "source_file" : "/system/core/libunwindstack/include/unwindstack/ElfInterface.h"
  },
  {
   "alignment" : 4,
   "is_const" : true,
   "linker_set_key" : "const elf32_hdr",
   "name" : "const elf32_hdr",
   "referenced_type" : "type-1268",
   "self_type" : "type-1267",
   "size" : 52,
   "source_file" : "/system/core/libunwindstack/include/unwindstack/ElfInterface.h"
  },
  {
   "alignment" : 4,
   "is_const" : true,
   "linker_set_key" : "const elf32_hdr",
   "name" : "const elf32_hdr",
   "referenced_type" : "type-438",
   "self_type" : "type-437",
   "size" : 52,
   "source_file" : "/system/core/libunwindstack/include/unwindstack/ElfInterface.h"
  },
  {
   "alignment" : 4,
   "is_const" : true,
   "linker_set_key" : "const elf32_hdr",
   "name" : "const elf32_hdr",
   "referenced_type" : "type-834",
   "self_type" : "type-833",
   "size" : 52,
   "source_file" : "/system/core/libunwindstack/include/unwindstack/ElfInterface.h"
  },
  {
   "alignment" : 8,
   "is_const" : true,
   "linker_set_key" : "const elf64_hdr",
   "name" : "const elf64_hdr",
   "referenced_type" : "type-124",
   "self_type" : "type-123",
   "size" : 64,
   "source_file" : "/system/core/libunwindstack/include/unwindstack/ElfInterface.h"
  },
  {
   "alignment" : 8,
   "is_const" : true,
   "linker_set_key" : "const elf64_hdr",
   "name" : "const elf64_hdr",
   "referenced_type" : "type-1271",
   "self_type" : "type-1270",
   "size" : 64,
   "source_file" : "/system/core/libunwindstack/include/unwindstack/ElfInterface.h"
  },
  {
   "alignment" : 8,
   "is_const" : true,
   "linker_set_key" : "const elf64_hdr",
   "name" : "const elf64_hdr",
   "referenced_type" : "type-441",
   "self_type" : "type-440",
   "size" : 64,
   "source_file" : "/system/core/libunwindstack/include/unwindstack/ElfInterface.h"
  },
  {
   "alignment" : 8,
   "is_const" : true,
   "linker_set_key" : "const elf64_hdr",
   "name" : "const elf64_hdr",
   "referenced_type" : "type-837",
   "self_type" : "type-836",
   "size" : 64,
   "source_file" : "/system/core/libunwindstack/include/unwindstack/ElfInterface.h"
  },
  {
   "alignment" : 4,
   "is_const" : true,
   "linker_set_key" : "const int",
   "name" : "const int",
   "referenced_type" : "type-153",
   "self_type" : "type-170",
   "size" : 4,
   "source_file" : "/system/core/libunwindstack/include/unwindstack/Maps.h"
  },
  {
   "alignment" : 4,
   "is_const" : true,
   "linker_set_key" : "const std::basic_string<char, std::char_traits<char>, std::allocator<char> >",
   "name" : "const std::basic_string<char, std::char_traits<char>, std::allocator<char> >",
   "referenced_type" : "type-1014",
   "self_type" : "type-1013",
   "size" : 12,
   "source_file" : "/system/core/libunwindstack/include/unwindstack/ElfInterface.h"
  },
  {
   "alignment" : 4,
   "is_const" : true,
   "linker_set_key" : "const std::basic_string<char, std::char_traits<char>, std::allocator<char> >",
   "name" : "const std::basic_string<char, std::char_traits<char>, std::allocator<char> >",
   "referenced_type" : "type-101",
   "self_type" : "type-100",
   "size" : 12,
   "source_file" : "/system/core/libunwindstack/include/unwindstack/ElfInterface.h"
  },
  {
   "alignment" : 4,
   "is_const" : true,
   "linker_set_key" : "const std::basic_string<char, std::char_traits<char>, std::allocator<char> >",
   "name" : "const std::basic_string<char, std::char_traits<char>, std::allocator<char> >",
   "referenced_type" : "type-1048",
   "self_type" : "type-1047",
   "size" : 12,
   "source_file" : "/system/core/libunwindstack/include/unwindstack/ElfInterface.h"
  },
  {
   "alignment" : 4,
   "is_const" : true,
   "linker_set_key" : "const std::basic_string<char, std::char_traits<char>, std::allocator<char> >",
   "name" : "const std::basic_string<char, std::char_traits<char>, std::allocator<char> >",
   "referenced_type" : "type-1073",
   "self_type" : "type-1072",
   "size" : 12,
   "source_file" : "/system/core/libunwindstack/include/unwindstack/ElfInterface.h"
  },
  {
   "alignment" : 4,
   "is_const" : true,
   "linker_set_key" : "const std::basic_string<char, std::char_traits<char>, std::allocator<char> >",
   "name" : "const std::basic_string<char, std::char_traits<char>, std::allocator<char> >",
   "referenced_type" : "type-1089",
   "self_type" : "type-1088",
   "size" : 12,
   "source_file" : "/system/core/libunwindstack/include/unwindstack/ElfInterface.h"
  },
  {
   "alignment" : 4,
   "is_const" : true,
   "linker_set_key" : "const std::basic_string<char, std::char_traits<char>, std::allocator<char> >",
   "name" : "const std::basic_string<char, std::char_traits<char>, std::allocator<char> >",
   "referenced_type" : "type-1098",
   "self_type" : "type-1097",
   "size" : 12,
   "source_file" : "/system/core/libunwindstack/include/unwindstack/ElfInterface.h"
  },
  {
   "alignment" : 4,
   "is_const" : true,
   "linker_set_key" : "const std::basic_string<char, std::char_traits<char>, std::allocator<char> >",
   "name" : "const std::basic_string<char, std::char_traits<char>, std::allocator<char> >",
   "referenced_type" : "type-1108",
   "self_type" : "type-1107",
   "size" : 12,
   "source_file" : "/system/core/libunwindstack/include/unwindstack/ElfInterface.h"
  },
  {
   "alignment" : 4,
   "is_const" : true,
   "linker_set_key" : "const std::basic_string<char, std::char_traits<char>, std::allocator<char> >",
   "name" : "const std::basic_string<char, std::char_traits<char>, std::allocator<char> >",
   "referenced_type" : "type-1122",
   "self_type" : "type-1121",
   "size" : 12,
   "source_file" : "/system/core/libunwindstack/include/unwindstack/ElfInterface.h"
  },
  {
   "alignment" : 4,
   "is_const" : true,
   "linker_set_key" : "const std::basic_string<char, std::char_traits<char>, std::allocator<char> >",
   "name" : "const std::basic_string<char, std::char_traits<char>, std::allocator<char> >",
   "referenced_type" : "type-1137",
   "self_type" : "type-1136",
   "size" : 12,
   "source_file" : "/system/core/libunwindstack/include/unwindstack/ElfInterface.h"
  },
  {
   "alignment" : 4,
   "is_const" : true,
   "linker_set_key" : "const std::basic_string<char, std::char_traits<char>, std::allocator<char> >",
   "name" : "const std::basic_string<char, std::char_traits<char>, std::allocator<char> >",
   "referenced_type" : "type-1150",
   "self_type" : "type-1149",
   "size" : 12,
   "source_file" : "/system/core/libunwindstack/include/unwindstack/ElfInterface.h"
  },
  {
   "alignment" : 4,
   "is_const" : true,
   "linker_set_key" : "const std::basic_string<char, std::char_traits<char>, std::allocator<char> >",
   "name" : "const std::basic_string<char, std::char_traits<char>, std::allocator<char> >",
   "referenced_type" : "type-1162",
   "self_type" : "type-1161",
   "size" : 12,
   "source_file" : "/system/core/libunwindstack/include/unwindstack/ElfInterface.h"
  },
  {
   "alignment" : 4,
   "is_const" : true,
   "linker_set_key" : "const std::basic_string<char, std::char_traits<char>, std::allocator<char> >",
   "name" : "const std::basic_string<char, std::char_traits<char>, std::allocator<char> >",
   "referenced_type" : "type-1187",
   "self_type" : "type-1186",
   "size" : 12,
   "source_file" : "/system/core/libunwindstack/include/unwindstack/ElfInterface.h"
  },
  {
   "alignment" : 4,
   "is_const" : true,
   "linker_set_key" : "const std::basic_string<char, std::char_traits<char>, std::allocator<char> >",
   "name" : "const std::basic_string<char, std::char_traits<char>, std::allocator<char> >",
   "referenced_type" : "type-1218",
   "self_type" : "type-1217",
   "size" : 12,
   "source_file" : "/system/core/libunwindstack/include/unwindstack/ElfInterface.h"
  },
  {
   "alignment" : 4,
   "is_const" : true,
   "linker_set_key" : "const std::basic_string<char, std::char_traits<char>, std::allocator<char> >",
   "name" : "const std::basic_string<char, std::char_traits<char>, std::allocator<char> >",
   "referenced_type" : "type-1235",
   "self_type" : "type-1234",
   "size" : 12,
   "source_file" : "/system/core/libunwindstack/include/unwindstack/ElfInterface.h"
  },
  {
   "alignment" : 4,
   "is_const" : true,
   "linker_set_key" : "const std::basic_string<char, std::char_traits<char>, std::allocator<char> >",
   "name" : "const std::basic_string<char, std::char_traits<char>, std::allocator<char> >",
   "referenced_type" : "type-1258",
   "self_type" : "type-1257",
   "size" : 12,
   "source_file" : "/system/core/libunwindstack/include/unwindstack/ElfInterface.h"
  },
  {
   "alignment" : 4,
   "is_const" : true,
   "linker_set_key" : "const std::basic_string<char, std::char_traits<char>, std::allocator<char> >",
   "name" : "const std::basic_string<char, std::char_traits<char>, std::allocator<char> >",
   "referenced_type" : "type-1276",
   "self_type" : "type-1275",
   "size" : 12,
   "source_file" : "/system/core/libunwindstack/include/unwindstack/ElfInterface.h"
  },
  {
   "alignment" : 4,
   "is_const" : true,
   "linker_set_key" : "const std::basic_string<char, std::char_traits<char>, std::allocator<char> >",
   "name" : "const std::basic_string<char, std::char_traits<char>, std::allocator<char> >",
   "referenced_type" : "type-1292",
   "self_type" : "type-1291",
   "size" : 12,
   "source_file" : "/system/core/libunwindstack/include/unwindstack/ElfInterface.h"
  },
  {
   "alignment" : 4,
   "is_const" : true,
   "linker_set_key" : "const std::basic_string<char, std::char_traits<char>, std::allocator<char> >",
   "name" : "const std::basic_string<char, std::char_traits<char>, std::allocator<char> >",
   "referenced_type" : "type-130",
   "self_type" : "type-129",
   "size" : 12,
   "source_file" : "/system/core/libunwindstack/include/unwindstack/ElfInterface.h"
  },
  {
   "alignment" : 4,
   "is_const" : true,
   "linker_set_key" : "const std::basic_string<char, std::char_traits<char>, std::allocator<char> >",
   "name" : "const std::basic_string<char, std::char_traits<char>, std::allocator<char> >",
   "referenced_type" : "type-1314",
   "self_type" : "type-1313",
   "size" : 12,
   "source_file" : "/system/core/libunwindstack/include/unwindstack/ElfInterface.h"
  },
  {
   "alignment" : 4,
   "is_const" : true,
   "linker_set_key" : "const std::basic_string<char, std::char_traits<char>, std::allocator<char> >",
   "name" : "const std::basic_string<char, std::char_traits<char>, std::allocator<char> >",
   "referenced_type" : "type-1342",
   "self_type" : "type-1341",
   "size" : 12,
   "source_file" : "/system/core/libunwindstack/include/unwindstack/ElfInterface.h"
  },
  {
   "alignment" : 4,
   "is_const" : true,
   "linker_set_key" : "const std::basic_string<char, std::char_traits<char>, std::allocator<char> >",
   "name" : "const std::basic_string<char, std::char_traits<char>, std::allocator<char> >",
   "referenced_type" : "type-1359",
   "self_type" : "type-1358",
   "size" : 12,
   "source_file" : "/system/core/libunwindstack/include/unwindstack/ElfInterface.h"
  },
  {
   "alignment" : 4,
   "is_const" : true,
   "linker_set_key" : "const std::basic_string<char, std::char_traits<char>, std::allocator<char> >",
   "name" : "const std::basic_string<char, std::char_traits<char>, std::allocator<char> >",
   "referenced_type" : "type-1376",
   "self_type" : "type-1375",
   "size" : 12,
   "source_file" : "/system/core/libunwindstack/include/unwindstack/ElfInterface.h"
  },
  {
   "alignment" : 4,
   "is_const" : true,
   "linker_set_key" : "const std::basic_string<char, std::char_traits<char>, std::allocator<char> >",
   "name" : "const std::basic_string<char, std::char_traits<char>, std::allocator<char> >",
   "referenced_type" : "type-1382",
   "self_type" : "type-1381",
   "size" : 12,
   "source_file" : "/system/core/libunwindstack/include/unwindstack/Memory.h"
  },
  {
   "alignment" : 4,
   "is_const" : true,
   "linker_set_key" : "const std::basic_string<char, std::char_traits<char>, std::allocator<char> >",
   "name" : "const std::basic_string<char, std::char_traits<char>, std::allocator<char> >",
   "referenced_type" : "type-150",
   "self_type" : "type-149",
   "size" : 12,
   "source_file" : "/system/core/libunwindstack/include/unwindstack/ElfInterface.h"
  },
  {
   "alignment" : 4,
   "is_const" : true,
   "linker_set_key" : "const std::basic_string<char, std::char_traits<char>, std::allocator<char> >",
   "name" : "const std::basic_string<char, std::char_traits<char>, std::allocator<char> >",
   "referenced_type" : "type-187",
   "self_type" : "type-186",
   "size" : 12,
   "source_file" : "/system/core/libunwindstack/include/unwindstack/ElfInterface.h"
  },
  {
   "alignment" : 4,
   "is_const" : true,
   "linker_set_key" : "const std::basic_string<char, std::char_traits<char>, std::allocator<char> >",
   "name" : "const std::basic_string<char, std::char_traits<char>, std::allocator<char> >",
   "referenced_type" : "type-234",
   "self_type" : "type-233",
   "size" : 12,
   "source_file" : "/system/core/libunwindstack/include/unwindstack/ElfInterface.h"
  },
  {
   "alignment" : 4,
   "is_const" : true,
   "linker_set_key" : "const std::basic_string<char, std::char_traits<char>, std::allocator<char> >",
   "name" : "const std::basic_string<char, std::char_traits<char>, std::allocator<char> >",
   "referenced_type" : "type-254",
   "self_type" : "type-253",
   "size" : 12,
   "source_file" : "/system/core/libunwindstack/include/unwindstack/ElfInterface.h"
  },
  {
   "alignment" : 4,
   "is_const" : true,
   "linker_set_key" : "const std::basic_string<char, std::char_traits<char>, std::allocator<char> >",
   "name" : "const std::basic_string<char, std::char_traits<char>, std::allocator<char> >",
   "referenced_type" : "type-276",
   "self_type" : "type-275",
   "size" : 12,
   "source_file" : "/system/core/libunwindstack/include/unwindstack/ElfInterface.h"
  },
  {
   "alignment" : 4,
   "is_const" : true,
   "linker_set_key" : "const std::basic_string<char, std::char_traits<char>, std::allocator<char> >",
   "name" : "const std::basic_string<char, std::char_traits<char>, std::allocator<char> >",
   "referenced_type" : "type-345",
   "self_type" : "type-344",
   "size" : 12,
   "source_file" : "/system/core/libunwindstack/include/unwindstack/ElfInterface.h"
  },
  {
   "alignment" : 4,
   "is_const" : true,
   "linker_set_key" : "const std::basic_string<char, std::char_traits<char>, std::allocator<char> >",
   "name" : "const std::basic_string<char, std::char_traits<char>, std::allocator<char> >",
   "referenced_type" : "type-363",
   "self_type" : "type-362",
   "size" : 12,
   "source_file" : "/system/core/libunwindstack/include/unwindstack/ElfInterface.h"
  },
  {
   "alignment" : 4,
   "is_const" : true,
   "linker_set_key" : "const std::basic_string<char, std::char_traits<char>, std::allocator<char> >",
   "name" : "const std::basic_string<char, std::char_traits<char>, std::allocator<char> >",
   "referenced_type" : "type-384",
   "self_type" : "type-383",
   "size" : 12,
   "source_file" : "/system/core/libunwindstack/include/unwindstack/ElfInterface.h"
  },
  {
   "alignment" : 4,
   "is_const" : true,
   "linker_set_key" : "const std::basic_string<char, std::char_traits<char>, std::allocator<char> >",
   "name" : "const std::basic_string<char, std::char_traits<char>, std::allocator<char> >",
   "referenced_type" : "type-38",
   "self_type" : "type-37",
   "size" : 12,
   "source_file" : "/system/core/libunwindstack/include/unwindstack/ElfInterface.h"
  },
  {
   "alignment" : 4,
   "is_const" : true,
   "linker_set_key" : "const std::basic_string<char, std::char_traits<char>, std::allocator<char> >",
   "name" : "const std::basic_string<char, std::char_traits<char>, std::allocator<char> >",
   "referenced_type" : "type-391",
   "self_type" : "type-390",
   "size" : 12,
   "source_file" : "/system/core/libunwindstack/include/unwindstack/ElfInterface.h"
  },
  {
   "alignment" : 4,
   "is_const" : true,
   "linker_set_key" : "const std::basic_string<char, std::char_traits<char>, std::allocator<char> >",
   "name" : "const std::basic_string<char, std::char_traits<char>, std::allocator<char> >",
   "referenced_type" : "type-425",
   "self_type" : "type-424",
   "size" : 12,
   "source_file" : "/system/core/libunwindstack/include/unwindstack/ElfInterface.h"
  },
  {
   "alignment" : 4,
   "is_const" : true,
   "linker_set_key" : "const std::basic_string<char, std::char_traits<char>, std::allocator<char> >",
   "name" : "const std::basic_string<char, std::char_traits<char>, std::allocator<char> >",
   "referenced_type" : "type-447",
   "self_type" : "type-446",
   "size" : 12,
   "source_file" : "/system/core/libunwindstack/include/unwindstack/ElfInterface.h"
  },
  {
   "alignment" : 4,
   "is_const" : true,
   "linker_set_key" : "const std::basic_string<char, std::char_traits<char>, std::allocator<char> >",
   "name" : "const std::basic_string<char, std::char_traits<char>, std::allocator<char> >",
   "referenced_type" : "type-464",
   "self_type" : "type-463",
   "size" : 12,
   "source_file" : "/system/core/libunwindstack/include/unwindstack/ElfInterface.h"
  },
  {
   "alignment" : 4,
   "is_const" : true,
   "linker_set_key" : "const std::basic_string<char, std::char_traits<char>, std::allocator<char> >",
   "name" : "const std::basic_string<char, std::char_traits<char>, std::allocator<char> >",
   "referenced_type" : "type-487",
   "self_type" : "type-486",
   "size" : 12,
   "source_file" : "/system/core/libunwindstack/include/unwindstack/ElfInterface.h"
  },
  {
   "alignment" : 4,
   "is_const" : true,
   "linker_set_key" : "const std::basic_string<char, std::char_traits<char>, std::allocator<char> >",
   "name" : "const std::basic_string<char, std::char_traits<char>, std::allocator<char> >",
   "referenced_type" : "type-516",
   "self_type" : "type-515",
   "size" : 12,
   "source_file" : "/system/core/libunwindstack/include/unwindstack/ElfInterface.h"
  },
  {
   "alignment" : 4,
   "is_const" : true,
   "linker_set_key" : "const std::basic_string<char, std::char_traits<char>, std::allocator<char> >",
   "name" : "const std::basic_string<char, std::char_traits<char>, std::allocator<char> >",
   "referenced_type" : "type-534",
   "self_type" : "type-533",
   "size" : 12,
   "source_file" : "/system/core/libunwindstack/include/unwindstack/ElfInterface.h"
  },
  {
   "alignment" : 4,
   "is_const" : true,
   "linker_set_key" : "const std::basic_string<char, std::char_traits<char>, std::allocator<char> >",
   "name" : "const std::basic_string<char, std::char_traits<char>, std::allocator<char> >",
   "referenced_type" : "type-551",
   "self_type" : "type-550",
   "size" : 12,
   "source_file" : "/system/core/libunwindstack/include/unwindstack/ElfInterface.h"
  },
  {
   "alignment" : 4,
   "is_const" : true,
   "linker_set_key" : "const std::basic_string<char, std::char_traits<char>, std::allocator<char> >",
   "name" : "const std::basic_string<char, std::char_traits<char>, std::allocator<char> >",
   "referenced_type" : "type-556",
   "self_type" : "type-555",
   "size" : 12,
   "source_file" : "/system/core/libunwindstack/include/unwindstack/Memory.h"
  },
  {
   "alignment" : 4,
   "is_const" : true,
   "linker_set_key" : "const std::basic_string<char, std::char_traits<char>, std::allocator<char> >",
   "name" : "const std::basic_string<char, std::char_traits<char>, std::allocator<char> >",
   "referenced_type" : "type-588",
   "self_type" : "type-587",
   "size" : 12,
   "source_file" : "/system/core/libunwindstack/include/unwindstack/ElfInterface.h"
  },
  {
   "alignment" : 4,
   "is_const" : true,
   "linker_set_key" : "const std::basic_string<char, std::char_traits<char>, std::allocator<char> >",
   "name" : "const std::basic_string<char, std::char_traits<char>, std::allocator<char> >",
   "referenced_type" : "type-624",
   "self_type" : "type-623",
   "size" : 12,
   "source_file" : "/system/core/libunwindstack/include/unwindstack/ElfInterface.h"
  },
  {
   "alignment" : 4,
   "is_const" : true,
   "linker_set_key" : "const std::basic_string<char, std::char_traits<char>, std::allocator<char> >",
   "name" : "const std::basic_string<char, std::char_traits<char>, std::allocator<char> >",
   "referenced_type" : "type-643",
   "self_type" : "type-642",
   "size" : 12,
   "source_file" : "/system/core/libunwindstack/include/unwindstack/ElfInterface.h"
  },
  {
   "alignment" : 4,
   "is_const" : true,
   "linker_set_key" : "const std::basic_string<char, std::char_traits<char>, std::allocator<char> >",
   "name" : "const std::basic_string<char, std::char_traits<char>, std::allocator<char> >",
   "referenced_type" : "type-670",
   "self_type" : "type-669",
   "size" : 12,
   "source_file" : "/system/core/libunwindstack/include/unwindstack/ElfInterface.h"
  },
  {
   "alignment" : 4,
   "is_const" : true,
   "linker_set_key" : "const std::basic_string<char, std::char_traits<char>, std::allocator<char> >",
   "name" : "const std::basic_string<char, std::char_traits<char>, std::allocator<char> >",
   "referenced_type" : "type-684",
   "self_type" : "type-683",
   "size" : 12,
   "source_file" : "/system/core/libunwindstack/include/unwindstack/ElfInterface.h"
  },
  {
   "alignment" : 4,
   "is_const" : true,
   "linker_set_key" : "const std::basic_string<char, std::char_traits<char>, std::allocator<char> >",
   "name" : "const std::basic_string<char, std::char_traits<char>, std::allocator<char> >",
   "referenced_type" : "type-701",
   "self_type" : "type-700",
   "size" : 12,
   "source_file" : "/system/core/libunwindstack/include/unwindstack/ElfInterface.h"
  },
  {
   "alignment" : 4,
   "is_const" : true,
   "linker_set_key" : "const std::basic_string<char, std::char_traits<char>, std::allocator<char> >",
   "name" : "const std::basic_string<char, std::char_traits<char>, std::allocator<char> >",
   "referenced_type" : "type-722",
   "self_type" : "type-721",
   "size" : 12,
   "source_file" : "/system/core/libunwindstack/include/unwindstack/ElfInterface.h"
  },
  {
   "alignment" : 4,
   "is_const" : true,
   "linker_set_key" : "const std::basic_string<char, std::char_traits<char>, std::allocator<char> >",
   "name" : "const std::basic_string<char, std::char_traits<char>, std::allocator<char> >",
   "referenced_type" : "type-725",
   "self_type" : "type-724",
   "size" : 12,
   "source_file" : "/system/core/libunwindstack/include/unwindstack/ElfInterface.h"
  },
  {
   "alignment" : 4,
   "is_const" : true,
   "linker_set_key" : "const std::basic_string<char, std::char_traits<char>, std::allocator<char> >",
   "name" : "const std::basic_string<char, std::char_traits<char>, std::allocator<char> >",
   "referenced_type" : "type-742",
   "self_type" : "type-741",
   "size" : 12,
   "source_file" : "/system/core/libunwindstack/include/unwindstack/ElfInterface.h"
  },
  {
   "alignment" : 4,
   "is_const" : true,
   "linker_set_key" : "const std::basic_string<char, std::char_traits<char>, std::allocator<char> >",
   "name" : "const std::basic_string<char, std::char_traits<char>, std::allocator<char> >",
   "referenced_type" : "type-787",
   "self_type" : "type-786",
   "size" : 12,
   "source_file" : "/system/core/libunwindstack/include/unwindstack/ElfInterface.h"
  },
  {
   "alignment" : 4,
   "is_const" : true,
   "linker_set_key" : "const std::basic_string<char, std::char_traits<char>, std::allocator<char> >",
   "name" : "const std::basic_string<char, std::char_traits<char>, std::allocator<char> >",
   "referenced_type" : "type-821",
   "self_type" : "type-820",
   "size" : 12,
   "source_file" : "/system/core/libunwindstack/include/unwindstack/ElfInterface.h"
  },
  {
   "alignment" : 4,
   "is_const" : true,
   "linker_set_key" : "const std::basic_string<char, std::char_traits<char>, std::allocator<char> >",
   "name" : "const std::basic_string<char, std::char_traits<char>, std::allocator<char> >",
   "referenced_type" : "type-843",
   "self_type" : "type-842",
   "size" : 12,
   "source_file" : "/system/core/libunwindstack/include/unwindstack/ElfInterface.h"
  },
  {
   "alignment" : 4,
   "is_const" : true,
   "linker_set_key" : "const std::basic_string<char, std::char_traits<char>, std::allocator<char> >",
   "name" : "const std::basic_string<char, std::char_traits<char>, std::allocator<char> >",
   "referenced_type" : "type-860",
   "self_type" : "type-859",
   "size" : 12,
   "source_file" : "/system/core/libunwindstack/include/unwindstack/ElfInterface.h"
  },
  {
   "alignment" : 4,
   "is_const" : true,
   "linker_set_key" : "const std::basic_string<char, std::char_traits<char>, std::allocator<char> >",
   "name" : "const std::basic_string<char, std::char_traits<char>, std::allocator<char> >",
   "referenced_type" : "type-882",
   "self_type" : "type-881",
   "size" : 12,
   "source_file" : "/system/core/libunwindstack/include/unwindstack/ElfInterface.h"
  },
  {
   "alignment" : 4,
   "is_const" : true,
   "linker_set_key" : "const std::basic_string<char, std::char_traits<char>, std::allocator<char> >",
   "name" : "const std::basic_string<char, std::char_traits<char>, std::allocator<char> >",
   "referenced_type" : "type-910",
   "self_type" : "type-909",
   "size" : 12,
   "source_file" : "/system/core/libunwindstack/include/unwindstack/ElfInterface.h"
  },
  {
   "alignment" : 4,
   "is_const" : true,
   "linker_set_key" : "const std::basic_string<char, std::char_traits<char>, std::allocator<char> >",
   "name" : "const std::basic_string<char, std::char_traits<char>, std::allocator<char> >",
   "referenced_type" : "type-928",
   "self_type" : "type-927",
   "size" : 12,
   "source_file" : "/system/core/libunwindstack/include/unwindstack/ElfInterface.h"
  },
  {
   "alignment" : 4,
   "is_const" : true,
   "linker_set_key" : "const std::basic_string<char, std::char_traits<char>, std::allocator<char> >",
   "name" : "const std::basic_string<char, std::char_traits<char>, std::allocator<char> >",
   "referenced_type" : "type-945",
   "self_type" : "type-944",
   "size" : 12,
   "source_file" : "/system/core/libunwindstack/include/unwindstack/ElfInterface.h"
  },
  {
   "alignment" : 4,
   "is_const" : true,
   "linker_set_key" : "const std::basic_string<char, std::char_traits<char>, std::allocator<char> >",
   "name" : "const std::basic_string<char, std::char_traits<char>, std::allocator<char> >",
   "referenced_type" : "type-950",
   "self_type" : "type-949",
   "size" : 12,
   "source_file" : "/system/core/libunwindstack/include/unwindstack/Memory.h"
  },
  {
   "alignment" : 4,
   "is_const" : true,
   "linker_set_key" : "const std::basic_string<char, std::char_traits<char>, std::allocator<char> >",
   "name" : "const std::basic_string<char, std::char_traits<char>, std::allocator<char> >",
   "referenced_type" : "type-975",
   "self_type" : "type-974",
   "size" : 12,
   "source_file" : "/system/core/libunwindstack/include/unwindstack/ElfInterface.h"
  },
  {
   "alignment" : 4,
   "is_const" : true,
   "linker_set_key" : "const std::basic_string<char, std::char_traits<char>, std::allocator<char> >",
   "name" : "const std::basic_string<char, std::char_traits<char>, std::allocator<char> >",
   "referenced_type" : "type-998",
   "self_type" : "type-997",
   "size" : 12,
   "source_file" : "/system/core/libunwindstack/include/unwindstack/ElfInterface.h"
  },
  {
   "alignment" : 4,
   "is_const" : true,
   "linker_set_key" : "const std::shared_ptr<unwindstack::Memory>",
   "name" : "const std::shared_ptr<unwindstack::Memory>",
   "referenced_type" : "type-1350",
   "self_type" : "type-1349",
   "size" : 8,
   "source_file" : "/system/core/libunwindstack/include/unwindstack/MapInfo.h"
  },
  {
   "alignment" : 4,
   "is_const" : true,
   "linker_set_key" : "const std::shared_ptr<unwindstack::Memory>",
   "name" : "const std::shared_ptr<unwindstack::Memory>",
   "referenced_type" : "type-1386",
   "self_type" : "type-1385",
   "size" : 8,
   "source_file" : "/system/core/libunwindstack/include/unwindstack/Memory.h"
  },
  {
   "alignment" : 4,
   "is_const" : true,
   "linker_set_key" : "const std::shared_ptr<unwindstack::Memory>",
   "name" : "const std::shared_ptr<unwindstack::Memory>",
   "referenced_type" : "type-245",
   "self_type" : "type-244",
   "size" : 8,
   "source_file" : "/system/core/libunwindstack/include/unwindstack/MapInfo.h"
  },
  {
   "alignment" : 4,
   "is_const" : true,
   "linker_set_key" : "const std::shared_ptr<unwindstack::Memory>",
   "name" : "const std::shared_ptr<unwindstack::Memory>",
   "referenced_type" : "type-525",
   "self_type" : "type-524",
   "size" : 8,
   "source_file" : "/system/core/libunwindstack/include/unwindstack/MapInfo.h"
  },
  {
   "alignment" : 4,
   "is_const" : true,
   "linker_set_key" : "const std::shared_ptr<unwindstack::Memory>",
   "name" : "const std::shared_ptr<unwindstack::Memory>",
   "referenced_type" : "type-559",
   "self_type" : "type-558",
   "size" : 8,
   "source_file" : "/system/core/libunwindstack/include/unwindstack/Memory.h"
  },
  {
   "alignment" : 4,
   "is_const" : true,
   "linker_set_key" : "const std::shared_ptr<unwindstack::Memory>",
   "name" : "const std::shared_ptr<unwindstack::Memory>",
   "referenced_type" : "type-919",
   "self_type" : "type-918",
   "size" : 8,
   "source_file" : "/system/core/libunwindstack/include/unwindstack/MapInfo.h"
  },
  {
   "alignment" : 4,
   "is_const" : true,
   "linker_set_key" : "const std::shared_ptr<unwindstack::Memory>",
   "name" : "const std::shared_ptr<unwindstack::Memory>",
   "referenced_type" : "type-953",
   "self_type" : "type-952",
   "size" : 8,
   "source_file" : "/system/core/libunwindstack/include/unwindstack/Memory.h"
  },
  {
   "alignment" : 4,
   "is_const" : true,
   "linker_set_key" : "const std::unordered_map<unsigned long long, unwindstack::LoadInfo, std::hash<unsigned long long>, std::equal_to<unsigned long long>, std::allocator<std::pair<const unsigned long long, unwindstack::LoadInfo> > >",
   "name" : "const std::unordered_map<unsigned long long, unwindstack::LoadInfo, std::hash<unsigned long long>, std::equal_to<unsigned long long>, std::allocator<std::pair<const unsigned long long, unwindstack::LoadInfo> > >",
   "referenced_type" : "type-1009",
   "self_type" : "type-1008",
   "size" : 20,
   "source_file" : "/system/core/libunwindstack/include/unwindstack/ElfInterface.h"
  },
  {
   "alignment" : 4,
   "is_const" : true,
   "linker_set_key" : "const std::unordered_map<unsigned long long, unwindstack::LoadInfo, std::hash<unsigned long long>, std::equal_to<unsigned long long>, std::allocator<std::pair<const unsigned long long, unwindstack::LoadInfo> > >",
   "name" : "const std::unordered_map<unsigned long long, unwindstack::LoadInfo, std::hash<unsigned long long>, std::equal_to<unsigned long long>, std::allocator<std::pair<const unsigned long long, unwindstack::LoadInfo> > >",
   "referenced_type" : "type-1044",
   "self_type" : "type-1043",
   "size" : 20,
   "source_file" : "/system/core/libunwindstack/include/unwindstack/ElfInterface.h"
  },
  {
   "alignment" : 4,
   "is_const" : true,
   "linker_set_key" : "const std::unordered_map<unsigned long long, unwindstack::LoadInfo, std::hash<unsigned long long>, std::equal_to<unsigned long long>, std::allocator<std::pair<const unsigned long long, unwindstack::LoadInfo> > >",
   "name" : "const std::unordered_map<unsigned long long, unwindstack::LoadInfo, std::hash<unsigned long long>, std::equal_to<unsigned long long>, std::allocator<std::pair<const unsigned long long, unwindstack::LoadInfo> > >",
   "referenced_type" : "type-1066",
   "self_type" : "type-1065",
   "size" : 20,
   "source_file" : "/system/core/libunwindstack/include/unwindstack/ElfInterface.h"
  },
  {
   "alignment" : 4,
   "is_const" : true,
   "linker_set_key" : "const std::unordered_map<unsigned long long, unwindstack::LoadInfo, std::hash<unsigned long long>, std::equal_to<unsigned long long>, std::allocator<std::pair<const unsigned long long, unwindstack::LoadInfo> > >",
   "name" : "const std::unordered_map<unsigned long long, unwindstack::LoadInfo, std::hash<unsigned long long>, std::equal_to<unsigned long long>, std::allocator<std::pair<const unsigned long long, unwindstack::LoadInfo> > >",
   "referenced_type" : "type-1069",
   "self_type" : "type-1068",
   "size" : 20,
   "source_file" : "/system/core/libunwindstack/include/unwindstack/ElfInterface.h"
  },
  {
   "alignment" : 4,
   "is_const" : true,
   "linker_set_key" : "const std::unordered_map<unsigned long long, unwindstack::LoadInfo, std::hash<unsigned long long>, std::equal_to<unsigned long long>, std::allocator<std::pair<const unsigned long long, unwindstack::LoadInfo> > >",
   "name" : "const std::unordered_map<unsigned long long, unwindstack::LoadInfo, std::hash<unsigned long long>, std::equal_to<unsigned long long>, std::allocator<std::pair<const unsigned long long, unwindstack::LoadInfo> > >",
   "referenced_type" : "type-1084",
   "self_type" : "type-1083",
   "size" : 20,
   "source_file" : "/system/core/libunwindstack/include/unwindstack/ElfInterface.h"
  },
  {
   "alignment" : 4,
   "is_const" : true,
   "linker_set_key" : "const std::unordered_map<unsigned long long, unwindstack::LoadInfo, std::hash<unsigned long long>, std::equal_to<unsigned long long>, std::allocator<std::pair<const unsigned long long, unwindstack::LoadInfo> > >",
   "name" : "const std::unordered_map<unsigned long long, unwindstack::LoadInfo, std::hash<unsigned long long>, std::equal_to<unsigned long long>, std::allocator<std::pair<const unsigned long long, unwindstack::LoadInfo> > >",
   "referenced_type" : "type-1104",
   "self_type" : "type-1103",
   "size" : 20,
   "source_file" : "/system/core/libunwindstack/include/unwindstack/ElfInterface.h"
  },
  {
   "alignment" : 4,
   "is_const" : true,
   "linker_set_key" : "const std::unordered_map<unsigned long long, unwindstack::LoadInfo, std::hash<unsigned long long>, std::equal_to<unsigned long long>, std::allocator<std::pair<const unsigned long long, unwindstack::LoadInfo> > >",
   "name" : "const std::unordered_map<unsigned long long, unwindstack::LoadInfo, std::hash<unsigned long long>, std::equal_to<unsigned long long>, std::allocator<std::pair<const unsigned long long, unwindstack::LoadInfo> > >",
   "referenced_type" : "type-1118",
   "self_type" : "type-1117",
   "size" : 20,
   "source_file" : "/system/core/libunwindstack/include/unwindstack/ElfInterface.h"
  },
  {
   "alignment" : 4,
   "is_const" : true,
   "linker_set_key" : "const std::unordered_map<unsigned long long, unwindstack::LoadInfo, std::hash<unsigned long long>, std::equal_to<unsigned long long>, std::allocator<std::pair<const unsigned long long, unwindstack::LoadInfo> > >",
   "name" : "const std::unordered_map<unsigned long long, unwindstack::LoadInfo, std::hash<unsigned long long>, std::equal_to<unsigned long long>, std::allocator<std::pair<const unsigned long long, unwindstack::LoadInfo> > >",
   "referenced_type" : "type-1133",
   "self_type" : "type-1132",
   "size" : 20,
   "source_file" : "/system/core/libunwindstack/include/unwindstack/ElfInterface.h"
  },
  {
   "alignment" : 4,
   "is_const" : true,
   "linker_set_key" : "const std::unordered_map<unsigned long long, unwindstack::LoadInfo, std::hash<unsigned long long>, std::equal_to<unsigned long long>, std::allocator<std::pair<const unsigned long long, unwindstack::LoadInfo> > >",
   "name" : "const std::unordered_map<unsigned long long, unwindstack::LoadInfo, std::hash<unsigned long long>, std::equal_to<unsigned long long>, std::allocator<std::pair<const unsigned long long, unwindstack::LoadInfo> > >",
   "referenced_type" : "type-1146",
   "self_type" : "type-1145",
   "size" : 20,
   "source_file" : "/system/core/libunwindstack/include/unwindstack/ElfInterface.h"
  },
  {
   "alignment" : 4,
   "is_const" : true,
   "linker_set_key" : "const std::unordered_map<unsigned long long, unwindstack::LoadInfo, std::hash<unsigned long long>, std::equal_to<unsigned long long>, std::allocator<std::pair<const unsigned long long, unwindstack::LoadInfo> > >",
   "name" : "const std::unordered_map<unsigned long long, unwindstack::LoadInfo, std::hash<unsigned long long>, std::equal_to<unsigned long long>, std::allocator<std::pair<const unsigned long long, unwindstack::LoadInfo> > >",
   "referenced_type" : "type-1158",
   "self_type" : "type-1157",
   "size" : 20,
   "source_file" : "/system/core/libunwindstack/include/unwindstack/ElfInterface.h"
  },
  {
   "alignment" : 4,
   "is_const" : true,
   "linker_set_key" : "const std::unordered_map<unsigned long long, unwindstack::LoadInfo, std::hash<unsigned long long>, std::equal_to<unsigned long long>, std::allocator<std::pair<const unsigned long long, unwindstack::LoadInfo> > >",
   "name" : "const std::unordered_map<unsigned long long, unwindstack::LoadInfo, std::hash<unsigned long long>, std::equal_to<unsigned long long>, std::allocator<std::pair<const unsigned long long, unwindstack::LoadInfo> > >",
   "referenced_type" : "type-1183",
   "self_type" : "type-1182",
   "size" : 20,
   "source_file" : "/system/core/libunwindstack/include/unwindstack/ElfInterface.h"
  },
  {
   "alignment" : 4,
   "is_const" : true,
   "linker_set_key" : "const std::unordered_map<unsigned long long, unwindstack::LoadInfo, std::hash<unsigned long long>, std::equal_to<unsigned long long>, std::allocator<std::pair<const unsigned long long, unwindstack::LoadInfo> > >",
   "name" : "const std::unordered_map<unsigned long long, unwindstack::LoadInfo, std::hash<unsigned long long>, std::equal_to<unsigned long long>, std::allocator<std::pair<const unsigned long long, unwindstack::LoadInfo> > >",
   "referenced_type" : "type-118",
   "self_type" : "type-117",
   "size" : 20,
   "source_file" : "/system/core/libunwindstack/include/unwindstack/ElfInterface.h"
  },
  {
   "alignment" : 4,
   "is_const" : true,
   "linker_set_key" : "const std::unordered_map<unsigned long long, unwindstack::LoadInfo, std::hash<unsigned long long>, std::equal_to<unsigned long long>, std::allocator<std::pair<const unsigned long long, unwindstack::LoadInfo> > >",
   "name" : "const std::unordered_map<unsigned long long, unwindstack::LoadInfo, std::hash<unsigned long long>, std::equal_to<unsigned long long>, std::allocator<std::pair<const unsigned long long, unwindstack::LoadInfo> > >",
   "referenced_type" : "type-1214",
   "self_type" : "type-1213",
   "size" : 20,
   "source_file" : "/system/core/libunwindstack/include/unwindstack/ElfInterface.h"
  },
  {
   "alignment" : 4,
   "is_const" : true,
   "linker_set_key" : "const std::unordered_map<unsigned long long, unwindstack::LoadInfo, std::hash<unsigned long long>, std::equal_to<unsigned long long>, std::allocator<std::pair<const unsigned long long, unwindstack::LoadInfo> > >",
   "name" : "const std::unordered_map<unsigned long long, unwindstack::LoadInfo, std::hash<unsigned long long>, std::equal_to<unsigned long long>, std::allocator<std::pair<const unsigned long long, unwindstack::LoadInfo> > >",
   "referenced_type" : "type-1231",
   "self_type" : "type-1230",
   "size" : 20,
   "source_file" : "/system/core/libunwindstack/include/unwindstack/ElfInterface.h"
  },
  {
   "alignment" : 4,
   "is_const" : true,
   "linker_set_key" : "const std::unordered_map<unsigned long long, unwindstack::LoadInfo, std::hash<unsigned long long>, std::equal_to<unsigned long long>, std::allocator<std::pair<const unsigned long long, unwindstack::LoadInfo> > >",
   "name" : "const std::unordered_map<unsigned long long, unwindstack::LoadInfo, std::hash<unsigned long long>, std::equal_to<unsigned long long>, std::allocator<std::pair<const unsigned long long, unwindstack::LoadInfo> > >",
   "referenced_type" : "type-1254",
   "self_type" : "type-1253",
   "size" : 20,
   "source_file" : "/system/core/libunwindstack/include/unwindstack/ElfInterface.h"
  },
  {
   "alignment" : 4,
   "is_const" : true,
   "linker_set_key" : "const std::unordered_map<unsigned long long, unwindstack::LoadInfo, std::hash<unsigned long long>, std::equal_to<unsigned long long>, std::allocator<std::pair<const unsigned long long, unwindstack::LoadInfo> > >",
   "name" : "const std::unordered_map<unsigned long long, unwindstack::LoadInfo, std::hash<unsigned long long>, std::equal_to<unsigned long long>, std::allocator<std::pair<const unsigned long long, unwindstack::LoadInfo> > >",
   "referenced_type" : "type-1266",
   "self_type" : "type-1265",
   "size" : 20,
   "source_file" : "/system/core/libunwindstack/include/unwindstack/ElfInterface.h"
  },
  {
   "alignment" : 4,
   "is_const" : true,
   "linker_set_key" : "const std::unordered_map<unsigned long long, unwindstack::LoadInfo, std::hash<unsigned long long>, std::equal_to<unsigned long long>, std::allocator<std::pair<const unsigned long long, unwindstack::LoadInfo> > >",
   "name" : "const std::unordered_map<unsigned long long, unwindstack::LoadInfo, std::hash<unsigned long long>, std::equal_to<unsigned long long>, std::allocator<std::pair<const unsigned long long, unwindstack::LoadInfo> > >",
   "referenced_type" : "type-1287",
   "self_type" : "type-1286",
   "size" : 20,
   "source_file" : "/system/core/libunwindstack/include/unwindstack/ElfInterface.h"
  },
  {
   "alignment" : 4,
   "is_const" : true,
   "linker_set_key" : "const std::unordered_map<unsigned long long, unwindstack::LoadInfo, std::hash<unsigned long long>, std::equal_to<unsigned long long>, std::allocator<std::pair<const unsigned long long, unwindstack::LoadInfo> > >",
   "name" : "const std::unordered_map<unsigned long long, unwindstack::LoadInfo, std::hash<unsigned long long>, std::equal_to<unsigned long long>, std::allocator<std::pair<const unsigned long long, unwindstack::LoadInfo> > >",
   "referenced_type" : "type-1321",
   "self_type" : "type-1320",
   "size" : 20,
   "source_file" : "/system/core/libunwindstack/include/unwindstack/ElfInterface.h"
  },
  {
   "alignment" : 4,
   "is_const" : true,
   "linker_set_key" : "const std::unordered_map<unsigned long long, unwindstack::LoadInfo, std::hash<unsigned long long>, std::equal_to<unsigned long long>, std::allocator<std::pair<const unsigned long long, unwindstack::LoadInfo> > >",
   "name" : "const std::unordered_map<unsigned long long, unwindstack::LoadInfo, std::hash<unsigned long long>, std::equal_to<unsigned long long>, std::allocator<std::pair<const unsigned long long, unwindstack::LoadInfo> > >",
   "referenced_type" : "type-1338",
   "self_type" : "type-1337",
   "size" : 20,
   "source_file" : "/system/core/libunwindstack/include/unwindstack/ElfInterface.h"
  },
  {
   "alignment" : 4,
   "is_const" : true,
   "linker_set_key" : "const std::unordered_map<unsigned long long, unwindstack::LoadInfo, std::hash<unsigned long long>, std::equal_to<unsigned long long>, std::allocator<std::pair<const unsigned long long, unwindstack::LoadInfo> > >",
   "name" : "const std::unordered_map<unsigned long long, unwindstack::LoadInfo, std::hash<unsigned long long>, std::equal_to<unsigned long long>, std::allocator<std::pair<const unsigned long long, unwindstack::LoadInfo> > >",
   "referenced_type" : "type-1355",
   "self_type" : "type-1354",
   "size" : 20,
   "source_file" : "/system/core/libunwindstack/include/unwindstack/ElfInterface.h"
  },
  {
   "alignment" : 4,
   "is_const" : true,
   "linker_set_key" : "const std::unordered_map<unsigned long long, unwindstack::LoadInfo, std::hash<unsigned long long>, std::equal_to<unsigned long long>, std::allocator<std::pair<const unsigned long long, unwindstack::LoadInfo> > >",
   "name" : "const std::unordered_map<unsigned long long, unwindstack::LoadInfo, std::hash<unsigned long long>, std::equal_to<unsigned long long>, std::allocator<std::pair<const unsigned long long, unwindstack::LoadInfo> > >",
   "referenced_type" : "type-1372",
   "self_type" : "type-1371",
   "size" : 20,
   "source_file" : "/system/core/libunwindstack/include/unwindstack/ElfInterface.h"
  },
  {
   "alignment" : 4,
   "is_const" : true,
   "linker_set_key" : "const std::unordered_map<unsigned long long, unwindstack::LoadInfo, std::hash<unsigned long long>, std::equal_to<unsigned long long>, std::allocator<std::pair<const unsigned long long, unwindstack::LoadInfo> > >",
   "name" : "const std::unordered_map<unsigned long long, unwindstack::LoadInfo, std::hash<unsigned long long>, std::equal_to<unsigned long long>, std::allocator<std::pair<const unsigned long long, unwindstack::LoadInfo> > >",
   "referenced_type" : "type-145",
   "self_type" : "type-144",
   "size" : 20,
   "source_file" : "/system/core/libunwindstack/include/unwindstack/ElfInterface.h"
  },
  {
   "alignment" : 4,
   "is_const" : true,
   "linker_set_key" : "const std::unordered_map<unsigned long long, unwindstack::LoadInfo, std::hash<unsigned long long>, std::equal_to<unsigned long long>, std::allocator<std::pair<const unsigned long long, unwindstack::LoadInfo> > >",
   "name" : "const std::unordered_map<unsigned long long, unwindstack::LoadInfo, std::hash<unsigned long long>, std::equal_to<unsigned long long>, std::allocator<std::pair<const unsigned long long, unwindstack::LoadInfo> > >",
   "referenced_type" : "type-201",
   "self_type" : "type-200",
   "size" : 20,
   "source_file" : "/system/core/libunwindstack/include/unwindstack/ElfInterface.h"
  },
  {
   "alignment" : 4,
   "is_const" : true,
   "linker_set_key" : "const std::unordered_map<unsigned long long, unwindstack::LoadInfo, std::hash<unsigned long long>, std::equal_to<unsigned long long>, std::allocator<std::pair<const unsigned long long, unwindstack::LoadInfo> > >",
   "name" : "const std::unordered_map<unsigned long long, unwindstack::LoadInfo, std::hash<unsigned long long>, std::equal_to<unsigned long long>, std::allocator<std::pair<const unsigned long long, unwindstack::LoadInfo> > >",
   "referenced_type" : "type-230",
   "self_type" : "type-229",
   "size" : 20,
   "source_file" : "/system/core/libunwindstack/include/unwindstack/ElfInterface.h"
  },
  {
   "alignment" : 4,
   "is_const" : true,
   "linker_set_key" : "const std::unordered_map<unsigned long long, unwindstack::LoadInfo, std::hash<unsigned long long>, std::equal_to<unsigned long long>, std::allocator<std::pair<const unsigned long long, unwindstack::LoadInfo> > >",
   "name" : "const std::unordered_map<unsigned long long, unwindstack::LoadInfo, std::hash<unsigned long long>, std::equal_to<unsigned long long>, std::allocator<std::pair<const unsigned long long, unwindstack::LoadInfo> > >",
   "referenced_type" : "type-249",
   "self_type" : "type-248",
   "size" : 20,
   "source_file" : "/system/core/libunwindstack/include/unwindstack/ElfInterface.h"
  },
  {
   "alignment" : 4,
   "is_const" : true,
   "linker_set_key" : "const std::unordered_map<unsigned long long, unwindstack::LoadInfo, std::hash<unsigned long long>, std::equal_to<unsigned long long>, std::allocator<std::pair<const unsigned long long, unwindstack::LoadInfo> > >",
   "name" : "const std::unordered_map<unsigned long long, unwindstack::LoadInfo, std::hash<unsigned long long>, std::equal_to<unsigned long long>, std::allocator<std::pair<const unsigned long long, unwindstack::LoadInfo> > >",
   "referenced_type" : "type-270",
   "self_type" : "type-269",
   "size" : 20,
   "source_file" : "/system/core/libunwindstack/include/unwindstack/ElfInterface.h"
  },
  {
   "alignment" : 4,
   "is_const" : true,
   "linker_set_key" : "const std::unordered_map<unsigned long long, unwindstack::LoadInfo, std::hash<unsigned long long>, std::equal_to<unsigned long long>, std::allocator<std::pair<const unsigned long long, unwindstack::LoadInfo> > >",
   "name" : "const std::unordered_map<unsigned long long, unwindstack::LoadInfo, std::hash<unsigned long long>, std::equal_to<unsigned long long>, std::allocator<std::pair<const unsigned long long, unwindstack::LoadInfo> > >",
   "referenced_type" : "type-28",
   "self_type" : "type-27",
   "size" : 20,
   "source_file" : "/system/core/libunwindstack/include/unwindstack/ElfInterface.h"
  },
  {
   "alignment" : 4,
   "is_const" : true,
   "linker_set_key" : "const std::unordered_map<unsigned long long, unwindstack::LoadInfo, std::hash<unsigned long long>, std::equal_to<unsigned long long>, std::allocator<std::pair<const unsigned long long, unwindstack::LoadInfo> > >",
   "name" : "const std::unordered_map<unsigned long long, unwindstack::LoadInfo, std::hash<unsigned long long>, std::equal_to<unsigned long long>, std::allocator<std::pair<const unsigned long long, unwindstack::LoadInfo> > >",
   "referenced_type" : "type-341",
   "self_type" : "type-340",
   "size" : 20,
   "source_file" : "/system/core/libunwindstack/include/unwindstack/ElfInterface.h"
  },
  {
   "alignment" : 4,
   "is_const" : true,
   "linker_set_key" : "const std::unordered_map<unsigned long long, unwindstack::LoadInfo, std::hash<unsigned long long>, std::equal_to<unsigned long long>, std::allocator<std::pair<const unsigned long long, unwindstack::LoadInfo> > >",
   "name" : "const std::unordered_map<unsigned long long, unwindstack::LoadInfo, std::hash<unsigned long long>, std::equal_to<unsigned long long>, std::allocator<std::pair<const unsigned long long, unwindstack::LoadInfo> > >",
   "referenced_type" : "type-358",
   "self_type" : "type-357",
   "size" : 20,
   "source_file" : "/system/core/libunwindstack/include/unwindstack/ElfInterface.h"
  },
  {
   "alignment" : 4,
   "is_const" : true,
   "linker_set_key" : "const std::unordered_map<unsigned long long, unwindstack::LoadInfo, std::hash<unsigned long long>, std::equal_to<unsigned long long>, std::allocator<std::pair<const unsigned long long, unwindstack::LoadInfo> > >",
   "name" : "const std::unordered_map<unsigned long long, unwindstack::LoadInfo, std::hash<unsigned long long>, std::equal_to<unsigned long long>, std::allocator<std::pair<const unsigned long long, unwindstack::LoadInfo> > >",
   "referenced_type" : "type-372",
   "self_type" : "type-371",
   "size" : 20,
   "source_file" : "/system/core/libunwindstack/include/unwindstack/ElfInterface.h"
  },
  {
   "alignment" : 4,
   "is_const" : true,
   "linker_set_key" : "const std::unordered_map<unsigned long long, unwindstack::LoadInfo, std::hash<unsigned long long>, std::equal_to<unsigned long long>, std::allocator<std::pair<const unsigned long long, unwindstack::LoadInfo> > >",
   "name" : "const std::unordered_map<unsigned long long, unwindstack::LoadInfo, std::hash<unsigned long long>, std::equal_to<unsigned long long>, std::allocator<std::pair<const unsigned long long, unwindstack::LoadInfo> > >",
   "referenced_type" : "type-379",
   "self_type" : "type-378",
   "size" : 20,
   "source_file" : "/system/core/libunwindstack/include/unwindstack/ElfInterface.h"
  },
  {
   "alignment" : 4,
   "is_const" : true,
   "linker_set_key" : "const std::unordered_map<unsigned long long, unwindstack::LoadInfo, std::hash<unsigned long long>, std::equal_to<unsigned long long>, std::allocator<std::pair<const unsigned long long, unwindstack::LoadInfo> > >",
   "name" : "const std::unordered_map<unsigned long long, unwindstack::LoadInfo, std::hash<unsigned long long>, std::equal_to<unsigned long long>, std::allocator<std::pair<const unsigned long long, unwindstack::LoadInfo> > >",
   "referenced_type" : "type-421",
   "self_type" : "type-420",
   "size" : 20,
   "source_file" : "/system/core/libunwindstack/include/unwindstack/ElfInterface.h"
  },
  {
   "alignment" : 4,
   "is_const" : true,
   "linker_set_key" : "const std::unordered_map<unsigned long long, unwindstack::LoadInfo, std::hash<unsigned long long>, std::equal_to<unsigned long long>, std::allocator<std::pair<const unsigned long long, unwindstack::LoadInfo> > >",
   "name" : "const std::unordered_map<unsigned long long, unwindstack::LoadInfo, std::hash<unsigned long long>, std::equal_to<unsigned long long>, std::allocator<std::pair<const unsigned long long, unwindstack::LoadInfo> > >",
   "referenced_type" : "type-436",
   "self_type" : "type-435",
   "size" : 20,
   "source_file" : "/system/core/libunwindstack/include/unwindstack/ElfInterface.h"
  },
  {
   "alignment" : 4,
   "is_const" : true,
   "linker_set_key" : "const std::unordered_map<unsigned long long, unwindstack::LoadInfo, std::hash<unsigned long long>, std::equal_to<unsigned long long>, std::allocator<std::pair<const unsigned long long, unwindstack::LoadInfo> > >",
   "name" : "const std::unordered_map<unsigned long long, unwindstack::LoadInfo, std::hash<unsigned long long>, std::equal_to<unsigned long long>, std::allocator<std::pair<const unsigned long long, unwindstack::LoadInfo> > >",
   "referenced_type" : "type-459",
   "self_type" : "type-458",
   "size" : 20,
   "source_file" : "/system/core/libunwindstack/include/unwindstack/ElfInterface.h"
  },
  {
   "alignment" : 4,
   "is_const" : true,
   "linker_set_key" : "const std::unordered_map<unsigned long long, unwindstack::LoadInfo, std::hash<unsigned long long>, std::equal_to<unsigned long long>, std::allocator<std::pair<const unsigned long long, unwindstack::LoadInfo> > >",
   "name" : "const std::unordered_map<unsigned long long, unwindstack::LoadInfo, std::hash<unsigned long long>, std::equal_to<unsigned long long>, std::allocator<std::pair<const unsigned long long, unwindstack::LoadInfo> > >",
   "referenced_type" : "type-494",
   "self_type" : "type-493",
   "size" : 20,
   "source_file" : "/system/core/libunwindstack/include/unwindstack/ElfInterface.h"
  },
  {
   "alignment" : 4,
   "is_const" : true,
   "linker_set_key" : "const std::unordered_map<unsigned long long, unwindstack::LoadInfo, std::hash<unsigned long long>, std::equal_to<unsigned long long>, std::allocator<std::pair<const unsigned long long, unwindstack::LoadInfo> > >",
   "name" : "const std::unordered_map<unsigned long long, unwindstack::LoadInfo, std::hash<unsigned long long>, std::equal_to<unsigned long long>, std::allocator<std::pair<const unsigned long long, unwindstack::LoadInfo> > >",
   "referenced_type" : "type-512",
   "self_type" : "type-511",
   "size" : 20,
   "source_file" : "/system/core/libunwindstack/include/unwindstack/ElfInterface.h"
  },
  {
   "alignment" : 4,
   "is_const" : true,
   "linker_set_key" : "const std::unordered_map<unsigned long long, unwindstack::LoadInfo, std::hash<unsigned long long>, std::equal_to<unsigned long long>, std::allocator<std::pair<const unsigned long long, unwindstack::LoadInfo> > >",
   "name" : "const std::unordered_map<unsigned long long, unwindstack::LoadInfo, std::hash<unsigned long long>, std::equal_to<unsigned long long>, std::allocator<std::pair<const unsigned long long, unwindstack::LoadInfo> > >",
   "referenced_type" : "type-529",
   "self_type" : "type-528",
   "size" : 20,
   "source_file" : "/system/core/libunwindstack/include/unwindstack/ElfInterface.h"
  },
  {
   "alignment" : 4,
   "is_const" : true,
   "linker_set_key" : "const std::unordered_map<unsigned long long, unwindstack::LoadInfo, std::hash<unsigned long long>, std::equal_to<unsigned long long>, std::allocator<std::pair<const unsigned long long, unwindstack::LoadInfo> > >",
   "name" : "const std::unordered_map<unsigned long long, unwindstack::LoadInfo, std::hash<unsigned long long>, std::equal_to<unsigned long long>, std::allocator<std::pair<const unsigned long long, unwindstack::LoadInfo> > >",
   "referenced_type" : "type-547",
   "self_type" : "type-546",
   "size" : 20,
   "source_file" : "/system/core/libunwindstack/include/unwindstack/ElfInterface.h"
  },
  {
   "alignment" : 4,
   "is_const" : true,
   "linker_set_key" : "const std::unordered_map<unsigned long long, unwindstack::LoadInfo, std::hash<unsigned long long>, std::equal_to<unsigned long long>, std::allocator<std::pair<const unsigned long long, unwindstack::LoadInfo> > >",
   "name" : "const std::unordered_map<unsigned long long, unwindstack::LoadInfo, std::hash<unsigned long long>, std::equal_to<unsigned long long>, std::allocator<std::pair<const unsigned long long, unwindstack::LoadInfo> > >",
   "referenced_type" : "type-584",
   "self_type" : "type-583",
   "size" : 20,
   "source_file" : "/system/core/libunwindstack/include/unwindstack/ElfInterface.h"
  },
  {
   "alignment" : 4,
   "is_const" : true,
   "linker_set_key" : "const std::unordered_map<unsigned long long, unwindstack::LoadInfo, std::hash<unsigned long long>, std::equal_to<unsigned long long>, std::allocator<std::pair<const unsigned long long, unwindstack::LoadInfo> > >",
   "name" : "const std::unordered_map<unsigned long long, unwindstack::LoadInfo, std::hash<unsigned long long>, std::equal_to<unsigned long long>, std::allocator<std::pair<const unsigned long long, unwindstack::LoadInfo> > >",
   "referenced_type" : "type-620",
   "self_type" : "type-619",
   "size" : 20,
   "source_file" : "/system/core/libunwindstack/include/unwindstack/ElfInterface.h"
  },
  {
   "alignment" : 4,
   "is_const" : true,
   "linker_set_key" : "const std::unordered_map<unsigned long long, unwindstack::LoadInfo, std::hash<unsigned long long>, std::equal_to<unsigned long long>, std::allocator<std::pair<const unsigned long long, unwindstack::LoadInfo> > >",
   "name" : "const std::unordered_map<unsigned long long, unwindstack::LoadInfo, std::hash<unsigned long long>, std::equal_to<unsigned long long>, std::allocator<std::pair<const unsigned long long, unwindstack::LoadInfo> > >",
   "referenced_type" : "type-638",
   "self_type" : "type-637",
   "size" : 20,
   "source_file" : "/system/core/libunwindstack/include/unwindstack/ElfInterface.h"
  },
  {
   "alignment" : 4,
   "is_const" : true,
   "linker_set_key" : "const std::unordered_map<unsigned long long, unwindstack::LoadInfo, std::hash<unsigned long long>, std::equal_to<unsigned long long>, std::allocator<std::pair<const unsigned long long, unwindstack::LoadInfo> > >",
   "name" : "const std::unordered_map<unsigned long long, unwindstack::LoadInfo, std::hash<unsigned long long>, std::equal_to<unsigned long long>, std::allocator<std::pair<const unsigned long long, unwindstack::LoadInfo> > >",
   "referenced_type" : "type-666",
   "self_type" : "type-665",
   "size" : 20,
   "source_file" : "/system/core/libunwindstack/include/unwindstack/ElfInterface.h"
  },
  {
   "alignment" : 4,
   "is_const" : true,
   "linker_set_key" : "const std::unordered_map<unsigned long long, unwindstack::LoadInfo, std::hash<unsigned long long>, std::equal_to<unsigned long long>, std::allocator<std::pair<const unsigned long long, unwindstack::LoadInfo> > >",
   "name" : "const std::unordered_map<unsigned long long, unwindstack::LoadInfo, std::hash<unsigned long long>, std::equal_to<unsigned long long>, std::allocator<std::pair<const unsigned long long, unwindstack::LoadInfo> > >",
   "referenced_type" : "type-679",
   "self_type" : "type-678",
   "size" : 20,
   "source_file" : "/system/core/libunwindstack/include/unwindstack/ElfInterface.h"
  },
  {
   "alignment" : 4,
   "is_const" : true,
   "linker_set_key" : "const std::unordered_map<unsigned long long, unwindstack::LoadInfo, std::hash<unsigned long long>, std::equal_to<unsigned long long>, std::allocator<std::pair<const unsigned long long, unwindstack::LoadInfo> > >",
   "name" : "const std::unordered_map<unsigned long long, unwindstack::LoadInfo, std::hash<unsigned long long>, std::equal_to<unsigned long long>, std::allocator<std::pair<const unsigned long long, unwindstack::LoadInfo> > >",
   "referenced_type" : "type-692",
   "self_type" : "type-691",
   "size" : 20,
   "source_file" : "/system/core/libunwindstack/include/unwindstack/ElfInterface.h"
  },
  {
   "alignment" : 4,
   "is_const" : true,
   "linker_set_key" : "const std::unordered_map<unsigned long long, unwindstack::LoadInfo, std::hash<unsigned long long>, std::equal_to<unsigned long long>, std::allocator<std::pair<const unsigned long long, unwindstack::LoadInfo> > >",
   "name" : "const std::unordered_map<unsigned long long, unwindstack::LoadInfo, std::hash<unsigned long long>, std::equal_to<unsigned long long>, std::allocator<std::pair<const unsigned long long, unwindstack::LoadInfo> > >",
   "referenced_type" : "type-696",
   "self_type" : "type-695",
   "size" : 20,
   "source_file" : "/system/core/libunwindstack/include/unwindstack/ElfInterface.h"
  },
  {
   "alignment" : 4,
   "is_const" : true,
   "linker_set_key" : "const std::unordered_map<unsigned long long, unwindstack::LoadInfo, std::hash<unsigned long long>, std::equal_to<unsigned long long>, std::allocator<std::pair<const unsigned long long, unwindstack::LoadInfo> > >",
   "name" : "const std::unordered_map<unsigned long long, unwindstack::LoadInfo, std::hash<unsigned long long>, std::equal_to<unsigned long long>, std::allocator<std::pair<const unsigned long long, unwindstack::LoadInfo> > >",
   "referenced_type" : "type-718",
   "self_type" : "type-717",
   "size" : 20,
   "source_file" : "/system/core/libunwindstack/include/unwindstack/ElfInterface.h"
  },
  {
   "alignment" : 4,
   "is_const" : true,
   "linker_set_key" : "const std::unordered_map<unsigned long long, unwindstack::LoadInfo, std::hash<unsigned long long>, std::equal_to<unsigned long long>, std::allocator<std::pair<const unsigned long long, unwindstack::LoadInfo> > >",
   "name" : "const std::unordered_map<unsigned long long, unwindstack::LoadInfo, std::hash<unsigned long long>, std::equal_to<unsigned long long>, std::allocator<std::pair<const unsigned long long, unwindstack::LoadInfo> > >",
   "referenced_type" : "type-738",
   "self_type" : "type-737",
   "size" : 20,
   "source_file" : "/system/core/libunwindstack/include/unwindstack/ElfInterface.h"
  },
  {
   "alignment" : 4,
   "is_const" : true,
   "linker_set_key" : "const std::unordered_map<unsigned long long, unwindstack::LoadInfo, std::hash<unsigned long long>, std::equal_to<unsigned long long>, std::allocator<std::pair<const unsigned long long, unwindstack::LoadInfo> > >",
   "name" : "const std::unordered_map<unsigned long long, unwindstack::LoadInfo, std::hash<unsigned long long>, std::equal_to<unsigned long long>, std::allocator<std::pair<const unsigned long long, unwindstack::LoadInfo> > >",
   "referenced_type" : "type-783",
   "self_type" : "type-782",
   "size" : 20,
   "source_file" : "/system/core/libunwindstack/include/unwindstack/ElfInterface.h"
  },
  {
   "alignment" : 4,
   "is_const" : true,
   "linker_set_key" : "const std::unordered_map<unsigned long long, unwindstack::LoadInfo, std::hash<unsigned long long>, std::equal_to<unsigned long long>, std::allocator<std::pair<const unsigned long long, unwindstack::LoadInfo> > >",
   "name" : "const std::unordered_map<unsigned long long, unwindstack::LoadInfo, std::hash<unsigned long long>, std::equal_to<unsigned long long>, std::allocator<std::pair<const unsigned long long, unwindstack::LoadInfo> > >",
   "referenced_type" : "type-817",
   "self_type" : "type-816",
   "size" : 20,
   "source_file" : "/system/core/libunwindstack/include/unwindstack/ElfInterface.h"
  },
  {
   "alignment" : 4,
   "is_const" : true,
   "linker_set_key" : "const std::unordered_map<unsigned long long, unwindstack::LoadInfo, std::hash<unsigned long long>, std::equal_to<unsigned long long>, std::allocator<std::pair<const unsigned long long, unwindstack::LoadInfo> > >",
   "name" : "const std::unordered_map<unsigned long long, unwindstack::LoadInfo, std::hash<unsigned long long>, std::equal_to<unsigned long long>, std::allocator<std::pair<const unsigned long long, unwindstack::LoadInfo> > >",
   "referenced_type" : "type-832",
   "self_type" : "type-831",
   "size" : 20,
   "source_file" : "/system/core/libunwindstack/include/unwindstack/ElfInterface.h"
  },
  {
   "alignment" : 4,
   "is_const" : true,
   "linker_set_key" : "const std::unordered_map<unsigned long long, unwindstack::LoadInfo, std::hash<unsigned long long>, std::equal_to<unsigned long long>, std::allocator<std::pair<const unsigned long long, unwindstack::LoadInfo> > >",
   "name" : "const std::unordered_map<unsigned long long, unwindstack::LoadInfo, std::hash<unsigned long long>, std::equal_to<unsigned long long>, std::allocator<std::pair<const unsigned long long, unwindstack::LoadInfo> > >",
   "referenced_type" : "type-855",
   "self_type" : "type-854",
   "size" : 20,
   "source_file" : "/system/core/libunwindstack/include/unwindstack/ElfInterface.h"
  },
  {
   "alignment" : 4,
   "is_const" : true,
   "linker_set_key" : "const std::unordered_map<unsigned long long, unwindstack::LoadInfo, std::hash<unsigned long long>, std::equal_to<unsigned long long>, std::allocator<std::pair<const unsigned long long, unwindstack::LoadInfo> > >",
   "name" : "const std::unordered_map<unsigned long long, unwindstack::LoadInfo, std::hash<unsigned long long>, std::equal_to<unsigned long long>, std::allocator<std::pair<const unsigned long long, unwindstack::LoadInfo> > >",
   "referenced_type" : "type-889",
   "self_type" : "type-888",
   "size" : 20,
   "source_file" : "/system/core/libunwindstack/include/unwindstack/ElfInterface.h"
  },
  {
   "alignment" : 4,
   "is_const" : true,
   "linker_set_key" : "const std::unordered_map<unsigned long long, unwindstack::LoadInfo, std::hash<unsigned long long>, std::equal_to<unsigned long long>, std::allocator<std::pair<const unsigned long long, unwindstack::LoadInfo> > >",
   "name" : "const std::unordered_map<unsigned long long, unwindstack::LoadInfo, std::hash<unsigned long long>, std::equal_to<unsigned long long>, std::allocator<std::pair<const unsigned long long, unwindstack::LoadInfo> > >",
   "referenced_type" : "type-906",
   "self_type" : "type-905",
   "size" : 20,
   "source_file" : "/system/core/libunwindstack/include/unwindstack/ElfInterface.h"
  },
  {
   "alignment" : 4,
   "is_const" : true,
   "linker_set_key" : "const std::unordered_map<unsigned long long, unwindstack::LoadInfo, std::hash<unsigned long long>, std::equal_to<unsigned long long>, std::allocator<std::pair<const unsigned long long, unwindstack::LoadInfo> > >",
   "name" : "const std::unordered_map<unsigned long long, unwindstack::LoadInfo, std::hash<unsigned long long>, std::equal_to<unsigned long long>, std::allocator<std::pair<const unsigned long long, unwindstack::LoadInfo> > >",
   "referenced_type" : "type-923",
   "self_type" : "type-922",
   "size" : 20,
   "source_file" : "/system/core/libunwindstack/include/unwindstack/ElfInterface.h"
  },
  {
   "alignment" : 4,
   "is_const" : true,
   "linker_set_key" : "const std::unordered_map<unsigned long long, unwindstack::LoadInfo, std::hash<unsigned long long>, std::equal_to<unsigned long long>, std::allocator<std::pair<const unsigned long long, unwindstack::LoadInfo> > >",
   "name" : "const std::unordered_map<unsigned long long, unwindstack::LoadInfo, std::hash<unsigned long long>, std::equal_to<unsigned long long>, std::allocator<std::pair<const unsigned long long, unwindstack::LoadInfo> > >",
   "referenced_type" : "type-941",
   "self_type" : "type-940",
   "size" : 20,
   "source_file" : "/system/core/libunwindstack/include/unwindstack/ElfInterface.h"
  },
  {
   "alignment" : 4,
   "is_const" : true,
   "linker_set_key" : "const std::unordered_map<unsigned long long, unwindstack::LoadInfo, std::hash<unsigned long long>, std::equal_to<unsigned long long>, std::allocator<std::pair<const unsigned long long, unwindstack::LoadInfo> > >",
   "name" : "const std::unordered_map<unsigned long long, unwindstack::LoadInfo, std::hash<unsigned long long>, std::equal_to<unsigned long long>, std::allocator<std::pair<const unsigned long long, unwindstack::LoadInfo> > >",
   "referenced_type" : "type-971",
   "self_type" : "type-970",
   "size" : 20,
   "source_file" : "/system/core/libunwindstack/include/unwindstack/ElfInterface.h"
  },
  {
   "alignment" : 4,
   "is_const" : true,
   "linker_set_key" : "const std::unordered_map<unsigned long long, unwindstack::LoadInfo, std::hash<unsigned long long>, std::equal_to<unsigned long long>, std::allocator<std::pair<const unsigned long long, unwindstack::LoadInfo> > >",
   "name" : "const std::unordered_map<unsigned long long, unwindstack::LoadInfo, std::hash<unsigned long long>, std::equal_to<unsigned long long>, std::allocator<std::pair<const unsigned long long, unwindstack::LoadInfo> > >",
   "referenced_type" : "type-97",
   "self_type" : "type-96",
   "size" : 20,
   "source_file" : "/system/core/libunwindstack/include/unwindstack/ElfInterface.h"
  },
  {
   "alignment" : 4,
   "is_const" : true,
   "linker_set_key" : "const std::unordered_map<unsigned long long, unwindstack::LoadInfo, std::hash<unsigned long long>, std::equal_to<unsigned long long>, std::allocator<std::pair<const unsigned long long, unwindstack::LoadInfo> > >",
   "name" : "const std::unordered_map<unsigned long long, unwindstack::LoadInfo, std::hash<unsigned long long>, std::equal_to<unsigned long long>, std::allocator<std::pair<const unsigned long long, unwindstack::LoadInfo> > >",
   "referenced_type" : "type-994",
   "self_type" : "type-993",
   "size" : 20,
   "source_file" : "/system/core/libunwindstack/include/unwindstack/ElfInterface.h"
  },
  {
   "alignment" : 4,
   "is_const" : true,
   "linker_set_key" : "const std::vector<std::basic_string<char, std::char_traits<char>, std::allocator<char> >, std::allocator<std::basic_string<char, std::char_traits<char>, std::allocator<char> > > >",
   "name" : "const std::vector<std::basic_string<char, std::char_traits<char>, std::allocator<char> >, std::allocator<std::basic_string<char, std::char_traits<char>, std::allocator<char> > > >",
   "referenced_type" : "type-1038",
   "self_type" : "type-1037",
   "size" : 12,
   "source_file" : "/system/core/libunwindstack/include/unwindstack/LocalUnwinder.h"
  },
  {
   "alignment" : 4,
   "is_const" : true,
   "linker_set_key" : "const std::vector<std::basic_string<char, std::char_traits<char>, std::allocator<char> >, std::allocator<std::basic_string<char, std::char_traits<char>, std::allocator<char> > > >",
   "name" : "const std::vector<std::basic_string<char, std::char_traits<char>, std::allocator<char> >, std::allocator<std::basic_string<char, std::char_traits<char>, std::allocator<char> > > >",
   "referenced_type" : "type-1170",
   "self_type" : "type-1169",
   "size" : 12,
   "source_file" : "/system/core/libunwindstack/include/unwindstack/Unwinder.h"
  },
  {
   "alignment" : 4,
   "is_const" : true,
   "linker_set_key" : "const std::vector<std::basic_string<char, std::char_traits<char>, std::allocator<char> >, std::allocator<std::basic_string<char, std::char_traits<char>, std::allocator<char> > > >",
   "name" : "const std::vector<std::basic_string<char, std::char_traits<char>, std::allocator<char> >, std::allocator<std::basic_string<char, std::char_traits<char>, std::allocator<char> > > >",
   "referenced_type" : "type-578",
   "self_type" : "type-577",
   "size" : 12,
   "source_file" : "/system/core/libunwindstack/include/unwindstack/LocalUnwinder.h"
  },
  {
   "alignment" : 4,
   "is_const" : true,
   "linker_set_key" : "const std::vector<std::basic_string<char, std::char_traits<char>, std::allocator<char> >, std::allocator<std::basic_string<char, std::char_traits<char>, std::allocator<char> > > >",
   "name" : "const std::vector<std::basic_string<char, std::char_traits<char>, std::allocator<char> >, std::allocator<std::basic_string<char, std::char_traits<char>, std::allocator<char> > > >",
   "referenced_type" : "type-767",
   "self_type" : "type-766",
   "size" : 12,
   "source_file" : "/system/core/libunwindstack/include/unwindstack/Unwinder.h"
  },
  {
   "alignment" : 4,
   "is_const" : true,
   "linker_set_key" : "const std::vector<std::basic_string<char, std::char_traits<char>, std::allocator<char> >, std::allocator<std::basic_string<char, std::char_traits<char>, std::allocator<char> > > >",
   "name" : "const std::vector<std::basic_string<char, std::char_traits<char>, std::allocator<char> >, std::allocator<std::basic_string<char, std::char_traits<char>, std::allocator<char> > > >",
   "referenced_type" : "type-965",
   "self_type" : "type-964",
   "size" : 12,
   "source_file" : "/system/core/libunwindstack/include/unwindstack/LocalUnwinder.h"
  },
  {
   "alignment" : 4,
   "is_const" : true,
   "linker_set_key" : "const std::vector<unwindstack::FrameData, std::allocator<unwindstack::FrameData> >",
   "name" : "const std::vector<unwindstack::FrameData, std::allocator<unwindstack::FrameData> >",
   "referenced_type" : "type-1174",
   "self_type" : "type-1173",
   "size" : 12,
   "source_file" : "/system/core/libunwindstack/include/unwindstack/Unwinder.h"
  },
  {
   "alignment" : 4,
   "is_const" : true,
   "linker_set_key" : "const std::vector<unwindstack::FrameData, std::allocator<unwindstack::FrameData> >",
   "name" : "const std::vector<unwindstack::FrameData, std::allocator<unwindstack::FrameData> >",
   "referenced_type" : "type-771",
   "self_type" : "type-770",
   "size" : 12,
   "source_file" : "/system/core/libunwindstack/include/unwindstack/Unwinder.h"
  },
  {
   "alignment" : 1,
   "is_const" : true,
   "linker_set_key" : "const unsigned char",
   "name" : "const unsigned char",
   "referenced_type" : "type-10",
   "self_type" : "type-239",
   "size" : 1,
   "source_file" : "/system/core/libunwindstack/include/unwindstack/Memory.h"
  },
  {
   "alignment" : 4,
   "is_const" : true,
   "linker_set_key" : "const unsigned int",
   "name" : "const unsigned int",
   "referenced_type" : "type-3",
   "self_type" : "type-133",
   "size" : 4,
   "source_file" : "/system/core/libunwindstack/include/unwindstack/Memory.h"
  },
  {
   "alignment" : 2,
   "is_const" : true,
   "linker_set_key" : "const unsigned short",
   "name" : "const unsigned short",
   "referenced_type" : "type-2",
   "self_type" : "type-281",
   "size" : 2,
   "source_file" : "/system/core/libunwindstack/include/unwindstack/DwarfStructs.h"
  },
  {
   "alignment" : 8,
   "is_const" : true,
   "linker_set_key" : "const unwindstack::DwarfCie",
   "name" : "const unwindstack::DwarfCie",
   "referenced_type" : "type-9",
   "self_type" : "type-8",
   "size" : 64,
   "source_file" : "/system/core/libunwindstack/include/unwindstack/DwarfLocation.h"
  },
  {
   "alignment" : 8,
   "is_const" : true,
   "linker_set_key" : "const unwindstack::DwarfFde",
   "name" : "const unwindstack::DwarfFde",
   "referenced_type" : "type-5",
   "self_type" : "type-4",
   "size" : 56,
   "source_file" : "/system/core/libunwindstack/include/unwindstack/DwarfSection.h"
  },
  {
   "alignment" : 4,
   "is_const" : true,
   "linker_set_key" : "const unwindstack::DwarfSection::iterator",
   "name" : "const unwindstack::DwarfSection::iterator",
   "referenced_type" : "type-283",
   "self_type" : "type-288",
   "size" : 16,
   "source_file" : "/system/core/libunwindstack/include/unwindstack/DwarfSection.h"
  },
  {
   "alignment" : 8,
   "is_const" : true,
   "linker_set_key" : "const unwindstack::ErrorData",
   "name" : "const unwindstack::ErrorData",
   "referenced_type" : "type-14",
   "self_type" : "type-30",
   "size" : 16,
   "source_file" : "/system/core/libunwindstack/include/unwindstack/ElfInterface.h"
  },
  {
   "alignment" : 4,
   "is_const" : true,
   "linker_set_key" : "const unwindstack::FileMaps",
   "name" : "const unwindstack::FileMaps",
   "referenced_type" : "type-185",
   "self_type" : "type-189",
   "size" : 28,
   "source_file" : "/system/core/libunwindstack/include/unwindstack/Maps.h"
  },
  {
   "alignment" : 8,
   "is_const" : true,
   "linker_set_key" : "const unwindstack::FrameData",
   "name" : "const unwindstack::FrameData",
   "referenced_type" : "type-756",
   "self_type" : "type-772",
   "size" : 120,
   "source_file" : "/system/core/libunwindstack/include/unwindstack/Unwinder.h"
  },
  {
   "alignment" : 4,
   "is_const" : true,
   "linker_set_key" : "const unwindstack::LocalUpdatableMaps",
   "name" : "const unwindstack::LocalUpdatableMaps",
   "referenced_type" : "type-179",
   "self_type" : "type-265",
   "size" : 28,
   "source_file" : "/system/core/libunwindstack/include/unwindstack/Maps.h"
  },
  {
   "alignment" : 8,
   "is_const" : true,
   "linker_set_key" : "const unwindstack::MapInfo",
   "name" : "const unwindstack::MapInfo",
   "referenced_type" : "type-78",
   "self_type" : "type-77",
   "size" : 96,
   "source_file" : "/system/core/libunwindstack/include/unwindstack/Elf.h"
  },
  {
   "alignment" : 4,
   "is_const" : true,
   "linker_set_key" : "const unwindstack::Maps",
   "name" : "const unwindstack::Maps",
   "referenced_type" : "type-167",
   "self_type" : "type-173",
   "size" : 16,
   "source_file" : "/system/core/libunwindstack/include/unwindstack/Maps.h"
  },
  {
   "alignment" : 2,
   "is_const" : true,
   "linker_set_key" : "const unwindstack::Regs::Location",
   "name" : "const unwindstack::Regs::Location",
   "referenced_type" : "type-64",
   "self_type" : "type-103",
   "size" : 4,
   "source_file" : "/system/core/libunwindstack/include/unwindstack/Regs.h"
  },
  {
   "alignment" : 4,
   "is_const" : true,
   "linker_set_key" : "const unwindstack::RemoteMaps",
   "name" : "const unwindstack::RemoteMaps",
   "referenced_type" : "type-175",
   "self_type" : "type-263",
   "size" : 20,
   "source_file" : "/system/core/libunwindstack/include/unwindstack/Maps.h"
  }
 ],
 "record_types" :
 [
  {
   "alignment" : 4,
   "base_specifiers" :
   [
    {
     "referenced_type" : "type-167"
    }
   ],
   "fields" :
   [
    {
     "access" : "private",
     "field_name" : "buffer_",
     "field_offset" : 128,
     "referenced_type" : "type-93"
    }
   ],
   "linker_set_key" : "unwindstack::BufferMaps",
   "name" : "unwindstack::BufferMaps",
   "record_kind" : "class",
   "referenced_type" : "type-183",
   "self_type" : "type-183",
   "size" : 20,
   "source_file" : "/system/core/libunwindstack/include/unwindstack/Maps.h",
   "unique_id" : "_ZTSN11unwindstack10BufferMapsE",
   "vtable_components" :
   [
    {
     "kind" : "offset_to_top"
    },
    {
     "kind" : "rtti",
     "mangled_component_name" : "_ZTIN11unwindstack10BufferMapsE"
    },
    {
     "kind" : "complete_dtor_pointer",
     "mangled_component_name" : "_ZN11unwindstack10BufferMapsD1Ev"
    },
    {
     "kind" : "deleting_dtor_pointer",
     "mangled_component_name" : "_ZN11unwindstack10BufferMapsD0Ev"
    },
    {
     "mangled_component_name" : "_ZN11unwindstack10BufferMaps5ParseEv"
    },
    {
     "mangled_component_name" : "_ZNK11unwindstack4Maps11GetMapsFileEv"
    }
   ]
  },
  {
   "alignment" : 8,
   "base_specifiers" :
   [
    {
     "referenced_type" : "type-159"
    }
   ],
   "fields" :
   [
    {
     "access" : "private",
     "field_name" : "lock_",
     "field_offset" : 224,
     "referenced_type" : "type-749"
    },
    {
     "access" : "private",
     "field_name" : "initialized_",
     "field_offset" : 256,
     "referenced_type" : "type-72"
    },
    {
     "access" : "private",
     "field_name" : "files_",
     "field_offset" : 288,
     "referenced_type" : "type-750"
    },
    {
     "access" : "private",
     "field_name" : "entry_addr_",
     "field_offset" : 448,
     "referenced_type" : "type-6"
    },
    {
     "access" : "private",
     "field_name" : "read_entry_ptr_func_",
     "field_offset" : 512,
     "referenced_type" : "type-751"
    },
    {
     "access" : "private",
     "field_name" : "read_entry_func_",
     "field_offset" : 576,
     "referenced_type" : "type-752"
    },
    {
     "access" : "private",
     "field_name" : "addrs_",
     "field_offset" : 640,
     "referenced_type" : "type-753"
    }
   ],
   "linker_set_key" : "unwindstack::DexFiles",
   "name" : "unwindstack::DexFiles",
   "record_kind" : "class",
   "referenced_type" : "type-748",
   "self_type" : "type-748",
   "size" : 96,
   "source_file" : "/system/core/libunwindstack/include/unwindstack/DexFiles.h",
   "unique_id" : "_ZTSN11unwindstack8DexFilesE",
   "vtable_components" :
   [
    {
     "kind" : "offset_to_top"
    },
    {
     "kind" : "rtti",
     "mangled_component_name" : "_ZTIN11unwindstack8DexFilesE"
    },
    {
     "kind" : "complete_dtor_pointer",
     "mangled_component_name" : "_ZN11unwindstack8DexFilesD1Ev"
    },
    {
     "kind" : "deleting_dtor_pointer",
     "mangled_component_name" : "_ZN11unwindstack8DexFilesD0Ev"
    },
    {
     "mangled_component_name" : "_ZN11unwindstack8DexFiles16ReadVariableDataEy"
    },
    {
     "mangled_component_name" : "_ZN11unwindstack8DexFiles11ProcessArchEv"
    }
   ]
  },
  {
   "alignment" : 8,
   "fields" :
   [
    {
     "field_name" : "version",
     "referenced_type" : "type-10"
    },
    {
     "field_name" : "fde_address_encoding",
     "field_offset" : 8,
     "referenced_type" : "type-10"
    },
    {
     "field_name" : "lsda_encoding",
     "field_offset" : 16,
     "referenced_type" : "type-10"
    },
    {
     "field_name" : "segment_size",
     "field_offset" : 24,
     "referenced_type" : "type-10"
    },
    {
     "field_name" : "augmentation_string",
     "field_offset" : 32,
     "referenced_type" : "type-11"
    },
    {
     "field_name" : "personality_handler",
     "field_offset" : 128,
     "referenced_type" : "type-6"
    },
    {
     "field_name" : "cfa_instructions_offset",
     "field_offset" : 192,
     "referenced_type" : "type-6"
    },
    {
     "field_name" : "cfa_instructions_end",
     "field_offset" : 256,
     "referenced_type" : "type-6"
    },
    {
     "field_name" : "code_alignment_factor",
     "field_offset" : 320,
     "referenced_type" : "type-6"
    },
    {
     "field_name" : "data_alignment_factor",
     "field_offset" : 384,
     "referenced_type" : "type-12"
    },
    {
     "field_name" : "return_address_register",
     "field_offset" : 448,
     "referenced_type" : "type-6"
    }
   ],
   "linker_set_key" : "unwindstack::DwarfCie",
   "name" : "unwindstack::DwarfCie",
   "referenced_type" : "type-9",
   "self_type" : "type-9",
   "size" : 64,
   "source_file" : "/system/core/libunwindstack/include/unwindstack/DwarfStructs.h",
   "unique_id" : "_ZTSN11unwindstack8DwarfCieE"
  },
  {
   "alignment" : 8,
   "fields" :
   [
    {
     "field_name" : "code",
     "referenced_type" : "type-50"
    },
    {
     "field_name" : "address",
     "field_offset" : 64,
     "referenced_type" : "type-6"
    }
   ],
   "linker_set_key" : "unwindstack::DwarfErrorData",
   "name" : "unwindstack::DwarfErrorData",
   "referenced_type" : "type-49",
   "self_type" : "type-49",
   "size" : 16,
   "source_file" : "/system/core/libunwindstack/include/unwindstack/DwarfError.h",
   "unique_id" : "_ZTSN11unwindstack14DwarfErrorDataE"
  },
  {
   "alignment" : 8,
   "fields" :
   [
    {
     "field_name" : "cie_offset",
     "referenced_type" : "type-6"
    },
    {
     "field_name" : "cfa_instructions_offset",
     "field_offset" : 64,
     "referenced_type" : "type-6"
    },
    {
     "field_name" : "cfa_instructions_end",
     "field_offset" : 128,
     "referenced_type" : "type-6"
    },
    {
     "field_name" : "pc_start",
     "field_offset" : 192,
     "referenced_type" : "type-6"
    },
    {
     "field_name" : "pc_end",
     "field_offset" : 256,
     "referenced_type" : "type-6"
    },
    {
     "field_name" : "lsda_address",
     "field_offset" : 320,
     "referenced_type" : "type-6"
    },
    {
     "field_name" : "cie",
     "field_offset" : 384,
     "referenced_type" : "type-7"
    }
   ],
   "linker_set_key" : "unwindstack::DwarfFde",
   "name" : "unwindstack::DwarfFde",
   "referenced_type" : "type-5",
   "self_type" : "type-5",
   "size" : 56,
   "source_file" : "/system/core/libunwindstack/include/unwindstack/DwarfStructs.h",
   "unique_id" : "_ZTSN11unwindstack8DwarfFdeE"
  },
  {
   "alignment" : 8,
   "fields" :
   [
    {
     "field_name" : "type",
     "referenced_type" : "type-267"
    },
    {
     "field_name" : "values",
     "field_offset" : 64,
     "referenced_type" : "type-274"
    }
   ],
   "linker_set_key" : "unwindstack::DwarfLocation",
   "name" : "unwindstack::DwarfLocation",
   "referenced_type" : "type-273",
   "self_type" : "type-273",
   "size" : 24,
   "source_file" : "/system/core/libunwindstack/include/unwindstack/DwarfLocation.h",
   "unique_id" : "_ZTSN11unwindstack13DwarfLocationE"
  },
  {
   "alignment" : 8,
   "base_specifiers" :
   [
    {
     "referenced_type" : "type-279"
    }
   ],
   "fields" :
   [
    {
     "field_name" : "cie",
     "field_offset" : 160,
     "referenced_type" : "type-7"
    },
    {
     "field_name" : "pc_start",
     "field_offset" : 192,
     "referenced_type" : "type-6"
    },
    {
     "field_name" : "pc_end",
     "field_offset" : 256,
     "referenced_type" : "type-6"
    }
   ],
   "linker_set_key" : "unwindstack::DwarfLocations",
   "name" : "unwindstack::DwarfLocations",
   "referenced_type" : "type-278",
   "self_type" : "type-278",
   "size" : 40,
   "source_file" : "/system/core/libunwindstack/include/unwindstack/DwarfLocation.h",
   "unique_id" : "_ZTSN11unwindstack14DwarfLocationsE"
  },
  {
   "alignment" : 8,
   "fields" :
   [
    {
     "access" : "private",
     "field_name" : "memory_",
     "field_offset" : 32,
     "referenced_type" : "type-17"
    },
    {
     "access" : "private",
     "field_name" : "cur_offset_",
     "field_offset" : 64,
     "referenced_type" : "type-6"
    },
    {
     "access" : "private",
     "field_name" : "pc_offset_",
     "field_offset" : 128,
     "referenced_type" : "type-6"
    },
    {
     "access" : "private",
     "field_name" : "data_offset_",
     "field_offset" : 192,
     "referenced_type" : "type-6"
    },
    {
     "access" : "private",
     "field_name" : "func_offset_",
     "field_offset" : 256,
     "referenced_type" : "type-6"
    },
    {
     "access" : "private",
     "field_name" : "text_offset_",
     "field_offset" : 320,
     "referenced_type" : "type-6"
    }
   ],
   "linker_set_key" : "unwindstack::DwarfMemory",
   "name" : "unwindstack::DwarfMemory",
   "record_kind" : "class",
   "referenced_type" : "type-48",
   "self_type" : "type-48",
   "size" : 48,
   "source_file" : "/system/core/libunwindstack/include/unwindstack/DwarfMemory.h",
   "unique_id" : "_ZTSN11unwindstack11DwarfMemoryE",
   "vtable_components" :
   [
    {
     "kind" : "offset_to_top"
    },
    {
     "kind" : "rtti",
     "mangled_component_name" : "_ZTIN11unwindstack11DwarfMemoryE"
    },
    {
     "kind" : "complete_dtor_pointer",
     "mangled_component_name" : "_ZN11unwindstack11DwarfMemoryD1Ev"
    },
    {
     "kind" : "deleting_dtor_pointer",
     "mangled_component_name" : "_ZN11unwindstack11DwarfMemoryD0Ev"
    }
   ]
  },
  {
   "alignment" : 8,
   "fields" :
   [
    {
     "access" : "protected",
     "field_name" : "memory_",
     "field_offset" : 64,
     "referenced_type" : "type-48"
    },
    {
     "access" : "protected",
     "field_name" : "last_error_",
     "field_offset" : 448,
     "referenced_type" : "type-49"
    },
    {
     "access" : "protected",
     "field_name" : "cie32_value_",
     "field_offset" : 576,
     "referenced_type" : "type-3"
    },
    {
     "access" : "protected",
     "field_name" : "cie64_value_",
     "field_offset" : 640,
     "referenced_type" : "type-6"
    },
    {
     "access" : "protected",
     "field_name" : "fde_entries_",
     "field_offset" : 704,
     "referenced_type" : "type-51"
    },
    {
     "access" : "protected",
     "field_name" : "cie_entries_",
     "field_offset" : 864,
     "referenced_type" : "type-52"
    },
    {
     "access" : "protected",
     "field_name" : "cie_loc_regs_",
     "field_offset" : 1024,
     "referenced_type" : "type-53"
    },
    {
     "access" : "protected",
     "field_name" : "loc_regs_",
     "field_offset" : 1184,
     "referenced_type" : "type-54"
    }
   ],
   "linker_set_key" : "unwindstack::DwarfSection",
   "name" : "unwindstack::DwarfSection",
   "record_kind" : "class",
   "referenced_type" : "type-47",
   "self_type" : "type-47",
   "size" : 160,
   "source_file" : "/system/core/libunwindstack/include/unwindstack/DwarfSection.h",
   "unique_id" : "_ZTSN11unwindstack12DwarfSectionE",
   "vtable_components" :
   [
    {
     "kind" : "offset_to_top"
    },
    {
     "kind" : "rtti",
     "mangled_component_name" : "_ZTIN11unwindstack12DwarfSectionE"
    },
    {
     "kind" : "complete_dtor_pointer",
     "mangled_component_name" : "_ZN11unwindstack12DwarfSectionD1Ev"
    },
    {
     "kind" : "deleting_dtor_pointer",
     "mangled_component_name" : "_ZN11unwindstack12DwarfSectionD0Ev"
    },
    {
     "is_pure" : true,
     "mangled_component_name" : "_ZN11unwindstack12DwarfSection4InitEyyy"
    },
    {
     "is_pure" : true,
     "mangled_component_name" : "_ZN11unwindstack12DwarfSection4EvalEPKNS_8DwarfCieEPNS_6MemoryERKNS_14DwarfLocationsEPNS_4RegsEPb"
    },
    {
     "is_pure" : true,
     "mangled_component_name" : "_ZN11unwindstack12DwarfSection3LogEhyPKNS_8DwarfFdeE"
    },
    {
     "is_pure" : true,
     "mangled_component_name" : "_ZN11unwindstack12DwarfSection7GetFdesEPNSt3__16vectorIPKNS_8DwarfFdeENS1_9allocatorIS5_EEEE"
    },
    {
     "is_pure" : true,
     "mangled_component_name" : "_ZN11unwindstack12DwarfSection12GetFdeFromPcEy"
    },
    {
     "is_pure" : true,
     "mangled_component_name" : "_ZN11unwindstack12DwarfSection18GetCfaLocationInfoEyPKNS_8DwarfFdeEPNS_14DwarfLocationsE"
    },
    {
     "is_pure" : true,
     "mangled_component_name" : "_ZN11unwindstack12DwarfSection21GetCieOffsetFromFde32Ej"
    },
    {
     "is_pure" : true,
     "mangled_component_name" : "_ZN11unwindstack12DwarfSection21GetCieOffsetFromFde64Ey"
    },
    {
     "is_pure" : true,
     "mangled_component_name" : "_ZN11unwindstack12DwarfSection15AdjustPcFromFdeEy"
    }
   ]
  },
  {
   "alignment" : 4,
   "base_specifiers" :
   [
    {
     "referenced_type" : "type-285"
    }
   ],
   "fields" :
   [
    {
     "access" : "private",
     "field_name" : "fdes_",
     "referenced_type" : "type-284"
    },
    {
     "access" : "private",
     "field_name" : "index_",
     "field_offset" : 96,
     "referenced_type" : "type-3"
    }
   ],
   "linker_set_key" : "unwindstack::DwarfSection::iterator",
   "name" : "unwindstack::DwarfSection::iterator",
   "record_kind" : "class",
   "referenced_type" : "type-283",
   "self_type" : "type-283",
   "size" : 16,
   "source_file" : "/system/core/libunwindstack/include/unwindstack/DwarfSection.h",
   "unique_id" : "_ZTSN11unwindstack12DwarfSection8iteratorE"
  },
  {
   "alignment" : 8,
   "base_specifiers" :
   [
    {
     "referenced_type" : "type-47"
    }
   ],
   "fields" :
   [
    {
     "access" : "protected",
     "field_name" : "load_bias_",
     "field_offset" : 1280,
     "referenced_type" : "type-6"
    },
    {
     "access" : "protected",
     "field_name" : "entries_offset_",
     "field_offset" : 1344,
     "referenced_type" : "type-6"
    },
    {
     "access" : "protected",
     "field_name" : "entries_end_",
     "field_offset" : 1408,
     "referenced_type" : "type-6"
    },
    {
     "access" : "protected",
     "field_name" : "pc_offset_",
     "field_offset" : 1472,
     "referenced_type" : "type-6"
    }
   ],
   "linker_set_key" : "unwindstack::DwarfSectionImpl<unsigned int>",
   "name" : "unwindstack::DwarfSectionImpl<unsigned int>",
   "record_kind" : "class",
   "referenced_type" : "type-46",
   "self_type" : "type-46",
   "size" : 192,
   "source_file" : "/system/core/libunwindstack/include/unwindstack/DwarfSection.h",
   "template_args" : [ "type-3" ],
   "unique_id" : "_ZTSN11unwindstack16DwarfSectionImplIjEE",
   "vtable_components" :
   [
    {
     "kind" : "offset_to_top"
    },
    {
     "kind" : "rtti",
     "mangled_component_name" : "_ZTIN11unwindstack16DwarfSectionImplIjEE"
    },
    {
     "kind" : "complete_dtor_pointer",
     "mangled_component_name" : "_ZN11unwindstack16DwarfSectionImplIjED1Ev"
    },
    {
     "kind" : "deleting_dtor_pointer",
     "mangled_component_name" : "_ZN11unwindstack16DwarfSectionImplIjED0Ev"
    },
    {
     "is_pure" : true,
     "mangled_component_name" : "_ZN11unwindstack12DwarfSection4InitEyyy"
    },
    {
     "mangled_component_name" : "_ZN11unwindstack16DwarfSectionImplIjE4EvalEPKNS_8DwarfCieEPNS_6MemoryERKNS_14DwarfLocationsEPNS_4RegsEPb"
    },
    {
     "mangled_component_name" : "_ZN11unwindstack16DwarfSectionImplIjE3LogEhyPKNS_8DwarfFdeE"
    },
    {
     "is_pure" : true,
     "mangled_component_name" : "_ZN11unwindstack12DwarfSection7GetFdesEPNSt3__16vectorIPKNS_8DwarfFdeENS1_9allocatorIS5_EEEE"
    },
    {
     "is_pure" : true,
     "mangled_component_name" : "_ZN11unwindstack12DwarfSection12GetFdeFromPcEy"
    },
    {
     "mangled_component_name" : "_ZN11unwindstack16DwarfSectionImplIjE18GetCfaLocationInfoEyPKNS_8DwarfFdeEPNS_14DwarfLocationsE"
    },
    {
     "is_pure" : true,
     "mangled_component_name" : "_ZN11unwindstack12DwarfSection21GetCieOffsetFromFde32Ej"
    },
    {
     "is_pure" : true,
     "mangled_component_name" : "_ZN11unwindstack12DwarfSection21GetCieOffsetFromFde64Ey"
    },
    {
     "is_pure" : true,
     "mangled_component_name" : "_ZN11unwindstack12DwarfSection15AdjustPcFromFdeEy"
    }
   ]
  },
  {
   "alignment" : 8,
   "base_specifiers" :
   [
    {
     "referenced_type" : "type-47"
    }
   ],
   "fields" :
   [
    {
     "access" : "protected",
     "field_name" : "load_bias_",
     "field_offset" : 1280,
     "referenced_type" : "type-6"
    },
    {
     "access" : "protected",
     "field_name" : "entries_offset_",
     "field_offset" : 1344,
     "referenced_type" : "type-6"
    },
    {
     "access" : "protected",
     "field_name" : "entries_end_",
     "field_offset" : 1408,
     "referenced_type" : "type-6"
    },
    {
