{
 "array_types" :
 [
  {
   "alignment" : 4,
   "linker_set_key" : "_ZTIA0_i",
   "name" : "int [0]",
   "referenced_type" : "_ZTIi",
   "self_type" : "_ZTIA0_i",
   "source_file" : "/system/core/libcutils/include/cutils/native_handle.h"
  },
  {
   "alignment" : 1,
   "linker_set_key" : "_ZTIA14_h",
   "name" : "unsigned char [14]",
   "referenced_type" : "_ZTIh",
   "self_type" : "_ZTIA14_h",
   "size" : 14,
   "source_file" : "/system/libhidl/base/include/hidl/HidlSupport.h"
  },
  {
   "alignment" : 1,
   "linker_set_key" : "_ZTIA16_c",
   "name" : "char [16]",
   "referenced_type" : "_ZTIc",
   "self_type" : "_ZTIA16_c",
   "size" : 16,
   "source_file" : "/system/libhidl/transport/include/hidl/ConcurrentMap.h"
  },
  {
   "alignment" : 1,
   "linker_set_key" : "_ZTIA16_h",
   "name" : "unsigned char [16]",
   "referenced_type" : "_ZTIh",
   "self_type" : "_ZTIA16_h",
   "size" : 16,
   "source_file" : "/system/libhidl/base/include/hidl/HidlSupport.h"
  },
  {
   "alignment" : 1,
   "linker_set_key" : "_ZTIA2_a",
   "name" : "signed char [2]",
   "referenced_type" : "_ZTIa",
   "self_type" : "_ZTIA2_a",
   "size" : 2,
   "source_file" : "/system/libhidl/base/include/hidl/HidlSupport.h"
  },
  {
   "alignment" : 1,
   "linker_set_key" : "_ZTIA32_h",
   "name" : "unsigned char [32]",
   "referenced_type" : "_ZTIh",
   "self_type" : "_ZTIA32_h",
   "size" : 32,
   "source_file" : "/system/libhidl/base/include/hidl/HidlSupport.h"
  },
  {
   "alignment" : 1,
   "linker_set_key" : "_ZTIA3_h",
   "name" : "unsigned char [3]",
   "referenced_type" : "_ZTIh",
   "self_type" : "_ZTIA3_h",
   "size" : 3,
   "source_file" : "/system/libhidl/base/include/hidl/HidlSupport.h"
  },
  {
   "alignment" : 1,
   "linker_set_key" : "_ZTIA4_h",
   "name" : "unsigned char [4]",
   "referenced_type" : "_ZTIh",
   "self_type" : "_ZTIA4_h",
   "size" : 4,
   "source_file" : "/system/libhidl/base/include/hidl/HidlSupport.h"
  },
  {
   "alignment" : 1,
   "linker_set_key" : "_ZTIA5121_h",
   "name" : "unsigned char [5121]",
   "referenced_type" : "_ZTIh",
   "self_type" : "_ZTIA5121_h",
   "size" : 5121,
   "source_file" : "/system/core/liblog/include/log/log_read.h"
  },
  {
   "alignment" : 1,
   "linker_set_key" : "_ZTIA6_h",
   "name" : "unsigned char [6]",
   "referenced_type" : "_ZTIh",
   "self_type" : "_ZTIA6_h",
   "size" : 6,
   "source_file" : "/system/libhidl/base/include/hidl/HidlSupport.h"
  },
  {
   "alignment" : 1,
   "linker_set_key" : "_ZTIA7_h",
   "name" : "unsigned char [7]",
   "referenced_type" : "_ZTIh",
   "self_type" : "_ZTIA7_h",
   "size" : 7,
   "source_file" : "/system/libhidl/base/include/hidl/HidlSupport.h"
  },
  {
   "alignment" : 1,
   "linker_set_key" : "_ZTIA8_h",
   "name" : "unsigned char [8]",
   "referenced_type" : "_ZTIh",
   "self_type" : "_ZTIA8_h",
   "size" : 8,
   "source_file" : "/system/libhidl/base/include/hidl/HidlSupport.h"
  },
  {
   "alignment" : 4,
   "linker_set_key" : "_ZTIA8_j",
   "name" : "unsigned int [8]",
   "referenced_type" : "_ZTIj",
   "self_type" : "_ZTIA8_j",
   "size" : 32,
   "source_file" : "/system/core/libsystem/include/system/graphics.h"
  },
  {
   "linker_set_key" : "_ZTIA_f",
   "name" : "float []",
   "referenced_type" : "_ZTIf",
   "self_type" : "_ZTIA_f",
   "source_file" : "/system/core/libsystem/include/system/graphics.h"
  }
 ],
 "builtin_types" :
 [
  {
   "alignment" : 2,
   "is_integral" : true,
   "is_unsigned" : true,
   "linker_set_key" : "_ZTIDs",
   "name" : "char16_t",
   "referenced_type" : "_ZTIDs",
   "self_type" : "_ZTIDs",
   "size" : 2
  },
  {
   "alignment" : 1,
   "is_integral" : true,
   "linker_set_key" : "_ZTIa",
   "name" : "signed char",
   "referenced_type" : "_ZTIa",
   "self_type" : "_ZTIa",
   "size" : 1
  },
  {
   "alignment" : 1,
   "is_integral" : true,
   "is_unsigned" : true,
   "linker_set_key" : "_ZTIb",
   "name" : "bool",
   "referenced_type" : "_ZTIb",
   "self_type" : "_ZTIb",
   "size" : 1
  },
  {
   "alignment" : 1,
   "is_integral" : true,
   "is_unsigned" : true,
   "linker_set_key" : "_ZTIc",
   "name" : "char",
   "referenced_type" : "_ZTIc",
   "self_type" : "_ZTIc",
   "size" : 1
  },
  {
   "alignment" : 8,
   "linker_set_key" : "_ZTId",
   "name" : "double",
   "referenced_type" : "_ZTId",
   "self_type" : "_ZTId",
   "size" : 8
  },
  {
   "alignment" : 4,
   "linker_set_key" : "_ZTIf",
   "name" : "float",
   "referenced_type" : "_ZTIf",
   "self_type" : "_ZTIf",
   "size" : 4
  },
  {
   "alignment" : 1,
   "is_integral" : true,
   "is_unsigned" : true,
   "linker_set_key" : "_ZTIh",
   "name" : "unsigned char",
   "referenced_type" : "_ZTIh",
   "self_type" : "_ZTIh",
   "size" : 1
  },
  {
   "alignment" : 4,
   "is_integral" : true,
   "linker_set_key" : "_ZTIi",
   "name" : "int",
   "referenced_type" : "_ZTIi",
   "self_type" : "_ZTIi",
   "size" : 4
  },
  {
   "alignment" : 4,
   "is_integral" : true,
   "is_unsigned" : true,
   "linker_set_key" : "_ZTIj",
   "name" : "unsigned int",
   "referenced_type" : "_ZTIj",
   "self_type" : "_ZTIj",
   "size" : 4
  },
  {
   "alignment" : 4,
   "is_integral" : true,
   "linker_set_key" : "_ZTIl",
   "name" : "long",
   "referenced_type" : "_ZTIl",
   "self_type" : "_ZTIl",
   "size" : 4
  },
  {
   "alignment" : 4,
   "is_integral" : true,
   "is_unsigned" : true,
   "linker_set_key" : "_ZTIm",
   "name" : "unsigned long",
   "referenced_type" : "_ZTIm",
   "self_type" : "_ZTIm",
   "size" : 4
  },
  {
   "alignment" : 2,
   "is_integral" : true,
   "linker_set_key" : "_ZTIs",
   "name" : "short",
   "referenced_type" : "_ZTIs",
   "self_type" : "_ZTIs",
   "size" : 2
  },
  {
   "alignment" : 2,
   "is_integral" : true,
   "is_unsigned" : true,
   "linker_set_key" : "_ZTIt",
   "name" : "unsigned short",
   "referenced_type" : "_ZTIt",
   "self_type" : "_ZTIt",
   "size" : 2
  },
  {
   "linker_set_key" : "_ZTIv",
   "name" : "void",
   "referenced_type" : "_ZTIv",
   "self_type" : "_ZTIv"
  },
  {
   "alignment" : 8,
   "is_integral" : true,
   "linker_set_key" : "_ZTIx",
   "name" : "long long",
   "referenced_type" : "_ZTIx",
   "self_type" : "_ZTIx",
   "size" : 8
  },
  {
   "alignment" : 8,
   "is_integral" : true,
   "is_unsigned" : true,
   "linker_set_key" : "_ZTIy",
   "name" : "unsigned long long",
   "referenced_type" : "_ZTIy",
   "self_type" : "_ZTIy",
   "size" : 8
  }
 ],
 "elf_functions" :
 [
  {
   "binding" : "weak",
   "name" : "_ZN7android8hardware10fromBinderINS0_4wifi10supplicant4V1_016ISupplicantIfaceENS4_19BpHwSupplicantIfaceENS4_19BnHwSupplicantIfaceEEENS_2spIT_EERKNS8_INS0_7IBinderEEE"
  },
  {
   "binding" : "weak",
   "name" : "_ZN7android8hardware10fromBinderINS0_4wifi10supplicant4V1_127ISupplicantStaIfaceCallbackENS4_30BpHwSupplicantStaIfaceCallbackENS4_30BnHwSupplicantStaIfaceCallbackEEENS_2spIT_EERKNS8_INS0_7IBinderEEE"
  },
  {
   "name" : "_ZN7android8hardware4wifi10supplicant4V1_111ISupplicant10getServiceERKNSt3__112basic_stringIcNS5_11char_traitsIcEENS5_9allocatorIcEEEEb"
  },
  {
   "name" : "_ZN7android8hardware4wifi10supplicant4V1_111ISupplicant11linkToDeathERKNS_2spINS0_20hidl_death_recipientEEEy"
  },
  {
   "name" : "_ZN7android8hardware4wifi10supplicant4V1_111ISupplicant12getDebugInfoENSt3__18functionIFvRKNS_4hidl4base4V1_09DebugInfoEEEE"
  },
  {
   "name" : "_ZN7android8hardware4wifi10supplicant4V1_111ISupplicant12getHashChainENSt3__18functionIFvRKNS0_8hidl_vecINS0_10hidl_arrayIhLj32EJEEEEEEEE"
  },
  {
   "name" : "_ZN7android8hardware4wifi10supplicant4V1_111ISupplicant13tryGetServiceERKNSt3__112basic_stringIcNS5_11char_traitsIcEENS5_9allocatorIcEEEEb"
  },
  {
   "name" : "_ZN7android8hardware4wifi10supplicant4V1_111ISupplicant13unlinkToDeathERKNS_2spINS0_20hidl_death_recipientEEE"
  },
  {
   "name" : "_ZN7android8hardware4wifi10supplicant4V1_111ISupplicant14interfaceChainENSt3__18functionIFvRKNS0_8hidl_vecINS0_11hidl_stringEEEEEE"
  },
  {
   "name" : "_ZN7android8hardware4wifi10supplicant4V1_111ISupplicant17registerAsServiceERKNSt3__112basic_stringIcNS5_11char_traitsIcEENS5_9allocatorIcEEEE"
  },
  {
   "name" : "_ZN7android8hardware4wifi10supplicant4V1_111ISupplicant19interfaceDescriptorENSt3__18functionIFvRKNS0_11hidl_stringEEEE"
  },
  {
   "name" : "_ZN7android8hardware4wifi10supplicant4V1_111ISupplicant21notifySyspropsChangedEv"
  },
  {
   "name" : "_ZN7android8hardware4wifi10supplicant4V1_111ISupplicant21setHALInstrumentationEv"
  },
  {
   "name" : "_ZN7android8hardware4wifi10supplicant4V1_111ISupplicant24registerForNotificationsERKNSt3__112basic_stringIcNS5_11char_traitsIcEENS5_9allocatorIcEEEERKNS_2spINS_4hidl7manager4V1_020IServiceNotificationEEE"
  },
  {
   "name" : "_ZN7android8hardware4wifi10supplicant4V1_111ISupplicant4pingEv"
  },
  {
   "name" : "_ZN7android8hardware4wifi10supplicant4V1_111ISupplicant5debugERKNS0_11hidl_handleERKNS0_8hidl_vecINS0_11hidl_stringEEE"
  },
  {
   "name" : "_ZN7android8hardware4wifi10supplicant4V1_111ISupplicant8castFromERKNS_2spINS2_4V1_011ISupplicantEEEb"
  },
  {
   "name" : "_ZN7android8hardware4wifi10supplicant4V1_111ISupplicant8castFromERKNS_2spINS_4hidl4base4V1_05IBaseEEEb"
  },
  {
   "name" : "_ZN7android8hardware4wifi10supplicant4V1_111ISupplicant8castFromERKNS_2spIS4_EEb"
  },
  {
   "name" : "_ZN7android8hardware4wifi10supplicant4V1_112BsSupplicant13addOnewayTaskENSt3__18functionIFvvEEE"
  },
  {
   "name" : "_ZN7android8hardware4wifi10supplicant4V1_112BsSupplicantC1ENS_2spINS3_11ISupplicantEEE"
  },
  {
   "name" : "_ZN7android8hardware4wifi10supplicant4V1_112BsSupplicantC2ENS_2spINS3_11ISupplicantEEE"
  },
  {
   "name" : "_ZN7android8hardware4wifi10supplicant4V1_114BnHwSupplicant10onTransactEjRKNS0_6ParcelEPS5_jNSt3__18functionIFvRS5_EEE"
  },
  {
   "name" : "_ZN7android8hardware4wifi10supplicant4V1_114BnHwSupplicant12getDebugInfoENSt3__18functionIFvRKNS_4hidl4base4V1_09DebugInfoEEEE"
  },
  {
   "name" : "_ZN7android8hardware4wifi10supplicant4V1_114BnHwSupplicant15_hidl_terminateEPNS_4hidl4base4V1_08BnHwBaseERKNS0_6ParcelEPSA_NSt3__18functionIFvRSA_EEE"
  },
  {
   "name" : "_ZN7android8hardware4wifi10supplicant4V1_114BnHwSupplicant18_hidl_addInterfaceEPNS_4hidl4base4V1_08BnHwBaseERKNS0_6ParcelEPSA_NSt3__18functionIFvRSA_EEE"
  },
  {
   "name" : "_ZN7android8hardware4wifi10supplicant4V1_114BnHwSupplicant21_hidl_removeInterfaceEPNS_4hidl4base4V1_08BnHwBaseERKNS0_6ParcelEPSA_NSt3__18functionIFvRSA_EEE"
  },
  {
   "name" : "_ZN7android8hardware4wifi10supplicant4V1_114BnHwSupplicant4pingEv"
  },
  {
   "name" : "_ZN7android8hardware4wifi10supplicant4V1_114BnHwSupplicantC1ERKNS_2spINS3_11ISupplicantEEE"
  },
  {
   "name" : "_ZN7android8hardware4wifi10supplicant4V1_114BnHwSupplicantC2ERKNS_2spINS3_11ISupplicantEEE"
  },
  {
   "name" : "_ZN7android8hardware4wifi10supplicant4V1_114BnHwSupplicantD0Ev"
  },
  {
   "name" : "_ZN7android8hardware4wifi10supplicant4V1_114BnHwSupplicantD1Ev"
  },
  {
   "name" : "_ZN7android8hardware4wifi10supplicant4V1_114BnHwSupplicantD2Ev"
  },
  {
   "name" : "_ZN7android8hardware4wifi10supplicant4V1_114BpHwSupplicant11linkToDeathERKNS_2spINS0_20hidl_death_recipientEEEy"
  },
  {
   "name" : "_ZN7android8hardware4wifi10supplicant4V1_114BpHwSupplicant12addInterfaceERKNS2_4V1_011ISupplicant9IfaceInfoENSt3__18functionIFvRKNS5_16SupplicantStatusERKNS_2spINS5_16ISupplicantIfaceEEEEEE"
  },
  {
   "name" : "_ZN7android8hardware4wifi10supplicant4V1_114BpHwSupplicant12getDebugInfoENSt3__18functionIFvRKNS_4hidl4base4V1_09DebugInfoEEEE"
  },
  {
   "name" : "_ZN7android8hardware4wifi10supplicant4V1_114BpHwSupplicant12getHashChainENSt3__18functionIFvRKNS0_8hidl_vecINS0_10hidl_arrayIhLj32EJEEEEEEEE"
  },
  {
   "name" : "_ZN7android8hardware4wifi10supplicant4V1_114BpHwSupplicant12getInterfaceERKNS2_4V1_011ISupplicant9IfaceInfoENSt3__18functionIFvRKNS5_16SupplicantStatusERKNS_2spINS5_16ISupplicantIfaceEEEEEE"
  },
  {
   "name" : "_ZN7android8hardware4wifi10supplicant4V1_114BpHwSupplicant13getDebugLevelEv"
  },
  {
   "name" : "_ZN7android8hardware4wifi10supplicant4V1_114BpHwSupplicant13unlinkToDeathERKNS_2spINS0_20hidl_death_recipientEEE"
  },
  {
   "name" : "_ZN7android8hardware4wifi10supplicant4V1_114BpHwSupplicant14interfaceChainENSt3__18functionIFvRKNS0_8hidl_vecINS0_11hidl_stringEEEEEE"
  },
  {
   "name" : "_ZN7android8hardware4wifi10supplicant4V1_114BpHwSupplicant14listInterfacesENSt3__18functionIFvRKNS2_4V1_016SupplicantStatusERKNS0_8hidl_vecINS7_11ISupplicant9IfaceInfoEEEEEE"
  },
  {
   "name" : "_ZN7android8hardware4wifi10supplicant4V1_114BpHwSupplicant14setDebugParamsENS2_4V1_011ISupplicant10DebugLevelEbbNSt3__18functionIFvRKNS5_16SupplicantStatusEEEE"
  },
  {
   "name" : "_ZN7android8hardware4wifi10supplicant4V1_114BpHwSupplicant15_hidl_terminateEPNS0_10IInterfaceEPNS0_7details16HidlInstrumentorE"
  },
  {
   "name" : "_ZN7android8hardware4wifi10supplicant4V1_114BpHwSupplicant15onLastStrongRefEPKv"
  },
  {
   "name" : "_ZN7android8hardware4wifi10supplicant4V1_114BpHwSupplicant15removeInterfaceERKNS2_4V1_011ISupplicant9IfaceInfoENSt3__18functionIFvRKNS5_16SupplicantStatusEEEE"
  },
  {
   "name" : "_ZN7android8hardware4wifi10supplicant4V1_114BpHwSupplicant16registerCallbackERKNS_2spINS2_4V1_019ISupplicantCallbackEEENSt3__18functionIFvRKNS6_16SupplicantStatusEEEE"
  },
  {
   "name" : "_ZN7android8hardware4wifi10supplicant4V1_114BpHwSupplicant18_hidl_addInterfaceEPNS0_10IInterfaceEPNS0_7details16HidlInstrumentorERKNS2_4V1_011ISupplicant9IfaceInfoENSt3__18functionIFvRKNSA_16SupplicantStatusERKNS_2spINSA_16ISupplicantIfaceEEEEEE"
  },
  {
   "name" : "_ZN7android8hardware4wifi10supplicant4V1_114BpHwSupplicant19interfaceDescriptorENSt3__18functionIFvRKNS0_11hidl_stringEEEE"
  },
  {
   "name" : "_ZN7android8hardware4wifi10supplicant4V1_114BpHwSupplicant21_hidl_removeInterfaceEPNS0_10IInterfaceEPNS0_7details16HidlInstrumentorERKNS2_4V1_011ISupplicant9IfaceInfoENSt3__18functionIFvRKNSA_16SupplicantStatusEEEE"
  },
  {
   "name" : "_ZN7android8hardware4wifi10supplicant4V1_114BpHwSupplicant21notifySyspropsChangedEv"
  },
  {
   "name" : "_ZN7android8hardware4wifi10supplicant4V1_114BpHwSupplicant21setHALInstrumentationEv"
  },
  {
   "name" : "_ZN7android8hardware4wifi10supplicant4V1_114BpHwSupplicant22isDebugShowKeysEnabledEv"
  },
  {
   "name" : "_ZN7android8hardware4wifi10supplicant4V1_114BpHwSupplicant22setConcurrencyPriorityENS2_4V1_09IfaceTypeENSt3__18functionIFvRKNS5_16SupplicantStatusEEEE"
  },
  {
   "name" : "_ZN7android8hardware4wifi10supplicant4V1_114BpHwSupplicant27isDebugShowTimestampEnabledEv"
  },
  {
   "name" : "_ZN7android8hardware4wifi10supplicant4V1_114BpHwSupplicant4pingEv"
  },
  {
   "name" : "_ZN7android8hardware4wifi10supplicant4V1_114BpHwSupplicant5debugERKNS0_11hidl_handleERKNS0_8hidl_vecINS0_11hidl_stringEEE"
  },
  {
   "name" : "_ZN7android8hardware4wifi10supplicant4V1_114BpHwSupplicant9terminateEv"
  },
  {
   "name" : "_ZN7android8hardware4wifi10supplicant4V1_114BpHwSupplicantC1ERKNS_2spINS0_7IBinderEEE"
  },
  {
   "name" : "_ZN7android8hardware4wifi10supplicant4V1_114BpHwSupplicantC2ERKNS_2spINS0_7IBinderEEE"
  },
  {
   "name" : "_ZN7android8hardware4wifi10supplicant4V1_119ISupplicantStaIface10getServiceERKNSt3__112basic_stringIcNS5_11char_traitsIcEENS5_9allocatorIcEEEEb"
  },
  {
   "name" : "_ZN7android8hardware4wifi10supplicant4V1_119ISupplicantStaIface11linkToDeathERKNS_2spINS0_20hidl_death_recipientEEEy"
  },
  {
   "name" : "_ZN7android8hardware4wifi10supplicant4V1_119ISupplicantStaIface12getDebugInfoENSt3__18functionIFvRKNS_4hidl4base4V1_09DebugInfoEEEE"
  },
  {
   "name" : "_ZN7android8hardware4wifi10supplicant4V1_119ISupplicantStaIface12getHashChainENSt3__18functionIFvRKNS0_8hidl_vecINS0_10hidl_arrayIhLj32EJEEEEEEEE"
  },
  {
   "name" : "_ZN7android8hardware4wifi10supplicant4V1_119ISupplicantStaIface13tryGetServiceERKNSt3__112basic_stringIcNS5_11char_traitsIcEENS5_9allocatorIcEEEEb"
  },
  {
   "name" : "_ZN7android8hardware4wifi10supplicant4V1_119ISupplicantStaIface13unlinkToDeathERKNS_2spINS0_20hidl_death_recipientEEE"
  },
  {
   "name" : "_ZN7android8hardware4wifi10supplicant4V1_119ISupplicantStaIface14interfaceChainENSt3__18functionIFvRKNS0_8hidl_vecINS0_11hidl_stringEEEEEE"
  },
  {
   "name" : "_ZN7android8hardware4wifi10supplicant4V1_119ISupplicantStaIface17registerAsServiceERKNSt3__112basic_stringIcNS5_11char_traitsIcEENS5_9allocatorIcEEEE"
  },
  {
   "name" : "_ZN7android8hardware4wifi10supplicant4V1_119ISupplicantStaIface19interfaceDescriptorENSt3__18functionIFvRKNS0_11hidl_stringEEEE"
  },
  {
   "name" : "_ZN7android8hardware4wifi10supplicant4V1_119ISupplicantStaIface21notifySyspropsChangedEv"
  },
  {
   "name" : "_ZN7android8hardware4wifi10supplicant4V1_119ISupplicantStaIface21setHALInstrumentationEv"
  },
  {
   "name" : "_ZN7android8hardware4wifi10supplicant4V1_119ISupplicantStaIface24registerForNotificationsERKNSt3__112basic_stringIcNS5_11char_traitsIcEENS5_9allocatorIcEEEERKNS_2spINS_4hidl7manager4V1_020IServiceNotificationEEE"
  },
  {
   "name" : "_ZN7android8hardware4wifi10supplicant4V1_119ISupplicantStaIface4pingEv"
  },
  {
   "name" : "_ZN7android8hardware4wifi10supplicant4V1_119ISupplicantStaIface5debugERKNS0_11hidl_handleERKNS0_8hidl_vecINS0_11hidl_stringEEE"
  },
  {
   "name" : "_ZN7android8hardware4wifi10supplicant4V1_119ISupplicantStaIface8castFromERKNS_2spINS2_4V1_016ISupplicantIfaceEEEb"
  },
  {
   "name" : "_ZN7android8hardware4wifi10supplicant4V1_119ISupplicantStaIface8castFromERKNS_2spINS2_4V1_019ISupplicantStaIfaceEEEb"
  },
  {
   "name" : "_ZN7android8hardware4wifi10supplicant4V1_119ISupplicantStaIface8castFromERKNS_2spINS_4hidl4base4V1_05IBaseEEEb"
  },
  {
   "name" : "_ZN7android8hardware4wifi10supplicant4V1_119ISupplicantStaIface8castFromERKNS_2spIS4_EEb"
  },
  {
   "name" : "_ZN7android8hardware4wifi10supplicant4V1_120BsSupplicantStaIface13addOnewayTaskENSt3__18functionIFvvEEE"
  },
  {
   "name" : "_ZN7android8hardware4wifi10supplicant4V1_120BsSupplicantStaIfaceC1ENS_2spINS3_19ISupplicantStaIfaceEEE"
  },
  {
   "name" : "_ZN7android8hardware4wifi10supplicant4V1_120BsSupplicantStaIfaceC2ENS_2spINS3_19ISupplicantStaIfaceEEE"
  },
  {
   "name" : "_ZN7android8hardware4wifi10supplicant4V1_121ISupplicantStaNetwork10getServiceERKNSt3__112basic_stringIcNS5_11char_traitsIcEENS5_9allocatorIcEEEEb"
  },
  {
   "name" : "_ZN7android8hardware4wifi10supplicant4V1_121ISupplicantStaNetwork11linkToDeathERKNS_2spINS0_20hidl_death_recipientEEEy"
  },
  {
   "name" : "_ZN7android8hardware4wifi10supplicant4V1_121ISupplicantStaNetwork12getDebugInfoENSt3__18functionIFvRKNS_4hidl4base4V1_09DebugInfoEEEE"
  },
  {
   "name" : "_ZN7android8hardware4wifi10supplicant4V1_121ISupplicantStaNetwork12getHashChainENSt3__18functionIFvRKNS0_8hidl_vecINS0_10hidl_arrayIhLj32EJEEEEEEEE"
  },
  {
   "name" : "_ZN7android8hardware4wifi10supplicant4V1_121ISupplicantStaNetwork13tryGetServiceERKNSt3__112basic_stringIcNS5_11char_traitsIcEENS5_9allocatorIcEEEEb"
  },
  {
   "name" : "_ZN7android8hardware4wifi10supplicant4V1_121ISupplicantStaNetwork13unlinkToDeathERKNS_2spINS0_20hidl_death_recipientEEE"
  },
  {
   "name" : "_ZN7android8hardware4wifi10supplicant4V1_121ISupplicantStaNetwork14interfaceChainENSt3__18functionIFvRKNS0_8hidl_vecINS0_11hidl_stringEEEEEE"
  },
  {
   "name" : "_ZN7android8hardware4wifi10supplicant4V1_121ISupplicantStaNetwork17registerAsServiceERKNSt3__112basic_stringIcNS5_11char_traitsIcEENS5_9allocatorIcEEEE"
  },
  {
   "name" : "_ZN7android8hardware4wifi10supplicant4V1_121ISupplicantStaNetwork19interfaceDescriptorENSt3__18functionIFvRKNS0_11hidl_stringEEEE"
  },
  {
   "name" : "_ZN7android8hardware4wifi10supplicant4V1_121ISupplicantStaNetwork21notifySyspropsChangedEv"
  },
  {
   "name" : "_ZN7android8hardware4wifi10supplicant4V1_121ISupplicantStaNetwork21setHALInstrumentationEv"
  },
  {
   "name" : "_ZN7android8hardware4wifi10supplicant4V1_121ISupplicantStaNetwork24registerForNotificationsERKNSt3__112basic_stringIcNS5_11char_traitsIcEENS5_9allocatorIcEEEERKNS_2spINS_4hidl7manager4V1_020IServiceNotificationEEE"
  },
  {
   "name" : "_ZN7android8hardware4wifi10supplicant4V1_121ISupplicantStaNetwork4pingEv"
  },
  {
   "name" : "_ZN7android8hardware4wifi10supplicant4V1_121ISupplicantStaNetwork5debugERKNS0_11hidl_handleERKNS0_8hidl_vecINS0_11hidl_stringEEE"
  },
  {
   "name" : "_ZN7android8hardware4wifi10supplicant4V1_121ISupplicantStaNetwork8castFromERKNS_2spINS2_4V1_018ISupplicantNetworkEEEb"
  },
  {
   "name" : "_ZN7android8hardware4wifi10supplicant4V1_121ISupplicantStaNetwork8castFromERKNS_2spINS2_4V1_021ISupplicantStaNetworkEEEb"
  },
  {
   "name" : "_ZN7android8hardware4wifi10supplicant4V1_121ISupplicantStaNetwork8castFromERKNS_2spINS_4hidl4base4V1_05IBaseEEEb"
  },
  {
   "name" : "_ZN7android8hardware4wifi10supplicant4V1_121ISupplicantStaNetwork8castFromERKNS_2spIS4_EEb"
  },
  {
   "name" : "_ZN7android8hardware4wifi10supplicant4V1_122BnHwSupplicantStaIface10onTransactEjRKNS0_6ParcelEPS5_jNSt3__18functionIFvRS5_EEE"
  },
  {
   "name" : "_ZN7android8hardware4wifi10supplicant4V1_122BnHwSupplicantStaIface12getDebugInfoENSt3__18functionIFvRKNS_4hidl4base4V1_09DebugInfoEEEE"
  },
  {
   "name" : "_ZN7android8hardware4wifi10supplicant4V1_122BnHwSupplicantStaIface26_hidl_registerCallback_1_1EPNS_4hidl4base4V1_08BnHwBaseERKNS0_6ParcelEPSA_NSt3__18functionIFvRSA_EEE"
  },
  {
   "name" : "_ZN7android8hardware4wifi10supplicant4V1_122BnHwSupplicantStaIface4pingEv"
  },
  {
   "name" : "_ZN7android8hardware4wifi10supplicant4V1_122BnHwSupplicantStaIfaceC1ERKNS_2spINS3_19ISupplicantStaIfaceEEE"
  },
  {
   "name" : "_ZN7android8hardware4wifi10supplicant4V1_122BnHwSupplicantStaIfaceC2ERKNS_2spINS3_19ISupplicantStaIfaceEEE"
  },
  {
   "name" : "_ZN7android8hardware4wifi10supplicant4V1_122BnHwSupplicantStaIfaceD0Ev"
  },
  {
   "name" : "_ZN7android8hardware4wifi10supplicant4V1_122BnHwSupplicantStaIfaceD1Ev"
  },
  {
   "name" : "_ZN7android8hardware4wifi10supplicant4V1_122BnHwSupplicantStaIfaceD2Ev"
  },
  {
   "name" : "_ZN7android8hardware4wifi10supplicant4V1_122BpHwSupplicantStaIface10addNetworkENSt3__18functionIFvRKNS2_4V1_016SupplicantStatusERKNS_2spINS7_18ISupplicantNetworkEEEEEE"
  },
  {
   "name" : "_ZN7android8hardware4wifi10supplicant4V1_122BpHwSupplicantStaIface10disconnectENSt3__18functionIFvRKNS2_4V1_016SupplicantStatusEEEE"
  },
  {
   "name" : "_ZN7android8hardware4wifi10supplicant4V1_122BpHwSupplicantStaIface10getNetworkEjNSt3__18functionIFvRKNS2_4V1_016SupplicantStatusERKNS_2spINS7_18ISupplicantNetworkEEEEEE"
  },
  {
   "name" : "_ZN7android8hardware4wifi10supplicant4V1_122BpHwSupplicantStaIface11addRxFilterENS2_4V1_019ISupplicantStaIface12RxFilterTypeENSt3__18functionIFvRKNS5_16SupplicantStatusEEEE"
  },
  {
   "name" : "_ZN7android8hardware4wifi10supplicant4V1_122BpHwSupplicantStaIface11linkToDeathERKNS_2spINS0_20hidl_death_recipientEEEy"
  },
  {
   "name" : "_ZN7android8hardware4wifi10supplicant4V1_122BpHwSupplicantStaIface11reassociateENSt3__18functionIFvRKNS2_4V1_016SupplicantStatusEEEE"
  },
  {
   "name" : "_ZN7android8hardware4wifi10supplicant4V1_122BpHwSupplicantStaIface11startWpsPbcERKNS0_10hidl_arrayIhLj6EJEEENSt3__18functionIFvRKNS2_4V1_016SupplicantStatusEEEE"
  },
  {
   "name" : "_ZN7android8hardware4wifi10supplicant4V1_122BpHwSupplicantStaIface12getDebugInfoENSt3__18functionIFvRKNS_4hidl4base4V1_09DebugInfoEEEE"
  },
  {
   "name" : "_ZN7android8hardware4wifi10supplicant4V1_122BpHwSupplicantStaIface12getHashChainENSt3__18functionIFvRKNS0_8hidl_vecINS0_10hidl_arrayIhLj32EJEEEEEEEE"
  },
  {
   "name" : "_ZN7android8hardware4wifi10supplicant4V1_122BpHwSupplicantStaIface12listNetworksENSt3__18functionIFvRKNS2_4V1_016SupplicantStatusERKNS0_8hidl_vecIjEEEEE"
  },
  {
   "name" : "_ZN7android8hardware4wifi10supplicant4V1_122BpHwSupplicantStaIface12setPowerSaveEbNSt3__18functionIFvRKNS2_4V1_016SupplicantStatusEEEE"
  },
  {
   "name" : "_ZN7android8hardware4wifi10supplicant4V1_122BpHwSupplicantStaIface12stopRxFilterENSt3__18functionIFvRKNS2_4V1_016SupplicantStatusEEEE"
  },
  {
   "name" : "_ZN7android8hardware4wifi10supplicant4V1_122BpHwSupplicantStaIface13getMacAddressENSt3__18functionIFvRKNS2_4V1_016SupplicantStatusERKNS0_10hidl_arrayIhLj6EJEEEEEE"
  },
  {
   "name" : "_ZN7android8hardware4wifi10supplicant4V1_122BpHwSupplicantStaIface13removeNetworkEjNSt3__18functionIFvRKNS2_4V1_016SupplicantStatusEEEE"
  },
  {
   "name" : "_ZN7android8hardware4wifi10supplicant4V1_122BpHwSupplicantStaIface13startRxFilterENSt3__18functionIFvRKNS2_4V1_016SupplicantStatusEEEE"
  },
  {
   "name" : "_ZN7android8hardware4wifi10supplicant4V1_122BpHwSupplicantStaIface13unlinkToDeathERKNS_2spINS0_20hidl_death_recipientEEE"
  },
  {
   "name" : "_ZN7android8hardware4wifi10supplicant4V1_122BpHwSupplicantStaIface14interfaceChainENSt3__18functionIFvRKNS0_8hidl_vecINS0_11hidl_stringEEEEEE"
  },
  {
   "name" : "_ZN7android8hardware4wifi10supplicant4V1_122BpHwSupplicantStaIface14removeRxFilterENS2_4V1_019ISupplicantStaIface12RxFilterTypeENSt3__18functionIFvRKNS5_16SupplicantStatusEEEE"
  },
  {
   "name" : "_ZN7android8hardware4wifi10supplicant4V1_122BpHwSupplicantStaIface14setCountryCodeERKNS0_10hidl_arrayIaLj2EJEEENSt3__18functionIFvRKNS2_4V1_016SupplicantStatusEEEE"
  },
  {
   "name" : "_ZN7android8hardware4wifi10supplicant4V1_122BpHwSupplicantStaIface14setExternalSimEbNSt3__18functionIFvRKNS2_4V1_016SupplicantStatusEEEE"
  },
  {
   "name" : "_ZN7android8hardware4wifi10supplicant4V1_122BpHwSupplicantStaIface15addExtRadioWorkERKNS0_11hidl_stringEjjNSt3__18functionIFvRKNS2_4V1_016SupplicantStatusEjEEE"
  },
  {
   "name" : "_ZN7android8hardware4wifi10supplicant4V1_122BpHwSupplicantStaIface15onLastStrongRefEPKv"
  },
  {
   "name" : "_ZN7android8hardware4wifi10supplicant4V1_122BpHwSupplicantStaIface15setWpsModelNameERKNS0_11hidl_stringENSt3__18functionIFvRKNS2_4V1_016SupplicantStatusEEEE"
  },
  {
   "name" : "_ZN7android8hardware4wifi10supplicant4V1_122BpHwSupplicantStaIface16registerCallbackERKNS_2spINS2_4V1_027ISupplicantStaIfaceCallbackEEENSt3__18functionIFvRKNS6_16SupplicantStatusEEEE"
  },
  {
   "name" : "_ZN7android8hardware4wifi10supplicant4V1_122BpHwSupplicantStaIface16setWpsDeviceNameERKNS0_11hidl_stringENSt3__18functionIFvRKNS2_4V1_016SupplicantStatusEEEE"
  },
  {
   "name" : "_ZN7android8hardware4wifi10supplicant4V1_122BpHwSupplicantStaIface16setWpsDeviceTypeERKNS0_10hidl_arrayIhLj8EJEEENSt3__18functionIFvRKNS2_4V1_016SupplicantStatusEEEE"
  },
  {
   "name" : "_ZN7android8hardware4wifi10supplicant4V1_122BpHwSupplicantStaIface17initiateAnqpQueryERKNS0_10hidl_arrayIhLj6EJEEERKNS0_8hidl_vecINS2_4V1_019ISupplicantStaIface10AnqpInfoIdEEERKNS9_INSB_16Hs20AnqpSubtypesEEENSt3__18functionIFvRKNSA_16SupplicantStatusEEEE"
  },
  {
   "name" : "_ZN7android8hardware4wifi10supplicant4V1_122BpHwSupplicantStaIface17initiateTdlsSetupERKNS0_10hidl_arrayIhLj6EJEEENSt3__18functionIFvRKNS2_4V1_016SupplicantStatusEEEE"
  },
  {
   "name" : "_ZN7android8hardware4wifi10supplicant4V1_122BpHwSupplicantStaIface17setWpsModelNumberERKNS0_11hidl_stringENSt3__18functionIFvRKNS2_4V1_016SupplicantStatusEEEE"
  },
  {
   "name" : "_ZN7android8hardware4wifi10supplicant4V1_122BpHwSupplicantStaIface17startWpsPinKeypadERKNS0_11hidl_stringENSt3__18functionIFvRKNS2_4V1_016SupplicantStatusEEEE"
  },
  {
   "name" : "_ZN7android8hardware4wifi10supplicant4V1_122BpHwSupplicantStaIface17startWpsRegistrarERKNS0_10hidl_arrayIhLj6EJEEERKNS0_11hidl_stringENSt3__18functionIFvRKNS2_4V1_016SupplicantStatusEEEE"
  },
  {
   "name" : "_ZN7android8hardware4wifi10supplicant4V1_122BpHwSupplicantStaIface18removeExtRadioWorkEjNSt3__18functionIFvRKNS2_4V1_016SupplicantStatusEEEE"
  },
  {
   "name" : "_ZN7android8hardware4wifi10supplicant4V1_122BpHwSupplicantStaIface18setWpsManufacturerERKNS0_11hidl_stringENSt3__18functionIFvRKNS2_4V1_016SupplicantStatusEEEE"
  },
  {
   "name" : "_ZN7android8hardware4wifi10supplicant4V1_122BpHwSupplicantStaIface18setWpsSerialNumberERKNS0_11hidl_stringENSt3__18functionIFvRKNS2_4V1_016SupplicantStatusEEEE"
  },
  {
   "name" : "_ZN7android8hardware4wifi10supplicant4V1_122BpHwSupplicantStaIface18startWpsPinDisplayERKNS0_10hidl_arrayIhLj6EJEEENSt3__18functionIFvRKNS2_4V1_016SupplicantStatusERKNS0_11hidl_stringEEEE"
  },
  {
   "name" : "_ZN7android8hardware4wifi10supplicant4V1_122BpHwSupplicantStaIface19enableAutoReconnectEbNSt3__18functionIFvRKNS2_4V1_016SupplicantStatusEEEE"
  },
  {
   "name" : "_ZN7android8hardware4wifi10supplicant4V1_122BpHwSupplicantStaIface19interfaceDescriptorENSt3__18functionIFvRKNS0_11hidl_stringEEEE"
  },
  {
   "name" : "_ZN7android8hardware4wifi10supplicant4V1_122BpHwSupplicantStaIface19setWpsConfigMethodsEtNSt3__18functionIFvRKNS2_4V1_016SupplicantStatusEEEE"
  },
  {
   "name" : "_ZN7android8hardware4wifi10supplicant4V1_122BpHwSupplicantStaIface20initiateTdlsDiscoverERKNS0_10hidl_arrayIhLj6EJEEENSt3__18functionIFvRKNS2_4V1_016SupplicantStatusEEEE"
  },
  {
   "name" : "_ZN7android8hardware4wifi10supplicant4V1_122BpHwSupplicantStaIface20initiateTdlsTeardownERKNS0_10hidl_arrayIhLj6EJEEENSt3__18functionIFvRKNS2_4V1_016SupplicantStatusEEEE"
  },
  {
   "name" : "_ZN7android8hardware4wifi10supplicant4V1_122BpHwSupplicantStaIface20registerCallback_1_1ERKNS_2spINS3_27ISupplicantStaIfaceCallbackEEENSt3__18functionIFvRKNS2_4V1_016SupplicantStatusEEEE"
  },
  {
   "name" : "_ZN7android8hardware4wifi10supplicant4V1_122BpHwSupplicantStaIface20setBtCoexistenceModeENS2_4V1_019ISupplicantStaIface17BtCoexistenceModeENSt3__18functionIFvRKNS5_16SupplicantStatusEEEE"
  },
  {
   "name" : "_ZN7android8hardware4wifi10supplicant4V1_122BpHwSupplicantStaIface21initiateHs20IconQueryERKNS0_10hidl_arrayIhLj6EJEEERKNS0_11hidl_stringENSt3__18functionIFvRKNS2_4V1_016SupplicantStatusEEEE"
  },
  {
   "name" : "_ZN7android8hardware4wifi10supplicant4V1_122BpHwSupplicantStaIface21notifySyspropsChangedEv"
  },
  {
   "name" : "_ZN7android8hardware4wifi10supplicant4V1_122BpHwSupplicantStaIface21setHALInstrumentationEv"
  },
  {
   "name" : "_ZN7android8hardware4wifi10supplicant4V1_122BpHwSupplicantStaIface21setSuspendModeEnabledEbNSt3__18functionIFvRKNS2_4V1_016SupplicantStatusEEEE"
  },
  {
   "name" : "_ZN7android8hardware4wifi10supplicant4V1_122BpHwSupplicantStaIface26_hidl_registerCallback_1_1EPNS0_10IInterfaceEPNS0_7details16HidlInstrumentorERKNS_2spINS3_27ISupplicantStaIfaceCallbackEEENSt3__18functionIFvRKNS2_4V1_016SupplicantStatusEEEE"
  },
  {
   "name" : "_ZN7android8hardware4wifi10supplicant4V1_122BpHwSupplicantStaIface31setBtCoexistenceScanModeEnabledEbNSt3__18functionIFvRKNS2_4V1_016SupplicantStatusEEEE"
  },
  {
   "name" : "_ZN7android8hardware4wifi10supplicant4V1_122BpHwSupplicantStaIface4pingEv"
  },
  {
   "name" : "_ZN7android8hardware4wifi10supplicant4V1_122BpHwSupplicantStaIface5debugERKNS0_11hidl_handleERKNS0_8hidl_vecINS0_11hidl_stringEEE"
  },
  {
   "name" : "_ZN7android8hardware4wifi10supplicant4V1_122BpHwSupplicantStaIface7getNameENSt3__18functionIFvRKNS2_4V1_016SupplicantStatusERKNS0_11hidl_stringEEEE"
  },
  {
   "name" : "_ZN7android8hardware4wifi10supplicant4V1_122BpHwSupplicantStaIface7getTypeENSt3__18functionIFvRKNS2_4V1_016SupplicantStatusENS7_9IfaceTypeEEEE"
  },
  {
   "name" : "_ZN7android8hardware4wifi10supplicant4V1_122BpHwSupplicantStaIface9cancelWpsENSt3__18functionIFvRKNS2_4V1_016SupplicantStatusEEEE"
  },
  {
   "name" : "_ZN7android8hardware4wifi10supplicant4V1_122BpHwSupplicantStaIface9reconnectENSt3__18functionIFvRKNS2_4V1_016SupplicantStatusEEEE"
  },
  {
   "name" : "_ZN7android8hardware4wifi10supplicant4V1_122BpHwSupplicantStaIfaceC1ERKNS_2spINS0_7IBinderEEE"
  },
  {
   "name" : "_ZN7android8hardware4wifi10supplicant4V1_122BpHwSupplicantStaIfaceC2ERKNS_2spINS0_7IBinderEEE"
  },
  {
   "name" : "_ZN7android8hardware4wifi10supplicant4V1_122BsSupplicantStaNetwork13addOnewayTaskENSt3__18functionIFvvEEE"
  },
  {
   "name" : "_ZN7android8hardware4wifi10supplicant4V1_122BsSupplicantStaNetworkC1ENS_2spINS3_21ISupplicantStaNetworkEEE"
  },
  {
   "name" : "_ZN7android8hardware4wifi10supplicant4V1_122BsSupplicantStaNetworkC2ENS_2spINS3_21ISupplicantStaNetworkEEE"
  },
  {
   "name" : "_ZN7android8hardware4wifi10supplicant4V1_124BnHwSupplicantStaNetwork10onTransactEjRKNS0_6ParcelEPS5_jNSt3__18functionIFvRS5_EEE"
  },
  {
   "name" : "_ZN7android8hardware4wifi10supplicant4V1_124BnHwSupplicantStaNetwork12getDebugInfoENSt3__18functionIFvRKNS_4hidl4base4V1_09DebugInfoEEEE"
  },
  {
   "name" : "_ZN7android8hardware4wifi10supplicant4V1_124BnHwSupplicantStaNetwork33_hidl_setEapEncryptedImsiIdentityEPNS_4hidl4base4V1_08BnHwBaseERKNS0_6ParcelEPSA_NSt3__18functionIFvRSA_EEE"
  },
  {
   "name" : "_ZN7android8hardware4wifi10supplicant4V1_124BnHwSupplicantStaNetwork40_hidl_sendNetworkEapIdentityResponse_1_1EPNS_4hidl4base4V1_08BnHwBaseERKNS0_6ParcelEPSA_NSt3__18functionIFvRSA_EEE"
  },
  {
   "name" : "_ZN7android8hardware4wifi10supplicant4V1_124BnHwSupplicantStaNetwork4pingEv"
  },
  {
   "name" : "_ZN7android8hardware4wifi10supplicant4V1_124BnHwSupplicantStaNetworkC1ERKNS_2spINS3_21ISupplicantStaNetworkEEE"
  },
  {
   "name" : "_ZN7android8hardware4wifi10supplicant4V1_124BnHwSupplicantStaNetworkC2ERKNS_2spINS3_21ISupplicantStaNetworkEEE"
  },
  {
   "name" : "_ZN7android8hardware4wifi10supplicant4V1_124BnHwSupplicantStaNetworkD0Ev"
  },
  {
   "name" : "_ZN7android8hardware4wifi10supplicant4V1_124BnHwSupplicantStaNetworkD1Ev"
  },
  {
   "name" : "_ZN7android8hardware4wifi10supplicant4V1_124BnHwSupplicantStaNetworkD2Ev"
  },
  {
   "name" : "_ZN7android8hardware4wifi10supplicant4V1_124BpHwSupplicantStaNetwork10getAuthAlgENSt3__18functionIFvRKNS2_4V1_016SupplicantStatusEjEEE"
  },
  {
   "name" : "_ZN7android8hardware4wifi10supplicant4V1_124BpHwSupplicantStaNetwork10getKeyMgmtENSt3__18functionIFvRKNS2_4V1_016SupplicantStatusEjEEE"
  },
  {
   "name" : "_ZN7android8hardware4wifi10supplicant4V1_124BpHwSupplicantStaNetwork10setAuthAlgEjNSt3__18functionIFvRKNS2_4V1_016SupplicantStatusEEEE"
  },
  {
   "name" : "_ZN7android8hardware4wifi10supplicant4V1_124BpHwSupplicantStaNetwork10setKeyMgmtEjNSt3__18functionIFvRKNS2_4V1_016SupplicantStatusEEEE"
  },
  {
   "name" : "_ZN7android8hardware4wifi10supplicant4V1_124BpHwSupplicantStaNetwork11getScanSsidENSt3__18functionIFvRKNS2_4V1_016SupplicantStatusEbEEE"
  },
  {
   "name" : "_ZN7android8hardware4wifi10supplicant4V1_124BpHwSupplicantStaNetwork11linkToDeathERKNS_2spINS0_20hidl_death_recipientEEEy"
  },
  {
   "name" : "_ZN7android8hardware4wifi10supplicant4V1_124BpHwSupplicantStaNetwork11setScanSsidEbNSt3__18functionIFvRKNS2_4V1_016SupplicantStatusEEEE"
  },
  {
   "name" : "_ZN7android8hardware4wifi10supplicant4V1_124BpHwSupplicantStaNetwork12getDebugInfoENSt3__18functionIFvRKNS_4hidl4base4V1_09DebugInfoEEEE"
  },
  {
   "name" : "_ZN7android8hardware4wifi10supplicant4V1_124BpHwSupplicantStaNetwork12getEapCACertENSt3__18functionIFvRKNS2_4V1_016SupplicantStatusERKNS0_11hidl_stringEEEE"
  },
  {
   "name" : "_ZN7android8hardware4wifi10supplicant4V1_124BpHwSupplicantStaNetwork12getEapCAPathENSt3__18functionIFvRKNS2_4V1_016SupplicantStatusERKNS0_11hidl_stringEEEE"
  },
  {
   "name" : "_ZN7android8hardware4wifi10supplicant4V1_124BpHwSupplicantStaNetwork12getEapEngineENSt3__18functionIFvRKNS2_4V1_016SupplicantStatusEbEEE"
  },
  {
   "name" : "_ZN7android8hardware4wifi10supplicant4V1_124BpHwSupplicantStaNetwork12getEapMethodENSt3__18functionIFvRKNS2_4V1_016SupplicantStatusENS7_21ISupplicantStaNetwork9EapMethodEEEE"
  },
  {
   "name" : "_ZN7android8hardware4wifi10supplicant4V1_124BpHwSupplicantStaNetwork12getHashChainENSt3__18functionIFvRKNS0_8hidl_vecINS0_10hidl_arrayIhLj32EJEEEEEEEE"
  },
  {
   "name" : "_ZN7android8hardware4wifi10supplicant4V1_124BpHwSupplicantStaNetwork12setEapCACertERKNS0_11hidl_stringENSt3__18functionIFvRKNS2_4V1_016SupplicantStatusEEEE"
  },
  {
   "name" : "_ZN7android8hardware4wifi10supplicant4V1_124BpHwSupplicantStaNetwork12setEapCAPathERKNS0_11hidl_stringENSt3__18functionIFvRKNS2_4V1_016SupplicantStatusEEEE"
  },
  {
   "name" : "_ZN7android8hardware4wifi10supplicant4V1_124BpHwSupplicantStaNetwork12setEapEngineEbNSt3__18functionIFvRKNS2_4V1_016SupplicantStatusEEEE"
  },
  {
   "name" : "_ZN7android8hardware4wifi10supplicant4V1_124BpHwSupplicantStaNetwork12setEapMethodENS2_4V1_021ISupplicantStaNetwork9EapMethodENSt3__18functionIFvRKNS5_16SupplicantStatusEEEE"
  },
  {
   "name" : "_ZN7android8hardware4wifi10supplicant4V1_124BpHwSupplicantStaNetwork13getRequirePmfENSt3__18functionIFvRKNS2_4V1_016SupplicantStatusEbEEE"
  },
  {
   "name" : "_ZN7android8hardware4wifi10supplicant4V1_124BpHwSupplicantStaNetwork13setRequirePmfEbNSt3__18functionIFvRKNS2_4V1_016SupplicantStatusEEEE"
  },
  {
   "name" : "_ZN7android8hardware4wifi10supplicant4V1_124BpHwSupplicantStaNetwork13unlinkToDeathERKNS_2spINS0_20hidl_death_recipientEEE"
  },
  {
   "name" : "_ZN7android8hardware4wifi10supplicant4V1_124BpHwSupplicantStaNetwork14getEapEngineIDENSt3__18functionIFvRKNS2_4V1_016SupplicantStatusERKNS0_11hidl_stringEEEE"
  },
  {
   "name" : "_ZN7android8hardware4wifi10supplicant4V1_124BpHwSupplicantStaNetwork14getEapIdentityENSt3__18functionIFvRKNS2_4V1_016SupplicantStatusERKNS0_8hidl_vecIhEEEEE"
  },
  {
   "name" : "_ZN7android8hardware4wifi10supplicant4V1_124BpHwSupplicantStaNetwork14getEapPasswordENSt3__18functionIFvRKNS2_4V1_016SupplicantStatusERKNS0_8hidl_vecIhEEEEE"
  },
  {
   "name" : "_ZN7android8hardware4wifi10supplicant4V1_124BpHwSupplicantStaNetwork14getGroupCipherENSt3__18functionIFvRKNS2_4V1_016SupplicantStatusEjEEE"
  },
  {
   "name" : "_ZN7android8hardware4wifi10supplicant4V1_124BpHwSupplicantStaNetwork14getWepTxKeyIdxENSt3__18functionIFvRKNS2_4V1_016SupplicantStatusEjEEE"
  },
  {
   "name" : "_ZN7android8hardware4wifi10supplicant4V1_124BpHwSupplicantStaNetwork14interfaceChainENSt3__18functionIFvRKNS0_8hidl_vecINS0_11hidl_stringEEEEEE"
  },
  {
   "name" : "_ZN7android8hardware4wifi10supplicant4V1_124BpHwSupplicantStaNetwork14setEapEngineIDERKNS0_11hidl_stringENSt3__18functionIFvRKNS2_4V1_016SupplicantStatusEEEE"
  },
  {
   "name" : "_ZN7android8hardware4wifi10supplicant4V1_124BpHwSupplicantStaNetwork14setEapIdentityERKNS0_8hidl_vecIhEENSt3__18functionIFvRKNS2_4V1_016SupplicantStatusEEEE"
  },
  {
   "name" : "_ZN7android8hardware4wifi10supplicant4V1_124BpHwSupplicantStaNetwork14setEapPasswordERKNS0_8hidl_vecIhEENSt3__18functionIFvRKNS2_4V1_016SupplicantStatusEEEE"
  },
  {
   "name" : "_ZN7android8hardware4wifi10supplicant4V1_124BpHwSupplicantStaNetwork14setGroupCipherEjNSt3__18functionIFvRKNS2_4V1_016SupplicantStatusEEEE"
  },
  {
   "name" : "_ZN7android8hardware4wifi10supplicant4V1_124BpHwSupplicantStaNetwork14setWepTxKeyIdxEjNSt3__18functionIFvRKNS2_4V1_016SupplicantStatusEEEE"
  },
  {
   "name" : "_ZN7android8hardware4wifi10supplicant4V1_124BpHwSupplicantStaNetwork15onLastStrongRefEPKv"
  },
  {
   "name" : "_ZN7android8hardware4wifi10supplicant4V1_124BpHwSupplicantStaNetwork16getEapClientCertENSt3__18functionIFvRKNS2_4V1_016SupplicantStatusERKNS0_11hidl_stringEEEE"
  },
  {
   "name" : "_ZN7android8hardware4wifi10supplicant4V1_124BpHwSupplicantStaNetwork16getInterfaceNameENSt3__18functionIFvRKNS2_4V1_016SupplicantStatusERKNS0_11hidl_stringEEEE"
  },
  {
   "name" : "_ZN7android8hardware4wifi10supplicant4V1_124BpHwSupplicantStaNetwork16getPskPassphraseENSt3__18functionIFvRKNS2_4V1_016SupplicantStatusERKNS0_11hidl_stringEEEE"
  },
  {
   "name" : "_ZN7android8hardware4wifi10supplicant4V1_124BpHwSupplicantStaNetwork16registerCallbackERKNS_2spINS2_4V1_029ISupplicantStaNetworkCallbackEEENSt3__18functionIFvRKNS6_16SupplicantStatusEEEE"
  },
  {
   "name" : "_ZN7android8hardware4wifi10supplicant4V1_124BpHwSupplicantStaNetwork16setEapClientCertERKNS0_11hidl_stringENSt3__18functionIFvRKNS2_4V1_016SupplicantStatusEEEE"
  },
  {
   "name" : "_ZN7android8hardware4wifi10supplicant4V1_124BpHwSupplicantStaNetwork16setPskPassphraseERKNS0_11hidl_stringENSt3__18functionIFvRKNS2_4V1_016SupplicantStatusEEEE"
  },
  {
   "name" : "_ZN7android8hardware4wifi10supplicant4V1_124BpHwSupplicantStaNetwork17getPairwiseCipherENSt3__18functionIFvRKNS2_4V1_016SupplicantStatusEjEEE"
  },
  {
   "name" : "_ZN7android8hardware4wifi10supplicant4V1_124BpHwSupplicantStaNetwork17setPairwiseCipherEjNSt3__18functionIFvRKNS2_4V1_016SupplicantStatusEEEE"
  },
  {
   "name" : "_ZN7android8hardware4wifi10supplicant4V1_124BpHwSupplicantStaNetwork18getEapPhase2MethodENSt3__18functionIFvRKNS2_4V1_016SupplicantStatusENS7_21ISupplicantStaNetwork15EapPhase2MethodEEEE"
  },
  {
   "name" : "_ZN7android8hardware4wifi10supplicant4V1_124BpHwSupplicantStaNetwork18getEapPrivateKeyIdENSt3__18functionIFvRKNS2_4V1_016SupplicantStatusERKNS0_11hidl_stringEEEE"
  },
  {
   "name" : "_ZN7android8hardware4wifi10supplicant4V1_124BpHwSupplicantStaNetwork18getEapSubjectMatchENSt3__18functionIFvRKNS2_4V1_016SupplicantStatusERKNS0_11hidl_stringEEEE"
  },
  {
   "name" : "_ZN7android8hardware4wifi10supplicant4V1_124BpHwSupplicantStaNetwork18setEapPhase2MethodENS2_4V1_021ISupplicantStaNetwork15EapPhase2MethodENSt3__18functionIFvRKNS5_16SupplicantStatusEEEE"
  },
  {
   "name" : "_ZN7android8hardware4wifi10supplicant4V1_124BpHwSupplicantStaNetwork18setEapPrivateKeyIdERKNS0_11hidl_stringENSt3__18functionIFvRKNS2_4V1_016SupplicantStatusEEEE"
  },
  {
   "name" : "_ZN7android8hardware4wifi10supplicant4V1_124BpHwSupplicantStaNetwork18setEapSubjectMatchERKNS0_11hidl_stringENSt3__18functionIFvRKNS2_4V1_016SupplicantStatusEEEE"
  },
  {
   "name" : "_ZN7android8hardware4wifi10supplicant4V1_124BpHwSupplicantStaNetwork19interfaceDescriptorENSt3__18functionIFvRKNS0_11hidl_stringEEEE"
  },
  {
   "name" : "_ZN7android8hardware4wifi10supplicant4V1_124BpHwSupplicantStaNetwork19setUpdateIdentifierEjNSt3__18functionIFvRKNS2_4V1_016SupplicantStatusEEEE"
  },
  {
   "name" : "_ZN7android8hardware4wifi10supplicant4V1_124BpHwSupplicantStaNetwork21getEapAltSubjectMatchENSt3__18functionIFvRKNS2_4V1_016SupplicantStatusERKNS0_11hidl_stringEEEE"
  },
  {
   "name" : "_ZN7android8hardware4wifi10supplicant4V1_124BpHwSupplicantStaNetwork21notifySyspropsChangedEv"
  },
  {
   "name" : "_ZN7android8hardware4wifi10supplicant4V1_124BpHwSupplicantStaNetwork21setEapAltSubjectMatchERKNS0_11hidl_stringENSt3__18functionIFvRKNS2_4V1_016SupplicantStatusEEEE"
  },
  {
   "name" : "_ZN7android8hardware4wifi10supplicant4V1_124BpHwSupplicantStaNetwork21setHALInstrumentationEv"
  },
  {
   "name" : "_ZN7android8hardware4wifi10supplicant4V1_124BpHwSupplicantStaNetwork22setProactiveKeyCachingEbNSt3__18functionIFvRKNS2_4V1_016SupplicantStatusEEEE"
  },
  {
   "name" : "_ZN7android8hardware4wifi10supplicant4V1_124BpHwSupplicantStaNetwork23getEapAnonymousIdentityENSt3__18functionIFvRKNS2_4V1_016SupplicantStatusERKNS0_8hidl_vecIhEEEEE"
  },
  {
   "name" : "_ZN7android8hardware4wifi10supplicant4V1_124BpHwSupplicantStaNetwork23getEapDomainSuffixMatchENSt3__18functionIFvRKNS2_4V1_016SupplicantStatusERKNS0_11hidl_stringEEEE"
  },
  {
   "name" : "_ZN7android8hardware4wifi10supplicant4V1_124BpHwSupplicantStaNetwork23setEapAnonymousIdentityERKNS0_8hidl_vecIhEENSt3__18functionIFvRKNS2_4V1_016SupplicantStatusEEEE"
  },
  {
   "name" : "_ZN7android8hardware4wifi10supplicant4V1_124BpHwSupplicantStaNetwork23setEapDomainSuffixMatchERKNS0_11hidl_stringENSt3__18functionIFvRKNS2_4V1_016SupplicantStatusEEEE"
  },
  {
   "name" : "_ZN7android8hardware4wifi10supplicant4V1_124BpHwSupplicantStaNetwork27getWpsNfcConfigurationTokenENSt3__18functionIFvRKNS2_4V1_016SupplicantStatusERKNS0_8hidl_vecIhEEEEE"
  },
  {
   "name" : "_ZN7android8hardware4wifi10supplicant4V1_124BpHwSupplicantStaNetwork27setEapEncryptedImsiIdentityERKNS0_8hidl_vecIhEENSt3__18functionIFvRKNS2_4V1_016SupplicantStatusEEEE"
  },
  {
   "name" : "_ZN7android8hardware4wifi10supplicant4V1_124BpHwSupplicantStaNetwork30sendNetworkEapIdentityResponseERKNS0_8hidl_vecIhEENSt3__18functionIFvRKNS2_4V1_016SupplicantStatusEEEE"
  },
  {
   "name" : "_ZN7android8hardware4wifi10supplicant4V1_124BpHwSupplicantStaNetwork31sendNetworkEapSimGsmAuthFailureENSt3__18functionIFvRKNS2_4V1_016SupplicantStatusEEEE"
  },
  {
   "name" : "_ZN7android8hardware4wifi10supplicant4V1_124BpHwSupplicantStaNetwork32sendNetworkEapSimGsmAuthResponseERKNS0_8hidl_vecINS2_4V1_021ISupplicantStaNetwork34NetworkResponseEapSimGsmAuthParamsEEENSt3__18functionIFvRKNS6_16SupplicantStatusEEEE"
  },
  {
   "name" : "_ZN7android8hardware4wifi10supplicant4V1_124BpHwSupplicantStaNetwork32sendNetworkEapSimUmtsAuthFailureENSt3__18functionIFvRKNS2_4V1_016SupplicantStatusEEEE"
  },
  {
   "name" : "_ZN7android8hardware4wifi10supplicant4V1_124BpHwSupplicantStaNetwork33_hidl_setEapEncryptedImsiIdentityEPNS0_10IInterfaceEPNS0_7details16HidlInstrumentorERKNS0_8hidl_vecIhEENSt3__18functionIFvRKNS2_4V1_016SupplicantStatusEEEE"
  },
  {
   "name" : "_ZN7android8hardware4wifi10supplicant4V1_124BpHwSupplicantStaNetwork33sendNetworkEapSimUmtsAuthResponseERKNS2_4V1_021ISupplicantStaNetwork35NetworkResponseEapSimUmtsAuthParamsENSt3__18functionIFvRKNS5_16SupplicantStatusEEEE"
  },
  {
   "name" : "_ZN7android8hardware4wifi10supplicant4V1_124BpHwSupplicantStaNetwork33sendNetworkEapSimUmtsAutsResponseERKNS0_10hidl_arrayIhLj14EJEEENSt3__18functionIFvRKNS2_4V1_016SupplicantStatusEEEE"
  },
  {
   "name" : "_ZN7android8hardware4wifi10supplicant4V1_124BpHwSupplicantStaNetwork34sendNetworkEapIdentityResponse_1_1ERKNS0_8hidl_vecIhEES8_NSt3__18functionIFvRKNS2_4V1_016SupplicantStatusEEEE"
  },
  {
   "name" : "_ZN7android8hardware4wifi10supplicant4V1_124BpHwSupplicantStaNetwork40_hidl_sendNetworkEapIdentityResponse_1_1EPNS0_10IInterfaceEPNS0_7details16HidlInstrumentorERKNS0_8hidl_vecIhEESD_NSt3__18functionIFvRKNS2_4V1_016SupplicantStatusEEEE"
  },
  {
   "name" : "_ZN7android8hardware4wifi10supplicant4V1_124BpHwSupplicantStaNetwork4pingEv"
  },
  {
   "name" : "_ZN7android8hardware4wifi10supplicant4V1_124BpHwSupplicantStaNetwork5debugERKNS0_11hidl_handleERKNS0_8hidl_vecINS0_11hidl_stringEEE"
  },
  {
   "name" : "_ZN7android8hardware4wifi10supplicant4V1_124BpHwSupplicantStaNetwork5getIdENSt3__18functionIFvRKNS2_4V1_016SupplicantStatusEjEEE"
  },
  {
   "name" : "_ZN7android8hardware4wifi10supplicant4V1_124BpHwSupplicantStaNetwork6enableEbNSt3__18functionIFvRKNS2_4V1_016SupplicantStatusEEEE"
  },
  {
   "name" : "_ZN7android8hardware4wifi10supplicant4V1_124BpHwSupplicantStaNetwork6getPskENSt3__18functionIFvRKNS2_4V1_016SupplicantStatusERKNS0_10hidl_arrayIhLj32EJEEEEEE"
  },
  {
   "name" : "_ZN7android8hardware4wifi10supplicant4V1_124BpHwSupplicantStaNetwork6selectENSt3__18functionIFvRKNS2_4V1_016SupplicantStatusEEEE"
  },
  {
   "name" : "_ZN7android8hardware4wifi10supplicant4V1_124BpHwSupplicantStaNetwork6setPskERKNS0_10hidl_arrayIhLj32EJEEENSt3__18functionIFvRKNS2_4V1_016SupplicantStatusEEEE"
  },
  {
   "name" : "_ZN7android8hardware4wifi10supplicant4V1_124BpHwSupplicantStaNetwork7disableENSt3__18functionIFvRKNS2_4V1_016SupplicantStatusEEEE"
  },
  {
   "name" : "_ZN7android8hardware4wifi10supplicant4V1_124BpHwSupplicantStaNetwork7getSsidENSt3__18functionIFvRKNS2_4V1_016SupplicantStatusERKNS0_8hidl_vecIhEEEEE"
  },
  {
   "name" : "_ZN7android8hardware4wifi10supplicant4V1_124BpHwSupplicantStaNetwork7getTypeENSt3__18functionIFvRKNS2_4V1_016SupplicantStatusENS7_9IfaceTypeEEEE"
  },
  {
   "name" : "_ZN7android8hardware4wifi10supplicant4V1_124BpHwSupplicantStaNetwork7setSsidERKNS0_8hidl_vecIhEENSt3__18functionIFvRKNS2_4V1_016SupplicantStatusEEEE"
  },
  {
   "name" : "_ZN7android8hardware4wifi10supplicant4V1_124BpHwSupplicantStaNetwork8getBssidENSt3__18functionIFvRKNS2_4V1_016SupplicantStatusERKNS0_10hidl_arrayIhLj6EJEEEEEE"
  },
  {
   "name" : "_ZN7android8hardware4wifi10supplicant4V1_124BpHwSupplicantStaNetwork8getIdStrENSt3__18functionIFvRKNS2_4V1_016SupplicantStatusERKNS0_11hidl_stringEEEE"
  },
  {
   "name" : "_ZN7android8hardware4wifi10supplicant4V1_124BpHwSupplicantStaNetwork8getProtoENSt3__18functionIFvRKNS2_4V1_016SupplicantStatusEjEEE"
  },
  {
   "name" : "_ZN7android8hardware4wifi10supplicant4V1_124BpHwSupplicantStaNetwork8setBssidERKNS0_10hidl_arrayIhLj6EJEEENSt3__18functionIFvRKNS2_4V1_016SupplicantStatusEEEE"
  },
  {
   "name" : "_ZN7android8hardware4wifi10supplicant4V1_124BpHwSupplicantStaNetwork8setIdStrERKNS0_11hidl_stringENSt3__18functionIFvRKNS2_4V1_016SupplicantStatusEEEE"
  },
  {
   "name" : "_ZN7android8hardware4wifi10supplicant4V1_124BpHwSupplicantStaNetwork8setProtoEjNSt3__18functionIFvRKNS2_4V1_016SupplicantStatusEEEE"
  },
  {
   "name" : "_ZN7android8hardware4wifi10supplicant4V1_124BpHwSupplicantStaNetwork9getWepKeyEjNSt3__18functionIFvRKNS2_4V1_016SupplicantStatusERKNS0_8hidl_vecIhEEEEE"
  },
  {
   "name" : "_ZN7android8hardware4wifi10supplicant4V1_124BpHwSupplicantStaNetwork9setWepKeyEjRKNS0_8hidl_vecIhEENSt3__18functionIFvRKNS2_4V1_016SupplicantStatusEEEE"
  },
  {
   "name" : "_ZN7android8hardware4wifi10supplicant4V1_124BpHwSupplicantStaNetworkC1ERKNS_2spINS0_7IBinderEEE"
  },
  {
   "name" : "_ZN7android8hardware4wifi10supplicant4V1_124BpHwSupplicantStaNetworkC2ERKNS_2spINS0_7IBinderEEE"
  },
  {
   "name" : "_ZN7android8hardware4wifi10supplicant4V1_127ISupplicantStaIfaceCallback10getServiceERKNSt3__112basic_stringIcNS5_11char_traitsIcEENS5_9allocatorIcEEEEb"
  },
  {
   "name" : "_ZN7android8hardware4wifi10supplicant4V1_127ISupplicantStaIfaceCallback11linkToDeathERKNS_2spINS0_20hidl_death_recipientEEEy"
  },
  {
   "name" : "_ZN7android8hardware4wifi10supplicant4V1_127ISupplicantStaIfaceCallback12getDebugInfoENSt3__18functionIFvRKNS_4hidl4base4V1_09DebugInfoEEEE"
  },
  {
   "name" : "_ZN7android8hardware4wifi10supplicant4V1_127ISupplicantStaIfaceCallback12getHashChainENSt3__18functionIFvRKNS0_8hidl_vecINS0_10hidl_arrayIhLj32EJEEEEEEEE"
  },
  {
   "name" : "_ZN7android8hardware4wifi10supplicant4V1_127ISupplicantStaIfaceCallback13tryGetServiceERKNSt3__112basic_stringIcNS5_11char_traitsIcEENS5_9allocatorIcEEEEb"
  },
  {
   "name" : "_ZN7android8hardware4wifi10supplicant4V1_127ISupplicantStaIfaceCallback13unlinkToDeathERKNS_2spINS0_20hidl_death_recipientEEE"
  },
  {
   "name" : "_ZN7android8hardware4wifi10supplicant4V1_127ISupplicantStaIfaceCallback14interfaceChainENSt3__18functionIFvRKNS0_8hidl_vecINS0_11hidl_stringEEEEEE"
  },
  {
   "name" : "_ZN7android8hardware4wifi10supplicant4V1_127ISupplicantStaIfaceCallback17registerAsServiceERKNSt3__112basic_stringIcNS5_11char_traitsIcEENS5_9allocatorIcEEEE"
  },
  {
   "name" : "_ZN7android8hardware4wifi10supplicant4V1_127ISupplicantStaIfaceCallback19interfaceDescriptorENSt3__18functionIFvRKNS0_11hidl_stringEEEE"
  },
  {
   "name" : "_ZN7android8hardware4wifi10supplicant4V1_127ISupplicantStaIfaceCallback21notifySyspropsChangedEv"
  },
  {
   "name" : "_ZN7android8hardware4wifi10supplicant4V1_127ISupplicantStaIfaceCallback21setHALInstrumentationEv"
  },
  {
   "name" : "_ZN7android8hardware4wifi10supplicant4V1_127ISupplicantStaIfaceCallback24registerForNotificationsERKNSt3__112basic_stringIcNS5_11char_traitsIcEENS5_9allocatorIcEEEERKNS_2spINS_4hidl7manager4V1_020IServiceNotificationEEE"
  },
  {
   "name" : "_ZN7android8hardware4wifi10supplicant4V1_127ISupplicantStaIfaceCallback4pingEv"
  },
  {
   "name" : "_ZN7android8hardware4wifi10supplicant4V1_127ISupplicantStaIfaceCallback5debugERKNS0_11hidl_handleERKNS0_8hidl_vecINS0_11hidl_stringEEE"
  },
  {
   "name" : "_ZN7android8hardware4wifi10supplicant4V1_127ISupplicantStaIfaceCallback8castFromERKNS_2spINS2_4V1_027ISupplicantStaIfaceCallbackEEEb"
  },
  {
   "name" : "_ZN7android8hardware4wifi10supplicant4V1_127ISupplicantStaIfaceCallback8castFromERKNS_2spINS_4hidl4base4V1_05IBaseEEEb"
  },
  {
   "name" : "_ZN7android8hardware4wifi10supplicant4V1_127ISupplicantStaIfaceCallback8castFromERKNS_2spIS4_EEb"
  },
  {
   "name" : "_ZN7android8hardware4wifi10supplicant4V1_128BsSupplicantStaIfaceCallback13addOnewayTaskENSt3__18functionIFvvEEE"
  },
  {
   "name" : "_ZN7android8hardware4wifi10supplicant4V1_128BsSupplicantStaIfaceCallbackC1ENS_2spINS3_27ISupplicantStaIfaceCallbackEEE"
  },
  {
   "name" : "_ZN7android8hardware4wifi10supplicant4V1_128BsSupplicantStaIfaceCallbackC2ENS_2spINS3_27ISupplicantStaIfaceCallbackEEE"
  },
  {
   "name" : "_ZN7android8hardware4wifi10supplicant4V1_130BnHwSupplicantStaIfaceCallback10onTransactEjRKNS0_6ParcelEPS5_jNSt3__18functionIFvRS5_EEE"
  },
  {
   "name" : "_ZN7android8hardware4wifi10supplicant4V1_130BnHwSupplicantStaIfaceCallback12getDebugInfoENSt3__18functionIFvRKNS_4hidl4base4V1_09DebugInfoEEEE"
  },
  {
   "name" : "_ZN7android8hardware4wifi10supplicant4V1_130BnHwSupplicantStaIfaceCallback22_hidl_onEapFailure_1_1EPNS_4hidl4base4V1_08BnHwBaseERKNS0_6ParcelEPSA_NSt3__18functionIFvRSA_EEE"
  },
  {
   "name" : "_ZN7android8hardware4wifi10supplicant4V1_130BnHwSupplicantStaIfaceCallback4pingEv"
  },
  {
   "name" : "_ZN7android8hardware4wifi10supplicant4V1_130BnHwSupplicantStaIfaceCallbackC1ERKNS_2spINS3_27ISupplicantStaIfaceCallbackEEE"
  },
  {
   "name" : "_ZN7android8hardware4wifi10supplicant4V1_130BnHwSupplicantStaIfaceCallbackC2ERKNS_2spINS3_27ISupplicantStaIfaceCallbackEEE"
  },
  {
   "name" : "_ZN7android8hardware4wifi10supplicant4V1_130BnHwSupplicantStaIfaceCallbackD0Ev"
  },
  {
   "name" : "_ZN7android8hardware4wifi10supplicant4V1_130BnHwSupplicantStaIfaceCallbackD1Ev"
  },
  {
   "name" : "_ZN7android8hardware4wifi10supplicant4V1_130BnHwSupplicantStaIfaceCallbackD2Ev"
  },
  {
   "name" : "_ZN7android8hardware4wifi10supplicant4V1_130BpHwSupplicantStaIfaceCallback11linkToDeathERKNS_2spINS0_20hidl_death_recipientEEEy"
  },
  {
   "name" : "_ZN7android8hardware4wifi10supplicant4V1_130BpHwSupplicantStaIfaceCallback12getDebugInfoENSt3__18functionIFvRKNS_4hidl4base4V1_09DebugInfoEEEE"
  },
  {
   "name" : "_ZN7android8hardware4wifi10supplicant4V1_130BpHwSupplicantStaIfaceCallback12getHashChainENSt3__18functionIFvRKNS0_8hidl_vecINS0_10hidl_arrayIhLj32EJEEEEEEEE"
  },
  {
   "name" : "_ZN7android8hardware4wifi10supplicant4V1_130BpHwSupplicantStaIfaceCallback12onEapFailureEv"
  },
  {
   "name" : "_ZN7android8hardware4wifi10supplicant4V1_130BpHwSupplicantStaIfaceCallback13unlinkToDeathERKNS_2spINS0_20hidl_death_recipientEEE"
  },
  {
   "name" : "_ZN7android8hardware4wifi10supplicant4V1_130BpHwSupplicantStaIfaceCallback14interfaceChainENSt3__18functionIFvRKNS0_8hidl_vecINS0_11hidl_stringEEEEEE"
  },
  {
   "name" : "_ZN7android8hardware4wifi10supplicant4V1_130BpHwSupplicantStaIfaceCallback14onBssidChangedENS2_4V1_027ISupplicantStaIfaceCallback17BssidChangeReasonERKNS0_10hidl_arrayIhLj6EJEEE"
  },
  {
   "name" : "_ZN7android8hardware4wifi10supplicant4V1_130BpHwSupplicantStaIfaceCallback14onDisconnectedERKNS0_10hidl_arrayIhLj6EJEEEbNS2_4V1_027ISupplicantStaIfaceCallback10ReasonCodeE"
  },
  {
   "name" : "_ZN7android8hardware4wifi10supplicant4V1_130BpHwSupplicantStaIfaceCallback14onNetworkAddedEj"
  },
  {
   "name" : "_ZN7android8hardware4wifi10supplicant4V1_130BpHwSupplicantStaIfaceCallback14onStateChangedENS2_4V1_027ISupplicantStaIfaceCallback5StateERKNS0_10hidl_arrayIhLj6EJEEEjRKNS0_8hidl_vecIhEE"
  },
  {
   "name" : "_ZN7android8hardware4wifi10supplicant4V1_130BpHwSupplicantStaIfaceCallback14onWpsEventFailERKNS0_10hidl_arrayIhLj6EJEEENS2_4V1_027ISupplicantStaIfaceCallback14WpsConfigErrorENSA_18WpsErrorIndicationE"
  },
  {
   "name" : "_ZN7android8hardware4wifi10supplicant4V1_130BpHwSupplicantStaIfaceCallback15onAnqpQueryDoneERKNS0_10hidl_arrayIhLj6EJEEERKNS2_4V1_027ISupplicantStaIfaceCallback8AnqpDataERKNSA_12Hs20AnqpDataE"
  },
  {
   "name" : "_ZN7android8hardware4wifi10supplicant4V1_130BpHwSupplicantStaIfaceCallback15onLastStrongRefEPKv"
  },
  {
   "name" : "_ZN7android8hardware4wifi10supplicant4V1_130BpHwSupplicantStaIfaceCallback16onEapFailure_1_1ENS3_27ISupplicantStaIfaceCallback12EapErrorCodeE"
  },
  {
   "name" : "_ZN7android8hardware4wifi10supplicant4V1_130BpHwSupplicantStaIfaceCallback16onNetworkRemovedEj"
  },
  {
   "name" : "_ZN7android8hardware4wifi10supplicant4V1_130BpHwSupplicantStaIfaceCallback17onWpsEventSuccessEv"
  },
  {
   "name" : "_ZN7android8hardware4wifi10supplicant4V1_130BpHwSupplicantStaIfaceCallback19interfaceDescriptorENSt3__18functionIFvRKNS0_11hidl_stringEEEE"
  },
  {
   "name" : "_ZN7android8hardware4wifi10supplicant4V1_130BpHwSupplicantStaIfaceCallback19onExtRadioWorkStartEj"
  },
  {
   "name" : "_ZN7android8hardware4wifi10supplicant4V1_130BpHwSupplicantStaIfaceCallback19onHs20IconQueryDoneERKNS0_10hidl_arrayIhLj6EJEEERKNS0_11hidl_stringERKNS0_8hidl_vecIhEE"
  },
  {
   "name" : "_ZN7android8hardware4wifi10supplicant4V1_130BpHwSupplicantStaIfaceCallback20onWpsEventPbcOverlapEv"
  },
  {
   "name" : "_ZN7android8hardware4wifi10supplicant4V1_130BpHwSupplicantStaIfaceCallback21notifySyspropsChangedEv"
  },
  {
   "name" : "_ZN7android8hardware4wifi10supplicant4V1_130BpHwSupplicantStaIfaceCallback21onAssociationRejectedERKNS0_10hidl_arrayIhLj6EJEEENS2_4V1_027ISupplicantStaIfaceCallback10StatusCodeEb"
  },
  {
   "name" : "_ZN7android8hardware4wifi10supplicant4V1_130BpHwSupplicantStaIfaceCallback21onExtRadioWorkTimeoutEj"
  },
  {
   "name" : "_ZN7android8hardware4wifi10supplicant4V1_130BpHwSupplicantStaIfaceCallback21setHALInstrumentationEv"
  },
  {
   "name" : "_ZN7android8hardware4wifi10supplicant4V1_130BpHwSupplicantStaIfaceCallback22_hidl_onEapFailure_1_1EPNS0_10IInterfaceEPNS0_7details16HidlInstrumentorENS3_27ISupplicantStaIfaceCallback12EapErrorCodeE"
  },
  {
   "name" : "_ZN7android8hardware4wifi10supplicant4V1_130BpHwSupplicantStaIfaceCallback23onAuthenticationTimeoutERKNS0_10hidl_arrayIhLj6EJEEE"
  },
  {
   "name" : "_ZN7android8hardware4wifi10supplicant4V1_130BpHwSupplicantStaIfaceCallback26onHs20DeauthImminentNoticeERKNS0_10hidl_arrayIhLj6EJEEEjjRKNS0_11hidl_stringE"
  },
  {
   "name" : "_ZN7android8hardware4wifi10supplicant4V1_130BpHwSupplicantStaIfaceCallback29onHs20SubscriptionRemediationERKNS0_10hidl_arrayIhLj6EJEEENS2_4V1_027ISupplicantStaIfaceCallback9OsuMethodERKNS0_11hidl_stringE"
  },
  {
   "name" : "_ZN7android8hardware4wifi10supplicant4V1_130BpHwSupplicantStaIfaceCallback4pingEv"
  },
  {
   "name" : "_ZN7android8hardware4wifi10supplicant4V1_130BpHwSupplicantStaIfaceCallback5debugERKNS0_11hidl_handleERKNS0_8hidl_vecINS0_11hidl_stringEEE"
  },
  {
   "name" : "_ZN7android8hardware4wifi10supplicant4V1_130BpHwSupplicantStaIfaceCallbackC1ERKNS_2spINS0_7IBinderEEE"
  },
  {
   "name" : "_ZN7android8hardware4wifi10supplicant4V1_130BpHwSupplicantStaIfaceCallbackC2ERKNS_2spINS0_7IBinderEEE"
  },
  {
   "binding" : "weak",
   "name" : "_ZN7android8hardware7details13castInterfaceINS0_4wifi10supplicant4V1_111ISupplicantENS4_4V1_011ISupplicantENS5_14BpHwSupplicantEEENS0_6ReturnINS_2spIT_EEEENSB_IT0_EEPKcb"
  },
  {
   "binding" : "weak",
   "name" : "_ZN7android8hardware7details13castInterfaceINS0_4wifi10supplicant4V1_111ISupplicantENS_4hidl4base4V1_05IBaseENS5_14BpHwSupplicantEEENS0_6ReturnINS_2spIT_EEEENSD_IT0_EEPKcb"
  },
  {
   "binding" : "weak",
   "name" : "_ZN7android8hardware7details13castInterfaceINS0_4wifi10supplicant4V1_119ISupplicantStaIfaceENS4_4V1_016ISupplicantIfaceENS5_22BpHwSupplicantStaIfaceEEENS0_6ReturnINS_2spIT_EEEENSB_IT0_EEPKcb"
  },
  {
   "binding" : "weak",
   "name" : "_ZN7android8hardware7details13castInterfaceINS0_4wifi10supplicant4V1_119ISupplicantStaIfaceENS4_4V1_019ISupplicantStaIfaceENS5_22BpHwSupplicantStaIfaceEEENS0_6ReturnINS_2spIT_EEEENSB_IT0_EEPKcb"
  },
  {
   "binding" : "weak",
   "name" : "_ZN7android8hardware7details13castInterfaceINS0_4wifi10supplicant4V1_119ISupplicantStaIfaceENS_4hidl4base4V1_05IBaseENS5_22BpHwSupplicantStaIfaceEEENS0_6ReturnINS_2spIT_EEEENSD_IT0_EEPKcb"
  },
  {
   "binding" : "weak",
   "name" : "_ZN7android8hardware7details13castInterfaceINS0_4wifi10supplicant4V1_121ISupplicantStaNetworkENS4_4V1_018ISupplicantNetworkENS5_24BpHwSupplicantStaNetworkEEENS0_6ReturnINS_2spIT_EEEENSB_IT0_EEPKcb"
  },
  {
   "binding" : "weak",
   "name" : "_ZN7android8hardware7details13castInterfaceINS0_4wifi10supplicant4V1_121ISupplicantStaNetworkENS4_4V1_021ISupplicantStaNetworkENS5_24BpHwSupplicantStaNetworkEEENS0_6ReturnINS_2spIT_EEEENSB_IT0_EEPKcb"
  },
  {
   "binding" : "weak",
   "name" : "_ZN7android8hardware7details13castInterfaceINS0_4wifi10supplicant4V1_121ISupplicantStaNetworkENS_4hidl4base4V1_05IBaseENS5_24BpHwSupplicantStaNetworkEEENS0_6ReturnINS_2spIT_EEEENSD_IT0_EEPKcb"
  },
  {
   "binding" : "weak",
   "name" : "_ZN7android8hardware7details13castInterfaceINS0_4wifi10supplicant4V1_127ISupplicantStaIfaceCallbackENS4_4V1_027ISupplicantStaIfaceCallbackENS5_30BpHwSupplicantStaIfaceCallbackEEENS0_6ReturnINS_2spIT_EEEENSB_IT0_EEPKcb"
  },
  {
   "binding" : "weak",
   "name" : "_ZN7android8hardware7details13castInterfaceINS0_4wifi10supplicant4V1_127ISupplicantStaIfaceCallbackENS_4hidl4base4V1_05IBaseENS5_30BpHwSupplicantStaIfaceCallbackEEENS0_6ReturnINS_2spIT_EEEENSD_IT0_EEPKcb"
  },
  {
   "binding" : "weak",
   "name" : "_ZN7android8hardware7details15wrapPassthroughINS0_4wifi10supplicant4V1_016ISupplicantIfaceEvEENS_2spIT_EES9_"
  },
  {
   "binding" : "weak",
   "name" : "_ZN7android8hardware7details15wrapPassthroughINS0_4wifi10supplicant4V1_018ISupplicantNetworkEvEENS_2spIT_EES9_"
  },
  {
   "binding" : "weak",
   "name" : "_ZN7android8hardware7details15wrapPassthroughINS0_4wifi10supplicant4V1_019ISupplicantCallbackEvEENS_2spIT_EES9_"
  },
  {
   "binding" : "weak",
   "name" : "_ZN7android8hardware7details15wrapPassthroughINS0_4wifi10supplicant4V1_027ISupplicantStaIfaceCallbackEvEENS_2spIT_EES9_"
  },
  {
   "binding" : "weak",
   "name" : "_ZN7android8hardware7details15wrapPassthroughINS0_4wifi10supplicant4V1_029ISupplicantStaNetworkCallbackEvEENS_2spIT_EES9_"
  },
  {
   "binding" : "weak",
   "name" : "_ZN7android8hardware7details15wrapPassthroughINS0_4wifi10supplicant4V1_127ISupplicantStaIfaceCallbackEvEENS_2spIT_EES9_"
  },
  {
   "binding" : "weak",
   "name" : "_ZN7android8hardware7details18getServiceInternalINS0_4wifi10supplicant4V1_114BpHwSupplicantENS5_11ISupplicantEvvEENS_2spIT0_EERKNSt3__112basic_stringIcNSB_11char_traitsIcEENSB_9allocatorIcEEEEbb"
  },
  {
   "binding" : "weak",
   "name" : "_ZN7android8hardware7details18getServiceInternalINS0_4wifi10supplicant4V1_122BpHwSupplicantStaIfaceENS5_19ISupplicantStaIfaceEvvEENS_2spIT0_EERKNSt3__112basic_stringIcNSB_11char_traitsIcEENSB_9allocatorIcEEEEbb"
  },
  {
   "binding" : "weak",
   "name" : "_ZN7android8hardware7details18getServiceInternalINS0_4wifi10supplicant4V1_124BpHwSupplicantStaNetworkENS5_21ISupplicantStaNetworkEvvEENS_2spIT0_EERKNSt3__112basic_stringIcNSB_11char_traitsIcEENSB_9allocatorIcEEEEbb"
  },
  {
   "binding" : "weak",
   "name" : "_ZN7android8hardware7details18getServiceInternalINS0_4wifi10supplicant4V1_130BpHwSupplicantStaIfaceCallbackENS5_27ISupplicantStaIfaceCallbackEvvEENS_2spIT0_EERKNSt3__112basic_stringIcNSB_11char_traitsIcEENSB_9allocatorIcEEEEbb"
  },
  {
   "binding" : "weak",
   "name" : "_ZNKSt3__18functionIFvN7android8hardware7details16HidlInstrumentor20InstrumentationEventEPKcS7_S7_S7_PNS_6vectorIPvNS_9allocatorIS9_EEEEEEclES5_S7_S7_S7_S7_SD_"
  },
  {
   "binding" : "weak",
   "name" : "_ZNSt3__113__tree_removeIPNS_16__tree_node_baseIPvEEEEvT_S5_"
  },
  {
   "binding" : "weak",
   "name" : "_ZNSt3__127__tree_balance_after_insertIPNS_16__tree_node_baseIPvEEEEvT_S5_"
  },
  {
   "binding" : "weak",
   "name" : "_ZNSt3__16__treeINS_12__value_typeINS_12basic_stringIcNS_11char_traitsIcEENS_9allocatorIcEEEENS_8functionIFN7android2spINS9_4hidl4base4V1_05IBaseEEEPvEEEEENS_19__map_value_compareIS7_SJ_NS_4lessIS7_EELb1EEENS5_ISJ_EEE12__find_equalIS7_EERPNS_16__tree_node_baseISG_EERPNS_15__tree_end_nodeIST_EERKT_"
  },
  {
   "binding" : "weak",
   "name" : "_ZNSt3__16__treeINS_12__value_typeINS_12basic_stringIcNS_11char_traitsIcEENS_9allocatorIcEEEENS_8functionIFN7android2spINS9_4hidl4base4V1_05IBaseEEEPvEEEEENS_19__map_value_compareIS7_SJ_NS_4lessIS7_EELb1EEENS5_ISJ_EEE4findIS7_EENS_15__tree_iteratorISJ_PNS_11__tree_nodeISJ_SG_EEiEERKT_"
  },
  {
   "binding" : "weak",
   "name" : "_ZNSt3__16__treeINS_12__value_typeINS_12basic_stringIcNS_11char_traitsIcEENS_9allocatorIcEEEENS_8functionIFN7android2spINS9_4hidl4base4V1_05IBaseEEEPvEEEEENS_19__map_value_compareIS7_SJ_NS_4lessIS7_EELb1EEENS5_ISJ_EEE5eraseENS_21__tree_const_iteratorISJ_PNS_11__tree_nodeISJ_SG_EEiEE"
  },
  {
   "binding" : "weak",
   "name" : "_ZNSt3__16__treeINS_12__value_typeINS_12basic_stringIcNS_11char_traitsIcEENS_9allocatorIcEEEENS_8functionIFN7android2spINS9_8hardware7IBinderEEEPvEEEEENS_19__map_value_compareIS7_SH_NS_4lessIS7_EELb1EEENS5_ISH_EEE12__find_equalIS7_EERPNS_16__tree_node_baseISE_EERPNS_15__tree_end_nodeISR_EERKT_"
  },
  {
   "binding" : "weak",
   "name" : "_ZNSt3__16__treeINS_12__value_typeINS_12basic_stringIcNS_11char_traitsIcEENS_9allocatorIcEEEENS_8functionIFN7android2spINS9_8hardware7IBinderEEEPvEEEEENS_19__map_value_compareIS7_SH_NS_4lessIS7_EELb1EEENS5_ISH_EEE4findIS7_EENS_15__tree_iteratorISH_PNS_11__tree_nodeISH_SE_EEiEERKT_"
  },
  {
   "binding" : "weak",
   "name" : "_ZNSt3__16__treeINS_12__value_typeINS_12basic_stringIcNS_11char_traitsIcEENS_9allocatorIcEEEENS_8functionIFN7android2spINS9_8hardware7IBinderEEEPvEEEEENS_19__map_value_compareIS7_SH_NS_4lessIS7_EELb1EEENS5_ISH_EEE5eraseENS_21__tree_const_iteratorISH_PNS_11__tree_nodeISH_SE_EEiEE"
  },
  {
   "binding" : "weak",
   "name" : "_ZNSt3__16vectorIN7android2spINS1_8hardware27hidl_binder_death_recipientEEENS_9allocatorIS5_EEE21__push_back_slow_pathIS5_EEvOT_"
  },
  {
   "binding" : "weak",
   "name" : "_ZNSt3__16vectorINS_8functionIFvN7android8hardware7details16HidlInstrumentor20InstrumentationEventEPKcS8_S8_S8_PNS0_IPvNS_9allocatorIS9_EEEEEEENSA_ISF_EEEC2ERKSH_"
  },
  {
   "binding" : "weak",
   "name" : "_ZNSt3__16vectorIPvNS_9allocatorIS1_EEE21__push_back_slow_pathIS1_EEvOT_"
  },
  {
   "name" : "_ZThn20_N7android8hardware4wifi10supplicant4V1_114BnHwSupplicantD0Ev"
  },
  {
   "name" : "_ZThn20_N7android8hardware4wifi10supplicant4V1_114BnHwSupplicantD1Ev"
  },
  {
   "name" : "_ZThn20_N7android8hardware4wifi10supplicant4V1_122BnHwSupplicantStaIfaceD0Ev"
  },
  {
   "name" : "_ZThn20_N7android8hardware4wifi10supplicant4V1_122BnHwSupplicantStaIfaceD1Ev"
  },
  {
   "name" : "_ZThn20_N7android8hardware4wifi10supplicant4V1_124BnHwSupplicantStaNetworkD0Ev"
  },
  {
   "name" : "_ZThn20_N7android8hardware4wifi10supplicant4V1_124BnHwSupplicantStaNetworkD1Ev"
  },
  {
   "name" : "_ZThn20_N7android8hardware4wifi10supplicant4V1_130BnHwSupplicantStaIfaceCallbackD0Ev"
  },
  {
   "name" : "_ZThn20_N7android8hardware4wifi10supplicant4V1_130BnHwSupplicantStaIfaceCallbackD1Ev"
  },
  {
   "name" : "_ZThn8_N7android8hardware4wifi10supplicant4V1_114BpHwSupplicant15onLastStrongRefEPKv"
  },
  {
   "name" : "_ZThn8_N7android8hardware4wifi10supplicant4V1_122BpHwSupplicantStaIface15onLastStrongRefEPKv"
  },
  {
   "name" : "_ZThn8_N7android8hardware4wifi10supplicant4V1_124BpHwSupplicantStaNetwork15onLastStrongRefEPKv"
  },
  {
   "name" : "_ZThn8_N7android8hardware4wifi10supplicant4V1_130BpHwSupplicantStaIfaceCallback15onLastStrongRefEPKv"
  },
  {
   "name" : "_ZTv0_n12_N7android8hardware4wifi10supplicant4V1_114BnHwSupplicantD0Ev"
  },
  {
   "name" : "_ZTv0_n12_N7android8hardware4wifi10supplicant4V1_114BnHwSupplicantD1Ev"
  },
  {
   "name" : "_ZTv0_n12_N7android8hardware4wifi10supplicant4V1_122BnHwSupplicantStaIfaceD0Ev"
  },
  {
   "name" : "_ZTv0_n12_N7android8hardware4wifi10supplicant4V1_122BnHwSupplicantStaIfaceD1Ev"
  },
  {
   "name" : "_ZTv0_n12_N7android8hardware4wifi10supplicant4V1_124BnHwSupplicantStaNetworkD0Ev"
  },
  {
   "name" : "_ZTv0_n12_N7android8hardware4wifi10supplicant4V1_124BnHwSupplicantStaNetworkD1Ev"
  },
  {
   "name" : "_ZTv0_n12_N7android8hardware4wifi10supplicant4V1_130BnHwSupplicantStaIfaceCallbackD0Ev"
  },
  {
   "name" : "_ZTv0_n12_N7android8hardware4wifi10supplicant4V1_130BnHwSupplicantStaIfaceCallbackD1Ev"
  },
  {
   "name" : "_ZTv0_n20_N7android8hardware4wifi10supplicant4V1_114BpHwSupplicant15onLastStrongRefEPKv"
  },
  {
   "name" : "_ZTv0_n20_N7android8hardware4wifi10supplicant4V1_122BpHwSupplicantStaIface15onLastStrongRefEPKv"
  },
  {
   "name" : "_ZTv0_n20_N7android8hardware4wifi10supplicant4V1_124BpHwSupplicantStaNetwork15onLastStrongRefEPKv"
  },
  {
   "name" : "_ZTv0_n20_N7android8hardware4wifi10supplicant4V1_130BpHwSupplicantStaIfaceCallback15onLastStrongRefEPKv"
  }
 ],
 "elf_objects" :
 [
  {
   "name" : "_ZN7android8hardware4wifi10supplicant4V1_111ISupplicant10descriptorE"
  },
  {
   "name" : "_ZN7android8hardware4wifi10supplicant4V1_119ISupplicantStaIface10descriptorE"
  },
  {
   "name" : "_ZN7android8hardware4wifi10supplicant4V1_121ISupplicantStaNetwork10descriptorE"
  },
  {
   "name" : "_ZN7android8hardware4wifi10supplicant4V1_127ISupplicantStaIfaceCallback10descriptorE"
  },
  {
   "name" : "_ZTCN7android8hardware4wifi10supplicant4V1_111ISupplicantE0_NS2_4V1_011ISupplicantE"
  },
  {
   "name" : "_ZTCN7android8hardware4wifi10supplicant4V1_111ISupplicantE0_NS_4hidl4base4V1_05IBaseE"
  },
  {
   "binding" : "weak",
   "name" : "_ZTCN7android8hardware4wifi10supplicant4V1_112BsSupplicantE0_NS3_11ISupplicantE"
  },
  {
   "name" : "_ZTCN7android8hardware4wifi10supplicant4V1_114BnHwSupplicantE0_NS0_7IBinderE"
  },
  {
   "name" : "_ZTCN7android8hardware4wifi10supplicant4V1_114BnHwSupplicantE0_NS0_9BHwBinderE"
  },
  {
   "name" : "_ZTCN7android8hardware4wifi10supplicant4V1_114BnHwSupplicantE0_NS_4hidl4base4V1_08BnHwBaseE"
  },
  {
   "name" : "_ZTCN7android8hardware4wifi10supplicant4V1_114BpHwSupplicantE0_NS0_11BpInterfaceINS3_11ISupplicantEEE"
  },
  {
   "name" : "_ZTCN7android8hardware4wifi10supplicant4V1_114BpHwSupplicantE0_NS2_4V1_011ISupplicantE"
  },
  {
   "name" : "_ZTCN7android8hardware4wifi10supplicant4V1_114BpHwSupplicantE0_NS3_11ISupplicantE"
  },
  {
   "name" : "_ZTCN7android8hardware4wifi10supplicant4V1_114BpHwSupplicantE0_NS_4hidl4base4V1_05IBaseE"
  },
  {
   "name" : "_ZTCN7android8hardware4wifi10supplicant4V1_114BpHwSupplicantE4_NS0_10IInterfaceE"
  },
  {
   "name" : "_ZTCN7android8hardware4wifi10supplicant4V1_114BpHwSupplicantE8_NS0_11BpHwRefBaseE"
  },
  {
   "name" : "_ZTCN7android8hardware4wifi10supplicant4V1_119ISupplicantStaIfaceE0_NS2_4V1_016ISupplicantIfaceE"
  },
  {
   "name" : "_ZTCN7android8hardware4wifi10supplicant4V1_119ISupplicantStaIfaceE0_NS2_4V1_019ISupplicantStaIfaceE"
  },
  {
   "name" : "_ZTCN7android8hardware4wifi10supplicant4V1_119ISupplicantStaIfaceE0_NS_4hidl4base4V1_05IBaseE"
  },
  {
   "binding" : "weak",
   "name" : "_ZTCN7android8hardware4wifi10supplicant4V1_120BsSupplicantStaIfaceE0_NS3_19ISupplicantStaIfaceE"
  },
  {
   "name" : "_ZTCN7android8hardware4wifi10supplicant4V1_121ISupplicantStaNetworkE0_NS2_4V1_018ISupplicantNetworkE"
  },
  {
   "name" : "_ZTCN7android8hardware4wifi10supplicant4V1_121ISupplicantStaNetworkE0_NS2_4V1_021ISupplicantStaNetworkE"
  },
  {
   "name" : "_ZTCN7android8hardware4wifi10supplicant4V1_121ISupplicantStaNetworkE0_NS_4hidl4base4V1_05IBaseE"
  },
  {
   "name" : "_ZTCN7android8hardware4wifi10supplicant4V1_122BnHwSupplicantStaIfaceE0_NS0_7IBinderE"
  },
  {
   "name" : "_ZTCN7android8hardware4wifi10supplicant4V1_122BnHwSupplicantStaIfaceE0_NS0_9BHwBinderE"
  },
  {
   "name" : "_ZTCN7android8hardware4wifi10supplicant4V1_122BnHwSupplicantStaIfaceE0_NS_4hidl4base4V1_08BnHwBaseE"
  },
  {
   "name" : "_ZTCN7android8hardware4wifi10supplicant4V1_122BpHwSupplicantStaIfaceE0_NS0_11BpInterfaceINS3_19ISupplicantStaIfaceEEE"
  },
  {
   "name" : "_ZTCN7android8hardware4wifi10supplicant4V1_122BpHwSupplicantStaIfaceE0_NS2_4V1_016ISupplicantIfaceE"
  },
  {
   "name" : "_ZTCN7android8hardware4wifi10supplicant4V1_122BpHwSupplicantStaIfaceE0_NS2_4V1_019ISupplicantStaIfaceE"
  },
  {
   "name" : "_ZTCN7android8hardware4wifi10supplicant4V1_122BpHwSupplicantStaIfaceE0_NS3_19ISupplicantStaIfaceE"
  },
  {
   "name" : "_ZTCN7android8hardware4wifi10supplicant4V1_122BpHwSupplicantStaIfaceE0_NS_4hidl4base4V1_05IBaseE"
  },
  {
   "name" : "_ZTCN7android8hardware4wifi10supplicant4V1_122BpHwSupplicantStaIfaceE4_NS0_10IInterfaceE"
  },
  {
   "name" : "_ZTCN7android8hardware4wifi10supplicant4V1_122BpHwSupplicantStaIfaceE8_NS0_11BpHwRefBaseE"
  },
  {
   "binding" : "weak",
   "name" : "_ZTCN7android8hardware4wifi10supplicant4V1_122BsSupplicantStaNetworkE0_NS3_21ISupplicantStaNetworkE"
  },
  {
   "name" : "_ZTCN7android8hardware4wifi10supplicant4V1_124BnHwSupplicantStaNetworkE0_NS0_7IBinderE"
  },
  {
   "name" : "_ZTCN7android8hardware4wifi10supplicant4V1_124BnHwSupplicantStaNetworkE0_NS0_9BHwBinderE"
  },
  {
   "name" : "_ZTCN7android8hardware4wifi10supplicant4V1_124BnHwSupplicantStaNetworkE0_NS_4hidl4base4V1_08BnHwBaseE"
  },
  {
   "name" : "_ZTCN7android8hardware4wifi10supplicant4V1_124BpHwSupplicantStaNetworkE0_NS0_11BpInterfaceINS3_21ISupplicantStaNetworkEEE"
  },
  {
   "name" : "_ZTCN7android8hardware4wifi10supplicant4V1_124BpHwSupplicantStaNetworkE0_NS2_4V1_018ISupplicantNetworkE"
  },
  {
   "name" : "_ZTCN7android8hardware4wifi10supplicant4V1_124BpHwSupplicantStaNetworkE0_NS2_4V1_021ISupplicantStaNetworkE"
  },
  {
   "name" : "_ZTCN7android8hardware4wifi10supplicant4V1_124BpHwSupplicantStaNetworkE0_NS3_21ISupplicantStaNetworkE"
  },
  {
   "name" : "_ZTCN7android8hardware4wifi10supplicant4V1_124BpHwSupplicantStaNetworkE0_NS_4hidl4base4V1_05IBaseE"
  },
  {
   "name" : "_ZTCN7android8hardware4wifi10supplicant4V1_124BpHwSupplicantStaNetworkE4_NS0_10IInterfaceE"
  },
  {
   "name" : "_ZTCN7android8hardware4wifi10supplicant4V1_124BpHwSupplicantStaNetworkE8_NS0_11BpHwRefBaseE"
  },
  {
   "name" : "_ZTCN7android8hardware4wifi10supplicant4V1_127ISupplicantStaIfaceCallbackE0_NS2_4V1_027ISupplicantStaIfaceCallbackE"
  },
  {
   "name" : "_ZTCN7android8hardware4wifi10supplicant4V1_127ISupplicantStaIfaceCallbackE0_NS_4hidl4base4V1_05IBaseE"
  },
  {
   "binding" : "weak",
   "name" : "_ZTCN7android8hardware4wifi10supplicant4V1_128BsSupplicantStaIfaceCallbackE0_NS3_27ISupplicantStaIfaceCallbackE"
  },
  {
   "name" : "_ZTCN7android8hardware4wifi10supplicant4V1_130BnHwSupplicantStaIfaceCallbackE0_NS0_7IBinderE"
  },
  {
   "name" : "_ZTCN7android8hardware4wifi10supplicant4V1_130BnHwSupplicantStaIfaceCallbackE0_NS0_9BHwBinderE"
  },
  {
   "name" : "_ZTCN7android8hardware4wifi10supplicant4V1_130BnHwSupplicantStaIfaceCallbackE0_NS_4hidl4base4V1_08BnHwBaseE"
  },
  {
   "name" : "_ZTCN7android8hardware4wifi10supplicant4V1_130BpHwSupplicantStaIfaceCallbackE0_NS0_11BpInterfaceINS3_27ISupplicantStaIfaceCallbackEEE"
  },
  {
   "name" : "_ZTCN7android8hardware4wifi10supplicant4V1_130BpHwSupplicantStaIfaceCallbackE0_NS2_4V1_027ISupplicantStaIfaceCallbackE"
  },
  {
   "name" : "_ZTCN7android8hardware4wifi10supplicant4V1_130BpHwSupplicantStaIfaceCallbackE0_NS3_27ISupplicantStaIfaceCallbackE"
  },
  {
   "name" : "_ZTCN7android8hardware4wifi10supplicant4V1_130BpHwSupplicantStaIfaceCallbackE0_NS_4hidl4base4V1_05IBaseE"
  },
  {
   "name" : "_ZTCN7android8hardware4wifi10supplicant4V1_130BpHwSupplicantStaIfaceCallbackE4_NS0_10IInterfaceE"
  },
  {
   "name" : "_ZTCN7android8hardware4wifi10supplicant4V1_130BpHwSupplicantStaIfaceCallbackE8_NS0_11BpHwRefBaseE"
  },
  {
   "name" : "_ZTTN7android8hardware4wifi10supplicant4V1_111ISupplicantE"
  },
  {
   "name" : "_ZTTN7android8hardware4wifi10supplicant4V1_114BnHwSupplicantE"
  },
  {
   "name" : "_ZTTN7android8hardware4wifi10supplicant4V1_114BpHwSupplicantE"
  },
  {
   "name" : "_ZTTN7android8hardware4wifi10supplicant4V1_119ISupplicantStaIfaceE"
  },
  {
   "name" : "_ZTTN7android8hardware4wifi10supplicant4V1_121ISupplicantStaNetworkE"
  },
  {
   "name" : "_ZTTN7android8hardware4wifi10supplicant4V1_122BnHwSupplicantStaIfaceE"
  },
  {
   "name" : "_ZTTN7android8hardware4wifi10supplicant4V1_122BpHwSupplicantStaIfaceE"
  },
  {
   "name" : "_ZTTN7android8hardware4wifi10supplicant4V1_124BnHwSupplicantStaNetworkE"
  },
  {
   "name" : "_ZTTN7android8hardware4wifi10supplicant4V1_124BpHwSupplicantStaNetworkE"
  },
  {
   "name" : "_ZTTN7android8hardware4wifi10supplicant4V1_127ISupplicantStaIfaceCallbackE"
  },
  {
   "name" : "_ZTTN7android8hardware4wifi10supplicant4V1_130BnHwSupplicantStaIfaceCallbackE"
  },
  {
   "name" : "_ZTTN7android8hardware4wifi10supplicant4V1_130BpHwSupplicantStaIfaceCallbackE"
  },
  {
   "name" : "_ZTVN7android8hardware4wifi10supplicant4V1_111ISupplicantE"
  },
  {
   "binding" : "weak",
   "name" : "_ZTVN7android8hardware4wifi10supplicant4V1_112BsSupplicantE"
  },
  {
   "name" : "_ZTVN7android8hardware4wifi10supplicant4V1_114BnHwSupplicantE"
  },
  {
   "name" : "_ZTVN7android8hardware4wifi10supplicant4V1_114BpHwSupplicantE"
  },
  {
   "name" : "_ZTVN7android8hardware4wifi10supplicant4V1_119ISupplicantStaIfaceE"
  },
  {
   "binding" : "weak",
   "name" : "_ZTVN7android8hardware4wifi10supplicant4V1_120BsSupplicantStaIfaceE"
  },
  {
   "name" : "_ZTVN7android8hardware4wifi10supplicant4V1_121ISupplicantStaNetworkE"
  },
  {
   "name" : "_ZTVN7android8hardware4wifi10supplicant4V1_122BnHwSupplicantStaIfaceE"
  },
  {
   "name" : "_ZTVN7android8hardware4wifi10supplicant4V1_122BpHwSupplicantStaIfaceE"
  },
  {
   "binding" : "weak",
   "name" : "_ZTVN7android8hardware4wifi10supplicant4V1_122BsSupplicantStaNetworkE"
  },
  {
   "name" : "_ZTVN7android8hardware4wifi10supplicant4V1_124BnHwSupplicantStaNetworkE"
  },
  {
   "name" : "_ZTVN7android8hardware4wifi10supplicant4V1_124BpHwSupplicantStaNetworkE"
  },
  {
   "name" : "_ZTVN7android8hardware4wifi10supplicant4V1_127ISupplicantStaIfaceCallbackE"
  },
  {
   "binding" : "weak",
   "name" : "_ZTVN7android8hardware4wifi10supplicant4V1_128BsSupplicantStaIfaceCallbackE"
  },
  {
   "name" : "_ZTVN7android8hardware4wifi10supplicant4V1_130BnHwSupplicantStaIfaceCallbackE"
  },
  {
   "name" : "_ZTVN7android8hardware4wifi10supplicant4V1_130BpHwSupplicantStaIfaceCallbackE"
  }
 ],
 "enum_types" :
 [
  {
   "alignment" : 4,
   "enum_fields" :
   [
    {
     "enum_field_value" : 1,
     "name" : "HAL_HDR_DOLBY_VISION"
    },
    {
     "enum_field_value" : 2,
     "name" : "HAL_HDR_HDR10"
    },
    {
     "enum_field_value" : 3,
     "name" : "HAL_HDR_HLG"
    }
   ],
   "linker_set_key" : "_ZTI13android_hdr_t",
   "name" : "android_hdr_t",
   "referenced_type" : "_ZTI13android_hdr_t",
   "self_type" : "_ZTI13android_hdr_t",
   "size" : 4,
   "source_file" : "/system/core/libsystem/include/system/graphics-base-v1.0.h",
   "underlying_type" : "_ZTIj"
  },
  {
   "alignment" : 4,
   "enum_fields" :
   [
    {
     "enum_field_value" : 4,
     "name" : "HAL_HDR_HDR10_PLUS"
    }
   ],
   "linker_set_key" : "_ZTI18android_hdr_v1_2_t",
   "name" : "android_hdr_v1_2_t",
   "referenced_type" : "_ZTI18android_hdr_v1_2_t",
   "self_type" : "_ZTI18android_hdr_v1_2_t",
   "size" : 4,
   "source_file" : "/system/core/libsystem/include/system/graphics-base-v1.2.h",
   "underlying_type" : "_ZTIj"
  },
  {
   "alignment" : 4,
   "enum_fields" :
   [
    {
     "enum_field_value" : 0,
     "name" : "ANDROID_LOG_UNKNOWN"
    },
    {
     "enum_field_value" : 1,
     "name" : "ANDROID_LOG_DEFAULT"
    },
    {
     "enum_field_value" : 2,
     "name" : "ANDROID_LOG_VERBOSE"
    },
    {
     "enum_field_value" : 3,
     "name" : "ANDROID_LOG_DEBUG"
    },
    {
     "enum_field_value" : 4,
     "name" : "ANDROID_LOG_INFO"
    },
    {
     "enum_field_value" : 5,
     "name" : "ANDROID_LOG_WARN"
    },
    {
     "enum_field_value" : 6,
     "name" : "ANDROID_LOG_ERROR"
    },
    {
     "enum_field_value" : 7,
     "name" : "ANDROID_LOG_FATAL"
    },
    {
     "enum_field_value" : 8,
     "name" : "ANDROID_LOG_SILENT"
    }
   ],
   "linker_set_key" : "_ZTI19android_LogPriority",
   "name" : "android_LogPriority",
   "referenced_type" : "_ZTI19android_LogPriority",
   "self_type" : "_ZTI19android_LogPriority",
   "size" : 4,
   "source_file" : "/system/core/liblog/include/android/log.h",
   "underlying_type" : "_ZTIj"
  },
  {
   "alignment" : 4,
   "enum_fields" :
   [
    {
     "enum_field_value" : 0,
     "name" : "HAL_DATASPACE_UNKNOWN"
    },
    {
     "enum_field_value" : 1,
     "name" : "HAL_DATASPACE_ARBITRARY"
    },
    {
     "enum_field_value" : 16,
     "name" : "HAL_DATASPACE_STANDARD_SHIFT"
    },
    {
     "enum_field_value" : 4128768,
     "name" : "HAL_DATASPACE_STANDARD_MASK"
    },
    {
     "enum_field_value" : 0,
     "name" : "HAL_DATASPACE_STANDARD_UNSPECIFIED"
    },
    {
     "enum_field_value" : 65536,
     "name" : "HAL_DATASPACE_STANDARD_BT709"
    },
    {
     "enum_field_value" : 131072,
     "name" : "HAL_DATASPACE_STANDARD_BT601_625"
    },
    {
     "enum_field_value" : 196608,
     "name" : "HAL_DATASPACE_STANDARD_BT601_625_UNADJUSTED"
    },
    {
     "enum_field_value" : 262144,
     "name" : "HAL_DATASPACE_STANDARD_BT601_525"
    },
    {
     "enum_field_value" : 327680,
     "name" : "HAL_DATASPACE_STANDARD_BT601_525_UNADJUSTED"
    },
    {
     "enum_field_value" : 393216,
     "name" : "HAL_DATASPACE_STANDARD_BT2020"
    },
    {
     "enum_field_value" : 458752,
     "name" : "HAL_DATASPACE_STANDARD_BT2020_CONSTANT_LUMINANCE"
    },
    {
     "enum_field_value" : 524288,
     "name" : "HAL_DATASPACE_STANDARD_BT470M"
    },
    {
     "enum_field_value" : 589824,
     "name" : "HAL_DATASPACE_STANDARD_FILM"
    },
    {
     "enum_field_value" : 655360,
     "name" : "HAL_DATASPACE_STANDARD_DCI_P3"
    },
    {
     "enum_field_value" : 720896,
     "name" : "HAL_DATASPACE_STANDARD_ADOBE_RGB"
    },
    {
     "enum_field_value" : 22,
     "name" : "HAL_DATASPACE_TRANSFER_SHIFT"
    },
    {
     "enum_field_value" : 130023424,
     "name" : "HAL_DATASPACE_TRANSFER_MASK"
    },
    {
     "enum_field_value" : 0,
     "name" : "HAL_DATASPACE_TRANSFER_UNSPECIFIED"
    },
    {
     "enum_field_value" : 4194304,
     "name" : "HAL_DATASPACE_TRANSFER_LINEAR"
    },
    {
     "enum_field_value" : 8388608,
     "name" : "HAL_DATASPACE_TRANSFER_SRGB"
    },
    {
     "enum_field_value" : 12582912,
     "name" : "HAL_DATASPACE_TRANSFER_SMPTE_170M"
    },
    {
     "enum_field_value" : 16777216,
     "name" : "HAL_DATASPACE_TRANSFER_GAMMA2_2"
    },
    {
     "enum_field_value" : 20971520,
     "name" : "HAL_DATASPACE_TRANSFER_GAMMA2_6"
    },
    {
     "enum_field_value" : 25165824,
     "name" : "HAL_DATASPACE_TRANSFER_GAMMA2_8"
    },
    {
     "enum_field_value" : 29360128,
     "name" : "HAL_DATASPACE_TRANSFER_ST2084"
    },
    {
     "enum_field_value" : 33554432,
     "name" : "HAL_DATASPACE_TRANSFER_HLG"
    },
    {
     "enum_field_value" : 27,
     "name" : "HAL_DATASPACE_RANGE_SHIFT"
    },
    {
     "enum_field_value" : 939524096,
     "name" : "HAL_DATASPACE_RANGE_MASK"
    },
    {
     "enum_field_value" : 0,
     "name" : "HAL_DATASPACE_RANGE_UNSPECIFIED"
    },
    {
     "enum_field_value" : 134217728,
     "name" : "HAL_DATASPACE_RANGE_FULL"
    },
    {
     "enum_field_value" : 268435456,
     "name" : "HAL_DATASPACE_RANGE_LIMITED"
    },
    {
     "enum_field_value" : 402653184,
     "name" : "HAL_DATASPACE_RANGE_EXTENDED"
    },
    {
     "enum_field_value" : 512,
     "name" : "HAL_DATASPACE_SRGB_LINEAR"
    },
    {
     "enum_field_value" : 138477568,
     "name" : "HAL_DATASPACE_V0_SRGB_LINEAR"
    },
    {
     "enum_field_value" : 406913024,
     "name" : "HAL_DATASPACE_V0_SCRGB_LINEAR"
    },
    {
     "enum_field_value" : 513,
     "name" : "HAL_DATASPACE_SRGB"
    },
    {
     "enum_field_value" : 142671872,
     "name" : "HAL_DATASPACE_V0_SRGB"
    },
    {
     "enum_field_value" : 411107328,
     "name" : "HAL_DATASPACE_V0_SCRGB"
    },
    {
     "enum_field_value" : 257,
     "name" : "HAL_DATASPACE_JFIF"
    },
    {
     "enum_field_value" : 146931712,
     "name" : "HAL_DATASPACE_V0_JFIF"
    },
    {
     "enum_field_value" : 258,
     "name" : "HAL_DATASPACE_BT601_625"
    },
    {
     "enum_field_value" : 281149440,
     "name" : "HAL_DATASPACE_V0_BT601_625"
    },
    {
     "enum_field_value" : 259,
     "name" : "HAL_DATASPACE_BT601_525"
    },
    {
     "enum_field_value" : 281280512,
     "name" : "HAL_DATASPACE_V0_BT601_525"
    },
    {
     "enum_field_value" : 260,
     "name" : "HAL_DATASPACE_BT709"
    },
    {
     "enum_field_value" : 281083904,
     "name" : "HAL_DATASPACE_V0_BT709"
    },
    {
     "enum_field_value" : 139067392,
     "name" : "HAL_DATASPACE_DCI_P3_LINEAR"
    },
    {
     "enum_field_value" : 155844608,
     "name" : "HAL_DATASPACE_DCI_P3"
    },
    {
     "enum_field_value" : 139067392,
     "name" : "HAL_DATASPACE_DISPLAY_P3_LINEAR"
    },
    {
     "enum_field_value" : 143261696,
     "name" : "HAL_DATASPACE_DISPLAY_P3"
    },
    {
     "enum_field_value" : 151715840,
     "name" : "HAL_DATASPACE_ADOBE_RGB"
    },
    {
     "enum_field_value" : 138805248,
     "name" : "HAL_DATASPACE_BT2020_LINEAR"
    },
    {
     "enum_field_value" : 147193856,
     "name" : "HAL_DATASPACE_BT2020"
    },
    {
     "enum_field_value" : 163971072,
     "name" : "HAL_DATASPACE_BT2020_PQ"
    },
    {
     "enum_field_value" : 4096,
     "name" : "HAL_DATASPACE_DEPTH"
    },
    {
     "enum_field_value" : 4097,
     "name" : "HAL_DATASPACE_SENSOR"
    }
   ],
   "linker_set_key" : "_ZTI19android_dataspace_t",
   "name" : "android_dataspace_t",
   "referenced_type" : "_ZTI19android_dataspace_t",
   "self_type" : "_ZTI19android_dataspace_t",
   "size" : 4,
   "source_file" : "/system/core/libsystem/include/system/graphics-base-v1.0.h",
   "underlying_type" : "_ZTIj"
  },
  {
   "alignment" : 4,
   "enum_fields" :
   [
    {
     "enum_field_value" : 0,
     "name" : "FLEX_FORMAT_INVALID"
    },
    {
     "enum_field_value" : 1,
     "name" : "FLEX_FORMAT_Y"
    },
    {
     "enum_field_value" : 7,
     "name" : "FLEX_FORMAT_YCbCr"
    },
    {
     "enum_field_value" : 1073741831,
     "name" : "FLEX_FORMAT_YCbCrA"
    },
    {
     "enum_field_value" : 7168,
     "name" : "FLEX_FORMAT_RGB"
    },
    {
     "enum_field_value" : 1073748992,
     "name" : "FLEX_FORMAT_RGBA"
    }
   ],
   "linker_set_key" : "_ZTI19android_flex_format",
   "name" : "android_flex_format",
   "referenced_type" : "_ZTI19android_flex_format",
   "self_type" : "_ZTI19android_flex_format",
   "size" : 4,
   "source_file" : "/system/core/libsystem/include/system/graphics.h",
   "underlying_type" : "_ZTIj"
  },
  {
   "alignment" : 4,
   "enum_fields" :
   [
    {
     "enum_field_value" : 1,
     "name" : "HAL_TRANSFORM_FLIP_H"
    },
    {
     "enum_field_value" : 2,
     "name" : "HAL_TRANSFORM_FLIP_V"
    },
    {
     "enum_field_value" : 4,
     "name" : "HAL_TRANSFORM_ROT_90"
    },
    {
     "enum_field_value" : 3,
     "name" : "HAL_TRANSFORM_ROT_180"
    },
    {
     "enum_field_value" : 7,
     "name" : "HAL_TRANSFORM_ROT_270"
    }
   ],
   "linker_set_key" : "_ZTI19android_transform_t",
   "name" : "android_transform_t",
   "referenced_type" : "_ZTI19android_transform_t",
   "self_type" : "_ZTI19android_transform_t",
   "size" : 4,
   "source_file" : "/system/core/libsystem/include/system/graphics-base-v1.0.h",
   "underlying_type" : "_ZTIj"
  },
  {
   "alignment" : 4,
   "enum_fields" :
   [
    {
     "enum_field_value" : 0,
     "name" : "HAL_COLOR_MODE_NATIVE"
    },
    {
     "enum_field_value" : 1,
     "name" : "HAL_COLOR_MODE_STANDARD_BT601_625"
    },
    {
     "enum_field_value" : 2,
     "name" : "HAL_COLOR_MODE_STANDARD_BT601_625_UNADJUSTED"
    },
    {
     "enum_field_value" : 3,
     "name" : "HAL_COLOR_MODE_STANDARD_BT601_525"
    },
    {
     "enum_field_value" : 4,
     "name" : "HAL_COLOR_MODE_STANDARD_BT601_525_UNADJUSTED"
    },
    {
     "enum_field_value" : 5,
     "name" : "HAL_COLOR_MODE_STANDARD_BT709"
    },
    {
     "enum_field_value" : 6,
     "name" : "HAL_COLOR_MODE_DCI_P3"
    },
    {
     "enum_field_value" : 7,
     "name" : "HAL_COLOR_MODE_SRGB"
    },
    {
     "enum_field_value" : 8,
     "name" : "HAL_COLOR_MODE_ADOBE_RGB"
    },
    {
     "enum_field_value" : 9,
     "name" : "HAL_COLOR_MODE_DISPLAY_P3"
    }
   ],
   "linker_set_key" : "_ZTI20android_color_mode_t",
   "name" : "android_color_mode_t",
   "referenced_type" : "_ZTI20android_color_mode_t",
   "self_type" : "_ZTI20android_color_mode_t",
   "size" : 4,
   "source_file" : "/system/core/libsystem/include/system/graphics-base-v1.0.h",
   "underlying_type" : "_ZTIj"
  },
  {
   "alignment" : 4,
   "enum_fields" :
   [
    {
     "enum_field_value" : 0,
     "name" : "SYSTEM_TIME_REALTIME"
    },
    {
     "enum_field_value" : 1,
     "name" : "SYSTEM_TIME_MONOTONIC"
    },
    {
     "enum_field_value" : 2,
     "name" : "SYSTEM_TIME_PROCESS"
    },
    {
     "enum_field_value" : 3,
     "name" : "SYSTEM_TIME_THREAD"
    },
    {
     "enum_field_value" : 4,
     "name" : "SYSTEM_TIME_BOOTTIME"
    }
   ],
   "linker_set_key" : "_ZTI21$SYSTEM_TIME_BOOTTIME",
   "name" : "(anonymous enum at system/core/libutils/include/utils/Timers.h:79:1)",
   "referenced_type" : "_ZTI21$SYSTEM_TIME_BOOTTIME",
   "self_type" : "_ZTI21$SYSTEM_TIME_BOOTTIME",
   "size" : 4,
   "source_file" : "/system/core/libutils/include/utils/Timers.h",
   "underlying_type" : "_ZTIj"
  },
  {
   "alignment" : 4,
   "enum_fields" :
   [
    {
     "enum_field_value" : 1,
     "name" : "FLEX_COMPONENT_Y"
    },
    {
     "enum_field_value" : 2,
     "name" : "FLEX_COMPONENT_Cb"
    },
    {
     "enum_field_value" : 4,
     "name" : "FLEX_COMPONENT_Cr"
    },
    {
     "enum_field_value" : 1024,
     "name" : "FLEX_COMPONENT_R"
    },
    {
     "enum_field_value" : 2048,
     "name" : "FLEX_COMPONENT_G"
    },
    {
     "enum_field_value" : 4096,
     "name" : "FLEX_COMPONENT_B"
    },
    {
     "enum_field_value" : 1073741824,
     "name" : "FLEX_COMPONENT_A"
    }
   ],
   "linker_set_key" : "_ZTI22android_flex_component",
   "name" : "android_flex_component",
   "referenced_type" : "_ZTI22android_flex_component",
   "self_type" : "_ZTI22android_flex_component",
   "size" : 4,
   "source_file" : "/system/core/libsystem/include/system/graphics.h",
   "underlying_type" : "_ZTIj"
  },
  {
   "alignment" : 4,
   "enum_fields" :
   [
    {
     "enum_field_value" : 1,
     "name" : "HAL_PIXEL_FORMAT_RGBA_8888"
    },
    {
     "enum_field_value" : 2,
     "name" : "HAL_PIXEL_FORMAT_RGBX_8888"
    },
    {
     "enum_field_value" : 3,
     "name" : "HAL_PIXEL_FORMAT_RGB_888"
    },
    {
     "enum_field_value" : 4,
     "name" : "HAL_PIXEL_FORMAT_RGB_565"
    },
    {
     "enum_field_value" : 5,
     "name" : "HAL_PIXEL_FORMAT_BGRA_8888"
    },
    {
     "enum_field_value" : 16,
     "name" : "HAL_PIXEL_FORMAT_YCBCR_422_SP"
    },
    {
     "enum_field_value" : 17,
     "name" : "HAL_PIXEL_FORMAT_YCRCB_420_SP"
    },
    {
     "enum_field_value" : 20,
     "name" : "HAL_PIXEL_FORMAT_YCBCR_422_I"
    },
    {
     "enum_field_value" : 22,
     "name" : "HAL_PIXEL_FORMAT_RGBA_FP16"
    },
    {
     "enum_field_value" : 32,
     "name" : "HAL_PIXEL_FORMAT_RAW16"
    },
    {
     "enum_field_value" : 33,
     "name" : "HAL_PIXEL_FORMAT_BLOB"
    },
    {
     "enum_field_value" : 34,
     "name" : "HAL_PIXEL_FORMAT_IMPLEMENTATION_DEFINED"
    },
    {
     "enum_field_value" : 35,
     "name" : "HAL_PIXEL_FORMAT_YCBCR_420_888"
    },
    {
     "enum_field_value" : 36,
     "name" : "HAL_PIXEL_FORMAT_RAW_OPAQUE"
    },
    {
     "enum_field_value" : 37,
     "name" : "HAL_PIXEL_FORMAT_RAW10"
    },
    {
     "enum_field_value" : 38,
     "name" : "HAL_PIXEL_FORMAT_RAW12"
    },
    {
     "enum_field_value" : 43,
     "name" : "HAL_PIXEL_FORMAT_RGBA_1010102"
    },
    {
     "enum_field_value" : 538982489,
     "name" : "HAL_PIXEL_FORMAT_Y8"
    },
    {
     "enum_field_value" : 540422489,
     "name" : "HAL_PIXEL_FORMAT_Y16"
    },
    {
     "enum_field_value" : 842094169,
     "name" : "HAL_PIXEL_FORMAT_YV12"
    }
   ],
   "linker_set_key" : "_ZTI22android_pixel_format_t",
   "name" : "android_pixel_format_t",
   "referenced_type" : "_ZTI22android_pixel_format_t",
   "self_type" : "_ZTI22android_pixel_format_t",
   "size" : 4,
   "source_file" : "/system/core/libsystem/include/system/graphics-base-v1.0.h",
   "underlying_type" : "_ZTIj"
  },
  {
   "alignment" : 4,
   "enum_fields" :
   [
    {
     "enum_field_value" : 19,
     "name" : "ANDROID_PRIORITY_LOWEST"
    },
    {
     "enum_field_value" : 10,
     "name" : "ANDROID_PRIORITY_BACKGROUND"
    },
    {
     "enum_field_value" : 0,
     "name" : "ANDROID_PRIORITY_NORMAL"
    },
    {
     "enum_field_value" : -2,
     "name" : "ANDROID_PRIORITY_FOREGROUND"
    },
    {
     "enum_field_value" : -4,
     "name" : "ANDROID_PRIORITY_DISPLAY"
    },
    {
     "enum_field_value" : -8,
     "name" : "ANDROID_PRIORITY_URGENT_DISPLAY"
    },
    {
     "enum_field_value" : -10,
     "name" : "ANDROID_PRIORITY_VIDEO"
    },
    {
     "enum_field_value" : -16,
     "name" : "ANDROID_PRIORITY_AUDIO"
    },
    {
     "enum_field_value" : -19,
     "name" : "ANDROID_PRIORITY_URGENT_AUDIO"
    },
    {
     "enum_field_value" : -20,
     "name" : "ANDROID_PRIORITY_HIGHEST"
    },
    {
     "enum_field_value" : 0,
     "name" : "ANDROID_PRIORITY_DEFAULT"
    },
    {
     "enum_field_value" : -1,
     "name" : "ANDROID_PRIORITY_MORE_FAVORABLE"
    },
    {
     "enum_field_value" : 1,
     "name" : "ANDROID_PRIORITY_LESS_FAVORABLE"
    }
   ],
   "linker_set_key" : "_ZTI23$ANDROID_PRIORITY_AUDIO",
   "name" : "(anonymous enum at system/core/libsystem/include/system/thread_defs.h:26:1)",
   "referenced_type" : "_ZTI23$ANDROID_PRIORITY_AUDIO",
   "self_type" : "_ZTI23$ANDROID_PRIORITY_AUDIO",
   "size" : 4,
   "source_file" : "/system/core/libsystem/include/system/thread_defs.h",
   "underlying_type" : "_ZTIi"
  },
  {
   "alignment" : 4,
   "enum_fields" :
   [
    {
     "enum_field_value" : 281411584,
     "name" : "HAL_DATASPACE_BT2020_ITU"
    },
    {
     "enum_field_value" : 298188800,
     "name" : "HAL_DATASPACE_BT2020_ITU_PQ"
    },
    {
     "enum_field_value" : 302383104,
     "name" : "HAL_DATASPACE_BT2020_ITU_HLG"
    },
    {
     "enum_field_value" : 168165376,
     "name" : "HAL_DATASPACE_BT2020_HLG"
    }
   ],
   "linker_set_key" : "_ZTI24android_dataspace_v1_1_t",
   "name" : "android_dataspace_v1_1_t",
   "referenced_type" : "_ZTI24android_dataspace_v1_1_t",
   "self_type" : "_ZTI24android_dataspace_v1_1_t",
   "size" : 4,
   "source_file" : "/system/core/libsystem/include/system/graphics-base-v1.1.h",
   "underlying_type" : "_ZTIj"
  },
  {
   "alignment" : 4,
   "enum_fields" :
   [
    {
     "enum_field_value" : 142999552,
     "name" : "HAL_DATASPACE_DISPLAY_BT2020"
    },
    {
     "enum_field_value" : 4098,
     "name" : "HAL_DATASPACE_DYNAMIC_DEPTH"
    },
    {
     "enum_field_value" : 4099,
     "name" : "HAL_DATASPACE_JPEG_APP_SEGMENTS"
    },
    {
     "enum_field_value" : 4100,
     "name" : "HAL_DATASPACE_HEIF"
    }
   ],
   "linker_set_key" : "_ZTI24android_dataspace_v1_2_t",
   "name" : "android_dataspace_v1_2_t",
   "referenced_type" : "_ZTI24android_dataspace_v1_2_t",
   "self_type" : "_ZTI24android_dataspace_v1_2_t",
   "size" : 4,
   "source_file" : "/system/core/libsystem/include/system/graphics-base-v1.2.h",
   "underlying_type" : "_ZTIj"
  },
  {
   "alignment" : 4,
   "enum_fields" :
   [
    {
     "enum_field_value" : 10,
     "name" : "HAL_COLOR_MODE_BT2020"
    },
    {
     "enum_field_value" : 11,
     "name" : "HAL_COLOR_MODE_BT2100_PQ"
    },
    {
     "enum_field_value" : 12,
     "name" : "HAL_COLOR_MODE_BT2100_HLG"
    }
   ],
   "linker_set_key" : "_ZTI25android_color_mode_v1_1_t",
   "name" : "android_color_mode_v1_1_t",
   "referenced_type" : "_ZTI25android_color_mode_v1_1_t",
   "self_type" : "_ZTI25android_color_mode_v1_1_t",
   "size" : 4,
   "source_file" : "/system/core/libsystem/include/system/graphics-base-v1.1.h",
   "underlying_type" : "_ZTIj"
  },
  {
   "alignment" : 4,
   "enum_fields" :
   [
    {
     "enum_field_value" : 0,
     "name" : "HAL_COLOR_TRANSFORM_IDENTITY"
    },
    {
     "enum_field_value" : 1,
     "name" : "HAL_COLOR_TRANSFORM_ARBITRARY_MATRIX"
    },
    {
     "enum_field_value" : 2,
     "name" : "HAL_COLOR_TRANSFORM_VALUE_INVERSE"
    },
    {
     "enum_field_value" : 3,
     "name" : "HAL_COLOR_TRANSFORM_GRAYSCALE"
    },
    {
     "enum_field_value" : 4,
     "name" : "HAL_COLOR_TRANSFORM_CORRECT_PROTANOPIA"
    },
    {
     "enum_field_value" : 5,
     "name" : "HAL_COLOR_TRANSFORM_CORRECT_DEUTERANOPIA"
    },
    {
     "enum_field_value" : 6,
     "name" : "HAL_COLOR_TRANSFORM_CORRECT_TRITANOPIA"
    }
   ],
   "linker_set_key" : "_ZTI25android_color_transform_t",
   "name" : "android_color_transform_t",
   "referenced_type" : "_ZTI25android_color_transform_t",
   "self_type" : "_ZTI25android_color_transform_t",
   "size" : 4,
   "source_file" : "/system/core/libsystem/include/system/graphics-base-v1.0.h",
   "underlying_type" : "_ZTIj"
  },
  {
   "alignment" : 4,
   "enum_fields" :
   [
    {
     "enum_field_value" : 39,
     "name" : "HAL_PIXEL_FORMAT_YCBCR_422_888"
    },
    {
     "enum_field_value" : 40,
     "name" : "HAL_PIXEL_FORMAT_YCBCR_444_888"
    },
    {
     "enum_field_value" : 41,
     "name" : "HAL_PIXEL_FORMAT_FLEX_RGB_888"
    },
    {
     "enum_field_value" : 42,
     "name" : "HAL_PIXEL_FORMAT_FLEX_RGBA_8888"
    }
   ],
   "linker_set_key" : "_ZTI25android_pixel_format_sw_t",
   "name" : "android_pixel_format_sw_t",
   "referenced_type" : "_ZTI25android_pixel_format_sw_t",
   "self_type" : "_ZTI25android_pixel_format_sw_t",
   "size" : 4,
   "source_file" : "/system/core/libsystem/include/system/graphics-sw.h",
   "underlying_type" : "_ZTIj"
  },
  {
   "alignment" : 4,
   "enum_fields" :
   [
    {
     "enum_field_value" : 48,
     "name" : "HAL_PIXEL_FORMAT_DEPTH_16"
    },
    {
     "enum_field_value" : 49,
     "name" : "HAL_PIXEL_FORMAT_DEPTH_24"
    },
    {
     "enum_field_value" : 50,
     "name" : "HAL_PIXEL_FORMAT_DEPTH_24_STENCIL_8"
    },
    {
     "enum_field_value" : 51,
     "name" : "HAL_PIXEL_FORMAT_DEPTH_32F"
    },
    {
     "enum_field_value" : 52,
     "name" : "HAL_PIXEL_FORMAT_DEPTH_32F_STENCIL_8"
    },
    {
     "enum_field_value" : 53,
     "name" : "HAL_PIXEL_FORMAT_STENCIL_8"
    },
    {
     "enum_field_value" : 54,
     "name" : "HAL_PIXEL_FORMAT_YCBCR_P010"
    }
   ],
   "linker_set_key" : "_ZTI27android_pixel_format_v1_1_t",
   "name" : "android_pixel_format_v1_1_t",
   "referenced_type" : "_ZTI27android_pixel_format_v1_1_t",
   "self_type" : "_ZTI27android_pixel_format_v1_1_t",
   "size" : 4,
   "source_file" : "/system/core/libsystem/include/system/graphics-base-v1.1.h",
   "underlying_type" : "_ZTIj"
  },
  {
   "alignment" : 4,
   "enum_fields" :
   [
    {
     "enum_field_value" : 55,
     "name" : "HAL_PIXEL_FORMAT_HSV_888"
    }
   ],
   "linker_set_key" : "_ZTI27android_pixel_format_v1_2_t",
   "name" : "android_pixel_format_v1_2_t",
   "referenced_type" : "_ZTI27android_pixel_format_v1_2_t",
   "self_type" : "_ZTI27android_pixel_format_v1_2_t",
   "size" : 4,
   "source_file" : "/system/core/libsystem/include/system/graphics-base-v1.2.h",
   "underlying_type" : "_ZTIj"
  },
  {
   "alignment" : 4,
   "enum_fields" :
   [
    {
     "enum_field_value" : 0,
     "name" : "HAL_RENDER_INTENT_COLORIMETRIC"
    },
    {
     "enum_field_value" : 1,
     "name" : "HAL_RENDER_INTENT_ENHANCE"
    },
    {
     "enum_field_value" : 2,
     "name" : "HAL_RENDER_INTENT_TONE_MAP_COLORIMETRIC"
    },
    {
     "enum_field_value" : 3,
     "name" : "HAL_RENDER_INTENT_TONE_MAP_ENHANCE"
    }
   ],
   "linker_set_key" : "_ZTI28android_render_intent_v1_1_t",
   "name" : "android_render_intent_v1_1_t",
   "referenced_type" : "_ZTI28android_render_intent_v1_1_t",
   "self_type" : "_ZTI28android_render_intent_v1_1_t",
   "size" : 4,
   "source_file" : "/system/core/libsystem/include/system/graphics-base-v1.1.h",
   "underlying_type" : "_ZTIj"
  },
  {
   "alignment" : 4,
   "enum_fields" :
   [
    {
     "enum_field_value" : 0,
     "name" : "LOG_ID_MIN"
    },
    {
     "enum_field_value" : 0,
     "name" : "LOG_ID_MAIN"
    },
    {
     "enum_field_value" : 1,
     "name" : "LOG_ID_RADIO"
    },
    {
     "enum_field_value" : 2,
     "name" : "LOG_ID_EVENTS"
    },
    {
     "enum_field_value" : 3,
     "name" : "LOG_ID_SYSTEM"
    },
    {
     "enum_field_value" : 4,
     "name" : "LOG_ID_CRASH"
    },
    {
     "enum_field_value" : 5,
     "name" : "LOG_ID_STATS"
    },
    {
     "enum_field_value" : 6,
     "name" : "LOG_ID_SECURITY"
    },
    {
     "enum_field_value" : 7,
     "name" : "LOG_ID_KERNEL"
    },
    {
     "enum_field_value" : 8,
     "name" : "LOG_ID_MAX"
    },
    {
     "enum_field_value" : 2147483647,
     "name" : "LOG_ID_DEFAULT"
    }
   ],
   "linker_set_key" : "_ZTI6log_id",
   "name" : "log_id",
   "referenced_type" : "_ZTI6log_id",
   "self_type" : "_ZTI6log_id",
   "size" : 4,
   "source_file" : "/system/core/liblog/include/android/log.h",
   "underlying_type" : "_ZTIj"
  },
  {
   "alignment" : 4,
   "enum_fields" :
   [
    {
     "enum_field_value" : 1,
     "name" : "android::VectorImpl::HAS_TRIVIAL_CTOR"
    },
    {
     "enum_field_value" : 2,
     "name" : "android::VectorImpl::HAS_TRIVIAL_DTOR"
    },
    {
     "enum_field_value" : 4,
     "name" : "android::VectorImpl::HAS_TRIVIAL_COPY"
    }
   ],
   "linker_set_key" : "_ZTIN7android10VectorImpl17$HAS_TRIVIAL_COPYE",
   "name" : "android::VectorImpl::(anonymous enum at system/core/libutils/include/utils/VectorImpl.h:43:5)",
   "referenced_type" : "_ZTIN7android10VectorImpl17$HAS_TRIVIAL_COPYE",
   "self_type" : "_ZTIN7android10VectorImpl17$HAS_TRIVIAL_COPYE",
   "size" : 4,
   "source_file" : "/system/core/libutils/include/utils/VectorImpl.h",
   "underlying_type" : "_ZTIj"
  },
  {
   "alignment" : 4,
   "enum_fields" :
   [
    {
     "enum_field_value" : 0,
     "name" : "android::OK"
    },
    {
     "enum_field_value" : 0,
     "name" : "android::NO_ERROR"
    },
    {
     "enum_field_value" : -2147483648,
     "name" : "android::UNKNOWN_ERROR"
    },
    {
     "enum_field_value" : -12,
     "name" : "android::NO_MEMORY"
    },
    {
     "enum_field_value" : -38,
     "name" : "android::INVALID_OPERATION"
    },
    {
     "enum_field_value" : -22,
     "name" : "android::BAD_VALUE"
    },
    {
     "enum_field_value" : -2147483647,
     "name" : "android::BAD_TYPE"
    },
    {
     "enum_field_value" : -2,
     "name" : "android::NAME_NOT_FOUND"
    },
    {
     "enum_field_value" : -1,
     "name" : "android::PERMISSION_DENIED"
    },
    {
     "enum_field_value" : -19,
     "name" : "android::NO_INIT"
    },
    {
     "enum_field_value" : -17,
     "name" : "android::ALREADY_EXISTS"
    },
    {
     "enum_field_value" : -32,
     "name" : "android::DEAD_OBJECT"
    },
    {
     "enum_field_value" : -2147483646,
     "name" : "android::FAILED_TRANSACTION"
    },
    {
     "enum_field_value" : -75,
     "name" : "android::BAD_INDEX"
    },
    {
     "enum_field_value" : -61,
     "name" : "android::NOT_ENOUGH_DATA"
    },
    {
     "enum_field_value" : -11,
     "name" : "android::WOULD_BLOCK"
    },
    {
     "enum_field_value" : -110,
     "name" : "android::TIMED_OUT"
    },
    {
     "enum_field_value" : -74,
     "name" : "android::UNKNOWN_TRANSACTION"
    },
    {
     "enum_field_value" : -2147483641,
     "name" : "android::FDS_NOT_ALLOWED"
    },
    {
     "enum_field_value" : -2147483640,
     "name" : "android::UNEXPECTED_NULL"
    }
   ],
   "linker_set_key" : "_ZTIN7android15$ALREADY_EXISTSE",
   "name" : "android::(anonymous enum at system/core/libutils/include/utils/Errors.h:43:1)",
   "referenced_type" : "_ZTIN7android15$ALREADY_EXISTSE",
   "self_type" : "_ZTIN7android15$ALREADY_EXISTSE",
   "size" : 4,
   "source_file" : "/system/core/libutils/include/utils/Errors.h",
   "underlying_type" : "_ZTIi"
  },
  {
   "alignment" : 4,
   "enum_fields" :
   [
    {
     "enum_field_value" : 19,
     "name" : "android::PRIORITY_LOWEST"
    },
    {
     "enum_field_value" : 10,
     "name" : "android::PRIORITY_BACKGROUND"
    },
    {
     "enum_field_value" : 0,
     "name" : "android::PRIORITY_NORMAL"
    },
    {
     "enum_field_value" : -2,
     "name" : "android::PRIORITY_FOREGROUND"
    },
    {
     "enum_field_value" : -4,
     "name" : "android::PRIORITY_DISPLAY"
    },
    {
     "enum_field_value" : -8,
     "name" : "android::PRIORITY_URGENT_DISPLAY"
    },
    {
     "enum_field_value" : -16,
     "name" : "android::PRIORITY_AUDIO"
    },
    {
     "enum_field_value" : -19,
     "name" : "android::PRIORITY_URGENT_AUDIO"
    },
    {
     "enum_field_value" : -20,
     "name" : "android::PRIORITY_HIGHEST"
    },
    {
     "enum_field_value" : 0,
     "name" : "android::PRIORITY_DEFAULT"
    },
    {
     "enum_field_value" : -1,
     "name" : "android::PRIORITY_MORE_FAVORABLE"
    },
    {
     "enum_field_value" : 1,
     "name" : "android::PRIORITY_LESS_FAVORABLE"
    }
   ],
   "linker_set_key" : "_ZTIN7android15$PRIORITY_AUDIOE",
   "name" : "android::(anonymous enum at system/core/libutils/include/utils/ThreadDefs.h:53:1)",
   "referenced_type" : "_ZTIN7android15$PRIORITY_AUDIOE",
   "self_type" : "_ZTIN7android15$PRIORITY_AUDIOE",
   "size" : 4,
   "source_file" : "/system/core/libutils/include/utils/ThreadDefs.h",
   "underlying_type" : "_ZTIi"
  },
  {
   "alignment" : 4,
   "enum_fields" :
   [
    {
     "enum_field_value" : 1,
     "name" : "android::trait_trivial_copy<bool>::value"
    }
   ],
   "linker_set_key" : "_ZTIN7android18trait_trivial_copyIbE6$valueE",
   "name" : "android::trait_trivial_copy<bool>::(anonymous enum at system/core/libutils/include/utils/TypeHelpers.h:98:1)",
   "referenced_type" : "_ZTIN7android18trait_trivial_copyIbE6$valueE",
   "self_type" : "_ZTIN7android18trait_trivial_copyIbE6$valueE",
   "size" : 4,
   "source_file" : "/system/core/libutils/include/utils/TypeHelpers.h",
   "underlying_type" : "_ZTIj"
  },
  {
   "alignment" : 4,
   "enum_fields" :
   [
    {
     "enum_field_value" : 1,
     "name" : "android::trait_trivial_copy<char>::value"
    }
   ],
   "linker_set_key" : "_ZTIN7android18trait_trivial_copyIcE6$valueE",
   "name" : "android::trait_trivial_copy<char>::(anonymous enum at system/core/libutils/include/utils/TypeHelpers.h:99:1)",
   "referenced_type" : "_ZTIN7android18trait_trivial_copyIcE6$valueE",
   "self_type" : "_ZTIN7android18trait_trivial_copyIcE6$valueE",
   "size" : 4,
   "source_file" : "/system/core/libutils/include/utils/TypeHelpers.h",
   "underlying_type" : "_ZTIj"
  },
  {
   "alignment" : 4,
   "enum_fields" :
   [
    {
     "enum_field_value" : 1,
     "name" : "android::trait_trivial_copy<double>::value"
    }
   ],
   "linker_set_key" : "_ZTIN7android18trait_trivial_copyIdE6$valueE",
   "name" : "android::trait_trivial_copy<double>::(anonymous enum at system/core/libutils/include/utils/TypeHelpers.h:110:1)",
   "referenced_type" : "_ZTIN7android18trait_trivial_copyIdE6$valueE",
   "self_type" : "_ZTIN7android18trait_trivial_copyIdE6$valueE",
   "size" : 4,
   "source_file" : "/system/core/libutils/include/utils/TypeHelpers.h",
   "underlying_type" : "_ZTIj"
  },
  {
   "alignment" : 4,
   "enum_fields" :
   [
    {
     "enum_field_value" : 1,
     "name" : "android::trait_trivial_copy<float>::value"
    }
   ],
   "linker_set_key" : "_ZTIN7android18trait_trivial_copyIfE6$valueE",
   "name" : "android::trait_trivial_copy<float>::(anonymous enum at system/core/libutils/include/utils/TypeHelpers.h:109:1)",
   "referenced_type" : "_ZTIN7android18trait_trivial_copyIfE6$valueE",
   "self_type" : "_ZTIN7android18trait_trivial_copyIfE6$valueE",
   "size" : 4,
   "source_file" : "/system/core/libutils/include/utils/TypeHelpers.h",
   "underlying_type" : "_ZTIj"
  },
  {
   "alignment" : 4,
   "enum_fields" :
   [
    {
     "enum_field_value" : 1,
     "name" : "android::trait_trivial_copy<unsigned char>::value"
    }
   ],
   "linker_set_key" : "_ZTIN7android18trait_trivial_copyIhE6$valueE",
   "name" : "android::trait_trivial_copy<unsigned char>::(anonymous enum at system/core/libutils/include/utils/TypeHelpers.h:100:1)",
   "referenced_type" : "_ZTIN7android18trait_trivial_copyIhE6$valueE",
   "self_type" : "_ZTIN7android18trait_trivial_copyIhE6$valueE",
   "size" : 4,
   "source_file" : "/system/core/libutils/include/utils/TypeHelpers.h",
   "underlying_type" : "_ZTIj"
  },
  {
   "alignment" : 4,
   "enum_fields" :
   [
    {
     "enum_field_value" : 1,
     "name" : "android::trait_trivial_copy<int>::value"
    }
   ],
   "linker_set_key" : "_ZTIN7android18trait_trivial_copyIiE6$valueE",
   "name" : "android::trait_trivial_copy<int>::(anonymous enum at system/core/libutils/include/utils/TypeHelpers.h:103:1)",
   "referenced_type" : "_ZTIN7android18trait_trivial_copyIiE6$valueE",
   "self_type" : "_ZTIN7android18trait_trivial_copyIiE6$valueE",
   "size" : 4,
   "source_file" : "/system/core/libutils/include/utils/TypeHelpers.h",
   "underlying_type" : "_ZTIj"
  },
  {
   "alignment" : 4,
   "enum_fields" :
   [
    {
     "enum_field_value" : 1,
     "name" : "android::trait_trivial_copy<unsigned int>::value"
    }
   ],
   "linker_set_key" : "_ZTIN7android18trait_trivial_copyIjE6$valueE",
   "name" : "android::trait_trivial_copy<unsigned int>::(anonymous enum at system/core/libutils/include/utils/TypeHelpers.h:104:1)",
   "referenced_type" : "_ZTIN7android18trait_trivial_copyIjE6$valueE",
   "self_type" : "_ZTIN7android18trait_trivial_copyIjE6$valueE",
   "size" : 4,
   "source_file" : "/system/core/libutils/include/utils/TypeHelpers.h",
   "underlying_type" : "_ZTIj"
  },
  {
   "alignment" : 4,
   "enum_fields" :
   [
    {
     "enum_field_value" : 1,
     "name" : "android::trait_trivial_copy<long>::value"
    }
   ],
   "linker_set_key" : "_ZTIN7android18trait_trivial_copyIlE6$valueE",
   "name" : "android::trait_trivial_copy<long>::(anonymous enum at system/core/libutils/include/utils/TypeHelpers.h:105:1)",
   "referenced_type" : "_ZTIN7android18trait_trivial_copyIlE6$valueE",
   "self_type" : "_ZTIN7android18trait_trivial_copyIlE6$valueE",
   "size" : 4,
   "source_file" : "/system/core/libutils/include/utils/TypeHelpers.h",
   "underlying_type" : "_ZTIj"
  },
  {
   "alignment" : 4,
   "enum_fields" :
   [
    {
     "enum_field_value" : 1,
     "name" : "android::trait_trivial_copy<unsigned long>::value"
    }
   ],
   "linker_set_key" : "_ZTIN7android18trait_trivial_copyImE6$valueE",
   "name" : "android::trait_trivial_copy<unsigned long>::(anonymous enum at system/core/libutils/include/utils/TypeHelpers.h:106:1)",
   "referenced_type" : "_ZTIN7android18trait_trivial_copyImE6$valueE",
   "self_type" : "_ZTIN7android18trait_trivial_copyImE6$valueE",
   "size" : 4,
   "source_file" : "/system/core/libutils/include/utils/TypeHelpers.h",
   "underlying_type" : "_ZTIj"
  },
  {
   "alignment" : 4,
   "enum_fields" :
   [
    {
     "enum_field_value" : 1,
     "name" : "android::trait_trivial_copy<short>::value"
    }
   ],
   "linker_set_key" : "_ZTIN7android18trait_trivial_copyIsE6$valueE",
   "name" : "android::trait_trivial_copy<short>::(anonymous enum at system/core/libutils/include/utils/TypeHelpers.h:101:1)",
   "referenced_type" : "_ZTIN7android18trait_trivial_copyIsE6$valueE",
   "self_type" : "_ZTIN7android18trait_trivial_copyIsE6$valueE",
   "size" : 4,
   "source_file" : "/system/core/libutils/include/utils/TypeHelpers.h",
   "underlying_type" : "_ZTIj"
  },
  {
   "alignment" : 4,
   "enum_fields" :
   [
    {
     "enum_field_value" : 1,
     "name" : "android::trait_trivial_copy<unsigned short>::value"
    }
   ],
   "linker_set_key" : "_ZTIN7android18trait_trivial_copyItE6$valueE",
   "name" : "android::trait_trivial_copy<unsigned short>::(anonymous enum at system/core/libutils/include/utils/TypeHelpers.h:102:1)",
   "referenced_type" : "_ZTIN7android18trait_trivial_copyItE6$valueE",
   "self_type" : "_ZTIN7android18trait_trivial_copyItE6$valueE",
   "size" : 4,
   "source_file" : "/system/core/libutils/include/utils/TypeHelpers.h",
   "underlying_type" : "_ZTIj"
  },
  {
   "alignment" : 4,
   "enum_fields" :
   [
    {
     "enum_field_value" : 1,
     "name" : "android::trait_trivial_copy<void>::value"
    }
   ],
   "linker_set_key" : "_ZTIN7android18trait_trivial_copyIvE6$valueE",
   "name" : "android::trait_trivial_copy<void>::(anonymous enum at system/core/libutils/include/utils/TypeHelpers.h:97:1)",
   "referenced_type" : "_ZTIN7android18trait_trivial_copyIvE6$valueE",
   "self_type" : "_ZTIN7android18trait_trivial_copyIvE6$valueE",
   "size" : 4,
   "source_file" : "/system/core/libutils/include/utils/TypeHelpers.h",
   "underlying_type" : "_ZTIj"
  },
  {
   "alignment" : 4,
   "enum_fields" :
   [
    {
     "enum_field_value" : 1,
     "name" : "android::trait_trivial_copy<long long>::value"
    }
   ],
   "linker_set_key" : "_ZTIN7android18trait_trivial_copyIxE6$valueE",
   "name" : "android::trait_trivial_copy<long long>::(anonymous enum at system/core/libutils/include/utils/TypeHelpers.h:107:1)",
   "referenced_type" : "_ZTIN7android18trait_trivial_copyIxE6$valueE",
   "self_type" : "_ZTIN7android18trait_trivial_copyIxE6$valueE",
   "size" : 4,
   "source_file" : "/system/core/libutils/include/utils/TypeHelpers.h",
   "underlying_type" : "_ZTIj"
  },
  {
   "alignment" : 4,
   "enum_fields" :
   [
    {
     "enum_field_value" : 1,
     "name" : "android::trait_trivial_copy<unsigned long long>::value"
    }
   ],
   "linker_set_key" : "_ZTIN7android18trait_trivial_copyIyE6$valueE",
   "name" : "android::trait_trivial_copy<unsigned long long>::(anonymous enum at system/core/libutils/include/utils/TypeHelpers.h:108:1)",
   "referenced_type" : "_ZTIN7android18trait_trivial_copyIyE6$valueE",
   "self_type" : "_ZTIN7android18trait_trivial_copyIyE6$valueE",
   "size" : 4,
   "source_file" : "/system/core/libutils/include/utils/TypeHelpers.h",
   "underlying_type" : "_ZTIj"
  },
  {
   "alignment" : 4,
   "enum_fields" :
   [
    {
     "enum_field_value" : 1,
     "name" : "android::trait_trivial_ctor<bool>::value"
    }
   ],
   "linker_set_key" : "_ZTIN7android18trait_trivial_ctorIbE6$valueE",
   "name" : "android::trait_trivial_ctor<bool>::(anonymous enum at system/core/libutils/include/utils/TypeHelpers.h:98:1)",
   "referenced_type" : "_ZTIN7android18trait_trivial_ctorIbE6$valueE",
   "self_type" : "_ZTIN7android18trait_trivial_ctorIbE6$valueE",
   "size" : 4,
   "source_file" : "/system/core/libutils/include/utils/TypeHelpers.h",
   "underlying_type" : "_ZTIj"
  },
  {
   "alignment" : 4,
   "enum_fields" :
   [
    {
     "enum_field_value" : 1,
     "name" : "android::trait_trivial_ctor<char>::value"
    }
   ],
   "linker_set_key" : "_ZTIN7android18trait_trivial_ctorIcE6$valueE",
   "name" : "android::trait_trivial_ctor<char>::(anonymous enum at system/core/libutils/include/utils/TypeHelpers.h:99:1)",
   "referenced_type" : "_ZTIN7android18trait_trivial_ctorIcE6$valueE",
   "self_type" : "_ZTIN7android18trait_trivial_ctorIcE6$valueE",
   "size" : 4,
   "source_file" : "/system/core/libutils/include/utils/TypeHelpers.h",
   "underlying_type" : "_ZTIj"
  },
  {
   "alignment" : 4,
   "enum_fields" :
   [
    {
     "enum_field_value" : 1,
     "name" : "android::trait_trivial_ctor<double>::value"
    }
   ],
   "linker_set_key" : "_ZTIN7android18trait_trivial_ctorIdE6$valueE",
   "name" : "android::trait_trivial_ctor<double>::(anonymous enum at system/core/libutils/include/utils/TypeHelpers.h:110:1)",
   "referenced_type" : "_ZTIN7android18trait_trivial_ctorIdE6$valueE",
   "self_type" : "_ZTIN7android18trait_trivial_ctorIdE6$valueE",
   "size" : 4,
   "source_file" : "/system/core/libutils/include/utils/TypeHelpers.h",
   "underlying_type" : "_ZTIj"
  },
  {
   "alignment" : 4,
   "enum_fields" :
   [
    {
     "enum_field_value" : 1,
     "name" : "android::trait_trivial_ctor<float>::value"
    }
   ],
   "linker_set_key" : "_ZTIN7android18trait_trivial_ctorIfE6$valueE",
   "name" : "android::trait_trivial_ctor<float>::(anonymous enum at system/core/libutils/include/utils/TypeHelpers.h:109:1)",
   "referenced_type" : "_ZTIN7android18trait_trivial_ctorIfE6$valueE",
   "self_type" : "_ZTIN7android18trait_trivial_ctorIfE6$valueE",
   "size" : 4,
   "source_file" : "/system/core/libutils/include/utils/TypeHelpers.h",
   "underlying_type" : "_ZTIj"
  },
  {
   "alignment" : 4,
   "enum_fields" :
   [
    {
     "enum_field_value" : 1,
     "name" : "android::trait_trivial_ctor<unsigned char>::value"
    }
   ],
   "linker_set_key" : "_ZTIN7android18trait_trivial_ctorIhE6$valueE",
   "name" : "android::trait_trivial_ctor<unsigned char>::(anonymous enum at system/core/libutils/include/utils/TypeHelpers.h:100:1)",
   "referenced_type" : "_ZTIN7android18trait_trivial_ctorIhE6$valueE",
   "self_type" : "_ZTIN7android18trait_trivial_ctorIhE6$valueE",
   "size" : 4,
   "source_file" : "/system/core/libutils/include/utils/TypeHelpers.h",
   "underlying_type" : "_ZTIj"
  },
  {
   "alignment" : 4,
   "enum_fields" :
   [
    {
     "enum_field_value" : 1,
     "name" : "android::trait_trivial_ctor<int>::value"
    }
   ],
   "linker_set_key" : "_ZTIN7android18trait_trivial_ctorIiE6$valueE",
   "name" : "android::trait_trivial_ctor<int>::(anonymous enum at system/core/libutils/include/utils/TypeHelpers.h:103:1)",
   "referenced_type" : "_ZTIN7android18trait_trivial_ctorIiE6$valueE",
   "self_type" : "_ZTIN7android18trait_trivial_ctorIiE6$valueE",
   "size" : 4,
   "source_file" : "/system/core/libutils/include/utils/TypeHelpers.h",
   "underlying_type" : "_ZTIj"
  },
  {
   "alignment" : 4,
   "enum_fields" :
   [
    {
     "enum_field_value" : 1,
     "name" : "android::trait_trivial_ctor<unsigned int>::value"
    }
   ],
   "linker_set_key" : "_ZTIN7android18trait_trivial_ctorIjE6$valueE",
   "name" : "android::trait_trivial_ctor<unsigned int>::(anonymous enum at system/core/libutils/include/utils/TypeHelpers.h:104:1)",
   "referenced_type" : "_ZTIN7android18trait_trivial_ctorIjE6$valueE",
   "self_type" : "_ZTIN7android18trait_trivial_ctorIjE6$valueE",
   "size" : 4,
   "source_file" : "/system/core/libutils/include/utils/TypeHelpers.h",
   "underlying_type" : "_ZTIj"
  },
  {
   "alignment" : 4,
   "enum_fields" :
   [
    {
     "enum_field_value" : 1,
     "name" : "android::trait_trivial_ctor<long>::value"
    }
   ],
   "linker_set_key" : "_ZTIN7android18trait_trivial_ctorIlE6$valueE",
   "name" : "android::trait_trivial_ctor<long>::(anonymous enum at system/core/libutils/include/utils/TypeHelpers.h:105:1)",
   "referenced_type" : "_ZTIN7android18trait_trivial_ctorIlE6$valueE",
   "self_type" : "_ZTIN7android18trait_trivial_ctorIlE6$valueE",
   "size" : 4,
   "source_file" : "/system/core/libutils/include/utils/TypeHelpers.h",
   "underlying_type" : "_ZTIj"
  },
  {
   "alignment" : 4,
   "enum_fields" :
   [
    {
     "enum_field_value" : 1,
     "name" : "android::trait_trivial_ctor<unsigned long>::value"
    }
   ],
   "linker_set_key" : "_ZTIN7android18trait_trivial_ctorImE6$valueE",
   "name" : "android::trait_trivial_ctor<unsigned long>::(anonymous enum at system/core/libutils/include/utils/TypeHelpers.h:106:1)",
   "referenced_type" : "_ZTIN7android18trait_trivial_ctorImE6$valueE",
   "self_type" : "_ZTIN7android18trait_trivial_ctorImE6$valueE",
   "size" : 4,
   "source_file" : "/system/core/libutils/include/utils/TypeHelpers.h",
   "underlying_type" : "_ZTIj"
  },
  {
   "alignment" : 4,
   "enum_fields" :
   [
    {
     "enum_field_value" : 1,
     "name" : "android::trait_trivial_ctor<short>::value"
    }
   ],
   "linker_set_key" : "_ZTIN7android18trait_trivial_ctorIsE6$valueE",
   "name" : "android::trait_trivial_ctor<short>::(anonymous enum at system/core/libutils/include/utils/TypeHelpers.h:101:1)",
   "referenced_type" : "_ZTIN7android18trait_trivial_ctorIsE6$valueE",
   "self_type" : "_ZTIN7android18trait_trivial_ctorIsE6$valueE",
   "size" : 4,
   "source_file" : "/system/core/libutils/include/utils/TypeHelpers.h",
   "underlying_type" : "_ZTIj"
  },
  {
   "alignment" : 4,
   "enum_fields" :
   [
    {
     "enum_field_value" : 1,
     "name" : "android::trait_trivial_ctor<unsigned short>::value"
    }
   ],
   "linker_set_key" : "_ZTIN7android18trait_trivial_ctorItE6$valueE",
   "name" : "android::trait_trivial_ctor<unsigned short>::(anonymous enum at system/core/libutils/include/utils/TypeHelpers.h:102:1)",
   "referenced_type" : "_ZTIN7android18trait_trivial_ctorItE6$valueE",
   "self_type" : "_ZTIN7android18trait_trivial_ctorItE6$valueE",
   "size" : 4,
   "source_file" : "/system/core/libutils/include/utils/TypeHelpers.h",
   "underlying_type" : "_ZTIj"
  },
  {
   "alignment" : 4,
   "enum_fields" :
   [
    {
     "enum_field_value" : 1,
     "name" : "android::trait_trivial_ctor<void>::value"
    }
   ],
   "linker_set_key" : "_ZTIN7android18trait_trivial_ctorIvE6$valueE",
   "name" : "android::trait_trivial_ctor<void>::(anonymous enum at system/core/libutils/include/utils/TypeHelpers.h:97:1)",
   "referenced_type" : "_ZTIN7android18trait_trivial_ctorIvE6$valueE",
   "self_type" : "_ZTIN7android18trait_trivial_ctorIvE6$valueE",
   "size" : 4,
   "source_file" : "/system/core/libutils/include/utils/TypeHelpers.h",
   "underlying_type" : "_ZTIj"
  },
  {
   "alignment" : 4,
   "enum_fields" :
   [
    {
     "enum_field_value" : 1,
     "name" : "android::trait_trivial_ctor<long long>::value"
    }
   ],
   "linker_set_key" : "_ZTIN7android18trait_trivial_ctorIxE6$valueE",
   "name" : "android::trait_trivial_ctor<long long>::(anonymous enum at system/core/libutils/include/utils/TypeHelpers.h:107:1)",
   "referenced_type" : "_ZTIN7android18trait_trivial_ctorIxE6$valueE",
   "self_type" : "_ZTIN7android18trait_trivial_ctorIxE6$valueE",
   "size" : 4,
   "source_file" : "/system/core/libutils/include/utils/TypeHelpers.h",
   "underlying_type" : "_ZTIj"
  },
  {
   "alignment" : 4,
   "enum_fields" :
   [
    {
     "enum_field_value" : 1,
     "name" : "android::trait_trivial_ctor<unsigned long long>::value"
    }
   ],
   "linker_set_key" : "_ZTIN7android18trait_trivial_ctorIyE6$valueE",
   "name" : "android::trait_trivial_ctor<unsigned long long>::(anonymous enum at system/core/libutils/include/utils/TypeHelpers.h:108:1)",
   "referenced_type" : "_ZTIN7android18trait_trivial_ctorIyE6$valueE",
   "self_type" : "_ZTIN7android18trait_trivial_ctorIyE6$valueE",
   "size" : 4,
   "source_file" : "/system/core/libutils/include/utils/TypeHelpers.h",
   "underlying_type" : "_ZTIj"
  },
  {
   "alignment" : 4,
   "enum_fields" :
   [
    {
     "enum_field_value" : 1,
     "name" : "android::trait_trivial_dtor<bool>::value"
    }
   ],
   "linker_set_key" : "_ZTIN7android18trait_trivial_dtorIbE6$valueE",
   "name" : "android::trait_trivial_dtor<bool>::(anonymous enum at system/core/libutils/include/utils/TypeHelpers.h:98:1)",
   "referenced_type" : "_ZTIN7android18trait_trivial_dtorIbE6$valueE",
   "self_type" : "_ZTIN7android18trait_trivial_dtorIbE6$valueE",
   "size" : 4,
   "source_file" : "/system/core/libutils/include/utils/TypeHelpers.h",
   "underlying_type" : "_ZTIj"
  },
  {
   "alignment" : 4,
   "enum_fields" :
   [
    {
     "enum_field_value" : 1,
     "name" : "android::trait_trivial_dtor<char>::value"
    }
   ],
   "linker_set_key" : "_ZTIN7android18trait_trivial_dtorIcE6$valueE",
   "name" : "android::trait_trivial_dtor<char>::(anonymous enum at system/core/libutils/include/utils/TypeHelpers.h:99:1)",
   "referenced_type" : "_ZTIN7android18trait_trivial_dtorIcE6$valueE",
   "self_type" : "_ZTIN7android18trait_trivial_dtorIcE6$valueE",
   "size" : 4,
   "source_file" : "/system/core/libutils/include/utils/TypeHelpers.h",
   "underlying_type" : "_ZTIj"
  },
  {
   "alignment" : 4,
   "enum_fields" :
   [
    {
     "enum_field_value" : 1,
     "name" : "android::trait_trivial_dtor<double>::value"
    }
   ],
   "linker_set_key" : "_ZTIN7android18trait_trivial_dtorIdE6$valueE",
   "name" : "android::trait_trivial_dtor<double>::(anonymous enum at system/core/libutils/include/utils/TypeHelpers.h:110:1)",
   "referenced_type" : "_ZTIN7android18trait_trivial_dtorIdE6$valueE",
   "self_type" : "_ZTIN7android18trait_trivial_dtorIdE6$valueE",
   "size" : 4,
   "source_file" : "/system/core/libutils/include/utils/TypeHelpers.h",
   "underlying_type" : "_ZTIj"
  },
  {
   "alignment" : 4,
   "enum_fields" :
   [
    {
     "enum_field_value" : 1,
     "name" : "android::trait_trivial_dtor<float>::value"
    }
   ],
   "linker_set_key" : "_ZTIN7android18trait_trivial_dtorIfE6$valueE",
   "name" : "android::trait_trivial_dtor<float>::(anonymous enum at system/core/libutils/include/utils/TypeHelpers.h:109:1)",
   "referenced_type" : "_ZTIN7android18trait_trivial_dtorIfE6$valueE",
   "self_type" : "_ZTIN7android18trait_trivial_dtorIfE6$valueE",
   "size" : 4,
   "source_file" : "/system/core/libutils/include/utils/TypeHelpers.h",
   "underlying_type" : "_ZTIj"
  },
  {
   "alignment" : 4,
   "enum_fields" :
   [
    {
     "enum_field_value" : 1,
     "name" : "android::trait_trivial_dtor<unsigned char>::value"
    }
   ],
   "linker_set_key" : "_ZTIN7android18trait_trivial_dtorIhE6$valueE",
   "name" : "android::trait_trivial_dtor<unsigned char>::(anonymous enum at system/core/libutils/include/utils/TypeHelpers.h:100:1)",
   "referenced_type" : "_ZTIN7android18trait_trivial_dtorIhE6$valueE",
   "self_type" : "_ZTIN7android18trait_trivial_dtorIhE6$valueE",
   "size" : 4,
   "source_file" : "/system/core/libutils/include/utils/TypeHelpers.h",
   "underlying_type" : "_ZTIj"
  },
  {
   "alignment" : 4,
   "enum_fields" :
   [
    {
     "enum_field_value" : 1,
     "name" : "android::trait_trivial_dtor<int>::value"
    }
   ],
   "linker_set_key" : "_ZTIN7android18trait_trivial_dtorIiE6$valueE",
   "name" : "android::trait_trivial_dtor<int>::(anonymous enum at system/core/libutils/include/utils/TypeHelpers.h:103:1)",
   "referenced_type" : "_ZTIN7android18trait_trivial_dtorIiE6$valueE",
   "self_type" : "_ZTIN7android18trait_trivial_dtorIiE6$valueE",
   "size" : 4,
   "source_file" : "/system/core/libutils/include/utils/TypeHelpers.h",
   "underlying_type" : "_ZTIj"
  },
  {
   "alignment" : 4,
   "enum_fields" :
   [
    {
     "enum_field_value" : 1,
     "name" : "android::trait_trivial_dtor<unsigned int>::value"
    }
   ],
   "linker_set_key" : "_ZTIN7android18trait_trivial_dtorIjE6$valueE",
   "name" : "android::trait_trivial_dtor<unsigned int>::(anonymous enum at system/core/libutils/include/utils/TypeHelpers.h:104:1)",
   "referenced_type" : "_ZTIN7android18trait_trivial_dtorIjE6$valueE",
   "self_type" : "_ZTIN7android18trait_trivial_dtorIjE6$valueE",
   "size" : 4,
   "source_file" : "/system/core/libutils/include/utils/TypeHelpers.h",
   "underlying_type" : "_ZTIj"
  },
  {
   "alignment" : 4,
   "enum_fields" :
   [
    {
     "enum_field_value" : 1,
     "name" : "android::trait_trivial_dtor<long>::value"
    }
   ],
   "linker_set_key" : "_ZTIN7android18trait_trivial_dtorIlE6$valueE",
   "name" : "android::trait_trivial_dtor<long>::(anonymous enum at system/core/libutils/include/utils/TypeHelpers.h:105:1)",
   "referenced_type" : "_ZTIN7android18trait_trivial_dtorIlE6$valueE",
   "self_type" : "_ZTIN7android18trait_trivial_dtorIlE6$valueE",
   "size" : 4,
   "source_file" : "/system/core/libutils/include/utils/TypeHelpers.h",
   "underlying_type" : "_ZTIj"
  },
  {
   "alignment" : 4,
   "enum_fields" :
   [
    {
     "enum_field_value" : 1,
     "name" : "android::trait_trivial_dtor<unsigned long>::value"
    }
   ],
   "linker_set_key" : "_ZTIN7android18trait_trivial_dtorImE6$valueE",
   "name" : "android::trait_trivial_dtor<unsigned long>::(anonymous enum at system/core/libutils/include/utils/TypeHelpers.h:106:1)",
   "referenced_type" : "_ZTIN7android18trait_trivial_dtorImE6$valueE",
   "self_type" : "_ZTIN7android18trait_trivial_dtorImE6$valueE",
   "size" : 4,
   "source_file" : "/system/core/libutils/include/utils/TypeHelpers.h",
   "underlying_type" : "_ZTIj"
  },
  {
   "alignment" : 4,
   "enum_fields" :
   [
    {
     "enum_field_value" : 1,
     "name" : "android::trait_trivial_dtor<short>::value"
    }
   ],
   "linker_set_key" : "_ZTIN7android18trait_trivial_dtorIsE6$valueE",
   "name" : "android::trait_trivial_dtor<short>::(anonymous enum at system/core/libutils/include/utils/TypeHelpers.h:101:1)",
   "referenced_type" : "_ZTIN7android18trait_trivial_dtorIsE6$valueE",
   "self_type" : "_ZTIN7android18trait_trivial_dtorIsE6$valueE",
   "size" : 4,
   "source_file" : "/system/core/libutils/include/utils/TypeHelpers.h",
   "underlying_type" : "_ZTIj"
  },
  {
   "alignment" : 4,
   "enum_fields" :
   [
    {
     "enum_field_value" : 1,
     "name" : "android::trait_trivial_dtor<unsigned short>::value"
    }
   ],
   "linker_set_key" : "_ZTIN7android18trait_trivial_dtorItE6$valueE",
   "name" : "android::trait_trivial_dtor<unsigned short>::(anonymous enum at system/core/libutils/include/utils/TypeHelpers.h:102:1)",
   "referenced_type" : "_ZTIN7android18trait_trivial_dtorItE6$valueE",
   "self_type" : "_ZTIN7android18trait_trivial_dtorItE6$valueE",
   "size" : 4,
   "source_file" : "/system/core/libutils/include/utils/TypeHelpers.h",
   "underlying_type" : "_ZTIj"
  },
  {
   "alignment" : 4,
   "enum_fields" :
   [
    {
     "enum_field_value" : 1,
     "name" : "android::trait_trivial_dtor<void>::value"
    }
   ],
   "linker_set_key" : "_ZTIN7android18trait_trivial_dtorIvE6$valueE",
   "name" : "android::trait_trivial_dtor<void>::(anonymous enum at system/core/libutils/include/utils/TypeHelpers.h:97:1)",
   "referenced_type" : "_ZTIN7android18trait_trivial_dtorIvE6$valueE",
   "self_type" : "_ZTIN7android18trait_trivial_dtorIvE6$valueE",
   "size" : 4,
   "source_file" : "/system/core/libutils/include/utils/TypeHelpers.h",
   "underlying_type" : "_ZTIj"
  },
  {
   "alignment" : 4,
   "enum_fields" :
   [
    {
     "enum_field_value" : 1,
     "name" : "android::trait_trivial_dtor<long long>::value"
    }
   ],
   "linker_set_key" : "_ZTIN7android18trait_trivial_dtorIxE6$valueE",
   "name" : "android::trait_trivial_dtor<long long>::(anonymous enum at system/core/libutils/include/utils/TypeHelpers.h:107:1)",
   "referenced_type" : "_ZTIN7android18trait_trivial_dtorIxE6$valueE",
   "self_type" : "_ZTIN7android18trait_trivial_dtorIxE6$valueE",
   "size" : 4,
   "source_file" : "/system/core/libutils/include/utils/TypeHelpers.h",
   "underlying_type" : "_ZTIj"
  },
  {
   "alignment" : 4,
   "enum_fields" :
   [
    {
     "enum_field_value" : 1,
     "name" : "android::trait_trivial_dtor<unsigned long long>::value"
    }
   ],
   "linker_set_key" : "_ZTIN7android18trait_trivial_dtorIyE6$valueE",
   "name" : "android::trait_trivial_dtor<unsigned long long>::(anonymous enum at system/core/libutils/include/utils/TypeHelpers.h:108:1)",
   "referenced_type" : "_ZTIN7android18trait_trivial_dtorIyE6$valueE",
   "self_type" : "_ZTIN7android18trait_trivial_dtorIyE6$valueE",
   "size" : 4,
   "source_file" : "/system/core/libutils/include/utils/TypeHelpers.h",
   "underlying_type" : "_ZTIj"
  },
  {
   "alignment" : 4,
   "enum_fields" :
   [
    {
     "enum_field_value" : 1,
     "name" : "android::trait_trivial_move<android::String8>::value"
    }
   ],
   "linker_set_key" : "_ZTIN7android18trait_trivial_moveINS_7String8EE6$valueE",
   "name" : "android::trait_trivial_move<String8>::(anonymous enum at system/core/libutils/include/utils/String8.h:242:1)",
   "referenced_type" : "_ZTIN7android18trait_trivial_moveINS_7String8EE6$valueE",
   "self_type" : "_ZTIN7android18trait_trivial_moveINS_7String8EE6$valueE",
   "size" : 4,
   "source_file" : "/system/core/libutils/include/utils/String8.h",
   "underlying_type" : "_ZTIj"
  },
  {
   "alignment" : 4,
   "enum_fields" :
   [
    {
     "enum_field_value" : 1,
     "name" : "android::trait_trivial_move<android::String16>::value"
    }
   ],
   "linker_set_key" : "_ZTIN7android18trait_trivial_moveINS_8String16EE6$valueE",
   "name" : "android::trait_trivial_move<String16>::(anonymous enum at system/core/libutils/include/utils/String16.h:197:1)",
   "referenced_type" : "_ZTIN7android18trait_trivial_moveINS_8String16EE6$valueE",
   "self_type" : "_ZTIN7android18trait_trivial_moveINS_8String16EE6$valueE",
   "size" : 4,
   "source_file" : "/system/core/libutils/include/utils/String16.h",
   "underlying_type" : "_ZTIj"
  },
  {
   "alignment" : 4,
   "enum_fields" :
   [
    {
     "enum_field_value" : 1,
     "name" : "android::trait_trivial_move<bool>::value"
    }
   ],
   "linker_set_key" : "_ZTIN7android18trait_trivial_moveIbE6$valueE",
   "name" : "android::trait_trivial_move<bool>::(anonymous enum at system/core/libutils/include/utils/TypeHelpers.h:98:1)",
   "referenced_type" : "_ZTIN7android18trait_trivial_moveIbE6$valueE",
   "self_type" : "_ZTIN7android18trait_trivial_moveIbE6$valueE",
   "size" : 4,
   "source_file" : "/system/core/libutils/include/utils/TypeHelpers.h",
   "underlying_type" : "_ZTIj"
  },
  {
   "alignment" : 4,
   "enum_fields" :
   [
    {
     "enum_field_value" : 1,
     "name" : "android::trait_trivial_move<char>::value"
    }
   ],
   "linker_set_key" : "_ZTIN7android18trait_trivial_moveIcE6$valueE",
   "name" : "android::trait_trivial_move<char>::(anonymous enum at system/core/libutils/include/utils/TypeHelpers.h:99:1)",
   "referenced_type" : "_ZTIN7android18trait_trivial_moveIcE6$valueE",
   "self_type" : "_ZTIN7android18trait_trivial_moveIcE6$valueE",
   "size" : 4,
   "source_file" : "/system/core/libutils/include/utils/TypeHelpers.h",
   "underlying_type" : "_ZTIj"
  },
  {
   "alignment" : 4,
   "enum_fields" :
   [
    {
     "enum_field_value" : 1,
     "name" : "android::trait_trivial_move<double>::value"
    }
   ],
   "linker_set_key" : "_ZTIN7android18trait_trivial_moveIdE6$valueE",
   "name" : "android::trait_trivial_move<double>::(anonymous enum at system/core/libutils/include/utils/TypeHelpers.h:110:1)",
   "referenced_type" : "_ZTIN7android18trait_trivial_moveIdE6$valueE",
   "self_type" : "_ZTIN7android18trait_trivial_moveIdE6$valueE",
   "size" : 4,
   "source_file" : "/system/core/libutils/include/utils/TypeHelpers.h",
   "underlying_type" : "_ZTIj"
  },
  {
   "alignment" : 4,
   "enum_fields" :
   [
    {
     "enum_field_value" : 1,
     "name" : "android::trait_trivial_move<float>::value"
    }
   ],
   "linker_set_key" : "_ZTIN7android18trait_trivial_moveIfE6$valueE",
   "name" : "android::trait_trivial_move<float>::(anonymous enum at system/core/libutils/include/utils/TypeHelpers.h:109:1)",
   "referenced_type" : "_ZTIN7android18trait_trivial_moveIfE6$valueE",
   "self_type" : "_ZTIN7android18trait_trivial_moveIfE6$valueE",
   "size" : 4,
   "source_file" : "/system/core/libutils/include/utils/TypeHelpers.h",
   "underlying_type" : "_ZTIj"
  },
  {
   "alignment" : 4,
   "enum_fields" :
   [
    {
     "enum_field_value" : 1,
     "name" : "android::trait_trivial_move<unsigned char>::value"
    }
   ],
   "linker_set_key" : "_ZTIN7android18trait_trivial_moveIhE6$valueE",
   "name" : "android::trait_trivial_move<unsigned char>::(anonymous enum at system/core/libutils/include/utils/TypeHelpers.h:100:1)",
   "referenced_type" : "_ZTIN7android18trait_trivial_moveIhE6$valueE",
   "self_type" : "_ZTIN7android18trait_trivial_moveIhE6$valueE",
   "size" : 4,
   "source_file" : "/system/core/libutils/include/utils/TypeHelpers.h",
   "underlying_type" : "_ZTIj"
  },
  {
   "alignment" : 4,
   "enum_fields" :
   [
    {
     "enum_field_value" : 1,
     "name" : "android::trait_trivial_move<int>::value"
    }
   ],
   "linker_set_key" : "_ZTIN7android18trait_trivial_moveIiE6$valueE",
   "name" : "android::trait_trivial_move<int>::(anonymous enum at system/core/libutils/include/utils/TypeHelpers.h:103:1)",
   "referenced_type" : "_ZTIN7android18trait_trivial_moveIiE6$valueE",
   "self_type" : "_ZTIN7android18trait_trivial_moveIiE6$valueE",
   "size" : 4,
   "source_file" : "/system/core/libutils/include/utils/TypeHelpers.h",
   "underlying_type" : "_ZTIj"
  },
  {
   "alignment" : 4,
   "enum_fields" :
   [
    {
     "enum_field_value" : 1,
     "name" : "android::trait_trivial_move<unsigned int>::value"
    }
   ],
   "linker_set_key" : "_ZTIN7android18trait_trivial_moveIjE6$valueE",
   "name" : "android::trait_trivial_move<unsigned int>::(anonymous enum at system/core/libutils/include/utils/TypeHelpers.h:104:1)",
   "referenced_type" : "_ZTIN7android18trait_trivial_moveIjE6$valueE",
   "self_type" : "_ZTIN7android18trait_trivial_moveIjE6$valueE",
   "size" : 4,
   "source_file" : "/system/core/libutils/include/utils/TypeHelpers.h",
   "underlying_type" : "_ZTIj"
  },
  {
   "alignment" : 4,
   "enum_fields" :
   [
    {
     "enum_field_value" : 1,
     "name" : "android::trait_trivial_move<long>::value"
    }
   ],
   "linker_set_key" : "_ZTIN7android18trait_trivial_moveIlE6$valueE",
   "name" : "android::trait_trivial_move<long>::(anonymous enum at system/core/libutils/include/utils/TypeHelpers.h:105:1)",
   "referenced_type" : "_ZTIN7android18trait_trivial_moveIlE6$valueE",
   "self_type" : "_ZTIN7android18trait_trivial_moveIlE6$valueE",
   "size" : 4,
   "source_file" : "/system/core/libutils/include/utils/TypeHelpers.h",
   "underlying_type" : "_ZTIj"
  },
  {
   "alignment" : 4,
   "enum_fields" :
   [
    {
     "enum_field_value" : 1,
     "name" : "android::trait_trivial_move<unsigned long>::value"
    }
   ],
   "linker_set_key" : "_ZTIN7android18trait_trivial_moveImE6$valueE",
   "name" : "android::trait_trivial_move<unsigned long>::(anonymous enum at system/core/libutils/include/utils/TypeHelpers.h:106:1)",
   "referenced_type" : "_ZTIN7android18trait_trivial_moveImE6$valueE",
   "self_type" : "_ZTIN7android18trait_trivial_moveImE6$valueE",
   "size" : 4,
   "source_file" : "/system/core/libutils/include/utils/TypeHelpers.h",
   "underlying_type" : "_ZTIj"
  },
  {
   "alignment" : 4,
   "enum_fields" :
   [
    {
     "enum_field_value" : 1,
     "name" : "android::trait_trivial_move<short>::value"
    }
   ],
   "linker_set_key" : "_ZTIN7android18trait_trivial_moveIsE6$valueE",
   "name" : "android::trait_trivial_move<short>::(anonymous enum at system/core/libutils/include/utils/TypeHelpers.h:101:1)",
   "referenced_type" : "_ZTIN7android18trait_trivial_moveIsE6$valueE",
   "self_type" : "_ZTIN7android18trait_trivial_moveIsE6$valueE",
   "size" : 4,
   "source_file" : "/system/core/libutils/include/utils/TypeHelpers.h",
   "underlying_type" : "_ZTIj"
  },
  {
   "alignment" : 4,
   "enum_fields" :
   [
    {
     "enum_field_value" : 1,
     "name" : "android::trait_trivial_move<unsigned short>::value"
    }
   ],
   "linker_set_key" : "_ZTIN7android18trait_trivial_moveItE6$valueE",
   "name" : "android::trait_trivial_move<unsigned short>::(anonymous enum at system/core/libutils/include/utils/TypeHelpers.h:102:1)",
   "referenced_type" : "_ZTIN7android18trait_trivial_moveItE6$valueE",
   "self_type" : "_ZTIN7android18trait_trivial_moveItE6$valueE",
   "size" : 4,
   "source_file" : "/system/core/libutils/include/utils/TypeHelpers.h",
   "underlying_type" : "_ZTIj"
  },
  {
   "alignment" : 4,
   "enum_fields" :
   [
    {
     "enum_field_value" : 1,
     "name" : "android::trait_trivial_move<void>::value"
    }
   ],
   "linker_set_key" : "_ZTIN7android18trait_trivial_moveIvE6$valueE",
   "name" : "android::trait_trivial_move<void>::(anonymous enum at system/core/libutils/include/utils/TypeHelpers.h:97:1)",
   "referenced_type" : "_ZTIN7android18trait_trivial_moveIvE6$valueE",
   "self_type" : "_ZTIN7android18trait_trivial_moveIvE6$valueE",
   "size" : 4,
   "source_file" : "/system/core/libutils/include/utils/TypeHelpers.h",
   "underlying_type" : "_ZTIj"
  },
  {
   "alignment" : 4,
   "enum_fields" :
   [
    {
     "enum_field_value" : 1,
     "name" : "android::trait_trivial_move<long long>::value"
    }
   ],
   "linker_set_key" : "_ZTIN7android18trait_trivial_moveIxE6$valueE",
   "name" : "android::trait_trivial_move<long long>::(anonymous enum at system/core/libutils/include/utils/TypeHelpers.h:107:1)",
   "referenced_type" : "_ZTIN7android18trait_trivial_moveIxE6$valueE",
   "self_type" : "_ZTIN7android18trait_trivial_moveIxE6$valueE",
   "size" : 4,
   "source_file" : "/system/core/libutils/include/utils/TypeHelpers.h",
   "underlying_type" : "_ZTIj"
  },
  {
   "alignment" : 4,
   "enum_fields" :
   [
    {
     "enum_field_value" : 1,
     "name" : "android::trait_trivial_move<unsigned long long>::value"
    }
   ],
   "linker_set_key" : "_ZTIN7android18trait_trivial_moveIyE6$valueE",
   "name" : "android::trait_trivial_move<unsigned long long>::(anonymous enum at system/core/libutils/include/utils/TypeHelpers.h:108:1)",
   "referenced_type" : "_ZTIN7android18trait_trivial_moveIyE6$valueE",
   "self_type" : "_ZTIN7android18trait_trivial_moveIyE6$valueE",
   "size" : 4,
   "source_file" : "/system/core/libutils/include/utils/TypeHelpers.h",
   "underlying_type" : "_ZTIj"
  },
  {
   "alignment" : 4,
   "enum_fields" :
   [
    {
     "enum_field_value" : 0,
     "name" : "android::hidl::base::V1_0::DebugInfo::Architecture::UNKNOWN"
    },
    {
     "enum_field_value" : 1,
     "name" : "android::hidl::base::V1_0::DebugInfo::Architecture::IS_64BIT"
    },
    {
     "enum_field_value" : 2,
     "name" : "android::hidl::base::V1_0::DebugInfo::Architecture::IS_32BIT"
    }
   ],
   "linker_set_key" : "_ZTIN7android4hidl4base4V1_09DebugInfo12ArchitectureE",
   "name" : "android::hidl::base::V1_0::DebugInfo::Architecture",
   "referenced_type" : "_ZTIN7android4hidl4base4V1_09DebugInfo12ArchitectureE",
   "self_type" : "_ZTIN7android4hidl4base4V1_09DebugInfo12ArchitectureE",
   "size" : 4,
   "source_file" : "/out/soong/.intermediates/system/libhidl/transport/base/1.0/android.hidl.base@1.0_genc++_headers/gen/android/hidl/base/1.0/types.h",
   "underlying_type" : "_ZTIi"
  },
  {
   "alignment" : 4,
   "enum_fields" :
   [
    {
     "enum_field_value" : -1,
     "name" : "android::hidl::manager::V1_0::IServiceManager::PidConstant::NO_PID"
    }
   ],
   "linker_set_key" : "_ZTIN7android4hidl7manager4V1_015IServiceManager11PidConstantE",
   "name" : "android::hidl::manager::V1_0::IServiceManager::PidConstant",
   "referenced_type" : "_ZTIN7android4hidl7manager4V1_015IServiceManager11PidConstantE",
   "self_type" : "_ZTIN7android4hidl7manager4V1_015IServiceManager11PidConstantE",
   "size" : 4,
   "source_file" : "/out/soong/.intermediates/system/libhidl/transport/manager/1.0/android.hidl.manager@1.0_genc++_headers/gen/android/hidl/manager/1.0/IServiceManager.h",
   "underlying_type" : "_ZTIi"
  },
  {
   "alignment" : 1,
   "enum_fields" :
   [
    {
     "enum_field_value" : 0,
     "name" : "android::hidl::manager::V1_0::IServiceManager::Transport::EMPTY"
    },
    {
     "enum_field_value" : 1,
     "name" : "android::hidl::manager::V1_0::IServiceManager::Transport::HWBINDER"
    },
    {
     "enum_field_value" : 2,
     "name" : "android::hidl::manager::V1_0::IServiceManager::Transport::PASSTHROUGH"
    }
   ],
   "linker_set_key" : "_ZTIN7android4hidl7manager4V1_015IServiceManager9TransportE",
   "name" : "android::hidl::manager::V1_0::IServiceManager::Transport",
   "referenced_type" : "_ZTIN7android4hidl7manager4V1_015IServiceManager9TransportE",
   "self_type" : "_ZTIN7android4hidl7manager4V1_015IServiceManager9TransportE",
   "size" : 1,
   "source_file" : "/out/soong/.intermediates/system/libhidl/transport/manager/1.0/android.hidl.manager@1.0_genc++_headers/gen/android/hidl/manager/1.0/IServiceManager.h",
   "underlying_type" : "_ZTIh"
  },
  {
   "alignment" : 4,
   "enum_fields" :
   [
    {
     "enum_field_value" : 0,
     "name" : "android::Mutex::PRIVATE"
    },
    {
     "enum_field_value" : 1,
     "name" : "android::Mutex::SHARED"
    }
   ],
   "linker_set_key" : "_ZTIN7android5Mutex8$PRIVATEE",
   "name" : "android::Mutex::(anonymous enum at system/core/libutils/include/utils/Mutex.h:96:5)",
   "referenced_type" : "_ZTIN7android5Mutex8$PRIVATEE",
   "self_type" : "_ZTIN7android5Mutex8$PRIVATEE",
   "size" : 4,
   "source_file" : "/system/core/libutils/include/utils/Mutex.h",
   "underlying_type" : "_ZTIj"
  },
  {
   "alignment" : 4,
   "enum_fields" :
   [
    {
     "enum_field_value" : 0,
     "name" : "android::RWLock::PRIVATE"
    },
    {
     "enum_field_value" : 1,
     "name" : "android::RWLock::SHARED"
    }
   ],
   "linker_set_key" : "_ZTIN7android6RWLock8$PRIVATEE",
   "name" : "android::RWLock::(anonymous enum at system/core/libutils/include/utils/RWLock.h:44:5)",
   "referenced_type" : "_ZTIN7android6RWLock8$PRIVATEE",
   "self_type" : "_ZTIN7android6RWLock8$PRIVATEE",
   "size" : 4,
   "source_file" : "/system/core/libutils/include/utils/RWLock.h",
   "underlying_type" : "_ZTIj"
  },
  {
   "access" : "protected",
   "alignment" : 4,
   "enum_fields" :
   [
    {
     "enum_field_value" : 1,
     "name" : "android::RefBase::FIRST_INC_STRONG"
    }
   ],
   "linker_set_key" : "_ZTIN7android7RefBase17$FIRST_INC_STRONGE",
   "name" : "android::RefBase::(anonymous enum at system/core/libutils/include/utils/RefBase.h:313:5)",
   "referenced_type" : "_ZTIN7android7RefBase17$FIRST_INC_STRONGE",
   "self_type" : "_ZTIN7android7RefBase17$FIRST_INC_STRONGE",
   "size" : 4,
   "source_file" : "/system/core/libutils/include/utils/RefBase.h",
   "underlying_type" : "_ZTIj"
  },
  {
   "access" : "protected",
   "alignment" : 4,
   "enum_fields" :
   [
    {
     "enum_field_value" : 0,
     "name" : "android::RefBase::OBJECT_LIFETIME_STRONG"
    },
    {
     "enum_field_value" : 1,
     "name" : "android::RefBase::OBJECT_LIFETIME_WEAK"
    },
    {
     "enum_field_value" : 1,
     "name" : "android::RefBase::OBJECT_LIFETIME_MASK"
    }
   ],
   "linker_set_key" : "_ZTIN7android7RefBase21$OBJECT_LIFETIME_MASKE",
   "name" : "android::RefBase::(anonymous enum at system/core/libutils/include/utils/RefBase.h:304:5)",
   "referenced_type" : "_ZTIN7android7RefBase21$OBJECT_LIFETIME_MASKE",
   "self_type" : "_ZTIN7android7RefBase21$OBJECT_LIFETIME_MASKE",
   "size" : 4,
   "source_file" : "/system/core/libutils/include/utils/RefBase.h",
   "underlying_type" : "_ZTIj"
  },
  {
   "alignment" : 4,
   "enum_fields" :
   [
    {
     "enum_field_value" : 0,
     "name" : "android::String8::kEmptyString"
    }
   ],
   "linker_set_key" : "_ZTIN7android7String813StaticLinkageE",
   "name" : "android::String8::StaticLinkage",
   "referenced_type" : "_ZTIN7android7String813StaticLinkageE",
   "self_type" : "_ZTIN7android7String813StaticLinkageE",
   "size" : 4,
   "source_file" : "/system/core/libutils/include/utils/String8.h",
   "underlying_type" : "_ZTIj"
  },
  {
   "alignment" : 4,
   "enum_fields" :
   [
    {
     "enum_field_value" : 0,
     "name" : "android::String16::kEmptyString"
    }
   ],
   "linker_set_key" : "_ZTIN7android8String1613StaticLinkageE",
   "name" : "android::String16::StaticLinkage",
   "referenced_type" : "_ZTIN7android8String1613StaticLinkageE",
   "self_type" : "_ZTIN7android8String1613StaticLinkageE",
   "size" : 4,
   "source_file" : "/system/core/libutils/include/utils/String16.h",
   "underlying_type" : "_ZTIj"
  },
  {
   "alignment" : 4,
   "enum_fields" :
   [
    {
     "enum_field_value" : 0,
     "name" : "android::hardware::MQDescriptor<char, android::hardware::kSynchronizedReadWrite>::READPTRPOS"
    },
    {
     "enum_field_value" : 1,
     "name" : "android::hardware::MQDescriptor<char, android::hardware::kSynchronizedReadWrite>::WRITEPTRPOS"
    },
    {
     "enum_field_value" : 2,
     "name" : "android::hardware::MQDescriptor<char, android::hardware::kSynchronizedReadWrite>::DATAPTRPOS"
    },
    {
     "enum_field_value" : 3,
     "name" : "android::hardware::MQDescriptor<char, android::hardware::kSynchronizedReadWrite>::EVFLAGWORDPOS"
    }
   ],
   "linker_set_key" : "_ZTIN7android8hardware12MQDescriptorIcLNS0_8MQFlavorE1EE11GrantorTypeE",
   "name" : "android::hardware::MQDescriptor<char, android::hardware::kSynchronizedReadWrite>::GrantorType",
   "referenced_type" : "_ZTIN7android8hardware12MQDescriptorIcLNS0_8MQFlavorE1EE11GrantorTypeE",
   "self_type" : "_ZTIN7android8hardware12MQDescriptorIcLNS0_8MQFlavorE1EE11GrantorTypeE",
   "size" : 4,
   "source_file" : "/system/libhidl/base/include/hidl/MQDescriptor.h",
   "underlying_type" : "_ZTIi"
  },
  {
   "alignment" : 4,
   "enum_fields" :
   [
    {
     "enum_field_value" : 0,
     "name" : "android::hardware::ProcessState::CallRestriction::NONE"
    },
    {
     "enum_field_value" : 1,
     "name" : "android::hardware::ProcessState::CallRestriction::ERROR_IF_NOT_ONEWAY"
    },
    {
     "enum_field_value" : 2,
     "name" : "android::hardware::ProcessState::CallRestriction::FATAL_IF_NOT_ONEWAY"
    }
   ],
   "linker_set_key" : "_ZTIN7android8hardware12ProcessState15CallRestrictionE",
   "name" : "android::hardware::ProcessState::CallRestriction",
   "referenced_type" : "_ZTIN7android8hardware12ProcessState15CallRestrictionE",
   "self_type" : "_ZTIN7android8hardware12ProcessState15CallRestrictionE",
   "size" : 4,
   "source_file" : "/system/libhwbinder/include/hwbinder/ProcessState.h",
   "underlying_type" : "_ZTIi"
  },
  {
   "alignment" : 4,
   "enum_fields" :
   [
    {
     "enum_field_value" : 0,
     "name" : "android::hardware::HidlReturnRestriction::NONE"
    },
    {
     "enum_field_value" : 1,
     "name" : "android::hardware::HidlReturnRestriction::ERROR_IF_UNCHECKED"
    },
    {
     "enum_field_value" : 2,
     "name" : "android::hardware::HidlReturnRestriction::FATAL_IF_UNCHECKED"
    }
   ],
   "linker_set_key" : "_ZTIN7android8hardware21HidlReturnRestrictionE",
   "name" : "android::hardware::HidlReturnRestriction",
   "referenced_type" : "_ZTIN7android8hardware21HidlReturnRestrictionE",
   "self_type" : "_ZTIN7android8hardware21HidlReturnRestrictionE",
   "size" : 4,
   "source_file" : "/system/libhidl/base/include/hidl/Status.h",
   "underlying_type" : "_ZTIi"
  },
  {
   "alignment" : 4,
   "enum_fields" :
   [
    {
     "enum_field_value" : 0,
     "name" : "android::hardware::wifi::supplicant::V1_0::ISupplicant::DebugLevel::EXCESSIVE"
    },
    {
     "enum_field_value" : 1,
     "name" : "android::hardware::wifi::supplicant::V1_0::ISupplicant::DebugLevel::MSGDUMP"
    },
    {
     "enum_field_value" : 2,
     "name" : "android::hardware::wifi::supplicant::V1_0::ISupplicant::DebugLevel::DEBUG"
    },
    {
     "enum_field_value" : 3,
     "name" : "android::hardware::wifi::supplicant::V1_0::ISupplicant::DebugLevel::INFO"
    },
    {
     "enum_field_value" : 4,
     "name" : "android::hardware::wifi::supplicant::V1_0::ISupplicant::DebugLevel::WARNING"
    },
    {
     "enum_field_value" : 5,
     "name" : "android::hardware::wifi::supplicant::V1_0::ISupplicant::DebugLevel::ERROR"
    }
   ],
   "linker_set_key" : "_ZTIN7android8hardware4wifi10supplicant4V1_011ISupplicant10DebugLevelE",
   "name" : "android::hardware::wifi::supplicant::V1_0::ISupplicant::DebugLevel",
   "referenced_type" : "_ZTIN7android8hardware4wifi10supplicant4V1_011ISupplicant10DebugLevelE",
   "self_type" : "_ZTIN7android8hardware4wifi10supplicant4V1_011ISupplicant10DebugLevelE",
   "size" : 4,
   "source_file" : "/out/soong/.intermediates/hardware/interfaces/wifi/supplicant/1.0/android.hardware.wifi.supplicant@1.0_genc++_headers/gen/android/hardware/wifi/supplicant/1.0/ISupplicant.h",
   "underlying_type" : "_ZTIj"
  },
  {
   "alignment" : 4,
   "enum_fields" :
   [
    {
     "enum_field_value" : 32,
     "name" : "android::hardware::wifi::supplicant::V1_0::ISupplicantIface::ParamSizeLimits::WPS_DEVICE_NAME_MAX_LEN"
    },
    {
     "enum_field_value" : 64,
     "name" : "android::hardware::wifi::supplicant::V1_0::ISupplicantIface::ParamSizeLimits::WPS_MANUFACTURER_MAX_LEN"
    },
    {
     "enum_field_value" : 32,
     "name" : "android::hardware::wifi::supplicant::V1_0::ISupplicantIface::ParamSizeLimits::WPS_MODEL_NAME_MAX_LEN"
    },
    {
     "enum_field_value" : 32,
     "name" : "android::hardware::wifi::supplicant::V1_0::ISupplicantIface::ParamSizeLimits::WPS_MODEL_NUMBER_MAX_LEN"
    },
    {
     "enum_field_value" : 32,
     "name" : "android::hardware::wifi::supplicant::V1_0::ISupplicantIface::ParamSizeLimits::WPS_SERIAL_NUMBER_MAX_LEN"
    }
   ],
   "linker_set_key" : "_ZTIN7android8hardware4wifi10supplicant4V1_016ISupplicantIface15ParamSizeLimitsE",
   "name" : "android::hardware::wifi::supplicant::V1_0::ISupplicantIface::ParamSizeLimits",
   "referenced_type" : "_ZTIN7android8hardware4wifi10supplicant4V1_016ISupplicantIface15ParamSizeLimitsE",
   "self_type" : "_ZTIN7android8hardware4wifi10supplicant4V1_016ISupplicantIface15ParamSizeLimitsE",
   "size" : 4,
   "source_file" : "/out/soong/.intermediates/hardware/interfaces/wifi/supplicant/1.0/android.hardware.wifi.supplicant@1.0_genc++_headers/gen/android/hardware/wifi/supplicant/1.0/ISupplicantIface.h",
   "underlying_type" : "_ZTIj"
  },
  {
   "alignment" : 2,
   "enum_fields" :
   [
    {
     "enum_field_value" : 1,
     "name" : "android::hardware::wifi::supplicant::V1_0::WpsConfigMethods::USBA"
    },
    {
     "enum_field_value" : 2,
     "name" : "android::hardware::wifi::supplicant::V1_0::WpsConfigMethods::ETHERNET"
    },
    {
     "enum_field_value" : 4,
     "name" : "android::hardware::wifi::supplicant::V1_0::WpsConfigMethods::LABEL"
    },
    {
     "enum_field_value" : 8,
     "name" : "android::hardware::wifi::supplicant::V1_0::WpsConfigMethods::DISPLAY"
    },
    {
     "enum_field_value" : 16,
     "name" : "android::hardware::wifi::supplicant::V1_0::WpsConfigMethods::EXT_NFC_TOKEN"
    },
    {
     "enum_field_value" : 32,
     "name" : "android::hardware::wifi::supplicant::V1_0::WpsConfigMethods::INT_NFC_TOKEN"
    },
    {
     "enum_field_value" : 64,
     "name" : "android::hardware::wifi::supplicant::V1_0::WpsConfigMethods::NFC_INTERFACE"
    },
    {
     "enum_field_value" : 128,
     "name" : "android::hardware::wifi::supplicant::V1_0::WpsConfigMethods::PUSHBUTTON"
    },
    {
     "enum_field_value" : 256,
     "name" : "android::hardware::wifi::supplicant::V1_0::WpsConfigMethods::KEYPAD"
    },
    {
     "enum_field_value" : 640,
     "name" : "android::hardware::wifi::supplicant::V1_0::WpsConfigMethods::VIRT_PUSHBUTTON"
    },
    {
     "enum_field_value" : 1152,
     "name" : "android::hardware::wifi::supplicant::V1_0::WpsConfigMethods::PHY_PUSHBUTTON"
    },
    {
     "enum_field_value" : 4096,
     "name" : "android::hardware::wifi::supplicant::V1_0::WpsConfigMethods::P2PS"
    },
    {
     "enum_field_value" : 8200,
     "name" : "android::hardware::wifi::supplicant::V1_0::WpsConfigMethods::VIRT_DISPLAY"
    },
    {
     "enum_field_value" : 16392,
     "name" : "android::hardware::wifi::supplicant::V1_0::WpsConfigMethods::PHY_DISPLAY"
    }
   ],
   "linker_set_key" : "_ZTIN7android8hardware4wifi10supplicant4V1_016WpsConfigMethodsE",
   "name" : "android::hardware::wifi::supplicant::V1_0::WpsConfigMethods",
   "referenced_type" : "_ZTIN7android8hardware4wifi10supplicant4V1_016WpsConfigMethodsE",
   "self_type" : "_ZTIN7android8hardware4wifi10supplicant4V1_016WpsConfigMethodsE",
   "size" : 2,
   "source_file" : "/out/soong/.intermediates/hardware/interfaces/wifi/supplicant/1.0/android.hardware.wifi.supplicant@1.0_genc++_headers/gen/android/hardware/wifi/supplicant/1.0/types.h",
   "underlying_type" : "_ZTIt"
  },
  {
   "alignment" : 2,
   "enum_fields" :
   [
    {
     "enum_field_value" : 258,
     "name" : "android::hardware::wifi::supplicant::V1_0::ISupplicantStaIface::AnqpInfoId::VENUE_NAME"
    },
    {
     "enum_field_value" : 261,
     "name" : "android::hardware::wifi::supplicant::V1_0::ISupplicantStaIface::AnqpInfoId::ROAMING_CONSORTIUM"
    },
    {
     "enum_field_value" : 262,
     "name" : "android::hardware::wifi::supplicant::V1_0::ISupplicantStaIface::AnqpInfoId::IP_ADDR_TYPE_AVAILABILITY"
    },
    {
     "enum_field_value" : 263,
     "name" : "android::hardware::wifi::supplicant::V1_0::ISupplicantStaIface::AnqpInfoId::NAI_REALM"
    },
    {
     "enum_field_value" : 264,
     "name" : "android::hardware::wifi::supplicant::V1_0::ISupplicantStaIface::AnqpInfoId::ANQP_3GPP_CELLULAR_NETWORK"
    },
    {
     "enum_field_value" : 268,
     "name" : "android::hardware::wifi::supplicant::V1_0::ISupplicantStaIface::AnqpInfoId::DOMAIN_NAME"
    }
   ],
   "linker_set_key" : "_ZTIN7android8hardware4wifi10supplicant4V1_019ISupplicantStaIface10AnqpInfoIdE",
   "name" : "android::hardware::wifi::supplicant::V1_0::ISupplicantStaIface::AnqpInfoId",
   "referenced_type" : "_ZTIN7android8hardware4wifi10supplicant4V1_019ISupplicantStaIface10AnqpInfoIdE",
   "self_type" : "_ZTIN7android8hardware4wifi10supplicant4V1_019ISupplicantStaIface10AnqpInfoIdE",
   "size" : 2,
   "source_file" : "/out/soong/.intermediates/hardware/interfaces/wifi/supplicant/1.0/android.hardware.wifi.supplicant@1.0_genc++_headers/gen/android/hardware/wifi/supplicant/1.0/ISupplicantStaIface.h",
   "underlying_type" : "_ZTIt"
  },
  {
   "alignment" : 1,
   "enum_fields" :
   [
    {
     "enum_field_value" : 0,
     "name" : "android::hardware::wifi::supplicant::V1_0::ISupplicantStaIface::RxFilterType::V4_MULTICAST"
    },
    {
     "enum_field_value" : 1,
     "name" : "android::hardware::wifi::supplicant::V1_0::ISupplicantStaIface::RxFilterType::V6_MULTICAST"
    }
   ],
   "linker_set_key" : "_ZTIN7android8hardware4wifi10supplicant4V1_019ISupplicantStaIface12RxFilterTypeE",
   "name" : "android::hardware::wifi::supplicant::V1_0::ISupplicantStaIface::RxFilterType",
   "referenced_type" : "_ZTIN7android8hardware4wifi10supplicant4V1_019ISupplicantStaIface12RxFilterTypeE",
   "self_type" : "_ZTIN7android8hardware4wifi10supplicant4V1_019ISupplicantStaIface12RxFilterTypeE",
   "size" : 1,
   "source_file" : "/out/soong/.intermediates/hardware/interfaces/wifi/supplicant/1.0/android.hardware.wifi.supplicant@1.0_genc++_headers/gen/android/hardware/wifi/supplicant/1.0/ISupplicantStaIface.h",
   "underlying_type" : "_ZTIh"
  },
  {
   "alignment" : 4,
   "enum_fields" :
   [
    {
     "enum_field_value" : 3,
     "name" : "android::hardware::wifi::supplicant::V1_0::ISupplicantStaIface::Hs20AnqpSubtypes::OPERATOR_FRIENDLY_NAME"
    },
    {
     "enum_field_value" : 4,
     "name" : "android::hardware::wifi::supplicant::V1_0::ISupplicantStaIface::Hs20AnqpSubtypes::WAN_METRICS"
    },
    {
     "enum_field_value" : 5,
     "name" : "android::hardware::wifi::supplicant::V1_0::ISupplicantStaIface::Hs20AnqpSubtypes::CONNECTION_CAPABILITY"
    },
    {
     "enum_field_value" : 8,
     "name" : "android::hardware::wifi::supplicant::V1_0::ISupplicantStaIface::Hs20AnqpSubtypes::OSU_PROVIDERS_LIST"
    }
   ],
   "linker_set_key" : "_ZTIN7android8hardware4wifi10supplicant4V1_019ISupplicantStaIface16Hs20AnqpSubtypesE",
   "name" : "android::hardware::wifi::supplicant::V1_0::ISupplicantStaIface::Hs20AnqpSubtypes",
   "referenced_type" : "_ZTIN7android8hardware4wifi10supplicant4V1_019ISupplicantStaIface16Hs20AnqpSubtypesE",
   "self_type" : "_ZTIN7android8hardware4wifi10supplicant4V1_019ISupplicantStaIface16Hs20AnqpSubtypesE",
   "size" : 4,
   "source_file" : "/out/soong/.intermediates/hardware/interfaces/wifi/supplicant/1.0/android.hardware.wifi.supplicant@1.0_genc++_headers/gen/android/hardware/wifi/supplicant/1.0/ISupplicantStaIface.h",
   "underlying_type" : "_ZTIj"
  },
  {
   "alignment" : 1,
   "enum_fields" :
   [
    {
     "enum_field_value" : 0,
     "name" : "android::hardware::wifi::supplicant::V1_0::ISupplicantStaIface::BtCoexistenceMode::ENABLED"
    },
    {
     "enum_field_value" : 1,
     "name" : "android::hardware::wifi::supplicant::V1_0::ISupplicantStaIface::BtCoexistenceMode::DISABLED"
    },
    {
     "enum_field_value" : 2,
     "name" : "android::hardware::wifi::supplicant::V1_0::ISupplicantStaIface::BtCoexistenceMode::SENSE"
    }
   ],
   "linker_set_key" : "_ZTIN7android8hardware4wifi10supplicant4V1_019ISupplicantStaIface17BtCoexistenceModeE",
   "name" : "android::hardware::wifi::supplicant::V1_0::ISupplicantStaIface::BtCoexistenceMode",
   "referenced_type" : "_ZTIN7android8hardware4wifi10supplicant4V1_019ISupplicantStaIface17BtCoexistenceModeE",
   "self_type" : "_ZTIN7android8hardware4wifi10supplicant4V1_019ISupplicantStaIface17BtCoexistenceModeE",
   "size" : 1,
   "source_file" : "/out/soong/.intermediates/hardware/interfaces/wifi/supplicant/1.0/android.hardware.wifi.supplicant@1.0_genc++_headers/gen/android/hardware/wifi/supplicant/1.0/ISupplicantStaIface.h",
   "underlying_type" : "_ZTIh"
  },
  {
   "alignment" : 4,
   "enum_fields" :
   [
    {
     "enum_field_value" : 10,
     "name" : "android::hardware::wifi::supplicant::V1_0::ISupplicantStaIface::ExtRadioWorkDefaults::TIMEOUT_IN_SECS"
    }
   ],
   "linker_set_key" : "_ZTIN7android8hardware4wifi10supplicant4V1_019ISupplicantStaIface20ExtRadioWorkDefaultsE",
   "name" : "android::hardware::wifi::supplicant::V1_0::ISupplicantStaIface::ExtRadioWorkDefaults",
   "referenced_type" : "_ZTIN7android8hardware4wifi10supplicant4V1_019ISupplicantStaIface20ExtRadioWorkDefaultsE",
   "self_type" : "_ZTIN7android8hardware4wifi10supplicant4V1_019ISupplicantStaIface20ExtRadioWorkDefaultsE",
   "size" : 4,
   "source_file" : "/out/soong/.intermediates/hardware/interfaces/wifi/supplicant/1.0/android.hardware.wifi.supplicant@1.0_genc++_headers/gen/android/hardware/wifi/supplicant/1.0/ISupplicantStaIface.h",
   "underlying_type" : "_ZTIj"
  },
  {
   "alignment" : 4,
   "enum_fields" :
   [
    {
     "enum_field_value" : 0,
     "name" : "android::hardware::wifi::supplicant::V1_0::SupplicantStatusCode::SUCCESS"
    },
    {
     "enum_field_value" : 1,
     "name" : "android::hardware::wifi::supplicant::V1_0::SupplicantStatusCode::FAILURE_UNKNOWN"
    },
    {
     "enum_field_value" : 2,
     "name" : "android::hardware::wifi::supplicant::V1_0::SupplicantStatusCode::FAILURE_ARGS_INVALID"
    },
    {
     "enum_field_value" : 3,
     "name" : "android::hardware::wifi::supplicant::V1_0::SupplicantStatusCode::FAILURE_IFACE_INVALID"
    },
    {
     "enum_field_value" : 4,
     "name" : "android::hardware::wifi::supplicant::V1_0::SupplicantStatusCode::FAILURE_IFACE_UNKNOWN"
    },
    {
     "enum_field_value" : 5,
     "name" : "android::hardware::wifi::supplicant::V1_0::SupplicantStatusCode::FAILURE_IFACE_EXISTS"
    },
    {
     "enum_field_value" : 6,
     "name" : "android::hardware::wifi::supplicant::V1_0::SupplicantStatusCode::FAILURE_IFACE_DISABLED"
    },
    {
     "enum_field_value" : 7,
     "name" : "android::hardware::wifi::supplicant::V1_0::SupplicantStatusCode::FAILURE_IFACE_NOT_DISCONNECTED"
    },
    {
     "enum_field_value" : 8,
     "name" : "android::hardware::wifi::supplicant::V1_0::SupplicantStatusCode::FAILURE_NETWORK_INVALID"
    },
    {
     "enum_field_value" : 9,
     "name" : "android::hardware::wifi::supplicant::V1_0::SupplicantStatusCode::FAILURE_NETWORK_UNKNOWN"
    }
   ],
   "linker_set_key" : "_ZTIN7android8hardware4wifi10supplicant4V1_020SupplicantStatusCodeE",
   "name" : "android::hardware::wifi::supplicant::V1_0::SupplicantStatusCode",
   "referenced_type" : "_ZTIN7android8hardware4wifi10supplicant4V1_020SupplicantStatusCodeE",
   "self_type" : "_ZTIN7android8hardware4wifi10supplicant4V1_020SupplicantStatusCodeE",
   "size" : 4,
   "source_file" : "/out/soong/.intermediates/hardware/interfaces/wifi/supplicant/1.0/android.hardware.wifi.supplicant@1.0_genc++_headers/gen/android/hardware/wifi/supplicant/1.0/types.h",
   "underlying_type" : "_ZTIj"
  },
  {
   "alignment" : 4,
   "enum_fields" :
   [
    {
     "enum_field_value" : 1,
     "name" : "android::hardware::wifi::supplicant::V1_0::ISupplicantStaNetwork::AuthAlgMask::OPEN"
    },
    {
     "enum_field_value" : 2,
     "name" : "android::hardware::wifi::supplicant::V1_0::ISupplicantStaNetwork::AuthAlgMask::SHARED"
    },
    {
     "enum_field_value" : 4,
     "name" : "android::hardware::wifi::supplicant::V1_0::ISupplicantStaNetwork::AuthAlgMask::LEAP"
    }
   ],
   "linker_set_key" : "_ZTIN7android8hardware4wifi10supplicant4V1_021ISupplicantStaNetwork11AuthAlgMaskE",
   "name" : "android::hardware::wifi::supplicant::V1_0::ISupplicantStaNetwork::AuthAlgMask",
   "referenced_type" : "_ZTIN7android8hardware4wifi10supplicant4V1_021ISupplicantStaNetwork11AuthAlgMaskE",
   "self_type" : "_ZTIN7android8hardware4wifi10supplicant4V1_021ISupplicantStaNetwork11AuthAlgMaskE",
   "size" : 4,
   "source_file" : "/out/soong/.intermediates/hardware/interfaces/wifi/supplicant/1.0/android.hardware.wifi.supplicant@1.0_genc++_headers/gen/android/hardware/wifi/supplicant/1.0/ISupplicantStaNetwork.h",
   "underlying_type" : "_ZTIj"
  },
  {
   "alignment" : 4,
   "enum_fields" :
   [
    {
     "enum_field_value" : 1,
     "name" : "android::hardware::wifi::supplicant::V1_0::ISupplicantStaNetwork::KeyMgmtMask::WPA_EAP"
    },
    {
     "enum_field_value" : 2,
     "name" : "android::hardware::wifi::supplicant::V1_0::ISupplicantStaNetwork::KeyMgmtMask::WPA_PSK"
    },
    {
     "enum_field_value" : 4,
     "name" : "android::hardware::wifi::supplicant::V1_0::ISupplicantStaNetwork::KeyMgmtMask::NONE"
    },
    {
     "enum_field_value" : 8,
     "name" : "android::hardware::wifi::supplicant::V1_0::ISupplicantStaNetwork::KeyMgmtMask::IEEE8021X"
    },
    {
     "enum_field_value" : 32,
     "name" : "android::hardware::wifi::supplicant::V1_0::ISupplicantStaNetwork::KeyMgmtMask::FT_EAP"
    },
    {
     "enum_field_value" : 64,
     "name" : "android::hardware::wifi::supplicant::V1_0::ISupplicantStaNetwork::KeyMgmtMask::FT_PSK"
    },
    {
     "enum_field_value" : 32768,
     "name" : "android::hardware::wifi::supplicant::V1_0::ISupplicantStaNetwork::KeyMgmtMask::OSEN"
    }
   ],
   "linker_set_key" : "_ZTIN7android8hardware4wifi10supplicant4V1_021ISupplicantStaNetwork11KeyMgmtMaskE",
   "name" : "android::hardware::wifi::supplicant::V1_0::ISupplicantStaNetwork::KeyMgmtMask",
   "referenced_type" : "_ZTIN7android8hardware4wifi10supplicant4V1_021ISupplicantStaNetwork11KeyMgmtMaskE",
   "self_type" : "_ZTIN7android8hardware4wifi10supplicant4V1_021ISupplicantStaNetwork11KeyMgmtMaskE",
   "size" : 4,
   "source_file" : "/out/soong/.intermediates/hardware/interfaces/wifi/supplicant/1.0/android.hardware.wifi.supplicant@1.0_genc++_headers/gen/android/hardware/wifi/supplicant/1.0/ISupplicantStaNetwork.h",
   "underlying_type" : "_ZTIj"
  },
  {
   "alignment" : 4,
   "enum_fields" :
   [
    {
     "enum_field_value" : 0,
     "name" : "android::hardware::wifi::supplicant::V1_0::ISupplicantStaNetwork::EapPhase2Method::NONE"
    },
    {
     "enum_field_value" : 1,
     "name" : "android::hardware::wifi::supplicant::V1_0::ISupplicantStaNetwork::EapPhase2Method::PAP"
    },
    {
     "enum_field_value" : 2,
     "name" : "android::hardware::wifi::supplicant::V1_0::ISupplicantStaNetwork::EapPhase2Method::MSPAP"
    },
    {
     "enum_field_value" : 3,
     "name" : "android::hardware::wifi::supplicant::V1_0::ISupplicantStaNetwork::EapPhase2Method::MSPAPV2"
    },
    {
     "enum_field_value" : 4,
     "name" : "android::hardware::wifi::supplicant::V1_0::ISupplicantStaNetwork::EapPhase2Method::GTC"
    },
    {
     "enum_field_value" : 5,
     "name" : "android::hardware::wifi::supplicant::V1_0::ISupplicantStaNetwork::EapPhase2Method::SIM"
    },
    {
     "enum_field_value" : 6,
     "name" : "android::hardware::wifi::supplicant::V1_0::ISupplicantStaNetwork::EapPhase2Method::AKA"
    },
    {
     "enum_field_value" : 7,
     "name" : "android::hardware::wifi::supplicant::V1_0::ISupplicantStaNetwork::EapPhase2Method::AKA_PRIME"
    }
   ],
   "linker_set_key" : "_ZTIN7android8hardware4wifi10supplicant4V1_021ISupplicantStaNetwork15EapPhase2MethodE",
   "name" : "android::hardware::wifi::supplicant::V1_0::ISupplicantStaNetwork::EapPhase2Method",
   "referenced_type" : "_ZTIN7android8hardware4wifi10supplicant4V1_021ISupplicantStaNetwork15EapPhase2MethodE",
   "self_type" : "_ZTIN7android8hardware4wifi10supplicant4V1_021ISupplicantStaNetwork15EapPhase2MethodE",
   "size" : 4,
   "source_file" : "/out/soong/.intermediates/hardware/interfaces/wifi/supplicant/1.0/android.hardware.wifi.supplicant@1.0_genc++_headers/gen/android/hardware/wifi/supplicant/1.0/ISupplicantStaNetwork.h",
   "underlying_type" : "_ZTIj"
  },
  {
   "alignment" : 4,
   "enum_fields" :
   [
    {
     "enum_field_value" : 2,
     "name" : "android::hardware::wifi::supplicant::V1_0::ISupplicantStaNetwork::GroupCipherMask::WEP40"
    },
    {
     "enum_field_value" : 4,
     "name" : "android::hardware::wifi::supplicant::V1_0::ISupplicantStaNetwork::GroupCipherMask::WEP104"
    },
    {
     "enum_field_value" : 8,
     "name" : "android::hardware::wifi::supplicant::V1_0::ISupplicantStaNetwork::GroupCipherMask::TKIP"
    },
    {
     "enum_field_value" : 16,
     "name" : "android::hardware::wifi::supplicant::V1_0::ISupplicantStaNetwork::GroupCipherMask::CCMP"
    },
    {
     "enum_field_value" : 16384,
     "name" : "android::hardware::wifi::supplicant::V1_0::ISupplicantStaNetwork::GroupCipherMask::GTK_NOT_USED"
    }
   ],
   "linker_set_key" : "_ZTIN7android8hardware4wifi10supplicant4V1_021ISupplicantStaNetwork15GroupCipherMaskE",
   "name" : "android::hardware::wifi::supplicant::V1_0::ISupplicantStaNetwork::GroupCipherMask",
   "referenced_type" : "_ZTIN7android8hardware4wifi10supplicant4V1_021ISupplicantStaNetwork15GroupCipherMaskE",
   "self_type" : "_ZTIN7android8hardware4wifi10supplicant4V1_021ISupplicantStaNetwork15GroupCipherMaskE",
   "size" : 4,
   "source_file" : "/out/soong/.intermediates/hardware/interfaces/wifi/supplicant/1.0/android.hardware.wifi.supplicant@1.0_genc++_headers/gen/android/hardware/wifi/supplicant/1.0/ISupplicantStaNetwork.h",
   "underlying_type" : "_ZTIj"
  },
  {
   "alignment" : 4,
   "enum_fields" :
   [
    {
     "enum_field_value" : 32,
     "name" : "android::hardware::wifi::supplicant::V1_0::ISupplicantStaNetwork::ParamSizeLimits::SSID_MAX_LEN_IN_BYTES"
    },
    {
     "enum_field_value" : 8,
     "name" : "android::hardware::wifi::supplicant::V1_0::ISupplicantStaNetwork::ParamSizeLimits::PSK_PASSPHRASE_MIN_LEN_IN_BYTES"
    },
    {
     "enum_field_value" : 63,
     "name" : "android::hardware::wifi::supplicant::V1_0::ISupplicantStaNetwork::ParamSizeLimits::PSK_PASSPHRASE_MAX_LEN_IN_BYTES"
    },
    {
     "enum_field_value" : 4,
     "name" : "android::hardware::wifi::supplicant::V1_0::ISupplicantStaNetwork::ParamSizeLimits::WEP_KEYS_MAX_NUM"
    },
    {
     "enum_field_value" : 5,
     "name" : "android::hardware::wifi::supplicant::V1_0::ISupplicantStaNetwork::ParamSizeLimits::WEP40_KEY_LEN_IN_BYTES"
    },
    {
     "enum_field_value" : 13,
     "name" : "android::hardware::wifi::supplicant::V1_0::ISupplicantStaNetwork::ParamSizeLimits::WEP104_KEY_LEN_IN_BYTES"
    }
   ],
   "linker_set_key" : "_ZTIN7android8hardware4wifi10supplicant4V1_021ISupplicantStaNetwork15ParamSizeLimitsE",
   "name" : "android::hardware::wifi::supplicant::V1_0::ISupplicantStaNetwork::ParamSizeLimits",
   "referenced_type" : "_ZTIN7android8hardware4wifi10supplicant4V1_021ISupplicantStaNetwork15ParamSizeLimitsE",
   "self_type" : "_ZTIN7android8hardware4wifi10supplicant4V1_021ISupplicantStaNetwork15ParamSizeLimitsE",
   "size" : 4,
   "source_file" : "/out/soong/.intermediates/hardware/interfaces/wifi/supplicant/1.0/android.hardware.wifi.supplicant@1.0_genc++_headers/gen/android/hardware/wifi/supplicant/1.0/ISupplicantStaNetwork.h",
   "underlying_type" : "_ZTIj"
  },
  {
   "alignment" : 4,
   "enum_fields" :
   [
    {
     "enum_field_value" : 1,
     "name" : "android::hardware::wifi::supplicant::V1_0::ISupplicantStaNetwork::PairwiseCipherMask::NONE"
    },
    {
     "enum_field_value" : 8,
     "name" : "android::hardware::wifi::supplicant::V1_0::ISupplicantStaNetwork::PairwiseCipherMask::TKIP"
    },
    {
     "enum_field_value" : 16,
     "name" : "android::hardware::wifi::supplicant::V1_0::ISupplicantStaNetwork::PairwiseCipherMask::CCMP"
    }
   ],
   "linker_set_key" : "_ZTIN7android8hardware4wifi10supplicant4V1_021ISupplicantStaNetwork18PairwiseCipherMaskE",
   "name" : "android::hardware::wifi::supplicant::V1_0::ISupplicantStaNetwork::PairwiseCipherMask",
   "referenced_type" : "_ZTIN7android8hardware4wifi10supplicant4V1_021ISupplicantStaNetwork18PairwiseCipherMaskE",
   "self_type" : "_ZTIN7android8hardware4wifi10supplicant4V1_021ISupplicantStaNetwork18PairwiseCipherMaskE",
   "size" : 4,
   "source_file" : "/out/soong/.intermediates/hardware/interfaces/wifi/supplicant/1.0/android.hardware.wifi.supplicant@1.0_genc++_headers/gen/android/hardware/wifi/supplicant/1.0/ISupplicantStaNetwork.h",
   "underlying_type" : "_ZTIj"
  },
  {
   "alignment" : 4,
   "enum_fields" :
   [
    {
     "enum_field_value" : 0,
     "name" : "android::hardware::wifi::supplicant::V1_0::ISupplicantStaNetwork::EapMethod::PEAP"
    },
    {
     "enum_field_value" : 1,
     "name" : "android::hardware::wifi::supplicant::V1_0::ISupplicantStaNetwork::EapMethod::TLS"
    },
    {
     "enum_field_value" : 2,
     "name" : "android::hardware::wifi::supplicant::V1_0::ISupplicantStaNetwork::EapMethod::TTLS"
    },
    {
     "enum_field_value" : 3,
     "name" : "android::hardware::wifi::supplicant::V1_0::ISupplicantStaNetwork::EapMethod::PWD"
    },
    {
     "enum_field_value" : 4,
     "name" : "android::hardware::wifi::supplicant::V1_0::ISupplicantStaNetwork::EapMethod::SIM"
    },
    {
     "enum_field_value" : 5,
     "name" : "android::hardware::wifi::supplicant::V1_0::ISupplicantStaNetwork::EapMethod::AKA"
    },
    {
     "enum_field_value" : 6,
     "name" : "android::hardware::wifi::supplicant::V1_0::ISupplicantStaNetwork::EapMethod::AKA_PRIME"
    },
    {
     "enum_field_value" : 7,
     "name" : "android::hardware::wifi::supplicant::V1_0::ISupplicantStaNetwork::EapMethod::WFA_UNAUTH_TLS"
    }
   ],
   "linker_set_key" : "_ZTIN7android8hardware4wifi10supplicant4V1_021ISupplicantStaNetwork9EapMethodE",
   "name" : "android::hardware::wifi::supplicant::V1_0::ISupplicantStaNetwork::EapMethod",
   "referenced_type" : "_ZTIN7android8hardware4wifi10supplicant4V1_021ISupplicantStaNetwork9EapMethodE",
   "self_type" : "_ZTIN7android8hardware4wifi10supplicant4V1_021ISupplicantStaNetwork9EapMethodE",
   "size" : 4,
   "source_file" : "/out/soong/.intermediates/hardware/interfaces/wifi/supplicant/1.0/android.hardware.wifi.supplicant@1.0_genc++_headers/gen/android/hardware/wifi/supplicant/1.0/ISupplicantStaNetwork.h",
   "underlying_type" : "_ZTIj"
  },
  {
   "alignment" : 4,
   "enum_fields" :
   [
    {
     "enum_field_value" : 1,
     "name" : "android::hardware::wifi::supplicant::V1_0::ISupplicantStaNetwork::ProtoMask::WPA"
    },
    {
     "enum_field_value" : 2,
     "name" : "android::hardware::wifi::supplicant::V1_0::ISupplicantStaNetwork::ProtoMask::RSN"
    },
    {
     "enum_field_value" : 8,
     "name" : "android::hardware::wifi::supplicant::V1_0::ISupplicantStaNetwork::ProtoMask::OSEN"
    }
   ],
   "linker_set_key" : "_ZTIN7android8hardware4wifi10supplicant4V1_021ISupplicantStaNetwork9ProtoMaskE",
   "name" : "android::hardware::wifi::supplicant::V1_0::ISupplicantStaNetwork::ProtoMask",
   "referenced_type" : "_ZTIN7android8hardware4wifi10supplicant4V1_021ISupplicantStaNetwork9ProtoMaskE",
   "self_type" : "_ZTIN7android8hardware4wifi10supplicant4V1_021ISupplicantStaNetwork9ProtoMaskE",
   "size" : 4,
   "source_file" : "/out/soong/.intermediates/hardware/interfaces/wifi/supplicant/1.0/android.hardware.wifi.supplicant@1.0_genc++_headers/gen/android/hardware/wifi/supplicant/1.0/ISupplicantStaNetwork.h",
   "underlying_type" : "_ZTIj"
  },
  {
   "alignment" : 4,
   "enum_fields" :
   [
    {
     "enum_field_value" : 1,
     "name" : "android::hardware::wifi::supplicant::V1_0::P2pGroupCapabilityMask::GROUP_OWNER"
    },
    {
     "enum_field_value" : 2,
     "name" : "android::hardware::wifi::supplicant::V1_0::P2pGroupCapabilityMask::PERSISTENT_GROUP"
    },
    {
     "enum_field_value" : 4,
     "name" : "android::hardware::wifi::supplicant::V1_0::P2pGroupCapabilityMask::GROUP_LIMIT"
    },
    {
     "enum_field_value" : 8,
     "name" : "android::hardware::wifi::supplicant::V1_0::P2pGroupCapabilityMask::INTRA_BSS_DIST"
    },
    {
     "enum_field_value" : 16,
     "name" : "android::hardware::wifi::supplicant::V1_0::P2pGroupCapabilityMask::CROSS_CONN"
    },
    {
     "enum_field_value" : 32,
     "name" : "android::hardware::wifi::supplicant::V1_0::P2pGroupCapabilityMask::PERSISTENT_RECONN"
    },
    {
     "enum_field_value" : 64,
     "name" : "android::hardware::wifi::supplicant::V1_0::P2pGroupCapabilityMask::GROUP_FORMATION"
    }
   ],
   "linker_set_key" : "_ZTIN7android8hardware4wifi10supplicant4V1_022P2pGroupCapabilityMaskE",
   "name" : "android::hardware::wifi::supplicant::V1_0::P2pGroupCapabilityMask",
   "referenced_type" : "_ZTIN7android8hardware4wifi10supplicant4V1_022P2pGroupCapabilityMaskE",
   "self_type" : "_ZTIN7android8hardware4wifi10supplicant4V1_022P2pGroupCapabilityMaskE",
   "size" : 4,
   "source_file" : "/out/soong/.intermediates/hardware/interfaces/wifi/supplicant/1.0/android.hardware.wifi.supplicant@1.0_genc++_headers/gen/android/hardware/wifi/supplicant/1.0/types.h",
   "underlying_type" : "_ZTIj"
  },
  {
   "alignment" : 4,
   "enum_fields" :
   [
    {
     "enum_field_value" : 1,
     "name" : "android::hardware::wifi::supplicant::V1_0::ISupplicantStaIfaceCallback::ReasonCode::UNSPECIFIED"
    },
    {
     "enum_field_value" : 2,
     "name" : "android::hardware::wifi::supplicant::V1_0::ISupplicantStaIfaceCallback::ReasonCode::PREV_AUTH_NOT_VALID"
    },
    {
     "enum_field_value" : 3,
     "name" : "android::hardware::wifi::supplicant::V1_0::ISupplicantStaIfaceCallback::ReasonCode::DEAUTH_LEAVING"
    },
    {
     "enum_field_value" : 4,
     "name" : "android::hardware::wifi::supplicant::V1_0::ISupplicantStaIfaceCallback::ReasonCode::DISASSOC_DUE_TO_INACTIVITY"
    },
    {
     "enum_field_value" : 5,
     "name" : "android::hardware::wifi::supplicant::V1_0::ISupplicantStaIfaceCallback::ReasonCode::DISASSOC_AP_BUSY"
    },
    {
     "enum_field_value" : 6,
     "name" : "android::hardware::wifi::supplicant::V1_0::ISupplicantStaIfaceCallback::ReasonCode::CLASS2_FRAME_FROM_NONAUTH_STA"
    },
    {
     "enum_field_value" : 7,
     "name" : "android::hardware::wifi::supplicant::V1_0::ISupplicantStaIfaceCallback::ReasonCode::CLASS3_FRAME_FROM_NONASSOC_STA"
    },
    {
     "enum_field_value" : 8,
     "name" : "android::hardware::wifi::supplicant::V1_0::ISupplicantStaIfaceCallback::ReasonCode::DISASSOC_STA_HAS_LEFT"
    },
    {
     "enum_field_value" : 9,
     "name" : "android::hardware::wifi::supplicant::V1_0::ISupplicantStaIfaceCallback::ReasonCode::STA_REQ_ASSOC_WITHOUT_AUTH"
    },
    {
     "enum_field_value" : 10,
     "name" : "android::hardware::wifi::supplicant::V1_0::ISupplicantStaIfaceCallback::ReasonCode::PWR_CAPABILITY_NOT_VALID"
    },
    {
     "enum_field_value" : 11,
     "name" : "android::hardware::wifi::supplicant::V1_0::ISupplicantStaIfaceCallback::ReasonCode::SUPPORTED_CHANNEL_NOT_VALID"
    },
    {
     "enum_field_value" : 12,
     "name" : "android::hardware::wifi::supplicant::V1_0::ISupplicantStaIfaceCallback::ReasonCode::BSS_TRANSITION_DISASSOC"
    },
    {
     "enum_field_value" : 13,
     "name" : "android::hardware::wifi::supplicant::V1_0::ISupplicantStaIfaceCallback::ReasonCode::INVALID_IE"
    },
    {
     "enum_field_value" : 14,
     "name" : "android::hardware::wifi::supplicant::V1_0::ISupplicantStaIfaceCallback::ReasonCode::MICHAEL_MIC_FAILURE"
    },
    {
     "enum_field_value" : 15,
     "name" : "android::hardware::wifi::supplicant::V1_0::ISupplicantStaIfaceCallback::ReasonCode::FOURWAY_HANDSHAKE_TIMEOUT"
    },
    {
     "enum_field_value" : 16,
     "name" : "android::hardware::wifi::supplicant::V1_0::ISupplicantStaIfaceCallback::ReasonCode::GROUP_KEY_UPDATE_TIMEOUT"
    },
    {
     "enum_field_value" : 17,
     "name" : "android::hardware::wifi::supplicant::V1_0::ISupplicantStaIfaceCallback::ReasonCode::IE_IN_4WAY_DIFFERS"
    },
    {
     "enum_field_value" : 18,
     "name" : "android::hardware::wifi::supplicant::V1_0::ISupplicantStaIfaceCallback::ReasonCode::GROUP_CIPHER_NOT_VALID"
    },
    {
     "enum_field_value" : 19,
     "name" : "android::hardware::wifi::supplicant::V1_0::ISupplicantStaIfaceCallback::ReasonCode::PAIRWISE_CIPHER_NOT_VALID"
    },
    {
     "enum_field_value" : 20,
     "name" : "android::hardware::wifi::supplicant::V1_0::ISupplicantStaIfaceCallback::ReasonCode::AKMP_NOT_VALID"
    },
    {
     "enum_field_value" : 21,
     "name" : "android::hardware::wifi::supplicant::V1_0::ISupplicantStaIfaceCallback::ReasonCode::UNSUPPORTED_RSN_IE_VERSION"
    },
    {
     "enum_field_value" : 22,
     "name" : "android::hardware::wifi::supplicant::V1_0::ISupplicantStaIfaceCallback::ReasonCode::INVALID_RSN_IE_CAPAB"
    },
    {
     "enum_field_value" : 23,
     "name" : "android::hardware::wifi::supplicant::V1_0::ISupplicantStaIfaceCallback::ReasonCode::IEEE_802_1X_AUTH_FAILED"
    },
    {
     "enum_field_value" : 24,
     "name" : "android::hardware::wifi::supplicant::V1_0::ISupplicantStaIfaceCallback::ReasonCode::CIPHER_SUITE_REJECTED"
    },
    {
     "enum_field_value" : 25,
     "name" : "android::hardware::wifi::supplicant::V1_0::ISupplicantStaIfaceCallback::ReasonCode::TDLS_TEARDOWN_UNREACHABLE"
    },
    {
     "enum_field_value" : 26,
     "name" : "android::hardware::wifi::supplicant::V1_0::ISupplicantStaIfaceCallback::ReasonCode::TDLS_TEARDOWN_UNSPECIFIED"
    },
    {
     "enum_field_value" : 27,
     "name" : "android::hardware::wifi::supplicant::V1_0::ISupplicantStaIfaceCallback::ReasonCode::SSP_REQUESTED_DISASSOC"
    },
    {
     "enum_field_value" : 28,
     "name" : "android::hardware::wifi::supplicant::V1_0::ISupplicantStaIfaceCallback::ReasonCode::NO_SSP_ROAMING_AGREEMENT"
    },
    {
     "enum_field_value" : 29,
     "name" : "android::hardware::wifi::supplicant::V1_0::ISupplicantStaIfaceCallback::ReasonCode::BAD_CIPHER_OR_AKM"
    },
    {
     "enum_field_value" : 30,
     "name" : "android::hardware::wifi::supplicant::V1_0::ISupplicantStaIfaceCallback::ReasonCode::NOT_AUTHORIZED_THIS_LOCATION"
    },
    {
     "enum_field_value" : 31,
     "name" : "android::hardware::wifi::supplicant::V1_0::ISupplicantStaIfaceCallback::ReasonCode::SERVICE_CHANGE_PRECLUDES_TS"
    },
    {
     "enum_field_value" : 32,
     "name" : "android::hardware::wifi::supplicant::V1_0::ISupplicantStaIfaceCallback::ReasonCode::UNSPECIFIED_QOS_REASON"
    },
    {
     "enum_field_value" : 33,
     "name" : "android::hardware::wifi::supplicant::V1_0::ISupplicantStaIfaceCallback::ReasonCode::NOT_ENOUGH_BANDWIDTH"
    },
    {
     "enum_field_value" : 34,
     "name" : "android::hardware::wifi::supplicant::V1_0::ISupplicantStaIfaceCallback::ReasonCode::DISASSOC_LOW_ACK"
    },
    {
     "enum_field_value" : 35,
     "name" : "android::hardware::wifi::supplicant::V1_0::ISupplicantStaIfaceCallback::ReasonCode::EXCEEDED_TXOP"
    },
    {
     "enum_field_value" : 36,
     "name" : "android::hardware::wifi::supplicant::V1_0::ISupplicantStaIfaceCallback::ReasonCode::STA_LEAVING"
    },
    {
     "enum_field_value" : 37,
     "name" : "android::hardware::wifi::supplicant::V1_0::ISupplicantStaIfaceCallback::ReasonCode::END_TS_BA_DLS"
    },
    {
     "enum_field_value" : 38,
     "name" : "android::hardware::wifi::supplicant::V1_0::ISupplicantStaIfaceCallback::ReasonCode::UNKNOWN_TS_BA"
    },
    {
     "enum_field_value" : 39,
     "name" : "android::hardware::wifi::supplicant::V1_0::ISupplicantStaIfaceCallback::ReasonCode::TIMEOUT"
    },
    {
     "enum_field_value" : 45,
     "name" : "android::hardware::wifi::supplicant::V1_0::ISupplicantStaIfaceCallback::ReasonCode::PEERKEY_MISMATCH"
    },
    {
     "enum_field_value" : 46,
     "name" : "android::hardware::wifi::supplicant::V1_0::ISupplicantStaIfaceCallback::ReasonCode::AUTHORIZED_ACCESS_LIMIT_REACHED"
    },
    {
     "enum_field_value" : 47,
     "name" : "android::hardware::wifi::supplicant::V1_0::ISupplicantStaIfaceCallback::ReasonCode::EXTERNAL_SERVICE_REQUIREMENTS"
    },
    {
     "enum_field_value" : 48,
     "name" : "android::hardware::wifi::supplicant::V1_0::ISupplicantStaIfaceCallback::ReasonCode::INVALID_FT_ACTION_FRAME_COUNT"
    },
    {
     "enum_field_value" : 49,
     "name" : "android::hardware::wifi::supplicant::V1_0::ISupplicantStaIfaceCallback::ReasonCode::INVALID_PMKID"
    },
    {
     "enum_field_value" : 50,
     "name" : "android::hardware::wifi::supplicant::V1_0::ISupplicantStaIfaceCallback::ReasonCode::INVALID_MDE"
    },
    {
     "enum_field_value" : 51,
     "name" : "android::hardware::wifi::supplicant::V1_0::ISupplicantStaIfaceCallback::ReasonCode::INVALID_FTE"
    },
    {
     "enum_field_value" : 52,
     "name" : "android::hardware::wifi::supplicant::V1_0::ISupplicantStaIfaceCallback::ReasonCode::MESH_PEERING_CANCELLED"
    },
    {
     "enum_field_value" : 53,
     "name" : "android::hardware::wifi::supplicant::V1_0::ISupplicantStaIfaceCallback::ReasonCode::MESH_MAX_PEERS"
    },
    {
     "enum_field_value" : 54,
     "name" : "android::hardware::wifi::supplicant::V1_0::ISupplicantStaIfaceCallback::ReasonCode::MESH_CONFIG_POLICY_VIOLATION"
    },
    {
     "enum_field_value" : 55,
     "name" : "android::hardware::wifi::supplicant::V1_0::ISupplicantStaIfaceCallback::ReasonCode::MESH_CLOSE_RCVD"
    },
    {
     "enum_field_value" : 56,
     "name" : "android::hardware::wifi::supplicant::V1_0::ISupplicantStaIfaceCallback::ReasonCode::MESH_MAX_RETRIES"
    },
    {
     "enum_field_value" : 57,
     "name" : "android::hardware::wifi::supplicant::V1_0::ISupplicantStaIfaceCallback::ReasonCode::MESH_CONFIRM_TIMEOUT"
    },
    {
     "enum_field_value" : 58,
     "name" : "android::hardware::wifi::supplicant::V1_0::ISupplicantStaIfaceCallback::ReasonCode::MESH_INVALID_GTK"
    },
    {
     "enum_field_value" : 59,
     "name" : "android::hardware::wifi::supplicant::V1_0::ISupplicantStaIfaceCallback::ReasonCode::MESH_INCONSISTENT_PARAMS"
    },
    {
     "enum_field_value" : 60,
     "name" : "android::hardware::wifi::supplicant::V1_0::ISupplicantStaIfaceCallback::ReasonCode::MESH_INVALID_SECURITY_CAP"
    },
    {
     "enum_field_value" : 61,
     "name" : "android::hardware::wifi::supplicant::V1_0::ISupplicantStaIfaceCallback::ReasonCode::MESH_PATH_ERROR_NO_PROXY_INFO"
    },
    {
     "enum_field_value" : 62,
     "name" : "android::hardware::wifi::supplicant::V1_0::ISupplicantStaIfaceCallback::ReasonCode::MESH_PATH_ERROR_NO_FORWARDING_INFO"
    },
    {
     "enum_field_value" : 63,
     "name" : "android::hardware::wifi::supplicant::V1_0::ISupplicantStaIfaceCallback::ReasonCode::MESH_PATH_ERROR_DEST_UNREACHABLE"
    },
    {
     "enum_field_value" : 64,
     "name" : "android::hardware::wifi::supplicant::V1_0::ISupplicantStaIfaceCallback::ReasonCode::MAC_ADDRESS_ALREADY_EXISTS_IN_MBSS"
    },
    {
     "enum_field_value" : 65,
     "name" : "android::hardware::wifi::supplicant::V1_0::ISupplicantStaIfaceCallback::ReasonCode::MESH_CHANNEL_SWITCH_REGULATORY_REQ"
    },
    {
     "enum_field_value" : 66,
     "name" : "android::hardware::wifi::supplicant::V1_0::ISupplicantStaIfaceCallback::ReasonCode::MESH_CHANNEL_SWITCH_UNSPECIFIED"
    }
   ],
   "linker_set_key" : "_ZTIN7android8hardware4wifi10supplicant4V1_027ISupplicantStaIfaceCallback10ReasonCodeE",
   "name" : "android::hardware::wifi::supplicant::V1_0::ISupplicantStaIfaceCallback::ReasonCode",
   "referenced_type" : "_ZTIN7android8hardware4wifi10supplicant4V1_027ISupplicantStaIfaceCallback10ReasonCodeE",
   "self_type" : "_ZTIN7android8hardware4wifi10supplicant4V1_027ISupplicantStaIfaceCallback10ReasonCodeE",
   "size" : 4,
   "source_file" : "/out/soong/.intermediates/hardware/interfaces/wifi/supplicant/1.0/android.hardware.wifi.supplicant@1.0_genc++_headers/gen/android/hardware/wifi/supplicant/1.0/ISupplicantStaIfaceCallback.h",
   "underlying_type" : "_ZTIj"
  },
  {
   "alignment" : 4,
   "enum_fields" :
   [
    {
     "enum_field_value" : 0,
     "name" : "android::hardware::wifi::supplicant::V1_0::ISupplicantStaIfaceCallback::StatusCode::SUCCESS"
    },
    {
     "enum_field_value" : 1,
     "name" : "android::hardware::wifi::supplicant::V1_0::ISupplicantStaIfaceCallback::StatusCode::UNSPECIFIED_FAILURE"
    },
    {
     "enum_field_value" : 2,
     "name" : "android::hardware::wifi::supplicant::V1_0::ISupplicantStaIfaceCallback::StatusCode::TDLS_WAKEUP_ALTERNATE"
    },
    {
     "enum_field_value" : 3,
     "name" : "android::hardware::wifi::supplicant::V1_0::ISupplicantStaIfaceCallback::StatusCode::TDLS_WAKEUP_REJECT"
    },
    {
     "enum_field_value" : 5,
     "name" : "android::hardware::wifi::supplicant::V1_0::ISupplicantStaIfaceCallback::StatusCode::SECURITY_DISABLED"
    },
    {
     "enum_field_value" : 6,
     "name" : "android::hardware::wifi::supplicant::V1_0::ISupplicantStaIfaceCallback::StatusCode::UNACCEPTABLE_LIFETIME"
    },
    {
     "enum_field_value" : 7,
     "name" : "android::hardware::wifi::supplicant::V1_0::ISupplicantStaIfaceCallback::StatusCode::NOT_IN_SAME_BSS"
    },
    {
     "enum_field_value" : 10,
     "name" : "android::hardware::wifi::supplicant::V1_0::ISupplicantStaIfaceCallback::StatusCode::CAPS_UNSUPPORTED"
    },
    {
     "enum_field_value" : 11,
     "name" : "android::hardware::wifi::supplicant::V1_0::ISupplicantStaIfaceCallback::StatusCode::REASSOC_NO_ASSOC"
    },
    {
     "enum_field_value" : 12,
     "name" : "android::hardware::wifi::supplicant::V1_0::ISupplicantStaIfaceCallback::StatusCode::ASSOC_DENIED_UNSPEC"
    },
    {
     "enum_field_value" : 13,
     "name" : "android::hardware::wifi::supplicant::V1_0::ISupplicantStaIfaceCallback::StatusCode::NOT_SUPPORTED_AUTH_ALG"
    },
    {
     "enum_field_value" : 14,
     "name" : "android::hardware::wifi::supplicant::V1_0::ISupplicantStaIfaceCallback::StatusCode::UNKNOWN_AUTH_TRANSACTION"
    },
    {
     "enum_field_value" : 15,
     "name" : "android::hardware::wifi::supplicant::V1_0::ISupplicantStaIfaceCallback::StatusCode::CHALLENGE_FAIL"
    },
    {
     "enum_field_value" : 16,
     "name" : "android::hardware::wifi::supplicant::V1_0::ISupplicantStaIfaceCallback::StatusCode::AUTH_TIMEOUT"
    },
    {
     "enum_field_value" : 17,
     "name" : "android::hardware::wifi::supplicant::V1_0::ISupplicantStaIfaceCallback::StatusCode::AP_UNABLE_TO_HANDLE_NEW_STA"
    },
    {
     "enum_field_value" : 18,
     "name" : "android::hardware::wifi::supplicant::V1_0::ISupplicantStaIfaceCallback::StatusCode::ASSOC_DENIED_RATES"
    },
    {
     "enum_field_value" : 19,
     "name" : "android::hardware::wifi::supplicant::V1_0::ISupplicantStaIfaceCallback::StatusCode::ASSOC_DENIED_NOSHORT"
    },
    {
     "enum_field_value" : 22,
     "name" : "android::hardware::wifi::supplicant::V1_0::ISupplicantStaIfaceCallback::StatusCode::SPEC_MGMT_REQUIRED"
    },
    {
     "enum_field_value" : 23,
     "name" : "android::hardware::wifi::supplicant::V1_0::ISupplicantStaIfaceCallback::StatusCode::PWR_CAPABILITY_NOT_VALID"
    },
    {
     "enum_field_value" : 24,
     "name" : "android::hardware::wifi::supplicant::V1_0::ISupplicantStaIfaceCallback::StatusCode::SUPPORTED_CHANNEL_NOT_VALID"
    },
    {
     "enum_field_value" : 25,
     "name" : "android::hardware::wifi::supplicant::V1_0::ISupplicantStaIfaceCallback::StatusCode::ASSOC_DENIED_NO_SHORT_SLOT_TIME"
    },
    {
     "enum_field_value" : 27,
     "name" : "android::hardware::wifi::supplicant::V1_0::ISupplicantStaIfaceCallback::StatusCode::ASSOC_DENIED_NO_HT"
    },
    {
     "enum_field_value" : 28,
     "name" : "android::hardware::wifi::supplicant::V1_0::ISupplicantStaIfaceCallback::StatusCode::R0KH_UNREACHABLE"
    },
    {
     "enum_field_value" : 29,
     "name" : "android::hardware::wifi::supplicant::V1_0::ISupplicantStaIfaceCallback::StatusCode::ASSOC_DENIED_NO_PCO"
    },
    {
     "enum_field_value" : 30,
     "name" : "android::hardware::wifi::supplicant::V1_0::ISupplicantStaIfaceCallback::StatusCode::ASSOC_REJECTED_TEMPORARILY"
    },
    {
     "enum_field_value" : 31,
     "name" : "android::hardware::wifi::supplicant::V1_0::ISupplicantStaIfaceCallback::StatusCode::ROBUST_MGMT_FRAME_POLICY_VIOLATION"
    },
    {
     "enum_field_value" : 32,
     "name" : "android::hardware::wifi::supplicant::V1_0::ISupplicantStaIfaceCallback::StatusCode::UNSPECIFIED_QOS_FAILURE"
    },
    {
     "enum_field_value" : 33,
     "name" : "android::hardware::wifi::supplicant::V1_0::ISupplicantStaIfaceCallback::StatusCode::DENIED_INSUFFICIENT_BANDWIDTH"
    },
    {
     "enum_field_value" : 34,
     "name" : "android::hardware::wifi::supplicant::V1_0::ISupplicantStaIfaceCallback::StatusCode::DENIED_POOR_CHANNEL_CONDITIONS"
    },
    {
     "enum_field_value" : 35,
     "name" : "android::hardware::wifi::supplicant::V1_0::ISupplicantStaIfaceCallback::StatusCode::DENIED_QOS_NOT_SUPPORTED"
    },
    {
     "enum_field_value" : 37,
     "name" : "android::hardware::wifi::supplicant::V1_0::ISupplicantStaIfaceCallback::StatusCode::REQUEST_DECLINED"
    },
    {
     "enum_field_value" : 38,
     "name" : "android::hardware::wifi::supplicant::V1_0::ISupplicantStaIfaceCallback::StatusCode::INVALID_PARAMETERS"
    },
    {
     "enum_field_value" : 39,
     "name" : "android::hardware::wifi::supplicant::V1_0::ISupplicantStaIfaceCallback::StatusCode::REJECTED_WITH_SUGGESTED_CHANGES"
    },
    {
     "enum_field_value" : 40,
     "name" : "android::hardware::wifi::supplicant::V1_0::ISupplicantStaIfaceCallback::StatusCode::INVALID_IE"
    },
    {
     "enum_field_value" : 41,
     "name" : "android::hardware::wifi::supplicant::V1_0::ISupplicantStaIfaceCallback::StatusCode::GROUP_CIPHER_NOT_VALID"
    },
    {
     "enum_field_value" : 42,
     "name" : "android::hardware::wifi::supplicant::V1_0::ISupplicantStaIfaceCallback::StatusCode::PAIRWISE_CIPHER_NOT_VALID"
    },
    {
     "enum_field_value" : 43,
     "name" : "android::hardware::wifi::supplicant::V1_0::ISupplicantStaIfaceCallback::StatusCode::AKMP_NOT_VALID"
    },
    {
     "enum_field_value" : 44,
     "name" : "android::hardware::wifi::supplicant::V1_0::ISupplicantStaIfaceCallback::StatusCode::UNSUPPORTED_RSN_IE_VERSION"
    },
    {
     "enum_field_value" : 45,
     "name" : "android::hardware::wifi::supplicant::V1_0::ISupplicantStaIfaceCallback::StatusCode::INVALID_RSN_IE_CAPAB"
    },
    {
     "enum_field_value" : 46,
     "name" : "android::hardware::wifi::supplicant::V1_0::ISupplicantStaIfaceCallback::StatusCode::CIPHER_REJECTED_PER_POLICY"
    },
    {
     "enum_field_value" : 47,
     "name" : "android::hardware::wifi::supplicant::V1_0::ISupplicantStaIfaceCallback::StatusCode::TS_NOT_CREATED"
    },
    {
     "enum_field_value" : 48,
     "name" : "android::hardware::wifi::supplicant::V1_0::ISupplicantStaIfaceCallback::StatusCode::DIRECT_LINK_NOT_ALLOWED"
    },
    {
     "enum_field_value" : 49,
     "name" : "android::hardware::wifi::supplicant::V1_0::ISupplicantStaIfaceCallback::StatusCode::DEST_STA_NOT_PRESENT"
    },
    {
     "enum_field_value" : 50,
     "name" : "android::hardware::wifi::supplicant::V1_0::ISupplicantStaIfaceCallback::StatusCode::DEST_STA_NOT_QOS_STA"
    },
    {
     "enum_field_value" : 51,
     "name" : "android::hardware::wifi::supplicant::V1_0::ISupplicantStaIfaceCallback::StatusCode::ASSOC_DENIED_LISTEN_INT_TOO_LARGE"
    },
    {
     "enum_field_value" : 52,
     "name" : "android::hardware::wifi::supplicant::V1_0::ISupplicantStaIfaceCallback::StatusCode::INVALID_FT_ACTION_FRAME_COUNT"
    },
    {
     "enum_field_value" : 53,
     "name" : "android::hardware::wifi::supplicant::V1_0::ISupplicantStaIfaceCallback::StatusCode::INVALID_PMKID"
    },
    {
     "enum_field_value" : 54,
     "name" : "android::hardware::wifi::supplicant::V1_0::ISupplicantStaIfaceCallback::StatusCode::INVALID_MDIE"
    },
    {
     "enum_field_value" : 55,
     "name" : "android::hardware::wifi::supplicant::V1_0::ISupplicantStaIfaceCallback::StatusCode::INVALID_FTIE"
    },
    {
     "enum_field_value" : 56,
     "name" : "android::hardware::wifi::supplicant::V1_0::ISupplicantStaIfaceCallback::StatusCode::REQUESTED_TCLAS_NOT_SUPPORTED"
    },
    {
     "enum_field_value" : 57,
     "name" : "android::hardware::wifi::supplicant::V1_0::ISupplicantStaIfaceCallback::StatusCode::INSUFFICIENT_TCLAS_PROCESSING_RESOURCES"
    },
    {
     "enum_field_value" : 58,
     "name" : "android::hardware::wifi::supplicant::V1_0::ISupplicantStaIfaceCallback::StatusCode::TRY_ANOTHER_BSS"
    },
    {
     "enum_field_value" : 59,
     "name" : "android::hardware::wifi::supplicant::V1_0::ISupplicantStaIfaceCallback::StatusCode::GAS_ADV_PROTO_NOT_SUPPORTED"
    },
    {
     "enum_field_value" : 60,
     "name" : "android::hardware::wifi::supplicant::V1_0::ISupplicantStaIfaceCallback::StatusCode::NO_OUTSTANDING_GAS_REQ"
    },
    {
     "enum_field_value" : 61,
     "name" : "android::hardware::wifi::supplicant::V1_0::ISupplicantStaIfaceCallback::StatusCode::GAS_RESP_NOT_RECEIVED"
    },
    {
     "enum_field_value" : 62,
     "name" : "android::hardware::wifi::supplicant::V1_0::ISupplicantStaIfaceCallback::StatusCode::STA_TIMED_OUT_WAITING_FOR_GAS_RESP"
    },
    {
     "enum_field_value" : 63,
     "name" : "android::hardware::wifi::supplicant::V1_0::ISupplicantStaIfaceCallback::StatusCode::GAS_RESP_LARGER_THAN_LIMIT"
    },
    {
     "enum_field_value" : 64,
     "name" : "android::hardware::wifi::supplicant::V1_0::ISupplicantStaIfaceCallback::StatusCode::REQ_REFUSED_HOME"
    },
    {
     "enum_field_value" : 65,
     "name" : "android::hardware::wifi::supplicant::V1_0::ISupplicantStaIfaceCallback::StatusCode::ADV_SRV_UNREACHABLE"
    },
    {
     "enum_field_value" : 67,
     "name" : "android::hardware::wifi::supplicant::V1_0::ISupplicantStaIfaceCallback::StatusCode::REQ_REFUSED_SSPN"
    },
    {
     "enum_field_value" : 68,
     "name" : "android::hardware::wifi::supplicant::V1_0::ISupplicantStaIfaceCallback::StatusCode::REQ_REFUSED_UNAUTH_ACCESS"
    },
    {
     "enum_field_value" : 72,
     "name" : "android::hardware::wifi::supplicant::V1_0::ISupplicantStaIfaceCallback::StatusCode::INVALID_RSNIE"
    },
    {
     "enum_field_value" : 73,
     "name" : "android::hardware::wifi::supplicant::V1_0::ISupplicantStaIfaceCallback::StatusCode::U_APSD_COEX_NOT_SUPPORTED"
    },
    {
     "enum_field_value" : 74,
     "name" : "android::hardware::wifi::supplicant::V1_0::ISupplicantStaIfaceCallback::StatusCode::U_APSD_COEX_MODE_NOT_SUPPORTED"
    },
    {
     "enum_field_value" : 75,
     "name" : "android::hardware::wifi::supplicant::V1_0::ISupplicantStaIfaceCallback::StatusCode::BAD_INTERVAL_WITH_U_APSD_COEX"
    },
    {
     "enum_field_value" : 76,
     "name" : "android::hardware::wifi::supplicant::V1_0::ISupplicantStaIfaceCallback::StatusCode::ANTI_CLOGGING_TOKEN_REQ"
    },
    {
     "enum_field_value" : 77,
     "name" : "android::hardware::wifi::supplicant::V1_0::ISupplicantStaIfaceCallback::StatusCode::FINITE_CYCLIC_GROUP_NOT_SUPPORTED"
    },
    {
     "enum_field_value" : 78,
     "name" : "android::hardware::wifi::supplicant::V1_0::ISupplicantStaIfaceCallback::StatusCode::CANNOT_FIND_ALT_TBTT"
    },
    {
     "enum_field_value" : 79,
     "name" : "android::hardware::wifi::supplicant::V1_0::ISupplicantStaIfaceCallback::StatusCode::TRANSMISSION_FAILURE"
    },
    {
     "enum_field_value" : 80,
     "name" : "android::hardware::wifi::supplicant::V1_0::ISupplicantStaIfaceCallback::StatusCode::REQ_TCLAS_NOT_SUPPORTED"
    },
    {
     "enum_field_value" : 81,
     "name" : "android::hardware::wifi::supplicant::V1_0::ISupplicantStaIfaceCallback::StatusCode::TCLAS_RESOURCES_EXCHAUSTED"
    },
    {
     "enum_field_value" : 82,
     "name" : "android::hardware::wifi::supplicant::V1_0::ISupplicantStaIfaceCallback::StatusCode::REJECTED_WITH_SUGGESTED_BSS_TRANSITION"
    },
    {
     "enum_field_value" : 83,
     "name" : "android::hardware::wifi::supplicant::V1_0::ISupplicantStaIfaceCallback::StatusCode::REJECT_WITH_SCHEDULE"
    },
    {
     "enum_field_value" : 84,
     "name" : "android::hardware::wifi::supplicant::V1_0::ISupplicantStaIfaceCallback::StatusCode::REJECT_NO_WAKEUP_SPECIFIED"
    },
    {
     "enum_field_value" : 85,
     "name" : "android::hardware::wifi::supplicant::V1_0::ISupplicantStaIfaceCallback::StatusCode::SUCCESS_POWER_SAVE_MODE"
    },
    {
     "enum_field_value" : 86,
     "name" : "android::hardware::wifi::supplicant::V1_0::ISupplicantStaIfaceCallback::StatusCode::PENDING_ADMITTING_FST_SESSION"
    },
    {
     "enum_field_value" : 87,
     "name" : "android::hardware::wifi::supplicant::V1_0::ISupplicantStaIfaceCallback::StatusCode::PERFORMING_FST_NOW"
    },
    {
     "enum_field_value" : 88,
     "name" : "android::hardware::wifi::supplicant::V1_0::ISupplicantStaIfaceCallback::StatusCode::PENDING_GAP_IN_BA_WINDOW"
    },
    {
     "enum_field_value" : 89,
     "name" : "android::hardware::wifi::supplicant::V1_0::ISupplicantStaIfaceCallback::StatusCode::REJECT_U_PID_SETTING"
    },
    {
     "enum_field_value" : 92,
     "name" : "android::hardware::wifi::supplicant::V1_0::ISupplicantStaIfaceCallback::StatusCode::REFUSED_EXTERNAL_REASON"
    },
    {
     "enum_field_value" : 93,
     "name" : "android::hardware::wifi::supplicant::V1_0::ISupplicantStaIfaceCallback::StatusCode::REFUSED_AP_OUT_OF_MEMORY"
    },
    {
     "enum_field_value" : 94,
     "name" : "android::hardware::wifi::supplicant::V1_0::ISupplicantStaIfaceCallback::StatusCode::REJECTED_EMERGENCY_SERVICE_NOT_SUPPORTED"
    },
    {
     "enum_field_value" : 95,
     "name" : "android::hardware::wifi::supplicant::V1_0::ISupplicantStaIfaceCallback::StatusCode::QUERY_RESP_OUTSTANDING"
    },
    {
     "enum_field_value" : 96,
     "name" : "android::hardware::wifi::supplicant::V1_0::ISupplicantStaIfaceCallback::StatusCode::REJECT_DSE_BAND"
    },
    {
     "enum_field_value" : 97,
     "name" : "android::hardware::wifi::supplicant::V1_0::ISupplicantStaIfaceCallback::StatusCode::TCLAS_PROCESSING_TERMINATED"
    },
    {
     "enum_field_value" : 98,
     "name" : "android::hardware::wifi::supplicant::V1_0::ISupplicantStaIfaceCallback::StatusCode::TS_SCHEDULE_CONFLICT"
    },
    {
     "enum_field_value" : 99,
     "name" : "android::hardware::wifi::supplicant::V1_0::ISupplicantStaIfaceCallback::StatusCode::DENIED_WITH_SUGGESTED_BAND_AND_CHANNEL"
    },
    {
     "enum_field_value" : 100,
     "name" : "android::hardware::wifi::supplicant::V1_0::ISupplicantStaIfaceCallback::StatusCode::MCCAOP_RESERVATION_CONFLICT"
    },
    {
     "enum_field_value" : 101,
     "name" : "android::hardware::wifi::supplicant::V1_0::ISupplicantStaIfaceCallback::StatusCode::MAF_LIMIT_EXCEEDED"
    },
    {
     "enum_field_value" : 102,
     "name" : "android::hardware::wifi::supplicant::V1_0::ISupplicantStaIfaceCallback::StatusCode::MCCA_TRACK_LIMIT_EXCEEDED"
    },
    {
     "enum_field_value" : 103,
     "name" : "android::hardware::wifi::supplicant::V1_0::ISupplicantStaIfaceCallback::StatusCode::DENIED_DUE_TO_SPECTRUM_MANAGEMENT"
    },
    {
     "enum_field_value" : 104,
     "name" : "android::hardware::wifi::supplicant::V1_0::ISupplicantStaIfaceCallback::StatusCode::ASSOC_DENIED_NO_VHT"
    },
    {
     "enum_field_value" : 105,
     "name" : "android::hardware::wifi::supplicant::V1_0::ISupplicantStaIfaceCallback::StatusCode::ENABLEMENT_DENIED"
    },
    {
     "enum_field_value" : 106,
     "name" : "android::hardware::wifi::supplicant::V1_0::ISupplicantStaIfaceCallback::StatusCode::RESTRICTION_FROM_AUTHORIZED_GDB"
    },
    {
     "enum_field_value" : 107,
     "name" : "android::hardware::wifi::supplicant::V1_0::ISupplicantStaIfaceCallback::StatusCode::AUTHORIZATION_DEENABLED"
    },
    {
     "enum_field_value" : 112,
     "name" : "android::hardware::wifi::supplicant::V1_0::ISupplicantStaIfaceCallback::StatusCode::FILS_AUTHENTICATION_FAILURE"
    },
    {
     "enum_field_value" : 113,
     "name" : "android::hardware::wifi::supplicant::V1_0::ISupplicantStaIfaceCallback::StatusCode::UNKNOWN_AUTHENTICATION_SERVER"
    }
   ],
   "linker_set_key" : "_ZTIN7android8hardware4wifi10supplicant4V1_027ISupplicantStaIfaceCallback10StatusCodeE",
   "name" : "android::hardware::wifi::supplicant::V1_0::ISupplicantStaIfaceCallback::StatusCode",
   "referenced_type" : "_ZTIN7android8hardware4wifi10supplicant4V1_027ISupplicantStaIfaceCallback10StatusCodeE",
   "self_type" : "_ZTIN7android8hardware4wifi10supplicant4V1_027ISupplicantStaIfaceCallback10StatusCodeE",
   "size" : 4,
   "source_file" : "/out/soong/.intermediates/hardware/interfaces/wifi/supplicant/1.0/android.hardware.wifi.supplicant@1.0_genc++_headers/gen/android/hardware/wifi/supplicant/1.0/ISupplicantStaIfaceCallback.h",
   "underlying_type" : "_ZTIj"
  },
  {
   "alignment" : 2,
   "enum_fields" :
   [
    {
     "enum_field_value" : 0,
     "name" : "android::hardware::wifi::supplicant::V1_0::ISupplicantStaIfaceCallback::WpsConfigError::NO_ERROR"
    },
    {
     "enum_field_value" : 1,
     "name" : "android::hardware::wifi::supplicant::V1_0::ISupplicantStaIfaceCallback::WpsConfigError::OOB_IFACE_READ_ERROR"
    },
    {
     "enum_field_value" : 2,
     "name" : "android::hardware::wifi::supplicant::V1_0::ISupplicantStaIfaceCallback::WpsConfigError::DECRYPTION_CRC_FAILURE"
    },
    {
     "enum_field_value" : 3,
     "name" : "android::hardware::wifi::supplicant::V1_0::ISupplicantStaIfaceCallback::WpsConfigError::CHAN_24_NOT_SUPPORTED"
    },
    {
     "enum_field_value" : 4,
     "name" : "android::hardware::wifi::supplicant::V1_0::ISupplicantStaIfaceCallback::WpsConfigError::CHAN_50_NOT_SUPPORTED"
    },
    {
     "enum_field_value" : 5,
     "name" : "android::hardware::wifi::supplicant::V1_0::ISupplicantStaIfaceCallback::WpsConfigError::SIGNAL_TOO_WEAK"
    },
    {
     "enum_field_value" : 6,
     "name" : "android::hardware::wifi::supplicant::V1_0::ISupplicantStaIfaceCallback::WpsConfigError::NETWORK_AUTH_FAILURE"
    },
    {
     "enum_field_value" : 7,
     "name" : "android::hardware::wifi::supplicant::V1_0::ISupplicantStaIfaceCallback::WpsConfigError::NETWORK_ASSOC_FAILURE"
    },
    {
     "enum_field_value" : 8,
     "name" : "android::hardware::wifi::supplicant::V1_0::ISupplicantStaIfaceCallback::WpsConfigError::NO_DHCP_RESPONSE"
    },
    {
     "enum_field_value" : 9,
     "name" : "android::hardware::wifi::supplicant::V1_0::ISupplicantStaIfaceCallback::WpsConfigError::FAILED_DHCP_CONFIG"
    },
    {
     "enum_field_value" : 10,
     "name" : "android::hardware::wifi::supplicant::V1_0::ISupplicantStaIfaceCallback::WpsConfigError::IP_ADDR_CONFLICT"
    },
    {
     "enum_field_value" : 11,
     "name" : "android::hardware::wifi::supplicant::V1_0::ISupplicantStaIfaceCallback::WpsConfigError::NO_CONN_TO_REGISTRAR"
    },
    {
     "enum_field_value" : 12,
     "name" : "android::hardware::wifi::supplicant::V1_0::ISupplicantStaIfaceCallback::WpsConfigError::MULTIPLE_PBC_DETECTED"
    },
    {
     "enum_field_value" : 13,
     "name" : "android::hardware::wifi::supplicant::V1_0::ISupplicantStaIfaceCallback::WpsConfigError::ROGUE_SUSPECTED"
    },
    {
     "enum_field_value" : 14,
     "name" : "android::hardware::wifi::supplicant::V1_0::ISupplicantStaIfaceCallback::WpsConfigError::DEVICE_BUSY"
    },
    {
     "enum_field_value" : 15,
     "name" : "android::hardware::wifi::supplicant::V1_0::ISupplicantStaIfaceCallback::WpsConfigError::SETUP_LOCKED"
    },
    {
     "enum_field_value" : 16,
     "name" : "android::hardware::wifi::supplicant::V1_0::ISupplicantStaIfaceCallback::WpsConfigError::MSG_TIMEOUT"
    },
    {
     "enum_field_value" : 17,
     "name" : "android::hardware::wifi::supplicant::V1_0::ISupplicantStaIfaceCallback::WpsConfigError::REG_SESS_TIMEOUT"
    },
    {
     "enum_field_value" : 18,
     "name" : "android::hardware::wifi::supplicant::V1_0::ISupplicantStaIfaceCallback::WpsConfigError::DEV_PASSWORD_AUTH_FAILURE"
    },
    {
     "enum_field_value" : 19,
     "name" : "android::hardware::wifi::supplicant::V1_0::ISupplicantStaIfaceCallback::WpsConfigError::CHAN_60G_NOT_SUPPORTED"
    },
    {
     "enum_field_value" : 20,
     "name" : "android::hardware::wifi::supplicant::V1_0::ISupplicantStaIfaceCallback::WpsConfigError::PUBLIC_KEY_HASH_MISMATCH"
    }
   ],
   "linker_set_key" : "_ZTIN7android8hardware4wifi10supplicant4V1_027ISupplicantStaIfaceCallback14WpsConfigErrorE",
   "name" : "android::hardware::wifi::supplicant::V1_0::ISupplicantStaIfaceCallback::WpsConfigError",
   "referenced_type" : "_ZTIN7android8hardware4wifi10supplicant4V1_027ISupplicantStaIfaceCallback14WpsConfigErrorE",
   "self_type" : "_ZTIN7android8hardware4wifi10supplicant4V1_027ISupplicantStaIfaceCallback14WpsConfigErrorE",
   "size" : 2,
   "source_file" : "/out/soong/.intermediates/hardware/interfaces/wifi/supplicant/1.0/android.hardware.wifi.supplicant@1.0_genc++_headers/gen/android/hardware/wifi/supplicant/1.0/ISupplicantStaIfaceCallback.h",
   "underlying_type" : "_ZTIt"
  },
  {
   "alignment" : 1,
   "enum_fields" :
   [
    {
     "enum_field_value" : 0,
     "name" : "android::hardware::wifi::supplicant::V1_0::ISupplicantStaIfaceCallback::BssidChangeReason::ASSOC_START"
    },
    {
     "enum_field_value" : 1,
     "name" : "android::hardware::wifi::supplicant::V1_0::ISupplicantStaIfaceCallback::BssidChangeReason::ASSOC_COMPLETE"
    },
    {
     "enum_field_value" : 2,
     "name" : "android::hardware::wifi::supplicant::V1_0::ISupplicantStaIfaceCallback::BssidChangeReason::DISASSOC"
    }
   ],
   "linker_set_key" : "_ZTIN7android8hardware4wifi10supplicant4V1_027ISupplicantStaIfaceCallback17BssidChangeReasonE",
   "name" : "android::hardware::wifi::supplicant::V1_0::ISupplicantStaIfaceCallback::BssidChangeReason",
   "referenced_type" : "_ZTIN7android8hardware4wifi10supplicant4V1_027ISupplicantStaIfaceCallback17BssidChangeReasonE",
   "self_type" : "_ZTIN7android8hardware4wifi10supplicant4V1_027ISupplicantStaIfaceCallback17BssidChangeReasonE",
   "size" : 1,
   "source_file" : "/out/soong/.intermediates/hardware/interfaces/wifi/supplicant/1.0/android.hardware.wifi.supplicant@1.0_genc++_headers/gen/android/hardware/wifi/supplicant/1.0/ISupplicantStaIfaceCallback.h",
   "underlying_type" : "_ZTIh"
  },
  {
   "alignment" : 2,
   "enum_fields" :
   [
    {
     "enum_field_value" : 0,
     "name" : "android::hardware::wifi::supplicant::V1_0::ISupplicantStaIfaceCallback::WpsErrorIndication::NO_ERROR"
    },
    {
     "enum_field_value" : 1,
     "name" : "android::hardware::wifi::supplicant::V1_0::ISupplicantStaIfaceCallback::WpsErrorIndication::SECURITY_TKIP_ONLY_PROHIBITED"
    },
    {
     "enum_field_value" : 2,
     "name" : "android::hardware::wifi::supplicant::V1_0::ISupplicantStaIfaceCallback::WpsErrorIndication::SECURITY_WEP_PROHIBITED"
    },
    {
     "enum_field_value" : 3,
     "name" : "android::hardware::wifi::supplicant::V1_0::ISupplicantStaIfaceCallback::WpsErrorIndication::AUTH_FAILURE"
    }
   ],
   "linker_set_key" : "_ZTIN7android8hardware4wifi10supplicant4V1_027ISupplicantStaIfaceCallback18WpsErrorIndicationE",
   "name" : "android::hardware::wifi::supplicant::V1_0::ISupplicantStaIfaceCallback::WpsErrorIndication",
   "referenced_type" : "_ZTIN7android8hardware4wifi10supplicant4V1_027ISupplicantStaIfaceCallback18WpsErrorIndicationE",
   "self_type" : "_ZTIN7android8hardware4wifi10supplicant4V1_027ISupplicantStaIfaceCallback18WpsErrorIndicationE",
   "size" : 2,
   "source_file" : "/out/soong/.intermediates/hardware/interfaces/wifi/supplicant/1.0/android.hardware.wifi.supplicant@1.0_genc++_headers/gen/android/hardware/wifi/supplicant/1.0/ISupplicantStaIfaceCallback.h",
   "underlying_type" : "_ZTIt"
  },
  {
   "alignment" : 4,
   "enum_fields" :
   [
    {
     "enum_field_value" : 0,
     "name" : "android::hardware::wifi::supplicant::V1_0::ISupplicantStaIfaceCallback::State::DISCONNECTED"
    },
    {
     "enum_field_value" : 1,
     "name" : "android::hardware::wifi::supplicant::V1_0::ISupplicantStaIfaceCallback::State::IFACE_DISABLED"
    },
    {
     "enum_field_value" : 2,
     "name" : "android::hardware::wifi::supplicant::V1_0::ISupplicantStaIfaceCallback::State::INACTIVE"
    },
    {
     "enum_field_value" : 3,
     "name" : "android::hardware::wifi::supplicant::V1_0::ISupplicantStaIfaceCallback::State::SCANNING"
    },
    {
     "enum_field_value" : 4,
     "name" : "android::hardware::wifi::supplicant::V1_0::ISupplicantStaIfaceCallback::State::AUTHENTICATING"
    },
    {
     "enum_field_value" : 5,
     "name" : "android::hardware::wifi::supplicant::V1_0::ISupplicantStaIfaceCallback::State::ASSOCIATING"
    },
    {
     "enum_field_value" : 6,
     "name" : "android::hardware::wifi::supplicant::V1_0::ISupplicantStaIfaceCallback::State::ASSOCIATED"
    },
    {
     "enum_field_value" : 7,
     "name" : "android::hardware::wifi::supplicant::V1_0::ISupplicantStaIfaceCallback::State::FOURWAY_HANDSHAKE"
    },
    {
     "enum_field_value" : 8,
     "name" : "android::hardware::wifi::supplicant::V1_0::ISupplicantStaIfaceCallback::State::GROUP_HANDSHAKE"
    },
    {
     "enum_field_value" : 9,
     "name" : "android::hardware::wifi::supplicant::V1_0::ISupplicantStaIfaceCallback::State::COMPLETED"
    }
   ],
   "linker_set_key" : "_ZTIN7android8hardware4wifi10supplicant4V1_027ISupplicantStaIfaceCallback5StateE",
   "name" : "android::hardware::wifi::supplicant::V1_0::ISupplicantStaIfaceCallback::State",
   "referenced_type" : "_ZTIN7android8hardware4wifi10supplicant4V1_027ISupplicantStaIfaceCallback5StateE",
   "self_type" : "_ZTIN7android8hardware4wifi10supplicant4V1_027ISupplicantStaIfaceCallback5StateE",
   "size" : 4,
   "source_file" : "/out/soong/.intermediates/hardware/interfaces/wifi/supplicant/1.0/android.hardware.wifi.supplicant@1.0_genc++_headers/gen/android/hardware/wifi/supplicant/1.0/ISupplicantStaIfaceCallback.h",
   "underlying_type" : "_ZTIj"
  },
  {
   "alignment" : 1,
   "enum_fields" :
   [
    {
     "enum_field_value" : 0,
     "name" : "android::hardware::wifi::supplicant::V1_0::ISupplicantStaIfaceCallback::OsuMethod::OMA_DM"
    },
    {
     "enum_field_value" : 1,
     "name" : "android::hardware::wifi::supplicant::V1_0::ISupplicantStaIfaceCallback::OsuMethod::SOAP_XML_SPP"
    }
   ],
   "linker_set_key" : "_ZTIN7android8hardware4wifi10supplicant4V1_027ISupplicantStaIfaceCallback9OsuMethodE",
   "name" : "android::hardware::wifi::supplicant::V1_0::ISupplicantStaIfaceCallback::OsuMethod",
   "referenced_type" : "_ZTIN7android8hardware4wifi10supplicant4V1_027ISupplicantStaIfaceCallback9OsuMethodE",
   "self_type" : "_ZTIN7android8hardware4wifi10supplicant4V1_027ISupplicantStaIfaceCallback9OsuMethodE",
   "size" : 1,
   "source_file" : "/out/soong/.intermediates/hardware/interfaces/wifi/supplicant/1.0/android.hardware.wifi.supplicant@1.0_genc++_headers/gen/android/hardware/wifi/supplicant/1.0/ISupplicantStaIfaceCallback.h",
   "underlying_type" : "_ZTIh"
  },
  {
   "alignment" : 4,
   "enum_fields" :
   [
    {
     "enum_field_value" : 0,
     "name" : "android::hardware::wifi::supplicant::V1_0::IfaceType::STA"
    },
    {
     "enum_field_value" : 1,
     "name" : "android::hardware::wifi::supplicant::V1_0::IfaceType::P2P"
    }
   ],
   "linker_set_key" : "_ZTIN7android8hardware4wifi10supplicant4V1_09IfaceTypeE",
   "name" : "android::hardware::wifi::supplicant::V1_0::IfaceType",
   "referenced_type" : "_ZTIN7android8hardware4wifi10supplicant4V1_09IfaceTypeE",
   "self_type" : "_ZTIN7android8hardware4wifi10supplicant4V1_09IfaceTypeE",
   "size" : 4,
   "source_file" : "/out/soong/.intermediates/hardware/interfaces/wifi/supplicant/1.0/android.hardware.wifi.supplicant@1.0_genc++_headers/gen/android/hardware/wifi/supplicant/1.0/types.h",
   "underlying_type" : "_ZTIj"
  },
  {
   "alignment" : 4,
   "enum_fields" :
   [
    {
     "enum_field_value" : 0,
     "name" : "android::hardware::wifi::supplicant::V1_1::ISupplicantStaIfaceCallback::EapErrorCode::SIM_GENERAL_FAILURE_AFTER_AUTH"
    },
    {
     "enum_field_value" : 1026,
     "name" : "android::hardware::wifi::supplicant::V1_1::ISupplicantStaIfaceCallback::EapErrorCode::SIM_TEMPORARILY_DENIED"
    },
    {
     "enum_field_value" : 1031,
     "name" : "android::hardware::wifi::supplicant::V1_1::ISupplicantStaIfaceCallback::EapErrorCode::SIM_NOT_SUBSCRIBED"
    },
    {
     "enum_field_value" : 16384,
     "name" : "android::hardware::wifi::supplicant::V1_1::ISupplicantStaIfaceCallback::EapErrorCode::SIM_GENERAL_FAILURE_BEFORE_AUTH"
    },
    {
     "enum_field_value" : 16385,
     "name" : "android::hardware::wifi::supplicant::V1_1::ISupplicantStaIfaceCallback::EapErrorCode::SIM_VENDOR_SPECIFIC_EXPIRED_CERT"
    }
   ],
   "linker_set_key" : "_ZTIN7android8hardware4wifi10supplicant4V1_127ISupplicantStaIfaceCallback12EapErrorCodeE",
   "name" : "android::hardware::wifi::supplicant::V1_1::ISupplicantStaIfaceCallback::EapErrorCode",
   "referenced_type" : "_ZTIN7android8hardware4wifi10supplicant4V1_127ISupplicantStaIfaceCallback12EapErrorCodeE",
   "self_type" : "_ZTIN7android8hardware4wifi10supplicant4V1_127ISupplicantStaIfaceCallback12EapErrorCodeE",
   "size" : 4,
   "source_file" : "/out/soong/.intermediates/hardware/interfaces/wifi/supplicant/1.1/android.hardware.wifi.supplicant@1.1_genc++_headers/gen/android/hardware/wifi/supplicant/1.1/ISupplicantStaIfaceCallback.h",
   "underlying_type" : "_ZTIj"
  },
  {
   "alignment" : 4,
   "enum_fields" :
   [
    {
     "enum_field_value" : 0,
     "name" : "android::hardware::Status::EX_NONE"
    },
    {
     "enum_field_value" : -1,
     "name" : "android::hardware::Status::EX_SECURITY"
    },
    {
     "enum_field_value" : -2,
     "name" : "android::hardware::Status::EX_BAD_PARCELABLE"
    },
    {
     "enum_field_value" : -3,
     "name" : "android::hardware::Status::EX_ILLEGAL_ARGUMENT"
    },
    {
     "enum_field_value" : -4,
     "name" : "android::hardware::Status::EX_NULL_POINTER"
    },
    {
     "enum_field_value" : -5,
     "name" : "android::hardware::Status::EX_ILLEGAL_STATE"
    },
    {
     "enum_field_value" : -6,
     "name" : "android::hardware::Status::EX_NETWORK_MAIN_THREAD"
    },
    {
     "enum_field_value" : -7,
     "name" : "android::hardware::Status::EX_UNSUPPORTED_OPERATION"
    },
    {
     "enum_field_value" : -128,
     "name" : "android::hardware::Status::EX_HAS_REPLY_HEADER"
    },
    {
     "enum_field_value" : -129,
     "name" : "android::hardware::Status::EX_TRANSACTION_FAILED"
    }
   ],
   "linker_set_key" : "_ZTIN7android8hardware6Status9ExceptionE",
   "name" : "android::hardware::Status::Exception",
   "referenced_type" : "_ZTIN7android8hardware6Status9ExceptionE",
   "self_type" : "_ZTIN7android8hardware6Status9ExceptionE",
   "size" : 4,
   "source_file" : "/system/libhidl/base/include/hidl/Status.h",
   "underlying_type" : "_ZTIi"
  },
  {
   "alignment" : 4,
   "enum_fields" :
   [
    {
     "enum_field_value" : 1,
     "name" : "android::hardware::IBinder::FLAG_ONEWAY"
    }
   ],
   "linker_set_key" : "_ZTIN7android8hardware7IBinder12$FLAG_ONEWAYE",
   "name" : "android::hardware::IBinder::(anonymous enum at system/libhwbinder/include/hwbinder/IBinder.h:47:5)",
   "referenced_type" : "_ZTIN7android8hardware7IBinder12$FLAG_ONEWAYE",
   "self_type" : "_ZTIN7android8hardware7IBinder12$FLAG_ONEWAYE",
   "size" : 4,
   "source_file" : "/system/libhwbinder/include/hwbinder/IBinder.h",
   "underlying_type" : "_ZTIj"
  },
  {
   "alignment" : 4,
   "enum_fields" :
   [
    {
     "enum_field_value" : 0,
     "name" : "android::hardware::details::HidlInstrumentor::SERVER_API_ENTRY"
    },
    {
     "enum_field_value" : 1,
     "name" : "android::hardware::details::HidlInstrumentor::SERVER_API_EXIT"
    },
    {
     "enum_field_value" : 2,
     "name" : "android::hardware::details::HidlInstrumentor::CLIENT_API_ENTRY"
    },
    {
     "enum_field_value" : 3,
     "name" : "android::hardware::details::HidlInstrumentor::CLIENT_API_EXIT"
    },
    {
     "enum_field_value" : 4,
     "name" : "android::hardware::details::HidlInstrumentor::SYNC_CALLBACK_ENTRY"
    },
    {
     "enum_field_value" : 5,
     "name" : "android::hardware::details::HidlInstrumentor::SYNC_CALLBACK_EXIT"
    },
    {
     "enum_field_value" : 6,
     "name" : "android::hardware::details::HidlInstrumentor::ASYNC_CALLBACK_ENTRY"
    },
    {
     "enum_field_value" : 7,
     "name" : "android::hardware::details::HidlInstrumentor::ASYNC_CALLBACK_EXIT"
    },
    {
     "enum_field_value" : 8,
     "name" : "android::hardware::details::HidlInstrumentor::PASSTHROUGH_ENTRY"
    },
    {
     "enum_field_value" : 9,
     "name" : "android::hardware::details::HidlInstrumentor::PASSTHROUGH_EXIT"
    }
   ],
   "linker_set_key" : "_ZTIN7android8hardware7details16HidlInstrumentor20InstrumentationEventE",
   "name" : "android::hardware::details::HidlInstrumentor::InstrumentationEvent",
   "referenced_type" : "_ZTIN7android8hardware7details16HidlInstrumentor20InstrumentationEventE",
   "self_type" : "_ZTIN7android8hardware7details16HidlInstrumentor20InstrumentationEventE",
   "size" : 4,
   "source_file" : "/system/libhidl/base/include/hidl/HidlInternal.h",
   "underlying_type" : "_ZTIj"
  },
  {
   "alignment" : 4,
   "enum_fields" :
   [
    {
     "enum_field_value" : 1,
     "name" : "android::hardware::kSynchronizedReadWrite"
    },
    {
     "enum_field_value" : 2,
     "name" : "android::hardware::kUnsynchronizedWrite"
    }
   ],
   "linker_set_key" : "_ZTIN7android8hardware8MQFlavorE",
   "name" : "android::hardware::MQFlavor",
   "referenced_type" : "_ZTIN7android8hardware8MQFlavorE",
   "self_type" : "_ZTIN7android8hardware8MQFlavorE",
   "size" : 4,
   "source_file" : "/system/libhidl/base/include/hidl/MQDescriptor.h",
   "underlying_type" : "_ZTIj"
  },
  {
   "alignment" : 4,
   "enum_fields" :
   [
    {
     "enum_field_value" : 0,
     "name" : "android::Condition::WAKE_UP_ONE"
    },
    {
     "enum_field_value" : 1,
     "name" : "android::Condition::WAKE_UP_ALL"
    }
   ],
   "linker_set_key" : "_ZTIN7android9Condition10WakeUpTypeE",
   "name" : "android::Condition::WakeUpType",
   "referenced_type" : "_ZTIN7android9Condition10WakeUpTypeE",
   "self_type" : "_ZTIN7android9Condition10WakeUpTypeE",
   "size" : 4,
   "source_file" : "/system/core/libutils/include/utils/Condition.h",
   "underlying_type" : "_ZTIj"
  },
  {
   "alignment" : 4,
   "enum_fields" :
   [
    {
     "enum_field_value" : 0,
     "name" : "android::Condition::PRIVATE"
    },
    {
     "enum_field_value" : 1,
     "name" : "android::Condition::SHARED"
    }
   ],
   "linker_set_key" : "_ZTIN7android9Condition8$PRIVATEE",
   "name" : "android::Condition::(anonymous enum at system/core/libutils/include/utils/Condition.h:54:5)",
   "referenced_type" : "_ZTIN7android9Condition8$PRIVATEE",
   "self_type" : "_ZTIN7android9Condition8$PRIVATEE",
   "size" : 4,
   "source_file" : "/system/core/libutils/include/utils/Condition.h",
   "underlying_type" : "_ZTIj"
  }
 ],
 "function_types" :
 [
  {
   "alignment" : 4,
   "linker_set_key" : "_ZTIFbRKN7android8String16ERKNS_2spINS_8hardware7IBinderEEEPvE",
   "name" : "bool (const android::String16 &, const android::sp<android::hardware::IBinder> &, void *)",
   "parameters" :
   [
    {
     "referenced_type" : "_ZTIRKN7android8String16E"
    },
    {
     "referenced_type" : "_ZTIRKN7android2spINS_8hardware7IBinderEEE"
    },
    {
     "referenced_type" : "_ZTIPv"
    }
   ],
   "referenced_type" : "_ZTIFbRKN7android8String16ERKNS_2spINS_8hardware7IBinderEEEPvE",
   "return_type" : "_ZTIb",
   "self_type" : "_ZTIFbRKN7android8String16ERKNS_2spINS_8hardware7IBinderEEEPvE",
   "source_file" : "/system/libhwbinder/include/hwbinder/ProcessState.h"
  },
  {
   "alignment" : 4,
   "linker_set_key" : "_ZTIFiPvE",
   "name" : "int (void *)",
   "parameters" :
   [
    {
     "referenced_type" : "_ZTIPv"
    }
   ],
   "referenced_type" : "_ZTIFiPvE",
   "return_type" : "_ZTIi",
   "self_type" : "_ZTIFiPvE",
   "source_file" : "/system/core/libutils/include/utils/AndroidThreads.h"
  },
  {
   "alignment" : 4,
   "linker_set_key" : "_ZTIFvPN7android8hardware6ParcelEPKhjPKyjPvE",
   "name" : "void (android::hardware::Parcel *, const unsigned char *, unsigned int, const unsigned long long *, unsigned int, void *)",
   "parameters" :
   [
    {
     "referenced_type" : "_ZTIPN7android8hardware6ParcelE"
    },
    {
     "referenced_type" : "_ZTIPKh"
    },
    {
     "referenced_type" : "_ZTIj"
    },
    {
     "referenced_type" : "_ZTIPKy"
    },
    {
     "referenced_type" : "_ZTIj"
    },
    {
     "referenced_type" : "_ZTIPv"
    }
   ],
   "referenced_type" : "_ZTIFvPN7android8hardware6ParcelEPKhjPKyjPvE",
   "return_type" : "_ZTIv",
   "self_type" : "_ZTIFvPN7android8hardware6ParcelEPKhjPKyjPvE",
   "source_file" : "/system/libhwbinder/include/hwbinder/Parcel.h"
  }
 ],
 "functions" :
 [
  {
   "function_name" : "android::hardware::fromBinder",
   "linker_set_key" : "_ZN7android8hardware10fromBinderINS0_4wifi10supplicant4V1_016ISupplicantIfaceENS4_19BpHwSupplicantIfaceENS4_19BnHwSupplicantIfaceEEENS_2spIT_EERKNS8_INS0_7IBinderEEE",
   "parameters" :
   [
    {
     "referenced_type" : "_ZTIRKN7android2spINS_8hardware7IBinderEEE"
    }
   ],
   "return_type" : "_ZTIN7android2spINS_8hardware4wifi10supplicant4V1_016ISupplicantIfaceEEE",
   "source_file" : "/system/libhidl/transport/include/hidl/HidlBinderSupport.h",
   "template_args" :
   [
    "_ZTIN7android8hardware4wifi10supplicant4V1_016ISupplicantIfaceE",
    "_ZTIN7android8hardware4wifi10supplicant4V1_019BpHwSupplicantIfaceE",
    "_ZTIN7android8hardware4wifi10supplicant4V1_019BnHwSupplicantIfaceE"
   ]
  },
  {
   "function_name" : "android::hardware::fromBinder",
   "linker_set_key" : "_ZN7android8hardware10fromBinderINS0_4wifi10supplicant4V1_127ISupplicantStaIfaceCallbackENS4_30BpHwSupplicantStaIfaceCallbackENS4_30BnHwSupplicantStaIfaceCallbackEEENS_2spIT_EERKNS8_INS0_7IBinderEEE",
   "parameters" :
   [
    {
     "referenced_type" : "_ZTIRKN7android2spINS_8hardware7IBinderEEE"
    }
   ],
   "return_type" : "_ZTIN7android2spINS_8hardware4wifi10supplicant4V1_127ISupplicantStaIfaceCallbackEEE",
   "source_file" : "/system/libhidl/transport/include/hidl/HidlBinderSupport.h",
   "template_args" :
   [
    "_ZTIN7android8hardware4wifi10supplicant4V1_127ISupplicantStaIfaceCallbackE",
    "_ZTIN7android8hardware4wifi10supplicant4V1_130BpHwSupplicantStaIfaceCallbackE",
    "_ZTIN7android8hardware4wifi10supplicant4V1_130BnHwSupplicantStaIfaceCallbackE"
   ]
  },
  {
   "function_name" : "android::hardware::wifi::supplicant::V1_1::ISupplicant::getService",
   "linker_set_key" : "_ZN7android8hardware4wifi10supplicant4V1_111ISupplicant10getServiceERKNSt3__112basic_stringIcNS5_11char_traitsIcEENS5_9allocatorIcEEEEb",
   "parameters" :
   [
    {
     "default_arg" : true,
     "referenced_type" : "_ZTIRKNSt3__112basic_stringIcNS_11char_traitsIcEENS_9allocatorIcEEEE"
    },
    {
     "default_arg" : true,
     "referenced_type" : "_ZTIb"
    }
   ],
   "return_type" : "_ZTIN7android2spINS_8hardware4wifi10supplicant4V1_111ISupplicantEEE",
   "source_file" : "/out/soong/.intermediates/hardware/interfaces/wifi/supplicant/1.1/android.hardware.wifi.supplicant@1.1_genc++_headers/gen/android/hardware/wifi/supplicant/1.1/ISupplicant.h"
  },
  {
   "function_name" : "android::hardware::wifi::supplicant::V1_1::ISupplicant::linkToDeath",
   "linker_set_key" : "_ZN7android8hardware4wifi10supplicant4V1_111ISupplicant11linkToDeathERKNS_2spINS0_20hidl_death_recipientEEEy",
   "parameters" :
   [
    {
     "is_this_ptr" : true,
     "referenced_type" : "_ZTIPN7android8hardware4wifi10supplicant4V1_111ISupplicantE"
    },
    {
     "referenced_type" : "_ZTIRKN7android2spINS_8hardware20hidl_death_recipientEEE"
    },
    {
     "referenced_type" : "_ZTIy"
    }
   ],
   "return_type" : "_ZTIN7android8hardware6ReturnIbEE",
   "source_file" : "/out/soong/.intermediates/hardware/interfaces/wifi/supplicant/1.1/android.hardware.wifi.supplicant@1.1_genc++_headers/gen/android/hardware/wifi/supplicant/1.1/ISupplicant.h"
  },
  {
   "function_name" : "android::hardware::wifi::supplicant::V1_1::ISupplicant::getDebugInfo",
   "linker_set_key" : "_ZN7android8hardware4wifi10supplicant4V1_111ISupplicant12getDebugInfoENSt3__18functionIFvRKNS_4hidl4base4V1_09DebugInfoEEEE",
   "parameters" :
   [
    {
     "is_this_ptr" : true,
     "referenced_type" : "_ZTIPN7android8hardware4wifi10supplicant4V1_111ISupplicantE"
    },
    {
     "referenced_type" : "_ZTINSt3__18functionIFvRKN7android4hidl4base4V1_09DebugInfoEEEE"
    }
   ],
   "return_type" : "_ZTIN7android8hardware6ReturnIvEE",
   "source_file" : "/out/soong/.intermediates/hardware/interfaces/wifi/supplicant/1.1/android.hardware.wifi.supplicant@1.1_genc++_headers/gen/android/hardware/wifi/supplicant/1.1/ISupplicant.h"
  },
  {
   "function_name" : "android::hardware::wifi::supplicant::V1_1::ISupplicant::getHashChain",
   "linker_set_key" : "_ZN7android8hardware4wifi10supplicant4V1_111ISupplicant12getHashChainENSt3__18functionIFvRKNS0_8hidl_vecINS0_10hidl_arrayIhLj32EJEEEEEEEE",
   "parameters" :
   [
    {
     "is_this_ptr" : true,
     "referenced_type" : "_ZTIPN7android8hardware4wifi10supplicant4V1_111ISupplicantE"
    },
    {
     "referenced_type" : "_ZTINSt3__18functionIFvRKN7android8hardware8hidl_vecINS2_10hidl_arrayIhLj32EJEEEEEEEE"
    }
   ],
   "return_type" : "_ZTIN7android8hardware6ReturnIvEE",
   "source_file" : "/out/soong/.intermediates/hardware/interfaces/wifi/supplicant/1.1/android.hardware.wifi.supplicant@1.1_genc++_headers/gen/android/hardware/wifi/supplicant/1.1/ISupplicant.h"
  },
  {
   "function_name" : "android::hardware::wifi::supplicant::V1_1::ISupplicant::tryGetService",
   "linker_set_key" : "_ZN7android8hardware4wifi10supplicant4V1_111ISupplicant13tryGetServiceERKNSt3__112basic_stringIcNS5_11char_traitsIcEENS5_9allocatorIcEEEEb",
   "parameters" :
   [
    {
     "default_arg" : true,
     "referenced_type" : "_ZTIRKNSt3__112basic_stringIcNS_11char_traitsIcEENS_9allocatorIcEEEE"
    },
    {
     "default_arg" : true,
     "referenced_type" : "_ZTIb"
    }
   ],
   "return_type" : "_ZTIN7android2spINS_8hardware4wifi10supplicant4V1_111ISupplicantEEE",
   "source_file" : "/out/soong/.intermediates/hardware/interfaces/wifi/supplicant/1.1/android.hardware.wifi.supplicant@1.1_genc++_headers/gen/android/hardware/wifi/supplicant/1.1/ISupplicant.h"
  },
  {
   "function_name" : "android::hardware::wifi::supplicant::V1_1::ISupplicant::unlinkToDeath",
   "linker_set_key" : "_ZN7android8hardware4wifi10supplicant4V1_111ISupplicant13unlinkToDeathERKNS_2spINS0_20hidl_death_recipientEEE",
   "parameters" :
   [
    {
     "is_this_ptr" : true,
     "referenced_type" : "_ZTIPN7android8hardware4wifi10supplicant4V1_111ISupplicantE"
    },
    {
     "referenced_type" : "_ZTIRKN7android2spINS_8hardware20hidl_death_recipientEEE"
    }
   ],
   "return_type" : "_ZTIN7android8hardware6ReturnIbEE",
   "source_file" : "/out/soong/.intermediates/hardware/interfaces/wifi/supplicant/1.1/android.hardware.wifi.supplicant@1.1_genc++_headers/gen/android/hardware/wifi/supplicant/1.1/ISupplicant.h"
  },
  {
   "function_name" : "android::hardware::wifi::supplicant::V1_1::ISupplicant::interfaceChain",
   "linker_set_key" : "_ZN7android8hardware4wifi10supplicant4V1_111ISupplicant14interfaceChainENSt3__18functionIFvRKNS0_8hidl_vecINS0_11hidl_stringEEEEEE",
   "parameters" :
   [
    {
     "is_this_ptr" : true,
     "referenced_type" : "_ZTIPN7android8hardware4wifi10supplicant4V1_111ISupplicantE"
    },
    {
     "referenced_type" : "_ZTINSt3__18functionIFvRKN7android8hardware8hidl_vecINS2_11hidl_stringEEEEEE"
    }
   ],
   "return_type" : "_ZTIN7android8hardware6ReturnIvEE",
   "source_file" : "/out/soong/.intermediates/hardware/interfaces/wifi/supplicant/1.1/android.hardware.wifi.supplicant@1.1_genc++_headers/gen/android/hardware/wifi/supplicant/1.1/ISupplicant.h"
  },
  {
   "function_name" : "android::hardware::wifi::supplicant::V1_1::ISupplicant::registerAsService",
   "linker_set_key" : "_ZN7android8hardware4wifi10supplicant4V1_111ISupplicant17registerAsServiceERKNSt3__112basic_stringIcNS5_11char_traitsIcEENS5_9allocatorIcEEEE",
   "parameters" :
   [
    {
     "is_this_ptr" : true,
     "referenced_type" : "_ZTIPN7android8hardware4wifi10supplicant4V1_111ISupplicantE"
    },
    {
     "default_arg" : true,
     "referenced_type" : "_ZTIRKNSt3__112basic_stringIcNS_11char_traitsIcEENS_9allocatorIcEEEE"
    }
   ],
   "return_type" : "_ZTIi",
   "source_file" : "/out/soong/.intermediates/hardware/interfaces/wifi/supplicant/1.1/android.hardware.wifi.supplicant@1.1_genc++_headers/gen/android/hardware/wifi/supplicant/1.1/ISupplicant.h"
  },
  {
   "function_name" : "android::hardware::wifi::supplicant::V1_1::ISupplicant::interfaceDescriptor",
   "linker_set_key" : "_ZN7android8hardware4wifi10supplicant4V1_111ISupplicant19interfaceDescriptorENSt3__18functionIFvRKNS0_11hidl_stringEEEE",
   "parameters" :
   [
    {
     "is_this_ptr" : true,
     "referenced_type" : "_ZTIPN7android8hardware4wifi10supplicant4V1_111ISupplicantE"
    },
    {
     "referenced_type" : "_ZTINSt3__18functionIFvRKN7android8hardware11hidl_stringEEEE"
    }
   ],
   "return_type" : "_ZTIN7android8hardware6ReturnIvEE",
   "source_file" : "/out/soong/.intermediates/hardware/interfaces/wifi/supplicant/1.1/android.hardware.wifi.supplicant@1.1_genc++_headers/gen/android/hardware/wifi/supplicant/1.1/ISupplicant.h"
  },
  {
   "function_name" : "android::hardware::wifi::supplicant::V1_1::ISupplicant::notifySyspropsChanged",
   "linker_set_key" : "_ZN7android8hardware4wifi10supplicant4V1_111ISupplicant21notifySyspropsChangedEv",
   "parameters" :
   [
    {
     "is_this_ptr" : true,
     "referenced_type" : "_ZTIPN7android8hardware4wifi10supplicant4V1_111ISupplicantE"
    }
   ],
   "return_type" : "_ZTIN7android8hardware6ReturnIvEE",
   "source_file" : "/out/soong/.intermediates/hardware/interfaces/wifi/supplicant/1.1/android.hardware.wifi.supplicant@1.1_genc++_headers/gen/android/hardware/wifi/supplicant/1.1/ISupplicant.h"
  },
  {
   "function_name" : "android::hardware::wifi::supplicant::V1_1::ISupplicant::setHALInstrumentation",
   "linker_set_key" : "_ZN7android8hardware4wifi10supplicant4V1_111ISupplicant21setHALInstrumentationEv",
   "parameters" :
   [
    {
     "is_this_ptr" : true,
     "referenced_type" : "_ZTIPN7android8hardware4wifi10supplicant4V1_111ISupplicantE"
    }
   ],
   "return_type" : "_ZTIN7android8hardware6ReturnIvEE",
   "source_file" : "/out/soong/.intermediates/hardware/interfaces/wifi/supplicant/1.1/android.hardware.wifi.supplicant@1.1_genc++_headers/gen/android/hardware/wifi/supplicant/1.1/ISupplicant.h"
  },
  {
   "function_name" : "android::hardware::wifi::supplicant::V1_1::ISupplicant::registerForNotifications",
   "linker_set_key" : "_ZN7android8hardware4wifi10supplicant4V1_111ISupplicant24registerForNotificationsERKNSt3__112basic_stringIcNS5_11char_traitsIcEENS5_9allocatorIcEEEERKNS_2spINS_4hidl7manager4V1_020IServiceNotificationEEE",
   "parameters" :
   [
    {
     "referenced_type" : "_ZTIRKNSt3__112basic_stringIcNS_11char_traitsIcEENS_9allocatorIcEEEE"
    },
    {
     "referenced_type" : "_ZTIRKN7android2spINS_4hidl7manager4V1_020IServiceNotificationEEE"
    }
   ],
   "return_type" : "_ZTIb",
   "source_file" : "/out/soong/.intermediates/hardware/interfaces/wifi/supplicant/1.1/android.hardware.wifi.supplicant@1.1_genc++_headers/gen/android/hardware/wifi/supplicant/1.1/ISupplicant.h"
  },
  {
   "function_name" : "android::hardware::wifi::supplicant::V1_1::ISupplicant::ping",
   "linker_set_key" : "_ZN7android8hardware4wifi10supplicant4V1_111ISupplicant4pingEv",
   "parameters" :
   [
    {
     "is_this_ptr" : true,
     "referenced_type" : "_ZTIPN7android8hardware4wifi10supplicant4V1_111ISupplicantE"
    }
   ],
   "return_type" : "_ZTIN7android8hardware6ReturnIvEE",
   "source_file" : "/out/soong/.intermediates/hardware/interfaces/wifi/supplicant/1.1/android.hardware.wifi.supplicant@1.1_genc++_headers/gen/android/hardware/wifi/supplicant/1.1/ISupplicant.h"
  },
  {
   "function_name" : "android::hardware::wifi::supplicant::V1_1::ISupplicant::debug",
   "linker_set_key" : "_ZN7android8hardware4wifi10supplicant4V1_111ISupplicant5debugERKNS0_11hidl_handleERKNS0_8hidl_vecINS0_11hidl_stringEEE",
   "parameters" :
   [
    {
     "is_this_ptr" : true,
     "referenced_type" : "_ZTIPN7android8hardware4wifi10supplicant4V1_111ISupplicantE"
    },
    {
     "referenced_type" : "_ZTIRKN7android8hardware11hidl_handleE"
    },
    {
     "referenced_type" : "_ZTIRKN7android8hardware8hidl_vecINS0_11hidl_stringEEE"
    }
   ],
   "return_type" : "_ZTIN7android8hardware6ReturnIvEE",
   "source_file" : "/out/soong/.intermediates/hardware/interfaces/wifi/supplicant/1.1/android.hardware.wifi.supplicant@1.1_genc++_headers/gen/android/hardware/wifi/supplicant/1.1/ISupplicant.h"
  },
  {
   "function_name" : "android::hardware::wifi::supplicant::V1_1::ISupplicant::castFrom",
   "linker_set_key" : "_ZN7android8hardware4wifi10supplicant4V1_111ISupplicant8castFromERKNS_2spINS2_4V1_011ISupplicantEEEb",
   "parameters" :
   [
    {
     "referenced_type" : "_ZTIRKN7android2spINS_8hardware4wifi10supplicant4V1_011ISupplicantEEE"
    },
    {
     "default_arg" : true,
     "referenced_type" : "_ZTIb"
    }
   ],
   "return_type" : "_ZTIN7android8hardware6ReturnINS_2spINS0_4wifi10supplicant4V1_111ISupplicantEEEEE",
   "source_file" : "/out/soong/.intermediates/hardware/interfaces/wifi/supplicant/1.1/android.hardware.wifi.supplicant@1.1_genc++_headers/gen/android/hardware/wifi/supplicant/1.1/ISupplicant.h"
  },
  {
   "function_name" : "android::hardware::wifi::supplicant::V1_1::ISupplicant::castFrom",
   "linker_set_key" : "_ZN7android8hardware4wifi10supplicant4V1_111ISupplicant8castFromERKNS_2spINS_4hidl4base4V1_05IBaseEEEb",
   "parameters" :
   [
    {
     "referenced_type" : "_ZTIRKN7android2spINS_4hidl4base4V1_05IBaseEEE"
    },
    {
     "default_arg" : true,
     "referenced_type" : "_ZTIb"
    }
   ],
   "return_type" : "_ZTIN7android8hardware6ReturnINS_2spINS0_4wifi10supplicant4V1_111ISupplicantEEEEE",
   "source_file" : "/out/soong/.intermediates/hardware/interfaces/wifi/supplicant/1.1/android.hardware.wifi.supplicant@1.1_genc++_headers/gen/android/hardware/wifi/supplicant/1.1/ISupplicant.h"
  },
  {
   "function_name" : "android::hardware::wifi::supplicant::V1_1::ISupplicant::castFrom",
   "linker_set_key" : "_ZN7android8hardware4wifi10supplicant4V1_111ISupplicant8castFromERKNS_2spIS4_EEb",
   "parameters" :
   [
    {
     "referenced_type" : "_ZTIRKN7android2spINS_8hardware4wifi10supplicant4V1_111ISupplicantEEE"
    },
    {
     "default_arg" : true,
     "referenced_type" : "_ZTIb"
    }
   ],
   "return_type" : "_ZTIN7android8hardware6ReturnINS_2spINS0_4wifi10supplicant4V1_111ISupplicantEEEEE",
   "source_file" : "/out/soong/.intermediates/hardware/interfaces/wifi/supplicant/1.1/android.hardware.wifi.supplicant@1.1_genc++_headers/gen/android/hardware/wifi/supplicant/1.1/ISupplicant.h"
  },
  {
   "access" : "private",
   "function_name" : "android::hardware::wifi::supplicant::V1_1::BsSupplicant::addOnewayTask",
   "linker_set_key" : "_ZN7android8hardware4wifi10supplicant4V1_112BsSupplicant13addOnewayTaskENSt3__18functionIFvvEEE",
   "parameters" :
   [
    {
     "is_this_ptr" : true,
     "referenced_type" : "_ZTIPN7android8hardware4wifi10supplicant4V1_112BsSupplicantE"
    },
    {
     "referenced_type" : "_ZTINSt3__18functionIFvvEEE"
    }
   ],
   "return_type" : "_ZTIN7android8hardware6ReturnIvEE",
   "source_file" : "/out/soong/.intermediates/hardware/interfaces/wifi/supplicant/1.1/android.hardware.wifi.supplicant@1.1_genc++_headers/gen/android/hardware/wifi/supplicant/1.1/BsSupplicant.h"
  },
  {
   "function_name" : "android::hardware::wifi::supplicant::V1_1::BsSupplicant::BsSupplicant",
   "linker_set_key" : "_ZN7android8hardware4wifi10supplicant4V1_112BsSupplicantC1ENS_2spINS3_11ISupplicantEEE",
   "parameters" :
   [
    {
     "is_this_ptr" : true,
     "referenced_type" : "_ZTIPN7android8hardware4wifi10supplicant4V1_112BsSupplicantE"
    },
    {
     "referenced_type" : "_ZTIKN7android2spINS_8hardware4wifi10supplicant4V1_111ISupplicantEEE"
    }
   ],
   "return_type" : "_ZTIv",
   "source_file" : "/out/soong/.intermediates/hardware/interfaces/wifi/supplicant/1.1/android.hardware.wifi.supplicant@1.1_genc++_headers/gen/android/hardware/wifi/supplicant/1.1/BsSupplicant.h"
  },
  {
   "function_name" : "android::hardware::wifi::supplicant::V1_1::BsSupplicant::BsSupplicant",
   "linker_set_key" : "_ZN7android8hardware4wifi10supplicant4V1_112BsSupplicantC2ENS_2spINS3_11ISupplicantEEE",
   "parameters" :
   [
    {
     "is_this_ptr" : true,
     "referenced_type" : "_ZTIPN7android8hardware4wifi10supplicant4V1_112BsSupplicantE"
    },
    {
     "referenced_type" : "_ZTIKN7android2spINS_8hardware4wifi10supplicant4V1_111ISupplicantEEE"
    }
   ],
   "return_type" : "_ZTIv",
   "source_file" : "/out/soong/.intermediates/hardware/interfaces/wifi/supplicant/1.1/android.hardware.wifi.supplicant@1.1_genc++_headers/gen/android/hardware/wifi/supplicant/1.1/BsSupplicant.h"
  },
  {
   "function_name" : "android::hardware::wifi::supplicant::V1_1::BnHwSupplicant::onTransact",
   "linker_set_key" : "_ZN7android8hardware4wifi10supplicant4V1_114BnHwSupplicant10onTransactEjRKNS0_6ParcelEPS5_jNSt3__18functionIFvRS5_EEE",
   "parameters" :
   [
    {
     "is_this_ptr" : true,
     "referenced_type" : "_ZTIPN7android8hardware4wifi10supplicant4V1_114BnHwSupplicantE"
    },
    {
     "referenced_type" : "_ZTIj"
    },
    {
     "referenced_type" : "_ZTIRKN7android8hardware6ParcelE"
    },
    {
     "referenced_type" : "_ZTIPN7android8hardware6ParcelE"
    },
    {
     "default_arg" : true,
     "referenced_type" : "_ZTIj"
    },
    {
     "default_arg" : true,
     "referenced_type" : "_ZTINSt3__18functionIFvRN7android8hardware6ParcelEEEE"
    }
   ],
   "return_type" : "_ZTIi",
   "source_file" : "/out/soong/.intermediates/hardware/interfaces/wifi/supplicant/1.1/android.hardware.wifi.supplicant@1.1_genc++_headers/gen/android/hardware/wifi/supplicant/1.1/BnHwSupplicant.h"
  },
  {
   "access" : "private",
   "function_name" : "android::hardware::wifi::supplicant::V1_1::BnHwSupplicant::getDebugInfo",
   "linker_set_key" : "_ZN7android8hardware4wifi10supplicant4V1_114BnHwSupplicant12getDebugInfoENSt3__18functionIFvRKNS_4hidl4base4V1_09DebugInfoEEEE",
   "parameters" :
   [
    {
     "is_this_ptr" : true,
     "referenced_type" : "_ZTIPN7android8hardware4wifi10supplicant4V1_114BnHwSupplicantE"
    },
    {
     "referenced_type" : "_ZTINSt3__18functionIFvRKN7android4hidl4base4V1_09DebugInfoEEEE"
    }
   ],
   "return_type" : "_ZTIN7android8hardware6ReturnIvEE",
   "source_file" : "/out/soong/.intermediates/hardware/interfaces/wifi/supplicant/1.1/android.hardware.wifi.supplicant@1.1_genc++_headers/gen/android/hardware/wifi/supplicant/1.1/BnHwSupplicant.h"
  },
  {
   "function_name" : "android::hardware::wifi::supplicant::V1_1::BnHwSupplicant::_hidl_terminate",
   "linker_set_key" : "_ZN7android8hardware4wifi10supplicant4V1_114BnHwSupplicant15_hidl_terminateEPNS_4hidl4base4V1_08BnHwBaseERKNS0_6ParcelEPSA_NSt3__18functionIFvRSA_EEE",
   "parameters" :
   [
    {
     "referenced_type" : "_ZTIPN7android4hidl4base4V1_08BnHwBaseE"
    },
    {
     "referenced_type" : "_ZTIRKN7android8hardware6ParcelE"
    },
    {
     "referenced_type" : "_ZTIPN7android8hardware6ParcelE"
    },
    {
     "referenced_type" : "_ZTINSt3__18functionIFvRN7android8hardware6ParcelEEEE"
    }
   ],
   "return_type" : "_ZTIi",
   "source_file" : "/out/soong/.intermediates/hardware/interfaces/wifi/supplicant/1.1/android.hardware.wifi.supplicant@1.1_genc++_headers/gen/android/hardware/wifi/supplicant/1.1/BnHwSupplicant.h"
  },
  {
   "function_name" : "android::hardware::wifi::supplicant::V1_1::BnHwSupplicant::_hidl_addInterface",
   "linker_set_key" : "_ZN7android8hardware4wifi10supplicant4V1_114BnHwSupplicant18_hidl_addInterfaceEPNS_4hidl4base4V1_08BnHwBaseERKNS0_6ParcelEPSA_NSt3__18functionIFvRSA_EEE",
   "parameters" :
   [
    {
     "referenced_type" : "_ZTIPN7android4hidl4base4V1_08BnHwBaseE"
    },
    {
     "referenced_type" : "_ZTIRKN7android8hardware6ParcelE"
    },
    {
     "referenced_type" : "_ZTIPN7android8hardware6ParcelE"
    },
    {
     "referenced_type" : "_ZTINSt3__18functionIFvRN7android8hardware6ParcelEEEE"
    }
   ],
   "return_type" : "_ZTIi",
   "source_file" : "/out/soong/.intermediates/hardware/interfaces/wifi/supplicant/1.1/android.hardware.wifi.supplicant@1.1_genc++_headers/gen/android/hardware/wifi/supplicant/1.1/BnHwSupplicant.h"
  },
  {
   "function_name" : "android::hardware::wifi::supplicant::V1_1::BnHwSupplicant::_hidl_removeInterface",
   "linker_set_key" : "_ZN7android8hardware4wifi10supplicant4V1_114BnHwSupplicant21_hidl_removeInterfaceEPNS_4hidl4base4V1_08BnHwBaseERKNS0_6ParcelEPSA_NSt3__18functionIFvRSA_EEE",
   "parameters" :
   [
    {
     "referenced_type" : "_ZTIPN7android4hidl4base4V1_08BnHwBaseE"
    },
    {
     "referenced_type" : "_ZTIRKN7android8hardware6ParcelE"
    },
    {
     "referenced_type" : "_ZTIPN7android8hardware6ParcelE"
    },
    {
     "referenced_type" : "_ZTINSt3__18functionIFvRN7android8hardware6ParcelEEEE"
    }
   ],
   "return_type" : "_ZTIi",
   "source_file" : "/out/soong/.intermediates/hardware/interfaces/wifi/supplicant/1.1/android.hardware.wifi.supplicant@1.1_genc++_headers/gen/android/hardware/wifi/supplicant/1.1/BnHwSupplicant.h"
  },
  {
   "access" : "private",
   "function_name" : "android::hardware::wifi::supplicant::V1_1::BnHwSupplicant::ping",
   "linker_set_key" : "_ZN7android8hardware4wifi10supplicant4V1_114BnHwSupplicant4pingEv",
   "parameters" :
   [
    {
     "is_this_ptr" : true,
     "referenced_type" : "_ZTIPN7android8hardware4wifi10supplicant4V1_114BnHwSupplicantE"
    }
   ],
   "return_type" : "_ZTIN7android8hardware6ReturnIvEE",
   "source_file" : "/out/soong/.intermediates/hardware/interfaces/wifi/supplicant/1.1/android.hardware.wifi.supplicant@1.1_genc++_headers/gen/android/hardware/wifi/supplicant/1.1/BnHwSupplicant.h"
  },
  {
   "function_name" : "android::hardware::wifi::supplicant::V1_1::BnHwSupplicant::BnHwSupplicant",
   "linker_set_key" : "_ZN7android8hardware4wifi10supplicant4V1_114BnHwSupplicantC1ERKNS_2spINS3_11ISupplicantEEE",
   "parameters" :
   [
    {
     "is_this_ptr" : true,
     "referenced_type" : "_ZTIPN7android8hardware4wifi10supplicant4V1_114BnHwSupplicantE"
    },
    {
     "referenced_type" : "_ZTIRKN7android2spINS_8hardware4wifi10supplicant4V1_111ISupplicantEEE"
    }
   ],
   "return_type" : "_ZTIv",
   "source_file" : "/out/soong/.intermediates/hardware/interfaces/wifi/supplicant/1.1/android.hardware.wifi.supplicant@1.1_genc++_headers/gen/android/hardware/wifi/supplicant/1.1/BnHwSupplicant.h"
  },
  {
   "function_name" : "android::hardware::wifi::supplicant::V1_1::BnHwSupplicant::BnHwSupplicant",
   "linker_set_key" : "_ZN7android8hardware4wifi10supplicant4V1_114BnHwSupplicantC2ERKNS_2spINS3_11ISupplicantEEE",
   "parameters" :
   [
    {
     "is_this_ptr" : true,
     "referenced_type" : "_ZTIPN7android8hardware4wifi10supplicant4V1_114BnHwSupplicantE"
    },
    {
     "referenced_type" : "_ZTIRKN7android2spINS_8hardware4wifi10supplicant4V1_111ISupplicantEEE"
    }
   ],
   "return_type" : "_ZTIv",
   "source_file" : "/out/soong/.intermediates/hardware/interfaces/wifi/supplicant/1.1/android.hardware.wifi.supplicant@1.1_genc++_headers/gen/android/hardware/wifi/supplicant/1.1/BnHwSupplicant.h"
  },
  {
   "function_name" : "android::hardware::wifi::supplicant::V1_1::BnHwSupplicant::~BnHwSupplicant",
   "linker_set_key" : "_ZN7android8hardware4wifi10supplicant4V1_114BnHwSupplicantD0Ev",
   "parameters" :
   [
    {
     "is_this_ptr" : true,
     "referenced_type" : "_ZTIPN7android8hardware4wifi10supplicant4V1_114BnHwSupplicantE"
    }
   ],
   "return_type" : "_ZTIv",
   "source_file" : "/out/soong/.intermediates/hardware/interfaces/wifi/supplicant/1.1/android.hardware.wifi.supplicant@1.1_genc++_headers/gen/android/hardware/wifi/supplicant/1.1/BnHwSupplicant.h"
  },
  {
   "function_name" : "android::hardware::wifi::supplicant::V1_1::BnHwSupplicant::~BnHwSupplicant",
   "linker_set_key" : "_ZN7android8hardware4wifi10supplicant4V1_114BnHwSupplicantD1Ev",
   "parameters" :
   [
    {
     "is_this_ptr" : true,
     "referenced_type" : "_ZTIPN7android8hardware4wifi10supplicant4V1_114BnHwSupplicantE"
    }
   ],
   "return_type" : "_ZTIv",
   "source_file" : "/out/soong/.intermediates/hardware/interfaces/wifi/supplicant/1.1/android.hardware.wifi.supplicant@1.1_genc++_headers/gen/android/hardware/wifi/supplicant/1.1/BnHwSupplicant.h"
  },
  {
   "function_name" : "android::hardware::wifi::supplicant::V1_1::BnHwSupplicant::~BnHwSupplicant",
   "linker_set_key" : "_ZN7android8hardware4wifi10supplicant4V1_114BnHwSupplicantD2Ev",
   "parameters" :
   [
    {
     "is_this_ptr" : true,
     "referenced_type" : "_ZTIPN7android8hardware4wifi10supplicant4V1_114BnHwSupplicantE"
    }
   ],
   "return_type" : "_ZTIv",
   "source_file" : "/out/soong/.intermediates/hardware/interfaces/wifi/supplicant/1.1/android.hardware.wifi.supplicant@1.1_genc++_headers/gen/android/hardware/wifi/supplicant/1.1/BnHwSupplicant.h"
  },
  {
   "function_name" : "android::hardware::wifi::supplicant::V1_1::BpHwSupplicant::linkToDeath",
   "linker_set_key" : "_ZN7android8hardware4wifi10supplicant4V1_114BpHwSupplicant11linkToDeathERKNS_2spINS0_20hidl_death_recipientEEEy",
   "parameters" :
   [
    {
     "is_this_ptr" : true,
     "referenced_type" : "_ZTIPN7android8hardware4wifi10supplicant4V1_114BpHwSupplicantE"
    },
    {
     "referenced_type" : "_ZTIRKN7android2spINS_8hardware20hidl_death_recipientEEE"
    },
    {
     "referenced_type" : "_ZTIy"
    }
   ],
   "return_type" : "_ZTIN7android8hardware6ReturnIbEE",
   "source_file" : "/out/soong/.intermediates/hardware/interfaces/wifi/supplicant/1.1/android.hardware.wifi.supplicant@1.1_genc++_headers/gen/android/hardware/wifi/supplicant/1.1/BpHwSupplicant.h"
  },
  {
   "function_name" : "android::hardware::wifi::supplicant::V1_1::BpHwSupplicant::addInterface",
   "linker_set_key" : "_ZN7android8hardware4wifi10supplicant4V1_114BpHwSupplicant12addInterfaceERKNS2_4V1_011ISupplicant9IfaceInfoENSt3__18functionIFvRKNS5_16SupplicantStatusERKNS_2spINS5_16ISupplicantIfaceEEEEEE",
   "parameters" :
   [
    {
     "is_this_ptr" : true,
     "referenced_type" : "_ZTIPN7android8hardware4wifi10supplicant4V1_114BpHwSupplicantE"
    },
    {
     "referenced_type" : "_ZTIRKN7android8hardware4wifi10supplicant4V1_011ISupplicant9IfaceInfoE"
    },
    {
     "referenced_type" : "_ZTINSt3__18functionIFvRKN7android8hardware4wifi10supplicant4V1_016SupplicantStatusERKNS1_2spINS5_16ISupplicantIfaceEEEEEE"
    }
   ],
   "return_type" : "_ZTIN7android8hardware6ReturnIvEE",
   "source_file" : "/out/soong/.intermediates/hardware/interfaces/wifi/supplicant/1.1/android.hardware.wifi.supplicant@1.1_genc++_headers/gen/android/hardware/wifi/supplicant/1.1/BpHwSupplicant.h"
  },
  {
   "function_name" : "android::hardware::wifi::supplicant::V1_1::BpHwSupplicant::getDebugInfo",
   "linker_set_key" : "_ZN7android8hardware4wifi10supplicant4V1_114BpHwSupplicant12getDebugInfoENSt3__18functionIFvRKNS_4hidl4base4V1_09DebugInfoEEEE",
   "parameters" :
   [
    {
     "is_this_ptr" : true,
     "referenced_type" : "_ZTIPN7android8hardware4wifi10supplicant4V1_114BpHwSupplicantE"
    },
    {
     "referenced_type" : "_ZTINSt3__18functionIFvRKN7android4hidl4base4V1_09DebugInfoEEEE"
    }
   ],
   "return_type" : "_ZTIN7android8hardware6ReturnIvEE",
   "source_file" : "/out/soong/.intermediates/hardware/interfaces/wifi/supplicant/1.1/android.hardware.wifi.supplicant@1.1_genc++_headers/gen/android/hardware/wifi/supplicant/1.1/BpHwSupplicant.h"
  },
  {
   "function_name" : "android::hardware::wifi::supplicant::V1_1::BpHwSupplicant::getHashChain",
   "linker_set_key" : "_ZN7android8hardware4wifi10supplicant4V1_114BpHwSupplicant12getHashChainENSt3__18functionIFvRKNS0_8hidl_vecINS0_10hidl_arrayIhLj32EJEEEEEEEE",
   "parameters" :
   [
    {
     "is_this_ptr" : true,
     "referenced_type" : "_ZTIPN7android8hardware4wifi10supplicant4V1_114BpHwSupplicantE"
    },
    {
     "referenced_type" : "_ZTINSt3__18functionIFvRKN7android8hardware8hidl_vecINS2_10hidl_arrayIhLj32EJEEEEEEEE"
    }
   ],
   "return_type" : "_ZTIN7android8hardware6ReturnIvEE",
   "source_file" : "/out/soong/.intermediates/hardware/interfaces/wifi/supplicant/1.1/android.hardware.wifi.supplicant@1.1_genc++_headers/gen/android/hardware/wifi/supplicant/1.1/BpHwSupplicant.h"
  },
  {
   "function_name" : "android::hardware::wifi::supplicant::V1_1::BpHwSupplicant::getInterface",
   "linker_set_key" : "_ZN7android8hardware4wifi10supplicant4V1_114BpHwSupplicant12getInterfaceERKNS2_4V1_011ISupplicant9IfaceInfoENSt3__18functionIFvRKNS5_16SupplicantStatusERKNS_2spINS5_16ISupplicantIfaceEEEEEE",
   "parameters" :
   [
    {
     "is_this_ptr" : true,
     "referenced_type" : "_ZTIPN7android8hardware4wifi10supplicant4V1_114BpHwSupplicantE"
    },
    {
     "referenced_type" : "_ZTIRKN7android8hardware4wifi10supplicant4V1_011ISupplicant9IfaceInfoE"
    },
    {
     "referenced_type" : "_ZTINSt3__18functionIFvRKN7android8hardware4wifi10supplicant4V1_016SupplicantStatusERKNS1_2spINS5_16ISupplicantIfaceEEEEEE"
    }
   ],
   "return_type" : "_ZTIN7android8hardware6ReturnIvEE",
   "source_file" : "/out/soong/.intermediates/hardware/interfaces/wifi/supplicant/1.1/android.hardware.wifi.supplicant@1.1_genc++_headers/gen/android/hardware/wifi/supplicant/1.1/BpHwSupplicant.h"
  },
  {
   "function_name" : "android::hardware::wifi::supplicant::V1_1::BpHwSupplicant::getDebugLevel",
   "linker_set_key" : "_ZN7android8hardware4wifi10supplicant4V1_114BpHwSupplicant13getDebugLevelEv",
   "parameters" :
   [
    {
     "is_this_ptr" : true,
     "referenced_type" : "_ZTIPN7android8hardware4wifi10supplicant4V1_114BpHwSupplicantE"
    }
   ],
   "return_type" : "_ZTIN7android8hardware6ReturnINS0_4wifi10supplicant4V1_011ISupplicant10DebugLevelEEE",
   "source_file" : "/out/soong/.intermediates/hardware/interfaces/wifi/supplicant/1.1/android.hardware.wifi.supplicant@1.1_genc++_headers/gen/android/hardware/wifi/supplicant/1.1/BpHwSupplicant.h"
  },
  {
   "function_name" : "android::hardware::wifi::supplicant::V1_1::BpHwSupplicant::unlinkToDeath",
   "linker_set_key" : "_ZN7android8hardware4wifi10supplicant4V1_114BpHwSupplicant13unlinkToDeathERKNS_2spINS0_20hidl_death_recipientEEE",
   "parameters" :
   [
    {
     "is_this_ptr" : true,
     "referenced_type" : "_ZTIPN7android8hardware4wifi10supplicant4V1_114BpHwSupplicantE"
    },
    {
     "referenced_type" : "_ZTIRKN7android2spINS_8hardware20hidl_death_recipientEEE"
    }
   ],
   "return_type" : "_ZTIN7android8hardware6ReturnIbEE",
   "source_file" : "/out/soong/.intermediates/hardware/interfaces/wifi/supplicant/1.1/android.hardware.wifi.supplicant@1.1_genc++_headers/gen/android/hardware/wifi/supplicant/1.1/BpHwSupplicant.h"
  },
  {
   "function_name" : "android::hardware::wifi::supplicant::V1_1::BpHwSupplicant::interfaceChain",
   "linker_set_key" : "_ZN7android8hardware4wifi10supplicant4V1_114BpHwSupplicant14interfaceChainENSt3__18functionIFvRKNS0_8hidl_vecINS0_11hidl_stringEEEEEE",
   "parameters" :
   [
    {
     "is_this_ptr" : true,
     "referenced_type" : "_ZTIPN7android8hardware4wifi10supplicant4V1_114BpHwSupplicantE"
    },
    {
     "referenced_type" : "_ZTINSt3__18functionIFvRKN7android8hardware8hidl_vecINS2_11hidl_stringEEEEEE"
    }
   ],
   "return_type" : "_ZTIN7android8hardware6ReturnIvEE",
   "source_file" : "/out/soong/.intermediates/hardware/interfaces/wifi/supplicant/1.1/android.hardware.wifi.supplicant@1.1_genc++_headers/gen/android/hardware/wifi/supplicant/1.1/BpHwSupplicant.h"
  },
  {
   "function_name" : "android::hardware::wifi::supplicant::V1_1::BpHwSupplicant::listInterfaces",
   "linker_set_key" : "_ZN7android8hardware4wifi10supplicant4V1_114BpHwSupplicant14listInterfacesENSt3__18functionIFvRKNS2_4V1_016SupplicantStatusERKNS0_8hidl_vecINS7_11ISupplicant9IfaceInfoEEEEEE",
   "parameters" :
   [
    {
     "is_this_ptr" : true,
     "referenced_type" : "_ZTIPN7android8hardware4wifi10supplicant4V1_114BpHwSupplicantE"
    },
    {
     "referenced_type" : "_ZTINSt3__18functionIFvRKN7android8hardware4wifi10supplicant4V1_016SupplicantStatusERKNS2_8hidl_vecINS5_11ISupplicant9IfaceInfoEEEEEE"
    }
   ],
   "return_type" : "_ZTIN7android8hardware6ReturnIvEE",
   "source_file" : "/out/soong/.intermediates/hardware/interfaces/wifi/supplicant/1.1/android.hardware.wifi.supplicant@1.1_genc++_headers/gen/android/hardware/wifi/supplicant/1.1/BpHwSupplicant.h"
  },
  {
   "function_name" : "android::hardware::wifi::supplicant::V1_1::BpHwSupplicant::setDebugParams",
   "linker_set_key" : "_ZN7android8hardware4wifi10supplicant4V1_114BpHwSupplicant14setDebugParamsENS2_4V1_011ISupplicant10DebugLevelEbbNSt3__18functionIFvRKNS5_16SupplicantStatusEEEE",
   "parameters" :
   [
    {
     "is_this_ptr" : true,
     "referenced_type" : "_ZTIPN7android8hardware4wifi10supplicant4V1_114BpHwSupplicantE"
    },
    {
     "referenced_type" : "_ZTIN7android8hardware4wifi10supplicant4V1_011ISupplicant10DebugLevelE"
    },
    {
     "referenced_type" : "_ZTIb"
    },
    {
     "referenced_type" : "_ZTIb"
    },
    {
     "referenced_type" : "_ZTINSt3__18functionIFvRKN7android8hardware4wifi10supplicant4V1_016SupplicantStatusEEEE"
    }
   ],
   "return_type" : "_ZTIN7android8hardware6ReturnIvEE",
   "source_file" : "/out/soong/.intermediates/hardware/interfaces/wifi/supplicant/1.1/android.hardware.wifi.supplicant@1.1_genc++_headers/gen/android/hardware/wifi/supplicant/1.1/BpHwSupplicant.h"
  },
  {
   "function_name" : "android::hardware::wifi::supplicant::V1_1::BpHwSupplicant::_hidl_terminate",
   "linker_set_key" : "_ZN7android8hardware4wifi10supplicant4V1_114BpHwSupplicant15_hidl_terminateEPNS0_10IInterfaceEPNS0_7details16HidlInstrumentorE",
   "parameters" :
   [
    {
     "referenced_type" : "_ZTIPN7android8hardware10IInterfaceE"
    },
    {
     "referenced_type" : "_ZTIPN7android8hardware7details16HidlInstrumentorE"
    }
   ],
   "return_type" : "_ZTIN7android8hardware6ReturnIvEE",
   "source_file" : "/out/soong/.intermediates/hardware/interfaces/wifi/supplicant/1.1/android.hardware.wifi.supplicant@1.1_genc++_headers/gen/android/hardware/wifi/supplicant/1.1/BpHwSupplicant.h"
  },
  {
   "function_name" : "android::hardware::wifi::supplicant::V1_1::BpHwSupplicant::onLastStrongRef",
   "linker_set_key" : "_ZN7android8hardware4wifi10supplicant4V1_114BpHwSupplicant15onLastStrongRefEPKv",
   "parameters" :
   [
    {
     "is_this_ptr" : true,
     "referenced_type" : "_ZTIPN7android8hardware4wifi10supplicant4V1_114BpHwSupplicantE"
    },
    {
     "referenced_type" : "_ZTIPKv"
    }
   ],
   "return_type" : "_ZTIv",
   "source_file" : "/out/soong/.intermediates/hardware/interfaces/wifi/supplicant/1.1/android.hardware.wifi.supplicant@1.1_genc++_headers/gen/android/hardware/wifi/supplicant/1.1/BpHwSupplicant.h"
  },
  {
   "function_name" : "android::hardware::wifi::supplicant::V1_1::BpHwSupplicant::removeInterface",
   "linker_set_key" : "_ZN7android8hardware4wifi10supplicant4V1_114BpHwSupplicant15removeInterfaceERKNS2_4V1_011ISupplicant9IfaceInfoENSt3__18functionIFvRKNS5_16SupplicantStatusEEEE",
   "parameters" :
   [
    {
     "is_this_ptr" : true,
     "referenced_type" : "_ZTIPN7android8hardware4wifi10supplicant4V1_114BpHwSupplicantE"
    },
    {
     "referenced_type" : "_ZTIRKN7android8hardware4wifi10supplicant4V1_011ISupplicant9IfaceInfoE"
    },
    {
     "referenced_type" : "_ZTINSt3__18functionIFvRKN7android8hardware4wifi10supplicant4V1_016SupplicantStatusEEEE"
    }
   ],
   "return_type" : "_ZTIN7android8hardware6ReturnIvEE",
   "source_file" : "/out/soong/.intermediates/hardware/interfaces/wifi/supplicant/1.1/android.hardware.wifi.supplicant@1.1_genc++_headers/gen/android/hardware/wifi/supplicant/1.1/BpHwSupplicant.h"
  },
  {
   "function_name" : "android::hardware::wifi::supplicant::V1_1::BpHwSupplicant::registerCallback",
   "linker_set_key" : "_ZN7android8hardware4wifi10supplicant4V1_114BpHwSupplicant16registerCallbackERKNS_2spINS2_4V1_019ISupplicantCallbackEEENSt3__18functionIFvRKNS6_16SupplicantStatusEEEE",
   "parameters" :
   [
    {
     "is_this_ptr" : true,
     "referenced_type" : "_ZTIPN7android8hardware4wifi10supplicant4V1_114BpHwSupplicantE"
    },
    {
     "referenced_type" : "_ZTIRKN7android2spINS_8hardware4wifi10supplicant4V1_019ISupplicantCallbackEEE"
    },
    {
     "referenced_type" : "_ZTINSt3__18functionIFvRKN7android8hardware4wifi10supplicant4V1_016SupplicantStatusEEEE"
    }
   ],
   "return_type" : "_ZTIN7android8hardware6ReturnIvEE",
   "source_file" : "/out/soong/.intermediates/hardware/interfaces/wifi/supplicant/1.1/android.hardware.wifi.supplicant@1.1_genc++_headers/gen/android/hardware/wifi/supplicant/1.1/BpHwSupplicant.h"
  },
  {
   "function_name" : "android::hardware::wifi::supplicant::V1_1::BpHwSupplicant::_hidl_addInterface",
   "linker_set_key" : "_ZN7android8hardware4wifi10supplicant4V1_114BpHwSupplicant18_hidl_addInterfaceEPNS0_10IInterfaceEPNS0_7details16HidlInstrumentorERKNS2_4V1_011ISupplicant9IfaceInfoENSt3__18functionIFvRKNSA_16SupplicantStatusERKNS_2spINSA_16ISupplicantIfaceEEEEEE",
   "parameters" :
   [
    {
     "referenced_type" : "_ZTIPN7android8hardware10IInterfaceE"
    },
    {
     "referenced_type" : "_ZTIPN7android8hardware7details16HidlInstrumentorE"
    },
    {
     "referenced_type" : "_ZTIRKN7android8hardware4wifi10supplicant4V1_011ISupplicant9IfaceInfoE"
    },
    {
     "referenced_type" : "_ZTINSt3__18functionIFvRKN7android8hardware4wifi10supplicant4V1_016SupplicantStatusERKNS1_2spINS5_16ISupplicantIfaceEEEEEE"
    }
   ],
   "return_type" : "_ZTIN7android8hardware6ReturnIvEE",
   "source_file" : "/out/soong/.intermediates/hardware/interfaces/wifi/supplicant/1.1/android.hardware.wifi.supplicant@1.1_genc++_headers/gen/android/hardware/wifi/supplicant/1.1/BpHwSupplicant.h"
  },
  {
   "function_name" : "android::hardware::wifi::supplicant::V1_1::BpHwSupplicant::interfaceDescriptor",
   "linker_set_key" : "_ZN7android8hardware4wifi10supplicant4V1_114BpHwSupplicant19interfaceDescriptorENSt3__18functionIFvRKNS0_11hidl_stringEEEE",
   "parameters" :
   [
    {
     "is_this_ptr" : true,
     "referenced_type" : "_ZTIPN7android8hardware4wifi10supplicant4V1_114BpHwSupplicantE"
    },
    {
     "referenced_type" : "_ZTINSt3__18functionIFvRKN7android8hardware11hidl_stringEEEE"
    }
   ],
   "return_type" : "_ZTIN7android8hardware6ReturnIvEE",
   "source_file" : "/out/soong/.intermediates/hardware/interfaces/wifi/supplicant/1.1/android.hardware.wifi.supplicant@1.1_genc++_headers/gen/android/hardware/wifi/supplicant/1.1/BpHwSupplicant.h"
  },
  {
   "function_name" : "android::hardware::wifi::supplicant::V1_1::BpHwSupplicant::_hidl_removeInterface",
   "linker_set_key" : "_ZN7android8hardware4wifi10supplicant4V1_114BpHwSupplicant21_hidl_removeInterfaceEPNS0_10IInterfaceEPNS0_7details16HidlInstrumentorERKNS2_4V1_011ISupplicant9IfaceInfoENSt3__18functionIFvRKNSA_16SupplicantStatusEEEE",
   "parameters" :
   [
    {
     "referenced_type" : "_ZTIPN7android8hardware10IInterfaceE"
    },
    {
     "referenced_type" : "_ZTIPN7android8hardware7details16HidlInstrumentorE"
    },
    {
     "referenced_type" : "_ZTIRKN7android8hardware4wifi10supplicant4V1_011ISupplicant9IfaceInfoE"
    },
    {
     "referenced_type" : "_ZTINSt3__18functionIFvRKN7android8hardware4wifi10supplicant4V1_016SupplicantStatusEEEE"
    }
   ],
   "return_type" : "_ZTIN7android8hardware6ReturnIvEE",
   "source_file" : "/out/soong/.intermediates/hardware/interfaces/wifi/supplicant/1.1/android.hardware.wifi.supplicant@1.1_genc++_headers/gen/android/hardware/wifi/supplicant/1.1/BpHwSupplicant.h"
  },
  {
   "function_name" : "android::hardware::wifi::supplicant::V1_1::BpHwSupplicant::notifySyspropsChanged",
   "linker_set_key" : "_ZN7android8hardware4wifi10supplicant4V1_114BpHwSupplicant21notifySyspropsChangedEv",
   "parameters" :
   [
    {
     "is_this_ptr" : true,
     "referenced_type" : "_ZTIPN7android8hardware4wifi10supplicant4V1_114BpHwSupplicantE"
    }
   ],
   "return_type" : "_ZTIN7android8hardware6ReturnIvEE",
   "source_file" : "/out/soong/.intermediates/hardware/interfaces/wifi/supplicant/1.1/android.hardware.wifi.supplicant@1.1_genc++_headers/gen/android/hardware/wifi/supplicant/1.1/BpHwSupplicant.h"
  },
  {
   "function_name" : "android::hardware::wifi::supplicant::V1_1::BpHwSupplicant::setHALInstrumentation",
   "linker_set_key" : "_ZN7android8hardware4wifi10supplicant4V1_114BpHwSupplicant21setHALInstrumentationEv",
   "parameters" :
   [
    {
     "is_this_ptr" : true,
     "referenced_type" : "_ZTIPN7android8hardware4wifi10supplicant4V1_114BpHwSupplicantE"
    }
   ],
   "return_type" : "_ZTIN7android8hardware6ReturnIvEE",
   "source_file" : "/out/soong/.intermediates/hardware/interfaces/wifi/supplicant/1.1/android.hardware.wifi.supplicant@1.1_genc++_headers/gen/android/hardware/wifi/supplicant/1.1/BpHwSupplicant.h"
  },
  {
   "function_name" : "android::hardware::wifi::supplicant::V1_1::BpHwSupplicant::isDebugShowKeysEnabled",
   "linker_set_key" : "_ZN7android8hardware4wifi10supplicant4V1_114BpHwSupplicant22isDebugShowKeysEnabledEv",
   "parameters" :
   [
    {
     "is_this_ptr" : true,
     "referenced_type" : "_ZTIPN7android8hardware4wifi10supplicant4V1_114BpHwSupplicantE"
    }
   ],
   "return_type" : "_ZTIN7android8hardware6ReturnIbEE",
   "source_file" : "/out/soong/.intermediates/hardware/interfaces/wifi/supplicant/1.1/android.hardware.wifi.supplicant@1.1_genc++_headers/gen/android/hardware/wifi/supplicant/1.1/BpHwSupplicant.h"
  },
  {
   "function_name" : "android::hardware::wifi::supplicant::V1_1::BpHwSupplicant::setConcurrencyPriority",
   "linker_set_key" : "_ZN7android8hardware4wifi10supplicant4V1_114BpHwSupplicant22setConcurrencyPriorityENS2_4V1_09IfaceTypeENSt3__18functionIFvRKNS5_16SupplicantStatusEEEE",
   "parameters" :
   [
    {
     "is_this_ptr" : true,
     "referenced_type" : "_ZTIPN7android8hardware4wifi10supplicant4V1_114BpHwSupplicantE"
    },
    {
     "referenced_type" : "_ZTIN7android8hardware4wifi10supplicant4V1_09IfaceTypeE"
    },
    {
     "referenced_type" : "_ZTINSt3__18functionIFvRKN7android8hardware4wifi10supplicant4V1_016SupplicantStatusEEEE"
    }
   ],
   "return_type" : "_ZTIN7android8hardware6ReturnIvEE",
   "source_file" : "/out/soong/.intermediates/hardware/interfaces/wifi/supplicant/1.1/android.hardware.wifi.supplicant@1.1_genc++_headers/gen/android/hardware/wifi/supplicant/1.1/BpHwSupplicant.h"
  },
  {
   "function_name" : "android::hardware::wifi::supplicant::V1_1::BpHwSupplicant::isDebugShowTimestampEnabled",
   "linker_set_key" : "_ZN7android8hardware4wifi10supplicant4V1_114BpHwSupplicant27isDebugShowTimestampEnabledEv",
   "parameters" :
   [
    {
     "is_this_ptr" : true,
     "referenced_type" : "_ZTIPN7android8hardware4wifi10supplicant4V1_114BpHwSupplicantE"
    }
   ],
   "return_type" : "_ZTIN7android8hardware6ReturnIbEE",
   "source_file" : "/out/soong/.intermediates/hardware/interfaces/wifi/supplicant/1.1/android.hardware.wifi.supplicant@1.1_genc++_headers/gen/android/hardware/wifi/supplicant/1.1/BpHwSupplicant.h"
  },
  {
   "function_name" : "android::hardware::wifi::supplicant::V1_1::BpHwSupplicant::ping",
   "linker_set_key" : "_ZN7android8hardware4wifi10supplicant4V1_114BpHwSupplicant4pingEv",
   "parameters" :
   [
    {
     "is_this_ptr" : true,
     "referenced_type" : "_ZTIPN7android8hardware4wifi10supplicant4V1_114BpHwSupplicantE"
    }
   ],
   "return_type" : "_ZTIN7android8hardware6ReturnIvEE",
   "source_file" : "/out/soong/.intermediates/hardware/interfaces/wifi/supplicant/1.1/android.hardware.wifi.supplicant@1.1_genc++_headers/gen/android/hardware/wifi/supplicant/1.1/BpHwSupplicant.h"
  },
  {
   "function_name" : "android::hardware::wifi::supplicant::V1_1::BpHwSupplicant::debug",
   "linker_set_key" : "_ZN7android8hardware4wifi10supplicant4V1_114BpHwSupplicant5debugERKNS0_11hidl_handleERKNS0_8hidl_vecINS0_11hidl_stringEEE",
   "parameters" :
   [
    {
     "is_this_ptr" : true,
     "referenced_type" : "_ZTIPN7android8hardware4wifi10supplicant4V1_114BpHwSupplicantE"
    },
    {
     "referenced_type" : "_ZTIRKN7android8hardware11hidl_handleE"
    },
    {
     "referenced_type" : "_ZTIRKN7android8hardware8hidl_vecINS0_11hidl_stringEEE"
    }
   ],
   "return_type" : "_ZTIN7android8hardware6ReturnIvEE",
   "source_file" : "/out/soong/.intermediates/hardware/interfaces/wifi/supplicant/1.1/android.hardware.wifi.supplicant@1.1_genc++_headers/gen/android/hardware/wifi/supplicant/1.1/BpHwSupplicant.h"
  },
  {
   "function_name" : "android::hardware::wifi::supplicant::V1_1::BpHwSupplicant::terminate",
   "linker_set_key" : "_ZN7android8hardware4wifi10supplicant4V1_114BpHwSupplicant9terminateEv",
   "parameters" :
   [
    {
     "is_this_ptr" : true,
     "referenced_type" : "_ZTIPN7android8hardware4wifi10supplicant4V1_114BpHwSupplicantE"
    }
   ],
   "return_type" : "_ZTIN7android8hardware6ReturnIvEE",
   "source_file" : "/out/soong/.intermediates/hardware/interfaces/wifi/supplicant/1.1/android.hardware.wifi.supplicant@1.1_genc++_headers/gen/android/hardware/wifi/supplicant/1.1/BpHwSupplicant.h"
  },
  {
   "function_name" : "android::hardware::wifi::supplicant::V1_1::BpHwSupplicant::BpHwSupplicant",
   "linker_set_key" : "_ZN7android8hardware4wifi10supplicant4V1_114BpHwSupplicantC1ERKNS_2spINS0_7IBinderEEE",
   "parameters" :
   [
    {
     "is_this_ptr" : true,
     "referenced_type" : "_ZTIPN7android8hardware4wifi10supplicant4V1_114BpHwSupplicantE"
    },
    {
     "referenced_type" : "_ZTIRKN7android2spINS_8hardware7IBinderEEE"
    }
   ],
   "return_type" : "_ZTIv",
   "source_file" : "/out/soong/.intermediates/hardware/interfaces/wifi/supplicant/1.1/android.hardware.wifi.supplicant@1.1_genc++_headers/gen/android/hardware/wifi/supplicant/1.1/BpHwSupplicant.h"
  },
  {
   "function_name" : "android::hardware::wifi::supplicant::V1_1::BpHwSupplicant::BpHwSupplicant",
   "linker_set_key" : "_ZN7android8hardware4wifi10supplicant4V1_114BpHwSupplicantC2ERKNS_2spINS0_7IBinderEEE",
   "parameters" :
   [
    {
     "is_this_ptr" : true,
     "referenced_type" : "_ZTIPN7android8hardware4wifi10supplicant4V1_114BpHwSupplicantE"
    },
    {
     "referenced_type" : "_ZTIRKN7android2spINS_8hardware7IBinderEEE"
    }
   ],
   "return_type" : "_ZTIv",
   "source_file" : "/out/soong/.intermediates/hardware/interfaces/wifi/supplicant/1.1/android.hardware.wifi.supplicant@1.1_genc++_headers/gen/android/hardware/wifi/supplicant/1.1/BpHwSupplicant.h"
  },
  {
   "function_name" : "android::hardware::wifi::supplicant::V1_1::ISupplicantStaIface::getService",
   "linker_set_key" : "_ZN7android8hardware4wifi10supplicant4V1_119ISupplicantStaIface10getServiceERKNSt3__112basic_stringIcNS5_11char_traitsIcEENS5_9allocatorIcEEEEb",
   "parameters" :
   [
    {
     "default_arg" : true,
     "referenced_type" : "_ZTIRKNSt3__112basic_stringIcNS_11char_traitsIcEENS_9allocatorIcEEEE"
    },
    {
     "default_arg" : true,
     "referenced_type" : "_ZTIb"
    }
   ],
   "return_type" : "_ZTIN7android2spINS_8hardware4wifi10supplicant4V1_119ISupplicantStaIfaceEEE",
   "source_file" : "/out/soong/.intermediates/hardware/interfaces/wifi/supplicant/1.1/android.hardware.wifi.supplicant@1.1_genc++_headers/gen/android/hardware/wifi/supplicant/1.1/ISupplicantStaIface.h"
  },
  {
   "function_name" : "android::hardware::wifi::supplicant::V1_1::ISupplicantStaIface::linkToDeath",
   "linker_set_key" : "_ZN7android8hardware4wifi10supplicant4V1_119ISupplicantStaIface11linkToDeathERKNS_2spINS0_20hidl_death_recipientEEEy",
   "parameters" :
   [
    {
     "is_this_ptr" : true,
     "referenced_type" : "_ZTIPN7android8hardware4wifi10supplicant4V1_119ISupplicantStaIfaceE"
    },
    {
     "referenced_type" : "_ZTIRKN7android2spINS_8hardware20hidl_death_recipientEEE"
    },
    {
     "referenced_type" : "_ZTIy"
    }
   ],
   "return_type" : "_ZTIN7android8hardware6ReturnIbEE",
   "source_file" : "/out/soong/.intermediates/hardware/interfaces/wifi/supplicant/1.1/android.hardware.wifi.supplicant@1.1_genc++_headers/gen/android/hardware/wifi/supplicant/1.1/ISupplicantStaIface.h"
  },
  {
   "function_name" : "android::hardware::wifi::supplicant::V1_1::ISupplicantStaIface::getDebugInfo",
   "linker_set_key" : "_ZN7android8hardware4wifi10supplicant4V1_119ISupplicantStaIface12getDebugInfoENSt3__18functionIFvRKNS_4hidl4base4V1_09DebugInfoEEEE",
   "parameters" :
   [
    {
     "is_this_ptr" : true,
     "referenced_type" : "_ZTIPN7android8hardware4wifi10supplicant4V1_119ISupplicantStaIfaceE"
    },
    {
     "referenced_type" : "_ZTINSt3__18functionIFvRKN7android4hidl4base4V1_09DebugInfoEEEE"
    }
   ],
   "return_type" : "_ZTIN7android8hardware6ReturnIvEE",
   "source_file" : "/out/soong/.intermediates/hardware/interfaces/wifi/supplicant/1.1/android.hardware.wifi.supplicant@1.1_genc++_headers/gen/android/hardware/wifi/supplicant/1.1/ISupplicantStaIface.h"
  },
  {
   "function_name" : "android::hardware::wifi::supplicant::V1_1::ISupplicantStaIface::getHashChain",
   "linker_set_key" : "_ZN7android8hardware4wifi10supplicant4V1_119ISupplicantStaIface12getHashChainENSt3__18functionIFvRKNS0_8hidl_vecINS0_10hidl_arrayIhLj32EJEEEEEEEE",
   "parameters" :
   [
    {
     "is_this_ptr" : true,
     "referenced_type" : "_ZTIPN7android8hardware4wifi10supplicant4V1_119ISupplicantStaIfaceE"
    },
    {
     "referenced_type" : "_ZTINSt3__18functionIFvRKN7android8hardware8hidl_vecINS2_10hidl_arrayIhLj32EJEEEEEEEE"
    }
   ],
   "return_type" : "_ZTIN7android8hardware6ReturnIvEE",
   "source_file" : "/out/soong/.intermediates/hardware/interfaces/wifi/supplicant/1.1/android.hardware.wifi.supplicant@1.1_genc++_headers/gen/android/hardware/wifi/supplicant/1.1/ISupplicantStaIface.h"
  },
  {
   "function_name" : "android::hardware::wifi::supplicant::V1_1::ISupplicantStaIface::tryGetService",
   "linker_set_key" : "_ZN7android8hardware4wifi10supplicant4V1_119ISupplicantStaIface13tryGetServiceERKNSt3__112basic_stringIcNS5_11char_traitsIcEENS5_9allocatorIcEEEEb",
   "parameters" :
   [
    {
     "default_arg" : true,
     "referenced_type" : "_ZTIRKNSt3__112basic_stringIcNS_11char_traitsIcEENS_9allocatorIcEEEE"
    },
    {
     "default_arg" : true,
     "referenced_type" : "_ZTIb"
    }
   ],
   "return_type" : "_ZTIN7android2spINS_8hardware4wifi10supplicant4V1_119ISupplicantStaIfaceEEE",
   "source_file" : "/out/soong/.intermediates/hardware/interfaces/wifi/supplicant/1.1/android.hardware.wifi.supplicant@1.1_genc++_headers/gen/android/hardware/wifi/supplicant/1.1/ISupplicantStaIface.h"
  },
  {
   "function_name" : "android::hardware::wifi::supplicant::V1_1::ISupplicantStaIface::unlinkToDeath",
   "linker_set_key" : "_ZN7android8hardware4wifi10supplicant4V1_119ISupplicantStaIface13unlinkToDeathERKNS_2spINS0_20hidl_death_recipientEEE",
   "parameters" :
   [
    {
     "is_this_ptr" : true,
     "referenced_type" : "_ZTIPN7android8hardware4wifi10supplicant4V1_119ISupplicantStaIfaceE"
    },
    {
     "referenced_type" : "_ZTIRKN7android2spINS_8hardware20hidl_death_recipientEEE"
    }
   ],
   "return_type" : "_ZTIN7android8hardware6ReturnIbEE",
   "source_file" : "/out/soong/.intermediates/hardware/interfaces/wifi/supplicant/1.1/android.hardware.wifi.supplicant@1.1_genc++_headers/gen/android/hardware/wifi/supplicant/1.1/ISupplicantStaIface.h"
  },
  {
   "function_name" : "android::hardware::wifi::supplicant::V1_1::ISupplicantStaIface::interfaceChain",
   "linker_set_key" : "_ZN7android8hardware4wifi10supplicant4V1_119ISupplicantStaIface14interfaceChainENSt3__18functionIFvRKNS0_8hidl_vecINS0_11hidl_stringEEEEEE",
   "parameters" :
   [
    {
     "is_this_ptr" : true,
     "referenced_type" : "_ZTIPN7android8hardware4wifi10supplicant4V1_119ISupplicantStaIfaceE"
    },
    {
     "referenced_type" : "_ZTINSt3__18functionIFvRKN7android8hardware8hidl_vecINS2_11hidl_stringEEEEEE"
    }
   ],
   "return_type" : "_ZTIN7android8hardware6ReturnIvEE",
   "source_file" : "/out/soong/.intermediates/hardware/interfaces/wifi/supplicant/1.1/android.hardware.wifi.supplicant@1.1_genc++_headers/gen/android/hardware/wifi/supplicant/1.1/ISupplicantStaIface.h"
  },
  {
   "function_name" : "android::hardware::wifi::supplicant::V1_1::ISupplicantStaIface::registerAsService",
   "linker_set_key" : "_ZN7android8hardware4wifi10supplicant4V1_119ISupplicantStaIface17registerAsServiceERKNSt3__112basic_stringIcNS5_11char_traitsIcEENS5_9allocatorIcEEEE",
   "parameters" :
   [
    {
     "is_this_ptr" : true,
     "referenced_type" : "_ZTIPN7android8hardware4wifi10supplicant4V1_119ISupplicantStaIfaceE"
    },
    {
     "default_arg" : true,
     "referenced_type" : "_ZTIRKNSt3__112basic_stringIcNS_11char_traitsIcEENS_9allocatorIcEEEE"
    }
   ],
   "return_type" : "_ZTIi",
   "source_file" : "/out/soong/.intermediates/hardware/interfaces/wifi/supplicant/1.1/android.hardware.wifi.supplicant@1.1_genc++_headers/gen/android/hardware/wifi/supplicant/1.1/ISupplicantStaIface.h"
  },
  {
   "function_name" : "android::hardware::wifi::supplicant::V1_1::ISupplicantStaIface::interfaceDescriptor",
   "linker_set_key" : "_ZN7android8hardware4wifi10supplicant4V1_119ISupplicantStaIface19interfaceDescriptorENSt3__18functionIFvRKNS0_11hidl_stringEEEE",
   "parameters" :
   [
    {
     "is_this_ptr" : true,
     "referenced_type" : "_ZTIPN7android8hardware4wifi10supplicant4V1_119ISupplicantStaIfaceE"
    },
    {
     "referenced_type" : "_ZTINSt3__18functionIFvRKN7android8hardware11hidl_stringEEEE"
    }
   ],
   "return_type" : "_ZTIN7android8hardware6ReturnIvEE",
   "source_file" : "/out/soong/.intermediates/hardware/interfaces/wifi/supplicant/1.1/android.hardware.wifi.supplicant@1.1_genc++_headers/gen/android/hardware/wifi/supplicant/1.1/ISupplicantStaIface.h"
  },
  {
   "function_name" : "android::hardware::wifi::supplicant::V1_1::ISupplicantStaIface::notifySyspropsChanged",
   "linker_set_key" : "_ZN7android8hardware4wifi10supplicant4V1_119ISupplicantStaIface21notifySyspropsChangedEv",
   "parameters" :
   [
    {
     "is_this_ptr" : true,
     "referenced_type" : "_ZTIPN7android8hardware4wifi10supplicant4V1_119ISupplicantStaIfaceE"
    }
   ],
   "return_type" : "_ZTIN7android8hardware6ReturnIvEE",
   "source_file" : "/out/soong/.intermediates/hardware/interfaces/wifi/supplicant/1.1/android.hardware.wifi.supplicant@1.1_genc++_headers/gen/android/hardware/wifi/supplicant/1.1/ISupplicantStaIface.h"
  },
  {
   "function_name" : "android::hardware::wifi::supplicant::V1_1::ISupplicantStaIface::setHALInstrumentation",
   "linker_set_key" : "_ZN7android8hardware4wifi10supplicant4V1_119ISupplicantStaIface21setHALInstrumentationEv",
   "parameters" :
   [
    {
     "is_this_ptr" : true,
     "referenced_type" : "_ZTIPN7android8hardware4wifi10supplicant4V1_119ISupplicantStaIfaceE"
    }
   ],
   "return_type" : "_ZTIN7android8hardware6ReturnIvEE",
   "source_file" : "/out/soong/.intermediates/hardware/interfaces/wifi/supplicant/1.1/android.hardware.wifi.supplicant@1.1_genc++_headers/gen/android/hardware/wifi/supplicant/1.1/ISupplicantStaIface.h"
  },
  {
   "function_name" : "android::hardware::wifi::supplicant::V1_1::ISupplicantStaIface::registerForNotifications",
   "linker_set_key" : "_ZN7android8hardware4wifi10supplicant4V1_119ISupplicantStaIface24registerForNotificationsERKNSt3__112basic_stringIcNS5_11char_traitsIcEENS5_9allocatorIcEEEERKNS_2spINS_4hidl7manager4V1_020IServiceNotificationEEE",
   "parameters" :
   [
    {
     "referenced_type" : "_ZTIRKNSt3__112basic_stringIcNS_11char_traitsIcEENS_9allocatorIcEEEE"
    },
    {
     "referenced_type" : "_ZTIRKN7android2spINS_4hidl7manager4V1_020IServiceNotificationEEE"
    }
   ],
   "return_type" : "_ZTIb",
   "source_file" : "/out/soong/.intermediates/hardware/interfaces/wifi/supplicant/1.1/android.hardware.wifi.supplicant@1.1_genc++_headers/gen/android/hardware/wifi/supplicant/1.1/ISupplicantStaIface.h"
  },
  {
   "function_name" : "android::hardware::wifi::supplicant::V1_1::ISupplicantStaIface::ping",
   "linker_set_key" : "_ZN7android8hardware4wifi10supplicant4V1_119ISupplicantStaIface4pingEv",
   "parameters" :
   [
    {
     "is_this_ptr" : true,
     "referenced_type" : "_ZTIPN7android8hardware4wifi10supplicant4V1_119ISupplicantStaIfaceE"
    }
   ],
   "return_type" : "_ZTIN7android8hardware6ReturnIvEE",
   "source_file" : "/out/soong/.intermediates/hardware/interfaces/wifi/supplicant/1.1/android.hardware.wifi.supplicant@1.1_genc++_headers/gen/android/hardware/wifi/supplicant/1.1/ISupplicantStaIface.h"
  },
  {
   "function_name" : "android::hardware::wifi::supplicant::V1_1::ISupplicantStaIface::debug",
   "linker_set_key" : "_ZN7android8hardware4wifi10supplicant4V1_119ISupplicantStaIface5debugERKNS0_11hidl_handleERKNS0_8hidl_vecINS0_11hidl_stringEEE",
   "parameters" :
   [
    {
     "is_this_ptr" : true,
     "referenced_type" : "_ZTIPN7android8hardware4wifi10supplicant4V1_119ISupplicantStaIfaceE"
    },
    {
     "referenced_type" : "_ZTIRKN7android8hardware11hidl_handleE"
    },
    {
     "referenced_type" : "_ZTIRKN7android8hardware8hidl_vecINS0_11hidl_stringEEE"
    }
   ],
   "return_type" : "_ZTIN7android8hardware6ReturnIvEE",
   "source_file" : "/out/soong/.intermediates/hardware/interfaces/wifi/supplicant/1.1/android.hardware.wifi.supplicant@1.1_genc++_headers/gen/android/hardware/wifi/supplicant/1.1/ISupplicantStaIface.h"
  },
  {
   "function_name" : "android::hardware::wifi::supplicant::V1_1::ISupplicantStaIface::castFrom",
   "linker_set_key" : "_ZN7android8hardware4wifi10supplicant4V1_119ISupplicantStaIface8castFromERKNS_2spINS2_4V1_016ISupplicantIfaceEEEb",
   "parameters" :
   [
    {
     "referenced_type" : "_ZTIRKN7android2spINS_8hardware4wifi10supplicant4V1_016ISupplicantIfaceEEE"
    },
    {
     "default_arg" : true,
     "referenced_type" : "_ZTIb"
    }
   ],
   "return_type" : "_ZTIN7android8hardware6ReturnINS_2spINS0_4wifi10supplicant4V1_119ISupplicantStaIfaceEEEEE",
   "source_file" : "/out/soong/.intermediates/hardware/interfaces/wifi/supplicant/1.1/android.hardware.wifi.supplicant@1.1_genc++_headers/gen/android/hardware/wifi/supplicant/1.1/ISupplicantStaIface.h"
  },
  {
   "function_name" : "android::hardware::wifi::supplicant::V1_1::ISupplicantStaIface::castFrom",
   "linker_set_key" : "_ZN7android8hardware4wifi10supplicant4V1_119ISupplicantStaIface8castFromERKNS_2spINS2_4V1_019ISupplicantStaIfaceEEEb",
   "parameters" :
   [
    {
     "referenced_type" : "_ZTIRKN7android2spINS_8hardware4wifi10supplicant4V1_019ISupplicantStaIfaceEEE"
    },
    {
     "default_arg" : true,
     "referenced_type" : "_ZTIb"
    }
   ],
   "return_type" : "_ZTIN7android8hardware6ReturnINS_2spINS0_4wifi10supplicant4V1_119ISupplicantStaIfaceEEEEE",
   "source_file" : "/out/soong/.intermediates/hardware/interfaces/wifi/supplicant/1.1/android.hardware.wifi.supplicant@1.1_genc++_headers/gen/android/hardware/wifi/supplicant/1.1/ISupplicantStaIface.h"
  },
  {
   "function_name" : "android::hardware::wifi::supplicant::V1_1::ISupplicantStaIface::castFrom",
   "linker_set_key" : "_ZN7android8hardware4wifi10supplicant4V1_119ISupplicantStaIface8castFromERKNS_2spINS_4hidl4base4V1_05IBaseEEEb",
   "parameters" :
   [
    {
     "referenced_type" : "_ZTIRKN7android2spINS_4hidl4base4V1_05IBaseEEE"
    },
    {
     "default_arg" : true,
     "referenced_type" : "_ZTIb"
    }
   ],
   "return_type" : "_ZTIN7android8hardware6ReturnINS_2spINS0_4wifi10supplicant4V1_119ISupplicantStaIfaceEEEEE",
   "source_file" : "/out/soong/.intermediates/hardware/interfaces/wifi/supplicant/1.1/android.hardware.wifi.supplicant@1.1_genc++_headers/gen/android/hardware/wifi/supplicant/1.1/ISupplicantStaIface.h"
  },
  {
   "function_name" : "android::hardware::wifi::supplicant::V1_1::ISupplicantStaIface::castFrom",
   "linker_set_key" : "_ZN7android8hardware4wifi10supplicant4V1_119ISupplicantStaIface8castFromERKNS_2spIS4_EEb",
   "parameters" :
   [
    {
     "referenced_type" : "_ZTIRKN7android2spINS_8hardware4wifi10supplicant4V1_119ISupplicantStaIfaceEEE"
    },
    {
     "default_arg" : true,
     "referenced_type" : "_ZTIb"
    }
   ],
   "return_type" : "_ZTIN7android8hardware6ReturnINS_2spINS0_4wifi10supplicant4V1_119ISupplicantStaIfaceEEEEE",
   "source_file" : "/out/soong/.intermediates/hardware/interfaces/wifi/supplicant/1.1/android.hardware.wifi.supplicant@1.1_genc++_headers/gen/android/hardware/wifi/supplicant/1.1/ISupplicantStaIface.h"
  },
  {
   "access" : "private",
   "function_name" : "android::hardware::wifi::supplicant::V1_1::BsSupplicantStaIface::addOnewayTask",
   "linker_set_key" : "_ZN7android8hardware4wifi10supplicant4V1_120BsSupplicantStaIface13addOnewayTaskENSt3__18functionIFvvEEE",
   "parameters" :
   [
    {
     "is_this_ptr" : true,
     "referenced_type" : "_ZTIPN7android8hardware4wifi10supplicant4V1_120BsSupplicantStaIfaceE"
    },
    {
     "referenced_type" : "_ZTINSt3__18functionIFvvEEE"
    }
   ],
   "return_type" : "_ZTIN7android8hardware6ReturnIvEE",
   "source_file" : "/out/soong/.intermediates/hardware/interfaces/wifi/supplicant/1.1/android.hardware.wifi.supplicant@1.1_genc++_headers/gen/android/hardware/wifi/supplicant/1.1/BsSupplicantStaIface.h"
  },
  {
   "function_name" : "android::hardware::wifi::supplicant::V1_1::BsSupplicantStaIface::BsSupplicantStaIface",
   "linker_set_key" : "_ZN7android8hardware4wifi10supplicant4V1_120BsSupplicantStaIfaceC1ENS_2spINS3_19ISupplicantStaIfaceEEE",
   "parameters" :
   [
    {
     "is_this_ptr" : true,
     "referenced_type" : "_ZTIPN7android8hardware4wifi10supplicant4V1_120BsSupplicantStaIfaceE"
    },
    {
     "referenced_type" : "_ZTIKN7android2spINS_8hardware4wifi10supplicant4V1_119ISupplicantStaIfaceEEE"
    }
   ],
   "return_type" : "_ZTIv",
   "source_file" : "/out/soong/.intermediates/hardware/interfaces/wifi/supplicant/1.1/android.hardware.wifi.supplicant@1.1_genc++_headers/gen/android/hardware/wifi/supplicant/1.1/BsSupplicantStaIface.h"
  },
  {
   "function_name" : "android::hardware::wifi::supplicant::V1_1::BsSupplicantStaIface::BsSupplicantStaIface",
   "linker_set_key" : "_ZN7android8hardware4wifi10supplicant4V1_120BsSupplicantStaIfaceC2ENS_2spINS3_19ISupplicantStaIfaceEEE",
   "parameters" :
   [
    {
     "is_this_ptr" : true,
     "referenced_type" : "_ZTIPN7android8hardware4wifi10supplicant4V1_120BsSupplicantStaIfaceE"
    },
    {
     "referenced_type" : "_ZTIKN7android2spINS_8hardware4wifi10supplicant4V1_119ISupplicantStaIfaceEEE"
    }
   ],
   "return_type" : "_ZTIv",
   "source_file" : "/out/soong/.intermediates/hardware/interfaces/wifi/supplicant/1.1/android.hardware.wifi.supplicant@1.1_genc++_headers/gen/android/hardware/wifi/supplicant/1.1/BsSupplicantStaIface.h"
  },
  {
   "function_name" : "android::hardware::wifi::supplicant::V1_1::ISupplicantStaNetwork::getService",
   "linker_set_key" : "_ZN7android8hardware4wifi10supplicant4V1_121ISupplicantStaNetwork10getServiceERKNSt3__112basic_stringIcNS5_11char_traitsIcEENS5_9allocatorIcEEEEb",
   "parameters" :
   [
    {
     "default_arg" : true,
     "referenced_type" : "_ZTIRKNSt3__112basic_stringIcNS_11char_traitsIcEENS_9allocatorIcEEEE"
    },
    {
     "default_arg" : true,
     "referenced_type" : "_ZTIb"
    }
   ],
   "return_type" : "_ZTIN7android2spINS_8hardware4wifi10supplicant4V1_121ISupplicantStaNetworkEEE",
   "source_file" : "/out/soong/.intermediates/hardware/interfaces/wifi/supplicant/1.1/android.hardware.wifi.supplicant@1.1_genc++_headers/gen/android/hardware/wifi/supplicant/1.1/ISupplicantStaNetwork.h"
  },
  {
   "function_name" : "android::hardware::wifi::supplicant::V1_1::ISupplicantStaNetwork::linkToDeath",
   "linker_set_key" : "_ZN7android8hardware4wifi10supplicant4V1_121ISupplicantStaNetwork11linkToDeathERKNS_2spINS0_20hidl_death_recipientEEEy",
   "parameters" :
   [
    {
     "is_this_ptr" : true,
     "referenced_type" : "_ZTIPN7android8hardware4wifi10supplicant4V1_121ISupplicantStaNetworkE"
    },
    {
     "referenced_type" : "_ZTIRKN7android2spINS_8hardware20hidl_death_recipientEEE"
    },
    {
     "referenced_type" : "_ZTIy"
    }
   ],
   "return_type" : "_ZTIN7android8hardware6ReturnIbEE",
   "source_file" : "/out/soong/.intermediates/hardware/interfaces/wifi/supplicant/1.1/android.hardware.wifi.supplicant@1.1_genc++_headers/gen/android/hardware/wifi/supplicant/1.1/ISupplicantStaNetwork.h"
  },
  {
   "function_name" : "android::hardware::wifi::supplicant::V1_1::ISupplicantStaNetwork::getDebugInfo",
   "linker_set_key" : "_ZN7android8hardware4wifi10supplicant4V1_121ISupplicantStaNetwork12getDebugInfoENSt3__18functionIFvRKNS_4hidl4base4V1_09DebugInfoEEEE",
   "parameters" :
   [
    {
     "is_this_ptr" : true,
     "referenced_type" : "_ZTIPN7android8hardware4wifi10supplicant4V1_121ISupplicantStaNetworkE"
    },
    {
     "referenced_type" : "_ZTINSt3__18functionIFvRKN7android4hidl4base4V1_09DebugInfoEEEE"
    }
   ],
   "return_type" : "_ZTIN7android8hardware6ReturnIvEE",
   "source_file" : "/out/soong/.intermediates/hardware/interfaces/wifi/supplicant/1.1/android.hardware.wifi.supplicant@1.1_genc++_headers/gen/android/hardware/wifi/supplicant/1.1/ISupplicantStaNetwork.h"
  },
  {
   "function_name" : "android::hardware::wifi::supplicant::V1_1::ISupplicantStaNetwork::getHashChain",
   "linker_set_key" : "_ZN7android8hardware4wifi10supplicant4V1_121ISupplicantStaNetwork12getHashChainENSt3__18functionIFvRKNS0_8hidl_vecINS0_10hidl_arrayIhLj32EJEEEEEEEE",
   "parameters" :
   [
    {
     "is_this_ptr" : true,
     "referenced_type" : "_ZTIPN7android8hardware4wifi10supplicant4V1_121ISupplicantStaNetworkE"
    },
    {
     "referenced_type" : "_ZTINSt3__18functionIFvRKN7android8hardware8hidl_vecINS2_10hidl_arrayIhLj32EJEEEEEEEE"
    }
   ],
   "return_type" : "_ZTIN7android8hardware6ReturnIvEE",
   "source_file" : "/out/soong/.intermediates/hardware/interfaces/wifi/supplicant/1.1/android.hardware.wifi.supplicant@1.1_genc++_headers/gen/android/hardware/wifi/supplicant/1.1/ISupplicantStaNetwork.h"
  },
  {
   "function_name" : "android::hardware::wifi::supplicant::V1_1::ISupplicantStaNetwork::tryGetService",
   "linker_set_key" : "_ZN7android8hardware4wifi10supplicant4V1_121ISupplicantStaNetwork13tryGetServiceERKNSt3__112basic_stringIcNS5_11char_traitsIcEENS5_9allocatorIcEEEEb",
   "parameters" :
   [
    {
     "default_arg" : true,
     "referenced_type" : "_ZTIRKNSt3__112basic_stringIcNS_11char_traitsIcEENS_9allocatorIcEEEE"
    },
    {
     "default_arg" : true,
     "referenced_type" : "_ZTIb"
    }
   ],
   "return_type" : "_ZTIN7android2spINS_8hardware4wifi10supplicant4V1_121ISupplicantStaNetworkEEE",
   "source_file" : "/out/soong/.intermediates/hardware/interfaces/wifi/supplicant/1.1/android.hardware.wifi.supplicant@1.1_genc++_headers/gen/android/hardware/wifi/supplicant/1.1/ISupplicantStaNetwork.h"
  },
  {
   "function_name" : "android::hardware::wifi::supplicant::V1_1::ISupplicantStaNetwork::unlinkToDeath",
   "linker_set_key" : "_ZN7android8hardware4wifi10supplicant4V1_121ISupplicantStaNetwork13unlinkToDeathERKNS_2spINS0_20hidl_death_recipientEEE",
   "parameters" :
   [
    {
     "is_this_ptr" : true,
     "referenced_type" : "_ZTIPN7android8hardware4wifi10supplicant4V1_121ISupplicantStaNetworkE"
    },
    {
     "referenced_type" : "_ZTIRKN7android2spINS_8hardware20hidl_death_recipientEEE"
    }
   ],
   "return_type" : "_ZTIN7android8hardware6ReturnIbEE",
   "source_file" : "/out/soong/.intermediates/hardware/interfaces/wifi/supplicant/1.1/android.hardware.wifi.supplicant@1.1_genc++_headers/gen/android/hardware/wifi/supplicant/1.1/ISupplicantStaNetwork.h"
  },
  {
   "function_name" : "android::hardware::wifi::supplicant::V1_1::ISupplicantStaNetwork::interfaceChain",
   "linker_set_key" : "_ZN7android8hardware4wifi10supplicant4V1_121ISupplicantStaNetwork14interfaceChainENSt3__18functionIFvRKNS0_8hidl_vecINS0_11hidl_stringEEEEEE",
   "parameters" :
   [
    {
     "is_this_ptr" : true,
     "referenced_type" : "_ZTIPN7android8hardware4wifi10supplicant4V1_121ISupplicantStaNetworkE"
    },
    {
     "referenced_type" : "_ZTINSt3__18functionIFvRKN7android8hardware8hidl_vecINS2_11hidl_stringEEEEEE"
    }
   ],
   "return_type" : "_ZTIN7android8hardware6ReturnIvEE",
   "source_file" : "/out/soong/.intermediates/hardware/interfaces/wifi/supplicant/1.1/android.hardware.wifi.supplicant@1.1_genc++_headers/gen/android/hardware/wifi/supplicant/1.1/ISupplicantStaNetwork.h"
  },
  {
   "function_name" : "android::hardware::wifi::supplicant::V1_1::ISupplicantStaNetwork::registerAsService",
   "linker_set_key" : "_ZN7android8hardware4wifi10supplicant4V1_121ISupplicantStaNetwork17registerAsServiceERKNSt3__112basic_stringIcNS5_11char_traitsIcEENS5_9allocatorIcEEEE",
   "parameters" :
   [
    {
     "is_this_ptr" : true,
     "referenced_type" : "_ZTIPN7android8hardware4wifi10supplicant4V1_121ISupplicantStaNetworkE"
    },
    {
     "default_arg" : true,
     "referenced_type" : "_ZTIRKNSt3__112basic_stringIcNS_11char_traitsIcEENS_9allocatorIcEEEE"
    }
   ],
   "return_type" : "_ZTIi",
   "source_file" : "/out/soong/.intermediates/hardware/interfaces/wifi/supplicant/1.1/android.hardware.wifi.supplicant@1.1_genc++_headers/gen/android/hardware/wifi/supplicant/1.1/ISupplicantStaNetwork.h"
  },
  {
   "function_name" : "android::hardware::wifi::supplicant::V1_1::ISupplicantStaNetwork::interfaceDescriptor",
   "linker_set_key" : "_ZN7android8hardware4wifi10supplicant4V1_121ISupplicantStaNetwork19interfaceDescriptorENSt3__18functionIFvRKNS0_11hidl_stringEEEE",
   "parameters" :
   [
    {
     "is_this_ptr" : true,
     "referenced_type" : "_ZTIPN7android8hardware4wifi10supplicant4V1_121ISupplicantStaNetworkE"
    },
    {
     "referenced_type" : "_ZTINSt3__18functionIFvRKN7android8hardware11hidl_stringEEEE"
    }
   ],
   "return_type" : "_ZTIN7android8hardware6ReturnIvEE",
   "source_file" : "/out/soong/.intermediates/hardware/interfaces/wifi/supplicant/1.1/android.hardware.wifi.supplicant@1.1_genc++_headers/gen/android/hardware/wifi/supplicant/1.1/ISupplicantStaNetwork.h"
  },
  {
   "function_name" : "android::hardware::wifi::supplicant::V1_1::ISupplicantStaNetwork::notifySyspropsChanged",
   "linker_set_key" : "_ZN7android8hardware4wifi10supplicant4V1_121ISupplicantStaNetwork21notifySyspropsChangedEv",
   "parameters" :
   [
    {
     "is_this_ptr" : true,
     "referenced_type" : "_ZTIPN7android8hardware4wifi10supplicant4V1_121ISupplicantStaNetworkE"
    }
   ],
   "return_type" : "_ZTIN7android8hardware6ReturnIvEE",
   "source_file" : "/out/soong/.intermediates/hardware/interfaces/wifi/supplicant/1.1/android.hardware.wifi.supplicant@1.1_genc++_headers/gen/android/hardware/wifi/supplicant/1.1/ISupplicantStaNetwork.h"
  },
  {
   "function_name" : "android::hardware::wifi::supplicant::V1_1::ISupplicantStaNetwork::setHALInstrumentation",
   "linker_set_key" : "_ZN7android8hardware4wifi10supplicant4V1_121ISupplicantStaNetwork21setHALInstrumentationEv",
   "parameters" :
   [
    {
     "is_this_ptr" : true,
     "referenced_type" : "_ZTIPN7android8hardware4wifi10supplicant4V1_121ISupplicantStaNetworkE"
    }
   ],
   "return_type" : "_ZTIN7android8hardware6ReturnIvEE",
   "source_file" : "/out/soong/.intermediates/hardware/interfaces/wifi/supplicant/1.1/android.hardware.wifi.supplicant@1.1_genc++_headers/gen/android/hardware/wifi/supplicant/1.1/ISupplicantStaNetwork.h"
  },
  {
   "function_name" : "android::hardware::wifi::supplicant::V1_1::ISupplicantStaNetwork::registerForNotifications",
   "linker_set_key" : "_ZN7android8hardware4wifi10supplicant4V1_121ISupplicantStaNetwork24registerForNotificationsERKNSt3__112basic_stringIcNS5_11char_traitsIcEENS5_9allocatorIcEEEERKNS_2spINS_4hidl7manager4V1_020IServiceNotificationEEE",
   "parameters" :
   [
    {
     "referenced_type" : "_ZTIRKNSt3__112basic_stringIcNS_11char_traitsIcEENS_9allocatorIcEEEE"
    },
    {
     "referenced_type" : "_ZTIRKN7android2spINS_4hidl7manager4V1_020IServiceNotificationEEE"
    }
   ],
   "return_type" : "_ZTIb",
   "source_file" : "/out/soong/.intermediates/hardware/interfaces/wifi/supplicant/1.1/android.hardware.wifi.supplicant@1.1_genc++_headers/gen/android/hardware/wifi/supplicant/1.1/ISupplicantStaNetwork.h"
  },
  {
   "function_name" : "android::hardware::wifi::supplicant::V1_1::ISupplicantStaNetwork::ping",
   "linker_set_key" : "_ZN7android8hardware4wifi10supplicant4V1_121ISupplicantStaNetwork4pingEv",
   "parameters" :
   [
    {
     "is_this_ptr" : true,
     "referenced_type" : "_ZTIPN7android8hardware4wifi10supplicant4V1_121ISupplicantStaNetworkE"
    }
   ],
   "return_type" : "_ZTIN7android8hardware6ReturnIvEE",
   "source_file" : "/out/soong/.intermediates/hardware/interfaces/wifi/supplicant/1.1/android.hardware.wifi.supplicant@1.1_genc++_headers/gen/android/hardware/wifi/supplicant/1.1/ISupplicantStaNetwork.h"
  },
  {
   "function_name" : "android::hardware::wifi::supplicant::V1_1::ISupplicantStaNetwork::debug",
   "linker_set_key" : "_ZN7android8hardware4wifi10supplicant4V1_121ISupplicantStaNetwork5debugERKNS0_11hidl_handleERKNS0_8hidl_vecINS0_11hidl_stringEEE",
   "parameters" :
   [
    {
     "is_this_ptr" : true,
     "referenced_type" : "_ZTIPN7android8hardware4wifi10supplicant4V1_121ISupplicantStaNetworkE"
    },
    {
     "referenced_type" : "_ZTIRKN7android8hardware11hidl_handleE"
    },
    {
     "referenced_type" : "_ZTIRKN7android8hardware8hidl_vecINS0_11hidl_stringEEE"
    }
   ],
   "return_type" : "_ZTIN7android8hardware6ReturnIvEE",
   "source_file" : "/out/soong/.intermediates/hardware/interfaces/wifi/supplicant/1.1/android.hardware.wifi.supplicant@1.1_genc++_headers/gen/android/hardware/wifi/supplicant/1.1/ISupplicantStaNetwork.h"
  },
  {
   "function_name" : "android::hardware::wifi::supplicant::V1_1::ISupplicantStaNetwork::castFrom",
   "linker_set_key" : "_ZN7android8hardware4wifi10supplicant4V1_121ISupplicantStaNetwork8castFromERKNS_2spINS2_4V1_018ISupplicantNetworkEEEb",
   "parameters" :
   [
    {
     "referenced_type" : "_ZTIRKN7android2spINS_8hardware4wifi10supplicant4V1_018ISupplicantNetworkEEE"
    },
    {
     "default_arg" : true,
     "referenced_type" : "_ZTIb"
    }
   ],
   "return_type" : "_ZTIN7android8hardware6ReturnINS_2spINS0_4wifi10supplicant4V1_121ISupplicantStaNetworkEEEEE",
   "source_file" : "/out/soong/.intermediates/hardware/interfaces/wifi/supplicant/1.1/android.hardware.wifi.supplicant@1.1_genc++_headers/gen/android/hardware/wifi/supplicant/1.1/ISupplicantStaNetwork.h"
  },
  {
   "function_name" : "android::hardware::wifi::supplicant::V1_1::ISupplicantStaNetwork::castFrom",
   "linker_set_key" : "_ZN7android8hardware4wifi10supplicant4V1_121ISupplicantStaNetwork8castFromERKNS_2spINS2_4V1_021ISupplicantStaNetworkEEEb",
   "parameters" :
   [
    {
     "referenced_type" : "_ZTIRKN7android2spINS_8hardware4wifi10supplicant4V1_021ISupplicantStaNetworkEEE"
    },
    {
     "default_arg" : true,
     "referenced_type" : "_ZTIb"
    }
   ],
   "return_type" : "_ZTIN7android8hardware6ReturnINS_2spINS0_4wifi10supplicant4V1_121ISupplicantStaNetworkEEEEE",
   "source_file" : "/out/soong/.intermediates/hardware/interfaces/wifi/supplicant/1.1/android.hardware.wifi.supplicant@1.1_genc++_headers/gen/android/hardware/wifi/supplicant/1.1/ISupplicantStaNetwork.h"
  },
  {
   "function_name" : "android::hardware::wifi::supplicant::V1_1::ISupplicantStaNetwork::castFrom",
   "linker_set_key" : "_ZN7android8hardware4wifi10supplicant4V1_121ISupplicantStaNetwork8castFromERKNS_2spINS_4hidl4base4V1_05IBaseEEEb",
   "parameters" :
   [
    {
     "referenced_type" : "_ZTIRKN7android2spINS_4hidl4base4V1_05IBaseEEE"
    },
    {
     "default_arg" : true,
     "referenced_type" : "_ZTIb"
    }
   ],
   "return_type" : "_ZTIN7android8hardware6ReturnINS_2spINS0_4wifi10supplicant4V1_121ISupplicantStaNetworkEEEEE",
   "source_file" : "/out/soong/.intermediates/hardware/interfaces/wifi/supplicant/1.1/android.hardware.wifi.supplicant@1.1_genc++_headers/gen/android/hardware/wifi/supplicant/1.1/ISupplicantStaNetwork.h"
  },
  {
   "function_name" : "android::hardware::wifi::supplicant::V1_1::ISupplicantStaNetwork::castFrom",
   "linker_set_key" : "_ZN7android8hardware4wifi10supplicant4V1_121ISupplicantStaNetwork8castFromERKNS_2spIS4_EEb",
   "parameters" :
   [
    {
     "referenced_type" : "_ZTIRKN7android2spINS_8hardware4wifi10supplicant4V1_121ISupplicantStaNetworkEEE"
    },
    {
     "default_arg" : true,
     "referenced_type" : "_ZTIb"
    }
   ],
   "return_type" : "_ZTIN7android8hardware6ReturnINS_2spINS0_4wifi10supplicant4V1_121ISupplicantStaNetworkEEEEE",
   "source_file" : "/out/soong/.intermediates/hardware/interfaces/wifi/supplicant/1.1/android.hardware.wifi.supplicant@1.1_genc++_headers/gen/android/hardware/wifi/supplicant/1.1/ISupplicantStaNetwork.h"
  },
  {
   "function_name" : "android::hardware::wifi::supplicant::V1_1::BnHwSupplicantStaIface::onTransact",
   "linker_set_key" : "_ZN7android8hardware4wifi10supplicant4V1_122BnHwSupplicantStaIface10onTransactEjRKNS0_6ParcelEPS5_jNSt3__18functionIFvRS5_EEE",
   "parameters" :
   [
    {
     "is_this_ptr" : true,
     "referenced_type" : "_ZTIPN7android8hardware4wifi10supplicant4V1_122BnHwSupplicantStaIfaceE"
    },
    {
     "referenced_type" : "_ZTIj"
    },
    {
     "referenced_type" : "_ZTIRKN7android8hardware6ParcelE"
    },
    {
     "referenced_type" : "_ZTIPN7android8hardware6ParcelE"
    },
    {
     "default_arg" : true,
     "referenced_type" : "_ZTIj"
    },
    {
     "default_arg" : true,
     "referenced_type" : "_ZTINSt3__18functionIFvRN7android8hardware6ParcelEEEE"
    }
   ],
   "return_type" : "_ZTIi",
   "source_file" : "/out/soong/.intermediates/hardware/interfaces/wifi/supplicant/1.1/android.hardware.wifi.supplicant@1.1_genc++_headers/gen/android/hardware/wifi/supplicant/1.1/BnHwSupplicantStaIface.h"
  },
  {
   "access" : "private",
   "function_name" : "android::hardware::wifi::supplicant::V1_1::BnHwSupplicantStaIface::getDebugInfo",
   "linker_set_key" : "_ZN7android8hardware4wifi10supplicant4V1_122BnHwSupplicantStaIface12getDebugInfoENSt3__18functionIFvRKNS_4hidl4base4V1_09DebugInfoEEEE",
   "parameters" :
   [
    {
     "is_this_ptr" : true,
     "referenced_type" : "_ZTIPN7android8hardware4wifi10supplicant4V1_122BnHwSupplicantStaIfaceE"
    },
    {
     "referenced_type" : "_ZTINSt3__18functionIFvRKN7android4hidl4base4V1_09DebugInfoEEEE"
    }
   ],
   "return_type" : "_ZTIN7android8hardware6ReturnIvEE",
   "source_file" : "/out/soong/.intermediates/hardware/interfaces/wifi/supplicant/1.1/android.hardware.wifi.supplicant@1.1_genc++_headers/gen/android/hardware/wifi/supplicant/1.1/BnHwSupplicantStaIface.h"
  },
  {
   "function_name" : "android::hardware::wifi::supplicant::V1_1::BnHwSupplicantStaIface::_hidl_registerCallback_1_1",
   "linker_set_key" : "_ZN7android8hardware4wifi10supplicant4V1_122BnHwSupplicantStaIface26_hidl_registerCallback_1_1EPNS_4hidl4base4V1_08BnHwBaseERKNS0_6ParcelEPSA_NSt3__18functionIFvRSA_EEE",
   "parameters" :
   [
    {
     "referenced_type" : "_ZTIPN7android4hidl4base4V1_08BnHwBaseE"
    },
    {
     "referenced_type" : "_ZTIRKN7android8hardware6ParcelE"
    },
    {
     "referenced_type" : "_ZTIPN7android8hardware6ParcelE"
    },
    {
     "referenced_type" : "_ZTINSt3__18functionIFvRN7android8hardware6ParcelEEEE"
    }
   ],
   "return_type" : "_ZTIi",
   "source_file" : "/out/soong/.intermediates/hardware/interfaces/wifi/supplicant/1.1/android.hardware.wifi.supplicant@1.1_genc++_headers/gen/android/hardware/wifi/supplicant/1.1/BnHwSupplicantStaIface.h"
  },
  {
   "access" : "private",
   "function_name" : "android::hardware::wifi::supplicant::V1_1::BnHwSupplicantStaIface::ping",
   "linker_set_key" : "_ZN7android8hardware4wifi10supplicant4V1_122BnHwSupplicantStaIface4pingEv",
   "parameters" :
   [
    {
     "is_this_ptr" : true,
     "referenced_type" : "_ZTIPN7android8hardware4wifi10supplicant4V1_122BnHwSupplicantStaIfaceE"
    }
   ],
   "return_type" : "_ZTIN7android8hardware6ReturnIvEE",
   "source_file" : "/out/soong/.intermediates/hardware/interfaces/wifi/supplicant/1.1/android.hardware.wifi.supplicant@1.1_genc++_headers/gen/android/hardware/wifi/supplicant/1.1/BnHwSupplicantStaIface.h"
  },
  {
   "function_name" : "android::hardware::wifi::supplicant::V1_1::BnHwSupplicantStaIface::BnHwSupplicantStaIface",
   "linker_set_key" : "_ZN7android8hardware4wifi10supplicant4V1_122BnHwSupplicantStaIfaceC1ERKNS_2spINS3_19ISupplicantStaIfaceEEE",
   "parameters" :
   [
    {
     "is_this_ptr" : true,
     "referenced_type" : "_ZTIPN7android8hardware4wifi10supplicant4V1_122BnHwSupplicantStaIfaceE"
    },
    {
     "referenced_type" : "_ZTIRKN7android2spINS_8hardware4wifi10supplicant4V1_119ISupplicantStaIfaceEEE"
    }
   ],
   "return_type" : "_ZTIv",
   "source_file" : "/out/soong/.intermediates/hardware/interfaces/wifi/supplicant/1.1/android.hardware.wifi.supplicant@1.1_genc++_headers/gen/android/hardware/wifi/supplicant/1.1/BnHwSupplicantStaIface.h"
  },
  {
   "function_name" : "android::hardware::wifi::supplicant::V1_1::BnHwSupplicantStaIface::BnHwSupplicantStaIface",
   "linker_set_key" : "_ZN7android8hardware4wifi10supplicant4V1_122BnHwSupplicantStaIfaceC2ERKNS_2spINS3_19ISupplicantStaIfaceEEE",
   "parameters" :
   [
    {
     "is_this_ptr" : true,
     "referenced_type" : "_ZTIPN7android8hardware4wifi10supplicant4V1_122BnHwSupplicantStaIfaceE"
    },
    {
     "referenced_type" : "_ZTIRKN7android2spINS_8hardware4wifi10supplicant4V1_119ISupplicantStaIfaceEEE"
    }
   ],
   "return_type" : "_ZTIv",
   "source_file" : "/out/soong/.intermediates/hardware/interfaces/wifi/supplicant/1.1/android.hardware.wifi.supplicant@1.1_genc++_headers/gen/android/hardware/wifi/supplicant/1.1/BnHwSupplicantStaIface.h"
  },
  {
   "function_name" : "android::hardware::wifi::supplicant::V1_1::BnHwSupplicantStaIface::~BnHwSupplicantStaIface",
   "linker_set_key" : "_ZN7android8hardware4wifi10supplicant4V1_122BnHwSupplicantStaIfaceD0Ev",
   "parameters" :
   [
    {
     "is_this_ptr" : true,
     "referenced_type" : "_ZTIPN7android8hardware4wifi10supplicant4V1_122BnHwSupplicantStaIfaceE"
    }
   ],
   "return_type" : "_ZTIv",
   "source_file" : "/out/soong/.intermediates/hardware/interfaces/wifi/supplicant/1.1/android.hardware.wifi.supplicant@1.1_genc++_headers/gen/android/hardware/wifi/supplicant/1.1/BnHwSupplicantStaIface.h"
  },
  {
   "function_name" : "android::hardware::wifi::supplicant::V1_1::BnHwSupplicantStaIface::~BnHwSupplicantStaIface",
   "linker_set_key" : "_ZN7android8hardware4wifi10supplicant4V1_122BnHwSupplicantStaIfaceD1Ev",
   "parameters" :
   [
    {
     "is_this_ptr" : true,
     "referenced_type" : "_ZTIPN7android8hardware4wifi10supplicant4V1_122BnHwSupplicantStaIfaceE"
    }
   ],
   "return_type" : "_ZTIv",
   "source_file" : "/out/soong/.intermediates/hardware/interfaces/wifi/supplicant/1.1/android.hardware.wifi.supplicant@1.1_genc++_headers/gen/android/hardware/wifi/supplicant/1.1/BnHwSupplicantStaIface.h"
  },
  {
   "function_name" : "android::hardware::wifi::supplicant::V1_1::BnHwSupplicantStaIface::~BnHwSupplicantStaIface",
   "linker_set_key" : "_ZN7android8hardware4wifi10supplicant4V1_122BnHwSupplicantStaIfaceD2Ev",
   "parameters" :
   [
    {
     "is_this_ptr" : true,
     "referenced_type" : "_ZTIPN7android8hardware4wifi10supplicant4V1_122BnHwSupplicantStaIfaceE"
    }
   ],
   "return_type" : "_ZTIv",
   "source_file" : "/out/soong/.intermediates/hardware/interfaces/wifi/supplicant/1.1/android.hardware.wifi.supplicant@1.1_genc++_headers/gen/android/hardware/wifi/supplicant/1.1/BnHwSupplicantStaIface.h"
  },
  {
   "function_name" : "android::hardware::wifi::supplicant::V1_1::BpHwSupplicantStaIface::addNetwork",
   "linker_set_key" : "_ZN7android8hardware4wifi10supplicant4V1_122BpHwSupplicantStaIface10addNetworkENSt3__18functionIFvRKNS2_4V1_016SupplicantStatusERKNS_2spINS7_18ISupplicantNetworkEEEEEE",
   "parameters" :
   [
    {
     "is_this_ptr" : true,
     "referenced_type" : "_ZTIPN7android8hardware4wifi10supplicant4V1_122BpHwSupplicantStaIfaceE"
    },
    {
     "referenced_type" : "_ZTINSt3__18functionIFvRKN7android8hardware4wifi10supplicant4V1_016SupplicantStatusERKNS1_2spINS5_18ISupplicantNetworkEEEEEE"
    }
   ],
   "return_type" : "_ZTIN7android8hardware6ReturnIvEE",
   "source_file" : "/out/soong/.intermediates/hardware/interfaces/wifi/supplicant/1.1/android.hardware.wifi.supplicant@1.1_genc++_headers/gen/android/hardware/wifi/supplicant/1.1/BpHwSupplicantStaIface.h"
  },
  {
   "function_name" : "android::hardware::wifi::supplicant::V1_1::BpHwSupplicantStaIface::disconnect",
   "linker_set_key" : "_ZN7android8hardware4wifi10supplicant4V1_122BpHwSupplicantStaIface10disconnectENSt3__18functionIFvRKNS2_4V1_016SupplicantStatusEEEE",
   "parameters" :
   [
    {
     "is_this_ptr" : true,
     "referenced_type" : "_ZTIPN7android8hardware4wifi10supplicant4V1_122BpHwSupplicantStaIfaceE"
    },
    {
     "referenced_type" : "_ZTINSt3__18functionIFvRKN7android8hardware4wifi10supplicant4V1_016SupplicantStatusEEEE"
    }
   ],
   "return_type" : "_ZTIN7android8hardware6ReturnIvEE",
   "source_file" : "/out/soong/.intermediates/hardware/interfaces/wifi/supplicant/1.1/android.hardware.wifi.supplicant@1.1_genc++_headers/gen/android/hardware/wifi/supplicant/1.1/BpHwSupplicantStaIface.h"
  },
  {
   "function_name" : "android::hardware::wifi::supplicant::V1_1::BpHwSupplicantStaIface::getNetwork",
   "linker_set_key" : "_ZN7android8hardware4wifi10supplicant4V1_122BpHwSupplicantStaIface10getNetworkEjNSt3__18functionIFvRKNS2_4V1_016SupplicantStatusERKNS_2spINS7_18ISupplicantNetworkEEEEEE",
   "parameters" :
   [
    {
     "is_this_ptr" : true,
     "referenced_type" : "_ZTIPN7android8hardware4wifi10supplicant4V1_122BpHwSupplicantStaIfaceE"
    },
    {
     "referenced_type" : "_ZTIj"
    },
    {
     "referenced_type" : "_ZTINSt3__18functionIFvRKN7android8hardware4wifi10supplicant4V1_016SupplicantStatusERKNS1_2spINS5_18ISupplicantNetworkEEEEEE"
    }
   ],
   "return_type" : "_ZTIN7android8hardware6ReturnIvEE",
   "source_file" : "/out/soong/.intermediates/hardware/interfaces/wifi/supplicant/1.1/android.hardware.wifi.supplicant@1.1_genc++_headers/gen/android/hardware/wifi/supplicant/1.1/BpHwSupplicantStaIface.h"
  },
  {
   "function_name" : "android::hardware::wifi::supplicant::V1_1::BpHwSupplicantStaIface::addRxFilter",
   "linker_set_key" : "_ZN7android8hardware4wifi10supplicant4V1_122BpHwSupplicantStaIface11addRxFilterENS2_4V1_019ISupplicantStaIface12RxFilterTypeENSt3__18functionIFvRKNS5_16SupplicantStatusEEEE",
   "parameters" :
   [
    {
     "is_this_ptr" : true,
     "referenced_type" : "_ZTIPN7android8hardware4wifi10supplicant4V1_122BpHwSupplicantStaIfaceE"
    },
    {
     "referenced_type" : "_ZTIN7android8hardware4wifi10supplicant4V1_019ISupplicantStaIface12RxFilterTypeE"
    },
    {
     "referenced_type" : "_ZTINSt3__18functionIFvRKN7android8hardware4wifi10supplicant4V1_016SupplicantStatusEEEE"
    }
   ],
   "return_type" : "_ZTIN7android8hardware6ReturnIvEE",
   "source_file" : "/out/soong/.intermediates/hardware/interfaces/wifi/supplicant/1.1/android.hardware.wifi.supplicant@1.1_genc++_headers/gen/android/hardware/wifi/supplicant/1.1/BpHwSupplicantStaIface.h"
  },
  {
   "function_name" : "android::hardware::wifi::supplicant::V1_1::BpHwSupplicantStaIface::linkToDeath",
   "linker_set_key" : "_ZN7android8hardware4wifi10supplicant4V1_122BpHwSupplicantStaIface11linkToDeathERKNS_2spINS0_20hidl_death_recipientEEEy",
   "parameters" :
   [
    {
     "is_this_ptr" : true,
     "referenced_type" : "_ZTIPN7android8hardware4wifi10supplicant4V1_122BpHwSupplicantStaIfaceE"
    },
    {
     "referenced_type" : "_ZTIRKN7android2spINS_8hardware20hidl_death_recipientEEE"
    },
    {
     "referenced_type" : "_ZTIy"
    }
   ],
   "return_type" : "_ZTIN7android8hardware6ReturnIbEE",
   "source_file" : "/out/soong/.intermediates/hardware/interfaces/wifi/supplicant/1.1/android.hardware.wifi.supplicant@1.1_genc++_headers/gen/android/hardware/wifi/supplicant/1.1/BpHwSupplicantStaIface.h"
  },
  {
   "function_name" : "android::hardware::wifi::supplicant::V1_1::BpHwSupplicantStaIface::reassociate",
   "linker_set_key" : "_ZN7android8hardware4wifi10supplicant4V1_122BpHwSupplicantStaIface11reassociateENSt3__18functionIFvRKNS2_4V1_016SupplicantStatusEEEE",
   "parameters" :
   [
    {
     "is_this_ptr" : true,
     "referenced_type" : "_ZTIPN7android8hardware4wifi10supplicant4V1_122BpHwSupplicantStaIfaceE"
    },
    {
     "referenced_type" : "_ZTINSt3__18functionIFvRKN7android8hardware4wifi10supplicant4V1_016SupplicantStatusEEEE"
    }
   ],
   "return_type" : "_ZTIN7android8hardware6ReturnIvEE",
   "source_file" : "/out/soong/.intermediates/hardware/interfaces/wifi/supplicant/1.1/android.hardware.wifi.supplicant@1.1_genc++_headers/gen/android/hardware/wifi/supplicant/1.1/BpHwSupplicantStaIface.h"
  },
  {
   "function_name" : "android::hardware::wifi::supplicant::V1_1::BpHwSupplicantStaIface::startWpsPbc",
   "linker_set_key" : "_ZN7android8hardware4wifi10supplicant4V1_122BpHwSupplicantStaIface11startWpsPbcERKNS0_10hidl_arrayIhLj6EJEEENSt3__18functionIFvRKNS2_4V1_016SupplicantStatusEEEE",
   "parameters" :
   [
    {
     "is_this_ptr" : true,
     "referenced_type" : "_ZTIPN7android8hardware4wifi10supplicant4V1_122BpHwSupplicantStaIfaceE"
    },
    {
     "referenced_type" : "_ZTIRKN7android8hardware10hidl_arrayIhLj6EJEEE"
    },
    {
     "referenced_type" : "_ZTINSt3__18functionIFvRKN7android8hardware4wifi10supplicant4V1_016SupplicantStatusEEEE"
    }
   ],
   "return_type" : "_ZTIN7android8hardware6ReturnIvEE",
   "source_file" : "/out/soong/.intermediates/hardware/interfaces/wifi/supplicant/1.1/android.hardware.wifi.supplicant@1.1_genc++_headers/gen/android/hardware/wifi/supplicant/1.1/BpHwSupplicantStaIface.h"
  },
  {
   "function_name" : "android::hardware::wifi::supplicant::V1_1::BpHwSupplicantStaIface::getDebugInfo",
   "linker_set_key" : "_ZN7android8hardware4wifi10supplicant4V1_122BpHwSupplicantStaIface12getDebugInfoENSt3__18functionIFvRKNS_4hidl4base4V1_09DebugInfoEEEE",
   "parameters" :
   [
    {
     "is_this_ptr" : true,
     "referenced_type" : "_ZTIPN7android8hardware4wifi10supplicant4V1_122BpHwSupplicantStaIfaceE"
    },
    {
     "referenced_type" : "_ZTINSt3__18functionIFvRKN7android4hidl4base4V1_09DebugInfoEEEE"
    }
   ],
   "return_type" : "_ZTIN7android8hardware6ReturnIvEE",
   "source_file" : "/out/soong/.intermediates/hardware/interfaces/wifi/supplicant/1.1/android.hardware.wifi.supplicant@1.1_genc++_headers/gen/android/hardware/wifi/supplicant/1.1/BpHwSupplicantStaIface.h"
  },
  {
   "function_name" : "android::hardware::wifi::supplicant::V1_1::BpHwSupplicantStaIface::getHashChain",
   "linker_set_key" : "_ZN7android8hardware4wifi10supplicant4V1_122BpHwSupplicantStaIface12getHashChainENSt3__18functionIFvRKNS0_8hidl_vecINS0_10hidl_arrayIhLj32EJEEEEEEEE",
   "parameters" :
   [
    {
     "is_this_ptr" : true,
     "referenced_type" : "_ZTIPN7android8hardware4wifi10supplicant4V1_122BpHwSupplicantStaIfaceE"
    },
    {
     "referenced_type" : "_ZTINSt3__18functionIFvRKN7android8hardware8hidl_vecINS2_10hidl_arrayIhLj32EJEEEEEEEE"
    }
   ],
   "return_type" : "_ZTIN7android8hardware6ReturnIvEE",
   "source_file" : "/out/soong/.intermediates/hardware/interfaces/wifi/supplicant/1.1/android.hardware.wifi.supplicant@1.1_genc++_headers/gen/android/hardware/wifi/supplicant/1.1/BpHwSupplicantStaIface.h"
  },
  {
   "function_name" : "android::hardware::wifi::supplicant::V1_1::BpHwSupplicantStaIface::listNetworks",
   "linker_set_key" : "_ZN7android8hardware4wifi10supplicant4V1_122BpHwSupplicantStaIface12listNetworksENSt3__18functionIFvRKNS2_4V1_016SupplicantStatusERKNS0_8hidl_vecIjEEEEE",
   "parameters" :
   [
    {
     "is_this_ptr" : true,
     "referenced_type" : "_ZTIPN7android8hardware4wifi10supplicant4V1_122BpHwSupplicantStaIfaceE"
    },
    {
     "referenced_type" : "_ZTINSt3__18functionIFvRKN7android8hardware4wifi10supplicant4V1_016SupplicantStatusERKNS2_8hidl_vecIjEEEEE"
    }
   ],
   "return_type" : "_ZTIN7android8hardware6ReturnIvEE",
   "source_file" : "/out/soong/.intermediates/hardware/interfaces/wifi/supplicant/1.1/android.hardware.wifi.supplicant@1.1_genc++_headers/gen/android/hardware/wifi/supplicant/1.1/BpHwSupplicantStaIface.h"
  },
  {
   "function_name" : "android::hardware::wifi::supplicant::V1_1::BpHwSupplicantStaIface::setPowerSave",
   "linker_set_key" : "_ZN7android8hardware4wifi10supplicant4V1_122BpHwSupplicantStaIface12setPowerSaveEbNSt3__18functionIFvRKNS2_4V1_016SupplicantStatusEEEE",
   "parameters" :
   [
    {
     "is_this_ptr" : true,
     "referenced_type" : "_ZTIPN7android8hardware4wifi10supplicant4V1_122BpHwSupplicantStaIfaceE"
    },
    {
     "referenced_type" : "_ZTIb"
    },
    {
     "referenced_type" : "_ZTINSt3__18functionIFvRKN7android8hardware4wifi10supplicant4V1_016SupplicantStatusEEEE"
    }
   ],
   "return_type" : "_ZTIN7android8hardware6ReturnIvEE",
   "source_file" : "/out/soong/.intermediates/hardware/interfaces/wifi/supplicant/1.1/android.hardware.wifi.supplicant@1.1_genc++_headers/gen/android/hardware/wifi/supplicant/1.1/BpHwSupplicantStaIface.h"
  },
  {
   "function_name" : "android::hardware::wifi::supplicant::V1_1::BpHwSupplicantStaIface::stopRxFilter",
   "linker_set_key" : "_ZN7android8hardware4wifi10supplicant4V1_122BpHwSupplicantStaIface12stopRxFilterENSt3__18functionIFvRKNS2_4V1_016SupplicantStatusEEEE",
   "parameters" :
   [
    {
     "is_this_ptr" : true,
     "referenced_type" : "_ZTIPN7android8hardware4wifi10supplicant4V1_122BpHwSupplicantStaIfaceE"
    },
    {
     "referenced_type" : "_ZTINSt3__18functionIFvRKN7android8hardware4wifi10supplicant4V1_016SupplicantStatusEEEE"
    }
   ],
   "return_type" : "_ZTIN7android8hardware6ReturnIvEE",
   "source_file" : "/out/soong/.intermediates/hardware/interfaces/wifi/supplicant/1.1/android.hardware.wifi.supplicant@1.1_genc++_headers/gen/android/hardware/wifi/supplicant/1.1/BpHwSupplicantStaIface.h"
  },
  {
   "function_name" : "android::hardware::wifi::supplicant::V1_1::BpHwSupplicantStaIface::getMacAddress",
   "linker_set_key" : "_ZN7android8hardware4wifi10supplicant4V1_122BpHwSupplicantStaIface13getMacAddressENSt3__18functionIFvRKNS2_4V1_016SupplicantStatusERKNS0_10hidl_arrayIhLj6EJEEEEEE",
   "parameters" :
   [
    {
     "is_this_ptr" : true,
     "referenced_type" : "_ZTIPN7android8hardware4wifi10supplicant4V1_122BpHwSupplicantStaIfaceE"
    },
    {
     "referenced_type" : "_ZTINSt3__18functionIFvRKN7android8hardware4wifi10supplicant4V1_016SupplicantStatusERKNS2_10hidl_arrayIhLj6EJEEEEEE"
    }
   ],
   "return_type" : "_ZTIN7android8hardware6ReturnIvEE",
   "source_file" : "/out/soong/.intermediates/hardware/interfaces/wifi/supplicant/1.1/android.hardware.wifi.supplicant@1.1_genc++_headers/gen/android/hardware/wifi/supplicant/1.1/BpHwSupplicantStaIface.h"
  },
  {
   "function_name" : "android::hardware::wifi::supplicant::V1_1::BpHwSupplicantStaIface::removeNetwork",
   "linker_set_key" : "_ZN7android8hardware4wifi10supplicant4V1_122BpHwSupplicantStaIface13removeNetworkEjNSt3__18functionIFvRKNS2_4V1_016SupplicantStatusEEEE",
   "parameters" :
   [
    {
     "is_this_ptr" : true,
     "referenced_type" : "_ZTIPN7android8hardware4wifi10supplicant4V1_122BpHwSupplicantStaIfaceE"
    },
    {
     "referenced_type" : "_ZTIj"
    },
    {
     "referenced_type" : "_ZTINSt3__18functionIFvRKN7android8hardware4wifi10supplicant4V1_016SupplicantStatusEEEE"
    }
   ],
   "return_type" : "_ZTIN7android8hardware6ReturnIvEE",
   "source_file" : "/out/soong/.intermediates/hardware/interfaces/wifi/supplicant/1.1/android.hardware.wifi.supplicant@1.1_genc++_headers/gen/android/hardware/wifi/supplicant/1.1/BpHwSupplicantStaIface.h"
  },
  {
   "function_name" : "android::hardware::wifi::supplicant::V1_1::BpHwSupplicantStaIface::startRxFilter",
   "linker_set_key" : "_ZN7android8hardware4wifi10supplicant4V1_122BpHwSupplicantStaIface13startRxFilterENSt3__18functionIFvRKNS2_4V1_016SupplicantStatusEEEE",
   "parameters" :
   [
    {
     "is_this_ptr" : true,
     "referenced_type" : "_ZTIPN7android8hardware4wifi10supplicant4V1_122BpHwSupplicantStaIfaceE"
    },
    {
     "referenced_type" : "_ZTINSt3__18functionIFvRKN7android8hardware4wifi10supplicant4V1_016SupplicantStatusEEEE"
    }
   ],
   "return_type" : "_ZTIN7android8hardware6ReturnIvEE",
   "source_file" : "/out/soong/.intermediates/hardware/interfaces/wifi/supplicant/1.1/android.hardware.wifi.supplicant@1.1_genc++_headers/gen/android/hardware/wifi/supplicant/1.1/BpHwSupplicantStaIface.h"
  },
  {
   "function_name" : "android::hardware::wifi::supplicant::V1_1::BpHwSupplicantStaIface::unlinkToDeath",
   "linker_set_key" : "_ZN7android8hardware4wifi10supplicant4V1_122BpHwSupplicantStaIface13unlinkToDeathERKNS_2spINS0_20hidl_death_recipientEEE",
   "parameters" :
   [
    {
     "is_this_ptr" : true,
     "referenced_type" : "_ZTIPN7android8hardware4wifi10supplicant4V1_122BpHwSupplicantStaIfaceE"
    },
    {
     "referenced_type" : "_ZTIRKN7android2spINS_8hardware20hidl_death_recipientEEE"
    }
   ],
   "return_type" : "_ZTIN7android8hardware6ReturnIbEE",
   "source_file" : "/out/soong/.intermediates/hardware/interfaces/wifi/supplicant/1.1/android.hardware.wifi.supplicant@1.1_genc++_headers/gen/android/hardware/wifi/supplicant/1.1/BpHwSupplicantStaIface.h"
  },
  {
   "function_name" : "android::hardware::wifi::supplicant::V1_1::BpHwSupplicantStaIface::interfaceChain",
   "linker_set_key" : "_ZN7android8hardware4wifi10supplicant4V1_122BpHwSupplicantStaIface14interfaceChainENSt3__18functionIFvRKNS0_8hidl_vecINS0_11hidl_stringEEEEEE",
   "parameters" :
   [
    {
     "is_this_ptr" : true,
     "referenced_type" : "_ZTIPN7android8hardware4wifi10supplicant4V1_122BpHwSupplicantStaIfaceE"
    },
    {
     "referenced_type" : "_ZTINSt3__18functionIFvRKN7android8hardware8hidl_vecINS2_11hidl_stringEEEEEE"
    }
   ],
   "return_type" : "_ZTIN7android8hardware6ReturnIvEE",
   "source_file" : "/out/soong/.intermediates/hardware/interfaces/wifi/supplicant/1.1/android.hardware.wifi.supplicant@1.1_genc++_headers/gen/android/hardware/wifi/supplicant/1.1/BpHwSupplicantStaIface.h"
  },
  {
   "function_name" : "android::hardware::wifi::supplicant::V1_1::BpHwSupplicantStaIface::removeRxFilter",
   "linker_set_key" : "_ZN7android8hardware4wifi10supplicant4V1_122BpHwSupplicantStaIface14removeRxFilterENS2_4V1_019ISupplicantStaIface12RxFilterTypeENSt3__18functionIFvRKNS5_16SupplicantStatusEEEE",
   "parameters" :
   [
    {
     "is_this_ptr" : true,
     "referenced_type" : "_ZTIPN7android8hardware4wifi10supplicant4V1_122BpHwSupplicantStaIfaceE"
    },
    {
     "referenced_type" : "_ZTIN7android8hardware4wifi10supplicant4V1_019ISupplicantStaIface12RxFilterTypeE"
    },
    {
     "referenced_type" : "_ZTINSt3__18functionIFvRKN7android8hardware4wifi10supplicant4V1_016SupplicantStatusEEEE"
    }
   ],
   "return_type" : "_ZTIN7android8hardware6ReturnIvEE",
   "source_file" : "/out/soong/.intermediates/hardware/interfaces/wifi/supplicant/1.1/android.hardware.wifi.supplicant@1.1_genc++_headers/gen/android/hardware/wifi/supplicant/1.1/BpHwSupplicantStaIface.h"
  },
  {
   "function_name" : "android::hardware::wifi::supplicant::V1_1::BpHwSupplicantStaIface::setCountryCode",
   "linker_set_key" : "_ZN7android8hardware4wifi10supplicant4V1_122BpHwSupplicantStaIface14setCountryCodeERKNS0_10hidl_arrayIaLj2EJEEENSt3__18functionIFvRKNS2_4V1_016SupplicantStatusEEEE",
   "parameters" :
   [
    {
     "is_this_ptr" : true,
     "referenced_type" : "_ZTIPN7android8hardware4wifi10supplicant4V1_122BpHwSupplicantStaIfaceE"
    },
    {
     "referenced_type" : "_ZTIRKN7android8hardware10hidl_arrayIaLj2EJEEE"
    },
    {
     "referenced_type" : "_ZTINSt3__18functionIFvRKN7android8hardware4wifi10supplicant4V1_016SupplicantStatusEEEE"
    }
   ],
   "return_type" : "_ZTIN7android8hardware6ReturnIvEE",
   "source_file" : "/out/soong/.intermediates/hardware/interfaces/wifi/supplicant/1.1/android.hardware.wifi.supplicant@1.1_genc++_headers/gen/android/hardware/wifi/supplicant/1.1/BpHwSupplicantStaIface.h"
  },
  {
   "function_name" : "android::hardware::wifi::supplicant::V1_1::BpHwSupplicantStaIface::setExternalSim",
   "linker_set_key" : "_ZN7android8hardware4wifi10supplicant4V1_122BpHwSupplicantStaIface14setExternalSimEbNSt3__18functionIFvRKNS2_4V1_016SupplicantStatusEEEE",
   "parameters" :
   [
    {
     "is_this_ptr" : true,
     "referenced_type" : "_ZTIPN7android8hardware4wifi10supplicant4V1_122BpHwSupplicantStaIfaceE"
    },
    {
     "referenced_type" : "_ZTIb"
    },
    {
     "referenced_type" : "_ZTINSt3__18functionIFvRKN7android8hardware4wifi10supplicant4V1_016SupplicantStatusEEEE"
    }
   ],
   "return_type" : "_ZTIN7android8hardware6ReturnIvEE",
   "source_file" : "/out/soong/.intermediates/hardware/interfaces/wifi/supplicant/1.1/android.hardware.wifi.supplicant@1.1_genc++_headers/gen/android/hardware/wifi/supplicant/1.1/BpHwSupplicantStaIface.h"
  },
  {
   "function_name" : "android::hardware::wifi::supplicant::V1_1::BpHwSupplicantStaIface::addExtRadioWork",
   "linker_set_key" : "_ZN7android8hardware4wifi10supplicant4V1_122BpHwSupplicantStaIface15addExtRadioWorkERKNS0_11hidl_stringEjjNSt3__18functionIFvRKNS2_4V1_016SupplicantStatusEjEEE",
   "parameters" :
   [
    {
     "is_this_ptr" : true,
     "referenced_type" : "_ZTIPN7android8hardware4wifi10supplicant4V1_122BpHwSupplicantStaIfaceE"
    },
    {
     "referenced_type" : "_ZTIRKN7android8hardware11hidl_stringE"
    },
    {
     "referenced_type" : "_ZTIj"
    },
    {
     "referenced_type" : "_ZTIj"
    },
    {
     "referenced_type" : "_ZTINSt3__18functionIFvRKN7android8hardware4wifi10supplicant4V1_016SupplicantStatusEjEEE"
    }
   ],
   "return_type" : "_ZTIN7android8hardware6ReturnIvEE",
   "source_file" : "/out/soong/.intermediates/hardware/interfaces/wifi/supplicant/1.1/android.hardware.wifi.supplicant@1.1_genc++_headers/gen/android/hardware/wifi/supplicant/1.1/BpHwSupplicantStaIface.h"
  },
  {
   "function_name" : "android::hardware::wifi::supplicant::V1_1::BpHwSupplicantStaIface::onLastStrongRef",
   "linker_set_key" : "_ZN7android8hardware4wifi10supplicant4V1_122BpHwSupplicantStaIface15onLastStrongRefEPKv",
   "parameters" :
   [
    {
     "is_this_ptr" : true,
     "referenced_type" : "_ZTIPN7android8hardware4wifi10supplicant4V1_122BpHwSupplicantStaIfaceE"
    },
    {
     "referenced_type" : "_ZTIPKv"
    }
   ],
   "return_type" : "_ZTIv",
   "source_file" : "/out/soong/.intermediates/hardware/interfaces/wifi/supplicant/1.1/android.hardware.wifi.supplicant@1.1_genc++_headers/gen/android/hardware/wifi/supplicant/1.1/BpHwSupplicantStaIface.h"
  },
  {
   "function_name" : "android::hardware::wifi::supplicant::V1_1::BpHwSupplicantStaIface::setWpsModelName",
   "linker_set_key" : "_ZN7android8hardware4wifi10supplicant4V1_122BpHwSupplicantStaIface15setWpsModelNameERKNS0_11hidl_stringENSt3__18functionIFvRKNS2_4V1_016SupplicantStatusEEEE",
   "parameters" :
   [
    {
     "is_this_ptr" : true,
     "referenced_type" : "_ZTIPN7android8hardware4wifi10supplicant4V1_122BpHwSupplicantStaIfaceE"
    },
    {
     "referenced_type" : "_ZTIRKN7android8hardware11hidl_stringE"
    },
    {
     "referenced_type" : "_ZTINSt3__18functionIFvRKN7android8hardware4wifi10supplicant4V1_016SupplicantStatusEEEE"
    }
   ],
   "return_type" : "_ZTIN7android8hardware6ReturnIvEE",
   "source_file" : "/out/soong/.intermediates/hardware/interfaces/wifi/supplicant/1.1/android.hardware.wifi.supplicant@1.1_genc++_headers/gen/android/hardware/wifi/supplicant/1.1/BpHwSupplicantStaIface.h"
  },
  {
   "function_name" : "android::hardware::wifi::supplicant::V1_1::BpHwSupplicantStaIface::registerCallback",
   "linker_set_key" : "_ZN7android8hardware4wifi10supplicant4V1_122BpHwSupplicantStaIface16registerCallbackERKNS_2spINS2_4V1_027ISupplicantStaIfaceCallbackEEENSt3__18functionIFvRKNS6_16SupplicantStatusEEEE",
   "parameters" :
   [
    {
     "is_this_ptr" : true,
     "referenced_type" : "_ZTIPN7android8hardware4wifi10supplicant4V1_122BpHwSupplicantStaIfaceE"
    },
    {
     "referenced_type" : "_ZTIRKN7android2spINS_8hardware4wifi10supplicant4V1_027ISupplicantStaIfaceCallbackEEE"
    },
    {
     "referenced_type" : "_ZTINSt3__18functionIFvRKN7android8hardware4wifi10supplicant4V1_016SupplicantStatusEEEE"
    }
   ],
   "return_type" : "_ZTIN7android8hardware6ReturnIvEE",
   "source_file" : "/out/soong/.intermediates/hardware/interfaces/wifi/supplicant/1.1/android.hardware.wifi.supplicant@1.1_genc++_headers/gen/android/hardware/wifi/supplicant/1.1/BpHwSupplicantStaIface.h"
  },
  {
   "function_name" : "android::hardware::wifi::supplicant::V1_1::BpHwSupplicantStaIface::setWpsDeviceName",
   "linker_set_key" : "_ZN7android8hardware4wifi10supplicant4V1_122BpHwSupplicantStaIface16setWpsDeviceNameERKNS0_11hidl_stringENSt3__18functionIFvRKNS2_4V1_016SupplicantStatusEEEE",
   "parameters" :
   [
    {
     "is_this_ptr" : true,
     "referenced_type" : "_ZTIPN7android8hardware4wifi10supplicant4V1_122BpHwSupplicantStaIfaceE"
    },
    {
     "referenced_type" : "_ZTIRKN7android8hardware11hidl_stringE"
    },
    {
     "referenced_type" : "_ZTINSt3__18functionIFvRKN7android8hardware4wifi10supplicant4V1_016SupplicantStatusEEEE"
    }
   ],
   "return_type" : "_ZTIN7android8hardware6ReturnIvEE",
   "source_file" : "/out/soong/.intermediates/hardware/interfaces/wifi/supplicant/1.1/android.hardware.wifi.supplicant@1.1_genc++_headers/gen/android/hardware/wifi/supplicant/1.1/BpHwSupplicantStaIface.h"
  },
  {
   "function_name" : "android::hardware::wifi::supplicant::V1_1::BpHwSupplicantStaIface::setWpsDeviceType",
   "linker_set_key" : "_ZN7android8hardware4wifi10supplicant4V1_122BpHwSupplicantStaIface16setWpsDeviceTypeERKNS0_10hidl_arrayIhLj8EJEEENSt3__18functionIFvRKNS2_4V1_016SupplicantStatusEEEE",
   "parameters" :
   [
    {
     "is_this_ptr" : true,
     "referenced_type" : "_ZTIPN7android8hardware4wifi10supplicant4V1_122BpHwSupplicantStaIfaceE"
    },
    {
     "referenced_type" : "_ZTIRKN7android8hardware10hidl_arrayIhLj8EJEEE"
    },
    {
     "referenced_type" : "_ZTINSt3__18functionIFvRKN7android8hardware4wifi10supplicant4V1_016SupplicantStatusEEEE"
    }
   ],
   "return_type" : "_ZTIN7android8hardware6ReturnIvEE",
   "source_file" : "/out/soong/.intermediates/hardware/interfaces/wifi/supplicant/1.1/android.hardware.wifi.supplicant@1.1_genc++_headers/gen/android/hardware/wifi/supplicant/1.1/BpHwSupplicantStaIface.h"
  },
  {
   "function_name" : "android::hardware::wifi::supplicant::V1_1::BpHwSupplicantStaIface::initiateAnqpQuery",
   "linker_set_key" : "_ZN7android8hardware4wifi10supplicant4V1_122BpHwSupplicantStaIface17initiateAnqpQueryERKNS0_10hidl_arrayIhLj6EJEEERKNS0_8hidl_vecINS2_4V1_019ISupplicantStaIface10AnqpInfoIdEEERKNS9_INSB_16Hs20AnqpSubtypesEEENSt3__18functionIFvRKNSA_16SupplicantStatusEEEE",
   "parameters" :
   [
    {
     "is_this_ptr" : true,
     "referenced_type" : "_ZTIPN7android8hardware4wifi10supplicant4V1_122BpHwSupplicantStaIfaceE"
    },
    {
     "referenced_type" : "_ZTIRKN7android8hardware10hidl_arrayIhLj6EJEEE"
    },
    {
     "referenced_type" : "_ZTIRKN7android8hardware8hidl_vecINS0_4wifi10supplicant4V1_019ISupplicantStaIface10AnqpInfoIdEEE"
    },
    {
     "referenced_type" : "_ZTIRKN7android8hardware8hidl_vecINS0_4wifi10supplicant4V1_019ISupplicantStaIface16Hs20AnqpSubtypesEEE"
    },
    {
     "referenced_type" : "_ZTINSt3__18functionIFvRKN7android8hardware4wifi10supplicant4V1_016SupplicantStatusEEEE"
    }
   ],
   "return_type" : "_ZTIN7android8hardware6ReturnIvEE",
   "source_file" : "/out/soong/.intermediates/hardware/interfaces/wifi/supplicant/1.1/android.hardware.wifi.supplicant@1.1_genc++_headers/gen/android/hardware/wifi/supplicant/1.1/BpHwSupplicantStaIface.h"
  },
  {
   "function_name" : "android::hardware::wifi::supplicant::V1_1::BpHwSupplicantStaIface::initiateTdlsSetup",
   "linker_set_key" : "_ZN7android8hardware4wifi10supplicant4V1_122BpHwSupplicantStaIface17initiateTdlsSetupERKNS0_10hidl_arrayIhLj6EJEEENSt3__18functionIFvRKNS2_4V1_016SupplicantStatusEEEE",
   "parameters" :
   [
    {
     "is_this_ptr" : true,
     "referenced_type" : "_ZTIPN7android8hardware4wifi10supplicant4V1_122BpHwSupplicantStaIfaceE"
    },
    {
     "referenced_type" : "_ZTIRKN7android8hardware10hidl_arrayIhLj6EJEEE"
    },
    {
     "referenced_type" : "_ZTINSt3__18functionIFvRKN7android8hardware4wifi10supplicant4V1_016SupplicantStatusEEEE"
    }
   ],
   "return_type" : "_ZTIN7android8hardware6ReturnIvEE",
   "source_file" : "/out/soong/.intermediates/hardware/interfaces/wifi/supplicant/1.1/android.hardware.wifi.supplicant@1.1_genc++_headers/gen/android/hardware/wifi/supplicant/1.1/BpHwSupplicantStaIface.h"
  },
  {
   "function_name" : "android::hardware::wifi::supplicant::V1_1::BpHwSupplicantStaIface::setWpsModelNumber",
   "linker_set_key" : "_ZN7android8hardware4wifi10supplicant4V1_122BpHwSupplicantStaIface17setWpsModelNumberERKNS0_11hidl_stringENSt3__18functionIFvRKNS2_4V1_016SupplicantStatusEEEE",
   "parameters" :
   [
    {
     "is_this_ptr" : true,
     "referenced_type" : "_ZTIPN7android8hardware4wifi10supplicant4V1_122BpHwSupplicantStaIfaceE"
    },
    {
     "referenced_type" : "_ZTIRKN7android8hardware11hidl_stringE"
    },
    {
     "referenced_type" : "_ZTINSt3__18functionIFvRKN7android8hardware4wifi10supplicant4V1_016SupplicantStatusEEEE"
    }
   ],
   "return_type" : "_ZTIN7android8hardware6ReturnIvEE",
   "source_file" : "/out/soong/.intermediates/hardware/interfaces/wifi/supplicant/1.1/android.hardware.wifi.supplicant@1.1_genc++_headers/gen/android/hardware/wifi/supplicant/1.1/BpHwSupplicantStaIface.h"
  },
  {
   "function_name" : "android::hardware::wifi::supplicant::V1_1::BpHwSupplicantStaIface::startWpsPinKeypad",
   "linker_set_key" : "_ZN7android8hardware4wifi10supplicant4V1_122BpHwSupplicantStaIface17startWpsPinKeypadERKNS0_11hidl_stringENSt3__18functionIFvRKNS2_4V1_016SupplicantStatusEEEE",
   "parameters" :
   [
    {
     "is_this_ptr" : true,
     "referenced_type" : "_ZTIPN7android8hardware4wifi10supplicant4V1_122BpHwSupplicantStaIfaceE"
    },
    {
     "referenced_type" : "_ZTIRKN7android8hardware11hidl_stringE"
    },
    {
     "referenced_type" : "_ZTINSt3__18functionIFvRKN7android8hardware4wifi10supplicant4V1_016SupplicantStatusEEEE"
    }
   ],
   "return_type" : "_ZTIN7android8hardware6ReturnIvEE",
   "source_file" : "/out/soong/.intermediates/hardware/interfaces/wifi/supplicant/1.1/android.hardware.wifi.supplicant@1.1_genc++_headers/gen/android/hardware/wifi/supplicant/1.1/BpHwSupplicantStaIface.h"
  },
  {
   "function_name" : "android::hardware::wifi::supplicant::V1_1::BpHwSupplicantStaIface::startWpsRegistrar",
   "linker_set_key" : "_ZN7android8hardware4wifi10supplicant4V1_122BpHwSupplicantStaIface17startWpsRegistrarERKNS0_10hidl_arrayIhLj6EJEEERKNS0_11hidl_stringENSt3__18functionIFvRKNS2_4V1_016SupplicantStatusEEEE",
   "parameters" :
   [
    {
     "is_this_ptr" : true,
     "referenced_type" : "_ZTIPN7android8hardware4wifi10supplicant4V1_122BpHwSupplicantStaIfaceE"
    },
    {
     "referenced_type" : "_ZTIRKN7android8hardware10hidl_arrayIhLj6EJEEE"
    },
    {
     "referenced_type" : "_ZTIRKN7android8hardware11hidl_stringE"
    },
    {
     "referenced_type" : "_ZTINSt3__18functionIFvRKN7android8hardware4wifi10supplicant4V1_016SupplicantStatusEEEE"
    }
   ],
   "return_type" : "_ZTIN7android8hardware6ReturnIvEE",
   "source_file" : "/out/soong/.intermediates/hardware/interfaces/wifi/supplicant/1.1/android.hardware.wifi.supplicant@1.1_genc++_headers/gen/android/hardware/wifi/supplicant/1.1/BpHwSupplicantStaIface.h"
  },
  {
   "function_name" : "android::hardware::wifi::supplicant::V1_1::BpHwSupplicantStaIface::removeExtRadioWork",
   "linker_set_key" : "_ZN7android8hardware4wifi10supplicant4V1_122BpHwSupplicantStaIface18removeExtRadioWorkEjNSt3__18functionIFvRKNS2_4V1_016SupplicantStatusEEEE",
   "parameters" :
   [
    {
     "is_this_ptr" : true,
     "referenced_type" : "_ZTIPN7android8hardware4wifi10supplicant4V1_122BpHwSupplicantStaIfaceE"
    },
    {
     "referenced_type" : "_ZTIj"
    },
    {
     "referenced_type" : "_ZTINSt3__18functionIFvRKN7android8hardware4wifi10supplicant4V1_016SupplicantStatusEEEE"
    }
   ],
   "return_type" : "_ZTIN7android8hardware6ReturnIvEE",
   "source_file" : "/out/soong/.intermediates/hardware/interfaces/wifi/supplicant/1.1/android.hardware.wifi.supplicant@1.1_genc++_headers/gen/android/hardware/wifi/supplicant/1.1/BpHwSupplicantStaIface.h"
  },
  {
   "function_name" : "android::hardware::wifi::supplicant::V1_1::BpHwSupplicantStaIface::setWpsManufacturer",
   "linker_set_key" : "_ZN7android8hardware4wifi10supplicant4V1_122BpHwSupplicantStaIface18setWpsManufacturerERKNS0_11hidl_stringENSt3__18functionIFvRKNS2_4V1_016SupplicantStatusEEEE",
   "parameters" :
   [
    {
     "is_this_ptr" : true,
     "referenced_type" : "_ZTIPN7android8hardware4wifi10supplicant4V1_122BpHwSupplicantStaIfaceE"
    },
    {
     "referenced_type" : "_ZTIRKN7android8hardware11hidl_stringE"
    },
    {
     "referenced_type" : "_ZTINSt3__18functionIFvRKN7android8hardware4wifi10supplicant4V1_016SupplicantStatusEEEE"
    }
   ],
   "return_type" : "_ZTIN7android8hardware6ReturnIvEE",
   "source_file" : "/out/soong/.intermediates/hardware/interfaces/wifi/supplicant/1.1/android.hardware.wifi.supplicant@1.1_genc++_headers/gen/android/hardware/wifi/supplicant/1.1/BpHwSupplicantStaIface.h"
  },
  {
   "function_name" : "android::hardware::wifi::supplicant::V1_1::BpHwSupplicantStaIface::setWpsSerialNumber",
   "linker_set_key" : "_ZN7android8hardware4wifi10supplicant4V1_122BpHwSupplicantStaIface18setWpsSerialNumberERKNS0_11hidl_stringENSt3__18functionIFvRKNS2_4V1_016SupplicantStatusEEEE",
   "parameters" :
   [
    {
     "is_this_ptr" : true,
     "referenced_type" : "_ZTIPN7android8hardware4wifi10supplicant4V1_122BpHwSupplicantStaIfaceE"
    },
    {
     "referenced_type" : "_ZTIRKN7android8hardware11hidl_stringE"
    },
    {
     "referenced_type" : "_ZTINSt3__18functionIFvRKN7android8hardware4wifi10supplicant4V1_016SupplicantStatusEEEE"
    }
   ],
   "return_type" : "_ZTIN7android8hardware6ReturnIvEE",
   "source_file" : "/out/soong/.intermediates/hardware/interfaces/wifi/supplicant/1.1/android.hardware.wifi.supplicant@1.1_genc++_headers/gen/android/hardware/wifi/supplicant/1.1/BpHwSupplicantStaIface.h"
  },
  {
   "function_name" : "android::hardware::wifi::supplicant::V1_1::BpHwSupplicantStaIface::startWpsPinDisplay",
   "linker_set_key" : "_ZN7android8hardware4wifi10supplicant4V1_122BpHwSupplicantStaIface18startWpsPinDisplayERKNS0_10hidl_arrayIhLj6EJEEENSt3__18functionIFvRKNS2_4V1_016SupplicantStatusERKNS0_11hidl_stringEEEE",
   "parameters" :
   [
    {
     "is_this_ptr" : true,
     "referenced_type" : "_ZTIPN7android8hardware4wifi10supplicant4V1_122BpHwSupplicantStaIfaceE"
    },
    {
     "referenced_type" : "_ZTIRKN7android8hardware10hidl_arrayIhLj6EJEEE"
    },
    {
     "referenced_type" : "_ZTINSt3__18functionIFvRKN7android8hardware4wifi10supplicant4V1_016SupplicantStatusERKNS2_11hidl_stringEEEE"
    }
   ],
   "return_type" : "_ZTIN7android8hardware6ReturnIvEE",
   "source_file" : "/out/soong/.intermediates/hardware/interfaces/wifi/supplicant/1.1/android.hardware.wifi.supplicant@1.1_genc++_headers/gen/android/hardware/wifi/supplicant/1.1/BpHwSupplicantStaIface.h"
  },
  {
   "function_name" : "android::hardware::wifi::supplicant::V1_1::BpHwSupplicantStaIface::enableAutoReconnect",
   "linker_set_key" : "_ZN7android8hardware4wifi10supplicant4V1_122BpHwSupplicantStaIface19enableAutoReconnectEbNSt3__18functionIFvRKNS2_4V1_016SupplicantStatusEEEE",
   "parameters" :
   [
    {
     "is_this_ptr" : true,
     "referenced_type" : "_ZTIPN7android8hardware4wifi10supplicant4V1_122BpHwSupplicantStaIfaceE"
    },
    {
     "referenced_type" : "_ZTIb"
    },
    {
     "referenced_type" : "_ZTINSt3__18functionIFvRKN7android8hardware4wifi10supplicant4V1_016SupplicantStatusEEEE"
    }
   ],
   "return_type" : "_ZTIN7android8hardware6ReturnIvEE",
   "source_file" : "/out/soong/.intermediates/hardware/interfaces/wifi/supplicant/1.1/android.hardware.wifi.supplicant@1.1_genc++_headers/gen/android/hardware/wifi/supplicant/1.1/BpHwSupplicantStaIface.h"
  },
  {
   "function_name" : "android::hardware::wifi::supplicant::V1_1::BpHwSupplicantStaIface::interfaceDescriptor",
   "linker_set_key" : "_ZN7android8hardware4wifi10supplicant4V1_122BpHwSupplicantStaIface19interfaceDescriptorENSt3__18functionIFvRKNS0_11hidl_stringEEEE",
   "parameters" :
   [
    {
     "is_this_ptr" : true,
     "referenced_type" : "_ZTIPN7android8hardware4wifi10supplicant4V1_122BpHwSupplicantStaIfaceE"
    },
    {
     "referenced_type" : "_ZTINSt3__18functionIFvRKN7android8hardware11hidl_stringEEEE"
    }
   ],
   "return_type" : "_ZTIN7android8hardware6ReturnIvEE",
   "source_file" : "/out/soong/.intermediates/hardware/interfaces/wifi/supplicant/1.1/android.hardware.wifi.supplicant@1.1_genc++_headers/gen/android/hardware/wifi/supplicant/1.1/BpHwSupplicantStaIface.h"
  },
  {
   "function_name" : "android::hardware::wifi::supplicant::V1_1::BpHwSupplicantStaIface::setWpsConfigMethods",
   "linker_set_key" : "_ZN7android8hardware4wifi10supplicant4V1_122BpHwSupplicantStaIface19setWpsConfigMethodsEtNSt3__18functionIFvRKNS2_4V1_016SupplicantStatusEEEE",
   "parameters" :
   [
    {
     "is_this_ptr" : true,
     "referenced_type" : "_ZTIPN7android8hardware4wifi10supplicant4V1_122BpHwSupplicantStaIfaceE"
    },
    {
     "referenced_type" : "_ZTIt"
    },
    {
     "referenced_type" : "_ZTINSt3__18functionIFvRKN7android8hardware4wifi10supplicant4V1_016SupplicantStatusEEEE"
    }
   ],
   "return_type" : "_ZTIN7android8hardware6ReturnIvEE",
   "source_file" : "/out/soong/.intermediates/hardware/interfaces/wifi/supplicant/1.1/android.hardware.wifi.supplicant@1.1_genc++_headers/gen/android/hardware/wifi/supplicant/1.1/BpHwSupplicantStaIface.h"
  },
  {
   "function_name" : "android::hardware::wifi::supplicant::V1_1::BpHwSupplicantStaIface::initiateTdlsDiscover",
   "linker_set_key" : "_ZN7android8hardware4wifi10supplicant4V1_122BpHwSupplicantStaIface20initiateTdlsDiscoverERKNS0_10hidl_arrayIhLj6EJEEENSt3__18functionIFvRKNS2_4V1_016SupplicantStatusEEEE",
   "parameters" :
   [
    {
     "is_this_ptr" : true,
     "referenced_type" : "_ZTIPN7android8hardware4wifi10supplicant4V1_122BpHwSupplicantStaIfaceE"
    },
    {
     "referenced_type" : "_ZTIRKN7android8hardware10hidl_arrayIhLj6EJEEE"
    },
    {
     "referenced_type" : "_ZTINSt3__18functionIFvRKN7android8hardware4wifi10supplicant4V1_016SupplicantStatusEEEE"
    }
   ],
   "return_type" : "_ZTIN7android8hardware6ReturnIvEE",
   "source_file" : "/out/soong/.intermediates/hardware/interfaces/wifi/supplicant/1.1/android.hardware.wifi.supplicant@1.1_genc++_headers/gen/android/hardware/wifi/supplicant/1.1/BpHwSupplicantStaIface.h"
  },
  {
   "function_name" : "android::hardware::wifi::supplicant::V1_1::BpHwSupplicantStaIface::initiateTdlsTeardown",
   "linker_set_key" : "_ZN7android8hardware4wifi10supplicant4V1_122BpHwSupplicantStaIface20initiateTdlsTeardownERKNS0_10hidl_arrayIhLj6EJEEENSt3__18functionIFvRKNS2_4V1_016SupplicantStatusEEEE",
   "parameters" :
   [
    {
     "is_this_ptr" : true,
     "referenced_type" : "_ZTIPN7android8hardware4wifi10supplicant4V1_122BpHwSupplicantStaIfaceE"
    },
    {
     "referenced_type" : "_ZTIRKN7android8hardware10hidl_arrayIhLj6EJEEE"
    },
    {
     "referenced_type" : "_ZTINSt3__18functionIFvRKN7android8hardware4wifi10supplicant4V1_016SupplicantStatusEEEE"
    }
   ],
   "return_type" : "_ZTIN7android8hardware6ReturnIvEE",
   "source_file" : "/out/soong/.intermediates/hardware/interfaces/wifi/supplicant/1.1/android.hardware.wifi.supplicant@1.1_genc++_headers/gen/android/hardware/wifi/supplicant/1.1/BpHwSupplicantStaIface.h"
  },
  {
   "function_name" : "android::hardware::wifi::supplicant::V1_1::BpHwSupplicantStaIface::registerCallback_1_1",
   "linker_set_key" : "_ZN7android8hardware4wifi10supplicant4V1_122BpHwSupplicantStaIface20registerCallback_1_1ERKNS_2spINS3_27ISupplicantStaIfaceCallbackEEENSt3__18functionIFvRKNS2_4V1_016SupplicantStatusEEEE",
   "parameters" :
   [
    {
     "is_this_ptr" : true,
     "referenced_type" : "_ZTIPN7android8hardware4wifi10supplicant4V1_122BpHwSupplicantStaIfaceE"
    },
    {
     "referenced_type" : "_ZTIRKN7android2spINS_8hardware4wifi10supplicant4V1_127ISupplicantStaIfaceCallbackEEE"
    },
    {
     "referenced_type" : "_ZTINSt3__18functionIFvRKN7android8hardware4wifi10supplicant4V1_016SupplicantStatusEEEE"
    }
   ],
   "return_type" : "_ZTIN7android8hardware6ReturnIvEE",
   "source_file" : "/out/soong/.intermediates/hardware/interfaces/wifi/supplicant/1.1/android.hardware.wifi.supplicant@1.1_genc++_headers/gen/android/hardware/wifi/supplicant/1.1/BpHwSupplicantStaIface.h"
  },
  {
   "function_name" : "android::hardware::wifi::supplicant::V1_1::BpHwSupplicantStaIface::setBtCoexistenceMode",
   "linker_set_key" : "_ZN7android8hardware4wifi10supplicant4V1_122BpHwSupplicantStaIface20setBtCoexistenceModeENS2_4V1_019ISupplicantStaIface17BtCoexistenceModeENSt3__18functionIFvRKNS5_16SupplicantStatusEEEE",
   "parameters" :
   [
    {
     "is_this_ptr" : true,
     "referenced_type" : "_ZTIPN7android8hardware4wifi10supplicant4V1_122BpHwSupplicantStaIfaceE"
    },
    {
     "referenced_type" : "_ZTIN7android8hardware4wifi10supplicant4V1_019ISupplicantStaIface17BtCoexistenceModeE"
    },
    {
     "referenced_type" : "_ZTINSt3__18functionIFvRKN7android8hardware4wifi10supplicant4V1_016SupplicantStatusEEEE"
    }
   ],
   "return_type" : "_ZTIN7android8hardware6ReturnIvEE",
   "source_file" : "/out/soong/.intermediates/hardware/interfaces/wifi/supplicant/1.1/android.hardware.wifi.supplicant@1.1_genc++_headers/gen/android/hardware/wifi/supplicant/1.1/BpHwSupplicantStaIface.h"
  },
  {
   "function_name" : "android::hardware::wifi::supplicant::V1_1::BpHwSupplicantStaIface::initiateHs20IconQuery",
   "linker_set_key" : "_ZN7android8hardware4wifi10supplicant4V1_122BpHwSupplicantStaIface21initiateHs20IconQueryERKNS0_10hidl_arrayIhLj6EJEEERKNS0_11hidl_stringENSt3__18functionIFvRKNS2_4V1_016SupplicantStatusEEEE",
   "parameters" :
   [
    {
     "is_this_ptr" : true,
     "referenced_type" : "_ZTIPN7android8hardware4wifi10supplicant4V1_122BpHwSupplicantStaIfaceE"
    },
    {
     "referenced_type" : "_ZTIRKN7android8hardware10hidl_arrayIhLj6EJEEE"
    },
    {
     "referenced_type" : "_ZTIRKN7android8hardware11hidl_stringE"
    },
    {
     "referenced_type" : "_ZTINSt3__18functionIFvRKN7android8hardware4wifi10supplicant4V1_016SupplicantStatusEEEE"
    }
   ],
   "return_type" : "_ZTIN7android8hardware6ReturnIvEE",
   "source_file" : "/out/soong/.intermediates/hardware/interfaces/wifi/supplicant/1.1/android.hardware.wifi.supplicant@1.1_genc++_headers/gen/android/hardware/wifi/supplicant/1.1/BpHwSupplicantStaIface.h"
  },
  {
   "function_name" : "android::hardware::wifi::supplicant::V1_1::BpHwSupplicantStaIface::notifySyspropsChanged",
   "linker_set_key" : "_ZN7android8hardware4wifi10supplicant4V1_122BpHwSupplicantStaIface21notifySyspropsChangedEv",
   "parameters" :
   [
    {
     "is_this_ptr" : true,
     "referenced_type" : "_ZTIPN7android8hardware4wifi10supplicant4V1_122BpHwSupplicantStaIfaceE"
    }
   ],
   "return_type" : "_ZTIN7android8hardware6ReturnIvEE",
   "source_file" : "/out/soong/.intermediates/hardware/interfaces/wifi/supplicant/1.1/android.hardware.wifi.supplicant@1.1_genc++_headers/gen/android/hardware/wifi/supplicant/1.1/BpHwSupplicantStaIface.h"
  },
  {
   "function_name" : "android::hardware::wifi::supplicant::V1_1::BpHwSupplicantStaIface::setHALInstrumentation",
   "linker_set_key" : "_ZN7android8hardware4wifi10supplicant4V1_122BpHwSupplicantStaIface21setHALInstrumentationEv",
   "parameters" :
   [
    {
     "is_this_ptr" : true,
     "referenced_type" : "_ZTIPN7android8hardware4wifi10supplicant4V1_122BpHwSupplicantStaIfaceE"
    }
   ],
   "return_type" : "_ZTIN7android8hardware6ReturnIvEE",
   "source_file" : "/out/soong/.intermediates/hardware/interfaces/wifi/supplicant/1.1/android.hardware.wifi.supplicant@1.1_genc++_headers/gen/android/hardware/wifi/supplicant/1.1/BpHwSupplicantStaIface.h"
  },
  {
   "function_name" : "android::hardware::wifi::supplicant::V1_1::BpHwSupplicantStaIface::setSuspendModeEnabled",
   "linker_set_key" : "_ZN7android8hardware4wifi10supplicant4V1_122BpHwSupplicantStaIface21setSuspendModeEnabledEbNSt3__18functionIFvRKNS2_4V1_016SupplicantStatusEEEE",
   "parameters" :
   [
    {
     "is_this_ptr" : true,
     "referenced_type" : "_ZTIPN7android8hardware4wifi10supplicant4V1_122BpHwSupplicantStaIfaceE"
    },
    {
     "referenced_type" : "_ZTIb"
    },
    {
     "referenced_type" : "_ZTINSt3__18functionIFvRKN7android8hardware4wifi10supplicant4V1_016SupplicantStatusEEEE"
    }
   ],
   "return_type" : "_ZTIN7android8hardware6ReturnIvEE",
   "source_file" : "/out/soong/.intermediates/hardware/interfaces/wifi/supplicant/1.1/android.hardware.wifi.supplicant@1.1_genc++_headers/gen/android/hardware/wifi/supplicant/1.1/BpHwSupplicantStaIface.h"
  },
  {
   "function_name" : "android::hardware::wifi::supplicant::V1_1::BpHwSupplicantStaIface::_hidl_registerCallback_1_1",
   "linker_set_key" : "_ZN7android8hardware4wifi10supplicant4V1_122BpHwSupplicantStaIface26_hidl_registerCallback_1_1EPNS0_10IInterfaceEPNS0_7details16HidlInstrumentorERKNS_2spINS3_27ISupplicantStaIfaceCallbackEEENSt3__18functionIFvRKNS2_4V1_016SupplicantStatusEEEE",
   "parameters" :
   [
    {
     "referenced_type" : "_ZTIPN7android8hardware10IInterfaceE"
    },
    {
     "referenced_type" : "_ZTIPN7android8hardware7details16HidlInstrumentorE"
    },
    {
     "referenced_type" : "_ZTIRKN7android2spINS_8hardware4wifi10supplicant4V1_127ISupplicantStaIfaceCallbackEEE"
    },
    {
     "referenced_type" : "_ZTINSt3__18functionIFvRKN7android8hardware4wifi10supplicant4V1_016SupplicantStatusEEEE"
    }
   ],
   "return_type" : "_ZTIN7android8hardware6ReturnIvEE",
   "source_file" : "/out/soong/.intermediates/hardware/interfaces/wifi/supplicant/1.1/android.hardware.wifi.supplicant@1.1_genc++_headers/gen/android/hardware/wifi/supplicant/1.1/BpHwSupplicantStaIface.h"
  },
  {
   "function_name" : "android::hardware::wifi::supplicant::V1_1::BpHwSupplicantStaIface::setBtCoexistenceScanModeEnabled",
   "linker_set_key" : "_ZN7android8hardware4wifi10supplicant4V1_122BpHwSupplicantStaIface31setBtCoexistenceScanModeEnabledEbNSt3__18functionIFvRKNS2_4V1_016SupplicantStatusEEEE",
   "parameters" :
   [
    {
     "is_this_ptr" : true,
     "referenced_type" : "_ZTIPN7android8hardware4wifi10supplicant4V1_122BpHwSupplicantStaIfaceE"
    },
    {
     "referenced_type" : "_ZTIb"
    },
    {
     "referenced_type" : "_ZTINSt3__18functionIFvRKN7android8hardware4wifi10supplicant4V1_016SupplicantStatusEEEE"
    }
   ],
   "return_type" : "_ZTIN7android8hardware6ReturnIvEE",
   "source_file" : "/out/soong/.intermediates/hardware/interfaces/wifi/supplicant/1.1/android.hardware.wifi.supplicant@1.1_genc++_headers/gen/android/hardware/wifi/supplicant/1.1/BpHwSupplicantStaIface.h"
  },
  {
   "function_name" : "android::hardware::wifi::supplicant::V1_1::BpHwSupplicantStaIface::ping",
   "linker_set_key" : "_ZN7android8hardware4wifi10supplicant4V1_122BpHwSupplicantStaIface4pingEv",
   "parameters" :
   [
    {
     "is_this_ptr" : true,
     "referenced_type" : "_ZTIPN7android8hardware4wifi10supplicant4V1_122BpHwSupplicantStaIfaceE"
    }
   ],
   "return_type" : "_ZTIN7android8hardware6ReturnIvEE",
   "source_file" : "/out/soong/.intermediates/hardware/interfaces/wifi/supplicant/1.1/android.hardware.wifi.supplicant@1.1_genc++_headers/gen/android/hardware/wifi/supplicant/1.1/BpHwSupplicantStaIface.h"
  },
  {
   "function_name" : "android::hardware::wifi::supplicant::V1_1::BpHwSupplicantStaIface::debug",
   "linker_set_key" : "_ZN7android8hardware4wifi10supplicant4V1_122BpHwSupplicantStaIface5debugERKNS0_11hidl_handleERKNS0_8hidl_vecINS0_11hidl_stringEEE",
   "parameters" :
   [
    {
     "is_this_ptr" : true,
     "referenced_type" : "_ZTIPN7android8hardware4wifi10supplicant4V1_122BpHwSupplicantStaIfaceE"
    },
    {
     "referenced_type" : "_ZTIRKN7android8hardware11hidl_handleE"
    },
    {
     "referenced_type" : "_ZTIRKN7android8hardware8hidl_vecINS0_11hidl_stringEEE"
    }
   ],
   "return_type" : "_ZTIN7android8hardware6ReturnIvEE",
   "source_file" : "/out/soong/.intermediates/hardware/interfaces/wifi/supplicant/1.1/android.hardware.wifi.supplicant@1.1_genc++_headers/gen/android/hardware/wifi/supplicant/1.1/BpHwSupplicantStaIface.h"
  },
  {
   "function_name" : "android::hardware::wifi::supplicant::V1_1::BpHwSupplicantStaIface::getName",
   "linker_set_key" : "_ZN7android8hardware4wifi10supplicant4V1_122BpHwSupplicantStaIface7getNameENSt3__18functionIFvRKNS2_4V1_016SupplicantStatusERKNS0_11hidl_stringEEEE",
   "parameters" :
   [
    {
     "is_this_ptr" : true,
     "referenced_type" : "_ZTIPN7android8hardware4wifi10supplicant4V1_122BpHwSupplicantStaIfaceE"
    },
    {
     "referenced_type" : "_ZTINSt3__18functionIFvRKN7android8hardware4wifi10supplicant4V1_016SupplicantStatusERKNS2_11hidl_stringEEEE"
    }
   ],
   "return_type" : "_ZTIN7android8hardware6ReturnIvEE",
   "source_file" : "/out/soong/.intermediates/hardware/interfaces/wifi/supplicant/1.1/android.hardware.wifi.supplicant@1.1_genc++_headers/gen/android/hardware/wifi/supplicant/1.1/BpHwSupplicantStaIface.h"
  },
  {
   "function_name" : "android::hardware::wifi::supplicant::V1_1::BpHwSupplicantStaIface::getType",
   "linker_set_key" : "_ZN7android8hardware4wifi10supplicant4V1_122BpHwSupplicantStaIface7getTypeENSt3__18functionIFvRKNS2_4V1_016SupplicantStatusENS7_9IfaceTypeEEEE",
   "parameters" :
   [
    {
     "is_this_ptr" : true,
     "referenced_type" : "_ZTIPN7android8hardware4wifi10supplicant4V1_122BpHwSupplicantStaIfaceE"
    },
    {
     "referenced_type" : "_ZTINSt3__18functionIFvRKN7android8hardware4wifi10supplicant4V1_016SupplicantStatusENS5_9IfaceTypeEEEE"
    }
   ],
   "return_type" : "_ZTIN7android8hardware6ReturnIvEE",
   "source_file" : "/out/soong/.intermediates/hardware/interfaces/wifi/supplicant/1.1/android.hardware.wifi.supplicant@1.1_genc++_headers/gen/android/hardware/wifi/supplicant/1.1/BpHwSupplicantStaIface.h"
  },
  {
   "function_name" : "android::hardware::wifi::supplicant::V1_1::BpHwSupplicantStaIface::cancelWps",
   "linker_set_key" : "_ZN7android8hardware4wifi10supplicant4V1_122BpHwSupplicantStaIface9cancelWpsENSt3__18functionIFvRKNS2_4V1_016SupplicantStatusEEEE",
   "parameters" :
   [
    {
     "is_this_ptr" : true,
     "referenced_type" : "_ZTIPN7android8hardware4wifi10supplicant4V1_122BpHwSupplicantStaIfaceE"
    },
    {
     "referenced_type" : "_ZTINSt3__18functionIFvRKN7android8hardware4wifi10supplicant4V1_016SupplicantStatusEEEE"
    }
   ],
   "return_type" : "_ZTIN7android8hardware6ReturnIvEE",
   "source_file" : "/out/soong/.intermediates/hardware/interfaces/wifi/supplicant/1.1/android.hardware.wifi.supplicant@1.1_genc++_headers/gen/android/hardware/wifi/supplicant/1.1/BpHwSupplicantStaIface.h"
  },
  {
   "function_name" : "android::hardware::wifi::supplicant::V1_1::BpHwSupplicantStaIface::reconnect",
   "linker_set_key" : "_ZN7android8hardware4wifi10supplicant4V1_122BpHwSupplicantStaIface9reconnectENSt3__18functionIFvRKNS2_4V1_016SupplicantStatusEEEE",
   "parameters" :
   [
    {
     "is_this_ptr" : true,
     "referenced_type" : "_ZTIPN7android8hardware4wifi10supplicant4V1_122BpHwSupplicantStaIfaceE"
    },
    {
     "referenced_type" : "_ZTINSt3__18functionIFvRKN7android8hardware4wifi10supplicant4V1_016SupplicantStatusEEEE"
    }
   ],
   "return_type" : "_ZTIN7android8hardware6ReturnIvEE",
   "source_file" : "/out/soong/.intermediates/hardware/interfaces/wifi/supplicant/1.1/android.hardware.wifi.supplicant@1.1_genc++_headers/gen/android/hardware/wifi/supplicant/1.1/BpHwSupplicantStaIface.h"
  },
  {
   "function_name" : "android::hardware::wifi::supplicant::V1_1::BpHwSupplicantStaIface::BpHwSupplicantStaIface",
   "linker_set_key" : "_ZN7android8hardware4wifi10supplicant4V1_122BpHwSupplicantStaIfaceC1ERKNS_2spINS0_7IBinderEEE",
   "parameters" :
   [
    {
     "is_this_ptr" : true,
     "referenced_type" : "_ZTIPN7android8hardware4wifi10supplicant4V1_122BpHwSupplicantStaIfaceE"
    },
    {
     "referenced_type" : "_ZTIRKN7android2spINS_8hardware7IBinderEEE"
    }
   ],
   "return_type" : "_ZTIv",
   "source_file" : "/out/soong/.intermediates/hardware/interfaces/wifi/supplicant/1.1/android.hardware.wifi.supplicant@1.1_genc++_headers/gen/android/hardware/wifi/supplicant/1.1/BpHwSupplicantStaIface.h"
  },
  {
   "function_name" : "android::hardware::wifi::supplicant::V1_1::BpHwSupplicantStaIface::BpHwSupplicantStaIface",
   "linker_set_key" : "_ZN7android8hardware4wifi10supplicant4V1_122BpHwSupplicantStaIfaceC2ERKNS_2spINS0_7IBinderEEE",
   "parameters" :
   [
    {
     "is_this_ptr" : true,
     "referenced_type" : "_ZTIPN7android8hardware4wifi10supplicant4V1_122BpHwSupplicantStaIfaceE"
    },
    {
     "referenced_type" : "_ZTIRKN7android2spINS_8hardware7IBinderEEE"
    }
   ],
   "return_type" : "_ZTIv",
   "source_file" : "/out/soong/.intermediates/hardware/interfaces/wifi/supplicant/1.1/android.hardware.wifi.supplicant@1.1_genc++_headers/gen/android/hardware/wifi/supplicant/1.1/BpHwSupplicantStaIface.h"
  },
  {
   "access" : "private",
   "function_name" : "android::hardware::wifi::supplicant::V1_1::BsSupplicantStaNetwork::addOnewayTask",
   "linker_set_key" : "_ZN7android8hardware4wifi10supplicant4V1_122BsSupplicantStaNetwork13addOnewayTaskENSt3__18functionIFvvEEE",
   "parameters" :
   [
    {
     "is_this_ptr" : true,
     "referenced_type" : "_ZTIPN7android8hardware4wifi10supplicant4V1_122BsSupplicantStaNetworkE"
    },
    {
     "referenced_type" : "_ZTINSt3__18functionIFvvEEE"
    }
   ],
   "return_type" : "_ZTIN7android8hardware6ReturnIvEE",
   "source_file" : "/out/soong/.intermediates/hardware/interfaces/wifi/supplicant/1.1/android.hardware.wifi.supplicant@1.1_genc++_headers/gen/android/hardware/wifi/supplicant/1.1/BsSupplicantStaNetwork.h"
  },
  {
   "function_name" : "android::hardware::wifi::supplicant::V1_1::BsSupplicantStaNetwork::BsSupplicantStaNetwork",
   "linker_set_key" : "_ZN7android8hardware4wifi10supplicant4V1_122BsSupplicantStaNetworkC1ENS_2spINS3_21ISupplicantStaNetworkEEE",
   "parameters" :
   [
    {
     "is_this_ptr" : true,
     "referenced_type" : "_ZTIPN7android8hardware4wifi10supplicant4V1_122BsSupplicantStaNetworkE"
    },
    {
     "referenced_type" : "_ZTIKN7android2spINS_8hardware4wifi10supplicant4V1_121ISupplicantStaNetworkEEE"
    }
   ],
   "return_type" : "_ZTIv",
   "source_file" : "/out/soong/.intermediates/hardware/interfaces/wifi/supplicant/1.1/android.hardware.wifi.supplicant@1.1_genc++_headers/gen/android/hardware/wifi/supplicant/1.1/BsSupplicantStaNetwork.h"
  },
  {
   "function_name" : "android::hardware::wifi::supplicant::V1_1::BsSupplicantStaNetwork::BsSupplicantStaNetwork",
   "linker_set_key" : "_ZN7android8hardware4wifi10supplicant4V1_122BsSupplicantStaNetworkC2ENS_2spINS3_21ISupplicantStaNetworkEEE",
   "parameters" :
   [
    {
     "is_this_ptr" : true,
     "referenced_type" : "_ZTIPN7android8hardware4wifi10supplicant4V1_122BsSupplicantStaNetworkE"
    },
    {
     "referenced_type" : "_ZTIKN7android2spINS_8hardware4wifi10supplicant4V1_121ISupplicantStaNetworkEEE"
    }
   ],
   "return_type" : "_ZTIv",
   "source_file" : "/out/soong/.intermediates/hardware/interfaces/wifi/supplicant/1.1/android.hardware.wifi.supplicant@1.1_genc++_headers/gen/android/hardware/wifi/supplicant/1.1/BsSupplicantStaNetwork.h"
  },
  {
   "function_name" : "android::hardware::wifi::supplicant::V1_1::BnHwSupplicantStaNetwork::onTransact",
   "linker_set_key" : "_ZN7android8hardware4wifi10supplicant4V1_124BnHwSupplicantStaNetwork10onTransactEjRKNS0_6ParcelEPS5_jNSt3__18functionIFvRS5_EEE",
   "parameters" :
   [
    {
     "is_this_ptr" : true,
     "referenced_type" : "_ZTIPN7android8hardware4wifi10supplicant4V1_124BnHwSupplicantStaNetworkE"
    },
    {
     "referenced_type" : "_ZTIj"
    },
    {
     "referenced_type" : "_ZTIRKN7android8hardware6ParcelE"
    },
    {
     "referenced_type" : "_ZTIPN7android8hardware6ParcelE"
    },
    {
     "default_arg" : true,
     "referenced_type" : "_ZTIj"
    },
    {
     "default_arg" : true,
     "referenced_type" : "_ZTINSt3__18functionIFvRN7android8hardware6ParcelEEEE"
    }
   ],
   "return_type" : "_ZTIi",
   "source_file" : "/out/soong/.intermediates/hardware/interfaces/wifi/supplicant/1.1/android.hardware.wifi.supplicant@1.1_genc++_headers/gen/android/hardware/wifi/supplicant/1.1/BnHwSupplicantStaNetwork.h"
  },
  {
   "access" : "private",
   "function_name" : "android::hardware::wifi::supplicant::V1_1::BnHwSupplicantStaNetwork::getDebugInfo",
   "linker_set_key" : "_ZN7android8hardware4wifi10supplicant4V1_124BnHwSupplicantStaNetwork12getDebugInfoENSt3__18functionIFvRKNS_4hidl4base4V1_09DebugInfoEEEE",
   "parameters" :
   [
    {
     "is_this_ptr" : true,
     "referenced_type" : "_ZTIPN7android8hardware4wifi10supplicant4V1_124BnHwSupplicantStaNetworkE"
    },
    {
     "referenced_type" : "_ZTINSt3__18functionIFvRKN7android4hidl4base4V1_09DebugInfoEEEE"
    }
   ],
   "return_type" : "_ZTIN7android8hardware6ReturnIvEE",
   "source_file" : "/out/soong/.intermediates/hardware/interfaces/wifi/supplicant/1.1/android.hardware.wifi.supplicant@1.1_genc++_headers/gen/android/hardware/wifi/supplicant/1.1/BnHwSupplicantStaNetwork.h"
  },
  {
   "function_name" : "android::hardware::wifi::supplicant::V1_1::BnHwSupplicantStaNetwork::_hidl_setEapEncryptedImsiIdentity",
   "linker_set_key" : "_ZN7android8hardware4wifi10supplicant4V1_124BnHwSupplicantStaNetwork33_hidl_setEapEncryptedImsiIdentityEPNS_4hidl4base4V1_08BnHwBaseERKNS0_6ParcelEPSA_NSt3__18functionIFvRSA_EEE",
   "parameters" :
   [
    {
     "referenced_type" : "_ZTIPN7android4hidl4base4V1_08BnHwBaseE"
    },
    {
     "referenced_type" : "_ZTIRKN7android8hardware6ParcelE"
    },
    {
     "referenced_type" : "_ZTIPN7android8hardware6ParcelE"
    },
    {
     "referenced_type" : "_ZTINSt3__18functionIFvRN7android8hardware6ParcelEEEE"
    }
   ],
   "return_type" : "_ZTIi",
   "source_file" : "/out/soong/.intermediates/hardware/interfaces/wifi/supplicant/1.1/android.hardware.wifi.supplicant@1.1_genc++_headers/gen/android/hardware/wifi/supplicant/1.1/BnHwSupplicantStaNetwork.h"
  },
  {
   "function_name" : "android::hardware::wifi::supplicant::V1_1::BnHwSupplicantStaNetwork::_hidl_sendNetworkEapIdentityResponse_1_1",
   "linker_set_key" : "_ZN7android8hardware4wifi10supplicant4V1_124BnHwSupplicantStaNetwork40_hidl_sendNetworkEapIdentityResponse_1_1EPNS_4hidl4base4V1_08BnHwBaseERKNS0_6ParcelEPSA_NSt3__18functionIFvRSA_EEE",
   "parameters" :
   [
    {
     "referenced_type" : "_ZTIPN7android4hidl4base4V1_08BnHwBaseE"
    },
    {
     "referenced_type" : "_ZTIRKN7android8hardware6ParcelE"
    },
    {
     "referenced_type" : "_ZTIPN7android8hardware6ParcelE"
    },
    {
     "referenced_type" : "_ZTINSt3__18functionIFvRN7android8hardware6ParcelEEEE"
    }
   ],
   "return_type" : "_ZTIi",
   "source_file" : "/out/soong/.intermediates/hardware/interfaces/wifi/supplicant/1.1/android.hardware.wifi.supplicant@1.1_genc++_headers/gen/android/hardware/wifi/supplicant/1.1/BnHwSupplicantStaNetwork.h"
  },
  {
   "access" : "private",
   "function_name" : "android::hardware::wifi::supplicant::V1_1::BnHwSupplicantStaNetwork::ping",
   "linker_set_key" : "_ZN7android8hardware4wifi10supplicant4V1_124BnHwSupplicantStaNetwork4pingEv",
   "parameters" :
   [
    {
     "is_this_ptr" : true,
     "referenced_type" : "_ZTIPN7android8hardware4wifi10supplicant4V1_124BnHwSupplicantStaNetworkE"
    }
   ],
   "return_type" : "_ZTIN7android8hardware6ReturnIvEE",
   "source_file" : "/out/soong/.intermediates/hardware/interfaces/wifi/supplicant/1.1/android.hardware.wifi.supplicant@1.1_genc++_headers/gen/android/hardware/wifi/supplicant/1.1/BnHwSupplicantStaNetwork.h"
  },
  {
   "function_name" : "android::hardware::wifi::supplicant::V1_1::BnHwSupplicantStaNetwork::BnHwSupplicantStaNetwork",
   "linker_set_key" : "_ZN7android8hardware4wifi10supplicant4V1_124BnHwSupplicantStaNetworkC1ERKNS_2spINS3_21ISupplicantStaNetworkEEE",
   "parameters" :
   [
    {
     "is_this_ptr" : true,
     "referenced_type" : "_ZTIPN7android8hardware4wifi10supplicant4V1_124BnHwSupplicantStaNetworkE"
    },
    {
     "referenced_type" : "_ZTIRKN7android2spINS_8hardware4wifi10supplicant4V1_121ISupplicantStaNetworkEEE"
    }
   ],
   "return_type" : "_ZTIv",
   "source_file" : "/out/soong/.intermediates/hardware/interfaces/wifi/supplicant/1.1/android.hardware.wifi.supplicant@1.1_genc++_headers/gen/android/hardware/wifi/supplicant/1.1/BnHwSupplicantStaNetwork.h"
  },
  {
   "function_name" : "android::hardware::wifi::supplicant::V1_1::BnHwSupplicantStaNetwork::BnHwSupplicantStaNetwork",
   "linker_set_key" : "_ZN7android8hardware4wifi10supplicant4V1_124BnHwSupplicantStaNetworkC2ERKNS_2spINS3_21ISupplicantStaNetworkEEE",
   "parameters" :
   [
    {
     "is_this_ptr" : true,
     "referenced_type" : "_ZTIPN7android8hardware4wifi10supplicant4V1_124BnHwSupplicantStaNetworkE"
    },
    {
     "referenced_type" : "_ZTIRKN7android2spINS_8hardware4wifi10supplicant4V1_121ISupplicantStaNetworkEEE"
    }
   ],
   "return_type" : "_ZTIv",
   "source_file" : "/out/soong/.intermediates/hardware/interfaces/wifi/supplicant/1.1/android.hardware.wifi.supplicant@1.1_genc++_headers/gen/android/hardware/wifi/supplicant/1.1/BnHwSupplicantStaNetwork.h"
  },
  {
   "function_name" : "android::hardware::wifi::supplicant::V1_1::BnHwSupplicantStaNetwork::~BnHwSupplicantStaNetwork",
   "linker_set_key" : "_ZN7android8hardware4wifi10supplicant4V1_124BnHwSupplicantStaNetworkD0Ev",
   "parameters" :
   [
    {
     "is_this_ptr" : true,
     "referenced_type" : "_ZTIPN7android8hardware4wifi10supplicant4V1_124BnHwSupplicantStaNetworkE"
    }
   ],
   "return_type" : "_ZTIv",
   "source_file" : "/out/soong/.intermediates/hardware/interfaces/wifi/supplicant/1.1/android.hardware.wifi.supplicant@1.1_genc++_headers/gen/android/hardware/wifi/supplicant/1.1/BnHwSupplicantStaNetwork.h"
  },
  {
   "function_name" : "android::hardware::wifi::supplicant::V1_1::BnHwSupplicantStaNetwork::~BnHwSupplicantStaNetwork",
   "linker_set_key" : "_ZN7android8hardware4wifi10supplicant4V1_124BnHwSupplicantStaNetworkD1Ev",
   "parameters" :
   [
    {
     "is_this_ptr" : true,
     "referenced_type" : "_ZTIPN7android8hardware4wifi10supplicant4V1_124BnHwSupplicantStaNetworkE"
    }
   ],
   "return_type" : "_ZTIv",
   "source_file" : "/out/soong/.intermediates/hardware/interfaces/wifi/supplicant/1.1/android.hardware.wifi.supplicant@1.1_genc++_headers/gen/android/hardware/wifi/supplicant/1.1/BnHwSupplicantStaNetwork.h"
  },
  {
   "function_name" : "android::hardware::wifi::supplicant::V1_1::BnHwSupplicantStaNetwork::~BnHwSupplicantStaNetwork",
   "linker_set_key" : "_ZN7android8hardware4wifi10supplicant4V1_124BnHwSupplicantStaNetworkD2Ev",
   "parameters" :
   [
    {
     "is_this_ptr" : true,
     "referenced_type" : "_ZTIPN7android8hardware4wifi10supplicant4V1_124BnHwSupplicantStaNetworkE"
    }
   ],
   "return_type" : "_ZTIv",
   "source_file" : "/out/soong/.intermediates/hardware/interfaces/wifi/supplicant/1.1/android.hardware.wifi.supplicant@1.1_genc++_headers/gen/android/hardware/wifi/supplicant/1.1/BnHwSupplicantStaNetwork.h"
  },
  {
   "function_name" : "android::hardware::wifi::supplicant::V1_1::BpHwSupplicantStaNetwork::getAuthAlg",
   "linker_set_key" : "_ZN7android8hardware4wifi10supplicant4V1_124BpHwSupplicantStaNetwork10getAuthAlgENSt3__18functionIFvRKNS2_4V1_016SupplicantStatusEjEEE",
   "parameters" :
   [
    {
     "is_this_ptr" : true,
     "referenced_type" : "_ZTIPN7android8hardware4wifi10supplicant4V1_124BpHwSupplicantStaNetworkE"
    },
    {
     "referenced_type" : "_ZTINSt3__18functionIFvRKN7android8hardware4wifi10supplicant4V1_016SupplicantStatusEjEEE"
    }
   ],
   "return_type" : "_ZTIN7android8hardware6ReturnIvEE",
   "source_file" : "/out/soong/.intermediates/hardware/interfaces/wifi/supplicant/1.1/android.hardware.wifi.supplicant@1.1_genc++_headers/gen/android/hardware/wifi/supplicant/1.1/BpHwSupplicantStaNetwork.h"
  },
  {
   "function_name" : "android::hardware::wifi::supplicant::V1_1::BpHwSupplicantStaNetwork::getKeyMgmt",
   "linker_set_key" : "_ZN7android8hardware4wifi10supplicant4V1_124BpHwSupplicantStaNetwork10getKeyMgmtENSt3__18functionIFvRKNS2_4V1_016SupplicantStatusEjEEE",
   "parameters" :
   [
    {
     "is_this_ptr" : true,
     "referenced_type" : "_ZTIPN7android8hardware4wifi10supplicant4V1_124BpHwSupplicantStaNetworkE"
    },
    {
     "referenced_type" : "_ZTINSt3__18functionIFvRKN7android8hardware4wifi10supplicant4V1_016SupplicantStatusEjEEE"
    }
   ],
   "return_type" : "_ZTIN7android8hardware6ReturnIvEE",
   "source_file" : "/out/soong/.intermediates/hardware/interfaces/wifi/supplicant/1.1/android.hardware.wifi.supplicant@1.1_genc++_headers/gen/android/hardware/wifi/supplicant/1.1/BpHwSupplicantStaNetwork.h"
  },
  {
   "function_name" : "android::hardware::wifi::supplicant::V1_1::BpHwSupplicantStaNetwork::setAuthAlg",
   "linker_set_key" : "_ZN7android8hardware4wifi10supplicant4V1_124BpHwSupplicantStaNetwork10setAuthAlgEjNSt3__18functionIFvRKNS2_4V1_016SupplicantStatusEEEE",
   "parameters" :
   [
    {
     "is_this_ptr" : true,
     "referenced_type" : "_ZTIPN7android8hardware4wifi10supplicant4V1_124BpHwSupplicantStaNetworkE"
    },
    {
     "referenced_type" : "_ZTIj"
    },
    {
     "referenced_type" : "_ZTINSt3__18functionIFvRKN7android8hardware4wifi10supplicant4V1_016SupplicantStatusEEEE"
    }
   ],
   "return_type" : "_ZTIN7android8hardware6ReturnIvEE",
   "source_file" : "/out/soong/.intermediates/hardware/interfaces/wifi/supplicant/1.1/android.hardware.wifi.supplicant@1.1_genc++_headers/gen/android/hardware/wifi/supplicant/1.1/BpHwSupplicantStaNetwork.h"
  },
  {
   "function_name" : "android::hardware::wifi::supplicant::V1_1::BpHwSupplicantStaNetwork::setKeyMgmt",
   "linker_set_key" : "_ZN7android8hardware4wifi10supplicant4V1_124BpHwSupplicantStaNetwork10setKeyMgmtEjNSt3__18functionIFvRKNS2_4V1_016SupplicantStatusEEEE",
   "parameters" :
   [
    {
     "is_this_ptr" : true,
     "referenced_type" : "_ZTIPN7android8hardware4wifi10supplicant4V1_124BpHwSupplicantStaNetworkE"
    },
    {
     "referenced_type" : "_ZTIj"
    },
    {
     "referenced_type" : "_ZTINSt3__18functionIFvRKN7android8hardware4wifi10supplicant4V1_016SupplicantStatusEEEE"
    }
   ],
   "return_type" : "_ZTIN7android8hardware6ReturnIvEE",
   "source_file" : "/out/soong/.intermediates/hardware/interfaces/wifi/supplicant/1.1/android.hardware.wifi.supplicant@1.1_genc++_headers/gen/android/hardware/wifi/supplicant/1.1/BpHwSupplicantStaNetwork.h"
  },
  {
   "function_name" : "android::hardware::wifi::supplicant::V1_1::BpHwSupplicantStaNetwork::getScanSsid",
   "linker_set_key" : "_ZN7android8hardware4wifi10supplicant4V1_124BpHwSupplicantStaNetwork11getScanSsidENSt3__18functionIFvRKNS2_4V1_016SupplicantStatusEbEEE",
   "parameters" :
   [
    {
     "is_this_ptr" : true,
     "referenced_type" : "_ZTIPN7android8hardware4wifi10supplicant4V1_124BpHwSupplicantStaNetworkE"
    },
    {
     "referenced_type" : "_ZTINSt3__18functionIFvRKN7android8hardware4wifi10supplicant4V1_016SupplicantStatusEbEEE"
    }
   ],
   "return_type" : "_ZTIN7android8hardware6ReturnIvEE",
   "source_file" : "/out/soong/.intermediates/hardware/interfaces/wifi/supplicant/1.1/android.hardware.wifi.supplicant@1.1_genc++_headers/gen/android/hardware/wifi/supplicant/1.1/BpHwSupplicantStaNetwork.h"
  },
  {
   "function_name" : "android::hardware::wifi::supplicant::V1_1::BpHwSupplicantStaNetwork::linkToDeath",
   "linker_set_key" : "_ZN7android8hardware4wifi10supplicant4V1_124BpHwSupplicantStaNetwork11linkToDeathERKNS_2spINS0_20hidl_death_recipientEEEy",
   "parameters" :
   [
    {
     "is_this_ptr" : true,
     "referenced_type" : "_ZTIPN7android8hardware4wifi10supplicant4V1_124BpHwSupplicantStaNetworkE"
    },
    {
     "referenced_type" : "_ZTIRKN7android2spINS_8hardware20hidl_death_recipientEEE"
    },
    {
     "referenced_type" : "_ZTIy"
    }
   ],
   "return_type" : "_ZTIN7android8hardware6ReturnIbEE",
   "source_file" : "/out/soong/.intermediates/hardware/interfaces/wifi/supplicant/1.1/android.hardware.wifi.supplicant@1.1_genc++_headers/gen/android/hardware/wifi/supplicant/1.1/BpHwSupplicantStaNetwork.h"
  },
  {
   "function_name" : "android::hardware::wifi::supplicant::V1_1::BpHwSupplicantStaNetwork::setScanSsid",
   "linker_set_key" : "_ZN7android8hardware4wifi10supplicant4V1_124BpHwSupplicantStaNetwork11setScanSsidEbNSt3__18functionIFvRKNS2_4V1_016SupplicantStatusEEEE",
   "parameters" :
   [
    {
     "is_this_ptr" : true,
     "referenced_type" : "_ZTIPN7android8hardware4wifi10supplicant4V1_124BpHwSupplicantStaNetworkE"
    },
    {
     "referenced_type" : "_ZTIb"
    },
    {
     "referenced_type" : "_ZTINSt3__18functionIFvRKN7android8hardware4wifi10supplicant4V1_016SupplicantStatusEEEE"
    }
   ],
   "return_type" : "_ZTIN7android8hardware6ReturnIvEE",
   "source_file" : "/out/soong/.intermediates/hardware/interfaces/wifi/supplicant/1.1/android.hardware.wifi.supplicant@1.1_genc++_headers/gen/android/hardware/wifi/supplicant/1.1/BpHwSupplicantStaNetwork.h"
  },
  {
   "function_name" : "android::hardware::wifi::supplicant::V1_1::BpHwSupplicantStaNetwork::getDebugInfo",
   "linker_set_key" : "_ZN7android8hardware4wifi10supplicant4V1_124BpHwSupplicantStaNetwork12getDebugInfoENSt3__18functionIFvRKNS_4hidl4base4V1_09DebugInfoEEEE",
   "parameters" :
   [
    {
     "is_this_ptr" : true,
     "referenced_type" : "_ZTIPN7android8hardware4wifi10supplicant4V1_124BpHwSupplicantStaNetworkE"
    },
    {
     "referenced_type" : "_ZTINSt3__18functionIFvRKN7android4hidl4base4V1_09DebugInfoEEEE"
    }
   ],
   "return_type" : "_ZTIN7android8hardware6ReturnIvEE",
   "source_file" : "/out/soong/.intermediates/hardware/interfaces/wifi/supplicant/1.1/android.hardware.wifi.supplicant@1.1_genc++_headers/gen/android/hardware/wifi/supplicant/1.1/BpHwSupplicantStaNetwork.h"
  },
  {
   "function_name" : "android::hardware::wifi::supplicant::V1_1::BpHwSupplicantStaNetwork::getEapCACert",
   "linker_set_key" : "_ZN7android8hardware4wifi10supplicant4V1_124BpHwSupplicantStaNetwork12getEapCACertENSt3__18functionIFvRKNS2_4V1_016SupplicantStatusERKNS0_11hidl_stringEEEE",
   "parameters" :
   [
    {
     "is_this_ptr" : true,
     "referenced_type" : "_ZTIPN7android8hardware4wifi10supplicant4V1_124BpHwSupplicantStaNetworkE"
    },
    {
     "referenced_type" : "_ZTINSt3__18functionIFvRKN7android8hardware4wifi10supplicant4V1_016SupplicantStatusERKNS2_11hidl_stringEEEE"
    }
   ],
   "return_type" : "_ZTIN7android8hardware6ReturnIvEE",
   "source_file" : "/out/soong/.intermediates/hardware/interfaces/wifi/supplicant/1.1/android.hardware.wifi.supplicant@1.1_genc++_headers/gen/android/hardware/wifi/supplicant/1.1/BpHwSupplicantStaNetwork.h"
  },
  {
   "function_name" : "android::hardware::wifi::supplicant::V1_1::BpHwSupplicantStaNetwork::getEapCAPath",
   "linker_set_key" : "_ZN7android8hardware4wifi10supplicant4V1_124BpHwSupplicantStaNetwork12getEapCAPathENSt3__18functionIFvRKNS2_4V1_016SupplicantStatusERKNS0_11hidl_stringEEEE",
   "parameters" :
   [
    {
     "is_this_ptr" : true,
     "referenced_type" : "_ZTIPN7android8hardware4wifi10supplicant4V1_124BpHwSupplicantStaNetworkE"
    },
    {
     "referenced_type" : "_ZTINSt3__18functionIFvRKN7android8hardware4wifi10supplicant4V1_016SupplicantStatusERKNS2_11hidl_stringEEEE"
    }
   ],
   "return_type" : "_ZTIN7android8hardware6ReturnIvEE",
   "source_file" : "/out/soong/.intermediates/hardware/interfaces/wifi/supplicant/1.1/android.hardware.wifi.supplicant@1.1_genc++_headers/gen/android/hardware/wifi/supplicant/1.1/BpHwSupplicantStaNetwork.h"
  },
  {
   "function_name" : "android::hardware::wifi::supplicant::V1_1::BpHwSupplicantStaNetwork::getEapEngine",
   "linker_set_key" : "_ZN7android8hardware4wifi10supplicant4V1_124BpHwSupplicantStaNetwork12getEapEngineENSt3__18functionIFvRKNS2_4V1_016SupplicantStatusEbEEE",
   "parameters" :
   [
    {
     "is_this_ptr" : true,
     "referenced_type" : "_ZTIPN7android8hardware4wifi10supplicant4V1_124BpHwSupplicantStaNetworkE"
    },
    {
     "referenced_type" : "_ZTINSt3__18functionIFvRKN7android8hardware4wifi10supplicant4V1_016SupplicantStatusEbEEE"
    }
   ],
   "return_type" : "_ZTIN7android8hardware6ReturnIvEE",
   "source_file" : "/out/soong/.intermediates/hardware/interfaces/wifi/supplicant/1.1/android.hardware.wifi.supplicant@1.1_genc++_headers/gen/android/hardware/wifi/supplicant/1.1/BpHwSupplicantStaNetwork.h"
  },
  {
   "function_name" : "android::hardware::wifi::supplicant::V1_1::BpHwSupplicantStaNetwork::getEapMethod",
   "linker_set_key" : "_ZN7android8hardware4wifi10supplicant4V1_124BpHwSupplicantStaNetwork12getEapMethodENSt3__18functionIFvRKNS2_4V1_016SupplicantStatusENS7_21ISupplicantStaNetwork9EapMethodEEEE",
   "parameters" :
   [
    {
     "is_this_ptr" : true,
     "referenced_type" : "_ZTIPN7android8hardware4wifi10supplicant4V1_124BpHwSupplicantStaNetworkE"
    },
    {
     "referenced_type" : "_ZTINSt3__18functionIFvRKN7android8hardware4wifi10supplicant4V1_016SupplicantStatusENS5_21ISupplicantStaNetwork9EapMethodEEEE"
    }
   ],
   "return_type" : "_ZTIN7android8hardware6ReturnIvEE",
   "source_file" : "/out/soong/.intermediates/hardware/interfaces/wifi/supplicant/1.1/android.hardware.wifi.supplicant@1.1_genc++_headers/gen/android/hardware/wifi/supplicant/1.1/BpHwSupplicantStaNetwork.h"
  },
  {
   "function_name" : "android::hardware::wifi::supplicant::V1_1::BpHwSupplicantStaNetwork::getHashChain",
   "linker_set_key" : "_ZN7android8hardware4wifi10supplicant4V1_124BpHwSupplicantStaNetwork12getHashChainENSt3__18functionIFvRKNS0_8hidl_vecINS0_10hidl_arrayIhLj32EJEEEEEEEE",
   "parameters" :
   [
    {
     "is_this_ptr" : true,
     "referenced_type" : "_ZTIPN7android8hardware4wifi10supplicant4V1_124BpHwSupplicantStaNetworkE"
    },
    {
     "referenced_type" : "_ZTINSt3__18functionIFvRKN7android8hardware8hidl_vecINS2_10hidl_arrayIhLj32EJEEEEEEEE"
    }
   ],
   "return_type" : "_ZTIN7android8hardware6ReturnIvEE",
   "source_file" : "/out/soong/.intermediates/hardware/interfaces/wifi/supplicant/1.1/android.hardware.wifi.supplicant@1.1_genc++_headers/gen/android/hardware/wifi/supplicant/1.1/BpHwSupplicantStaNetwork.h"
  },
  {
   "function_name" : "android::hardware::wifi::supplicant::V1_1::BpHwSupplicantStaNetwork::setEapCACert",
   "linker_set_key" : "_ZN7android8hardware4wifi10supplicant4V1_124BpHwSupplicantStaNetwork12setEapCACertERKNS0_11hidl_stringENSt3__18functionIFvRKNS2_4V1_016SupplicantStatusEEEE",
   "parameters" :
   [
    {
     "is_this_ptr" : true,
     "referenced_type" : "_ZTIPN7android8hardware4wifi10supplicant4V1_124BpHwSupplicantStaNetworkE"
    },
    {
     "referenced_type" : "_ZTIRKN7android8hardware11hidl_stringE"
    },
    {
     "referenced_type" : "_ZTINSt3__18functionIFvRKN7android8hardware4wifi10supplicant4V1_016SupplicantStatusEEEE"
    }
   ],
   "return_type" : "_ZTIN7android8hardware6ReturnIvEE",
   "source_file" : "/out/soong/.intermediates/hardware/interfaces/wifi/supplicant/1.1/android.hardware.wifi.supplicant@1.1_genc++_headers/gen/android/hardware/wifi/supplicant/1.1/BpHwSupplicantStaNetwork.h"
  },
  {
   "function_name" : "android::hardware::wifi::supplicant::V1_1::BpHwSupplicantStaNetwork::setEapCAPath",
   "linker_set_key" : "_ZN7android8hardware4wifi10supplicant4V1_124BpHwSupplicantStaNetwork12setEapCAPathERKNS0_11hidl_stringENSt3__18functionIFvRKNS2_4V1_016SupplicantStatusEEEE",
   "parameters" :
   [
    {
     "is_this_ptr" : true,
     "referenced_type" : "_ZTIPN7android8hardware4wifi10supplicant4V1_124BpHwSupplicantStaNetworkE"
    },
    {
     "referenced_type" : "_ZTIRKN7android8hardware11hidl_stringE"
    },
    {
     "referenced_type" : "_ZTINSt3__18functionIFvRKN7android8hardware4wifi10supplicant4V1_016SupplicantStatusEEEE"
    }
   ],
   "return_type" : "_ZTIN7android8hardware6ReturnIvEE",
   "source_file" : "/out/soong/.intermediates/hardware/interfaces/wifi/supplicant/1.1/android.hardware.wifi.supplicant@1.1_genc++_headers/gen/android/hardware/wifi/supplicant/1.1/BpHwSupplicantStaNetwork.h"
  },
  {
   "function_name" : "android::hardware::wifi::supplicant::V1_1::BpHwSupplicantStaNetwork::setEapEngine",
   "linker_set_key" : "_ZN7android8hardware4wifi10supplicant4V1_124BpHwSupplicantStaNetwork12setEapEngineEbNSt3__18functionIFvRKNS2_4V1_016SupplicantStatusEEEE",
   "parameters" :
   [
    {
     "is_this_ptr" : true,
     "referenced_type" : "_ZTIPN7android8hardware4wifi10supplicant4V1_124BpHwSupplicantStaNetworkE"
    },
    {
     "referenced_type" : "_ZTIb"
    },
    {
     "referenced_type" : "_ZTINSt3__18functionIFvRKN7android8hardware4wifi10supplicant4V1_016SupplicantStatusEEEE"
    }
   ],
   "return_type" : "_ZTIN7android8hardware6ReturnIvEE",
   "source_file" : "/out/soong/.intermediates/hardware/interfaces/wifi/supplicant/1.1/android.hardware.wifi.supplicant@1.1_genc++_headers/gen/android/hardware/wifi/supplicant/1.1/BpHwSupplicantStaNetwork.h"
  },
  {
   "function_name" : "android::hardware::wifi::supplicant::V1_1::BpHwSupplicantStaNetwork::setEapMethod",
   "linker_set_key" : "_ZN7android8hardware4wifi10supplicant4V1_124BpHwSupplicantStaNetwork12setEapMethodENS2_4V1_021ISupplicantStaNetwork9EapMethodENSt3__18functionIFvRKNS5_16SupplicantStatusEEEE",
   "parameters" :
   [
    {
     "is_this_ptr" : true,
     "referenced_type" : "_ZTIPN7android8hardware4wifi10supplicant4V1_124BpHwSupplicantStaNetworkE"
    },
    {
     "referenced_type" : "_ZTIN7android8hardware4wifi10supplicant4V1_021ISupplicantStaNetwork9EapMethodE"
    },
    {
     "referenced_type" : "_ZTINSt3__18functionIFvRKN7android8hardware4wifi10supplicant4V1_016SupplicantStatusEEEE"
    }
   ],
   "return_type" : "_ZTIN7android8hardware6ReturnIvEE",
   "source_file" : "/out/soong/.intermediates/hardware/interfaces/wifi/supplicant/1.1/android.hardware.wifi.supplicant@1.1_genc++_headers/gen/android/hardware/wifi/supplicant/1.1/BpHwSupplicantStaNetwork.h"
  },
  {
   "function_name" : "android::hardware::wifi::supplicant::V1_1::BpHwSupplicantStaNetwork::getRequirePmf",
   "linker_set_key" : "_ZN7android8hardware4wifi10supplicant4V1_124BpHwSupplicantStaNetwork13getRequirePmfENSt3__18functionIFvRKNS2_4V1_016SupplicantStatusEbEEE",
   "parameters" :
   [
    {
     "is_this_ptr" : true,
     "referenced_type" : "_ZTIPN7android8hardware4wifi10supplicant4V1_124BpHwSupplicantStaNetworkE"
    },
    {
     "referenced_type" : "_ZTINSt3__18functionIFvRKN7android8hardware4wifi10supplicant4V1_016SupplicantStatusEbEEE"
    }
   ],
   "return_type" : "_ZTIN7android8hardware6ReturnIvEE",
   "source_file" : "/out/soong/.intermediates/hardware/interfaces/wifi/supplicant/1.1/android.hardware.wifi.supplicant@1.1_genc++_headers/gen/android/hardware/wifi/supplicant/1.1/BpHwSupplicantStaNetwork.h"
  },
  {
   "function_name" : "android::hardware::wifi::supplicant::V1_1::BpHwSupplicantStaNetwork::setRequirePmf",
   "linker_set_key" : "_ZN7android8hardware4wifi10supplicant4V1_124BpHwSupplicantStaNetwork13setRequirePmfEbNSt3__18functionIFvRKNS2_4V1_016SupplicantStatusEEEE",
   "parameters" :
   [
    {
     "is_this_ptr" : true,
     "referenced_type" : "_ZTIPN7android8hardware4wifi10supplicant4V1_124BpHwSupplicantStaNetworkE"
    },
    {
     "referenced_type" : "_ZTIb"
    },
    {
     "referenced_type" : "_ZTINSt3__18functionIFvRKN7android8hardware4wifi10supplicant4V1_016SupplicantStatusEEEE"
    }
   ],
   "return_type" : "_ZTIN7android8hardware6ReturnIvEE",
   "source_file" : "/out/soong/.intermediates/hardware/interfaces/wifi/supplicant/1.1/android.hardware.wifi.supplicant@1.1_genc++_headers/gen/android/hardware/wifi/supplicant/1.1/BpHwSupplicantStaNetwork.h"
  },
  {
   "function_name" : "android::hardware::wifi::supplicant::V1_1::BpHwSupplicantStaNetwork::unlinkToDeath",
   "linker_set_key" : "_ZN7android8hardware4wifi10supplicant4V1_124BpHwSupplicantStaNetwork13unlinkToDeathERKNS_2spINS0_20hidl_death_recipientEEE",
   "parameters" :
   [
    {
     "is_this_ptr" : true,
     "referenced_type" : "_ZTIPN7android8hardware4wifi10supplicant4V1_124BpHwSupplicantStaNetworkE"
    },
    {
     "referenced_type" : "_ZTIRKN7android2spINS_8hardware20hidl_death_recipientEEE"
    }
   ],
   "return_type" : "_ZTIN7android8hardware6ReturnIbEE",
   "source_file" : "/out/soong/.intermediates/hardware/interfaces/wifi/supplicant/1.1/android.hardware.wifi.supplicant@1.1_genc++_headers/gen/android/hardware/wifi/supplicant/1.1/BpHwSupplicantStaNetwork.h"
  },
  {
   "function_name" : "android::hardware::wifi::supplicant::V1_1::BpHwSupplicantStaNetwork::getEapEngineID",
   "linker_set_key" : "_ZN7android8hardware4wifi10supplicant4V1_124BpHwSupplicantStaNetwork14getEapEngineIDENSt3__18functionIFvRKNS2_4V1_016SupplicantStatusERKNS0_11hidl_stringEEEE",
   "parameters" :
   [
    {
     "is_this_ptr" : true,
     "referenced_type" : "_ZTIPN7android8hardware4wifi10supplicant4V1_124BpHwSupplicantStaNetworkE"
    },
    {
     "referenced_type" : "_ZTINSt3__18functionIFvRKN7android8hardware4wifi10supplicant4V1_016SupplicantStatusERKNS2_11hidl_stringEEEE"
    }
   ],
   "return_type" : "_ZTIN7android8hardware6ReturnIvEE",
   "source_file" : "/out/soong/.intermediates/hardware/interfaces/wifi/supplicant/1.1/android.hardware.wifi.supplicant@1.1_genc++_headers/gen/android/hardware/wifi/supplicant/1.1/BpHwSupplicantStaNetwork.h"
  },
  {
   "function_name" : "android::hardware::wifi::supplicant::V1_1::BpHwSupplicantStaNetwork::getEapIdentity",
   "linker_set_key" : "_ZN7android8hardware4wifi10supplicant4V1_124BpHwSupplicantStaNetwork14getEapIdentityENSt3__18functionIFvRKNS2_4V1_016SupplicantStatusERKNS0_8hidl_vecIhEEEEE",
   "parameters" :
   [
    {
     "is_this_ptr" : true,
     "referenced_type" : "_ZTIPN7android8hardware4wifi10supplicant4V1_124BpHwSupplicantStaNetworkE"
    },
    {
     "referenced_type" : "_ZTINSt3__18functionIFvRKN7android8hardware4wifi10supplicant4V1_016SupplicantStatusERKNS2_8hidl_vecIhEEEEE"
    }
   ],
   "return_type" : "_ZTIN7android8hardware6ReturnIvEE",
   "source_file" : "/out/soong/.intermediates/hardware/interfaces/wifi/supplicant/1.1/android.hardware.wifi.supplicant@1.1_genc++_headers/gen/android/hardware/wifi/supplicant/1.1/BpHwSupplicantStaNetwork.h"
  },
  {
   "function_name" : "android::hardware::wifi::supplicant::V1_1::BpHwSupplicantStaNetwork::getEapPassword",
   "linker_set_key" : "_ZN7android8hardware4wifi10supplicant4V1_124BpHwSupplicantStaNetwork14getEapPasswordENSt3__18functionIFvRKNS2_4V1_016SupplicantStatusERKNS0_8hidl_vecIhEEEEE",
   "parameters" :
   [
    {
     "is_this_ptr" : true,
     "referenced_type" : "_ZTIPN7android8hardware4wifi10supplicant4V1_124BpHwSupplicantStaNetworkE"
    },
    {
     "referenced_type" : "_ZTINSt3__18functionIFvRKN7android8hardware4wifi10supplicant4V1_016SupplicantStatusERKNS2_8hidl_vecIhEEEEE"
    }
   ],
   "return_type" : "_ZTIN7android8hardware6ReturnIvEE",
   "source_file" : "/out/soong/.intermediates/hardware/interfaces/wifi/supplicant/1.1/android.hardware.wifi.supplicant@1.1_genc++_headers/gen/android/hardware/wifi/supplicant/1.1/BpHwSupplicantStaNetwork.h"
  },
  {
   "function_name" : "android::hardware::wifi::supplicant::V1_1::BpHwSupplicantStaNetwork::getGroupCipher",
   "linker_set_key" : "_ZN7android8hardware4wifi10supplicant4V1_124BpHwSupplicantStaNetwork14getGroupCipherENSt3__18functionIFvRKNS2_4V1_016SupplicantStatusEjEEE",
   "parameters" :
   [
    {
     "is_this_ptr" : true,
     "referenced_type" : "_ZTIPN7android8hardware4wifi10supplicant4V1_124BpHwSupplicantStaNetworkE"
    },
    {
     "referenced_type" : "_ZTINSt3__18functionIFvRKN7android8hardware4wifi10supplicant4V1_016SupplicantStatusEjEEE"
    }
   ],
   "return_type" : "_ZTIN7android8hardware6ReturnIvEE",
   "source_file" : "/out/soong/.intermediates/hardware/interfaces/wifi/supplicant/1.1/android.hardware.wifi.supplicant@1.1_genc++_headers/gen/android/hardware/wifi/supplicant/1.1/BpHwSupplicantStaNetwork.h"
  },
  {
   "function_name" : "android::hardware::wifi::supplicant::V1_1::BpHwSupplicantStaNetwork::getWepTxKeyIdx",
   "linker_set_key" : "_ZN7android8hardware4wifi10supplicant4V1_124BpHwSupplicantStaNetwork14getWepTxKeyIdxENSt3__18functionIFvRKNS2_4V1_016SupplicantStatusEjEEE",
   "parameters" :
   [
    {
     "is_this_ptr" : true,
     "referenced_type" : "_ZTIPN7android8hardware4wifi10supplicant4V1_124BpHwSupplicantStaNetworkE"
    },
    {
     "referenced_type" : "_ZTINSt3__18functionIFvRKN7android8hardware4wifi10supplicant4V1_016SupplicantStatusEjEEE"
    }
   ],
   "return_type" : "_ZTIN7android8hardware6ReturnIvEE",
   "source_file" : "/out/soong/.intermediates/hardware/interfaces/wifi/supplicant/1.1/android.hardware.wifi.supplicant@1.1_genc++_headers/gen/android/hardware/wifi/supplicant/1.1/BpHwSupplicantStaNetwork.h"
  },
  {
   "function_name" : "android::hardware::wifi::supplicant::V1_1::BpHwSupplicantStaNetwork::interfaceChain",
   "linker_set_key" : "_ZN7android8hardware4wifi10supplicant4V1_124BpHwSupplicantStaNetwork14interfaceChainENSt3__18functionIFvRKNS0_8hidl_vecINS0_11hidl_stringEEEEEE",
   "parameters" :
   [
    {
     "is_this_ptr" : true,
     "referenced_type" : "_ZTIPN7android8hardware4wifi10supplicant4V1_124BpHwSupplicantStaNetworkE"
    },
    {
     "referenced_type" : "_ZTINSt3__18functionIFvRKN7android8hardware8hidl_vecINS2_11hidl_stringEEEEEE"
    }
   ],
   "return_type" : "_ZTIN7android8hardware6ReturnIvEE",
   "source_file" : "/out/soong/.intermediates/hardware/interfaces/wifi/supplicant/1.1/android.hardware.wifi.supplicant@1.1_genc++_headers/gen/android/hardware/wifi/supplicant/1.1/BpHwSupplicantStaNetwork.h"
  },
  {
   "function_name" : "android::hardware::wifi::supplicant::V1_1::BpHwSupplicantStaNetwork::setEapEngineID",
   "linker_set_key" : "_ZN7android8hardware4wifi10supplicant4V1_124BpHwSupplicantStaNetwork14setEapEngineIDERKNS0_11hidl_stringENSt3__18functionIFvRKNS2_4V1_016SupplicantStatusEEEE",
   "parameters" :
   [
    {
     "is_this_ptr" : true,
     "referenced_type" : "_ZTIPN7android8hardware4wifi10supplicant4V1_124BpHwSupplicantStaNetworkE"
    },
    {
     "referenced_type" : "_ZTIRKN7android8hardware11hidl_stringE"
    },
    {
     "referenced_type" : "_ZTINSt3__18functionIFvRKN7android8hardware4wifi10supplicant4V1_016SupplicantStatusEEEE"
    }
   ],
   "return_type" : "_ZTIN7android8hardware6ReturnIvEE",
   "source_file" : "/out/soong/.intermediates/hardware/interfaces/wifi/supplicant/1.1/android.hardware.wifi.supplicant@1.1_genc++_headers/gen/android/hardware/wifi/supplicant/1.1/BpHwSupplicantStaNetwork.h"
  },
  {
   "function_name" : "android::hardware::wifi::supplicant::V1_1::BpHwSupplicantStaNetwork::setEapIdentity",
   "linker_set_key" : "_ZN7android8hardware4wifi10supplicant4V1_124BpHwSupplicantStaNetwork14setEapIdentityERKNS0_8hidl_vecIhEENSt3__18functionIFvRKNS2_4V1_016SupplicantStatusEEEE",
   "parameters" :
   [
    {
     "is_this_ptr" : true,
     "referenced_type" : "_ZTIPN7android8hardware4wifi10supplicant4V1_124BpHwSupplicantStaNetworkE"
    },
    {
     "referenced_type" : "_ZTIRKN7android8hardware8hidl_vecIhEE"
    },
    {
     "referenced_type" : "_ZTINSt3__18functionIFvRKN7android8hardware4wifi10supplicant4V1_016SupplicantStatusEEEE"
    }
   ],
   "return_type" : "_ZTIN7android8hardware6ReturnIvEE",
   "source_file" : "/out/soong/.intermediates/hardware/interfaces/wifi/supplicant/1.1/android.hardware.wifi.supplicant@1.1_genc++_headers/gen/android/hardware/wifi/supplicant/1.1/BpHwSupplicantStaNetwork.h"
  },
  {
   "function_name" : "android::hardware::wifi::supplicant::V1_1::BpHwSupplicantStaNetwork::setEapPassword",
   "linker_set_key" : "_ZN7android8hardware4wifi10supplicant4V1_124BpHwSupplicantStaNetwork14setEapPasswordERKNS0_8hidl_vecIhEENSt3__18functionIFvRKNS2_4V1_016SupplicantStatusEEEE",
   "parameters" :
   [
    {
     "is_this_ptr" : true,
     "referenced_type" : "_ZTIPN7android8hardware4wifi10supplicant4V1_124BpHwSupplicantStaNetworkE"
    },
    {
     "referenced_type" : "_ZTIRKN7android8hardware8hidl_vecIhEE"
    },
    {
     "referenced_type" : "_ZTINSt3__18functionIFvRKN7android8hardware4wifi10supplicant4V1_016SupplicantStatusEEEE"
    }
   ],
   "return_type" : "_ZTIN7android8hardware6ReturnIvEE",
   "source_file" : "/out/soong/.intermediates/hardware/interfaces/wifi/supplicant/1.1/android.hardware.wifi.supplicant@1.1_genc++_headers/gen/android/hardware/wifi/supplicant/1.1/BpHwSupplicantStaNetwork.h"
  },
  {
   "function_name" : "android::hardware::wifi::supplicant::V1_1::BpHwSupplicantStaNetwork::setGroupCipher",
   "linker_set_key" : "_ZN7android8hardware4wifi10supplicant4V1_124BpHwSupplicantStaNetwork14setGroupCipherEjNSt3__18functionIFvRKNS2_4V1_016SupplicantStatusEEEE",
   "parameters" :
   [
    {
     "is_this_ptr" : true,
     "referenced_type" : "_ZTIPN7android8hardware4wifi10supplicant4V1_124BpHwSupplicantStaNetworkE"
    },
    {
     "referenced_type" : "_ZTIj"
    },
    {
     "referenced_type" : "_ZTINSt3__18functionIFvRKN7android8hardware4wifi10supplicant4V1_016SupplicantStatusEEEE"
    }
   ],
   "return_type" : "_ZTIN7android8hardware6ReturnIvEE",
   "source_file" : "/out/soong/.intermediates/hardware/interfaces/wifi/supplicant/1.1/android.hardware.wifi.supplicant@1.1_genc++_headers/gen/android/hardware/wifi/supplicant/1.1/BpHwSupplicantStaNetwork.h"
  },
  {
   "function_name" : "android::hardware::wifi::supplicant::V1_1::BpHwSupplicantStaNetwork::setWepTxKeyIdx",
   "linker_set_key" : "_ZN7android8hardware4wifi10supplicant4V1_124BpHwSupplicantStaNetwork14setWepTxKeyIdxEjNSt3__18functionIFvRKNS2_4V1_016SupplicantStatusEEEE",
   "parameters" :
   [
    {
     "is_this_ptr" : true,
     "referenced_type" : "_ZTIPN7android8hardware4wifi10supplicant4V1_124BpHwSupplicantStaNetworkE"
    },
    {
     "referenced_type" : "_ZTIj"
    },
    {
     "referenced_type" : "_ZTINSt3__18functionIFvRKN7android8hardware4wifi10supplicant4V1_016SupplicantStatusEEEE"
    }
   ],
   "return_type" : "_ZTIN7android8hardware6ReturnIvEE",
   "source_file" : "/out/soong/.intermediates/hardware/interfaces/wifi/supplicant/1.1/android.hardware.wifi.supplicant@1.1_genc++_headers/gen/android/hardware/wifi/supplicant/1.1/BpHwSupplicantStaNetwork.h"
  },
  {
   "function_name" : "android::hardware::wifi::supplicant::V1_1::BpHwSupplicantStaNetwork::onLastStrongRef",
   "linker_set_key" : "_ZN7android8hardware4wifi10supplicant4V1_124BpHwSupplicantStaNetwork15onLastStrongRefEPKv",
   "parameters" :
   [
    {
     "is_this_ptr" : true,
     "referenced_type" : "_ZTIPN7android8hardware4wifi10supplicant4V1_124BpHwSupplicantStaNetworkE"
    },
    {
     "referenced_type" : "_ZTIPKv"
    }
   ],
   "return_type" : "_ZTIv",
   "source_file" : "/out/soong/.intermediates/hardware/interfaces/wifi/supplicant/1.1/android.hardware.wifi.supplicant@1.1_genc++_headers/gen/android/hardware/wifi/supplicant/1.1/BpHwSupplicantStaNetwork.h"
  },
  {
   "function_name" : "android::hardware::wifi::supplicant::V1_1::BpHwSupplicantStaNetwork::getEapClientCert",
   "linker_set_key" : "_ZN7android8hardware4wifi10supplicant4V1_124BpHwSupplicantStaNetwork16getEapClientCertENSt3__18functionIFvRKNS2_4V1_016SupplicantStatusERKNS0_11hidl_stringEEEE",
   "parameters" :
   [
    {
     "is_this_ptr" : true,
     "referenced_type" : "_ZTIPN7android8hardware4wifi10supplicant4V1_124BpHwSupplicantStaNetworkE"
    },
    {
     "referenced_type" : "_ZTINSt3__18functionIFvRKN7android8hardware4wifi10supplicant4V1_016SupplicantStatusERKNS2_11hidl_stringEEEE"
    }
   ],
   "return_type" : "_ZTIN7android8hardware6ReturnIvEE",
   "source_file" : "/out/soong/.intermediates/hardware/interfaces/wifi/supplicant/1.1/android.hardware.wifi.supplicant@1.1_genc++_headers/gen/android/hardware/wifi/supplicant/1.1/BpHwSupplicantStaNetwork.h"
  },
  {
   "function_name" : "android::hardware::wifi::supplicant::V1_1::BpHwSupplicantStaNetwork::getInterfaceName",
   "linker_set_key" : "_ZN7android8hardware4wifi10supplicant4V1_124BpHwSupplicantStaNetwork16getInterfaceNameENSt3__18functionIFvRKNS2_4V1_016SupplicantStatusERKNS0_11hidl_stringEEEE",
   "parameters" :
   [
    {
     "is_this_ptr" : true,
     "referenced_type" : "_ZTIPN7android8hardware4wifi10supplicant4V1_124BpHwSupplicantStaNetworkE"
    },
    {
     "referenced_type" : "_ZTINSt3__18functionIFvRKN7android8hardware4wifi10supplicant4V1_016SupplicantStatusERKNS2_11hidl_stringEEEE"
    }
   ],
   "return_type" : "_ZTIN7android8hardware6ReturnIvEE",
   "source_file" : "/out/soong/.intermediates/hardware/interfaces/wifi/supplicant/1.1/android.hardware.wifi.supplicant@1.1_genc++_headers/gen/android/hardware/wifi/supplicant/1.1/BpHwSupplicantStaNetwork.h"
  },
  {
   "function_name" : "android::hardware::wifi::supplicant::V1_1::BpHwSupplicantStaNetwork::getPskPassphrase",
   "linker_set_key" : "_ZN7android8hardware4wifi10supplicant4V1_124BpHwSupplicantStaNetwork16getPskPassphraseENSt3__18functionIFvRKNS2_4V1_016SupplicantStatusERKNS0_11hidl_stringEEEE",
   "parameters" :
   [
    {
     "is_this_ptr" : true,
     "referenced_type" : "_ZTIPN7android8hardware4wifi10supplicant4V1_124BpHwSupplicantStaNetworkE"
    },
    {
     "referenced_type" : "_ZTINSt3__18functionIFvRKN7android8hardware4wifi10supplicant4V1_016SupplicantStatusERKNS2_11hidl_stringEEEE"
    }
   ],
   "return_type" : "_ZTIN7android8hardware6ReturnIvEE",
   "source_file" : "/out/soong/.intermediates/hardware/interfaces/wifi/supplicant/1.1/android.hardware.wifi.supplicant@1.1_genc++_headers/gen/android/hardware/wifi/supplicant/1.1/BpHwSupplicantStaNetwork.h"
  },
  {
   "function_name" : "android::hardware::wifi::supplicant::V1_1::BpHwSupplicantStaNetwork::registerCallback",
   "linker_set_key" : "_ZN7android8hardware4wifi10supplicant4V1_124BpHwSupplicantStaNetwork16registerCallbackERKNS_2spINS2_4V1_029ISupplicantStaNetworkCallbackEEENSt3__18functionIFvRKNS6_16SupplicantStatusEEEE",
   "parameters" :
   [
    {
     "is_this_ptr" : true,
     "referenced_type" : "_ZTIPN7android8hardware4wifi10supplicant4V1_124BpHwSupplicantStaNetworkE"
    },
    {
     "referenced_type" : "_ZTIRKN7android2spINS_8hardware4wifi10supplicant4V1_029ISupplicantStaNetworkCallbackEEE"
    },
    {
     "referenced_type" : "_ZTINSt3__18functionIFvRKN7android8hardware4wifi10supplicant4V1_016SupplicantStatusEEEE"
    }
   ],
   "return_type" : "_ZTIN7android8hardware6ReturnIvEE",
   "source_file" : "/out/soong/.intermediates/hardware/interfaces/wifi/supplicant/1.1/android.hardware.wifi.supplicant@1.1_genc++_headers/gen/android/hardware/wifi/supplicant/1.1/BpHwSupplicantStaNetwork.h"
  },
  {
   "function_name" : "android::hardware::wifi::supplicant::V1_1::BpHwSupplicantStaNetwork::setEapClientCert",
   "linker_set_key" : "_ZN7android8hardware4wifi10supplicant4V1_124BpHwSupplicantStaNetwork16setEapClientCertERKNS0_11hidl_stringENSt3__18functionIFvRKNS2_4V1_016SupplicantStatusEEEE",
   "parameters" :
   [
    {
     "is_this_ptr" : true,
     "referenced_type" : "_ZTIPN7android8hardware4wifi10supplicant4V1_124BpHwSupplicantStaNetworkE"
    },
    {
     "referenced_type" : "_ZTIRKN7android8hardware11hidl_stringE"
    },
    {
     "referenced_type" : "_ZTINSt3__18functionIFvRKN7android8hardware4wifi10supplicant4V1_016SupplicantStatusEEEE"
    }
   ],
   "return_type" : "_ZTIN7android8hardware6ReturnIvEE",
   "source_file" : "/out/soong/.intermediates/hardware/interfaces/wifi/supplicant/1.1/android.hardware.wifi.supplicant@1.1_genc++_headers/gen/android/hardware/wifi/supplicant/1.1/BpHwSupplicantStaNetwork.h"
  },
  {
   "function_name" : "android::hardware::wifi::supplicant::V1_1::BpHwSupplicantStaNetwork::setPskPassphrase",
   "linker_set_key" : "_ZN7android8hardware4wifi10supplicant4V1_124BpHwSupplicantStaNetwork16setPskPassphraseERKNS0_11hidl_stringENSt3__18functionIFvRKNS2_4V1_016SupplicantStatusEEEE",
   "parameters" :
   [
    {
     "is_this_ptr" : true,
     "referenced_type" : "_ZTIPN7android8hardware4wifi10supplicant4V1_124BpHwSupplicantStaNetworkE"
    },
    {
     "referenced_type" : "_ZTIRKN7android8hardware11hidl_stringE"
    },
    {
     "referenced_type" : "_ZTINSt3__18functionIFvRKN7android8hardware4wifi10supplicant4V1_016SupplicantStatusEEEE"
    }
   ],
   "return_type" : "_ZTIN7android8hardware6ReturnIvEE",
   "source_file" : "/out/soong/.intermediates/hardware/interfaces/wifi/supplicant/1.1/android.hardware.wifi.supplicant@1.1_genc++_headers/gen/android/hardware/wifi/supplicant/1.1/BpHwSupplicantStaNetwork.h"
  },
  {
   "function_name" : "android::hardware::wifi::supplicant::V1_1::BpHwSupplicantStaNetwork::getPairwiseCipher",
   "linker_set_key" : "_ZN7android8hardware4wifi10supplicant4V1_124BpHwSupplicantStaNetwork17getPairwiseCipherENSt3__18functionIFvRKNS2_4V1_016SupplicantStatusEjEEE",
   "parameters" :
   [
    {
     "is_this_ptr" : true,
     "referenced_type" : "_ZTIPN7android8hardware4wifi10supplicant4V1_124BpHwSupplicantStaNetworkE"
    },
    {
     "referenced_type" : "_ZTINSt3__18functionIFvRKN7android8hardware4wifi10supplicant4V1_016SupplicantStatusEjEEE"
    }
   ],
   "return_type" : "_ZTIN7android8hardware6ReturnIvEE",
   "source_file" : "/out/soong/.intermediates/hardware/interfaces/wifi/supplicant/1.1/android.hardware.wifi.supplicant@1.1_genc++_headers/gen/android/hardware/wifi/supplicant/1.1/BpHwSupplicantStaNetwork.h"
  },
  {
   "function_name" : "android::hardware::wifi::supplicant::V1_1::BpHwSupplicantStaNetwork::setPairwiseCipher",
   "linker_set_key" : "_ZN7android8hardware4wifi10supplicant4V1_124BpHwSupplicantStaNetwork17setPairwiseCipherEjNSt3__18functionIFvRKNS2_4V1_016SupplicantStatusEEEE",
   "parameters" :
   [
    {
     "is_this_ptr" : true,
     "referenced_type" : "_ZTIPN7android8hardware4wifi10supplicant4V1_124BpHwSupplicantStaNetworkE"
    },
    {
     "referenced_type" : "_ZTIj"
    },
    {
     "referenced_type" : "_ZTINSt3__18functionIFvRKN7android8hardware4wifi10supplicant4V1_016SupplicantStatusEEEE"
    }
   ],
   "return_type" : "_ZTIN7android8hardware6ReturnIvEE",
   "source_file" : "/out/soong/.intermediates/hardware/interfaces/wifi/supplicant/1.1/android.hardware.wifi.supplicant@1.1_genc++_headers/gen/android/hardware/wifi/supplicant/1.1/BpHwSupplicantStaNetwork.h"
  },
  {
   "function_name" : "android::hardware::wifi::supplicant::V1_1::BpHwSupplicantStaNetwork::getEapPhase2Method",
   "linker_set_key" : "_ZN7android8hardware4wifi10supplicant4V1_124BpHwSupplicantStaNetwork18getEapPhase2MethodENSt3__18functionIFvRKNS2_4V1_016SupplicantStatusENS7_21ISupplicantStaNetwork15EapPhase2MethodEEEE",
   "parameters" :
   [
    {
     "is_this_ptr" : true,
     "referenced_type" : "_ZTIPN7android8hardware4wifi10supplicant4V1_124BpHwSupplicantStaNetworkE"
    },
    {
     "referenced_type" : "_ZTINSt3__18functionIFvRKN7android8hardware4wifi10supplicant4V1_016SupplicantStatusENS5_21ISupplicantStaNetwork15EapPhase2MethodEEEE"
    }
   ],
   "return_type" : "_ZTIN7android8hardware6ReturnIvEE",
   "source_file" : "/out/soong/.intermediates/hardware/interfaces/wifi/supplicant/1.1/android.hardware.wifi.supplicant@1.1_genc++_headers/gen/android/hardware/wifi/supplicant/1.1/BpHwSupplicantStaNetwork.h"
  },
  {
   "function_name" : "android::hardware::wifi::supplicant::V1_1::BpHwSupplicantStaNetwork::getEapPrivateKeyId",
   "linker_set_key" : "_ZN7android8hardware4wifi10supplicant4V1_124BpHwSupplicantStaNetwork18getEapPrivateKeyIdENSt3__18functionIFvRKNS2_4V1_016SupplicantStatusERKNS0_11hidl_stringEEEE",
   "parameters" :
   [
    {
     "is_this_ptr" : true,
     "referenced_type" : "_ZTIPN7android8hardware4wifi10supplicant4V1_124BpHwSupplicantStaNetworkE"
    },
    {
     "referenced_type" : "_ZTINSt3__18functionIFvRKN7android8hardware4wifi10supplicant4V1_016SupplicantStatusERKNS2_11hidl_stringEEEE"
    }
   ],
   "return_type" : "_ZTIN7android8hardware6ReturnIvEE",
   "source_file" : "/out/soong/.intermediates/hardware/interfaces/wifi/supplicant/1.1/android.hardware.wifi.supplicant@1.1_genc++_headers/gen/android/hardware/wifi/supplicant/1.1/BpHwSupplicantStaNetwork.h"
  },
  {
   "function_name" : "android::hardware::wifi::supplicant::V1_1::BpHwSupplicantStaNetwork::getEapSubjectMatch",
   "linker_set_key" : "_ZN7android8hardware4wifi10supplicant4V1_124BpHwSupplicantStaNetwork18getEapSubjectMatchENSt3__18functionIFvRKNS2_4V1_016SupplicantStatusERKNS0_11hidl_stringEEEE",
   "parameters" :
   [
    {
     "is_this_ptr" : true,
     "referenced_type" : "_ZTIPN7android8hardware4wifi10supplicant4V1_124BpHwSupplicantStaNetworkE"
    },
    {
     "referenced_type" : "_ZTINSt3__18functionIFvRKN7android8hardware4wifi10supplicant4V1_016SupplicantStatusERKNS2_11hidl_stringEEEE"
    }
   ],
   "return_type" : "_ZTIN7android8hardware6ReturnIvEE",
   "source_file" : "/out/soong/.intermediates/hardware/interfaces/wifi/supplicant/1.1/android.hardware.wifi.supplicant@1.1_genc++_headers/gen/android/hardware/wifi/supplicant/1.1/BpHwSupplicantStaNetwork.h"
  },
  {
   "function_name" : "android::hardware::wifi::supplicant::V1_1::BpHwSupplicantStaNetwork::setEapPhase2Method",
   "linker_set_key" : "_ZN7android8hardware4wifi10supplicant4V1_124BpHwSupplicantStaNetwork18setEapPhase2MethodENS2_4V1_021ISupplicantStaNetwork15EapPhase2MethodENSt3__18functionIFvRKNS5_16SupplicantStatusEEEE",
   "parameters" :
   [
    {
     "is_this_ptr" : true,
     "referenced_type" : "_ZTIPN7android8hardware4wifi10supplicant4V1_124BpHwSupplicantStaNetworkE"
    },
    {
     "referenced_type" : "_ZTIN7android8hardware4wifi10supplicant4V1_021ISupplicantStaNetwork15EapPhase2MethodE"
    },
    {
     "referenced_type" : "_ZTINSt3__18functionIFvRKN7android8hardware4wifi10supplicant4V1_016SupplicantStatusEEEE"
    }
   ],
   "return_type" : "_ZTIN7android8hardware6ReturnIvEE",
   "source_file" : "/out/soong/.intermediates/hardware/interfaces/wifi/supplicant/1.1/android.hardware.wifi.supplicant@1.1_genc++_headers/gen/android/hardware/wifi/supplicant/1.1/BpHwSupplicantStaNetwork.h"
  },
  {
   "function_name" : "android::hardware::wifi::supplicant::V1_1::BpHwSupplicantStaNetwork::setEapPrivateKeyId",
   "linker_set_key" : "_ZN7android8hardware4wifi10supplicant4V1_124BpHwSupplicantStaNetwork18setEapPrivateKeyIdERKNS0_11hidl_stringENSt3__18functionIFvRKNS2_4V1_016SupplicantStatusEEEE",
   "parameters" :
   [
    {
     "is_this_ptr" : true,
     "referenced_type" : "_ZTIPN7android8hardware4wifi10supplicant4V1_124BpHwSupplicantStaNetworkE"
    },
    {
     "referenced_type" : "_ZTIRKN7android8hardware11hidl_stringE"
    },
    {
     "referenced_type" : "_ZTINSt3__18functionIFvRKN7android8hardware4wifi10supplicant4V1_016SupplicantStatusEEEE"
    }
   ],
   "return_type" : "_ZTIN7android8hardware6ReturnIvEE",
   "source_file" : "/out/soong/.intermediates/hardware/interfaces/wifi/supplicant/1.1/android.hardware.wifi.supplicant@1.1_genc++_headers/gen/android/hardware/wifi/supplicant/1.1/BpHwSupplicantStaNetwork.h"
  },
  {
   "function_name" : "android::hardware::wifi::supplicant::V1_1::BpHwSupplicantStaNetwork::setEapSubjectMatch",
   "linker_set_key" : "_ZN7android8hardware4wifi10supplicant4V1_124BpHwSupplicantStaNetwork18setEapSubjectMatchERKNS0_11hidl_stringENSt3__18functionIFvRKNS2_4V1_016SupplicantStatusEEEE",
   "parameters" :
   [
    {
     "is_this_ptr" : true,
     "referenced_type" : "_ZTIPN7android8hardware4wifi10supplicant4V1_124BpHwSupplicantStaNetworkE"
    },
    {
     "referenced_type" : "_ZTIRKN7android8hardware11hidl_stringE"
    },
    {
     "referenced_type" : "_ZTINSt3__18functionIFvRKN7android8hardware4wifi10supplicant4V1_016SupplicantStatusEEEE"
    }
   ],
   "return_type" : "_ZTIN7android8hardware6ReturnIvEE",
   "source_file" : "/out/soong/.intermediates/hardware/interfaces/wifi/supplicant/1.1/android.hardware.wifi.supplicant@1.1_genc++_headers/gen/android/hardware/wifi/supplicant/1.1/BpHwSupplicantStaNetwork.h"
  },
  {
   "function_name" : "android::hardware::wifi::supplicant::V1_1::BpHwSupplicantStaNetwork::interfaceDescriptor",
   "linker_set_key" : "_ZN7android8hardware4wifi10supplicant4V1_124BpHwSupplicantStaNetwork19interfaceDescriptorENSt3__18functionIFvRKNS0_11hidl_stringEEEE",
   "parameters" :
   [
    {
     "is_this_ptr" : true,
     "referenced_type" : "_ZTIPN7android8hardware4wifi10supplicant4V1_124BpHwSupplicantStaNetworkE"
    },
    {
     "referenced_type" : "_ZTINSt3__18functionIFvRKN7android8hardware11hidl_stringEEEE"
    }
   ],
   "return_type" : "_ZTIN7android8hardware6ReturnIvEE",
   "source_file" : "/out/soong/.intermediates/hardware/interfaces/wifi/supplicant/1.1/android.hardware.wifi.supplicant@1.1_genc++_headers/gen/android/hardware/wifi/supplicant/1.1/BpHwSupplicantStaNetwork.h"
  },
  {
   "function_name" : "android::hardware::wifi::supplicant::V1_1::BpHwSupplicantStaNetwork::setUpdateIdentifier",
   "linker_set_key" : "_ZN7android8hardware4wifi10supplicant4V1_124BpHwSupplicantStaNetwork19setUpdateIdentifierEjNSt3__18functionIFvRKNS2_4V1_016SupplicantStatusEEEE",
   "parameters" :
   [
    {
     "is_this_ptr" : true,
     "referenced_type" : "_ZTIPN7android8hardware4wifi10supplicant4V1_124BpHwSupplicantStaNetworkE"
    },
    {
     "referenced_type" : "_ZTIj"
    },
    {
     "referenced_type" : "_ZTINSt3__18functionIFvRKN7android8hardware4wifi10supplicant4V1_016SupplicantStatusEEEE"
    }
   ],
   "return_type" : "_ZTIN7android8hardware6ReturnIvEE",
   "source_file" : "/out/soong/.intermediates/hardware/interfaces/wifi/supplicant/1.1/android.hardware.wifi.supplicant@1.1_genc++_headers/gen/android/hardware/wifi/supplicant/1.1/BpHwSupplicantStaNetwork.h"
  },
  {
   "function_name" : "android::hardware::wifi::supplicant::V1_1::BpHwSupplicantStaNetwork::getEapAltSubjectMatch",
   "linker_set_key" : "_ZN7android8hardware4wifi10supplicant4V1_124BpHwSupplicantStaNetwork21getEapAltSubjectMatchENSt3__18functionIFvRKNS2_4V1_016SupplicantStatusERKNS0_11hidl_stringEEEE",
   "parameters" :
   [
    {
     "is_this_ptr" : true,
     "referenced_type" : "_ZTIPN7android8hardware4wifi10supplicant4V1_124BpHwSupplicantStaNetworkE"
    },
    {
     "referenced_type" : "_ZTINSt3__18functionIFvRKN7android8hardware4wifi10supplicant4V1_016SupplicantStatusERKNS2_11hidl_stringEEEE"
    }
   ],
   "return_type" : "_ZTIN7android8hardware6ReturnIvEE",
   "source_file" : "/out/soong/.intermediates/hardware/interfaces/wifi/supplicant/1.1/android.hardware.wifi.supplicant@1.1_genc++_headers/gen/android/hardware/wifi/supplicant/1.1/BpHwSupplicantStaNetwork.h"
  },
  {
   "function_name" : "android::hardware::wifi::supplicant::V1_1::BpHwSupplicantStaNetwork::notifySyspropsChanged",
   "linker_set_key" : "_ZN7android8hardware4wifi10supplicant4V1_124BpHwSupplicantStaNetwork21notifySyspropsChangedEv",
   "parameters" :
   [
    {
     "is_this_ptr" : true,
     "referenced_type" : "_ZTIPN7android8hardware4wifi10supplicant4V1_124BpHwSupplicantStaNetworkE"
    }
   ],
   "return_type" : "_ZTIN7android8hardware6ReturnIvEE",
   "source_file" : "/out/soong/.intermediates/hardware/interfaces/wifi/supplicant/1.1/android.hardware.wifi.supplicant@1.1_genc++_headers/gen/android/hardware/wifi/supplicant/1.1/BpHwSupplicantStaNetwork.h"
  },
  {
   "function_name" : "android::hardware::wifi::supplicant::V1_1::BpHwSupplicantStaNetwork::setEapAltSubjectMatch",
   "linker_set_key" : "_ZN7android8hardware4wifi10supplicant4V1_124BpHwSupplicantStaNetwork21setEapAltSubjectMatchERKNS0_11hidl_stringENSt3__18functionIFvRKNS2_4V1_016SupplicantStatusEEEE",
   "parameters" :
   [
    {
     "is_this_ptr" : true,
     "referenced_type" : "_ZTIPN7android8hardware4wifi10supplicant4V1_124BpHwSupplicantStaNetworkE"
    },
    {
     "referenced_type" : "_ZTIRKN7android8hardware11hidl_stringE"
    },
    {
     "referenced_type" : "_ZTINSt3__18functionIFvRKN7android8hardware4wifi10supplicant4V1_016SupplicantStatusEEEE"
    }
   ],
   "return_type" : "_ZTIN7android8hardware6ReturnIvEE",
   "source_file" : "/out/soong/.intermediates/hardware/interfaces/wifi/supplicant/1.1/android.hardware.wifi.supplicant@1.1_genc++_headers/gen/android/hardware/wifi/supplicant/1.1/BpHwSupplicantStaNetwork.h"
  },
  {
   "function_name" : "android::hardware::wifi::supplicant::V1_1::BpHwSupplicantStaNetwork::setHALInstrumentation",
   "linker_set_key" : "_ZN7android8hardware4wifi10supplicant4V1_124BpHwSupplicantStaNetwork21setHALInstrumentationEv",
   "parameters" :
   [
    {
     "is_this_ptr" : true,
     "referenced_type" : "_ZTIPN7android8hardware4wifi10supplicant4V1_124BpHwSupplicantStaNetworkE"
    }
   ],
   "return_type" : "_ZTIN7android8hardware6ReturnIvEE",
   "source_file" : "/out/soong/.intermediates/hardware/interfaces/wifi/supplicant/1.1/android.hardware.wifi.supplicant@1.1_genc++_headers/gen/android/hardware/wifi/supplicant/1.1/BpHwSupplicantStaNetwork.h"
  },
  {
   "function_name" : "android::hardware::wifi::supplicant::V1_1::BpHwSupplicantStaNetwork::setProactiveKeyCaching",
   "linker_set_key" : "_ZN7android8hardware4wifi10supplicant4V1_124BpHwSupplicantStaNetwork22setProactiveKeyCachingEbNSt3__18functionIFvRKNS2_4V1_016SupplicantStatusEEEE",
   "parameters" :
   [
    {
     "is_this_ptr" : true,
     "referenced_type" : "_ZTIPN7android8hardware4wifi10supplicant4V1_124BpHwSupplicantStaNetworkE"
    },
    {
     "referenced_type" : "_ZTIb"
    },
    {
     "referenced_type" : "_ZTINSt3__18functionIFvRKN7android8hardware4wifi10supplicant4V1_016SupplicantStatusEEEE"
    }
   ],
   "return_type" : "_ZTIN7android8hardware6ReturnIvEE",
   "source_file" : "/out/soong/.intermediates/hardware/interfaces/wifi/supplicant/1.1/android.hardware.wifi.supplicant@1.1_genc++_headers/gen/android/hardware/wifi/supplicant/1.1/BpHwSupplicantStaNetwork.h"
  },
  {
   "function_name" : "android::hardware::wifi::supplicant::V1_1::BpHwSupplicantStaNetwork::getEapAnonymousIdentity",
   "linker_set_key" : "_ZN7android8hardware4wifi10supplicant4V1_124BpHwSupplicantStaNetwork23getEapAnonymousIdentityENSt3__18functionIFvRKNS2_4V1_016SupplicantStatusERKNS0_8hidl_vecIhEEEEE",
   "parameters" :
   [
    {
     "is_this_ptr" : true,
     "referenced_type" : "_ZTIPN7android8hardware4wifi10supplicant4V1_124BpHwSupplicantStaNetworkE"
    },
    {
     "referenced_type" : "_ZTINSt3__18functionIFvRKN7android8hardware4wifi10supplicant4V1_016SupplicantStatusERKNS2_8hidl_vecIhEEEEE"
    }
   ],
   "return_type" : "_ZTIN7android8hardware6ReturnIvEE",
   "source_file" : "/out/soong/.intermediates/hardware/interfaces/wifi/supplicant/1.1/android.hardware.wifi.supplicant@1.1_genc++_headers/gen/android/hardware/wifi/supplicant/1.1/BpHwSupplicantStaNetwork.h"
  },
  {
   "function_name" : "android::hardware::wifi::supplicant::V1_1::BpHwSupplicantStaNetwork::getEapDomainSuffixMatch",
   "linker_set_key" : "_ZN7android8hardware4wifi10supplicant4V1_124BpHwSupplicantStaNetwork23getEapDomainSuffixMatchENSt3__18functionIFvRKNS2_4V1_016SupplicantStatusERKNS0_11hidl_stringEEEE",
   "parameters" :
   [
    {
     "is_this_ptr" : true,
     "referenced_type" : "_ZTIPN7android8hardware4wifi10supplicant4V1_124BpHwSupplicantStaNetworkE"
    },
    {
     "referenced_type" : "_ZTINSt3__18functionIFvRKN7android8hardware4wifi10supplicant4V1_016SupplicantStatusERKNS2_11hidl_stringEEEE"
    }
   ],
   "return_type" : "_ZTIN7android8hardware6ReturnIvEE",
   "source_file" : "/out/soong/.intermediates/hardware/interfaces/wifi/supplicant/1.1/android.hardware.wifi.supplicant@1.1_genc++_headers/gen/android/hardware/wifi/supplicant/1.1/BpHwSupplicantStaNetwork.h"
  },
  {
   "function_name" : "android::hardware::wifi::supplicant::V1_1::BpHwSupplicantStaNetwork::setEapAnonymousIdentity",
   "linker_set_key" : "_ZN7android8hardware4wifi10supplicant4V1_124BpHwSupplicantStaNetwork23setEapAnonymousIdentityERKNS0_8hidl_vecIhEENSt3__18functionIFvRKNS2_4V1_016SupplicantStatusEEEE",
   "parameters" :
   [
    {
     "is_this_ptr" : true,
     "referenced_type" : "_ZTIPN7android8hardware4wifi10supplicant4V1_124BpHwSupplicantStaNetworkE"
    },
    {
     "referenced_type" : "_ZTIRKN7android8hardware8hidl_vecIhEE"
    },
    {
     "referenced_type" : "_ZTINSt3__18functionIFvRKN7android8hardware4wifi10supplicant4V1_016SupplicantStatusEEEE"
    }
   ],
   "return_type" : "_ZTIN7android8hardware6ReturnIvEE",
   "source_file" : "/out/soong/.intermediates/hardware/interfaces/wifi/supplicant/1.1/android.hardware.wifi.supplicant@1.1_genc++_headers/gen/android/hardware/wifi/supplicant/1.1/BpHwSupplicantStaNetwork.h"
  },
  {
   "function_name" : "android::hardware::wifi::supplicant::V1_1::BpHwSupplicantStaNetwork::setEapDomainSuffixMatch",
   "linker_set_key" : "_ZN7android8hardware4wifi10supplicant4V1_124BpHwSupplicantStaNetwork23setEapDomainSuffixMatchERKNS0_11hidl_stringENSt3__18functionIFvRKNS2_4V1_016SupplicantStatusEEEE",
   "parameters" :
   [
    {
     "is_this_ptr" : true,
     "referenced_type" : "_ZTIPN7android8hardware4wifi10supplicant4V1_124BpHwSupplicantStaNetworkE"
    },
    {
     "referenced_type" : "_ZTIRKN7android8hardware11hidl_stringE"
    },
    {
     "referenced_type" : "_ZTINSt3__18functionIFvRKN7android8hardware4wifi10supplicant4V1_016SupplicantStatusEEEE"
    }
   ],
   "return_type" : "_ZTIN7android8hardware6ReturnIvEE",
   "source_file" : "/out/soong/.intermediates/hardware/interfaces/wifi/supplicant/1.1/android.hardware.wifi.supplicant@1.1_genc++_headers/gen/android/hardware/wifi/supplicant/1.1/BpHwSupplicantStaNetwork.h"
  },
  {
   "function_name" : "android::hardware::wifi::supplicant::V1_1::BpHwSupplicantStaNetwork::getWpsNfcConfigurationToken",
   "linker_set_key" : "_ZN7android8hardware4wifi10supplicant4V1_124BpHwSupplicantStaNetwork27getWpsNfcConfigurationTokenENSt3__18functionIFvRKNS2_4V1_016SupplicantStatusERKNS0_8hidl_vecIhEEEEE",
   "parameters" :
   [
    {
     "is_this_ptr" : true,
     "referenced_type" : "_ZTIPN7android8hardware4wifi10supplicant4V1_124BpHwSupplicantStaNetworkE"
    },
    {
     "referenced_type" : "_ZTINSt3__18functionIFvRKN7android8hardware4wifi10supplicant4V1_016SupplicantStatusERKNS2_8hidl_vecIhEEEEE"
    }
   ],
   "return_type" : "_ZTIN7android8hardware6ReturnIvEE",
   "source_file" : "/out/soong/.intermediates/hardware/interfaces/wifi/supplicant/1.1/android.hardware.wifi.supplicant@1.1_genc++_headers/gen/android/hardware/wifi/supplicant/1.1/BpHwSupplicantStaNetwork.h"
  },
  {
   "function_name" : "android::hardware::wifi::supplicant::V1_1::BpHwSupplicantStaNetwork::setEapEncryptedImsiIdentity",
   "linker_set_key" : "_ZN7android8hardware4wifi10supplicant4V1_124BpHwSupplicantStaNetwork27setEapEncryptedImsiIdentityERKNS0_8hidl_vecIhEENSt3__18functionIFvRKNS2_4V1_016SupplicantStatusEEEE",
   "parameters" :
   [
    {
     "is_this_ptr" : true,
     "referenced_type" : "_ZTIPN7android8hardware4wifi10supplicant4V1_124BpHwSupplicantStaNetworkE"
    },
    {
     "referenced_type" : "_ZTIRKN7android8hardware8hidl_vecIhEE"
    },
    {
     "referenced_type" : "_ZTINSt3__18functionIFvRKN7android8hardware4wifi10supplicant4V1_016SupplicantStatusEEEE"
    }
   ],
   "return_type" : "_ZTIN7android8hardware6ReturnIvEE",
   "source_file" : "/out/soong/.intermediates/hardware/interfaces/wifi/supplicant/1.1/android.hardware.wifi.supplicant@1.1_genc++_headers/gen/android/hardware/wifi/supplicant/1.1/BpHwSupplicantStaNetwork.h"
  },
  {
   "function_name" : "android::hardware::wifi::supplicant::V1_1::BpHwSupplicantStaNetwork::sendNetworkEapIdentityResponse",
   "linker_set_key" : "_ZN7android8hardware4wifi10supplicant4V1_124BpHwSupplicantStaNetwork30sendNetworkEapIdentityResponseERKNS0_8hidl_vecIhEENSt3__18functionIFvRKNS2_4V1_016SupplicantStatusEEEE",
   "parameters" :
   [
    {
     "is_this_ptr" : true,
     "referenced_type" : "_ZTIPN7android8hardware4wifi10supplicant4V1_124BpHwSupplicantStaNetworkE"
    },
    {
     "referenced_type" : "_ZTIRKN7android8hardware8hidl_vecIhEE"
    },
    {
     "referenced_type" : "_ZTINSt3__18functionIFvRKN7android8hardware4wifi10supplicant4V1_016SupplicantStatusEEEE"
    }
   ],
   "return_type" : "_ZTIN7android8hardware6ReturnIvEE",
   "source_file" : "/out/soong/.intermediates/hardware/interfaces/wifi/supplicant/1.1/android.hardware.wifi.supplicant@1.1_genc++_headers/gen/android/hardware/wifi/supplicant/1.1/BpHwSupplicantStaNetwork.h"
  },
  {
   "function_name" : "android::hardware::wifi::supplicant::V1_1::BpHwSupplicantStaNetwork::sendNetworkEapSimGsmAuthFailure",
   "linker_set_key" : "_ZN7android8hardware4wifi10supplicant4V1_124BpHwSupplicantStaNetwork31sendNetworkEapSimGsmAuthFailureENSt3__18functionIFvRKNS2_4V1_016SupplicantStatusEEEE",
   "parameters" :
   [
    {
     "is_this_ptr" : true,
     "referenced_type" : "_ZTIPN7android8hardware4wifi10supplicant4V1_124BpHwSupplicantStaNetworkE"
    },
    {
     "referenced_type" : "_ZTINSt3__18functionIFvRKN7android8hardware4wifi10supplicant4V1_016SupplicantStatusEEEE"
    }
   ],
   "return_type" : "_ZTIN7android8hardware6ReturnIvEE",
   "source_file" : "/out/soong/.intermediates/hardware/interfaces/wifi/supplicant/1.1/android.hardware.wifi.supplicant@1.1_genc++_headers/gen/android/hardware/wifi/supplicant/1.1/BpHwSupplicantStaNetwork.h"
  },
  {
   "function_name" : "android::hardware::wifi::supplicant::V1_1::BpHwSupplicantStaNetwork::sendNetworkEapSimGsmAuthResponse",
   "linker_set_key" : "_ZN7android8hardware4wifi10supplicant4V1_124BpHwSupplicantStaNetwork32sendNetworkEapSimGsmAuthResponseERKNS0_8hidl_vecINS2_4V1_021ISupplicantStaNetwork34NetworkResponseEapSimGsmAuthParamsEEENSt3__18functionIFvRKNS6_16SupplicantStatusEEEE",
   "parameters" :
   [
    {
     "is_this_ptr" : true,
     "referenced_type" : "_ZTIPN7android8hardware4wifi10supplicant4V1_124BpHwSupplicantStaNetworkE"
    },
    {
     "referenced_type" : "_ZTIRKN7android8hardware8hidl_vecINS0_4wifi10supplicant4V1_021ISupplicantStaNetwork34NetworkResponseEapSimGsmAuthParamsEEE"
    },
    {
     "referenced_type" : "_ZTINSt3__18functionIFvRKN7android8hardware4wifi10supplicant4V1_016SupplicantStatusEEEE"
    }
   ],
   "return_type" : "_ZTIN7android8hardware6ReturnIvEE",
   "source_file" : "/out/soong/.intermediates/hardware/interfaces/wifi/supplicant/1.1/android.hardware.wifi.supplicant@1.1_genc++_headers/gen/android/hardware/wifi/supplicant/1.1/BpHwSupplicantStaNetwork.h"
  },
  {
   "function_name" : "android::hardware::wifi::supplicant::V1_1::BpHwSupplicantStaNetwork::sendNetworkEapSimUmtsAuthFailure",
   "linker_set_key" : "_ZN7android8hardware4wifi10supplicant4V1_124BpHwSupplicantStaNetwork32sendNetworkEapSimUmtsAuthFailureENSt3__18functionIFvRKNS2_4V1_016SupplicantStatusEEEE",
   "parameters" :
   [
    {
     "is_this_ptr" : true,
     "referenced_type" : "_ZTIPN7android8hardware4wifi10supplicant4V1_124BpHwSupplicantStaNetworkE"
    },
    {
     "referenced_type" : "_ZTINSt3__18functionIFvRKN7android8hardware4wifi10supplicant4V1_016SupplicantStatusEEEE"
    }
   ],
   "return_type" : "_ZTIN7android8hardware6ReturnIvEE",
   "source_file" : "/out/soong/.intermediates/hardware/interfaces/wifi/supplicant/1.1/android.hardware.wifi.supplicant@1.1_genc++_headers/gen/android/hardware/wifi/supplicant/1.1/BpHwSupplicantStaNetwork.h"
  },
  {
   "function_name" : "android::hardware::wifi::supplicant::V1_1::BpHwSupplicantStaNetwork::_hidl_setEapEncryptedImsiIdentity",
   "linker_set_key" : "_ZN7android8hardware4wifi10supplicant4V1_124BpHwSupplicantStaNetwork33_hidl_setEapEncryptedImsiIdentityEPNS0_10IInterfaceEPNS0_7details16HidlInstrumentorERKNS0_8hidl_vecIhEENSt3__18functionIFvRKNS2_4V1_016SupplicantStatusEEEE",
   "parameters" :
   [
    {
     "referenced_type" : "_ZTIPN7android8hardware10IInterfaceE"
    },
    {
     "referenced_type" : "_ZTIPN7android8hardware7details16HidlInstrumentorE"
    },
    {
     "referenced_type" : "_ZTIRKN7android8hardware8hidl_vecIhEE"
    },
    {
     "referenced_type" : "_ZTINSt3__18functionIFvRKN7android8hardware4wifi10supplicant4V1_016SupplicantStatusEEEE"
    }
   ],
   "return_type" : "_ZTIN7android8hardware6ReturnIvEE",
   "source_file" : "/out/soong/.intermediates/hardware/interfaces/wifi/supplicant/1.1/android.hardware.wifi.supplicant@1.1_genc++_headers/gen/android/hardware/wifi/supplicant/1.1/BpHwSupplicantStaNetwork.h"
  },
  {
   "function_name" : "android::hardware::wifi::supplicant::V1_1::BpHwSupplicantStaNetwork::sendNetworkEapSimUmtsAuthResponse",
   "linker_set_key" : "_ZN7android8hardware4wifi10supplicant4V1_124BpHwSupplicantStaNetwork33sendNetworkEapSimUmtsAuthResponseERKNS2_4V1_021ISupplicantStaNetwork35NetworkResponseEapSimUmtsAuthParamsENSt3__18functionIFvRKNS5_16SupplicantStatusEEEE",
   "parameters" :
   [
    {
     "is_this_ptr" : true,
     "referenced_type" : "_ZTIPN7android8hardware4wifi10supplicant4V1_124BpHwSupplicantStaNetworkE"
    },
    {
     "referenced_type" : "_ZTIRKN7android8hardware4wifi10supplicant4V1_021ISupplicantStaNetwork35NetworkResponseEapSimUmtsAuthParamsE"
    },
    {
     "referenced_type" : "_ZTINSt3__18functionIFvRKN7android8hardware4wifi10supplicant4V1_016SupplicantStatusEEEE"
    }
   ],
   "return_type" : "_ZTIN7android8hardware6ReturnIvEE",
   "source_file" : "/out/soong/.intermediates/hardware/interfaces/wifi/supplicant/1.1/android.hardware.wifi.supplicant@1.1_genc++_headers/gen/android/hardware/wifi/supplicant/1.1/BpHwSupplicantStaNetwork.h"
  },
  {
   "function_name" : "android::hardware::wifi::supplicant::V1_1::BpHwSupplicantStaNetwork::sendNetworkEapSimUmtsAutsResponse",
   "linker_set_key" : "_ZN7android8hardware4wifi10supplicant4V1_124BpHwSupplicantStaNetwork33sendNetworkEapSimUmtsAutsResponseERKNS0_10hidl_arrayIhLj14EJEEENSt3__18functionIFvRKNS2_4V1_016SupplicantStatusEEEE",
   "parameters" :
   [
    {
     "is_this_ptr" : true,
     "referenced_type" : "_ZTIPN7android8hardware4wifi10supplicant4V1_124BpHwSupplicantStaNetworkE"
    },
    {
     "referenced_type" : "_ZTIRKN7android8hardware10hidl_arrayIhLj14EJEEE"
    },
    {
     "referenced_type" : "_ZTINSt3__18functionIFvRKN7android8hardware4wifi10supplicant4V1_016SupplicantStatusEEEE"
    }
   ],
   "return_type" : "_ZTIN7android8hardware6ReturnIvEE",
   "source_file" : "/out/soong/.intermediates/hardware/interfaces/wifi/supplicant/1.1/android.hardware.wifi.supplicant@1.1_genc++_headers/gen/android/hardware/wifi/supplicant/1.1/BpHwSupplicantStaNetwork.h"
  },
  {
   "function_name" : "android::hardware::wifi::supplicant::V1_1::BpHwSupplicantStaNetwork::sendNetworkEapIdentityResponse_1_1",
   "linker_set_key" : "_ZN7android8hardware4wifi10supplicant4V1_124BpHwSupplicantStaNetwork34sendNetworkEapIdentityResponse_1_1ERKNS0_8hidl_vecIhEES8_NSt3__18functionIFvRKNS2_4V1_016SupplicantStatusEEEE",
   "parameters" :
   [
    {
     "is_this_ptr" : true,
     "referenced_type" : "_ZTIPN7android8hardware4wifi10supplicant4V1_124BpHwSupplicantStaNetworkE"
    },
    {
     "referenced_type" : "_ZTIRKN7android8hardware8hidl_vecIhEE"
    },
    {
     "referenced_type" : "_ZTIRKN7android8hardware8hidl_vecIhEE"
    },
    {
     "referenced_type" : "_ZTINSt3__18functionIFvRKN7android8hardware4wifi10supplicant4V1_016SupplicantStatusEEEE"
    }
   ],
   "return_type" : "_ZTIN7android8hardware6ReturnIvEE",
   "source_file" : "/out/soong/.intermediates/hardware/interfaces/wifi/supplicant/1.1/android.hardware.wifi.supplicant@1.1_genc++_headers/gen/android/hardware/wifi/supplicant/1.1/BpHwSupplicantStaNetwork.h"
  },
  {
   "function_name" : "android::hardware::wifi::supplicant::V1_1::BpHwSupplicantStaNetwork::_hidl_sendNetworkEapIdentityResponse_1_1",
   "linker_set_key" : "_ZN7android8hardware4wifi10supplicant4V1_124BpHwSupplicantStaNetwork40_hidl_sendNetworkEapIdentityResponse_1_1EPNS0_10IInterfaceEPNS0_7details16HidlInstrumentorERKNS0_8hidl_vecIhEESD_NSt3__18functionIFvRKNS2_4V1_016SupplicantStatusEEEE",
   "parameters" :
   [
    {
     "referenced_type" : "_ZTIPN7android8hardware10IInterfaceE"
    },
    {
     "referenced_type" : "_ZTIPN7android8hardware7details16HidlInstrumentorE"
    },
    {
     "referenced_type" : "_ZTIRKN7android8hardware8hidl_vecIhEE"
    },
    {
     "referenced_type" : "_ZTIRKN7android8hardware8hidl_vecIhEE"
    },
    {
     "referenced_type" : "_ZTINSt3__18functionIFvRKN7android8hardware4wifi10supplicant4V1_016SupplicantStatusEEEE"
    }
   ],
   "return_type" : "_ZTIN7android8hardware6ReturnIvEE",
   "source_file" : "/out/soong/.intermediates/hardware/interfaces/wifi/supplicant/1.1/android.hardware.wifi.supplicant@1.1_genc++_headers/gen/android/hardware/wifi/supplicant/1.1/BpHwSupplicantStaNetwork.h"
  },
  {
   "function_name" : "android::hardware::wifi::supplicant::V1_1::BpHwSupplicantStaNetwork::ping",
   "linker_set_key" : "_ZN7android8hardware4wifi10supplicant4V1_124BpHwSupplicantStaNetwork4pingEv",
   "parameters" :
   [
    {
     "is_this_ptr" : true,
     "referenced_type" : "_ZTIPN7android8hardware4wifi10supplicant4V1_124BpHwSupplicantStaNetworkE"
    }
   ],
   "return_type" : "_ZTIN7android8hardware6ReturnIvEE",
   "source_file" : "/out/soong/.intermediates/hardware/interfaces/wifi/supplicant/1.1/android.hardware.wifi.supplicant@1.1_genc++_headers/gen/android/hardware/wifi/supplicant/1.1/BpHwSupplicantStaNetwork.h"
  },
  {
   "function_name" : "android::hardware::wifi::supplicant::V1_1::BpHwSupplicantStaNetwork::debug",
   "linker_set_key" : "_ZN7android8hardware4wifi10supplicant4V1_124BpHwSupplicantStaNetwork5debugERKNS0_11hidl_handleERKNS0_8hidl_vecINS0_11hidl_stringEEE",
   "parameters" :
   [
    {
     "is_this_ptr" : true,
     "referenced_type" : "_ZTIPN7android8hardware4wifi10supplicant4V1_124BpHwSupplicantStaNetworkE"
    },
    {
     "referenced_type" : "_ZTIRKN7android8hardware11hidl_handleE"
    },
    {
     "referenced_type" : "_ZTIRKN7android8hardware8hidl_vecINS0_11hidl_stringEEE"
    }
   ],
   "return_type" : "_ZTIN7android8hardware6ReturnIvEE",
   "source_file" : "/out/soong/.intermediates/hardware/interfaces/wifi/supplicant/1.1/android.hardware.wifi.supplicant@1.1_genc++_headers/gen/android/hardware/wifi/supplicant/1.1/BpHwSupplicantStaNetwork.h"
  },
  {
   "function_name" : "android::hardware::wifi::supplicant::V1_1::BpHwSupplicantStaNetwork::getId",
   "linker_set_key" : "_ZN7android8hardware4wifi10supplicant4V1_124BpHwSupplicantStaNetwork5getIdENSt3__18functionIFvRKNS2_4V1_016SupplicantStatusEjEEE",
   "parameters" :
   [
    {
     "is_this_ptr" : true,
     "referenced_type" : "_ZTIPN7android8hardware4wifi10supplicant4V1_124BpHwSupplicantStaNetworkE"
    },
    {
     "referenced_type" : "_ZTINSt3__18functionIFvRKN7android8hardware4wifi10supplicant4V1_016SupplicantStatusEjEEE"
    }
   ],
   "return_type" : "_ZTIN7android8hardware6ReturnIvEE",
   "source_file" : "/out/soong/.intermediates/hardware/interfaces/wifi/supplicant/1.1/android.hardware.wifi.supplicant@1.1_genc++_headers/gen/android/hardware/wifi/supplicant/1.1/BpHwSupplicantStaNetwork.h"
  },
  {
   "function_name" : "android::hardware::wifi::supplicant::V1_1::BpHwSupplicantStaNetwork::enable",
   "linker_set_key" : "_ZN7android8hardware4wifi10supplicant4V1_124BpHwSupplicantStaNetwork6enableEbNSt3__18functionIFvRKNS2_4V1_016SupplicantStatusEEEE",
   "parameters" :
   [
    {
     "is_this_ptr" : true,
     "referenced_type" : "_ZTIPN7android8hardware4wifi10supplicant4V1_124BpHwSupplicantStaNetworkE"
    },
    {
     "referenced_type" : "_ZTIb"
    },
    {
     "referenced_type" : "_ZTINSt3__18functionIFvRKN7android8hardware4wifi10supplicant4V1_016SupplicantStatusEEEE"
    }
   ],
   "return_type" : "_ZTIN7android8hardware6ReturnIvEE",
   "source_file" : "/out/soong/.intermediates/hardware/interfaces/wifi/supplicant/1.1/android.hardware.wifi.supplicant@1.1_genc++_headers/gen/android/hardware/wifi/supplicant/1.1/BpHwSupplicantStaNetwork.h"
  },
  {
   "function_name" : "android::hardware::wifi::supplicant::V1_1::BpHwSupplicantStaNetwork::getPsk",
   "linker_set_key" : "_ZN7android8hardware4wifi10supplicant4V1_124BpHwSupplicantStaNetwork6getPskENSt3__18functionIFvRKNS2_4V1_016SupplicantStatusERKNS0_10hidl_arrayIhLj32EJEEEEEE",
   "parameters" :
   [
    {
     "is_this_ptr" : true,
     "referenced_type" : "_ZTIPN7android8hardware4wifi10supplicant4V1_124BpHwSupplicantStaNetworkE"
    },
    {
     "referenced_type" : "_ZTINSt3__18functionIFvRKN7android8hardware4wifi10supplicant4V1_016SupplicantStatusERKNS2_10hidl_arrayIhLj32EJEEEEEE"
    }
   ],
   "return_type" : "_ZTIN7android8hardware6ReturnIvEE",
   "source_file" : "/out/soong/.intermediates/hardware/interfaces/wifi/supplicant/1.1/android.hardware.wifi.supplicant@1.1_genc++_headers/gen/android/hardware/wifi/supplicant/1.1/BpHwSupplicantStaNetwork.h"
  },
  {
   "function_name" : "android::hardware::wifi::supplicant::V1_1::BpHwSupplicantStaNetwork::select",
   "linker_set_key" : "_ZN7android8hardware4wifi10supplicant4V1_124BpHwSupplicantStaNetwork6selectENSt3__18functionIFvRKNS2_4V1_016SupplicantStatusEEEE",
   "parameters" :
   [
    {
     "is_this_ptr" : true,
     "referenced_type" : "_ZTIPN7android8hardware4wifi10supplicant4V1_124BpHwSupplicantStaNetworkE"
    },
    {
     "referenced_type" : "_ZTINSt3__18functionIFvRKN7android8hardware4wifi10supplicant4V1_016SupplicantStatusEEEE"
    }
   ],
   "return_type" : "_ZTIN7android8hardware6ReturnIvEE",
   "source_file" : "/out/soong/.intermediates/hardware/interfaces/wifi/supplicant/1.1/android.hardware.wifi.supplicant@1.1_genc++_headers/gen/android/hardware/wifi/supplicant/1.1/BpHwSupplicantStaNetwork.h"
  },
  {
   "function_name" : "android::hardware::wifi::supplicant::V1_1::BpHwSupplicantStaNetwork::setPsk",
   "linker_set_key" : "_ZN7android8hardware4wifi10supplicant4V1_124BpHwSupplicantStaNetwork6setPskERKNS0_10hidl_arrayIhLj32EJEEENSt3__18functionIFvRKNS2_4V1_016SupplicantStatusEEEE",
   "parameters" :
   [
    {
     "is_this_ptr" : true,
     "referenced_type" : "_ZTIPN7android8hardware4wifi10supplicant4V1_124BpHwSupplicantStaNetworkE"
    },
    {
     "referenced_type" : "_ZTIRKN7android8hardware10hidl_arrayIhLj32EJEEE"
    },
    {
     "referenced_type" : "_ZTINSt3__18functionIFvRKN7android8hardware4wifi10supplicant4V1_016SupplicantStatusEEEE"
    }
   ],
   "return_type" : "_ZTIN7android8hardware6ReturnIvEE",
   "source_file" : "/out/soong/.intermediates/hardware/interfaces/wifi/supplicant/1.1/android.hardware.wifi.supplicant@1.1_genc++_headers/gen/android/hardware/wifi/supplicant/1.1/BpHwSupplicantStaNetwork.h"
  },
  {
   "function_name" : "android::hardware::wifi::supplicant::V1_1::BpHwSupplicantStaNetwork::disable",
   "linker_set_key" : "_ZN7android8hardware4wifi10supplicant4V1_124BpHwSupplicantStaNetwork7disableENSt3__18functionIFvRKNS2_4V1_016SupplicantStatusEEEE",
   "parameters" :
   [
    {
     "is_this_ptr" : true,
     "referenced_type" : "_ZTIPN7android8hardware4wifi10supplicant4V1_124BpHwSupplicantStaNetworkE"
    },
    {
     "referenced_type" : "_ZTINSt3__18functionIFvRKN7android8hardware4wifi10supplicant4V1_016SupplicantStatusEEEE"
    }
   ],
   "return_type" : "_ZTIN7android8hardware6ReturnIvEE",
   "source_file" : "/out/soong/.intermediates/hardware/interfaces/wifi/supplicant/1.1/android.hardware.wifi.supplicant@1.1_genc++_headers/gen/android/hardware/wifi/supplicant/1.1/BpHwSupplicantStaNetwork.h"
  },
  {
   "function_name" : "android::hardware::wifi::supplicant::V1_1::BpHwSupplicantStaNetwork::getSsid",
   "linker_set_key" : "_ZN7android8hardware4wifi10supplicant4V1_124BpHwSupplicantStaNetwork7getSsidENSt3__18functionIFvRKNS2_4V1_016SupplicantStatusERKNS0_8hidl_vecIhEEEEE",
   "parameters" :
   [
    {
     "is_this_ptr" : true,
     "referenced_type" : "_ZTIPN7android8hardware4wifi10supplicant4V1_124BpHwSupplicantStaNetworkE"
    },
    {
     "referenced_type" : "_ZTINSt3__18functionIFvRKN7android8hardware4wifi10supplicant4V1_016SupplicantStatusERKNS2_8hidl_vecIhEEEEE"
    }
   ],
   "return_type" : "_ZTIN7android8hardware6ReturnIvEE",
   "source_file" : "/out/soong/.intermediates/hardware/interfaces/wifi/supplicant/1.1/android.hardware.wifi.supplicant@1.1_genc++_headers/gen/android/hardware/wifi/supplicant/1.1/BpHwSupplicantStaNetwork.h"
  },
  {
   "function_name" : "android::hardware::wifi::supplicant::V1_1::BpHwSupplicantStaNetwork::getType",
   "linker_set_key" : "_ZN7android8hardware4wifi10supplicant4V1_124BpHwSupplicantStaNetwork7getTypeENSt3__18functionIFvRKNS2_4V1_016SupplicantStatusENS7_9IfaceTypeEEEE",
   "parameters" :
   [
    {
     "is_this_ptr" : true,
     "referenced_type" : "_ZTIPN7android8hardware4wifi10supplicant4V1_124BpHwSupplicantStaNetworkE"
    },
    {
     "referenced_type" : "_ZTINSt3__18functionIFvRKN7android8hardware4wifi10supplicant4V1_016SupplicantStatusENS5_9IfaceTypeEEEE"
    }
   ],
   "return_type" : "_ZTIN7android8hardware6ReturnIvEE",
   "source_file" : "/out/soong/.intermediates/hardware/interfaces/wifi/supplicant/1.1/android.hardware.wifi.supplicant@1.1_genc++_headers/gen/android/hardware/wifi/supplicant/1.1/BpHwSupplicantStaNetwork.h"
  },
  {
   "function_name" : "android::hardware::wifi::supplicant::V1_1::BpHwSupplicantStaNetwork::setSsid",
   "linker_set_key" : "_ZN7android8hardware4wifi10supplicant4V1_124BpHwSupplicantStaNetwork7setSsidERKNS0_8hidl_vecIhEENSt3__18functionIFvRKNS2_4V1_016SupplicantStatusEEEE",
   "parameters" :
   [
    {
     "is_this_ptr" : true,
     "referenced_type" : "_ZTIPN7android8hardware4wifi10supplicant4V1_124BpHwSupplicantStaNetworkE"
    },
    {
     "referenced_type" : "_ZTIRKN7android8hardware8hidl_vecIhEE"
    },
    {
     "referenced_type" : "_ZTINSt3__18functionIFvRKN7android8hardware4wifi10supplicant4V1_016SupplicantStatusEEEE"
    }
   ],
   "return_type" : "_ZTIN7android8hardware6ReturnIvEE",
   "source_file" : "/out/soong/.intermediates/hardware/interfaces/wifi/supplicant/1.1/android.hardware.wifi.supplicant@1.1_genc++_headers/gen/android/hardware/wifi/supplicant/1.1/BpHwSupplicantStaNetwork.h"
  },
  {
   "function_name" : "android::hardware::wifi::supplicant::V1_1::BpHwSupplicantStaNetwork::getBssid",
   "linker_set_key" : "_ZN7android8hardware4wifi10supplicant4V1_124BpHwSupplicantStaNetwork8getBssidENSt3__18functionIFvRKNS2_4V1_016SupplicantStatusERKNS0_10hidl_arrayIhLj6EJEEEEEE",
   "parameters" :
   [
    {
     "is_this_ptr" : true,
     "referenced_type" : "_ZTIPN7android8hardware4wifi10supplicant4V1_124BpHwSupplicantStaNetworkE"
    },
    {
     "referenced_type" : "_ZTINSt3__18functionIFvRKN7android8hardware4wifi10supplicant4V1_016SupplicantStatusERKNS2_10hidl_arrayIhLj6EJEEEEEE"
    }
   ],
   "return_type" : "_ZTIN7android8hardware6ReturnIvEE",
   "source_file" : "/out/soong/.intermediates/hardware/interfaces/wifi/supplicant/1.1/android.hardware.wifi.supplicant@1.1_genc++_headers/gen/android/hardware/wifi/supplicant/1.1/BpHwSupplicantStaNetwork.h"
  },
  {
   "function_name" : "android::hardware::wifi::supplicant::V1_1::BpHwSupplicantStaNetwork::getIdStr",
   "linker_set_key" : "_ZN7android8hardware4wifi10supplicant4V1_124BpHwSupplicantStaNetwork8getIdStrENSt3__18functionIFvRKNS2_4V1_016SupplicantStatusERKNS0_11hidl_stringEEEE",
   "parameters" :
   [
    {
     "is_this_ptr" : true,
     "referenced_type" : "_ZTIPN7android8hardware4wifi10supplicant4V1_124BpHwSupplicantStaNetworkE"
    },
    {
     "referenced_type" : "_ZTINSt3__18functionIFvRKN7android8hardware4wifi10supplicant4V1_016SupplicantStatusERKNS2_11hidl_stringEEEE"
    }
   ],
   "return_type" : "_ZTIN7android8hardware6ReturnIvEE",
   "source_file" : "/out/soong/.intermediates/hardware/interfaces/wifi/supplicant/1.1/android.hardware.wifi.supplicant@1.1_genc++_headers/gen/android/hardware/wifi/supplicant/1.1/BpHwSupplicantStaNetwork.h"
  },
  {
   "function_name" : "android::hardware::wifi::supplicant::V1_1::BpHwSupplicantStaNetwork::getProto",
   "linker_set_key" : "_ZN7android8hardware4wifi10supplicant4V1_124BpHwSupplicantStaNetwork8getProtoENSt3__18functionIFvRKNS2_4V1_016SupplicantStatusEjEEE",
   "parameters" :
   [
    {
     "is_this_ptr" : true,
     "referenced_type" : "_ZTIPN7android8hardware4wifi10supplicant4V1_124BpHwSupplicantStaNetworkE"
    },
    {
     "referenced_type" : "_ZTINSt3__18functionIFvRKN7android8hardware4wifi10supplicant4V1_016SupplicantStatusEjEEE"
    }
   ],
   "return_type" : "_ZTIN7android8hardware6ReturnIvEE",
   "source_file" : "/out/soong/.intermediates/hardware/interfaces/wifi/supplicant/1.1/android.hardware.wifi.supplicant@1.1_genc++_headers/gen/android/hardware/wifi/supplicant/1.1/BpHwSupplicantStaNetwork.h"
  },
  {
   "function_name" : "android::hardware::wifi::supplicant::V1_1::BpHwSupplicantStaNetwork::setBssid",
   "linker_set_key" : "_ZN7android8hardware4wifi10supplicant4V1_124BpHwSupplicantStaNetwork8setBssidERKNS0_10hidl_arrayIhLj6EJEEENSt3__18functionIFvRKNS2_4V1_016SupplicantStatusEEEE",
   "parameters" :
   [
    {
     "is_this_ptr" : true,
     "referenced_type" : "_ZTIPN7android8hardware4wifi10supplicant4V1_124BpHwSupplicantStaNetworkE"
    },
    {
     "referenced_type" : "_ZTIRKN7android8hardware10hidl_arrayIhLj6EJEEE"
    },
    {
     "referenced_type" : "_ZTINSt3__18functionIFvRKN7android8hardware4wifi10supplicant4V1_016SupplicantStatusEEEE"
    }
   ],
   "return_type" : "_ZTIN7android8hardware6ReturnIvEE",
   "source_file" : "/out/soong/.intermediates/hardware/interfaces/wifi/supplicant/1.1/android.hardware.wifi.supplicant@1.1_genc++_headers/gen/android/hardware/wifi/supplicant/1.1/BpHwSupplicantStaNetwork.h"
  },
  {
   "function_name" : "android::hardware::wifi::supplicant::V1_1::BpHwSupplicantStaNetwork::setIdStr",
   "linker_set_key" : "_ZN7android8hardware4wifi10supplicant4V1_124BpHwSupplicantStaNetwork8setIdStrERKNS0_11hidl_stringENSt3__18functionIFvRKNS2_4V1_016SupplicantStatusEEEE",
   "parameters" :
   [
    {
     "is_this_ptr" : true,
     "referenced_type" : "_ZTIPN7android8hardware4wifi10supplicant4V1_124BpHwSupplicantStaNetworkE"
    },
    {
     "referenced_type" : "_ZTIRKN7android8hardware11hidl_stringE"
    },
    {
     "referenced_type" : "_ZTINSt3__18functionIFvRKN7android8hardware4wifi10supplicant4V1_016SupplicantStatusEEEE"
    }
   ],
   "return_type" : "_ZTIN7android8hardware6ReturnIvEE",
   "source_file" : "/out/soong/.intermediates/hardware/interfaces/wifi/supplicant/1.1/android.hardware.wifi.supplicant@1.1_genc++_headers/gen/android/hardware/wifi/supplicant/1.1/BpHwSupplicantStaNetwork.h"
  },
  {
   "function_name" : "android::hardware::wifi::supplicant::V1_1::BpHwSupplicantStaNetwork::setProto",
   "linker_set_key" : "_ZN7android8hardware4wifi10supplicant4V1_124BpHwSupplicantStaNetwork8setProtoEjNSt3__18functionIFvRKNS2_4V1_016SupplicantStatusEEEE",
   "parameters" :
   [
    {
     "is_this_ptr" : true,
     "referenced_type" : "_ZTIPN7android8hardware4wifi10supplicant4V1_124BpHwSupplicantStaNetworkE"
    },
    {
     "referenced_type" : "_ZTIj"
    },
    {
     "referenced_type" : "_ZTINSt3__18functionIFvRKN7android8hardware4wifi10supplicant4V1_016SupplicantStatusEEEE"
    }
   ],
   "return_type" : "_ZTIN7android8hardware6ReturnIvEE",
   "source_file" : "/out/soong/.intermediates/hardware/interfaces/wifi/supplicant/1.1/android.hardware.wifi.supplicant@1.1_genc++_headers/gen/android/hardware/wifi/supplicant/1.1/BpHwSupplicantStaNetwork.h"
  },
  {
   "function_name" : "android::hardware::wifi::supplicant::V1_1::BpHwSupplicantStaNetwork::getWepKey",
   "linker_set_key" : "_ZN7android8hardware4wifi10supplicant4V1_124BpHwSupplicantStaNetwork9getWepKeyEjNSt3__18functionIFvRKNS2_4V1_016SupplicantStatusERKNS0_8hidl_vecIhEEEEE",
   "parameters" :
   [
    {
     "is_this_ptr" : true,
     "referenced_type" : "_ZTIPN7android8hardware4wifi10supplicant4V1_124BpHwSupplicantStaNetworkE"
    },
    {
     "referenced_type" : "_ZTIj"
    },
    {
     "referenced_type" : "_ZTINSt3__18functionIFvRKN7android8hardware4wifi10supplicant4V1_016SupplicantStatusERKNS2_8hidl_vecIhEEEEE"
    }
   ],
   "return_type" : "_ZTIN7android8hardware6ReturnIvEE",
   "source_file" : "/out/soong/.intermediates/hardware/interfaces/wifi/supplicant/1.1/android.hardware.wifi.supplicant@1.1_genc++_headers/gen/android/hardware/wifi/supplicant/1.1/BpHwSupplicantStaNetwork.h"
  },
  {
   "function_name" : "android::hardware::wifi::supplicant::V1_1::BpHwSupplicantStaNetwork::setWepKey",
   "linker_set_key" : "_ZN7android8hardware4wifi10supplicant4V1_124BpHwSupplicantStaNetwork9setWepKeyEjRKNS0_8hidl_vecIhEENSt3__18functionIFvRKNS2_4V1_016SupplicantStatusEEEE",
   "parameters" :
   [
    {
     "is_this_ptr" : true,
     "referenced_type" : "_ZTIPN7android8hardware4wifi10supplicant4V1_124BpHwSupplicantStaNetworkE"
    },
    {
     "referenced_type" : "_ZTIj"
    },
    {
     "referenced_type" : "_ZTIRKN7android8hardware8hidl_vecIhEE"
    },
    {
     "referenced_type" : "_ZTINSt3__18functionIFvRKN7android8hardware4wifi10supplicant4V1_016SupplicantStatusEEEE"
    }
   ],
   "return_type" : "_ZTIN7android8hardware6ReturnIvEE",
   "source_file" : "/out/soong/.intermediates/hardware/interfaces/wifi/supplicant/1.1/android.hardware.wifi.supplicant@1.1_genc++_headers/gen/android/hardware/wifi/supplicant/1.1/BpHwSupplicantStaNetwork.h"
  },
  {
   "function_name" : "android::hardware::wifi::supplicant::V1_1::BpHwSupplicantStaNetwork::BpHwSupplicantStaNetwork",
   "linker_set_key" : "_ZN7android8hardware4wifi10supplicant4V1_124BpHwSupplicantStaNetworkC1ERKNS_2spINS0_7IBinderEEE",
   "parameters" :
   [
    {
     "is_this_ptr" : true,
     "referenced_type" : "_ZTIPN7android8hardware4wifi10supplicant4V1_124BpHwSupplicantStaNetworkE"
    },
    {
     "referenced_type" : "_ZTIRKN7android2spINS_8hardware7IBinderEEE"
    }
   ],
   "return_type" : "_ZTIv",
   "source_file" : "/out/soong/.intermediates/hardware/interfaces/wifi/supplicant/1.1/android.hardware.wifi.supplicant@1.1_genc++_headers/gen/android/hardware/wifi/supplicant/1.1/BpHwSupplicantStaNetwork.h"
  },
  {
   "function_name" : "android::hardware::wifi::supplicant::V1_1::BpHwSupplicantStaNetwork::BpHwSupplicantStaNetwork",
   "linker_set_key" : "_ZN7android8hardware4wifi10supplicant4V1_124BpHwSupplicantStaNetworkC2ERKNS_2spINS0_7IBinderEEE",
   "parameters" :
   [
    {
     "is_this_ptr" : true,
     "referenced_type" : "_ZTIPN7android8hardware4wifi10supplicant4V1_124BpHwSupplicantStaNetworkE"
    },
    {
     "referenced_type" : "_ZTIRKN7android2spINS_8hardware7IBinderEEE"
    }
   ],
   "return_type" : "_ZTIv",
   "source_file" : "/out/soong/.intermediates/hardware/interfaces/wifi/supplicant/1.1/android.hardware.wifi.supplicant@1.1_genc++_headers/gen/android/hardware/wifi/supplicant/1.1/BpHwSupplicantStaNetwork.h"
  },
  {
   "function_name" : "android::hardware::wifi::supplicant::V1_1::ISupplicantStaIfaceCallback::getService",
   "linker_set_key" : "_ZN7android8hardware4wifi10supplicant4V1_127ISupplicantStaIfaceCallback10getServiceERKNSt3__112basic_stringIcNS5_11char_traitsIcEENS5_9allocatorIcEEEEb",
   "parameters" :
   [
    {
     "default_arg" : true,
     "referenced_type" : "_ZTIRKNSt3__112basic_stringIcNS_11char_traitsIcEENS_9allocatorIcEEEE"
    },
    {
     "default_arg" : true,
     "referenced_type" : "_ZTIb"
    }
   ],
   "return_type" : "_ZTIN7android2spINS_8hardware4wifi10supplicant4V1_127ISupplicantStaIfaceCallbackEEE",
   "source_file" : "/out/soong/.intermediates/hardware/interfaces/wifi/supplicant/1.1/android.hardware.wifi.supplicant@1.1_genc++_headers/gen/android/hardware/wifi/supplicant/1.1/ISupplicantStaIfaceCallback.h"
  },
  {
   "function_name" : "android::hardware::wifi::supplicant::V1_1::ISupplicantStaIfaceCallback::linkToDeath",
   "linker_set_key" : "_ZN7android8hardware4wifi10supplicant4V1_127ISupplicantStaIfaceCallback11linkToDeathERKNS_2spINS0_20hidl_death_recipientEEEy",
   "parameters" :
   [
    {
     "is_this_ptr" : true,
     "referenced_type" : "_ZTIPN7android8hardware4wifi10supplicant4V1_127ISupplicantStaIfaceCallbackE"
    },
    {
     "referenced_type" : "_ZTIRKN7android2spINS_8hardware20hidl_death_recipientEEE"
    },
    {
     "referenced_type" : "_ZTIy"
    }
   ],
   "return_type" : "_ZTIN7android8hardware6ReturnIbEE",
   "source_file" : "/out/soong/.intermediates/hardware/interfaces/wifi/supplicant/1.1/android.hardware.wifi.supplicant@1.1_genc++_headers/gen/android/hardware/wifi/supplicant/1.1/ISupplicantStaIfaceCallback.h"
  },
  {
   "function_name" : "android::hardware::wifi::supplicant::V1_1::ISupplicantStaIfaceCallback::getDebugInfo",
   "linker_set_key" : "_ZN7android8hardware4wifi10supplicant4V1_127ISupplicantStaIfaceCallback12getDebugInfoENSt3__18functionIFvRKNS_4hidl4base4V1_09DebugInfoEEEE",
   "parameters" :
   [
    {
     "is_this_ptr" : true,
     "referenced_type" : "_ZTIPN7android8hardware4wifi10supplicant4V1_127ISupplicantStaIfaceCallbackE"
    },
    {
     "referenced_type" : "_ZTINSt3__18functionIFvRKN7android4hidl4base4V1_09DebugInfoEEEE"
    }
   ],
   "return_type" : "_ZTIN7android8hardware6ReturnIvEE",
   "source_file" : "/out/soong/.intermediates/hardware/interfaces/wifi/supplicant/1.1/android.hardware.wifi.supplicant@1.1_genc++_headers/gen/android/hardware/wifi/supplicant/1.1/ISupplicantStaIfaceCallback.h"
  },
  {
   "function_name" : "android::hardware::wifi::supplicant::V1_1::ISupplicantStaIfaceCallback::getHashChain",
   "linker_set_key" : "_ZN7android8hardware4wifi10supplicant4V1_127ISupplicantStaIfaceCallback12getHashChainENSt3__18functionIFvRKNS0_8hidl_vecINS0_10hidl_arrayIhLj32EJEEEEEEEE",
   "parameters" :
   [
    {
     "is_this_ptr" : true,
     "referenced_type" : "_ZTIPN7android8hardware4wifi10supplicant4V1_127ISupplicantStaIfaceCallbackE"
    },
    {
     "referenced_type" : "_ZTINSt3__18functionIFvRKN7android8hardware8hidl_vecINS2_10hidl_arrayIhLj32EJEEEEEEEE"
    }
   ],
   "return_type" : "_ZTIN7android8hardware6ReturnIvEE",
   "source_file" : "/out/soong/.intermediates/hardware/interfaces/wifi/supplicant/1.1/android.hardware.wifi.supplicant@1.1_genc++_headers/gen/android/hardware/wifi/supplicant/1.1/ISupplicantStaIfaceCallback.h"
  },
  {
   "function_name" : "android::hardware::wifi::supplicant::V1_1::ISupplicantStaIfaceCallback::tryGetService",
   "linker_set_key" : "_ZN7android8hardware4wifi10supplicant4V1_127ISupplicantStaIfaceCallback13tryGetServiceERKNSt3__112basic_stringIcNS5_11char_traitsIcEENS5_9allocatorIcEEEEb",
   "parameters" :
   [
    {
     "default_arg" : true,
     "referenced_type" : "_ZTIRKNSt3__112basic_stringIcNS_11char_traitsIcEENS_9allocatorIcEEEE"
    },
    {
     "default_arg" : true,
     "referenced_type" : "_ZTIb"
    }
   ],
   "return_type" : "_ZTIN7android2spINS_8hardware4wifi10supplicant4V1_127ISupplicantStaIfaceCallbackEEE",
   "source_file" : "/out/soong/.intermediates/hardware/interfaces/wifi/supplicant/1.1/android.hardware.wifi.supplicant@1.1_genc++_headers/gen/android/hardware/wifi/supplicant/1.1/ISupplicantStaIfaceCallback.h"
  },
  {
   "function_name" : "android::hardware::wifi::supplicant::V1_1::ISupplicantStaIfaceCallback::unlinkToDeath",
   "linker_set_key" : "_ZN7android8hardware4wifi10supplicant4V1_127ISupplicantStaIfaceCallback13unlinkToDeathERKNS_2spINS0_20hidl_death_recipientEEE",
   "parameters" :
   [
    {
     "is_this_ptr" : true,
     "referenced_type" : "_ZTIPN7android8hardware4wifi10supplicant4V1_127ISupplicantStaIfaceCallbackE"
    },
    {
     "referenced_type" : "_ZTIRKN7android2spINS_8hardware20hidl_death_recipientEEE"
    }
   ],
   "return_type" : "_ZTIN7android8hardware6ReturnIbEE",
   "source_file" : "/out/soong/.intermediates/hardware/interfaces/wifi/supplicant/1.1/android.hardware.wifi.supplicant@1.1_genc++_headers/gen/android/hardware/wifi/supplicant/1.1/ISupplicantStaIfaceCallback.h"
  },
  {
   "function_name" : "android::hardware::wifi::supplicant::V1_1::ISupplicantStaIfaceCallback::interfaceChain",
   "linker_set_key" : "_ZN7android8hardware4wifi10supplicant4V1_127ISupplicantStaIfaceCallback14interfaceChainENSt3__18functionIFvRKNS0_8hidl_vecINS0_11hidl_stringEEEEEE",
   "parameters" :
   [
    {
     "is_this_ptr" : true,
     "referenced_type" : "_ZTIPN7android8hardware4wifi10supplicant4V1_127ISupplicantStaIfaceCallbackE"
    },
    {
     "referenced_type" : "_ZTINSt3__18functionIFvRKN7android8hardware8hidl_vecINS2_11hidl_stringEEEEEE"
    }
   ],
   "return_type" : "_ZTIN7android8hardware6ReturnIvEE",
   "source_file" : "/out/soong/.intermediates/hardware/interfaces/wifi/supplicant/1.1/android.hardware.wifi.supplicant@1.1_genc++_headers/gen/android/hardware/wifi/supplicant/1.1/ISupplicantStaIfaceCallback.h"
  },
  {
   "function_name" : "android::hardware::wifi::supplicant::V1_1::ISupplicantStaIfaceCallback::registerAsService",
   "linker_set_key" : "_ZN7android8hardware4wifi10supplicant4V1_127ISupplicantStaIfaceCallback17registerAsServiceERKNSt3__112basic_stringIcNS5_11char_traitsIcEENS5_9allocatorIcEEEE",
   "parameters" :
   [
    {
     "is_this_ptr" : true,
     "referenced_type" : "_ZTIPN7android8hardware4wifi10supplicant4V1_127ISupplicantStaIfaceCallbackE"
    },
    {
     "default_arg" : true,
     "referenced_type" : "_ZTIRKNSt3__112basic_stringIcNS_11char_traitsIcEENS_9allocatorIcEEEE"
    }
   ],
   "return_type" : "_ZTIi",
   "source_file" : "/out/soong/.intermediates/hardware/interfaces/wifi/supplicant/1.1/android.hardware.wifi.supplicant@1.1_genc++_headers/gen/android/hardware/wifi/supplicant/1.1/ISupplicantStaIfaceCallback.h"
  },
  {
   "function_name" : "android::hardware::wifi::supplicant::V1_1::ISupplicantStaIfaceCallback::interfaceDescriptor",
   "linker_set_key" : "_ZN7android8hardware4wifi10supplicant4V1_127ISupplicantStaIfaceCallback19interfaceDescriptorENSt3__18functionIFvRKNS0_11hidl_stringEEEE",
   "parameters" :
   [
    {
     "is_this_ptr" : true,
     "referenced_type" : "_ZTIPN7android8hardware4wifi10supplicant4V1_127ISupplicantStaIfaceCallbackE"
    },
    {
     "referenced_type" : "_ZTINSt3__18functionIFvRKN7android8hardware11hidl_stringEEEE"
    }
   ],
   "return_type" : "_ZTIN7android8hardware6ReturnIvEE",
   "source_file" : "/out/soong/.intermediates/hardware/interfaces/wifi/supplicant/1.1/android.hardware.wifi.supplicant@1.1_genc++_headers/gen/android/hardware/wifi/supplicant/1.1/ISupplicantStaIfaceCallback.h"
  },
  {
   "function_name" : "android::hardware::wifi::supplicant::V1_1::ISupplicantStaIfaceCallback::notifySyspropsChanged",
   "linker_set_key" : "_ZN7android8hardware4wifi10supplicant4V1_127ISupplicantStaIfaceCallback21notifySyspropsChangedEv",
   "parameters" :
   [
    {
     "is_this_ptr" : true,
     "referenced_type" : "_ZTIPN7android8hardware4wifi10supplicant4V1_127ISupplicantStaIfaceCallbackE"
    }
   ],
   "return_type" : "_ZTIN7android8hardware6ReturnIvEE",
   "source_file" : "/out/soong/.intermediates/hardware/interfaces/wifi/supplicant/1.1/android.hardware.wifi.supplicant@1.1_genc++_headers/gen/android/hardware/wifi/supplicant/1.1/ISupplicantStaIfaceCallback.h"
  },
  {
   "function_name" : "android::hardware::wifi::supplicant::V1_1::ISupplicantStaIfaceCallback::setHALInstrumentation",
   "linker_set_key" : "_ZN7android8hardware4wifi10supplicant4V1_127ISupplicantStaIfaceCallback21setHALInstrumentationEv",
   "parameters" :
   [
    {
     "is_this_ptr" : true,
     "referenced_type" : "_ZTIPN7android8hardware4wifi10supplicant4V1_127ISupplicantStaIfaceCallbackE"
    }
   ],
   "return_type" : "_ZTIN7android8hardware6ReturnIvEE",
   "source_file" : "/out/soong/.intermediates/hardware/interfaces/wifi/supplicant/1.1/android.hardware.wifi.supplicant@1.1_genc++_headers/gen/android/hardware/wifi/supplicant/1.1/ISupplicantStaIfaceCallback.h"
  },
  {
   "function_name" : "android::hardware::wifi::supplicant::V1_1::ISupplicantStaIfaceCallback::registerForNotifications",
   "linker_set_key" : "_ZN7android8hardware4wifi10supplicant4V1_127ISupplicantStaIfaceCallback24registerForNotificationsERKNSt3__112basic_stringIcNS5_11char_traitsIcEENS5_9allocatorIcEEEERKNS_2spINS_4hidl7manager4V1_020IServiceNotificationEEE",
   "parameters" :
   [
    {
     "referenced_type" : "_ZTIRKNSt3__112basic_stringIcNS_11char_traitsIcEENS_9allocatorIcEEEE"
    },
    {
     "referenced_type" : "_ZTIRKN7android2spINS_4hidl7manager4V1_020IServiceNotificationEEE"
    }
   ],
   "return_type" : "_ZTIb",
   "source_file" : "/out/soong/.intermediates/hardware/interfaces/wifi/supplicant/1.1/android.hardware.wifi.supplicant@1.1_genc++_headers/gen/android/hardware/wifi/supplicant/1.1/ISupplicantStaIfaceCallback.h"
  },
  {
   "function_name" : "android::hardware::wifi::supplicant::V1_1::ISupplicantStaIfaceCallback::ping",
   "linker_set_key" : "_ZN7android8hardware4wifi10supplicant4V1_127ISupplicantStaIfaceCallback4pingEv",
   "parameters" :
   [
    {
     "is_this_ptr" : true,
     "referenced_type" : "_ZTIPN7android8hardware4wifi10supplicant4V1_127ISupplicantStaIfaceCallbackE"
    }
   ],
   "return_type" : "_ZTIN7android8hardware6ReturnIvEE",
   "source_file" : "/out/soong/.intermediates/hardware/interfaces/wifi/supplicant/1.1/android.hardware.wifi.supplicant@1.1_genc++_headers/gen/android/hardware/wifi/supplicant/1.1/ISupplicantStaIfaceCallback.h"
  },
  {
   "function_name" : "android::hardware::wifi::supplicant::V1_1::ISupplicantStaIfaceCallback::debug",
   "linker_set_key" : "_ZN7android8hardware4wifi10supplicant4V1_127ISupplicantStaIfaceCallback5debugERKNS0_11hidl_handleERKNS0_8hidl_vecINS0_11hidl_stringEEE",
   "parameters" :
   [
    {
     "is_this_ptr" : true,
     "referenced_type" : "_ZTIPN7android8hardware4wifi10supplicant4V1_127ISupplicantStaIfaceCallbackE"
    },
    {
     "referenced_type" : "_ZTIRKN7android8hardware11hidl_handleE"
    },
    {
     "referenced_type" : "_ZTIRKN7android8hardware8hidl_vecINS0_11hidl_stringEEE"
    }
   ],
   "return_type" : "_ZTIN7android8hardware6ReturnIvEE",
   "source_file" : "/out/soong/.intermediates/hardware/interfaces/wifi/supplicant/1.1/android.hardware.wifi.supplicant@1.1_genc++_headers/gen/android/hardware/wifi/supplicant/1.1/ISupplicantStaIfaceCallback.h"
  },
  {
   "function_name" : "android::hardware::wifi::supplicant::V1_1::ISupplicantStaIfaceCallback::castFrom",
   "linker_set_key" : "_ZN7android8hardware4wifi10supplicant4V1_127ISupplicantStaIfaceCallback8castFromERKNS_2spINS2_4V1_027ISupplicantStaIfaceCallbackEEEb",
   "parameters" :
   [
    {
     "referenced_type" : "_ZTIRKN7android2spINS_8hardware4wifi10supplicant4V1_027ISupplicantStaIfaceCallbackEEE"
    },
    {
     "default_arg" : true,
     "referenced_type" : "_ZTIb"
    }
   ],
   "return_type" : "_ZTIN7android8hardware6ReturnINS_2spINS0_4wifi10supplicant4V1_127ISupplicantStaIfaceCallbackEEEEE",
   "source_file" : "/out/soong/.intermediates/hardware/interfaces/wifi/supplicant/1.1/android.hardware.wifi.supplicant@1.1_genc++_headers/gen/android/hardware/wifi/supplicant/1.1/ISupplicantStaIfaceCallback.h"
  },
  {
   "function_name" : "android::hardware::wifi::supplicant::V1_1::ISupplicantStaIfaceCallback::castFrom",
   "linker_set_key" : "_ZN7android8hardware4wifi10supplicant4V1_127ISupplicantStaIfaceCallback8castFromERKNS_2spINS_4hidl4base4V1_05IBaseEEEb",
   "parameters" :
   [
    {
     "referenced_type" : "_ZTIRKN7android2spINS_4hidl4base4V1_05IBaseEEE"
    },
    {
     "default_arg" : true,
     "referenced_type" : "_ZTIb"
    }
   ],
   "return_type" : "_ZTIN7android8hardware6ReturnINS_2spINS0_4wifi10supplicant4V1_127ISupplicantStaIfaceCallbackEEEEE",
   "source_file" : "/out/soong/.intermediates/hardware/interfaces/wifi/supplicant/1.1/android.hardware.wifi.supplicant@1.1_genc++_headers/gen/android/hardware/wifi/supplicant/1.1/ISupplicantStaIfaceCallback.h"
  },
  {
   "function_name" : "android::hardware::wifi::supplicant::V1_1::ISupplicantStaIfaceCallback::castFrom",
   "linker_set_key" : "_ZN7android8hardware4wifi10supplicant4V1_127ISupplicantStaIfaceCallback8castFromERKNS_2spIS4_EEb",
   "parameters" :
   [
    {
     "referenced_type" : "_ZTIRKN7android2spINS_8hardware4wifi10supplicant4V1_127ISupplicantStaIfaceCallbackEEE"
    },
    {
     "default_arg" : true,
     "referenced_type" : "_ZTIb"
    }
   ],
   "return_type" : "_ZTIN7android8hardware6ReturnINS_2spINS0_4wifi10supplicant4V1_127ISupplicantStaIfaceCallbackEEEEE",
   "source_file" : "/out/soong/.intermediates/hardware/interfaces/wifi/supplicant/1.1/android.hardware.wifi.supplicant@1.1_genc++_headers/gen/android/hardware/wifi/supplicant/1.1/ISupplicantStaIfaceCallback.h"
  },
  {
   "access" : "private",
   "function_name" : "android::hardware::wifi::supplicant::V1_1::BsSupplicantStaIfaceCallback::addOnewayTask",
   "linker_set_key" : "_ZN7android8hardware4wifi10supplicant4V1_128BsSupplicantStaIfaceCallback13addOnewayTaskENSt3__18functionIFvvEEE",
   "parameters" :
   [
    {
     "is_this_ptr" : true,
     "referenced_type" : "_ZTIPN7android8hardware4wifi10supplicant4V1_128BsSupplicantStaIfaceCallbackE"
    },
    {
     "referenced_type" : "_ZTINSt3__18functionIFvvEEE"
    }
   ],
   "return_type" : "_ZTIN7android8hardware6ReturnIvEE",
   "source_file" : "/out/soong/.intermediates/hardware/interfaces/wifi/supplicant/1.1/android.hardware.wifi.supplicant@1.1_genc++_headers/gen/android/hardware/wifi/supplicant/1.1/BsSupplicantStaIfaceCallback.h"
  },
  {
   "function_name" : "android::hardware::wifi::supplicant::V1_1::BsSupplicantStaIfaceCallback::BsSupplicantStaIfaceCallback",
   "linker_set_key" : "_ZN7android8hardware4wifi10supplicant4V1_128BsSupplicantStaIfaceCallbackC1ENS_2spINS3_27ISupplicantStaIfaceCallbackEEE",
   "parameters" :
   [
    {
     "is_this_ptr" : true,
     "referenced_type" : "_ZTIPN7android8hardware4wifi10supplicant4V1_128BsSupplicantStaIfaceCallbackE"
    },
    {
     "referenced_type" : "_ZTIKN7android2spINS_8hardware4wifi10supplicant4V1_127ISupplicantStaIfaceCallbackEEE"
    }
   ],
   "return_type" : "_ZTIv",
   "source_file" : "/out/soong/.intermediates/hardware/interfaces/wifi/supplicant/1.1/android.hardware.wifi.supplicant@1.1_genc++_headers/gen/android/hardware/wifi/supplicant/1.1/BsSupplicantStaIfaceCallback.h"
  },
  {
   "function_name" : "android::hardware::wifi::supplicant::V1_1::BsSupplicantStaIfaceCallback::BsSupplicantStaIfaceCallback",
   "linker_set_key" : "_ZN7android8hardware4wifi10supplicant4V1_128BsSupplicantStaIfaceCallbackC2ENS_2spINS3_27ISupplicantStaIfaceCallbackEEE",
   "parameters" :
   [
    {
     "is_this_ptr" : true,
     "referenced_type" : "_ZTIPN7android8hardware4wifi10supplicant4V1_128BsSupplicantStaIfaceCallbackE"
    },
    {
     "referenced_type" : "_ZTIKN7android2spINS_8hardware4wifi10supplicant4V1_127ISupplicantStaIfaceCallbackEEE"
    }
   ],
   "return_type" : "_ZTIv",
   "source_file" : "/out/soong/.intermediates/hardware/interfaces/wifi/supplicant/1.1/android.hardware.wifi.supplicant@1.1_genc++_headers/gen/android/hardware/wifi/supplicant/1.1/BsSupplicantStaIfaceCallback.h"
  },
  {
   "function_name" : "android::hardware::wifi::supplicant::V1_1::BnHwSupplicantStaIfaceCallback::onTransact",
   "linker_set_key" : "_ZN7android8hardware4wifi10supplicant4V1_130BnHwSupplicantStaIfaceCallback10onTransactEjRKNS0_6ParcelEPS5_jNSt3__18functionIFvRS5_EEE",
   "parameters" :
   [
    {
     "is_this_ptr" : true,
     "referenced_type" : "_ZTIPN7android8hardware4wifi10supplicant4V1_130BnHwSupplicantStaIfaceCallbackE"
    },
    {
     "referenced_type" : "_ZTIj"
    },
    {
     "referenced_type" : "_ZTIRKN7android8hardware6ParcelE"
    },
    {
     "referenced_type" : "_ZTIPN7android8hardware6ParcelE"
    },
    {
     "default_arg" : true,
     "referenced_type" : "_ZTIj"
    },
    {
     "default_arg" : true,
     "referenced_type" : "_ZTINSt3__18functionIFvRN7android8hardware6ParcelEEEE"
    }
   ],
   "return_type" : "_ZTIi",
   "source_file" : "/out/soong/.intermediates/hardware/interfaces/wifi/supplicant/1.1/android.hardware.wifi.supplicant@1.1_genc++_headers/gen/android/hardware/wifi/supplicant/1.1/BnHwSupplicantStaIfaceCallback.h"
  },
  {
   "access" : "private",
   "function_name" : "android::hardware::wifi::supplicant::V1_1::BnHwSupplicantStaIfaceCallback::getDebugInfo",
   "linker_set_key" : "_ZN7android8hardware4wifi10supplicant4V1_130BnHwSupplicantStaIfaceCallback12getDebugInfoENSt3__18functionIFvRKNS_4hidl4base4V1_09DebugInfoEEEE",
   "parameters" :
   [
    {
     "is_this_ptr" : true,
     "referenced_type" : "_ZTIPN7android8hardware4wifi10supplicant4V1_130BnHwSupplicantStaIfaceCallbackE"
    },
    {
     "referenced_type" : "_ZTINSt3__18functionIFvRKN7android4hidl4base4V1_09DebugInfoEEEE"
    }
   ],
   "return_type" : "_ZTIN7android8hardware6ReturnIvEE",
   "source_file" : "/out/soong/.intermediates/hardware/interfaces/wifi/supplicant/1.1/android.hardware.wifi.supplicant@1.1_genc++_headers/gen/android/hardware/wifi/supplicant/1.1/BnHwSupplicantStaIfaceCallback.h"
  },
  {
   "function_name" : "android::hardware::wifi::supplicant::V1_1::BnHwSupplicantStaIfaceCallback::_hidl_onEapFailure_1_1",
   "linker_set_key" : "_ZN7android8hardware4wifi10supplicant4V1_130BnHwSupplicantStaIfaceCallback22_hidl_onEapFailure_1_1EPNS_4hidl4base4V1_08BnHwBaseERKNS0_6ParcelEPSA_NSt3__18functionIFvRSA_EEE",
   "parameters" :
   [
    {
     "referenced_type" : "_ZTIPN7android4hidl4base4V1_08BnHwBaseE"
    },
    {
     "referenced_type" : "_ZTIRKN7android8hardware6ParcelE"
    },
    {
     "referenced_type" : "_ZTIPN7android8hardware6ParcelE"
    },
    {
     "referenced_type" : "_ZTINSt3__18functionIFvRN7android8hardware6ParcelEEEE"
    }
   ],
   "return_type" : "_ZTIi",
   "source_file" : "/out/soong/.intermediates/hardware/interfaces/wifi/supplicant/1.1/android.hardware.wifi.supplicant@1.1_genc++_headers/gen/android/hardware/wifi/supplicant/1.1/BnHwSupplicantStaIfaceCallback.h"
  },
  {
   "access" : "private",
   "function_name" : "android::hardware::wifi::supplicant::V1_1::BnHwSupplicantStaIfaceCallback::ping",
   "linker_set_key" : "_ZN7android8hardware4wifi10supplicant4V1_130BnHwSupplicantStaIfaceCallback4pingEv",
   "parameters" :
   [
    {
     "is_this_ptr" : true,
     "referenced_type" : "_ZTIPN7android8hardware4wifi10supplicant4V1_130BnHwSupplicantStaIfaceCallbackE"
    }
   ],
   "return_type" : "_ZTIN7android8hardware6ReturnIvEE",
   "source_file" : "/out/soong/.intermediates/hardware/interfaces/wifi/supplicant/1.1/android.hardware.wifi.supplicant@1.1_genc++_headers/gen/android/hardware/wifi/supplicant/1.1/BnHwSupplicantStaIfaceCallback.h"
  },
  {
   "function_name" : "android::hardware::wifi::supplicant::V1_1::BnHwSupplicantStaIfaceCallback::BnHwSupplicantStaIfaceCallback",
   "linker_set_key" : "_ZN7android8hardware4wifi10supplicant4V1_130BnHwSupplicantStaIfaceCallbackC1ERKNS_2spINS3_27ISupplicantStaIfaceCallbackEEE",
   "parameters" :
   [
    {
     "is_this_ptr" : true,
     "referenced_type" : "_ZTIPN7android8hardware4wifi10supplicant4V1_130BnHwSupplicantStaIfaceCallbackE"
    },
    {
     "referenced_type" : "_ZTIRKN7android2spINS_8hardware4wifi10supplicant4V1_127ISupplicantStaIfaceCallbackEEE"
    }
   ],
   "return_type" : "_ZTIv",
   "source_file" : "/out/soong/.intermediates/hardware/interfaces/wifi/supplicant/1.1/android.hardware.wifi.supplicant@1.1_genc++_headers/gen/android/hardware/wifi/supplicant/1.1/BnHwSupplicantStaIfaceCallback.h"
  },
  {
   "function_name" : "android::hardware::wifi::supplicant::V1_1::BnHwSupplicantStaIfaceCallback::BnHwSupplicantStaIfaceCallback",
   "linker_set_key" : "_ZN7android8hardware4wifi10supplicant4V1_130BnHwSupplicantStaIfaceCallbackC2ERKNS_2spINS3_27ISupplicantStaIfaceCallbackEEE",
   "parameters" :
   [
    {
     "is_this_ptr" : true,
     "referenced_type" : "_ZTIPN7android8hardware4wifi10supplicant4V1_130BnHwSupplicantStaIfaceCallbackE"
    },
    {
     "referenced_type" : "_ZTIRKN7android2spINS_8hardware4wifi10supplicant4V1_127ISupplicantStaIfaceCallbackEEE"
    }
   ],
   "return_type" : "_ZTIv",
   "source_file" : "/out/soong/.intermediates/hardware/interfaces/wifi/supplicant/1.1/android.hardware.wifi.supplicant@1.1_genc++_headers/gen/android/hardware/wifi/supplicant/1.1/BnHwSupplicantStaIfaceCallback.h"
  },
  {
   "function_name" : "android::hardware::wifi::supplicant::V1_1::BnHwSupplicantStaIfaceCallback::~BnHwSupplicantStaIfaceCallback",
   "linker_set_key" : "_ZN7android8hardware4wifi10supplicant4V1_130BnHwSupplicantStaIfaceCallbackD0Ev",
   "parameters" :
   [
    {
     "is_this_ptr" : true,
     "referenced_type" : "_ZTIPN7android8hardware4wifi10supplicant4V1_130BnHwSupplicantStaIfaceCallbackE"
    }
   ],
   "return_type" : "_ZTIv",
   "source_file" : "/out/soong/.intermediates/hardware/interfaces/wifi/supplicant/1.1/android.hardware.wifi.supplicant@1.1_genc++_headers/gen/android/hardware/wifi/supplicant/1.1/BnHwSupplicantStaIfaceCallback.h"
  },
  {
   "function_name" : "android::hardware::wifi::supplicant::V1_1::BnHwSupplicantStaIfaceCallback::~BnHwSupplicantStaIfaceCallback",
   "linker_set_key" : "_ZN7android8hardware4wifi10supplicant4V1_130BnHwSupplicantStaIfaceCallbackD1Ev",
   "parameters" :
   [
    {
     "is_this_ptr" : true,
     "referenced_type" : "_ZTIPN7android8hardware4wifi10supplicant4V1_130BnHwSupplicantStaIfaceCallbackE"
    }
   ],
   "return_type" : "_ZTIv",
   "source_file" : "/out/soong/.intermediates/hardware/interfaces/wifi/supplicant/1.1/android.hardware.wifi.supplicant@1.1_genc++_headers/gen/android/hardware/wifi/supplicant/1.1/BnHwSupplicantStaIfaceCallback.h"
  },
  {
   "function_name" : "android::hardware::wifi::supplicant::V1_1::BnHwSupplicantStaIfaceCallback::~BnHwSupplicantStaIfaceCallback",
   "linker_set_key" : "_ZN7android8hardware4wifi10supplicant4V1_130BnHwSupplicantStaIfaceCallbackD2Ev",
   "parameters" :
   [
    {
     "is_this_ptr" : true,
     "referenced_type" : "_ZTIPN7android8hardware4wifi10supplicant4V1_130BnHwSupplicantStaIfaceCallbackE"
    }
   ],
   "return_type" : "_ZTIv",
   "source_file" : "/out/soong/.intermediates/hardware/interfaces/wifi/supplicant/1.1/android.hardware.wifi.supplicant@1.1_genc++_headers/gen/android/hardware/wifi/supplicant/1.1/BnHwSupplicantStaIfaceCallback.h"
  },
  {
   "function_name" : "android::hardware::wifi::supplicant::V1_1::BpHwSupplicantStaIfaceCallback::linkToDeath",
   "linker_set_key" : "_ZN7android8hardware4wifi10supplicant4V1_130BpHwSupplicantStaIfaceCallback11linkToDeathERKNS_2spINS0_20hidl_death_recipientEEEy",
   "parameters" :
   [
    {
     "is_this_ptr" : true,
     "referenced_type" : "_ZTIPN7android8hardware4wifi10supplicant4V1_130BpHwSupplicantStaIfaceCallbackE"
    },
    {
     "referenced_type" : "_ZTIRKN7android2spINS_8hardware20hidl_death_recipientEEE"
    },
    {
     "referenced_type" : "_ZTIy"
    }
   ],
   "return_type" : "_ZTIN7android8hardware6ReturnIbEE",
   "source_file" : "/out/soong/.intermediates/hardware/interfaces/wifi/supplicant/1.1/android.hardware.wifi.supplicant@1.1_genc++_headers/gen/android/hardware/wifi/supplicant/1.1/BpHwSupplicantStaIfaceCallback.h"
  },
  {
   "function_name" : "android::hardware::wifi::supplicant::V1_1::BpHwSupplicantStaIfaceCallback::getDebugInfo",
   "linker_set_key" : "_ZN7android8hardware4wifi10supplicant4V1_130BpHwSupplicantStaIfaceCallback12getDebugInfoENSt3__18functionIFvRKNS_4hidl4base4V1_09DebugInfoEEEE",
   "parameters" :
   [
    {
     "is_this_ptr" : true,
     "referenced_type" : "_ZTIPN7android8hardware4wifi10supplicant4V1_130BpHwSupplicantStaIfaceCallbackE"
    },
    {
     "referenced_type" : "_ZTINSt3__18functionIFvRKN7android4hidl4base4V1_09DebugInfoEEEE"
    }
   ],
   "return_type" : "_ZTIN7android8hardware6ReturnIvEE",
   "source_file" : "/out/soong/.intermediates/hardware/interfaces/wifi/supplicant/1.1/android.hardware.wifi.supplicant@1.1_genc++_headers/gen/android/hardware/wifi/supplicant/1.1/BpHwSupplicantStaIfaceCallback.h"
  },
  {
   "function_name" : "android::hardware::wifi::supplicant::V1_1::BpHwSupplicantStaIfaceCallback::getHashChain",
   "linker_set_key" : "_ZN7android8hardware4wifi10supplicant4V1_130BpHwSupplicantStaIfaceCallback12getHashChainENSt3__18functionIFvRKNS0_8hidl_vecINS0_10hidl_arrayIhLj32EJEEEEEEEE",
   "parameters" :
   [
    {
     "is_this_ptr" : true,
     "referenced_type" : "_ZTIPN7android8hardware4wifi10supplicant4V1_130BpHwSupplicantStaIfaceCallbackE"
    },
    {
     "referenced_type" : "_ZTINSt3__18functionIFvRKN7android8hardware8hidl_vecINS2_10hidl_arrayIhLj32EJEEEEEEEE"
    }
   ],
   "return_type" : "_ZTIN7android8hardware6ReturnIvEE",
   "source_file" : "/out/soong/.intermediates/hardware/interfaces/wifi/supplicant/1.1/android.hardware.wifi.supplicant@1.1_genc++_headers/gen/android/hardware/wifi/supplicant/1.1/BpHwSupplicantStaIfaceCallback.h"
  },
  {
   "function_name" : "android::hardware::wifi::supplicant::V1_1::BpHwSupplicantStaIfaceCallback::onEapFailure",
   "linker_set_key" : "_ZN7android8hardware4wifi10supplicant4V1_130BpHwSupplicantStaIfaceCallback12onEapFailureEv",
   "parameters" :
   [
    {
     "is_this_ptr" : true,
     "referenced_type" : "_ZTIPN7android8hardware4wifi10supplicant4V1_130BpHwSupplicantStaIfaceCallbackE"
    }
   ],
   "return_type" : "_ZTIN7android8hardware6ReturnIvEE",
   "source_file" : "/out/soong/.intermediates/hardware/interfaces/wifi/supplicant/1.1/android.hardware.wifi.supplicant@1.1_genc++_headers/gen/android/hardware/wifi/supplicant/1.1/BpHwSupplicantStaIfaceCallback.h"
  },
  {
   "function_name" : "android::hardware::wifi::supplicant::V1_1::BpHwSupplicantStaIfaceCallback::unlinkToDeath",
   "linker_set_key" : "_ZN7android8hardware4wifi10supplicant4V1_130BpHwSupplicantStaIfaceCallback13unlinkToDeathERKNS_2spINS0_20hidl_death_recipientEEE",
   "parameters" :
   [
    {
     "is_this_ptr" : true,
     "referenced_type" : "_ZTIPN7android8hardware4wifi10supplicant4V1_130BpHwSupplicantStaIfaceCallbackE"
    },
    {
     "referenced_type" : "_ZTIRKN7android2spINS_8hardware20hidl_death_recipientEEE"
    }
   ],
   "return_type" : "_ZTIN7android8hardware6ReturnIbEE",
   "source_file" : "/out/soong/.intermediates/hardware/interfaces/wifi/supplicant/1.1/android.hardware.wifi.supplicant@1.1_genc++_headers/gen/android/hardware/wifi/supplicant/1.1/BpHwSupplicantStaIfaceCallback.h"
  },
  {
   "function_name" : "android::hardware::wifi::supplicant::V1_1::BpHwSupplicantStaIfaceCallback::interfaceChain",
   "linker_set_key" : "_ZN7android8hardware4wifi10supplicant4V1_130BpHwSupplicantStaIfaceCallback14interfaceChainENSt3__18functionIFvRKNS0_8hidl_vecINS0_11hidl_stringEEEEEE",
   "parameters" :
   [
    {
     "is_this_ptr" : true,
     "referenced_type" : "_ZTIPN7android8hardware4wifi10supplicant4V1_130BpHwSupplicantStaIfaceCallbackE"
    },
    {
     "referenced_type" : "_ZTINSt3__18functionIFvRKN7android8hardware8hidl_vecINS2_11hidl_stringEEEEEE"
    }
   ],
   "return_type" : "_ZTIN7android8hardware6ReturnIvEE",
   "source_file" : "/out/soong/.intermediates/hardware/interfaces/wifi/supplicant/1.1/android.hardware.wifi.supplicant@1.1_genc++_headers/gen/android/hardware/wifi/supplicant/1.1/BpHwSupplicantStaIfaceCallback.h"
  },
  {
   "function_name" : "android::hardware::wifi::supplicant::V1_1::BpHwSupplicantStaIfaceCallback::onBssidChanged",
   "linker_set_key" : "_ZN7android8hardware4wifi10supplicant4V1_130BpHwSupplicantStaIfaceCallback14onBssidChangedENS2_4V1_027ISupplicantStaIfaceCallback17BssidChangeReasonERKNS0_10hidl_arrayIhLj6EJEEE",
   "parameters" :
   [
    {
     "is_this_ptr" : true,
     "referenced_type" : "_ZTIPN7android8hardware4wifi10supplicant4V1_130BpHwSupplicantStaIfaceCallbackE"
    },
    {
     "referenced_type" : "_ZTIN7android8hardware4wifi10supplicant4V1_027ISupplicantStaIfaceCallback17BssidChangeReasonE"
    },
    {
     "referenced_type" : "_ZTIRKN7android8hardware10hidl_arrayIhLj6EJEEE"
    }
   ],
   "return_type" : "_ZTIN7android8hardware6ReturnIvEE",
   "source_file" : "/out/soong/.intermediates/hardware/interfaces/wifi/supplicant/1.1/android.hardware.wifi.supplicant@1.1_genc++_headers/gen/android/hardware/wifi/supplicant/1.1/BpHwSupplicantStaIfaceCallback.h"
  },
  {
   "function_name" : "android::hardware::wifi::supplicant::V1_1::BpHwSupplicantStaIfaceCallback::onDisconnected",
   "linker_set_key" : "_ZN7android8hardware4wifi10supplicant4V1_130BpHwSupplicantStaIfaceCallback14onDisconnectedERKNS0_10hidl_arrayIhLj6EJEEEbNS2_4V1_027ISupplicantStaIfaceCallback10ReasonCodeE",
   "parameters" :
   [
    {
     "is_this_ptr" : true,
     "referenced_type" : "_ZTIPN7android8hardware4wifi10supplicant4V1_130BpHwSupplicantStaIfaceCallbackE"
    },
    {
     "referenced_type" : "_ZTIRKN7android8hardware10hidl_arrayIhLj6EJEEE"
    },
    {
     "referenced_type" : "_ZTIb"
    },
    {
     "referenced_type" : "_ZTIN7android8hardware4wifi10supplicant4V1_027ISupplicantStaIfaceCallback10ReasonCodeE"
    }
   ],
   "return_type" : "_ZTIN7android8hardware6ReturnIvEE",
   "source_file" : "/out/soong/.intermediates/hardware/interfaces/wifi/supplicant/1.1/android.hardware.wifi.supplicant@1.1_genc++_headers/gen/android/hardware/wifi/supplicant/1.1/BpHwSupplicantStaIfaceCallback.h"
  },
  {
   "function_name" : "android::hardware::wifi::supplicant::V1_1::BpHwSupplicantStaIfaceCallback::onNetworkAdded",
   "linker_set_key" : "_ZN7android8hardware4wifi10supplicant4V1_130BpHwSupplicantStaIfaceCallback14onNetworkAddedEj",
   "parameters" :
   [
    {
     "is_this_ptr" : true,
     "referenced_type" : "_ZTIPN7android8hardware4wifi10supplicant4V1_130BpHwSupplicantStaIfaceCallbackE"
    },
    {
     "referenced_type" : "_ZTIj"
    }
   ],
   "return_type" : "_ZTIN7android8hardware6ReturnIvEE",
   "source_file" : "/out/soong/.intermediates/hardware/interfaces/wifi/supplicant/1.1/android.hardware.wifi.supplicant@1.1_genc++_headers/gen/android/hardware/wifi/supplicant/1.1/BpHwSupplicantStaIfaceCallback.h"
  },
  {
   "function_name" : "android::hardware::wifi::supplicant::V1_1::BpHwSupplicantStaIfaceCallback::onStateChanged",
   "linker_set_key" : "_ZN7android8hardware4wifi10supplicant4V1_130BpHwSupplicantStaIfaceCallback14onStateChangedENS2_4V1_027ISupplicantStaIfaceCallback5StateERKNS0_10hidl_arrayIhLj6EJEEEjRKNS0_8hidl_vecIhEE",
   "parameters" :
   [
    {
     "is_this_ptr" : true,
     "referenced_type" : "_ZTIPN7android8hardware4wifi10supplicant4V1_130BpHwSupplicantStaIfaceCallbackE"
    },
    {
     "referenced_type" : "_ZTIN7android8hardware4wifi10supplicant4V1_027ISupplicantStaIfaceCallback5StateE"
    },
    {
     "referenced_type" : "_ZTIRKN7android8hardware10hidl_arrayIhLj6EJEEE"
    },
    {
     "referenced_type" : "_ZTIj"
    },
    {
     "referenced_type" : "_ZTIRKN7android8hardware8hidl_vecIhEE"
    }
   ],
   "return_type" : "_ZTIN7android8hardware6ReturnIvEE",
   "source_file" : "/out/soong/.intermediates/hardware/interfaces/wifi/supplicant/1.1/android.hardware.wifi.supplicant@1.1_genc++_headers/gen/android/hardware/wifi/supplicant/1.1/BpHwSupplicantStaIfaceCallback.h"
  },
  {
   "function_name" : "android::hardware::wifi::supplicant::V1_1::BpHwSupplicantStaIfaceCallback::onWpsEventFail",
   "linker_set_key" : "_ZN7android8hardware4wifi10supplicant4V1_130BpHwSupplicantStaIfaceCallback14onWpsEventFailERKNS0_10hidl_arrayIhLj6EJEEENS2_4V1_027ISupplicantStaIfaceCallback14WpsConfigErrorENSA_18WpsErrorIndicationE",
   "parameters" :
   [
    {
     "is_this_ptr" : true,
     "referenced_type" : "_ZTIPN7android8hardware4wifi10supplicant4V1_130BpHwSupplicantStaIfaceCallbackE"
    },
    {
     "referenced_type" : "_ZTIRKN7android8hardware10hidl_arrayIhLj6EJEEE"
    },
    {
     "referenced_type" : "_ZTIN7android8hardware4wifi10supplicant4V1_027ISupplicantStaIfaceCallback14WpsConfigErrorE"
    },
    {
     "referenced_type" : "_ZTIN7android8hardware4wifi10supplicant4V1_027ISupplicantStaIfaceCallback18WpsErrorIndicationE"
    }
   ],
   "return_type" : "_ZTIN7android8hardware6ReturnIvEE",
   "source_file" : "/out/soong/.intermediates/hardware/interfaces/wifi/supplicant/1.1/android.hardware.wifi.supplicant@1.1_genc++_headers/gen/android/hardware/wifi/supplicant/1.1/BpHwSupplicantStaIfaceCallback.h"
  },
  {
   "function_name" : "android::hardware::wifi::supplicant::V1_1::BpHwSupplicantStaIfaceCallback::onAnqpQueryDone",
   "linker_set_key" : "_ZN7android8hardware4wifi10supplicant4V1_130BpHwSupplicantStaIfaceCallback15onAnqpQueryDoneERKNS0_10hidl_arrayIhLj6EJEEERKNS2_4V1_027ISupplicantStaIfaceCallback8AnqpDataERKNSA_12Hs20AnqpDataE",
   "parameters" :
   [
    {
     "is_this_ptr" : true,
     "referenced_type" : "_ZTIPN7android8hardware4wifi10supplicant4V1_130BpHwSupplicantStaIfaceCallbackE"
    },
    {
     "referenced_type" : "_ZTIRKN7android8hardware10hidl_arrayIhLj6EJEEE"
    },
    {
     "referenced_type" : "_ZTIRKN7android8hardware4wifi10supplicant4V1_027ISupplicantStaIfaceCallback8AnqpDataE"
    },
    {
     "referenced_type" : "_ZTIRKN7android8hardware4wifi10supplicant4V1_027ISupplicantStaIfaceCallback12Hs20AnqpDataE"
    }
   ],
   "return_type" : "_ZTIN7android8hardware6ReturnIvEE",
   "source_file" : "/out/soong/.intermediates/hardware/interfaces/wifi/supplicant/1.1/android.hardware.wifi.supplicant@1.1_genc++_headers/gen/android/hardware/wifi/supplicant/1.1/BpHwSupplicantStaIfaceCallback.h"
  },
  {
   "function_name" : "android::hardware::wifi::supplicant::V1_1::BpHwSupplicantStaIfaceCallback::onLastStrongRef",
   "linker_set_key" : "_ZN7android8hardware4wifi10supplicant4V1_130BpHwSupplicantStaIfaceCallback15onLastStrongRefEPKv",
   "parameters" :
   [
    {
     "is_this_ptr" : true,
     "referenced_type" : "_ZTIPN7android8hardware4wifi10supplicant4V1_130BpHwSupplicantStaIfaceCallbackE"
    },
    {
     "referenced_type" : "_ZTIPKv"
    }
   ],
   "return_type" : "_ZTIv",
   "source_file" : "/out/soong/.intermediates/hardware/interfaces/wifi/supplicant/1.1/android.hardware.wifi.supplicant@1.1_genc++_headers/gen/android/hardware/wifi/supplicant/1.1/BpHwSupplicantStaIfaceCallback.h"
  },
  {
   "function_name" : "android::hardware::wifi::supplicant::V1_1::BpHwSupplicantStaIfaceCallback::onEapFailure_1_1",
   "linker_set_key" : "_ZN7android8hardware4wifi10supplicant4V1_130BpHwSupplicantStaIfaceCallback16onEapFailure_1_1ENS3_27ISupplicantStaIfaceCallback12EapErrorCodeE",
   "parameters" :
   [
    {
     "is_this_ptr" : true,
     "referenced_type" : "_ZTIPN7android8hardware4wifi10supplicant4V1_130BpHwSupplicantStaIfaceCallbackE"
    },
    {
     "referenced_type" : "_ZTIN7android8hardware4wifi10supplicant4V1_127ISupplicantStaIfaceCallback12EapErrorCodeE"
    }
   ],
   "return_type" : "_ZTIN7android8hardware6ReturnIvEE",
   "source_file" : "/out/soong/.intermediates/hardware/interfaces/wifi/supplicant/1.1/android.hardware.wifi.supplicant@1.1_genc++_headers/gen/android/hardware/wifi/supplicant/1.1/BpHwSupplicantStaIfaceCallback.h"
  },
  {
   "function_name" : "android::hardware::wifi::supplicant::V1_1::BpHwSupplicantStaIfaceCallback::onNetworkRemoved",
   "linker_set_key" : "_ZN7android8hardware4wifi10supplicant4V1_130BpHwSupplicantStaIfaceCallback16onNetworkRemovedEj",
   "parameters" :
   [
    {
     "is_this_ptr" : true,
     "referenced_type" : "_ZTIPN7android8hardware4wifi10supplicant4V1_130BpHwSupplicantStaIfaceCallbackE"
    },
    {
     "referenced_type" : "_ZTIj"
    }
   ],
   "return_type" : "_ZTIN7android8hardware6ReturnIvEE",
   "source_file" : "/out/soong/.intermediates/hardware/interfaces/wifi/supplicant/1.1/android.hardware.wifi.supplicant@1.1_genc++_headers/gen/android/hardware/wifi/supplicant/1.1/BpHwSupplicantStaIfaceCallback.h"
  },
  {
   "function_name" : "android::hardware::wifi::supplicant::V1_1::BpHwSupplicantStaIfaceCallback::onWpsEventSuccess",
   "linker_set_key" : "_ZN7android8hardware4wifi10supplicant4V1_130BpHwSupplicantStaIfaceCallback17onWpsEventSuccessEv",
   "parameters" :
   [
    {
     "is_this_ptr" : true,
     "referenced_type" : "_ZTIPN7android8hardware4wifi10supplicant4V1_130BpHwSupplicantStaIfaceCallbackE"
    }
   ],
   "return_type" : "_ZTIN7android8hardware6ReturnIvEE",
   "source_file" : "/out/soong/.intermediates/hardware/interfaces/wifi/supplicant/1.1/android.hardware.wifi.supplicant@1.1_genc++_headers/gen/android/hardware/wifi/supplicant/1.1/BpHwSupplicantStaIfaceCallback.h"
  },
  {
   "function_name" : "android::hardware::wifi::supplicant::V1_1::BpHwSupplicantStaIfaceCallback::interfaceDescriptor",
   "linker_set_key" : "_ZN7android8hardware4wifi10supplicant4V1_130BpHwSupplicantStaIfaceCallback19interfaceDescriptorENSt3__18functionIFvRKNS0_11hidl_stringEEEE",
   "parameters" :
   [
    {
     "is_this_ptr" : true,
     "referenced_type" : "_ZTIPN7android8hardware4wifi10supplicant4V1_130BpHwSupplicantStaIfaceCallbackE"
    },
    {
     "referenced_type" : "_ZTINSt3__18functionIFvRKN7android8hardware11hidl_stringEEEE"
    }
   ],
   "return_type" : "_ZTIN7android8hardware6ReturnIvEE",
   "source_file" : "/out/soong/.intermediates/hardware/interfaces/wifi/supplicant/1.1/android.hardware.wifi.supplicant@1.1_genc++_headers/gen/android/hardware/wifi/supplicant/1.1/BpHwSupplicantStaIfaceCallback.h"
  },
  {
   "function_name" : "android::hardware::wifi::supplicant::V1_1::BpHwSupplicantStaIfaceCallback::onExtRadioWorkStart",
   "linker_set_key" : "_ZN7android8hardware4wifi10supplicant4V1_130BpHwSupplicantStaIfaceCallback19onExtRadioWorkStartEj",
   "parameters" :
   [
    {
     "is_this_ptr" : true,
     "referenced_type" : "_ZTIPN7android8hardware4wifi10supplicant4V1_130BpHwSupplicantStaIfaceCallbackE"
    },
    {
     "referenced_type" : "_ZTIj"
    }
   ],
   "return_type" : "_ZTIN7android8hardware6ReturnIvEE",
   "source_file" : "/out/soong/.intermediates/hardware/interfaces/wifi/supplicant/1.1/android.hardware.wifi.supplicant@1.1_genc++_headers/gen/android/hardware/wifi/supplicant/1.1/BpHwSupplicantStaIfaceCallback.h"
  },
  {
   "function_name" : "android::hardware::wifi::supplicant::V1_1::BpHwSupplicantStaIfaceCallback::onHs20IconQueryDone",
   "linker_set_key" : "_ZN7android8hardware4wifi10supplicant4V1_130BpHwSupplicantStaIfaceCallback19onHs20IconQueryDoneERKNS0_10hidl_arrayIhLj6EJEEERKNS0_11hidl_stringERKNS0_8hidl_vecIhEE",
   "parameters" :
   [
    {
     "is_this_ptr" : true,
     "referenced_type" : "_ZTIPN7android8hardware4wifi10supplicant4V1_130BpHwSupplicantStaIfaceCallbackE"
    },
    {
     "referenced_type" : "_ZTIRKN7android8hardware10hidl_arrayIhLj6EJEEE"
    },
    {
     "referenced_type" : "_ZTIRKN7android8hardware11hidl_stringE"
    },
    {
     "referenced_type" : "_ZTIRKN7android8hardware8hidl_vecIhEE"
    }
   ],
   "return_type" : "_ZTIN7android8hardware6ReturnIvEE",
   "source_file" : "/out/soong/.intermediates/hardware/interfaces/wifi/supplicant/1.1/android.hardware.wifi.supplicant@1.1_genc++_headers/gen/android/hardware/wifi/supplicant/1.1/BpHwSupplicantStaIfaceCallback.h"
  },
  {
   "function_name" : "android::hardware::wifi::supplicant::V1_1::BpHwSupplicantStaIfaceCallback::onWpsEventPbcOverlap",
   "linker_set_key" : "_ZN7android8hardware4wifi10supplicant4V1_130BpHwSupplicantStaIfaceCallback20onWpsEventPbcOverlapEv",
   "parameters" :
   [
    {
     "is_this_ptr" : true,
     "referenced_type" : "_ZTIPN7android8hardware4wifi10supplicant4V1_130BpHwSupplicantStaIfaceCallbackE"
    }
   ],
   "return_type" : "_ZTIN7android8hardware6ReturnIvEE",
   "source_file" : "/out/soong/.intermediates/hardware/interfaces/wifi/supplicant/1.1/android.hardware.wifi.supplicant@1.1_genc++_headers/gen/android/hardware/wifi/supplicant/1.1/BpHwSupplicantStaIfaceCallback.h"
  },
  {
   "function_name" : "android::hardware::wifi::supplicant::V1_1::BpHwSupplicantStaIfaceCallback::notifySyspropsChanged",
   "linker_set_key" : "_ZN7android8hardware4wifi10supplicant4V1_130BpHwSupplicantStaIfaceCallback21notifySyspropsChangedEv",
   "parameters" :
   [
    {
     "is_this_ptr" : true,
     "referenced_type" : "_ZTIPN7android8hardware4wifi10supplicant4V1_130BpHwSupplicantStaIfaceCallbackE"
    }
   ],
   "return_type" : "_ZTIN7android8hardware6ReturnIvEE",
   "source_file" : "/out/soong/.intermediates/hardware/interfaces/wifi/supplicant/1.1/android.hardware.wifi.supplicant@1.1_genc++_headers/gen/android/hardware/wifi/supplicant/1.1/BpHwSupplicantStaIfaceCallback.h"
  },
  {
   "function_name" : "android::hardware::wifi::supplicant::V1_1::BpHwSupplicantStaIfaceCallback::onAssociationRejected",
   "linker_set_key" : "_ZN7android8hardware4wifi10supplicant4V1_130BpHwSupplicantStaIfaceCallback21onAssociationRejectedERKNS0_10hidl_arrayIhLj6EJEEENS2_4V1_027ISupplicantStaIfaceCallback10StatusCodeEb",
   "parameters" :
   [
    {
     "is_this_ptr" : true,
     "referenced_type" : "_ZTIPN7android8hardware4wifi10supplicant4V1_130BpHwSupplicantStaIfaceCallbackE"
    },
    {
     "referenced_type" : "_ZTIRKN7android8hardware10hidl_arrayIhLj6EJEEE"
    },
    {
     "referenced_type" : "_ZTIN7android8hardware4wifi10supplicant4V1_027ISupplicantStaIfaceCallback10StatusCodeE"
    },
    {
     "referenced_type" : "_ZTIb"
    }
   ],
   "return_type" : "_ZTIN7android8hardware6ReturnIvEE",
   "source_file" : "/out/soong/.intermediates/hardware/interfaces/wifi/supplicant/1.1/android.hardware.wifi.supplicant@1.1_genc++_headers/gen/android/hardware/wifi/supplicant/1.1/BpHwSupplicantStaIfaceCallback.h"
  },
  {
   "function_name" : "android::hardware::wifi::supplicant::V1_1::BpHwSupplicantStaIfaceCallback::onExtRadioWorkTimeout",
   "linker_set_key" : "_ZN7android8hardware4wifi10supplicant4V1_130BpHwSupplicantStaIfaceCallback21onExtRadioWorkTimeoutEj",
   "parameters" :
   [
    {
     "is_this_ptr" : true,
     "referenced_type" : "_ZTIPN7android8hardware4wifi10supplicant4V1_130BpHwSupplicantStaIfaceCallbackE"
    },
    {
     "referenced_type" : "_ZTIj"
    }
   ],
   "return_type" : "_ZTIN7android8hardware6ReturnIvEE",
   "source_file" : "/out/soong/.intermediates/hardware/interfaces/wifi/supplicant/1.1/android.hardware.wifi.supplicant@1.1_genc++_headers/gen/android/hardware/wifi/supplicant/1.1/BpHwSupplicantStaIfaceCallback.h"
  },
  {
   "function_name" : "android::hardware::wifi::supplicant::V1_1::BpHwSupplicantStaIfaceCallback::setHALInstrumentation",
   "linker_set_key" : "_ZN7android8hardware4wifi10supplicant4V1_130BpHwSupplicantStaIfaceCallback21setHALInstrumentationEv",
   "parameters" :
   [
    {
     "is_this_ptr" : true,
     "referenced_type" : "_ZTIPN7android8hardware4wifi10supplicant4V1_130BpHwSupplicantStaIfaceCallbackE"
    }
   ],
   "return_type" : "_ZTIN7android8hardware6ReturnIvEE",
   "source_file" : "/out/soong/.intermediates/hardware/interfaces/wifi/supplicant/1.1/android.hardware.wifi.supplicant@1.1_genc++_headers/gen/android/hardware/wifi/supplicant/1.1/BpHwSupplicantStaIfaceCallback.h"
  },
  {
   "function_name" : "android::hardware::wifi::supplicant::V1_1::BpHwSupplicantStaIfaceCallback::_hidl_onEapFailure_1_1",
   "linker_set_key" : "_ZN7android8hardware4wifi10supplicant4V1_130BpHwSupplicantStaIfaceCallback22_hidl_onEapFailure_1_1EPNS0_10IInterfaceEPNS0_7details16HidlInstrumentorENS3_27ISupplicantStaIfaceCallback12EapErrorCodeE",
   "parameters" :
   [
    {
     "referenced_type" : "_ZTIPN7android8hardware10IInterfaceE"
    },
    {
     "referenced_type" : "_ZTIPN7android8hardware7details16HidlInstrumentorE"
    },
    {
     "referenced_type" : "_ZTIN7android8hardware4wifi10supplicant4V1_127ISupplicantStaIfaceCallback12EapErrorCodeE"
    }
   ],
   "return_type" : "_ZTIN7android8hardware6ReturnIvEE",
   "source_file" : "/out/soong/.intermediates/hardware/interfaces/wifi/supplicant/1.1/android.hardware.wifi.supplicant@1.1_genc++_headers/gen/android/hardware/wifi/supplicant/1.1/BpHwSupplicantStaIfaceCallback.h"
  },
  {
   "function_name" : "android::hardware::wifi::supplicant::V1_1::BpHwSupplicantStaIfaceCallback::onAuthenticationTimeout",
   "linker_set_key" : "_ZN7android8hardware4wifi10supplicant4V1_130BpHwSupplicantStaIfaceCallback23onAuthenticationTimeoutERKNS0_10hidl_arrayIhLj6EJEEE",
   "parameters" :
   [
    {
     "is_this_ptr" : true,
     "referenced_type" : "_ZTIPN7android8hardware4wifi10supplicant4V1_130BpHwSupplicantStaIfaceCallbackE"
    },
    {
     "referenced_type" : "_ZTIRKN7android8hardware10hidl_arrayIhLj6EJEEE"
    }
   ],
   "return_type" : "_ZTIN7android8hardware6ReturnIvEE",
   "source_file" : "/out/soong/.intermediates/hardware/interfaces/wifi/supplicant/1.1/android.hardware.wifi.supplicant@1.1_genc++_headers/gen/android/hardware/wifi/supplicant/1.1/BpHwSupplicantStaIfaceCallback.h"
  },
  {
   "function_name" : "android::hardware::wifi::supplicant::V1_1::BpHwSupplicantStaIfaceCallback::onHs20DeauthImminentNotice",
   "linker_set_key" : "_ZN7android8hardware4wifi10supplicant4V1_130BpHwSupplicantStaIfaceCallback26onHs20DeauthImminentNoticeERKNS0_10hidl_arrayIhLj6EJEEEjjRKNS0_11hidl_stringE",
   "parameters" :
   [
    {
     "is_this_ptr" : true,
     "referenced_type" : "_ZTIPN7android8hardware4wifi10supplicant4V1_130BpHwSupplicantStaIfaceCallbackE"
    },
    {
     "referenced_type" : "_ZTIRKN7android8hardware10hidl_arrayIhLj6EJEEE"
    },
    {
     "referenced_type" : "_ZTIj"
    },
    {
     "referenced_type" : "_ZTIj"
    },
    {
     "referenced_type" : "_ZTIRKN7android8hardware11hidl_stringE"
    }
   ],
   "return_type" : "_ZTIN7android8hardware6ReturnIvEE",
   "source_file" : "/out/soong/.intermediates/hardware/interfaces/wifi/supplicant/1.1/android.hardware.wifi.supplicant@1.1_genc++_headers/gen/android/hardware/wifi/supplicant/1.1/BpHwSupplicantStaIfaceCallback.h"
  },
  {
   "function_name" : "android::hardware::wifi::supplicant::V1_1::BpHwSupplicantStaIfaceCallback::onHs20SubscriptionRemediation",
   "linker_set_key" : "_ZN7android8hardware4wifi10supplicant4V1_130BpHwSupplicantStaIfaceCallback29onHs20SubscriptionRemediationERKNS0_10hidl_arrayIhLj6EJEEENS2_4V1_027ISupplicantStaIfaceCallback9OsuMethodERKNS0_11hidl_stringE",
   "parameters" :
   [
    {
     "is_this_ptr" : true,
     "referenced_type" : "_ZTIPN7android8hardware4wifi10supplicant4V1_130BpHwSupplicantStaIfaceCallbackE"
    },
    {
     "referenced_type" : "_ZTIRKN7android8hardware10hidl_arrayIhLj6EJEEE"
    },
    {
     "referenced_type" : "_ZTIN7android8hardware4wifi10supplicant4V1_027ISupplicantStaIfaceCallback9OsuMethodE"
    },
    {
     "referenced_type" : "_ZTIRKN7android8hardware11hidl_stringE"
    }
   ],
   "return_type" : "_ZTIN7android8hardware6ReturnIvEE",
   "source_file" : "/out/soong/.intermediates/hardware/interfaces/wifi/supplicant/1.1/android.hardware.wifi.supplicant@1.1_genc++_headers/gen/android/hardware/wifi/supplicant/1.1/BpHwSupplicantStaIfaceCallback.h"
  },
  {
   "function_name" : "android::hardware::wifi::supplicant::V1_1::BpHwSupplicantStaIfaceCallback::ping",
   "linker_set_key" : "_ZN7android8hardware4wifi10supplicant4V1_130BpHwSupplicantStaIfaceCallback4pingEv",
   "parameters" :
   [
    {
     "is_this_ptr" : true,
     "referenced_type" : "_ZTIPN7android8hardware4wifi10supplicant4V1_130BpHwSupplicantStaIfaceCallbackE"
    }
   ],
   "return_type" : "_ZTIN7android8hardware6ReturnIvEE",
   "source_file" : "/out/soong/.intermediates/hardware/interfaces/wifi/supplicant/1.1/android.hardware.wifi.supplicant@1.1_genc++_headers/gen/android/hardware/wifi/supplicant/1.1/BpHwSupplicantStaIfaceCallback.h"
  },
  {
   "function_name" : "android::hardware::wifi::supplicant::V1_1::BpHwSupplicantStaIfaceCallback::debug",
   "linker_set_key" : "_ZN7android8hardware4wifi10supplicant4V1_130BpHwSupplicantStaIfaceCallback5debugERKNS0_11hidl_handleERKNS0_8hidl_vecINS0_11hidl_stringEEE",
   "parameters" :
   [
    {
     "is_this_ptr" : true,
     "referenced_type" : "_ZTIPN7android8hardware4wifi10supplicant4V1_130BpHwSupplicantStaIfaceCallbackE"
    },
    {
     "referenced_type" : "_ZTIRKN7android8hardware11hidl_handleE"
    },
    {
     "referenced_type" : "_ZTIRKN7android8hardware8hidl_vecINS0_11hidl_stringEEE"
    }
   ],
   "return_type" : "_ZTIN7android8hardware6ReturnIvEE",
   "source_file" : "/out/soong/.intermediates/hardware/interfaces/wifi/supplicant/1.1/android.hardware.wifi.supplicant@1.1_genc++_headers/gen/android/hardware/wifi/supplicant/1.1/BpHwSupplicantStaIfaceCallback.h"
  },
  {
   "function_name" : "android::hardware::wifi::supplicant::V1_1::BpHwSupplicantStaIfaceCallback::BpHwSupplicantStaIfaceCallback",
   "linker_set_key" : "_ZN7android8hardware4wifi10supplicant4V1_130BpHwSupplicantStaIfaceCallbackC1ERKNS_2spINS0_7IBinderEEE",
   "parameters" :
   [
    {
     "is_this_ptr" : true,
     "referenced_type" : "_ZTIPN7android8hardware4wifi10supplicant4V1_130BpHwSupplicantStaIfaceCallbackE"
    },
    {
     "referenced_type" : "_ZTIRKN7android2spINS_8hardware7IBinderEEE"
    }
   ],
   "return_type" : "_ZTIv",
   "source_file" : "/out/soong/.intermediates/hardware/interfaces/wifi/supplicant/1.1/android.hardware.wifi.supplicant@1.1_genc++_headers/gen/android/hardware/wifi/supplicant/1.1/BpHwSupplicantStaIfaceCallback.h"
  },
  {
   "function_name" : "android::hardware::wifi::supplicant::V1_1::BpHwSupplicantStaIfaceCallback::BpHwSupplicantStaIfaceCallback",
   "linker_set_key" : "_ZN7android8hardware4wifi10supplicant4V1_130BpHwSupplicantStaIfaceCallbackC2ERKNS_2spINS0_7IBinderEEE",
   "parameters" :
   [
    {
     "is_this_ptr" : true,
     "referenced_type" : "_ZTIPN7android8hardware4wifi10supplicant4V1_130BpHwSupplicantStaIfaceCallbackE"
    },
    {
     "referenced_type" : "_ZTIRKN7android2spINS_8hardware7IBinderEEE"
    }
   ],
   "return_type" : "_ZTIv",
   "source_file" : "/out/soong/.intermediates/hardware/interfaces/wifi/supplicant/1.1/android.hardware.wifi.supplicant@1.1_genc++_headers/gen/android/hardware/wifi/supplicant/1.1/BpHwSupplicantStaIfaceCallback.h"
  },
  {
   "function_name" : "android::hardware::details::castInterface",
   "linker_set_key" : "_ZN7android8hardware7details13castInterfaceINS0_4wifi10supplicant4V1_111ISupplicantENS4_4V1_011ISupplicantENS5_14BpHwSupplicantEEENS0_6ReturnINS_2spIT_EEEENSB_IT0_EEPKcb",
   "parameters" :
   [
    {
     "referenced_type" : "_ZTIN7android2spINS_8hardware4wifi10supplicant4V1_011ISupplicantEEE"
    },
    {
     "referenced_type" : "_ZTIPKc"
    },
    {
     "referenced_type" : "_ZTIb"
    }
   ],
   "return_type" : "_ZTIN7android8hardware6ReturnINS_2spINS0_4wifi10supplicant4V1_111ISupplicantEEEEE",
   "source_file" : "/system/libhidl/transport/include/hidl/HidlTransportSupport.h",
   "template_args" :
   [
    "_ZTIN7android8hardware4wifi10supplicant4V1_111ISupplicantE",
    "_ZTIN7android8hardware4wifi10supplicant4V1_011ISupplicantE",
    "_ZTIN7android8hardware4wifi10supplicant4V1_114BpHwSupplicantE"
   ]
  },
  {
   "function_name" : "android::hardware::details::castInterface",
   "linker_set_key" : "_ZN7android8hardware7details13castInterfaceINS0_4wifi10supplicant4V1_111ISupplicantENS_4hidl4base4V1_05IBaseENS5_14BpHwSupplicantEEENS0_6ReturnINS_2spIT_EEEENSD_IT0_EEPKcb",
   "parameters" :
   [
    {
     "referenced_type" : "_ZTIN7android2spINS_4hidl4base4V1_05IBaseEEE"
