{
 "array_types" :
 [
  {
   "alignment" : 4,
   "linker_set_key" : "_ZTIA0_i",
   "name" : "int [0]",
   "referenced_type" : "_ZTIi",
   "self_type" : "_ZTIA0_i",
   "source_file" : "/system/core/libcutils/include/cutils/native_handle.h"
  },
  {
   "alignment" : 1,
   "linker_set_key" : "_ZTIA16_c",
   "name" : "char [16]",
   "referenced_type" : "_ZTIc",
   "self_type" : "_ZTIA16_c",
   "size" : 16,
   "source_file" : "/system/libhidl/transport/include/hidl/ConcurrentMap.h"
  },
  {
   "alignment" : 4,
   "linker_set_key" : "_ZTIA16_f",
   "name" : "float [16]",
   "referenced_type" : "_ZTIf",
   "self_type" : "_ZTIA16_f",
   "size" : 64,
   "source_file" : "/system/libhidl/base/include/hidl/HidlSupport.h"
  },
  {
   "alignment" : 1,
   "linker_set_key" : "_ZTIA32_h",
   "name" : "unsigned char [32]",
   "referenced_type" : "_ZTIh",
   "self_type" : "_ZTIA32_h",
   "size" : 32,
   "source_file" : "/system/libhidl/base/include/hidl/HidlSupport.h"
  },
  {
   "alignment" : 1,
   "linker_set_key" : "_ZTIA3_h",
   "name" : "unsigned char [3]",
   "referenced_type" : "_ZTIh",
   "self_type" : "_ZTIA3_h",
   "size" : 3,
   "source_file" : "/system/libhidl/base/include/hidl/HidlSupport.h"
  },
  {
   "alignment" : 1,
   "linker_set_key" : "_ZTIA5121_h",
   "name" : "unsigned char [5121]",
   "referenced_type" : "_ZTIh",
   "self_type" : "_ZTIA5121_h",
   "size" : 5121,
   "source_file" : "/system/core/liblog/include/log/log_read.h"
  },
  {
   "alignment" : 1,
   "linker_set_key" : "_ZTIA7_h",
   "name" : "unsigned char [7]",
   "referenced_type" : "_ZTIh",
   "self_type" : "_ZTIA7_h",
   "size" : 7,
   "source_file" : "/system/libhidl/base/include/hidl/HidlSupport.h"
  },
  {
   "alignment" : 4,
   "linker_set_key" : "_ZTIA8_j",
   "name" : "unsigned int [8]",
   "referenced_type" : "_ZTIj",
   "self_type" : "_ZTIA8_j",
   "size" : 32,
   "source_file" : "/system/core/libsystem/include/system/graphics.h"
  },
  {
   "linker_set_key" : "_ZTIA_f",
   "name" : "float []",
   "referenced_type" : "_ZTIf",
   "self_type" : "_ZTIA_f",
   "source_file" : "/system/core/libsystem/include/system/graphics.h"
  }
 ],
 "builtin_types" :
 [
  {
   "alignment" : 2,
   "is_integral" : true,
   "is_unsigned" : true,
   "linker_set_key" : "_ZTIDs",
   "name" : "char16_t",
   "referenced_type" : "_ZTIDs",
   "self_type" : "_ZTIDs",
   "size" : 2
  },
  {
   "alignment" : 1,
   "is_integral" : true,
   "linker_set_key" : "_ZTIa",
   "name" : "signed char",
   "referenced_type" : "_ZTIa",
   "self_type" : "_ZTIa",
   "size" : 1
  },
  {
   "alignment" : 1,
   "is_integral" : true,
   "is_unsigned" : true,
   "linker_set_key" : "_ZTIb",
   "name" : "bool",
   "referenced_type" : "_ZTIb",
   "self_type" : "_ZTIb",
   "size" : 1
  },
  {
   "alignment" : 1,
   "is_integral" : true,
   "is_unsigned" : true,
   "linker_set_key" : "_ZTIc",
   "name" : "char",
   "referenced_type" : "_ZTIc",
   "self_type" : "_ZTIc",
   "size" : 1
  },
  {
   "alignment" : 8,
   "linker_set_key" : "_ZTId",
   "name" : "double",
   "referenced_type" : "_ZTId",
   "self_type" : "_ZTId",
   "size" : 8
  },
  {
   "alignment" : 4,
   "linker_set_key" : "_ZTIf",
   "name" : "float",
   "referenced_type" : "_ZTIf",
   "self_type" : "_ZTIf",
   "size" : 4
  },
  {
   "alignment" : 1,
   "is_integral" : true,
   "is_unsigned" : true,
   "linker_set_key" : "_ZTIh",
   "name" : "unsigned char",
   "referenced_type" : "_ZTIh",
   "self_type" : "_ZTIh",
   "size" : 1
  },
  {
   "alignment" : 4,
   "is_integral" : true,
   "linker_set_key" : "_ZTIi",
   "name" : "int",
   "referenced_type" : "_ZTIi",
   "self_type" : "_ZTIi",
   "size" : 4
  },
  {
   "alignment" : 4,
   "is_integral" : true,
   "is_unsigned" : true,
   "linker_set_key" : "_ZTIj",
   "name" : "unsigned int",
   "referenced_type" : "_ZTIj",
   "self_type" : "_ZTIj",
   "size" : 4
  },
  {
   "alignment" : 4,
   "is_integral" : true,
   "linker_set_key" : "_ZTIl",
   "name" : "long",
   "referenced_type" : "_ZTIl",
   "self_type" : "_ZTIl",
   "size" : 4
  },
  {
   "alignment" : 4,
   "is_integral" : true,
   "is_unsigned" : true,
   "linker_set_key" : "_ZTIm",
   "name" : "unsigned long",
   "referenced_type" : "_ZTIm",
   "self_type" : "_ZTIm",
   "size" : 4
  },
  {
   "alignment" : 2,
   "is_integral" : true,
   "linker_set_key" : "_ZTIs",
   "name" : "short",
   "referenced_type" : "_ZTIs",
   "self_type" : "_ZTIs",
   "size" : 2
  },
  {
   "alignment" : 2,
   "is_integral" : true,
   "is_unsigned" : true,
   "linker_set_key" : "_ZTIt",
   "name" : "unsigned short",
   "referenced_type" : "_ZTIt",
   "self_type" : "_ZTIt",
   "size" : 2
  },
  {
   "linker_set_key" : "_ZTIv",
   "name" : "void",
   "referenced_type" : "_ZTIv",
   "self_type" : "_ZTIv"
  },
  {
   "alignment" : 8,
   "is_integral" : true,
   "linker_set_key" : "_ZTIx",
   "name" : "long long",
   "referenced_type" : "_ZTIx",
   "self_type" : "_ZTIx",
   "size" : 8
  },
  {
   "alignment" : 8,
   "is_integral" : true,
   "is_unsigned" : true,
   "linker_set_key" : "_ZTIy",
   "name" : "unsigned long long",
   "referenced_type" : "_ZTIy",
   "self_type" : "_ZTIy",
   "size" : 8
  }
 ],
 "elf_functions" :
 [
  {
   "binding" : "weak",
   "name" : "_ZN7android8hardware7details13castInterfaceINS0_8graphics8composer4V2_215IComposerClientENS4_4V2_115IComposerClientENS5_18BpHwComposerClientEEENS0_6ReturnINS_2spIT_EEEENSB_IT0_EEPKcb"
  },
  {
   "binding" : "weak",
   "name" : "_ZN7android8hardware7details13castInterfaceINS0_8graphics8composer4V2_215IComposerClientENS_4hidl4base4V1_05IBaseENS5_18BpHwComposerClientEEENS0_6ReturnINS_2spIT_EEEENSD_IT0_EEPKcb"
  },
  {
   "binding" : "weak",
   "name" : "_ZN7android8hardware7details13castInterfaceINS0_8graphics8composer4V2_29IComposerENS4_4V2_19IComposerENS5_12BpHwComposerEEENS0_6ReturnINS_2spIT_EEEENSB_IT0_EEPKcb"
  },
  {
   "binding" : "weak",
   "name" : "_ZN7android8hardware7details13castInterfaceINS0_8graphics8composer4V2_29IComposerENS_4hidl4base4V1_05IBaseENS5_12BpHwComposerEEENS0_6ReturnINS_2spIT_EEEENSD_IT0_EEPKcb"
  },
  {
   "binding" : "weak",
   "name" : "_ZN7android8hardware7details15wrapPassthroughINS0_8graphics8composer4V2_115IComposerClientEvEENS_2spIT_EES9_"
  },
  {
   "binding" : "weak",
   "name" : "_ZN7android8hardware7details15wrapPassthroughINS0_8graphics8composer4V2_117IComposerCallbackEvEENS_2spIT_EES9_"
  },
  {
   "binding" : "weak",
   "name" : "_ZN7android8hardware7details18getServiceInternalINS0_8graphics8composer4V2_212BpHwComposerENS5_9IComposerEvvEENS_2spIT0_EERKNSt3__112basic_stringIcNSB_11char_traitsIcEENSB_9allocatorIcEEEEbb"
  },
  {
   "binding" : "weak",
   "name" : "_ZN7android8hardware7details18getServiceInternalINS0_8graphics8composer4V2_218BpHwComposerClientENS5_15IComposerClientEvvEENS_2spIT0_EERKNSt3__112basic_stringIcNSB_11char_traitsIcEENSB_9allocatorIcEEEEbb"
  },
  {
   "name" : "_ZN7android8hardware8graphics8composer4V2_210BsComposer13addOnewayTaskENSt3__18functionIFvvEEE"
  },
  {
   "name" : "_ZN7android8hardware8graphics8composer4V2_210BsComposerC1ENS_2spINS3_9IComposerEEE"
  },
  {
   "name" : "_ZN7android8hardware8graphics8composer4V2_210BsComposerC2ENS_2spINS3_9IComposerEEE"
  },
  {
   "name" : "_ZN7android8hardware8graphics8composer4V2_212BnHwComposer10onTransactEjRKNS0_6ParcelEPS5_jNSt3__18functionIFvRS5_EEE"
  },
  {
   "name" : "_ZN7android8hardware8graphics8composer4V2_212BnHwComposer12getDebugInfoENSt3__18functionIFvRKNS_4hidl4base4V1_09DebugInfoEEEE"
  },
  {
   "name" : "_ZN7android8hardware8graphics8composer4V2_212BnHwComposer4pingEv"
  },
  {
   "name" : "_ZN7android8hardware8graphics8composer4V2_212BnHwComposerC1ERKNS_2spINS3_9IComposerEEE"
  },
  {
   "name" : "_ZN7android8hardware8graphics8composer4V2_212BnHwComposerC2ERKNS_2spINS3_9IComposerEEE"
  },
  {
   "name" : "_ZN7android8hardware8graphics8composer4V2_212BnHwComposerD0Ev"
  },
  {
   "name" : "_ZN7android8hardware8graphics8composer4V2_212BnHwComposerD1Ev"
  },
  {
   "name" : "_ZN7android8hardware8graphics8composer4V2_212BnHwComposerD2Ev"
  },
  {
   "name" : "_ZN7android8hardware8graphics8composer4V2_212BpHwComposer11linkToDeathERKNS_2spINS0_20hidl_death_recipientEEEy"
  },
  {
   "name" : "_ZN7android8hardware8graphics8composer4V2_212BpHwComposer12createClientENSt3__18functionIFvNS2_4V2_15ErrorERKNS_2spINS7_15IComposerClientEEEEEE"
  },
  {
   "name" : "_ZN7android8hardware8graphics8composer4V2_212BpHwComposer12getDebugInfoENSt3__18functionIFvRKNS_4hidl4base4V1_09DebugInfoEEEE"
  },
  {
   "name" : "_ZN7android8hardware8graphics8composer4V2_212BpHwComposer12getHashChainENSt3__18functionIFvRKNS0_8hidl_vecINS0_10hidl_arrayIhLj32EJEEEEEEEE"
  },
  {
   "name" : "_ZN7android8hardware8graphics8composer4V2_212BpHwComposer13dumpDebugInfoENSt3__18functionIFvRKNS0_11hidl_stringEEEE"
  },
  {
   "name" : "_ZN7android8hardware8graphics8composer4V2_212BpHwComposer13unlinkToDeathERKNS_2spINS0_20hidl_death_recipientEEE"
  },
  {
   "name" : "_ZN7android8hardware8graphics8composer4V2_212BpHwComposer14interfaceChainENSt3__18functionIFvRKNS0_8hidl_vecINS0_11hidl_stringEEEEEE"
  },
  {
   "name" : "_ZN7android8hardware8graphics8composer4V2_212BpHwComposer15getCapabilitiesENSt3__18functionIFvRKNS0_8hidl_vecINS2_4V2_19IComposer10CapabilityEEEEEE"
  },
  {
   "name" : "_ZN7android8hardware8graphics8composer4V2_212BpHwComposer15onLastStrongRefEPKv"
  },
  {
   "name" : "_ZN7android8hardware8graphics8composer4V2_212BpHwComposer19interfaceDescriptorENSt3__18functionIFvRKNS0_11hidl_stringEEEE"
  },
  {
   "name" : "_ZN7android8hardware8graphics8composer4V2_212BpHwComposer21notifySyspropsChangedEv"
  },
  {
   "name" : "_ZN7android8hardware8graphics8composer4V2_212BpHwComposer21setHALInstrumentationEv"
  },
  {
   "name" : "_ZN7android8hardware8graphics8composer4V2_212BpHwComposer4pingEv"
  },
  {
   "name" : "_ZN7android8hardware8graphics8composer4V2_212BpHwComposer5debugERKNS0_11hidl_handleERKNS0_8hidl_vecINS0_11hidl_stringEEE"
  },
  {
   "name" : "_ZN7android8hardware8graphics8composer4V2_212BpHwComposerC1ERKNS_2spINS0_7IBinderEEE"
  },
  {
   "name" : "_ZN7android8hardware8graphics8composer4V2_212BpHwComposerC2ERKNS_2spINS0_7IBinderEEE"
  },
  {
   "name" : "_ZN7android8hardware8graphics8composer4V2_215IComposerClient10getServiceERKNSt3__112basic_stringIcNS5_11char_traitsIcEENS5_9allocatorIcEEEEb"
  },
  {
   "name" : "_ZN7android8hardware8graphics8composer4V2_215IComposerClient11linkToDeathERKNS_2spINS0_20hidl_death_recipientEEEy"
  },
  {
   "name" : "_ZN7android8hardware8graphics8composer4V2_215IComposerClient12getDebugInfoENSt3__18functionIFvRKNS_4hidl4base4V1_09DebugInfoEEEE"
  },
  {
   "name" : "_ZN7android8hardware8graphics8composer4V2_215IComposerClient12getHashChainENSt3__18functionIFvRKNS0_8hidl_vecINS0_10hidl_arrayIhLj32EJEEEEEEEE"
  },
  {
   "name" : "_ZN7android8hardware8graphics8composer4V2_215IComposerClient13tryGetServiceERKNSt3__112basic_stringIcNS5_11char_traitsIcEENS5_9allocatorIcEEEEb"
  },
  {
   "name" : "_ZN7android8hardware8graphics8composer4V2_215IComposerClient13unlinkToDeathERKNS_2spINS0_20hidl_death_recipientEEE"
  },
  {
   "name" : "_ZN7android8hardware8graphics8composer4V2_215IComposerClient14interfaceChainENSt3__18functionIFvRKNS0_8hidl_vecINS0_11hidl_stringEEEEEE"
  },
  {
   "name" : "_ZN7android8hardware8graphics8composer4V2_215IComposerClient17registerAsServiceERKNSt3__112basic_stringIcNS5_11char_traitsIcEENS5_9allocatorIcEEEE"
  },
  {
   "name" : "_ZN7android8hardware8graphics8composer4V2_215IComposerClient19interfaceDescriptorENSt3__18functionIFvRKNS0_11hidl_stringEEEE"
  },
  {
   "name" : "_ZN7android8hardware8graphics8composer4V2_215IComposerClient21notifySyspropsChangedEv"
  },
  {
   "name" : "_ZN7android8hardware8graphics8composer4V2_215IComposerClient21setHALInstrumentationEv"
  },
  {
   "name" : "_ZN7android8hardware8graphics8composer4V2_215IComposerClient24registerForNotificationsERKNSt3__112basic_stringIcNS5_11char_traitsIcEENS5_9allocatorIcEEEERKNS_2spINS_4hidl7manager4V1_020IServiceNotificationEEE"
  },
  {
   "name" : "_ZN7android8hardware8graphics8composer4V2_215IComposerClient4pingEv"
  },
  {
   "name" : "_ZN7android8hardware8graphics8composer4V2_215IComposerClient5debugERKNS0_11hidl_handleERKNS0_8hidl_vecINS0_11hidl_stringEEE"
  },
  {
   "name" : "_ZN7android8hardware8graphics8composer4V2_215IComposerClient8castFromERKNS_2spINS2_4V2_115IComposerClientEEEb"
  },
  {
   "name" : "_ZN7android8hardware8graphics8composer4V2_215IComposerClient8castFromERKNS_2spINS_4hidl4base4V1_05IBaseEEEb"
  },
  {
   "name" : "_ZN7android8hardware8graphics8composer4V2_215IComposerClient8castFromERKNS_2spIS4_EEb"
  },
  {
   "name" : "_ZN7android8hardware8graphics8composer4V2_216BsComposerClient13addOnewayTaskENSt3__18functionIFvvEEE"
  },
  {
   "name" : "_ZN7android8hardware8graphics8composer4V2_216BsComposerClientC1ENS_2spINS3_15IComposerClientEEE"
  },
  {
   "name" : "_ZN7android8hardware8graphics8composer4V2_216BsComposerClientC2ENS_2spINS3_15IComposerClientEEE"
  },
  {
   "name" : "_ZN7android8hardware8graphics8composer4V2_218BnHwComposerClient10onTransactEjRKNS0_6ParcelEPS5_jNSt3__18functionIFvRS5_EEE"
  },
  {
   "name" : "_ZN7android8hardware8graphics8composer4V2_218BnHwComposerClient12getDebugInfoENSt3__18functionIFvRKNS_4hidl4base4V1_09DebugInfoEEEE"
  },
  {
   "name" : "_ZN7android8hardware8graphics8composer4V2_218BnHwComposerClient22_hidl_getRenderIntentsEPNS_4hidl4base4V1_08BnHwBaseERKNS0_6ParcelEPSA_NSt3__18functionIFvRSA_EEE"
  },
  {
   "name" : "_ZN7android8hardware8graphics8composer4V2_218BnHwComposerClient22_hidl_setColorMode_2_2EPNS_4hidl4base4V1_08BnHwBaseERKNS0_6ParcelEPSA_NSt3__18functionIFvRSA_EEE"
  },
  {
   "name" : "_ZN7android8hardware8graphics8composer4V2_218BnHwComposerClient22_hidl_setPowerMode_2_2EPNS_4hidl4base4V1_08BnHwBaseERKNS0_6ParcelEPSA_NSt3__18functionIFvRSA_EEE"
  },
  {
   "name" : "_ZN7android8hardware8graphics8composer4V2_218BnHwComposerClient23_hidl_getColorModes_2_2EPNS_4hidl4base4V1_08BnHwBaseERKNS0_6ParcelEPSA_NSt3__18functionIFvRSA_EEE"
  },
  {
   "name" : "_ZN7android8hardware8graphics8composer4V2_218BnHwComposerClient23_hidl_setReadbackBufferEPNS_4hidl4base4V1_08BnHwBaseERKNS0_6ParcelEPSA_NSt3__18functionIFvRSA_EEE"
  },
  {
   "name" : "_ZN7android8hardware8graphics8composer4V2_218BnHwComposerClient25_hidl_executeCommands_2_2EPNS_4hidl4base4V1_08BnHwBaseERKNS0_6ParcelEPSA_NSt3__18functionIFvRSA_EEE"
  },
  {
   "name" : "_ZN7android8hardware8graphics8composer4V2_218BnHwComposerClient28_hidl_getReadbackBufferFenceEPNS_4hidl4base4V1_08BnHwBaseERKNS0_6ParcelEPSA_NSt3__18functionIFvRSA_EEE"
  },
  {
   "name" : "_ZN7android8hardware8graphics8composer4V2_218BnHwComposerClient29_hidl_getPerFrameMetadataKeysEPNS_4hidl4base4V1_08BnHwBaseERKNS0_6ParcelEPSA_NSt3__18functionIFvRSA_EEE"
  },
  {
   "name" : "_ZN7android8hardware8graphics8composer4V2_218BnHwComposerClient30_hidl_createVirtualDisplay_2_2EPNS_4hidl4base4V1_08BnHwBaseERKNS0_6ParcelEPSA_NSt3__18functionIFvRSA_EEE"
  },
  {
   "name" : "_ZN7android8hardware8graphics8composer4V2_218BnHwComposerClient32_hidl_getClientTargetSupport_2_2EPNS_4hidl4base4V1_08BnHwBaseERKNS0_6ParcelEPSA_NSt3__18functionIFvRSA_EEE"
  },
  {
   "name" : "_ZN7android8hardware8graphics8composer4V2_218BnHwComposerClient33_hidl_getReadbackBufferAttributesEPNS_4hidl4base4V1_08BnHwBaseERKNS0_6ParcelEPSA_NSt3__18functionIFvRSA_EEE"
  },
  {
   "name" : "_ZN7android8hardware8graphics8composer4V2_218BnHwComposerClient34_hidl_getDataspaceSaturationMatrixEPNS_4hidl4base4V1_08BnHwBaseERKNS0_6ParcelEPSA_NSt3__18functionIFvRSA_EEE"
  },
  {
   "name" : "_ZN7android8hardware8graphics8composer4V2_218BnHwComposerClient4pingEv"
  },
  {
   "name" : "_ZN7android8hardware8graphics8composer4V2_218BnHwComposerClientC1ERKNS_2spINS3_15IComposerClientEEE"
  },
  {
   "name" : "_ZN7android8hardware8graphics8composer4V2_218BnHwComposerClientC2ERKNS_2spINS3_15IComposerClientEEE"
  },
  {
   "name" : "_ZN7android8hardware8graphics8composer4V2_218BnHwComposerClientD0Ev"
  },
  {
   "name" : "_ZN7android8hardware8graphics8composer4V2_218BnHwComposerClientD1Ev"
  },
  {
   "name" : "_ZN7android8hardware8graphics8composer4V2_218BnHwComposerClientD2Ev"
  },
  {
   "name" : "_ZN7android8hardware8graphics8composer4V2_218BpHwComposerClient11createLayerEyjNSt3__18functionIFvNS2_4V2_15ErrorEyEEE"
  },
  {
   "name" : "_ZN7android8hardware8graphics8composer4V2_218BpHwComposerClient11linkToDeathERKNS_2spINS0_20hidl_death_recipientEEEy"
  },
  {
   "name" : "_ZN7android8hardware8graphics8composer4V2_218BpHwComposerClient12destroyLayerEyy"
  },
  {
   "name" : "_ZN7android8hardware8graphics8composer4V2_218BpHwComposerClient12getDebugInfoENSt3__18functionIFvRKNS_4hidl4base4V1_09DebugInfoEEEE"
  },
  {
   "name" : "_ZN7android8hardware8graphics8composer4V2_218BpHwComposerClient12getHashChainENSt3__18functionIFvRKNS0_8hidl_vecINS0_10hidl_arrayIhLj32EJEEEEEEEE"
  },
  {
   "name" : "_ZN7android8hardware8graphics8composer4V2_218BpHwComposerClient12setColorModeEyNS1_6common4V1_09ColorModeE"
  },
  {
   "name" : "_ZN7android8hardware8graphics8composer4V2_218BpHwComposerClient12setPowerModeEyNS2_4V2_115IComposerClient9PowerModeE"
  },
  {
   "name" : "_ZN7android8hardware8graphics8composer4V2_218BpHwComposerClient13getColorModesEyNSt3__18functionIFvNS2_4V2_15ErrorERKNS0_8hidl_vecINS1_6common4V1_09ColorModeEEEEEE"
  },
  {
   "name" : "_ZN7android8hardware8graphics8composer4V2_218BpHwComposerClient13unlinkToDeathERKNS_2spINS0_20hidl_death_recipientEEE"
  },
  {
   "name" : "_ZN7android8hardware8graphics8composer4V2_218BpHwComposerClient14getDisplayNameEyNSt3__18functionIFvNS2_4V2_15ErrorERKNS0_11hidl_stringEEEE"
  },
  {
   "name" : "_ZN7android8hardware8graphics8composer4V2_218BpHwComposerClient14getDisplayTypeEyNSt3__18functionIFvNS2_4V2_15ErrorENS7_15IComposerClient11DisplayTypeEEEE"
  },
  {
   "name" : "_ZN7android8hardware8graphics8composer4V2_218BpHwComposerClient14getDozeSupportEyNSt3__18functionIFvNS2_4V2_15ErrorEbEEE"
  },
  {
   "name" : "_ZN7android8hardware8graphics8composer4V2_218BpHwComposerClient14interfaceChainENSt3__18functionIFvRKNS0_8hidl_vecINS0_11hidl_stringEEEEEE"
  },
  {
   "name" : "_ZN7android8hardware8graphics8composer4V2_218BpHwComposerClient15executeCommandsEjRKNS0_8hidl_vecINS0_11hidl_handleEEENSt3__18functionIFvNS2_4V2_15ErrorEbjS9_EEE"
  },
  {
   "name" : "_ZN7android8hardware8graphics8composer4V2_218BpHwComposerClient15getActiveConfigEyNSt3__18functionIFvNS2_4V2_15ErrorEjEEE"
  },
  {
   "name" : "_ZN7android8hardware8graphics8composer4V2_218BpHwComposerClient15onLastStrongRefEPKv"
  },
  {
   "name" : "_ZN7android8hardware8graphics8composer4V2_218BpHwComposerClient15setActiveConfigEyj"
  },
  {
   "name" : "_ZN7android8hardware8graphics8composer4V2_218BpHwComposerClient15setVsyncEnabledEyNS2_4V2_115IComposerClient5VsyncE"
  },
  {
   "name" : "_ZN7android8hardware8graphics8composer4V2_218BpHwComposerClient16getRenderIntentsEyNS1_6common4V1_19ColorModeENSt3__18functionIFvNS2_4V2_15ErrorERKNS0_8hidl_vecINS6_12RenderIntentEEEEEE"
  },
  {
   "name" : "_ZN7android8hardware8graphics8composer4V2_218BpHwComposerClient16registerCallbackERKNS_2spINS2_4V2_117IComposerCallbackEEE"
  },
  {
   "name" : "_ZN7android8hardware8graphics8composer4V2_218BpHwComposerClient16setColorMode_2_2EyNS1_6common4V1_19ColorModeENS6_12RenderIntentE"
  },
  {
   "name" : "_ZN7android8hardware8graphics8composer4V2_218BpHwComposerClient16setPowerMode_2_2EyNS3_15IComposerClient9PowerModeE"
  },
  {
   "name" : "_ZN7android8hardware8graphics8composer4V2_218BpHwComposerClient17getColorModes_2_2EyNSt3__18functionIFvNS2_4V2_15ErrorERKNS0_8hidl_vecINS1_6common4V1_19ColorModeEEEEEE"
  },
  {
   "name" : "_ZN7android8hardware8graphics8composer4V2_218BpHwComposerClient17getDisplayConfigsEyNSt3__18functionIFvNS2_4V2_15ErrorERKNS0_8hidl_vecIjEEEEE"
  },
  {
   "name" : "_ZN7android8hardware8graphics8composer4V2_218BpHwComposerClient17setReadbackBufferEyRKNS0_11hidl_handleES7_"
  },
  {
   "name" : "_ZN7android8hardware8graphics8composer4V2_218BpHwComposerClient18getHdrCapabilitiesEyNSt3__18functionIFvNS2_4V2_15ErrorERKNS0_8hidl_vecINS1_6common4V1_03HdrEEEfffEEE"
  },
  {
   "name" : "_ZN7android8hardware8graphics8composer4V2_218BpHwComposerClient19executeCommands_2_2EjRKNS0_8hidl_vecINS0_11hidl_handleEEENSt3__18functionIFvNS2_4V2_15ErrorEbjS9_EEE"
  },
  {
   "name" : "_ZN7android8hardware8graphics8composer4V2_218BpHwComposerClient19getDisplayAttributeEyjNS2_4V2_115IComposerClient9AttributeENSt3__18functionIFvNS5_5ErrorEiEEE"
  },
  {
   "name" : "_ZN7android8hardware8graphics8composer4V2_218BpHwComposerClient19interfaceDescriptorENSt3__18functionIFvRKNS0_11hidl_stringEEEE"
  },
  {
   "name" : "_ZN7android8hardware8graphics8composer4V2_218BpHwComposerClient20createVirtualDisplayEjjNS1_6common4V1_011PixelFormatEjNSt3__18functionIFvNS2_4V2_15ErrorEyS7_EEE"
  },
  {
   "name" : "_ZN7android8hardware8graphics8composer4V2_218BpHwComposerClient20setInputCommandQueueERKNS0_12MQDescriptorIjLNS0_8MQFlavorE1EEE"
  },
  {
   "name" : "_ZN7android8hardware8graphics8composer4V2_218BpHwComposerClient21destroyVirtualDisplayEy"
  },
  {
   "name" : "_ZN7android8hardware8graphics8composer4V2_218BpHwComposerClient21getOutputCommandQueueENSt3__18functionIFvNS2_4V2_15ErrorERKNS0_12MQDescriptorIjLNS0_8MQFlavorE1EEEEEE"
  },
  {
   "name" : "_ZN7android8hardware8graphics8composer4V2_218BpHwComposerClient21notifySyspropsChangedEv"
  },
  {
   "name" : "_ZN7android8hardware8graphics8composer4V2_218BpHwComposerClient21setHALInstrumentationEv"
  },
  {
   "name" : "_ZN7android8hardware8graphics8composer4V2_218BpHwComposerClient22_hidl_getRenderIntentsEPNS0_10IInterfaceEPNS0_7details16HidlInstrumentorEyNS1_6common4V1_19ColorModeENSt3__18functionIFvNS2_4V2_15ErrorERKNS0_8hidl_vecINSB_12RenderIntentEEEEEE"
  },
  {
   "name" : "_ZN7android8hardware8graphics8composer4V2_218BpHwComposerClient22_hidl_setColorMode_2_2EPNS0_10IInterfaceEPNS0_7details16HidlInstrumentorEyNS1_6common4V1_19ColorModeENSB_12RenderIntentE"
  },
  {
   "name" : "_ZN7android8hardware8graphics8composer4V2_218BpHwComposerClient22_hidl_setPowerMode_2_2EPNS0_10IInterfaceEPNS0_7details16HidlInstrumentorEyNS3_15IComposerClient9PowerModeE"
  },
  {
   "name" : "_ZN7android8hardware8graphics8composer4V2_218BpHwComposerClient22getClientTargetSupportEyjjNS1_6common4V1_011PixelFormatENS6_9DataspaceE"
  },
  {
   "name" : "_ZN7android8hardware8graphics8composer4V2_218BpHwComposerClient22getReadbackBufferFenceEyNSt3__18functionIFvNS2_4V2_15ErrorERKNS0_11hidl_handleEEEE"
  },
  {
   "name" : "_ZN7android8hardware8graphics8composer4V2_218BpHwComposerClient23_hidl_getColorModes_2_2EPNS0_10IInterfaceEPNS0_7details16HidlInstrumentorEyNSt3__18functionIFvNS2_4V2_15ErrorERKNS0_8hidl_vecINS1_6common4V1_19ColorModeEEEEEE"
  },
  {
   "name" : "_ZN7android8hardware8graphics8composer4V2_218BpHwComposerClient23_hidl_setReadbackBufferEPNS0_10IInterfaceEPNS0_7details16HidlInstrumentorEyRKNS0_11hidl_handleESC_"
  },
  {
   "name" : "_ZN7android8hardware8graphics8composer4V2_218BpHwComposerClient23getPerFrameMetadataKeysEyNSt3__18functionIFvNS2_4V2_15ErrorERKNS0_8hidl_vecINS3_15IComposerClient19PerFrameMetadataKeyEEEEEE"
  },
  {
   "name" : "_ZN7android8hardware8graphics8composer4V2_218BpHwComposerClient24createVirtualDisplay_2_2EjjNS1_6common4V1_111PixelFormatEjNSt3__18functionIFvNS2_4V2_15ErrorEyS7_EEE"
  },
  {
   "name" : "_ZN7android8hardware8graphics8composer4V2_218BpHwComposerClient24setClientTargetSlotCountEyj"
  },
  {
   "name" : "_ZN7android8hardware8graphics8composer4V2_218BpHwComposerClient25_hidl_executeCommands_2_2EPNS0_10IInterfaceEPNS0_7details16HidlInstrumentorEjRKNS0_8hidl_vecINS0_11hidl_handleEEENSt3__18functionIFvNS2_4V2_15ErrorEbjSE_EEE"
  },
  {
   "name" : "_ZN7android8hardware8graphics8composer4V2_218BpHwComposerClient25getMaxVirtualDisplayCountEv"
  },
  {
   "name" : "_ZN7android8hardware8graphics8composer4V2_218BpHwComposerClient26getClientTargetSupport_2_2EyjjNS1_6common4V1_111PixelFormatENS6_9DataspaceE"
  },
  {
   "name" : "_ZN7android8hardware8graphics8composer4V2_218BpHwComposerClient27getReadbackBufferAttributesEyNSt3__18functionIFvNS2_4V2_15ErrorENS1_6common4V1_111PixelFormatENSA_9DataspaceEEEE"
  },
  {
   "name" : "_ZN7android8hardware8graphics8composer4V2_218BpHwComposerClient28_hidl_getReadbackBufferFenceEPNS0_10IInterfaceEPNS0_7details16HidlInstrumentorEyNSt3__18functionIFvNS2_4V2_15ErrorERKNS0_11hidl_handleEEEE"
  },
  {
   "name" : "_ZN7android8hardware8graphics8composer4V2_218BpHwComposerClient28getDataspaceSaturationMatrixENS1_6common4V1_19DataspaceENSt3__18functionIFvNS2_4V2_15ErrorERKNS0_10hidl_arrayIfLj4EJLj4EEEEEEE"
  },
  {
   "name" : "_ZN7android8hardware8graphics8composer4V2_218BpHwComposerClient29_hidl_getPerFrameMetadataKeysEPNS0_10IInterfaceEPNS0_7details16HidlInstrumentorEyNSt3__18functionIFvNS2_4V2_15ErrorERKNS0_8hidl_vecINS3_15IComposerClient19PerFrameMetadataKeyEEEEEE"
  },
  {
   "name" : "_ZN7android8hardware8graphics8composer4V2_218BpHwComposerClient30_hidl_createVirtualDisplay_2_2EPNS0_10IInterfaceEPNS0_7details16HidlInstrumentorEjjNS1_6common4V1_111PixelFormatEjNSt3__18functionIFvNS2_4V2_15ErrorEySC_EEE"
  },
  {
   "name" : "_ZN7android8hardware8graphics8composer4V2_218BpHwComposerClient32_hidl_getClientTargetSupport_2_2EPNS0_10IInterfaceEPNS0_7details16HidlInstrumentorEyjjNS1_6common4V1_111PixelFormatENSB_9DataspaceE"
  },
  {
   "name" : "_ZN7android8hardware8graphics8composer4V2_218BpHwComposerClient33_hidl_getReadbackBufferAttributesEPNS0_10IInterfaceEPNS0_7details16HidlInstrumentorEyNSt3__18functionIFvNS2_4V2_15ErrorENS1_6common4V1_111PixelFormatENSF_9DataspaceEEEE"
  },
  {
   "name" : "_ZN7android8hardware8graphics8composer4V2_218BpHwComposerClient34_hidl_getDataspaceSaturationMatrixEPNS0_10IInterfaceEPNS0_7details16HidlInstrumentorENS1_6common4V1_19DataspaceENSt3__18functionIFvNS2_4V2_15ErrorERKNS0_10hidl_arrayIfLj4EJLj4EEEEEEE"
  },
  {
   "name" : "_ZN7android8hardware8graphics8composer4V2_218BpHwComposerClient4pingEv"
  },
  {
   "name" : "_ZN7android8hardware8graphics8composer4V2_218BpHwComposerClient5debugERKNS0_11hidl_handleERKNS0_8hidl_vecINS0_11hidl_stringEEE"
  },
  {
   "name" : "_ZN7android8hardware8graphics8composer4V2_218BpHwComposerClientC1ERKNS_2spINS0_7IBinderEEE"
  },
  {
   "name" : "_ZN7android8hardware8graphics8composer4V2_218BpHwComposerClientC2ERKNS_2spINS0_7IBinderEEE"
  },
  {
   "name" : "_ZN7android8hardware8graphics8composer4V2_29IComposer10getServiceERKNSt3__112basic_stringIcNS5_11char_traitsIcEENS5_9allocatorIcEEEEb"
  },
  {
   "name" : "_ZN7android8hardware8graphics8composer4V2_29IComposer11linkToDeathERKNS_2spINS0_20hidl_death_recipientEEEy"
  },
  {
   "name" : "_ZN7android8hardware8graphics8composer4V2_29IComposer12getDebugInfoENSt3__18functionIFvRKNS_4hidl4base4V1_09DebugInfoEEEE"
  },
  {
   "name" : "_ZN7android8hardware8graphics8composer4V2_29IComposer12getHashChainENSt3__18functionIFvRKNS0_8hidl_vecINS0_10hidl_arrayIhLj32EJEEEEEEEE"
  },
  {
   "name" : "_ZN7android8hardware8graphics8composer4V2_29IComposer13tryGetServiceERKNSt3__112basic_stringIcNS5_11char_traitsIcEENS5_9allocatorIcEEEEb"
  },
  {
   "name" : "_ZN7android8hardware8graphics8composer4V2_29IComposer13unlinkToDeathERKNS_2spINS0_20hidl_death_recipientEEE"
  },
  {
   "name" : "_ZN7android8hardware8graphics8composer4V2_29IComposer14interfaceChainENSt3__18functionIFvRKNS0_8hidl_vecINS0_11hidl_stringEEEEEE"
  },
  {
   "name" : "_ZN7android8hardware8graphics8composer4V2_29IComposer17registerAsServiceERKNSt3__112basic_stringIcNS5_11char_traitsIcEENS5_9allocatorIcEEEE"
  },
  {
   "name" : "_ZN7android8hardware8graphics8composer4V2_29IComposer19interfaceDescriptorENSt3__18functionIFvRKNS0_11hidl_stringEEEE"
  },
  {
   "name" : "_ZN7android8hardware8graphics8composer4V2_29IComposer21notifySyspropsChangedEv"
  },
  {
   "name" : "_ZN7android8hardware8graphics8composer4V2_29IComposer21setHALInstrumentationEv"
  },
  {
   "name" : "_ZN7android8hardware8graphics8composer4V2_29IComposer24registerForNotificationsERKNSt3__112basic_stringIcNS5_11char_traitsIcEENS5_9allocatorIcEEEERKNS_2spINS_4hidl7manager4V1_020IServiceNotificationEEE"
  },
  {
   "name" : "_ZN7android8hardware8graphics8composer4V2_29IComposer4pingEv"
  },
  {
   "name" : "_ZN7android8hardware8graphics8composer4V2_29IComposer5debugERKNS0_11hidl_handleERKNS0_8hidl_vecINS0_11hidl_stringEEE"
  },
  {
   "name" : "_ZN7android8hardware8graphics8composer4V2_29IComposer8castFromERKNS_2spINS2_4V2_19IComposerEEEb"
  },
  {
   "name" : "_ZN7android8hardware8graphics8composer4V2_29IComposer8castFromERKNS_2spINS_4hidl4base4V1_05IBaseEEEb"
  },
  {
   "name" : "_ZN7android8hardware8graphics8composer4V2_29IComposer8castFromERKNS_2spIS4_EEb"
  },
  {
   "binding" : "weak",
   "name" : "_ZNKSt3__18functionIFvN7android8hardware7details16HidlInstrumentor20InstrumentationEventEPKcS7_S7_S7_PNS_6vectorIPvNS_9allocatorIS9_EEEEEEclES5_S7_S7_S7_S7_SD_"
  },
  {
   "binding" : "weak",
   "name" : "_ZNSt3__113__tree_removeIPNS_16__tree_node_baseIPvEEEEvT_S5_"
  },
  {
   "binding" : "weak",
   "name" : "_ZNSt3__127__tree_balance_after_insertIPNS_16__tree_node_baseIPvEEEEvT_S5_"
  },
  {
   "binding" : "weak",
   "name" : "_ZNSt3__16__treeINS_12__value_typeINS_12basic_stringIcNS_11char_traitsIcEENS_9allocatorIcEEEENS_8functionIFN7android2spINS9_4hidl4base4V1_05IBaseEEEPvEEEEENS_19__map_value_compareIS7_SJ_NS_4lessIS7_EELb1EEENS5_ISJ_EEE12__find_equalIS7_EERPNS_16__tree_node_baseISG_EERPNS_15__tree_end_nodeIST_EERKT_"
  },
  {
   "binding" : "weak",
   "name" : "_ZNSt3__16__treeINS_12__value_typeINS_12basic_stringIcNS_11char_traitsIcEENS_9allocatorIcEEEENS_8functionIFN7android2spINS9_4hidl4base4V1_05IBaseEEEPvEEEEENS_19__map_value_compareIS7_SJ_NS_4lessIS7_EELb1EEENS5_ISJ_EEE4findIS7_EENS_15__tree_iteratorISJ_PNS_11__tree_nodeISJ_SG_EEiEERKT_"
  },
  {
   "binding" : "weak",
   "name" : "_ZNSt3__16__treeINS_12__value_typeINS_12basic_stringIcNS_11char_traitsIcEENS_9allocatorIcEEEENS_8functionIFN7android2spINS9_4hidl4base4V1_05IBaseEEEPvEEEEENS_19__map_value_compareIS7_SJ_NS_4lessIS7_EELb1EEENS5_ISJ_EEE5eraseENS_21__tree_const_iteratorISJ_PNS_11__tree_nodeISJ_SG_EEiEE"
  },
  {
   "binding" : "weak",
   "name" : "_ZNSt3__16__treeINS_12__value_typeINS_12basic_stringIcNS_11char_traitsIcEENS_9allocatorIcEEEENS_8functionIFN7android2spINS9_8hardware7IBinderEEEPvEEEEENS_19__map_value_compareIS7_SH_NS_4lessIS7_EELb1EEENS5_ISH_EEE12__find_equalIS7_EERPNS_16__tree_node_baseISE_EERPNS_15__tree_end_nodeISR_EERKT_"
  },
  {
   "binding" : "weak",
   "name" : "_ZNSt3__16__treeINS_12__value_typeINS_12basic_stringIcNS_11char_traitsIcEENS_9allocatorIcEEEENS_8functionIFN7android2spINS9_8hardware7IBinderEEEPvEEEEENS_19__map_value_compareIS7_SH_NS_4lessIS7_EELb1EEENS5_ISH_EEE4findIS7_EENS_15__tree_iteratorISH_PNS_11__tree_nodeISH_SE_EEiEERKT_"
  },
  {
   "binding" : "weak",
   "name" : "_ZNSt3__16__treeINS_12__value_typeINS_12basic_stringIcNS_11char_traitsIcEENS_9allocatorIcEEEENS_8functionIFN7android2spINS9_8hardware7IBinderEEEPvEEEEENS_19__map_value_compareIS7_SH_NS_4lessIS7_EELb1EEENS5_ISH_EEE5eraseENS_21__tree_const_iteratorISH_PNS_11__tree_nodeISH_SE_EEiEE"
  },
  {
   "binding" : "weak",
   "name" : "_ZNSt3__16vectorIN7android2spINS1_8hardware27hidl_binder_death_recipientEEENS_9allocatorIS5_EEE21__push_back_slow_pathIS5_EEvOT_"
  },
  {
   "binding" : "weak",
   "name" : "_ZNSt3__16vectorINS_8functionIFvN7android8hardware7details16HidlInstrumentor20InstrumentationEventEPKcS8_S8_S8_PNS0_IPvNS_9allocatorIS9_EEEEEEENSA_ISF_EEEC2ERKSH_"
  },
  {
   "binding" : "weak",
   "name" : "_ZNSt3__16vectorIPvNS_9allocatorIS1_EEE21__push_back_slow_pathIS1_EEvOT_"
  },
  {
   "name" : "_ZThn20_N7android8hardware8graphics8composer4V2_212BnHwComposerD0Ev"
  },
  {
   "name" : "_ZThn20_N7android8hardware8graphics8composer4V2_212BnHwComposerD1Ev"
  },
  {
   "name" : "_ZThn20_N7android8hardware8graphics8composer4V2_218BnHwComposerClientD0Ev"
  },
  {
   "name" : "_ZThn20_N7android8hardware8graphics8composer4V2_218BnHwComposerClientD1Ev"
  },
  {
   "name" : "_ZThn8_N7android8hardware8graphics8composer4V2_212BpHwComposer15onLastStrongRefEPKv"
  },
  {
   "name" : "_ZThn8_N7android8hardware8graphics8composer4V2_218BpHwComposerClient15onLastStrongRefEPKv"
  },
  {
   "name" : "_ZTv0_n12_N7android8hardware8graphics8composer4V2_212BnHwComposerD0Ev"
  },
  {
   "name" : "_ZTv0_n12_N7android8hardware8graphics8composer4V2_212BnHwComposerD1Ev"
  },
  {
   "name" : "_ZTv0_n12_N7android8hardware8graphics8composer4V2_218BnHwComposerClientD0Ev"
  },
  {
   "name" : "_ZTv0_n12_N7android8hardware8graphics8composer4V2_218BnHwComposerClientD1Ev"
  },
  {
   "name" : "_ZTv0_n20_N7android8hardware8graphics8composer4V2_212BpHwComposer15onLastStrongRefEPKv"
  },
  {
   "name" : "_ZTv0_n20_N7android8hardware8graphics8composer4V2_218BpHwComposerClient15onLastStrongRefEPKv"
  }
 ],
 "elf_objects" :
 [
  {
   "name" : "_ZN7android8hardware8graphics8composer4V2_215IComposerClient10descriptorE"
  },
  {
   "name" : "_ZN7android8hardware8graphics8composer4V2_29IComposer10descriptorE"
  },
  {
   "binding" : "weak",
   "name" : "_ZTCN7android8hardware8graphics8composer4V2_210BsComposerE0_NS3_9IComposerE"
  },
  {
   "name" : "_ZTCN7android8hardware8graphics8composer4V2_212BnHwComposerE0_NS0_7IBinderE"
  },
  {
   "name" : "_ZTCN7android8hardware8graphics8composer4V2_212BnHwComposerE0_NS0_9BHwBinderE"
  },
  {
   "name" : "_ZTCN7android8hardware8graphics8composer4V2_212BnHwComposerE0_NS_4hidl4base4V1_08BnHwBaseE"
  },
  {
   "name" : "_ZTCN7android8hardware8graphics8composer4V2_212BpHwComposerE0_NS0_11BpInterfaceINS3_9IComposerEEE"
  },
  {
   "name" : "_ZTCN7android8hardware8graphics8composer4V2_212BpHwComposerE0_NS2_4V2_19IComposerE"
  },
  {
   "name" : "_ZTCN7android8hardware8graphics8composer4V2_212BpHwComposerE0_NS3_9IComposerE"
  },
  {
   "name" : "_ZTCN7android8hardware8graphics8composer4V2_212BpHwComposerE0_NS_4hidl4base4V1_05IBaseE"
  },
  {
   "name" : "_ZTCN7android8hardware8graphics8composer4V2_212BpHwComposerE4_NS0_10IInterfaceE"
  },
  {
   "name" : "_ZTCN7android8hardware8graphics8composer4V2_212BpHwComposerE8_NS0_11BpHwRefBaseE"
  },
  {
   "name" : "_ZTCN7android8hardware8graphics8composer4V2_215IComposerClientE0_NS2_4V2_115IComposerClientE"
  },
  {
   "name" : "_ZTCN7android8hardware8graphics8composer4V2_215IComposerClientE0_NS_4hidl4base4V1_05IBaseE"
  },
  {
   "binding" : "weak",
   "name" : "_ZTCN7android8hardware8graphics8composer4V2_216BsComposerClientE0_NS3_15IComposerClientE"
  },
  {
   "name" : "_ZTCN7android8hardware8graphics8composer4V2_218BnHwComposerClientE0_NS0_7IBinderE"
  },
  {
   "name" : "_ZTCN7android8hardware8graphics8composer4V2_218BnHwComposerClientE0_NS0_9BHwBinderE"
  },
  {
   "name" : "_ZTCN7android8hardware8graphics8composer4V2_218BnHwComposerClientE0_NS_4hidl4base4V1_08BnHwBaseE"
  },
  {
   "name" : "_ZTCN7android8hardware8graphics8composer4V2_218BpHwComposerClientE0_NS0_11BpInterfaceINS3_15IComposerClientEEE"
  },
  {
   "name" : "_ZTCN7android8hardware8graphics8composer4V2_218BpHwComposerClientE0_NS2_4V2_115IComposerClientE"
  },
  {
   "name" : "_ZTCN7android8hardware8graphics8composer4V2_218BpHwComposerClientE0_NS3_15IComposerClientE"
  },
  {
   "name" : "_ZTCN7android8hardware8graphics8composer4V2_218BpHwComposerClientE0_NS_4hidl4base4V1_05IBaseE"
  },
  {
   "name" : "_ZTCN7android8hardware8graphics8composer4V2_218BpHwComposerClientE4_NS0_10IInterfaceE"
  },
  {
   "name" : "_ZTCN7android8hardware8graphics8composer4V2_218BpHwComposerClientE8_NS0_11BpHwRefBaseE"
  },
  {
   "name" : "_ZTCN7android8hardware8graphics8composer4V2_29IComposerE0_NS2_4V2_19IComposerE"
  },
  {
   "name" : "_ZTCN7android8hardware8graphics8composer4V2_29IComposerE0_NS_4hidl4base4V1_05IBaseE"
  },
  {
   "name" : "_ZTTN7android8hardware8graphics8composer4V2_212BnHwComposerE"
  },
  {
   "name" : "_ZTTN7android8hardware8graphics8composer4V2_212BpHwComposerE"
  },
  {
   "name" : "_ZTTN7android8hardware8graphics8composer4V2_215IComposerClientE"
  },
  {
   "name" : "_ZTTN7android8hardware8graphics8composer4V2_218BnHwComposerClientE"
  },
  {
   "name" : "_ZTTN7android8hardware8graphics8composer4V2_218BpHwComposerClientE"
  },
  {
   "name" : "_ZTTN7android8hardware8graphics8composer4V2_29IComposerE"
  },
  {
   "binding" : "weak",
   "name" : "_ZTVN7android8hardware8graphics8composer4V2_210BsComposerE"
  },
  {
   "name" : "_ZTVN7android8hardware8graphics8composer4V2_212BnHwComposerE"
  },
  {
   "name" : "_ZTVN7android8hardware8graphics8composer4V2_212BpHwComposerE"
  },
  {
   "name" : "_ZTVN7android8hardware8graphics8composer4V2_215IComposerClientE"
  },
  {
   "binding" : "weak",
   "name" : "_ZTVN7android8hardware8graphics8composer4V2_216BsComposerClientE"
  },
  {
   "name" : "_ZTVN7android8hardware8graphics8composer4V2_218BnHwComposerClientE"
  },
  {
   "name" : "_ZTVN7android8hardware8graphics8composer4V2_218BpHwComposerClientE"
  },
  {
   "name" : "_ZTVN7android8hardware8graphics8composer4V2_29IComposerE"
  }
 ],
 "enum_types" :
 [
  {
   "alignment" : 4,
   "enum_fields" :
   [
    {
     "enum_field_value" : 1,
     "name" : "HAL_HDR_DOLBY_VISION"
    },
    {
     "enum_field_value" : 2,
     "name" : "HAL_HDR_HDR10"
    },
    {
     "enum_field_value" : 3,
     "name" : "HAL_HDR_HLG"
    }
   ],
   "linker_set_key" : "_ZTI13android_hdr_t",
   "name" : "android_hdr_t",
   "referenced_type" : "_ZTI13android_hdr_t",
   "self_type" : "_ZTI13android_hdr_t",
   "size" : 4,
   "source_file" : "/system/core/libsystem/include/system/graphics-base-v1.0.h",
   "underlying_type" : "_ZTIj"
  },
  {
   "alignment" : 4,
   "enum_fields" :
   [
    {
     "enum_field_value" : 4,
     "name" : "HAL_HDR_HDR10_PLUS"
    }
   ],
   "linker_set_key" : "_ZTI18android_hdr_v1_2_t",
   "name" : "android_hdr_v1_2_t",
   "referenced_type" : "_ZTI18android_hdr_v1_2_t",
   "self_type" : "_ZTI18android_hdr_v1_2_t",
   "size" : 4,
   "source_file" : "/system/core/libsystem/include/system/graphics-base-v1.2.h",
   "underlying_type" : "_ZTIj"
  },
  {
   "alignment" : 4,
   "enum_fields" :
   [
    {
     "enum_field_value" : 0,
     "name" : "ANDROID_LOG_UNKNOWN"
    },
    {
     "enum_field_value" : 1,
     "name" : "ANDROID_LOG_DEFAULT"
    },
    {
     "enum_field_value" : 2,
     "name" : "ANDROID_LOG_VERBOSE"
    },
    {
     "enum_field_value" : 3,
     "name" : "ANDROID_LOG_DEBUG"
    },
    {
     "enum_field_value" : 4,
     "name" : "ANDROID_LOG_INFO"
    },
    {
     "enum_field_value" : 5,
     "name" : "ANDROID_LOG_WARN"
    },
    {
     "enum_field_value" : 6,
     "name" : "ANDROID_LOG_ERROR"
    },
    {
     "enum_field_value" : 7,
     "name" : "ANDROID_LOG_FATAL"
    },
    {
     "enum_field_value" : 8,
     "name" : "ANDROID_LOG_SILENT"
    }
   ],
   "linker_set_key" : "_ZTI19android_LogPriority",
   "name" : "android_LogPriority",
   "referenced_type" : "_ZTI19android_LogPriority",
   "self_type" : "_ZTI19android_LogPriority",
   "size" : 4,
   "source_file" : "/system/core/liblog/include/android/log.h",
   "underlying_type" : "_ZTIj"
  },
  {
   "alignment" : 4,
   "enum_fields" :
   [
    {
     "enum_field_value" : 0,
     "name" : "HAL_DATASPACE_UNKNOWN"
    },
    {
     "enum_field_value" : 1,
     "name" : "HAL_DATASPACE_ARBITRARY"
    },
    {
     "enum_field_value" : 16,
     "name" : "HAL_DATASPACE_STANDARD_SHIFT"
    },
    {
     "enum_field_value" : 4128768,
     "name" : "HAL_DATASPACE_STANDARD_MASK"
    },
    {
     "enum_field_value" : 0,
     "name" : "HAL_DATASPACE_STANDARD_UNSPECIFIED"
    },
    {
     "enum_field_value" : 65536,
     "name" : "HAL_DATASPACE_STANDARD_BT709"
    },
    {
     "enum_field_value" : 131072,
     "name" : "HAL_DATASPACE_STANDARD_BT601_625"
    },
    {
     "enum_field_value" : 196608,
     "name" : "HAL_DATASPACE_STANDARD_BT601_625_UNADJUSTED"
    },
    {
     "enum_field_value" : 262144,
     "name" : "HAL_DATASPACE_STANDARD_BT601_525"
    },
    {
     "enum_field_value" : 327680,
     "name" : "HAL_DATASPACE_STANDARD_BT601_525_UNADJUSTED"
    },
    {
     "enum_field_value" : 393216,
     "name" : "HAL_DATASPACE_STANDARD_BT2020"
    },
    {
     "enum_field_value" : 458752,
     "name" : "HAL_DATASPACE_STANDARD_BT2020_CONSTANT_LUMINANCE"
    },
    {
     "enum_field_value" : 524288,
     "name" : "HAL_DATASPACE_STANDARD_BT470M"
    },
    {
     "enum_field_value" : 589824,
     "name" : "HAL_DATASPACE_STANDARD_FILM"
    },
    {
     "enum_field_value" : 655360,
     "name" : "HAL_DATASPACE_STANDARD_DCI_P3"
    },
    {
     "enum_field_value" : 720896,
     "name" : "HAL_DATASPACE_STANDARD_ADOBE_RGB"
    },
    {
     "enum_field_value" : 22,
     "name" : "HAL_DATASPACE_TRANSFER_SHIFT"
    },
    {
     "enum_field_value" : 130023424,
     "name" : "HAL_DATASPACE_TRANSFER_MASK"
    },
    {
     "enum_field_value" : 0,
     "name" : "HAL_DATASPACE_TRANSFER_UNSPECIFIED"
    },
    {
     "enum_field_value" : 4194304,
     "name" : "HAL_DATASPACE_TRANSFER_LINEAR"
    },
    {
     "enum_field_value" : 8388608,
     "name" : "HAL_DATASPACE_TRANSFER_SRGB"
    },
    {
     "enum_field_value" : 12582912,
     "name" : "HAL_DATASPACE_TRANSFER_SMPTE_170M"
    },
    {
     "enum_field_value" : 16777216,
     "name" : "HAL_DATASPACE_TRANSFER_GAMMA2_2"
    },
    {
     "enum_field_value" : 20971520,
     "name" : "HAL_DATASPACE_TRANSFER_GAMMA2_6"
    },
    {
     "enum_field_value" : 25165824,
     "name" : "HAL_DATASPACE_TRANSFER_GAMMA2_8"
    },
    {
     "enum_field_value" : 29360128,
     "name" : "HAL_DATASPACE_TRANSFER_ST2084"
    },
    {
     "enum_field_value" : 33554432,
     "name" : "HAL_DATASPACE_TRANSFER_HLG"
    },
    {
     "enum_field_value" : 27,
     "name" : "HAL_DATASPACE_RANGE_SHIFT"
    },
    {
     "enum_field_value" : 939524096,
     "name" : "HAL_DATASPACE_RANGE_MASK"
    },
    {
     "enum_field_value" : 0,
     "name" : "HAL_DATASPACE_RANGE_UNSPECIFIED"
    },
    {
     "enum_field_value" : 134217728,
     "name" : "HAL_DATASPACE_RANGE_FULL"
    },
    {
     "enum_field_value" : 268435456,
     "name" : "HAL_DATASPACE_RANGE_LIMITED"
    },
    {
     "enum_field_value" : 402653184,
     "name" : "HAL_DATASPACE_RANGE_EXTENDED"
    },
    {
     "enum_field_value" : 512,
     "name" : "HAL_DATASPACE_SRGB_LINEAR"
    },
    {
     "enum_field_value" : 138477568,
     "name" : "HAL_DATASPACE_V0_SRGB_LINEAR"
    },
    {
     "enum_field_value" : 406913024,
     "name" : "HAL_DATASPACE_V0_SCRGB_LINEAR"
    },
    {
     "enum_field_value" : 513,
     "name" : "HAL_DATASPACE_SRGB"
    },
    {
     "enum_field_value" : 142671872,
     "name" : "HAL_DATASPACE_V0_SRGB"
    },
    {
     "enum_field_value" : 411107328,
     "name" : "HAL_DATASPACE_V0_SCRGB"
    },
    {
     "enum_field_value" : 257,
     "name" : "HAL_DATASPACE_JFIF"
    },
    {
     "enum_field_value" : 146931712,
     "name" : "HAL_DATASPACE_V0_JFIF"
    },
    {
     "enum_field_value" : 258,
     "name" : "HAL_DATASPACE_BT601_625"
    },
    {
     "enum_field_value" : 281149440,
     "name" : "HAL_DATASPACE_V0_BT601_625"
    },
    {
     "enum_field_value" : 259,
     "name" : "HAL_DATASPACE_BT601_525"
    },
    {
     "enum_field_value" : 281280512,
     "name" : "HAL_DATASPACE_V0_BT601_525"
    },
    {
     "enum_field_value" : 260,
     "name" : "HAL_DATASPACE_BT709"
    },
    {
     "enum_field_value" : 281083904,
     "name" : "HAL_DATASPACE_V0_BT709"
    },
    {
     "enum_field_value" : 139067392,
     "name" : "HAL_DATASPACE_DCI_P3_LINEAR"
    },
    {
     "enum_field_value" : 155844608,
     "name" : "HAL_DATASPACE_DCI_P3"
    },
    {
     "enum_field_value" : 139067392,
     "name" : "HAL_DATASPACE_DISPLAY_P3_LINEAR"
    },
    {
     "enum_field_value" : 143261696,
     "name" : "HAL_DATASPACE_DISPLAY_P3"
    },
    {
     "enum_field_value" : 151715840,
     "name" : "HAL_DATASPACE_ADOBE_RGB"
    },
    {
     "enum_field_value" : 138805248,
     "name" : "HAL_DATASPACE_BT2020_LINEAR"
    },
    {
     "enum_field_value" : 147193856,
     "name" : "HAL_DATASPACE_BT2020"
    },
    {
     "enum_field_value" : 163971072,
     "name" : "HAL_DATASPACE_BT2020_PQ"
    },
    {
     "enum_field_value" : 4096,
     "name" : "HAL_DATASPACE_DEPTH"
    },
    {
     "enum_field_value" : 4097,
     "name" : "HAL_DATASPACE_SENSOR"
    }
   ],
   "linker_set_key" : "_ZTI19android_dataspace_t",
   "name" : "android_dataspace_t",
   "referenced_type" : "_ZTI19android_dataspace_t",
   "self_type" : "_ZTI19android_dataspace_t",
   "size" : 4,
   "source_file" : "/system/core/libsystem/include/system/graphics-base-v1.0.h",
   "underlying_type" : "_ZTIj"
  },
  {
   "alignment" : 4,
   "enum_fields" :
   [
    {
     "enum_field_value" : 0,
     "name" : "FLEX_FORMAT_INVALID"
    },
    {
     "enum_field_value" : 1,
     "name" : "FLEX_FORMAT_Y"
    },
    {
     "enum_field_value" : 7,
     "name" : "FLEX_FORMAT_YCbCr"
    },
    {
     "enum_field_value" : 1073741831,
     "name" : "FLEX_FORMAT_YCbCrA"
    },
    {
     "enum_field_value" : 7168,
     "name" : "FLEX_FORMAT_RGB"
    },
    {
     "enum_field_value" : 1073748992,
     "name" : "FLEX_FORMAT_RGBA"
    }
   ],
   "linker_set_key" : "_ZTI19android_flex_format",
   "name" : "android_flex_format",
   "referenced_type" : "_ZTI19android_flex_format",
   "self_type" : "_ZTI19android_flex_format",
   "size" : 4,
   "source_file" : "/system/core/libsystem/include/system/graphics.h",
   "underlying_type" : "_ZTIj"
  },
  {
   "alignment" : 4,
   "enum_fields" :
   [
    {
     "enum_field_value" : 1,
     "name" : "HAL_TRANSFORM_FLIP_H"
    },
    {
     "enum_field_value" : 2,
     "name" : "HAL_TRANSFORM_FLIP_V"
    },
    {
     "enum_field_value" : 4,
     "name" : "HAL_TRANSFORM_ROT_90"
    },
    {
     "enum_field_value" : 3,
     "name" : "HAL_TRANSFORM_ROT_180"
    },
    {
     "enum_field_value" : 7,
     "name" : "HAL_TRANSFORM_ROT_270"
    }
   ],
   "linker_set_key" : "_ZTI19android_transform_t",
   "name" : "android_transform_t",
   "referenced_type" : "_ZTI19android_transform_t",
   "self_type" : "_ZTI19android_transform_t",
   "size" : 4,
   "source_file" : "/system/core/libsystem/include/system/graphics-base-v1.0.h",
   "underlying_type" : "_ZTIj"
  },
  {
   "alignment" : 4,
   "enum_fields" :
   [
    {
     "enum_field_value" : 0,
     "name" : "HAL_COLOR_MODE_NATIVE"
    },
    {
     "enum_field_value" : 1,
     "name" : "HAL_COLOR_MODE_STANDARD_BT601_625"
    },
    {
     "enum_field_value" : 2,
     "name" : "HAL_COLOR_MODE_STANDARD_BT601_625_UNADJUSTED"
    },
    {
     "enum_field_value" : 3,
     "name" : "HAL_COLOR_MODE_STANDARD_BT601_525"
    },
    {
     "enum_field_value" : 4,
     "name" : "HAL_COLOR_MODE_STANDARD_BT601_525_UNADJUSTED"
    },
    {
     "enum_field_value" : 5,
     "name" : "HAL_COLOR_MODE_STANDARD_BT709"
    },
    {
     "enum_field_value" : 6,
     "name" : "HAL_COLOR_MODE_DCI_P3"
    },
    {
     "enum_field_value" : 7,
     "name" : "HAL_COLOR_MODE_SRGB"
    },
    {
     "enum_field_value" : 8,
     "name" : "HAL_COLOR_MODE_ADOBE_RGB"
    },
    {
     "enum_field_value" : 9,
     "name" : "HAL_COLOR_MODE_DISPLAY_P3"
    }
   ],
   "linker_set_key" : "_ZTI20android_color_mode_t",
   "name" : "android_color_mode_t",
   "referenced_type" : "_ZTI20android_color_mode_t",
   "self_type" : "_ZTI20android_color_mode_t",
   "size" : 4,
   "source_file" : "/system/core/libsystem/include/system/graphics-base-v1.0.h",
   "underlying_type" : "_ZTIj"
  },
  {
   "alignment" : 4,
   "enum_fields" :
   [
    {
     "enum_field_value" : 0,
     "name" : "SYSTEM_TIME_REALTIME"
    },
    {
     "enum_field_value" : 1,
     "name" : "SYSTEM_TIME_MONOTONIC"
    },
    {
     "enum_field_value" : 2,
     "name" : "SYSTEM_TIME_PROCESS"
    },
    {
     "enum_field_value" : 3,
     "name" : "SYSTEM_TIME_THREAD"
    },
    {
     "enum_field_value" : 4,
     "name" : "SYSTEM_TIME_BOOTTIME"
    }
   ],
   "linker_set_key" : "_ZTI21$SYSTEM_TIME_BOOTTIME",
   "name" : "(anonymous enum at system/core/libutils/include/utils/Timers.h:79:1)",
   "referenced_type" : "_ZTI21$SYSTEM_TIME_BOOTTIME",
   "self_type" : "_ZTI21$SYSTEM_TIME_BOOTTIME",
   "size" : 4,
   "source_file" : "/system/core/libutils/include/utils/Timers.h",
   "underlying_type" : "_ZTIj"
  },
  {
   "alignment" : 4,
   "enum_fields" :
   [
    {
     "enum_field_value" : 1,
     "name" : "FLEX_COMPONENT_Y"
    },
    {
     "enum_field_value" : 2,
     "name" : "FLEX_COMPONENT_Cb"
    },
    {
     "enum_field_value" : 4,
     "name" : "FLEX_COMPONENT_Cr"
    },
    {
     "enum_field_value" : 1024,
     "name" : "FLEX_COMPONENT_R"
    },
    {
     "enum_field_value" : 2048,
     "name" : "FLEX_COMPONENT_G"
    },
    {
     "enum_field_value" : 4096,
     "name" : "FLEX_COMPONENT_B"
    },
    {
     "enum_field_value" : 1073741824,
     "name" : "FLEX_COMPONENT_A"
    }
   ],
   "linker_set_key" : "_ZTI22android_flex_component",
   "name" : "android_flex_component",
   "referenced_type" : "_ZTI22android_flex_component",
   "self_type" : "_ZTI22android_flex_component",
   "size" : 4,
   "source_file" : "/system/core/libsystem/include/system/graphics.h",
   "underlying_type" : "_ZTIj"
  },
  {
   "alignment" : 4,
   "enum_fields" :
   [
    {
     "enum_field_value" : 1,
     "name" : "HAL_PIXEL_FORMAT_RGBA_8888"
    },
    {
     "enum_field_value" : 2,
     "name" : "HAL_PIXEL_FORMAT_RGBX_8888"
    },
    {
     "enum_field_value" : 3,
     "name" : "HAL_PIXEL_FORMAT_RGB_888"
    },
    {
     "enum_field_value" : 4,
     "name" : "HAL_PIXEL_FORMAT_RGB_565"
    },
    {
     "enum_field_value" : 5,
     "name" : "HAL_PIXEL_FORMAT_BGRA_8888"
    },
    {
     "enum_field_value" : 16,
     "name" : "HAL_PIXEL_FORMAT_YCBCR_422_SP"
    },
    {
     "enum_field_value" : 17,
     "name" : "HAL_PIXEL_FORMAT_YCRCB_420_SP"
    },
    {
     "enum_field_value" : 20,
     "name" : "HAL_PIXEL_FORMAT_YCBCR_422_I"
    },
    {
     "enum_field_value" : 22,
     "name" : "HAL_PIXEL_FORMAT_RGBA_FP16"
    },
    {
     "enum_field_value" : 32,
     "name" : "HAL_PIXEL_FORMAT_RAW16"
    },
    {
     "enum_field_value" : 33,
     "name" : "HAL_PIXEL_FORMAT_BLOB"
    },
    {
     "enum_field_value" : 34,
     "name" : "HAL_PIXEL_FORMAT_IMPLEMENTATION_DEFINED"
    },
    {
     "enum_field_value" : 35,
     "name" : "HAL_PIXEL_FORMAT_YCBCR_420_888"
    },
    {
     "enum_field_value" : 36,
     "name" : "HAL_PIXEL_FORMAT_RAW_OPAQUE"
    },
    {
     "enum_field_value" : 37,
     "name" : "HAL_PIXEL_FORMAT_RAW10"
    },
    {
     "enum_field_value" : 38,
     "name" : "HAL_PIXEL_FORMAT_RAW12"
    },
    {
     "enum_field_value" : 43,
     "name" : "HAL_PIXEL_FORMAT_RGBA_1010102"
    },
    {
     "enum_field_value" : 538982489,
     "name" : "HAL_PIXEL_FORMAT_Y8"
    },
    {
     "enum_field_value" : 540422489,
     "name" : "HAL_PIXEL_FORMAT_Y16"
    },
    {
     "enum_field_value" : 842094169,
     "name" : "HAL_PIXEL_FORMAT_YV12"
    }
   ],
   "linker_set_key" : "_ZTI22android_pixel_format_t",
   "name" : "android_pixel_format_t",
   "referenced_type" : "_ZTI22android_pixel_format_t",
   "self_type" : "_ZTI22android_pixel_format_t",
   "size" : 4,
   "source_file" : "/system/core/libsystem/include/system/graphics-base-v1.0.h",
   "underlying_type" : "_ZTIj"
  },
  {
   "alignment" : 4,
   "enum_fields" :
   [
    {
     "enum_field_value" : 19,
     "name" : "ANDROID_PRIORITY_LOWEST"
    },
    {
     "enum_field_value" : 10,
     "name" : "ANDROID_PRIORITY_BACKGROUND"
    },
    {
     "enum_field_value" : 0,
     "name" : "ANDROID_PRIORITY_NORMAL"
    },
    {
     "enum_field_value" : -2,
     "name" : "ANDROID_PRIORITY_FOREGROUND"
    },
    {
     "enum_field_value" : -4,
     "name" : "ANDROID_PRIORITY_DISPLAY"
    },
    {
     "enum_field_value" : -8,
     "name" : "ANDROID_PRIORITY_URGENT_DISPLAY"
    },
    {
     "enum_field_value" : -10,
     "name" : "ANDROID_PRIORITY_VIDEO"
    },
    {
     "enum_field_value" : -16,
     "name" : "ANDROID_PRIORITY_AUDIO"
    },
    {
     "enum_field_value" : -19,
     "name" : "ANDROID_PRIORITY_URGENT_AUDIO"
    },
    {
     "enum_field_value" : -20,
     "name" : "ANDROID_PRIORITY_HIGHEST"
    },
    {
     "enum_field_value" : 0,
     "name" : "ANDROID_PRIORITY_DEFAULT"
    },
    {
     "enum_field_value" : -1,
     "name" : "ANDROID_PRIORITY_MORE_FAVORABLE"
    },
    {
     "enum_field_value" : 1,
     "name" : "ANDROID_PRIORITY_LESS_FAVORABLE"
    }
   ],
   "linker_set_key" : "_ZTI23$ANDROID_PRIORITY_AUDIO",
   "name" : "(anonymous enum at system/core/libsystem/include/system/thread_defs.h:26:1)",
   "referenced_type" : "_ZTI23$ANDROID_PRIORITY_AUDIO",
   "self_type" : "_ZTI23$ANDROID_PRIORITY_AUDIO",
   "size" : 4,
   "source_file" : "/system/core/libsystem/include/system/thread_defs.h",
   "underlying_type" : "_ZTIi"
  },
  {
   "alignment" : 4,
   "enum_fields" :
   [
    {
     "enum_field_value" : 281411584,
     "name" : "HAL_DATASPACE_BT2020_ITU"
    },
    {
     "enum_field_value" : 298188800,
     "name" : "HAL_DATASPACE_BT2020_ITU_PQ"
    },
    {
     "enum_field_value" : 302383104,
     "name" : "HAL_DATASPACE_BT2020_ITU_HLG"
    },
    {
     "enum_field_value" : 168165376,
     "name" : "HAL_DATASPACE_BT2020_HLG"
    }
   ],
   "linker_set_key" : "_ZTI24android_dataspace_v1_1_t",
   "name" : "android_dataspace_v1_1_t",
   "referenced_type" : "_ZTI24android_dataspace_v1_1_t",
   "self_type" : "_ZTI24android_dataspace_v1_1_t",
   "size" : 4,
   "source_file" : "/system/core/libsystem/include/system/graphics-base-v1.1.h",
   "underlying_type" : "_ZTIj"
  },
  {
   "alignment" : 4,
   "enum_fields" :
   [
    {
     "enum_field_value" : 142999552,
     "name" : "HAL_DATASPACE_DISPLAY_BT2020"
    },
    {
     "enum_field_value" : 4098,
     "name" : "HAL_DATASPACE_DYNAMIC_DEPTH"
    },
    {
     "enum_field_value" : 4099,
     "name" : "HAL_DATASPACE_JPEG_APP_SEGMENTS"
    },
    {
     "enum_field_value" : 4100,
     "name" : "HAL_DATASPACE_HEIF"
    }
   ],
   "linker_set_key" : "_ZTI24android_dataspace_v1_2_t",
   "name" : "android_dataspace_v1_2_t",
   "referenced_type" : "_ZTI24android_dataspace_v1_2_t",
   "self_type" : "_ZTI24android_dataspace_v1_2_t",
   "size" : 4,
   "source_file" : "/system/core/libsystem/include/system/graphics-base-v1.2.h",
   "underlying_type" : "_ZTIj"
  },
  {
   "alignment" : 4,
   "enum_fields" :
   [
    {
     "enum_field_value" : 10,
     "name" : "HAL_COLOR_MODE_BT2020"
    },
    {
     "enum_field_value" : 11,
     "name" : "HAL_COLOR_MODE_BT2100_PQ"
    },
    {
     "enum_field_value" : 12,
     "name" : "HAL_COLOR_MODE_BT2100_HLG"
    }
   ],
   "linker_set_key" : "_ZTI25android_color_mode_v1_1_t",
   "name" : "android_color_mode_v1_1_t",
   "referenced_type" : "_ZTI25android_color_mode_v1_1_t",
   "self_type" : "_ZTI25android_color_mode_v1_1_t",
   "size" : 4,
   "source_file" : "/system/core/libsystem/include/system/graphics-base-v1.1.h",
   "underlying_type" : "_ZTIj"
  },
  {
   "alignment" : 4,
   "enum_fields" :
   [
    {
     "enum_field_value" : 0,
     "name" : "HAL_COLOR_TRANSFORM_IDENTITY"
    },
    {
     "enum_field_value" : 1,
     "name" : "HAL_COLOR_TRANSFORM_ARBITRARY_MATRIX"
    },
    {
     "enum_field_value" : 2,
     "name" : "HAL_COLOR_TRANSFORM_VALUE_INVERSE"
    },
    {
     "enum_field_value" : 3,
     "name" : "HAL_COLOR_TRANSFORM_GRAYSCALE"
    },
    {
     "enum_field_value" : 4,
     "name" : "HAL_COLOR_TRANSFORM_CORRECT_PROTANOPIA"
    },
    {
     "enum_field_value" : 5,
     "name" : "HAL_COLOR_TRANSFORM_CORRECT_DEUTERANOPIA"
    },
    {
     "enum_field_value" : 6,
     "name" : "HAL_COLOR_TRANSFORM_CORRECT_TRITANOPIA"
    }
   ],
   "linker_set_key" : "_ZTI25android_color_transform_t",
   "name" : "android_color_transform_t",
   "referenced_type" : "_ZTI25android_color_transform_t",
   "self_type" : "_ZTI25android_color_transform_t",
   "size" : 4,
   "source_file" : "/system/core/libsystem/include/system/graphics-base-v1.0.h",
   "underlying_type" : "_ZTIj"
  },
  {
   "alignment" : 4,
   "enum_fields" :
   [
    {
     "enum_field_value" : 39,
     "name" : "HAL_PIXEL_FORMAT_YCBCR_422_888"
    },
    {
     "enum_field_value" : 40,
     "name" : "HAL_PIXEL_FORMAT_YCBCR_444_888"
    },
    {
     "enum_field_value" : 41,
     "name" : "HAL_PIXEL_FORMAT_FLEX_RGB_888"
    },
    {
     "enum_field_value" : 42,
     "name" : "HAL_PIXEL_FORMAT_FLEX_RGBA_8888"
    }
   ],
   "linker_set_key" : "_ZTI25android_pixel_format_sw_t",
   "name" : "android_pixel_format_sw_t",
   "referenced_type" : "_ZTI25android_pixel_format_sw_t",
   "self_type" : "_ZTI25android_pixel_format_sw_t",
   "size" : 4,
   "source_file" : "/system/core/libsystem/include/system/graphics-sw.h",
   "underlying_type" : "_ZTIj"
  },
  {
   "alignment" : 4,
   "enum_fields" :
   [
    {
     "enum_field_value" : 48,
     "name" : "HAL_PIXEL_FORMAT_DEPTH_16"
    },
    {
     "enum_field_value" : 49,
     "name" : "HAL_PIXEL_FORMAT_DEPTH_24"
    },
    {
     "enum_field_value" : 50,
     "name" : "HAL_PIXEL_FORMAT_DEPTH_24_STENCIL_8"
    },
    {
     "enum_field_value" : 51,
     "name" : "HAL_PIXEL_FORMAT_DEPTH_32F"
    },
    {
     "enum_field_value" : 52,
     "name" : "HAL_PIXEL_FORMAT_DEPTH_32F_STENCIL_8"
    },
    {
     "enum_field_value" : 53,
     "name" : "HAL_PIXEL_FORMAT_STENCIL_8"
    },
    {
     "enum_field_value" : 54,
     "name" : "HAL_PIXEL_FORMAT_YCBCR_P010"
    }
   ],
   "linker_set_key" : "_ZTI27android_pixel_format_v1_1_t",
   "name" : "android_pixel_format_v1_1_t",
   "referenced_type" : "_ZTI27android_pixel_format_v1_1_t",
   "self_type" : "_ZTI27android_pixel_format_v1_1_t",
   "size" : 4,
   "source_file" : "/system/core/libsystem/include/system/graphics-base-v1.1.h",
   "underlying_type" : "_ZTIj"
  },
  {
   "alignment" : 4,
   "enum_fields" :
   [
    {
     "enum_field_value" : 55,
     "name" : "HAL_PIXEL_FORMAT_HSV_888"
    }
   ],
   "linker_set_key" : "_ZTI27android_pixel_format_v1_2_t",
   "name" : "android_pixel_format_v1_2_t",
   "referenced_type" : "_ZTI27android_pixel_format_v1_2_t",
   "self_type" : "_ZTI27android_pixel_format_v1_2_t",
   "size" : 4,
   "source_file" : "/system/core/libsystem/include/system/graphics-base-v1.2.h",
   "underlying_type" : "_ZTIj"
  },
  {
   "alignment" : 4,
   "enum_fields" :
   [
    {
     "enum_field_value" : 0,
     "name" : "HAL_RENDER_INTENT_COLORIMETRIC"
    },
    {
     "enum_field_value" : 1,
     "name" : "HAL_RENDER_INTENT_ENHANCE"
    },
    {
     "enum_field_value" : 2,
     "name" : "HAL_RENDER_INTENT_TONE_MAP_COLORIMETRIC"
    },
    {
     "enum_field_value" : 3,
     "name" : "HAL_RENDER_INTENT_TONE_MAP_ENHANCE"
    }
   ],
   "linker_set_key" : "_ZTI28android_render_intent_v1_1_t",
   "name" : "android_render_intent_v1_1_t",
   "referenced_type" : "_ZTI28android_render_intent_v1_1_t",
   "self_type" : "_ZTI28android_render_intent_v1_1_t",
   "size" : 4,
   "source_file" : "/system/core/libsystem/include/system/graphics-base-v1.1.h",
   "underlying_type" : "_ZTIj"
  },
  {
   "alignment" : 4,
   "enum_fields" :
   [
    {
     "enum_field_value" : 0,
     "name" : "LOG_ID_MIN"
    },
    {
     "enum_field_value" : 0,
     "name" : "LOG_ID_MAIN"
    },
    {
     "enum_field_value" : 1,
     "name" : "LOG_ID_RADIO"
    },
    {
     "enum_field_value" : 2,
     "name" : "LOG_ID_EVENTS"
    },
    {
     "enum_field_value" : 3,
     "name" : "LOG_ID_SYSTEM"
    },
    {
     "enum_field_value" : 4,
     "name" : "LOG_ID_CRASH"
    },
    {
     "enum_field_value" : 5,
     "name" : "LOG_ID_STATS"
    },
    {
     "enum_field_value" : 6,
     "name" : "LOG_ID_SECURITY"
    },
    {
     "enum_field_value" : 7,
     "name" : "LOG_ID_KERNEL"
    },
    {
     "enum_field_value" : 8,
     "name" : "LOG_ID_MAX"
    },
    {
     "enum_field_value" : 2147483647,
     "name" : "LOG_ID_DEFAULT"
    }
   ],
   "linker_set_key" : "_ZTI6log_id",
   "name" : "log_id",
   "referenced_type" : "_ZTI6log_id",
   "self_type" : "_ZTI6log_id",
   "size" : 4,
   "source_file" : "/system/core/liblog/include/android/log.h",
   "underlying_type" : "_ZTIj"
  },
  {
   "alignment" : 4,
   "enum_fields" :
   [
    {
     "enum_field_value" : 1,
     "name" : "android::VectorImpl::HAS_TRIVIAL_CTOR"
    },
    {
     "enum_field_value" : 2,
     "name" : "android::VectorImpl::HAS_TRIVIAL_DTOR"
    },
    {
     "enum_field_value" : 4,
     "name" : "android::VectorImpl::HAS_TRIVIAL_COPY"
    }
   ],
   "linker_set_key" : "_ZTIN7android10VectorImpl17$HAS_TRIVIAL_COPYE",
   "name" : "android::VectorImpl::(anonymous enum at system/core/libutils/include/utils/VectorImpl.h:43:5)",
   "referenced_type" : "_ZTIN7android10VectorImpl17$HAS_TRIVIAL_COPYE",
   "self_type" : "_ZTIN7android10VectorImpl17$HAS_TRIVIAL_COPYE",
   "size" : 4,
   "source_file" : "/system/core/libutils/include/utils/VectorImpl.h",
   "underlying_type" : "_ZTIj"
  },
  {
   "alignment" : 4,
   "enum_fields" :
   [
    {
     "enum_field_value" : 0,
     "name" : "android::OK"
    },
    {
     "enum_field_value" : 0,
     "name" : "android::NO_ERROR"
    },
    {
     "enum_field_value" : -2147483648,
     "name" : "android::UNKNOWN_ERROR"
    },
    {
     "enum_field_value" : -12,
     "name" : "android::NO_MEMORY"
    },
    {
     "enum_field_value" : -38,
     "name" : "android::INVALID_OPERATION"
    },
    {
     "enum_field_value" : -22,
     "name" : "android::BAD_VALUE"
    },
    {
     "enum_field_value" : -2147483647,
     "name" : "android::BAD_TYPE"
    },
    {
     "enum_field_value" : -2,
     "name" : "android::NAME_NOT_FOUND"
    },
    {
     "enum_field_value" : -1,
     "name" : "android::PERMISSION_DENIED"
    },
    {
     "enum_field_value" : -19,
     "name" : "android::NO_INIT"
    },
    {
     "enum_field_value" : -17,
     "name" : "android::ALREADY_EXISTS"
    },
    {
     "enum_field_value" : -32,
     "name" : "android::DEAD_OBJECT"
    },
    {
     "enum_field_value" : -2147483646,
     "name" : "android::FAILED_TRANSACTION"
    },
    {
     "enum_field_value" : -75,
     "name" : "android::BAD_INDEX"
    },
    {
     "enum_field_value" : -61,
     "name" : "android::NOT_ENOUGH_DATA"
    },
    {
     "enum_field_value" : -11,
     "name" : "android::WOULD_BLOCK"
    },
    {
     "enum_field_value" : -110,
     "name" : "android::TIMED_OUT"
    },
    {
     "enum_field_value" : -74,
     "name" : "android::UNKNOWN_TRANSACTION"
    },
    {
     "enum_field_value" : -2147483641,
     "name" : "android::FDS_NOT_ALLOWED"
    },
    {
     "enum_field_value" : -2147483640,
     "name" : "android::UNEXPECTED_NULL"
    }
   ],
   "linker_set_key" : "_ZTIN7android15$ALREADY_EXISTSE",
   "name" : "android::(anonymous enum at system/core/libutils/include/utils/Errors.h:43:1)",
   "referenced_type" : "_ZTIN7android15$ALREADY_EXISTSE",
   "self_type" : "_ZTIN7android15$ALREADY_EXISTSE",
   "size" : 4,
   "source_file" : "/system/core/libutils/include/utils/Errors.h",
   "underlying_type" : "_ZTIi"
  },
  {
   "alignment" : 4,
   "enum_fields" :
   [
    {
     "enum_field_value" : 19,
     "name" : "android::PRIORITY_LOWEST"
    },
    {
     "enum_field_value" : 10,
     "name" : "android::PRIORITY_BACKGROUND"
    },
    {
     "enum_field_value" : 0,
     "name" : "android::PRIORITY_NORMAL"
    },
    {
     "enum_field_value" : -2,
     "name" : "android::PRIORITY_FOREGROUND"
    },
    {
     "enum_field_value" : -4,
     "name" : "android::PRIORITY_DISPLAY"
    },
    {
     "enum_field_value" : -8,
     "name" : "android::PRIORITY_URGENT_DISPLAY"
    },
    {
     "enum_field_value" : -16,
     "name" : "android::PRIORITY_AUDIO"
    },
    {
     "enum_field_value" : -19,
     "name" : "android::PRIORITY_URGENT_AUDIO"
    },
    {
     "enum_field_value" : -20,
     "name" : "android::PRIORITY_HIGHEST"
    },
    {
     "enum_field_value" : 0,
     "name" : "android::PRIORITY_DEFAULT"
    },
    {
     "enum_field_value" : -1,
     "name" : "android::PRIORITY_MORE_FAVORABLE"
    },
    {
     "enum_field_value" : 1,
     "name" : "android::PRIORITY_LESS_FAVORABLE"
    }
   ],
   "linker_set_key" : "_ZTIN7android15$PRIORITY_AUDIOE",
   "name" : "android::(anonymous enum at system/core/libutils/include/utils/ThreadDefs.h:53:1)",
   "referenced_type" : "_ZTIN7android15$PRIORITY_AUDIOE",
   "self_type" : "_ZTIN7android15$PRIORITY_AUDIOE",
   "size" : 4,
   "source_file" : "/system/core/libutils/include/utils/ThreadDefs.h",
   "underlying_type" : "_ZTIi"
  },
  {
   "alignment" : 4,
   "enum_fields" :
   [
    {
     "enum_field_value" : 1,
     "name" : "android::trait_trivial_copy<bool>::value"
    }
   ],
   "linker_set_key" : "_ZTIN7android18trait_trivial_copyIbE6$valueE",
   "name" : "android::trait_trivial_copy<bool>::(anonymous enum at system/core/libutils/include/utils/TypeHelpers.h:98:1)",
   "referenced_type" : "_ZTIN7android18trait_trivial_copyIbE6$valueE",
   "self_type" : "_ZTIN7android18trait_trivial_copyIbE6$valueE",
   "size" : 4,
   "source_file" : "/system/core/libutils/include/utils/TypeHelpers.h",
   "underlying_type" : "_ZTIj"
  },
  {
   "alignment" : 4,
   "enum_fields" :
   [
    {
     "enum_field_value" : 1,
     "name" : "android::trait_trivial_copy<char>::value"
    }
   ],
   "linker_set_key" : "_ZTIN7android18trait_trivial_copyIcE6$valueE",
   "name" : "android::trait_trivial_copy<char>::(anonymous enum at system/core/libutils/include/utils/TypeHelpers.h:99:1)",
   "referenced_type" : "_ZTIN7android18trait_trivial_copyIcE6$valueE",
   "self_type" : "_ZTIN7android18trait_trivial_copyIcE6$valueE",
   "size" : 4,
   "source_file" : "/system/core/libutils/include/utils/TypeHelpers.h",
   "underlying_type" : "_ZTIj"
  },
  {
   "alignment" : 4,
   "enum_fields" :
   [
    {
     "enum_field_value" : 1,
     "name" : "android::trait_trivial_copy<double>::value"
    }
   ],
   "linker_set_key" : "_ZTIN7android18trait_trivial_copyIdE6$valueE",
   "name" : "android::trait_trivial_copy<double>::(anonymous enum at system/core/libutils/include/utils/TypeHelpers.h:110:1)",
   "referenced_type" : "_ZTIN7android18trait_trivial_copyIdE6$valueE",
   "self_type" : "_ZTIN7android18trait_trivial_copyIdE6$valueE",
   "size" : 4,
   "source_file" : "/system/core/libutils/include/utils/TypeHelpers.h",
   "underlying_type" : "_ZTIj"
  },
  {
   "alignment" : 4,
   "enum_fields" :
   [
    {
     "enum_field_value" : 1,
     "name" : "android::trait_trivial_copy<float>::value"
    }
   ],
   "linker_set_key" : "_ZTIN7android18trait_trivial_copyIfE6$valueE",
   "name" : "android::trait_trivial_copy<float>::(anonymous enum at system/core/libutils/include/utils/TypeHelpers.h:109:1)",
   "referenced_type" : "_ZTIN7android18trait_trivial_copyIfE6$valueE",
   "self_type" : "_ZTIN7android18trait_trivial_copyIfE6$valueE",
   "size" : 4,
   "source_file" : "/system/core/libutils/include/utils/TypeHelpers.h",
   "underlying_type" : "_ZTIj"
  },
  {
   "alignment" : 4,
   "enum_fields" :
   [
    {
     "enum_field_value" : 1,
     "name" : "android::trait_trivial_copy<unsigned char>::value"
    }
   ],
   "linker_set_key" : "_ZTIN7android18trait_trivial_copyIhE6$valueE",
   "name" : "android::trait_trivial_copy<unsigned char>::(anonymous enum at system/core/libutils/include/utils/TypeHelpers.h:100:1)",
   "referenced_type" : "_ZTIN7android18trait_trivial_copyIhE6$valueE",
   "self_type" : "_ZTIN7android18trait_trivial_copyIhE6$valueE",
   "size" : 4,
   "source_file" : "/system/core/libutils/include/utils/TypeHelpers.h",
   "underlying_type" : "_ZTIj"
  },
  {
   "alignment" : 4,
   "enum_fields" :
   [
    {
     "enum_field_value" : 1,
     "name" : "android::trait_trivial_copy<int>::value"
    }
   ],
   "linker_set_key" : "_ZTIN7android18trait_trivial_copyIiE6$valueE",
   "name" : "android::trait_trivial_copy<int>::(anonymous enum at system/core/libutils/include/utils/TypeHelpers.h:103:1)",
   "referenced_type" : "_ZTIN7android18trait_trivial_copyIiE6$valueE",
   "self_type" : "_ZTIN7android18trait_trivial_copyIiE6$valueE",
   "size" : 4,
   "source_file" : "/system/core/libutils/include/utils/TypeHelpers.h",
   "underlying_type" : "_ZTIj"
  },
  {
   "alignment" : 4,
   "enum_fields" :
   [
    {
     "enum_field_value" : 1,
     "name" : "android::trait_trivial_copy<unsigned int>::value"
    }
   ],
   "linker_set_key" : "_ZTIN7android18trait_trivial_copyIjE6$valueE",
   "name" : "android::trait_trivial_copy<unsigned int>::(anonymous enum at system/core/libutils/include/utils/TypeHelpers.h:104:1)",
   "referenced_type" : "_ZTIN7android18trait_trivial_copyIjE6$valueE",
   "self_type" : "_ZTIN7android18trait_trivial_copyIjE6$valueE",
   "size" : 4,
   "source_file" : "/system/core/libutils/include/utils/TypeHelpers.h",
   "underlying_type" : "_ZTIj"
  },
  {
   "alignment" : 4,
   "enum_fields" :
   [
    {
     "enum_field_value" : 1,
     "name" : "android::trait_trivial_copy<long>::value"
    }
   ],
   "linker_set_key" : "_ZTIN7android18trait_trivial_copyIlE6$valueE",
   "name" : "android::trait_trivial_copy<long>::(anonymous enum at system/core/libutils/include/utils/TypeHelpers.h:105:1)",
   "referenced_type" : "_ZTIN7android18trait_trivial_copyIlE6$valueE",
   "self_type" : "_ZTIN7android18trait_trivial_copyIlE6$valueE",
   "size" : 4,
   "source_file" : "/system/core/libutils/include/utils/TypeHelpers.h",
   "underlying_type" : "_ZTIj"
  },
  {
   "alignment" : 4,
   "enum_fields" :
   [
    {
     "enum_field_value" : 1,
     "name" : "android::trait_trivial_copy<unsigned long>::value"
    }
   ],
   "linker_set_key" : "_ZTIN7android18trait_trivial_copyImE6$valueE",
   "name" : "android::trait_trivial_copy<unsigned long>::(anonymous enum at system/core/libutils/include/utils/TypeHelpers.h:106:1)",
   "referenced_type" : "_ZTIN7android18trait_trivial_copyImE6$valueE",
   "self_type" : "_ZTIN7android18trait_trivial_copyImE6$valueE",
   "size" : 4,
   "source_file" : "/system/core/libutils/include/utils/TypeHelpers.h",
   "underlying_type" : "_ZTIj"
  },
  {
   "alignment" : 4,
   "enum_fields" :
   [
    {
     "enum_field_value" : 1,
     "name" : "android::trait_trivial_copy<short>::value"
    }
   ],
   "linker_set_key" : "_ZTIN7android18trait_trivial_copyIsE6$valueE",
   "name" : "android::trait_trivial_copy<short>::(anonymous enum at system/core/libutils/include/utils/TypeHelpers.h:101:1)",
   "referenced_type" : "_ZTIN7android18trait_trivial_copyIsE6$valueE",
   "self_type" : "_ZTIN7android18trait_trivial_copyIsE6$valueE",
   "size" : 4,
   "source_file" : "/system/core/libutils/include/utils/TypeHelpers.h",
   "underlying_type" : "_ZTIj"
  },
  {
   "alignment" : 4,
   "enum_fields" :
   [
    {
     "enum_field_value" : 1,
     "name" : "android::trait_trivial_copy<unsigned short>::value"
    }
   ],
   "linker_set_key" : "_ZTIN7android18trait_trivial_copyItE6$valueE",
   "name" : "android::trait_trivial_copy<unsigned short>::(anonymous enum at system/core/libutils/include/utils/TypeHelpers.h:102:1)",
   "referenced_type" : "_ZTIN7android18trait_trivial_copyItE6$valueE",
   "self_type" : "_ZTIN7android18trait_trivial_copyItE6$valueE",
   "size" : 4,
   "source_file" : "/system/core/libutils/include/utils/TypeHelpers.h",
   "underlying_type" : "_ZTIj"
  },
  {
   "alignment" : 4,
   "enum_fields" :
   [
    {
     "enum_field_value" : 1,
     "name" : "android::trait_trivial_copy<void>::value"
    }
   ],
   "linker_set_key" : "_ZTIN7android18trait_trivial_copyIvE6$valueE",
   "name" : "android::trait_trivial_copy<void>::(anonymous enum at system/core/libutils/include/utils/TypeHelpers.h:97:1)",
   "referenced_type" : "_ZTIN7android18trait_trivial_copyIvE6$valueE",
   "self_type" : "_ZTIN7android18trait_trivial_copyIvE6$valueE",
   "size" : 4,
   "source_file" : "/system/core/libutils/include/utils/TypeHelpers.h",
   "underlying_type" : "_ZTIj"
  },
  {
   "alignment" : 4,
   "enum_fields" :
   [
    {
     "enum_field_value" : 1,
     "name" : "android::trait_trivial_copy<long long>::value"
    }
   ],
   "linker_set_key" : "_ZTIN7android18trait_trivial_copyIxE6$valueE",
   "name" : "android::trait_trivial_copy<long long>::(anonymous enum at system/core/libutils/include/utils/TypeHelpers.h:107:1)",
   "referenced_type" : "_ZTIN7android18trait_trivial_copyIxE6$valueE",
   "self_type" : "_ZTIN7android18trait_trivial_copyIxE6$valueE",
   "size" : 4,
   "source_file" : "/system/core/libutils/include/utils/TypeHelpers.h",
   "underlying_type" : "_ZTIj"
  },
  {
   "alignment" : 4,
   "enum_fields" :
   [
    {
     "enum_field_value" : 1,
     "name" : "android::trait_trivial_copy<unsigned long long>::value"
    }
   ],
   "linker_set_key" : "_ZTIN7android18trait_trivial_copyIyE6$valueE",
   "name" : "android::trait_trivial_copy<unsigned long long>::(anonymous enum at system/core/libutils/include/utils/TypeHelpers.h:108:1)",
   "referenced_type" : "_ZTIN7android18trait_trivial_copyIyE6$valueE",
   "self_type" : "_ZTIN7android18trait_trivial_copyIyE6$valueE",
   "size" : 4,
   "source_file" : "/system/core/libutils/include/utils/TypeHelpers.h",
   "underlying_type" : "_ZTIj"
  },
  {
   "alignment" : 4,
   "enum_fields" :
   [
    {
     "enum_field_value" : 1,
     "name" : "android::trait_trivial_ctor<bool>::value"
    }
   ],
   "linker_set_key" : "_ZTIN7android18trait_trivial_ctorIbE6$valueE",
   "name" : "android::trait_trivial_ctor<bool>::(anonymous enum at system/core/libutils/include/utils/TypeHelpers.h:98:1)",
   "referenced_type" : "_ZTIN7android18trait_trivial_ctorIbE6$valueE",
   "self_type" : "_ZTIN7android18trait_trivial_ctorIbE6$valueE",
   "size" : 4,
   "source_file" : "/system/core/libutils/include/utils/TypeHelpers.h",
   "underlying_type" : "_ZTIj"
  },
  {
   "alignment" : 4,
   "enum_fields" :
   [
    {
     "enum_field_value" : 1,
     "name" : "android::trait_trivial_ctor<char>::value"
    }
   ],
   "linker_set_key" : "_ZTIN7android18trait_trivial_ctorIcE6$valueE",
   "name" : "android::trait_trivial_ctor<char>::(anonymous enum at system/core/libutils/include/utils/TypeHelpers.h:99:1)",
   "referenced_type" : "_ZTIN7android18trait_trivial_ctorIcE6$valueE",
   "self_type" : "_ZTIN7android18trait_trivial_ctorIcE6$valueE",
   "size" : 4,
   "source_file" : "/system/core/libutils/include/utils/TypeHelpers.h",
   "underlying_type" : "_ZTIj"
  },
  {
   "alignment" : 4,
   "enum_fields" :
   [
    {
     "enum_field_value" : 1,
     "name" : "android::trait_trivial_ctor<double>::value"
    }
   ],
   "linker_set_key" : "_ZTIN7android18trait_trivial_ctorIdE6$valueE",
   "name" : "android::trait_trivial_ctor<double>::(anonymous enum at system/core/libutils/include/utils/TypeHelpers.h:110:1)",
   "referenced_type" : "_ZTIN7android18trait_trivial_ctorIdE6$valueE",
   "self_type" : "_ZTIN7android18trait_trivial_ctorIdE6$valueE",
   "size" : 4,
   "source_file" : "/system/core/libutils/include/utils/TypeHelpers.h",
   "underlying_type" : "_ZTIj"
  },
  {
   "alignment" : 4,
   "enum_fields" :
   [
    {
     "enum_field_value" : 1,
     "name" : "android::trait_trivial_ctor<float>::value"
    }
   ],
   "linker_set_key" : "_ZTIN7android18trait_trivial_ctorIfE6$valueE",
   "name" : "android::trait_trivial_ctor<float>::(anonymous enum at system/core/libutils/include/utils/TypeHelpers.h:109:1)",
   "referenced_type" : "_ZTIN7android18trait_trivial_ctorIfE6$valueE",
   "self_type" : "_ZTIN7android18trait_trivial_ctorIfE6$valueE",
   "size" : 4,
   "source_file" : "/system/core/libutils/include/utils/TypeHelpers.h",
   "underlying_type" : "_ZTIj"
  },
  {
   "alignment" : 4,
   "enum_fields" :
   [
    {
     "enum_field_value" : 1,
     "name" : "android::trait_trivial_ctor<unsigned char>::value"
    }
   ],
   "linker_set_key" : "_ZTIN7android18trait_trivial_ctorIhE6$valueE",
   "name" : "android::trait_trivial_ctor<unsigned char>::(anonymous enum at system/core/libutils/include/utils/TypeHelpers.h:100:1)",
   "referenced_type" : "_ZTIN7android18trait_trivial_ctorIhE6$valueE",
   "self_type" : "_ZTIN7android18trait_trivial_ctorIhE6$valueE",
   "size" : 4,
   "source_file" : "/system/core/libutils/include/utils/TypeHelpers.h",
   "underlying_type" : "_ZTIj"
  },
  {
   "alignment" : 4,
   "enum_fields" :
   [
    {
     "enum_field_value" : 1,
     "name" : "android::trait_trivial_ctor<int>::value"
    }
   ],
   "linker_set_key" : "_ZTIN7android18trait_trivial_ctorIiE6$valueE",
   "name" : "android::trait_trivial_ctor<int>::(anonymous enum at system/core/libutils/include/utils/TypeHelpers.h:103:1)",
   "referenced_type" : "_ZTIN7android18trait_trivial_ctorIiE6$valueE",
   "self_type" : "_ZTIN7android18trait_trivial_ctorIiE6$valueE",
   "size" : 4,
   "source_file" : "/system/core/libutils/include/utils/TypeHelpers.h",
   "underlying_type" : "_ZTIj"
  },
  {
   "alignment" : 4,
   "enum_fields" :
   [
    {
     "enum_field_value" : 1,
     "name" : "android::trait_trivial_ctor<unsigned int>::value"
    }
   ],
   "linker_set_key" : "_ZTIN7android18trait_trivial_ctorIjE6$valueE",
   "name" : "android::trait_trivial_ctor<unsigned int>::(anonymous enum at system/core/libutils/include/utils/TypeHelpers.h:104:1)",
   "referenced_type" : "_ZTIN7android18trait_trivial_ctorIjE6$valueE",
   "self_type" : "_ZTIN7android18trait_trivial_ctorIjE6$valueE",
   "size" : 4,
   "source_file" : "/system/core/libutils/include/utils/TypeHelpers.h",
   "underlying_type" : "_ZTIj"
  },
  {
   "alignment" : 4,
   "enum_fields" :
   [
    {
     "enum_field_value" : 1,
     "name" : "android::trait_trivial_ctor<long>::value"
    }
   ],
   "linker_set_key" : "_ZTIN7android18trait_trivial_ctorIlE6$valueE",
   "name" : "android::trait_trivial_ctor<long>::(anonymous enum at system/core/libutils/include/utils/TypeHelpers.h:105:1)",
   "referenced_type" : "_ZTIN7android18trait_trivial_ctorIlE6$valueE",
   "self_type" : "_ZTIN7android18trait_trivial_ctorIlE6$valueE",
   "size" : 4,
   "source_file" : "/system/core/libutils/include/utils/TypeHelpers.h",
   "underlying_type" : "_ZTIj"
  },
  {
   "alignment" : 4,
   "enum_fields" :
   [
    {
     "enum_field_value" : 1,
     "name" : "android::trait_trivial_ctor<unsigned long>::value"
    }
   ],
   "linker_set_key" : "_ZTIN7android18trait_trivial_ctorImE6$valueE",
   "name" : "android::trait_trivial_ctor<unsigned long>::(anonymous enum at system/core/libutils/include/utils/TypeHelpers.h:106:1)",
   "referenced_type" : "_ZTIN7android18trait_trivial_ctorImE6$valueE",
   "self_type" : "_ZTIN7android18trait_trivial_ctorImE6$valueE",
   "size" : 4,
   "source_file" : "/system/core/libutils/include/utils/TypeHelpers.h",
   "underlying_type" : "_ZTIj"
  },
  {
   "alignment" : 4,
   "enum_fields" :
   [
    {
     "enum_field_value" : 1,
     "name" : "android::trait_trivial_ctor<short>::value"
    }
   ],
   "linker_set_key" : "_ZTIN7android18trait_trivial_ctorIsE6$valueE",
   "name" : "android::trait_trivial_ctor<short>::(anonymous enum at system/core/libutils/include/utils/TypeHelpers.h:101:1)",
   "referenced_type" : "_ZTIN7android18trait_trivial_ctorIsE6$valueE",
   "self_type" : "_ZTIN7android18trait_trivial_ctorIsE6$valueE",
   "size" : 4,
   "source_file" : "/system/core/libutils/include/utils/TypeHelpers.h",
   "underlying_type" : "_ZTIj"
  },
  {
   "alignment" : 4,
   "enum_fields" :
   [
    {
     "enum_field_value" : 1,
     "name" : "android::trait_trivial_ctor<unsigned short>::value"
    }
   ],
   "linker_set_key" : "_ZTIN7android18trait_trivial_ctorItE6$valueE",
   "name" : "android::trait_trivial_ctor<unsigned short>::(anonymous enum at system/core/libutils/include/utils/TypeHelpers.h:102:1)",
   "referenced_type" : "_ZTIN7android18trait_trivial_ctorItE6$valueE",
   "self_type" : "_ZTIN7android18trait_trivial_ctorItE6$valueE",
   "size" : 4,
   "source_file" : "/system/core/libutils/include/utils/TypeHelpers.h",
   "underlying_type" : "_ZTIj"
  },
  {
   "alignment" : 4,
   "enum_fields" :
   [
    {
     "enum_field_value" : 1,
     "name" : "android::trait_trivial_ctor<void>::value"
    }
   ],
   "linker_set_key" : "_ZTIN7android18trait_trivial_ctorIvE6$valueE",
   "name" : "android::trait_trivial_ctor<void>::(anonymous enum at system/core/libutils/include/utils/TypeHelpers.h:97:1)",
   "referenced_type" : "_ZTIN7android18trait_trivial_ctorIvE6$valueE",
   "self_type" : "_ZTIN7android18trait_trivial_ctorIvE6$valueE",
   "size" : 4,
   "source_file" : "/system/core/libutils/include/utils/TypeHelpers.h",
   "underlying_type" : "_ZTIj"
  },
  {
   "alignment" : 4,
   "enum_fields" :
   [
    {
     "enum_field_value" : 1,
     "name" : "android::trait_trivial_ctor<long long>::value"
    }
   ],
   "linker_set_key" : "_ZTIN7android18trait_trivial_ctorIxE6$valueE",
   "name" : "android::trait_trivial_ctor<long long>::(anonymous enum at system/core/libutils/include/utils/TypeHelpers.h:107:1)",
   "referenced_type" : "_ZTIN7android18trait_trivial_ctorIxE6$valueE",
   "self_type" : "_ZTIN7android18trait_trivial_ctorIxE6$valueE",
   "size" : 4,
   "source_file" : "/system/core/libutils/include/utils/TypeHelpers.h",
   "underlying_type" : "_ZTIj"
  },
  {
   "alignment" : 4,
   "enum_fields" :
   [
    {
     "enum_field_value" : 1,
     "name" : "android::trait_trivial_ctor<unsigned long long>::value"
    }
   ],
   "linker_set_key" : "_ZTIN7android18trait_trivial_ctorIyE6$valueE",
   "name" : "android::trait_trivial_ctor<unsigned long long>::(anonymous enum at system/core/libutils/include/utils/TypeHelpers.h:108:1)",
   "referenced_type" : "_ZTIN7android18trait_trivial_ctorIyE6$valueE",
   "self_type" : "_ZTIN7android18trait_trivial_ctorIyE6$valueE",
   "size" : 4,
   "source_file" : "/system/core/libutils/include/utils/TypeHelpers.h",
   "underlying_type" : "_ZTIj"
  },
  {
   "alignment" : 4,
   "enum_fields" :
   [
    {
     "enum_field_value" : 1,
     "name" : "android::trait_trivial_dtor<bool>::value"
    }
   ],
   "linker_set_key" : "_ZTIN7android18trait_trivial_dtorIbE6$valueE",
   "name" : "android::trait_trivial_dtor<bool>::(anonymous enum at system/core/libutils/include/utils/TypeHelpers.h:98:1)",
   "referenced_type" : "_ZTIN7android18trait_trivial_dtorIbE6$valueE",
   "self_type" : "_ZTIN7android18trait_trivial_dtorIbE6$valueE",
   "size" : 4,
   "source_file" : "/system/core/libutils/include/utils/TypeHelpers.h",
   "underlying_type" : "_ZTIj"
  },
  {
   "alignment" : 4,
   "enum_fields" :
   [
    {
     "enum_field_value" : 1,
     "name" : "android::trait_trivial_dtor<char>::value"
    }
   ],
   "linker_set_key" : "_ZTIN7android18trait_trivial_dtorIcE6$valueE",
   "name" : "android::trait_trivial_dtor<char>::(anonymous enum at system/core/libutils/include/utils/TypeHelpers.h:99:1)",
   "referenced_type" : "_ZTIN7android18trait_trivial_dtorIcE6$valueE",
   "self_type" : "_ZTIN7android18trait_trivial_dtorIcE6$valueE",
   "size" : 4,
   "source_file" : "/system/core/libutils/include/utils/TypeHelpers.h",
   "underlying_type" : "_ZTIj"
  },
  {
   "alignment" : 4,
   "enum_fields" :
   [
    {
     "enum_field_value" : 1,
     "name" : "android::trait_trivial_dtor<double>::value"
    }
   ],
   "linker_set_key" : "_ZTIN7android18trait_trivial_dtorIdE6$valueE",
   "name" : "android::trait_trivial_dtor<double>::(anonymous enum at system/core/libutils/include/utils/TypeHelpers.h:110:1)",
   "referenced_type" : "_ZTIN7android18trait_trivial_dtorIdE6$valueE",
   "self_type" : "_ZTIN7android18trait_trivial_dtorIdE6$valueE",
   "size" : 4,
   "source_file" : "/system/core/libutils/include/utils/TypeHelpers.h",
   "underlying_type" : "_ZTIj"
  },
  {
   "alignment" : 4,
   "enum_fields" :
   [
    {
     "enum_field_value" : 1,
     "name" : "android::trait_trivial_dtor<float>::value"
    }
   ],
   "linker_set_key" : "_ZTIN7android18trait_trivial_dtorIfE6$valueE",
   "name" : "android::trait_trivial_dtor<float>::(anonymous enum at system/core/libutils/include/utils/TypeHelpers.h:109:1)",
   "referenced_type" : "_ZTIN7android18trait_trivial_dtorIfE6$valueE",
   "self_type" : "_ZTIN7android18trait_trivial_dtorIfE6$valueE",
   "size" : 4,
   "source_file" : "/system/core/libutils/include/utils/TypeHelpers.h",
   "underlying_type" : "_ZTIj"
  },
  {
   "alignment" : 4,
   "enum_fields" :
   [
    {
     "enum_field_value" : 1,
     "name" : "android::trait_trivial_dtor<unsigned char>::value"
    }
   ],
   "linker_set_key" : "_ZTIN7android18trait_trivial_dtorIhE6$valueE",
   "name" : "android::trait_trivial_dtor<unsigned char>::(anonymous enum at system/core/libutils/include/utils/TypeHelpers.h:100:1)",
   "referenced_type" : "_ZTIN7android18trait_trivial_dtorIhE6$valueE",
   "self_type" : "_ZTIN7android18trait_trivial_dtorIhE6$valueE",
   "size" : 4,
   "source_file" : "/system/core/libutils/include/utils/TypeHelpers.h",
   "underlying_type" : "_ZTIj"
  },
  {
   "alignment" : 4,
   "enum_fields" :
   [
    {
     "enum_field_value" : 1,
     "name" : "android::trait_trivial_dtor<int>::value"
    }
   ],
   "linker_set_key" : "_ZTIN7android18trait_trivial_dtorIiE6$valueE",
   "name" : "android::trait_trivial_dtor<int>::(anonymous enum at system/core/libutils/include/utils/TypeHelpers.h:103:1)",
   "referenced_type" : "_ZTIN7android18trait_trivial_dtorIiE6$valueE",
   "self_type" : "_ZTIN7android18trait_trivial_dtorIiE6$valueE",
   "size" : 4,
   "source_file" : "/system/core/libutils/include/utils/TypeHelpers.h",
   "underlying_type" : "_ZTIj"
  },
  {
   "alignment" : 4,
   "enum_fields" :
   [
    {
     "enum_field_value" : 1,
     "name" : "android::trait_trivial_dtor<unsigned int>::value"
    }
   ],
   "linker_set_key" : "_ZTIN7android18trait_trivial_dtorIjE6$valueE",
   "name" : "android::trait_trivial_dtor<unsigned int>::(anonymous enum at system/core/libutils/include/utils/TypeHelpers.h:104:1)",
   "referenced_type" : "_ZTIN7android18trait_trivial_dtorIjE6$valueE",
   "self_type" : "_ZTIN7android18trait_trivial_dtorIjE6$valueE",
   "size" : 4,
   "source_file" : "/system/core/libutils/include/utils/TypeHelpers.h",
   "underlying_type" : "_ZTIj"
  },
  {
   "alignment" : 4,
   "enum_fields" :
   [
    {
     "enum_field_value" : 1,
     "name" : "android::trait_trivial_dtor<long>::value"
    }
   ],
   "linker_set_key" : "_ZTIN7android18trait_trivial_dtorIlE6$valueE",
   "name" : "android::trait_trivial_dtor<long>::(anonymous enum at system/core/libutils/include/utils/TypeHelpers.h:105:1)",
   "referenced_type" : "_ZTIN7android18trait_trivial_dtorIlE6$valueE",
   "self_type" : "_ZTIN7android18trait_trivial_dtorIlE6$valueE",
   "size" : 4,
   "source_file" : "/system/core/libutils/include/utils/TypeHelpers.h",
   "underlying_type" : "_ZTIj"
  },
  {
   "alignment" : 4,
   "enum_fields" :
   [
    {
     "enum_field_value" : 1,
     "name" : "android::trait_trivial_dtor<unsigned long>::value"
    }
   ],
   "linker_set_key" : "_ZTIN7android18trait_trivial_dtorImE6$valueE",
   "name" : "android::trait_trivial_dtor<unsigned long>::(anonymous enum at system/core/libutils/include/utils/TypeHelpers.h:106:1)",
   "referenced_type" : "_ZTIN7android18trait_trivial_dtorImE6$valueE",
   "self_type" : "_ZTIN7android18trait_trivial_dtorImE6$valueE",
   "size" : 4,
   "source_file" : "/system/core/libutils/include/utils/TypeHelpers.h",
   "underlying_type" : "_ZTIj"
  },
  {
   "alignment" : 4,
   "enum_fields" :
   [
    {
     "enum_field_value" : 1,
     "name" : "android::trait_trivial_dtor<short>::value"
    }
   ],
   "linker_set_key" : "_ZTIN7android18trait_trivial_dtorIsE6$valueE",
   "name" : "android::trait_trivial_dtor<short>::(anonymous enum at system/core/libutils/include/utils/TypeHelpers.h:101:1)",
   "referenced_type" : "_ZTIN7android18trait_trivial_dtorIsE6$valueE",
   "self_type" : "_ZTIN7android18trait_trivial_dtorIsE6$valueE",
   "size" : 4,
   "source_file" : "/system/core/libutils/include/utils/TypeHelpers.h",
   "underlying_type" : "_ZTIj"
  },
  {
   "alignment" : 4,
   "enum_fields" :
   [
    {
     "enum_field_value" : 1,
     "name" : "android::trait_trivial_dtor<unsigned short>::value"
    }
   ],
   "linker_set_key" : "_ZTIN7android18trait_trivial_dtorItE6$valueE",
   "name" : "android::trait_trivial_dtor<unsigned short>::(anonymous enum at system/core/libutils/include/utils/TypeHelpers.h:102:1)",
   "referenced_type" : "_ZTIN7android18trait_trivial_dtorItE6$valueE",
   "self_type" : "_ZTIN7android18trait_trivial_dtorItE6$valueE",
   "size" : 4,
   "source_file" : "/system/core/libutils/include/utils/TypeHelpers.h",
   "underlying_type" : "_ZTIj"
  },
  {
   "alignment" : 4,
   "enum_fields" :
   [
    {
     "enum_field_value" : 1,
     "name" : "android::trait_trivial_dtor<void>::value"
    }
   ],
   "linker_set_key" : "_ZTIN7android18trait_trivial_dtorIvE6$valueE",
   "name" : "android::trait_trivial_dtor<void>::(anonymous enum at system/core/libutils/include/utils/TypeHelpers.h:97:1)",
   "referenced_type" : "_ZTIN7android18trait_trivial_dtorIvE6$valueE",
   "self_type" : "_ZTIN7android18trait_trivial_dtorIvE6$valueE",
   "size" : 4,
   "source_file" : "/system/core/libutils/include/utils/TypeHelpers.h",
   "underlying_type" : "_ZTIj"
  },
  {
   "alignment" : 4,
   "enum_fields" :
   [
    {
     "enum_field_value" : 1,
     "name" : "android::trait_trivial_dtor<long long>::value"
    }
   ],
   "linker_set_key" : "_ZTIN7android18trait_trivial_dtorIxE6$valueE",
   "name" : "android::trait_trivial_dtor<long long>::(anonymous enum at system/core/libutils/include/utils/TypeHelpers.h:107:1)",
   "referenced_type" : "_ZTIN7android18trait_trivial_dtorIxE6$valueE",
   "self_type" : "_ZTIN7android18trait_trivial_dtorIxE6$valueE",
   "size" : 4,
   "source_file" : "/system/core/libutils/include/utils/TypeHelpers.h",
   "underlying_type" : "_ZTIj"
  },
  {
   "alignment" : 4,
   "enum_fields" :
   [
    {
     "enum_field_value" : 1,
     "name" : "android::trait_trivial_dtor<unsigned long long>::value"
    }
   ],
   "linker_set_key" : "_ZTIN7android18trait_trivial_dtorIyE6$valueE",
   "name" : "android::trait_trivial_dtor<unsigned long long>::(anonymous enum at system/core/libutils/include/utils/TypeHelpers.h:108:1)",
   "referenced_type" : "_ZTIN7android18trait_trivial_dtorIyE6$valueE",
   "self_type" : "_ZTIN7android18trait_trivial_dtorIyE6$valueE",
   "size" : 4,
   "source_file" : "/system/core/libutils/include/utils/TypeHelpers.h",
   "underlying_type" : "_ZTIj"
  },
  {
   "alignment" : 4,
   "enum_fields" :
   [
    {
     "enum_field_value" : 1,
     "name" : "android::trait_trivial_move<android::String8>::value"
    }
   ],
   "linker_set_key" : "_ZTIN7android18trait_trivial_moveINS_7String8EE6$valueE",
   "name" : "android::trait_trivial_move<String8>::(anonymous enum at system/core/libutils/include/utils/String8.h:242:1)",
   "referenced_type" : "_ZTIN7android18trait_trivial_moveINS_7String8EE6$valueE",
   "self_type" : "_ZTIN7android18trait_trivial_moveINS_7String8EE6$valueE",
   "size" : 4,
   "source_file" : "/system/core/libutils/include/utils/String8.h",
   "underlying_type" : "_ZTIj"
  },
  {
   "alignment" : 4,
   "enum_fields" :
   [
    {
     "enum_field_value" : 1,
     "name" : "android::trait_trivial_move<android::String16>::value"
    }
   ],
   "linker_set_key" : "_ZTIN7android18trait_trivial_moveINS_8String16EE6$valueE",
   "name" : "android::trait_trivial_move<String16>::(anonymous enum at system/core/libutils/include/utils/String16.h:197:1)",
   "referenced_type" : "_ZTIN7android18trait_trivial_moveINS_8String16EE6$valueE",
   "self_type" : "_ZTIN7android18trait_trivial_moveINS_8String16EE6$valueE",
   "size" : 4,
   "source_file" : "/system/core/libutils/include/utils/String16.h",
   "underlying_type" : "_ZTIj"
  },
  {
   "alignment" : 4,
   "enum_fields" :
   [
    {
     "enum_field_value" : 1,
     "name" : "android::trait_trivial_move<bool>::value"
    }
   ],
   "linker_set_key" : "_ZTIN7android18trait_trivial_moveIbE6$valueE",
   "name" : "android::trait_trivial_move<bool>::(anonymous enum at system/core/libutils/include/utils/TypeHelpers.h:98:1)",
   "referenced_type" : "_ZTIN7android18trait_trivial_moveIbE6$valueE",
   "self_type" : "_ZTIN7android18trait_trivial_moveIbE6$valueE",
   "size" : 4,
   "source_file" : "/system/core/libutils/include/utils/TypeHelpers.h",
   "underlying_type" : "_ZTIj"
  },
  {
   "alignment" : 4,
   "enum_fields" :
   [
    {
     "enum_field_value" : 1,
     "name" : "android::trait_trivial_move<char>::value"
    }
   ],
   "linker_set_key" : "_ZTIN7android18trait_trivial_moveIcE6$valueE",
   "name" : "android::trait_trivial_move<char>::(anonymous enum at system/core/libutils/include/utils/TypeHelpers.h:99:1)",
   "referenced_type" : "_ZTIN7android18trait_trivial_moveIcE6$valueE",
   "self_type" : "_ZTIN7android18trait_trivial_moveIcE6$valueE",
   "size" : 4,
   "source_file" : "/system/core/libutils/include/utils/TypeHelpers.h",
   "underlying_type" : "_ZTIj"
  },
  {
   "alignment" : 4,
   "enum_fields" :
   [
    {
     "enum_field_value" : 1,
     "name" : "android::trait_trivial_move<double>::value"
    }
   ],
   "linker_set_key" : "_ZTIN7android18trait_trivial_moveIdE6$valueE",
   "name" : "android::trait_trivial_move<double>::(anonymous enum at system/core/libutils/include/utils/TypeHelpers.h:110:1)",
   "referenced_type" : "_ZTIN7android18trait_trivial_moveIdE6$valueE",
   "self_type" : "_ZTIN7android18trait_trivial_moveIdE6$valueE",
   "size" : 4,
   "source_file" : "/system/core/libutils/include/utils/TypeHelpers.h",
   "underlying_type" : "_ZTIj"
  },
  {
   "alignment" : 4,
   "enum_fields" :
   [
    {
     "enum_field_value" : 1,
     "name" : "android::trait_trivial_move<float>::value"
    }
   ],
   "linker_set_key" : "_ZTIN7android18trait_trivial_moveIfE6$valueE",
   "name" : "android::trait_trivial_move<float>::(anonymous enum at system/core/libutils/include/utils/TypeHelpers.h:109:1)",
   "referenced_type" : "_ZTIN7android18trait_trivial_moveIfE6$valueE",
   "self_type" : "_ZTIN7android18trait_trivial_moveIfE6$valueE",
   "size" : 4,
   "source_file" : "/system/core/libutils/include/utils/TypeHelpers.h",
   "underlying_type" : "_ZTIj"
  },
  {
   "alignment" : 4,
   "enum_fields" :
   [
    {
     "enum_field_value" : 1,
     "name" : "android::trait_trivial_move<unsigned char>::value"
    }
   ],
   "linker_set_key" : "_ZTIN7android18trait_trivial_moveIhE6$valueE",
   "name" : "android::trait_trivial_move<unsigned char>::(anonymous enum at system/core/libutils/include/utils/TypeHelpers.h:100:1)",
   "referenced_type" : "_ZTIN7android18trait_trivial_moveIhE6$valueE",
   "self_type" : "_ZTIN7android18trait_trivial_moveIhE6$valueE",
   "size" : 4,
   "source_file" : "/system/core/libutils/include/utils/TypeHelpers.h",
   "underlying_type" : "_ZTIj"
  },
  {
   "alignment" : 4,
   "enum_fields" :
   [
    {
     "enum_field_value" : 1,
     "name" : "android::trait_trivial_move<int>::value"
    }
   ],
   "linker_set_key" : "_ZTIN7android18trait_trivial_moveIiE6$valueE",
   "name" : "android::trait_trivial_move<int>::(anonymous enum at system/core/libutils/include/utils/TypeHelpers.h:103:1)",
   "referenced_type" : "_ZTIN7android18trait_trivial_moveIiE6$valueE",
   "self_type" : "_ZTIN7android18trait_trivial_moveIiE6$valueE",
   "size" : 4,
   "source_file" : "/system/core/libutils/include/utils/TypeHelpers.h",
   "underlying_type" : "_ZTIj"
  },
  {
   "alignment" : 4,
   "enum_fields" :
   [
    {
     "enum_field_value" : 1,
     "name" : "android::trait_trivial_move<unsigned int>::value"
    }
   ],
   "linker_set_key" : "_ZTIN7android18trait_trivial_moveIjE6$valueE",
   "name" : "android::trait_trivial_move<unsigned int>::(anonymous enum at system/core/libutils/include/utils/TypeHelpers.h:104:1)",
   "referenced_type" : "_ZTIN7android18trait_trivial_moveIjE6$valueE",
   "self_type" : "_ZTIN7android18trait_trivial_moveIjE6$valueE",
   "size" : 4,
   "source_file" : "/system/core/libutils/include/utils/TypeHelpers.h",
   "underlying_type" : "_ZTIj"
  },
  {
   "alignment" : 4,
   "enum_fields" :
   [
    {
     "enum_field_value" : 1,
     "name" : "android::trait_trivial_move<long>::value"
    }
   ],
   "linker_set_key" : "_ZTIN7android18trait_trivial_moveIlE6$valueE",
   "name" : "android::trait_trivial_move<long>::(anonymous enum at system/core/libutils/include/utils/TypeHelpers.h:105:1)",
   "referenced_type" : "_ZTIN7android18trait_trivial_moveIlE6$valueE",
   "self_type" : "_ZTIN7android18trait_trivial_moveIlE6$valueE",
   "size" : 4,
   "source_file" : "/system/core/libutils/include/utils/TypeHelpers.h",
   "underlying_type" : "_ZTIj"
  },
  {
   "alignment" : 4,
   "enum_fields" :
   [
    {
     "enum_field_value" : 1,
     "name" : "android::trait_trivial_move<unsigned long>::value"
    }
   ],
   "linker_set_key" : "_ZTIN7android18trait_trivial_moveImE6$valueE",
   "name" : "android::trait_trivial_move<unsigned long>::(anonymous enum at system/core/libutils/include/utils/TypeHelpers.h:106:1)",
   "referenced_type" : "_ZTIN7android18trait_trivial_moveImE6$valueE",
   "self_type" : "_ZTIN7android18trait_trivial_moveImE6$valueE",
   "size" : 4,
   "source_file" : "/system/core/libutils/include/utils/TypeHelpers.h",
   "underlying_type" : "_ZTIj"
  },
  {
   "alignment" : 4,
   "enum_fields" :
   [
    {
     "enum_field_value" : 1,
     "name" : "android::trait_trivial_move<short>::value"
    }
   ],
   "linker_set_key" : "_ZTIN7android18trait_trivial_moveIsE6$valueE",
   "name" : "android::trait_trivial_move<short>::(anonymous enum at system/core/libutils/include/utils/TypeHelpers.h:101:1)",
   "referenced_type" : "_ZTIN7android18trait_trivial_moveIsE6$valueE",
   "self_type" : "_ZTIN7android18trait_trivial_moveIsE6$valueE",
   "size" : 4,
   "source_file" : "/system/core/libutils/include/utils/TypeHelpers.h",
   "underlying_type" : "_ZTIj"
  },
  {
   "alignment" : 4,
   "enum_fields" :
   [
    {
     "enum_field_value" : 1,
     "name" : "android::trait_trivial_move<unsigned short>::value"
    }
   ],
   "linker_set_key" : "_ZTIN7android18trait_trivial_moveItE6$valueE",
   "name" : "android::trait_trivial_move<unsigned short>::(anonymous enum at system/core/libutils/include/utils/TypeHelpers.h:102:1)",
   "referenced_type" : "_ZTIN7android18trait_trivial_moveItE6$valueE",
   "self_type" : "_ZTIN7android18trait_trivial_moveItE6$valueE",
   "size" : 4,
   "source_file" : "/system/core/libutils/include/utils/TypeHelpers.h",
   "underlying_type" : "_ZTIj"
  },
  {
   "alignment" : 4,
   "enum_fields" :
   [
    {
     "enum_field_value" : 1,
     "name" : "android::trait_trivial_move<void>::value"
    }
   ],
   "linker_set_key" : "_ZTIN7android18trait_trivial_moveIvE6$valueE",
   "name" : "android::trait_trivial_move<void>::(anonymous enum at system/core/libutils/include/utils/TypeHelpers.h:97:1)",
   "referenced_type" : "_ZTIN7android18trait_trivial_moveIvE6$valueE",
   "self_type" : "_ZTIN7android18trait_trivial_moveIvE6$valueE",
   "size" : 4,
   "source_file" : "/system/core/libutils/include/utils/TypeHelpers.h",
   "underlying_type" : "_ZTIj"
  },
  {
   "alignment" : 4,
   "enum_fields" :
   [
    {
     "enum_field_value" : 1,
     "name" : "android::trait_trivial_move<long long>::value"
    }
   ],
   "linker_set_key" : "_ZTIN7android18trait_trivial_moveIxE6$valueE",
   "name" : "android::trait_trivial_move<long long>::(anonymous enum at system/core/libutils/include/utils/TypeHelpers.h:107:1)",
   "referenced_type" : "_ZTIN7android18trait_trivial_moveIxE6$valueE",
   "self_type" : "_ZTIN7android18trait_trivial_moveIxE6$valueE",
   "size" : 4,
   "source_file" : "/system/core/libutils/include/utils/TypeHelpers.h",
   "underlying_type" : "_ZTIj"
  },
  {
   "alignment" : 4,
   "enum_fields" :
   [
    {
     "enum_field_value" : 1,
     "name" : "android::trait_trivial_move<unsigned long long>::value"
    }
   ],
   "linker_set_key" : "_ZTIN7android18trait_trivial_moveIyE6$valueE",
   "name" : "android::trait_trivial_move<unsigned long long>::(anonymous enum at system/core/libutils/include/utils/TypeHelpers.h:108:1)",
   "referenced_type" : "_ZTIN7android18trait_trivial_moveIyE6$valueE",
   "self_type" : "_ZTIN7android18trait_trivial_moveIyE6$valueE",
   "size" : 4,
   "source_file" : "/system/core/libutils/include/utils/TypeHelpers.h",
   "underlying_type" : "_ZTIj"
  },
  {
   "alignment" : 4,
   "enum_fields" :
   [
    {
     "enum_field_value" : 0,
     "name" : "android::hidl::base::V1_0::DebugInfo::Architecture::UNKNOWN"
    },
    {
     "enum_field_value" : 1,
     "name" : "android::hidl::base::V1_0::DebugInfo::Architecture::IS_64BIT"
    },
    {
     "enum_field_value" : 2,
     "name" : "android::hidl::base::V1_0::DebugInfo::Architecture::IS_32BIT"
    }
   ],
   "linker_set_key" : "_ZTIN7android4hidl4base4V1_09DebugInfo12ArchitectureE",
   "name" : "android::hidl::base::V1_0::DebugInfo::Architecture",
   "referenced_type" : "_ZTIN7android4hidl4base4V1_09DebugInfo12ArchitectureE",
   "self_type" : "_ZTIN7android4hidl4base4V1_09DebugInfo12ArchitectureE",
   "size" : 4,
   "source_file" : "/out/soong/.intermediates/system/libhidl/transport/base/1.0/android.hidl.base@1.0_genc++_headers/gen/android/hidl/base/1.0/types.h",
   "underlying_type" : "_ZTIi"
  },
  {
   "alignment" : 4,
   "enum_fields" :
   [
    {
     "enum_field_value" : -1,
     "name" : "android::hidl::manager::V1_0::IServiceManager::PidConstant::NO_PID"
    }
   ],
   "linker_set_key" : "_ZTIN7android4hidl7manager4V1_015IServiceManager11PidConstantE",
   "name" : "android::hidl::manager::V1_0::IServiceManager::PidConstant",
   "referenced_type" : "_ZTIN7android4hidl7manager4V1_015IServiceManager11PidConstantE",
   "self_type" : "_ZTIN7android4hidl7manager4V1_015IServiceManager11PidConstantE",
   "size" : 4,
   "source_file" : "/out/soong/.intermediates/system/libhidl/transport/manager/1.0/android.hidl.manager@1.0_genc++_headers/gen/android/hidl/manager/1.0/IServiceManager.h",
   "underlying_type" : "_ZTIi"
  },
  {
   "alignment" : 1,
   "enum_fields" :
   [
    {
     "enum_field_value" : 0,
     "name" : "android::hidl::manager::V1_0::IServiceManager::Transport::EMPTY"
    },
    {
     "enum_field_value" : 1,
     "name" : "android::hidl::manager::V1_0::IServiceManager::Transport::HWBINDER"
    },
    {
     "enum_field_value" : 2,
     "name" : "android::hidl::manager::V1_0::IServiceManager::Transport::PASSTHROUGH"
    }
   ],
   "linker_set_key" : "_ZTIN7android4hidl7manager4V1_015IServiceManager9TransportE",
   "name" : "android::hidl::manager::V1_0::IServiceManager::Transport",
   "referenced_type" : "_ZTIN7android4hidl7manager4V1_015IServiceManager9TransportE",
   "self_type" : "_ZTIN7android4hidl7manager4V1_015IServiceManager9TransportE",
   "size" : 1,
   "source_file" : "/out/soong/.intermediates/system/libhidl/transport/manager/1.0/android.hidl.manager@1.0_genc++_headers/gen/android/hidl/manager/1.0/IServiceManager.h",
   "underlying_type" : "_ZTIh"
  },
  {
   "alignment" : 4,
   "enum_fields" :
   [
    {
     "enum_field_value" : 0,
     "name" : "android::Mutex::PRIVATE"
    },
    {
     "enum_field_value" : 1,
     "name" : "android::Mutex::SHARED"
    }
   ],
   "linker_set_key" : "_ZTIN7android5Mutex8$PRIVATEE",
   "name" : "android::Mutex::(anonymous enum at system/core/libutils/include/utils/Mutex.h:96:5)",
   "referenced_type" : "_ZTIN7android5Mutex8$PRIVATEE",
   "self_type" : "_ZTIN7android5Mutex8$PRIVATEE",
   "size" : 4,
   "source_file" : "/system/core/libutils/include/utils/Mutex.h",
   "underlying_type" : "_ZTIj"
  },
  {
   "alignment" : 4,
   "enum_fields" :
   [
    {
     "enum_field_value" : 0,
     "name" : "android::RWLock::PRIVATE"
    },
    {
     "enum_field_value" : 1,
     "name" : "android::RWLock::SHARED"
    }
   ],
   "linker_set_key" : "_ZTIN7android6RWLock8$PRIVATEE",
   "name" : "android::RWLock::(anonymous enum at system/core/libutils/include/utils/RWLock.h:44:5)",
   "referenced_type" : "_ZTIN7android6RWLock8$PRIVATEE",
   "self_type" : "_ZTIN7android6RWLock8$PRIVATEE",
   "size" : 4,
   "source_file" : "/system/core/libutils/include/utils/RWLock.h",
   "underlying_type" : "_ZTIj"
  },
  {
   "access" : "protected",
   "alignment" : 4,
   "enum_fields" :
   [
    {
     "enum_field_value" : 1,
     "name" : "android::RefBase::FIRST_INC_STRONG"
    }
   ],
   "linker_set_key" : "_ZTIN7android7RefBase17$FIRST_INC_STRONGE",
   "name" : "android::RefBase::(anonymous enum at system/core/libutils/include/utils/RefBase.h:313:5)",
   "referenced_type" : "_ZTIN7android7RefBase17$FIRST_INC_STRONGE",
   "self_type" : "_ZTIN7android7RefBase17$FIRST_INC_STRONGE",
   "size" : 4,
   "source_file" : "/system/core/libutils/include/utils/RefBase.h",
   "underlying_type" : "_ZTIj"
  },
  {
   "access" : "protected",
   "alignment" : 4,
   "enum_fields" :
   [
    {
     "enum_field_value" : 0,
     "name" : "android::RefBase::OBJECT_LIFETIME_STRONG"
    },
    {
     "enum_field_value" : 1,
     "name" : "android::RefBase::OBJECT_LIFETIME_WEAK"
    },
    {
     "enum_field_value" : 1,
     "name" : "android::RefBase::OBJECT_LIFETIME_MASK"
    }
   ],
   "linker_set_key" : "_ZTIN7android7RefBase21$OBJECT_LIFETIME_MASKE",
   "name" : "android::RefBase::(anonymous enum at system/core/libutils/include/utils/RefBase.h:304:5)",
   "referenced_type" : "_ZTIN7android7RefBase21$OBJECT_LIFETIME_MASKE",
   "self_type" : "_ZTIN7android7RefBase21$OBJECT_LIFETIME_MASKE",
   "size" : 4,
   "source_file" : "/system/core/libutils/include/utils/RefBase.h",
   "underlying_type" : "_ZTIj"
  },
  {
   "alignment" : 4,
   "enum_fields" :
   [
    {
     "enum_field_value" : 0,
     "name" : "android::String8::kEmptyString"
    }
   ],
   "linker_set_key" : "_ZTIN7android7String813StaticLinkageE",
   "name" : "android::String8::StaticLinkage",
   "referenced_type" : "_ZTIN7android7String813StaticLinkageE",
   "self_type" : "_ZTIN7android7String813StaticLinkageE",
   "size" : 4,
   "source_file" : "/system/core/libutils/include/utils/String8.h",
   "underlying_type" : "_ZTIj"
  },
  {
   "alignment" : 4,
   "enum_fields" :
   [
    {
     "enum_field_value" : 0,
     "name" : "android::String16::kEmptyString"
    }
   ],
   "linker_set_key" : "_ZTIN7android8String1613StaticLinkageE",
   "name" : "android::String16::StaticLinkage",
   "referenced_type" : "_ZTIN7android8String1613StaticLinkageE",
   "self_type" : "_ZTIN7android8String1613StaticLinkageE",
   "size" : 4,
   "source_file" : "/system/core/libutils/include/utils/String16.h",
   "underlying_type" : "_ZTIj"
  },
  {
   "alignment" : 4,
   "enum_fields" :
   [
    {
     "enum_field_value" : 0,
     "name" : "android::hardware::MQDescriptor<char, android::hardware::kSynchronizedReadWrite>::READPTRPOS"
    },
    {
     "enum_field_value" : 1,
     "name" : "android::hardware::MQDescriptor<char, android::hardware::kSynchronizedReadWrite>::WRITEPTRPOS"
    },
    {
     "enum_field_value" : 2,
     "name" : "android::hardware::MQDescriptor<char, android::hardware::kSynchronizedReadWrite>::DATAPTRPOS"
    },
    {
     "enum_field_value" : 3,
     "name" : "android::hardware::MQDescriptor<char, android::hardware::kSynchronizedReadWrite>::EVFLAGWORDPOS"
    }
   ],
   "linker_set_key" : "_ZTIN7android8hardware12MQDescriptorIcLNS0_8MQFlavorE1EE11GrantorTypeE",
   "name" : "android::hardware::MQDescriptor<char, android::hardware::kSynchronizedReadWrite>::GrantorType",
   "referenced_type" : "_ZTIN7android8hardware12MQDescriptorIcLNS0_8MQFlavorE1EE11GrantorTypeE",
   "self_type" : "_ZTIN7android8hardware12MQDescriptorIcLNS0_8MQFlavorE1EE11GrantorTypeE",
   "size" : 4,
   "source_file" : "/system/libhidl/base/include/hidl/MQDescriptor.h",
   "underlying_type" : "_ZTIi"
  },
  {
   "alignment" : 4,
   "enum_fields" :
   [
    {
     "enum_field_value" : 0,
     "name" : "android::hardware::MQDescriptor<unsigned int, android::hardware::kSynchronizedReadWrite>::READPTRPOS"
    },
    {
     "enum_field_value" : 1,
     "name" : "android::hardware::MQDescriptor<unsigned int, android::hardware::kSynchronizedReadWrite>::WRITEPTRPOS"
    },
    {
     "enum_field_value" : 2,
     "name" : "android::hardware::MQDescriptor<unsigned int, android::hardware::kSynchronizedReadWrite>::DATAPTRPOS"
    },
    {
     "enum_field_value" : 3,
     "name" : "android::hardware::MQDescriptor<unsigned int, android::hardware::kSynchronizedReadWrite>::EVFLAGWORDPOS"
    }
   ],
   "linker_set_key" : "_ZTIN7android8hardware12MQDescriptorIjLNS0_8MQFlavorE1EE11GrantorTypeE",
   "name" : "android::hardware::MQDescriptor<unsigned int, android::hardware::kSynchronizedReadWrite>::GrantorType",
   "referenced_type" : "_ZTIN7android8hardware12MQDescriptorIjLNS0_8MQFlavorE1EE11GrantorTypeE",
   "self_type" : "_ZTIN7android8hardware12MQDescriptorIjLNS0_8MQFlavorE1EE11GrantorTypeE",
   "size" : 4,
   "source_file" : "/system/libhidl/base/include/hidl/MQDescriptor.h",
   "underlying_type" : "_ZTIi"
  },
  {
   "alignment" : 4,
   "enum_fields" :
   [
    {
     "enum_field_value" : 0,
     "name" : "android::hardware::ProcessState::CallRestriction::NONE"
    },
    {
     "enum_field_value" : 1,
     "name" : "android::hardware::ProcessState::CallRestriction::ERROR_IF_NOT_ONEWAY"
    },
    {
     "enum_field_value" : 2,
     "name" : "android::hardware::ProcessState::CallRestriction::FATAL_IF_NOT_ONEWAY"
    }
   ],
   "linker_set_key" : "_ZTIN7android8hardware12ProcessState15CallRestrictionE",
   "name" : "android::hardware::ProcessState::CallRestriction",
   "referenced_type" : "_ZTIN7android8hardware12ProcessState15CallRestrictionE",
   "self_type" : "_ZTIN7android8hardware12ProcessState15CallRestrictionE",
   "size" : 4,
   "source_file" : "/system/libhwbinder/include/hwbinder/ProcessState.h",
   "underlying_type" : "_ZTIi"
  },
  {
   "alignment" : 4,
   "enum_fields" :
   [
    {
     "enum_field_value" : 0,
     "name" : "android::hardware::HidlReturnRestriction::NONE"
    },
    {
     "enum_field_value" : 1,
     "name" : "android::hardware::HidlReturnRestriction::ERROR_IF_UNCHECKED"
    },
    {
     "enum_field_value" : 2,
     "name" : "android::hardware::HidlReturnRestriction::FATAL_IF_UNCHECKED"
    }
   ],
   "linker_set_key" : "_ZTIN7android8hardware21HidlReturnRestrictionE",
   "name" : "android::hardware::HidlReturnRestriction",
   "referenced_type" : "_ZTIN7android8hardware21HidlReturnRestrictionE",
   "self_type" : "_ZTIN7android8hardware21HidlReturnRestrictionE",
   "size" : 4,
   "source_file" : "/system/libhidl/base/include/hidl/Status.h",
   "underlying_type" : "_ZTIi"
  },
  {
   "alignment" : 4,
   "enum_fields" :
   [
    {
     "enum_field_value" : 0,
     "name" : "android::hardware::Status::EX_NONE"
    },
    {
     "enum_field_value" : -1,
     "name" : "android::hardware::Status::EX_SECURITY"
    },
    {
     "enum_field_value" : -2,
     "name" : "android::hardware::Status::EX_BAD_PARCELABLE"
    },
    {
     "enum_field_value" : -3,
     "name" : "android::hardware::Status::EX_ILLEGAL_ARGUMENT"
    },
    {
     "enum_field_value" : -4,
     "name" : "android::hardware::Status::EX_NULL_POINTER"
    },
    {
     "enum_field_value" : -5,
     "name" : "android::hardware::Status::EX_ILLEGAL_STATE"
    },
    {
     "enum_field_value" : -6,
     "name" : "android::hardware::Status::EX_NETWORK_MAIN_THREAD"
    },
    {
     "enum_field_value" : -7,
     "name" : "android::hardware::Status::EX_UNSUPPORTED_OPERATION"
    },
    {
     "enum_field_value" : -128,
     "name" : "android::hardware::Status::EX_HAS_REPLY_HEADER"
    },
    {
     "enum_field_value" : -129,
     "name" : "android::hardware::Status::EX_TRANSACTION_FAILED"
    }
   ],
   "linker_set_key" : "_ZTIN7android8hardware6Status9ExceptionE",
   "name" : "android::hardware::Status::Exception",
   "referenced_type" : "_ZTIN7android8hardware6Status9ExceptionE",
   "self_type" : "_ZTIN7android8hardware6Status9ExceptionE",
   "size" : 4,
   "source_file" : "/system/libhidl/base/include/hidl/Status.h",
   "underlying_type" : "_ZTIi"
  },
  {
   "alignment" : 4,
   "enum_fields" :
   [
    {
     "enum_field_value" : 1,
     "name" : "android::hardware::IBinder::FLAG_ONEWAY"
    }
   ],
   "linker_set_key" : "_ZTIN7android8hardware7IBinder12$FLAG_ONEWAYE",
   "name" : "android::hardware::IBinder::(anonymous enum at system/libhwbinder/include/hwbinder/IBinder.h:47:5)",
   "referenced_type" : "_ZTIN7android8hardware7IBinder12$FLAG_ONEWAYE",
   "self_type" : "_ZTIN7android8hardware7IBinder12$FLAG_ONEWAYE",
   "size" : 4,
   "source_file" : "/system/libhwbinder/include/hwbinder/IBinder.h",
   "underlying_type" : "_ZTIj"
  },
  {
   "alignment" : 4,
   "enum_fields" :
   [
    {
     "enum_field_value" : 0,
     "name" : "android::hardware::details::HidlInstrumentor::SERVER_API_ENTRY"
    },
    {
     "enum_field_value" : 1,
     "name" : "android::hardware::details::HidlInstrumentor::SERVER_API_EXIT"
    },
    {
     "enum_field_value" : 2,
     "name" : "android::hardware::details::HidlInstrumentor::CLIENT_API_ENTRY"
    },
    {
     "enum_field_value" : 3,
     "name" : "android::hardware::details::HidlInstrumentor::CLIENT_API_EXIT"
    },
    {
     "enum_field_value" : 4,
     "name" : "android::hardware::details::HidlInstrumentor::SYNC_CALLBACK_ENTRY"
    },
    {
     "enum_field_value" : 5,
     "name" : "android::hardware::details::HidlInstrumentor::SYNC_CALLBACK_EXIT"
    },
    {
     "enum_field_value" : 6,
     "name" : "android::hardware::details::HidlInstrumentor::ASYNC_CALLBACK_ENTRY"
    },
    {
     "enum_field_value" : 7,
     "name" : "android::hardware::details::HidlInstrumentor::ASYNC_CALLBACK_EXIT"
    },
    {
     "enum_field_value" : 8,
     "name" : "android::hardware::details::HidlInstrumentor::PASSTHROUGH_ENTRY"
    },
    {
     "enum_field_value" : 9,
     "name" : "android::hardware::details::HidlInstrumentor::PASSTHROUGH_EXIT"
    }
   ],
   "linker_set_key" : "_ZTIN7android8hardware7details16HidlInstrumentor20InstrumentationEventE",
   "name" : "android::hardware::details::HidlInstrumentor::InstrumentationEvent",
   "referenced_type" : "_ZTIN7android8hardware7details16HidlInstrumentor20InstrumentationEventE",
   "self_type" : "_ZTIN7android8hardware7details16HidlInstrumentor20InstrumentationEventE",
   "size" : 4,
   "source_file" : "/system/libhidl/base/include/hidl/HidlInternal.h",
   "underlying_type" : "_ZTIj"
  },
  {
   "alignment" : 4,
   "enum_fields" :
   [
    {
     "enum_field_value" : 1,
     "name" : "android::hardware::kSynchronizedReadWrite"
    },
    {
     "enum_field_value" : 2,
     "name" : "android::hardware::kUnsynchronizedWrite"
    }
   ],
   "linker_set_key" : "_ZTIN7android8hardware8MQFlavorE",
   "name" : "android::hardware::MQFlavor",
   "referenced_type" : "_ZTIN7android8hardware8MQFlavorE",
   "self_type" : "_ZTIN7android8hardware8MQFlavorE",
   "size" : 4,
   "source_file" : "/system/libhidl/base/include/hidl/MQDescriptor.h",
   "underlying_type" : "_ZTIj"
  },
  {
   "alignment" : 8,
   "enum_fields" :
   [
    {
     "enum_field_value" : 15,
     "name" : "android::hardware::graphics::common::V1_0::BufferUsage::CPU_READ_MASK"
    },
    {
     "enum_field_value" : 0,
     "name" : "android::hardware::graphics::common::V1_0::BufferUsage::CPU_READ_NEVER"
    },
    {
     "enum_field_value" : 2,
     "name" : "android::hardware::graphics::common::V1_0::BufferUsage::CPU_READ_RARELY"
    },
    {
     "enum_field_value" : 3,
     "name" : "android::hardware::graphics::common::V1_0::BufferUsage::CPU_READ_OFTEN"
    },
    {
     "enum_field_value" : 240,
     "name" : "android::hardware::graphics::common::V1_0::BufferUsage::CPU_WRITE_MASK"
    },
    {
     "enum_field_value" : 0,
     "name" : "android::hardware::graphics::common::V1_0::BufferUsage::CPU_WRITE_NEVER"
    },
    {
     "enum_field_value" : 32,
     "name" : "android::hardware::graphics::common::V1_0::BufferUsage::CPU_WRITE_RARELY"
    },
    {
     "enum_field_value" : 48,
     "name" : "android::hardware::graphics::common::V1_0::BufferUsage::CPU_WRITE_OFTEN"
    },
    {
     "enum_field_value" : 256,
     "name" : "android::hardware::graphics::common::V1_0::BufferUsage::GPU_TEXTURE"
    },
    {
     "enum_field_value" : 512,
     "name" : "android::hardware::graphics::common::V1_0::BufferUsage::GPU_RENDER_TARGET"
    },
    {
     "enum_field_value" : 2048,
     "name" : "android::hardware::graphics::common::V1_0::BufferUsage::COMPOSER_OVERLAY"
    },
    {
     "enum_field_value" : 4096,
     "name" : "android::hardware::graphics::common::V1_0::BufferUsage::COMPOSER_CLIENT_TARGET"
    },
    {
     "enum_field_value" : 16384,
     "name" : "android::hardware::graphics::common::V1_0::BufferUsage::PROTECTED"
    },
    {
     "enum_field_value" : 32768,
     "name" : "android::hardware::graphics::common::V1_0::BufferUsage::COMPOSER_CURSOR"
    },
    {
     "enum_field_value" : 65536,
     "name" : "android::hardware::graphics::common::V1_0::BufferUsage::VIDEO_ENCODER"
    },
    {
     "enum_field_value" : 131072,
     "name" : "android::hardware::graphics::common::V1_0::BufferUsage::CAMERA_OUTPUT"
    },
    {
     "enum_field_value" : 262144,
     "name" : "android::hardware::graphics::common::V1_0::BufferUsage::CAMERA_INPUT"
    },
    {
     "enum_field_value" : 1048576,
     "name" : "android::hardware::graphics::common::V1_0::BufferUsage::RENDERSCRIPT"
    },
    {
     "enum_field_value" : 4194304,
     "name" : "android::hardware::graphics::common::V1_0::BufferUsage::VIDEO_DECODER"
    },
    {
     "enum_field_value" : 8388608,
     "name" : "android::hardware::graphics::common::V1_0::BufferUsage::SENSOR_DIRECT_DATA"
    },
    {
     "enum_field_value" : 16777216,
     "name" : "android::hardware::graphics::common::V1_0::BufferUsage::GPU_DATA_BUFFER"
    },
    {
     "enum_field_value" : -268435456,
     "name" : "android::hardware::graphics::common::V1_0::BufferUsage::VENDOR_MASK"
    },
    {
     "enum_field_value" : 0,
     "name" : "android::hardware::graphics::common::V1_0::BufferUsage::VENDOR_MASK_HI"
    }
   ],
   "linker_set_key" : "_ZTIN7android8hardware8graphics6common4V1_011BufferUsageE",
   "name" : "android::hardware::graphics::common::V1_0::BufferUsage",
   "referenced_type" : "_ZTIN7android8hardware8graphics6common4V1_011BufferUsageE",
   "self_type" : "_ZTIN7android8hardware8graphics6common4V1_011BufferUsageE",
   "size" : 8,
   "source_file" : "/out/soong/.intermediates/hardware/interfaces/graphics/common/1.0/android.hardware.graphics.common@1.0_genc++_headers/gen/android/hardware/graphics/common/1.0/types.h",
   "underlying_type" : "_ZTIy"
  },
  {
   "alignment" : 4,
   "enum_fields" :
   [
    {
     "enum_field_value" : 1,
     "name" : "android::hardware::graphics::common::V1_0::PixelFormat::RGBA_8888"
    },
    {
     "enum_field_value" : 2,
     "name" : "android::hardware::graphics::common::V1_0::PixelFormat::RGBX_8888"
    },
    {
     "enum_field_value" : 3,
     "name" : "android::hardware::graphics::common::V1_0::PixelFormat::RGB_888"
    },
    {
     "enum_field_value" : 4,
     "name" : "android::hardware::graphics::common::V1_0::PixelFormat::RGB_565"
    },
    {
     "enum_field_value" : 5,
     "name" : "android::hardware::graphics::common::V1_0::PixelFormat::BGRA_8888"
    },
    {
     "enum_field_value" : 16,
     "name" : "android::hardware::graphics::common::V1_0::PixelFormat::YCBCR_422_SP"
    },
    {
     "enum_field_value" : 17,
     "name" : "android::hardware::graphics::common::V1_0::PixelFormat::YCRCB_420_SP"
    },
    {
     "enum_field_value" : 20,
     "name" : "android::hardware::graphics::common::V1_0::PixelFormat::YCBCR_422_I"
    },
    {
     "enum_field_value" : 22,
     "name" : "android::hardware::graphics::common::V1_0::PixelFormat::RGBA_FP16"
    },
    {
     "enum_field_value" : 32,
     "name" : "android::hardware::graphics::common::V1_0::PixelFormat::RAW16"
    },
    {
     "enum_field_value" : 33,
     "name" : "android::hardware::graphics::common::V1_0::PixelFormat::BLOB"
    },
    {
     "enum_field_value" : 34,
     "name" : "android::hardware::graphics::common::V1_0::PixelFormat::IMPLEMENTATION_DEFINED"
    },
    {
     "enum_field_value" : 35,
     "name" : "android::hardware::graphics::common::V1_0::PixelFormat::YCBCR_420_888"
    },
    {
     "enum_field_value" : 36,
     "name" : "android::hardware::graphics::common::V1_0::PixelFormat::RAW_OPAQUE"
    },
    {
     "enum_field_value" : 37,
     "name" : "android::hardware::graphics::common::V1_0::PixelFormat::RAW10"
    },
    {
     "enum_field_value" : 38,
     "name" : "android::hardware::graphics::common::V1_0::PixelFormat::RAW12"
    },
    {
     "enum_field_value" : 43,
     "name" : "android::hardware::graphics::common::V1_0::PixelFormat::RGBA_1010102"
    },
    {
     "enum_field_value" : 538982489,
     "name" : "android::hardware::graphics::common::V1_0::PixelFormat::Y8"
    },
    {
     "enum_field_value" : 540422489,
     "name" : "android::hardware::graphics::common::V1_0::PixelFormat::Y16"
    },
    {
     "enum_field_value" : 842094169,
     "name" : "android::hardware::graphics::common::V1_0::PixelFormat::YV12"
    }
   ],
   "linker_set_key" : "_ZTIN7android8hardware8graphics6common4V1_011PixelFormatE",
   "name" : "android::hardware::graphics::common::V1_0::PixelFormat",
   "referenced_type" : "_ZTIN7android8hardware8graphics6common4V1_011PixelFormatE",
   "self_type" : "_ZTIN7android8hardware8graphics6common4V1_011PixelFormatE",
   "size" : 4,
   "source_file" : "/out/soong/.intermediates/hardware/interfaces/graphics/common/1.0/android.hardware.graphics.common@1.0_genc++_headers/gen/android/hardware/graphics/common/1.0/types.h",
   "underlying_type" : "_ZTIi"
  },
  {
   "alignment" : 4,
   "enum_fields" :
   [
    {
     "enum_field_value" : 0,
     "name" : "android::hardware::graphics::common::V1_0::ColorTransform::IDENTITY"
    },
    {
     "enum_field_value" : 1,
     "name" : "android::hardware::graphics::common::V1_0::ColorTransform::ARBITRARY_MATRIX"
    },
    {
     "enum_field_value" : 2,
     "name" : "android::hardware::graphics::common::V1_0::ColorTransform::VALUE_INVERSE"
    },
    {
     "enum_field_value" : 3,
     "name" : "android::hardware::graphics::common::V1_0::ColorTransform::GRAYSCALE"
    },
    {
     "enum_field_value" : 4,
     "name" : "android::hardware::graphics::common::V1_0::ColorTransform::CORRECT_PROTANOPIA"
    },
    {
     "enum_field_value" : 5,
     "name" : "android::hardware::graphics::common::V1_0::ColorTransform::CORRECT_DEUTERANOPIA"
    },
    {
     "enum_field_value" : 6,
     "name" : "android::hardware::graphics::common::V1_0::ColorTransform::CORRECT_TRITANOPIA"
    }
   ],
   "linker_set_key" : "_ZTIN7android8hardware8graphics6common4V1_014ColorTransformE",
   "name" : "android::hardware::graphics::common::V1_0::ColorTransform",
   "referenced_type" : "_ZTIN7android8hardware8graphics6common4V1_014ColorTransformE",
   "self_type" : "_ZTIN7android8hardware8graphics6common4V1_014ColorTransformE",
   "size" : 4,
   "source_file" : "/out/soong/.intermediates/hardware/interfaces/graphics/common/1.0/android.hardware.graphics.common@1.0_genc++_headers/gen/android/hardware/graphics/common/1.0/types.h",
   "underlying_type" : "_ZTIi"
  },
  {
   "alignment" : 4,
   "enum_fields" :
   [
    {
     "enum_field_value" : 1,
     "name" : "android::hardware::graphics::common::V1_0::Hdr::DOLBY_VISION"
    },
    {
     "enum_field_value" : 2,
     "name" : "android::hardware::graphics::common::V1_0::Hdr::HDR10"
    },
    {
     "enum_field_value" : 3,
     "name" : "android::hardware::graphics::common::V1_0::Hdr::HLG"
    }
   ],
   "linker_set_key" : "_ZTIN7android8hardware8graphics6common4V1_03HdrE",
   "name" : "android::hardware::graphics::common::V1_0::Hdr",
   "referenced_type" : "_ZTIN7android8hardware8graphics6common4V1_03HdrE",
   "self_type" : "_ZTIN7android8hardware8graphics6common4V1_03HdrE",
   "size" : 4,
   "source_file" : "/out/soong/.intermediates/hardware/interfaces/graphics/common/1.0/android.hardware.graphics.common@1.0_genc++_headers/gen/android/hardware/graphics/common/1.0/types.h",
   "underlying_type" : "_ZTIi"
  },
  {
   "alignment" : 4,
   "enum_fields" :
   [
    {
     "enum_field_value" : 0,
     "name" : "android::hardware::graphics::common::V1_0::ColorMode::NATIVE"
    },
    {
     "enum_field_value" : 1,
     "name" : "android::hardware::graphics::common::V1_0::ColorMode::STANDARD_BT601_625"
    },
    {
     "enum_field_value" : 2,
     "name" : "android::hardware::graphics::common::V1_0::ColorMode::STANDARD_BT601_625_UNADJUSTED"
    },
    {
     "enum_field_value" : 3,
     "name" : "android::hardware::graphics::common::V1_0::ColorMode::STANDARD_BT601_525"
    },
    {
     "enum_field_value" : 4,
     "name" : "android::hardware::graphics::common::V1_0::ColorMode::STANDARD_BT601_525_UNADJUSTED"
    },
    {
     "enum_field_value" : 5,
     "name" : "android::hardware::graphics::common::V1_0::ColorMode::STANDARD_BT709"
    },
    {
     "enum_field_value" : 6,
     "name" : "android::hardware::graphics::common::V1_0::ColorMode::DCI_P3"
    },
    {
     "enum_field_value" : 7,
     "name" : "android::hardware::graphics::common::V1_0::ColorMode::SRGB"
    },
    {
     "enum_field_value" : 8,
     "name" : "android::hardware::graphics::common::V1_0::ColorMode::ADOBE_RGB"
    },
    {
     "enum_field_value" : 9,
     "name" : "android::hardware::graphics::common::V1_0::ColorMode::DISPLAY_P3"
    }
   ],
   "linker_set_key" : "_ZTIN7android8hardware8graphics6common4V1_09ColorModeE",
   "name" : "android::hardware::graphics::common::V1_0::ColorMode",
   "referenced_type" : "_ZTIN7android8hardware8graphics6common4V1_09ColorModeE",
   "self_type" : "_ZTIN7android8hardware8graphics6common4V1_09ColorModeE",
   "size" : 4,
   "source_file" : "/out/soong/.intermediates/hardware/interfaces/graphics/common/1.0/android.hardware.graphics.common@1.0_genc++_headers/gen/android/hardware/graphics/common/1.0/types.h",
   "underlying_type" : "_ZTIi"
  },
  {
   "alignment" : 4,
   "enum_fields" :
   [
    {
     "enum_field_value" : 0,
     "name" : "android::hardware::graphics::common::V1_0::Dataspace::UNKNOWN"
    },
    {
     "enum_field_value" : 1,
     "name" : "android::hardware::graphics::common::V1_0::Dataspace::ARBITRARY"
    },
    {
     "enum_field_value" : 16,
     "name" : "android::hardware::graphics::common::V1_0::Dataspace::STANDARD_SHIFT"
    },
    {
     "enum_field_value" : 4128768,
     "name" : "android::hardware::graphics::common::V1_0::Dataspace::STANDARD_MASK"
    },
    {
     "enum_field_value" : 0,
     "name" : "android::hardware::graphics::common::V1_0::Dataspace::STANDARD_UNSPECIFIED"
    },
    {
     "enum_field_value" : 65536,
     "name" : "android::hardware::graphics::common::V1_0::Dataspace::STANDARD_BT709"
    },
    {
     "enum_field_value" : 131072,
     "name" : "android::hardware::graphics::common::V1_0::Dataspace::STANDARD_BT601_625"
    },
    {
     "enum_field_value" : 196608,
     "name" : "android::hardware::graphics::common::V1_0::Dataspace::STANDARD_BT601_625_UNADJUSTED"
    },
    {
     "enum_field_value" : 262144,
     "name" : "android::hardware::graphics::common::V1_0::Dataspace::STANDARD_BT601_525"
    },
    {
     "enum_field_value" : 327680,
     "name" : "android::hardware::graphics::common::V1_0::Dataspace::STANDARD_BT601_525_UNADJUSTED"
    },
    {
     "enum_field_value" : 393216,
     "name" : "android::hardware::graphics::common::V1_0::Dataspace::STANDARD_BT2020"
    },
    {
     "enum_field_value" : 458752,
     "name" : "android::hardware::graphics::common::V1_0::Dataspace::STANDARD_BT2020_CONSTANT_LUMINANCE"
    },
    {
     "enum_field_value" : 524288,
     "name" : "android::hardware::graphics::common::V1_0::Dataspace::STANDARD_BT470M"
    },
    {
     "enum_field_value" : 589824,
     "name" : "android::hardware::graphics::common::V1_0::Dataspace::STANDARD_FILM"
    },
    {
     "enum_field_value" : 655360,
     "name" : "android::hardware::graphics::common::V1_0::Dataspace::STANDARD_DCI_P3"
    },
    {
     "enum_field_value" : 720896,
     "name" : "android::hardware::graphics::common::V1_0::Dataspace::STANDARD_ADOBE_RGB"
    },
    {
     "enum_field_value" : 22,
     "name" : "android::hardware::graphics::common::V1_0::Dataspace::TRANSFER_SHIFT"
    },
    {
     "enum_field_value" : 130023424,
     "name" : "android::hardware::graphics::common::V1_0::Dataspace::TRANSFER_MASK"
    },
    {
     "enum_field_value" : 0,
     "name" : "android::hardware::graphics::common::V1_0::Dataspace::TRANSFER_UNSPECIFIED"
    },
    {
     "enum_field_value" : 4194304,
     "name" : "android::hardware::graphics::common::V1_0::Dataspace::TRANSFER_LINEAR"
    },
    {
     "enum_field_value" : 8388608,
     "name" : "android::hardware::graphics::common::V1_0::Dataspace::TRANSFER_SRGB"
    },
    {
     "enum_field_value" : 12582912,
     "name" : "android::hardware::graphics::common::V1_0::Dataspace::TRANSFER_SMPTE_170M"
    },
    {
     "enum_field_value" : 16777216,
     "name" : "android::hardware::graphics::common::V1_0::Dataspace::TRANSFER_GAMMA2_2"
    },
    {
     "enum_field_value" : 20971520,
     "name" : "android::hardware::graphics::common::V1_0::Dataspace::TRANSFER_GAMMA2_6"
    },
    {
     "enum_field_value" : 25165824,
     "name" : "android::hardware::graphics::common::V1_0::Dataspace::TRANSFER_GAMMA2_8"
    },
    {
     "enum_field_value" : 29360128,
     "name" : "android::hardware::graphics::common::V1_0::Dataspace::TRANSFER_ST2084"
    },
    {
     "enum_field_value" : 33554432,
     "name" : "android::hardware::graphics::common::V1_0::Dataspace::TRANSFER_HLG"
    },
    {
     "enum_field_value" : 27,
     "name" : "android::hardware::graphics::common::V1_0::Dataspace::RANGE_SHIFT"
    },
    {
     "enum_field_value" : 939524096,
     "name" : "android::hardware::graphics::common::V1_0::Dataspace::RANGE_MASK"
    },
    {
     "enum_field_value" : 0,
     "name" : "android::hardware::graphics::common::V1_0::Dataspace::RANGE_UNSPECIFIED"
    },
    {
     "enum_field_value" : 134217728,
     "name" : "android::hardware::graphics::common::V1_0::Dataspace::RANGE_FULL"
    },
    {
     "enum_field_value" : 268435456,
     "name" : "android::hardware::graphics::common::V1_0::Dataspace::RANGE_LIMITED"
    },
    {
     "enum_field_value" : 402653184,
     "name" : "android::hardware::graphics::common::V1_0::Dataspace::RANGE_EXTENDED"
    },
    {
     "enum_field_value" : 512,
     "name" : "android::hardware::graphics::common::V1_0::Dataspace::SRGB_LINEAR"
    },
    {
     "enum_field_value" : 138477568,
     "name" : "android::hardware::graphics::common::V1_0::Dataspace::V0_SRGB_LINEAR"
    },
    {
     "enum_field_value" : 406913024,
     "name" : "android::hardware::graphics::common::V1_0::Dataspace::V0_SCRGB_LINEAR"
    },
    {
     "enum_field_value" : 513,
     "name" : "android::hardware::graphics::common::V1_0::Dataspace::SRGB"
    },
    {
     "enum_field_value" : 142671872,
     "name" : "android::hardware::graphics::common::V1_0::Dataspace::V0_SRGB"
    },
    {
     "enum_field_value" : 411107328,
     "name" : "android::hardware::graphics::common::V1_0::Dataspace::V0_SCRGB"
    },
    {
     "enum_field_value" : 257,
     "name" : "android::hardware::graphics::common::V1_0::Dataspace::JFIF"
    },
    {
     "enum_field_value" : 146931712,
     "name" : "android::hardware::graphics::common::V1_0::Dataspace::V0_JFIF"
    },
    {
     "enum_field_value" : 258,
     "name" : "android::hardware::graphics::common::V1_0::Dataspace::BT601_625"
    },
    {
     "enum_field_value" : 281149440,
     "name" : "android::hardware::graphics::common::V1_0::Dataspace::V0_BT601_625"
    },
    {
     "enum_field_value" : 259,
     "name" : "android::hardware::graphics::common::V1_0::Dataspace::BT601_525"
    },
    {
     "enum_field_value" : 281280512,
     "name" : "android::hardware::graphics::common::V1_0::Dataspace::V0_BT601_525"
    },
    {
     "enum_field_value" : 260,
     "name" : "android::hardware::graphics::common::V1_0::Dataspace::BT709"
    },
    {
     "enum_field_value" : 281083904,
     "name" : "android::hardware::graphics::common::V1_0::Dataspace::V0_BT709"
    },
    {
     "enum_field_value" : 139067392,
     "name" : "android::hardware::graphics::common::V1_0::Dataspace::DCI_P3_LINEAR"
    },
    {
     "enum_field_value" : 155844608,
     "name" : "android::hardware::graphics::common::V1_0::Dataspace::DCI_P3"
    },
    {
     "enum_field_value" : 139067392,
     "name" : "android::hardware::graphics::common::V1_0::Dataspace::DISPLAY_P3_LINEAR"
    },
    {
     "enum_field_value" : 143261696,
     "name" : "android::hardware::graphics::common::V1_0::Dataspace::DISPLAY_P3"
    },
    {
     "enum_field_value" : 151715840,
     "name" : "android::hardware::graphics::common::V1_0::Dataspace::ADOBE_RGB"
    },
    {
     "enum_field_value" : 138805248,
     "name" : "android::hardware::graphics::common::V1_0::Dataspace::BT2020_LINEAR"
    },
    {
     "enum_field_value" : 147193856,
     "name" : "android::hardware::graphics::common::V1_0::Dataspace::BT2020"
    },
    {
     "enum_field_value" : 163971072,
     "name" : "android::hardware::graphics::common::V1_0::Dataspace::BT2020_PQ"
    },
    {
     "enum_field_value" : 4096,
     "name" : "android::hardware::graphics::common::V1_0::Dataspace::DEPTH"
    },
    {
     "enum_field_value" : 4097,
     "name" : "android::hardware::graphics::common::V1_0::Dataspace::SENSOR"
    }
   ],
   "linker_set_key" : "_ZTIN7android8hardware8graphics6common4V1_09DataspaceE",
   "name" : "android::hardware::graphics::common::V1_0::Dataspace",
   "referenced_type" : "_ZTIN7android8hardware8graphics6common4V1_09DataspaceE",
   "self_type" : "_ZTIN7android8hardware8graphics6common4V1_09DataspaceE",
   "size" : 4,
   "source_file" : "/out/soong/.intermediates/hardware/interfaces/graphics/common/1.0/android.hardware.graphics.common@1.0_genc++_headers/gen/android/hardware/graphics/common/1.0/types.h",
   "underlying_type" : "_ZTIi"
  },
  {
   "alignment" : 4,
   "enum_fields" :
   [
    {
     "enum_field_value" : 1,
     "name" : "android::hardware::graphics::common::V1_0::Transform::FLIP_H"
    },
    {
     "enum_field_value" : 2,
     "name" : "android::hardware::graphics::common::V1_0::Transform::FLIP_V"
    },
    {
     "enum_field_value" : 4,
     "name" : "android::hardware::graphics::common::V1_0::Transform::ROT_90"
    },
    {
     "enum_field_value" : 3,
     "name" : "android::hardware::graphics::common::V1_0::Transform::ROT_180"
    },
    {
     "enum_field_value" : 7,
     "name" : "android::hardware::graphics::common::V1_0::Transform::ROT_270"
    }
   ],
   "linker_set_key" : "_ZTIN7android8hardware8graphics6common4V1_09TransformE",
   "name" : "android::hardware::graphics::common::V1_0::Transform",
   "referenced_type" : "_ZTIN7android8hardware8graphics6common4V1_09TransformE",
   "self_type" : "_ZTIN7android8hardware8graphics6common4V1_09TransformE",
   "size" : 4,
   "source_file" : "/out/soong/.intermediates/hardware/interfaces/graphics/common/1.0/android.hardware.graphics.common@1.0_genc++_headers/gen/android/hardware/graphics/common/1.0/types.h",
   "underlying_type" : "_ZTIi"
  },
  {
   "alignment" : 8,
   "enum_fields" :
   [
    {
     "enum_field_value" : 15,
     "name" : "android::hardware::graphics::common::V1_1::BufferUsage::CPU_READ_MASK"
    },
    {
     "enum_field_value" : 0,
     "name" : "android::hardware::graphics::common::V1_1::BufferUsage::CPU_READ_NEVER"
    },
    {
     "enum_field_value" : 2,
     "name" : "android::hardware::graphics::common::V1_1::BufferUsage::CPU_READ_RARELY"
    },
    {
     "enum_field_value" : 3,
     "name" : "android::hardware::graphics::common::V1_1::BufferUsage::CPU_READ_OFTEN"
    },
    {
     "enum_field_value" : 240,
     "name" : "android::hardware::graphics::common::V1_1::BufferUsage::CPU_WRITE_MASK"
    },
    {
     "enum_field_value" : 0,
     "name" : "android::hardware::graphics::common::V1_1::BufferUsage::CPU_WRITE_NEVER"
    },
    {
     "enum_field_value" : 32,
     "name" : "android::hardware::graphics::common::V1_1::BufferUsage::CPU_WRITE_RARELY"
    },
    {
     "enum_field_value" : 48,
     "name" : "android::hardware::graphics::common::V1_1::BufferUsage::CPU_WRITE_OFTEN"
    },
    {
     "enum_field_value" : 256,
     "name" : "android::hardware::graphics::common::V1_1::BufferUsage::GPU_TEXTURE"
    },
    {
     "enum_field_value" : 512,
     "name" : "android::hardware::graphics::common::V1_1::BufferUsage::GPU_RENDER_TARGET"
    },
    {
     "enum_field_value" : 2048,
     "name" : "android::hardware::graphics::common::V1_1::BufferUsage::COMPOSER_OVERLAY"
    },
    {
     "enum_field_value" : 4096,
     "name" : "android::hardware::graphics::common::V1_1::BufferUsage::COMPOSER_CLIENT_TARGET"
    },
    {
     "enum_field_value" : 16384,
     "name" : "android::hardware::graphics::common::V1_1::BufferUsage::PROTECTED"
    },
    {
     "enum_field_value" : 32768,
     "name" : "android::hardware::graphics::common::V1_1::BufferUsage::COMPOSER_CURSOR"
    },
    {
     "enum_field_value" : 65536,
     "name" : "android::hardware::graphics::common::V1_1::BufferUsage::VIDEO_ENCODER"
    },
    {
     "enum_field_value" : 131072,
     "name" : "android::hardware::graphics::common::V1_1::BufferUsage::CAMERA_OUTPUT"
    },
    {
     "enum_field_value" : 262144,
     "name" : "android::hardware::graphics::common::V1_1::BufferUsage::CAMERA_INPUT"
    },
    {
     "enum_field_value" : 1048576,
     "name" : "android::hardware::graphics::common::V1_1::BufferUsage::RENDERSCRIPT"
    },
    {
     "enum_field_value" : 4194304,
     "name" : "android::hardware::graphics::common::V1_1::BufferUsage::VIDEO_DECODER"
    },
    {
     "enum_field_value" : 8388608,
     "name" : "android::hardware::graphics::common::V1_1::BufferUsage::SENSOR_DIRECT_DATA"
    },
    {
     "enum_field_value" : 16777216,
     "name" : "android::hardware::graphics::common::V1_1::BufferUsage::GPU_DATA_BUFFER"
    },
    {
     "enum_field_value" : -268435456,
     "name" : "android::hardware::graphics::common::V1_1::BufferUsage::VENDOR_MASK"
    },
    {
     "enum_field_value" : 0,
     "name" : "android::hardware::graphics::common::V1_1::BufferUsage::VENDOR_MASK_HI"
    },
    {
     "enum_field_value" : 33554432,
     "name" : "android::hardware::graphics::common::V1_1::BufferUsage::GPU_CUBE_MAP"
    },
    {
     "enum_field_value" : 67108864,
     "name" : "android::hardware::graphics::common::V1_1::BufferUsage::GPU_MIPMAP_COMPLETE"
    }
   ],
   "linker_set_key" : "_ZTIN7android8hardware8graphics6common4V1_111BufferUsageE",
   "name" : "android::hardware::graphics::common::V1_1::BufferUsage",
   "referenced_type" : "_ZTIN7android8hardware8graphics6common4V1_111BufferUsageE",
   "self_type" : "_ZTIN7android8hardware8graphics6common4V1_111BufferUsageE",
   "size" : 8,
   "source_file" : "/out/soong/.intermediates/hardware/interfaces/graphics/common/1.1/android.hardware.graphics.common@1.1_genc++_headers/gen/android/hardware/graphics/common/1.1/types.h",
   "underlying_type" : "_ZTIy"
  },
  {
   "alignment" : 4,
   "enum_fields" :
   [
    {
     "enum_field_value" : 1,
     "name" : "android::hardware::graphics::common::V1_1::PixelFormat::RGBA_8888"
    },
    {
     "enum_field_value" : 2,
     "name" : "android::hardware::graphics::common::V1_1::PixelFormat::RGBX_8888"
    },
    {
     "enum_field_value" : 3,
     "name" : "android::hardware::graphics::common::V1_1::PixelFormat::RGB_888"
    },
    {
     "enum_field_value" : 4,
     "name" : "android::hardware::graphics::common::V1_1::PixelFormat::RGB_565"
    },
    {
     "enum_field_value" : 5,
     "name" : "android::hardware::graphics::common::V1_1::PixelFormat::BGRA_8888"
    },
    {
     "enum_field_value" : 16,
     "name" : "android::hardware::graphics::common::V1_1::PixelFormat::YCBCR_422_SP"
    },
    {
     "enum_field_value" : 17,
     "name" : "android::hardware::graphics::common::V1_1::PixelFormat::YCRCB_420_SP"
    },
    {
     "enum_field_value" : 20,
     "name" : "android::hardware::graphics::common::V1_1::PixelFormat::YCBCR_422_I"
    },
    {
     "enum_field_value" : 22,
     "name" : "android::hardware::graphics::common::V1_1::PixelFormat::RGBA_FP16"
    },
    {
     "enum_field_value" : 32,
     "name" : "android::hardware::graphics::common::V1_1::PixelFormat::RAW16"
    },
    {
     "enum_field_value" : 33,
     "name" : "android::hardware::graphics::common::V1_1::PixelFormat::BLOB"
    },
    {
     "enum_field_value" : 34,
     "name" : "android::hardware::graphics::common::V1_1::PixelFormat::IMPLEMENTATION_DEFINED"
    },
    {
     "enum_field_value" : 35,
     "name" : "android::hardware::graphics::common::V1_1::PixelFormat::YCBCR_420_888"
    },
    {
     "enum_field_value" : 36,
     "name" : "android::hardware::graphics::common::V1_1::PixelFormat::RAW_OPAQUE"
    },
    {
     "enum_field_value" : 37,
     "name" : "android::hardware::graphics::common::V1_1::PixelFormat::RAW10"
    },
    {
     "enum_field_value" : 38,
     "name" : "android::hardware::graphics::common::V1_1::PixelFormat::RAW12"
    },
    {
     "enum_field_value" : 43,
     "name" : "android::hardware::graphics::common::V1_1::PixelFormat::RGBA_1010102"
    },
    {
     "enum_field_value" : 538982489,
     "name" : "android::hardware::graphics::common::V1_1::PixelFormat::Y8"
    },
    {
     "enum_field_value" : 540422489,
     "name" : "android::hardware::graphics::common::V1_1::PixelFormat::Y16"
    },
    {
     "enum_field_value" : 842094169,
     "name" : "android::hardware::graphics::common::V1_1::PixelFormat::YV12"
    },
    {
     "enum_field_value" : 48,
     "name" : "android::hardware::graphics::common::V1_1::PixelFormat::DEPTH_16"
    },
    {
     "enum_field_value" : 49,
     "name" : "android::hardware::graphics::common::V1_1::PixelFormat::DEPTH_24"
    },
    {
     "enum_field_value" : 50,
     "name" : "android::hardware::graphics::common::V1_1::PixelFormat::DEPTH_24_STENCIL_8"
    },
    {
     "enum_field_value" : 51,
     "name" : "android::hardware::graphics::common::V1_1::PixelFormat::DEPTH_32F"
    },
    {
     "enum_field_value" : 52,
     "name" : "android::hardware::graphics::common::V1_1::PixelFormat::DEPTH_32F_STENCIL_8"
    },
    {
     "enum_field_value" : 53,
     "name" : "android::hardware::graphics::common::V1_1::PixelFormat::STENCIL_8"
    },
    {
     "enum_field_value" : 54,
     "name" : "android::hardware::graphics::common::V1_1::PixelFormat::YCBCR_P010"
    }
   ],
   "linker_set_key" : "_ZTIN7android8hardware8graphics6common4V1_111PixelFormatE",
   "name" : "android::hardware::graphics::common::V1_1::PixelFormat",
   "referenced_type" : "_ZTIN7android8hardware8graphics6common4V1_111PixelFormatE",
   "self_type" : "_ZTIN7android8hardware8graphics6common4V1_111PixelFormatE",
   "size" : 4,
   "source_file" : "/out/soong/.intermediates/hardware/interfaces/graphics/common/1.1/android.hardware.graphics.common@1.1_genc++_headers/gen/android/hardware/graphics/common/1.1/types.h",
   "underlying_type" : "_ZTIi"
  },
  {
   "alignment" : 4,
   "enum_fields" :
   [
    {
     "enum_field_value" : 0,
     "name" : "android::hardware::graphics::common::V1_1::RenderIntent::COLORIMETRIC"
    },
    {
     "enum_field_value" : 1,
     "name" : "android::hardware::graphics::common::V1_1::RenderIntent::ENHANCE"
    },
    {
     "enum_field_value" : 2,
     "name" : "android::hardware::graphics::common::V1_1::RenderIntent::TONE_MAP_COLORIMETRIC"
    },
    {
     "enum_field_value" : 3,
     "name" : "android::hardware::graphics::common::V1_1::RenderIntent::TONE_MAP_ENHANCE"
    }
   ],
   "linker_set_key" : "_ZTIN7android8hardware8graphics6common4V1_112RenderIntentE",
   "name" : "android::hardware::graphics::common::V1_1::RenderIntent",
   "referenced_type" : "_ZTIN7android8hardware8graphics6common4V1_112RenderIntentE",
   "self_type" : "_ZTIN7android8hardware8graphics6common4V1_112RenderIntentE",
   "size" : 4,
   "source_file" : "/out/soong/.intermediates/hardware/interfaces/graphics/common/1.1/android.hardware.graphics.common@1.1_genc++_headers/gen/android/hardware/graphics/common/1.1/types.h",
   "underlying_type" : "_ZTIi"
  },
  {
   "alignment" : 4,
   "enum_fields" :
   [
    {
     "enum_field_value" : 0,
     "name" : "android::hardware::graphics::common::V1_1::ColorMode::NATIVE"
    },
    {
     "enum_field_value" : 1,
     "name" : "android::hardware::graphics::common::V1_1::ColorMode::STANDARD_BT601_625"
    },
    {
     "enum_field_value" : 2,
     "name" : "android::hardware::graphics::common::V1_1::ColorMode::STANDARD_BT601_625_UNADJUSTED"
    },
    {
     "enum_field_value" : 3,
     "name" : "android::hardware::graphics::common::V1_1::ColorMode::STANDARD_BT601_525"
    },
    {
     "enum_field_value" : 4,
     "name" : "android::hardware::graphics::common::V1_1::ColorMode::STANDARD_BT601_525_UNADJUSTED"
    },
    {
     "enum_field_value" : 5,
     "name" : "android::hardware::graphics::common::V1_1::ColorMode::STANDARD_BT709"
    },
    {
     "enum_field_value" : 6,
     "name" : "android::hardware::graphics::common::V1_1::ColorMode::DCI_P3"
    },
    {
     "enum_field_value" : 7,
     "name" : "android::hardware::graphics::common::V1_1::ColorMode::SRGB"
    },
    {
     "enum_field_value" : 8,
     "name" : "android::hardware::graphics::common::V1_1::ColorMode::ADOBE_RGB"
    },
    {
     "enum_field_value" : 9,
     "name" : "android::hardware::graphics::common::V1_1::ColorMode::DISPLAY_P3"
    },
    {
     "enum_field_value" : 10,
     "name" : "android::hardware::graphics::common::V1_1::ColorMode::BT2020"
    },
    {
     "enum_field_value" : 11,
     "name" : "android::hardware::graphics::common::V1_1::ColorMode::BT2100_PQ"
    },
    {
     "enum_field_value" : 12,
     "name" : "android::hardware::graphics::common::V1_1::ColorMode::BT2100_HLG"
    }
   ],
   "linker_set_key" : "_ZTIN7android8hardware8graphics6common4V1_19ColorModeE",
   "name" : "android::hardware::graphics::common::V1_1::ColorMode",
   "referenced_type" : "_ZTIN7android8hardware8graphics6common4V1_19ColorModeE",
   "self_type" : "_ZTIN7android8hardware8graphics6common4V1_19ColorModeE",
   "size" : 4,
   "source_file" : "/out/soong/.intermediates/hardware/interfaces/graphics/common/1.1/android.hardware.graphics.common@1.1_genc++_headers/gen/android/hardware/graphics/common/1.1/types.h",
   "underlying_type" : "_ZTIi"
  },
  {
   "alignment" : 4,
   "enum_fields" :
   [
    {
     "enum_field_value" : 0,
     "name" : "android::hardware::graphics::common::V1_1::Dataspace::UNKNOWN"
    },
    {
     "enum_field_value" : 1,
     "name" : "android::hardware::graphics::common::V1_1::Dataspace::ARBITRARY"
    },
    {
     "enum_field_value" : 16,
     "name" : "android::hardware::graphics::common::V1_1::Dataspace::STANDARD_SHIFT"
    },
    {
     "enum_field_value" : 4128768,
     "name" : "android::hardware::graphics::common::V1_1::Dataspace::STANDARD_MASK"
    },
    {
     "enum_field_value" : 0,
     "name" : "android::hardware::graphics::common::V1_1::Dataspace::STANDARD_UNSPECIFIED"
    },
    {
     "enum_field_value" : 65536,
     "name" : "android::hardware::graphics::common::V1_1::Dataspace::STANDARD_BT709"
    },
    {
     "enum_field_value" : 131072,
     "name" : "android::hardware::graphics::common::V1_1::Dataspace::STANDARD_BT601_625"
    },
    {
     "enum_field_value" : 196608,
     "name" : "android::hardware::graphics::common::V1_1::Dataspace::STANDARD_BT601_625_UNADJUSTED"
    },
    {
     "enum_field_value" : 262144,
     "name" : "android::hardware::graphics::common::V1_1::Dataspace::STANDARD_BT601_525"
    },
    {
     "enum_field_value" : 327680,
     "name" : "android::hardware::graphics::common::V1_1::Dataspace::STANDARD_BT601_525_UNADJUSTED"
    },
    {
     "enum_field_value" : 393216,
     "name" : "android::hardware::graphics::common::V1_1::Dataspace::STANDARD_BT2020"
    },
    {
     "enum_field_value" : 458752,
     "name" : "android::hardware::graphics::common::V1_1::Dataspace::STANDARD_BT2020_CONSTANT_LUMINANCE"
    },
    {
     "enum_field_value" : 524288,
     "name" : "android::hardware::graphics::common::V1_1::Dataspace::STANDARD_BT470M"
    },
    {
     "enum_field_value" : 589824,
     "name" : "android::hardware::graphics::common::V1_1::Dataspace::STANDARD_FILM"
    },
    {
     "enum_field_value" : 655360,
     "name" : "android::hardware::graphics::common::V1_1::Dataspace::STANDARD_DCI_P3"
    },
    {
     "enum_field_value" : 720896,
     "name" : "android::hardware::graphics::common::V1_1::Dataspace::STANDARD_ADOBE_RGB"
    },
    {
     "enum_field_value" : 22,
     "name" : "android::hardware::graphics::common::V1_1::Dataspace::TRANSFER_SHIFT"
    },
    {
     "enum_field_value" : 130023424,
     "name" : "android::hardware::graphics::common::V1_1::Dataspace::TRANSFER_MASK"
    },
    {
     "enum_field_value" : 0,
     "name" : "android::hardware::graphics::common::V1_1::Dataspace::TRANSFER_UNSPECIFIED"
    },
    {
     "enum_field_value" : 4194304,
     "name" : "android::hardware::graphics::common::V1_1::Dataspace::TRANSFER_LINEAR"
    },
    {
     "enum_field_value" : 8388608,
     "name" : "android::hardware::graphics::common::V1_1::Dataspace::TRANSFER_SRGB"
    },
    {
     "enum_field_value" : 12582912,
     "name" : "android::hardware::graphics::common::V1_1::Dataspace::TRANSFER_SMPTE_170M"
    },
    {
     "enum_field_value" : 16777216,
     "name" : "android::hardware::graphics::common::V1_1::Dataspace::TRANSFER_GAMMA2_2"
    },
    {
     "enum_field_value" : 20971520,
     "name" : "android::hardware::graphics::common::V1_1::Dataspace::TRANSFER_GAMMA2_6"
    },
    {
     "enum_field_value" : 25165824,
     "name" : "android::hardware::graphics::common::V1_1::Dataspace::TRANSFER_GAMMA2_8"
    },
    {
     "enum_field_value" : 29360128,
     "name" : "android::hardware::graphics::common::V1_1::Dataspace::TRANSFER_ST2084"
    },
    {
     "enum_field_value" : 33554432,
     "name" : "android::hardware::graphics::common::V1_1::Dataspace::TRANSFER_HLG"
    },
    {
     "enum_field_value" : 27,
     "name" : "android::hardware::graphics::common::V1_1::Dataspace::RANGE_SHIFT"
    },
    {
     "enum_field_value" : 939524096,
     "name" : "android::hardware::graphics::common::V1_1::Dataspace::RANGE_MASK"
    },
    {
     "enum_field_value" : 0,
     "name" : "android::hardware::graphics::common::V1_1::Dataspace::RANGE_UNSPECIFIED"
    },
    {
     "enum_field_value" : 134217728,
     "name" : "android::hardware::graphics::common::V1_1::Dataspace::RANGE_FULL"
    },
    {
     "enum_field_value" : 268435456,
     "name" : "android::hardware::graphics::common::V1_1::Dataspace::RANGE_LIMITED"
    },
    {
     "enum_field_value" : 402653184,
     "name" : "android::hardware::graphics::common::V1_1::Dataspace::RANGE_EXTENDED"
    },
    {
     "enum_field_value" : 512,
     "name" : "android::hardware::graphics::common::V1_1::Dataspace::SRGB_LINEAR"
    },
    {
     "enum_field_value" : 138477568,
     "name" : "android::hardware::graphics::common::V1_1::Dataspace::V0_SRGB_LINEAR"
    },
    {
     "enum_field_value" : 406913024,
     "name" : "android::hardware::graphics::common::V1_1::Dataspace::V0_SCRGB_LINEAR"
    },
    {
     "enum_field_value" : 513,
     "name" : "android::hardware::graphics::common::V1_1::Dataspace::SRGB"
    },
    {
     "enum_field_value" : 142671872,
     "name" : "android::hardware::graphics::common::V1_1::Dataspace::V0_SRGB"
    },
    {
     "enum_field_value" : 411107328,
     "name" : "android::hardware::graphics::common::V1_1::Dataspace::V0_SCRGB"
    },
    {
     "enum_field_value" : 257,
     "name" : "android::hardware::graphics::common::V1_1::Dataspace::JFIF"
    },
    {
     "enum_field_value" : 146931712,
     "name" : "android::hardware::graphics::common::V1_1::Dataspace::V0_JFIF"
    },
    {
     "enum_field_value" : 258,
     "name" : "android::hardware::graphics::common::V1_1::Dataspace::BT601_625"
    },
    {
     "enum_field_value" : 281149440,
     "name" : "android::hardware::graphics::common::V1_1::Dataspace::V0_BT601_625"
    },
    {
     "enum_field_value" : 259,
     "name" : "android::hardware::graphics::common::V1_1::Dataspace::BT601_525"
    },
    {
     "enum_field_value" : 281280512,
     "name" : "android::hardware::graphics::common::V1_1::Dataspace::V0_BT601_525"
    },
    {
     "enum_field_value" : 260,
     "name" : "android::hardware::graphics::common::V1_1::Dataspace::BT709"
    },
    {
     "enum_field_value" : 281083904,
     "name" : "android::hardware::graphics::common::V1_1::Dataspace::V0_BT709"
    },
    {
     "enum_field_value" : 139067392,
     "name" : "android::hardware::graphics::common::V1_1::Dataspace::DCI_P3_LINEAR"
    },
    {
     "enum_field_value" : 155844608,
     "name" : "android::hardware::graphics::common::V1_1::Dataspace::DCI_P3"
    },
    {
     "enum_field_value" : 139067392,
     "name" : "android::hardware::graphics::common::V1_1::Dataspace::DISPLAY_P3_LINEAR"
    },
    {
     "enum_field_value" : 143261696,
     "name" : "android::hardware::graphics::common::V1_1::Dataspace::DISPLAY_P3"
    },
    {
     "enum_field_value" : 151715840,
     "name" : "android::hardware::graphics::common::V1_1::Dataspace::ADOBE_RGB"
    },
    {
     "enum_field_value" : 138805248,
     "name" : "android::hardware::graphics::common::V1_1::Dataspace::BT2020_LINEAR"
    },
    {
     "enum_field_value" : 147193856,
     "name" : "android::hardware::graphics::common::V1_1::Dataspace::BT2020"
    },
    {
     "enum_field_value" : 163971072,
     "name" : "android::hardware::graphics::common::V1_1::Dataspace::BT2020_PQ"
    },
    {
     "enum_field_value" : 4096,
     "name" : "android::hardware::graphics::common::V1_1::Dataspace::DEPTH"
    },
    {
     "enum_field_value" : 4097,
     "name" : "android::hardware::graphics::common::V1_1::Dataspace::SENSOR"
    },
    {
     "enum_field_value" : 281411584,
     "name" : "android::hardware::graphics::common::V1_1::Dataspace::BT2020_ITU"
    },
    {
     "enum_field_value" : 298188800,
     "name" : "android::hardware::graphics::common::V1_1::Dataspace::BT2020_ITU_PQ"
    },
    {
     "enum_field_value" : 302383104,
     "name" : "android::hardware::graphics::common::V1_1::Dataspace::BT2020_ITU_HLG"
    },
    {
     "enum_field_value" : 168165376,
     "name" : "android::hardware::graphics::common::V1_1::Dataspace::BT2020_HLG"
    }
   ],
   "linker_set_key" : "_ZTIN7android8hardware8graphics6common4V1_19DataspaceE",
   "name" : "android::hardware::graphics::common::V1_1::Dataspace",
   "referenced_type" : "_ZTIN7android8hardware8graphics6common4V1_19DataspaceE",
   "self_type" : "_ZTIN7android8hardware8graphics6common4V1_19DataspaceE",
   "size" : 4,
   "source_file" : "/out/soong/.intermediates/hardware/interfaces/graphics/common/1.1/android.hardware.graphics.common@1.1_genc++_headers/gen/android/hardware/graphics/common/1.1/types.h",
   "underlying_type" : "_ZTIi"
  },
  {
   "alignment" : 4,
   "enum_fields" :
   [
    {
     "enum_field_value" : 0,
     "name" : "android::hardware::graphics::composer::V2_1::IComposerClient::Composition::INVALID"
    },
    {
     "enum_field_value" : 1,
     "name" : "android::hardware::graphics::composer::V2_1::IComposerClient::Composition::CLIENT"
    },
    {
     "enum_field_value" : 2,
     "name" : "android::hardware::graphics::composer::V2_1::IComposerClient::Composition::DEVICE"
    },
    {
     "enum_field_value" : 3,
     "name" : "android::hardware::graphics::composer::V2_1::IComposerClient::Composition::SOLID_COLOR"
    },
    {
     "enum_field_value" : 4,
     "name" : "android::hardware::graphics::composer::V2_1::IComposerClient::Composition::CURSOR"
    },
    {
     "enum_field_value" : 5,
     "name" : "android::hardware::graphics::composer::V2_1::IComposerClient::Composition::SIDEBAND"
    }
   ],
   "linker_set_key" : "_ZTIN7android8hardware8graphics8composer4V2_115IComposerClient11CompositionE",
   "name" : "android::hardware::graphics::composer::V2_1::IComposerClient::Composition",
   "referenced_type" : "_ZTIN7android8hardware8graphics8composer4V2_115IComposerClient11CompositionE",
   "self_type" : "_ZTIN7android8hardware8graphics8composer4V2_115IComposerClient11CompositionE",
   "size" : 4,
   "source_file" : "/out/soong/.intermediates/hardware/interfaces/graphics/composer/2.1/android.hardware.graphics.composer@2.1_genc++_headers/gen/android/hardware/graphics/composer/2.1/IComposerClient.h",
   "underlying_type" : "_ZTIi"
  },
  {
   "alignment" : 4,
   "enum_fields" :
   [
    {
     "enum_field_value" : 0,
     "name" : "android::hardware::graphics::composer::V2_1::IComposerClient::DisplayType::INVALID"
    },
    {
     "enum_field_value" : 1,
     "name" : "android::hardware::graphics::composer::V2_1::IComposerClient::DisplayType::PHYSICAL"
    },
    {
     "enum_field_value" : 2,
     "name" : "android::hardware::graphics::composer::V2_1::IComposerClient::DisplayType::VIRTUAL"
    }
   ],
   "linker_set_key" : "_ZTIN7android8hardware8graphics8composer4V2_115IComposerClient11DisplayTypeE",
   "name" : "android::hardware::graphics::composer::V2_1::IComposerClient::DisplayType",
   "referenced_type" : "_ZTIN7android8hardware8graphics8composer4V2_115IComposerClient11DisplayTypeE",
   "self_type" : "_ZTIN7android8hardware8graphics8composer4V2_115IComposerClient11DisplayTypeE",
   "size" : 4,
   "source_file" : "/out/soong/.intermediates/hardware/interfaces/graphics/composer/2.1/android.hardware.graphics.composer@2.1_genc++_headers/gen/android/hardware/graphics/composer/2.1/IComposerClient.h",
   "underlying_type" : "_ZTIi"
  },
  {
   "alignment" : 4,
   "enum_fields" :
   [
    {
     "enum_field_value" : -1,
     "name" : "android::hardware::graphics::composer::V2_1::IComposerClient::HandleIndex::EMPTY"
    },
    {
     "enum_field_value" : -2,
     "name" : "android::hardware::graphics::composer::V2_1::IComposerClient::HandleIndex::CACHED"
    }
   ],
   "linker_set_key" : "_ZTIN7android8hardware8graphics8composer4V2_115IComposerClient11HandleIndexE",
   "name" : "android::hardware::graphics::composer::V2_1::IComposerClient::HandleIndex",
   "referenced_type" : "_ZTIN7android8hardware8graphics8composer4V2_115IComposerClient11HandleIndexE",
   "self_type" : "_ZTIN7android8hardware8graphics8composer4V2_115IComposerClient11HandleIndexE",
   "size" : 4,
   "source_file" : "/out/soong/.intermediates/hardware/interfaces/graphics/composer/2.1/android.hardware.graphics.composer@2.1_genc++_headers/gen/android/hardware/graphics/composer/2.1/IComposerClient.h",
   "underlying_type" : "_ZTIi"
  },
  {
   "alignment" : 4,
   "enum_fields" :
   [
    {
     "enum_field_value" : 1,
     "name" : "android::hardware::graphics::composer::V2_1::IComposerClient::LayerRequest::CLEAR_CLIENT_TARGET"
    }
   ],
   "linker_set_key" : "_ZTIN7android8hardware8graphics8composer4V2_115IComposerClient12LayerRequestE",
   "name" : "android::hardware::graphics::composer::V2_1::IComposerClient::LayerRequest",
   "referenced_type" : "_ZTIN7android8hardware8graphics8composer4V2_115IComposerClient12LayerRequestE",
   "self_type" : "_ZTIN7android8hardware8graphics8composer4V2_115IComposerClient12LayerRequestE",
   "size" : 4,
   "source_file" : "/out/soong/.intermediates/hardware/interfaces/graphics/composer/2.1/android.hardware.graphics.composer@2.1_genc++_headers/gen/android/hardware/graphics/composer/2.1/IComposerClient.h",
   "underlying_type" : "_ZTIj"
  },
  {
   "alignment" : 4,
   "enum_fields" :
   [
    {
     "enum_field_value" : 1,
     "name" : "android::hardware::graphics::composer::V2_1::IComposerClient::DisplayRequest::FLIP_CLIENT_TARGET"
    },
    {
     "enum_field_value" : 2,
     "name" : "android::hardware::graphics::composer::V2_1::IComposerClient::DisplayRequest::WRITE_CLIENT_TARGET_TO_OUTPUT"
    }
   ],
   "linker_set_key" : "_ZTIN7android8hardware8graphics8composer4V2_115IComposerClient14DisplayRequestE",
   "name" : "android::hardware::graphics::composer::V2_1::IComposerClient::DisplayRequest",
   "referenced_type" : "_ZTIN7android8hardware8graphics8composer4V2_115IComposerClient14DisplayRequestE",
   "self_type" : "_ZTIN7android8hardware8graphics8composer4V2_115IComposerClient14DisplayRequestE",
   "size" : 4,
   "source_file" : "/out/soong/.intermediates/hardware/interfaces/graphics/composer/2.1/android.hardware.graphics.composer@2.1_genc++_headers/gen/android/hardware/graphics/composer/2.1/IComposerClient.h",
   "underlying_type" : "_ZTIj"
  },
  {
   "alignment" : 4,
   "enum_fields" :
   [
    {
     "enum_field_value" : 0,
     "name" : "android::hardware::graphics::composer::V2_1::IComposerClient::Vsync::INVALID"
    },
    {
     "enum_field_value" : 1,
     "name" : "android::hardware::graphics::composer::V2_1::IComposerClient::Vsync::ENABLE"
    },
    {
     "enum_field_value" : 2,
     "name" : "android::hardware::graphics::composer::V2_1::IComposerClient::Vsync::DISABLE"
    }
   ],
   "linker_set_key" : "_ZTIN7android8hardware8graphics8composer4V2_115IComposerClient5VsyncE",
   "name" : "android::hardware::graphics::composer::V2_1::IComposerClient::Vsync",
   "referenced_type" : "_ZTIN7android8hardware8graphics8composer4V2_115IComposerClient5VsyncE",
   "self_type" : "_ZTIN7android8hardware8graphics8composer4V2_115IComposerClient5VsyncE",
   "size" : 4,
   "source_file" : "/out/soong/.intermediates/hardware/interfaces/graphics/composer/2.1/android.hardware.graphics.composer@2.1_genc++_headers/gen/android/hardware/graphics/composer/2.1/IComposerClient.h",
   "underlying_type" : "_ZTIi"
  },
  {
   "alignment" : 4,
   "enum_fields" :
   [
    {
     "enum_field_value" : 65535,
     "name" : "android::hardware::graphics::composer::V2_1::IComposerClient::Command::LENGTH_MASK"
    },
    {
     "enum_field_value" : 16,
     "name" : "android::hardware::graphics::composer::V2_1::IComposerClient::Command::OPCODE_SHIFT"
    },
    {
     "enum_field_value" : -65536,
     "name" : "android::hardware::graphics::composer::V2_1::IComposerClient::Command::OPCODE_MASK"
    },
    {
     "enum_field_value" : 0,
     "name" : "android::hardware::graphics::composer::V2_1::IComposerClient::Command::SELECT_DISPLAY"
    },
    {
     "enum_field_value" : 65536,
     "name" : "android::hardware::graphics::composer::V2_1::IComposerClient::Command::SELECT_LAYER"
    },
    {
     "enum_field_value" : 16777216,
     "name" : "android::hardware::graphics::composer::V2_1::IComposerClient::Command::SET_ERROR"
    },
    {
     "enum_field_value" : 16842752,
     "name" : "android::hardware::graphics::composer::V2_1::IComposerClient::Command::SET_CHANGED_COMPOSITION_TYPES"
    },
    {
     "enum_field_value" : 16908288,
     "name" : "android::hardware::graphics::composer::V2_1::IComposerClient::Command::SET_DISPLAY_REQUESTS"
    },
    {
     "enum_field_value" : 16973824,
     "name" : "android::hardware::graphics::composer::V2_1::IComposerClient::Command::SET_PRESENT_FENCE"
    },
    {
     "enum_field_value" : 17039360,
     "name" : "android::hardware::graphics::composer::V2_1::IComposerClient::Command::SET_RELEASE_FENCES"
    },
    {
     "enum_field_value" : 33554432,
     "name" : "android::hardware::graphics::composer::V2_1::IComposerClient::Command::SET_COLOR_TRANSFORM"
    },
    {
     "enum_field_value" : 33619968,
     "name" : "android::hardware::graphics::composer::V2_1::IComposerClient::Command::SET_CLIENT_TARGET"
    },
    {
     "enum_field_value" : 33685504,
     "name" : "android::hardware::graphics::composer::V2_1::IComposerClient::Command::SET_OUTPUT_BUFFER"
    },
    {
     "enum_field_value" : 33751040,
     "name" : "android::hardware::graphics::composer::V2_1::IComposerClient::Command::VALIDATE_DISPLAY"
    },
    {
     "enum_field_value" : 33816576,
     "name" : "android::hardware::graphics::composer::V2_1::IComposerClient::Command::ACCEPT_DISPLAY_CHANGES"
    },
    {
     "enum_field_value" : 33882112,
     "name" : "android::hardware::graphics::composer::V2_1::IComposerClient::Command::PRESENT_DISPLAY"
    },
    {
     "enum_field_value" : 33947648,
     "name" : "android::hardware::graphics::composer::V2_1::IComposerClient::Command::PRESENT_OR_VALIDATE_DISPLAY"
    },
    {
     "enum_field_value" : 50331648,
     "name" : "android::hardware::graphics::composer::V2_1::IComposerClient::Command::SET_LAYER_CURSOR_POSITION"
    },
    {
     "enum_field_value" : 50397184,
     "name" : "android::hardware::graphics::composer::V2_1::IComposerClient::Command::SET_LAYER_BUFFER"
    },
    {
     "enum_field_value" : 50462720,
     "name" : "android::hardware::graphics::composer::V2_1::IComposerClient::Command::SET_LAYER_SURFACE_DAMAGE"
    },
    {
     "enum_field_value" : 67108864,
     "name" : "android::hardware::graphics::composer::V2_1::IComposerClient::Command::SET_LAYER_BLEND_MODE"
    },
    {
     "enum_field_value" : 67174400,
     "name" : "android::hardware::graphics::composer::V2_1::IComposerClient::Command::SET_LAYER_COLOR"
    },
    {
     "enum_field_value" : 67239936,
     "name" : "android::hardware::graphics::composer::V2_1::IComposerClient::Command::SET_LAYER_COMPOSITION_TYPE"
    },
    {
     "enum_field_value" : 67305472,
     "name" : "android::hardware::graphics::composer::V2_1::IComposerClient::Command::SET_LAYER_DATASPACE"
    },
    {
     "enum_field_value" : 67371008,
     "name" : "android::hardware::graphics::composer::V2_1::IComposerClient::Command::SET_LAYER_DISPLAY_FRAME"
    },
    {
     "enum_field_value" : 67436544,
     "name" : "android::hardware::graphics::composer::V2_1::IComposerClient::Command::SET_LAYER_PLANE_ALPHA"
    },
    {
     "enum_field_value" : 67502080,
     "name" : "android::hardware::graphics::composer::V2_1::IComposerClient::Command::SET_LAYER_SIDEBAND_STREAM"
    },
    {
     "enum_field_value" : 67567616,
     "name" : "android::hardware::graphics::composer::V2_1::IComposerClient::Command::SET_LAYER_SOURCE_CROP"
    },
    {
     "enum_field_value" : 67633152,
     "name" : "android::hardware::graphics::composer::V2_1::IComposerClient::Command::SET_LAYER_TRANSFORM"
    },
    {
     "enum_field_value" : 67698688,
     "name" : "android::hardware::graphics::composer::V2_1::IComposerClient::Command::SET_LAYER_VISIBLE_REGION"
    },
    {
     "enum_field_value" : 67764224,
     "name" : "android::hardware::graphics::composer::V2_1::IComposerClient::Command::SET_LAYER_Z_ORDER"
    },
    {
     "enum_field_value" : 67829760,
     "name" : "android::hardware::graphics::composer::V2_1::IComposerClient::Command::SET_PRESENT_OR_VALIDATE_DISPLAY_RESULT"
    }
   ],
   "linker_set_key" : "_ZTIN7android8hardware8graphics8composer4V2_115IComposerClient7CommandE",
   "name" : "android::hardware::graphics::composer::V2_1::IComposerClient::Command",
   "referenced_type" : "_ZTIN7android8hardware8graphics8composer4V2_115IComposerClient7CommandE",
   "self_type" : "_ZTIN7android8hardware8graphics8composer4V2_115IComposerClient7CommandE",
   "size" : 4,
   "source_file" : "/out/soong/.intermediates/hardware/interfaces/graphics/composer/2.1/android.hardware.graphics.composer@2.1_genc++_headers/gen/android/hardware/graphics/composer/2.1/IComposerClient.h",
   "underlying_type" : "_ZTIi"
  },
  {
   "alignment" : 4,
   "enum_fields" :
   [
    {
     "enum_field_value" : 0,
     "name" : "android::hardware::graphics::composer::V2_1::IComposerClient::Attribute::INVALID"
    },
    {
     "enum_field_value" : 1,
     "name" : "android::hardware::graphics::composer::V2_1::IComposerClient::Attribute::WIDTH"
    },
    {
     "enum_field_value" : 2,
     "name" : "android::hardware::graphics::composer::V2_1::IComposerClient::Attribute::HEIGHT"
    },
    {
     "enum_field_value" : 3,
     "name" : "android::hardware::graphics::composer::V2_1::IComposerClient::Attribute::VSYNC_PERIOD"
    },
    {
     "enum_field_value" : 4,
     "name" : "android::hardware::graphics::composer::V2_1::IComposerClient::Attribute::DPI_X"
    },
    {
     "enum_field_value" : 5,
     "name" : "android::hardware::graphics::composer::V2_1::IComposerClient::Attribute::DPI_Y"
    }
   ],
   "linker_set_key" : "_ZTIN7android8hardware8graphics8composer4V2_115IComposerClient9AttributeE",
   "name" : "android::hardware::graphics::composer::V2_1::IComposerClient::Attribute",
   "referenced_type" : "_ZTIN7android8hardware8graphics8composer4V2_115IComposerClient9AttributeE",
   "self_type" : "_ZTIN7android8hardware8graphics8composer4V2_115IComposerClient9AttributeE",
   "size" : 4,
   "source_file" : "/out/soong/.intermediates/hardware/interfaces/graphics/composer/2.1/android.hardware.graphics.composer@2.1_genc++_headers/gen/android/hardware/graphics/composer/2.1/IComposerClient.h",
   "underlying_type" : "_ZTIi"
  },
  {
   "alignment" : 4,
   "enum_fields" :
   [
    {
     "enum_field_value" : 0,
     "name" : "android::hardware::graphics::composer::V2_1::IComposerClient::BlendMode::INVALID"
    },
    {
     "enum_field_value" : 1,
     "name" : "android::hardware::graphics::composer::V2_1::IComposerClient::BlendMode::NONE"
    },
    {
     "enum_field_value" : 2,
     "name" : "android::hardware::graphics::composer::V2_1::IComposerClient::BlendMode::PREMULTIPLIED"
    },
    {
     "enum_field_value" : 3,
     "name" : "android::hardware::graphics::composer::V2_1::IComposerClient::BlendMode::COVERAGE"
    }
   ],
   "linker_set_key" : "_ZTIN7android8hardware8graphics8composer4V2_115IComposerClient9BlendModeE",
   "name" : "android::hardware::graphics::composer::V2_1::IComposerClient::BlendMode",
   "referenced_type" : "_ZTIN7android8hardware8graphics8composer4V2_115IComposerClient9BlendModeE",
   "self_type" : "_ZTIN7android8hardware8graphics8composer4V2_115IComposerClient9BlendModeE",
   "size" : 4,
   "source_file" : "/out/soong/.intermediates/hardware/interfaces/graphics/composer/2.1/android.hardware.graphics.composer@2.1_genc++_headers/gen/android/hardware/graphics/composer/2.1/IComposerClient.h",
   "underlying_type" : "_ZTIi"
  },
  {
   "alignment" : 4,
   "enum_fields" :
   [
    {
     "enum_field_value" : 0,
     "name" : "android::hardware::graphics::composer::V2_1::IComposerClient::PowerMode::OFF"
    },
    {
     "enum_field_value" : 1,
     "name" : "android::hardware::graphics::composer::V2_1::IComposerClient::PowerMode::DOZE"
    },
    {
     "enum_field_value" : 3,
     "name" : "android::hardware::graphics::composer::V2_1::IComposerClient::PowerMode::DOZE_SUSPEND"
    },
    {
     "enum_field_value" : 2,
     "name" : "android::hardware::graphics::composer::V2_1::IComposerClient::PowerMode::ON"
    }
   ],
   "linker_set_key" : "_ZTIN7android8hardware8graphics8composer4V2_115IComposerClient9PowerModeE",
   "name" : "android::hardware::graphics::composer::V2_1::IComposerClient::PowerMode",
   "referenced_type" : "_ZTIN7android8hardware8graphics8composer4V2_115IComposerClient9PowerModeE",
   "self_type" : "_ZTIN7android8hardware8graphics8composer4V2_115IComposerClient9PowerModeE",
   "size" : 4,
   "source_file" : "/out/soong/.intermediates/hardware/interfaces/graphics/composer/2.1/android.hardware.graphics.composer@2.1_genc++_headers/gen/android/hardware/graphics/composer/2.1/IComposerClient.h",
   "underlying_type" : "_ZTIi"
  },
  {
   "alignment" : 4,
   "enum_fields" :
   [
    {
     "enum_field_value" : 0,
     "name" : "android::hardware::graphics::composer::V2_1::IComposerCallback::Connection::INVALID"
    },
    {
     "enum_field_value" : 1,
     "name" : "android::hardware::graphics::composer::V2_1::IComposerCallback::Connection::CONNECTED"
    },
    {
     "enum_field_value" : 2,
     "name" : "android::hardware::graphics::composer::V2_1::IComposerCallback::Connection::DISCONNECTED"
    }
   ],
   "linker_set_key" : "_ZTIN7android8hardware8graphics8composer4V2_117IComposerCallback10ConnectionE",
   "name" : "android::hardware::graphics::composer::V2_1::IComposerCallback::Connection",
   "referenced_type" : "_ZTIN7android8hardware8graphics8composer4V2_117IComposerCallback10ConnectionE",
   "self_type" : "_ZTIN7android8hardware8graphics8composer4V2_117IComposerCallback10ConnectionE",
   "size" : 4,
   "source_file" : "/out/soong/.intermediates/hardware/interfaces/graphics/composer/2.1/android.hardware.graphics.composer@2.1_genc++_headers/gen/android/hardware/graphics/composer/2.1/IComposerCallback.h",
   "underlying_type" : "_ZTIi"
  },
  {
   "alignment" : 4,
   "enum_fields" :
   [
    {
     "enum_field_value" : 0,
     "name" : "android::hardware::graphics::composer::V2_1::Error::NONE"
    },
    {
     "enum_field_value" : 1,
     "name" : "android::hardware::graphics::composer::V2_1::Error::BAD_CONFIG"
    },
    {
     "enum_field_value" : 2,
     "name" : "android::hardware::graphics::composer::V2_1::Error::BAD_DISPLAY"
    },
    {
     "enum_field_value" : 3,
     "name" : "android::hardware::graphics::composer::V2_1::Error::BAD_LAYER"
    },
    {
     "enum_field_value" : 4,
     "name" : "android::hardware::graphics::composer::V2_1::Error::BAD_PARAMETER"
    },
    {
     "enum_field_value" : 6,
     "name" : "android::hardware::graphics::composer::V2_1::Error::NO_RESOURCES"
    },
    {
     "enum_field_value" : 7,
     "name" : "android::hardware::graphics::composer::V2_1::Error::NOT_VALIDATED"
    },
    {
     "enum_field_value" : 8,
     "name" : "android::hardware::graphics::composer::V2_1::Error::UNSUPPORTED"
    }
   ],
   "linker_set_key" : "_ZTIN7android8hardware8graphics8composer4V2_15ErrorE",
   "name" : "android::hardware::graphics::composer::V2_1::Error",
   "referenced_type" : "_ZTIN7android8hardware8graphics8composer4V2_15ErrorE",
   "self_type" : "_ZTIN7android8hardware8graphics8composer4V2_15ErrorE",
   "size" : 4,
   "source_file" : "/out/soong/.intermediates/hardware/interfaces/graphics/composer/2.1/android.hardware.graphics.composer@2.1_genc++_headers/gen/android/hardware/graphics/composer/2.1/types.h",
   "underlying_type" : "_ZTIi"
  },
  {
   "alignment" : 4,
   "enum_fields" :
   [
    {
     "enum_field_value" : 0,
     "name" : "android::hardware::graphics::composer::V2_1::IComposer::Capability::INVALID"
    },
    {
     "enum_field_value" : 1,
     "name" : "android::hardware::graphics::composer::V2_1::IComposer::Capability::SIDEBAND_STREAM"
    },
    {
     "enum_field_value" : 2,
     "name" : "android::hardware::graphics::composer::V2_1::IComposer::Capability::SKIP_CLIENT_COLOR_TRANSFORM"
    },
    {
     "enum_field_value" : 3,
     "name" : "android::hardware::graphics::composer::V2_1::IComposer::Capability::PRESENT_FENCE_IS_NOT_RELIABLE"
    }
   ],
   "linker_set_key" : "_ZTIN7android8hardware8graphics8composer4V2_19IComposer10CapabilityE",
   "name" : "android::hardware::graphics::composer::V2_1::IComposer::Capability",
   "referenced_type" : "_ZTIN7android8hardware8graphics8composer4V2_19IComposer10CapabilityE",
   "self_type" : "_ZTIN7android8hardware8graphics8composer4V2_19IComposer10CapabilityE",
   "size" : 4,
   "source_file" : "/out/soong/.intermediates/hardware/interfaces/graphics/composer/2.1/android.hardware.graphics.composer@2.1_genc++_headers/gen/android/hardware/graphics/composer/2.1/IComposer.h",
   "underlying_type" : "_ZTIi"
  },
  {
   "alignment" : 4,
   "enum_fields" :
   [
    {
     "enum_field_value" : 0,
     "name" : "android::hardware::graphics::composer::V2_2::IComposerClient::PerFrameMetadataKey::DISPLAY_RED_PRIMARY_X"
    },
    {
     "enum_field_value" : 1,
     "name" : "android::hardware::graphics::composer::V2_2::IComposerClient::PerFrameMetadataKey::DISPLAY_RED_PRIMARY_Y"
    },
    {
     "enum_field_value" : 2,
     "name" : "android::hardware::graphics::composer::V2_2::IComposerClient::PerFrameMetadataKey::DISPLAY_GREEN_PRIMARY_X"
    },
    {
     "enum_field_value" : 3,
     "name" : "android::hardware::graphics::composer::V2_2::IComposerClient::PerFrameMetadataKey::DISPLAY_GREEN_PRIMARY_Y"
    },
    {
     "enum_field_value" : 4,
     "name" : "android::hardware::graphics::composer::V2_2::IComposerClient::PerFrameMetadataKey::DISPLAY_BLUE_PRIMARY_X"
    },
    {
     "enum_field_value" : 5,
     "name" : "android::hardware::graphics::composer::V2_2::IComposerClient::PerFrameMetadataKey::DISPLAY_BLUE_PRIMARY_Y"
    },
    {
     "enum_field_value" : 6,
     "name" : "android::hardware::graphics::composer::V2_2::IComposerClient::PerFrameMetadataKey::WHITE_POINT_X"
    },
    {
     "enum_field_value" : 7,
     "name" : "android::hardware::graphics::composer::V2_2::IComposerClient::PerFrameMetadataKey::WHITE_POINT_Y"
    },
    {
     "enum_field_value" : 8,
     "name" : "android::hardware::graphics::composer::V2_2::IComposerClient::PerFrameMetadataKey::MAX_LUMINANCE"
    },
    {
     "enum_field_value" : 9,
     "name" : "android::hardware::graphics::composer::V2_2::IComposerClient::PerFrameMetadataKey::MIN_LUMINANCE"
    },
    {
     "enum_field_value" : 10,
     "name" : "android::hardware::graphics::composer::V2_2::IComposerClient::PerFrameMetadataKey::MAX_CONTENT_LIGHT_LEVEL"
    },
    {
     "enum_field_value" : 11,
     "name" : "android::hardware::graphics::composer::V2_2::IComposerClient::PerFrameMetadataKey::MAX_FRAME_AVERAGE_LIGHT_LEVEL"
    }
   ],
   "linker_set_key" : "_ZTIN7android8hardware8graphics8composer4V2_215IComposerClient19PerFrameMetadataKeyE",
   "name" : "android::hardware::graphics::composer::V2_2::IComposerClient::PerFrameMetadataKey",
   "referenced_type" : "_ZTIN7android8hardware8graphics8composer4V2_215IComposerClient19PerFrameMetadataKeyE",
   "self_type" : "_ZTIN7android8hardware8graphics8composer4V2_215IComposerClient19PerFrameMetadataKeyE",
   "size" : 4,
   "source_file" : "/out/soong/.intermediates/hardware/interfaces/graphics/composer/2.2/android.hardware.graphics.composer@2.2_genc++_headers/gen/android/hardware/graphics/composer/2.2/IComposerClient.h",
   "underlying_type" : "_ZTIi"
  },
  {
   "alignment" : 4,
   "enum_fields" :
   [
    {
     "enum_field_value" : 65535,
     "name" : "android::hardware::graphics::composer::V2_2::IComposerClient::Command::LENGTH_MASK"
    },
    {
     "enum_field_value" : 16,
     "name" : "android::hardware::graphics::composer::V2_2::IComposerClient::Command::OPCODE_SHIFT"
    },
    {
     "enum_field_value" : -65536,
     "name" : "android::hardware::graphics::composer::V2_2::IComposerClient::Command::OPCODE_MASK"
    },
    {
     "enum_field_value" : 0,
     "name" : "android::hardware::graphics::composer::V2_2::IComposerClient::Command::SELECT_DISPLAY"
    },
    {
     "enum_field_value" : 65536,
     "name" : "android::hardware::graphics::composer::V2_2::IComposerClient::Command::SELECT_LAYER"
    },
    {
     "enum_field_value" : 16777216,
     "name" : "android::hardware::graphics::composer::V2_2::IComposerClient::Command::SET_ERROR"
    },
    {
     "enum_field_value" : 16842752,
     "name" : "android::hardware::graphics::composer::V2_2::IComposerClient::Command::SET_CHANGED_COMPOSITION_TYPES"
    },
    {
     "enum_field_value" : 16908288,
     "name" : "android::hardware::graphics::composer::V2_2::IComposerClient::Command::SET_DISPLAY_REQUESTS"
    },
    {
     "enum_field_value" : 16973824,
     "name" : "android::hardware::graphics::composer::V2_2::IComposerClient::Command::SET_PRESENT_FENCE"
    },
    {
     "enum_field_value" : 17039360,
     "name" : "android::hardware::graphics::composer::V2_2::IComposerClient::Command::SET_RELEASE_FENCES"
    },
    {
     "enum_field_value" : 33554432,
     "name" : "android::hardware::graphics::composer::V2_2::IComposerClient::Command::SET_COLOR_TRANSFORM"
    },
    {
     "enum_field_value" : 33619968,
     "name" : "android::hardware::graphics::composer::V2_2::IComposerClient::Command::SET_CLIENT_TARGET"
    },
    {
     "enum_field_value" : 33685504,
     "name" : "android::hardware::graphics::composer::V2_2::IComposerClient::Command::SET_OUTPUT_BUFFER"
    },
    {
     "enum_field_value" : 33751040,
     "name" : "android::hardware::graphics::composer::V2_2::IComposerClient::Command::VALIDATE_DISPLAY"
    },
    {
     "enum_field_value" : 33816576,
     "name" : "android::hardware::graphics::composer::V2_2::IComposerClient::Command::ACCEPT_DISPLAY_CHANGES"
    },
    {
     "enum_field_value" : 33882112,
     "name" : "android::hardware::graphics::composer::V2_2::IComposerClient::Command::PRESENT_DISPLAY"
    },
    {
     "enum_field_value" : 33947648,
     "name" : "android::hardware::graphics::composer::V2_2::IComposerClient::Command::PRESENT_OR_VALIDATE_DISPLAY"
    },
    {
     "enum_field_value" : 50331648,
     "name" : "android::hardware::graphics::composer::V2_2::IComposerClient::Command::SET_LAYER_CURSOR_POSITION"
    },
    {
     "enum_field_value" : 50397184,
     "name" : "android::hardware::graphics::composer::V2_2::IComposerClient::Command::SET_LAYER_BUFFER"
    },
    {
     "enum_field_value" : 50462720,
     "name" : "android::hardware::graphics::composer::V2_2::IComposerClient::Command::SET_LAYER_SURFACE_DAMAGE"
    },
    {
     "enum_field_value" : 67108864,
     "name" : "android::hardware::graphics::composer::V2_2::IComposerClient::Command::SET_LAYER_BLEND_MODE"
    },
    {
     "enum_field_value" : 67174400,
     "name" : "android::hardware::graphics::composer::V2_2::IComposerClient::Command::SET_LAYER_COLOR"
    },
    {
     "enum_field_value" : 67239936,
     "name" : "android::hardware::graphics::composer::V2_2::IComposerClient::Command::SET_LAYER_COMPOSITION_TYPE"
    },
    {
     "enum_field_value" : 67305472,
     "name" : "android::hardware::graphics::composer::V2_2::IComposerClient::Command::SET_LAYER_DATASPACE"
    },
    {
     "enum_field_value" : 67371008,
     "name" : "android::hardware::graphics::composer::V2_2::IComposerClient::Command::SET_LAYER_DISPLAY_FRAME"
    },
    {
     "enum_field_value" : 67436544,
     "name" : "android::hardware::graphics::composer::V2_2::IComposerClient::Command::SET_LAYER_PLANE_ALPHA"
    },
    {
     "enum_field_value" : 67502080,
     "name" : "android::hardware::graphics::composer::V2_2::IComposerClient::Command::SET_LAYER_SIDEBAND_STREAM"
    },
    {
     "enum_field_value" : 67567616,
     "name" : "android::hardware::graphics::composer::V2_2::IComposerClient::Command::SET_LAYER_SOURCE_CROP"
    },
    {
     "enum_field_value" : 67633152,
     "name" : "android::hardware::graphics::composer::V2_2::IComposerClient::Command::SET_LAYER_TRANSFORM"
    },
    {
     "enum_field_value" : 67698688,
     "name" : "android::hardware::graphics::composer::V2_2::IComposerClient::Command::SET_LAYER_VISIBLE_REGION"
    },
    {
     "enum_field_value" : 67764224,
     "name" : "android::hardware::graphics::composer::V2_2::IComposerClient::Command::SET_LAYER_Z_ORDER"
    },
    {
     "enum_field_value" : 67829760,
     "name" : "android::hardware::graphics::composer::V2_2::IComposerClient::Command::SET_PRESENT_OR_VALIDATE_DISPLAY_RESULT"
    },
    {
     "enum_field_value" : 50528256,
     "name" : "android::hardware::graphics::composer::V2_2::IComposerClient::Command::SET_LAYER_PER_FRAME_METADATA"
    },
    {
     "enum_field_value" : 67895296,
     "name" : "android::hardware::graphics::composer::V2_2::IComposerClient::Command::SET_LAYER_FLOAT_COLOR"
    }
   ],
   "linker_set_key" : "_ZTIN7android8hardware8graphics8composer4V2_215IComposerClient7CommandE",
   "name" : "android::hardware::graphics::composer::V2_2::IComposerClient::Command",
   "referenced_type" : "_ZTIN7android8hardware8graphics8composer4V2_215IComposerClient7CommandE",
   "self_type" : "_ZTIN7android8hardware8graphics8composer4V2_215IComposerClient7CommandE",
   "size" : 4,
   "source_file" : "/out/soong/.intermediates/hardware/interfaces/graphics/composer/2.2/android.hardware.graphics.composer@2.2_genc++_headers/gen/android/hardware/graphics/composer/2.2/IComposerClient.h",
   "underlying_type" : "_ZTIi"
  },
  {
   "alignment" : 4,
   "enum_fields" :
   [
    {
     "enum_field_value" : 0,
     "name" : "android::hardware::graphics::composer::V2_2::IComposerClient::PowerMode::OFF"
    },
    {
     "enum_field_value" : 1,
     "name" : "android::hardware::graphics::composer::V2_2::IComposerClient::PowerMode::DOZE"
    },
    {
     "enum_field_value" : 3,
     "name" : "android::hardware::graphics::composer::V2_2::IComposerClient::PowerMode::DOZE_SUSPEND"
    },
    {
     "enum_field_value" : 2,
     "name" : "android::hardware::graphics::composer::V2_2::IComposerClient::PowerMode::ON"
    },
    {
     "enum_field_value" : 4,
     "name" : "android::hardware::graphics::composer::V2_2::IComposerClient::PowerMode::ON_SUSPEND"
    }
   ],
   "linker_set_key" : "_ZTIN7android8hardware8graphics8composer4V2_215IComposerClient9PowerModeE",
   "name" : "android::hardware::graphics::composer::V2_2::IComposerClient::PowerMode",
   "referenced_type" : "_ZTIN7android8hardware8graphics8composer4V2_215IComposerClient9PowerModeE",
   "self_type" : "_ZTIN7android8hardware8graphics8composer4V2_215IComposerClient9PowerModeE",
   "size" : 4,
   "source_file" : "/out/soong/.intermediates/hardware/interfaces/graphics/composer/2.2/android.hardware.graphics.composer@2.2_genc++_headers/gen/android/hardware/graphics/composer/2.2/IComposerClient.h",
   "underlying_type" : "_ZTIi"
  },
  {
   "alignment" : 4,
   "enum_fields" :
   [
    {
     "enum_field_value" : 0,
     "name" : "android::Condition::WAKE_UP_ONE"
    },
    {
     "enum_field_value" : 1,
     "name" : "android::Condition::WAKE_UP_ALL"
    }
   ],
   "linker_set_key" : "_ZTIN7android9Condition10WakeUpTypeE",
   "name" : "android::Condition::WakeUpType",
   "referenced_type" : "_ZTIN7android9Condition10WakeUpTypeE",
   "self_type" : "_ZTIN7android9Condition10WakeUpTypeE",
   "size" : 4,
   "source_file" : "/system/core/libutils/include/utils/Condition.h",
   "underlying_type" : "_ZTIj"
  },
  {
   "alignment" : 4,
   "enum_fields" :
   [
    {
     "enum_field_value" : 0,
     "name" : "android::Condition::PRIVATE"
    },
    {
     "enum_field_value" : 1,
     "name" : "android::Condition::SHARED"
    }
   ],
   "linker_set_key" : "_ZTIN7android9Condition8$PRIVATEE",
   "name" : "android::Condition::(anonymous enum at system/core/libutils/include/utils/Condition.h:54:5)",
   "referenced_type" : "_ZTIN7android9Condition8$PRIVATEE",
   "self_type" : "_ZTIN7android9Condition8$PRIVATEE",
   "size" : 4,
   "source_file" : "/system/core/libutils/include/utils/Condition.h",
   "underlying_type" : "_ZTIj"
  }
 ],
 "function_types" :
 [
  {
   "alignment" : 4,
   "linker_set_key" : "_ZTIFbRKN7android8String16ERKNS_2spINS_8hardware7IBinderEEEPvE",
   "name" : "bool (const android::String16 &, const android::sp<android::hardware::IBinder> &, void *)",
   "parameters" :
   [
    {
     "referenced_type" : "_ZTIRKN7android8String16E"
    },
    {
     "referenced_type" : "_ZTIRKN7android2spINS_8hardware7IBinderEEE"
    },
    {
     "referenced_type" : "_ZTIPv"
    }
   ],
   "referenced_type" : "_ZTIFbRKN7android8String16ERKNS_2spINS_8hardware7IBinderEEEPvE",
   "return_type" : "_ZTIb",
   "self_type" : "_ZTIFbRKN7android8String16ERKNS_2spINS_8hardware7IBinderEEEPvE",
   "source_file" : "/system/libhwbinder/include/hwbinder/ProcessState.h"
  },
  {
   "alignment" : 4,
   "linker_set_key" : "_ZTIFiPvE",
   "name" : "int (void *)",
   "parameters" :
   [
    {
     "referenced_type" : "_ZTIPv"
    }
   ],
   "referenced_type" : "_ZTIFiPvE",
   "return_type" : "_ZTIi",
   "self_type" : "_ZTIFiPvE",
   "source_file" : "/system/core/libutils/include/utils/AndroidThreads.h"
  },
  {
   "alignment" : 4,
   "linker_set_key" : "_ZTIFvPN7android8hardware6ParcelEPKhjPKyjPvE",
   "name" : "void (android::hardware::Parcel *, const unsigned char *, unsigned int, const unsigned long long *, unsigned int, void *)",
   "parameters" :
   [
    {
     "referenced_type" : "_ZTIPN7android8hardware6ParcelE"
    },
    {
     "referenced_type" : "_ZTIPKh"
    },
    {
     "referenced_type" : "_ZTIj"
    },
    {
     "referenced_type" : "_ZTIPKy"
    },
    {
     "referenced_type" : "_ZTIj"
    },
    {
     "referenced_type" : "_ZTIPv"
    }
   ],
   "referenced_type" : "_ZTIFvPN7android8hardware6ParcelEPKhjPKyjPvE",
   "return_type" : "_ZTIv",
   "self_type" : "_ZTIFvPN7android8hardware6ParcelEPKhjPKyjPvE",
   "source_file" : "/system/libhwbinder/include/hwbinder/Parcel.h"
  }
 ],
 "functions" :
 [
  {
   "function_name" : "android::hardware::details::castInterface",
   "linker_set_key" : "_ZN7android8hardware7details13castInterfaceINS0_8graphics8composer4V2_215IComposerClientENS4_4V2_115IComposerClientENS5_18BpHwComposerClientEEENS0_6ReturnINS_2spIT_EEEENSB_IT0_EEPKcb",
   "parameters" :
   [
    {
     "referenced_type" : "_ZTIN7android2spINS_8hardware8graphics8composer4V2_115IComposerClientEEE"
    },
    {
     "referenced_type" : "_ZTIPKc"
    },
    {
     "referenced_type" : "_ZTIb"
    }
   ],
   "return_type" : "_ZTIN7android8hardware6ReturnINS_2spINS0_8graphics8composer4V2_215IComposerClientEEEEE",
   "source_file" : "/system/libhidl/transport/include/hidl/HidlTransportSupport.h",
   "template_args" :
   [
    "_ZTIN7android8hardware8graphics8composer4V2_215IComposerClientE",
    "_ZTIN7android8hardware8graphics8composer4V2_115IComposerClientE",
    "_ZTIN7android8hardware8graphics8composer4V2_218BpHwComposerClientE"
   ]
  },
  {
   "function_name" : "android::hardware::details::castInterface",
   "linker_set_key" : "_ZN7android8hardware7details13castInterfaceINS0_8graphics8composer4V2_215IComposerClientENS_4hidl4base4V1_05IBaseENS5_18BpHwComposerClientEEENS0_6ReturnINS_2spIT_EEEENSD_IT0_EEPKcb",
   "parameters" :
   [
    {
     "referenced_type" : "_ZTIN7android2spINS_4hidl4base4V1_05IBaseEEE"
    },
    {
     "referenced_type" : "_ZTIPKc"
    },
    {
     "referenced_type" : "_ZTIb"
    }
   ],
   "return_type" : "_ZTIN7android8hardware6ReturnINS_2spINS0_8graphics8composer4V2_215IComposerClientEEEEE",
   "source_file" : "/system/libhidl/transport/include/hidl/HidlTransportSupport.h",
   "template_args" :
   [
    "_ZTIN7android8hardware8graphics8composer4V2_215IComposerClientE",
    "_ZTIN7android4hidl4base4V1_05IBaseE",
    "_ZTIN7android8hardware8graphics8composer4V2_218BpHwComposerClientE"
   ]
  },
  {
   "function_name" : "android::hardware::details::castInterface",
   "linker_set_key" : "_ZN7android8hardware7details13castInterfaceINS0_8graphics8composer4V2_29IComposerENS4_4V2_19IComposerENS5_12BpHwComposerEEENS0_6ReturnINS_2spIT_EEEENSB_IT0_EEPKcb",
   "parameters" :
   [
    {
     "referenced_type" : "_ZTIN7android2spINS_8hardware8graphics8composer4V2_19IComposerEEE"
    },
    {
     "referenced_type" : "_ZTIPKc"
    },
    {
     "referenced_type" : "_ZTIb"
    }
   ],
   "return_type" : "_ZTIN7android8hardware6ReturnINS_2spINS0_8graphics8composer4V2_29IComposerEEEEE",
   "source_file" : "/system/libhidl/transport/include/hidl/HidlTransportSupport.h",
   "template_args" :
   [
    "_ZTIN7android8hardware8graphics8composer4V2_29IComposerE",
    "_ZTIN7android8hardware8graphics8composer4V2_19IComposerE",
    "_ZTIN7android8hardware8graphics8composer4V2_212BpHwComposerE"
   ]
  },
  {
   "function_name" : "android::hardware::details::castInterface",
   "linker_set_key" : "_ZN7android8hardware7details13castInterfaceINS0_8graphics8composer4V2_29IComposerENS_4hidl4base4V1_05IBaseENS5_12BpHwComposerEEENS0_6ReturnINS_2spIT_EEEENSD_IT0_EEPKcb",
   "parameters" :
   [
    {
     "referenced_type" : "_ZTIN7android2spINS_4hidl4base4V1_05IBaseEEE"
    },
    {
     "referenced_type" : "_ZTIPKc"
    },
    {
     "referenced_type" : "_ZTIb"
    }
   ],
   "return_type" : "_ZTIN7android8hardware6ReturnINS_2spINS0_8graphics8composer4V2_29IComposerEEEEE",
   "source_file" : "/system/libhidl/transport/include/hidl/HidlTransportSupport.h",
   "template_args" :
   [
    "_ZTIN7android8hardware8graphics8composer4V2_29IComposerE",
    "_ZTIN7android4hidl4base4V1_05IBaseE",
    "_ZTIN7android8hardware8graphics8composer4V2_212BpHwComposerE"
   ]
  },
  {
   "function_name" : "android::hardware::details::wrapPassthrough",
   "linker_set_key" : "_ZN7android8hardware7details15wrapPassthroughINS0_8graphics8composer4V2_115IComposerClientEvEENS_2spIT_EES9_",
   "parameters" :
   [
    {
     "referenced_type" : "_ZTIN7android2spINS_8hardware8graphics8composer4V2_115IComposerClientEEE"
    }
   ],
   "return_type" : "_ZTIN7android2spINS_8hardware8graphics8composer4V2_115IComposerClientEEE",
   "source_file" : "/system/libhidl/transport/include/hidl/HidlPassthroughSupport.h",
   "template_args" :
   [
    "_ZTIN7android8hardware8graphics8composer4V2_115IComposerClientE",
    "_ZTIv"
   ]
  },
  {
   "function_name" : "android::hardware::details::wrapPassthrough",
   "linker_set_key" : "_ZN7android8hardware7details15wrapPassthroughINS0_8graphics8composer4V2_117IComposerCallbackEvEENS_2spIT_EES9_",
   "parameters" :
   [
    {
     "referenced_type" : "_ZTIN7android2spINS_8hardware8graphics8composer4V2_117IComposerCallbackEEE"
    }
   ],
   "return_type" : "_ZTIN7android2spINS_8hardware8graphics8composer4V2_117IComposerCallbackEEE",
   "source_file" : "/system/libhidl/transport/include/hidl/HidlPassthroughSupport.h",
   "template_args" :
   [
    "_ZTIN7android8hardware8graphics8composer4V2_117IComposerCallbackE",
    "_ZTIv"
   ]
  },
  {
   "function_name" : "android::hardware::details::getServiceInternal",
   "linker_set_key" : "_ZN7android8hardware7details18getServiceInternalINS0_8graphics8composer4V2_212BpHwComposerENS5_9IComposerEvvEENS_2spIT0_EERKNSt3__112basic_stringIcNSB_11char_traitsIcEENSB_9allocatorIcEEEEbb",
   "parameters" :
   [
    {
     "referenced_type" : "_ZTIRKNSt3__112basic_stringIcNS_11char_traitsIcEENS_9allocatorIcEEEE"
    },
    {
     "referenced_type" : "_ZTIb"
    },
    {
     "referenced_type" : "_ZTIb"
    }
   ],
   "return_type" : "_ZTIN7android2spINS_8hardware8graphics8composer4V2_29IComposerEEE",
   "source_file" : "/system/libhidl/transport/include/hidl/HidlTransportSupport.h",
   "template_args" :
   [
    "_ZTIN7android8hardware8graphics8composer4V2_212BpHwComposerE",
    "_ZTIN7android8hardware8graphics8composer4V2_29IComposerE",
    "_ZTIv",
    "_ZTIv"
   ]
  },
  {
   "function_name" : "android::hardware::details::getServiceInternal",
   "linker_set_key" : "_ZN7android8hardware7details18getServiceInternalINS0_8graphics8composer4V2_218BpHwComposerClientENS5_15IComposerClientEvvEENS_2spIT0_EERKNSt3__112basic_stringIcNSB_11char_traitsIcEENSB_9allocatorIcEEEEbb",
   "parameters" :
   [
    {
     "referenced_type" : "_ZTIRKNSt3__112basic_stringIcNS_11char_traitsIcEENS_9allocatorIcEEEE"
    },
    {
     "referenced_type" : "_ZTIb"
    },
    {
     "referenced_type" : "_ZTIb"
    }
   ],
   "return_type" : "_ZTIN7android2spINS_8hardware8graphics8composer4V2_215IComposerClientEEE",
   "source_file" : "/system/libhidl/transport/include/hidl/HidlTransportSupport.h",
   "template_args" :
   [
    "_ZTIN7android8hardware8graphics8composer4V2_218BpHwComposerClientE",
    "_ZTIN7android8hardware8graphics8composer4V2_215IComposerClientE",
    "_ZTIv",
    "_ZTIv"
   ]
  },
  {
   "access" : "private",
   "function_name" : "android::hardware::graphics::composer::V2_2::BsComposer::addOnewayTask",
   "linker_set_key" : "_ZN7android8hardware8graphics8composer4V2_210BsComposer13addOnewayTaskENSt3__18functionIFvvEEE",
   "parameters" :
   [
    {
     "is_this_ptr" : true,
     "referenced_type" : "_ZTIPN7android8hardware8graphics8composer4V2_210BsComposerE"
    },
    {
     "referenced_type" : "_ZTINSt3__18functionIFvvEEE"
    }
   ],
   "return_type" : "_ZTIN7android8hardware6ReturnIvEE",
   "source_file" : "/out/soong/.intermediates/hardware/interfaces/graphics/composer/2.2/android.hardware.graphics.composer@2.2_genc++_headers/gen/android/hardware/graphics/composer/2.2/BsComposer.h"
  },
  {
   "function_name" : "android::hardware::graphics::composer::V2_2::BsComposer::BsComposer",
   "linker_set_key" : "_ZN7android8hardware8graphics8composer4V2_210BsComposerC1ENS_2spINS3_9IComposerEEE",
   "parameters" :
   [
    {
     "is_this_ptr" : true,
     "referenced_type" : "_ZTIPN7android8hardware8graphics8composer4V2_210BsComposerE"
    },
    {
     "referenced_type" : "_ZTIKN7android2spINS_8hardware8graphics8composer4V2_29IComposerEEE"
    }
   ],
   "return_type" : "_ZTIv",
   "source_file" : "/out/soong/.intermediates/hardware/interfaces/graphics/composer/2.2/android.hardware.graphics.composer@2.2_genc++_headers/gen/android/hardware/graphics/composer/2.2/BsComposer.h"
  },
  {
   "function_name" : "android::hardware::graphics::composer::V2_2::BsComposer::BsComposer",
   "linker_set_key" : "_ZN7android8hardware8graphics8composer4V2_210BsComposerC2ENS_2spINS3_9IComposerEEE",
   "parameters" :
   [
    {
     "is_this_ptr" : true,
     "referenced_type" : "_ZTIPN7android8hardware8graphics8composer4V2_210BsComposerE"
    },
    {
     "referenced_type" : "_ZTIKN7android2spINS_8hardware8graphics8composer4V2_29IComposerEEE"
    }
   ],
   "return_type" : "_ZTIv",
   "source_file" : "/out/soong/.intermediates/hardware/interfaces/graphics/composer/2.2/android.hardware.graphics.composer@2.2_genc++_headers/gen/android/hardware/graphics/composer/2.2/BsComposer.h"
  },
  {
   "function_name" : "android::hardware::graphics::composer::V2_2::BnHwComposer::onTransact",
   "linker_set_key" : "_ZN7android8hardware8graphics8composer4V2_212BnHwComposer10onTransactEjRKNS0_6ParcelEPS5_jNSt3__18functionIFvRS5_EEE",
   "parameters" :
   [
    {
     "is_this_ptr" : true,
     "referenced_type" : "_ZTIPN7android8hardware8graphics8composer4V2_212BnHwComposerE"
    },
    {
     "referenced_type" : "_ZTIj"
    },
    {
     "referenced_type" : "_ZTIRKN7android8hardware6ParcelE"
    },
    {
     "referenced_type" : "_ZTIPN7android8hardware6ParcelE"
    },
    {
     "default_arg" : true,
     "referenced_type" : "_ZTIj"
    },
    {
     "default_arg" : true,
     "referenced_type" : "_ZTINSt3__18functionIFvRN7android8hardware6ParcelEEEE"
    }
   ],
   "return_type" : "_ZTIi",
   "source_file" : "/out/soong/.intermediates/hardware/interfaces/graphics/composer/2.2/android.hardware.graphics.composer@2.2_genc++_headers/gen/android/hardware/graphics/composer/2.2/BnHwComposer.h"
  },
  {
   "access" : "private",
   "function_name" : "android::hardware::graphics::composer::V2_2::BnHwComposer::getDebugInfo",
   "linker_set_key" : "_ZN7android8hardware8graphics8composer4V2_212BnHwComposer12getDebugInfoENSt3__18functionIFvRKNS_4hidl4base4V1_09DebugInfoEEEE",
   "parameters" :
   [
    {
     "is_this_ptr" : true,
     "referenced_type" : "_ZTIPN7android8hardware8graphics8composer4V2_212BnHwComposerE"
    },
    {
     "referenced_type" : "_ZTINSt3__18functionIFvRKN7android4hidl4base4V1_09DebugInfoEEEE"
    }
   ],
   "return_type" : "_ZTIN7android8hardware6ReturnIvEE",
   "source_file" : "/out/soong/.intermediates/hardware/interfaces/graphics/composer/2.2/android.hardware.graphics.composer@2.2_genc++_headers/gen/android/hardware/graphics/composer/2.2/BnHwComposer.h"
  },
  {
   "access" : "private",
   "function_name" : "android::hardware::graphics::composer::V2_2::BnHwComposer::ping",
   "linker_set_key" : "_ZN7android8hardware8graphics8composer4V2_212BnHwComposer4pingEv",
   "parameters" :
   [
    {
     "is_this_ptr" : true,
     "referenced_type" : "_ZTIPN7android8hardware8graphics8composer4V2_212BnHwComposerE"
    }
   ],
   "return_type" : "_ZTIN7android8hardware6ReturnIvEE",
   "source_file" : "/out/soong/.intermediates/hardware/interfaces/graphics/composer/2.2/android.hardware.graphics.composer@2.2_genc++_headers/gen/android/hardware/graphics/composer/2.2/BnHwComposer.h"
  },
  {
   "function_name" : "android::hardware::graphics::composer::V2_2::BnHwComposer::BnHwComposer",
   "linker_set_key" : "_ZN7android8hardware8graphics8composer4V2_212BnHwComposerC1ERKNS_2spINS3_9IComposerEEE",
   "parameters" :
   [
    {
     "is_this_ptr" : true,
     "referenced_type" : "_ZTIPN7android8hardware8graphics8composer4V2_212BnHwComposerE"
    },
    {
     "referenced_type" : "_ZTIRKN7android2spINS_8hardware8graphics8composer4V2_29IComposerEEE"
    }
   ],
   "return_type" : "_ZTIv",
   "source_file" : "/out/soong/.intermediates/hardware/interfaces/graphics/composer/2.2/android.hardware.graphics.composer@2.2_genc++_headers/gen/android/hardware/graphics/composer/2.2/BnHwComposer.h"
  },
  {
   "function_name" : "android::hardware::graphics::composer::V2_2::BnHwComposer::BnHwComposer",
   "linker_set_key" : "_ZN7android8hardware8graphics8composer4V2_212BnHwComposerC2ERKNS_2spINS3_9IComposerEEE",
   "parameters" :
   [
    {
     "is_this_ptr" : true,
     "referenced_type" : "_ZTIPN7android8hardware8graphics8composer4V2_212BnHwComposerE"
    },
    {
     "referenced_type" : "_ZTIRKN7android2spINS_8hardware8graphics8composer4V2_29IComposerEEE"
    }
   ],
   "return_type" : "_ZTIv",
   "source_file" : "/out/soong/.intermediates/hardware/interfaces/graphics/composer/2.2/android.hardware.graphics.composer@2.2_genc++_headers/gen/android/hardware/graphics/composer/2.2/BnHwComposer.h"
  },
  {
   "function_name" : "android::hardware::graphics::composer::V2_2::BnHwComposer::~BnHwComposer",
   "linker_set_key" : "_ZN7android8hardware8graphics8composer4V2_212BnHwComposerD0Ev",
   "parameters" :
   [
    {
     "is_this_ptr" : true,
     "referenced_type" : "_ZTIPN7android8hardware8graphics8composer4V2_212BnHwComposerE"
    }
   ],
   "return_type" : "_ZTIv",
   "source_file" : "/out/soong/.intermediates/hardware/interfaces/graphics/composer/2.2/android.hardware.graphics.composer@2.2_genc++_headers/gen/android/hardware/graphics/composer/2.2/BnHwComposer.h"
  },
  {
   "function_name" : "android::hardware::graphics::composer::V2_2::BnHwComposer::~BnHwComposer",
   "linker_set_key" : "_ZN7android8hardware8graphics8composer4V2_212BnHwComposerD1Ev",
   "parameters" :
   [
    {
     "is_this_ptr" : true,
     "referenced_type" : "_ZTIPN7android8hardware8graphics8composer4V2_212BnHwComposerE"
    }
   ],
   "return_type" : "_ZTIv",
   "source_file" : "/out/soong/.intermediates/hardware/interfaces/graphics/composer/2.2/android.hardware.graphics.composer@2.2_genc++_headers/gen/android/hardware/graphics/composer/2.2/BnHwComposer.h"
  },
  {
   "function_name" : "android::hardware::graphics::composer::V2_2::BnHwComposer::~BnHwComposer",
   "linker_set_key" : "_ZN7android8hardware8graphics8composer4V2_212BnHwComposerD2Ev",
   "parameters" :
   [
    {
     "is_this_ptr" : true,
     "referenced_type" : "_ZTIPN7android8hardware8graphics8composer4V2_212BnHwComposerE"
    }
   ],
   "return_type" : "_ZTIv",
   "source_file" : "/out/soong/.intermediates/hardware/interfaces/graphics/composer/2.2/android.hardware.graphics.composer@2.2_genc++_headers/gen/android/hardware/graphics/composer/2.2/BnHwComposer.h"
  },
  {
   "function_name" : "android::hardware::graphics::composer::V2_2::BpHwComposer::linkToDeath",
   "linker_set_key" : "_ZN7android8hardware8graphics8composer4V2_212BpHwComposer11linkToDeathERKNS_2spINS0_20hidl_death_recipientEEEy",
   "parameters" :
   [
    {
     "is_this_ptr" : true,
     "referenced_type" : "_ZTIPN7android8hardware8graphics8composer4V2_212BpHwComposerE"
    },
    {
     "referenced_type" : "_ZTIRKN7android2spINS_8hardware20hidl_death_recipientEEE"
    },
    {
     "referenced_type" : "_ZTIy"
    }
   ],
   "return_type" : "_ZTIN7android8hardware6ReturnIbEE",
   "source_file" : "/out/soong/.intermediates/hardware/interfaces/graphics/composer/2.2/android.hardware.graphics.composer@2.2_genc++_headers/gen/android/hardware/graphics/composer/2.2/BpHwComposer.h"
  },
  {
   "function_name" : "android::hardware::graphics::composer::V2_2::BpHwComposer::createClient",
   "linker_set_key" : "_ZN7android8hardware8graphics8composer4V2_212BpHwComposer12createClientENSt3__18functionIFvNS2_4V2_15ErrorERKNS_2spINS7_15IComposerClientEEEEEE",
   "parameters" :
   [
    {
     "is_this_ptr" : true,
     "referenced_type" : "_ZTIPN7android8hardware8graphics8composer4V2_212BpHwComposerE"
    },
    {
     "referenced_type" : "_ZTINSt3__18functionIFvN7android8hardware8graphics8composer4V2_15ErrorERKNS1_2spINS5_15IComposerClientEEEEEE"
    }
   ],
   "return_type" : "_ZTIN7android8hardware6ReturnIvEE",
   "source_file" : "/out/soong/.intermediates/hardware/interfaces/graphics/composer/2.2/android.hardware.graphics.composer@2.2_genc++_headers/gen/android/hardware/graphics/composer/2.2/BpHwComposer.h"
  },
  {
   "function_name" : "android::hardware::graphics::composer::V2_2::BpHwComposer::getDebugInfo",
   "linker_set_key" : "_ZN7android8hardware8graphics8composer4V2_212BpHwComposer12getDebugInfoENSt3__18functionIFvRKNS_4hidl4base4V1_09DebugInfoEEEE",
   "parameters" :
   [
    {
     "is_this_ptr" : true,
     "referenced_type" : "_ZTIPN7android8hardware8graphics8composer4V2_212BpHwComposerE"
    },
    {
     "referenced_type" : "_ZTINSt3__18functionIFvRKN7android4hidl4base4V1_09DebugInfoEEEE"
    }
   ],
   "return_type" : "_ZTIN7android8hardware6ReturnIvEE",
   "source_file" : "/out/soong/.intermediates/hardware/interfaces/graphics/composer/2.2/android.hardware.graphics.composer@2.2_genc++_headers/gen/android/hardware/graphics/composer/2.2/BpHwComposer.h"
  },
  {
   "function_name" : "android::hardware::graphics::composer::V2_2::BpHwComposer::getHashChain",
   "linker_set_key" : "_ZN7android8hardware8graphics8composer4V2_212BpHwComposer12getHashChainENSt3__18functionIFvRKNS0_8hidl_vecINS0_10hidl_arrayIhLj32EJEEEEEEEE",
   "parameters" :
   [
    {
     "is_this_ptr" : true,
     "referenced_type" : "_ZTIPN7android8hardware8graphics8composer4V2_212BpHwComposerE"
    },
    {
     "referenced_type" : "_ZTINSt3__18functionIFvRKN7android8hardware8hidl_vecINS2_10hidl_arrayIhLj32EJEEEEEEEE"
    }
   ],
   "return_type" : "_ZTIN7android8hardware6ReturnIvEE",
   "source_file" : "/out/soong/.intermediates/hardware/interfaces/graphics/composer/2.2/android.hardware.graphics.composer@2.2_genc++_headers/gen/android/hardware/graphics/composer/2.2/BpHwComposer.h"
  },
  {
   "function_name" : "android::hardware::graphics::composer::V2_2::BpHwComposer::dumpDebugInfo",
   "linker_set_key" : "_ZN7android8hardware8graphics8composer4V2_212BpHwComposer13dumpDebugInfoENSt3__18functionIFvRKNS0_11hidl_stringEEEE",
   "parameters" :
   [
    {
     "is_this_ptr" : true,
     "referenced_type" : "_ZTIPN7android8hardware8graphics8composer4V2_212BpHwComposerE"
    },
    {
     "referenced_type" : "_ZTINSt3__18functionIFvRKN7android8hardware11hidl_stringEEEE"
    }
   ],
   "return_type" : "_ZTIN7android8hardware6ReturnIvEE",
   "source_file" : "/out/soong/.intermediates/hardware/interfaces/graphics/composer/2.2/android.hardware.graphics.composer@2.2_genc++_headers/gen/android/hardware/graphics/composer/2.2/BpHwComposer.h"
  },
  {
   "function_name" : "android::hardware::graphics::composer::V2_2::BpHwComposer::unlinkToDeath",
   "linker_set_key" : "_ZN7android8hardware8graphics8composer4V2_212BpHwComposer13unlinkToDeathERKNS_2spINS0_20hidl_death_recipientEEE",
   "parameters" :
   [
    {
     "is_this_ptr" : true,
     "referenced_type" : "_ZTIPN7android8hardware8graphics8composer4V2_212BpHwComposerE"
    },
    {
     "referenced_type" : "_ZTIRKN7android2spINS_8hardware20hidl_death_recipientEEE"
    }
   ],
   "return_type" : "_ZTIN7android8hardware6ReturnIbEE",
   "source_file" : "/out/soong/.intermediates/hardware/interfaces/graphics/composer/2.2/android.hardware.graphics.composer@2.2_genc++_headers/gen/android/hardware/graphics/composer/2.2/BpHwComposer.h"
  },
  {
   "function_name" : "android::hardware::graphics::composer::V2_2::BpHwComposer::interfaceChain",
   "linker_set_key" : "_ZN7android8hardware8graphics8composer4V2_212BpHwComposer14interfaceChainENSt3__18functionIFvRKNS0_8hidl_vecINS0_11hidl_stringEEEEEE",
   "parameters" :
   [
    {
     "is_this_ptr" : true,
     "referenced_type" : "_ZTIPN7android8hardware8graphics8composer4V2_212BpHwComposerE"
    },
    {
     "referenced_type" : "_ZTINSt3__18functionIFvRKN7android8hardware8hidl_vecINS2_11hidl_stringEEEEEE"
    }
   ],
   "return_type" : "_ZTIN7android8hardware6ReturnIvEE",
   "source_file" : "/out/soong/.intermediates/hardware/interfaces/graphics/composer/2.2/android.hardware.graphics.composer@2.2_genc++_headers/gen/android/hardware/graphics/composer/2.2/BpHwComposer.h"
  },
  {
   "function_name" : "android::hardware::graphics::composer::V2_2::BpHwComposer::getCapabilities",
   "linker_set_key" : "_ZN7android8hardware8graphics8composer4V2_212BpHwComposer15getCapabilitiesENSt3__18functionIFvRKNS0_8hidl_vecINS2_4V2_19IComposer10CapabilityEEEEEE",
   "parameters" :
   [
    {
     "is_this_ptr" : true,
     "referenced_type" : "_ZTIPN7android8hardware8graphics8composer4V2_212BpHwComposerE"
    },
    {
     "referenced_type" : "_ZTINSt3__18functionIFvRKN7android8hardware8hidl_vecINS2_8graphics8composer4V2_19IComposer10CapabilityEEEEEE"
    }
   ],
   "return_type" : "_ZTIN7android8hardware6ReturnIvEE",
   "source_file" : "/out/soong/.intermediates/hardware/interfaces/graphics/composer/2.2/android.hardware.graphics.composer@2.2_genc++_headers/gen/android/hardware/graphics/composer/2.2/BpHwComposer.h"
  },
  {
   "function_name" : "android::hardware::graphics::composer::V2_2::BpHwComposer::onLastStrongRef",
   "linker_set_key" : "_ZN7android8hardware8graphics8composer4V2_212BpHwComposer15onLastStrongRefEPKv",
   "parameters" :
   [
    {
     "is_this_ptr" : true,
     "referenced_type" : "_ZTIPN7android8hardware8graphics8composer4V2_212BpHwComposerE"
    },
    {
     "referenced_type" : "_ZTIPKv"
    }
   ],
   "return_type" : "_ZTIv",
   "source_file" : "/out/soong/.intermediates/hardware/interfaces/graphics/composer/2.2/android.hardware.graphics.composer@2.2_genc++_headers/gen/android/hardware/graphics/composer/2.2/BpHwComposer.h"
  },
  {
   "function_name" : "android::hardware::graphics::composer::V2_2::BpHwComposer::interfaceDescriptor",
   "linker_set_key" : "_ZN7android8hardware8graphics8composer4V2_212BpHwComposer19interfaceDescriptorENSt3__18functionIFvRKNS0_11hidl_stringEEEE",
   "parameters" :
   [
    {
     "is_this_ptr" : true,
     "referenced_type" : "_ZTIPN7android8hardware8graphics8composer4V2_212BpHwComposerE"
    },
    {
     "referenced_type" : "_ZTINSt3__18functionIFvRKN7android8hardware11hidl_stringEEEE"
    }
   ],
   "return_type" : "_ZTIN7android8hardware6ReturnIvEE",
   "source_file" : "/out/soong/.intermediates/hardware/interfaces/graphics/composer/2.2/android.hardware.graphics.composer@2.2_genc++_headers/gen/android/hardware/graphics/composer/2.2/BpHwComposer.h"
  },
  {
   "function_name" : "android::hardware::graphics::composer::V2_2::BpHwComposer::notifySyspropsChanged",
   "linker_set_key" : "_ZN7android8hardware8graphics8composer4V2_212BpHwComposer21notifySyspropsChangedEv",
   "parameters" :
   [
    {
     "is_this_ptr" : true,
     "referenced_type" : "_ZTIPN7android8hardware8graphics8composer4V2_212BpHwComposerE"
    }
   ],
   "return_type" : "_ZTIN7android8hardware6ReturnIvEE",
   "source_file" : "/out/soong/.intermediates/hardware/interfaces/graphics/composer/2.2/android.hardware.graphics.composer@2.2_genc++_headers/gen/android/hardware/graphics/composer/2.2/BpHwComposer.h"
  },
  {
   "function_name" : "android::hardware::graphics::composer::V2_2::BpHwComposer::setHALInstrumentation",
   "linker_set_key" : "_ZN7android8hardware8graphics8composer4V2_212BpHwComposer21setHALInstrumentationEv",
   "parameters" :
   [
    {
     "is_this_ptr" : true,
     "referenced_type" : "_ZTIPN7android8hardware8graphics8composer4V2_212BpHwComposerE"
    }
   ],
   "return_type" : "_ZTIN7android8hardware6ReturnIvEE",
   "source_file" : "/out/soong/.intermediates/hardware/interfaces/graphics/composer/2.2/android.hardware.graphics.composer@2.2_genc++_headers/gen/android/hardware/graphics/composer/2.2/BpHwComposer.h"
  },
  {
   "function_name" : "android::hardware::graphics::composer::V2_2::BpHwComposer::ping",
   "linker_set_key" : "_ZN7android8hardware8graphics8composer4V2_212BpHwComposer4pingEv",
   "parameters" :
   [
    {
     "is_this_ptr" : true,
     "referenced_type" : "_ZTIPN7android8hardware8graphics8composer4V2_212BpHwComposerE"
    }
   ],
   "return_type" : "_ZTIN7android8hardware6ReturnIvEE",
   "source_file" : "/out/soong/.intermediates/hardware/interfaces/graphics/composer/2.2/android.hardware.graphics.composer@2.2_genc++_headers/gen/android/hardware/graphics/composer/2.2/BpHwComposer.h"
  },
  {
   "function_name" : "android::hardware::graphics::composer::V2_2::BpHwComposer::debug",
   "linker_set_key" : "_ZN7android8hardware8graphics8composer4V2_212BpHwComposer5debugERKNS0_11hidl_handleERKNS0_8hidl_vecINS0_11hidl_stringEEE",
   "parameters" :
   [
    {
     "is_this_ptr" : true,
     "referenced_type" : "_ZTIPN7android8hardware8graphics8composer4V2_212BpHwComposerE"
    },
    {
     "referenced_type" : "_ZTIRKN7android8hardware11hidl_handleE"
    },
    {
     "referenced_type" : "_ZTIRKN7android8hardware8hidl_vecINS0_11hidl_stringEEE"
    }
   ],
   "return_type" : "_ZTIN7android8hardware6ReturnIvEE",
   "source_file" : "/out/soong/.intermediates/hardware/interfaces/graphics/composer/2.2/android.hardware.graphics.composer@2.2_genc++_headers/gen/android/hardware/graphics/composer/2.2/BpHwComposer.h"
  },
  {
   "function_name" : "android::hardware::graphics::composer::V2_2::BpHwComposer::BpHwComposer",
   "linker_set_key" : "_ZN7android8hardware8graphics8composer4V2_212BpHwComposerC1ERKNS_2spINS0_7IBinderEEE",
   "parameters" :
   [
    {
     "is_this_ptr" : true,
     "referenced_type" : "_ZTIPN7android8hardware8graphics8composer4V2_212BpHwComposerE"
    },
    {
     "referenced_type" : "_ZTIRKN7android2spINS_8hardware7IBinderEEE"
    }
   ],
   "return_type" : "_ZTIv",
   "source_file" : "/out/soong/.intermediates/hardware/interfaces/graphics/composer/2.2/android.hardware.graphics.composer@2.2_genc++_headers/gen/android/hardware/graphics/composer/2.2/BpHwComposer.h"
  },
  {
   "function_name" : "android::hardware::graphics::composer::V2_2::BpHwComposer::BpHwComposer",
   "linker_set_key" : "_ZN7android8hardware8graphics8composer4V2_212BpHwComposerC2ERKNS_2spINS0_7IBinderEEE",
   "parameters" :
   [
    {
     "is_this_ptr" : true,
     "referenced_type" : "_ZTIPN7android8hardware8graphics8composer4V2_212BpHwComposerE"
    },
    {
     "referenced_type" : "_ZTIRKN7android2spINS_8hardware7IBinderEEE"
    }
   ],
   "return_type" : "_ZTIv",
   "source_file" : "/out/soong/.intermediates/hardware/interfaces/graphics/composer/2.2/android.hardware.graphics.composer@2.2_genc++_headers/gen/android/hardware/graphics/composer/2.2/BpHwComposer.h"
  },
  {
   "function_name" : "android::hardware::graphics::composer::V2_2::IComposerClient::getService",
   "linker_set_key" : "_ZN7android8hardware8graphics8composer4V2_215IComposerClient10getServiceERKNSt3__112basic_stringIcNS5_11char_traitsIcEENS5_9allocatorIcEEEEb",
   "parameters" :
   [
    {
     "default_arg" : true,
     "referenced_type" : "_ZTIRKNSt3__112basic_stringIcNS_11char_traitsIcEENS_9allocatorIcEEEE"
    },
    {
     "default_arg" : true,
     "referenced_type" : "_ZTIb"
    }
   ],
   "return_type" : "_ZTIN7android2spINS_8hardware8graphics8composer4V2_215IComposerClientEEE",
   "source_file" : "/out/soong/.intermediates/hardware/interfaces/graphics/composer/2.2/android.hardware.graphics.composer@2.2_genc++_headers/gen/android/hardware/graphics/composer/2.2/IComposerClient.h"
  },
  {
   "function_name" : "android::hardware::graphics::composer::V2_2::IComposerClient::linkToDeath",
   "linker_set_key" : "_ZN7android8hardware8graphics8composer4V2_215IComposerClient11linkToDeathERKNS_2spINS0_20hidl_death_recipientEEEy",
   "parameters" :
   [
    {
     "is_this_ptr" : true,
     "referenced_type" : "_ZTIPN7android8hardware8graphics8composer4V2_215IComposerClientE"
    },
    {
     "referenced_type" : "_ZTIRKN7android2spINS_8hardware20hidl_death_recipientEEE"
    },
    {
     "referenced_type" : "_ZTIy"
    }
   ],
   "return_type" : "_ZTIN7android8hardware6ReturnIbEE",
   "source_file" : "/out/soong/.intermediates/hardware/interfaces/graphics/composer/2.2/android.hardware.graphics.composer@2.2_genc++_headers/gen/android/hardware/graphics/composer/2.2/IComposerClient.h"
  },
  {
   "function_name" : "android::hardware::graphics::composer::V2_2::IComposerClient::getDebugInfo",
   "linker_set_key" : "_ZN7android8hardware8graphics8composer4V2_215IComposerClient12getDebugInfoENSt3__18functionIFvRKNS_4hidl4base4V1_09DebugInfoEEEE",
   "parameters" :
   [
    {
     "is_this_ptr" : true,
     "referenced_type" : "_ZTIPN7android8hardware8graphics8composer4V2_215IComposerClientE"
    },
    {
     "referenced_type" : "_ZTINSt3__18functionIFvRKN7android4hidl4base4V1_09DebugInfoEEEE"
    }
   ],
   "return_type" : "_ZTIN7android8hardware6ReturnIvEE",
   "source_file" : "/out/soong/.intermediates/hardware/interfaces/graphics/composer/2.2/android.hardware.graphics.composer@2.2_genc++_headers/gen/android/hardware/graphics/composer/2.2/IComposerClient.h"
  },
  {
   "function_name" : "android::hardware::graphics::composer::V2_2::IComposerClient::getHashChain",
   "linker_set_key" : "_ZN7android8hardware8graphics8composer4V2_215IComposerClient12getHashChainENSt3__18functionIFvRKNS0_8hidl_vecINS0_10hidl_arrayIhLj32EJEEEEEEEE",
   "parameters" :
   [
    {
     "is_this_ptr" : true,
     "referenced_type" : "_ZTIPN7android8hardware8graphics8composer4V2_215IComposerClientE"
    },
    {
     "referenced_type" : "_ZTINSt3__18functionIFvRKN7android8hardware8hidl_vecINS2_10hidl_arrayIhLj32EJEEEEEEEE"
    }
   ],
   "return_type" : "_ZTIN7android8hardware6ReturnIvEE",
   "source_file" : "/out/soong/.intermediates/hardware/interfaces/graphics/composer/2.2/android.hardware.graphics.composer@2.2_genc++_headers/gen/android/hardware/graphics/composer/2.2/IComposerClient.h"
  },
  {
   "function_name" : "android::hardware::graphics::composer::V2_2::IComposerClient::tryGetService",
   "linker_set_key" : "_ZN7android8hardware8graphics8composer4V2_215IComposerClient13tryGetServiceERKNSt3__112basic_stringIcNS5_11char_traitsIcEENS5_9allocatorIcEEEEb",
   "parameters" :
   [
    {
     "default_arg" : true,
     "referenced_type" : "_ZTIRKNSt3__112basic_stringIcNS_11char_traitsIcEENS_9allocatorIcEEEE"
    },
    {
     "default_arg" : true,
     "referenced_type" : "_ZTIb"
    }
   ],
   "return_type" : "_ZTIN7android2spINS_8hardware8graphics8composer4V2_215IComposerClientEEE",
   "source_file" : "/out/soong/.intermediates/hardware/interfaces/graphics/composer/2.2/android.hardware.graphics.composer@2.2_genc++_headers/gen/android/hardware/graphics/composer/2.2/IComposerClient.h"
  },
  {
   "function_name" : "android::hardware::graphics::composer::V2_2::IComposerClient::unlinkToDeath",
   "linker_set_key" : "_ZN7android8hardware8graphics8composer4V2_215IComposerClient13unlinkToDeathERKNS_2spINS0_20hidl_death_recipientEEE",
   "parameters" :
   [
    {
     "is_this_ptr" : true,
     "referenced_type" : "_ZTIPN7android8hardware8graphics8composer4V2_215IComposerClientE"
    },
    {
     "referenced_type" : "_ZTIRKN7android2spINS_8hardware20hidl_death_recipientEEE"
    }
   ],
   "return_type" : "_ZTIN7android8hardware6ReturnIbEE",
   "source_file" : "/out/soong/.intermediates/hardware/interfaces/graphics/composer/2.2/android.hardware.graphics.composer@2.2_genc++_headers/gen/android/hardware/graphics/composer/2.2/IComposerClient.h"
  },
  {
   "function_name" : "android::hardware::graphics::composer::V2_2::IComposerClient::interfaceChain",
   "linker_set_key" : "_ZN7android8hardware8graphics8composer4V2_215IComposerClient14interfaceChainENSt3__18functionIFvRKNS0_8hidl_vecINS0_11hidl_stringEEEEEE",
   "parameters" :
   [
    {
     "is_this_ptr" : true,
     "referenced_type" : "_ZTIPN7android8hardware8graphics8composer4V2_215IComposerClientE"
    },
    {
     "referenced_type" : "_ZTINSt3__18functionIFvRKN7android8hardware8hidl_vecINS2_11hidl_stringEEEEEE"
    }
   ],
   "return_type" : "_ZTIN7android8hardware6ReturnIvEE",
   "source_file" : "/out/soong/.intermediates/hardware/interfaces/graphics/composer/2.2/android.hardware.graphics.composer@2.2_genc++_headers/gen/android/hardware/graphics/composer/2.2/IComposerClient.h"
  },
  {
   "function_name" : "android::hardware::graphics::composer::V2_2::IComposerClient::registerAsService",
   "linker_set_key" : "_ZN7android8hardware8graphics8composer4V2_215IComposerClient17registerAsServiceERKNSt3__112basic_stringIcNS5_11char_traitsIcEENS5_9allocatorIcEEEE",
   "parameters" :
   [
    {
     "is_this_ptr" : true,
     "referenced_type" : "_ZTIPN7android8hardware8graphics8composer4V2_215IComposerClientE"
    },
    {
     "default_arg" : true,
     "referenced_type" : "_ZTIRKNSt3__112basic_stringIcNS_11char_traitsIcEENS_9allocatorIcEEEE"
    }
   ],
   "return_type" : "_ZTIi",
   "source_file" : "/out/soong/.intermediates/hardware/interfaces/graphics/composer/2.2/android.hardware.graphics.composer@2.2_genc++_headers/gen/android/hardware/graphics/composer/2.2/IComposerClient.h"
  },
  {
   "function_name" : "android::hardware::graphics::composer::V2_2::IComposerClient::interfaceDescriptor",
   "linker_set_key" : "_ZN7android8hardware8graphics8composer4V2_215IComposerClient19interfaceDescriptorENSt3__18functionIFvRKNS0_11hidl_stringEEEE",
   "parameters" :
   [
    {
     "is_this_ptr" : true,
     "referenced_type" : "_ZTIPN7android8hardware8graphics8composer4V2_215IComposerClientE"
    },
    {
     "referenced_type" : "_ZTINSt3__18functionIFvRKN7android8hardware11hidl_stringEEEE"
    }
   ],
   "return_type" : "_ZTIN7android8hardware6ReturnIvEE",
   "source_file" : "/out/soong/.intermediates/hardware/interfaces/graphics/composer/2.2/android.hardware.graphics.composer@2.2_genc++_headers/gen/android/hardware/graphics/composer/2.2/IComposerClient.h"
  },
  {
   "function_name" : "android::hardware::graphics::composer::V2_2::IComposerClient::notifySyspropsChanged",
   "linker_set_key" : "_ZN7android8hardware8graphics8composer4V2_215IComposerClient21notifySyspropsChangedEv",
   "parameters" :
   [
    {
     "is_this_ptr" : true,
     "referenced_type" : "_ZTIPN7android8hardware8graphics8composer4V2_215IComposerClientE"
    }
   ],
   "return_type" : "_ZTIN7android8hardware6ReturnIvEE",
   "source_file" : "/out/soong/.intermediates/hardware/interfaces/graphics/composer/2.2/android.hardware.graphics.composer@2.2_genc++_headers/gen/android/hardware/graphics/composer/2.2/IComposerClient.h"
  },
  {
   "function_name" : "android::hardware::graphics::composer::V2_2::IComposerClient::setHALInstrumentation",
   "linker_set_key" : "_ZN7android8hardware8graphics8composer4V2_215IComposerClient21setHALInstrumentationEv",
   "parameters" :
   [
    {
     "is_this_ptr" : true,
     "referenced_type" : "_ZTIPN7android8hardware8graphics8composer4V2_215IComposerClientE"
    }
   ],
   "return_type" : "_ZTIN7android8hardware6ReturnIvEE",
   "source_file" : "/out/soong/.intermediates/hardware/interfaces/graphics/composer/2.2/android.hardware.graphics.composer@2.2_genc++_headers/gen/android/hardware/graphics/composer/2.2/IComposerClient.h"
  },
  {
   "function_name" : "android::hardware::graphics::composer::V2_2::IComposerClient::registerForNotifications",
   "linker_set_key" : "_ZN7android8hardware8graphics8composer4V2_215IComposerClient24registerForNotificationsERKNSt3__112basic_stringIcNS5_11char_traitsIcEENS5_9allocatorIcEEEERKNS_2spINS_4hidl7manager4V1_020IServiceNotificationEEE",
   "parameters" :
   [
    {
     "referenced_type" : "_ZTIRKNSt3__112basic_stringIcNS_11char_traitsIcEENS_9allocatorIcEEEE"
    },
    {
     "referenced_type" : "_ZTIRKN7android2spINS_4hidl7manager4V1_020IServiceNotificationEEE"
    }
   ],
   "return_type" : "_ZTIb",
   "source_file" : "/out/soong/.intermediates/hardware/interfaces/graphics/composer/2.2/android.hardware.graphics.composer@2.2_genc++_headers/gen/android/hardware/graphics/composer/2.2/IComposerClient.h"
  },
  {
   "function_name" : "android::hardware::graphics::composer::V2_2::IComposerClient::ping",
   "linker_set_key" : "_ZN7android8hardware8graphics8composer4V2_215IComposerClient4pingEv",
   "parameters" :
   [
    {
     "is_this_ptr" : true,
     "referenced_type" : "_ZTIPN7android8hardware8graphics8composer4V2_215IComposerClientE"
    }
   ],
   "return_type" : "_ZTIN7android8hardware6ReturnIvEE",
   "source_file" : "/out/soong/.intermediates/hardware/interfaces/graphics/composer/2.2/android.hardware.graphics.composer@2.2_genc++_headers/gen/android/hardware/graphics/composer/2.2/IComposerClient.h"
  },
  {
   "function_name" : "android::hardware::graphics::composer::V2_2::IComposerClient::debug",
   "linker_set_key" : "_ZN7android8hardware8graphics8composer4V2_215IComposerClient5debugERKNS0_11hidl_handleERKNS0_8hidl_vecINS0_11hidl_stringEEE",
   "parameters" :
   [
    {
     "is_this_ptr" : true,
     "referenced_type" : "_ZTIPN7android8hardware8graphics8composer4V2_215IComposerClientE"
    },
    {
     "referenced_type" : "_ZTIRKN7android8hardware11hidl_handleE"
    },
    {
     "referenced_type" : "_ZTIRKN7android8hardware8hidl_vecINS0_11hidl_stringEEE"
    }
   ],
   "return_type" : "_ZTIN7android8hardware6ReturnIvEE",
   "source_file" : "/out/soong/.intermediates/hardware/interfaces/graphics/composer/2.2/android.hardware.graphics.composer@2.2_genc++_headers/gen/android/hardware/graphics/composer/2.2/IComposerClient.h"
  },
  {
   "function_name" : "android::hardware::graphics::composer::V2_2::IComposerClient::castFrom",
   "linker_set_key" : "_ZN7android8hardware8graphics8composer4V2_215IComposerClient8castFromERKNS_2spINS2_4V2_115IComposerClientEEEb",
   "parameters" :
   [
    {
     "referenced_type" : "_ZTIRKN7android2spINS_8hardware8graphics8composer4V2_115IComposerClientEEE"
    },
    {
     "default_arg" : true,
     "referenced_type" : "_ZTIb"
    }
   ],
   "return_type" : "_ZTIN7android8hardware6ReturnINS_2spINS0_8graphics8composer4V2_215IComposerClientEEEEE",
   "source_file" : "/out/soong/.intermediates/hardware/interfaces/graphics/composer/2.2/android.hardware.graphics.composer@2.2_genc++_headers/gen/android/hardware/graphics/composer/2.2/IComposerClient.h"
  },
  {
   "function_name" : "android::hardware::graphics::composer::V2_2::IComposerClient::castFrom",
   "linker_set_key" : "_ZN7android8hardware8graphics8composer4V2_215IComposerClient8castFromERKNS_2spINS_4hidl4base4V1_05IBaseEEEb",
   "parameters" :
   [
    {
     "referenced_type" : "_ZTIRKN7android2spINS_4hidl4base4V1_05IBaseEEE"
    },
    {
     "default_arg" : true,
     "referenced_type" : "_ZTIb"
    }
   ],
   "return_type" : "_ZTIN7android8hardware6ReturnINS_2spINS0_8graphics8composer4V2_215IComposerClientEEEEE",
   "source_file" : "/out/soong/.intermediates/hardware/interfaces/graphics/composer/2.2/android.hardware.graphics.composer@2.2_genc++_headers/gen/android/hardware/graphics/composer/2.2/IComposerClient.h"
  },
  {
   "function_name" : "android::hardware::graphics::composer::V2_2::IComposerClient::castFrom",
   "linker_set_key" : "_ZN7android8hardware8graphics8composer4V2_215IComposerClient8castFromERKNS_2spIS4_EEb",
   "parameters" :
   [
    {
     "referenced_type" : "_ZTIRKN7android2spINS_8hardware8graphics8composer4V2_215IComposerClientEEE"
    },
    {
     "default_arg" : true,
     "referenced_type" : "_ZTIb"
    }
   ],
   "return_type" : "_ZTIN7android8hardware6ReturnINS_2spINS0_8graphics8composer4V2_215IComposerClientEEEEE",
   "source_file" : "/out/soong/.intermediates/hardware/interfaces/graphics/composer/2.2/android.hardware.graphics.composer@2.2_genc++_headers/gen/android/hardware/graphics/composer/2.2/IComposerClient.h"
  },
  {
   "access" : "private",
   "function_name" : "android::hardware::graphics::composer::V2_2::BsComposerClient::addOnewayTask",
   "linker_set_key" : "_ZN7android8hardware8graphics8composer4V2_216BsComposerClient13addOnewayTaskENSt3__18functionIFvvEEE",
   "parameters" :
   [
    {
     "is_this_ptr" : true,
     "referenced_type" : "_ZTIPN7android8hardware8graphics8composer4V2_216BsComposerClientE"
    },
    {
     "referenced_type" : "_ZTINSt3__18functionIFvvEEE"
    }
   ],
   "return_type" : "_ZTIN7android8hardware6ReturnIvEE",
   "source_file" : "/out/soong/.intermediates/hardware/interfaces/graphics/composer/2.2/android.hardware.graphics.composer@2.2_genc++_headers/gen/android/hardware/graphics/composer/2.2/BsComposerClient.h"
  },
  {
   "function_name" : "android::hardware::graphics::composer::V2_2::BsComposerClient::BsComposerClient",
   "linker_set_key" : "_ZN7android8hardware8graphics8composer4V2_216BsComposerClientC1ENS_2spINS3_15IComposerClientEEE",
   "parameters" :
   [
    {
     "is_this_ptr" : true,
     "referenced_type" : "_ZTIPN7android8hardware8graphics8composer4V2_216BsComposerClientE"
    },
    {
     "referenced_type" : "_ZTIKN7android2spINS_8hardware8graphics8composer4V2_215IComposerClientEEE"
    }
   ],
   "return_type" : "_ZTIv",
   "source_file" : "/out/soong/.intermediates/hardware/interfaces/graphics/composer/2.2/android.hardware.graphics.composer@2.2_genc++_headers/gen/android/hardware/graphics/composer/2.2/BsComposerClient.h"
  },
  {
   "function_name" : "android::hardware::graphics::composer::V2_2::BsComposerClient::BsComposerClient",
   "linker_set_key" : "_ZN7android8hardware8graphics8composer4V2_216BsComposerClientC2ENS_2spINS3_15IComposerClientEEE",
   "parameters" :
   [
    {
     "is_this_ptr" : true,
     "referenced_type" : "_ZTIPN7android8hardware8graphics8composer4V2_216BsComposerClientE"
    },
    {
     "referenced_type" : "_ZTIKN7android2spINS_8hardware8graphics8composer4V2_215IComposerClientEEE"
    }
   ],
   "return_type" : "_ZTIv",
   "source_file" : "/out/soong/.intermediates/hardware/interfaces/graphics/composer/2.2/android.hardware.graphics.composer@2.2_genc++_headers/gen/android/hardware/graphics/composer/2.2/BsComposerClient.h"
  },
  {
   "function_name" : "android::hardware::graphics::composer::V2_2::BnHwComposerClient::onTransact",
   "linker_set_key" : "_ZN7android8hardware8graphics8composer4V2_218BnHwComposerClient10onTransactEjRKNS0_6ParcelEPS5_jNSt3__18functionIFvRS5_EEE",
   "parameters" :
   [
    {
     "is_this_ptr" : true,
     "referenced_type" : "_ZTIPN7android8hardware8graphics8composer4V2_218BnHwComposerClientE"
    },
    {
     "referenced_type" : "_ZTIj"
    },
    {
     "referenced_type" : "_ZTIRKN7android8hardware6ParcelE"
    },
    {
     "referenced_type" : "_ZTIPN7android8hardware6ParcelE"
    },
    {
     "default_arg" : true,
     "referenced_type" : "_ZTIj"
    },
    {
     "default_arg" : true,
     "referenced_type" : "_ZTINSt3__18functionIFvRN7android8hardware6ParcelEEEE"
    }
   ],
   "return_type" : "_ZTIi",
   "source_file" : "/out/soong/.intermediates/hardware/interfaces/graphics/composer/2.2/android.hardware.graphics.composer@2.2_genc++_headers/gen/android/hardware/graphics/composer/2.2/BnHwComposerClient.h"
  },
  {
   "access" : "private",
   "function_name" : "android::hardware::graphics::composer::V2_2::BnHwComposerClient::getDebugInfo",
   "linker_set_key" : "_ZN7android8hardware8graphics8composer4V2_218BnHwComposerClient12getDebugInfoENSt3__18functionIFvRKNS_4hidl4base4V1_09DebugInfoEEEE",
   "parameters" :
   [
    {
     "is_this_ptr" : true,
     "referenced_type" : "_ZTIPN7android8hardware8graphics8composer4V2_218BnHwComposerClientE"
    },
    {
     "referenced_type" : "_ZTINSt3__18functionIFvRKN7android4hidl4base4V1_09DebugInfoEEEE"
    }
   ],
   "return_type" : "_ZTIN7android8hardware6ReturnIvEE",
   "source_file" : "/out/soong/.intermediates/hardware/interfaces/graphics/composer/2.2/android.hardware.graphics.composer@2.2_genc++_headers/gen/android/hardware/graphics/composer/2.2/BnHwComposerClient.h"
  },
  {
   "function_name" : "android::hardware::graphics::composer::V2_2::BnHwComposerClient::_hidl_getRenderIntents",
   "linker_set_key" : "_ZN7android8hardware8graphics8composer4V2_218BnHwComposerClient22_hidl_getRenderIntentsEPNS_4hidl4base4V1_08BnHwBaseERKNS0_6ParcelEPSA_NSt3__18functionIFvRSA_EEE",
   "parameters" :
   [
    {
     "referenced_type" : "_ZTIPN7android4hidl4base4V1_08BnHwBaseE"
    },
    {
     "referenced_type" : "_ZTIRKN7android8hardware6ParcelE"
    },
    {
     "referenced_type" : "_ZTIPN7android8hardware6ParcelE"
    },
    {
     "referenced_type" : "_ZTINSt3__18functionIFvRN7android8hardware6ParcelEEEE"
    }
   ],
   "return_type" : "_ZTIi",
   "source_file" : "/out/soong/.intermediates/hardware/interfaces/graphics/composer/2.2/android.hardware.graphics.composer@2.2_genc++_headers/gen/android/hardware/graphics/composer/2.2/BnHwComposerClient.h"
  },
  {
   "function_name" : "android::hardware::graphics::composer::V2_2::BnHwComposerClient::_hidl_setColorMode_2_2",
   "linker_set_key" : "_ZN7android8hardware8graphics8composer4V2_218BnHwComposerClient22_hidl_setColorMode_2_2EPNS_4hidl4base4V1_08BnHwBaseERKNS0_6ParcelEPSA_NSt3__18functionIFvRSA_EEE",
   "parameters" :
   [
    {
     "referenced_type" : "_ZTIPN7android4hidl4base4V1_08BnHwBaseE"
    },
    {
     "referenced_type" : "_ZTIRKN7android8hardware6ParcelE"
    },
    {
     "referenced_type" : "_ZTIPN7android8hardware6ParcelE"
    },
    {
     "referenced_type" : "_ZTINSt3__18functionIFvRN7android8hardware6ParcelEEEE"
    }
   ],
   "return_type" : "_ZTIi",
   "source_file" : "/out/soong/.intermediates/hardware/interfaces/graphics/composer/2.2/android.hardware.graphics.composer@2.2_genc++_headers/gen/android/hardware/graphics/composer/2.2/BnHwComposerClient.h"
  },
  {
   "function_name" : "android::hardware::graphics::composer::V2_2::BnHwComposerClient::_hidl_setPowerMode_2_2",
   "linker_set_key" : "_ZN7android8hardware8graphics8composer4V2_218BnHwComposerClient22_hidl_setPowerMode_2_2EPNS_4hidl4base4V1_08BnHwBaseERKNS0_6ParcelEPSA_NSt3__18functionIFvRSA_EEE",
   "parameters" :
   [
    {
     "referenced_type" : "_ZTIPN7android4hidl4base4V1_08BnHwBaseE"
    },
    {
     "referenced_type" : "_ZTIRKN7android8hardware6ParcelE"
    },
    {
     "referenced_type" : "_ZTIPN7android8hardware6ParcelE"
    },
    {
     "referenced_type" : "_ZTINSt3__18functionIFvRN7android8hardware6ParcelEEEE"
    }
   ],
   "return_type" : "_ZTIi",
   "source_file" : "/out/soong/.intermediates/hardware/interfaces/graphics/composer/2.2/android.hardware.graphics.composer@2.2_genc++_headers/gen/android/hardware/graphics/composer/2.2/BnHwComposerClient.h"
  },
  {
   "function_name" : "android::hardware::graphics::composer::V2_2::BnHwComposerClient::_hidl_getColorModes_2_2",
   "linker_set_key" : "_ZN7android8hardware8graphics8composer4V2_218BnHwComposerClient23_hidl_getColorModes_2_2EPNS_4hidl4base4V1_08BnHwBaseERKNS0_6ParcelEPSA_NSt3__18functionIFvRSA_EEE",
   "parameters" :
   [
    {
     "referenced_type" : "_ZTIPN7android4hidl4base4V1_08BnHwBaseE"
    },
    {
     "referenced_type" : "_ZTIRKN7android8hardware6ParcelE"
    },
    {
     "referenced_type" : "_ZTIPN7android8hardware6ParcelE"
    },
    {
     "referenced_type" : "_ZTINSt3__18functionIFvRN7android8hardware6ParcelEEEE"
    }
   ],
   "return_type" : "_ZTIi",
   "source_file" : "/out/soong/.intermediates/hardware/interfaces/graphics/composer/2.2/android.hardware.graphics.composer@2.2_genc++_headers/gen/android/hardware/graphics/composer/2.2/BnHwComposerClient.h"
  },
  {
   "function_name" : "android::hardware::graphics::composer::V2_2::BnHwComposerClient::_hidl_setReadbackBuffer",
   "linker_set_key" : "_ZN7android8hardware8graphics8composer4V2_218BnHwComposerClient23_hidl_setReadbackBufferEPNS_4hidl4base4V1_08BnHwBaseERKNS0_6ParcelEPSA_NSt3__18functionIFvRSA_EEE",
   "parameters" :
   [
    {
     "referenced_type" : "_ZTIPN7android4hidl4base4V1_08BnHwBaseE"
    },
    {
     "referenced_type" : "_ZTIRKN7android8hardware6ParcelE"
    },
    {
     "referenced_type" : "_ZTIPN7android8hardware6ParcelE"
    },
    {
     "referenced_type" : "_ZTINSt3__18functionIFvRN7android8hardware6ParcelEEEE"
    }
   ],
   "return_type" : "_ZTIi",
   "source_file" : "/out/soong/.intermediates/hardware/interfaces/graphics/composer/2.2/android.hardware.graphics.composer@2.2_genc++_headers/gen/android/hardware/graphics/composer/2.2/BnHwComposerClient.h"
  },
  {
   "function_name" : "android::hardware::graphics::composer::V2_2::BnHwComposerClient::_hidl_executeCommands_2_2",
   "linker_set_key" : "_ZN7android8hardware8graphics8composer4V2_218BnHwComposerClient25_hidl_executeCommands_2_2EPNS_4hidl4base4V1_08BnHwBaseERKNS0_6ParcelEPSA_NSt3__18functionIFvRSA_EEE",
   "parameters" :
   [
    {
     "referenced_type" : "_ZTIPN7android4hidl4base4V1_08BnHwBaseE"
    },
    {
     "referenced_type" : "_ZTIRKN7android8hardware6ParcelE"
    },
    {
     "referenced_type" : "_ZTIPN7android8hardware6ParcelE"
    },
    {
     "referenced_type" : "_ZTINSt3__18functionIFvRN7android8hardware6ParcelEEEE"
    }
   ],
   "return_type" : "_ZTIi",
   "source_file" : "/out/soong/.intermediates/hardware/interfaces/graphics/composer/2.2/android.hardware.graphics.composer@2.2_genc++_headers/gen/android/hardware/graphics/composer/2.2/BnHwComposerClient.h"
  },
  {
   "function_name" : "android::hardware::graphics::composer::V2_2::BnHwComposerClient::_hidl_getReadbackBufferFence",
   "linker_set_key" : "_ZN7android8hardware8graphics8composer4V2_218BnHwComposerClient28_hidl_getReadbackBufferFenceEPNS_4hidl4base4V1_08BnHwBaseERKNS0_6ParcelEPSA_NSt3__18functionIFvRSA_EEE",
   "parameters" :
   [
    {
     "referenced_type" : "_ZTIPN7android4hidl4base4V1_08BnHwBaseE"
    },
    {
     "referenced_type" : "_ZTIRKN7android8hardware6ParcelE"
    },
    {
     "referenced_type" : "_ZTIPN7android8hardware6ParcelE"
    },
    {
     "referenced_type" : "_ZTINSt3__18functionIFvRN7android8hardware6ParcelEEEE"
    }
   ],
   "return_type" : "_ZTIi",
   "source_file" : "/out/soong/.intermediates/hardware/interfaces/graphics/composer/2.2/android.hardware.graphics.composer@2.2_genc++_headers/gen/android/hardware/graphics/composer/2.2/BnHwComposerClient.h"
  },
  {
   "function_name" : "android::hardware::graphics::composer::V2_2::BnHwComposerClient::_hidl_getPerFrameMetadataKeys",
   "linker_set_key" : "_ZN7android8hardware8graphics8composer4V2_218BnHwComposerClient29_hidl_getPerFrameMetadataKeysEPNS_4hidl4base4V1_08BnHwBaseERKNS0_6ParcelEPSA_NSt3__18functionIFvRSA_EEE",
   "parameters" :
   [
    {
     "referenced_type" : "_ZTIPN7android4hidl4base4V1_08BnHwBaseE"
    },
    {
     "referenced_type" : "_ZTIRKN7android8hardware6ParcelE"
    },
    {
     "referenced_type" : "_ZTIPN7android8hardware6ParcelE"
    },
    {
     "referenced_type" : "_ZTINSt3__18functionIFvRN7android8hardware6ParcelEEEE"
    }
   ],
   "return_type" : "_ZTIi",
   "source_file" : "/out/soong/.intermediates/hardware/interfaces/graphics/composer/2.2/android.hardware.graphics.composer@2.2_genc++_headers/gen/android/hardware/graphics/composer/2.2/BnHwComposerClient.h"
  },
  {
   "function_name" : "android::hardware::graphics::composer::V2_2::BnHwComposerClient::_hidl_createVirtualDisplay_2_2",
   "linker_set_key" : "_ZN7android8hardware8graphics8composer4V2_218BnHwComposerClient30_hidl_createVirtualDisplay_2_2EPNS_4hidl4base4V1_08BnHwBaseERKNS0_6ParcelEPSA_NSt3__18functionIFvRSA_EEE",
   "parameters" :
   [
    {
     "referenced_type" : "_ZTIPN7android4hidl4base4V1_08BnHwBaseE"
    },
    {
     "referenced_type" : "_ZTIRKN7android8hardware6ParcelE"
    },
    {
     "referenced_type" : "_ZTIPN7android8hardware6ParcelE"
    },
    {
     "referenced_type" : "_ZTINSt3__18functionIFvRN7android8hardware6ParcelEEEE"
    }
   ],
   "return_type" : "_ZTIi",
   "source_file" : "/out/soong/.intermediates/hardware/interfaces/graphics/composer/2.2/android.hardware.graphics.composer@2.2_genc++_headers/gen/android/hardware/graphics/composer/2.2/BnHwComposerClient.h"
  },
  {
   "function_name" : "android::hardware::graphics::composer::V2_2::BnHwComposerClient::_hidl_getClientTargetSupport_2_2",
   "linker_set_key" : "_ZN7android8hardware8graphics8composer4V2_218BnHwComposerClient32_hidl_getClientTargetSupport_2_2EPNS_4hidl4base4V1_08BnHwBaseERKNS0_6ParcelEPSA_NSt3__18functionIFvRSA_EEE",
   "parameters" :
   [
    {
     "referenced_type" : "_ZTIPN7android4hidl4base4V1_08BnHwBaseE"
    },
    {
     "referenced_type" : "_ZTIRKN7android8hardware6ParcelE"
    },
    {
     "referenced_type" : "_ZTIPN7android8hardware6ParcelE"
    },
    {
     "referenced_type" : "_ZTINSt3__18functionIFvRN7android8hardware6ParcelEEEE"
    }
   ],
   "return_type" : "_ZTIi",
   "source_file" : "/out/soong/.intermediates/hardware/interfaces/graphics/composer/2.2/android.hardware.graphics.composer@2.2_genc++_headers/gen/android/hardware/graphics/composer/2.2/BnHwComposerClient.h"
  },
  {
   "function_name" : "android::hardware::graphics::composer::V2_2::BnHwComposerClient::_hidl_getReadbackBufferAttributes",
   "linker_set_key" : "_ZN7android8hardware8graphics8composer4V2_218BnHwComposerClient33_hidl_getReadbackBufferAttributesEPNS_4hidl4base4V1_08BnHwBaseERKNS0_6ParcelEPSA_NSt3__18functionIFvRSA_EEE",
   "parameters" :
   [
    {
     "referenced_type" : "_ZTIPN7android4hidl4base4V1_08BnHwBaseE"
    },
    {
     "referenced_type" : "_ZTIRKN7android8hardware6ParcelE"
    },
    {
     "referenced_type" : "_ZTIPN7android8hardware6ParcelE"
    },
    {
     "referenced_type" : "_ZTINSt3__18functionIFvRN7android8hardware6ParcelEEEE"
    }
   ],
   "return_type" : "_ZTIi",
   "source_file" : "/out/soong/.intermediates/hardware/interfaces/graphics/composer/2.2/android.hardware.graphics.composer@2.2_genc++_headers/gen/android/hardware/graphics/composer/2.2/BnHwComposerClient.h"
  },
  {
   "function_name" : "android::hardware::graphics::composer::V2_2::BnHwComposerClient::_hidl_getDataspaceSaturationMatrix",
   "linker_set_key" : "_ZN7android8hardware8graphics8composer4V2_218BnHwComposerClient34_hidl_getDataspaceSaturationMatrixEPNS_4hidl4base4V1_08BnHwBaseERKNS0_6ParcelEPSA_NSt3__18functionIFvRSA_EEE",
   "parameters" :
   [
    {
     "referenced_type" : "_ZTIPN7android4hidl4base4V1_08BnHwBaseE"
    },
    {
     "referenced_type" : "_ZTIRKN7android8hardware6ParcelE"
    },
    {
     "referenced_type" : "_ZTIPN7android8hardware6ParcelE"
    },
    {
     "referenced_type" : "_ZTINSt3__18functionIFvRN7android8hardware6ParcelEEEE"
    }
   ],
   "return_type" : "_ZTIi",
   "source_file" : "/out/soong/.intermediates/hardware/interfaces/graphics/composer/2.2/android.hardware.graphics.composer@2.2_genc++_headers/gen/android/hardware/graphics/composer/2.2/BnHwComposerClient.h"
  },
  {
   "access" : "private",
   "function_name" : "android::hardware::graphics::composer::V2_2::BnHwComposerClient::ping",
   "linker_set_key" : "_ZN7android8hardware8graphics8composer4V2_218BnHwComposerClient4pingEv",
   "parameters" :
   [
    {
     "is_this_ptr" : true,
     "referenced_type" : "_ZTIPN7android8hardware8graphics8composer4V2_218BnHwComposerClientE"
    }
   ],
   "return_type" : "_ZTIN7android8hardware6ReturnIvEE",
   "source_file" : "/out/soong/.intermediates/hardware/interfaces/graphics/composer/2.2/android.hardware.graphics.composer@2.2_genc++_headers/gen/android/hardware/graphics/composer/2.2/BnHwComposerClient.h"
  },
  {
   "function_name" : "android::hardware::graphics::composer::V2_2::BnHwComposerClient::BnHwComposerClient",
   "linker_set_key" : "_ZN7android8hardware8graphics8composer4V2_218BnHwComposerClientC1ERKNS_2spINS3_15IComposerClientEEE",
   "parameters" :
   [
    {
     "is_this_ptr" : true,
     "referenced_type" : "_ZTIPN7android8hardware8graphics8composer4V2_218BnHwComposerClientE"
    },
    {
     "referenced_type" : "_ZTIRKN7android2spINS_8hardware8graphics8composer4V2_215IComposerClientEEE"
    }
   ],
   "return_type" : "_ZTIv",
   "source_file" : "/out/soong/.intermediates/hardware/interfaces/graphics/composer/2.2/android.hardware.graphics.composer@2.2_genc++_headers/gen/android/hardware/graphics/composer/2.2/BnHwComposerClient.h"
  },
  {
   "function_name" : "android::hardware::graphics::composer::V2_2::BnHwComposerClient::BnHwComposerClient",
   "linker_set_key" : "_ZN7android8hardware8graphics8composer4V2_218BnHwComposerClientC2ERKNS_2spINS3_15IComposerClientEEE",
   "parameters" :
   [
    {
     "is_this_ptr" : true,
     "referenced_type" : "_ZTIPN7android8hardware8graphics8composer4V2_218BnHwComposerClientE"
    },
    {
     "referenced_type" : "_ZTIRKN7android2spINS_8hardware8graphics8composer4V2_215IComposerClientEEE"
    }
   ],
   "return_type" : "_ZTIv",
   "source_file" : "/out/soong/.intermediates/hardware/interfaces/graphics/composer/2.2/android.hardware.graphics.composer@2.2_genc++_headers/gen/android/hardware/graphics/composer/2.2/BnHwComposerClient.h"
  },
  {
   "function_name" : "android::hardware::graphics::composer::V2_2::BnHwComposerClient::~BnHwComposerClient",
   "linker_set_key" : "_ZN7android8hardware8graphics8composer4V2_218BnHwComposerClientD0Ev",
   "parameters" :
   [
    {
     "is_this_ptr" : true,
     "referenced_type" : "_ZTIPN7android8hardware8graphics8composer4V2_218BnHwComposerClientE"
    }
   ],
   "return_type" : "_ZTIv",
   "source_file" : "/out/soong/.intermediates/hardware/interfaces/graphics/composer/2.2/android.hardware.graphics.composer@2.2_genc++_headers/gen/android/hardware/graphics/composer/2.2/BnHwComposerClient.h"
  },
  {
   "function_name" : "android::hardware::graphics::composer::V2_2::BnHwComposerClient::~BnHwComposerClient",
   "linker_set_key" : "_ZN7android8hardware8graphics8composer4V2_218BnHwComposerClientD1Ev",
   "parameters" :
   [
    {
     "is_this_ptr" : true,
     "referenced_type" : "_ZTIPN7android8hardware8graphics8composer4V2_218BnHwComposerClientE"
    }
   ],
   "return_type" : "_ZTIv",
   "source_file" : "/out/soong/.intermediates/hardware/interfaces/graphics/composer/2.2/android.hardware.graphics.composer@2.2_genc++_headers/gen/android/hardware/graphics/composer/2.2/BnHwComposerClient.h"
  },
  {
   "function_name" : "android::hardware::graphics::composer::V2_2::BnHwComposerClient::~BnHwComposerClient",
   "linker_set_key" : "_ZN7android8hardware8graphics8composer4V2_218BnHwComposerClientD2Ev",
   "parameters" :
   [
    {
     "is_this_ptr" : true,
     "referenced_type" : "_ZTIPN7android8hardware8graphics8composer4V2_218BnHwComposerClientE"
    }
   ],
   "return_type" : "_ZTIv",
   "source_file" : "/out/soong/.intermediates/hardware/interfaces/graphics/composer/2.2/android.hardware.graphics.composer@2.2_genc++_headers/gen/android/hardware/graphics/composer/2.2/BnHwComposerClient.h"
  },
  {
   "function_name" : "android::hardware::graphics::composer::V2_2::BpHwComposerClient::createLayer",
   "linker_set_key" : "_ZN7android8hardware8graphics8composer4V2_218BpHwComposerClient11createLayerEyjNSt3__18functionIFvNS2_4V2_15ErrorEyEEE",
   "parameters" :
   [
    {
     "is_this_ptr" : true,
     "referenced_type" : "_ZTIPN7android8hardware8graphics8composer4V2_218BpHwComposerClientE"
    },
    {
     "referenced_type" : "_ZTIy"
    },
    {
     "referenced_type" : "_ZTIj"
    },
    {
     "referenced_type" : "_ZTINSt3__18functionIFvN7android8hardware8graphics8composer4V2_15ErrorEyEEE"
    }
   ],
   "return_type" : "_ZTIN7android8hardware6ReturnIvEE",
   "source_file" : "/out/soong/.intermediates/hardware/interfaces/graphics/composer/2.2/android.hardware.graphics.composer@2.2_genc++_headers/gen/android/hardware/graphics/composer/2.2/BpHwComposerClient.h"
  },
  {
   "function_name" : "android::hardware::graphics::composer::V2_2::BpHwComposerClient::linkToDeath",
   "linker_set_key" : "_ZN7android8hardware8graphics8composer4V2_218BpHwComposerClient11linkToDeathERKNS_2spINS0_20hidl_death_recipientEEEy",
   "parameters" :
   [
    {
     "is_this_ptr" : true,
     "referenced_type" : "_ZTIPN7android8hardware8graphics8composer4V2_218BpHwComposerClientE"
    },
    {
     "referenced_type" : "_ZTIRKN7android2spINS_8hardware20hidl_death_recipientEEE"
    },
    {
     "referenced_type" : "_ZTIy"
    }
   ],
   "return_type" : "_ZTIN7android8hardware6ReturnIbEE",
   "source_file" : "/out/soong/.intermediates/hardware/interfaces/graphics/composer/2.2/android.hardware.graphics.composer@2.2_genc++_headers/gen/android/hardware/graphics/composer/2.2/BpHwComposerClient.h"
  },
  {
   "function_name" : "android::hardware::graphics::composer::V2_2::BpHwComposerClient::destroyLayer",
   "linker_set_key" : "_ZN7android8hardware8graphics8composer4V2_218BpHwComposerClient12destroyLayerEyy",
   "parameters" :
   [
    {
     "is_this_ptr" : true,
     "referenced_type" : "_ZTIPN7android8hardware8graphics8composer4V2_218BpHwComposerClientE"
    },
    {
     "referenced_type" : "_ZTIy"
    },
    {
     "referenced_type" : "_ZTIy"
    }
   ],
   "return_type" : "_ZTIN7android8hardware6ReturnINS0_8graphics8composer4V2_15ErrorEEE",
   "source_file" : "/out/soong/.intermediates/hardware/interfaces/graphics/composer/2.2/android.hardware.graphics.composer@2.2_genc++_headers/gen/android/hardware/graphics/composer/2.2/BpHwComposerClient.h"
  },
  {
   "function_name" : "android::hardware::graphics::composer::V2_2::BpHwComposerClient::getDebugInfo",
   "linker_set_key" : "_ZN7android8hardware8graphics8composer4V2_218BpHwComposerClient12getDebugInfoENSt3__18functionIFvRKNS_4hidl4base4V1_09DebugInfoEEEE",
   "parameters" :
   [
    {
     "is_this_ptr" : true,
     "referenced_type" : "_ZTIPN7android8hardware8graphics8composer4V2_218BpHwComposerClientE"
    },
    {
     "referenced_type" : "_ZTINSt3__18functionIFvRKN7android4hidl4base4V1_09DebugInfoEEEE"
    }
   ],
   "return_type" : "_ZTIN7android8hardware6ReturnIvEE",
   "source_file" : "/out/soong/.intermediates/hardware/interfaces/graphics/composer/2.2/android.hardware.graphics.composer@2.2_genc++_headers/gen/android/hardware/graphics/composer/2.2/BpHwComposerClient.h"
  },
  {
   "function_name" : "android::hardware::graphics::composer::V2_2::BpHwComposerClient::getHashChain",
   "linker_set_key" : "_ZN7android8hardware8graphics8composer4V2_218BpHwComposerClient12getHashChainENSt3__18functionIFvRKNS0_8hidl_vecINS0_10hidl_arrayIhLj32EJEEEEEEEE",
   "parameters" :
   [
    {
     "is_this_ptr" : true,
     "referenced_type" : "_ZTIPN7android8hardware8graphics8composer4V2_218BpHwComposerClientE"
    },
    {
     "referenced_type" : "_ZTINSt3__18functionIFvRKN7android8hardware8hidl_vecINS2_10hidl_arrayIhLj32EJEEEEEEEE"
    }
   ],
   "return_type" : "_ZTIN7android8hardware6ReturnIvEE",
   "source_file" : "/out/soong/.intermediates/hardware/interfaces/graphics/composer/2.2/android.hardware.graphics.composer@2.2_genc++_headers/gen/android/hardware/graphics/composer/2.2/BpHwComposerClient.h"
  },
  {
   "function_name" : "android::hardware::graphics::composer::V2_2::BpHwComposerClient::setColorMode",
   "linker_set_key" : "_ZN7android8hardware8graphics8composer4V2_218BpHwComposerClient12setColorModeEyNS1_6common4V1_09ColorModeE",
   "parameters" :
   [
    {
     "is_this_ptr" : true,
     "referenced_type" : "_ZTIPN7android8hardware8graphics8composer4V2_218BpHwComposerClientE"
    },
    {
     "referenced_type" : "_ZTIy"
    },
    {
     "referenced_type" : "_ZTIN7android8hardware8graphics6common4V1_09ColorModeE"
    }
   ],
   "return_type" : "_ZTIN7android8hardware6ReturnINS0_8graphics8composer4V2_15ErrorEEE",
   "source_file" : "/out/soong/.intermediates/hardware/interfaces/graphics/composer/2.2/android.hardware.graphics.composer@2.2_genc++_headers/gen/android/hardware/graphics/composer/2.2/BpHwComposerClient.h"
  },
  {
   "function_name" : "android::hardware::graphics::composer::V2_2::BpHwComposerClient::setPowerMode",
   "linker_set_key" : "_ZN7android8hardware8graphics8composer4V2_218BpHwComposerClient12setPowerModeEyNS2_4V2_115IComposerClient9PowerModeE",
   "parameters" :
   [
    {
     "is_this_ptr" : true,
     "referenced_type" : "_ZTIPN7android8hardware8graphics8composer4V2_218BpHwComposerClientE"
    },
    {
     "referenced_type" : "_ZTIy"
    },
    {
     "referenced_type" : "_ZTIN7android8hardware8graphics8composer4V2_115IComposerClient9PowerModeE"
    }
   ],
   "return_type" : "_ZTIN7android8hardware6ReturnINS0_8graphics8composer4V2_15ErrorEEE",
   "source_file" : "/out/soong/.intermediates/hardware/interfaces/graphics/composer/2.2/android.hardware.graphics.composer@2.2_genc++_headers/gen/android/hardware/graphics/composer/2.2/BpHwComposerClient.h"
  },
  {
   "function_name" : "android::hardware::graphics::composer::V2_2::BpHwComposerClient::getColorModes",
   "linker_set_key" : "_ZN7android8hardware8graphics8composer4V2_218BpHwComposerClient13getColorModesEyNSt3__18functionIFvNS2_4V2_15ErrorERKNS0_8hidl_vecINS1_6common4V1_09ColorModeEEEEEE",
   "parameters" :
   [
    {
     "is_this_ptr" : true,
     "referenced_type" : "_ZTIPN7android8hardware8graphics8composer4V2_218BpHwComposerClientE"
    },
    {
     "referenced_type" : "_ZTIy"
    },
    {
     "referenced_type" : "_ZTINSt3__18functionIFvN7android8hardware8graphics8composer4V2_15ErrorERKNS2_8hidl_vecINS3_6common4V1_09ColorModeEEEEEE"
    }
   ],
   "return_type" : "_ZTIN7android8hardware6ReturnIvEE",
   "source_file" : "/out/soong/.intermediates/hardware/interfaces/graphics/composer/2.2/android.hardware.graphics.composer@2.2_genc++_headers/gen/android/hardware/graphics/composer/2.2/BpHwComposerClient.h"
  },
  {
   "function_name" : "android::hardware::graphics::composer::V2_2::BpHwComposerClient::unlinkToDeath",
   "linker_set_key" : "_ZN7android8hardware8graphics8composer4V2_218BpHwComposerClient13unlinkToDeathERKNS_2spINS0_20hidl_death_recipientEEE",
   "parameters" :
   [
    {
     "is_this_ptr" : true,
     "referenced_type" : "_ZTIPN7android8hardware8graphics8composer4V2_218BpHwComposerClientE"
    },
    {
     "referenced_type" : "_ZTIRKN7android2spINS_8hardware20hidl_death_recipientEEE"
    }
   ],
   "return_type" : "_ZTIN7android8hardware6ReturnIbEE",
   "source_file" : "/out/soong/.intermediates/hardware/interfaces/graphics/composer/2.2/android.hardware.graphics.composer@2.2_genc++_headers/gen/android/hardware/graphics/composer/2.2/BpHwComposerClient.h"
  },
  {
   "function_name" : "android::hardware::graphics::composer::V2_2::BpHwComposerClient::getDisplayName",
   "linker_set_key" : "_ZN7android8hardware8graphics8composer4V2_218BpHwComposerClient14getDisplayNameEyNSt3__18functionIFvNS2_4V2_15ErrorERKNS0_11hidl_stringEEEE",
   "parameters" :
   [
    {
     "is_this_ptr" : true,
     "referenced_type" : "_ZTIPN7android8hardware8graphics8composer4V2_218BpHwComposerClientE"
    },
    {
     "referenced_type" : "_ZTIy"
    },
    {
     "referenced_type" : "_ZTINSt3__18functionIFvN7android8hardware8graphics8composer4V2_15ErrorERKNS2_11hidl_stringEEEE"
    }
   ],
   "return_type" : "_ZTIN7android8hardware6ReturnIvEE",
   "source_file" : "/out/soong/.intermediates/hardware/interfaces/graphics/composer/2.2/android.hardware.graphics.composer@2.2_genc++_headers/gen/android/hardware/graphics/composer/2.2/BpHwComposerClient.h"
  },
  {
   "function_name" : "android::hardware::graphics::composer::V2_2::BpHwComposerClient::getDisplayType",
   "linker_set_key" : "_ZN7android8hardware8graphics8composer4V2_218BpHwComposerClient14getDisplayTypeEyNSt3__18functionIFvNS2_4V2_15ErrorENS7_15IComposerClient11DisplayTypeEEEE",
   "parameters" :
   [
    {
     "is_this_ptr" : true,
     "referenced_type" : "_ZTIPN7android8hardware8graphics8composer4V2_218BpHwComposerClientE"
    },
    {
     "referenced_type" : "_ZTIy"
    },
    {
     "referenced_type" : "_ZTINSt3__18functionIFvN7android8hardware8graphics8composer4V2_15ErrorENS5_15IComposerClient11DisplayTypeEEEE"
    }
   ],
   "return_type" : "_ZTIN7android8hardware6ReturnIvEE",
   "source_file" : "/out/soong/.intermediates/hardware/interfaces/graphics/composer/2.2/android.hardware.graphics.composer@2.2_genc++_headers/gen/android/hardware/graphics/composer/2.2/BpHwComposerClient.h"
  },
  {
   "function_name" : "android::hardware::graphics::composer::V2_2::BpHwComposerClient::getDozeSupport",
   "linker_set_key" : "_ZN7android8hardware8graphics8composer4V2_218BpHwComposerClient14getDozeSupportEyNSt3__18functionIFvNS2_4V2_15ErrorEbEEE",
   "parameters" :
   [
    {
     "is_this_ptr" : true,
     "referenced_type" : "_ZTIPN7android8hardware8graphics8composer4V2_218BpHwComposerClientE"
    },
    {
     "referenced_type" : "_ZTIy"
    },
    {
     "referenced_type" : "_ZTINSt3__18functionIFvN7android8hardware8graphics8composer4V2_15ErrorEbEEE"
    }
   ],
   "return_type" : "_ZTIN7android8hardware6ReturnIvEE",
   "source_file" : "/out/soong/.intermediates/hardware/interfaces/graphics/composer/2.2/android.hardware.graphics.composer@2.2_genc++_headers/gen/android/hardware/graphics/composer/2.2/BpHwComposerClient.h"
  },
  {
   "function_name" : "android::hardware::graphics::composer::V2_2::BpHwComposerClient::interfaceChain",
   "linker_set_key" : "_ZN7android8hardware8graphics8composer4V2_218BpHwComposerClient14interfaceChainENSt3__18functionIFvRKNS0_8hidl_vecINS0_11hidl_stringEEEEEE",
   "parameters" :
   [
    {
     "is_this_ptr" : true,
     "referenced_type" : "_ZTIPN7android8hardware8graphics8composer4V2_218BpHwComposerClientE"
    },
    {
     "referenced_type" : "_ZTINSt3__18functionIFvRKN7android8hardware8hidl_vecINS2_11hidl_stringEEEEEE"
    }
   ],
   "return_type" : "_ZTIN7android8hardware6ReturnIvEE",
   "source_file" : "/out/soong/.intermediates/hardware/interfaces/graphics/composer/2.2/android.hardware.graphics.composer@2.2_genc++_headers/gen/android/hardware/graphics/composer/2.2/BpHwComposerClient.h"
  },
  {
   "function_name" : "android::hardware::graphics::composer::V2_2::BpHwComposerClient::executeCommands",
   "linker_set_key" : "_ZN7android8hardware8graphics8composer4V2_218BpHwComposerClient15executeCommandsEjRKNS0_8hidl_vecINS0_11hidl_handleEEENSt3__18functionIFvNS2_4V2_15ErrorEbjS9_EEE",
   "parameters" :
   [
    {
     "is_this_ptr" : true,
     "referenced_type" : "_ZTIPN7android8hardware8graphics8composer4V2_218BpHwComposerClientE"
    },
    {
     "referenced_type" : "_ZTIj"
    },
    {
     "referenced_type" : "_ZTIRKN7android8hardware8hidl_vecINS0_11hidl_handleEEE"
    },
    {
     "referenced_type" : "_ZTINSt3__18functionIFvN7android8hardware8graphics8composer4V2_15ErrorEbjRKNS2_8hidl_vecINS2_11hidl_handleEEEEEE"
    }
   ],
   "return_type" : "_ZTIN7android8hardware6ReturnIvEE",
   "source_file" : "/out/soong/.intermediates/hardware/interfaces/graphics/composer/2.2/android.hardware.graphics.composer@2.2_genc++_headers/gen/android/hardware/graphics/composer/2.2/BpHwComposerClient.h"
  },
  {
   "function_name" : "android::hardware::graphics::composer::V2_2::BpHwComposerClient::getActiveConfig",
   "linker_set_key" : "_ZN7android8hardware8graphics8composer4V2_218BpHwComposerClient15getActiveConfigEyNSt3__18functionIFvNS2_4V2_15ErrorEjEEE",
   "parameters" :
   [
    {
     "is_this_ptr" : true,
     "referenced_type" : "_ZTIPN7android8hardware8graphics8composer4V2_218BpHwComposerClientE"
    },
    {
     "referenced_type" : "_ZTIy"
    },
    {
     "referenced_type" : "_ZTINSt3__18functionIFvN7android8hardware8graphics8composer4V2_15ErrorEjEEE"
    }
   ],
   "return_type" : "_ZTIN7android8hardware6ReturnIvEE",
   "source_file" : "/out/soong/.intermediates/hardware/interfaces/graphics/composer/2.2/android.hardware.graphics.composer@2.2_genc++_headers/gen/android/hardware/graphics/composer/2.2/BpHwComposerClient.h"
  },
  {
   "function_name" : "android::hardware::graphics::composer::V2_2::BpHwComposerClient::onLastStrongRef",
   "linker_set_key" : "_ZN7android8hardware8graphics8composer4V2_218BpHwComposerClient15onLastStrongRefEPKv",
   "parameters" :
   [
    {
     "is_this_ptr" : true,
     "referenced_type" : "_ZTIPN7android8hardware8graphics8composer4V2_218BpHwComposerClientE"
    },
    {
     "referenced_type" : "_ZTIPKv"
    }
   ],
   "return_type" : "_ZTIv",
   "source_file" : "/out/soong/.intermediates/hardware/interfaces/graphics/composer/2.2/android.hardware.graphics.composer@2.2_genc++_headers/gen/android/hardware/graphics/composer/2.2/BpHwComposerClient.h"
  },
  {
   "function_name" : "android::hardware::graphics::composer::V2_2::BpHwComposerClient::setActiveConfig",
   "linker_set_key" : "_ZN7android8hardware8graphics8composer4V2_218BpHwComposerClient15setActiveConfigEyj",
   "parameters" :
   [
    {
     "is_this_ptr" : true,
     "referenced_type" : "_ZTIPN7android8hardware8graphics8composer4V2_218BpHwComposerClientE"
    },
    {
     "referenced_type" : "_ZTIy"
    },
    {
     "referenced_type" : "_ZTIj"
    }
   ],
   "return_type" : "_ZTIN7android8hardware6ReturnINS0_8graphics8composer4V2_15ErrorEEE",
   "source_file" : "/out/soong/.intermediates/hardware/interfaces/graphics/composer/2.2/android.hardware.graphics.composer@2.2_genc++_headers/gen/android/hardware/graphics/composer/2.2/BpHwComposerClient.h"
  },
  {
   "function_name" : "android::hardware::graphics::composer::V2_2::BpHwComposerClient::setVsyncEnabled",
   "linker_set_key" : "_ZN7android8hardware8graphics8composer4V2_218BpHwComposerClient15setVsyncEnabledEyNS2_4V2_115IComposerClient5VsyncE",
   "parameters" :
   [
    {
     "is_this_ptr" : true,
     "referenced_type" : "_ZTIPN7android8hardware8graphics8composer4V2_218BpHwComposerClientE"
    },
    {
     "referenced_type" : "_ZTIy"
    },
    {
     "referenced_type" : "_ZTIN7android8hardware8graphics8composer4V2_115IComposerClient5VsyncE"
    }
   ],
   "return_type" : "_ZTIN7android8hardware6ReturnINS0_8graphics8composer4V2_15ErrorEEE",
   "source_file" : "/out/soong/.intermediates/hardware/interfaces/graphics/composer/2.2/android.hardware.graphics.composer@2.2_genc++_headers/gen/android/hardware/graphics/composer/2.2/BpHwComposerClient.h"
  },
  {
   "function_name" : "android::hardware::graphics::composer::V2_2::BpHwComposerClient::getRenderIntents",
   "linker_set_key" : "_ZN7android8hardware8graphics8composer4V2_218BpHwComposerClient16getRenderIntentsEyNS1_6common4V1_19ColorModeENSt3__18functionIFvNS2_4V2_15ErrorERKNS0_8hidl_vecINS6_12RenderIntentEEEEEE",
   "parameters" :
   [
    {
     "is_this_ptr" : true,
     "referenced_type" : "_ZTIPN7android8hardware8graphics8composer4V2_218BpHwComposerClientE"
    },
    {
     "referenced_type" : "_ZTIy"
    },
    {
     "referenced_type" : "_ZTIN7android8hardware8graphics6common4V1_19ColorModeE"
    },
    {
     "referenced_type" : "_ZTINSt3__18functionIFvN7android8hardware8graphics8composer4V2_15ErrorERKNS2_8hidl_vecINS3_6common4V1_112RenderIntentEEEEEE"
    }
   ],
   "return_type" : "_ZTIN7android8hardware6ReturnIvEE",
   "source_file" : "/out/soong/.intermediates/hardware/interfaces/graphics/composer/2.2/android.hardware.graphics.composer@2.2_genc++_headers/gen/android/hardware/graphics/composer/2.2/BpHwComposerClient.h"
  },
  {
   "function_name" : "android::hardware::graphics::composer::V2_2::BpHwComposerClient::registerCallback",
   "linker_set_key" : "_ZN7android8hardware8graphics8composer4V2_218BpHwComposerClient16registerCallbackERKNS_2spINS2_4V2_117IComposerCallbackEEE",
   "parameters" :
   [
    {
     "is_this_ptr" : true,
     "referenced_type" : "_ZTIPN7android8hardware8graphics8composer4V2_218BpHwComposerClientE"
    },
    {
     "referenced_type" : "_ZTIRKN7android2spINS_8hardware8graphics8composer4V2_117IComposerCallbackEEE"
    }
   ],
   "return_type" : "_ZTIN7android8hardware6ReturnIvEE",
   "source_file" : "/out/soong/.intermediates/hardware/interfaces/graphics/composer/2.2/android.hardware.graphics.composer@2.2_genc++_headers/gen/android/hardware/graphics/composer/2.2/BpHwComposerClient.h"
  },
  {
   "function_name" : "android::hardware::graphics::composer::V2_2::BpHwComposerClient::setColorMode_2_2",
   "linker_set_key" : "_ZN7android8hardware8graphics8composer4V2_218BpHwComposerClient16setColorMode_2_2EyNS1_6common4V1_19ColorModeENS6_12RenderIntentE",
   "parameters" :
   [
    {
     "is_this_ptr" : true,
     "referenced_type" : "_ZTIPN7android8hardware8graphics8composer4V2_218BpHwComposerClientE"
    },
    {
     "referenced_type" : "_ZTIy"
    },
    {
     "referenced_type" : "_ZTIN7android8hardware8graphics6common4V1_19ColorModeE"
    },
    {
     "referenced_type" : "_ZTIN7android8hardware8graphics6common4V1_112RenderIntentE"
    }
   ],
   "return_type" : "_ZTIN7android8hardware6ReturnINS0_8graphics8composer4V2_15ErrorEEE",
   "source_file" : "/out/soong/.intermediates/hardware/interfaces/graphics/composer/2.2/android.hardware.graphics.composer@2.2_genc++_headers/gen/android/hardware/graphics/composer/2.2/BpHwComposerClient.h"
  },
  {
   "function_name" : "android::hardware::graphics::composer::V2_2::BpHwComposerClient::setPowerMode_2_2",
   "linker_set_key" : "_ZN7android8hardware8graphics8composer4V2_218BpHwComposerClient16setPowerMode_2_2EyNS3_15IComposerClient9PowerModeE",
   "parameters" :
   [
    {
     "is_this_ptr" : true,
     "referenced_type" : "_ZTIPN7android8hardware8graphics8composer4V2_218BpHwComposerClientE"
    },
    {
     "referenced_type" : "_ZTIy"
    },
    {
     "referenced_type" : "_ZTIN7android8hardware8graphics8composer4V2_215IComposerClient9PowerModeE"
    }
   ],
   "return_type" : "_ZTIN7android8hardware6ReturnINS0_8graphics8composer4V2_15ErrorEEE",
   "source_file" : "/out/soong/.intermediates/hardware/interfaces/graphics/composer/2.2/android.hardware.graphics.composer@2.2_genc++_headers/gen/android/hardware/graphics/composer/2.2/BpHwComposerClient.h"
  },
  {
   "function_name" : "android::hardware::graphics::composer::V2_2::BpHwComposerClient::getColorModes_2_2",
   "linker_set_key" : "_ZN7android8hardware8graphics8composer4V2_218BpHwComposerClient17getColorModes_2_2EyNSt3__18functionIFvNS2_4V2_15ErrorERKNS0_8hidl_vecINS1_6common4V1_19ColorModeEEEEEE",
   "parameters" :
   [
    {
     "is_this_ptr" : true,
     "referenced_type" : "_ZTIPN7android8hardware8graphics8composer4V2_218BpHwComposerClientE"
    },
    {
     "referenced_type" : "_ZTIy"
    },
    {
     "referenced_type" : "_ZTINSt3__18functionIFvN7android8hardware8graphics8composer4V2_15ErrorERKNS2_8hidl_vecINS3_6common4V1_19ColorModeEEEEEE"
    }
   ],
   "return_type" : "_ZTIN7android8hardware6ReturnIvEE",
   "source_file" : "/out/soong/.intermediates/hardware/interfaces/graphics/composer/2.2/android.hardware.graphics.composer@2.2_genc++_headers/gen/android/hardware/graphics/composer/2.2/BpHwComposerClient.h"
  },
  {
   "function_name" : "android::hardware::graphics::composer::V2_2::BpHwComposerClient::getDisplayConfigs",
   "linker_set_key" : "_ZN7android8hardware8graphics8composer4V2_218BpHwComposerClient17getDisplayConfigsEyNSt3__18functionIFvNS2_4V2_15ErrorERKNS0_8hidl_vecIjEEEEE",
   "parameters" :
   [
    {
     "is_this_ptr" : true,
     "referenced_type" : "_ZTIPN7android8hardware8graphics8composer4V2_218BpHwComposerClientE"
    },
    {
     "referenced_type" : "_ZTIy"
    },
    {
     "referenced_type" : "_ZTINSt3__18functionIFvN7android8hardware8graphics8composer4V2_15ErrorERKNS2_8hidl_vecIjEEEEE"
    }
   ],
   "return_type" : "_ZTIN7android8hardware6ReturnIvEE",
   "source_file" : "/out/soong/.intermediates/hardware/interfaces/graphics/composer/2.2/android.hardware.graphics.composer@2.2_genc++_headers/gen/android/hardware/graphics/composer/2.2/BpHwComposerClient.h"
  },
  {
   "function_name" : "android::hardware::graphics::composer::V2_2::BpHwComposerClient::setReadbackBuffer",
   "linker_set_key" : "_ZN7android8hardware8graphics8composer4V2_218BpHwComposerClient17setReadbackBufferEyRKNS0_11hidl_handleES7_",
   "parameters" :
   [
    {
     "is_this_ptr" : true,
     "referenced_type" : "_ZTIPN7android8hardware8graphics8composer4V2_218BpHwComposerClientE"
    },
    {
     "referenced_type" : "_ZTIy"
    },
    {
     "referenced_type" : "_ZTIRKN7android8hardware11hidl_handleE"
    },
    {
     "referenced_type" : "_ZTIRKN7android8hardware11hidl_handleE"
    }
   ],
   "return_type" : "_ZTIN7android8hardware6ReturnINS0_8graphics8composer4V2_15ErrorEEE",
   "source_file" : "/out/soong/.intermediates/hardware/interfaces/graphics/composer/2.2/android.hardware.graphics.composer@2.2_genc++_headers/gen/android/hardware/graphics/composer/2.2/BpHwComposerClient.h"
  },
  {
   "function_name" : "android::hardware::graphics::composer::V2_2::BpHwComposerClient::getHdrCapabilities",
   "linker_set_key" : "_ZN7android8hardware8graphics8composer4V2_218BpHwComposerClient18getHdrCapabilitiesEyNSt3__18functionIFvNS2_4V2_15ErrorERKNS0_8hidl_vecINS1_6common4V1_03HdrEEEfffEEE",
   "parameters" :
   [
    {
     "is_this_ptr" : true,
     "referenced_type" : "_ZTIPN7android8hardware8graphics8composer4V2_218BpHwComposerClientE"
    },
    {
     "referenced_type" : "_ZTIy"
    },
    {
     "referenced_type" : "_ZTINSt3__18functionIFvN7android8hardware8graphics8composer4V2_15ErrorERKNS2_8hidl_vecINS3_6common4V1_03HdrEEEfffEEE"
    }
   ],
   "return_type" : "_ZTIN7android8hardware6ReturnIvEE",
   "source_file" : "/out/soong/.intermediates/hardware/interfaces/graphics/composer/2.2/android.hardware.graphics.composer@2.2_genc++_headers/gen/android/hardware/graphics/composer/2.2/BpHwComposerClient.h"
  },
  {
   "function_name" : "android::hardware::graphics::composer::V2_2::BpHwComposerClient::executeCommands_2_2",
   "linker_set_key" : "_ZN7android8hardware8graphics8composer4V2_218BpHwComposerClient19executeCommands_2_2EjRKNS0_8hidl_vecINS0_11hidl_handleEEENSt3__18functionIFvNS2_4V2_15ErrorEbjS9_EEE",
   "parameters" :
   [
    {
     "is_this_ptr" : true,
     "referenced_type" : "_ZTIPN7android8hardware8graphics8composer4V2_218BpHwComposerClientE"
    },
    {
     "referenced_type" : "_ZTIj"
    },
    {
     "referenced_type" : "_ZTIRKN7android8hardware8hidl_vecINS0_11hidl_handleEEE"
    },
    {
     "referenced_type" : "_ZTINSt3__18functionIFvN7android8hardware8graphics8composer4V2_15ErrorEbjRKNS2_8hidl_vecINS2_11hidl_handleEEEEEE"
    }
   ],
   "return_type" : "_ZTIN7android8hardware6ReturnIvEE",
   "source_file" : "/out/soong/.intermediates/hardware/interfaces/graphics/composer/2.2/android.hardware.graphics.composer@2.2_genc++_headers/gen/android/hardware/graphics/composer/2.2/BpHwComposerClient.h"
  },
  {
   "function_name" : "android::hardware::graphics::composer::V2_2::BpHwComposerClient::getDisplayAttribute",
   "linker_set_key" : "_ZN7android8hardware8graphics8composer4V2_218BpHwComposerClient19getDisplayAttributeEyjNS2_4V2_115IComposerClient9AttributeENSt3__18functionIFvNS5_5ErrorEiEEE",
   "parameters" :
   [
    {
     "is_this_ptr" : true,
     "referenced_type" : "_ZTIPN7android8hardware8graphics8composer4V2_218BpHwComposerClientE"
    },
    {
     "referenced_type" : "_ZTIy"
    },
    {
     "referenced_type" : "_ZTIj"
    },
    {
     "referenced_type" : "_ZTIN7android8hardware8graphics8composer4V2_115IComposerClient9AttributeE"
    },
    {
     "referenced_type" : "_ZTINSt3__18functionIFvN7android8hardware8graphics8composer4V2_15ErrorEiEEE"
    }
   ],
   "return_type" : "_ZTIN7android8hardware6ReturnIvEE",
   "source_file" : "/out/soong/.intermediates/hardware/interfaces/graphics/composer/2.2/android.hardware.graphics.composer@2.2_genc++_headers/gen/android/hardware/graphics/composer/2.2/BpHwComposerClient.h"
  },
  {
   "function_name" : "android::hardware::graphics::composer::V2_2::BpHwComposerClient::interfaceDescriptor",
   "linker_set_key" : "_ZN7android8hardware8graphics8composer4V2_218BpHwComposerClient19interfaceDescriptorENSt3__18functionIFvRKNS0_11hidl_stringEEEE",
   "parameters" :
   [
    {
     "is_this_ptr" : true,
     "referenced_type" : "_ZTIPN7android8hardware8graphics8composer4V2_218BpHwComposerClientE"
    },
    {
     "referenced_type" : "_ZTINSt3__18functionIFvRKN7android8hardware11hidl_stringEEEE"
    }
   ],
   "return_type" : "_ZTIN7android8hardware6ReturnIvEE",
   "source_file" : "/out/soong/.intermediates/hardware/interfaces/graphics/composer/2.2/android.hardware.graphics.composer@2.2_genc++_headers/gen/android/hardware/graphics/composer/2.2/BpHwComposerClient.h"
  },
  {
   "function_name" : "android::hardware::graphics::composer::V2_2::BpHwComposerClient::createVirtualDisplay",
   "linker_set_key" : "_ZN7android8hardware8graphics8composer4V2_218BpHwComposerClient20createVirtualDisplayEjjNS1_6common4V1_011PixelFormatEjNSt3__18functionIFvNS2_4V2_15ErrorEyS7_EEE",
   "parameters" :
   [
    {
     "is_this_ptr" : true,
     "referenced_type" : "_ZTIPN7android8hardware8graphics8composer4V2_218BpHwComposerClientE"
    },
    {
     "referenced_type" : "_ZTIj"
    },
    {
     "referenced_type" : "_ZTIj"
    },
    {
     "referenced_type" : "_ZTIN7android8hardware8graphics6common4V1_011PixelFormatE"
    },
    {
     "referenced_type" : "_ZTIj"
    },
    {
     "referenced_type" : "_ZTINSt3__18functionIFvN7android8hardware8graphics8composer4V2_15ErrorEyNS3_6common4V1_011PixelFormatEEEE"
    }
   ],
   "return_type" : "_ZTIN7android8hardware6ReturnIvEE",
   "source_file" : "/out/soong/.intermediates/hardware/interfaces/graphics/composer/2.2/android.hardware.graphics.composer@2.2_genc++_headers/gen/android/hardware/graphics/composer/2.2/BpHwComposerClient.h"
  },
  {
   "function_name" : "android::hardware::graphics::composer::V2_2::BpHwComposerClient::setInputCommandQueue",
   "linker_set_key" : "_ZN7android8hardware8graphics8composer4V2_218BpHwComposerClient20setInputCommandQueueERKNS0_12MQDescriptorIjLNS0_8MQFlavorE1EEE",
   "parameters" :
   [
    {
     "is_this_ptr" : true,
     "referenced_type" : "_ZTIPN7android8hardware8graphics8composer4V2_218BpHwComposerClientE"
    },
    {
     "referenced_type" : "_ZTIRKN7android8hardware12MQDescriptorIjLNS0_8MQFlavorE1EEE"
    }
   ],
   "return_type" : "_ZTIN7android8hardware6ReturnINS0_8graphics8composer4V2_15ErrorEEE",
   "source_file" : "/out/soong/.intermediates/hardware/interfaces/graphics/composer/2.2/android.hardware.graphics.composer@2.2_genc++_headers/gen/android/hardware/graphics/composer/2.2/BpHwComposerClient.h"
  },
  {
   "function_name" : "android::hardware::graphics::composer::V2_2::BpHwComposerClient::destroyVirtualDisplay",
   "linker_set_key" : "_ZN7android8hardware8graphics8composer4V2_218BpHwComposerClient21destroyVirtualDisplayEy",
   "parameters" :
   [
    {
     "is_this_ptr" : true,
     "referenced_type" : "_ZTIPN7android8hardware8graphics8composer4V2_218BpHwComposerClientE"
    },
    {
     "referenced_type" : "_ZTIy"
    }
   ],
   "return_type" : "_ZTIN7android8hardware6ReturnINS0_8graphics8composer4V2_15ErrorEEE",
   "source_file" : "/out/soong/.intermediates/hardware/interfaces/graphics/composer/2.2/android.hardware.graphics.composer@2.2_genc++_headers/gen/android/hardware/graphics/composer/2.2/BpHwComposerClient.h"
  },
  {
   "function_name" : "android::hardware::graphics::composer::V2_2::BpHwComposerClient::getOutputCommandQueue",
   "linker_set_key" : "_ZN7android8hardware8graphics8composer4V2_218BpHwComposerClient21getOutputCommandQueueENSt3__18functionIFvNS2_4V2_15ErrorERKNS0_12MQDescriptorIjLNS0_8MQFlavorE1EEEEEE",
   "parameters" :
   [
    {
     "is_this_ptr" : true,
     "referenced_type" : "_ZTIPN7android8hardware8graphics8composer4V2_218BpHwComposerClientE"
    },
    {
     "referenced_type" : "_ZTINSt3__18functionIFvN7android8hardware8graphics8composer4V2_15ErrorERKNS2_12MQDescriptorIjLNS2_8MQFlavorE1EEEEEE"
    }
   ],
   "return_type" : "_ZTIN7android8hardware6ReturnIvEE",
   "source_file" : "/out/soong/.intermediates/hardware/interfaces/graphics/composer/2.2/android.hardware.graphics.composer@2.2_genc++_headers/gen/android/hardware/graphics/composer/2.2/BpHwComposerClient.h"
  },
  {
   "function_name" : "android::hardware::graphics::composer::V2_2::BpHwComposerClient::notifySyspropsChanged",
   "linker_set_key" : "_ZN7android8hardware8graphics8composer4V2_218BpHwComposerClient21notifySyspropsChangedEv",
   "parameters" :
   [
    {
     "is_this_ptr" : true,
     "referenced_type" : "_ZTIPN7android8hardware8graphics8composer4V2_218BpHwComposerClientE"
    }
   ],
   "return_type" : "_ZTIN7android8hardware6ReturnIvEE",
   "source_file" : "/out/soong/.intermediates/hardware/interfaces/graphics/composer/2.2/android.hardware.graphics.composer@2.2_genc++_headers/gen/android/hardware/graphics/composer/2.2/BpHwComposerClient.h"
  },
  {
   "function_name" : "android::hardware::graphics::composer::V2_2::BpHwComposerClient::setHALInstrumentation",
   "linker_set_key" : "_ZN7android8hardware8graphics8composer4V2_218BpHwComposerClient21setHALInstrumentationEv",
   "parameters" :
   [
    {
     "is_this_ptr" : true,
     "referenced_type" : "_ZTIPN7android8hardware8graphics8composer4V2_218BpHwComposerClientE"
    }
   ],
   "return_type" : "_ZTIN7android8hardware6ReturnIvEE",
   "source_file" : "/out/soong/.intermediates/hardware/interfaces/graphics/composer/2.2/android.hardware.graphics.composer@2.2_genc++_headers/gen/android/hardware/graphics/composer/2.2/BpHwComposerClient.h"
  },
  {
   "function_name" : "android::hardware::graphics::composer::V2_2::BpHwComposerClient::_hidl_getRenderIntents",
   "linker_set_key" : "_ZN7android8hardware8graphics8composer4V2_218BpHwComposerClient22_hidl_getRenderIntentsEPNS0_10IInterfaceEPNS0_7details16HidlInstrumentorEyNS1_6common4V1_19ColorModeENSt3__18functionIFvNS2_4V2_15ErrorERKNS0_8hidl_vecINSB_12RenderIntentEEEEEE",
   "parameters" :
   [
    {
     "referenced_type" : "_ZTIPN7android8hardware10IInterfaceE"
    },
    {
     "referenced_type" : "_ZTIPN7android8hardware7details16HidlInstrumentorE"
    },
    {
     "referenced_type" : "_ZTIy"
    },
    {
     "referenced_type" : "_ZTIN7android8hardware8graphics6common4V1_19ColorModeE"
    },
    {
     "referenced_type" : "_ZTINSt3__18functionIFvN7android8hardware8graphics8composer4V2_15ErrorERKNS2_8hidl_vecINS3_6common4V1_112RenderIntentEEEEEE"
    }
   ],
   "return_type" : "_ZTIN7android8hardware6ReturnIvEE",
   "source_file" : "/out/soong/.intermediates/hardware/interfaces/graphics/composer/2.2/android.hardware.graphics.composer@2.2_genc++_headers/gen/android/hardware/graphics/composer/2.2/BpHwComposerClient.h"
  },
  {
   "function_name" : "android::hardware::graphics::composer::V2_2::BpHwComposerClient::_hidl_setColorMode_2_2",
   "linker_set_key" : "_ZN7android8hardware8graphics8composer4V2_218BpHwComposerClient22_hidl_setColorMode_2_2EPNS0_10IInterfaceEPNS0_7details16HidlInstrumentorEyNS1_6common4V1_19ColorModeENSB_12RenderIntentE",
   "parameters" :
   [
    {
     "referenced_type" : "_ZTIPN7android8hardware10IInterfaceE"
    },
    {
     "referenced_type" : "_ZTIPN7android8hardware7details16HidlInstrumentorE"
    },
    {
     "referenced_type" : "_ZTIy"
    },
    {
     "referenced_type" : "_ZTIN7android8hardware8graphics6common4V1_19ColorModeE"
    },
    {
     "referenced_type" : "_ZTIN7android8hardware8graphics6common4V1_112RenderIntentE"
    }
   ],
   "return_type" : "_ZTIN7android8hardware6ReturnINS0_8graphics8composer4V2_15ErrorEEE",
   "source_file" : "/out/soong/.intermediates/hardware/interfaces/graphics/composer/2.2/android.hardware.graphics.composer@2.2_genc++_headers/gen/android/hardware/graphics/composer/2.2/BpHwComposerClient.h"
  },
  {
   "function_name" : "android::hardware::graphics::composer::V2_2::BpHwComposerClient::_hidl_setPowerMode_2_2",
   "linker_set_key" : "_ZN7android8hardware8graphics8composer4V2_218BpHwComposerClient22_hidl_setPowerMode_2_2EPNS0_10IInterfaceEPNS0_7details16HidlInstrumentorEyNS3_15IComposerClient9PowerModeE",
   "parameters" :
   [
    {
     "referenced_type" : "_ZTIPN7android8hardware10IInterfaceE"
    },
    {
     "referenced_type" : "_ZTIPN7android8hardware7details16HidlInstrumentorE"
    },
    {
     "referenced_type" : "_ZTIy"
    },
    {
     "referenced_type" : "_ZTIN7android8hardware8graphics8composer4V2_215IComposerClient9PowerModeE"
    }
   ],
   "return_type" : "_ZTIN7android8hardware6ReturnINS0_8graphics8composer4V2_15ErrorEEE",
   "source_file" : "/out/soong/.intermediates/hardware/interfaces/graphics/composer/2.2/android.hardware.graphics.composer@2.2_genc++_headers/gen/android/hardware/graphics/composer/2.2/BpHwComposerClient.h"
  },
  {
   "function_name" : "android::hardware::graphics::composer::V2_2::BpHwComposerClient::getClientTargetSupport",
   "linker_set_key" : "_ZN7android8hardware8graphics8composer4V2_218BpHwComposerClient22getClientTargetSupportEyjjNS1_6common4V1_011PixelFormatENS6_9DataspaceE",
   "parameters" :
   [
    {
     "is_this_ptr" : true,
     "referenced_type" : "_ZTIPN7android8hardware8graphics8composer4V2_218BpHwComposerClientE"
    },
    {
     "referenced_type" : "_ZTIy"
    },
    {
     "referenced_type" : "_ZTIj"
    },
    {
     "referenced_type" : "_ZTIj"
    },
    {
     "referenced_type" : "_ZTIN7android8hardware8graphics6common4V1_011PixelFormatE"
    },
    {
     "referenced_type" : "_ZTIN7android8hardware8graphics6common4V1_09DataspaceE"
    }
   ],
   "return_type" : "_ZTIN7android8hardware6ReturnINS0_8graphics8composer4V2_15ErrorEEE",
   "source_file" : "/out/soong/.intermediates/hardware/interfaces/graphics/composer/2.2/android.hardware.graphics.composer@2.2_genc++_headers/gen/android/hardware/graphics/composer/2.2/BpHwComposerClient.h"
  },
  {
   "function_name" : "android::hardware::graphics::composer::V2_2::BpHwComposerClient::getReadbackBufferFence",
   "linker_set_key" : "_ZN7android8hardware8graphics8composer4V2_218BpHwComposerClient22getReadbackBufferFenceEyNSt3__18functionIFvNS2_4V2_15ErrorERKNS0_11hidl_handleEEEE",
   "parameters" :
   [
    {
     "is_this_ptr" : true,
     "referenced_type" : "_ZTIPN7android8hardware8graphics8composer4V2_218BpHwComposerClientE"
    },
    {
     "referenced_type" : "_ZTIy"
    },
    {
     "referenced_type" : "_ZTINSt3__18functionIFvN7android8hardware8graphics8composer4V2_15ErrorERKNS2_11hidl_handleEEEE"
    }
   ],
   "return_type" : "_ZTIN7android8hardware6ReturnIvEE",
   "source_file" : "/out/soong/.intermediates/hardware/interfaces/graphics/composer/2.2/android.hardware.graphics.composer@2.2_genc++_headers/gen/android/hardware/graphics/composer/2.2/BpHwComposerClient.h"
  },
  {
   "function_name" : "android::hardware::graphics::composer::V2_2::BpHwComposerClient::_hidl_getColorModes_2_2",
   "linker_set_key" : "_ZN7android8hardware8graphics8composer4V2_218BpHwComposerClient23_hidl_getColorModes_2_2EPNS0_10IInterfaceEPNS0_7details16HidlInstrumentorEyNSt3__18functionIFvNS2_4V2_15ErrorERKNS0_8hidl_vecINS1_6common4V1_19ColorModeEEEEEE",
   "parameters" :
   [
    {
     "referenced_type" : "_ZTIPN7android8hardware10IInterfaceE"
    },
    {
     "referenced_type" : "_ZTIPN7android8hardware7details16HidlInstrumentorE"
    },
    {
     "referenced_type" : "_ZTIy"
    },
    {
     "referenced_type" : "_ZTINSt3__18functionIFvN7android8hardware8graphics8composer4V2_15ErrorERKNS2_8hidl_vecINS3_6common4V1_19ColorModeEEEEEE"
    }
   ],
   "return_type" : "_ZTIN7android8hardware6ReturnIvEE",
   "source_file" : "/out/soong/.intermediates/hardware/interfaces/graphics/composer/2.2/android.hardware.graphics.composer@2.2_genc++_headers/gen/android/hardware/graphics/composer/2.2/BpHwComposerClient.h"
  },
  {
   "function_name" : "android::hardware::graphics::composer::V2_2::BpHwComposerClient::_hidl_setReadbackBuffer",
   "linker_set_key" : "_ZN7android8hardware8graphics8composer4V2_218BpHwComposerClient23_hidl_setReadbackBufferEPNS0_10IInterfaceEPNS0_7details16HidlInstrumentorEyRKNS0_11hidl_handleESC_",
   "parameters" :
   [
    {
     "referenced_type" : "_ZTIPN7android8hardware10IInterfaceE"
    },
    {
     "referenced_type" : "_ZTIPN7android8hardware7details16HidlInstrumentorE"
    },
    {
     "referenced_type" : "_ZTIy"
    },
    {
     "referenced_type" : "_ZTIRKN7android8hardware11hidl_handleE"
    },
    {
     "referenced_type" : "_ZTIRKN7android8hardware11hidl_handleE"
    }
   ],
   "return_type" : "_ZTIN7android8hardware6ReturnINS0_8graphics8composer4V2_15ErrorEEE",
   "source_file" : "/out/soong/.intermediates/hardware/interfaces/graphics/composer/2.2/android.hardware.graphics.composer@2.2_genc++_headers/gen/android/hardware/graphics/composer/2.2/BpHwComposerClient.h"
  },
  {
   "function_name" : "android::hardware::graphics::composer::V2_2::BpHwComposerClient::getPerFrameMetadataKeys",
   "linker_set_key" : "_ZN7android8hardware8graphics8composer4V2_218BpHwComposerClient23getPerFrameMetadataKeysEyNSt3__18functionIFvNS2_4V2_15ErrorERKNS0_8hidl_vecINS3_15IComposerClient19PerFrameMetadataKeyEEEEEE",
   "parameters" :
   [
    {
     "is_this_ptr" : true,
     "referenced_type" : "_ZTIPN7android8hardware8graphics8composer4V2_218BpHwComposerClientE"
    },
    {
     "referenced_type" : "_ZTIy"
    },
    {
     "referenced_type" : "_ZTINSt3__18functionIFvN7android8hardware8graphics8composer4V2_15ErrorERKNS2_8hidl_vecINS4_4V2_215IComposerClient19PerFrameMetadataKeyEEEEEE"
    }
   ],
   "return_type" : "_ZTIN7android8hardware6ReturnIvEE",
   "source_file" : "/out/soong/.intermediates/hardware/interfaces/graphics/composer/2.2/android.hardware.graphics.composer@2.2_genc++_headers/gen/android/hardware/graphics/composer/2.2/BpHwComposerClient.h"
  },
  {
   "function_name" : "android::hardware::graphics::composer::V2_2::BpHwComposerClient::createVirtualDisplay_2_2",
   "linker_set_key" : "_ZN7android8hardware8graphics8composer4V2_218BpHwComposerClient24createVirtualDisplay_2_2EjjNS1_6common4V1_111PixelFormatEjNSt3__18functionIFvNS2_4V2_15ErrorEyS7_EEE",
   "parameters" :
   [
    {
     "is_this_ptr" : true,
     "referenced_type" : "_ZTIPN7android8hardware8graphics8composer4V2_218BpHwComposerClientE"
    },
    {
     "referenced_type" : "_ZTIj"
    },
    {
     "referenced_type" : "_ZTIj"
    },
    {
     "referenced_type" : "_ZTIN7android8hardware8graphics6common4V1_111PixelFormatE"
    },
    {
     "referenced_type" : "_ZTIj"
    },
    {
     "referenced_type" : "_ZTINSt3__18functionIFvN7android8hardware8graphics8composer4V2_15ErrorEyNS3_6common4V1_111PixelFormatEEEE"
    }
   ],
   "return_type" : "_ZTIN7android8hardware6ReturnIvEE",
   "source_file" : "/out/soong/.intermediates/hardware/interfaces/graphics/composer/2.2/android.hardware.graphics.composer@2.2_genc++_headers/gen/android/hardware/graphics/composer/2.2/BpHwComposerClient.h"
  },
  {
   "function_name" : "android::hardware::graphics::composer::V2_2::BpHwComposerClient::setClientTargetSlotCount",
   "linker_set_key" : "_ZN7android8hardware8graphics8composer4V2_218BpHwComposerClient24setClientTargetSlotCountEyj",
   "parameters" :
   [
    {
     "is_this_ptr" : true,
     "referenced_type" : "_ZTIPN7android8hardware8graphics8composer4V2_218BpHwComposerClientE"
    },
    {
     "referenced_type" : "_ZTIy"
    },
    {
     "referenced_type" : "_ZTIj"
    }
   ],
   "return_type" : "_ZTIN7android8hardware6ReturnINS0_8graphics8composer4V2_15ErrorEEE",
   "source_file" : "/out/soong/.intermediates/hardware/interfaces/graphics/composer/2.2/android.hardware.graphics.composer@2.2_genc++_headers/gen/android/hardware/graphics/composer/2.2/BpHwComposerClient.h"
  },
  {
   "function_name" : "android::hardware::graphics::composer::V2_2::BpHwComposerClient::_hidl_executeCommands_2_2",
   "linker_set_key" : "_ZN7android8hardware8graphics8composer4V2_218BpHwComposerClient25_hidl_executeCommands_2_2EPNS0_10IInterfaceEPNS0_7details16HidlInstrumentorEjRKNS0_8hidl_vecINS0_11hidl_handleEEENSt3__18functionIFvNS2_4V2_15ErrorEbjSE_EEE",
   "parameters" :
   [
    {
     "referenced_type" : "_ZTIPN7android8hardware10IInterfaceE"
    },
    {
     "referenced_type" : "_ZTIPN7android8hardware7details16HidlInstrumentorE"
    },
    {
     "referenced_type" : "_ZTIj"
    },
    {
     "referenced_type" : "_ZTIRKN7android8hardware8hidl_vecINS0_11hidl_handleEEE"
    },
    {
     "referenced_type" : "_ZTINSt3__18functionIFvN7android8hardware8graphics8composer4V2_15ErrorEbjRKNS2_8hidl_vecINS2_11hidl_handleEEEEEE"
    }
   ],
   "return_type" : "_ZTIN7android8hardware6ReturnIvEE",
   "source_file" : "/out/soong/.intermediates/hardware/interfaces/graphics/composer/2.2/android.hardware.graphics.composer@2.2_genc++_headers/gen/android/hardware/graphics/composer/2.2/BpHwComposerClient.h"
  },
  {
   "function_name" : "android::hardware::graphics::composer::V2_2::BpHwComposerClient::getMaxVirtualDisplayCount",
   "linker_set_key" : "_ZN7android8hardware8graphics8composer4V2_218BpHwComposerClient25getMaxVirtualDisplayCountEv",
   "parameters" :
   [
    {
     "is_this_ptr" : true,
     "referenced_type" : "_ZTIPN7android8hardware8graphics8composer4V2_218BpHwComposerClientE"
    }
   ],
   "return_type" : "_ZTIN7android8hardware6ReturnIjEE",
   "source_file" : "/out/soong/.intermediates/hardware/interfaces/graphics/composer/2.2/android.hardware.graphics.composer@2.2_genc++_headers/gen/android/hardware/graphics/composer/2.2/BpHwComposerClient.h"
  },
  {
   "function_name" : "android::hardware::graphics::composer::V2_2::BpHwComposerClient::getClientTargetSupport_2_2",
   "linker_set_key" : "_ZN7android8hardware8graphics8composer4V2_218BpHwComposerClient26getClientTargetSupport_2_2EyjjNS1_6common4V1_111PixelFormatENS6_9DataspaceE",
   "parameters" :
   [
    {
     "is_this_ptr" : true,
     "referenced_type" : "_ZTIPN7android8hardware8graphics8composer4V2_218BpHwComposerClientE"
    },
    {
     "referenced_type" : "_ZTIy"
    },
    {
     "referenced_type" : "_ZTIj"
    },
    {
     "referenced_type" : "_ZTIj"
    },
    {
     "referenced_type" : "_ZTIN7android8hardware8graphics6common4V1_111PixelFormatE"
    },
    {
     "referenced_type" : "_ZTIN7android8hardware8graphics6common4V1_19DataspaceE"
    }
   ],
   "return_type" : "_ZTIN7android8hardware6ReturnINS0_8graphics8composer4V2_15ErrorEEE",
   "source_file" : "/out/soong/.intermediates/hardware/interfaces/graphics/composer/2.2/android.hardware.graphics.composer@2.2_genc++_headers/gen/android/hardware/graphics/composer/2.2/BpHwComposerClient.h"
  },
  {
   "function_name" : "android::hardware::graphics::composer::V2_2::BpHwComposerClient::getReadbackBufferAttributes",
   "linker_set_key" : "_ZN7android8hardware8graphics8composer4V2_218BpHwComposerClient27getReadbackBufferAttributesEyNSt3__18functionIFvNS2_4V2_15ErrorENS1_6common4V1_111PixelFormatENSA_9DataspaceEEEE",
   "parameters" :
   [
    {
     "is_this_ptr" : true,
     "referenced_type" : "_ZTIPN7android8hardware8graphics8composer4V2_218BpHwComposerClientE"
    },
    {
     "referenced_type" : "_ZTIy"
    },
    {
     "referenced_type" : "_ZTINSt3__18functionIFvN7android8hardware8graphics8composer4V2_15ErrorENS3_6common4V1_111PixelFormatENS8_9DataspaceEEEE"
    }
   ],
   "return_type" : "_ZTIN7android8hardware6ReturnIvEE",
   "source_file" : "/out/soong/.intermediates/hardware/interfaces/graphics/composer/2.2/android.hardware.graphics.composer@2.2_genc++_headers/gen/android/hardware/graphics/composer/2.2/BpHwComposerClient.h"
  },
  {
   "function_name" : "android::hardware::graphics::composer::V2_2::BpHwComposerClient::_hidl_getReadbackBufferFence",
   "linker_set_key" : "_ZN7android8hardware8graphics8composer4V2_218BpHwComposerClient28_hidl_getReadbackBufferFenceEPNS0_10IInterfaceEPNS0_7details16HidlInstrumentorEyNSt3__18functionIFvNS2_4V2_15ErrorERKNS0_11hidl_handleEEEE",
   "parameters" :
   [
    {
     "referenced_type" : "_ZTIPN7android8hardware10IInterfaceE"
    },
    {
     "referenced_type" : "_ZTIPN7android8hardware7details16HidlInstrumentorE"
    },
    {
     "referenced_type" : "_ZTIy"
    },
    {
     "referenced_type" : "_ZTINSt3__18functionIFvN7android8hardware8graphics8composer4V2_15ErrorERKNS2_11hidl_handleEEEE"
    }
   ],
   "return_type" : "_ZTIN7android8hardware6ReturnIvEE",
   "source_file" : "/out/soong/.intermediates/hardware/interfaces/graphics/composer/2.2/android.hardware.graphics.composer@2.2_genc++_headers/gen/android/hardware/graphics/composer/2.2/BpHwComposerClient.h"
  },
  {
   "function_name" : "android::hardware::graphics::composer::V2_2::BpHwComposerClient::getDataspaceSaturationMatrix",
   "linker_set_key" : "_ZN7android8hardware8graphics8composer4V2_218BpHwComposerClient28getDataspaceSaturationMatrixENS1_6common4V1_19DataspaceENSt3__18functionIFvNS2_4V2_15ErrorERKNS0_10hidl_arrayIfLj4EJLj4EEEEEEE",
   "parameters" :
   [
    {
     "is_this_ptr" : true,
     "referenced_type" : "_ZTIPN7android8hardware8graphics8composer4V2_218BpHwComposerClientE"
    },
    {
     "referenced_type" : "_ZTIN7android8hardware8graphics6common4V1_19DataspaceE"
    },
    {
     "referenced_type" : "_ZTINSt3__18functionIFvN7android8hardware8graphics8composer4V2_15ErrorERKNS2_10hidl_arrayIfLj4EJLj4EEEEEEE"
    }
   ],
   "return_type" : "_ZTIN7android8hardware6ReturnIvEE",
   "source_file" : "/out/soong/.intermediates/hardware/interfaces/graphics/composer/2.2/android.hardware.graphics.composer@2.2_genc++_headers/gen/android/hardware/graphics/composer/2.2/BpHwComposerClient.h"
  },
  {
   "function_name" : "android::hardware::graphics::composer::V2_2::BpHwComposerClient::_hidl_getPerFrameMetadataKeys",
   "linker_set_key" : "_ZN7android8hardware8graphics8composer4V2_218BpHwComposerClient29_hidl_getPerFrameMetadataKeysEPNS0_10IInterfaceEPNS0_7details16HidlInstrumentorEyNSt3__18functionIFvNS2_4V2_15ErrorERKNS0_8hidl_vecINS3_15IComposerClient19PerFrameMetadataKeyEEEEEE",
   "parameters" :
   [
    {
     "referenced_type" : "_ZTIPN7android8hardware10IInterfaceE"
    },
    {
     "referenced_type" : "_ZTIPN7android8hardware7details16HidlInstrumentorE"
    },
    {
     "referenced_type" : "_ZTIy"
    },
    {
     "referenced_type" : "_ZTINSt3__18functionIFvN7android8hardware8graphics8composer4V2_15ErrorERKNS2_8hidl_vecINS4_4V2_215IComposerClient19PerFrameMetadataKeyEEEEEE"
    }
   ],
   "return_type" : "_ZTIN7android8hardware6ReturnIvEE",
   "source_file" : "/out/soong/.intermediates/hardware/interfaces/graphics/composer/2.2/android.hardware.graphics.composer@2.2_genc++_headers/gen/android/hardware/graphics/composer/2.2/BpHwComposerClient.h"
  },
  {
   "function_name" : "android::hardware::graphics::composer::V2_2::BpHwComposerClient::_hidl_createVirtualDisplay_2_2",
   "linker_set_key" : "_ZN7android8hardware8graphics8composer4V2_218BpHwComposerClient30_hidl_createVirtualDisplay_2_2EPNS0_10IInterfaceEPNS0_7details16HidlInstrumentorEjjNS1_6common4V1_111PixelFormatEjNSt3__18functionIFvNS2_4V2_15ErrorEySC_EEE",
   "parameters" :
   [
    {
     "referenced_type" : "_ZTIPN7android8hardware10IInterfaceE"
    },
    {
     "referenced_type" : "_ZTIPN7android8hardware7details16HidlInstrumentorE"
    },
    {
     "referenced_type" : "_ZTIj"
    },
    {
     "referenced_type" : "_ZTIj"
    },
    {
     "referenced_type" : "_ZTIN7android8hardware8graphics6common4V1_111PixelFormatE"
    },
    {
     "referenced_type" : "_ZTIj"
    },
    {
     "referenced_type" : "_ZTINSt3__18functionIFvN7android8hardware8graphics8composer4V2_15ErrorEyNS3_6common4V1_111PixelFormatEEEE"
    }
   ],
   "return_type" : "_ZTIN7android8hardware6ReturnIvEE",
   "source_file" : "/out/soong/.intermediates/hardware/interfaces/graphics/composer/2.2/android.hardware.graphics.composer@2.2_genc++_headers/gen/android/hardware/graphics/composer/2.2/BpHwComposerClient.h"
  },
  {
   "function_name" : "android::hardware::graphics::composer::V2_2::BpHwComposerClient::_hidl_getClientTargetSupport_2_2",
   "linker_set_key" : "_ZN7android8hardware8graphics8composer4V2_218BpHwComposerClient32_hidl_getClientTargetSupport_2_2EPNS0_10IInterfaceEPNS0_7details16HidlInstrumentorEyjjNS1_6common4V1_111PixelFormatENSB_9DataspaceE",
   "parameters" :
   [
    {
     "referenced_type" : "_ZTIPN7android8hardware10IInterfaceE"
    },
    {
     "referenced_type" : "_ZTIPN7android8hardware7details16HidlInstrumentorE"
    },
    {
     "referenced_type" : "_ZTIy"
    },
    {
     "referenced_type" : "_ZTIj"
    },
    {
     "referenced_type" : "_ZTIj"
    },
    {
     "referenced_type" : "_ZTIN7android8hardware8graphics6common4V1_111PixelFormatE"
    },
    {
     "referenced_type" : "_ZTIN7android8hardware8graphics6common4V1_19DataspaceE"
    }
   ],
   "return_type" : "_ZTIN7android8hardware6ReturnINS0_8graphics8composer4V2_15ErrorEEE",
   "source_file" : "/out/soong/.intermediates/hardware/interfaces/graphics/composer/2.2/android.hardware.graphics.composer@2.2_genc++_headers/gen/android/hardware/graphics/composer/2.2/BpHwComposerClient.h"
  },
  {
   "function_name" : "android::hardware::graphics::composer::V2_2::BpHwComposerClient::_hidl_getReadbackBufferAttributes",
   "linker_set_key" : "_ZN7android8hardware8graphics8composer4V2_218BpHwComposerClient33_hidl_getReadbackBufferAttributesEPNS0_10IInterfaceEPNS0_7details16HidlInstrumentorEyNSt3__18functionIFvNS2_4V2_15ErrorENS1_6common4V1_111PixelFormatENSF_9DataspaceEEEE",
   "parameters" :
   [
    {
     "referenced_type" : "_ZTIPN7android8hardware10IInterfaceE"
    },
    {
     "referenced_type" : "_ZTIPN7android8hardware7details16HidlInstrumentorE"
    },
    {
     "referenced_type" : "_ZTIy"
    },
    {
     "referenced_type" : "_ZTINSt3__18functionIFvN7android8hardware8graphics8composer4V2_15ErrorENS3_6common4V1_111PixelFormatENS8_9DataspaceEEEE"
    }
   ],
   "return_type" : "_ZTIN7android8hardware6ReturnIvEE",
   "source_file" : "/out/soong/.intermediates/hardware/interfaces/graphics/composer/2.2/android.hardware.graphics.composer@2.2_genc++_headers/gen/android/hardware/graphics/composer/2.2/BpHwComposerClient.h"
  },
  {
   "function_name" : "android::hardware::graphics::composer::V2_2::BpHwComposerClient::_hidl_getDataspaceSaturationMatrix",
   "linker_set_key" : "_ZN7android8hardware8graphics8composer4V2_218BpHwComposerClient34_hidl_getDataspaceSaturationMatrixEPNS0_10IInterfaceEPNS0_7details16HidlInstrumentorENS1_6common4V1_19DataspaceENSt3__18functionIFvNS2_4V2_15ErrorERKNS0_10hidl_arrayIfLj4EJLj4EEEEEEE",
   "parameters" :
   [
    {
     "referenced_type" : "_ZTIPN7android8hardware10IInterfaceE"
    },
    {
     "referenced_type" : "_ZTIPN7android8hardware7details16HidlInstrumentorE"
    },
    {
     "referenced_type" : "_ZTIN7android8hardware8graphics6common4V1_19DataspaceE"
    },
    {
     "referenced_type" : "_ZTINSt3__18functionIFvN7android8hardware8graphics8composer4V2_15ErrorERKNS2_10hidl_arrayIfLj4EJLj4EEEEEEE"
    }
   ],
   "return_type" : "_ZTIN7android8hardware6ReturnIvEE",
   "source_file" : "/out/soong/.intermediates/hardware/interfaces/graphics/composer/2.2/android.hardware.graphics.composer@2.2_genc++_headers/gen/android/hardware/graphics/composer/2.2/BpHwComposerClient.h"
  },
  {
   "function_name" : "android::hardware::graphics::composer::V2_2::BpHwComposerClient::ping",
   "linker_set_key" : "_ZN7android8hardware8graphics8composer4V2_218BpHwComposerClient4pingEv",
   "parameters" :
   [
    {
     "is_this_ptr" : true,
     "referenced_type" : "_ZTIPN7android8hardware8graphics8composer4V2_218BpHwComposerClientE"
    }
   ],
   "return_type" : "_ZTIN7android8hardware6ReturnIvEE",
   "source_file" : "/out/soong/.intermediates/hardware/interfaces/graphics/composer/2.2/android.hardware.graphics.composer@2.2_genc++_headers/gen/android/hardware/graphics/composer/2.2/BpHwComposerClient.h"
  },
  {
   "function_name" : "android::hardware::graphics::composer::V2_2::BpHwComposerClient::debug",
   "linker_set_key" : "_ZN7android8hardware8graphics8composer4V2_218BpHwComposerClient5debugERKNS0_11hidl_handleERKNS0_8hidl_vecINS0_11hidl_stringEEE",
   "parameters" :
   [
    {
     "is_this_ptr" : true,
     "referenced_type" : "_ZTIPN7android8hardware8graphics8composer4V2_218BpHwComposerClientE"
    },
    {
     "referenced_type" : "_ZTIRKN7android8hardware11hidl_handleE"
    },
    {
     "referenced_type" : "_ZTIRKN7android8hardware8hidl_vecINS0_11hidl_stringEEE"
    }
   ],
   "return_type" : "_ZTIN7android8hardware6ReturnIvEE",
   "source_file" : "/out/soong/.intermediates/hardware/interfaces/graphics/composer/2.2/android.hardware.graphics.composer@2.2_genc++_headers/gen/android/hardware/graphics/composer/2.2/BpHwComposerClient.h"
  },
  {
   "function_name" : "android::hardware::graphics::composer::V2_2::BpHwComposerClient::BpHwComposerClient",
   "linker_set_key" : "_ZN7android8hardware8graphics8composer4V2_218BpHwComposerClientC1ERKNS_2spINS0_7IBinderEEE",
   "parameters" :
   [
    {
     "is_this_ptr" : true,
     "referenced_type" : "_ZTIPN7android8hardware8graphics8composer4V2_218BpHwComposerClientE"
    },
    {
     "referenced_type" : "_ZTIRKN7android2spINS_8hardware7IBinderEEE"
    }
   ],
   "return_type" : "_ZTIv",
   "source_file" : "/out/soong/.intermediates/hardware/interfaces/graphics/composer/2.2/android.hardware.graphics.composer@2.2_genc++_headers/gen/android/hardware/graphics/composer/2.2/BpHwComposerClient.h"
  },
  {
   "function_name" : "android::hardware::graphics::composer::V2_2::BpHwComposerClient::BpHwComposerClient",
   "linker_set_key" : "_ZN7android8hardware8graphics8composer4V2_218BpHwComposerClientC2ERKNS_2spINS0_7IBinderEEE",
   "parameters" :
   [
    {
     "is_this_ptr" : true,
     "referenced_type" : "_ZTIPN7android8hardware8graphics8composer4V2_218BpHwComposerClientE"
    },
    {
     "referenced_type" : "_ZTIRKN7android2spINS_8hardware7IBinderEEE"
    }
   ],
   "return_type" : "_ZTIv",
   "source_file" : "/out/soong/.intermediates/hardware/interfaces/graphics/composer/2.2/android.hardware.graphics.composer@2.2_genc++_headers/gen/android/hardware/graphics/composer/2.2/BpHwComposerClient.h"
  },
  {
   "function_name" : "android::hardware::graphics::composer::V2_2::IComposer::getService",
   "linker_set_key" : "_ZN7android8hardware8graphics8composer4V2_29IComposer10getServiceERKNSt3__112basic_stringIcNS5_11char_traitsIcEENS5_9allocatorIcEEEEb",
   "parameters" :
   [
    {
     "default_arg" : true,
     "referenced_type" : "_ZTIRKNSt3__112basic_stringIcNS_11char_traitsIcEENS_9allocatorIcEEEE"
    },
    {
     "default_arg" : true,
     "referenced_type" : "_ZTIb"
    }
   ],
   "return_type" : "_ZTIN7android2spINS_8hardware8graphics8composer4V2_29IComposerEEE",
   "source_file" : "/out/soong/.intermediates/hardware/interfaces/graphics/composer/2.2/android.hardware.graphics.composer@2.2_genc++_headers/gen/android/hardware/graphics/composer/2.2/IComposer.h"
  },
  {
   "function_name" : "android::hardware::graphics::composer::V2_2::IComposer::linkToDeath",
   "linker_set_key" : "_ZN7android8hardware8graphics8composer4V2_29IComposer11linkToDeathERKNS_2spINS0_20hidl_death_recipientEEEy",
   "parameters" :
   [
    {
     "is_this_ptr" : true,
     "referenced_type" : "_ZTIPN7android8hardware8graphics8composer4V2_29IComposerE"
    },
    {
     "referenced_type" : "_ZTIRKN7android2spINS_8hardware20hidl_death_recipientEEE"
    },
    {
     "referenced_type" : "_ZTIy"
    }
   ],
   "return_type" : "_ZTIN7android8hardware6ReturnIbEE",
   "source_file" : "/out/soong/.intermediates/hardware/interfaces/graphics/composer/2.2/android.hardware.graphics.composer@2.2_genc++_headers/gen/android/hardware/graphics/composer/2.2/IComposer.h"
  },
  {
   "function_name" : "android::hardware::graphics::composer::V2_2::IComposer::getDebugInfo",
   "linker_set_key" : "_ZN7android8hardware8graphics8composer4V2_29IComposer12getDebugInfoENSt3__18functionIFvRKNS_4hidl4base4V1_09DebugInfoEEEE",
   "parameters" :
   [
    {
     "is_this_ptr" : true,
     "referenced_type" : "_ZTIPN7android8hardware8graphics8composer4V2_29IComposerE"
    },
    {
     "referenced_type" : "_ZTINSt3__18functionIFvRKN7android4hidl4base4V1_09DebugInfoEEEE"
    }
   ],
   "return_type" : "_ZTIN7android8hardware6ReturnIvEE",
   "source_file" : "/out/soong/.intermediates/hardware/interfaces/graphics/composer/2.2/android.hardware.graphics.composer@2.2_genc++_headers/gen/android/hardware/graphics/composer/2.2/IComposer.h"
  },
  {
   "function_name" : "android::hardware::graphics::composer::V2_2::IComposer::getHashChain",
   "linker_set_key" : "_ZN7android8hardware8graphics8composer4V2_29IComposer12getHashChainENSt3__18functionIFvRKNS0_8hidl_vecINS0_10hidl_arrayIhLj32EJEEEEEEEE",
   "parameters" :
   [
    {
     "is_this_ptr" : true,
     "referenced_type" : "_ZTIPN7android8hardware8graphics8composer4V2_29IComposerE"
    },
    {
     "referenced_type" : "_ZTINSt3__18functionIFvRKN7android8hardware8hidl_vecINS2_10hidl_arrayIhLj32EJEEEEEEEE"
    }
   ],
   "return_type" : "_ZTIN7android8hardware6ReturnIvEE",
   "source_file" : "/out/soong/.intermediates/hardware/interfaces/graphics/composer/2.2/android.hardware.graphics.composer@2.2_genc++_headers/gen/android/hardware/graphics/composer/2.2/IComposer.h"
  },
  {
   "function_name" : "android::hardware::graphics::composer::V2_2::IComposer::tryGetService",
   "linker_set_key" : "_ZN7android8hardware8graphics8composer4V2_29IComposer13tryGetServiceERKNSt3__112basic_stringIcNS5_11char_traitsIcEENS5_9allocatorIcEEEEb",
   "parameters" :
   [
    {
     "default_arg" : true,
     "referenced_type" : "_ZTIRKNSt3__112basic_stringIcNS_11char_traitsIcEENS_9allocatorIcEEEE"
    },
    {
     "default_arg" : true,
     "referenced_type" : "_ZTIb"
    }
   ],
   "return_type" : "_ZTIN7android2spINS_8hardware8graphics8composer4V2_29IComposerEEE",
   "source_file" : "/out/soong/.intermediates/hardware/interfaces/graphics/composer/2.2/android.hardware.graphics.composer@2.2_genc++_headers/gen/android/hardware/graphics/composer/2.2/IComposer.h"
  },
  {
   "function_name" : "android::hardware::graphics::composer::V2_2::IComposer::unlinkToDeath",
   "linker_set_key" : "_ZN7android8hardware8graphics8composer4V2_29IComposer13unlinkToDeathERKNS_2spINS0_20hidl_death_recipientEEE",
   "parameters" :
   [
    {
     "is_this_ptr" : true,
     "referenced_type" : "_ZTIPN7android8hardware8graphics8composer4V2_29IComposerE"
    },
    {
     "referenced_type" : "_ZTIRKN7android2spINS_8hardware20hidl_death_recipientEEE"
    }
   ],
   "return_type" : "_ZTIN7android8hardware6ReturnIbEE",
   "source_file" : "/out/soong/.intermediates/hardware/interfaces/graphics/composer/2.2/android.hardware.graphics.composer@2.2_genc++_headers/gen/android/hardware/graphics/composer/2.2/IComposer.h"
  },
  {
   "function_name" : "android::hardware::graphics::composer::V2_2::IComposer::interfaceChain",
   "linker_set_key" : "_ZN7android8hardware8graphics8composer4V2_29IComposer14interfaceChainENSt3__18functionIFvRKNS0_8hidl_vecINS0_11hidl_stringEEEEEE",
   "parameters" :
   [
    {
     "is_this_ptr" : true,
     "referenced_type" : "_ZTIPN7android8hardware8graphics8composer4V2_29IComposerE"
    },
    {
     "referenced_type" : "_ZTINSt3__18functionIFvRKN7android8hardware8hidl_vecINS2_11hidl_stringEEEEEE"
    }
   ],
   "return_type" : "_ZTIN7android8hardware6ReturnIvEE",
   "source_file" : "/out/soong/.intermediates/hardware/interfaces/graphics/composer/2.2/android.hardware.graphics.composer@2.2_genc++_headers/gen/android/hardware/graphics/composer/2.2/IComposer.h"
  },
  {
   "function_name" : "android::hardware::graphics::composer::V2_2::IComposer::registerAsService",
   "linker_set_key" : "_ZN7android8hardware8graphics8composer4V2_29IComposer17registerAsServiceERKNSt3__112basic_stringIcNS5_11char_traitsIcEENS5_9allocatorIcEEEE",
   "parameters" :
   [
    {
     "is_this_ptr" : true,
     "referenced_type" : "_ZTIPN7android8hardware8graphics8composer4V2_29IComposerE"
    },
    {
     "default_arg" : true,
     "referenced_type" : "_ZTIRKNSt3__112basic_stringIcNS_11char_traitsIcEENS_9allocatorIcEEEE"
    }
   ],
   "return_type" : "_ZTIi",
   "source_file" : "/out/soong/.intermediates/hardware/interfaces/graphics/composer/2.2/android.hardware.graphics.composer@2.2_genc++_headers/gen/android/hardware/graphics/composer/2.2/IComposer.h"
  },
  {
   "function_name" : "android::hardware::graphics::composer::V2_2::IComposer::interfaceDescriptor",
   "linker_set_key" : "_ZN7android8hardware8graphics8composer4V2_29IComposer19interfaceDescriptorENSt3__18functionIFvRKNS0_11hidl_stringEEEE",
   "parameters" :
   [
    {
     "is_this_ptr" : true,
     "referenced_type" : "_ZTIPN7android8hardware8graphics8composer4V2_29IComposerE"
    },
    {
     "referenced_type" : "_ZTINSt3__18functionIFvRKN7android8hardware11hidl_stringEEEE"
    }
   ],
   "return_type" : "_ZTIN7android8hardware6ReturnIvEE",
   "source_file" : "/out/soong/.intermediates/hardware/interfaces/graphics/composer/2.2/android.hardware.graphics.composer@2.2_genc++_headers/gen/android/hardware/graphics/composer/2.2/IComposer.h"
  },
  {
   "function_name" : "android::hardware::graphics::composer::V2_2::IComposer::notifySyspropsChanged",
   "linker_set_key" : "_ZN7android8hardware8graphics8composer4V2_29IComposer21notifySyspropsChangedEv",
   "parameters" :
   [
    {
     "is_this_ptr" : true,
     "referenced_type" : "_ZTIPN7android8hardware8graphics8composer4V2_29IComposerE"
    }
   ],
   "return_type" : "_ZTIN7android8hardware6ReturnIvEE",
   "source_file" : "/out/soong/.intermediates/hardware/interfaces/graphics/composer/2.2/android.hardware.graphics.composer@2.2_genc++_headers/gen/android/hardware/graphics/composer/2.2/IComposer.h"
  },
  {
   "function_name" : "android::hardware::graphics::composer::V2_2::IComposer::setHALInstrumentation",
   "linker_set_key" : "_ZN7android8hardware8graphics8composer4V2_29IComposer21setHALInstrumentationEv",
   "parameters" :
   [
    {
     "is_this_ptr" : true,
     "referenced_type" : "_ZTIPN7android8hardware8graphics8composer4V2_29IComposerE"
    }
   ],
   "return_type" : "_ZTIN7android8hardware6ReturnIvEE",
   "source_file" : "/out/soong/.intermediates/hardware/interfaces/graphics/composer/2.2/android.hardware.graphics.composer@2.2_genc++_headers/gen/android/hardware/graphics/composer/2.2/IComposer.h"
  },
  {
   "function_name" : "android::hardware::graphics::composer::V2_2::IComposer::registerForNotifications",
   "linker_set_key" : "_ZN7android8hardware8graphics8composer4V2_29IComposer24registerForNotificationsERKNSt3__112basic_stringIcNS5_11char_traitsIcEENS5_9allocatorIcEEEERKNS_2spINS_4hidl7manager4V1_020IServiceNotificationEEE",
   "parameters" :
   [
    {
     "referenced_type" : "_ZTIRKNSt3__112basic_stringIcNS_11char_traitsIcEENS_9allocatorIcEEEE"
    },
    {
     "referenced_type" : "_ZTIRKN7android2spINS_4hidl7manager4V1_020IServiceNotificationEEE"
    }
   ],
   "return_type" : "_ZTIb",
   "source_file" : "/out/soong/.intermediates/hardware/interfaces/graphics/composer/2.2/android.hardware.graphics.composer@2.2_genc++_headers/gen/android/hardware/graphics/composer/2.2/IComposer.h"
  },
  {
   "function_name" : "android::hardware::graphics::composer::V2_2::IComposer::ping",
   "linker_set_key" : "_ZN7android8hardware8graphics8composer4V2_29IComposer4pingEv",
   "parameters" :
   [
    {
     "is_this_ptr" : true,
     "referenced_type" : "_ZTIPN7android8hardware8graphics8composer4V2_29IComposerE"
    }
   ],
   "return_type" : "_ZTIN7android8hardware6ReturnIvEE",
   "source_file" : "/out/soong/.intermediates/hardware/interfaces/graphics/composer/2.2/android.hardware.graphics.composer@2.2_genc++_headers/gen/android/hardware/graphics/composer/2.2/IComposer.h"
  },
  {
   "function_name" : "android::hardware::graphics::composer::V2_2::IComposer::debug",
   "linker_set_key" : "_ZN7android8hardware8graphics8composer4V2_29IComposer5debugERKNS0_11hidl_handleERKNS0_8hidl_vecINS0_11hidl_stringEEE",
   "parameters" :
   [
    {
     "is_this_ptr" : true,
     "referenced_type" : "_ZTIPN7android8hardware8graphics8composer4V2_29IComposerE"
    },
    {
     "referenced_type" : "_ZTIRKN7android8hardware11hidl_handleE"
    },
    {
     "referenced_type" : "_ZTIRKN7android8hardware8hidl_vecINS0_11hidl_stringEEE"
    }
   ],
   "return_type" : "_ZTIN7android8hardware6ReturnIvEE",
   "source_file" : "/out/soong/.intermediates/hardware/interfaces/graphics/composer/2.2/android.hardware.graphics.composer@2.2_genc++_headers/gen/android/hardware/graphics/composer/2.2/IComposer.h"
  },
  {
   "function_name" : "android::hardware::graphics::composer::V2_2::IComposer::castFrom",
   "linker_set_key" : "_ZN7android8hardware8graphics8composer4V2_29IComposer8castFromERKNS_2spINS2_4V2_19IComposerEEEb",
   "parameters" :
   [
    {
     "referenced_type" : "_ZTIRKN7android2spINS_8hardware8graphics8composer4V2_19IComposerEEE"
    },
    {
     "default_arg" : true,
     "referenced_type" : "_ZTIb"
    }
   ],
   "return_type" : "_ZTIN7android8hardware6ReturnINS_2spINS0_8graphics8composer4V2_29IComposerEEEEE",
   "source_file" : "/out/soong/.intermediates/hardware/interfaces/graphics/composer/2.2/android.hardware.graphics.composer@2.2_genc++_headers/gen/android/hardware/graphics/composer/2.2/IComposer.h"
  },
  {
   "function_name" : "android::hardware::graphics::composer::V2_2::IComposer::castFrom",
   "linker_set_key" : "_ZN7android8hardware8graphics8composer4V2_29IComposer8castFromERKNS_2spINS_4hidl4base4V1_05IBaseEEEb",
   "parameters" :
   [
    {
     "referenced_type" : "_ZTIRKN7android2spINS_4hidl4base4V1_05IBaseEEE"
    },
    {
     "default_arg" : true,
     "referenced_type" : "_ZTIb"
    }
   ],
   "return_type" : "_ZTIN7android8hardware6ReturnINS_2spINS0_8graphics8composer4V2_29IComposerEEEEE",
   "source_file" : "/out/soong/.intermediates/hardware/interfaces/graphics/composer/2.2/android.hardware.graphics.composer@2.2_genc++_headers/gen/android/hardware/graphics/composer/2.2/IComposer.h"
  },
  {
   "function_name" : "android::hardware::graphics::composer::V2_2::IComposer::castFrom",
   "linker_set_key" : "_ZN7android8hardware8graphics8composer4V2_29IComposer8castFromERKNS_2spIS4_EEb",
   "parameters" :
   [
    {
     "referenced_type" : "_ZTIRKN7android2spINS_8hardware8graphics8composer4V2_29IComposerEEE"
    },
    {
     "default_arg" : true,
     "referenced_type" : "_ZTIb"
    }
   ],
   "return_type" : "_ZTIN7android8hardware6ReturnINS_2spINS0_8graphics8composer4V2_29IComposerEEEEE",
   "source_file" : "/out/soong/.intermediates/hardware/interfaces/graphics/composer/2.2/android.hardware.graphics.composer@2.2_genc++_headers/gen/android/hardware/graphics/composer/2.2/IComposer.h"
  },
  {
   "function_name" : "android::hardware::graphics::composer::V2_2::BpHwComposer::onLastStrongRef",
   "linker_set_key" : "_ZThn8_N7android8hardware8graphics8composer4V2_212BpHwComposer15onLastStrongRefEPKv",
   "parameters" :
   [
    {
     "is_this_ptr" : true,
     "referenced_type" : "_ZTIPN7android8hardware8graphics8composer4V2_212BpHwComposerE"
    },
    {
     "referenced_type" : "_ZTIPKv"
    }
   ],
   "return_type" : "_ZTIv",
   "source_file" : "/out/soong/.intermediates/hardware/interfaces/graphics/composer/2.2/android.hardware.graphics.composer@2.2_genc++_headers/gen/android/hardware/graphics/composer/2.2/BpHwComposer.h"
  },
  {
   "function_name" : "android::hardware::graphics::composer::V2_2::BpHwComposerClient::onLastStrongRef",
   "linker_set_key" : "_ZThn8_N7android8hardware8graphics8composer4V2_218BpHwComposerClient15onLastStrongRefEPKv",
   "parameters" :
   [
    {
     "is_this_ptr" : true,
     "referenced_type" : "_ZTIPN7android8hardware8graphics8composer4V2_218BpHwComposerClientE"
    },
    {
     "referenced_type" : "_ZTIPKv"
    }
   ],
   "return_type" : "_ZTIv",
   "source_file" : "/out/soong/.intermediates/hardware/interfaces/graphics/composer/2.2/android.hardware.graphics.composer@2.2_genc++_headers/gen/android/hardware/graphics/composer/2.2/BpHwComposerClient.h"
  },
  {
   "function_name" : "android::hardware::graphics::composer::V2_2::BpHwComposer::onLastStrongRef",
   "linker_set_key" : "_ZTv0_n20_N7android8hardware8graphics8composer4V2_212BpHwComposer15onLastStrongRefEPKv",
   "parameters" :
   [
    {
     "is_this_ptr" : true,
     "referenced_type" : "_ZTIPN7android8hardware8graphics8composer4V2_212BpHwComposerE"
    },
    {
     "referenced_type" : "_ZTIPKv"
    }
   ],
   "return_type" : "_ZTIv",
   "source_file" : "/out/soong/.intermediates/hardware/interfaces/graphics/composer/2.2/android.hardware.graphics.composer@2.2_genc++_headers/gen/android/hardware/graphics/composer/2.2/BpHwComposer.h"
  },
  {
   "function_name" : "android::hardware::graphics::composer::V2_2::BpHwComposerClient::onLastStrongRef",
   "linker_set_key" : "_ZTv0_n20_N7android8hardware8graphics8composer4V2_218BpHwComposerClient15onLastStrongRefEPKv",
   "parameters" :
   [
    {
     "is_this_ptr" : true,
     "referenced_type" : "_ZTIPN7android8hardware8graphics8composer4V2_218BpHwComposerClientE"
    },
    {
     "referenced_type" : "_ZTIPKv"
    }
   ],
   "return_type" : "_ZTIv",
   "source_file" : "/out/soong/.intermediates/hardware/interfaces/graphics/composer/2.2/android.hardware.graphics.composer@2.2_genc++_headers/gen/android/hardware/graphics/composer/2.2/BpHwComposerClient.h"
  }
 ],
 "global_vars" :
 [
  {
   "linker_set_key" : "_ZN7android8hardware8graphics8composer4V2_215IComposerClient10descriptorE",
   "name" : "android::hardware::graphics::composer::V2_2::IComposerClient::descriptor",
   "referenced_type" : "_ZTIPKc",
   "source_file" : "/out/soong/.intermediates/hardware/interfaces/graphics/composer/2.2/android.hardware.graphics.composer@2.2_genc++_headers/gen/android/hardware/graphics/composer/2.2/IComposerClient.h"
  },
  {
   "linker_set_key" : "_ZN7android8hardware8graphics8composer4V2_29IComposer10descriptorE",
   "name" : "android::hardware::graphics::composer::V2_2::IComposer::descriptor",
   "referenced_type" : "_ZTIPKc",
   "source_file" : "/out/soong/.intermediates/hardware/interfaces/graphics/composer/2.2/android.hardware.graphics.composer@2.2_genc++_headers/gen/android/hardware/graphics/composer/2.2/IComposer.h"
  }
 ],
 "lvalue_reference_types" :
 [
  {
   "alignment" : 4,
   "linker_set_key" : "_ZTIRK7log_msg",
   "name" : "const log_msg &",
   "referenced_type" : "_ZTIK7log_msg",
   "self_type" : "_ZTIRK7log_msg",
   "size" : 4,
   "source_file" : "/system/core/liblog/include/log/log_read.h"
  },
  {
   "alignment" : 4,
   "linker_set_key" : "_ZTIRKN7android2spINS_4hidl4base4V1_05IBaseEEE",
   "name" : "const android::sp<android::hidl::base::V1_0::IBase> &",
   "referenced_type" : "_ZTIKN7android2spINS_4hidl4base4V1_05IBaseEEE",
   "self_type" : "_ZTIRKN7android2spINS_4hidl4base4V1_05IBaseEEE",
   "size" : 4,
   "source_file" : "/system/core/libutils/include/utils/StrongPointer.h"
  },
  {
   "alignment" : 4,
   "linker_set_key" : "_ZTIRKN7android2spINS_4hidl7manager4V1_020IServiceNotificationEEE",
   "name" : "const android::sp<android::hidl::manager::V1_0::IServiceNotification> &",
   "referenced_type" : "_ZTIKN7android2spINS_4hidl7manager4V1_020IServiceNotificationEEE",
   "self_type" : "_ZTIRKN7android2spINS_4hidl7manager4V1_020IServiceNotificationEEE",
   "size" : 4,
   "source_file" : "/out/soong/.intermediates/hardware/interfaces/graphics/composer/2.2/android.hardware.graphics.composer@2.2_genc++_headers/gen/android/hardware/graphics/composer/2.2/IComposer.h"
  },
  {
   "alignment" : 4,
   "linker_set_key" : "_ZTIRKN7android2spINS_8hardware20hidl_death_recipientEEE",
   "name" : "const android::sp<android::hardware::hidl_death_recipient> &",
   "referenced_type" : "_ZTIKN7android2spINS_8hardware20hidl_death_recipientEEE",
   "self_type" : "_ZTIRKN7android2spINS_8hardware20hidl_death_recipientEEE",
   "size" : 4,
   "source_file" : "/system/core/libutils/include/utils/RefBase.h"
  },
  {
   "alignment" : 4,
   "linker_set_key" : "_ZTIRKN7android2spINS_8hardware27hidl_binder_death_recipientEEE",
   "name" : "const android::sp<android::hardware::hidl_binder_death_recipient> &",
   "referenced_type" : "_ZTIKN7android2spINS_8hardware27hidl_binder_death_recipientEEE",
   "self_type" : "_ZTIRKN7android2spINS_8hardware27hidl_binder_death_recipientEEE",
   "size" : 4,
   "source_file" : "/system/core/libutils/include/utils/RefBase.h"
  },
  {
   "alignment" : 4,
   "linker_set_key" : "_ZTIRKN7android2spINS_8hardware7IBinderEEE",
   "name" : "const android::sp<android::hardware::IBinder> &",
   "referenced_type" : "_ZTIKN7android2spINS_8hardware7IBinderEEE",
   "self_type" : "_ZTIRKN7android2spINS_8hardware7IBinderEEE",
   "size" : 4,
   "source_file" : "/system/libhwbinder/include/hwbinder/IInterface.h"
  },
  {
   "alignment" : 4,
   "linker_set_key" : "_ZTIRKN7android2spINS_8hardware8graphics8composer4V2_115IComposerClientEEE",
   "name" : "const android::sp<android::hardware::graphics::composer::V2_1::IComposerClient> &",
   "referenced_type" : "_ZTIKN7android2spINS_8hardware8graphics8composer4V2_115IComposerClientEEE",
   "self_type" : "_ZTIRKN7android2spINS_8hardware8graphics8composer4V2_115IComposerClientEEE",
   "size" : 4,
   "source_file" : "/system/core/libutils/include/utils/StrongPointer.h"
  },
  {
   "alignment" : 4,
   "linker_set_key" : "_ZTIRKN7android2spINS_8hardware8graphics8composer4V2_117IComposerCallbackEEE",
   "name" : "const android::sp<android::hardware::graphics::composer::V2_1::IComposerCallback> &",
   "referenced_type" : "_ZTIKN7android2spINS_8hardware8graphics8composer4V2_117IComposerCallbackEEE",
   "self_type" : "_ZTIRKN7android2spINS_8hardware8graphics8composer4V2_117IComposerCallbackEEE",
   "size" : 4,
   "source_file" : "/system/core/libutils/include/utils/StrongPointer.h"
  },
  {
   "alignment" : 4,
   "linker_set_key" : "_ZTIRKN7android2spINS_8hardware8graphics8composer4V2_19IComposerEEE",
   "name" : "const android::sp<android::hardware::graphics::composer::V2_1::IComposer> &",
   "referenced_type" : "_ZTIKN7android2spINS_8hardware8graphics8composer4V2_19IComposerEEE",
   "self_type" : "_ZTIRKN7android2spINS_8hardware8graphics8composer4V2_19IComposerEEE",
   "size" : 4,
   "source_file" : "/system/core/libutils/include/utils/StrongPointer.h"
  },
  {
   "alignment" : 4,
   "linker_set_key" : "_ZTIRKN7android2spINS_8hardware8graphics8composer4V2_215IComposerClientEEE",
   "name" : "const android::sp<android::hardware::graphics::composer::V2_2::IComposerClient> &",
   "referenced_type" : "_ZTIKN7android2spINS_8hardware8graphics8composer4V2_215IComposerClientEEE",
   "self_type" : "_ZTIRKN7android2spINS_8hardware8graphics8composer4V2_215IComposerClientEEE",
   "size" : 4,
   "source_file" : "/system/core/libutils/include/utils/StrongPointer.h"
  },
  {
   "alignment" : 4,
   "linker_set_key" : "_ZTIRKN7android2spINS_8hardware8graphics8composer4V2_29IComposerEEE",
   "name" : "const android::sp<android::hardware::graphics::composer::V2_2::IComposer> &",
   "referenced_type" : "_ZTIKN7android2spINS_8hardware8graphics8composer4V2_29IComposerEEE",
   "self_type" : "_ZTIRKN7android2spINS_8hardware8graphics8composer4V2_29IComposerEEE",
   "size" : 4,
   "source_file" : "/system/core/libutils/include/utils/StrongPointer.h"
  },
  {
   "alignment" : 4,
   "linker_set_key" : "_ZTIRKN7android2wpINS_8hardware9BHwBinderEEE",
   "name" : "const android::wp<android::hardware::BHwBinder> &",
   "referenced_type" : "_ZTIKN7android2wpINS_8hardware9BHwBinderEEE",
   "self_type" : "_ZTIRKN7android2wpINS_8hardware9BHwBinderEEE",
   "size" : 4,
   "source_file" : "/system/core/libutils/include/utils/RefBase.h"
  },
  {
   "alignment" : 4,
   "linker_set_key" : "_ZTIRKN7android7String8E",
   "name" : "const android::String8 &",
   "referenced_type" : "_ZTIKN7android7String8E",
   "self_type" : "_ZTIRKN7android7String8E",
   "size" : 4,
   "source_file" : "/system/core/libutils/include/utils/String8.h"
  },
  {
   "alignment" : 4,
   "linker_set_key" : "_ZTIRKN7android8String16E",
   "name" : "const android::String16 &",
   "referenced_type" : "_ZTIKN7android8String16E",
   "self_type" : "_ZTIRKN7android8String16E",
   "size" : 4,
   "source_file" : "/system/core/libutils/include/utils/String16.h"
  },
  {
   "alignment" : 4,
   "linker_set_key" : "_ZTIRKN7android8hardware10hidl_arrayIfLj4EJLj4EEEE",
   "name" : "const android::hardware::hidl_array<float, 4, 4> &",
   "referenced_type" : "_ZTIKN7android8hardware10hidl_arrayIfLj4EJLj4EEEE",
   "self_type" : "_ZTIRKN7android8hardware10hidl_arrayIfLj4EJLj4EEEE",
   "size" : 4,
   "source_file" : "/system/libhidl/base/include/hidl/HidlSupport.h"
  },
  {
   "alignment" : 4,
   "linker_set_key" : "_ZTIRKN7android8hardware10hidl_arrayIhLj32EJEEE",
   "name" : "const android::hardware::hidl_array<unsigned char, 32> &",
   "referenced_type" : "_ZTIKN7android8hardware10hidl_arrayIhLj32EJEEE",
   "self_type" : "_ZTIRKN7android8hardware10hidl_arrayIhLj32EJEEE",
   "size" : 4,
   "source_file" : "/system/libhidl/base/include/hidl/HidlSupport.h"
  },
  {
   "alignment" : 4,
   "linker_set_key" : "_ZTIRKN7android8hardware11hidl_handleE",
   "name" : "const android::hardware::hidl_handle &",
   "referenced_type" : "_ZTIKN7android8hardware11hidl_handleE",
   "self_type" : "_ZTIRKN7android8hardware11hidl_handleE",
   "size" : 4,
   "source_file" : "/system/libhidl/base/include/hidl/HidlSupport.h"
  },
  {
   "alignment" : 4,
   "linker_set_key" : "_ZTIRKN7android8hardware11hidl_memoryE",
   "name" : "const android::hardware::hidl_memory &",
   "referenced_type" : "_ZTIKN7android8hardware11hidl_memoryE",
   "self_type" : "_ZTIRKN7android8hardware11hidl_memoryE",
   "size" : 4,
   "source_file" : "/system/libhidl/base/include/hidl/HidlSupport.h"
  },
  {
   "alignment" : 4,
   "linker_set_key" : "_ZTIRKN7android8hardware11hidl_stringE",
   "name" : "const android::hardware::hidl_string &",
   "referenced_type" : "_ZTIKN7android8hardware11hidl_stringE",
   "self_type" : "_ZTIRKN7android8hardware11hidl_stringE",
   "size" : 4,
   "source_file" : "/system/libhidl/base/include/hidl/HidlSupport.h"
  },
  {
   "alignment" : 4,
   "linker_set_key" : "_ZTIRKN7android8hardware12MQDescriptorIjLNS0_8MQFlavorE1EEE",
   "name" : "const android::hardware::MQDescriptor<unsigned int, android::hardware::kSynchronizedReadWrite> &",
   "referenced_type" : "_ZTIKN7android8hardware12MQDescriptorIjLNS0_8MQFlavorE1EEE",
   "self_type" : "_ZTIRKN7android8hardware12MQDescriptorIjLNS0_8MQFlavorE1EEE",
   "size" : 4,
   "source_file" : "/out/soong/.intermediates/hardware/interfaces/graphics/composer/2.2/android.hardware.graphics.composer@2.2_genc++_headers/gen/android/hardware/graphics/composer/2.2/BpHwComposerClient.h"
  },
  {
   "alignment" : 4,
   "linker_set_key" : "_ZTIRKN7android8hardware12hidl_versionE",
   "name" : "const android::hardware::hidl_version &",
   "referenced_type" : "_ZTIKN7android8hardware12hidl_versionE",
   "self_type" : "_ZTIRKN7android8hardware12hidl_versionE",
   "size" : 4,
   "source_file" : "/system/libhidl/base/include/hidl/HidlSupport.h"
  },
  {
   "alignment" : 4,
   "linker_set_key" : "_ZTIRKN7android8hardware6ParcelE",
   "name" : "const android::hardware::Parcel &",
   "referenced_type" : "_ZTIKN7android8hardware6ParcelE",
   "self_type" : "_ZTIRKN7android8hardware6ParcelE",
   "size" : 4,
   "source_file" : "/system/libhwbinder/include/hwbinder/Parcel.h"
  },
  {
   "alignment" : 4,
   "linker_set_key" : "_ZTIRKN7android8hardware6ReturnIbEE",
   "name" : "const android::hardware::Return<bool> &",
   "referenced_type" : "_ZTIKN7android8hardware6ReturnIbEE",
   "self_type" : "_ZTIRKN7android8hardware6ReturnIbEE",
   "size" : 4,
   "source_file" : "/system/libhidl/base/include/hidl/Status.h"
  },
  {
   "alignment" : 4,
   "linker_set_key" : "_ZTIRKN7android8hardware6StatusE",
   "name" : "const android::hardware::Status &",
   "referenced_type" : "_ZTIKN7android8hardware6StatusE",
   "self_type" : "_ZTIRKN7android8hardware6StatusE",
   "size" : 4,
   "source_file" : "/system/libhidl/base/include/hidl/Status.h"
  },
  {
   "linker_set_key" : "_ZTIRKN7android8hardware8hidl_vec4iterIXTL0__EEE",
   "name" : "const iter<is_const> &",
   "referenced_type" : "_ZTIKN7android8hardware8hidl_vec4iterIXTL0__EEE",
   "self_type" : "_ZTIRKN7android8hardware8hidl_vec4iterIXTL0__EEE",
   "source_file" : "/system/libhidl/base/include/hidl/HidlSupport.h"
  },
  {
   "alignment" : 4,
   "linker_set_key" : "_ZTIRKN7android8hardware8hidl_vecINS0_11hidl_handleEEE",
   "name" : "const android::hardware::hidl_vec<android::hardware::hidl_handle> &",
   "referenced_type" : "_ZTIKN7android8hardware8hidl_vecINS0_11hidl_handleEEE",
   "self_type" : "_ZTIRKN7android8hardware8hidl_vecINS0_11hidl_handleEEE",
   "size" : 4,
   "source_file" : "/system/libhidl/transport/include/hidl/HidlBinderSupport.h"
  },
  {
   "alignment" : 4,
   "linker_set_key" : "_ZTIRKN7android8hardware8hidl_vecINS0_11hidl_stringEEE",
   "name" : "const android::hardware::hidl_vec<android::hardware::hidl_string> &",
   "referenced_type" : "_ZTIKN7android8hardware8hidl_vecINS0_11hidl_stringEEE",
   "self_type" : "_ZTIRKN7android8hardware8hidl_vecINS0_11hidl_stringEEE",
   "size" : 4,
   "source_file" : "/out/soong/.intermediates/hardware/interfaces/graphics/composer/2.2/android.hardware.graphics.composer@2.2_genc++_headers/gen/android/hardware/graphics/composer/2.2/IComposer.h"
  },
  {
   "alignment" : 4,
   "linker_set_key" : "_ZTIRKN7android8hardware8hidl_vecINS0_8graphics6common4V1_112RenderIntentEEE",
   "name" : "const android::hardware::hidl_vec<android::hardware::graphics::common::V1_1::RenderIntent> &",
   "referenced_type" : "_ZTIKN7android8hardware8hidl_vecINS0_8graphics6common4V1_112RenderIntentEEE",
   "self_type" : "_ZTIRKN7android8hardware8hidl_vecINS0_8graphics6common4V1_112RenderIntentEEE",
   "size" : 4,
   "source_file" : "/system/libhidl/transport/include/hidl/HidlBinderSupport.h"
  },
  {
   "alignment" : 4,
   "linker_set_key" : "_ZTIRKN7android8hardware8hidl_vecINS0_8graphics6common4V1_19ColorModeEEE",
   "name" : "const android::hardware::hidl_vec<android::hardware::graphics::common::V1_1::ColorMode> &",
   "referenced_type" : "_ZTIKN7android8hardware8hidl_vecINS0_8graphics6common4V1_19ColorModeEEE",
   "self_type" : "_ZTIRKN7android8hardware8hidl_vecINS0_8graphics6common4V1_19ColorModeEEE",
   "size" : 4,
   "source_file" : "/system/libhidl/transport/include/hidl/HidlBinderSupport.h"
  },
  {
   "alignment" : 4,
   "linker_set_key" : "_ZTIRKN7android8hardware8hidl_vecINS0_8graphics8composer4V2_215IComposerClient19PerFrameMetadataKeyEEE",
   "name" : "const android::hardware::hidl_vec<android::hardware::graphics::composer::V2_2::IComposerClient::PerFrameMetadataKey> &",
   "referenced_type" : "_ZTIKN7android8hardware8hidl_vecINS0_8graphics8composer4V2_215IComposerClient19PerFrameMetadataKeyEEE",
   "self_type" : "_ZTIRKN7android8hardware8hidl_vecINS0_8graphics8composer4V2_215IComposerClient19PerFrameMetadataKeyEEE",
   "size" : 4,
   "source_file" : "/system/libhidl/transport/include/hidl/HidlBinderSupport.h"
  },
  {
   "alignment" : 4,
   "linker_set_key" : "_ZTIRKN7android8hardware8hidl_vecIiEE",
   "name" : "const android::hardware::hidl_vec<int> &",
   "referenced_type" : "_ZTIKN7android8hardware8hidl_vecIiEE",
   "self_type" : "_ZTIRKN7android8hardware8hidl_vecIiEE",
   "size" : 4,
   "source_file" : "/system/libhidl/base/include/hidl/HidlSupport.h"
  },
  {
   "alignment" : 4,
   "linker_set_key" : "_ZTIRKNSt3__112basic_stringIcNS_11char_traitsIcEENS_9allocatorIcEEEE",
   "name" : "const std::basic_string<char, std::char_traits<char>, std::allocator<char> > &",
   "referenced_type" : "_ZTIKNSt3__112basic_stringIcNS_11char_traitsIcEENS_9allocatorIcEEEE",
   "self_type" : "_ZTIRKNSt3__112basic_stringIcNS_11char_traitsIcEENS_9allocatorIcEEEE",
   "size" : 4,
   "source_file" : "/system/libhidl/transport/include/hidl/HidlTransportSupport.h"
  },
  {
   "alignment" : 4,
   "linker_set_key" : "_ZTIRKNSt3__16vectorINS_8functionIFvN7android8hardware7details16HidlInstrumentor20InstrumentationEventEPKcS8_S8_S8_PNS0_IPvNS_9allocatorIS9_EEEEEEENSA_ISF_EEEE",
   "name" : "const std::vector<std::function<void (InstrumentationEvent, const char *, const char *, const char *, const char *, vector<void *, allocator<void *> > *)>, std::allocator<std::function<void (InstrumentationEvent, const char *, const char *, const char *, const char *, vector<void *, allocator<void *> > *)> > > &",
   "referenced_type" : "_ZTIKNSt3__16vectorINS_8functionIFvN7android8hardware7details16HidlInstrumentor20InstrumentationEventEPKcS8_S8_S8_PNS0_IPvNS_9allocatorIS9_EEEEEEENSA_ISF_EEEE",
   "self_type" : "_ZTIRKNSt3__16vectorINS_8functionIFvN7android8hardware7details16HidlInstrumentor20InstrumentationEventEPKcS8_S8_S8_PNS0_IPvNS_9allocatorIS9_EEEEEEENSA_ISF_EEEE",
   "size" : 4,
   "source_file" : "/system/libhidl/base/include/hidl/HidlInternal.h"
  },
  {
   "alignment" : 4,
   "linker_set_key" : "_ZTIRKPKN7android4hidl4base4V1_05IBaseE",
   "name" : "const android::hidl::base::V1_0::IBase *const &",
   "referenced_type" : "_ZTIKPKN7android4hidl4base4V1_05IBaseE",
   "self_type" : "_ZTIRKPKN7android4hidl4base4V1_05IBaseE",
   "size" : 4,
   "source_file" : "/system/libhidl/transport/include/hidl/ConcurrentMap.h"
  },
  {
   "alignment" : 4,
   "linker_set_key" : "_ZTIRKa",
   "name" : "const signed char &",
   "referenced_type" : "_ZTIKa",
   "self_type" : "_ZTIRKa",
   "size" : 4,
   "source_file" : "/system/core/libutils/include/utils/TypeHelpers.h"
  },
  {
   "alignment" : 4,
   "linker_set_key" : "_ZTIRKb",
   "name" : "const bool &",
   "referenced_type" : "_ZTIKb",
   "self_type" : "_ZTIRKb",
   "size" : 4,
   "source_file" : "/system/core/libutils/include/utils/TypeHelpers.h"
  },
  {
   "alignment" : 4,
   "linker_set_key" : "_ZTIRKd",
   "name" : "const double &",
   "referenced_type" : "_ZTIKd",
   "self_type" : "_ZTIRKd",
   "size" : 4,
   "source_file" : "/system/core/libutils/include/utils/TypeHelpers.h"
  },
  {
   "alignment" : 4,
   "linker_set_key" : "_ZTIRKf",
   "name" : "const float &",
   "referenced_type" : "_ZTIKf",
   "self_type" : "_ZTIRKf",
   "size" : 4,
   "source_file" : "/system/core/libutils/include/utils/TypeHelpers.h"
  },
  {
   "alignment" : 4,
   "linker_set_key" : "_ZTIRKh",
   "name" : "const unsigned char &",
   "referenced_type" : "_ZTIKh",
   "self_type" : "_ZTIRKh",
   "size" : 4,
   "source_file" : "/system/core/libutils/include/utils/TypeHelpers.h"
  },
  {
   "alignment" : 4,
   "linker_set_key" : "_ZTIRKi",
   "name" : "const int &",
   "referenced_type" : "_ZTIKi",
   "self_type" : "_ZTIRKi",
   "size" : 4,
   "source_file" : "/system/libhidl/base/include/hidl/HidlInternal.h"
  },
  {
   "alignment" : 4,
   "linker_set_key" : "_ZTIRKj",
   "name" : "const unsigned int &",
   "referenced_type" : "_ZTIKj",
   "self_type" : "_ZTIRKj",
   "size" : 4,
   "source_file" : "/system/core/libutils/include/utils/TypeHelpers.h"
  },
  {
   "alignment" : 4,
   "linker_set_key" : "_ZTIRKs",
   "name" : "const short &",
   "referenced_type" : "_ZTIKs",
   "self_type" : "_ZTIRKs",
   "size" : 4,
   "source_file" : "/system/core/libutils/include/utils/TypeHelpers.h"
  },
  {
   "alignment" : 4,
   "linker_set_key" : "_ZTIRKt",
   "name" : "const unsigned short &",
   "referenced_type" : "_ZTIKt",
   "self_type" : "_ZTIRKt",
   "size" : 4,
   "source_file" : "/system/core/libutils/include/utils/TypeHelpers.h"
  },
  {
   "alignment" : 4,
   "linker_set_key" : "_ZTIRKx",
   "name" : "const long long &",
   "referenced_type" : "_ZTIKx",
   "self_type" : "_ZTIRKx",
   "size" : 4,
   "source_file" : "/system/core/libutils/include/utils/TypeHelpers.h"
  },
  {
   "alignment" : 4,
   "linker_set_key" : "_ZTIRKy",
   "name" : "const unsigned long long &",
   "referenced_type" : "_ZTIKy",
   "self_type" : "_ZTIRKy",
   "size" : 4,
   "source_file" : "/system/core/libutils/include/utils/TypeHelpers.h"
  },
  {
   "alignment" : 4,
   "linker_set_key" : "_ZTIRN7android2spINS_8hardware27hidl_binder_death_recipientEEE",
   "name" : "android::sp<android::hardware::hidl_binder_death_recipient> &",
   "referenced_type" : "_ZTIN7android2spINS_8hardware27hidl_binder_death_recipientEEE",
   "self_type" : "_ZTIRN7android2spINS_8hardware27hidl_binder_death_recipientEEE",
   "size" : 4,
   "source_file" : "/system/core/libutils/include/utils/StrongPointer.h"
  },
  {
   "alignment" : 4,
   "linker_set_key" : "_ZTIRN7android2spINS_8hardware8graphics8composer4V2_115IComposerClientEEE",
   "name" : "android::sp<android::hardware::graphics::composer::V2_1::IComposerClient> &",
   "referenced_type" : "_ZTIN7android2spINS_8hardware8graphics8composer4V2_115IComposerClientEEE",
   "self_type" : "_ZTIRN7android2spINS_8hardware8graphics8composer4V2_115IComposerClientEEE",
   "size" : 4,
   "source_file" : "/system/core/libutils/include/utils/StrongPointer.h"
  },
  {
   "alignment" : 4,
   "linker_set_key" : "_ZTIRN7android2spINS_8hardware8graphics8composer4V2_117IComposerCallbackEEE",
   "name" : "android::sp<android::hardware::graphics::composer::V2_1::IComposerCallback> &",
   "referenced_type" : "_ZTIN7android2spINS_8hardware8graphics8composer4V2_117IComposerCallbackEEE",
   "self_type" : "_ZTIRN7android2spINS_8hardware8graphics8composer4V2_117IComposerCallbackEEE",
   "size" : 4,
   "source_file" : "/system/core/libutils/include/utils/StrongPointer.h"
  },
  {
   "alignment" : 4,
   "linker_set_key" : "_ZTIRN7android2spINS_8hardware8graphics8composer4V2_215IComposerClientEEE",
   "name" : "android::sp<android::hardware::graphics::composer::V2_2::IComposerClient> &",
   "referenced_type" : "_ZTIN7android2spINS_8hardware8graphics8composer4V2_215IComposerClientEEE",
   "self_type" : "_ZTIRN7android2spINS_8hardware8graphics8composer4V2_215IComposerClientEEE",
   "size" : 4,
   "source_file" : "/system/core/libutils/include/utils/StrongPointer.h"
  },
  {
   "alignment" : 4,
   "linker_set_key" : "_ZTIRN7android2spINS_8hardware8graphics8composer4V2_29IComposerEEE",
   "name" : "android::sp<android::hardware::graphics::composer::V2_2::IComposer> &",
   "referenced_type" : "_ZTIN7android2spINS_8hardware8graphics8composer4V2_29IComposerEEE",
   "self_type" : "_ZTIRN7android2spINS_8hardware8graphics8composer4V2_29IComposerEEE",
   "size" : 4,
   "source_file" : "/system/core/libutils/include/utils/StrongPointer.h"
  },
  {
   "alignment" : 4,
   "linker_set_key" : "_ZTIRN7android5MutexE",
   "name" : "android::Mutex &",
   "referenced_type" : "_ZTIN7android5MutexE",
   "self_type" : "_ZTIRN7android5MutexE",
   "size" : 4,
   "source_file" : "/system/core/libutils/include/utils/Mutex.h"
  },
  {
   "alignment" : 4,
   "linker_set_key" : "_ZTIRN7android6RWLockE",
   "name" : "android::RWLock &",
   "referenced_type" : "_ZTIN7android6RWLockE",
   "self_type" : "_ZTIRN7android6RWLockE",
   "size" : 4,
   "source_file" : "/system/core/libutils/include/utils/RWLock.h"
  },
  {
   "alignment" : 4,
   "linker_set_key" : "_ZTIRN7android7String8E",
   "name" : "android::String8 &",
   "referenced_type" : "_ZTIN7android7String8E",
   "self_type" : "_ZTIRN7android7String8E",
   "size" : 4,
   "source_file" : "/system/core/libutils/include/utils/String8.h"
  },
  {
   "alignment" : 4,
   "linker_set_key" : "_ZTIRN7android8String16E",
   "name" : "android::String16 &",
   "referenced_type" : "_ZTIN7android8String16E",
   "self_type" : "_ZTIRN7android8String16E",
   "size" : 4,
   "source_file" : "/system/core/libutils/include/utils/String16.h"
  },
  {
   "alignment" : 4,
   "linker_set_key" : "_ZTIRN7android8hardware10TextOutputE",
   "name" : "android::hardware::TextOutput &",
   "referenced_type" : "_ZTIN7android8hardware10TextOutputE",
   "self_type" : "_ZTIRN7android8hardware10TextOutputE",
   "size" : 4,
   "source_file" : "/system/libhwbinder/include/hwbinder/Parcel.h"
  },
  {
   "alignment" : 4,
   "linker_set_key" : "_ZTIRN7android8hardware10hidl_arrayIfLj4EJLj4EEEE",
   "name" : "android::hardware::hidl_array<float, 4, 4> &",
   "referenced_type" : "_ZTIN7android8hardware10hidl_arrayIfLj4EJLj4EEEE",
   "self_type" : "_ZTIRN7android8hardware10hidl_arrayIfLj4EJLj4EEEE",
   "size" : 4,
   "source_file" : "/system/libhidl/base/include/hidl/HidlSupport.h"
  },
  {
   "alignment" : 4,
   "linker_set_key" : "_ZTIRN7android8hardware10hidl_arrayIhLj32EJEEE",
   "name" : "android::hardware::hidl_array<unsigned char, 32> &",
   "referenced_type" : "_ZTIN7android8hardware10hidl_arrayIhLj32EJEEE",
   "self_type" : "_ZTIRN7android8hardware10hidl_arrayIhLj32EJEEE",
   "size" : 4,
   "source_file" : "/system/libhidl/base/include/hidl/HidlInternal.h"
  },
  {
   "alignment" : 4,
   "linker_set_key" : "_ZTIRN7android8hardware11hidl_memoryE",
   "name" : "android::hardware::hidl_memory &",
   "referenced_type" : "_ZTIN7android8hardware11hidl_memoryE",
   "self_type" : "_ZTIRN7android8hardware11hidl_memoryE",
   "size" : 4,
   "source_file" : "/system/libhidl/base/include/hidl/HidlSupport.h"
  },
  {
   "alignment" : 4,
   "linker_set_key" : "_ZTIRN7android8hardware11hidl_stringE",
   "name" : "android::hardware::hidl_string &",
   "referenced_type" : "_ZTIN7android8hardware11hidl_stringE",
   "self_type" : "_ZTIRN7android8hardware11hidl_stringE",
   "size" : 4,
   "source_file" : "/system/libhidl/base/include/hidl/HidlInternal.h"
  },
  {
   "alignment" : 4,
   "linker_set_key" : "_ZTIRN7android8hardware6ReturnINS0_8graphics8composer4V2_15ErrorEEE",
   "name" : "android::hardware::Return<android::hardware::graphics::composer::V2_1::Error> &",
   "referenced_type" : "_ZTIN7android8hardware6ReturnINS0_8graphics8composer4V2_15ErrorEEE",
   "self_type" : "_ZTIRN7android8hardware6ReturnINS0_8graphics8composer4V2_15ErrorEEE",
   "size" : 4,
   "source_file" : "/system/libhidl/base/include/hidl/Status.h"
  },
  {
   "alignment" : 4,
   "linker_set_key" : "_ZTIRN7android8hardware6ReturnINS_2spINS0_8graphics8composer4V2_215IComposerClientEEEEE",
   "name" : "android::hardware::Return<android::sp<android::hardware::graphics::composer::V2_2::IComposerClient> > &",
   "referenced_type" : "_ZTIN7android8hardware6ReturnINS_2spINS0_8graphics8composer4V2_215IComposerClientEEEEE",
   "self_type" : "_ZTIRN7android8hardware6ReturnINS_2spINS0_8graphics8composer4V2_215IComposerClientEEEEE",
   "size" : 4,
   "source_file" : "/system/libhidl/base/include/hidl/Status.h"
  },
  {
   "alignment" : 4,
   "linker_set_key" : "_ZTIRN7android8hardware6ReturnINS_2spINS0_8graphics8composer4V2_29IComposerEEEEE",
   "name" : "android::hardware::Return<android::sp<android::hardware::graphics::composer::V2_2::IComposer> > &",
   "referenced_type" : "_ZTIN7android8hardware6ReturnINS_2spINS0_8graphics8composer4V2_29IComposerEEEEE",
   "self_type" : "_ZTIRN7android8hardware6ReturnINS_2spINS0_8graphics8composer4V2_29IComposerEEEEE",
   "size" : 4,
   "source_file" : "/system/libhidl/base/include/hidl/Status.h"
  },
  {
   "alignment" : 4,
   "linker_set_key" : "_ZTIRN7android8hardware6ReturnIbEE",
   "name" : "android::hardware::Return<bool> &",
   "referenced_type" : "_ZTIN7android8hardware6ReturnIbEE",
   "self_type" : "_ZTIRN7android8hardware6ReturnIbEE",
   "size" : 4,
   "source_file" : "/system/libhidl/base/include/hidl/Status.h"
  },
  {
   "alignment" : 4,
   "linker_set_key" : "_ZTIRN7android8hardware6ReturnIjEE",
   "name" : "android::hardware::Return<unsigned int> &",
   "referenced_type" : "_ZTIN7android8hardware6ReturnIjEE",
   "self_type" : "_ZTIRN7android8hardware6ReturnIjEE",
   "size" : 4,
   "source_file" : "/system/libhidl/base/include/hidl/Status.h"
  },
  {
   "alignment" : 4,
   "linker_set_key" : "_ZTIRN7android8hardware6ReturnIvEE",
   "name" : "android::hardware::Return<void> &",
   "referenced_type" : "_ZTIN7android8hardware6ReturnIvEE",
   "self_type" : "_ZTIRN7android8hardware6ReturnIvEE",
   "size" : 4,
   "source_file" : "/system/libhidl/base/include/hidl/Status.h"
  },
  {
   "alignment" : 4,
   "linker_set_key" : "_ZTIRN7android8hardware6StatusE",
   "name" : "android::hardware::Status &",
   "referenced_type" : "_ZTIN7android8hardware6StatusE",
   "self_type" : "_ZTIRN7android8hardware6StatusE",
   "size" : 4,
   "source_file" : "/system/libhidl/base/include/hidl/Status.h"
  },
  {
   "alignment" : 4,
   "linker_set_key" : "_ZTIRN7android8hardware7details12hidl_pointerINS0_10hidl_arrayIhLj32EJEEEEE",
   "name" : "android::hardware::details::hidl_pointer<android::hardware::hidl_array<unsigned char, 32> > &",
   "referenced_type" : "_ZTIN7android8hardware7details12hidl_pointerINS0_10hidl_arrayIhLj32EJEEEEE",
   "self_type" : "_ZTIRN7android8hardware7details12hidl_pointerINS0_10hidl_arrayIhLj32EJEEEEE",
   "size" : 4,
   "source_file" : "/system/libhidl/base/include/hidl/HidlInternal.h"
  },
  {
   "alignment" : 4,
   "linker_set_key" : "_ZTIRN7android8hardware7details12hidl_pointerINS0_11hidl_stringEEE",
   "name" : "android::hardware::details::hidl_pointer<android::hardware::hidl_string> &",
   "referenced_type" : "_ZTIN7android8hardware7details12hidl_pointerINS0_11hidl_stringEEE",
   "self_type" : "_ZTIRN7android8hardware7details12hidl_pointerINS0_11hidl_stringEEE",
   "size" : 4,
   "source_file" : "/system/libhidl/base/include/hidl/HidlInternal.h"
  },
  {
   "alignment" : 4,
   "linker_set_key" : "_ZTIRN7android8hardware8hidl_vecINS0_10hidl_arrayIhLj32EJEEEEE",
   "name" : "android::hardware::hidl_vec<android::hardware::hidl_array<unsigned char, 32> > &",
   "referenced_type" : "_ZTIN7android8hardware8hidl_vecINS0_10hidl_arrayIhLj32EJEEEEE",
   "self_type" : "_ZTIRN7android8hardware8hidl_vecINS0_10hidl_arrayIhLj32EJEEEEE",
   "size" : 4,
   "source_file" : "/system/libhidl/base/include/hidl/HidlSupport.h"
  },
  {
   "alignment" : 4,
   "linker_set_key" : "_ZTIRN7android8hardware8hidl_vecINS0_11hidl_stringEEE",
   "name" : "android::hardware::hidl_vec<android::hardware::hidl_string> &",
   "referenced_type" : "_ZTIN7android8hardware8hidl_vecINS0_11hidl_stringEEE",
   "self_type" : "_ZTIRN7android8hardware8hidl_vecINS0_11hidl_stringEEE",
   "size" : 4,
   "source_file" : "/system/libhidl/base/include/hidl/HidlSupport.h"
  },
  {
   "alignment" : 4,
   "linker_set_key" : "_ZTIRh",
   "name" : "unsigned char &",
   "referenced_type" : "_ZTIh",
   "self_type" : "_ZTIRh",
   "size" : 4,
   "source_file" : "/out/soong/.intermediates/system/libhidl/transport/manager/1.0/android.hidl.manager@1.0_genc++_headers/gen/android/hidl/manager/1.0/IServiceManager.h"
  },
  {
   "alignment" : 4,
   "linker_set_key" : "_ZTIRi",
   "name" : "int &",
   "referenced_type" : "_ZTIi",
   "self_type" : "_ZTIRi",
   "size" : 4,
   "source_file" : "/out/soong/.intermediates/system/libhidl/transport/base/1.0/android.hidl.base@1.0_genc++_headers/gen/android/hidl/base/1.0/types.h"
  },
  {
   "alignment" : 4,
   "linker_set_key" : "_ZTIRj",
   "name" : "unsigned int &",
   "referenced_type" : "_ZTIj",
   "self_type" : "_ZTIRj",
   "size" : 4,
   "source_file" : "/out/soong/.intermediates/hardware/interfaces/graphics/composer/2.1/android.hardware.graphics.composer@2.1_genc++_headers/gen/android/hardware/graphics/composer/2.1/IComposerClient.h"
  },
  {
   "alignment" : 4,
   "linker_set_key" : "_ZTIRy",
   "name" : "unsigned long long &",
   "referenced_type" : "_ZTIy",
   "self_type" : "_ZTIRy",
   "size" : 4,
   "source_file" : "/out/soong/.intermediates/hardware/interfaces/graphics/common/1.0/android.hardware.graphics.common@1.0_genc++_headers/gen/android/hardware/graphics/common/1.0/types.h"
  }
 ],
 "pointer_types" :
 [
  {
   "alignment" : 4,
   "linker_set_key" : "_ZTIP13native_handle",
   "name" : "native_handle *",
   "referenced_type" : "_ZTI13native_handle",
   "self_type" : "_ZTIP13native_handle",
   "size" : 4,
   "source_file" : "/system/libhidl/base/include/hidl/HidlInternal.h"
  },
  {
   "alignment" : 4,
   "linker_set_key" : "_ZTIP18android_flex_plane",
   "name" : "android_flex_plane *",
   "referenced_type" : "_ZTI18android_flex_plane",
   "self_type" : "_ZTIP18android_flex_plane",
   "size" : 4,
   "source_file" : "/system/core/libsystem/include/system/graphics.h"
  },
  {
   "alignment" : 4,
   "linker_set_key" : "_ZTIP7log_msg",
   "name" : "log_msg *",
   "referenced_type" : "_ZTI7log_msg",
   "self_type" : "_ZTIP7log_msg",
   "size" : 4,
   "source_file" : "/system/core/liblog/include/log/log_read.h"
  },
  {
   "alignment" : 4,
   "linker_set_key" : "_ZTIPFbRKN7android8String16ERKNS_2spINS_8hardware7IBinderEEEPvE",
   "name" : "bool (*)(const android::String16 &, const android::sp<android::hardware::IBinder> &, void *)",
   "referenced_type" : "_ZTIFbRKN7android8String16ERKNS_2spINS_8hardware7IBinderEEEPvE",
   "self_type" : "_ZTIPFbRKN7android8String16ERKNS_2spINS_8hardware7IBinderEEEPvE",
   "size" : 4,
   "source_file" : "/system/libhwbinder/include/hwbinder/ProcessState.h"
  },
  {
   "alignment" : 4,
   "linker_set_key" : "_ZTIPFiPvE",
   "name" : "int (*)(void *)",
   "referenced_type" : "_ZTIFiPvE",
   "self_type" : "_ZTIPFiPvE",
   "size" : 4,
   "source_file" : "/system/core/libutils/include/utils/AndroidThreads.h"
  },
  {
   "alignment" : 4,
   "linker_set_key" : "_ZTIPFvPN7android8hardware6ParcelEPKhjPKyjPvE",
   "name" : "void (*)(android::hardware::Parcel *, const unsigned char *, unsigned int, const unsigned long long *, unsigned int, void *)",
   "referenced_type" : "_ZTIFvPN7android8hardware6ParcelEPKhjPKyjPvE",
   "self_type" : "_ZTIPFvPN7android8hardware6ParcelEPKhjPKyjPvE",
   "size" : 4,
   "source_file" : "/system/libhwbinder/include/hwbinder/Parcel.h"
  },
  {
   "alignment" : 4,
   "linker_set_key" : "_ZTIPK13native_handle",
   "name" : "const native_handle *",
   "referenced_type" : "_ZTIK13native_handle",
   "self_type" : "_ZTIPK13native_handle",
   "size" : 4,
   "source_file" : "/system/libhidl/base/include/hidl/HidlInternal.h"
  },
  {
   "alignment" : 4,
   "linker_set_key" : "_ZTIPK7log_msg",
   "name" : "const log_msg *",
   "referenced_type" : "_ZTIK7log_msg",
   "self_type" : "_ZTIPK7log_msg",
   "size" : 4,
   "source_file" : "/system/core/liblog/include/log/log_read.h"
  },
  {
   "alignment" : 4,
   "linker_set_key" : "_ZTIPKDs",
   "name" : "const char16_t *",
   "referenced_type" : "_ZTIKDs",
   "self_type" : "_ZTIPKDs",
   "size" : 4,
   "source_file" : "/system/core/libutils/include/utils/String16.h"
  },
  {
   "alignment" : 4,
   "linker_set_key" : "_ZTIPKN7android10VectorImplE",
   "name" : "const android::VectorImpl *",
   "referenced_type" : "_ZTIKN7android10VectorImplE",
   "self_type" : "_ZTIPKN7android10VectorImplE",
   "size" : 4,
   "source_file" : "/system/core/libutils/include/utils/VectorImpl.h"
  },
  {
   "alignment" : 4,
   "linker_set_key" : "_ZTIPKN7android12NativeHandleE",
   "name" : "const android::NativeHandle *",
   "referenced_type" : "_ZTIKN7android12NativeHandleE",
   "self_type" : "_ZTIPKN7android12NativeHandleE",
   "size" : 4,
   "source_file" : "/system/core/libutils/include/utils/NativeHandle.h"
  },
  {
   "alignment" : 4,
   "linker_set_key" : "_ZTIPKN7android2spINS_4hidl4base4V1_05IBaseEEE",
   "name" : "const android::sp<android::hidl::base::V1_0::IBase> *",
   "referenced_type" : "_ZTIKN7android2spINS_4hidl4base4V1_05IBaseEEE",
   "self_type" : "_ZTIPKN7android2spINS_4hidl4base4V1_05IBaseEEE",
   "size" : 4,
   "source_file" : "/system/core/libutils/include/utils/StrongPointer.h"
  },
  {
   "alignment" : 4,
   "linker_set_key" : "_ZTIPKN7android2spINS_4hidl7manager4V1_015IServiceManagerEEE",
   "name" : "const android::sp<android::hidl::manager::V1_0::IServiceManager> *",
   "referenced_type" : "_ZTIKN7android2spINS_4hidl7manager4V1_015IServiceManagerEEE",
   "self_type" : "_ZTIPKN7android2spINS_4hidl7manager4V1_015IServiceManagerEEE",
   "size" : 4,
   "source_file" : "/system/core/libutils/include/utils/StrongPointer.h"
  },
  {
   "alignment" : 4,
   "linker_set_key" : "_ZTIPKN7android2spINS_4hidl7manager4V1_020IServiceNotificationEEE",
   "name" : "const android::sp<android::hidl::manager::V1_0::IServiceNotification> *",
   "referenced_type" : "_ZTIKN7android2spINS_4hidl7manager4V1_020IServiceNotificationEEE",
   "self_type" : "_ZTIPKN7android2spINS_4hidl7manager4V1_020IServiceNotificationEEE",
   "size" : 4,
   "source_file" : "/system/core/libutils/include/utils/StrongPointer.h"
  },
  {
   "alignment" : 4,
   "linker_set_key" : "_ZTIPKN7android2spINS_8hardware12ProcessStateEEE",
   "name" : "const android::sp<android::hardware::ProcessState> *",
   "referenced_type" : "_ZTIKN7android2spINS_8hardware12ProcessStateEEE",
   "self_type" : "_ZTIPKN7android2spINS_8hardware12ProcessStateEEE",
   "size" : 4,
   "source_file" : "/system/core/libutils/include/utils/StrongPointer.h"
  },
  {
   "alignment" : 4,
   "linker_set_key" : "_ZTIPKN7android2spINS_8hardware20hidl_death_recipientEEE",
   "name" : "const android::sp<android::hardware::hidl_death_recipient> *",
   "referenced_type" : "_ZTIKN7android2spINS_8hardware20hidl_death_recipientEEE",
   "self_type" : "_ZTIPKN7android2spINS_8hardware20hidl_death_recipientEEE",
   "size" : 4,
   "source_file" : "/system/core/libutils/include/utils/StrongPointer.h"
  },
  {
   "alignment" : 4,
   "linker_set_key" : "_ZTIPKN7android2spINS_8hardware27hidl_binder_death_recipientEEE",
   "name" : "const android::sp<android::hardware::hidl_binder_death_recipient> *",
   "referenced_type" : "_ZTIKN7android2spINS_8hardware27hidl_binder_death_recipientEEE",
   "self_type" : "_ZTIPKN7android2spINS_8hardware27hidl_binder_death_recipientEEE",
   "size" : 4,
   "source_file" : "/system/core/libutils/include/utils/StrongPointer.h"
  },
  {
   "alignment" : 4,
   "linker_set_key" : "_ZTIPKN7android2spINS_8hardware7IBinderEEE",
   "name" : "const android::sp<android::hardware::IBinder> *",
   "referenced_type" : "_ZTIKN7android2spINS_8hardware7IBinderEEE",
   "self_type" : "_ZTIPKN7android2spINS_8hardware7IBinderEEE",
   "size" : 4,
   "source_file" : "/system/core/libutils/include/utils/StrongPointer.h"
  },
  {
   "alignment" : 4,
   "linker_set_key" : "_ZTIPKN7android2spINS_8hardware8graphics8composer4V2_115IComposerClientEEE",
   "name" : "const android::sp<android::hardware::graphics::composer::V2_1::IComposerClient> *",
   "referenced_type" : "_ZTIKN7android2spINS_8hardware8graphics8composer4V2_115IComposerClientEEE",
   "self_type" : "_ZTIPKN7android2spINS_8hardware8graphics8composer4V2_115IComposerClientEEE",
   "size" : 4,
   "source_file" : "/system/core/libutils/include/utils/StrongPointer.h"
  },
  {
   "alignment" : 4,
   "linker_set_key" : "_ZTIPKN7android2spINS_8hardware8graphics8composer4V2_117IComposerCallbackEEE",
   "name" : "const android::sp<android::hardware::graphics::composer::V2_1::IComposerCallback> *",
   "referenced_type" : "_ZTIKN7android2spINS_8hardware8graphics8composer4V2_117IComposerCallbackEEE",
   "self_type" : "_ZTIPKN7android2spINS_8hardware8graphics8composer4V2_117IComposerCallbackEEE",
   "size" : 4,
   "source_file" : "/system/core/libutils/include/utils/StrongPointer.h"
  },
  {
   "alignment" : 4,
   "linker_set_key" : "_ZTIPKN7android2spINS_8hardware8graphics8composer4V2_19IComposerEEE",
   "name" : "const android::sp<android::hardware::graphics::composer::V2_1::IComposer> *",
   "referenced_type" : "_ZTIKN7android2spINS_8hardware8graphics8composer4V2_19IComposerEEE",
   "self_type" : "_ZTIPKN7android2spINS_8hardware8graphics8composer4V2_19IComposerEEE",
   "size" : 4,
   "source_file" : "/system/core/libutils/include/utils/StrongPointer.h"
  },
  {
   "alignment" : 4,
   "linker_set_key" : "_ZTIPKN7android2spINS_8hardware8graphics8composer4V2_215IComposerClientEEE",
   "name" : "const android::sp<android::hardware::graphics::composer::V2_2::IComposerClient> *",
   "referenced_type" : "_ZTIKN7android2spINS_8hardware8graphics8composer4V2_215IComposerClientEEE",
   "self_type" : "_ZTIPKN7android2spINS_8hardware8graphics8composer4V2_215IComposerClientEEE",
   "size" : 4,
   "source_file" : "/system/core/libutils/include/utils/StrongPointer.h"
  },
  {
   "alignment" : 4,
   "linker_set_key" : "_ZTIPKN7android2spINS_8hardware8graphics8composer4V2_29IComposerEEE",
   "name" : "const android::sp<android::hardware::graphics::composer::V2_2::IComposer> *",
   "referenced_type" : "_ZTIKN7android2spINS_8hardware8graphics8composer4V2_29IComposerEEE",
   "self_type" : "_ZTIPKN7android2spINS_8hardware8graphics8composer4V2_29IComposerEEE",
   "size" : 4,
   "source_file" : "/system/core/libutils/include/utils/StrongPointer.h"
  },
  {
   "alignment" : 4,
   "linker_set_key" : "_ZTIPKN7android2wpINS_8hardware20hidl_death_recipientEEE",
   "name" : "const android::wp<android::hardware::hidl_death_recipient> *",
   "referenced_type" : "_ZTIKN7android2wpINS_8hardware20hidl_death_recipientEEE",
   "self_type" : "_ZTIPKN7android2wpINS_8hardware20hidl_death_recipientEEE",
   "size" : 4,
   "source_file" : "/system/core/libutils/include/utils/RefBase.h"
  },
  {
   "alignment" : 4,
   "linker_set_key" : "_ZTIPKN7android2wpINS_8hardware9BHwBinderEEE",
   "name" : "const android::wp<android::hardware::BHwBinder> *",
   "referenced_type" : "_ZTIKN7android2wpINS_8hardware9BHwBinderEEE",
   "self_type" : "_ZTIPKN7android2wpINS_8hardware9BHwBinderEEE",
   "size" : 4,
   "source_file" : "/system/core/libutils/include/utils/RefBase.h"
  },
  {
   "alignment" : 4,
   "linker_set_key" : "_ZTIPKN7android4hidl4base4V1_05IBaseE",
   "name" : "const android::hidl::base::V1_0::IBase *",
   "referenced_type" : "_ZTIKN7android4hidl4base4V1_05IBaseE",
   "self_type" : "_ZTIPKN7android4hidl4base4V1_05IBaseE",
   "size" : 4,
   "source_file" : "/out/soong/.intermediates/system/libhidl/transport/base/1.0/android.hidl.base@1.0_genc++_headers/gen/android/hidl/base/1.0/IBase.h"
  },
  {
   "alignment" : 4,
   "linker_set_key" : "_ZTIPKN7android4hidl4base4V1_08BpHwBaseE",
   "name" : "const android::hidl::base::V1_0::BpHwBase *",
   "referenced_type" : "_ZTIKN7android4hidl4base4V1_08BpHwBaseE",
   "self_type" : "_ZTIPKN7android4hidl4base4V1_08BpHwBaseE",
   "size" : 4,
   "source_file" : "/out/soong/.intermediates/system/libhidl/transport/base/1.0/android.hidl.base@1.0_genc++_headers/gen/android/hidl/base/1.0/BpHwBase.h"
  },
  {
   "alignment" : 4,
   "linker_set_key" : "_ZTIPKN7android4hidl7manager4V1_015IServiceManagerE",
   "name" : "const android::hidl::manager::V1_0::IServiceManager *",
   "referenced_type" : "_ZTIKN7android4hidl7manager4V1_015IServiceManagerE",
   "self_type" : "_ZTIPKN7android4hidl7manager4V1_015IServiceManagerE",
   "size" : 4,
   "source_file" : "/out/soong/.intermediates/system/libhidl/transport/manager/1.0/android.hidl.manager@1.0_genc++_headers/gen/android/hidl/manager/1.0/IServiceManager.h"
  },
  {
   "alignment" : 4,
   "linker_set_key" : "_ZTIPKN7android4hidl7manager4V1_020IServiceNotificationE",
   "name" : "const android::hidl::manager::V1_0::IServiceNotification *",
   "referenced_type" : "_ZTIKN7android4hidl7manager4V1_020IServiceNotificationE",
   "self_type" : "_ZTIPKN7android4hidl7manager4V1_020IServiceNotificationE",
   "size" : 4,
   "source_file" : "/out/soong/.intermediates/system/libhidl/transport/manager/1.0/android.hidl.manager@1.0_genc++_headers/gen/android/hidl/manager/1.0/IServiceNotification.h"
  },
  {
   "alignment" : 4,
   "linker_set_key" : "_ZTIPKN7android7RefBaseE",
   "name" : "const android::RefBase *",
   "referenced_type" : "_ZTIKN7android7RefBaseE",
   "self_type" : "_ZTIPKN7android7RefBaseE",
   "size" : 4,
   "source_file" : "/system/core/libutils/include/utils/RefBase.h"
  },
  {
   "alignment" : 4,
   "linker_set_key" : "_ZTIPKN7android7String8E",
   "name" : "const android::String8 *",
   "referenced_type" : "_ZTIKN7android7String8E",
   "self_type" : "_ZTIPKN7android7String8E",
   "size" : 4,
   "source_file" : "/system/core/libutils/include/utils/String8.h"
  },
  {
   "alignment" : 4,
   "linker_set_key" : "_ZTIPKN7android8String16E",
   "name" : "const android::String16 *",
   "referenced_type" : "_ZTIKN7android8String16E",
   "self_type" : "_ZTIPKN7android8String16E",
   "size" : 4,
   "source_file" : "/system/core/libutils/include/utils/String16.h"
  },
  {
   "alignment" : 4,
   "linker_set_key" : "_ZTIPKN7android8hardware10hidl_arrayIfLj4EJLj4EEEE",
   "name" : "const android::hardware::hidl_array<float, 4, 4> *",
   "referenced_type" : "_ZTIKN7android8hardware10hidl_arrayIfLj4EJLj4EEEE",
   "self_type" : "_ZTIPKN7android8hardware10hidl_arrayIfLj4EJLj4EEEE",
   "size" : 4,
   "source_file" : "/system/libhidl/base/include/hidl/HidlSupport.h"
  },
  {
   "alignment" : 4,
   "linker_set_key" : "_ZTIPKN7android8hardware11BpHwRefBaseE",
   "name" : "const android::hardware::BpHwRefBase *",
   "referenced_type" : "_ZTIKN7android8hardware11BpHwRefBaseE",
   "self_type" : "_ZTIPKN7android8hardware11BpHwRefBaseE",
   "size" : 4,
   "source_file" : "/system/libhwbinder/include/hwbinder/Binder.h"
  },
  {
   "alignment" : 4,
   "linker_set_key" : "_ZTIPKN7android8hardware11hidl_handleE",
   "name" : "const android::hardware::hidl_handle *",
   "referenced_type" : "_ZTIKN7android8hardware11hidl_handleE",
   "self_type" : "_ZTIPKN7android8hardware11hidl_handleE",
   "size" : 4,
   "source_file" : "/system/libhidl/base/include/hidl/HidlSupport.h"
  },
  {
   "alignment" : 4,
   "linker_set_key" : "_ZTIPKN7android8hardware11hidl_memoryE",
   "name" : "const android::hardware::hidl_memory *",
   "referenced_type" : "_ZTIKN7android8hardware11hidl_memoryE",
   "self_type" : "_ZTIPKN7android8hardware11hidl_memoryE",
   "size" : 4,
   "source_file" : "/system/libhidl/base/include/hidl/HidlSupport.h"
  },
  {
   "alignment" : 4,
   "linker_set_key" : "_ZTIPKN7android8hardware12hidl_versionE",
   "name" : "const android::hardware::hidl_version *",
   "referenced_type" : "_ZTIKN7android8hardware12hidl_versionE",
   "self_type" : "_ZTIPKN7android8hardware12hidl_versionE",
   "size" : 4,
   "source_file" : "/system/libhidl/base/include/hidl/HidlSupport.h"
  },
  {
   "alignment" : 4,
   "linker_set_key" : "_ZTIPKN7android8hardware6ReturnINS0_8graphics8composer4V2_15ErrorEEE",
   "name" : "const android::hardware::Return<android::hardware::graphics::composer::V2_1::Error> *",
   "referenced_type" : "_ZTIKN7android8hardware6ReturnINS0_8graphics8composer4V2_15ErrorEEE",
   "self_type" : "_ZTIPKN7android8hardware6ReturnINS0_8graphics8composer4V2_15ErrorEEE",
   "size" : 4,
   "source_file" : "/system/libhidl/base/include/hidl/Status.h"
  },
  {
   "alignment" : 4,
   "linker_set_key" : "_ZTIPKN7android8hardware6ReturnINS_2spINS0_8graphics8composer4V2_215IComposerClientEEEEE",
   "name" : "const android::hardware::Return<android::sp<android::hardware::graphics::composer::V2_2::IComposerClient> > *",
   "referenced_type" : "_ZTIKN7android8hardware6ReturnINS_2spINS0_8graphics8composer4V2_215IComposerClientEEEEE",
   "self_type" : "_ZTIPKN7android8hardware6ReturnINS_2spINS0_8graphics8composer4V2_215IComposerClientEEEEE",
   "size" : 4,
   "source_file" : "/system/libhidl/base/include/hidl/Status.h"
  },
  {
   "alignment" : 4,
   "linker_set_key" : "_ZTIPKN7android8hardware6ReturnINS_2spINS0_8graphics8composer4V2_29IComposerEEEEE",
   "name" : "const android::hardware::Return<android::sp<android::hardware::graphics::composer::V2_2::IComposer> > *",
   "referenced_type" : "_ZTIKN7android8hardware6ReturnINS_2spINS0_8graphics8composer4V2_29IComposerEEEEE",
   "self_type" : "_ZTIPKN7android8hardware6ReturnINS_2spINS0_8graphics8composer4V2_29IComposerEEEEE",
   "size" : 4,
   "source_file" : "/system/libhidl/base/include/hidl/Status.h"
  },
  {
   "alignment" : 4,
   "linker_set_key" : "_ZTIPKN7android8hardware6ReturnIbEE",
   "name" : "const android::hardware::Return<bool> *",
   "referenced_type" : "_ZTIKN7android8hardware6ReturnIbEE",
   "self_type" : "_ZTIPKN7android8hardware6ReturnIbEE",
   "size" : 4,
   "source_file" : "/system/libhidl/base/include/hidl/Status.h"
  },
  {
   "alignment" : 4,
   "linker_set_key" : "_ZTIPKN7android8hardware6ReturnIjEE",
   "name" : "const android::hardware::Return<unsigned int> *",
   "referenced_type" : "_ZTIKN7android8hardware6ReturnIjEE",
   "self_type" : "_ZTIPKN7android8hardware6ReturnIjEE",
   "size" : 4,
   "source_file" : "/system/libhidl/base/include/hidl/Status.h"
  },
  {
   "alignment" : 4,
   "linker_set_key" : "_ZTIPKN7android8hardware6StatusE",
   "name" : "const android::hardware::Status *",
   "referenced_type" : "_ZTIKN7android8hardware6StatusE",
   "self_type" : "_ZTIPKN7android8hardware6StatusE",
   "size" : 4,
   "source_file" : "/system/libhidl/base/include/hidl/Status.h"
  },
  {
   "alignment" : 4,
   "linker_set_key" : "_ZTIPKN7android8hardware7details12hidl_pointerINS0_10hidl_arrayIhLj32EJEEEEE",
   "name" : "const android::hardware::details::hidl_pointer<android::hardware::hidl_array<unsigned char, 32> > *",
   "referenced_type" : "_ZTIKN7android8hardware7details12hidl_pointerINS0_10hidl_arrayIhLj32EJEEEEE",
   "self_type" : "_ZTIPKN7android8hardware7details12hidl_pointerINS0_10hidl_arrayIhLj32EJEEEEE",
   "size" : 4,
   "source_file" : "/system/libhidl/base/include/hidl/HidlInternal.h"
  },
  {
   "alignment" : 4,
   "linker_set_key" : "_ZTIPKN7android8hardware7details12hidl_pointerINS0_11hidl_handleEEE",
   "name" : "const android::hardware::details::hidl_pointer<android::hardware::hidl_handle> *",
   "referenced_type" : "_ZTIKN7android8hardware7details12hidl_pointerINS0_11hidl_handleEEE",
   "self_type" : "_ZTIPKN7android8hardware7details12hidl_pointerINS0_11hidl_handleEEE",
   "size" : 4,
   "source_file" : "/system/libhidl/base/include/hidl/HidlInternal.h"
  },
  {
   "alignment" : 4,
   "linker_set_key" : "_ZTIPKN7android8hardware7details12hidl_pointerINS0_11hidl_stringEEE",
   "name" : "const android::hardware::details::hidl_pointer<android::hardware::hidl_string> *",
   "referenced_type" : "_ZTIKN7android8hardware7details12hidl_pointerINS0_11hidl_stringEEE",
   "self_type" : "_ZTIPKN7android8hardware7details12hidl_pointerINS0_11hidl_stringEEE",
   "size" : 4,
   "source_file" : "/system/libhidl/base/include/hidl/HidlInternal.h"
  },
  {
   "alignment" : 4,
   "linker_set_key" : "_ZTIPKN7android8hardware7details12hidl_pointerINS0_8graphics6common4V1_112RenderIntentEEE",
   "name" : "const android::hardware::details::hidl_pointer<android::hardware::graphics::common::V1_1::RenderIntent> *",
   "referenced_type" : "_ZTIKN7android8hardware7details12hidl_pointerINS0_8graphics6common4V1_112RenderIntentEEE",
   "self_type" : "_ZTIPKN7android8hardware7details12hidl_pointerINS0_8graphics6common4V1_112RenderIntentEEE",
   "size" : 4,
   "source_file" : "/system/libhidl/base/include/hidl/HidlInternal.h"
  },
  {
   "alignment" : 4,
   "linker_set_key" : "_ZTIPKN7android8hardware7details12hidl_pointerINS0_8graphics6common4V1_19ColorModeEEE",
   "name" : "const android::hardware::details::hidl_pointer<android::hardware::graphics::common::V1_1::ColorMode> *",
   "referenced_type" : "_ZTIKN7android8hardware7details12hidl_pointerINS0_8graphics6common4V1_19ColorModeEEE",
   "self_type" : "_ZTIPKN7android8hardware7details12hidl_pointerINS0_8graphics6common4V1_19ColorModeEEE",
   "size" : 4,
   "source_file" : "/system/libhidl/base/include/hidl/HidlInternal.h"
  },
  {
   "alignment" : 4,
   "linker_set_key" : "_ZTIPKN7android8hardware7details12hidl_pointerINS0_8graphics8composer4V2_215IComposerClient19PerFrameMetadataKeyEEE",
   "name" : "const android::hardware::details::hidl_pointer<android::hardware::graphics::composer::V2_2::IComposerClient::PerFrameMetadataKey> *",
   "referenced_type" : "_ZTIKN7android8hardware7details12hidl_pointerINS0_8graphics8composer4V2_215IComposerClient19PerFrameMetadataKeyEEE",
   "self_type" : "_ZTIPKN7android8hardware7details12hidl_pointerINS0_8graphics8composer4V2_215IComposerClient19PerFrameMetadataKeyEEE",
   "size" : 4,
   "source_file" : "/system/libhidl/base/include/hidl/HidlInternal.h"
  },
  {
   "alignment" : 4,
   "linker_set_key" : "_ZTIPKN7android8hardware7details12hidl_pointerIiEE",
   "name" : "const android::hardware::details::hidl_pointer<int> *",
   "referenced_type" : "_ZTIKN7android8hardware7details12hidl_pointerIiEE",
   "self_type" : "_ZTIPKN7android8hardware7details12hidl_pointerIiEE",
   "size" : 4,
   "source_file" : "/system/libhidl/base/include/hidl/HidlInternal.h"
  },
  {
   "alignment" : 4,
   "linker_set_key" : "_ZTIPKN7android8hardware7details13return_statusE",
   "name" : "const android::hardware::details::return_status *",
   "referenced_type" : "_ZTIKN7android8hardware7details13return_statusE",
   "self_type" : "_ZTIPKN7android8hardware7details13return_statusE",
   "size" : 4,
   "source_file" : "/system/libhidl/base/include/hidl/Status.h"
  },
  {
   "alignment" : 4,
   "linker_set_key" : "_ZTIPKN7android8hardware8graphics6common4V1_112RenderIntentE",
   "name" : "const android::hardware::graphics::common::V1_1::RenderIntent *",
   "referenced_type" : "_ZTIKN7android8hardware8graphics6common4V1_112RenderIntentE",
   "self_type" : "_ZTIPKN7android8hardware8graphics6common4V1_112RenderIntentE",
   "size" : 4,
   "source_file" : "/system/libhidl/base/include/hidl/HidlSupport.h"
  },
  {
   "alignment" : 4,
   "linker_set_key" : "_ZTIPKN7android8hardware8graphics6common4V1_19ColorModeE",
   "name" : "const android::hardware::graphics::common::V1_1::ColorMode *",
   "referenced_type" : "_ZTIKN7android8hardware8graphics6common4V1_19ColorModeE",
   "self_type" : "_ZTIPKN7android8hardware8graphics6common4V1_19ColorModeE",
   "size" : 4,
   "source_file" : "/system/libhidl/base/include/hidl/HidlSupport.h"
  },
  {
   "alignment" : 4,
   "linker_set_key" : "_ZTIPKN7android8hardware8graphics8composer4V2_112BpHwComposerE",
   "name" : "const android::hardware::graphics::composer::V2_1::BpHwComposer *",
   "referenced_type" : "_ZTIKN7android8hardware8graphics8composer4V2_112BpHwComposerE",
   "self_type" : "_ZTIPKN7android8hardware8graphics8composer4V2_112BpHwComposerE",
   "size" : 4,
   "source_file" : "/out/soong/.intermediates/hardware/interfaces/graphics/composer/2.1/android.hardware.graphics.composer@2.1_genc++_headers/gen/android/hardware/graphics/composer/2.1/BpHwComposer.h"
  },
  {
   "alignment" : 4,
   "linker_set_key" : "_ZTIPKN7android8hardware8graphics8composer4V2_115IComposerClientE",
   "name" : "const android::hardware::graphics::composer::V2_1::IComposerClient *",
   "referenced_type" : "_ZTIKN7android8hardware8graphics8composer4V2_115IComposerClientE",
   "self_type" : "_ZTIPKN7android8hardware8graphics8composer4V2_115IComposerClientE",
   "size" : 4,
   "source_file" : "/out/soong/.intermediates/hardware/interfaces/graphics/composer/2.1/android.hardware.graphics.composer@2.1_genc++_headers/gen/android/hardware/graphics/composer/2.1/IComposerClient.h"
  },
  {
   "alignment" : 4,
   "linker_set_key" : "_ZTIPKN7android8hardware8graphics8composer4V2_117IComposerCallbackE",
   "name" : "const android::hardware::graphics::composer::V2_1::IComposerCallback *",
   "referenced_type" : "_ZTIKN7android8hardware8graphics8composer4V2_117IComposerCallbackE",
   "self_type" : "_ZTIPKN7android8hardware8graphics8composer4V2_117IComposerCallbackE",
   "size" : 4,
   "source_file" : "/out/soong/.intermediates/hardware/interfaces/graphics/composer/2.1/android.hardware.graphics.composer@2.1_genc++_headers/gen/android/hardware/graphics/composer/2.1/IComposerCallback.h"
  },
  {
   "alignment" : 4,
   "linker_set_key" : "_ZTIPKN7android8hardware8graphics8composer4V2_118BpHwComposerClientE",
   "name" : "const android::hardware::graphics::composer::V2_1::BpHwComposerClient *",
   "referenced_type" : "_ZTIKN7android8hardware8graphics8composer4V2_118BpHwComposerClientE",
   "self_type" : "_ZTIPKN7android8hardware8graphics8composer4V2_118BpHwComposerClientE",
   "size" : 4,
   "source_file" : "/out/soong/.intermediates/hardware/interfaces/graphics/composer/2.1/android.hardware.graphics.composer@2.1_genc++_headers/gen/android/hardware/graphics/composer/2.1/BpHwComposerClient.h"
  },
  {
   "alignment" : 4,
   "linker_set_key" : "_ZTIPKN7android8hardware8graphics8composer4V2_120BpHwComposerCallbackE",
   "name" : "const android::hardware::graphics::composer::V2_1::BpHwComposerCallback *",
   "referenced_type" : "_ZTIKN7android8hardware8graphics8composer4V2_120BpHwComposerCallbackE",
   "self_type" : "_ZTIPKN7android8hardware8graphics8composer4V2_120BpHwComposerCallbackE",
   "size" : 4,
   "source_file" : "/out/soong/.intermediates/hardware/interfaces/graphics/composer/2.1/android.hardware.graphics.composer@2.1_genc++_headers/gen/android/hardware/graphics/composer/2.1/BpHwComposerCallback.h"
  },
  {
   "alignment" : 4,
   "linker_set_key" : "_ZTIPKN7android8hardware8graphics8composer4V2_19IComposerE",
   "name" : "const android::hardware::graphics::composer::V2_1::IComposer *",
   "referenced_type" : "_ZTIKN7android8hardware8graphics8composer4V2_19IComposerE",
   "self_type" : "_ZTIPKN7android8hardware8graphics8composer4V2_19IComposerE",
   "size" : 4,
   "source_file" : "/out/soong/.intermediates/hardware/interfaces/graphics/composer/2.1/android.hardware.graphics.composer@2.1_genc++_headers/gen/android/hardware/graphics/composer/2.1/IComposer.h"
  },
  {
   "alignment" : 4,
   "linker_set_key" : "_ZTIPKN7android8hardware8graphics8composer4V2_212BpHwComposerE",
   "name" : "const android::hardware::graphics::composer::V2_2::BpHwComposer *",
   "referenced_type" : "_ZTIKN7android8hardware8graphics8composer4V2_212BpHwComposerE",
   "self_type" : "_ZTIPKN7android8hardware8graphics8composer4V2_212BpHwComposerE",
   "size" : 4,
   "source_file" : "/out/soong/.intermediates/hardware/interfaces/graphics/composer/2.2/android.hardware.graphics.composer@2.2_genc++_headers/gen/android/hardware/graphics/composer/2.2/BpHwComposer.h"
  },
  {
   "alignment" : 4,
   "linker_set_key" : "_ZTIPKN7android8hardware8graphics8composer4V2_215IComposerClient19PerFrameMetadataKeyE",
   "name" : "const android::hardware::graphics::composer::V2_2::IComposerClient::PerFrameMetadataKey *",
   "referenced_type" : "_ZTIKN7android8hardware8graphics8composer4V2_215IComposerClient19PerFrameMetadataKeyE",
   "self_type" : "_ZTIPKN7android8hardware8graphics8composer4V2_215IComposerClient19PerFrameMetadataKeyE",
   "size" : 4,
   "source_file" : "/system/libhidl/base/include/hidl/HidlSupport.h"
  },
  {
   "alignment" : 4,
   "linker_set_key" : "_ZTIPKN7android8hardware8graphics8composer4V2_215IComposerClientE",
   "name" : "const android::hardware::graphics::composer::V2_2::IComposerClient *",
   "referenced_type" : "_ZTIKN7android8hardware8graphics8composer4V2_215IComposerClientE",
   "self_type" : "_ZTIPKN7android8hardware8graphics8composer4V2_215IComposerClientE",
   "size" : 4,
   "source_file" : "/out/soong/.intermediates/hardware/interfaces/graphics/composer/2.2/android.hardware.graphics.composer@2.2_genc++_headers/gen/android/hardware/graphics/composer/2.2/IComposerClient.h"
  },
  {
   "alignment" : 4,
   "linker_set_key" : "_ZTIPKN7android8hardware8graphics8composer4V2_218BpHwComposerClientE",
   "name" : "const android::hardware::graphics::composer::V2_2::BpHwComposerClient *",
   "referenced_type" : "_ZTIKN7android8hardware8graphics8composer4V2_218BpHwComposerClientE",
   "self_type" : "_ZTIPKN7android8hardware8graphics8composer4V2_218BpHwComposerClientE",
   "size" : 4,
   "source_file" : "/out/soong/.intermediates/hardware/interfaces/graphics/composer/2.2/android.hardware.graphics.composer@2.2_genc++_headers/gen/android/hardware/graphics/composer/2.2/BpHwComposerClient.h"
  },
  {
   "alignment" : 4,
   "linker_set_key" : "_ZTIPKN7android8hardware8graphics8composer4V2_29IComposerE",
   "name" : "const android::hardware::graphics::composer::V2_2::IComposer *",
   "referenced_type" : "_ZTIKN7android8hardware8graphics8composer4V2_29IComposerE",
   "self_type" : "_ZTIPKN7android8hardware8graphics8composer4V2_29IComposerE",
   "size" : 4,
   "source_file" : "/out/soong/.intermediates/hardware/interfaces/graphics/composer/2.2/android.hardware.graphics.composer@2.2_genc++_headers/gen/android/hardware/graphics/composer/2.2/IComposer.h"
  },
  {
   "alignment" : 4,
   "linker_set_key" : "_ZTIPKN7android8hardware8hidl_vecINS0_11hidl_handleEEE",
   "name" : "const android::hardware::hidl_vec<android::hardware::hidl_handle> *",
   "referenced_type" : "_ZTIKN7android8hardware8hidl_vecINS0_11hidl_handleEEE",
   "self_type" : "_ZTIPKN7android8hardware8hidl_vecINS0_11hidl_handleEEE",
   "size" : 4,
   "source_file" : "/system/libhidl/base/include/hidl/HidlSupport.h"
  },
  {
   "alignment" : 4,
   "linker_set_key" : "_ZTIPKN7android8hardware8hidl_vecINS0_8graphics6common4V1_112RenderIntentEEE",
   "name" : "const android::hardware::hidl_vec<android::hardware::graphics::common::V1_1::RenderIntent> *",
   "referenced_type" : "_ZTIKN7android8hardware8hidl_vecINS0_8graphics6common4V1_112RenderIntentEEE",
   "self_type" : "_ZTIPKN7android8hardware8hidl_vecINS0_8graphics6common4V1_112RenderIntentEEE",
   "size" : 4,
   "source_file" : "/system/libhidl/base/include/hidl/HidlSupport.h"
  },
  {
   "alignment" : 4,
   "linker_set_key" : "_ZTIPKN7android8hardware8hidl_vecINS0_8graphics6common4V1_19ColorModeEEE",
   "name" : "const android::hardware::hidl_vec<android::hardware::graphics::common::V1_1::ColorMode> *",
   "referenced_type" : "_ZTIKN7android8hardware8hidl_vecINS0_8graphics6common4V1_19ColorModeEEE",
   "self_type" : "_ZTIPKN7android8hardware8hidl_vecINS0_8graphics6common4V1_19ColorModeEEE",
   "size" : 4,
   "source_file" : "/system/libhidl/base/include/hidl/HidlSupport.h"
  },
  {
   "alignment" : 4,
   "linker_set_key" : "_ZTIPKN7android8hardware8hidl_vecINS0_8graphics8composer4V2_215IComposerClient19PerFrameMetadataKeyEEE",
   "name" : "const android::hardware::hidl_vec<android::hardware::graphics::composer::V2_2::IComposerClient::PerFrameMetadataKey> *",
   "referenced_type" : "_ZTIKN7android8hardware8hidl_vecINS0_8graphics8composer4V2_215IComposerClient19PerFrameMetadataKeyEEE",
   "self_type" : "_ZTIPKN7android8hardware8hidl_vecINS0_8graphics8composer4V2_215IComposerClient19PerFrameMetadataKeyEEE",
   "size" : 4,
   "source_file" : "/system/libhidl/base/include/hidl/HidlSupport.h"
  },
  {
   "alignment" : 4,
   "linker_set_key" : "_ZTIPKN7android8hardware8hidl_vecIiEE",
   "name" : "const android::hardware::hidl_vec<int> *",
   "referenced_type" : "_ZTIKN7android8hardware8hidl_vecIiEE",
   "self_type" : "_ZTIPKN7android8hardware8hidl_vecIiEE",
   "size" : 4,
   "source_file" : "/system/libhidl/base/include/hidl/HidlSupport.h"
  },
  {
   "alignment" : 4,
   "linker_set_key" : "_ZTIPKc",
   "name" : "const char *",
   "referenced_type" : "_ZTIKc",
   "self_type" : "_ZTIPKc",
   "size" : 4,
   "source_file" : "/system/core/liblog/include/android/log.h"
  },
  {
   "alignment" : 4,
   "linker_set_key" : "_ZTIPKf",
   "name" : "const float *",
   "referenced_type" : "_ZTIKf",
   "self_type" : "_ZTIPKf",
   "size" : 4,
   "source_file" : "/system/libhidl/base/include/hidl/HidlSupport.h"
  },
  {
   "alignment" : 4,
   "linker_set_key" : "_ZTIPKh",
   "name" : "const unsigned char *",
   "referenced_type" : "_ZTIKh",
   "self_type" : "_ZTIPKh",
   "size" : 4,
   "source_file" : "/system/libhidl/base/include/hidl/HidlSupport.h"
  },
  {
   "alignment" : 4,
   "linker_set_key" : "_ZTIPKv",
   "name" : "const void *",
   "referenced_type" : "_ZTIKv",
   "self_type" : "_ZTIPKv",
   "size" : 4,
   "source_file" : "/system/core/libutils/include/utils/StrongPointer.h"
  },
  {
   "alignment" : 4,
   "linker_set_key" : "_ZTIPKy",
   "name" : "const unsigned long long *",
   "referenced_type" : "_ZTIKy",
   "self_type" : "_ZTIPKy",
   "size" : 4,
   "source_file" : "/system/libhwbinder/include/hwbinder/Parcel.h"
  },
  {
   "alignment" : 4,
   "linker_set_key" : "_ZTIPN7android11ScopedTraceE",
   "name" : "android::ScopedTrace *",
   "referenced_type" : "_ZTIN7android11ScopedTraceE",
   "self_type" : "_ZTIPN7android11ScopedTraceE",
   "size" : 4,
   "source_file" : "/system/core/libutils/include/utils/Trace.h"
  },
  {
   "alignment" : 4,
   "linker_set_key" : "_ZTIPN7android16ReferenceRenamerE",
   "name" : "android::ReferenceRenamer *",
   "referenced_type" : "_ZTIN7android16ReferenceRenamerE",
   "self_type" : "_ZTIPN7android16ReferenceRenamerE",
   "size" : 4,
   "source_file" : "/system/core/libutils/include/utils/RefBase.h"
  },
  {
   "alignment" : 4,
   "linker_set_key" : "_ZTIPN7android19VirtualLightRefBaseE",
   "name" : "android::VirtualLightRefBase *",
   "referenced_type" : "_ZTIN7android19VirtualLightRefBaseE",
   "self_type" : "_ZTIPN7android19VirtualLightRefBaseE",
   "size" : 4,
   "source_file" : "/system/core/libutils/include/utils/LightRefBase.h"
  },
  {
   "alignment" : 4,
   "linker_set_key" : "_ZTIPN7android2spINS_4hidl4base4V1_05IBaseEEE",
   "name" : "android::sp<android::hidl::base::V1_0::IBase> *",
   "referenced_type" : "_ZTIN7android2spINS_4hidl4base4V1_05IBaseEEE",
   "self_type" : "_ZTIPN7android2spINS_4hidl4base4V1_05IBaseEEE",
   "size" : 4,
   "source_file" : "/system/core/libutils/include/utils/StrongPointer.h"
  },
  {
   "alignment" : 4,
   "linker_set_key" : "_ZTIPN7android2spINS_4hidl7manager4V1_015IServiceManagerEEE",
   "name" : "android::sp<android::hidl::manager::V1_0::IServiceManager> *",
   "referenced_type" : "_ZTIN7android2spINS_4hidl7manager4V1_015IServiceManagerEEE",
   "self_type" : "_ZTIPN7android2spINS_4hidl7manager4V1_015IServiceManagerEEE",
   "size" : 4,
   "source_file" : "/system/core/libutils/include/utils/StrongPointer.h"
  },
  {
   "alignment" : 4,
   "linker_set_key" : "_ZTIPN7android2spINS_4hidl7manager4V1_020IServiceNotificationEEE",
   "name" : "android::sp<android::hidl::manager::V1_0::IServiceNotification> *",
   "referenced_type" : "_ZTIN7android2spINS_4hidl7manager4V1_020IServiceNotificationEEE",
   "self_type" : "_ZTIPN7android2spINS_4hidl7manager4V1_020IServiceNotificationEEE",
   "size" : 4,
   "source_file" : "/system/core/libutils/include/utils/StrongPointer.h"
  },
  {
   "alignment" : 4,
   "linker_set_key" : "_ZTIPN7android2spINS_8hardware12ProcessStateEEE",
   "name" : "android::sp<android::hardware::ProcessState> *",
   "referenced_type" : "_ZTIN7android2spINS_8hardware12ProcessStateEEE",
   "self_type" : "_ZTIPN7android2spINS_8hardware12ProcessStateEEE",
   "size" : 4,
   "source_file" : "/system/core/libutils/include/utils/StrongPointer.h"
  },
  {
   "alignment" : 4,
   "linker_set_key" : "_ZTIPN7android2spINS_8hardware27hidl_binder_death_recipientEEE",
   "name" : "android::sp<android::hardware::hidl_binder_death_recipient> *",
   "referenced_type" : "_ZTIN7android2spINS_8hardware27hidl_binder_death_recipientEEE",
   "self_type" : "_ZTIPN7android2spINS_8hardware27hidl_binder_death_recipientEEE",
   "size" : 4,
   "source_file" : "/system/core/libutils/include/utils/StrongPointer.h"
  },
  {
   "alignment" : 4,
   "linker_set_key" : "_ZTIPN7android2spINS_8hardware7IBinder14DeathRecipientEEE",
   "name" : "android::sp<android::hardware::IBinder::DeathRecipient> *",
   "referenced_type" : "_ZTIN7android2spINS_8hardware7IBinder14DeathRecipientEEE",
   "self_type" : "_ZTIPN7android2spINS_8hardware7IBinder14DeathRecipientEEE",
   "size" : 4,
   "source_file" : "/system/core/libutils/include/utils/StrongPointer.h"
  },
  {
   "alignment" : 4,
   "linker_set_key" : "_ZTIPN7android2spINS_8hardware7IBinderEEE",
   "name" : "android::sp<android::hardware::IBinder> *",
   "referenced_type" : "_ZTIN7android2spINS_8hardware7IBinderEEE",
   "self_type" : "_ZTIPN7android2spINS_8hardware7IBinderEEE",
   "size" : 4,
   "source_file" : "/system/core/libutils/include/utils/StrongPointer.h"
  },
  {
   "alignment" : 4,
   "linker_set_key" : "_ZTIPN7android2spINS_8hardware8graphics8composer4V2_115IComposerClientEEE",
   "name" : "android::sp<android::hardware::graphics::composer::V2_1::IComposerClient> *",
   "referenced_type" : "_ZTIN7android2spINS_8hardware8graphics8composer4V2_115IComposerClientEEE",
   "self_type" : "_ZTIPN7android2spINS_8hardware8graphics8composer4V2_115IComposerClientEEE",
   "size" : 4,
   "source_file" : "/system/core/libutils/include/utils/StrongPointer.h"
  },
  {
   "alignment" : 4,
   "linker_set_key" : "_ZTIPN7android2spINS_8hardware8graphics8composer4V2_117IComposerCallbackEEE",
   "name" : "android::sp<android::hardware::graphics::composer::V2_1::IComposerCallback> *",
   "referenced_type" : "_ZTIN7android2spINS_8hardware8graphics8composer4V2_117IComposerCallbackEEE",
   "self_type" : "_ZTIPN7android2spINS_8hardware8graphics8composer4V2_117IComposerCallbackEEE",
   "size" : 4,
   "source_file" : "/system/core/libutils/include/utils/StrongPointer.h"
  },
  {
   "alignment" : 4,
   "linker_set_key" : "_ZTIPN7android2spINS_8hardware8graphics8composer4V2_19IComposerEEE",
   "name" : "android::sp<android::hardware::graphics::composer::V2_1::IComposer> *",
   "referenced_type" : "_ZTIN7android2spINS_8hardware8graphics8composer4V2_19IComposerEEE",
   "self_type" : "_ZTIPN7android2spINS_8hardware8graphics8composer4V2_19IComposerEEE",
   "size" : 4,
   "source_file" : "/system/core/libutils/include/utils/StrongPointer.h"
  },
  {
   "alignment" : 4,
   "linker_set_key" : "_ZTIPN7android2spINS_8hardware8graphics8composer4V2_215IComposerClientEEE",
   "name" : "android::sp<android::hardware::graphics::composer::V2_2::IComposerClient> *",
   "referenced_type" : "_ZTIN7android2spINS_8hardware8graphics8composer4V2_215IComposerClientEEE",
   "self_type" : "_ZTIPN7android2spINS_8hardware8graphics8composer4V2_215IComposerClientEEE",
   "size" : 4,
   "source_file" : "/system/core/libutils/include/utils/StrongPointer.h"
  },
  {
   "alignment" : 4,
   "linker_set_key" : "_ZTIPN7android2spINS_8hardware8graphics8composer4V2_29IComposerEEE",
   "name" : "android::sp<android::hardware::graphics::composer::V2_2::IComposer> *",
   "referenced_type" : "_ZTIN7android2spINS_8hardware8graphics8composer4V2_29IComposerEEE",
   "self_type" : "_ZTIPN7android2spINS_8hardware8graphics8composer4V2_29IComposerEEE",
   "size" : 4,
   "source_file" : "/system/core/libutils/include/utils/StrongPointer.h"
  },
  {
   "alignment" : 4,
   "linker_set_key" : "_ZTIPN7android2wpINS_8hardware20hidl_death_recipientEEE",
   "name" : "android::wp<android::hardware::hidl_death_recipient> *",
   "referenced_type" : "_ZTIN7android2wpINS_8hardware20hidl_death_recipientEEE",
   "self_type" : "_ZTIPN7android2wpINS_8hardware20hidl_death_recipientEEE",
   "size" : 4,
   "source_file" : "/system/core/libutils/include/utils/RefBase.h"
  },
  {
   "alignment" : 4,
   "linker_set_key" : "_ZTIPN7android2wpINS_8hardware7IBinder14DeathRecipientEEE",
   "name" : "android::wp<android::hardware::IBinder::DeathRecipient> *",
   "referenced_type" : "_ZTIN7android2wpINS_8hardware7IBinder14DeathRecipientEEE",
   "self_type" : "_ZTIPN7android2wpINS_8hardware7IBinder14DeathRecipientEEE",
   "size" : 4,
   "source_file" : "/system/core/libutils/include/utils/RefBase.h"
  },
  {
   "alignment" : 4,
   "linker_set_key" : "_ZTIPN7android2wpINS_8hardware9BHwBinderEEE",
   "name" : "android::wp<android::hardware::BHwBinder> *",
   "referenced_type" : "_ZTIN7android2wpINS_8hardware9BHwBinderEEE",
   "self_type" : "_ZTIPN7android2wpINS_8hardware9BHwBinderEEE",
   "size" : 4,
   "source_file" : "/system/core/libutils/include/utils/RefBase.h"
  },
  {
   "alignment" : 4,
   "linker_set_key" : "_ZTIPN7android4hidl4base4V1_05IBaseE",
   "name" : "android::hidl::base::V1_0::IBase *",
   "referenced_type" : "_ZTIN7android4hidl4base4V1_05IBaseE",
   "self_type" : "_ZTIPN7android4hidl4base4V1_05IBaseE",
   "size" : 4,
   "source_file" : "/system/core/libutils/include/utils/RefBase.h"
  },
  {
   "alignment" : 4,
   "linker_set_key" : "_ZTIPN7android4hidl4base4V1_08BnHwBaseE",
   "name" : "android::hidl::base::V1_0::BnHwBase *",
   "referenced_type" : "_ZTIN7android4hidl4base4V1_08BnHwBaseE",
   "self_type" : "_ZTIPN7android4hidl4base4V1_08BnHwBaseE",
   "size" : 4,
   "source_file" : "/out/soong/.intermediates/system/libhidl/transport/base/1.0/android.hidl.base@1.0_genc++_headers/gen/android/hidl/base/1.0/BnHwBase.h"
  },
  {
   "alignment" : 4,
   "linker_set_key" : "_ZTIPN7android4hidl7manager4V1_015IServiceManagerE",
   "name" : "android::hidl::manager::V1_0::IServiceManager *",
   "referenced_type" : "_ZTIN7android4hidl7manager4V1_015IServiceManagerE",
   "self_type" : "_ZTIPN7android4hidl7manager4V1_015IServiceManagerE",
   "size" : 4,
   "source_file" : "/system/core/libutils/include/utils/StrongPointer.h"
  },
  {
   "alignment" : 4,
   "linker_set_key" : "_ZTIPN7android4hidl7manager4V1_020IServiceNotificationE",
   "name" : "android::hidl::manager::V1_0::IServiceNotification *",
   "referenced_type" : "_ZTIN7android4hidl7manager4V1_020IServiceNotificationE",
   "self_type" : "_ZTIPN7android4hidl7manager4V1_020IServiceNotificationE",
   "size" : 4,
   "source_file" : "/system/core/libutils/include/utils/StrongPointer.h"
  },
  {
   "alignment" : 4,
   "linker_set_key" : "_ZTIPN7android5Mutex8AutolockE",
   "name" : "android::Mutex::Autolock *",
   "referenced_type" : "_ZTIN7android5Mutex8AutolockE",
   "self_type" : "_ZTIPN7android5Mutex8AutolockE",
   "size" : 4,
   "source_file" : "/system/core/libutils/include/utils/Mutex.h"
  },
  {
   "alignment" : 4,
   "linker_set_key" : "_ZTIPN7android5MutexE",
   "name" : "android::Mutex *",
   "referenced_type" : "_ZTIN7android5MutexE",
   "self_type" : "_ZTIPN7android5MutexE",
   "size" : 4,
   "source_file" : "/system/core/libutils/include/utils/Mutex.h"
  },
  {
   "alignment" : 4,
   "linker_set_key" : "_ZTIPN7android6RWLock9AutoRLockE",
   "name" : "android::RWLock::AutoRLock *",
   "referenced_type" : "_ZTIN7android6RWLock9AutoRLockE",
   "self_type" : "_ZTIPN7android6RWLock9AutoRLockE",
   "size" : 4,
   "source_file" : "/system/core/libutils/include/utils/RWLock.h"
  },
  {
   "alignment" : 4,
   "linker_set_key" : "_ZTIPN7android6RWLock9AutoWLockE",
   "name" : "android::RWLock::AutoWLock *",
   "referenced_type" : "_ZTIN7android6RWLock9AutoWLockE",
   "self_type" : "_ZTIPN7android6RWLock9AutoWLockE",
   "size" : 4,
   "source_file" : "/system/core/libutils/include/utils/RWLock.h"
  },
  {
   "alignment" : 4,
   "linker_set_key" : "_ZTIPN7android6RWLockE",
   "name" : "android::RWLock *",
   "referenced_type" : "_ZTIN7android6RWLockE",
   "self_type" : "_ZTIPN7android6RWLockE",
   "size" : 4,
   "source_file" : "/system/core/libutils/include/utils/RWLock.h"
  },
  {
   "alignment" : 4,
   "linker_set_key" : "_ZTIPN7android6ThreadE",
   "name" : "android::Thread *",
   "referenced_type" : "_ZTIN7android6ThreadE",
   "self_type" : "_ZTIPN7android6ThreadE",
   "size" : 4,
   "source_file" : "/system/core/libutils/include/utils/StrongPointer.h"
  },
  {
   "alignment" : 4,
   "linker_set_key" : "_ZTIPN7android7RefBase12weakref_implE",
   "name" : "android::RefBase::weakref_impl *",
   "referenced_type" : "_ZTIN7android7RefBase12weakref_implE",
   "self_type" : "_ZTIPN7android7RefBase12weakref_implE",
   "size" : 4,
   "source_file" : "/system/core/libutils/include/utils/RefBase.h"
  },
  {
   "alignment" : 4,
   "linker_set_key" : "_ZTIPN7android7RefBase12weakref_typeE",
   "name" : "android::RefBase::weakref_type *",
   "referenced_type" : "_ZTIN7android7RefBase12weakref_typeE",
   "self_type" : "_ZTIPN7android7RefBase12weakref_typeE",
   "size" : 4,
   "source_file" : "/system/core/libutils/include/utils/RefBase.h"
  },
  {
   "alignment" : 4,
   "linker_set_key" : "_ZTIPN7android7RefBaseE",
   "name" : "android::RefBase *",
   "referenced_type" : "_ZTIN7android7RefBaseE",
   "self_type" : "_ZTIPN7android7RefBaseE",
   "size" : 4,
   "source_file" : "/system/core/libutils/include/utils/RefBase.h"
  },
  {
   "alignment" : 4,
   "linker_set_key" : "_ZTIPN7android7String8E",
   "name" : "android::String8 *",
   "referenced_type" : "_ZTIN7android7String8E",
   "self_type" : "_ZTIPN7android7String8E",
   "size" : 4,
   "source_file" : "/system/core/libutils/include/utils/String8.h"
  },
  {
   "alignment" : 4,
   "linker_set_key" : "_ZTIPN7android8String16E",
   "name" : "android::String16 *",
   "referenced_type" : "_ZTIN7android8String16E",
   "self_type" : "_ZTIPN7android8String16E",
   "size" : 4,
   "source_file" : "/system/core/libutils/include/utils/String16.h"
  },
  {
   "alignment" : 4,
   "linker_set_key" : "_ZTIPN7android8hardware10IInterfaceE",
   "name" : "android::hardware::IInterface *",
   "referenced_type" : "_ZTIN7android8hardware10IInterfaceE",
   "self_type" : "_ZTIPN7android8hardware10IInterfaceE",
   "size" : 4,
   "source_file" : "/system/core/libutils/include/utils/StrongPointer.h"
  },
  {
   "alignment" : 4,
   "linker_set_key" : "_ZTIPN7android8hardware10hidl_arrayIfLj4EJLj4EEEE",
   "name" : "android::hardware::hidl_array<float, 4, 4> *",
   "referenced_type" : "_ZTIN7android8hardware10hidl_arrayIfLj4EJLj4EEEE",
   "self_type" : "_ZTIPN7android8hardware10hidl_arrayIfLj4EJLj4EEEE",
   "size" : 4,
   "source_file" : "/system/libhidl/base/include/hidl/HidlSupport.h"
  },
  {
   "alignment" : 4,
   "linker_set_key" : "_ZTIPN7android8hardware10hidl_arrayIhLj32EJEEE",
   "name" : "android::hardware::hidl_array<unsigned char, 32> *",
   "referenced_type" : "_ZTIN7android8hardware10hidl_arrayIhLj32EJEEE",
   "self_type" : "_ZTIPN7android8hardware10hidl_arrayIhLj32EJEEE",
   "size" : 4,
   "source_file" : "/system/libhidl/base/include/hidl/HidlInternal.h"
  },
  {
   "alignment" : 4,
   "linker_set_key" : "_ZTIPN7android8hardware11BpInterfaceINS0_8graphics8composer4V2_215IComposerClientEEE",
   "name" : "android::hardware::BpInterface<android::hardware::graphics::composer::V2_2::IComposerClient> *",
   "referenced_type" : "_ZTIN7android8hardware11BpInterfaceINS0_8graphics8composer4V2_215IComposerClientEEE",
   "self_type" : "_ZTIPN7android8hardware11BpInterfaceINS0_8graphics8composer4V2_215IComposerClientEEE",
   "size" : 4,
   "source_file" : "/system/libhwbinder/include/hwbinder/IInterface.h"
  },
  {
   "alignment" : 4,
   "linker_set_key" : "_ZTIPN7android8hardware11BpInterfaceINS0_8graphics8composer4V2_29IComposerEEE",
   "name" : "android::hardware::BpInterface<android::hardware::graphics::composer::V2_2::IComposer> *",
   "referenced_type" : "_ZTIN7android8hardware11BpInterfaceINS0_8graphics8composer4V2_29IComposerEEE",
   "self_type" : "_ZTIPN7android8hardware11BpInterfaceINS0_8graphics8composer4V2_29IComposerEEE",
   "size" : 4,
   "source_file" : "/system/libhwbinder/include/hwbinder/IInterface.h"
  },
  {
   "alignment" : 4,
   "linker_set_key" : "_ZTIPN7android8hardware11hidl_handleE",
   "name" : "android::hardware::hidl_handle *",
   "referenced_type" : "_ZTIN7android8hardware11hidl_handleE",
   "self_type" : "_ZTIPN7android8hardware11hidl_handleE",
   "size" : 4,
   "source_file" : "/system/libhidl/base/include/hidl/HidlInternal.h"
  },
  {
   "alignment" : 4,
   "linker_set_key" : "_ZTIPN7android8hardware11hidl_memoryE",
   "name" : "android::hardware::hidl_memory *",
   "referenced_type" : "_ZTIN7android8hardware11hidl_memoryE",
   "self_type" : "_ZTIPN7android8hardware11hidl_memoryE",
   "size" : 4,
   "source_file" : "/system/libhidl/base/include/hidl/HidlSupport.h"
  },
  {
   "alignment" : 4,
   "linker_set_key" : "_ZTIPN7android8hardware11hidl_stringE",
   "name" : "android::hardware::hidl_string *",
   "referenced_type" : "_ZTIN7android8hardware11hidl_stringE",
   "self_type" : "_ZTIPN7android8hardware11hidl_stringE",
   "size" : 4,
   "source_file" : "/system/libhidl/base/include/hidl/HidlInternal.h"
  },
  {
   "alignment" : 4,
   "linker_set_key" : "_ZTIPN7android8hardware12ProcessStateE",
   "name" : "android::hardware::ProcessState *",
   "referenced_type" : "_ZTIN7android8hardware12ProcessStateE",
   "self_type" : "_ZTIPN7android8hardware12ProcessStateE",
   "size" : 4,
   "source_file" : "/system/core/libutils/include/utils/StrongPointer.h"
  },
  {
   "alignment" : 4,
   "linker_set_key" : "_ZTIPN7android8hardware12hidl_versionE",
   "name" : "android::hardware::hidl_version *",
   "referenced_type" : "_ZTIN7android8hardware12hidl_versionE",
   "self_type" : "_ZTIPN7android8hardware12hidl_versionE",
   "size" : 4,
   "source_file" : "/system/libhidl/base/include/hidl/HidlSupport.h"
  },
  {
   "alignment" : 4,
   "linker_set_key" : "_ZTIPN7android8hardware13ConcurrentMapINSt3__112basic_stringIcNS2_11char_traitsIcEENS2_9allocatorIcEEEENS2_8functionIFNS_2spINS0_7IBinderEEEPvEEEEE",
   "name" : "android::hardware::ConcurrentMap<std::basic_string<char, std::char_traits<char>, std::allocator<char> >, std::function<sp<IBinder> (void *)> > *",
   "referenced_type" : "_ZTIN7android8hardware13ConcurrentMapINSt3__112basic_stringIcNS2_11char_traitsIcEENS2_9allocatorIcEEEENS2_8functionIFNS_2spINS0_7IBinderEEEPvEEEEE",
   "self_type" : "_ZTIPN7android8hardware13ConcurrentMapINSt3__112basic_stringIcNS2_11char_traitsIcEENS2_9allocatorIcEEEENS2_8functionIFNS_2spINS0_7IBinderEEEPvEEEEE",
   "size" : 4,
   "source_file" : "/system/libhidl/transport/include/hidl/ConcurrentMap.h"
  },
  {
   "alignment" : 4,
   "linker_set_key" : "_ZTIPN7android8hardware13ConcurrentMapINSt3__112basic_stringIcNS2_11char_traitsIcEENS2_9allocatorIcEEEENS2_8functionIFNS_2spINS_4hidl4base4V1_05IBaseEEEPvEEEEE",
   "name" : "android::hardware::ConcurrentMap<std::basic_string<char, std::char_traits<char>, std::allocator<char> >, std::function<sp<IBase> (void *)> > *",
   "referenced_type" : "_ZTIN7android8hardware13ConcurrentMapINSt3__112basic_stringIcNS2_11char_traitsIcEENS2_9allocatorIcEEEENS2_8functionIFNS_2spINS_4hidl4base4V1_05IBaseEEEPvEEEEE",
   "self_type" : "_ZTIPN7android8hardware13ConcurrentMapINSt3__112basic_stringIcNS2_11char_traitsIcEENS2_9allocatorIcEEEENS2_8functionIFNS_2spINS_4hidl4base4V1_05IBaseEEEPvEEEEE",
   "size" : 4,
   "source_file" : "/system/libhidl/transport/include/hidl/ConcurrentMap.h"
  },
  {
   "alignment" : 4,
   "linker_set_key" : "_ZTIPN7android8hardware13ConcurrentMapIPKNS_4hidl4base4V1_05IBaseENS_2wpINS0_9BHwBinderEEEEE",
   "name" : "android::hardware::ConcurrentMap<const android::hidl::base::V1_0::IBase *, android::wp<android::hardware::BHwBinder> > *",
   "referenced_type" : "_ZTIN7android8hardware13ConcurrentMapIPKNS_4hidl4base4V1_05IBaseENS_2wpINS0_9BHwBinderEEEEE",
   "self_type" : "_ZTIPN7android8hardware13ConcurrentMapIPKNS_4hidl4base4V1_05IBaseENS_2wpINS0_9BHwBinderEEEEE",
   "size" : 4,
   "source_file" : "/system/libhidl/transport/include/hidl/ConcurrentMap.h"
  },
  {
   "alignment" : 4,
   "linker_set_key" : "_ZTIPN7android8hardware17GrantorDescriptorE",
   "name" : "android::hardware::GrantorDescriptor *",
   "referenced_type" : "_ZTIN7android8hardware17GrantorDescriptorE",
   "self_type" : "_ZTIPN7android8hardware17GrantorDescriptorE",
   "size" : 4,
   "source_file" : "/system/libhidl/base/include/hidl/HidlInternal.h"
  },
  {
   "alignment" : 4,
   "linker_set_key" : "_ZTIPN7android8hardware20hidl_death_recipientE",
   "name" : "android::hardware::hidl_death_recipient *",
   "referenced_type" : "_ZTIN7android8hardware20hidl_death_recipientE",
   "self_type" : "_ZTIPN7android8hardware20hidl_death_recipientE",
   "size" : 4,
   "source_file" : "/system/core/libutils/include/utils/RefBase.h"
  },
  {
   "alignment" : 4,
   "linker_set_key" : "_ZTIPN7android8hardware27hidl_binder_death_recipientE",
   "name" : "android::hardware::hidl_binder_death_recipient *",
   "referenced_type" : "_ZTIN7android8hardware27hidl_binder_death_recipientE",
   "self_type" : "_ZTIPN7android8hardware27hidl_binder_death_recipientE",
   "size" : 4,
   "source_file" : "/system/core/libutils/include/utils/StrongPointer.h"
  },
  {
   "alignment" : 4,
   "linker_set_key" : "_ZTIPN7android8hardware6ParcelE",
   "name" : "android::hardware::Parcel *",
   "referenced_type" : "_ZTIN7android8hardware6ParcelE",
   "self_type" : "_ZTIPN7android8hardware6ParcelE",
   "size" : 4,
   "source_file" : "/system/libhwbinder/include/hwbinder/Parcel.h"
  },
  {
   "alignment" : 4,
   "linker_set_key" : "_ZTIPN7android8hardware6ReturnINS0_8graphics8composer4V2_15ErrorEEE",
   "name" : "android::hardware::Return<android::hardware::graphics::composer::V2_1::Error> *",
   "referenced_type" : "_ZTIN7android8hardware6ReturnINS0_8graphics8composer4V2_15ErrorEEE",
   "self_type" : "_ZTIPN7android8hardware6ReturnINS0_8graphics8composer4V2_15ErrorEEE",
   "size" : 4,
   "source_file" : "/system/libhidl/base/include/hidl/Status.h"
  },
  {
   "alignment" : 4,
   "linker_set_key" : "_ZTIPN7android8hardware6ReturnINS_2spINS0_8graphics8composer4V2_215IComposerClientEEEEE",
   "name" : "android::hardware::Return<android::sp<android::hardware::graphics::composer::V2_2::IComposerClient> > *",
   "referenced_type" : "_ZTIN7android8hardware6ReturnINS_2spINS0_8graphics8composer4V2_215IComposerClientEEEEE",
   "self_type" : "_ZTIPN7android8hardware6ReturnINS_2spINS0_8graphics8composer4V2_215IComposerClientEEEEE",
   "size" : 4,
   "source_file" : "/system/libhidl/base/include/hidl/Status.h"
  },
  {
   "alignment" : 4,
   "linker_set_key" : "_ZTIPN7android8hardware6ReturnINS_2spINS0_8graphics8composer4V2_29IComposerEEEEE",
   "name" : "android::hardware::Return<android::sp<android::hardware::graphics::composer::V2_2::IComposer> > *",
   "referenced_type" : "_ZTIN7android8hardware6ReturnINS_2spINS0_8graphics8composer4V2_29IComposerEEEEE",
   "self_type" : "_ZTIPN7android8hardware6ReturnINS_2spINS0_8graphics8composer4V2_29IComposerEEEEE",
   "size" : 4,
   "source_file" : "/system/libhidl/base/include/hidl/Status.h"
  },
  {
   "alignment" : 4,
   "linker_set_key" : "_ZTIPN7android8hardware6ReturnIbEE",
   "name" : "android::hardware::Return<bool> *",
   "referenced_type" : "_ZTIN7android8hardware6ReturnIbEE",
   "self_type" : "_ZTIPN7android8hardware6ReturnIbEE",
   "size" : 4,
   "source_file" : "/system/libhidl/base/include/hidl/Status.h"
  },
  {
   "alignment" : 4,
   "linker_set_key" : "_ZTIPN7android8hardware6ReturnIjEE",
   "name" : "android::hardware::Return<unsigned int> *",
   "referenced_type" : "_ZTIN7android8hardware6ReturnIjEE",
   "self_type" : "_ZTIPN7android8hardware6ReturnIjEE",
   "size" : 4,
   "source_file" : "/system/libhidl/base/include/hidl/Status.h"
  },
  {
   "alignment" : 4,
   "linker_set_key" : "_ZTIPN7android8hardware6ReturnIvEE",
   "name" : "android::hardware::Return<void> *",
   "referenced_type" : "_ZTIN7android8hardware6ReturnIvEE",
   "self_type" : "_ZTIPN7android8hardware6ReturnIvEE",
   "size" : 4,
   "source_file" : "/system/libhidl/base/include/hidl/Status.h"
  },
  {
   "alignment" : 4,
   "linker_set_key" : "_ZTIPN7android8hardware6StatusE",
   "name" : "android::hardware::Status *",
   "referenced_type" : "_ZTIN7android8hardware6StatusE",
   "self_type" : "_ZTIPN7android8hardware6StatusE",
   "size" : 4,
   "source_file" : "/system/libhidl/base/include/hidl/Status.h"
  },
  {
   "alignment" : 4,
   "linker_set_key" : "_ZTIPN7android8hardware7IBinder14DeathRecipientE",
   "name" : "android::hardware::IBinder::DeathRecipient *",
   "referenced_type" : "_ZTIN7android8hardware7IBinder14DeathRecipientE",
   "self_type" : "_ZTIPN7android8hardware7IBinder14DeathRecipientE",
   "size" : 4,
   "source_file" : "/system/core/libutils/include/utils/RefBase.h"
  },
  {
   "alignment" : 4,
   "linker_set_key" : "_ZTIPN7android8hardware7IBinderE",
   "name" : "android::hardware::IBinder *",
   "referenced_type" : "_ZTIN7android8hardware7IBinderE",
   "self_type" : "_ZTIPN7android8hardware7IBinderE",
   "size" : 4,
   "source_file" : "/system/core/libutils/include/utils/StrongPointer.h"
  },
  {
   "alignment" : 4,
   "linker_set_key" : "_ZTIPN7android8hardware7details12hidl_pointerINS0_10hidl_arrayIhLj32EJEEEEE",
   "name" : "android::hardware::details::hidl_pointer<android::hardware::hidl_array<unsigned char, 32> > *",
   "referenced_type" : "_ZTIN7android8hardware7details12hidl_pointerINS0_10hidl_arrayIhLj32EJEEEEE",
   "self_type" : "_ZTIPN7android8hardware7details12hidl_pointerINS0_10hidl_arrayIhLj32EJEEEEE",
   "size" : 4,
   "source_file" : "/system/libhidl/base/include/hidl/HidlInternal.h"
  },
  {
   "alignment" : 4,
   "linker_set_key" : "_ZTIPN7android8hardware7details12hidl_pointerINS0_11hidl_stringEEE",
   "name" : "android::hardware::details::hidl_pointer<android::hardware::hidl_string> *",
   "referenced_type" : "_ZTIN7android8hardware7details12hidl_pointerINS0_11hidl_stringEEE",
   "self_type" : "_ZTIPN7android8hardware7details12hidl_pointerINS0_11hidl_stringEEE",
   "size" : 4,
   "source_file" : "/system/libhidl/base/include/hidl/HidlInternal.h"
  },
  {
   "alignment" : 4,
   "linker_set_key" : "_ZTIPN7android8hardware7details13DoNotDestructINS0_13ConcurrentMapIPKNS_4hidl4base4V1_05IBaseENS_2wpINS0_9BHwBinderEEEEEEE",
   "name" : "android::hardware::details::DoNotDestruct<android::hardware::ConcurrentMap<const android::hidl::base::V1_0::IBase *, android::wp<android::hardware::BHwBinder> > > *",
   "referenced_type" : "_ZTIN7android8hardware7details13DoNotDestructINS0_13ConcurrentMapIPKNS_4hidl4base4V1_05IBaseENS_2wpINS0_9BHwBinderEEEEEEE",
   "self_type" : "_ZTIPN7android8hardware7details13DoNotDestructINS0_13ConcurrentMapIPKNS_4hidl4base4V1_05IBaseENS_2wpINS0_9BHwBinderEEEEEEE",
   "size" : 4,
   "source_file" : "/system/libhidl/transport/include/hidl/ConcurrentMap.h"
  },
  {
   "alignment" : 4,
   "linker_set_key" : "_ZTIPN7android8hardware7details13return_statusE",
   "name" : "android::hardware::details::return_status *",
   "referenced_type" : "_ZTIN7android8hardware7details13return_statusE",
   "self_type" : "_ZTIPN7android8hardware7details13return_statusE",
   "size" : 4,
   "source_file" : "/system/libhidl/base/include/hidl/Status.h"
  },
  {
   "alignment" : 4,
   "linker_set_key" : "_ZTIPN7android8hardware7details16HidlInstrumentorE",
   "name" : "android::hardware::details::HidlInstrumentor *",
   "referenced_type" : "_ZTIN7android8hardware7details16HidlInstrumentorE",
   "self_type" : "_ZTIPN7android8hardware7details16HidlInstrumentorE",
   "size" : 4,
   "source_file" : "/system/libhidl/base/include/hidl/HidlInternal.h"
  },
  {
   "alignment" : 4,
   "linker_set_key" : "_ZTIPN7android8hardware8graphics6common4V1_03HdrE",
   "name" : "android::hardware::graphics::common::V1_0::Hdr *",
   "referenced_type" : "_ZTIN7android8hardware8graphics6common4V1_03HdrE",
   "self_type" : "_ZTIPN7android8hardware8graphics6common4V1_03HdrE",
   "size" : 4,
   "source_file" : "/system/libhidl/base/include/hidl/HidlInternal.h"
  },
  {
   "alignment" : 4,
   "linker_set_key" : "_ZTIPN7android8hardware8graphics6common4V1_09ColorModeE",
   "name" : "android::hardware::graphics::common::V1_0::ColorMode *",
   "referenced_type" : "_ZTIN7android8hardware8graphics6common4V1_09ColorModeE",
   "self_type" : "_ZTIPN7android8hardware8graphics6common4V1_09ColorModeE",
   "size" : 4,
   "source_file" : "/system/libhidl/base/include/hidl/HidlInternal.h"
  },
  {
   "alignment" : 4,
   "linker_set_key" : "_ZTIPN7android8hardware8graphics6common4V1_112RenderIntentE",
   "name" : "android::hardware::graphics::common::V1_1::RenderIntent *",
   "referenced_type" : "_ZTIN7android8hardware8graphics6common4V1_112RenderIntentE",
   "self_type" : "_ZTIPN7android8hardware8graphics6common4V1_112RenderIntentE",
   "size" : 4,
   "source_file" : "/system/libhidl/base/include/hidl/HidlInternal.h"
  },
  {
   "alignment" : 4,
   "linker_set_key" : "_ZTIPN7android8hardware8graphics6common4V1_19ColorModeE",
   "name" : "android::hardware::graphics::common::V1_1::ColorMode *",
   "referenced_type" : "_ZTIN7android8hardware8graphics6common4V1_19ColorModeE",
   "self_type" : "_ZTIPN7android8hardware8graphics6common4V1_19ColorModeE",
   "size" : 4,
   "source_file" : "/system/libhidl/base/include/hidl/HidlInternal.h"
  },
  {
   "alignment" : 4,
   "linker_set_key" : "_ZTIPN7android8hardware8graphics8composer4V2_112BnHwComposerE",
   "name" : "android::hardware::graphics::composer::V2_1::BnHwComposer *",
   "referenced_type" : "_ZTIN7android8hardware8graphics8composer4V2_112BnHwComposerE",
   "self_type" : "_ZTIPN7android8hardware8graphics8composer4V2_112BnHwComposerE",
   "size" : 4,
   "source_file" : "/out/soong/.intermediates/hardware/interfaces/graphics/composer/2.1/android.hardware.graphics.composer@2.1_genc++_headers/gen/android/hardware/graphics/composer/2.1/BnHwComposer.h"
  },
  {
   "alignment" : 4,
   "linker_set_key" : "_ZTIPN7android8hardware8graphics8composer4V2_115IComposerClientE",
   "name" : "android::hardware::graphics::composer::V2_1::IComposerClient *",
   "referenced_type" : "_ZTIN7android8hardware8graphics8composer4V2_115IComposerClientE",
   "self_type" : "_ZTIPN7android8hardware8graphics8composer4V2_115IComposerClientE",
   "size" : 4,
   "source_file" : "/system/core/libutils/include/utils/StrongPointer.h"
  },
  {
   "alignment" : 4,
   "linker_set_key" : "_ZTIPN7android8hardware8graphics8composer4V2_117IComposerCallbackE",
   "name" : "android::hardware::graphics::composer::V2_1::IComposerCallback *",
   "referenced_type" : "_ZTIN7android8hardware8graphics8composer4V2_117IComposerCallbackE",
   "self_type" : "_ZTIPN7android8hardware8graphics8composer4V2_117IComposerCallbackE",
   "size" : 4,
   "source_file" : "/system/core/libutils/include/utils/StrongPointer.h"
  },
  {
   "alignment" : 4,
   "linker_set_key" : "_ZTIPN7android8hardware8graphics8composer4V2_118BnHwComposerClientE",
   "name" : "android::hardware::graphics::composer::V2_1::BnHwComposerClient *",
   "referenced_type" : "_ZTIN7android8hardware8graphics8composer4V2_118BnHwComposerClientE",
   "self_type" : "_ZTIPN7android8hardware8graphics8composer4V2_118BnHwComposerClientE",
   "size" : 4,
   "source_file" : "/out/soong/.intermediates/hardware/interfaces/graphics/composer/2.1/android.hardware.graphics.composer@2.1_genc++_headers/gen/android/hardware/graphics/composer/2.1/BnHwComposerClient.h"
  },
  {
   "alignment" : 4,
   "linker_set_key" : "_ZTIPN7android8hardware8graphics8composer4V2_120BnHwComposerCallbackE",
   "name" : "android::hardware::graphics::composer::V2_1::BnHwComposerCallback *",
   "referenced_type" : "_ZTIN7android8hardware8graphics8composer4V2_120BnHwComposerCallbackE",
   "self_type" : "_ZTIPN7android8hardware8graphics8composer4V2_120BnHwComposerCallbackE",
   "size" : 4,
   "source_file" : "/out/soong/.intermediates/hardware/interfaces/graphics/composer/2.1/android.hardware.graphics.composer@2.1_genc++_headers/gen/android/hardware/graphics/composer/2.1/BnHwComposerCallback.h"
  },
  {
   "alignment" : 4,
   "linker_set_key" : "_ZTIPN7android8hardware8graphics8composer4V2_19IComposer10CapabilityE",
   "name" : "android::hardware::graphics::composer::V2_1::IComposer::Capability *",
   "referenced_type" : "_ZTIN7android8hardware8graphics8composer4V2_19IComposer10CapabilityE",
   "self_type" : "_ZTIPN7android8hardware8graphics8composer4V2_19IComposer10CapabilityE",
   "size" : 4,
   "source_file" : "/system/libhidl/base/include/hidl/HidlInternal.h"
  },
  {
   "alignment" : 4,
   "linker_set_key" : "_ZTIPN7android8hardware8graphics8composer4V2_19IComposerE",
   "name" : "android::hardware::graphics::composer::V2_1::IComposer *",
   "referenced_type" : "_ZTIN7android8hardware8graphics8composer4V2_19IComposerE",
   "self_type" : "_ZTIPN7android8hardware8graphics8composer4V2_19IComposerE",
   "size" : 4,
   "source_file" : "/system/core/libutils/include/utils/StrongPointer.h"
  },
  {
   "alignment" : 4,
   "linker_set_key" : "_ZTIPN7android8hardware8graphics8composer4V2_210BsComposerE",
   "name" : "android::hardware::graphics::composer::V2_2::BsComposer *",
   "referenced_type" : "_ZTIN7android8hardware8graphics8composer4V2_210BsComposerE",
   "self_type" : "_ZTIPN7android8hardware8graphics8composer4V2_210BsComposerE",
   "size" : 4,
   "source_file" : "/system/core/libutils/include/utils/StrongPointer.h"
  },
  {
   "alignment" : 4,
   "linker_set_key" : "_ZTIPN7android8hardware8graphics8composer4V2_212BnHwComposerE",
   "name" : "android::hardware::graphics::composer::V2_2::BnHwComposer *",
   "referenced_type" : "_ZTIN7android8hardware8graphics8composer4V2_212BnHwComposerE",
   "self_type" : "_ZTIPN7android8hardware8graphics8composer4V2_212BnHwComposerE",
   "size" : 4,
   "source_file" : "/system/core/libutils/include/utils/RefBase.h"
  },
  {
   "alignment" : 4,
   "linker_set_key" : "_ZTIPN7android8hardware8graphics8composer4V2_212BpHwComposerE",
   "name" : "android::hardware::graphics::composer::V2_2::BpHwComposer *",
   "referenced_type" : "_ZTIN7android8hardware8graphics8composer4V2_212BpHwComposerE",
   "self_type" : "_ZTIPN7android8hardware8graphics8composer4V2_212BpHwComposerE",
   "size" : 4,
   "source_file" : "/system/core/libutils/include/utils/StrongPointer.h"
  },
  {
   "alignment" : 4,
   "linker_set_key" : "_ZTIPN7android8hardware8graphics8composer4V2_215IComposerClient19PerFrameMetadataKeyE",
   "name" : "android::hardware::graphics::composer::V2_2::IComposerClient::PerFrameMetadataKey *",
   "referenced_type" : "_ZTIN7android8hardware8graphics8composer4V2_215IComposerClient19PerFrameMetadataKeyE",
   "self_type" : "_ZTIPN7android8hardware8graphics8composer4V2_215IComposerClient19PerFrameMetadataKeyE",
   "size" : 4,
   "source_file" : "/system/libhidl/base/include/hidl/HidlInternal.h"
  },
  {
   "alignment" : 4,
   "linker_set_key" : "_ZTIPN7android8hardware8graphics8composer4V2_215IComposerClientE",
   "name" : "android::hardware::graphics::composer::V2_2::IComposerClient *",
   "referenced_type" : "_ZTIN7android8hardware8graphics8composer4V2_215IComposerClientE",
   "self_type" : "_ZTIPN7android8hardware8graphics8composer4V2_215IComposerClientE",
   "size" : 4,
   "source_file" : "/system/core/libutils/include/utils/StrongPointer.h"
  },
  {
   "alignment" : 4,
   "linker_set_key" : "_ZTIPN7android8hardware8graphics8composer4V2_216BsComposerClientE",
   "name" : "android::hardware::graphics::composer::V2_2::BsComposerClient *",
   "referenced_type" : "_ZTIN7android8hardware8graphics8composer4V2_216BsComposerClientE",
   "self_type" : "_ZTIPN7android8hardware8graphics8composer4V2_216BsComposerClientE",
   "size" : 4,
   "source_file" : "/system/core/libutils/include/utils/StrongPointer.h"
  },
  {
   "alignment" : 4,
   "linker_set_key" : "_ZTIPN7android8hardware8graphics8composer4V2_218BnHwComposerClientE",
   "name" : "android::hardware::graphics::composer::V2_2::BnHwComposerClient *",
   "referenced_type" : "_ZTIN7android8hardware8graphics8composer4V2_218BnHwComposerClientE",
   "self_type" : "_ZTIPN7android8hardware8graphics8composer4V2_218BnHwComposerClientE",
   "size" : 4,
   "source_file" : "/system/core/libutils/include/utils/RefBase.h"
  },
  {
   "alignment" : 4,
   "linker_set_key" : "_ZTIPN7android8hardware8graphics8composer4V2_218BpHwComposerClientE",
   "name" : "android::hardware::graphics::composer::V2_2::BpHwComposerClient *",
   "referenced_type" : "_ZTIN7android8hardware8graphics8composer4V2_218BpHwComposerClientE",
   "self_type" : "_ZTIPN7android8hardware8graphics8composer4V2_218BpHwComposerClientE",
   "size" : 4,
   "source_file" : "/system/core/libutils/include/utils/StrongPointer.h"
  },
  {
   "alignment" : 4,
   "linker_set_key" : "_ZTIPN7android8hardware8graphics8composer4V2_29IComposerE",
   "name" : "android::hardware::graphics::composer::V2_2::IComposer *",
   "referenced_type" : "_ZTIN7android8hardware8graphics8composer4V2_29IComposerE",
   "self_type" : "_ZTIPN7android8hardware8graphics8composer4V2_29IComposerE",
   "size" : 4,
   "source_file" : "/system/core/libutils/include/utils/StrongPointer.h"
  },
  {
   "alignment" : 4,
   "linker_set_key" : "_ZTIPN7android8hardware8hidl_vecINS0_10hidl_arrayIhLj32EJEEEEE",
   "name" : "android::hardware::hidl_vec<android::hardware::hidl_array<unsigned char, 32> > *",
   "referenced_type" : "_ZTIN7android8hardware8hidl_vecINS0_10hidl_arrayIhLj32EJEEEEE",
   "self_type" : "_ZTIPN7android8hardware8hidl_vecINS0_10hidl_arrayIhLj32EJEEEEE",
   "size" : 4,
   "source_file" : "/system/libhidl/base/include/hidl/HidlSupport.h"
  },
  {
   "alignment" : 4,
   "linker_set_key" : "_ZTIPN7android8hardware8hidl_vecINS0_11hidl_stringEEE",
   "name" : "android::hardware::hidl_vec<android::hardware::hidl_string> *",
   "referenced_type" : "_ZTIN7android8hardware8hidl_vecINS0_11hidl_stringEEE",
   "self_type" : "_ZTIPN7android8hardware8hidl_vecINS0_11hidl_stringEEE",
   "size" : 4,
   "source_file" : "/system/libhidl/base/include/hidl/HidlSupport.h"
  },
  {
   "alignment" : 4,
   "linker_set_key" : "_ZTIPN7android8hardware9BHwBinderE",
   "name" : "android::hardware::BHwBinder *",
   "referenced_type" : "_ZTIN7android8hardware9BHwBinderE",
   "self_type" : "_ZTIPN7android8hardware9BHwBinderE",
   "size" : 4,
   "source_file" : "/system/core/libutils/include/utils/RefBase.h"
  },
  {
   "alignment" : 4,
   "linker_set_key" : "_ZTIPN7android9ConditionE",
   "name" : "android::Condition *",
   "referenced_type" : "_ZTIN7android9ConditionE",
   "self_type" : "_ZTIPN7android9ConditionE",
   "size" : 4,
   "source_file" : "/system/core/libutils/include/utils/Condition.h"
  },
  {
   "alignment" : 4,
   "linker_set_key" : "_ZTIPPv",
   "name" : "void **",
   "referenced_type" : "_ZTIPv",
   "self_type" : "_ZTIPPv",
   "size" : 4,
   "source_file" : "/system/core/libutils/include/utils/AndroidThreads.h"
  },
  {
   "alignment" : 4,
   "linker_set_key" : "_ZTIPc",
   "name" : "char *",
   "referenced_type" : "_ZTIc",
   "self_type" : "_ZTIPc",
   "size" : 4,
   "source_file" : "/system/core/liblog/include/log/log_read.h"
  },
  {
   "alignment" : 4,
   "linker_set_key" : "_ZTIPh",
   "name" : "unsigned char *",
   "referenced_type" : "_ZTIh",
   "self_type" : "_ZTIPh",
   "size" : 4,
   "source_file" : "/system/libhwbinder/include/hwbinder/Parcel.h"
  },
  {
   "alignment" : 4,
   "linker_set_key" : "_ZTIPi",
   "name" : "int *",
   "referenced_type" : "_ZTIi",
   "self_type" : "_ZTIPi",
   "size" : 4,
   "source_file" : "/system/libhidl/base/include/hidl/HidlInternal.h"
  },
  {
   "alignment" : 4,
   "linker_set_key" : "_ZTIPj",
   "name" : "unsigned int *",
   "referenced_type" : "_ZTIj",
   "self_type" : "_ZTIPj",
   "size" : 4,
   "source_file" : "/system/libhidl/base/include/hidl/HidlInternal.h"
  },
  {
   "alignment" : 4,
   "linker_set_key" : "_ZTIPv",
   "name" : "void *",
   "referenced_type" : "_ZTIv",
   "self_type" : "_ZTIPv",
   "size" : 4,
   "source_file" : "/system/libhwbinder/include/hwbinder/Binder.h"
  },
  {
   "alignment" : 4,
   "linker_set_key" : "_ZTIPy",
   "name" : "unsigned long long *",
   "referenced_type" : "_ZTIy",
   "self_type" : "_ZTIPy",
   "size" : 4,
   "source_file" : "/system/libhwbinder/include/hwbinder/Parcel.h"
  }
 ],
 "qualified_types" :
 [
  {
   "alignment" : 4,
   "is_const" : true,
   "linker_set_key" : "_ZTIK13native_handle",
   "name" : "const native_handle",
   "referenced_type" : "_ZTI13native_handle",
   "self_type" : "_ZTIK13native_handle",
   "size" : 12,
   "source_file" : "/system/libhidl/base/include/hidl/HidlInternal.h"
  },
  {
   "alignment" : 4,
   "is_const" : true,
   "linker_set_key" : "_ZTIK7log_msg",
   "name" : "const log_msg",
   "referenced_type" : "_ZTI7log_msg",
   "self_type" : "_ZTIK7log_msg",
   "size" : 5124,
   "source_file" : "/system/core/liblog/include/log/log_read.h"
  },
  {
   "alignment" : 2,
   "is_const" : true,
   "linker_set_key" : "_ZTIKDs",
   "name" : "const char16_t",
   "referenced_type" : "_ZTIDs",
   "self_type" : "_ZTIKDs",
   "size" : 2,
   "source_file" : "/system/core/libutils/include/utils/String16.h"
  },
  {
   "alignment" : 4,
   "is_const" : true,
   "linker_set_key" : "_ZTIKN7android10VectorImplE",
   "name" : "const android::VectorImpl",
   "referenced_type" : "_ZTIN7android10VectorImplE",
   "self_type" : "_ZTIKN7android10VectorImplE",
   "size" : 20,
   "source_file" : "/system/core/libutils/include/utils/VectorImpl.h"
  },
  {
   "alignment" : 4,
   "is_const" : true,
   "linker_set_key" : "_ZTIKN7android12NativeHandleE",
   "name" : "const android::NativeHandle",
   "referenced_type" : "_ZTIN7android12NativeHandleE",
   "self_type" : "_ZTIKN7android12NativeHandleE",
   "size" : 12,
   "source_file" : "/system/core/libutils/include/utils/NativeHandle.h"
  },
  {
   "alignment" : 4,
   "is_const" : true,
   "linker_set_key" : "_ZTIKN7android2spINS_4hidl4base4V1_05IBaseEEE",
   "name" : "const android::sp<android::hidl::base::V1_0::IBase>",
   "referenced_type" : "_ZTIN7android2spINS_4hidl4base4V1_05IBaseEEE",
   "self_type" : "_ZTIKN7android2spINS_4hidl4base4V1_05IBaseEEE",
   "size" : 4,
   "source_file" : "/system/core/libutils/include/utils/StrongPointer.h"
  },
  {
   "alignment" : 4,
   "is_const" : true,
   "linker_set_key" : "_ZTIKN7android2spINS_4hidl7manager4V1_015IServiceManagerEEE",
   "name" : "const android::sp<android::hidl::manager::V1_0::IServiceManager>",
   "referenced_type" : "_ZTIN7android2spINS_4hidl7manager4V1_015IServiceManagerEEE",
   "self_type" : "_ZTIKN7android2spINS_4hidl7manager4V1_015IServiceManagerEEE",
   "size" : 4,
   "source_file" : "/system/core/libutils/include/utils/StrongPointer.h"
  },
  {
   "alignment" : 4,
   "is_const" : true,
   "linker_set_key" : "_ZTIKN7android2spINS_4hidl7manager4V1_020IServiceNotificationEEE",
   "name" : "const android::sp<android::hidl::manager::V1_0::IServiceNotification>",
   "referenced_type" : "_ZTIN7android2spINS_4hidl7manager4V1_020IServiceNotificationEEE",
   "self_type" : "_ZTIKN7android2spINS_4hidl7manager4V1_020IServiceNotificationEEE",
   "size" : 4,
   "source_file" : "/system/core/libutils/include/utils/StrongPointer.h"
  },
  {
   "alignment" : 4,
   "is_const" : true,
   "linker_set_key" : "_ZTIKN7android2spINS_8hardware12ProcessStateEEE",
   "name" : "const android::sp<android::hardware::ProcessState>",
   "referenced_type" : "_ZTIN7android2spINS_8hardware12ProcessStateEEE",
   "self_type" : "_ZTIKN7android2spINS_8hardware12ProcessStateEEE",
   "size" : 4,
   "source_file" : "/system/core/libutils/include/utils/StrongPointer.h"
  },
  {
   "alignment" : 4,
   "is_const" : true,
   "linker_set_key" : "_ZTIKN7android2spINS_8hardware20hidl_death_recipientEEE",
   "name" : "const android::sp<android::hardware::hidl_death_recipient>",
   "referenced_type" : "_ZTIN7android2spINS_8hardware20hidl_death_recipientEEE",
   "self_type" : "_ZTIKN7android2spINS_8hardware20hidl_death_recipientEEE",
   "size" : 4,
   "source_file" : "/system/core/libutils/include/utils/RefBase.h"
  },
  {
   "alignment" : 4,
   "is_const" : true,
   "linker_set_key" : "_ZTIKN7android2spINS_8hardware27hidl_binder_death_recipientEEE",
   "name" : "const android::sp<android::hardware::hidl_binder_death_recipient>",
   "referenced_type" : "_ZTIN7android2spINS_8hardware27hidl_binder_death_recipientEEE",
   "self_type" : "_ZTIKN7android2spINS_8hardware27hidl_binder_death_recipientEEE",
   "size" : 4,
   "source_file" : "/system/core/libutils/include/utils/RefBase.h"
  },
  {
   "alignment" : 4,
   "is_const" : true,
   "linker_set_key" : "_ZTIKN7android2spINS_8hardware7IBinderEEE",
   "name" : "const android::sp<android::hardware::IBinder>",
   "referenced_type" : "_ZTIN7android2spINS_8hardware7IBinderEEE",
   "self_type" : "_ZTIKN7android2spINS_8hardware7IBinderEEE",
   "size" : 4,
   "source_file" : "/system/libhwbinder/include/hwbinder/IInterface.h"
  },
  {
   "alignment" : 4,
   "is_const" : true,
   "linker_set_key" : "_ZTIKN7android2spINS_8hardware8graphics8composer4V2_115IComposerClientEEE",
   "name" : "const android::sp<android::hardware::graphics::composer::V2_1::IComposerClient>",
   "referenced_type" : "_ZTIN7android2spINS_8hardware8graphics8composer4V2_115IComposerClientEEE",
   "self_type" : "_ZTIKN7android2spINS_8hardware8graphics8composer4V2_115IComposerClientEEE",
   "size" : 4,
   "source_file" : "/system/core/libutils/include/utils/StrongPointer.h"
  },
  {
   "alignment" : 4,
   "is_const" : true,
   "linker_set_key" : "_ZTIKN7android2spINS_8hardware8graphics8composer4V2_117IComposerCallbackEEE",
   "name" : "const android::sp<android::hardware::graphics::composer::V2_1::IComposerCallback>",
   "referenced_type" : "_ZTIN7android2spINS_8hardware8graphics8composer4V2_117IComposerCallbackEEE",
   "self_type" : "_ZTIKN7android2spINS_8hardware8graphics8composer4V2_117IComposerCallbackEEE",
   "size" : 4,
   "source_file" : "/system/core/libutils/include/utils/StrongPointer.h"
  },
  {
   "alignment" : 4,
   "is_const" : true,
   "linker_set_key" : "_ZTIKN7android2spINS_8hardware8graphics8composer4V2_19IComposerEEE",
   "name" : "const android::sp<android::hardware::graphics::composer::V2_1::IComposer>",
   "referenced_type" : "_ZTIN7android2spINS_8hardware8graphics8composer4V2_19IComposerEEE",
   "self_type" : "_ZTIKN7android2spINS_8hardware8graphics8composer4V2_19IComposerEEE",
   "size" : 4,
   "source_file" : "/system/core/libutils/include/utils/StrongPointer.h"
  },
  {
   "alignment" : 4,
   "is_const" : true,
   "linker_set_key" : "_ZTIKN7android2spINS_8hardware8graphics8composer4V2_215IComposerClientEEE",
   "name" : "const android::sp<android::hardware::graphics::composer::V2_2::IComposerClient>",
   "referenced_type" : "_ZTIN7android2spINS_8hardware8graphics8composer4V2_215IComposerClientEEE",
   "self_type" : "_ZTIKN7android2spINS_8hardware8graphics8composer4V2_215IComposerClientEEE",
   "size" : 4,
   "source_file" : "/system/core/libutils/include/utils/StrongPointer.h"
  },
  {
   "alignment" : 4,
   "is_const" : true,
   "linker_set_key" : "_ZTIKN7android2spINS_8hardware8graphics8composer4V2_29IComposerEEE",
   "name" : "const android::sp<android::hardware::graphics::composer::V2_2::IComposer>",
   "referenced_type" : "_ZTIN7android2spINS_8hardware8graphics8composer4V2_29IComposerEEE",
   "self_type" : "_ZTIKN7android2spINS_8hardware8graphics8composer4V2_29IComposerEEE",
   "size" : 4,
   "source_file" : "/system/core/libutils/include/utils/StrongPointer.h"
  },
  {
   "alignment" : 4,
   "is_const" : true,
   "linker_set_key" : "_ZTIKN7android2wpINS_8hardware20hidl_death_recipientEEE",
   "name" : "const android::wp<android::hardware::hidl_death_recipient>",
   "referenced_type" : "_ZTIN7android2wpINS_8hardware20hidl_death_recipientEEE",
   "self_type" : "_ZTIKN7android2wpINS_8hardware20hidl_death_recipientEEE",
   "size" : 8,
   "source_file" : "/system/core/libutils/include/utils/RefBase.h"
  },
  {
   "alignment" : 4,
   "is_const" : true,
   "linker_set_key" : "_ZTIKN7android2wpINS_8hardware9BHwBinderEEE",
   "name" : "const android::wp<android::hardware::BHwBinder>",
   "referenced_type" : "_ZTIN7android2wpINS_8hardware9BHwBinderEEE",
   "self_type" : "_ZTIKN7android2wpINS_8hardware9BHwBinderEEE",
   "size" : 8,
   "source_file" : "/system/core/libutils/include/utils/RefBase.h"
  },
  {
   "alignment" : 4,
   "is_const" : true,
   "linker_set_key" : "_ZTIKN7android4hidl4base4V1_05IBaseE",
   "name" : "const android::hidl::base::V1_0::IBase",
   "referenced_type" : "_ZTIN7android4hidl4base4V1_05IBaseE",
   "self_type" : "_ZTIKN7android4hidl4base4V1_05IBaseE",
   "size" : 12,
   "source_file" : "/out/soong/.intermediates/system/libhidl/transport/base/1.0/android.hidl.base@1.0_genc++_headers/gen/android/hidl/base/1.0/IBase.h"
  },
  {
   "alignment" : 4,
   "is_const" : true,
   "linker_set_key" : "_ZTIKN7android4hidl4base4V1_08BpHwBaseE",
   "name" : "const android::hidl::base::V1_0::BpHwBase",
   "referenced_type" : "_ZTIN7android4hidl4base4V1_08BpHwBaseE",
   "self_type" : "_ZTIKN7android4hidl4base4V1_08BpHwBaseE",
   "size" : 92,
   "source_file" : "/out/soong/.intermediates/system/libhidl/transport/base/1.0/android.hidl.base@1.0_genc++_headers/gen/android/hidl/base/1.0/BpHwBase.h"
  },
  {
   "alignment" : 4,
   "is_const" : true,
   "linker_set_key" : "_ZTIKN7android4hidl4base4V1_09DebugInfo12ArchitectureE",
   "name" : "const android::hidl::base::V1_0::DebugInfo::Architecture",
   "referenced_type" : "_ZTIN7android4hidl4base4V1_09DebugInfo12ArchitectureE",
   "self_type" : "_ZTIKN7android4hidl4base4V1_09DebugInfo12ArchitectureE",
   "size" : 4,
   "source_file" : "/out/soong/.intermediates/system/libhidl/transport/base/1.0/android.hidl.base@1.0_genc++_headers/gen/android/hidl/base/1.0/types.h"
  },
  {
   "alignment" : 4,
   "is_const" : true,
   "linker_set_key" : "_ZTIKN7android4hidl7manager4V1_015IServiceManager11PidConstantE",
   "name" : "const android::hidl::manager::V1_0::IServiceManager::PidConstant",
   "referenced_type" : "_ZTIN7android4hidl7manager4V1_015IServiceManager11PidConstantE",
   "self_type" : "_ZTIKN7android4hidl7manager4V1_015IServiceManager11PidConstantE",
   "size" : 4,
   "source_file" : "/out/soong/.intermediates/system/libhidl/transport/manager/1.0/android.hidl.manager@1.0_genc++_headers/gen/android/hidl/manager/1.0/IServiceManager.h"
  },
  {
   "alignment" : 1,
   "is_const" : true,
   "linker_set_key" : "_ZTIKN7android4hidl7manager4V1_015IServiceManager9TransportE",
   "name" : "const android::hidl::manager::V1_0::IServiceManager::Transport",
   "referenced_type" : "_ZTIN7android4hidl7manager4V1_015IServiceManager9TransportE",
   "self_type" : "_ZTIKN7android4hidl7manager4V1_015IServiceManager9TransportE",
   "size" : 1,
   "source_file" : "/out/soong/.intermediates/system/libhidl/transport/manager/1.0/android.hidl.manager@1.0_genc++_headers/gen/android/hidl/manager/1.0/IServiceManager.h"
  },
  {
   "alignment" : 4,
   "is_const" : true,
   "linker_set_key" : "_ZTIKN7android4hidl7manager4V1_015IServiceManagerE",
   "name" : "const android::hidl::manager::V1_0::IServiceManager",
   "referenced_type" : "_ZTIN7android4hidl7manager4V1_015IServiceManagerE",
   "self_type" : "_ZTIKN7android4hidl7manager4V1_015IServiceManagerE",
   "size" : 12,
   "source_file" : "/out/soong/.intermediates/system/libhidl/transport/manager/1.0/android.hidl.manager@1.0_genc++_headers/gen/android/hidl/manager/1.0/IServiceManager.h"
  },
  {
   "alignment" : 4,
   "is_const" : true,
   "linker_set_key" : "_ZTIKN7android4hidl7manager4V1_020IServiceNotificationE",
   "name" : "const android::hidl::manager::V1_0::IServiceNotification",
   "referenced_type" : "_ZTIN7android4hidl7manager4V1_020IServiceNotificationE",
   "self_type" : "_ZTIKN7android4hidl7manager4V1_020IServiceNotificationE",
   "size" : 12,
   "source_file" : "/out/soong/.intermediates/system/libhidl/transport/manager/1.0/android.hidl.manager@1.0_genc++_headers/gen/android/hidl/manager/1.0/IServiceNotification.h"
  },
  {
   "alignment" : 4,
   "is_const" : true,
   "linker_set_key" : "_ZTIKN7android7RefBaseE",
   "name" : "const android::RefBase",
   "referenced_type" : "_ZTIN7android7RefBaseE",
   "self_type" : "_ZTIKN7android7RefBaseE",
   "size" : 8,
   "source_file" : "/system/core/libutils/include/utils/RefBase.h"
  },
  {
   "alignment" : 4,
   "is_const" : true,
   "linker_set_key" : "_ZTIKN7android7String8E",
   "name" : "const android::String8",
   "referenced_type" : "_ZTIN7android7String8E",
   "self_type" : "_ZTIKN7android7String8E",
   "size" : 4,
   "source_file" : "/system/core/libutils/include/utils/String8.h"
  },
  {
   "alignment" : 4,
   "is_const" : true,
   "linker_set_key" : "_ZTIKN7android8String16E",
   "name" : "const android::String16",
   "referenced_type" : "_ZTIN7android8String16E",
   "self_type" : "_ZTIKN7android8String16E",
   "size" : 4,
   "source_file" : "/system/core/libutils/include/utils/String16.h"
  },
  {
   "alignment" : 4,
   "is_const" : true,
   "linker_set_key" : "_ZTIKN7android8hardware10hidl_arrayIfLj4EJLj4EEEE",
   "name" : "const android::hardware::hidl_array<float, 4, 4>",
   "referenced_type" : "_ZTIN7android8hardware10hidl_arrayIfLj4EJLj4EEEE",
   "self_type" : "_ZTIKN7android8hardware10hidl_arrayIfLj4EJLj4EEEE",
   "size" : 64,
   "source_file" : "/system/libhidl/base/include/hidl/HidlSupport.h"
  },
  {
   "alignment" : 1,
   "is_const" : true,
   "linker_set_key" : "_ZTIKN7android8hardware10hidl_arrayIhLj32EJEEE",
   "name" : "const android::hardware::hidl_array<unsigned char, 32>",
   "referenced_type" : "_ZTIN7android8hardware10hidl_arrayIhLj32EJEEE",
   "self_type" : "_ZTIKN7android8hardware10hidl_arrayIhLj32EJEEE",
   "size" : 32,
   "source_file" : "/system/libhidl/base/include/hidl/HidlSupport.h"
  },
  {
   "alignment" : 4,
   "is_const" : true,
   "linker_set_key" : "_ZTIKN7android8hardware11BpHwRefBaseE",
   "name" : "const android::hardware::BpHwRefBase",
   "referenced_type" : "_ZTIN7android8hardware11BpHwRefBaseE",
   "self_type" : "_ZTIKN7android8hardware11BpHwRefBaseE",
   "size" : 24,
   "source_file" : "/system/libhwbinder/include/hwbinder/Binder.h"
  },
  {
   "alignment" : 8,
   "is_const" : true,
   "linker_set_key" : "_ZTIKN7android8hardware11hidl_handleE",
   "name" : "const android::hardware::hidl_handle",
   "referenced_type" : "_ZTIN7android8hardware11hidl_handleE",
   "self_type" : "_ZTIKN7android8hardware11hidl_handleE",
   "size" : 16,
   "source_file" : "/system/libhidl/base/include/hidl/HidlSupport.h"
  },
  {
   "alignment" : 8,
   "is_const" : true,
   "linker_set_key" : "_ZTIKN7android8hardware11hidl_memoryE",
   "name" : "const android::hardware::hidl_memory",
   "referenced_type" : "_ZTIN7android8hardware11hidl_memoryE",
   "self_type" : "_ZTIKN7android8hardware11hidl_memoryE",
   "size" : 40,
   "source_file" : "/system/libhidl/base/include/hidl/HidlSupport.h"
  },
  {
   "alignment" : 8,
   "is_const" : true,
   "linker_set_key" : "_ZTIKN7android8hardware11hidl_stringE",
   "name" : "const android::hardware::hidl_string",
   "referenced_type" : "_ZTIN7android8hardware11hidl_stringE",
   "self_type" : "_ZTIKN7android8hardware11hidl_stringE",
   "size" : 16,
   "source_file" : "/system/libhidl/base/include/hidl/HidlSupport.h"
  },
  {
   "alignment" : 8,
   "is_const" : true,
   "linker_set_key" : "_ZTIKN7android8hardware12MQDescriptorIjLNS0_8MQFlavorE1EEE",
   "name" : "const android::hardware::MQDescriptor<unsigned int, android::hardware::kSynchronizedReadWrite>",
   "referenced_type" : "_ZTIN7android8hardware12MQDescriptorIjLNS0_8MQFlavorE1EEE",
   "self_type" : "_ZTIKN7android8hardware12MQDescriptorIjLNS0_8MQFlavorE1EEE",
   "size" : 32,
   "source_file" : "/out/soong/.intermediates/hardware/interfaces/graphics/composer/2.2/android.hardware.graphics.composer@2.2_genc++_headers/gen/android/hardware/graphics/composer/2.2/BpHwComposerClient.h"
  },
  {
   "alignment" : 2,
   "is_const" : true,
   "linker_set_key" : "_ZTIKN7android8hardware12hidl_versionE",
   "name" : "const android::hardware::hidl_version",
   "referenced_type" : "_ZTIN7android8hardware12hidl_versionE",
   "self_type" : "_ZTIKN7android8hardware12hidl_versionE",
   "size" : 4,
   "source_file" : "/system/libhidl/base/include/hidl/HidlSupport.h"
  },
  {
   "alignment" : 4,
   "is_const" : true,
   "linker_set_key" : "_ZTIKN7android8hardware6ParcelE",
   "name" : "const android::hardware::Parcel",
   "referenced_type" : "_ZTIN7android8hardware6ParcelE",
   "self_type" : "_ZTIKN7android8hardware6ParcelE",
   "size" : 68,
   "source_file" : "/system/libhwbinder/include/hwbinder/Parcel.h"
  },
  {
   "alignment" : 4,
   "is_const" : true,
   "linker_set_key" : "_ZTIKN7android8hardware6ReturnINS0_8graphics8composer4V2_15ErrorEEE",
   "name" : "const android::hardware::Return<android::hardware::graphics::composer::V2_1::Error>",
   "referenced_type" : "_ZTIN7android8hardware6ReturnINS0_8graphics8composer4V2_15ErrorEEE",
   "self_type" : "_ZTIKN7android8hardware6ReturnINS0_8graphics8composer4V2_15ErrorEEE",
   "size" : 28,
   "source_file" : "/system/libhidl/base/include/hidl/Status.h"
  },
  {
   "alignment" : 4,
   "is_const" : true,
   "linker_set_key" : "_ZTIKN7android8hardware6ReturnINS_2spINS0_8graphics8composer4V2_215IComposerClientEEEEE",
   "name" : "const android::hardware::Return<android::sp<android::hardware::graphics::composer::V2_2::IComposerClient> >",
   "referenced_type" : "_ZTIN7android8hardware6ReturnINS_2spINS0_8graphics8composer4V2_215IComposerClientEEEEE",
   "self_type" : "_ZTIKN7android8hardware6ReturnINS_2spINS0_8graphics8composer4V2_215IComposerClientEEEEE",
   "size" : 28,
   "source_file" : "/system/libhidl/base/include/hidl/Status.h"
  },
  {
   "alignment" : 4,
   "is_const" : true,
   "linker_set_key" : "_ZTIKN7android8hardware6ReturnINS_2spINS0_8graphics8composer4V2_29IComposerEEEEE",
   "name" : "const android::hardware::Return<android::sp<android::hardware::graphics::composer::V2_2::IComposer> >",
   "referenced_type" : "_ZTIN7android8hardware6ReturnINS_2spINS0_8graphics8composer4V2_29IComposerEEEEE",
   "self_type" : "_ZTIKN7android8hardware6ReturnINS_2spINS0_8graphics8composer4V2_29IComposerEEEEE",
   "size" : 28,
   "source_file" : "/system/libhidl/base/include/hidl/Status.h"
  },
  {
   "alignment" : 4,
   "is_const" : true,
   "linker_set_key" : "_ZTIKN7android8hardware6ReturnIbEE",
   "name" : "const android::hardware::Return<bool>",
   "referenced_type" : "_ZTIN7android8hardware6ReturnIbEE",
   "self_type" : "_ZTIKN7android8hardware6ReturnIbEE",
   "size" : 24,
   "source_file" : "/system/libhidl/base/include/hidl/Status.h"
  },
  {
   "alignment" : 4,
   "is_const" : true,
   "linker_set_key" : "_ZTIKN7android8hardware6ReturnIjEE",
   "name" : "const android::hardware::Return<unsigned int>",
   "referenced_type" : "_ZTIN7android8hardware6ReturnIjEE",
   "self_type" : "_ZTIKN7android8hardware6ReturnIjEE",
   "size" : 28,
   "source_file" : "/system/libhidl/base/include/hidl/Status.h"
  },
  {
   "alignment" : 4,
   "is_const" : true,
   "linker_set_key" : "_ZTIKN7android8hardware6StatusE",
   "name" : "const android::hardware::Status",
   "referenced_type" : "_ZTIN7android8hardware6StatusE",
   "self_type" : "_ZTIKN7android8hardware6StatusE",
   "size" : 20,
   "source_file" : "/system/libhidl/base/include/hidl/Status.h"
  },
  {
   "alignment" : 8,
   "is_const" : true,
   "linker_set_key" : "_ZTIKN7android8hardware7details12hidl_pointerINS0_10hidl_arrayIhLj32EJEEEEE",
   "name" : "const android::hardware::details::hidl_pointer<android::hardware::hidl_array<unsigned char, 32> >",
   "referenced_type" : "_ZTIN7android8hardware7details12hidl_pointerINS0_10hidl_arrayIhLj32EJEEEEE",
   "self_type" : "_ZTIKN7android8hardware7details12hidl_pointerINS0_10hidl_arrayIhLj32EJEEEEE",
   "size" : 8,
   "source_file" : "/system/libhidl/base/include/hidl/HidlInternal.h"
  },
  {
   "alignment" : 8,
   "is_const" : true,
   "linker_set_key" : "_ZTIKN7android8hardware7details12hidl_pointerINS0_11hidl_handleEEE",
   "name" : "const android::hardware::details::hidl_pointer<android::hardware::hidl_handle>",
   "referenced_type" : "_ZTIN7android8hardware7details12hidl_pointerINS0_11hidl_handleEEE",
   "self_type" : "_ZTIKN7android8hardware7details12hidl_pointerINS0_11hidl_handleEEE",
   "size" : 8,
   "source_file" : "/system/libhidl/base/include/hidl/HidlInternal.h"
  },
  {
   "alignment" : 8,
   "is_const" : true,
   "linker_set_key" : "_ZTIKN7android8hardware7details12hidl_pointerINS0_11hidl_stringEEE",
   "name" : "const android::hardware::details::hidl_pointer<android::hardware::hidl_string>",
   "referenced_type" : "_ZTIN7android8hardware7details12hidl_pointerINS0_11hidl_stringEEE",
   "self_type" : "_ZTIKN7android8hardware7details12hidl_pointerINS0_11hidl_stringEEE",
   "size" : 8,
   "source_file" : "/system/libhidl/base/include/hidl/HidlInternal.h"
  },
  {
   "alignment" : 8,
   "is_const" : true,
   "linker_set_key" : "_ZTIKN7android8hardware7details12hidl_pointerINS0_8graphics6common4V1_112RenderIntentEEE",
   "name" : "const android::hardware::details::hidl_pointer<android::hardware::graphics::common::V1_1::RenderIntent>",
   "referenced_type" : "_ZTIN7android8hardware7details12hidl_pointerINS0_8graphics6common4V1_112RenderIntentEEE",
   "self_type" : "_ZTIKN7android8hardware7details12hidl_pointerINS0_8graphics6common4V1_112RenderIntentEEE",
   "size" : 8,
   "source_file" : "/system/libhidl/base/include/hidl/HidlInternal.h"
  },
  {
   "alignment" : 8,
   "is_const" : true,
   "linker_set_key" : "_ZTIKN7android8hardware7details12hidl_pointerINS0_8graphics6common4V1_19ColorModeEEE",
   "name" : "const android::hardware::details::hidl_pointer<android::hardware::graphics::common::V1_1::ColorMode>",
   "referenced_type" : "_ZTIN7android8hardware7details12hidl_pointerINS0_8graphics6common4V1_19ColorModeEEE",
   "self_type" : "_ZTIKN7android8hardware7details12hidl_pointerINS0_8graphics6common4V1_19ColorModeEEE",
   "size" : 8,
   "source_file" : "/system/libhidl/base/include/hidl/HidlInternal.h"
  },
  {
   "alignment" : 8,
   "is_const" : true,
   "linker_set_key" : "_ZTIKN7android8hardware7details12hidl_pointerINS0_8graphics8composer4V2_215IComposerClient19PerFrameMetadataKeyEEE",
   "name" : "const android::hardware::details::hidl_pointer<android::hardware::graphics::composer::V2_2::IComposerClient::PerFrameMetadataKey>",
   "referenced_type" : "_ZTIN7android8hardware7details12hidl_pointerINS0_8graphics8composer4V2_215IComposerClient19PerFrameMetadataKeyEEE",
   "self_type" : "_ZTIKN7android8hardware7details12hidl_pointerINS0_8graphics8composer4V2_215IComposerClient19PerFrameMetadataKeyEEE",
   "size" : 8,
   "source_file" : "/system/libhidl/base/include/hidl/HidlInternal.h"
  },
  {
   "alignment" : 8,
   "is_const" : true,
   "linker_set_key" : "_ZTIKN7android8hardware7details12hidl_pointerIiEE",
   "name" : "const android::hardware::details::hidl_pointer<int>",
   "referenced_type" : "_ZTIN7android8hardware7details12hidl_pointerIiEE",
   "self_type" : "_ZTIKN7android8hardware7details12hidl_pointerIiEE",
   "size" : 8,
   "source_file" : "/system/libhidl/base/include/hidl/HidlInternal.h"
  },
  {
   "alignment" : 4,
   "is_const" : true,
   "linker_set_key" : "_ZTIKN7android8hardware7details13return_statusE",
   "name" : "const android::hardware::details::return_status",
   "referenced_type" : "_ZTIN7android8hardware7details13return_statusE",
   "self_type" : "_ZTIKN7android8hardware7details13return_statusE",
   "size" : 24,
   "source_file" : "/system/libhidl/base/include/hidl/Status.h"
  },
  {
   "alignment" : 8,
   "is_const" : true,
   "linker_set_key" : "_ZTIKN7android8hardware8graphics6common4V1_011BufferUsageE",
   "name" : "const android::hardware::graphics::common::V1_0::BufferUsage",
   "referenced_type" : "_ZTIN7android8hardware8graphics6common4V1_011BufferUsageE",
   "self_type" : "_ZTIKN7android8hardware8graphics6common4V1_011BufferUsageE",
   "size" : 8,
   "source_file" : "/out/soong/.intermediates/hardware/interfaces/graphics/common/1.0/android.hardware.graphics.common@1.0_genc++_headers/gen/android/hardware/graphics/common/1.0/types.h"
  },
  {
   "alignment" : 4,
   "is_const" : true,
   "linker_set_key" : "_ZTIKN7android8hardware8graphics6common4V1_011PixelFormatE",
   "name" : "const android::hardware::graphics::common::V1_0::PixelFormat",
   "referenced_type" : "_ZTIN7android8hardware8graphics6common4V1_011PixelFormatE",
   "self_type" : "_ZTIKN7android8hardware8graphics6common4V1_011PixelFormatE",
   "size" : 4,
   "source_file" : "/out/soong/.intermediates/hardware/interfaces/graphics/common/1.0/android.hardware.graphics.common@1.0_genc++_headers/gen/android/hardware/graphics/common/1.0/types.h"
  },
  {
   "alignment" : 4,
   "is_const" : true,
   "linker_set_key" : "_ZTIKN7android8hardware8graphics6common4V1_014ColorTransformE",
   "name" : "const android::hardware::graphics::common::V1_0::ColorTransform",
   "referenced_type" : "_ZTIN7android8hardware8graphics6common4V1_014ColorTransformE",
   "self_type" : "_ZTIKN7android8hardware8graphics6common4V1_014ColorTransformE",
   "size" : 4,
   "source_file" : "/out/soong/.intermediates/hardware/interfaces/graphics/common/1.0/android.hardware.graphics.common@1.0_genc++_headers/gen/android/hardware/graphics/common/1.0/types.h"
  },
  {
   "alignment" : 4,
   "is_const" : true,
   "linker_set_key" : "_ZTIKN7android8hardware8graphics6common4V1_03HdrE",
   "name" : "const android::hardware::graphics::common::V1_0::Hdr",
   "referenced_type" : "_ZTIN7android8hardware8graphics6common4V1_03HdrE",
   "self_type" : "_ZTIKN7android8hardware8graphics6common4V1_03HdrE",
   "size" : 4,
   "source_file" : "/out/soong/.intermediates/hardware/interfaces/graphics/common/1.0/android.hardware.graphics.common@1.0_genc++_headers/gen/android/hardware/graphics/common/1.0/types.h"
  },
  {
   "alignment" : 4,
   "is_const" : true,
   "linker_set_key" : "_ZTIKN7android8hardware8graphics6common4V1_09ColorModeE",
   "name" : "const android::hardware::graphics::common::V1_0::ColorMode",
   "referenced_type" : "_ZTIN7android8hardware8graphics6common4V1_09ColorModeE",
   "self_type" : "_ZTIKN7android8hardware8graphics6common4V1_09ColorModeE",
   "size" : 4,
   "source_file" : "/out/soong/.intermediates/hardware/interfaces/graphics/common/1.0/android.hardware.graphics.common@1.0_genc++_headers/gen/android/hardware/graphics/common/1.0/types.h"
  },
  {
   "alignment" : 4,
   "is_const" : true,
   "linker_set_key" : "_ZTIKN7android8hardware8graphics6common4V1_09DataspaceE",
   "name" : "const android::hardware::graphics::common::V1_0::Dataspace",
   "referenced_type" : "_ZTIN7android8hardware8graphics6common4V1_09DataspaceE",
   "self_type" : "_ZTIKN7android8hardware8graphics6common4V1_09DataspaceE",
   "size" : 4,
   "source_file" : "/out/soong/.intermediates/hardware/interfaces/graphics/common/1.0/android.hardware.graphics.common@1.0_genc++_headers/gen/android/hardware/graphics/common/1.0/types.h"
  },
  {
   "alignment" : 4,
   "is_const" : true,
   "linker_set_key" : "_ZTIKN7android8hardware8graphics6common4V1_09TransformE",
   "name" : "const android::hardware::graphics::common::V1_0::Transform",
   "referenced_type" : "_ZTIN7android8hardware8graphics6common4V1_09TransformE",
   "self_type" : "_ZTIKN7android8hardware8graphics6common4V1_09TransformE",
   "size" : 4,
   "source_file" : "/out/soong/.intermediates/hardware/interfaces/graphics/common/1.0/android.hardware.graphics.common@1.0_genc++_headers/gen/android/hardware/graphics/common/1.0/types.h"
  },
  {
   "alignment" : 8,
   "is_const" : true,
   "linker_set_key" : "_ZTIKN7android8hardware8graphics6common4V1_111BufferUsageE",
   "name" : "const android::hardware::graphics::common::V1_1::BufferUsage",
   "referenced_type" : "_ZTIN7android8hardware8graphics6common4V1_111BufferUsageE",
   "self_type" : "_ZTIKN7android8hardware8graphics6common4V1_111BufferUsageE",
   "size" : 8,
   "source_file" : "/out/soong/.intermediates/hardware/interfaces/graphics/common/1.1/android.hardware.graphics.common@1.1_genc++_headers/gen/android/hardware/graphics/common/1.1/types.h"
  },
  {
   "alignment" : 4,
   "is_const" : true,
   "linker_set_key" : "_ZTIKN7android8hardware8graphics6common4V1_111PixelFormatE",
   "name" : "const android::hardware::graphics::common::V1_1::PixelFormat",
   "referenced_type" : "_ZTIN7android8hardware8graphics6common4V1_111PixelFormatE",
   "self_type" : "_ZTIKN7android8hardware8graphics6common4V1_111PixelFormatE",
   "size" : 4,
   "source_file" : "/out/soong/.intermediates/hardware/interfaces/graphics/common/1.1/android.hardware.graphics.common@1.1_genc++_headers/gen/android/hardware/graphics/common/1.1/types.h"
  },
  {
   "alignment" : 4,
   "is_const" : true,
   "linker_set_key" : "_ZTIKN7android8hardware8graphics6common4V1_112RenderIntentE",
   "name" : "const android::hardware::graphics::common::V1_1::RenderIntent",
   "referenced_type" : "_ZTIN7android8hardware8graphics6common4V1_112RenderIntentE",
   "self_type" : "_ZTIKN7android8hardware8graphics6common4V1_112RenderIntentE",
   "size" : 4,
   "source_file" : "/system/libhidl/base/include/hidl/HidlSupport.h"
  },
  {
   "alignment" : 4,
   "is_const" : true,
   "linker_set_key" : "_ZTIKN7android8hardware8graphics6common4V1_19ColorModeE",
   "name" : "const android::hardware::graphics::common::V1_1::ColorMode",
   "referenced_type" : "_ZTIN7android8hardware8graphics6common4V1_19ColorModeE",
   "self_type" : "_ZTIKN7android8hardware8graphics6common4V1_19ColorModeE",
   "size" : 4,
   "source_file" : "/system/libhidl/base/include/hidl/HidlSupport.h"
  },
  {
   "alignment" : 4,
   "is_const" : true,
   "linker_set_key" : "_ZTIKN7android8hardware8graphics6common4V1_19DataspaceE",
   "name" : "const android::hardware::graphics::common::V1_1::Dataspace",
   "referenced_type" : "_ZTIN7android8hardware8graphics6common4V1_19DataspaceE",
   "self_type" : "_ZTIKN7android8hardware8graphics6common4V1_19DataspaceE",
   "size" : 4,
   "source_file" : "/out/soong/.intermediates/hardware/interfaces/graphics/common/1.1/android.hardware.graphics.common@1.1_genc++_headers/gen/android/hardware/graphics/common/1.1/types.h"
  },
  {
   "alignment" : 4,
   "is_const" : true,
   "linker_set_key" : "_ZTIKN7android8hardware8graphics8composer4V2_112BpHwComposerE",
   "name" : "const android::hardware::graphics::composer::V2_1::BpHwComposer",
   "referenced_type" : "_ZTIN7android8hardware8graphics8composer4V2_112BpHwComposerE",
   "self_type" : "_ZTIKN7android8hardware8graphics8composer4V2_112BpHwComposerE",
   "size" : 92,
   "source_file" : "/out/soong/.intermediates/hardware/interfaces/graphics/composer/2.1/android.hardware.graphics.composer@2.1_genc++_headers/gen/android/hardware/graphics/composer/2.1/BpHwComposer.h"
  },
  {
   "alignment" : 4,
   "is_const" : true,
   "linker_set_key" : "_ZTIKN7android8hardware8graphics8composer4V2_115IComposerClient11CompositionE",
   "name" : "const android::hardware::graphics::composer::V2_1::IComposerClient::Composition",
   "referenced_type" : "_ZTIN7android8hardware8graphics8composer4V2_115IComposerClient11CompositionE",
   "self_type" : "_ZTIKN7android8hardware8graphics8composer4V2_115IComposerClient11CompositionE",
   "size" : 4,
   "source_file" : "/out/soong/.intermediates/hardware/interfaces/graphics/composer/2.1/android.hardware.graphics.composer@2.1_genc++_headers/gen/android/hardware/graphics/composer/2.1/IComposerClient.h"
  },
  {
   "alignment" : 4,
   "is_const" : true,
   "linker_set_key" : "_ZTIKN7android8hardware8graphics8composer4V2_115IComposerClient11DisplayTypeE",
   "name" : "const android::hardware::graphics::composer::V2_1::IComposerClient::DisplayType",
   "referenced_type" : "_ZTIN7android8hardware8graphics8composer4V2_115IComposerClient11DisplayTypeE",
   "self_type" : "_ZTIKN7android8hardware8graphics8composer4V2_115IComposerClient11DisplayTypeE",
   "size" : 4,
   "source_file" : "/out/soong/.intermediates/hardware/interfaces/graphics/composer/2.1/android.hardware.graphics.composer@2.1_genc++_headers/gen/android/hardware/graphics/composer/2.1/IComposerClient.h"
  },
  {
   "alignment" : 4,
   "is_const" : true,
   "linker_set_key" : "_ZTIKN7android8hardware8graphics8composer4V2_115IComposerClient11HandleIndexE",
   "name" : "const android::hardware::graphics::composer::V2_1::IComposerClient::HandleIndex",
   "referenced_type" : "_ZTIN7android8hardware8graphics8composer4V2_115IComposerClient11HandleIndexE",
   "self_type" : "_ZTIKN7android8hardware8graphics8composer4V2_115IComposerClient11HandleIndexE",
   "size" : 4,
   "source_file" : "/out/soong/.intermediates/hardware/interfaces/graphics/composer/2.1/android.hardware.graphics.composer@2.1_genc++_headers/gen/android/hardware/graphics/composer/2.1/IComposerClient.h"
  },
  {
   "alignment" : 4,
   "is_const" : true,
   "linker_set_key" : "_ZTIKN7android8hardware8graphics8composer4V2_115IComposerClient12LayerRequestE",
   "name" : "const android::hardware::graphics::composer::V2_1::IComposerClient::LayerRequest",
   "referenced_type" : "_ZTIN7android8hardware8graphics8composer4V2_115IComposerClient12LayerRequestE",
   "self_type" : "_ZTIKN7android8hardware8graphics8composer4V2_115IComposerClient12LayerRequestE",
   "size" : 4,
   "source_file" : "/out/soong/.intermediates/hardware/interfaces/graphics/composer/2.1/android.hardware.graphics.composer@2.1_genc++_headers/gen/android/hardware/graphics/composer/2.1/IComposerClient.h"
  },
  {
   "alignment" : 4,
   "is_const" : true,
   "linker_set_key" : "_ZTIKN7android8hardware8graphics8composer4V2_115IComposerClient14DisplayRequestE",
   "name" : "const android::hardware::graphics::composer::V2_1::IComposerClient::DisplayRequest",
   "referenced_type" : "_ZTIN7android8hardware8graphics8composer4V2_115IComposerClient14DisplayRequestE",
   "self_type" : "_ZTIKN7android8hardware8graphics8composer4V2_115IComposerClient14DisplayRequestE",
   "size" : 4,
   "source_file" : "/out/soong/.intermediates/hardware/interfaces/graphics/composer/2.1/android.hardware.graphics.composer@2.1_genc++_headers/gen/android/hardware/graphics/composer/2.1/IComposerClient.h"
  },
  {
   "alignment" : 4,
   "is_const" : true,
   "linker_set_key" : "_ZTIKN7android8hardware8graphics8composer4V2_115IComposerClient5VsyncE",
   "name" : "const android::hardware::graphics::composer::V2_1::IComposerClient::Vsync",
   "referenced_type" : "_ZTIN7android8hardware8graphics8composer4V2_115IComposerClient5VsyncE",
   "self_type" : "_ZTIKN7android8hardware8graphics8composer4V2_115IComposerClient5VsyncE",
   "size" : 4,
   "source_file" : "/out/soong/.intermediates/hardware/interfaces/graphics/composer/2.1/android.hardware.graphics.composer@2.1_genc++_headers/gen/android/hardware/graphics/composer/2.1/IComposerClient.h"
  },
  {
   "alignment" : 4,
   "is_const" : true,
   "linker_set_key" : "_ZTIKN7android8hardware8graphics8composer4V2_115IComposerClient7CommandE",
   "name" : "const android::hardware::graphics::composer::V2_1::IComposerClient::Command",
   "referenced_type" : "_ZTIN7android8hardware8graphics8composer4V2_115IComposerClient7CommandE",
   "self_type" : "_ZTIKN7android8hardware8graphics8composer4V2_115IComposerClient7CommandE",
   "size" : 4,
   "source_file" : "/out/soong/.intermediates/hardware/interfaces/graphics/composer/2.1/android.hardware.graphics.composer@2.1_genc++_headers/gen/android/hardware/graphics/composer/2.1/IComposerClient.h"
  },
  {
   "alignment" : 4,
   "is_const" : true,
   "linker_set_key" : "_ZTIKN7android8hardware8graphics8composer4V2_115IComposerClient9AttributeE",
   "name" : "const android::hardware::graphics::composer::V2_1::IComposerClient::Attribute",
   "referenced_type" : "_ZTIN7android8hardware8graphics8composer4V2_115IComposerClient9AttributeE",
   "self_type" : "_ZTIKN7android8hardware8graphics8composer4V2_115IComposerClient9AttributeE",
   "size" : 4,
   "source_file" : "/out/soong/.intermediates/hardware/interfaces/graphics/composer/2.1/android.hardware.graphics.composer@2.1_genc++_headers/gen/android/hardware/graphics/composer/2.1/IComposerClient.h"
  },
  {
   "alignment" : 4,
   "is_const" : true,
   "linker_set_key" : "_ZTIKN7android8hardware8graphics8composer4V2_115IComposerClient9BlendModeE",
   "name" : "const android::hardware::graphics::composer::V2_1::IComposerClient::BlendMode",
   "referenced_type" : "_ZTIN7android8hardware8graphics8composer4V2_115IComposerClient9BlendModeE",
   "self_type" : "_ZTIKN7android8hardware8graphics8composer4V2_115IComposerClient9BlendModeE",
   "size" : 4,
   "source_file" : "/out/soong/.intermediates/hardware/interfaces/graphics/composer/2.1/android.hardware.graphics.composer@2.1_genc++_headers/gen/android/hardware/graphics/composer/2.1/IComposerClient.h"
  },
  {
   "alignment" : 4,
   "is_const" : true,
   "linker_set_key" : "_ZTIKN7android8hardware8graphics8composer4V2_115IComposerClient9PowerModeE",
   "name" : "const android::hardware::graphics::composer::V2_1::IComposerClient::PowerMode",
   "referenced_type" : "_ZTIN7android8hardware8graphics8composer4V2_115IComposerClient9PowerModeE",
   "self_type" : "_ZTIKN7android8hardware8graphics8composer4V2_115IComposerClient9PowerModeE",
   "size" : 4,
   "source_file" : "/out/soong/.intermediates/hardware/interfaces/graphics/composer/2.1/android.hardware.graphics.composer@2.1_genc++_headers/gen/android/hardware/graphics/composer/2.1/IComposerClient.h"
  },
  {
   "alignment" : 4,
   "is_const" : true,
   "linker_set_key" : "_ZTIKN7android8hardware8graphics8composer4V2_115IComposerClientE",
   "name" : "const android::hardware::graphics::composer::V2_1::IComposerClient",
   "referenced_type" : "_ZTIN7android8hardware8graphics8composer4V2_115IComposerClientE",
   "self_type" : "_ZTIKN7android8hardware8graphics8composer4V2_115IComposerClientE",
   "size" : 12,
   "source_file" : "/out/soong/.intermediates/hardware/interfaces/graphics/composer/2.1/android.hardware.graphics.composer@2.1_genc++_headers/gen/android/hardware/graphics/composer/2.1/IComposerClient.h"
  },
  {
   "alignment" : 4,
   "is_const" : true,
   "linker_set_key" : "_ZTIKN7android8hardware8graphics8composer4V2_117IComposerCallback10ConnectionE",
   "name" : "const android::hardware::graphics::composer::V2_1::IComposerCallback::Connection",
   "referenced_type" : "_ZTIN7android8hardware8graphics8composer4V2_117IComposerCallback10ConnectionE",
   "self_type" : "_ZTIKN7android8hardware8graphics8composer4V2_117IComposerCallback10ConnectionE",
   "size" : 4,
   "source_file" : "/out/soong/.intermediates/hardware/interfaces/graphics/composer/2.1/android.hardware.graphics.composer@2.1_genc++_headers/gen/android/hardware/graphics/composer/2.1/IComposerCallback.h"
  },
  {
   "alignment" : 4,
   "is_const" : true,
   "linker_set_key" : "_ZTIKN7android8hardware8graphics8composer4V2_117IComposerCallbackE",
   "name" : "const android::hardware::graphics::composer::V2_1::IComposerCallback",
   "referenced_type" : "_ZTIN7android8hardware8graphics8composer4V2_117IComposerCallbackE",
   "self_type" : "_ZTIKN7android8hardware8graphics8composer4V2_117IComposerCallbackE",
   "size" : 12,
   "source_file" : "/out/soong/.intermediates/hardware/interfaces/graphics/composer/2.1/android.hardware.graphics.composer@2.1_genc++_headers/gen/android/hardware/graphics/composer/2.1/IComposerCallback.h"
  },
  {
   "alignment" : 4,
   "is_const" : true,
   "linker_set_key" : "_ZTIKN7android8hardware8graphics8composer4V2_118BpHwComposerClientE",
   "name" : "const android::hardware::graphics::composer::V2_1::BpHwComposerClient",
   "referenced_type" : "_ZTIN7android8hardware8graphics8composer4V2_118BpHwComposerClientE",
   "self_type" : "_ZTIKN7android8hardware8graphics8composer4V2_118BpHwComposerClientE",
   "size" : 92,
   "source_file" : "/out/soong/.intermediates/hardware/interfaces/graphics/composer/2.1/android.hardware.graphics.composer@2.1_genc++_headers/gen/android/hardware/graphics/composer/2.1/BpHwComposerClient.h"
  },
  {
   "alignment" : 4,
   "is_const" : true,
   "linker_set_key" : "_ZTIKN7android8hardware8graphics8composer4V2_120BpHwComposerCallbackE",
   "name" : "const android::hardware::graphics::composer::V2_1::BpHwComposerCallback",
   "referenced_type" : "_ZTIN7android8hardware8graphics8composer4V2_120BpHwComposerCallbackE",
   "self_type" : "_ZTIKN7android8hardware8graphics8composer4V2_120BpHwComposerCallbackE",
   "size" : 92,
   "source_file" : "/out/soong/.intermediates/hardware/interfaces/graphics/composer/2.1/android.hardware.graphics.composer@2.1_genc++_headers/gen/android/hardware/graphics/composer/2.1/BpHwComposerCallback.h"
  },
  {
   "alignment" : 4,
   "is_const" : true,
   "linker_set_key" : "_ZTIKN7android8hardware8graphics8composer4V2_15ErrorE",
   "name" : "const android::hardware::graphics::composer::V2_1::Error",
   "referenced_type" : "_ZTIN7android8hardware8graphics8composer4V2_15ErrorE",
   "self_type" : "_ZTIKN7android8hardware8graphics8composer4V2_15ErrorE",
   "size" : 4,
   "source_file" : "/out/soong/.intermediates/hardware/interfaces/graphics/composer/2.1/android.hardware.graphics.composer@2.1_genc++_headers/gen/android/hardware/graphics/composer/2.1/types.h"
  },
  {
   "alignment" : 4,
   "is_const" : true,
   "linker_set_key" : "_ZTIKN7android8hardware8graphics8composer4V2_19IComposer10CapabilityE",
   "name" : "const android::hardware::graphics::composer::V2_1::IComposer::Capability",
   "referenced_type" : "_ZTIN7android8hardware8graphics8composer4V2_19IComposer10CapabilityE",
   "self_type" : "_ZTIKN7android8hardware8graphics8composer4V2_19IComposer10CapabilityE",
   "size" : 4,
   "source_file" : "/out/soong/.intermediates/hardware/interfaces/graphics/composer/2.1/android.hardware.graphics.composer@2.1_genc++_headers/gen/android/hardware/graphics/composer/2.1/IComposer.h"
  },
  {
   "alignment" : 4,
   "is_const" : true,
   "linker_set_key" : "_ZTIKN7android8hardware8graphics8composer4V2_19IComposerE",
   "name" : "const android::hardware::graphics::composer::V2_1::IComposer",
   "referenced_type" : "_ZTIN7android8hardware8graphics8composer4V2_19IComposerE",
   "self_type" : "_ZTIKN7android8hardware8graphics8composer4V2_19IComposerE",
   "size" : 12,
   "source_file" : "/out/soong/.intermediates/hardware/interfaces/graphics/composer/2.1/android.hardware.graphics.composer@2.1_genc++_headers/gen/android/hardware/graphics/composer/2.1/IComposer.h"
  },
  {
   "alignment" : 4,
   "is_const" : true,
   "linker_set_key" : "_ZTIKN7android8hardware8graphics8composer4V2_212BpHwComposerE",
   "name" : "const android::hardware::graphics::composer::V2_2::BpHwComposer",
   "referenced_type" : "_ZTIN7android8hardware8graphics8composer4V2_212BpHwComposerE",
   "self_type" : "_ZTIKN7android8hardware8graphics8composer4V2_212BpHwComposerE",
   "size" : 92,
   "source_file" : "/out/soong/.intermediates/hardware/interfaces/graphics/composer/2.2/android.hardware.graphics.composer@2.2_genc++_headers/gen/android/hardware/graphics/composer/2.2/BpHwComposer.h"
  },
  {
   "alignment" : 4,
   "is_const" : true,
   "linker_set_key" : "_ZTIKN7android8hardware8graphics8composer4V2_215IComposerClient19PerFrameMetadataKeyE",
   "name" : "const android::hardware::graphics::composer::V2_2::IComposerClient::PerFrameMetadataKey",
   "referenced_type" : "_ZTIN7android8hardware8graphics8composer4V2_215IComposerClient19PerFrameMetadataKeyE",
   "self_type" : "_ZTIKN7android8hardware8graphics8composer4V2_215IComposerClient19PerFrameMetadataKeyE",
   "size" : 4,
   "source_file" : "/system/libhidl/base/include/hidl/HidlSupport.h"
  },
  {
   "alignment" : 4,
   "is_const" : true,
   "linker_set_key" : "_ZTIKN7android8hardware8graphics8composer4V2_215IComposerClient7CommandE",
   "name" : "const android::hardware::graphics::composer::V2_2::IComposerClient::Command",
   "referenced_type" : "_ZTIN7android8hardware8graphics8composer4V2_215IComposerClient7CommandE",
   "self_type" : "_ZTIKN7android8hardware8graphics8composer4V2_215IComposerClient7CommandE",
   "size" : 4,
   "source_file" : "/out/soong/.intermediates/hardware/interfaces/graphics/composer/2.2/android.hardware.graphics.composer@2.2_genc++_headers/gen/android/hardware/graphics/composer/2.2/IComposerClient.h"
  },
  {
   "alignment" : 4,
   "is_const" : true,
   "linker_set_key" : "_ZTIKN7android8hardware8graphics8composer4V2_215IComposerClient9PowerModeE",
   "name" : "const android::hardware::graphics::composer::V2_2::IComposerClient::PowerMode",
   "referenced_type" : "_ZTIN7android8hardware8graphics8composer4V2_215IComposerClient9PowerModeE",
   "self_type" : "_ZTIKN7android8hardware8graphics8composer4V2_215IComposerClient9PowerModeE",
   "size" : 4,
   "source_file" : "/out/soong/.intermediates/hardware/interfaces/graphics/composer/2.2/android.hardware.graphics.composer@2.2_genc++_headers/gen/android/hardware/graphics/composer/2.2/IComposerClient.h"
  },
  {
   "alignment" : 4,
   "is_const" : true,
   "linker_set_key" : "_ZTIKN7android8hardware8graphics8composer4V2_215IComposerClientE",
   "name" : "const android::hardware::graphics::composer::V2_2::IComposerClient",
   "referenced_type" : "_ZTIN7android8hardware8graphics8composer4V2_215IComposerClientE",
   "self_type" : "_ZTIKN7android8hardware8graphics8composer4V2_215IComposerClientE",
   "size" : 12,
   "source_file" : "/out/soong/.intermediates/hardware/interfaces/graphics/composer/2.2/android.hardware.graphics.composer@2.2_genc++_headers/gen/android/hardware/graphics/composer/2.2/IComposerClient.h"
  },
  {
   "alignment" : 4,
   "is_const" : true,
   "linker_set_key" : "_ZTIKN7android8hardware8graphics8composer4V2_218BpHwComposerClientE",
   "name" : "const android::hardware::graphics::composer::V2_2::BpHwComposerClient",
   "referenced_type" : "_ZTIN7android8hardware8graphics8composer4V2_218BpHwComposerClientE",
   "self_type" : "_ZTIKN7android8hardware8graphics8composer4V2_218BpHwComposerClientE",
   "size" : 92,
   "source_file" : "/out/soong/.intermediates/hardware/interfaces/graphics/composer/2.2/android.hardware.graphics.composer@2.2_genc++_headers/gen/android/hardware/graphics/composer/2.2/BpHwComposerClient.h"
  },
  {
   "alignment" : 4,
   "is_const" : true,
   "linker_set_key" : "_ZTIKN7android8hardware8graphics8composer4V2_29IComposerE",
   "name" : "const android::hardware::graphics::composer::V2_2::IComposer",
   "referenced_type" : "_ZTIN7android8hardware8graphics8composer4V2_29IComposerE",
   "self_type" : "_ZTIKN7android8hardware8graphics8composer4V2_29IComposerE",
   "size" : 12,
   "source_file" : "/out/soong/.intermediates/hardware/interfaces/graphics/composer/2.2/android.hardware.graphics.composer@2.2_genc++_headers/gen/android/hardware/graphics/composer/2.2/IComposer.h"
  },
  {
   "is_const" : true,
   "linker_set_key" : "_ZTIKN7android8hardware8hidl_vec4iterIXTL0__EEE",
   "name" : "const iter<is_const>",
   "referenced_type" : "_ZTIN7android8hardware8hidl_vec4iterIXTL0__EEE",
   "self_type" : "_ZTIKN7android8hardware8hidl_vec4iterIXTL0__EEE",
   "source_file" : "/system/libhidl/base/include/hidl/HidlSupport.h"
  },
  {
   "alignment" : 8,
   "is_const" : true,
   "linker_set_key" : "_ZTIKN7android8hardware8hidl_vecINS0_11hidl_handleEEE",
   "name" : "const android::hardware::hidl_vec<android::hardware::hidl_handle>",
   "referenced_type" : "_ZTIN7android8hardware8hidl_vecINS0_11hidl_handleEEE",
   "self_type" : "_ZTIKN7android8hardware8hidl_vecINS0_11hidl_handleEEE",
   "size" : 16,
   "source_file" : "/system/libhidl/base/include/hidl/HidlSupport.h"
  },
  {
   "alignment" : 8,
   "is_const" : true,
   "linker_set_key" : "_ZTIKN7android8hardware8hidl_vecINS0_11hidl_stringEEE",
   "name" : "const android::hardware::hidl_vec<android::hardware::hidl_string>",
   "referenced_type" : "_ZTIN7android8hardware8hidl_vecINS0_11hidl_stringEEE",
   "self_type" : "_ZTIKN7android8hardware8hidl_vecINS0_11hidl_stringEEE",
   "size" : 16,
   "source_file" : "/out/soong/.intermediates/hardware/interfaces/graphics/composer/2.2/android.hardware.graphics.composer@2.2_genc++_headers/gen/android/hardware/graphics/composer/2.2/IComposer.h"
  },
  {
   "alignment" : 8,
   "is_const" : true,
   "linker_set_key" : "_ZTIKN7android8hardware8hidl_vecINS0_8graphics6common4V1_112RenderIntentEEE",
   "name" : "const android::hardware::hidl_vec<android::hardware::graphics::common::V1_1::RenderIntent>",
   "referenced_type" : "_ZTIN7android8hardware8hidl_vecINS0_8graphics6common4V1_112RenderIntentEEE",
   "self_type" : "_ZTIKN7android8hardware8hidl_vecINS0_8graphics6common4V1_112RenderIntentEEE",
   "size" : 16,
   "source_file" : "/system/libhidl/base/include/hidl/HidlSupport.h"
  },
  {
   "alignment" : 8,
   "is_const" : true,
   "linker_set_key" : "_ZTIKN7android8hardware8hidl_vecINS0_8graphics6common4V1_19ColorModeEEE",
   "name" : "const android::hardware::hidl_vec<android::hardware::graphics::common::V1_1::ColorMode>",
   "referenced_type" : "_ZTIN7android8hardware8hidl_vecINS0_8graphics6common4V1_19ColorModeEEE",
   "self_type" : "_ZTIKN7android8hardware8hidl_vecINS0_8graphics6common4V1_19ColorModeEEE",
   "size" : 16,
   "source_file" : "/system/libhidl/base/include/hidl/HidlSupport.h"
  },
  {
   "alignment" : 8,
   "is_const" : true,
   "linker_set_key" : "_ZTIKN7android8hardware8hidl_vecINS0_8graphics8composer4V2_215IComposerClient19PerFrameMetadataKeyEEE",
   "name" : "const android::hardware::hidl_vec<android::hardware::graphics::composer::V2_2::IComposerClient::PerFrameMetadataKey>",
   "referenced_type" : "_ZTIN7android8hardware8hidl_vecINS0_8graphics8composer4V2_215IComposerClient19PerFrameMetadataKeyEEE",
   "self_type" : "_ZTIKN7android8hardware8hidl_vecINS0_8graphics8composer4V2_215IComposerClient19PerFrameMetadataKeyEEE",
   "size" : 16,
   "source_file" : "/system/libhidl/base/include/hidl/HidlSupport.h"
  },
  {
   "alignment" : 8,
   "is_const" : true,
   "linker_set_key" : "_ZTIKN7android8hardware8hidl_vecIiEE",
   "name" : "const android::hardware::hidl_vec<int>",
   "referenced_type" : "_ZTIN7android8hardware8hidl_vecIiEE",
   "self_type" : "_ZTIKN7android8hardware8hidl_vecIiEE",
   "size" : 16,
   "source_file" : "/system/libhidl/base/include/hidl/HidlSupport.h"
  },
  {
   "alignment" : 4,
   "is_const" : true,
   "linker_set_key" : "_ZTIKNSt3__112basic_stringIcNS_11char_traitsIcEENS_9allocatorIcEEEE",
   "name" : "const std::basic_string<char, std::char_traits<char>, std::allocator<char> >",
   "referenced_type" : "_ZTINSt3__112basic_stringIcNS_11char_traitsIcEENS_9allocatorIcEEEE",
   "self_type" : "_ZTIKNSt3__112basic_stringIcNS_11char_traitsIcEENS_9allocatorIcEEEE",
   "size" : 12,
   "source_file" : "/system/libhidl/transport/include/hidl/HidlTransportSupport.h"
  },
  {
   "alignment" : 4,
   "is_const" : true,
   "linker_set_key" : "_ZTIKNSt3__15arrayIN7android4hidl4base4V1_09DebugInfo12ArchitectureELj3EEE",
   "name" : "const std::array<android::hidl::base::V1_0::DebugInfo::Architecture, 3>",
   "referenced_type" : "_ZTINSt3__15arrayIN7android4hidl4base4V1_09DebugInfo12ArchitectureELj3EEE",
   "self_type" : "_ZTIKNSt3__15arrayIN7android4hidl4base4V1_09DebugInfo12ArchitectureELj3EEE",
   "size" : 12,
   "source_file" : "/out/soong/.intermediates/system/libhidl/transport/base/1.0/android.hidl.base@1.0_genc++_headers/gen/android/hidl/base/1.0/types.h"
  },
  {
   "alignment" : 4,
   "is_const" : true,
   "linker_set_key" : "_ZTIKNSt3__15arrayIN7android4hidl7manager4V1_015IServiceManager11PidConstantELj1EEE",
   "name" : "const std::array<android::hidl::manager::V1_0::IServiceManager::PidConstant, 1>",
   "referenced_type" : "_ZTINSt3__15arrayIN7android4hidl7manager4V1_015IServiceManager11PidConstantELj1EEE",
   "self_type" : "_ZTIKNSt3__15arrayIN7android4hidl7manager4V1_015IServiceManager11PidConstantELj1EEE",
   "size" : 4,
   "source_file" : "/out/soong/.intermediates/system/libhidl/transport/manager/1.0/android.hidl.manager@1.0_genc++_headers/gen/android/hidl/manager/1.0/IServiceManager.h"
  },
  {
   "alignment" : 1,
   "is_const" : true,
   "linker_set_key" : "_ZTIKNSt3__15arrayIN7android4hidl7manager4V1_015IServiceManager9TransportELj3EEE",
   "name" : "const std::array<android::hidl::manager::V1_0::IServiceManager::Transport, 3>",
   "referenced_type" : "_ZTINSt3__15arrayIN7android4hidl7manager4V1_015IServiceManager9TransportELj3EEE",
   "self_type" : "_ZTIKNSt3__15arrayIN7android4hidl7manager4V1_015IServiceManager9TransportELj3EEE",
   "size" : 3,
   "source_file" : "/out/soong/.intermediates/system/libhidl/transport/manager/1.0/android.hidl.manager@1.0_genc++_headers/gen/android/hidl/manager/1.0/IServiceManager.h"
  },
  {
   "alignment" : 8,
   "is_const" : true,
   "linker_set_key" : "_ZTIKNSt3__15arrayIN7android8hardware8graphics6common4V1_011BufferUsageELj23EEE",
   "name" : "const std::array<android::hardware::graphics::common::V1_0::BufferUsage, 23>",
   "referenced_type" : "_ZTINSt3__15arrayIN7android8hardware8graphics6common4V1_011BufferUsageELj23EEE",
   "self_type" : "_ZTIKNSt3__15arrayIN7android8hardware8graphics6common4V1_011BufferUsageELj23EEE",
   "size" : 184,
   "source_file" : "/out/soong/.intermediates/hardware/interfaces/graphics/common/1.0/android.hardware.graphics.common@1.0_genc++_headers/gen/android/hardware/graphics/common/1.0/types.h"
  },
  {
   "alignment" : 4,
   "is_const" : true,
   "linker_set_key" : "_ZTIKNSt3__15arrayIN7android8hardware8graphics6common4V1_011PixelFormatELj20EEE",
   "name" : "const std::array<android::hardware::graphics::common::V1_0::PixelFormat, 20>",
   "referenced_type" : "_ZTINSt3__15arrayIN7android8hardware8graphics6common4V1_011PixelFormatELj20EEE",
   "self_type" : "_ZTIKNSt3__15arrayIN7android8hardware8graphics6common4V1_011PixelFormatELj20EEE",
   "size" : 80,
   "source_file" : "/out/soong/.intermediates/hardware/interfaces/graphics/common/1.0/android.hardware.graphics.common@1.0_genc++_headers/gen/android/hardware/graphics/common/1.0/types.h"
  },
  {
   "alignment" : 4,
   "is_const" : true,
   "linker_set_key" : "_ZTIKNSt3__15arrayIN7android8hardware8graphics6common4V1_014ColorTransformELj7EEE",
   "name" : "const std::array<android::hardware::graphics::common::V1_0::ColorTransform, 7>",
   "referenced_type" : "_ZTINSt3__15arrayIN7android8hardware8graphics6common4V1_014ColorTransformELj7EEE",
   "self_type" : "_ZTIKNSt3__15arrayIN7android8hardware8graphics6common4V1_014ColorTransformELj7EEE",
   "size" : 28,
   "source_file" : "/out/soong/.intermediates/hardware/interfaces/graphics/common/1.0/android.hardware.graphics.common@1.0_genc++_headers/gen/android/hardware/graphics/common/1.0/types.h"
  },
  {
   "alignment" : 4,
   "is_const" : true,
   "linker_set_key" : "_ZTIKNSt3__15arrayIN7android8hardware8graphics6common4V1_03HdrELj3EEE",
   "name" : "const std::array<android::hardware::graphics::common::V1_0::Hdr, 3>",
   "referenced_type" : "_ZTINSt3__15arrayIN7android8hardware8graphics6common4V1_03HdrELj3EEE",
   "self_type" : "_ZTIKNSt3__15arrayIN7android8hardware8graphics6common4V1_03HdrELj3EEE",
   "size" : 12,
   "source_file" : "/out/soong/.intermediates/hardware/interfaces/graphics/common/1.0/android.hardware.graphics.common@1.0_genc++_headers/gen/android/hardware/graphics/common/1.0/types.h"
  },
  {
   "alignment" : 4,
   "is_const" : true,
   "linker_set_key" : "_ZTIKNSt3__15arrayIN7android8hardware8graphics6common4V1_09ColorModeELj10EEE",
   "name" : "const std::array<android::hardware::graphics::common::V1_0::ColorMode, 10>",
   "referenced_type" : "_ZTINSt3__15arrayIN7android8hardware8graphics6common4V1_09ColorModeELj10EEE",
   "self_type" : "_ZTIKNSt3__15arrayIN7android8hardware8graphics6common4V1_09ColorModeELj10EEE",
   "size" : 40,
   "source_file" : "/out/soong/.intermediates/hardware/interfaces/graphics/common/1.0/android.hardware.graphics.common@1.0_genc++_headers/gen/android/hardware/graphics/common/1.0/types.h"
  },
  {
   "alignment" : 4,
   "is_const" : true,
   "linker_set_key" : "_ZTIKNSt3__15arrayIN7android8hardware8graphics6common4V1_09DataspaceELj57EEE",
   "name" : "const std::array<android::hardware::graphics::common::V1_0::Dataspace, 57>",
   "referenced_type" : "_ZTINSt3__15arrayIN7android8hardware8graphics6common4V1_09DataspaceELj57EEE",
   "self_type" : "_ZTIKNSt3__15arrayIN7android8hardware8graphics6common4V1_09DataspaceELj57EEE",
   "size" : 228,
   "source_file" : "/out/soong/.intermediates/hardware/interfaces/graphics/common/1.0/android.hardware.graphics.common@1.0_genc++_headers/gen/android/hardware/graphics/common/1.0/types.h"
  },
  {
   "alignment" : 4,
   "is_const" : true,
   "linker_set_key" : "_ZTIKNSt3__15arrayIN7android8hardware8graphics6common4V1_09TransformELj5EEE",
   "name" : "const std::array<android::hardware::graphics::common::V1_0::Transform, 5>",
   "referenced_type" : "_ZTINSt3__15arrayIN7android8hardware8graphics6common4V1_09TransformELj5EEE",
   "self_type" : "_ZTIKNSt3__15arrayIN7android8hardware8graphics6common4V1_09TransformELj5EEE",
   "size" : 20,
   "source_file" : "/out/soong/.intermediates/hardware/interfaces/graphics/common/1.0/android.hardware.graphics.common@1.0_genc++_headers/gen/android/hardware/graphics/common/1.0/types.h"
  },
  {
   "alignment" : 8,
   "is_const" : true,
   "linker_set_key" : "_ZTIKNSt3__15arrayIN7android8hardware8graphics6common4V1_111BufferUsageELj25EEE",
   "name" : "const std::array<android::hardware::graphics::common::V1_1::BufferUsage, 25>",
   "referenced_type" : "_ZTINSt3__15arrayIN7android8hardware8graphics6common4V1_111BufferUsageELj25EEE",
   "self_type" : "_ZTIKNSt3__15arrayIN7android8hardware8graphics6common4V1_111BufferUsageELj25EEE",
   "size" : 200,
   "source_file" : "/out/soong/.intermediates/hardware/interfaces/graphics/common/1.1/android.hardware.graphics.common@1.1_genc++_headers/gen/android/hardware/graphics/common/1.1/types.h"
  },
  {
   "alignment" : 4,
   "is_const" : true,
   "linker_set_key" : "_ZTIKNSt3__15arrayIN7android8hardware8graphics6common4V1_111PixelFormatELj27EEE",
   "name" : "const std::array<android::hardware::graphics::common::V1_1::PixelFormat, 27>",
   "referenced_type" : "_ZTINSt3__15arrayIN7android8hardware8graphics6common4V1_111PixelFormatELj27EEE",
   "self_type" : "_ZTIKNSt3__15arrayIN7android8hardware8graphics6common4V1_111PixelFormatELj27EEE",
   "size" : 108,
   "source_file" : "/out/soong/.intermediates/hardware/interfaces/graphics/common/1.1/android.hardware.graphics.common@1.1_genc++_headers/gen/android/hardware/graphics/common/1.1/types.h"
  },
  {
   "alignment" : 4,
   "is_const" : true,
   "linker_set_key" : "_ZTIKNSt3__15arrayIN7android8hardware8graphics6common4V1_112RenderIntentELj4EEE",
   "name" : "const std::array<android::hardware::graphics::common::V1_1::RenderIntent, 4>",
   "referenced_type" : "_ZTINSt3__15arrayIN7android8hardware8graphics6common4V1_112RenderIntentELj4EEE",
   "self_type" : "_ZTIKNSt3__15arrayIN7android8hardware8graphics6common4V1_112RenderIntentELj4EEE",
   "size" : 16,
   "source_file" : "/out/soong/.intermediates/hardware/interfaces/graphics/common/1.1/android.hardware.graphics.common@1.1_genc++_headers/gen/android/hardware/graphics/common/1.1/types.h"
  },
  {
   "alignment" : 4,
   "is_const" : true,
   "linker_set_key" : "_ZTIKNSt3__15arrayIN7android8hardware8graphics6common4V1_19ColorModeELj13EEE",
   "name" : "const std::array<android::hardware::graphics::common::V1_1::ColorMode, 13>",
   "referenced_type" : "_ZTINSt3__15arrayIN7android8hardware8graphics6common4V1_19ColorModeELj13EEE",
   "self_type" : "_ZTIKNSt3__15arrayIN7android8hardware8graphics6common4V1_19ColorModeELj13EEE",
   "size" : 52,
   "source_file" : "/out/soong/.intermediates/hardware/interfaces/graphics/common/1.1/android.hardware.graphics.common@1.1_genc++_headers/gen/android/hardware/graphics/common/1.1/types.h"
  },
  {
   "alignment" : 4,
   "is_const" : true,
   "linker_set_key" : "_ZTIKNSt3__15arrayIN7android8hardware8graphics6common4V1_19DataspaceELj61EEE",
   "name" : "const std::array<android::hardware::graphics::common::V1_1::Dataspace, 61>",
   "referenced_type" : "_ZTINSt3__15arrayIN7android8hardware8graphics6common4V1_19DataspaceELj61EEE",
   "self_type" : "_ZTIKNSt3__15arrayIN7android8hardware8graphics6common4V1_19DataspaceELj61EEE",
   "size" : 244,
   "source_file" : "/out/soong/.intermediates/hardware/interfaces/graphics/common/1.1/android.hardware.graphics.common@1.1_genc++_headers/gen/android/hardware/graphics/common/1.1/types.h"
  },
  {
   "alignment" : 4,
   "is_const" : true,
   "linker_set_key" : "_ZTIKNSt3__15arrayIN7android8hardware8graphics8composer4V2_115IComposerClient11CompositionELj6EEE",
   "name" : "const std::array<android::hardware::graphics::composer::V2_1::IComposerClient::Composition, 6>",
   "referenced_type" : "_ZTINSt3__15arrayIN7android8hardware8graphics8composer4V2_115IComposerClient11CompositionELj6EEE",
   "self_type" : "_ZTIKNSt3__15arrayIN7android8hardware8graphics8composer4V2_115IComposerClient11CompositionELj6EEE",
   "size" : 24,
   "source_file" : "/out/soong/.intermediates/hardware/interfaces/graphics/composer/2.1/android.hardware.graphics.composer@2.1_genc++_headers/gen/android/hardware/graphics/composer/2.1/IComposerClient.h"
  },
  {
   "alignment" : 4,
   "is_const" : true,
   "linker_set_key" : "_ZTIKNSt3__15arrayIN7android8hardware8graphics8composer4V2_115IComposerClient11DisplayTypeELj3EEE",
   "name" : "const std::array<android::hardware::graphics::composer::V2_1::IComposerClient::DisplayType, 3>",
   "referenced_type" : "_ZTINSt3__15arrayIN7android8hardware8graphics8composer4V2_115IComposerClient11DisplayTypeELj3EEE",
   "self_type" : "_ZTIKNSt3__15arrayIN7android8hardware8graphics8composer4V2_115IComposerClient11DisplayTypeELj3EEE",
   "size" : 12,
   "source_file" : "/out/soong/.intermediates/hardware/interfaces/graphics/composer/2.1/android.hardware.graphics.composer@2.1_genc++_headers/gen/android/hardware/graphics/composer/2.1/IComposerClient.h"
  },
  {
   "alignment" : 4,
   "is_const" : true,
   "linker_set_key" : "_ZTIKNSt3__15arrayIN7android8hardware8graphics8composer4V2_115IComposerClient11HandleIndexELj2EEE",
   "name" : "const std::array<android::hardware::graphics::composer::V2_1::IComposerClient::HandleIndex, 2>",
   "referenced_type" : "_ZTINSt3__15arrayIN7android8hardware8graphics8composer4V2_115IComposerClient11HandleIndexELj2EEE",
   "self_type" : "_ZTIKNSt3__15arrayIN7android8hardware8graphics8composer4V2_115IComposerClient11HandleIndexELj2EEE",
   "size" : 8,
   "source_file" : "/out/soong/.intermediates/hardware/interfaces/graphics/composer/2.1/android.hardware.graphics.composer@2.1_genc++_headers/gen/android/hardware/graphics/composer/2.1/IComposerClient.h"
  },
  {
   "alignment" : 4,
   "is_const" : true,
   "linker_set_key" : "_ZTIKNSt3__15arrayIN7android8hardware8graphics8composer4V2_115IComposerClient12LayerRequestELj1EEE",
   "name" : "const std::array<android::hardware::graphics::composer::V2_1::IComposerClient::LayerRequest, 1>",
   "referenced_type" : "_ZTINSt3__15arrayIN7android8hardware8graphics8composer4V2_115IComposerClient12LayerRequestELj1EEE",
   "self_type" : "_ZTIKNSt3__15arrayIN7android8hardware8graphics8composer4V2_115IComposerClient12LayerRequestELj1EEE",
   "size" : 4,
   "source_file" : "/out/soong/.intermediates/hardware/interfaces/graphics/composer/2.1/android.hardware.graphics.composer@2.1_genc++_headers/gen/android/hardware/graphics/composer/2.1/IComposerClient.h"
  },
  {
   "alignment" : 4,
   "is_const" : true,
   "linker_set_key" : "_ZTIKNSt3__15arrayIN7android8hardware8graphics8composer4V2_115IComposerClient14DisplayRequestELj2EEE",
   "name" : "const std::array<android::hardware::graphics::composer::V2_1::IComposerClient::DisplayRequest, 2>",
   "referenced_type" : "_ZTINSt3__15arrayIN7android8hardware8graphics8composer4V2_115IComposerClient14DisplayRequestELj2EEE",
   "self_type" : "_ZTIKNSt3__15arrayIN7android8hardware8graphics8composer4V2_115IComposerClient14DisplayRequestELj2EEE",
   "size" : 8,
   "source_file" : "/out/soong/.intermediates/hardware/interfaces/graphics/composer/2.1/android.hardware.graphics.composer@2.1_genc++_headers/gen/android/hardware/graphics/composer/2.1/IComposerClient.h"
  },
  {
   "alignment" : 4,
   "is_const" : true,
   "linker_set_key" : "_ZTIKNSt3__15arrayIN7android8hardware8graphics8composer4V2_115IComposerClient5VsyncELj3EEE",
   "name" : "const std::array<android::hardware::graphics::composer::V2_1::IComposerClient::Vsync, 3>",
   "referenced_type" : "_ZTINSt3__15arrayIN7android8hardware8graphics8composer4V2_115IComposerClient5VsyncELj3EEE",
   "self_type" : "_ZTIKNSt3__15arrayIN7android8hardware8graphics8composer4V2_115IComposerClient5VsyncELj3EEE",
   "size" : 12,
   "source_file" : "/out/soong/.intermediates/hardware/interfaces/graphics/composer/2.1/android.hardware.graphics.composer@2.1_genc++_headers/gen/android/hardware/graphics/composer/2.1/IComposerClient.h"
  },
  {
   "alignment" : 4,
   "is_const" : true,
   "linker_set_key" : "_ZTIKNSt3__15arrayIN7android8hardware8graphics8composer4V2_115IComposerClient7CommandELj32EEE",
   "name" : "const std::array<android::hardware::graphics::composer::V2_1::IComposerClient::Command, 32>",
   "referenced_type" : "_ZTINSt3__15arrayIN7android8hardware8graphics8composer4V2_115IComposerClient7CommandELj32EEE",
   "self_type" : "_ZTIKNSt3__15arrayIN7android8hardware8graphics8composer4V2_115IComposerClient7CommandELj32EEE",
   "size" : 128,
   "source_file" : "/out/soong/.intermediates/hardware/interfaces/graphics/composer/2.1/android.hardware.graphics.composer@2.1_genc++_headers/gen/android/hardware/graphics/composer/2.1/IComposerClient.h"
  },
  {
   "alignment" : 4,
   "is_const" : true,
   "linker_set_key" : "_ZTIKNSt3__15arrayIN7android8hardware8graphics8composer4V2_115IComposerClient9AttributeELj6EEE",
   "name" : "const std::array<android::hardware::graphics::composer::V2_1::IComposerClient::Attribute, 6>",
   "referenced_type" : "_ZTINSt3__15arrayIN7android8hardware8graphics8composer4V2_115IComposerClient9AttributeELj6EEE",
   "self_type" : "_ZTIKNSt3__15arrayIN7android8hardware8graphics8composer4V2_115IComposerClient9AttributeELj6EEE",
   "size" : 24,
   "source_file" : "/out/soong/.intermediates/hardware/interfaces/graphics/composer/2.1/android.hardware.graphics.composer@2.1_genc++_headers/gen/android/hardware/graphics/composer/2.1/IComposerClient.h"
  },
  {
   "alignment" : 4,
   "is_const" : true,
   "linker_set_key" : "_ZTIKNSt3__15arrayIN7android8hardware8graphics8composer4V2_115IComposerClient9BlendModeELj4EEE",
   "name" : "const std::array<android::hardware::graphics::composer::V2_1::IComposerClient::BlendMode, 4>",
   "referenced_type" : "_ZTINSt3__15arrayIN7android8hardware8graphics8composer4V2_115IComposerClient9BlendModeELj4EEE",
   "self_type" : "_ZTIKNSt3__15arrayIN7android8hardware8graphics8composer4V2_115IComposerClient9BlendModeELj4EEE",
   "size" : 16,
   "source_file" : "/out/soong/.intermediates/hardware/interfaces/graphics/composer/2.1/android.hardware.graphics.composer@2.1_genc++_headers/gen/android/hardware/graphics/composer/2.1/IComposerClient.h"
  },
  {
   "alignment" : 4,
   "is_const" : true,
   "linker_set_key" : "_ZTIKNSt3__15arrayIN7android8hardware8graphics8composer4V2_115IComposerClient9PowerModeELj4EEE",
   "name" : "const std::array<android::hardware::graphics::composer::V2_1::IComposerClient::PowerMode, 4>",
   "referenced_type" : "_ZTINSt3__15arrayIN7android8hardware8graphics8composer4V2_115IComposerClient9PowerModeELj4EEE",
   "self_type" : "_ZTIKNSt3__15arrayIN7android8hardware8graphics8composer4V2_115IComposerClient9PowerModeELj4EEE",
   "size" : 16,
   "source_file" : "/out/soong/.intermediates/hardware/interfaces/graphics/composer/2.1/android.hardware.graphics.composer@2.1_genc++_headers/gen/android/hardware/graphics/composer/2.1/IComposerClient.h"
  },
  {
   "alignment" : 4,
   "is_const" : true,
   "linker_set_key" : "_ZTIKNSt3__15arrayIN7android8hardware8graphics8composer4V2_117IComposerCallback10ConnectionELj3EEE",
   "name" : "const std::array<android::hardware::graphics::composer::V2_1::IComposerCallback::Connection, 3>",
   "referenced_type" : "_ZTINSt3__15arrayIN7android8hardware8graphics8composer4V2_117IComposerCallback10ConnectionELj3EEE",
   "self_type" : "_ZTIKNSt3__15arrayIN7android8hardware8graphics8composer4V2_117IComposerCallback10ConnectionELj3EEE",
   "size" : 12,
   "source_file" : "/out/soong/.intermediates/hardware/interfaces/graphics/composer/2.1/android.hardware.graphics.composer@2.1_genc++_headers/gen/android/hardware/graphics/composer/2.1/IComposerCallback.h"
  },
  {
   "alignment" : 4,
   "is_const" : true,
   "linker_set_key" : "_ZTIKNSt3__15arrayIN7android8hardware8graphics8composer4V2_15ErrorELj8EEE",
   "name" : "const std::array<android::hardware::graphics::composer::V2_1::Error, 8>",
   "referenced_type" : "_ZTINSt3__15arrayIN7android8hardware8graphics8composer4V2_15ErrorELj8EEE",
   "self_type" : "_ZTIKNSt3__15arrayIN7android8hardware8graphics8composer4V2_15ErrorELj8EEE",
   "size" : 32,
   "source_file" : "/out/soong/.intermediates/hardware/interfaces/graphics/composer/2.1/android.hardware.graphics.composer@2.1_genc++_headers/gen/android/hardware/graphics/composer/2.1/types.h"
  },
  {
   "alignment" : 4,
   "is_const" : true,
   "linker_set_key" : "_ZTIKNSt3__15arrayIN7android8hardware8graphics8composer4V2_19IComposer10CapabilityELj4EEE",
   "name" : "const std::array<android::hardware::graphics::composer::V2_1::IComposer::Capability, 4>",
   "referenced_type" : "_ZTINSt3__15arrayIN7android8hardware8graphics8composer4V2_19IComposer10CapabilityELj4EEE",
   "self_type" : "_ZTIKNSt3__15arrayIN7android8hardware8graphics8composer4V2_19IComposer10CapabilityELj4EEE",
   "size" : 16,
   "source_file" : "/out/soong/.intermediates/hardware/interfaces/graphics/composer/2.1/android.hardware.graphics.composer@2.1_genc++_headers/gen/android/hardware/graphics/composer/2.1/IComposer.h"
  },
  {
   "alignment" : 4,
   "is_const" : true,
   "linker_set_key" : "_ZTIKNSt3__15arrayIN7android8hardware8graphics8composer4V2_215IComposerClient19PerFrameMetadataKeyELj12EEE",
   "name" : "const std::array<android::hardware::graphics::composer::V2_2::IComposerClient::PerFrameMetadataKey, 12>",
   "referenced_type" : "_ZTINSt3__15arrayIN7android8hardware8graphics8composer4V2_215IComposerClient19PerFrameMetadataKeyELj12EEE",
   "self_type" : "_ZTIKNSt3__15arrayIN7android8hardware8graphics8composer4V2_215IComposerClient19PerFrameMetadataKeyELj12EEE",
   "size" : 48,
   "source_file" : "/out/soong/.intermediates/hardware/interfaces/graphics/composer/2.2/android.hardware.graphics.composer@2.2_genc++_headers/gen/android/hardware/graphics/composer/2.2/IComposerClient.h"
  },
  {
   "alignment" : 4,
   "is_const" : true,
   "linker_set_key" : "_ZTIKNSt3__15arrayIN7android8hardware8graphics8composer4V2_215IComposerClient7CommandELj34EEE",
   "name" : "const std::array<android::hardware::graphics::composer::V2_2::IComposerClient::Command, 34>",
   "referenced_type" : "_ZTINSt3__15arrayIN7android8hardware8graphics8composer4V2_215IComposerClient7CommandELj34EEE",
   "self_type" : "_ZTIKNSt3__15arrayIN7android8hardware8graphics8composer4V2_215IComposerClient7CommandELj34EEE",
   "size" : 136,
   "source_file" : "/out/soong/.intermediates/hardware/interfaces/graphics/composer/2.2/android.hardware.graphics.composer@2.2_genc++_headers/gen/android/hardware/graphics/composer/2.2/IComposerClient.h"
  },
  {
   "alignment" : 4,
   "is_const" : true,
   "linker_set_key" : "_ZTIKNSt3__15arrayIN7android8hardware8graphics8composer4V2_215IComposerClient9PowerModeELj5EEE",
   "name" : "const std::array<android::hardware::graphics::composer::V2_2::IComposerClient::PowerMode, 5>",
   "referenced_type" : "_ZTINSt3__15arrayIN7android8hardware8graphics8composer4V2_215IComposerClient9PowerModeELj5EEE",
   "self_type" : "_ZTIKNSt3__15arrayIN7android8hardware8graphics8composer4V2_215IComposerClient9PowerModeELj5EEE",
   "size" : 20,
   "source_file" : "/out/soong/.intermediates/hardware/interfaces/graphics/composer/2.2/android.hardware.graphics.composer@2.2_genc++_headers/gen/android/hardware/graphics/composer/2.2/IComposerClient.h"
  },
  {
   "alignment" : 4,
   "is_const" : true,
   "linker_set_key" : "_ZTIKNSt3__16vectorINS_8functionIFvN7android8hardware7details16HidlInstrumentor20InstrumentationEventEPKcS8_S8_S8_PNS0_IPvNS_9allocatorIS9_EEEEEEENSA_ISF_EEEE",
   "name" : "const std::vector<std::function<void (InstrumentationEvent, const char *, const char *, const char *, const char *, vector<void *, allocator<void *> > *)>, std::allocator<std::function<void (InstrumentationEvent, const char *, const char *, const char *, const char *, vector<void *, allocator<void *> > *)> > >",
   "referenced_type" : "_ZTINSt3__16vectorINS_8functionIFvN7android8hardware7details16HidlInstrumentor20InstrumentationEventEPKcS8_S8_S8_PNS0_IPvNS_9allocatorIS9_EEEEEEENSA_ISF_EEEE",
   "self_type" : "_ZTIKNSt3__16vectorINS_8functionIFvN7android8hardware7details16HidlInstrumentor20InstrumentationEventEPKcS8_S8_S8_PNS0_IPvNS_9allocatorIS9_EEEEEEENSA_ISF_EEEE",
   "size" : 12,
   "source_file" : "/system/libhidl/base/include/hidl/HidlInternal.h"
  },
  {
   "alignment" : 4,
   "is_const" : true,
   "linker_set_key" : "_ZTIKPKN7android4hidl4base4V1_05IBaseE",
   "name" : "const android::hidl::base::V1_0::IBase *const",
   "referenced_type" : "_ZTIPKN7android4hidl4base4V1_05IBaseE",
   "self_type" : "_ZTIKPKN7android4hidl4base4V1_05IBaseE",
   "size" : 4,
   "source_file" : "/system/libhidl/transport/include/hidl/ConcurrentMap.h"
  },
  {
   "alignment" : 4,
   "is_const" : true,
   "linker_set_key" : "_ZTIKPN7android7RefBase12weakref_implE",
   "name" : "android::RefBase::weakref_impl *const",
   "referenced_type" : "_ZTIPN7android7RefBase12weakref_implE",
   "self_type" : "_ZTIKPN7android7RefBase12weakref_implE",
   "size" : 4,
   "source_file" : "/system/core/libutils/include/utils/RefBase.h"
  },
  {
   "alignment" : 4,
   "is_const" : true,
   "linker_set_key" : "_ZTIKPN7android8hardware7IBinderE",
   "name" : "android::hardware::IBinder *const",
   "referenced_type" : "_ZTIPN7android8hardware7IBinderE",
   "self_type" : "_ZTIKPN7android8hardware7IBinderE",
   "size" : 4,
   "source_file" : "/system/libhwbinder/include/hwbinder/Binder.h"
  },
  {
   "alignment" : 4,
   "is_const" : true,
   "linker_set_key" : "_ZTIKSt16initializer_listIN7android8hardware10hidl_arrayIhLj32EJEEEE",
   "name" : "const std::initializer_list<android::hardware::hidl_array<unsigned char, 32> >",
   "referenced_type" : "_ZTISt16initializer_listIN7android8hardware10hidl_arrayIhLj32EJEEEE",
   "self_type" : "_ZTIKSt16initializer_listIN7android8hardware10hidl_arrayIhLj32EJEEEE",
   "size" : 8,
   "source_file" : "/system/libhidl/base/include/hidl/HidlSupport.h"
  },
  {
   "alignment" : 4,
   "is_const" : true,
   "linker_set_key" : "_ZTIKSt16initializer_listIN7android8hardware11hidl_stringEE",
   "name" : "const std::initializer_list<android::hardware::hidl_string>",
   "referenced_type" : "_ZTISt16initializer_listIN7android8hardware11hidl_stringEE",
   "self_type" : "_ZTIKSt16initializer_listIN7android8hardware11hidl_stringEE",
   "size" : 8,
   "source_file" : "/system/libhidl/base/include/hidl/HidlSupport.h"
  },
  {
   "alignment" : 1,
   "is_const" : true,
   "linker_set_key" : "_ZTIKa",
   "name" : "const signed char",
   "referenced_type" : "_ZTIa",
   "self_type" : "_ZTIKa",
   "size" : 1,
   "source_file" : "/system/core/libutils/include/utils/TypeHelpers.h"
  },
  {
   "alignment" : 1,
   "is_const" : true,
   "linker_set_key" : "_ZTIKb",
   "name" : "const bool",
   "referenced_type" : "_ZTIb",
   "self_type" : "_ZTIKb",
   "size" : 1,
   "source_file" : "/system/core/libutils/include/utils/TypeHelpers.h"
  },
  {
   "alignment" : 1,
   "is_const" : true,
   "linker_set_key" : "_ZTIKc",
   "name" : "const char",
   "referenced_type" : "_ZTIc",
   "self_type" : "_ZTIKc",
   "size" : 1,
   "source_file" : "/system/core/liblog/include/android/log.h"
  },
  {
   "alignment" : 8,
   "is_const" : true,
   "linker_set_key" : "_ZTIKd",
   "name" : "const double",
   "referenced_type" : "_ZTId",
   "self_type" : "_ZTIKd",
   "size" : 8,
   "source_file" : "/system/core/libutils/include/utils/TypeHelpers.h"
  },
  {
   "alignment" : 4,
   "is_const" : true,
   "linker_set_key" : "_ZTIKf",
   "name" : "const float",
   "referenced_type" : "_ZTIf",
   "self_type" : "_ZTIKf",
   "size" : 4,
   "source_file" : "/system/core/libutils/include/utils/TypeHelpers.h"
  },
  {
   "alignment" : 1,
   "is_const" : true,
   "linker_set_key" : "_ZTIKh",
   "name" : "const unsigned char",
   "referenced_type" : "_ZTIh",
   "self_type" : "_ZTIKh",
   "size" : 1,
   "source_file" : "/system/core/libutils/include/utils/TypeHelpers.h"
  },
  {
   "alignment" : 4,
   "is_const" : true,
   "linker_set_key" : "_ZTIKi",
   "name" : "const int",
   "referenced_type" : "_ZTIi",
   "self_type" : "_ZTIKi",
   "size" : 4,
   "source_file" : "/system/libhidl/base/include/hidl/HidlInternal.h"
  },
  {
   "alignment" : 4,
   "is_const" : true,
   "linker_set_key" : "_ZTIKj",
   "name" : "const unsigned int",
   "referenced_type" : "_ZTIj",
   "self_type" : "_ZTIKj",
   "size" : 4,
   "source_file" : "/system/core/libutils/include/utils/StrongPointer.h"
  },
  {
   "alignment" : 2,
   "is_const" : true,
   "linker_set_key" : "_ZTIKs",
   "name" : "const short",
   "referenced_type" : "_ZTIs",
   "self_type" : "_ZTIKs",
   "size" : 2,
   "source_file" : "/system/core/libutils/include/utils/TypeHelpers.h"
  },
  {
   "alignment" : 2,
   "is_const" : true,
   "linker_set_key" : "_ZTIKt",
   "name" : "const unsigned short",
   "referenced_type" : "_ZTIt",
   "self_type" : "_ZTIKt",
   "size" : 2,
   "source_file" : "/system/core/libutils/include/utils/TypeHelpers.h"
  },
  {
   "is_const" : true,
   "linker_set_key" : "_ZTIKv",
   "name" : "const void",
   "referenced_type" : "_ZTIv",
   "self_type" : "_ZTIKv",
   "source_file" : "/system/core/libutils/include/utils/StrongPointer.h"
  },
  {
   "alignment" : 8,
   "is_const" : true,
   "linker_set_key" : "_ZTIKx",
   "name" : "const long long",
   "referenced_type" : "_ZTIx",
   "self_type" : "_ZTIKx",
   "size" : 8,
   "source_file" : "/system/core/libutils/include/utils/TypeHelpers.h"
  },
  {
   "alignment" : 8,
   "is_const" : true,
   "linker_set_key" : "_ZTIKy",
   "name" : "const unsigned long long",
   "referenced_type" : "_ZTIy",
   "self_type" : "_ZTIKy",
   "size" : 8,
   "source_file" : "/system/core/libutils/include/utils/TypeHelpers.h"
  },
  {
   "alignment" : 1,
   "is_volatile" : true,
   "linker_set_key" : "_ZTIVb",
   "name" : "volatile bool",
   "referenced_type" : "_ZTIb",
   "self_type" : "_ZTIVb",
   "size" : 1,
   "source_file" : "/system/core/libutils/include/utils/Thread.h"
  },
  {
   "alignment" : 4,
   "is_volatile" : true,
   "linker_set_key" : "_ZTIVi",
   "name" : "volatile int",
   "referenced_type" : "_ZTIi",
   "self_type" : "_ZTIVi",
   "size" : 4,
   "source_file" : "/system/libhwbinder/include/hwbinder/ProcessState.h"
  }
 ],
 "record_types" :
 [
  {
   "alignment" : 4,
   "fields" :
   [
    {
     "field_name" : "len",
     "referenced_type" : "_ZTIt"
    },
    {
     "field_name" : "hdr_size",
     "field_offset" : 16,
     "referenced_type" : "_ZTIt"
    },
    {
     "field_name" : "pid",
     "field_offset" : 32,
     "referenced_type" : "_ZTIi"
    },
    {
     "field_name" : "tid",
     "field_offset" : 64,
     "referenced_type" : "_ZTIj"
    },
    {
     "field_name" : "sec",
     "field_offset" : 96,
     "referenced_type" : "_ZTIj"
    },
    {
     "field_name" : "nsec",
     "field_offset" : 128,
     "referenced_type" : "_ZTIj"
    },
    {
     "field_name" : "lid",
     "field_offset" : 160,
     "referenced_type" : "_ZTIj"
    },
    {
     "field_name" : "uid",
     "field_offset" : 192,
     "referenced_type" : "_ZTIj"
    }
   ],
   "linker_set_key" : "_ZTI12logger_entry",
   "name" : "logger_entry",
   "referenced_type" : "_ZTI12logger_entry",
   "self_type" : "_ZTI12logger_entry",
   "size" : 28,
   "source_file" : "/system/core/liblog/include/log/log_read.h"
  },
  {
   "alignment" : 4,
   "fields" :
   [
    {
     "field_name" : "y",
     "referenced_type" : "_ZTIPv"
    },
    {
     "field_name" : "cb",
     "field_offset" : 32,
     "referenced_type" : "_ZTIPv"
    },
    {
     "field_name" : "cr",
     "field_offset" : 64,
     "referenced_type" : "_ZTIPv"
    },
    {
     "field_name" : "ystride",
     "field_offset" : 96,
     "referenced_type" : "_ZTIj"
    },
    {
     "field_name" : "cstride",
     "field_offset" : 128,
     "referenced_type" : "_ZTIj"
    },
    {
     "field_name" : "chroma_step",
     "field_offset" : 160,
     "referenced_type" : "_ZTIj"
    },
    {
     "field_name" : "reserved",
     "field_offset" : 192,
     "referenced_type" : "_ZTIA8_j"
    }
   ],
   "linker_set_key" : "_ZTI13android_ycbcr",
   "name" : "android_ycbcr",
   "referenced_type" : "_ZTI13android_ycbcr",
   "self_type" : "_ZTI13android_ycbcr",
   "size" : 56,
   "source_file" : "/system/core/libsystem/include/system/graphics.h"
  },
  {
   "alignment" : 4,
   "fields" :
   [
    {
     "field_name" : "version",
     "referenced_type" : "_ZTIi"
    },
    {
     "field_name" : "numFds",
     "field_offset" : 32,
     "referenced_type" : "_ZTIi"
    },
    {
     "field_name" : "numInts",
     "field_offset" : 64,
     "referenced_type" : "_ZTIi"
    },
    {
     "field_name" : "data",
     "field_offset" : 96,
     "referenced_type" : "_ZTIA0_i"
    }
   ],
   "linker_set_key" : "_ZTI13native_handle",
   "name" : "native_handle",
   "referenced_type" : "_ZTI13native_handle",
   "self_type" : "_ZTI13native_handle",
   "size" : 12,
   "source_file" : "/system/core/libcutils/include/cutils/native_handle.h"
  },
  {
   "alignment" : 4,
   "fields" :
   [
    {
     "field_name" : "x",
     "referenced_type" : "_ZTIf"
    },
    {
     "field_name" : "y",
     "field_offset" : 32,
     "referenced_type" : "_ZTIf"
    }
   ],
