{
 "array_types" :
 [
  {
   "alignment" : 4,
   "linker_set_key" : "_ZTIA2_j",
   "name" : "unsigned int [2]",
   "referenced_type" : "_ZTIj",
   "self_type" : "_ZTIA2_j",
   "size" : 8,
   "source_file" : "/system/media/camera/include/system/camera_metadata.h"
  },
  {
   "alignment" : 4,
   "linker_set_key" : "_ZTIA30_A2_j",
   "name" : "unsigned int [30][2]",
   "referenced_type" : "_ZTIA2_j",
   "self_type" : "_ZTIA30_A2_j",
   "size" : 240,
   "source_file" : "/system/media/camera/include/system/camera_metadata.h"
  },
  {
   "alignment" : 4,
   "linker_set_key" : "_ZTIA30_PKc",
   "name" : "const char *[30]",
   "referenced_type" : "_ZTIPKc",
   "self_type" : "_ZTIA30_PKc",
   "size" : 120,
   "source_file" : "/system/media/camera/include/system/camera_metadata.h"
  },
  {
   "alignment" : 4,
   "linker_set_key" : "_ZTIA6_PKc",
   "name" : "const char *[6]",
   "referenced_type" : "_ZTIPKc",
   "self_type" : "_ZTIA6_PKc",
   "size" : 24,
   "source_file" : "/system/media/camera/include/system/camera_metadata.h"
  },
  {
   "alignment" : 4,
   "linker_set_key" : "_ZTIA6_j",
   "name" : "unsigned int [6]",
   "referenced_type" : "_ZTIj",
   "self_type" : "_ZTIA6_j",
   "size" : 24,
   "source_file" : "/system/media/camera/include/system/camera_metadata.h"
  },
  {
   "alignment" : 4,
   "linker_set_key" : "_ZTIA8_Pv",
   "name" : "void *[8]",
   "referenced_type" : "_ZTIPv",
   "self_type" : "_ZTIA8_Pv",
   "size" : 32,
   "source_file" : "/system/media/camera/include/system/camera_vendor_tags.h"
  }
 ],
 "builtin_types" :
 [
  {
   "alignment" : 1,
   "is_integral" : true,
   "is_unsigned" : true,
   "linker_set_key" : "_ZTIc",
   "name" : "char",
   "referenced_type" : "_ZTIc",
   "self_type" : "_ZTIc",
   "size" : 1
  },
  {
   "alignment" : 8,
   "linker_set_key" : "_ZTId",
   "name" : "double",
   "referenced_type" : "_ZTId",
   "self_type" : "_ZTId",
   "size" : 8
  },
  {
   "alignment" : 4,
   "linker_set_key" : "_ZTIf",
   "name" : "float",
   "referenced_type" : "_ZTIf",
   "self_type" : "_ZTIf",
   "size" : 4
  },
  {
   "alignment" : 1,
   "is_integral" : true,
   "is_unsigned" : true,
   "linker_set_key" : "_ZTIh",
   "name" : "unsigned char",
   "referenced_type" : "_ZTIh",
   "self_type" : "_ZTIh",
   "size" : 1
  },
  {
   "alignment" : 4,
   "is_integral" : true,
   "linker_set_key" : "_ZTIi",
   "name" : "int",
   "referenced_type" : "_ZTIi",
   "self_type" : "_ZTIi",
   "size" : 4
  },
  {
   "alignment" : 4,
   "is_integral" : true,
   "is_unsigned" : true,
   "linker_set_key" : "_ZTIj",
   "name" : "unsigned int",
   "referenced_type" : "_ZTIj",
   "self_type" : "_ZTIj",
   "size" : 4
  },
  {
   "linker_set_key" : "_ZTIv",
   "name" : "void",
   "referenced_type" : "_ZTIv",
   "self_type" : "_ZTIv"
  },
  {
   "alignment" : 8,
   "is_integral" : true,
   "linker_set_key" : "_ZTIx",
   "name" : "long long",
   "referenced_type" : "_ZTIx",
   "self_type" : "_ZTIx",
   "size" : 8
  },
  {
   "alignment" : 8,
   "is_integral" : true,
   "is_unsigned" : true,
   "linker_set_key" : "_ZTIy",
   "name" : "unsigned long long",
   "referenced_type" : "_ZTIy",
   "self_type" : "_ZTIy",
   "size" : 8
  }
 ],
 "elf_functions" :
 [
  {
   "name" : "add_camera_metadata_entry"
  },
  {
   "name" : "allocate_camera_metadata"
  },
  {
   "name" : "allocate_copy_camera_metadata_checked"
  },
  {
   "name" : "append_camera_metadata"
  },
  {
   "name" : "calculate_camera_metadata_entry_data_size"
  },
  {
   "name" : "calculate_camera_metadata_size"
  },
  {
   "name" : "camera_metadata_enum_snprint"
  },
  {
   "name" : "camera_metadata_enum_value"
  },
  {
   "name" : "clone_camera_metadata"
  },
  {
   "name" : "copy_camera_metadata"
  },
  {
   "name" : "delete_camera_metadata_entry"
  },
  {
   "name" : "dump_camera_metadata"
  },
  {
   "name" : "dump_indented_camera_metadata"
  },
  {
   "name" : "find_camera_metadata_entry"
  },
  {
   "name" : "find_camera_metadata_ro_entry"
  },
  {
   "name" : "free_camera_metadata"
  },
  {
   "name" : "get_camera_metadata_alignment"
  },
  {
   "name" : "get_camera_metadata_compact_size"
  },
  {
   "name" : "get_camera_metadata_data_capacity"
  },
  {
   "name" : "get_camera_metadata_data_count"
  },
  {
   "name" : "get_camera_metadata_entry"
  },
  {
   "name" : "get_camera_metadata_entry_capacity"
  },
  {
   "name" : "get_camera_metadata_entry_count"
  },
  {
   "name" : "get_camera_metadata_permission_needed"
  },
  {
   "name" : "get_camera_metadata_ro_entry"
  },
  {
   "name" : "get_camera_metadata_section_name"
  },
  {
   "name" : "get_camera_metadata_size"
  },
  {
   "name" : "get_camera_metadata_tag_name"
  },
  {
   "name" : "get_camera_metadata_tag_type"
  },
  {
   "name" : "get_camera_metadata_vendor_id"
  },
  {
   "name" : "get_local_camera_metadata_section_name"
  },
  {
   "name" : "get_local_camera_metadata_section_name_vendor_id"
  },
  {
   "name" : "get_local_camera_metadata_tag_name"
  },
  {
   "name" : "get_local_camera_metadata_tag_name_vendor_id"
  },
  {
   "name" : "get_local_camera_metadata_tag_type"
  },
  {
   "name" : "get_local_camera_metadata_tag_type_vendor_id"
  },
  {
   "name" : "place_camera_metadata"
  },
  {
   "name" : "set_camera_metadata_vendor_cache_ops"
  },
  {
   "name" : "set_camera_metadata_vendor_id"
  },
  {
   "name" : "set_camera_metadata_vendor_ops"
  },
  {
   "name" : "set_camera_metadata_vendor_tag_ops"
  },
  {
   "name" : "sort_camera_metadata"
  },
  {
   "name" : "update_camera_metadata_entry"
  },
  {
   "name" : "validate_camera_metadata_structure"
  }
 ],
 "elf_objects" :
 [
  {
   "name" : "camera_metadata_section_bounds"
  },
  {
   "name" : "camera_metadata_section_names"
  },
  {
   "name" : "camera_metadata_type_names"
  },
  {
   "name" : "camera_metadata_type_size"
  }
 ],
 "enum_types" :
 [
  {
   "alignment" : 4,
   "enum_fields" :
   [
    {
     "enum_field_value" : 0,
     "name" : "TYPE_BYTE"
    },
    {
     "enum_field_value" : 1,
     "name" : "TYPE_INT32"
    },
    {
     "enum_field_value" : 2,
     "name" : "TYPE_FLOAT"
    },
    {
     "enum_field_value" : 3,
     "name" : "TYPE_INT64"
    },
    {
     "enum_field_value" : 4,
     "name" : "TYPE_DOUBLE"
    },
    {
     "enum_field_value" : 5,
     "name" : "TYPE_RATIONAL"
    },
    {
     "enum_field_value" : 6,
     "name" : "NUM_TYPES"
    }
   ],
   "linker_set_key" : "_ZTI10$NUM_TYPES",
   "name" : "(anonymous enum at system/media/camera/include/system/camera_metadata.h:51:1)",
   "referenced_type" : "_ZTI10$NUM_TYPES",
   "self_type" : "_ZTI10$NUM_TYPES",
   "size" : 4,
   "source_file" : "/system/media/camera/include/system/camera_metadata.h",
   "underlying_type" : "_ZTIj"
  },
  {
   "alignment" : 4,
   "enum_fields" :
   [
    {
     "enum_field_value" : 0,
     "name" : "ANDROID_COLOR_CORRECTION_MODE"
    },
    {
     "enum_field_value" : 1,
     "name" : "ANDROID_COLOR_CORRECTION_TRANSFORM"
    },
    {
     "enum_field_value" : 2,
     "name" : "ANDROID_COLOR_CORRECTION_GAINS"
    },
    {
     "enum_field_value" : 3,
     "name" : "ANDROID_COLOR_CORRECTION_ABERRATION_MODE"
    },
    {
     "enum_field_value" : 4,
     "name" : "ANDROID_COLOR_CORRECTION_AVAILABLE_ABERRATION_MODES"
    },
    {
     "enum_field_value" : 5,
     "name" : "ANDROID_COLOR_CORRECTION_END"
    },
    {
     "enum_field_value" : 65536,
     "name" : "ANDROID_CONTROL_AE_ANTIBANDING_MODE"
    },
    {
     "enum_field_value" : 65537,
     "name" : "ANDROID_CONTROL_AE_EXPOSURE_COMPENSATION"
    },
    {
     "enum_field_value" : 65538,
     "name" : "ANDROID_CONTROL_AE_LOCK"
    },
    {
     "enum_field_value" : 65539,
     "name" : "ANDROID_CONTROL_AE_MODE"
    },
    {
     "enum_field_value" : 65540,
     "name" : "ANDROID_CONTROL_AE_REGIONS"
    },
    {
     "enum_field_value" : 65541,
     "name" : "ANDROID_CONTROL_AE_TARGET_FPS_RANGE"
    },
    {
     "enum_field_value" : 65542,
     "name" : "ANDROID_CONTROL_AE_PRECAPTURE_TRIGGER"
    },
    {
     "enum_field_value" : 65543,
     "name" : "ANDROID_CONTROL_AF_MODE"
    },
    {
     "enum_field_value" : 65544,
     "name" : "ANDROID_CONTROL_AF_REGIONS"
    },
    {
     "enum_field_value" : 65545,
     "name" : "ANDROID_CONTROL_AF_TRIGGER"
    },
    {
     "enum_field_value" : 65546,
     "name" : "ANDROID_CONTROL_AWB_LOCK"
    },
    {
     "enum_field_value" : 65547,
     "name" : "ANDROID_CONTROL_AWB_MODE"
    },
    {
     "enum_field_value" : 65548,
     "name" : "ANDROID_CONTROL_AWB_REGIONS"
    },
    {
     "enum_field_value" : 65549,
     "name" : "ANDROID_CONTROL_CAPTURE_INTENT"
    },
    {
     "enum_field_value" : 65550,
     "name" : "ANDROID_CONTROL_EFFECT_MODE"
    },
    {
     "enum_field_value" : 65551,
     "name" : "ANDROID_CONTROL_MODE"
    },
    {
     "enum_field_value" : 65552,
     "name" : "ANDROID_CONTROL_SCENE_MODE"
    },
    {
     "enum_field_value" : 65553,
     "name" : "ANDROID_CONTROL_VIDEO_STABILIZATION_MODE"
    },
    {
     "enum_field_value" : 65554,
     "name" : "ANDROID_CONTROL_AE_AVAILABLE_ANTIBANDING_MODES"
    },
    {
     "enum_field_value" : 65555,
     "name" : "ANDROID_CONTROL_AE_AVAILABLE_MODES"
    },
    {
     "enum_field_value" : 65556,
     "name" : "ANDROID_CONTROL_AE_AVAILABLE_TARGET_FPS_RANGES"
    },
    {
     "enum_field_value" : 65557,
     "name" : "ANDROID_CONTROL_AE_COMPENSATION_RANGE"
    },
    {
     "enum_field_value" : 65558,
     "name" : "ANDROID_CONTROL_AE_COMPENSATION_STEP"
    },
    {
     "enum_field_value" : 65559,
     "name" : "ANDROID_CONTROL_AF_AVAILABLE_MODES"
    },
    {
     "enum_field_value" : 65560,
     "name" : "ANDROID_CONTROL_AVAILABLE_EFFECTS"
    },
    {
     "enum_field_value" : 65561,
     "name" : "ANDROID_CONTROL_AVAILABLE_SCENE_MODES"
    },
    {
     "enum_field_value" : 65562,
     "name" : "ANDROID_CONTROL_AVAILABLE_VIDEO_STABILIZATION_MODES"
    },
    {
     "enum_field_value" : 65563,
     "name" : "ANDROID_CONTROL_AWB_AVAILABLE_MODES"
    },
    {
     "enum_field_value" : 65564,
     "name" : "ANDROID_CONTROL_MAX_REGIONS"
    },
    {
     "enum_field_value" : 65565,
     "name" : "ANDROID_CONTROL_SCENE_MODE_OVERRIDES"
    },
    {
     "enum_field_value" : 65566,
     "name" : "ANDROID_CONTROL_AE_PRECAPTURE_ID"
    },
    {
     "enum_field_value" : 65567,
     "name" : "ANDROID_CONTROL_AE_STATE"
    },
    {
     "enum_field_value" : 65568,
     "name" : "ANDROID_CONTROL_AF_STATE"
    },
    {
     "enum_field_value" : 65569,
     "name" : "ANDROID_CONTROL_AF_TRIGGER_ID"
    },
    {
     "enum_field_value" : 65570,
     "name" : "ANDROID_CONTROL_AWB_STATE"
    },
    {
     "enum_field_value" : 65571,
     "name" : "ANDROID_CONTROL_AVAILABLE_HIGH_SPEED_VIDEO_CONFIGURATIONS"
    },
    {
     "enum_field_value" : 65572,
     "name" : "ANDROID_CONTROL_AE_LOCK_AVAILABLE"
    },
    {
     "enum_field_value" : 65573,
     "name" : "ANDROID_CONTROL_AWB_LOCK_AVAILABLE"
    },
    {
     "enum_field_value" : 65574,
     "name" : "ANDROID_CONTROL_AVAILABLE_MODES"
    },
    {
     "enum_field_value" : 65575,
     "name" : "ANDROID_CONTROL_POST_RAW_SENSITIVITY_BOOST_RANGE"
    },
    {
     "enum_field_value" : 65576,
     "name" : "ANDROID_CONTROL_POST_RAW_SENSITIVITY_BOOST"
    },
    {
     "enum_field_value" : 65577,
     "name" : "ANDROID_CONTROL_ENABLE_ZSL"
    },
    {
     "enum_field_value" : 65578,
     "name" : "ANDROID_CONTROL_AF_SCENE_CHANGE"
    },
    {
     "enum_field_value" : 65579,
     "name" : "ANDROID_CONTROL_AVAILABLE_EXTENDED_SCENE_MODE_MAX_SIZES"
    },
    {
     "enum_field_value" : 65580,
     "name" : "ANDROID_CONTROL_AVAILABLE_EXTENDED_SCENE_MODE_ZOOM_RATIO_RANGES"
    },
    {
     "enum_field_value" : 65581,
     "name" : "ANDROID_CONTROL_EXTENDED_SCENE_MODE"
    },
    {
     "enum_field_value" : 65582,
     "name" : "ANDROID_CONTROL_ZOOM_RATIO_RANGE"
    },
    {
     "enum_field_value" : 65583,
     "name" : "ANDROID_CONTROL_ZOOM_RATIO"
    },
    {
     "enum_field_value" : 65584,
     "name" : "ANDROID_CONTROL_END"
    },
    {
     "enum_field_value" : 131072,
     "name" : "ANDROID_DEMOSAIC_MODE"
    },
    {
     "enum_field_value" : 131073,
     "name" : "ANDROID_DEMOSAIC_END"
    },
    {
     "enum_field_value" : 196608,
     "name" : "ANDROID_EDGE_MODE"
    },
    {
     "enum_field_value" : 196609,
     "name" : "ANDROID_EDGE_STRENGTH"
    },
    {
     "enum_field_value" : 196610,
     "name" : "ANDROID_EDGE_AVAILABLE_EDGE_MODES"
    },
    {
     "enum_field_value" : 196611,
     "name" : "ANDROID_EDGE_END"
    },
    {
     "enum_field_value" : 262144,
     "name" : "ANDROID_FLASH_FIRING_POWER"
    },
    {
     "enum_field_value" : 262145,
     "name" : "ANDROID_FLASH_FIRING_TIME"
    },
    {
     "enum_field_value" : 262146,
     "name" : "ANDROID_FLASH_MODE"
    },
    {
     "enum_field_value" : 262147,
     "name" : "ANDROID_FLASH_COLOR_TEMPERATURE"
    },
    {
     "enum_field_value" : 262148,
     "name" : "ANDROID_FLASH_MAX_ENERGY"
    },
    {
     "enum_field_value" : 262149,
     "name" : "ANDROID_FLASH_STATE"
    },
    {
     "enum_field_value" : 262150,
     "name" : "ANDROID_FLASH_END"
    },
    {
     "enum_field_value" : 327680,
     "name" : "ANDROID_FLASH_INFO_AVAILABLE"
    },
    {
     "enum_field_value" : 327681,
     "name" : "ANDROID_FLASH_INFO_CHARGE_DURATION"
    },
    {
     "enum_field_value" : 327682,
     "name" : "ANDROID_FLASH_INFO_END"
    },
    {
     "enum_field_value" : 393216,
     "name" : "ANDROID_HOT_PIXEL_MODE"
    },
    {
     "enum_field_value" : 393217,
     "name" : "ANDROID_HOT_PIXEL_AVAILABLE_HOT_PIXEL_MODES"
    },
    {
     "enum_field_value" : 393218,
     "name" : "ANDROID_HOT_PIXEL_END"
    },
    {
     "enum_field_value" : 458752,
     "name" : "ANDROID_JPEG_GPS_COORDINATES"
    },
    {
     "enum_field_value" : 458753,
     "name" : "ANDROID_JPEG_GPS_PROCESSING_METHOD"
    },
    {
     "enum_field_value" : 458754,
     "name" : "ANDROID_JPEG_GPS_TIMESTAMP"
    },
    {
     "enum_field_value" : 458755,
     "name" : "ANDROID_JPEG_ORIENTATION"
    },
    {
     "enum_field_value" : 458756,
     "name" : "ANDROID_JPEG_QUALITY"
    },
    {
     "enum_field_value" : 458757,
     "name" : "ANDROID_JPEG_THUMBNAIL_QUALITY"
    },
    {
     "enum_field_value" : 458758,
     "name" : "ANDROID_JPEG_THUMBNAIL_SIZE"
    },
    {
     "enum_field_value" : 458759,
     "name" : "ANDROID_JPEG_AVAILABLE_THUMBNAIL_SIZES"
    },
    {
     "enum_field_value" : 458760,
     "name" : "ANDROID_JPEG_MAX_SIZE"
    },
    {
     "enum_field_value" : 458761,
     "name" : "ANDROID_JPEG_SIZE"
    },
    {
     "enum_field_value" : 458762,
     "name" : "ANDROID_JPEG_END"
    },
    {
     "enum_field_value" : 524288,
     "name" : "ANDROID_LENS_APERTURE"
    },
    {
     "enum_field_value" : 524289,
     "name" : "ANDROID_LENS_FILTER_DENSITY"
    },
    {
     "enum_field_value" : 524290,
     "name" : "ANDROID_LENS_FOCAL_LENGTH"
    },
    {
     "enum_field_value" : 524291,
     "name" : "ANDROID_LENS_FOCUS_DISTANCE"
    },
    {
     "enum_field_value" : 524292,
     "name" : "ANDROID_LENS_OPTICAL_STABILIZATION_MODE"
    },
    {
     "enum_field_value" : 524293,
     "name" : "ANDROID_LENS_FACING"
    },
    {
     "enum_field_value" : 524294,
     "name" : "ANDROID_LENS_POSE_ROTATION"
    },
    {
     "enum_field_value" : 524295,
     "name" : "ANDROID_LENS_POSE_TRANSLATION"
    },
    {
     "enum_field_value" : 524296,
     "name" : "ANDROID_LENS_FOCUS_RANGE"
    },
    {
     "enum_field_value" : 524297,
     "name" : "ANDROID_LENS_STATE"
    },
    {
     "enum_field_value" : 524298,
     "name" : "ANDROID_LENS_INTRINSIC_CALIBRATION"
    },
    {
     "enum_field_value" : 524299,
     "name" : "ANDROID_LENS_RADIAL_DISTORTION"
    },
    {
     "enum_field_value" : 524300,
     "name" : "ANDROID_LENS_POSE_REFERENCE"
    },
    {
     "enum_field_value" : 524301,
     "name" : "ANDROID_LENS_DISTORTION"
    },
    {
     "enum_field_value" : 524302,
     "name" : "ANDROID_LENS_END"
    },
    {
     "enum_field_value" : 589824,
     "name" : "ANDROID_LENS_INFO_AVAILABLE_APERTURES"
    },
    {
     "enum_field_value" : 589825,
     "name" : "ANDROID_LENS_INFO_AVAILABLE_FILTER_DENSITIES"
    },
    {
     "enum_field_value" : 589826,
     "name" : "ANDROID_LENS_INFO_AVAILABLE_FOCAL_LENGTHS"
    },
    {
     "enum_field_value" : 589827,
     "name" : "ANDROID_LENS_INFO_AVAILABLE_OPTICAL_STABILIZATION"
    },
    {
     "enum_field_value" : 589828,
     "name" : "ANDROID_LENS_INFO_HYPERFOCAL_DISTANCE"
    },
    {
     "enum_field_value" : 589829,
     "name" : "ANDROID_LENS_INFO_MINIMUM_FOCUS_DISTANCE"
    },
    {
     "enum_field_value" : 589830,
     "name" : "ANDROID_LENS_INFO_SHADING_MAP_SIZE"
    },
    {
     "enum_field_value" : 589831,
     "name" : "ANDROID_LENS_INFO_FOCUS_DISTANCE_CALIBRATION"
    },
    {
     "enum_field_value" : 589832,
     "name" : "ANDROID_LENS_INFO_END"
    },
    {
     "enum_field_value" : 655360,
     "name" : "ANDROID_NOISE_REDUCTION_MODE"
    },
    {
     "enum_field_value" : 655361,
     "name" : "ANDROID_NOISE_REDUCTION_STRENGTH"
    },
    {
     "enum_field_value" : 655362,
     "name" : "ANDROID_NOISE_REDUCTION_AVAILABLE_NOISE_REDUCTION_MODES"
    },
    {
     "enum_field_value" : 655363,
     "name" : "ANDROID_NOISE_REDUCTION_END"
    },
    {
     "enum_field_value" : 720896,
     "name" : "ANDROID_QUIRKS_METERING_CROP_REGION"
    },
    {
     "enum_field_value" : 720897,
     "name" : "ANDROID_QUIRKS_TRIGGER_AF_WITH_AUTO"
    },
    {
     "enum_field_value" : 720898,
     "name" : "ANDROID_QUIRKS_USE_ZSL_FORMAT"
    },
    {
     "enum_field_value" : 720899,
     "name" : "ANDROID_QUIRKS_USE_PARTIAL_RESULT"
    },
    {
     "enum_field_value" : 720900,
     "name" : "ANDROID_QUIRKS_PARTIAL_RESULT"
    },
    {
     "enum_field_value" : 720901,
     "name" : "ANDROID_QUIRKS_END"
    },
    {
     "enum_field_value" : 786432,
     "name" : "ANDROID_REQUEST_FRAME_COUNT"
    },
    {
     "enum_field_value" : 786433,
     "name" : "ANDROID_REQUEST_ID"
    },
    {
     "enum_field_value" : 786434,
     "name" : "ANDROID_REQUEST_INPUT_STREAMS"
    },
    {
     "enum_field_value" : 786435,
     "name" : "ANDROID_REQUEST_METADATA_MODE"
    },
    {
     "enum_field_value" : 786436,
     "name" : "ANDROID_REQUEST_OUTPUT_STREAMS"
    },
    {
     "enum_field_value" : 786437,
     "name" : "ANDROID_REQUEST_TYPE"
    },
    {
     "enum_field_value" : 786438,
     "name" : "ANDROID_REQUEST_MAX_NUM_OUTPUT_STREAMS"
    },
    {
     "enum_field_value" : 786439,
     "name" : "ANDROID_REQUEST_MAX_NUM_REPROCESS_STREAMS"
    },
    {
     "enum_field_value" : 786440,
     "name" : "ANDROID_REQUEST_MAX_NUM_INPUT_STREAMS"
    },
    {
     "enum_field_value" : 786441,
     "name" : "ANDROID_REQUEST_PIPELINE_DEPTH"
    },
    {
     "enum_field_value" : 786442,
     "name" : "ANDROID_REQUEST_PIPELINE_MAX_DEPTH"
    },
    {
     "enum_field_value" : 786443,
     "name" : "ANDROID_REQUEST_PARTIAL_RESULT_COUNT"
    },
    {
     "enum_field_value" : 786444,
     "name" : "ANDROID_REQUEST_AVAILABLE_CAPABILITIES"
    },
    {
     "enum_field_value" : 786445,
     "name" : "ANDROID_REQUEST_AVAILABLE_REQUEST_KEYS"
    },
    {
     "enum_field_value" : 786446,
     "name" : "ANDROID_REQUEST_AVAILABLE_RESULT_KEYS"
    },
    {
     "enum_field_value" : 786447,
     "name" : "ANDROID_REQUEST_AVAILABLE_CHARACTERISTICS_KEYS"
    },
    {
     "enum_field_value" : 786448,
     "name" : "ANDROID_REQUEST_AVAILABLE_SESSION_KEYS"
    },
    {
     "enum_field_value" : 786449,
     "name" : "ANDROID_REQUEST_AVAILABLE_PHYSICAL_CAMERA_REQUEST_KEYS"
    },
    {
     "enum_field_value" : 786450,
     "name" : "ANDROID_REQUEST_CHARACTERISTIC_KEYS_NEEDING_PERMISSION"
    },
    {
     "enum_field_value" : 786451,
     "name" : "ANDROID_REQUEST_END"
    },
    {
     "enum_field_value" : 851968,
     "name" : "ANDROID_SCALER_CROP_REGION"
    },
    {
     "enum_field_value" : 851969,
     "name" : "ANDROID_SCALER_AVAILABLE_FORMATS"
    },
    {
     "enum_field_value" : 851970,
     "name" : "ANDROID_SCALER_AVAILABLE_JPEG_MIN_DURATIONS"
    },
    {
     "enum_field_value" : 851971,
     "name" : "ANDROID_SCALER_AVAILABLE_JPEG_SIZES"
    },
    {
     "enum_field_value" : 851972,
     "name" : "ANDROID_SCALER_AVAILABLE_MAX_DIGITAL_ZOOM"
    },
    {
     "enum_field_value" : 851973,
     "name" : "ANDROID_SCALER_AVAILABLE_PROCESSED_MIN_DURATIONS"
    },
    {
     "enum_field_value" : 851974,
     "name" : "ANDROID_SCALER_AVAILABLE_PROCESSED_SIZES"
    },
    {
     "enum_field_value" : 851975,
     "name" : "ANDROID_SCALER_AVAILABLE_RAW_MIN_DURATIONS"
    },
    {
     "enum_field_value" : 851976,
     "name" : "ANDROID_SCALER_AVAILABLE_RAW_SIZES"
    },
    {
     "enum_field_value" : 851977,
     "name" : "ANDROID_SCALER_AVAILABLE_INPUT_OUTPUT_FORMATS_MAP"
    },
    {
     "enum_field_value" : 851978,
     "name" : "ANDROID_SCALER_AVAILABLE_STREAM_CONFIGURATIONS"
    },
    {
     "enum_field_value" : 851979,
     "name" : "ANDROID_SCALER_AVAILABLE_MIN_FRAME_DURATIONS"
    },
    {
     "enum_field_value" : 851980,
     "name" : "ANDROID_SCALER_AVAILABLE_STALL_DURATIONS"
    },
    {
     "enum_field_value" : 851981,
     "name" : "ANDROID_SCALER_CROPPING_TYPE"
    },
    {
     "enum_field_value" : 851982,
     "name" : "ANDROID_SCALER_AVAILABLE_RECOMMENDED_STREAM_CONFIGURATIONS"
    },
    {
     "enum_field_value" : 851983,
     "name" : "ANDROID_SCALER_AVAILABLE_RECOMMENDED_INPUT_OUTPUT_FORMATS_MAP"
    },
    {
     "enum_field_value" : 851984,
     "name" : "ANDROID_SCALER_AVAILABLE_ROTATE_AND_CROP_MODES"
    },
    {
     "enum_field_value" : 851985,
     "name" : "ANDROID_SCALER_ROTATE_AND_CROP"
    },
    {
     "enum_field_value" : 851986,
     "name" : "ANDROID_SCALER_END"
    },
    {
     "enum_field_value" : 917504,
     "name" : "ANDROID_SENSOR_EXPOSURE_TIME"
    },
    {
     "enum_field_value" : 917505,
     "name" : "ANDROID_SENSOR_FRAME_DURATION"
    },
    {
     "enum_field_value" : 917506,
     "name" : "ANDROID_SENSOR_SENSITIVITY"
    },
    {
     "enum_field_value" : 917507,
     "name" : "ANDROID_SENSOR_REFERENCE_ILLUMINANT1"
    },
    {
     "enum_field_value" : 917508,
     "name" : "ANDROID_SENSOR_REFERENCE_ILLUMINANT2"
    },
    {
     "enum_field_value" : 917509,
     "name" : "ANDROID_SENSOR_CALIBRATION_TRANSFORM1"
    },
    {
     "enum_field_value" : 917510,
     "name" : "ANDROID_SENSOR_CALIBRATION_TRANSFORM2"
    },
    {
     "enum_field_value" : 917511,
     "name" : "ANDROID_SENSOR_COLOR_TRANSFORM1"
    },
    {
     "enum_field_value" : 917512,
     "name" : "ANDROID_SENSOR_COLOR_TRANSFORM2"
    },
    {
     "enum_field_value" : 917513,
     "name" : "ANDROID_SENSOR_FORWARD_MATRIX1"
    },
    {
     "enum_field_value" : 917514,
     "name" : "ANDROID_SENSOR_FORWARD_MATRIX2"
    },
    {
     "enum_field_value" : 917515,
     "name" : "ANDROID_SENSOR_BASE_GAIN_FACTOR"
    },
    {
     "enum_field_value" : 917516,
     "name" : "ANDROID_SENSOR_BLACK_LEVEL_PATTERN"
    },
    {
     "enum_field_value" : 917517,
     "name" : "ANDROID_SENSOR_MAX_ANALOG_SENSITIVITY"
    },
    {
     "enum_field_value" : 917518,
     "name" : "ANDROID_SENSOR_ORIENTATION"
    },
    {
     "enum_field_value" : 917519,
     "name" : "ANDROID_SENSOR_PROFILE_HUE_SAT_MAP_DIMENSIONS"
    },
    {
     "enum_field_value" : 917520,
     "name" : "ANDROID_SENSOR_TIMESTAMP"
    },
    {
     "enum_field_value" : 917521,
     "name" : "ANDROID_SENSOR_TEMPERATURE"
    },
    {
     "enum_field_value" : 917522,
     "name" : "ANDROID_SENSOR_NEUTRAL_COLOR_POINT"
    },
    {
     "enum_field_value" : 917523,
     "name" : "ANDROID_SENSOR_NOISE_PROFILE"
    },
    {
     "enum_field_value" : 917524,
     "name" : "ANDROID_SENSOR_PROFILE_HUE_SAT_MAP"
    },
    {
     "enum_field_value" : 917525,
     "name" : "ANDROID_SENSOR_PROFILE_TONE_CURVE"
    },
    {
     "enum_field_value" : 917526,
     "name" : "ANDROID_SENSOR_GREEN_SPLIT"
    },
    {
     "enum_field_value" : 917527,
     "name" : "ANDROID_SENSOR_TEST_PATTERN_DATA"
    },
    {
     "enum_field_value" : 917528,
     "name" : "ANDROID_SENSOR_TEST_PATTERN_MODE"
    },
    {
     "enum_field_value" : 917529,
     "name" : "ANDROID_SENSOR_AVAILABLE_TEST_PATTERN_MODES"
    },
    {
     "enum_field_value" : 917530,
     "name" : "ANDROID_SENSOR_ROLLING_SHUTTER_SKEW"
    },
    {
     "enum_field_value" : 917531,
     "name" : "ANDROID_SENSOR_OPTICAL_BLACK_REGIONS"
    },
    {
     "enum_field_value" : 917532,
     "name" : "ANDROID_SENSOR_DYNAMIC_BLACK_LEVEL"
    },
    {
     "enum_field_value" : 917533,
     "name" : "ANDROID_SENSOR_DYNAMIC_WHITE_LEVEL"
    },
    {
     "enum_field_value" : 917534,
     "name" : "ANDROID_SENSOR_OPAQUE_RAW_SIZE"
    },
    {
     "enum_field_value" : 917535,
     "name" : "ANDROID_SENSOR_END"
    },
    {
     "enum_field_value" : 983040,
     "name" : "ANDROID_SENSOR_INFO_ACTIVE_ARRAY_SIZE"
    },
    {
     "enum_field_value" : 983041,
     "name" : "ANDROID_SENSOR_INFO_SENSITIVITY_RANGE"
    },
    {
     "enum_field_value" : 983042,
     "name" : "ANDROID_SENSOR_INFO_COLOR_FILTER_ARRANGEMENT"
    },
    {
     "enum_field_value" : 983043,
     "name" : "ANDROID_SENSOR_INFO_EXPOSURE_TIME_RANGE"
    },
    {
     "enum_field_value" : 983044,
     "name" : "ANDROID_SENSOR_INFO_MAX_FRAME_DURATION"
    },
    {
     "enum_field_value" : 983045,
     "name" : "ANDROID_SENSOR_INFO_PHYSICAL_SIZE"
    },
    {
     "enum_field_value" : 983046,
     "name" : "ANDROID_SENSOR_INFO_PIXEL_ARRAY_SIZE"
    },
    {
     "enum_field_value" : 983047,
     "name" : "ANDROID_SENSOR_INFO_WHITE_LEVEL"
    },
    {
     "enum_field_value" : 983048,
     "name" : "ANDROID_SENSOR_INFO_TIMESTAMP_SOURCE"
    },
    {
     "enum_field_value" : 983049,
     "name" : "ANDROID_SENSOR_INFO_LENS_SHADING_APPLIED"
    },
    {
     "enum_field_value" : 983050,
     "name" : "ANDROID_SENSOR_INFO_PRE_CORRECTION_ACTIVE_ARRAY_SIZE"
    },
    {
     "enum_field_value" : 983051,
     "name" : "ANDROID_SENSOR_INFO_END"
    },
    {
     "enum_field_value" : 1048576,
     "name" : "ANDROID_SHADING_MODE"
    },
    {
     "enum_field_value" : 1048577,
     "name" : "ANDROID_SHADING_STRENGTH"
    },
    {
     "enum_field_value" : 1048578,
     "name" : "ANDROID_SHADING_AVAILABLE_MODES"
    },
    {
     "enum_field_value" : 1048579,
     "name" : "ANDROID_SHADING_END"
    },
    {
     "enum_field_value" : 1114112,
     "name" : "ANDROID_STATISTICS_FACE_DETECT_MODE"
    },
    {
     "enum_field_value" : 1114113,
     "name" : "ANDROID_STATISTICS_HISTOGRAM_MODE"
    },
    {
     "enum_field_value" : 1114114,
     "name" : "ANDROID_STATISTICS_SHARPNESS_MAP_MODE"
    },
    {
     "enum_field_value" : 1114115,
     "name" : "ANDROID_STATISTICS_HOT_PIXEL_MAP_MODE"
    },
    {
     "enum_field_value" : 1114116,
     "name" : "ANDROID_STATISTICS_FACE_IDS"
    },
    {
     "enum_field_value" : 1114117,
     "name" : "ANDROID_STATISTICS_FACE_LANDMARKS"
    },
    {
     "enum_field_value" : 1114118,
     "name" : "ANDROID_STATISTICS_FACE_RECTANGLES"
    },
    {
     "enum_field_value" : 1114119,
     "name" : "ANDROID_STATISTICS_FACE_SCORES"
    },
    {
     "enum_field_value" : 1114120,
     "name" : "ANDROID_STATISTICS_HISTOGRAM"
    },
    {
     "enum_field_value" : 1114121,
     "name" : "ANDROID_STATISTICS_SHARPNESS_MAP"
    },
    {
     "enum_field_value" : 1114122,
     "name" : "ANDROID_STATISTICS_LENS_SHADING_CORRECTION_MAP"
    },
    {
     "enum_field_value" : 1114123,
     "name" : "ANDROID_STATISTICS_LENS_SHADING_MAP"
    },
    {
     "enum_field_value" : 1114124,
     "name" : "ANDROID_STATISTICS_PREDICTED_COLOR_GAINS"
    },
    {
     "enum_field_value" : 1114125,
     "name" : "ANDROID_STATISTICS_PREDICTED_COLOR_TRANSFORM"
    },
    {
     "enum_field_value" : 1114126,
     "name" : "ANDROID_STATISTICS_SCENE_FLICKER"
    },
    {
     "enum_field_value" : 1114127,
     "name" : "ANDROID_STATISTICS_HOT_PIXEL_MAP"
    },
    {
     "enum_field_value" : 1114128,
     "name" : "ANDROID_STATISTICS_LENS_SHADING_MAP_MODE"
    },
    {
     "enum_field_value" : 1114129,
     "name" : "ANDROID_STATISTICS_OIS_DATA_MODE"
    },
    {
     "enum_field_value" : 1114130,
     "name" : "ANDROID_STATISTICS_OIS_TIMESTAMPS"
    },
    {
     "enum_field_value" : 1114131,
     "name" : "ANDROID_STATISTICS_OIS_X_SHIFTS"
    },
    {
     "enum_field_value" : 1114132,
     "name" : "ANDROID_STATISTICS_OIS_Y_SHIFTS"
    },
    {
     "enum_field_value" : 1114133,
     "name" : "ANDROID_STATISTICS_END"
    },
    {
     "enum_field_value" : 1179648,
     "name" : "ANDROID_STATISTICS_INFO_AVAILABLE_FACE_DETECT_MODES"
    },
    {
     "enum_field_value" : 1179649,
     "name" : "ANDROID_STATISTICS_INFO_HISTOGRAM_BUCKET_COUNT"
    },
    {
     "enum_field_value" : 1179650,
     "name" : "ANDROID_STATISTICS_INFO_MAX_FACE_COUNT"
    },
    {
     "enum_field_value" : 1179651,
     "name" : "ANDROID_STATISTICS_INFO_MAX_HISTOGRAM_COUNT"
    },
    {
     "enum_field_value" : 1179652,
     "name" : "ANDROID_STATISTICS_INFO_MAX_SHARPNESS_MAP_VALUE"
    },
    {
     "enum_field_value" : 1179653,
     "name" : "ANDROID_STATISTICS_INFO_SHARPNESS_MAP_SIZE"
    },
    {
     "enum_field_value" : 1179654,
     "name" : "ANDROID_STATISTICS_INFO_AVAILABLE_HOT_PIXEL_MAP_MODES"
    },
    {
     "enum_field_value" : 1179655,
     "name" : "ANDROID_STATISTICS_INFO_AVAILABLE_LENS_SHADING_MAP_MODES"
    },
    {
     "enum_field_value" : 1179656,
     "name" : "ANDROID_STATISTICS_INFO_AVAILABLE_OIS_DATA_MODES"
    },
    {
     "enum_field_value" : 1179657,
     "name" : "ANDROID_STATISTICS_INFO_END"
    },
    {
     "enum_field_value" : 1245184,
     "name" : "ANDROID_TONEMAP_CURVE_BLUE"
    },
    {
     "enum_field_value" : 1245185,
     "name" : "ANDROID_TONEMAP_CURVE_GREEN"
    },
    {
     "enum_field_value" : 1245186,
     "name" : "ANDROID_TONEMAP_CURVE_RED"
    },
    {
     "enum_field_value" : 1245187,
     "name" : "ANDROID_TONEMAP_MODE"
    },
    {
     "enum_field_value" : 1245188,
     "name" : "ANDROID_TONEMAP_MAX_CURVE_POINTS"
    },
    {
     "enum_field_value" : 1245189,
     "name" : "ANDROID_TONEMAP_AVAILABLE_TONE_MAP_MODES"
    },
    {
     "enum_field_value" : 1245190,
     "name" : "ANDROID_TONEMAP_GAMMA"
    },
    {
     "enum_field_value" : 1245191,
     "name" : "ANDROID_TONEMAP_PRESET_CURVE"
    },
    {
     "enum_field_value" : 1245192,
     "name" : "ANDROID_TONEMAP_END"
    },
    {
     "enum_field_value" : 1310720,
     "name" : "ANDROID_LED_TRANSMIT"
    },
    {
     "enum_field_value" : 1310721,
     "name" : "ANDROID_LED_AVAILABLE_LEDS"
    },
    {
     "enum_field_value" : 1310722,
     "name" : "ANDROID_LED_END"
    },
    {
     "enum_field_value" : 1376256,
     "name" : "ANDROID_INFO_SUPPORTED_HARDWARE_LEVEL"
    },
    {
     "enum_field_value" : 1376257,
     "name" : "ANDROID_INFO_VERSION"
    },
    {
     "enum_field_value" : 1376258,
     "name" : "ANDROID_INFO_SUPPORTED_BUFFER_MANAGEMENT_VERSION"
    },
    {
     "enum_field_value" : 1376259,
     "name" : "ANDROID_INFO_END"
    },
    {
     "enum_field_value" : 1441792,
     "name" : "ANDROID_BLACK_LEVEL_LOCK"
    },
    {
     "enum_field_value" : 1441793,
     "name" : "ANDROID_BLACK_LEVEL_END"
    },
    {
     "enum_field_value" : 1507328,
     "name" : "ANDROID_SYNC_FRAME_NUMBER"
    },
    {
     "enum_field_value" : 1507329,
     "name" : "ANDROID_SYNC_MAX_LATENCY"
    },
    {
     "enum_field_value" : 1507330,
     "name" : "ANDROID_SYNC_END"
    },
    {
     "enum_field_value" : 1572864,
     "name" : "ANDROID_REPROCESS_EFFECTIVE_EXPOSURE_FACTOR"
    },
    {
     "enum_field_value" : 1572865,
     "name" : "ANDROID_REPROCESS_MAX_CAPTURE_STALL"
    },
    {
     "enum_field_value" : 1572866,
     "name" : "ANDROID_REPROCESS_END"
    },
    {
     "enum_field_value" : 1638400,
     "name" : "ANDROID_DEPTH_MAX_DEPTH_SAMPLES"
    },
    {
     "enum_field_value" : 1638401,
     "name" : "ANDROID_DEPTH_AVAILABLE_DEPTH_STREAM_CONFIGURATIONS"
    },
    {
     "enum_field_value" : 1638402,
     "name" : "ANDROID_DEPTH_AVAILABLE_DEPTH_MIN_FRAME_DURATIONS"
    },
    {
     "enum_field_value" : 1638403,
     "name" : "ANDROID_DEPTH_AVAILABLE_DEPTH_STALL_DURATIONS"
    },
    {
     "enum_field_value" : 1638404,
     "name" : "ANDROID_DEPTH_DEPTH_IS_EXCLUSIVE"
    },
    {
     "enum_field_value" : 1638405,
     "name" : "ANDROID_DEPTH_AVAILABLE_RECOMMENDED_DEPTH_STREAM_CONFIGURATIONS"
    },
    {
     "enum_field_value" : 1638406,
     "name" : "ANDROID_DEPTH_AVAILABLE_DYNAMIC_DEPTH_STREAM_CONFIGURATIONS"
    },
    {
     "enum_field_value" : 1638407,
     "name" : "ANDROID_DEPTH_AVAILABLE_DYNAMIC_DEPTH_MIN_FRAME_DURATIONS"
    },
    {
     "enum_field_value" : 1638408,
     "name" : "ANDROID_DEPTH_AVAILABLE_DYNAMIC_DEPTH_STALL_DURATIONS"
    },
    {
     "enum_field_value" : 1638409,
     "name" : "ANDROID_DEPTH_END"
    },
    {
     "enum_field_value" : 1703936,
     "name" : "ANDROID_LOGICAL_MULTI_CAMERA_PHYSICAL_IDS"
    },
    {
     "enum_field_value" : 1703937,
     "name" : "ANDROID_LOGICAL_MULTI_CAMERA_SENSOR_SYNC_TYPE"
    },
    {
     "enum_field_value" : 1703938,
     "name" : "ANDROID_LOGICAL_MULTI_CAMERA_ACTIVE_PHYSICAL_ID"
    },
    {
     "enum_field_value" : 1703939,
     "name" : "ANDROID_LOGICAL_MULTI_CAMERA_END"
    },
    {
     "enum_field_value" : 1769472,
     "name" : "ANDROID_DISTORTION_CORRECTION_MODE"
    },
    {
     "enum_field_value" : 1769473,
     "name" : "ANDROID_DISTORTION_CORRECTION_AVAILABLE_MODES"
    },
    {
     "enum_field_value" : 1769474,
     "name" : "ANDROID_DISTORTION_CORRECTION_END"
    },
    {
     "enum_field_value" : 1835008,
     "name" : "ANDROID_HEIC_AVAILABLE_HEIC_STREAM_CONFIGURATIONS"
    },
    {
     "enum_field_value" : 1835009,
     "name" : "ANDROID_HEIC_AVAILABLE_HEIC_MIN_FRAME_DURATIONS"
    },
    {
     "enum_field_value" : 1835010,
     "name" : "ANDROID_HEIC_AVAILABLE_HEIC_STALL_DURATIONS"
    },
    {
     "enum_field_value" : 1835011,
     "name" : "ANDROID_HEIC_END"
    },
    {
     "enum_field_value" : 1900544,
     "name" : "ANDROID_HEIC_INFO_SUPPORTED"
    },
    {
     "enum_field_value" : 1900545,
     "name" : "ANDROID_HEIC_INFO_MAX_JPEG_APP_SEGMENTS_COUNT"
    },
    {
     "enum_field_value" : 1900546,
     "name" : "ANDROID_HEIC_INFO_END"
    }
   ],
   "linker_set_key" : "_ZTI19camera_metadata_tag",
   "name" : "camera_metadata_tag",
   "referenced_type" : "_ZTI19camera_metadata_tag",
   "self_type" : "_ZTI19camera_metadata_tag",
   "size" : 4,
   "source_file" : "/system/media/camera/include/system/camera_metadata_tags.h",
   "underlying_type" : "_ZTIj"
  },
  {
   "alignment" : 4,
   "enum_fields" :
   [
    {
     "enum_field_value" : 0,
     "name" : "ANDROID_COLOR_CORRECTION"
    },
    {
     "enum_field_value" : 1,
     "name" : "ANDROID_CONTROL"
    },
    {
     "enum_field_value" : 2,
     "name" : "ANDROID_DEMOSAIC"
    },
    {
     "enum_field_value" : 3,
     "name" : "ANDROID_EDGE"
    },
    {
     "enum_field_value" : 4,
     "name" : "ANDROID_FLASH"
    },
    {
     "enum_field_value" : 5,
     "name" : "ANDROID_FLASH_INFO"
    },
    {
     "enum_field_value" : 6,
     "name" : "ANDROID_HOT_PIXEL"
    },
    {
     "enum_field_value" : 7,
     "name" : "ANDROID_JPEG"
    },
    {
     "enum_field_value" : 8,
     "name" : "ANDROID_LENS"
    },
    {
     "enum_field_value" : 9,
     "name" : "ANDROID_LENS_INFO"
    },
    {
     "enum_field_value" : 10,
     "name" : "ANDROID_NOISE_REDUCTION"
    },
    {
     "enum_field_value" : 11,
     "name" : "ANDROID_QUIRKS"
    },
    {
     "enum_field_value" : 12,
     "name" : "ANDROID_REQUEST"
    },
    {
     "enum_field_value" : 13,
     "name" : "ANDROID_SCALER"
    },
    {
     "enum_field_value" : 14,
     "name" : "ANDROID_SENSOR"
    },
    {
     "enum_field_value" : 15,
     "name" : "ANDROID_SENSOR_INFO"
    },
    {
     "enum_field_value" : 16,
     "name" : "ANDROID_SHADING"
    },
    {
     "enum_field_value" : 17,
     "name" : "ANDROID_STATISTICS"
    },
    {
     "enum_field_value" : 18,
     "name" : "ANDROID_STATISTICS_INFO"
    },
    {
     "enum_field_value" : 19,
     "name" : "ANDROID_TONEMAP"
    },
    {
     "enum_field_value" : 20,
     "name" : "ANDROID_LED"
    },
    {
     "enum_field_value" : 21,
     "name" : "ANDROID_INFO"
    },
    {
     "enum_field_value" : 22,
     "name" : "ANDROID_BLACK_LEVEL"
    },
    {
     "enum_field_value" : 23,
     "name" : "ANDROID_SYNC"
    },
    {
     "enum_field_value" : 24,
     "name" : "ANDROID_REPROCESS"
    },
    {
     "enum_field_value" : 25,
     "name" : "ANDROID_DEPTH"
    },
    {
     "enum_field_value" : 26,
     "name" : "ANDROID_LOGICAL_MULTI_CAMERA"
    },
    {
     "enum_field_value" : 27,
     "name" : "ANDROID_DISTORTION_CORRECTION"
    },
    {
     "enum_field_value" : 28,
     "name" : "ANDROID_HEIC"
    },
    {
     "enum_field_value" : 29,
     "name" : "ANDROID_HEIC_INFO"
    },
    {
     "enum_field_value" : 30,
     "name" : "ANDROID_SECTION_COUNT"
    },
    {
     "enum_field_value" : 32768,
     "name" : "VENDOR_SECTION"
    }
   ],
   "linker_set_key" : "_ZTI23camera_metadata_section",
   "name" : "camera_metadata_section",
   "referenced_type" : "_ZTI23camera_metadata_section",
   "self_type" : "_ZTI23camera_metadata_section",
   "size" : 4,
   "source_file" : "/system/media/camera/include/system/camera_metadata_tags.h",
   "underlying_type" : "_ZTIj"
  },
  {
   "alignment" : 4,
   "enum_fields" :
   [
    {
     "enum_field_value" : 0,
     "name" : "ANDROID_COLOR_CORRECTION_START"
    },
    {
     "enum_field_value" : 65536,
     "name" : "ANDROID_CONTROL_START"
    },
    {
     "enum_field_value" : 131072,
     "name" : "ANDROID_DEMOSAIC_START"
    },
    {
     "enum_field_value" : 196608,
     "name" : "ANDROID_EDGE_START"
    },
    {
     "enum_field_value" : 262144,
     "name" : "ANDROID_FLASH_START"
    },
    {
     "enum_field_value" : 327680,
     "name" : "ANDROID_FLASH_INFO_START"
    },
    {
     "enum_field_value" : 393216,
     "name" : "ANDROID_HOT_PIXEL_START"
    },
    {
     "enum_field_value" : 458752,
     "name" : "ANDROID_JPEG_START"
    },
    {
     "enum_field_value" : 524288,
     "name" : "ANDROID_LENS_START"
    },
    {
     "enum_field_value" : 589824,
     "name" : "ANDROID_LENS_INFO_START"
    },
    {
     "enum_field_value" : 655360,
     "name" : "ANDROID_NOISE_REDUCTION_START"
    },
    {
     "enum_field_value" : 720896,
     "name" : "ANDROID_QUIRKS_START"
    },
    {
     "enum_field_value" : 786432,
     "name" : "ANDROID_REQUEST_START"
    },
    {
     "enum_field_value" : 851968,
     "name" : "ANDROID_SCALER_START"
    },
    {
     "enum_field_value" : 917504,
     "name" : "ANDROID_SENSOR_START"
    },
    {
     "enum_field_value" : 983040,
     "name" : "ANDROID_SENSOR_INFO_START"
    },
    {
     "enum_field_value" : 1048576,
     "name" : "ANDROID_SHADING_START"
    },
    {
     "enum_field_value" : 1114112,
     "name" : "ANDROID_STATISTICS_START"
    },
    {
     "enum_field_value" : 1179648,
     "name" : "ANDROID_STATISTICS_INFO_START"
    },
    {
     "enum_field_value" : 1245184,
     "name" : "ANDROID_TONEMAP_START"
    },
    {
     "enum_field_value" : 1310720,
     "name" : "ANDROID_LED_START"
    },
    {
     "enum_field_value" : 1376256,
     "name" : "ANDROID_INFO_START"
    },
    {
     "enum_field_value" : 1441792,
     "name" : "ANDROID_BLACK_LEVEL_START"
    },
    {
     "enum_field_value" : 1507328,
     "name" : "ANDROID_SYNC_START"
    },
    {
     "enum_field_value" : 1572864,
     "name" : "ANDROID_REPROCESS_START"
    },
    {
     "enum_field_value" : 1638400,
     "name" : "ANDROID_DEPTH_START"
    },
    {
     "enum_field_value" : 1703936,
     "name" : "ANDROID_LOGICAL_MULTI_CAMERA_START"
    },
    {
     "enum_field_value" : 1769472,
     "name" : "ANDROID_DISTORTION_CORRECTION_START"
    },
    {
     "enum_field_value" : 1835008,
     "name" : "ANDROID_HEIC_START"
    },
    {
     "enum_field_value" : 1900544,
     "name" : "ANDROID_HEIC_INFO_START"
    },
    {
     "enum_field_value" : -2147483648,
     "name" : "VENDOR_SECTION_START"
    }
   ],
   "linker_set_key" : "_ZTI29camera_metadata_section_start",
   "name" : "camera_metadata_section_start",
   "referenced_type" : "_ZTI29camera_metadata_section_start",
   "self_type" : "_ZTI29camera_metadata_section_start",
   "size" : 4,
   "source_file" : "/system/media/camera/include/system/camera_metadata_tags.h",
   "underlying_type" : "_ZTIi"
  },
  {
   "alignment" : 4,
   "enum_fields" :
   [
    {
     "enum_field_value" : 1,
     "name" : "CAMERA_METADATA_VALIDATION_ERROR"
    },
    {
     "enum_field_value" : 2,
     "name" : "CAMERA_METADATA_VALIDATION_SHIFTED"
    }
   ],
   "linker_set_key" : "_ZTI33$CAMERA_METADATA_VALIDATION_ERROR",
   "name" : "(anonymous enum at system/media/camera/include/system/camera_metadata.h:283:1)",
   "referenced_type" : "_ZTI33$CAMERA_METADATA_VALIDATION_ERROR",
   "self_type" : "_ZTI33$CAMERA_METADATA_VALIDATION_ERROR",
   "size" : 4,
   "source_file" : "/system/media/camera/include/system/camera_metadata.h",
   "underlying_type" : "_ZTIj"
  },
  {
   "alignment" : 4,
   "enum_fields" :
   [
    {
     "enum_field_value" : 0,
     "name" : "ANDROID_EDGE_MODE_OFF"
    },
    {
     "enum_field_value" : 1,
     "name" : "ANDROID_EDGE_MODE_FAST"
    },
    {
     "enum_field_value" : 2,
     "name" : "ANDROID_EDGE_MODE_HIGH_QUALITY"
    },
    {
     "enum_field_value" : 3,
     "name" : "ANDROID_EDGE_MODE_ZERO_SHUTTER_LAG"
    }
   ],
   "linker_set_key" : "_ZTI38camera_metadata_enum_android_edge_mode",
   "name" : "camera_metadata_enum_android_edge_mode",
   "referenced_type" : "_ZTI38camera_metadata_enum_android_edge_mode",
   "self_type" : "_ZTI38camera_metadata_enum_android_edge_mode",
   "size" : 4,
   "source_file" : "/system/media/camera/include/system/camera_metadata_tags.h",
   "underlying_type" : "_ZTIj"
  },
  {
   "alignment" : 4,
   "enum_fields" :
   [
    {
     "enum_field_value" : 0,
     "name" : "ANDROID_FLASH_MODE_OFF"
    },
    {
     "enum_field_value" : 1,
     "name" : "ANDROID_FLASH_MODE_SINGLE"
    },
    {
     "enum_field_value" : 2,
     "name" : "ANDROID_FLASH_MODE_TORCH"
    }
   ],
   "linker_set_key" : "_ZTI39camera_metadata_enum_android_flash_mode",
   "name" : "camera_metadata_enum_android_flash_mode",
   "referenced_type" : "_ZTI39camera_metadata_enum_android_flash_mode",
   "self_type" : "_ZTI39camera_metadata_enum_android_flash_mode",
   "size" : 4,
   "source_file" : "/system/media/camera/include/system/camera_metadata_tags.h",
   "underlying_type" : "_ZTIj"
  },
  {
   "alignment" : 4,
   "enum_fields" :
   [
    {
     "enum_field_value" : 0,
     "name" : "ANDROID_LENS_STATE_STATIONARY"
    },
    {
     "enum_field_value" : 1,
     "name" : "ANDROID_LENS_STATE_MOVING"
    }
   ],
   "linker_set_key" : "_ZTI39camera_metadata_enum_android_lens_state",
   "name" : "camera_metadata_enum_android_lens_state",
   "referenced_type" : "_ZTI39camera_metadata_enum_android_lens_state",
   "self_type" : "_ZTI39camera_metadata_enum_android_lens_state",
   "size" : 4,
   "source_file" : "/system/media/camera/include/system/camera_metadata_tags.h",
   "underlying_type" : "_ZTIj"
  },
  {
   "alignment" : 4,
   "enum_fields" :
   [
    {
     "enum_field_value" : 0,
     "name" : "ANDROID_FLASH_STATE_UNAVAILABLE"
    },
    {
     "enum_field_value" : 1,
     "name" : "ANDROID_FLASH_STATE_CHARGING"
    },
    {
     "enum_field_value" : 2,
     "name" : "ANDROID_FLASH_STATE_READY"
    },
    {
     "enum_field_value" : 3,
     "name" : "ANDROID_FLASH_STATE_FIRED"
    },
    {
     "enum_field_value" : 4,
     "name" : "ANDROID_FLASH_STATE_PARTIAL"
    }
   ],
   "linker_set_key" : "_ZTI40camera_metadata_enum_android_flash_state",
   "name" : "camera_metadata_enum_android_flash_state",
   "referenced_type" : "_ZTI40camera_metadata_enum_android_flash_state",
   "self_type" : "_ZTI40camera_metadata_enum_android_flash_state",
   "size" : 4,
   "source_file" : "/system/media/camera/include/system/camera_metadata_tags.h",
   "underlying_type" : "_ZTIj"
  },
  {
   "alignment" : 4,
   "enum_fields" :
   [
    {
     "enum_field_value" : 0,
     "name" : "ANDROID_LENS_FACING_FRONT"
    },
    {
     "enum_field_value" : 1,
     "name" : "ANDROID_LENS_FACING_BACK"
    },
    {
     "enum_field_value" : 2,
     "name" : "ANDROID_LENS_FACING_EXTERNAL"
    }
   ],
   "linker_set_key" : "_ZTI40camera_metadata_enum_android_lens_facing",
   "name" : "camera_metadata_enum_android_lens_facing",
   "referenced_type" : "_ZTI40camera_metadata_enum_android_lens_facing",
   "self_type" : "_ZTI40camera_metadata_enum_android_lens_facing",
   "size" : 4,
   "source_file" : "/system/media/camera/include/system/camera_metadata_tags.h",
   "underlying_type" : "_ZTIj"
  },
  {
   "alignment" : 4,
   "enum_fields" :
   [
    {
     "enum_field_value" : 0,
     "name" : "ANDROID_CONTROL_MODE_OFF"
    },
    {
     "enum_field_value" : 1,
     "name" : "ANDROID_CONTROL_MODE_AUTO"
    },
    {
     "enum_field_value" : 2,
     "name" : "ANDROID_CONTROL_MODE_USE_SCENE_MODE"
    },
    {
     "enum_field_value" : 3,
     "name" : "ANDROID_CONTROL_MODE_OFF_KEEP_STATE"
    },
    {
     "enum_field_value" : 4,
     "name" : "ANDROID_CONTROL_MODE_USE_EXTENDED_SCENE_MODE"
    }
   ],
   "linker_set_key" : "_ZTI41camera_metadata_enum_android_control_mode",
   "name" : "camera_metadata_enum_android_control_mode",
   "referenced_type" : "_ZTI41camera_metadata_enum_android_control_mode",
   "self_type" : "_ZTI41camera_metadata_enum_android_control_mode",
   "size" : 4,
   "source_file" : "/system/media/camera/include/system/camera_metadata_tags.h",
   "underlying_type" : "_ZTIj"
  },
  {
   "alignment" : 4,
   "enum_fields" :
   [
    {
     "enum_field_value" : 0,
     "name" : "ANDROID_LED_TRANSMIT_OFF"
    },
    {
     "enum_field_value" : 1,
     "name" : "ANDROID_LED_TRANSMIT_ON"
    }
   ],
   "linker_set_key" : "_ZTI41camera_metadata_enum_android_led_transmit",
   "name" : "camera_metadata_enum_android_led_transmit",
   "referenced_type" : "_ZTI41camera_metadata_enum_android_led_transmit",
   "self_type" : "_ZTI41camera_metadata_enum_android_led_transmit",
   "size" : 4,
   "source_file" : "/system/media/camera/include/system/camera_metadata_tags.h",
   "underlying_type" : "_ZTIj"
  },
  {
   "alignment" : 4,
   "enum_fields" :
   [
    {
     "enum_field_value" : 0,
     "name" : "ANDROID_REQUEST_TYPE_CAPTURE"
    },
    {
     "enum_field_value" : 1,
     "name" : "ANDROID_REQUEST_TYPE_REPROCESS"
    }
   ],
   "linker_set_key" : "_ZTI41camera_metadata_enum_android_request_type",
   "name" : "camera_metadata_enum_android_request_type",
   "referenced_type" : "_ZTI41camera_metadata_enum_android_request_type",
   "self_type" : "_ZTI41camera_metadata_enum_android_request_type",
   "size" : 4,
   "source_file" : "/system/media/camera/include/system/camera_metadata_tags.h",
   "underlying_type" : "_ZTIj"
  },
  {
   "alignment" : 4,
   "enum_fields" :
   [
    {
     "enum_field_value" : 0,
     "name" : "ANDROID_SHADING_MODE_OFF"
    },
    {
     "enum_field_value" : 1,
     "name" : "ANDROID_SHADING_MODE_FAST"
    },
    {
     "enum_field_value" : 2,
     "name" : "ANDROID_SHADING_MODE_HIGH_QUALITY"
    }
   ],
   "linker_set_key" : "_ZTI41camera_metadata_enum_android_shading_mode",
   "name" : "camera_metadata_enum_android_shading_mode",
   "referenced_type" : "_ZTI41camera_metadata_enum_android_shading_mode",
   "self_type" : "_ZTI41camera_metadata_enum_android_shading_mode",
   "size" : 4,
   "source_file" : "/system/media/camera/include/system/camera_metadata_tags.h",
   "underlying_type" : "_ZTIj"
  },
  {
   "alignment" : 4,
   "enum_fields" :
   [
    {
     "enum_field_value" : 0,
     "name" : "ANDROID_TONEMAP_MODE_CONTRAST_CURVE"
    },
    {
     "enum_field_value" : 1,
     "name" : "ANDROID_TONEMAP_MODE_FAST"
    },
    {
     "enum_field_value" : 2,
     "name" : "ANDROID_TONEMAP_MODE_HIGH_QUALITY"
    },
    {
     "enum_field_value" : 3,
     "name" : "ANDROID_TONEMAP_MODE_GAMMA_VALUE"
    },
    {
     "enum_field_value" : 4,
     "name" : "ANDROID_TONEMAP_MODE_PRESET_CURVE"
    }
   ],
   "linker_set_key" : "_ZTI41camera_metadata_enum_android_tonemap_mode",
   "name" : "camera_metadata_enum_android_tonemap_mode",
   "referenced_type" : "_ZTI41camera_metadata_enum_android_tonemap_mode",
   "self_type" : "_ZTI41camera_metadata_enum_android_tonemap_mode",
   "size" : 4,
   "source_file" : "/system/media/camera/include/system/camera_metadata_tags.h",
   "underlying_type" : "_ZTIj"
  },
  {
   "alignment" : 4,
   "enum_fields" :
   [
    {
     "enum_field_value" : 0,
     "name" : "ANDROID_DEMOSAIC_MODE_FAST"
    },
    {
     "enum_field_value" : 1,
     "name" : "ANDROID_DEMOSAIC_MODE_HIGH_QUALITY"
    }
   ],
   "linker_set_key" : "_ZTI42camera_metadata_enum_android_demosaic_mode",
   "name" : "camera_metadata_enum_android_demosaic_mode",
   "referenced_type" : "_ZTI42camera_metadata_enum_android_demosaic_mode",
   "self_type" : "_ZTI42camera_metadata_enum_android_demosaic_mode",
   "size" : 4,
   "source_file" : "/system/media/camera/include/system/camera_metadata_tags.h",
   "underlying_type" : "_ZTIj"
  },
  {
   "alignment" : 4,
   "enum_fields" :
   [
    {
     "enum_field_value" : 0,
     "name" : "ANDROID_HOT_PIXEL_MODE_OFF"
    },
    {
     "enum_field_value" : 1,
     "name" : "ANDROID_HOT_PIXEL_MODE_FAST"
    },
    {
     "enum_field_value" : 2,
     "name" : "ANDROID_HOT_PIXEL_MODE_HIGH_QUALITY"
    }
   ],
   "linker_set_key" : "_ZTI43camera_metadata_enum_android_hot_pixel_mode",
   "name" : "camera_metadata_enum_android_hot_pixel_mode",
   "referenced_type" : "_ZTI43camera_metadata_enum_android_hot_pixel_mode",
   "self_type" : "_ZTI43camera_metadata_enum_android_hot_pixel_mode",
   "size" : 4,
   "source_file" : "/system/media/camera/include/system/camera_metadata_tags.h",
   "underlying_type" : "_ZTIj"
  },
  {
   "alignment" : 4,
   "enum_fields" :
   [
    {
     "enum_field_value" : 0,
     "name" : "ANDROID_CONTROL_AE_LOCK_OFF"
    },
    {
     "enum_field_value" : 1,
     "name" : "ANDROID_CONTROL_AE_LOCK_ON"
    }
   ],
   "linker_set_key" : "_ZTI44camera_metadata_enum_android_control_ae_lock",
   "name" : "camera_metadata_enum_android_control_ae_lock",
   "referenced_type" : "_ZTI44camera_metadata_enum_android_control_ae_lock",
   "self_type" : "_ZTI44camera_metadata_enum_android_control_ae_lock",
   "size" : 4,
   "source_file" : "/system/media/camera/include/system/camera_metadata_tags.h",
   "underlying_type" : "_ZTIj"
  },
  {
   "alignment" : 4,
   "enum_fields" :
   [
    {
     "enum_field_value" : 0,
     "name" : "ANDROID_CONTROL_AE_MODE_OFF"
    },
    {
     "enum_field_value" : 1,
     "name" : "ANDROID_CONTROL_AE_MODE_ON"
    },
    {
     "enum_field_value" : 2,
     "name" : "ANDROID_CONTROL_AE_MODE_ON_AUTO_FLASH"
    },
    {
     "enum_field_value" : 3,
     "name" : "ANDROID_CONTROL_AE_MODE_ON_ALWAYS_FLASH"
    },
    {
     "enum_field_value" : 4,
     "name" : "ANDROID_CONTROL_AE_MODE_ON_AUTO_FLASH_REDEYE"
    },
    {
     "enum_field_value" : 5,
     "name" : "ANDROID_CONTROL_AE_MODE_ON_EXTERNAL_FLASH"
    }
   ],
   "linker_set_key" : "_ZTI44camera_metadata_enum_android_control_ae_mode",
   "name" : "camera_metadata_enum_android_control_ae_mode",
   "referenced_type" : "_ZTI44camera_metadata_enum_android_control_ae_mode",
   "self_type" : "_ZTI44camera_metadata_enum_android_control_ae_mode",
   "size" : 4,
   "source_file" : "/system/media/camera/include/system/camera_metadata_tags.h",
   "underlying_type" : "_ZTIj"
  },
  {
   "alignment" : 4,
   "enum_fields" :
   [
    {
     "enum_field_value" : 0,
     "name" : "ANDROID_CONTROL_AF_MODE_OFF"
    },
    {
     "enum_field_value" : 1,
     "name" : "ANDROID_CONTROL_AF_MODE_AUTO"
    },
    {
     "enum_field_value" : 2,
     "name" : "ANDROID_CONTROL_AF_MODE_MACRO"
    },
    {
     "enum_field_value" : 3,
     "name" : "ANDROID_CONTROL_AF_MODE_CONTINUOUS_VIDEO"
    },
    {
     "enum_field_value" : 4,
     "name" : "ANDROID_CONTROL_AF_MODE_CONTINUOUS_PICTURE"
    },
    {
     "enum_field_value" : 5,
     "name" : "ANDROID_CONTROL_AF_MODE_EDOF"
    }
   ],
   "linker_set_key" : "_ZTI44camera_metadata_enum_android_control_af_mode",
   "name" : "camera_metadata_enum_android_control_af_mode",
   "referenced_type" : "_ZTI44camera_metadata_enum_android_control_af_mode",
   "self_type" : "_ZTI44camera_metadata_enum_android_control_af_mode",
   "size" : 4,
   "source_file" : "/system/media/camera/include/system/camera_metadata_tags.h",
   "underlying_type" : "_ZTIj"
  },
  {
   "alignment" : 4,
   "enum_fields" :
   [
    {
     "enum_field_value" : 0,
     "name" : "ANDROID_BLACK_LEVEL_LOCK_OFF"
    },
    {
     "enum_field_value" : 1,
     "name" : "ANDROID_BLACK_LEVEL_LOCK_ON"
    }
   ],
   "linker_set_key" : "_ZTI45camera_metadata_enum_android_black_level_lock",
   "name" : "camera_metadata_enum_android_black_level_lock",
   "referenced_type" : "_ZTI45camera_metadata_enum_android_black_level_lock",
   "self_type" : "_ZTI45camera_metadata_enum_android_black_level_lock",
   "size" : 4,
   "source_file" : "/system/media/camera/include/system/camera_metadata_tags.h",
   "underlying_type" : "_ZTIj"
  },
  {
   "alignment" : 4,
   "enum_fields" :
   [
    {
     "enum_field_value" : 0,
     "name" : "ANDROID_CONTROL_AE_STATE_INACTIVE"
    },
    {
     "enum_field_value" : 1,
     "name" : "ANDROID_CONTROL_AE_STATE_SEARCHING"
    },
    {
     "enum_field_value" : 2,
     "name" : "ANDROID_CONTROL_AE_STATE_CONVERGED"
    },
    {
     "enum_field_value" : 3,
     "name" : "ANDROID_CONTROL_AE_STATE_LOCKED"
    },
    {
     "enum_field_value" : 4,
     "name" : "ANDROID_CONTROL_AE_STATE_FLASH_REQUIRED"
    },
    {
     "enum_field_value" : 5,
     "name" : "ANDROID_CONTROL_AE_STATE_PRECAPTURE"
    }
   ],
   "linker_set_key" : "_ZTI45camera_metadata_enum_android_control_ae_state",
   "name" : "camera_metadata_enum_android_control_ae_state",
   "referenced_type" : "_ZTI45camera_metadata_enum_android_control_ae_state",
   "self_type" : "_ZTI45camera_metadata_enum_android_control_ae_state",
   "size" : 4,
   "source_file" : "/system/media/camera/include/system/camera_metadata_tags.h",
   "underlying_type" : "_ZTIj"
  },
  {
   "alignment" : 4,
   "enum_fields" :
   [
    {
     "enum_field_value" : 0,
     "name" : "ANDROID_CONTROL_AF_STATE_INACTIVE"
    },
    {
     "enum_field_value" : 1,
     "name" : "ANDROID_CONTROL_AF_STATE_PASSIVE_SCAN"
    },
    {
     "enum_field_value" : 2,
     "name" : "ANDROID_CONTROL_AF_STATE_PASSIVE_FOCUSED"
    },
    {
     "enum_field_value" : 3,
     "name" : "ANDROID_CONTROL_AF_STATE_ACTIVE_SCAN"
    },
    {
     "enum_field_value" : 4,
     "name" : "ANDROID_CONTROL_AF_STATE_FOCUSED_LOCKED"
    },
    {
     "enum_field_value" : 5,
     "name" : "ANDROID_CONTROL_AF_STATE_NOT_FOCUSED_LOCKED"
    },
    {
     "enum_field_value" : 6,
     "name" : "ANDROID_CONTROL_AF_STATE_PASSIVE_UNFOCUSED"
    }
   ],
   "linker_set_key" : "_ZTI45camera_metadata_enum_android_control_af_state",
   "name" : "camera_metadata_enum_android_control_af_state",
   "referenced_type" : "_ZTI45camera_metadata_enum_android_control_af_state",
   "self_type" : "_ZTI45camera_metadata_enum_android_control_af_state",
   "size" : 4,
   "source_file" : "/system/media/camera/include/system/camera_metadata_tags.h",
   "underlying_type" : "_ZTIj"
  },
  {
   "alignment" : 4,
   "enum_fields" :
   [
    {
     "enum_field_value" : 0,
     "name" : "ANDROID_CONTROL_AWB_LOCK_OFF"
    },
    {
     "enum_field_value" : 1,
     "name" : "ANDROID_CONTROL_AWB_LOCK_ON"
    }
   ],
   "linker_set_key" : "_ZTI45camera_metadata_enum_android_control_awb_lock",
   "name" : "camera_metadata_enum_android_control_awb_lock",
   "referenced_type" : "_ZTI45camera_metadata_enum_android_control_awb_lock",
   "self_type" : "_ZTI45camera_metadata_enum_android_control_awb_lock",
   "size" : 4,
   "source_file" : "/system/media/camera/include/system/camera_metadata_tags.h",
   "underlying_type" : "_ZTIj"
  },
  {
   "alignment" : 4,
   "enum_fields" :
   [
    {
     "enum_field_value" : 0,
     "name" : "ANDROID_CONTROL_AWB_MODE_OFF"
    },
    {
     "enum_field_value" : 1,
     "name" : "ANDROID_CONTROL_AWB_MODE_AUTO"
    },
    {
     "enum_field_value" : 2,
     "name" : "ANDROID_CONTROL_AWB_MODE_INCANDESCENT"
    },
    {
     "enum_field_value" : 3,
     "name" : "ANDROID_CONTROL_AWB_MODE_FLUORESCENT"
    },
    {
     "enum_field_value" : 4,
     "name" : "ANDROID_CONTROL_AWB_MODE_WARM_FLUORESCENT"
    },
    {
     "enum_field_value" : 5,
     "name" : "ANDROID_CONTROL_AWB_MODE_DAYLIGHT"
    },
    {
     "enum_field_value" : 6,
     "name" : "ANDROID_CONTROL_AWB_MODE_CLOUDY_DAYLIGHT"
    },
    {
     "enum_field_value" : 7,
     "name" : "ANDROID_CONTROL_AWB_MODE_TWILIGHT"
    },
    {
     "enum_field_value" : 8,
     "name" : "ANDROID_CONTROL_AWB_MODE_SHADE"
    }
   ],
   "linker_set_key" : "_ZTI45camera_metadata_enum_android_control_awb_mode",
   "name" : "camera_metadata_enum_android_control_awb_mode",
   "referenced_type" : "_ZTI45camera_metadata_enum_android_control_awb_mode",
   "self_type" : "_ZTI45camera_metadata_enum_android_control_awb_mode",
   "size" : 4,
   "source_file" : "/system/media/camera/include/system/camera_metadata_tags.h",
   "underlying_type" : "_ZTIj"
  },
  {
   "alignment" : 4,
   "enum_fields" :
   [
    {
     "enum_field_value" : 0,
     "name" : "ANDROID_SYNC_MAX_LATENCY_PER_FRAME_CONTROL"
    },
    {
     "enum_field_value" : -1,
     "name" : "ANDROID_SYNC_MAX_LATENCY_UNKNOWN"
    }
   ],
   "linker_set_key" : "_ZTI45camera_metadata_enum_android_sync_max_latency",
   "name" : "camera_metadata_enum_android_sync_max_latency",
   "referenced_type" : "_ZTI45camera_metadata_enum_android_sync_max_latency",
   "self_type" : "_ZTI45camera_metadata_enum_android_sync_max_latency",
   "size" : 4,
   "source_file" : "/system/media/camera/include/system/camera_metadata_tags.h",
   "underlying_type" : "_ZTIi"
  },
  {
   "alignment" : 4,
   "enum_fields" :
   [
    {
     "enum_field_value" : 0,
     "name" : "ANDROID_CONTROL_AWB_STATE_INACTIVE"
    },
    {
     "enum_field_value" : 1,
     "name" : "ANDROID_CONTROL_AWB_STATE_SEARCHING"
    },
    {
     "enum_field_value" : 2,
     "name" : "ANDROID_CONTROL_AWB_STATE_CONVERGED"
    },
    {
     "enum_field_value" : 3,
     "name" : "ANDROID_CONTROL_AWB_STATE_LOCKED"
    }
   ],
   "linker_set_key" : "_ZTI46camera_metadata_enum_android_control_awb_state",
   "name" : "camera_metadata_enum_android_control_awb_state",
   "referenced_type" : "_ZTI46camera_metadata_enum_android_control_awb_state",
   "self_type" : "_ZTI46camera_metadata_enum_android_control_awb_state",
   "size" : 4,
   "source_file" : "/system/media/camera/include/system/camera_metadata_tags.h",
   "underlying_type" : "_ZTIj"
  },
  {
   "alignment" : 4,
   "enum_fields" :
   [
    {
     "enum_field_value" : -1,
     "name" : "ANDROID_SYNC_FRAME_NUMBER_CONVERGING"
    },
    {
     "enum_field_value" : -2,
     "name" : "ANDROID_SYNC_FRAME_NUMBER_UNKNOWN"
    }
   ],
   "linker_set_key" : "_ZTI46camera_metadata_enum_android_sync_frame_number",
   "name" : "camera_metadata_enum_android_sync_frame_number",
   "referenced_type" : "_ZTI46camera_metadata_enum_android_sync_frame_number",
   "self_type" : "_ZTI46camera_metadata_enum_android_sync_frame_number",
   "size" : 4,
   "source_file" : "/system/media/camera/include/system/camera_metadata_tags.h",
   "underlying_type" : "_ZTIi"
  },
  {
   "alignment" : 4,
   "enum_fields" :
   [
    {
     "enum_field_value" : 0,
     "name" : "ANDROID_CONTROL_AF_TRIGGER_IDLE"
    },
    {
     "enum_field_value" : 1,
     "name" : "ANDROID_CONTROL_AF_TRIGGER_START"
    },
    {
     "enum_field_value" : 2,
     "name" : "ANDROID_CONTROL_AF_TRIGGER_CANCEL"
    }
   ],
   "linker_set_key" : "_ZTI47camera_metadata_enum_android_control_af_trigger",
   "name" : "camera_metadata_enum_android_control_af_trigger",
   "referenced_type" : "_ZTI47camera_metadata_enum_android_control_af_trigger",
   "self_type" : "_ZTI47camera_metadata_enum_android_control_af_trigger",
   "size" : 4,
   "source_file" : "/system/media/camera/include/system/camera_metadata_tags.h",
   "underlying_type" : "_ZTIj"
  },
  {
   "alignment" : 4,
   "enum_fields" :
   [
    {
     "enum_field_value" : 0,
     "name" : "ANDROID_CONTROL_ENABLE_ZSL_FALSE"
    },
    {
     "enum_field_value" : 1,
     "name" : "ANDROID_CONTROL_ENABLE_ZSL_TRUE"
    }
   ],
   "linker_set_key" : "_ZTI47camera_metadata_enum_android_control_enable_zsl",
   "name" : "camera_metadata_enum_android_control_enable_zsl",
   "referenced_type" : "_ZTI47camera_metadata_enum_android_control_enable_zsl",
   "self_type" : "_ZTI47camera_metadata_enum_android_control_enable_zsl",
   "size" : 4,
   "source_file" : "/system/media/camera/include/system/camera_metadata_tags.h",
   "underlying_type" : "_ZTIj"
  },
  {
   "alignment" : 4,
   "enum_fields" :
   [
    {
     "enum_field_value" : 0,
     "name" : "ANDROID_CONTROL_SCENE_MODE_DISABLED"
    },
    {
     "enum_field_value" : 1,
     "name" : "ANDROID_CONTROL_SCENE_MODE_FACE_PRIORITY"
    },
    {
     "enum_field_value" : 2,
     "name" : "ANDROID_CONTROL_SCENE_MODE_ACTION"
    },
    {
     "enum_field_value" : 3,
     "name" : "ANDROID_CONTROL_SCENE_MODE_PORTRAIT"
    },
    {
     "enum_field_value" : 4,
     "name" : "ANDROID_CONTROL_SCENE_MODE_LANDSCAPE"
    },
    {
     "enum_field_value" : 5,
     "name" : "ANDROID_CONTROL_SCENE_MODE_NIGHT"
    },
    {
     "enum_field_value" : 6,
     "name" : "ANDROID_CONTROL_SCENE_MODE_NIGHT_PORTRAIT"
    },
    {
     "enum_field_value" : 7,
     "name" : "ANDROID_CONTROL_SCENE_MODE_THEATRE"
    },
    {
     "enum_field_value" : 8,
     "name" : "ANDROID_CONTROL_SCENE_MODE_BEACH"
    },
    {
     "enum_field_value" : 9,
     "name" : "ANDROID_CONTROL_SCENE_MODE_SNOW"
    },
    {
     "enum_field_value" : 10,
     "name" : "ANDROID_CONTROL_SCENE_MODE_SUNSET"
    },
    {
     "enum_field_value" : 11,
     "name" : "ANDROID_CONTROL_SCENE_MODE_STEADYPHOTO"
    },
    {
     "enum_field_value" : 12,
     "name" : "ANDROID_CONTROL_SCENE_MODE_FIREWORKS"
    },
    {
     "enum_field_value" : 13,
     "name" : "ANDROID_CONTROL_SCENE_MODE_SPORTS"
    },
    {
     "enum_field_value" : 14,
     "name" : "ANDROID_CONTROL_SCENE_MODE_PARTY"
    },
    {
     "enum_field_value" : 15,
     "name" : "ANDROID_CONTROL_SCENE_MODE_CANDLELIGHT"
    },
    {
     "enum_field_value" : 16,
     "name" : "ANDROID_CONTROL_SCENE_MODE_BARCODE"
    },
    {
     "enum_field_value" : 17,
     "name" : "ANDROID_CONTROL_SCENE_MODE_HIGH_SPEED_VIDEO"
    },
    {
     "enum_field_value" : 18,
     "name" : "ANDROID_CONTROL_SCENE_MODE_HDR"
    },
    {
     "enum_field_value" : 19,
     "name" : "ANDROID_CONTROL_SCENE_MODE_FACE_PRIORITY_LOW_LIGHT"
    },
    {
     "enum_field_value" : 100,
     "name" : "ANDROID_CONTROL_SCENE_MODE_DEVICE_CUSTOM_START"
    },
    {
     "enum_field_value" : 127,
     "name" : "ANDROID_CONTROL_SCENE_MODE_DEVICE_CUSTOM_END"
    }
   ],
   "linker_set_key" : "_ZTI47camera_metadata_enum_android_control_scene_mode",
   "name" : "camera_metadata_enum_android_control_scene_mode",
   "referenced_type" : "_ZTI47camera_metadata_enum_android_control_scene_mode",
   "self_type" : "_ZTI47camera_metadata_enum_android_control_scene_mode",
   "size" : 4,
   "source_file" : "/system/media/camera/include/system/camera_metadata_tags.h",
   "underlying_type" : "_ZTIj"
  },
  {
   "alignment" : 4,
   "enum_fields" :
   [
    {
     "enum_field_value" : 0,
     "name" : "ANDROID_LED_AVAILABLE_LEDS_TRANSMIT"
    }
   ],
   "linker_set_key" : "_ZTI47camera_metadata_enum_android_led_available_leds",
   "name" : "camera_metadata_enum_android_led_available_leds",
   "referenced_type" : "_ZTI47camera_metadata_enum_android_led_available_leds",
   "self_type" : "_ZTI47camera_metadata_enum_android_led_available_leds",
   "size" : 4,
   "source_file" : "/system/media/camera/include/system/camera_metadata_tags.h",
   "underlying_type" : "_ZTIj"
  },
  {
   "alignment" : 4,
   "enum_fields" :
   [
    {
     "enum_field_value" : 0,
     "name" : "ANDROID_CONTROL_EFFECT_MODE_OFF"
    },
    {
     "enum_field_value" : 1,
     "name" : "ANDROID_CONTROL_EFFECT_MODE_MONO"
    },
    {
     "enum_field_value" : 2,
     "name" : "ANDROID_CONTROL_EFFECT_MODE_NEGATIVE"
    },
    {
     "enum_field_value" : 3,
     "name" : "ANDROID_CONTROL_EFFECT_MODE_SOLARIZE"
    },
    {
     "enum_field_value" : 4,
     "name" : "ANDROID_CONTROL_EFFECT_MODE_SEPIA"
    },
    {
     "enum_field_value" : 5,
     "name" : "ANDROID_CONTROL_EFFECT_MODE_POSTERIZE"
    },
    {
     "enum_field_value" : 6,
     "name" : "ANDROID_CONTROL_EFFECT_MODE_WHITEBOARD"
    },
    {
     "enum_field_value" : 7,
     "name" : "ANDROID_CONTROL_EFFECT_MODE_BLACKBOARD"
    },
    {
     "enum_field_value" : 8,
     "name" : "ANDROID_CONTROL_EFFECT_MODE_AQUA"
    }
   ],
   "linker_set_key" : "_ZTI48camera_metadata_enum_android_control_effect_mode",
   "name" : "camera_metadata_enum_android_control_effect_mode",
   "referenced_type" : "_ZTI48camera_metadata_enum_android_control_effect_mode",
   "self_type" : "_ZTI48camera_metadata_enum_android_control_effect_mode",
   "size" : 4,
   "source_file" : "/system/media/camera/include/system/camera_metadata_tags.h",
   "underlying_type" : "_ZTIj"
  },
  {
   "alignment" : 4,
   "enum_fields" :
   [
    {
     "enum_field_value" : 0,
     "name" : "ANDROID_HEIC_INFO_SUPPORTED_FALSE"
    },
    {
     "enum_field_value" : 1,
     "name" : "ANDROID_HEIC_INFO_SUPPORTED_TRUE"
    }
   ],
   "linker_set_key" : "_ZTI48camera_metadata_enum_android_heic_info_supported",
   "name" : "camera_metadata_enum_android_heic_info_supported",
   "referenced_type" : "_ZTI48camera_metadata_enum_android_heic_info_supported",
   "self_type" : "_ZTI48camera_metadata_enum_android_heic_info_supported",
   "size" : 4,
   "source_file" : "/system/media/camera/include/system/camera_metadata_tags.h",
   "underlying_type" : "_ZTIj"
  },
  {
   "alignment" : 4,
   "enum_fields" :
   [
    {
     "enum_field_value" : 0,
     "name" : "ANDROID_LENS_POSE_REFERENCE_PRIMARY_CAMERA"
    },
    {
     "enum_field_value" : 1,
     "name" : "ANDROID_LENS_POSE_REFERENCE_GYROSCOPE"
    },
    {
     "enum_field_value" : 2,
     "name" : "ANDROID_LENS_POSE_REFERENCE_UNDEFINED"
    }
   ],
   "linker_set_key" : "_ZTI48camera_metadata_enum_android_lens_pose_reference",
   "name" : "camera_metadata_enum_android_lens_pose_reference",
   "referenced_type" : "_ZTI48camera_metadata_enum_android_lens_pose_reference",
   "self_type" : "_ZTI48camera_metadata_enum_android_lens_pose_reference",
   "size" : 4,
   "source_file" : "/system/media/camera/include/system/camera_metadata_tags.h",
   "underlying_type" : "_ZTIj"
  },
  {
   "alignment" : 4,
   "enum_fields" :
   [
    {
     "enum_field_value" : 0,
     "name" : "ANDROID_FLASH_INFO_AVAILABLE_FALSE"
    },
    {
     "enum_field_value" : 1,
     "name" : "ANDROID_FLASH_INFO_AVAILABLE_TRUE"
    }
   ],
   "linker_set_key" : "_ZTI49camera_metadata_enum_android_flash_info_available",
   "name" : "camera_metadata_enum_android_flash_info_available",
   "referenced_type" : "_ZTI49camera_metadata_enum_android_flash_info_available",
   "self_type" : "_ZTI49camera_metadata_enum_android_flash_info_available",
   "size" : 4,
   "source_file" : "/system/media/camera/include/system/camera_metadata_tags.h",
   "underlying_type" : "_ZTIj"
  },
  {
   "alignment" : 4,
   "enum_fields" :
   [
    {
     "enum_field_value" : 0,
     "name" : "ANDROID_NOISE_REDUCTION_MODE_OFF"
    },
    {
     "enum_field_value" : 1,
     "name" : "ANDROID_NOISE_REDUCTION_MODE_FAST"
    },
    {
     "enum_field_value" : 2,
     "name" : "ANDROID_NOISE_REDUCTION_MODE_HIGH_QUALITY"
    },
    {
     "enum_field_value" : 3,
     "name" : "ANDROID_NOISE_REDUCTION_MODE_MINIMAL"
    },
    {
     "enum_field_value" : 4,
     "name" : "ANDROID_NOISE_REDUCTION_MODE_ZERO_SHUTTER_LAG"
    }
   ],
   "linker_set_key" : "_ZTI49camera_metadata_enum_android_noise_reduction_mode",
   "name" : "camera_metadata_enum_android_noise_reduction_mode",
   "referenced_type" : "_ZTI49camera_metadata_enum_android_noise_reduction_mode",
   "self_type" : "_ZTI49camera_metadata_enum_android_noise_reduction_mode",
   "size" : 4,
   "source_file" : "/system/media/camera/include/system/camera_metadata_tags.h",
   "underlying_type" : "_ZTIj"
  },
  {
   "alignment" : 4,
   "enum_fields" :
   [
    {
     "enum_field_value" : 0,
     "name" : "ANDROID_SCALER_CROPPING_TYPE_CENTER_ONLY"
    },
    {
     "enum_field_value" : 1,
     "name" : "ANDROID_SCALER_CROPPING_TYPE_FREEFORM"
    }
   ],
   "linker_set_key" : "_ZTI49camera_metadata_enum_android_scaler_cropping_type",
   "name" : "camera_metadata_enum_android_scaler_cropping_type",
   "referenced_type" : "_ZTI49camera_metadata_enum_android_scaler_cropping_type",
   "self_type" : "_ZTI49camera_metadata_enum_android_scaler_cropping_type",
   "size" : 4,
   "source_file" : "/system/media/camera/include/system/camera_metadata_tags.h",
   "underlying_type" : "_ZTIj"
  },
  {
   "alignment" : 4,
   "enum_fields" :
   [
    {
     "enum_field_value" : 0,
     "name" : "ANDROID_TONEMAP_PRESET_CURVE_SRGB"
    },
    {
     "enum_field_value" : 1,
     "name" : "ANDROID_TONEMAP_PRESET_CURVE_REC709"
    }
   ],
   "linker_set_key" : "_ZTI49camera_metadata_enum_android_tonemap_preset_curve",
   "name" : "camera_metadata_enum_android_tonemap_preset_curve",
   "referenced_type" : "_ZTI49camera_metadata_enum_android_tonemap_preset_curve",
   "self_type" : "_ZTI49camera_metadata_enum_android_tonemap_preset_curve",
   "size" : 4,
   "source_file" : "/system/media/camera/include/system/camera_metadata_tags.h",
   "underlying_type" : "_ZTIj"
  },
  {
   "alignment" : 4,
   "enum_fields" :
   [
    {
     "enum_field_value" : 0,
     "name" : "ANDROID_COLOR_CORRECTION_MODE_TRANSFORM_MATRIX"
    },
    {
     "enum_field_value" : 1,
     "name" : "ANDROID_COLOR_CORRECTION_MODE_FAST"
    },
    {
     "enum_field_value" : 2,
     "name" : "ANDROID_COLOR_CORRECTION_MODE_HIGH_QUALITY"
    }
   ],
   "linker_set_key" : "_ZTI50camera_metadata_enum_android_color_correction_mode",
   "name" : "camera_metadata_enum_android_color_correction_mode",
   "referenced_type" : "_ZTI50camera_metadata_enum_android_color_correction_mode",
   "self_type" : "_ZTI50camera_metadata_enum_android_color_correction_mode",
   "size" : 4,
   "source_file" : "/system/media/camera/include/system/camera_metadata_tags.h",
   "underlying_type" : "_ZTIj"
  },
  {
   "alignment" : 4,
   "enum_fields" :
   [
    {
     "enum_field_value" : 0,
     "name" : "ANDROID_QUIRKS_PARTIAL_RESULT_FINAL"
    },
    {
     "enum_field_value" : 1,
     "name" : "ANDROID_QUIRKS_PARTIAL_RESULT_PARTIAL"
    }
   ],
   "linker_set_key" : "_ZTI50camera_metadata_enum_android_quirks_partial_result",
   "name" : "camera_metadata_enum_android_quirks_partial_result",
   "referenced_type" : "_ZTI50camera_metadata_enum_android_quirks_partial_result",
   "self_type" : "_ZTI50camera_metadata_enum_android_quirks_partial_result",
   "size" : 4,
   "source_file" : "/system/media/camera/include/system/camera_metadata_tags.h",
   "underlying_type" : "_ZTIj"
  },
  {
   "alignment" : 4,
   "enum_fields" :
   [
    {
     "enum_field_value" : 0,
     "name" : "ANDROID_REQUEST_METADATA_MODE_NONE"
    },
    {
     "enum_field_value" : 1,
     "name" : "ANDROID_REQUEST_METADATA_MODE_FULL"
    }
   ],
   "linker_set_key" : "_ZTI50camera_metadata_enum_android_request_metadata_mode",
   "name" : "camera_metadata_enum_android_request_metadata_mode",
   "referenced_type" : "_ZTI50camera_metadata_enum_android_request_metadata_mode",
   "self_type" : "_ZTI50camera_metadata_enum_android_request_metadata_mode",
   "size" : 4,
   "source_file" : "/system/media/camera/include/system/camera_metadata_tags.h",
   "underlying_type" : "_ZTIj"
  },
  {
   "alignment" : 4,
   "enum_fields" :
   [
    {
     "enum_field_value" : 0,
     "name" : "ANDROID_CONTROL_CAPTURE_INTENT_CUSTOM"
    },
    {
     "enum_field_value" : 1,
     "name" : "ANDROID_CONTROL_CAPTURE_INTENT_PREVIEW"
    },
    {
     "enum_field_value" : 2,
     "name" : "ANDROID_CONTROL_CAPTURE_INTENT_STILL_CAPTURE"
    },
    {
     "enum_field_value" : 3,
     "name" : "ANDROID_CONTROL_CAPTURE_INTENT_VIDEO_RECORD"
    },
    {
     "enum_field_value" : 4,
     "name" : "ANDROID_CONTROL_CAPTURE_INTENT_VIDEO_SNAPSHOT"
    },
    {
     "enum_field_value" : 5,
     "name" : "ANDROID_CONTROL_CAPTURE_INTENT_ZERO_SHUTTER_LAG"
    },
    {
     "enum_field_value" : 6,
     "name" : "ANDROID_CONTROL_CAPTURE_INTENT_MANUAL"
    },
    {
     "enum_field_value" : 7,
     "name" : "ANDROID_CONTROL_CAPTURE_INTENT_MOTION_TRACKING"
    }
   ],
   "linker_set_key" : "_ZTI51camera_metadata_enum_android_control_capture_intent",
   "name" : "camera_metadata_enum_android_control_capture_intent",
   "referenced_type" : "_ZTI51camera_metadata_enum_android_control_capture_intent",
   "self_type" : "_ZTI51camera_metadata_enum_android_control_capture_intent",
   "size" : 4,
   "source_file" : "/system/media/camera/include/system/camera_metadata_tags.h",
   "underlying_type" : "_ZTIj"
  },
  {
   "alignment" : 4,
   "enum_fields" :
   [
    {
     "enum_field_value" : 0,
     "name" : "ANDROID_SCALER_ROTATE_AND_CROP_NONE"
    },
    {
     "enum_field_value" : 1,
     "name" : "ANDROID_SCALER_ROTATE_AND_CROP_90"
    },
    {
     "enum_field_value" : 2,
     "name" : "ANDROID_SCALER_ROTATE_AND_CROP_180"
    },
    {
     "enum_field_value" : 3,
     "name" : "ANDROID_SCALER_ROTATE_AND_CROP_270"
    },
    {
     "enum_field_value" : 4,
     "name" : "ANDROID_SCALER_ROTATE_AND_CROP_AUTO"
    }
   ],
   "linker_set_key" : "_ZTI51camera_metadata_enum_android_scaler_rotate_and_crop",
   "name" : "camera_metadata_enum_android_scaler_rotate_and_crop",
   "referenced_type" : "_ZTI51camera_metadata_enum_android_scaler_rotate_and_crop",
   "self_type" : "_ZTI51camera_metadata_enum_android_scaler_rotate_and_crop",
   "size" : 4,
   "source_file" : "/system/media/camera/include/system/camera_metadata_tags.h",
   "underlying_type" : "_ZTIj"
  },
  {
   "alignment" : 4,
   "enum_fields" :
   [
    {
     "enum_field_value" : 0,
     "name" : "ANDROID_CONTROL_AF_SCENE_CHANGE_NOT_DETECTED"
    },
    {
     "enum_field_value" : 1,
     "name" : "ANDROID_CONTROL_AF_SCENE_CHANGE_DETECTED"
    }
   ],
   "linker_set_key" : "_ZTI52camera_metadata_enum_android_control_af_scene_change",
   "name" : "camera_metadata_enum_android_control_af_scene_change",
   "referenced_type" : "_ZTI52camera_metadata_enum_android_control_af_scene_change",
   "self_type" : "_ZTI52camera_metadata_enum_android_control_af_scene_change",
   "size" : 4,
   "source_file" : "/system/media/camera/include/system/camera_metadata_tags.h",
   "underlying_type" : "_ZTIj"
  },
  {
   "alignment" : 4,
   "enum_fields" :
   [
    {
     "enum_field_value" : 0,
     "name" : "ANDROID_DEPTH_DEPTH_IS_EXCLUSIVE_FALSE"
    },
    {
     "enum_field_value" : 1,
     "name" : "ANDROID_DEPTH_DEPTH_IS_EXCLUSIVE_TRUE"
    }
   ],
   "linker_set_key" : "_ZTI53camera_metadata_enum_android_depth_depth_is_exclusive",
   "name" : "camera_metadata_enum_android_depth_depth_is_exclusive",
   "referenced_type" : "_ZTI53camera_metadata_enum_android_depth_depth_is_exclusive",
   "self_type" : "_ZTI53camera_metadata_enum_android_depth_depth_is_exclusive",
   "size" : 4,
   "source_file" : "/system/media/camera/include/system/camera_metadata_tags.h",
   "underlying_type" : "_ZTIj"
  },
  {
   "alignment" : 4,
   "enum_fields" :
   [
    {
     "enum_field_value" : 32,
     "name" : "ANDROID_SCALER_AVAILABLE_FORMATS_RAW16"
    },
    {
     "enum_field_value" : 36,
     "name" : "ANDROID_SCALER_AVAILABLE_FORMATS_RAW_OPAQUE"
    },
    {
     "enum_field_value" : 842094169,
     "name" : "ANDROID_SCALER_AVAILABLE_FORMATS_YV12"
    },
    {
     "enum_field_value" : 17,
     "name" : "ANDROID_SCALER_AVAILABLE_FORMATS_YCrCb_420_SP"
    },
    {
     "enum_field_value" : 34,
     "name" : "ANDROID_SCALER_AVAILABLE_FORMATS_IMPLEMENTATION_DEFINED"
    },
    {
     "enum_field_value" : 35,
     "name" : "ANDROID_SCALER_AVAILABLE_FORMATS_YCbCr_420_888"
    },
    {
     "enum_field_value" : 33,
     "name" : "ANDROID_SCALER_AVAILABLE_FORMATS_BLOB"
    },
    {
     "enum_field_value" : 37,
     "name" : "ANDROID_SCALER_AVAILABLE_FORMATS_RAW10"
    },
    {
     "enum_field_value" : 38,
     "name" : "ANDROID_SCALER_AVAILABLE_FORMATS_RAW12"
    },
    {
     "enum_field_value" : 538982489,
     "name" : "ANDROID_SCALER_AVAILABLE_FORMATS_Y8"
    }
   ],
   "linker_set_key" : "_ZTI53camera_metadata_enum_android_scaler_available_formats",
   "name" : "camera_metadata_enum_android_scaler_available_formats",
   "referenced_type" : "_ZTI53camera_metadata_enum_android_scaler_available_formats",
   "self_type" : "_ZTI53camera_metadata_enum_android_scaler_available_formats",
   "size" : 4,
   "source_file" : "/system/media/camera/include/system/camera_metadata_tags.h",
   "underlying_type" : "_ZTIj"
  },
  {
   "alignment" : 4,
   "enum_fields" :
   [
    {
     "enum_field_value" : 0,
     "name" : "ANDROID_SENSOR_TEST_PATTERN_MODE_OFF"
    },
    {
     "enum_field_value" : 1,
     "name" : "ANDROID_SENSOR_TEST_PATTERN_MODE_SOLID_COLOR"
    },
    {
     "enum_field_value" : 2,
     "name" : "ANDROID_SENSOR_TEST_PATTERN_MODE_COLOR_BARS"
    },
    {
     "enum_field_value" : 3,
     "name" : "ANDROID_SENSOR_TEST_PATTERN_MODE_COLOR_BARS_FADE_TO_GRAY"
    },
    {
     "enum_field_value" : 4,
     "name" : "ANDROID_SENSOR_TEST_PATTERN_MODE_PN9"
    },
    {
     "enum_field_value" : 256,
     "name" : "ANDROID_SENSOR_TEST_PATTERN_MODE_CUSTOM1"
    }
   ],
   "linker_set_key" : "_ZTI53camera_metadata_enum_android_sensor_test_pattern_mode",
   "name" : "camera_metadata_enum_android_sensor_test_pattern_mode",
   "referenced_type" : "_ZTI53camera_metadata_enum_android_sensor_test_pattern_mode",
   "self_type" : "_ZTI53camera_metadata_enum_android_sensor_test_pattern_mode",
   "size" : 4,
   "source_file" : "/system/media/camera/include/system/camera_metadata_tags.h",
   "underlying_type" : "_ZTIj"
  },
  {
   "alignment" : 4,
   "enum_fields" :
   [
    {
     "enum_field_value" : 0,
     "name" : "ANDROID_STATISTICS_OIS_DATA_MODE_OFF"
    },
    {
     "enum_field_value" : 1,
     "name" : "ANDROID_STATISTICS_OIS_DATA_MODE_ON"
    }
   ],
   "linker_set_key" : "_ZTI53camera_metadata_enum_android_statistics_ois_data_mode",
   "name" : "camera_metadata_enum_android_statistics_ois_data_mode",
   "referenced_type" : "_ZTI53camera_metadata_enum_android_statistics_ois_data_mode",
   "self_type" : "_ZTI53camera_metadata_enum_android_statistics_ois_data_mode",
   "size" : 4,
   "source_file" : "/system/media/camera/include/system/camera_metadata_tags.h",
   "underlying_type" : "_ZTIj"
  },
  {
   "alignment" : 4,
   "enum_fields" :
   [
    {
     "enum_field_value" : 0,
     "name" : "ANDROID_STATISTICS_SCENE_FLICKER_NONE"
    },
    {
     "enum_field_value" : 1,
     "name" : "ANDROID_STATISTICS_SCENE_FLICKER_50HZ"
    },
    {
     "enum_field_value" : 2,
     "name" : "ANDROID_STATISTICS_SCENE_FLICKER_60HZ"
    }
   ],
   "linker_set_key" : "_ZTI53camera_metadata_enum_android_statistics_scene_flicker",
   "name" : "camera_metadata_enum_android_statistics_scene_flicker",
   "referenced_type" : "_ZTI53camera_metadata_enum_android_statistics_scene_flicker",
   "self_type" : "_ZTI53camera_metadata_enum_android_statistics_scene_flicker",
   "size" : 4,
   "source_file" : "/system/media/camera/include/system/camera_metadata_tags.h",
   "underlying_type" : "_ZTIj"
  },
  {
   "alignment" : 4,
   "enum_fields" :
   [
    {
     "enum_field_value" : 0,
     "name" : "ANDROID_CONTROL_AE_LOCK_AVAILABLE_FALSE"
    },
    {
     "enum_field_value" : 1,
     "name" : "ANDROID_CONTROL_AE_LOCK_AVAILABLE_TRUE"
    }
   ],
   "linker_set_key" : "_ZTI54camera_metadata_enum_android_control_ae_lock_available",
   "name" : "camera_metadata_enum_android_control_ae_lock_available",
   "referenced_type" : "_ZTI54camera_metadata_enum_android_control_ae_lock_available",
   "self_type" : "_ZTI54camera_metadata_enum_android_control_ae_lock_available",
   "size" : 4,
   "source_file" : "/system/media/camera/include/system/camera_metadata_tags.h",
   "underlying_type" : "_ZTIj"
  },
  {
   "alignment" : 4,
   "enum_fields" :
   [
    {
     "enum_field_value" : 0,
     "name" : "ANDROID_STATISTICS_HISTOGRAM_MODE_OFF"
    },
    {
     "enum_field_value" : 1,
     "name" : "ANDROID_STATISTICS_HISTOGRAM_MODE_ON"
    }
   ],
   "linker_set_key" : "_ZTI54camera_metadata_enum_android_statistics_histogram_mode",
   "name" : "camera_metadata_enum_android_statistics_histogram_mode",
   "referenced_type" : "_ZTI54camera_metadata_enum_android_statistics_histogram_mode",
   "self_type" : "_ZTI54camera_metadata_enum_android_statistics_histogram_mode",
   "size" : 4,
   "source_file" : "/system/media/camera/include/system/camera_metadata_tags.h",
   "underlying_type" : "_ZTIj"
  },
  {
   "alignment" : 4,
   "enum_fields" :
   [
    {
     "enum_field_value" : 0,
     "name" : "ANDROID_CONTROL_AWB_LOCK_AVAILABLE_FALSE"
    },
    {
     "enum_field_value" : 1,
     "name" : "ANDROID_CONTROL_AWB_LOCK_AVAILABLE_TRUE"
    }
   ],
   "linker_set_key" : "_ZTI55camera_metadata_enum_android_control_awb_lock_available",
   "name" : "camera_metadata_enum_android_control_awb_lock_available",
   "referenced_type" : "_ZTI55camera_metadata_enum_android_control_awb_lock_available",
   "self_type" : "_ZTI55camera_metadata_enum_android_control_awb_lock_available",
   "size" : 4,
   "source_file" : "/system/media/camera/include/system/camera_metadata_tags.h",
   "underlying_type" : "_ZTIj"
  },
  {
   "alignment" : 4,
   "enum_fields" :
   [
    {
     "enum_field_value" : 0,
     "name" : "ANDROID_DISTORTION_CORRECTION_MODE_OFF"
    },
    {
     "enum_field_value" : 1,
     "name" : "ANDROID_DISTORTION_CORRECTION_MODE_FAST"
    },
    {
     "enum_field_value" : 2,
     "name" : "ANDROID_DISTORTION_CORRECTION_MODE_HIGH_QUALITY"
    }
   ],
   "linker_set_key" : "_ZTI55camera_metadata_enum_android_distortion_correction_mode",
   "name" : "camera_metadata_enum_android_distortion_correction_mode",
   "referenced_type" : "_ZTI55camera_metadata_enum_android_distortion_correction_mode",
   "self_type" : "_ZTI55camera_metadata_enum_android_distortion_correction_mode",
   "size" : 4,
   "source_file" : "/system/media/camera/include/system/camera_metadata_tags.h",
   "underlying_type" : "_ZTIj"
  },
  {
   "alignment" : 4,
   "enum_fields" :
   [
    {
     "enum_field_value" : 0,
     "name" : "ANDROID_CONTROL_AE_ANTIBANDING_MODE_OFF"
    },
    {
     "enum_field_value" : 1,
     "name" : "ANDROID_CONTROL_AE_ANTIBANDING_MODE_50HZ"
    },
    {
     "enum_field_value" : 2,
     "name" : "ANDROID_CONTROL_AE_ANTIBANDING_MODE_60HZ"
    },
    {
     "enum_field_value" : 3,
     "name" : "ANDROID_CONTROL_AE_ANTIBANDING_MODE_AUTO"
    }
   ],
   "linker_set_key" : "_ZTI56camera_metadata_enum_android_control_ae_antibanding_mode",
   "name" : "camera_metadata_enum_android_control_ae_antibanding_mode",
   "referenced_type" : "_ZTI56camera_metadata_enum_android_control_ae_antibanding_mode",
   "self_type" : "_ZTI56camera_metadata_enum_android_control_ae_antibanding_mode",
   "size" : 4,
   "source_file" : "/system/media/camera/include/system/camera_metadata_tags.h",
   "underlying_type" : "_ZTIj"
  },
  {
   "alignment" : 4,
   "enum_fields" :
   [
    {
     "enum_field_value" : 0,
     "name" : "ANDROID_CONTROL_EXTENDED_SCENE_MODE_DISABLED"
    },
    {
     "enum_field_value" : 1,
     "name" : "ANDROID_CONTROL_EXTENDED_SCENE_MODE_BOKEH_STILL_CAPTURE"
    },
    {
     "enum_field_value" : 2,
     "name" : "ANDROID_CONTROL_EXTENDED_SCENE_MODE_BOKEH_CONTINUOUS"
    },
    {
     "enum_field_value" : 64,
     "name" : "ANDROID_CONTROL_EXTENDED_SCENE_MODE_VENDOR_START"
    }
   ],
   "linker_set_key" : "_ZTI56camera_metadata_enum_android_control_extended_scene_mode",
   "name" : "camera_metadata_enum_android_control_extended_scene_mode",
   "referenced_type" : "_ZTI56camera_metadata_enum_android_control_extended_scene_mode",
   "self_type" : "_ZTI56camera_metadata_enum_android_control_extended_scene_mode",
   "size" : 4,
   "source_file" : "/system/media/camera/include/system/camera_metadata_tags.h",
   "underlying_type" : "_ZTIj"
  },
  {
   "alignment" : 4,
   "enum_fields" :
   [
    {
     "enum_field_value" : 0,
     "name" : "ANDROID_STATISTICS_FACE_DETECT_MODE_OFF"
    },
    {
     "enum_field_value" : 1,
     "name" : "ANDROID_STATISTICS_FACE_DETECT_MODE_SIMPLE"
    },
    {
     "enum_field_value" : 2,
     "name" : "ANDROID_STATISTICS_FACE_DETECT_MODE_FULL"
    }
   ],
   "linker_set_key" : "_ZTI56camera_metadata_enum_android_statistics_face_detect_mode",
   "name" : "camera_metadata_enum_android_statistics_face_detect_mode",
   "referenced_type" : "_ZTI56camera_metadata_enum_android_statistics_face_detect_mode",
   "self_type" : "_ZTI56camera_metadata_enum_android_statistics_face_detect_mode",
   "size" : 4,
   "source_file" : "/system/media/camera/include/system/camera_metadata_tags.h",
   "underlying_type" : "_ZTIj"
  },
  {
   "alignment" : 4,
   "enum_fields" :
   [
    {
     "enum_field_value" : 0,
     "name" : "ANDROID_SENSOR_INFO_TIMESTAMP_SOURCE_UNKNOWN"
    },
    {
     "enum_field_value" : 1,
     "name" : "ANDROID_SENSOR_INFO_TIMESTAMP_SOURCE_REALTIME"
    }
   ],
   "linker_set_key" : "_ZTI57camera_metadata_enum_android_sensor_info_timestamp_source",
   "name" : "camera_metadata_enum_android_sensor_info_timestamp_source",
   "referenced_type" : "_ZTI57camera_metadata_enum_android_sensor_info_timestamp_source",
   "self_type" : "_ZTI57camera_metadata_enum_android_sensor_info_timestamp_source",
   "size" : 4,
   "source_file" : "/system/media/camera/include/system/camera_metadata_tags.h",
   "underlying_type" : "_ZTIj"
  },
  {
   "alignment" : 4,
   "enum_fields" :
   [
    {
     "enum_field_value" : 1,
     "name" : "ANDROID_SENSOR_REFERENCE_ILLUMINANT1_DAYLIGHT"
    },
    {
     "enum_field_value" : 2,
     "name" : "ANDROID_SENSOR_REFERENCE_ILLUMINANT1_FLUORESCENT"
    },
    {
     "enum_field_value" : 3,
     "name" : "ANDROID_SENSOR_REFERENCE_ILLUMINANT1_TUNGSTEN"
    },
    {
     "enum_field_value" : 4,
     "name" : "ANDROID_SENSOR_REFERENCE_ILLUMINANT1_FLASH"
    },
    {
     "enum_field_value" : 9,
     "name" : "ANDROID_SENSOR_REFERENCE_ILLUMINANT1_FINE_WEATHER"
    },
    {
     "enum_field_value" : 10,
     "name" : "ANDROID_SENSOR_REFERENCE_ILLUMINANT1_CLOUDY_WEATHER"
    },
    {
     "enum_field_value" : 11,
     "name" : "ANDROID_SENSOR_REFERENCE_ILLUMINANT1_SHADE"
    },
    {
     "enum_field_value" : 12,
     "name" : "ANDROID_SENSOR_REFERENCE_ILLUMINANT1_DAYLIGHT_FLUORESCENT"
    },
    {
     "enum_field_value" : 13,
     "name" : "ANDROID_SENSOR_REFERENCE_ILLUMINANT1_DAY_WHITE_FLUORESCENT"
    },
    {
     "enum_field_value" : 14,
     "name" : "ANDROID_SENSOR_REFERENCE_ILLUMINANT1_COOL_WHITE_FLUORESCENT"
    },
    {
     "enum_field_value" : 15,
     "name" : "ANDROID_SENSOR_REFERENCE_ILLUMINANT1_WHITE_FLUORESCENT"
    },
    {
     "enum_field_value" : 17,
     "name" : "ANDROID_SENSOR_REFERENCE_ILLUMINANT1_STANDARD_A"
    },
    {
     "enum_field_value" : 18,
     "name" : "ANDROID_SENSOR_REFERENCE_ILLUMINANT1_STANDARD_B"
    },
    {
     "enum_field_value" : 19,
     "name" : "ANDROID_SENSOR_REFERENCE_ILLUMINANT1_STANDARD_C"
    },
    {
     "enum_field_value" : 20,
     "name" : "ANDROID_SENSOR_REFERENCE_ILLUMINANT1_D55"
    },
    {
     "enum_field_value" : 21,
     "name" : "ANDROID_SENSOR_REFERENCE_ILLUMINANT1_D65"
    },
    {
     "enum_field_value" : 22,
     "name" : "ANDROID_SENSOR_REFERENCE_ILLUMINANT1_D75"
    },
    {
     "enum_field_value" : 23,
     "name" : "ANDROID_SENSOR_REFERENCE_ILLUMINANT1_D50"
    },
    {
     "enum_field_value" : 24,
     "name" : "ANDROID_SENSOR_REFERENCE_ILLUMINANT1_ISO_STUDIO_TUNGSTEN"
    }
   ],
   "linker_set_key" : "_ZTI57camera_metadata_enum_android_sensor_reference_illuminant1",
   "name" : "camera_metadata_enum_android_sensor_reference_illuminant1",
   "referenced_type" : "_ZTI57camera_metadata_enum_android_sensor_reference_illuminant1",
   "self_type" : "_ZTI57camera_metadata_enum_android_sensor_reference_illuminant1",
   "size" : 4,
   "source_file" : "/system/media/camera/include/system/camera_metadata_tags.h",
   "underlying_type" : "_ZTIj"
  },
  {
   "alignment" : 4,
   "enum_fields" :
   [
    {
     "enum_field_value" : 0,
     "name" : "ANDROID_CONTROL_AE_PRECAPTURE_TRIGGER_IDLE"
    },
    {
     "enum_field_value" : 1,
     "name" : "ANDROID_CONTROL_AE_PRECAPTURE_TRIGGER_START"
    },
    {
     "enum_field_value" : 2,
     "name" : "ANDROID_CONTROL_AE_PRECAPTURE_TRIGGER_CANCEL"
    }
   ],
   "linker_set_key" : "_ZTI58camera_metadata_enum_android_control_ae_precapture_trigger",
   "name" : "camera_metadata_enum_android_control_ae_precapture_trigger",
   "referenced_type" : "_ZTI58camera_metadata_enum_android_control_ae_precapture_trigger",
   "self_type" : "_ZTI58camera_metadata_enum_android_control_ae_precapture_trigger",
   "size" : 4,
   "source_file" : "/system/media/camera/include/system/camera_metadata_tags.h",
   "underlying_type" : "_ZTIj"
  },
  {
   "alignment" : 4,
   "enum_fields" :
   [
    {
     "enum_field_value" : 0,
     "name" : "ANDROID_INFO_SUPPORTED_HARDWARE_LEVEL_LIMITED"
    },
    {
     "enum_field_value" : 1,
     "name" : "ANDROID_INFO_SUPPORTED_HARDWARE_LEVEL_FULL"
    },
    {
     "enum_field_value" : 2,
     "name" : "ANDROID_INFO_SUPPORTED_HARDWARE_LEVEL_LEGACY"
    },
    {
     "enum_field_value" : 3,
     "name" : "ANDROID_INFO_SUPPORTED_HARDWARE_LEVEL_3"
    },
    {
     "enum_field_value" : 4,
     "name" : "ANDROID_INFO_SUPPORTED_HARDWARE_LEVEL_EXTERNAL"
    }
   ],
   "linker_set_key" : "_ZTI58camera_metadata_enum_android_info_supported_hardware_level",
   "name" : "camera_metadata_enum_android_info_supported_hardware_level",
   "referenced_type" : "_ZTI58camera_metadata_enum_android_info_supported_hardware_level",
   "self_type" : "_ZTI58camera_metadata_enum_android_info_supported_hardware_level",
   "size" : 4,
   "source_file" : "/system/media/camera/include/system/camera_metadata_tags.h",
   "underlying_type" : "_ZTIj"
  },
  {
   "alignment" : 4,
   "enum_fields" :
   [
    {
     "enum_field_value" : 0,
     "name" : "ANDROID_STATISTICS_HOT_PIXEL_MAP_MODE_OFF"
    },
    {
     "enum_field_value" : 1,
     "name" : "ANDROID_STATISTICS_HOT_PIXEL_MAP_MODE_ON"
    }
   ],
   "linker_set_key" : "_ZTI58camera_metadata_enum_android_statistics_hot_pixel_map_mode",
   "name" : "camera_metadata_enum_android_statistics_hot_pixel_map_mode",
   "referenced_type" : "_ZTI58camera_metadata_enum_android_statistics_hot_pixel_map_mode",
   "self_type" : "_ZTI58camera_metadata_enum_android_statistics_hot_pixel_map_mode",
   "size" : 4,
   "source_file" : "/system/media/camera/include/system/camera_metadata_tags.h",
   "underlying_type" : "_ZTIj"
  },
  {
   "alignment" : 4,
   "enum_fields" :
   [
    {
     "enum_field_value" : 0,
     "name" : "ANDROID_STATISTICS_SHARPNESS_MAP_MODE_OFF"
    },
    {
     "enum_field_value" : 1,
     "name" : "ANDROID_STATISTICS_SHARPNESS_MAP_MODE_ON"
    }
   ],
   "linker_set_key" : "_ZTI58camera_metadata_enum_android_statistics_sharpness_map_mode",
   "name" : "camera_metadata_enum_android_statistics_sharpness_map_mode",
   "referenced_type" : "_ZTI58camera_metadata_enum_android_statistics_sharpness_map_mode",
   "self_type" : "_ZTI58camera_metadata_enum_android_statistics_sharpness_map_mode",
   "size" : 4,
   "source_file" : "/system/media/camera/include/system/camera_metadata_tags.h",
   "underlying_type" : "_ZTIj"
  },
  {
   "alignment" : 4,
   "enum_fields" :
   [
    {
     "enum_field_value" : 0,
     "name" : "ANDROID_REQUEST_AVAILABLE_CAPABILITIES_BACKWARD_COMPATIBLE"
    },
    {
     "enum_field_value" : 1,
     "name" : "ANDROID_REQUEST_AVAILABLE_CAPABILITIES_MANUAL_SENSOR"
    },
    {
     "enum_field_value" : 2,
     "name" : "ANDROID_REQUEST_AVAILABLE_CAPABILITIES_MANUAL_POST_PROCESSING"
    },
    {
     "enum_field_value" : 3,
     "name" : "ANDROID_REQUEST_AVAILABLE_CAPABILITIES_RAW"
    },
    {
     "enum_field_value" : 4,
     "name" : "ANDROID_REQUEST_AVAILABLE_CAPABILITIES_PRIVATE_REPROCESSING"
    },
    {
     "enum_field_value" : 5,
     "name" : "ANDROID_REQUEST_AVAILABLE_CAPABILITIES_READ_SENSOR_SETTINGS"
    },
    {
     "enum_field_value" : 6,
     "name" : "ANDROID_REQUEST_AVAILABLE_CAPABILITIES_BURST_CAPTURE"
    },
    {
     "enum_field_value" : 7,
     "name" : "ANDROID_REQUEST_AVAILABLE_CAPABILITIES_YUV_REPROCESSING"
    },
    {
     "enum_field_value" : 8,
     "name" : "ANDROID_REQUEST_AVAILABLE_CAPABILITIES_DEPTH_OUTPUT"
    },
    {
     "enum_field_value" : 9,
     "name" : "ANDROID_REQUEST_AVAILABLE_CAPABILITIES_CONSTRAINED_HIGH_SPEED_VIDEO"
    },
    {
     "enum_field_value" : 10,
     "name" : "ANDROID_REQUEST_AVAILABLE_CAPABILITIES_MOTION_TRACKING"
    },
    {
     "enum_field_value" : 11,
     "name" : "ANDROID_REQUEST_AVAILABLE_CAPABILITIES_LOGICAL_MULTI_CAMERA"
    },
    {
     "enum_field_value" : 12,
     "name" : "ANDROID_REQUEST_AVAILABLE_CAPABILITIES_MONOCHROME"
    },
    {
     "enum_field_value" : 13,
     "name" : "ANDROID_REQUEST_AVAILABLE_CAPABILITIES_SECURE_IMAGE_DATA"
    },
    {
     "enum_field_value" : 14,
     "name" : "ANDROID_REQUEST_AVAILABLE_CAPABILITIES_SYSTEM_CAMERA"
    },
    {
     "enum_field_value" : 15,
     "name" : "ANDROID_REQUEST_AVAILABLE_CAPABILITIES_OFFLINE_PROCESSING"
    }
   ],
   "linker_set_key" : "_ZTI59camera_metadata_enum_android_request_available_capabilities",
   "name" : "camera_metadata_enum_android_request_available_capabilities",
   "referenced_type" : "_ZTI59camera_metadata_enum_android_request_available_capabilities",
   "self_type" : "_ZTI59camera_metadata_enum_android_request_available_capabilities",
   "size" : 4,
   "source_file" : "/system/media/camera/include/system/camera_metadata_tags.h",
   "underlying_type" : "_ZTIj"
  },
  {
   "alignment" : 4,
   "enum_fields" :
   [
    {
     "enum_field_value" : 0,
     "name" : "ANDROID_LENS_OPTICAL_STABILIZATION_MODE_OFF"
    },
    {
     "enum_field_value" : 1,
     "name" : "ANDROID_LENS_OPTICAL_STABILIZATION_MODE_ON"
    }
   ],
   "linker_set_key" : "_ZTI60camera_metadata_enum_android_lens_optical_stabilization_mode",
   "name" : "camera_metadata_enum_android_lens_optical_stabilization_mode",
   "referenced_type" : "_ZTI60camera_metadata_enum_android_lens_optical_stabilization_mode",
   "self_type" : "_ZTI60camera_metadata_enum_android_lens_optical_stabilization_mode",
   "size" : 4,
   "source_file" : "/system/media/camera/include/system/camera_metadata_tags.h",
   "underlying_type" : "_ZTIj"
  },
  {
   "alignment" : 4,
   "enum_fields" :
   [
    {
     "enum_field_value" : 0,
     "name" : "ANDROID_COLOR_CORRECTION_ABERRATION_MODE_OFF"
    },
    {
     "enum_field_value" : 1,
     "name" : "ANDROID_COLOR_CORRECTION_ABERRATION_MODE_FAST"
    },
    {
     "enum_field_value" : 2,
     "name" : "ANDROID_COLOR_CORRECTION_ABERRATION_MODE_HIGH_QUALITY"
    }
   ],
   "linker_set_key" : "_ZTI61camera_metadata_enum_android_color_correction_aberration_mode",
   "name" : "camera_metadata_enum_android_color_correction_aberration_mode",
   "referenced_type" : "_ZTI61camera_metadata_enum_android_color_correction_aberration_mode",
   "self_type" : "_ZTI61camera_metadata_enum_android_color_correction_aberration_mode",
   "size" : 4,
   "source_file" : "/system/media/camera/include/system/camera_metadata_tags.h",
   "underlying_type" : "_ZTIj"
  },
  {
   "alignment" : 4,
   "enum_fields" :
   [
    {
     "enum_field_value" : 0,
     "name" : "ANDROID_CONTROL_VIDEO_STABILIZATION_MODE_OFF"
    },
    {
     "enum_field_value" : 1,
     "name" : "ANDROID_CONTROL_VIDEO_STABILIZATION_MODE_ON"
    }
   ],
   "linker_set_key" : "_ZTI61camera_metadata_enum_android_control_video_stabilization_mode",
   "name" : "camera_metadata_enum_android_control_video_stabilization_mode",
   "referenced_type" : "_ZTI61camera_metadata_enum_android_control_video_stabilization_mode",
   "self_type" : "_ZTI61camera_metadata_enum_android_control_video_stabilization_mode",
   "size" : 4,
   "source_file" : "/system/media/camera/include/system/camera_metadata_tags.h",
   "underlying_type" : "_ZTIj"
  },
  {
   "alignment" : 4,
   "enum_fields" :
   [
    {
     "enum_field_value" : 0,
     "name" : "ANDROID_SENSOR_INFO_LENS_SHADING_APPLIED_FALSE"
    },
    {
     "enum_field_value" : 1,
     "name" : "ANDROID_SENSOR_INFO_LENS_SHADING_APPLIED_TRUE"
    }
   ],
   "linker_set_key" : "_ZTI61camera_metadata_enum_android_sensor_info_lens_shading_applied",
   "name" : "camera_metadata_enum_android_sensor_info_lens_shading_applied",
   "referenced_type" : "_ZTI61camera_metadata_enum_android_sensor_info_lens_shading_applied",
   "self_type" : "_ZTI61camera_metadata_enum_android_sensor_info_lens_shading_applied",
   "size" : 4,
   "source_file" : "/system/media/camera/include/system/camera_metadata_tags.h",
   "underlying_type" : "_ZTIj"
  },
  {
   "alignment" : 4,
   "enum_fields" :
   [
    {
     "enum_field_value" : 0,
     "name" : "ANDROID_STATISTICS_LENS_SHADING_MAP_MODE_OFF"
    },
    {
     "enum_field_value" : 1,
     "name" : "ANDROID_STATISTICS_LENS_SHADING_MAP_MODE_ON"
    }
   ],
   "linker_set_key" : "_ZTI61camera_metadata_enum_android_statistics_lens_shading_map_mode",
   "name" : "camera_metadata_enum_android_statistics_lens_shading_map_mode",
   "referenced_type" : "_ZTI61camera_metadata_enum_android_statistics_lens_shading_map_mode",
   "self_type" : "_ZTI61camera_metadata_enum_android_statistics_lens_shading_map_mode",
   "size" : 4,
   "source_file" : "/system/media/camera/include/system/camera_metadata_tags.h",
   "underlying_type" : "_ZTIj"
  },
  {
   "alignment" : 4,
   "enum_fields" :
   [
    {
     "enum_field_value" : 0,
     "name" : "ANDROID_LENS_INFO_FOCUS_DISTANCE_CALIBRATION_UNCALIBRATED"
    },
    {
     "enum_field_value" : 1,
     "name" : "ANDROID_LENS_INFO_FOCUS_DISTANCE_CALIBRATION_APPROXIMATE"
    },
    {
     "enum_field_value" : 2,
     "name" : "ANDROID_LENS_INFO_FOCUS_DISTANCE_CALIBRATION_CALIBRATED"
    }
   ],
   "linker_set_key" : "_ZTI65camera_metadata_enum_android_lens_info_focus_distance_calibration",
   "name" : "camera_metadata_enum_android_lens_info_focus_distance_calibration",
   "referenced_type" : "_ZTI65camera_metadata_enum_android_lens_info_focus_distance_calibration",
   "self_type" : "_ZTI65camera_metadata_enum_android_lens_info_focus_distance_calibration",
   "size" : 4,
   "source_file" : "/system/media/camera/include/system/camera_metadata_tags.h",
   "underlying_type" : "_ZTIj"
  },
  {
   "alignment" : 4,
   "enum_fields" :
   [
    {
     "enum_field_value" : 0,
     "name" : "ANDROID_SENSOR_INFO_COLOR_FILTER_ARRANGEMENT_RGGB"
    },
    {
     "enum_field_value" : 1,
     "name" : "ANDROID_SENSOR_INFO_COLOR_FILTER_ARRANGEMENT_GRBG"
    },
    {
     "enum_field_value" : 2,
     "name" : "ANDROID_SENSOR_INFO_COLOR_FILTER_ARRANGEMENT_GBRG"
    },
    {
     "enum_field_value" : 3,
     "name" : "ANDROID_SENSOR_INFO_COLOR_FILTER_ARRANGEMENT_BGGR"
    },
    {
     "enum_field_value" : 4,
     "name" : "ANDROID_SENSOR_INFO_COLOR_FILTER_ARRANGEMENT_RGB"
    },
    {
     "enum_field_value" : 5,
     "name" : "ANDROID_SENSOR_INFO_COLOR_FILTER_ARRANGEMENT_MONO"
    },
    {
     "enum_field_value" : 6,
     "name" : "ANDROID_SENSOR_INFO_COLOR_FILTER_ARRANGEMENT_NIR"
    }
   ],
   "linker_set_key" : "_ZTI65camera_metadata_enum_android_sensor_info_color_filter_arrangement",
   "name" : "camera_metadata_enum_android_sensor_info_color_filter_arrangement",
   "referenced_type" : "_ZTI65camera_metadata_enum_android_sensor_info_color_filter_arrangement",
   "self_type" : "_ZTI65camera_metadata_enum_android_sensor_info_color_filter_arrangement",
   "size" : 4,
   "source_file" : "/system/media/camera/include/system/camera_metadata_tags.h",
   "underlying_type" : "_ZTIj"
  },
  {
   "alignment" : 4,
   "enum_fields" :
   [
    {
     "enum_field_value" : 0,
     "name" : "ANDROID_LOGICAL_MULTI_CAMERA_SENSOR_SYNC_TYPE_APPROXIMATE"
    },
    {
     "enum_field_value" : 1,
     "name" : "ANDROID_LOGICAL_MULTI_CAMERA_SENSOR_SYNC_TYPE_CALIBRATED"
    }
   ],
   "linker_set_key" : "_ZTI66camera_metadata_enum_android_logical_multi_camera_sensor_sync_type",
   "name" : "camera_metadata_enum_android_logical_multi_camera_sensor_sync_type",
   "referenced_type" : "_ZTI66camera_metadata_enum_android_logical_multi_camera_sensor_sync_type",
   "self_type" : "_ZTI66camera_metadata_enum_android_logical_multi_camera_sensor_sync_type",
   "size" : 4,
   "source_file" : "/system/media/camera/include/system/camera_metadata_tags.h",
   "underlying_type" : "_ZTIj"
  },
  {
   "alignment" : 4,
   "enum_fields" :
   [
    {
     "enum_field_value" : 0,
     "name" : "ANDROID_SCALER_AVAILABLE_STREAM_CONFIGURATIONS_OUTPUT"
    },
    {
     "enum_field_value" : 1,
     "name" : "ANDROID_SCALER_AVAILABLE_STREAM_CONFIGURATIONS_INPUT"
    }
   ],
   "linker_set_key" : "_ZTI67camera_metadata_enum_android_scaler_available_stream_configurations",
   "name" : "camera_metadata_enum_android_scaler_available_stream_configurations",
   "referenced_type" : "_ZTI67camera_metadata_enum_android_scaler_available_stream_configurations",
   "self_type" : "_ZTI67camera_metadata_enum_android_scaler_available_stream_configurations",
   "size" : 4,
   "source_file" : "/system/media/camera/include/system/camera_metadata_tags.h",
   "underlying_type" : "_ZTIj"
  },
  {
   "alignment" : 4,
   "enum_fields" :
   [
    {
     "enum_field_value" : 0,
     "name" : "ANDROID_INFO_SUPPORTED_BUFFER_MANAGEMENT_VERSION_HIDL_DEVICE_3_5"
    }
   ],
   "linker_set_key" : "_ZTI69camera_metadata_enum_android_info_supported_buffer_management_version",
   "name" : "camera_metadata_enum_android_info_supported_buffer_management_version",
   "referenced_type" : "_ZTI69camera_metadata_enum_android_info_supported_buffer_management_version",
   "self_type" : "_ZTI69camera_metadata_enum_android_info_supported_buffer_management_version",
   "size" : 4,
   "source_file" : "/system/media/camera/include/system/camera_metadata_tags.h",
   "underlying_type" : "_ZTIj"
  },
  {
   "alignment" : 4,
   "enum_fields" :
   [
    {
     "enum_field_value" : 0,
     "name" : "ANDROID_HEIC_AVAILABLE_HEIC_STREAM_CONFIGURATIONS_OUTPUT"
    },
    {
     "enum_field_value" : 1,
     "name" : "ANDROID_HEIC_AVAILABLE_HEIC_STREAM_CONFIGURATIONS_INPUT"
    }
   ],
   "linker_set_key" : "_ZTI70camera_metadata_enum_android_heic_available_heic_stream_configurations",
   "name" : "camera_metadata_enum_android_heic_available_heic_stream_configurations",
   "referenced_type" : "_ZTI70camera_metadata_enum_android_heic_available_heic_stream_configurations",
   "self_type" : "_ZTI70camera_metadata_enum_android_heic_available_heic_stream_configurations",
   "size" : 4,
   "source_file" : "/system/media/camera/include/system/camera_metadata_tags.h",
   "underlying_type" : "_ZTIj"
  },
  {
   "alignment" : 4,
   "enum_fields" :
   [
    {
     "enum_field_value" : 0,
     "name" : "ANDROID_DEPTH_AVAILABLE_DEPTH_STREAM_CONFIGURATIONS_OUTPUT"
    },
    {
     "enum_field_value" : 1,
     "name" : "ANDROID_DEPTH_AVAILABLE_DEPTH_STREAM_CONFIGURATIONS_INPUT"
    }
   ],
   "linker_set_key" : "_ZTI72camera_metadata_enum_android_depth_available_depth_stream_configurations",
   "name" : "camera_metadata_enum_android_depth_available_depth_stream_configurations",
   "referenced_type" : "_ZTI72camera_metadata_enum_android_depth_available_depth_stream_configurations",
   "self_type" : "_ZTI72camera_metadata_enum_android_depth_available_depth_stream_configurations",
   "size" : 4,
   "source_file" : "/system/media/camera/include/system/camera_metadata_tags.h",
   "underlying_type" : "_ZTIj"
  },
  {
   "alignment" : 4,
   "enum_fields" :
   [
    {
     "enum_field_value" : 0,
     "name" : "ANDROID_SCALER_AVAILABLE_RECOMMENDED_STREAM_CONFIGURATIONS_PREVIEW"
    },
    {
     "enum_field_value" : 1,
     "name" : "ANDROID_SCALER_AVAILABLE_RECOMMENDED_STREAM_CONFIGURATIONS_RECORD"
    },
    {
     "enum_field_value" : 2,
     "name" : "ANDROID_SCALER_AVAILABLE_RECOMMENDED_STREAM_CONFIGURATIONS_VIDEO_SNAPSHOT"
    },
    {
     "enum_field_value" : 3,
     "name" : "ANDROID_SCALER_AVAILABLE_RECOMMENDED_STREAM_CONFIGURATIONS_SNAPSHOT"
    },
    {
     "enum_field_value" : 4,
     "name" : "ANDROID_SCALER_AVAILABLE_RECOMMENDED_STREAM_CONFIGURATIONS_ZSL"
    },
    {
     "enum_field_value" : 5,
     "name" : "ANDROID_SCALER_AVAILABLE_RECOMMENDED_STREAM_CONFIGURATIONS_RAW"
    },
    {
     "enum_field_value" : 6,
     "name" : "ANDROID_SCALER_AVAILABLE_RECOMMENDED_STREAM_CONFIGURATIONS_LOW_LATENCY_SNAPSHOT"
    },
    {
     "enum_field_value" : 7,
     "name" : "ANDROID_SCALER_AVAILABLE_RECOMMENDED_STREAM_CONFIGURATIONS_PUBLIC_END"
    },
    {
     "enum_field_value" : 24,
     "name" : "ANDROID_SCALER_AVAILABLE_RECOMMENDED_STREAM_CONFIGURATIONS_VENDOR_START"
    }
   ],
   "linker_set_key" : "_ZTI79camera_metadata_enum_android_scaler_available_recommended_stream_configurations",
   "name" : "camera_metadata_enum_android_scaler_available_recommended_stream_configurations",
   "referenced_type" : "_ZTI79camera_metadata_enum_android_scaler_available_recommended_stream_configurations",
   "self_type" : "_ZTI79camera_metadata_enum_android_scaler_available_recommended_stream_configurations",
   "size" : 4,
   "source_file" : "/system/media/camera/include/system/camera_metadata_tags.h",
   "underlying_type" : "_ZTIj"
  },
  {
   "alignment" : 4,
   "enum_fields" :
   [
    {
     "enum_field_value" : 0,
     "name" : "ANDROID_DEPTH_AVAILABLE_DYNAMIC_DEPTH_STREAM_CONFIGURATIONS_OUTPUT"
    },
    {
     "enum_field_value" : 1,
     "name" : "ANDROID_DEPTH_AVAILABLE_DYNAMIC_DEPTH_STREAM_CONFIGURATIONS_INPUT"
    }
   ],
   "linker_set_key" : "_ZTI80camera_metadata_enum_android_depth_available_dynamic_depth_stream_configurations",
   "name" : "camera_metadata_enum_android_depth_available_dynamic_depth_stream_configurations",
   "referenced_type" : "_ZTI80camera_metadata_enum_android_depth_available_dynamic_depth_stream_configurations",
   "self_type" : "_ZTI80camera_metadata_enum_android_depth_available_dynamic_depth_stream_configurations",
   "size" : 4,
   "source_file" : "/system/media/camera/include/system/camera_metadata_tags.h",
   "underlying_type" : "_ZTIj"
  }
 ],
 "function_types" :
 [
  {
   "alignment" : 4,
   "linker_set_key" : "_ZTIFPKcPK14vendor_tag_opsjE",
   "name" : "const char *(const vendor_tag_ops *, unsigned int)",
   "parameters" :
   [
    {
     "referenced_type" : "_ZTIPK14vendor_tag_ops"
    },
    {
     "referenced_type" : "_ZTIj"
    }
   ],
   "referenced_type" : "_ZTIFPKcPK14vendor_tag_opsjE",
   "return_type" : "_ZTIPKc",
   "self_type" : "_ZTIFPKcPK14vendor_tag_opsjE",
   "source_file" : "/system/media/camera/include/system/camera_vendor_tags.h"
  },
  {
   "alignment" : 4,
   "linker_set_key" : "_ZTIFPKcPK20vendor_tag_query_opsjE",
   "name" : "const char *(const vendor_tag_query_ops *, unsigned int)",
   "parameters" :
   [
    {
     "referenced_type" : "_ZTIPK20vendor_tag_query_ops"
    },
    {
     "referenced_type" : "_ZTIj"
    }
   ],
   "referenced_type" : "_ZTIFPKcPK20vendor_tag_query_opsjE",
   "return_type" : "_ZTIPKc",
   "self_type" : "_ZTIFPKcPK20vendor_tag_query_opsjE",
   "source_file" : "/system/media/camera/include/system/camera_metadata.h"
  },
  {
   "alignment" : 4,
   "linker_set_key" : "_ZTIFPKcjyE",
   "name" : "const char *(unsigned int, unsigned long long)",
   "parameters" :
   [
    {
     "referenced_type" : "_ZTIj"
    },
    {
     "referenced_type" : "_ZTIy"
    }
   ],
   "referenced_type" : "_ZTIFPKcjyE",
   "return_type" : "_ZTIPKc",
   "self_type" : "_ZTIFPKcjyE",
   "source_file" : "/system/media/camera/include/system/camera_vendor_tags.h"
  },
  {
   "alignment" : 4,
   "linker_set_key" : "_ZTIFiPK14vendor_tag_opsE",
   "name" : "int (const vendor_tag_ops *)",
   "parameters" :
   [
    {
     "referenced_type" : "_ZTIPK14vendor_tag_ops"
    }
   ],
   "referenced_type" : "_ZTIFiPK14vendor_tag_opsE",
   "return_type" : "_ZTIi",
   "self_type" : "_ZTIFiPK14vendor_tag_opsE",
   "source_file" : "/system/media/camera/include/system/camera_vendor_tags.h"
  },
  {
   "alignment" : 4,
   "linker_set_key" : "_ZTIFiPK14vendor_tag_opsjE",
   "name" : "int (const vendor_tag_ops *, unsigned int)",
   "parameters" :
   [
    {
     "referenced_type" : "_ZTIPK14vendor_tag_ops"
    },
    {
     "referenced_type" : "_ZTIj"
    }
   ],
   "referenced_type" : "_ZTIFiPK14vendor_tag_opsjE",
   "return_type" : "_ZTIi",
   "self_type" : "_ZTIFiPK14vendor_tag_opsjE",
   "source_file" : "/system/media/camera/include/system/camera_vendor_tags.h"
  },
  {
   "alignment" : 4,
   "linker_set_key" : "_ZTIFiPK20vendor_tag_query_opsE",
   "name" : "int (const vendor_tag_query_ops *)",
   "parameters" :
   [
    {
     "referenced_type" : "_ZTIPK20vendor_tag_query_ops"
    }
   ],
   "referenced_type" : "_ZTIFiPK20vendor_tag_query_opsE",
   "return_type" : "_ZTIi",
   "self_type" : "_ZTIFiPK20vendor_tag_query_opsE",
   "source_file" : "/system/media/camera/include/system/camera_metadata.h"
  },
  {
   "alignment" : 4,
   "linker_set_key" : "_ZTIFiPK20vendor_tag_query_opsjE",
   "name" : "int (const vendor_tag_query_ops *, unsigned int)",
   "parameters" :
   [
    {
     "referenced_type" : "_ZTIPK20vendor_tag_query_ops"
    },
    {
     "referenced_type" : "_ZTIj"
    }
   ],
   "referenced_type" : "_ZTIFiPK20vendor_tag_query_opsjE",
   "return_type" : "_ZTIi",
   "self_type" : "_ZTIFiPK20vendor_tag_query_opsjE",
   "source_file" : "/system/media/camera/include/system/camera_metadata.h"
  },
  {
   "alignment" : 4,
   "linker_set_key" : "_ZTIFijyE",
   "name" : "int (unsigned int, unsigned long long)",
   "parameters" :
   [
    {
     "referenced_type" : "_ZTIj"
    },
    {
     "referenced_type" : "_ZTIy"
    }
   ],
   "referenced_type" : "_ZTIFijyE",
   "return_type" : "_ZTIi",
   "self_type" : "_ZTIFijyE",
   "source_file" : "/system/media/camera/include/system/camera_vendor_tags.h"
  },
  {
   "alignment" : 4,
   "linker_set_key" : "_ZTIFiyE",
   "name" : "int (unsigned long long)",
   "parameters" :
   [
    {
     "referenced_type" : "_ZTIy"
    }
   ],
   "referenced_type" : "_ZTIFiyE",
   "return_type" : "_ZTIi",
   "self_type" : "_ZTIFiyE",
   "source_file" : "/system/media/camera/include/system/camera_vendor_tags.h"
  },
  {
   "alignment" : 4,
   "linker_set_key" : "_ZTIFvPK14vendor_tag_opsPjE",
   "name" : "void (const vendor_tag_ops *, unsigned int *)",
   "parameters" :
   [
    {
     "referenced_type" : "_ZTIPK14vendor_tag_ops"
    },
    {
     "referenced_type" : "_ZTIPj"
    }
   ],
   "referenced_type" : "_ZTIFvPK14vendor_tag_opsPjE",
   "return_type" : "_ZTIv",
   "self_type" : "_ZTIFvPK14vendor_tag_opsPjE",
   "source_file" : "/system/media/camera/include/system/camera_vendor_tags.h"
  },
  {
   "alignment" : 4,
   "linker_set_key" : "_ZTIFvPK20vendor_tag_query_opsPjE",
   "name" : "void (const vendor_tag_query_ops *, unsigned int *)",
   "parameters" :
   [
    {
     "referenced_type" : "_ZTIPK20vendor_tag_query_ops"
    },
    {
     "referenced_type" : "_ZTIPj"
    }
   ],
   "referenced_type" : "_ZTIFvPK20vendor_tag_query_opsPjE",
   "return_type" : "_ZTIv",
   "self_type" : "_ZTIFvPK20vendor_tag_query_opsPjE",
   "source_file" : "/system/media/camera/include/system/camera_metadata.h"
  },
  {
   "alignment" : 4,
   "linker_set_key" : "_ZTIFvPjyE",
   "name" : "void (unsigned int *, unsigned long long)",
   "parameters" :
   [
    {
     "referenced_type" : "_ZTIPj"
    },
    {
     "referenced_type" : "_ZTIy"
    }
   ],
   "referenced_type" : "_ZTIFvPjyE",
   "return_type" : "_ZTIv",
   "self_type" : "_ZTIFvPjyE",
   "source_file" : "/system/media/camera/include/system/camera_vendor_tags.h"
  }
 ],
 "functions" :
 [
  {
   "function_name" : "add_camera_metadata_entry",
   "linker_set_key" : "add_camera_metadata_entry",
   "parameters" :
   [
    {
     "referenced_type" : "_ZTIP15camera_metadata"
    },
    {
     "referenced_type" : "_ZTIj"
    },
    {
     "referenced_type" : "_ZTIPKv"
    },
    {
     "referenced_type" : "_ZTIj"
    }
   ],
   "return_type" : "_ZTIi",
   "source_file" : "/system/media/camera/include/system/camera_metadata.h"
  },
  {
   "function_name" : "allocate_camera_metadata",
   "linker_set_key" : "allocate_camera_metadata",
   "parameters" :
   [
    {
     "referenced_type" : "_ZTIj"
    },
    {
     "referenced_type" : "_ZTIj"
    }
   ],
   "return_type" : "_ZTIP15camera_metadata",
   "source_file" : "/system/media/camera/include/system/camera_metadata.h"
  },
  {
   "function_name" : "allocate_copy_camera_metadata_checked",
   "linker_set_key" : "allocate_copy_camera_metadata_checked",
   "parameters" :
   [
    {
     "referenced_type" : "_ZTIPK15camera_metadata"
    },
    {
     "referenced_type" : "_ZTIj"
    }
   ],
   "return_type" : "_ZTIP15camera_metadata",
   "source_file" : "/system/media/camera/include/system/camera_metadata.h"
  },
  {
   "function_name" : "append_camera_metadata",
   "linker_set_key" : "append_camera_metadata",
   "parameters" :
   [
    {
     "referenced_type" : "_ZTIP15camera_metadata"
    },
    {
     "referenced_type" : "_ZTIPK15camera_metadata"
    }
   ],
   "return_type" : "_ZTIi",
   "source_file" : "/system/media/camera/include/system/camera_metadata.h"
  },
  {
   "function_name" : "calculate_camera_metadata_entry_data_size",
   "linker_set_key" : "calculate_camera_metadata_entry_data_size",
   "parameters" :
   [
    {
     "referenced_type" : "_ZTIh"
    },
    {
     "referenced_type" : "_ZTIj"
    }
   ],
   "return_type" : "_ZTIj",
   "source_file" : "/system/media/camera/include/system/camera_metadata.h"
  },
  {
   "function_name" : "calculate_camera_metadata_size",
   "linker_set_key" : "calculate_camera_metadata_size",
   "parameters" :
   [
    {
     "referenced_type" : "_ZTIj"
    },
    {
     "referenced_type" : "_ZTIj"
    }
   ],
   "return_type" : "_ZTIj",
   "source_file" : "/system/media/camera/include/system/camera_metadata.h"
  },
  {
   "function_name" : "camera_metadata_enum_snprint",
   "linker_set_key" : "camera_metadata_enum_snprint",
   "parameters" :
   [
    {
     "referenced_type" : "_ZTIj"
    },
    {
     "referenced_type" : "_ZTIj"
    },
    {
     "referenced_type" : "_ZTIPc"
    },
    {
     "referenced_type" : "_ZTIj"
    }
   ],
   "return_type" : "_ZTIi",
   "source_file" : "/system/media/camera/include/system/camera_metadata.h"
  },
  {
   "function_name" : "camera_metadata_enum_value",
   "linker_set_key" : "camera_metadata_enum_value",
   "parameters" :
   [
    {
     "referenced_type" : "_ZTIj"
    },
    {
     "referenced_type" : "_ZTIPKc"
    },
    {
     "referenced_type" : "_ZTIj"
    },
    {
     "referenced_type" : "_ZTIPj"
    }
   ],
   "return_type" : "_ZTIi",
   "source_file" : "/system/media/camera/include/system/camera_metadata.h"
  },
  {
   "function_name" : "clone_camera_metadata",
   "linker_set_key" : "clone_camera_metadata",
   "parameters" :
   [
    {
     "referenced_type" : "_ZTIPK15camera_metadata"
    }
   ],
   "return_type" : "_ZTIP15camera_metadata",
   "source_file" : "/system/media/camera/include/system/camera_metadata.h"
  },
  {
   "function_name" : "copy_camera_metadata",
   "linker_set_key" : "copy_camera_metadata",
   "parameters" :
   [
    {
     "referenced_type" : "_ZTIPv"
    },
    {
     "referenced_type" : "_ZTIj"
    },
    {
     "referenced_type" : "_ZTIPK15camera_metadata"
    }
   ],
   "return_type" : "_ZTIP15camera_metadata",
   "source_file" : "/system/media/camera/include/system/camera_metadata.h"
  },
  {
   "function_name" : "delete_camera_metadata_entry",
   "linker_set_key" : "delete_camera_metadata_entry",
   "parameters" :
   [
    {
     "referenced_type" : "_ZTIP15camera_metadata"
    },
    {
     "referenced_type" : "_ZTIj"
    }
   ],
   "return_type" : "_ZTIi",
   "source_file" : "/system/media/camera/include/system/camera_metadata.h"
  },
  {
   "function_name" : "dump_camera_metadata",
   "linker_set_key" : "dump_camera_metadata",
   "parameters" :
   [
    {
     "referenced_type" : "_ZTIPK15camera_metadata"
    },
    {
     "referenced_type" : "_ZTIi"
    },
    {
     "referenced_type" : "_ZTIi"
    }
   ],
   "return_type" : "_ZTIv",
   "source_file" : "/system/media/camera/include/system/camera_metadata.h"
  },
  {
   "function_name" : "dump_indented_camera_metadata",
   "linker_set_key" : "dump_indented_camera_metadata",
   "parameters" :
   [
    {
     "referenced_type" : "_ZTIPK15camera_metadata"
    },
    {
     "referenced_type" : "_ZTIi"
    },
    {
     "referenced_type" : "_ZTIi"
    },
    {
     "referenced_type" : "_ZTIi"
    }
   ],
   "return_type" : "_ZTIv",
   "source_file" : "/system/media/camera/include/system/camera_metadata.h"
  },
  {
   "function_name" : "find_camera_metadata_entry",
   "linker_set_key" : "find_camera_metadata_entry",
   "parameters" :
   [
    {
     "referenced_type" : "_ZTIP15camera_metadata"
    },
    {
     "referenced_type" : "_ZTIj"
    },
    {
     "referenced_type" : "_ZTIP21camera_metadata_entry"
    }
   ],
   "return_type" : "_ZTIi",
   "source_file" : "/system/media/camera/include/system/camera_metadata.h"
  },
  {
   "function_name" : "find_camera_metadata_ro_entry",
   "linker_set_key" : "find_camera_metadata_ro_entry",
   "parameters" :
   [
    {
     "referenced_type" : "_ZTIPK15camera_metadata"
    },
    {
     "referenced_type" : "_ZTIj"
    },
    {
     "referenced_type" : "_ZTIP24camera_metadata_ro_entry"
    }
   ],
   "return_type" : "_ZTIi",
   "source_file" : "/system/media/camera/include/system/camera_metadata.h"
  },
  {
   "function_name" : "free_camera_metadata",
   "linker_set_key" : "free_camera_metadata",
   "parameters" :
   [
    {
     "referenced_type" : "_ZTIP15camera_metadata"
    }
   ],
   "return_type" : "_ZTIv",
   "source_file" : "/system/media/camera/include/system/camera_metadata.h"
  },
  {
   "function_name" : "get_camera_metadata_alignment",
   "linker_set_key" : "get_camera_metadata_alignment",
   "return_type" : "_ZTIj",
   "source_file" : "/system/media/camera/include/system/camera_metadata.h"
  },
  {
   "function_name" : "get_camera_metadata_compact_size",
   "linker_set_key" : "get_camera_metadata_compact_size",
   "parameters" :
   [
    {
     "referenced_type" : "_ZTIPK15camera_metadata"
    }
   ],
   "return_type" : "_ZTIj",
   "source_file" : "/system/media/camera/include/system/camera_metadata.h"
  },
  {
   "function_name" : "get_camera_metadata_data_capacity",
   "linker_set_key" : "get_camera_metadata_data_capacity",
   "parameters" :
   [
    {
     "referenced_type" : "_ZTIPK15camera_metadata"
    }
   ],
   "return_type" : "_ZTIj",
   "source_file" : "/system/media/camera/include/system/camera_metadata.h"
  },
  {
   "function_name" : "get_camera_metadata_data_count",
   "linker_set_key" : "get_camera_metadata_data_count",
   "parameters" :
   [
    {
     "referenced_type" : "_ZTIPK15camera_metadata"
    }
   ],
   "return_type" : "_ZTIj",
   "source_file" : "/system/media/camera/include/system/camera_metadata.h"
  },
  {
   "function_name" : "get_camera_metadata_entry",
   "linker_set_key" : "get_camera_metadata_entry",
   "parameters" :
   [
    {
     "referenced_type" : "_ZTIP15camera_metadata"
    },
    {
     "referenced_type" : "_ZTIj"
    },
    {
     "referenced_type" : "_ZTIP21camera_metadata_entry"
    }
   ],
   "return_type" : "_ZTIi",
   "source_file" : "/system/media/camera/include/system/camera_metadata.h"
  },
  {
   "function_name" : "get_camera_metadata_entry_capacity",
   "linker_set_key" : "get_camera_metadata_entry_capacity",
   "parameters" :
   [
    {
     "referenced_type" : "_ZTIPK15camera_metadata"
    }
   ],
   "return_type" : "_ZTIj",
   "source_file" : "/system/media/camera/include/system/camera_metadata.h"
  },
  {
   "function_name" : "get_camera_metadata_entry_count",
   "linker_set_key" : "get_camera_metadata_entry_count",
   "parameters" :
   [
    {
     "referenced_type" : "_ZTIPK15camera_metadata"
    }
   ],
   "return_type" : "_ZTIj",
   "source_file" : "/system/media/camera/include/system/camera_metadata.h"
  },
  {
   "function_name" : "get_camera_metadata_permission_needed",
   "linker_set_key" : "get_camera_metadata_permission_needed",
   "parameters" :
   [
    {
     "referenced_type" : "_ZTIPj"
    }
   ],
   "return_type" : "_ZTIPKi",
   "source_file" : "/system/media/camera/include/system/camera_metadata.h"
  },
  {
   "function_name" : "get_camera_metadata_ro_entry",
   "linker_set_key" : "get_camera_metadata_ro_entry",
   "parameters" :
   [
    {
     "referenced_type" : "_ZTIPK15camera_metadata"
    },
    {
     "referenced_type" : "_ZTIj"
    },
    {
     "referenced_type" : "_ZTIP24camera_metadata_ro_entry"
    }
   ],
   "return_type" : "_ZTIi",
   "source_file" : "/system/media/camera/include/system/camera_metadata.h"
  },
  {
   "function_name" : "get_camera_metadata_section_name",
   "linker_set_key" : "get_camera_metadata_section_name",
   "parameters" :
   [
    {
     "referenced_type" : "_ZTIj"
    }
   ],
   "return_type" : "_ZTIPKc",
   "source_file" : "/system/media/camera/include/system/camera_metadata.h"
  },
  {
   "function_name" : "get_camera_metadata_size",
   "linker_set_key" : "get_camera_metadata_size",
   "parameters" :
   [
    {
     "referenced_type" : "_ZTIPK15camera_metadata"
    }
   ],
   "return_type" : "_ZTIj",
   "source_file" : "/system/media/camera/include/system/camera_metadata.h"
  },
  {
   "function_name" : "get_camera_metadata_tag_name",
   "linker_set_key" : "get_camera_metadata_tag_name",
   "parameters" :
   [
    {
     "referenced_type" : "_ZTIj"
    }
   ],
   "return_type" : "_ZTIPKc",
   "source_file" : "/system/media/camera/include/system/camera_metadata.h"
  },
  {
   "function_name" : "get_camera_metadata_tag_type",
   "linker_set_key" : "get_camera_metadata_tag_type",
   "parameters" :
   [
    {
     "referenced_type" : "_ZTIj"
    }
   ],
   "return_type" : "_ZTIi",
   "source_file" : "/system/media/camera/include/system/camera_metadata.h"
  },
  {
   "function_name" : "get_local_camera_metadata_section_name",
   "linker_set_key" : "get_local_camera_metadata_section_name",
   "parameters" :
   [
    {
     "referenced_type" : "_ZTIj"
    },
    {
     "referenced_type" : "_ZTIPK15camera_metadata"
    }
   ],
   "return_type" : "_ZTIPKc",
   "source_file" : "/system/media/camera/include/system/camera_metadata.h"
  },
  {
   "function_name" : "get_local_camera_metadata_tag_name",
   "linker_set_key" : "get_local_camera_metadata_tag_name",
   "parameters" :
   [
    {
     "referenced_type" : "_ZTIj"
    },
    {
     "referenced_type" : "_ZTIPK15camera_metadata"
    }
   ],
   "return_type" : "_ZTIPKc",
   "source_file" : "/system/media/camera/include/system/camera_metadata.h"
  },
  {
   "function_name" : "get_local_camera_metadata_tag_type",
   "linker_set_key" : "get_local_camera_metadata_tag_type",
   "parameters" :
   [
    {
     "referenced_type" : "_ZTIj"
    },
    {
     "referenced_type" : "_ZTIPK15camera_metadata"
    }
   ],
   "return_type" : "_ZTIi",
   "source_file" : "/system/media/camera/include/system/camera_metadata.h"
  },
  {
   "function_name" : "place_camera_metadata",
   "linker_set_key" : "place_camera_metadata",
   "parameters" :
   [
    {
     "referenced_type" : "_ZTIPv"
    },
    {
     "referenced_type" : "_ZTIj"
    },
    {
     "referenced_type" : "_ZTIj"
    },
    {
     "referenced_type" : "_ZTIj"
    }
   ],
   "return_type" : "_ZTIP15camera_metadata",
   "source_file" : "/system/media/camera/include/system/camera_metadata.h"
  },
  {
   "function_name" : "set_camera_metadata_vendor_tag_ops",
   "linker_set_key" : "set_camera_metadata_vendor_tag_ops",
   "parameters" :
   [
    {
     "referenced_type" : "_ZTIPK20vendor_tag_query_ops"
    }
   ],
   "return_type" : "_ZTIi",
   "source_file" : "/system/media/camera/include/system/camera_metadata.h"
  },
  {
   "function_name" : "sort_camera_metadata",
   "linker_set_key" : "sort_camera_metadata",
   "parameters" :
   [
    {
     "referenced_type" : "_ZTIP15camera_metadata"
    }
   ],
   "return_type" : "_ZTIi",
   "source_file" : "/system/media/camera/include/system/camera_metadata.h"
  },
  {
   "function_name" : "update_camera_metadata_entry",
   "linker_set_key" : "update_camera_metadata_entry",
   "parameters" :
   [
    {
     "referenced_type" : "_ZTIP15camera_metadata"
    },
    {
     "referenced_type" : "_ZTIj"
    },
    {
     "referenced_type" : "_ZTIPKv"
    },
    {
     "referenced_type" : "_ZTIj"
    },
    {
     "referenced_type" : "_ZTIP21camera_metadata_entry"
    }
   ],
   "return_type" : "_ZTIi",
   "source_file" : "/system/media/camera/include/system/camera_metadata.h"
  },
  {
   "function_name" : "validate_camera_metadata_structure",
   "linker_set_key" : "validate_camera_metadata_structure",
   "parameters" :
   [
    {
     "referenced_type" : "_ZTIPK15camera_metadata"
    },
    {
     "referenced_type" : "_ZTIPKj"
    }
   ],
   "return_type" : "_ZTIi",
   "source_file" : "/system/media/camera/include/system/camera_metadata.h"
  }
 ],
 "global_vars" :
 [
  {
   "linker_set_key" : "camera_metadata_section_bounds",
   "name" : "camera_metadata_section_bounds",
   "referenced_type" : "_ZTIA30_A2_j",
   "source_file" : "/system/media/camera/include/system/camera_metadata.h"
  },
  {
   "linker_set_key" : "camera_metadata_section_names",
   "name" : "camera_metadata_section_names",
   "referenced_type" : "_ZTIA30_PKc",
   "source_file" : "/system/media/camera/include/system/camera_metadata.h"
  },
  {
   "linker_set_key" : "camera_metadata_type_names",
   "name" : "camera_metadata_type_names",
   "referenced_type" : "_ZTIA6_PKc",
   "source_file" : "/system/media/camera/include/system/camera_metadata.h"
  },
  {
   "linker_set_key" : "camera_metadata_type_size",
   "name" : "camera_metadata_type_size",
   "referenced_type" : "_ZTIA6_Kj",
   "source_file" : "/system/media/camera/include/system/camera_metadata.h"
  }
 ],
 "lvalue_reference_types" : [],
 "pointer_types" :
 [
  {
   "alignment" : 4,
   "linker_set_key" : "_ZTIP15camera_metadata",
   "name" : "camera_metadata *",
   "referenced_type" : "_ZTI15camera_metadata",
   "self_type" : "_ZTIP15camera_metadata",
   "size" : 4,
   "source_file" : "/system/media/camera/include/system/camera_metadata.h"
  },
  {
   "alignment" : 4,
   "linker_set_key" : "_ZTIP21camera_metadata_entry",
   "name" : "camera_metadata_entry *",
   "referenced_type" : "_ZTI21camera_metadata_entry",
   "self_type" : "_ZTIP21camera_metadata_entry",
   "size" : 4,
   "source_file" : "/system/media/camera/include/system/camera_metadata.h"
  },
  {
   "alignment" : 4,
   "linker_set_key" : "_ZTIP24camera_metadata_rational",
   "name" : "camera_metadata_rational *",
   "referenced_type" : "_ZTI24camera_metadata_rational",
   "self_type" : "_ZTIP24camera_metadata_rational",
   "size" : 4,
   "source_file" : "/system/media/camera/include/system/camera_metadata.h"
  },
  {
   "alignment" : 4,
   "linker_set_key" : "_ZTIP24camera_metadata_ro_entry",
   "name" : "camera_metadata_ro_entry *",
   "referenced_type" : "_ZTI24camera_metadata_ro_entry",
   "self_type" : "_ZTIP24camera_metadata_ro_entry",
   "size" : 4,
   "source_file" : "/system/media/camera/include/system/camera_metadata.h"
  },
  {
   "alignment" : 4,
   "linker_set_key" : "_ZTIPFPKcPK14vendor_tag_opsjE",
   "name" : "const char *(*)(const vendor_tag_ops *, unsigned int)",
   "referenced_type" : "_ZTIFPKcPK14vendor_tag_opsjE",
   "self_type" : "_ZTIPFPKcPK14vendor_tag_opsjE",
   "size" : 4,
   "source_file" : "/system/media/camera/include/system/camera_vendor_tags.h"
  },
  {
   "alignment" : 4,
   "linker_set_key" : "_ZTIPFPKcPK20vendor_tag_query_opsjE",
   "name" : "const char *(*)(const vendor_tag_query_ops *, unsigned int)",
   "referenced_type" : "_ZTIFPKcPK20vendor_tag_query_opsjE",
   "self_type" : "_ZTIPFPKcPK20vendor_tag_query_opsjE",
   "size" : 4,
   "source_file" : "/system/media/camera/include/system/camera_metadata.h"
  },
  {
   "alignment" : 4,
   "linker_set_key" : "_ZTIPFPKcjyE",
   "name" : "const char *(*)(unsigned int, unsigned long long)",
   "referenced_type" : "_ZTIFPKcjyE",
   "self_type" : "_ZTIPFPKcjyE",
   "size" : 4,
   "source_file" : "/system/media/camera/include/system/camera_vendor_tags.h"
  },
  {
   "alignment" : 4,
   "linker_set_key" : "_ZTIPFiPK14vendor_tag_opsE",
   "name" : "int (*)(const vendor_tag_ops *)",
   "referenced_type" : "_ZTIFiPK14vendor_tag_opsE",
   "self_type" : "_ZTIPFiPK14vendor_tag_opsE",
   "size" : 4,
   "source_file" : "/system/media/camera/include/system/camera_vendor_tags.h"
  },
  {
   "alignment" : 4,
   "linker_set_key" : "_ZTIPFiPK14vendor_tag_opsjE",
   "name" : "int (*)(const vendor_tag_ops *, unsigned int)",
   "referenced_type" : "_ZTIFiPK14vendor_tag_opsjE",
   "self_type" : "_ZTIPFiPK14vendor_tag_opsjE",
   "size" : 4,
   "source_file" : "/system/media/camera/include/system/camera_vendor_tags.h"
  },
  {
   "alignment" : 4,
   "linker_set_key" : "_ZTIPFiPK20vendor_tag_query_opsE",
   "name" : "int (*)(const vendor_tag_query_ops *)",
   "referenced_type" : "_ZTIFiPK20vendor_tag_query_opsE",
   "self_type" : "_ZTIPFiPK20vendor_tag_query_opsE",
   "size" : 4,
   "source_file" : "/system/media/camera/include/system/camera_metadata.h"
  },
  {
   "alignment" : 4,
   "linker_set_key" : "_ZTIPFiPK20vendor_tag_query_opsjE",
   "name" : "int (*)(const vendor_tag_query_ops *, unsigned int)",
   "referenced_type" : "_ZTIFiPK20vendor_tag_query_opsjE",
   "self_type" : "_ZTIPFiPK20vendor_tag_query_opsjE",
   "size" : 4,
   "source_file" : "/system/media/camera/include/system/camera_metadata.h"
  },
  {
   "alignment" : 4,
   "linker_set_key" : "_ZTIPFijyE",
   "name" : "int (*)(unsigned int, unsigned long long)",
   "referenced_type" : "_ZTIFijyE",
   "self_type" : "_ZTIPFijyE",
   "size" : 4,
   "source_file" : "/system/media/camera/include/system/camera_vendor_tags.h"
  },
  {
   "alignment" : 4,
   "linker_set_key" : "_ZTIPFiyE",
   "name" : "int (*)(unsigned long long)",
   "referenced_type" : "_ZTIFiyE",
   "self_type" : "_ZTIPFiyE",
   "size" : 4,
   "source_file" : "/system/media/camera/include/system/camera_vendor_tags.h"
  },
  {
   "alignment" : 4,
   "linker_set_key" : "_ZTIPFvPK14vendor_tag_opsPjE",
   "name" : "void (*)(const vendor_tag_ops *, unsigned int *)",
   "referenced_type" : "_ZTIFvPK14vendor_tag_opsPjE",
   "self_type" : "_ZTIPFvPK14vendor_tag_opsPjE",
   "size" : 4,
   "source_file" : "/system/media/camera/include/system/camera_vendor_tags.h"
  },
  {
   "alignment" : 4,
   "linker_set_key" : "_ZTIPFvPK20vendor_tag_query_opsPjE",
   "name" : "void (*)(const vendor_tag_query_ops *, unsigned int *)",
   "referenced_type" : "_ZTIFvPK20vendor_tag_query_opsPjE",
   "self_type" : "_ZTIPFvPK20vendor_tag_query_opsPjE",
   "size" : 4,
   "source_file" : "/system/media/camera/include/system/camera_metadata.h"
  },
  {
   "alignment" : 4,
   "linker_set_key" : "_ZTIPFvPjyE",
   "name" : "void (*)(unsigned int *, unsigned long long)",
   "referenced_type" : "_ZTIFvPjyE",
   "self_type" : "_ZTIPFvPjyE",
   "size" : 4,
   "source_file" : "/system/media/camera/include/system/camera_vendor_tags.h"
  },
  {
   "alignment" : 4,
   "linker_set_key" : "_ZTIPK14vendor_tag_ops",
   "name" : "const vendor_tag_ops *",
   "referenced_type" : "_ZTIK14vendor_tag_ops",
   "self_type" : "_ZTIPK14vendor_tag_ops",
   "size" : 4,
   "source_file" : "/system/media/camera/include/system/camera_vendor_tags.h"
  },
  {
   "alignment" : 4,
   "linker_set_key" : "_ZTIPK15camera_metadata",
   "name" : "const camera_metadata *",
   "referenced_type" : "_ZTIK15camera_metadata",
   "self_type" : "_ZTIPK15camera_metadata",
   "size" : 4,
   "source_file" : "/system/media/camera/include/system/camera_metadata.h"
  },
  {
   "alignment" : 4,
   "linker_set_key" : "_ZTIPK20vendor_tag_query_ops",
   "name" : "const vendor_tag_query_ops *",
   "referenced_type" : "_ZTIK20vendor_tag_query_ops",
   "self_type" : "_ZTIPK20vendor_tag_query_ops",
   "size" : 4,
   "source_file" : "/system/media/camera/include/system/camera_metadata.h"
  },
  {
   "alignment" : 4,
   "linker_set_key" : "_ZTIPK24camera_metadata_rational",
   "name" : "const camera_metadata_rational *",
   "referenced_type" : "_ZTIK24camera_metadata_rational",
   "self_type" : "_ZTIPK24camera_metadata_rational",
   "size" : 4,
   "source_file" : "/system/media/camera/include/system/camera_metadata.h"
  },
  {
   "alignment" : 4,
   "linker_set_key" : "_ZTIPKc",
   "name" : "const char *",
   "referenced_type" : "_ZTIKc",
   "self_type" : "_ZTIPKc",
   "size" : 4,
   "source_file" : "/system/media/camera/include/system/camera_metadata.h"
  },
  {
   "alignment" : 4,
   "linker_set_key" : "_ZTIPKd",
   "name" : "const double *",
   "referenced_type" : "_ZTIKd",
   "self_type" : "_ZTIPKd",
   "size" : 4,
   "source_file" : "/system/media/camera/include/system/camera_metadata.h"
  },
  {
   "alignment" : 4,
   "linker_set_key" : "_ZTIPKf",
   "name" : "const float *",
   "referenced_type" : "_ZTIKf",
   "self_type" : "_ZTIPKf",
   "size" : 4,
   "source_file" : "/system/media/camera/include/system/camera_metadata.h"
  },
  {
   "alignment" : 4,
   "linker_set_key" : "_ZTIPKh",
   "name" : "const unsigned char *",
   "referenced_type" : "_ZTIKh",
   "self_type" : "_ZTIPKh",
   "size" : 4,
   "source_file" : "/system/media/camera/include/system/camera_metadata.h"
  },
  {
   "alignment" : 4,
   "linker_set_key" : "_ZTIPKi",
   "name" : "const int *",
   "referenced_type" : "_ZTIKi",
   "self_type" : "_ZTIPKi",
   "size" : 4,
   "source_file" : "/system/media/camera/include/system/camera_metadata.h"
  },
  {
   "alignment" : 4,
   "linker_set_key" : "_ZTIPKj",
   "name" : "const unsigned int *",
   "referenced_type" : "_ZTIKj",
   "self_type" : "_ZTIPKj",
   "size" : 4,
   "source_file" : "/system/media/camera/include/system/camera_metadata.h"
  },
  {
   "alignment" : 4,
   "linker_set_key" : "_ZTIPKv",
   "name" : "const void *",
   "referenced_type" : "_ZTIKv",
   "self_type" : "_ZTIPKv",
   "size" : 4,
   "source_file" : "/system/media/camera/include/system/camera_metadata.h"
  },
  {
   "alignment" : 4,
   "linker_set_key" : "_ZTIPKx",
   "name" : "const long long *",
   "referenced_type" : "_ZTIKx",
   "self_type" : "_ZTIPKx",
   "size" : 4,
   "source_file" : "/system/media/camera/include/system/camera_metadata.h"
  },
  {
   "alignment" : 4,
   "linker_set_key" : "_ZTIPc",
   "name" : "char *",
   "referenced_type" : "_ZTIc",
   "self_type" : "_ZTIPc",
   "size" : 4,
   "source_file" : "/system/media/camera/include/system/camera_metadata.h"
  },
  {
   "alignment" : 4,
   "linker_set_key" : "_ZTIPd",
   "name" : "double *",
   "referenced_type" : "_ZTId",
   "self_type" : "_ZTIPd",
   "size" : 4,
   "source_file" : "/system/media/camera/include/system/camera_metadata.h"
  },
  {
   "alignment" : 4,
   "linker_set_key" : "_ZTIPf",
   "name" : "float *",
   "referenced_type" : "_ZTIf",
   "self_type" : "_ZTIPf",
   "size" : 4,
   "source_file" : "/system/media/camera/include/system/camera_metadata.h"
  },
  {
   "alignment" : 4,
   "linker_set_key" : "_ZTIPh",
   "name" : "unsigned char *",
   "referenced_type" : "_ZTIh",
   "self_type" : "_ZTIPh",
   "size" : 4,
   "source_file" : "/system/media/camera/include/system/camera_metadata.h"
  },
  {
   "alignment" : 4,
   "linker_set_key" : "_ZTIPi",
   "name" : "int *",
   "referenced_type" : "_ZTIi",
   "self_type" : "_ZTIPi",
   "size" : 4,
   "source_file" : "/system/media/camera/include/system/camera_metadata.h"
  },
  {
   "alignment" : 4,
   "linker_set_key" : "_ZTIPj",
   "name" : "unsigned int *",
   "referenced_type" : "_ZTIj",
   "self_type" : "_ZTIPj",
   "size" : 4,
   "source_file" : "/system/media/camera/include/system/camera_metadata.h"
  },
  {
   "alignment" : 4,
   "linker_set_key" : "_ZTIPv",
   "name" : "void *",
   "referenced_type" : "_ZTIv",
   "self_type" : "_ZTIPv",
   "size" : 4,
   "source_file" : "/system/media/camera/include/system/camera_metadata.h"
  },
  {
   "alignment" : 4,
   "linker_set_key" : "_ZTIPx",
   "name" : "long long *",
   "referenced_type" : "_ZTIx",
   "self_type" : "_ZTIPx",
   "size" : 4,
   "source_file" : "/system/media/camera/include/system/camera_metadata.h"
  }
 ],
 "qualified_types" :
 [
  {
   "alignment" : 4,
   "is_const" : true,
   "linker_set_key" : "_ZTIA6_Kj",
   "name" : "unsigned int const[6]",
   "referenced_type" : "_ZTIA6_j",
   "self_type" : "_ZTIA6_Kj",
   "size" : 24,
   "source_file" : "/system/media/camera/include/system/camera_metadata.h"
  },
  {
   "alignment" : 4,
   "is_const" : true,
   "linker_set_key" : "_ZTIK14vendor_tag_ops",
   "name" : "const vendor_tag_ops",
   "referenced_type" : "_ZTI14vendor_tag_ops",
   "self_type" : "_ZTIK14vendor_tag_ops",
   "size" : 52,
   "source_file" : "/system/media/camera/include/system/camera_vendor_tags.h"
  },
  {
   "alignment" : 8,
   "is_const" : true,
   "linker_set_key" : "_ZTIK15camera_metadata",
   "name" : "const camera_metadata",
   "referenced_type" : "_ZTI15camera_metadata",
   "self_type" : "_ZTIK15camera_metadata",
   "size" : 48,
   "source_file" : "/system/media/camera/include/system/camera_metadata.h"
  },
  {
   "alignment" : 4,
   "is_const" : true,
   "linker_set_key" : "_ZTIK20vendor_tag_query_ops",
   "name" : "const vendor_tag_query_ops",
   "referenced_type" : "_ZTI20vendor_tag_query_ops",
   "self_type" : "_ZTIK20vendor_tag_query_ops",
   "size" : 20,
   "source_file" : "/system/media/camera/include/system/camera_metadata.h"
  },
  {
   "alignment" : 4,
   "is_const" : true,
   "linker_set_key" : "_ZTIK24camera_metadata_rational",
   "name" : "const camera_metadata_rational",
   "referenced_type" : "_ZTI24camera_metadata_rational",
   "self_type" : "_ZTIK24camera_metadata_rational",
   "size" : 8,
   "source_file" : "/system/media/camera/include/system/camera_metadata.h"
  },
  {
   "alignment" : 1,
   "is_const" : true,
   "linker_set_key" : "_ZTIKc",
   "name" : "const char",
   "referenced_type" : "_ZTIc",
   "self_type" : "_ZTIKc",
   "size" : 1,
   "source_file" : "/system/media/camera/include/system/camera_metadata.h"
  },
  {
   "alignment" : 8,
   "is_const" : true,
   "linker_set_key" : "_ZTIKd",
   "name" : "const double",
   "referenced_type" : "_ZTId",
   "self_type" : "_ZTIKd",
   "size" : 8,
   "source_file" : "/system/media/camera/include/system/camera_metadata.h"
  },
  {
   "alignment" : 4,
   "is_const" : true,
   "linker_set_key" : "_ZTIKf",
   "name" : "const float",
   "referenced_type" : "_ZTIf",
   "self_type" : "_ZTIKf",
   "size" : 4,
   "source_file" : "/system/media/camera/include/system/camera_metadata.h"
  },
  {
   "alignment" : 1,
   "is_const" : true,
   "linker_set_key" : "_ZTIKh",
   "name" : "const unsigned char",
   "referenced_type" : "_ZTIh",
   "self_type" : "_ZTIKh",
   "size" : 1,
   "source_file" : "/system/media/camera/include/system/camera_metadata.h"
  },
  {
   "alignment" : 4,
   "is_const" : true,
   "linker_set_key" : "_ZTIKi",
   "name" : "const int",
   "referenced_type" : "_ZTIi",
   "self_type" : "_ZTIKi",
   "size" : 4,
   "source_file" : "/system/media/camera/include/system/camera_metadata.h"
  },
  {
   "alignment" : 4,
   "is_const" : true,
   "linker_set_key" : "_ZTIKj",
   "name" : "const unsigned int",
   "referenced_type" : "_ZTIj",
   "self_type" : "_ZTIKj",
   "size" : 4,
   "source_file" : "/system/media/camera/include/system/camera_metadata.h"
  },
  {
   "is_const" : true,
   "linker_set_key" : "_ZTIKv",
   "name" : "const void",
   "referenced_type" : "_ZTIv",
   "self_type" : "_ZTIKv",
   "source_file" : "/system/media/camera/include/system/camera_metadata.h"
  },
  {
   "alignment" : 8,
   "is_const" : true,
   "linker_set_key" : "_ZTIKx",
   "name" : "const long long",
   "referenced_type" : "_ZTIx",
   "self_type" : "_ZTIKx",
   "size" : 8,
   "source_file" : "/system/media/camera/include/system/camera_metadata.h"
  }
 ],
 "record_types" :
 [
  {
   "alignment" : 4,
   "fields" :
   [
    {
     "field_name" : "get_tag_count",
     "referenced_type" : "_ZTIPFiPK14vendor_tag_opsE"
    },
    {
     "field_name" : "get_all_tags",
     "field_offset" : 32,
     "referenced_type" : "_ZTIPFvPK14vendor_tag_opsPjE"
    },
    {
     "field_name" : "get_section_name",
     "field_offset" : 64,
     "referenced_type" : "_ZTIPFPKcPK14vendor_tag_opsjE"
    },
    {
     "field_name" : "get_tag_name",
     "field_offset" : 96,
     "referenced_type" : "_ZTIPFPKcPK14vendor_tag_opsjE"
    },
    {
     "field_name" : "get_tag_type",
     "field_offset" : 128,
     "referenced_type" : "_ZTIPFiPK14vendor_tag_opsjE"
    },
    {
     "field_name" : "reserved",
     "field_offset" : 160,
     "referenced_type" : "_ZTIA8_Pv"
    }
   ],
   "linker_set_key" : "_ZTI14vendor_tag_ops",
   "name" : "vendor_tag_ops",
   "referenced_type" : "_ZTI14vendor_tag_ops",
   "self_type" : "_ZTI14vendor_tag_ops",
   "size" : 52,
   "source_file" : "/system/media/camera/include/system/camera_vendor_tags.h"
  },
  {
   "alignment" : 4,
   "fields" :
   [
    {
     "field_name" : "get_tag_count",
     "referenced_type" : "_ZTIPFiyE"
    },
    {
     "field_name" : "get_all_tags",
     "field_offset" : 32,
     "referenced_type" : "_ZTIPFvPjyE"
    },
    {
     "field_name" : "get_section_name",
     "field_offset" : 64,
     "referenced_type" : "_ZTIPFPKcjyE"
    },
    {
     "field_name" : "get_tag_name",
     "field_offset" : 96,
     "referenced_type" : "_ZTIPFPKcjyE"
    },
    {
     "field_name" : "get_tag_type",
     "field_offset" : 128,
     "referenced_type" : "_ZTIPFijyE"
    },
    {
     "field_name" : "reserved",
     "field_offset" : 160,
     "referenced_type" : "_ZTIA8_Pv"
    }
   ],
   "linker_set_key" : "_ZTI20vendor_tag_cache_ops",
   "name" : "vendor_tag_cache_ops",
   "referenced_type" : "_ZTI20vendor_tag_cache_ops",
   "self_type" : "_ZTI20vendor_tag_cache_ops",
   "size" : 52,
   "source_file" : "/system/media/camera/include/system/camera_vendor_tags.h"
  },
  {
   "alignment" : 4,
   "fields" :
   [
    {
     "field_name" : "get_camera_vendor_section_name",
     "referenced_type" : "_ZTIPFPKcPK20vendor_tag_query_opsjE"
    },
    {
     "field_name" : "get_camera_vendor_tag_name",
     "field_offset" : 32,
     "referenced_type" : "_ZTIPFPKcPK20vendor_tag_query_opsjE"
    },
    {
     "field_name" : "get_camera_vendor_tag_type",
     "field_offset" : 64,
     "referenced_type" : "_ZTIPFiPK20vendor_tag_query_opsjE"
    },
    {
     "field_name" : "get_camera_vendor_tag_count",
     "field_offset" : 96,
     "referenced_type" : "_ZTIPFiPK20vendor_tag_query_opsE"
    },
    {
     "field_name" : "get_camera_vendor_tags",
     "field_offset" : 128,
     "referenced_type" : "_ZTIPFvPK20vendor_tag_query_opsPjE"
    }
   ],
   "linker_set_key" : "_ZTI20vendor_tag_query_ops",
   "name" : "vendor_tag_query_ops",
   "referenced_type" : "_ZTI20vendor_tag_query_ops",
   "self_type" : "_ZTI20vendor_tag_query_ops",
   "size" : 20,
   "source_file" : "/system/media/camera/include/system/camera_metadata.h"
  },
  {
   "alignment" : 4,
   "fields" :
   [
    {
     "field_name" : "index",
     "referenced_type" : "_ZTIj"
    },
    {
     "field_name" : "tag",
     "field_offset" : 32,
     "referenced_type" : "_ZTIj"
    },
    {
     "field_name" : "type",
     "field_offset" : 64,
     "referenced_type" : "_ZTIh"
    },
    {
     "field_name" : "count",
     "field_offset" : 96,
     "referenced_type" : "_ZTIj"
    },
    {
     "field_name" : "data",
     "field_offset" : 128,
     "referenced_type" : "_ZTIN21camera_metadata_entryUt_E"
    }
   ],
   "linker_set_key" : "_ZTI21camera_metadata_entry",
   "name" : "camera_metadata_entry",
   "referenced_type" : "_ZTI21camera_metadata_entry",
   "self_type" : "_ZTI21camera_metadata_entry",
   "size" : 20,
   "source_file" : "/system/media/camera/include/system/camera_metadata.h"
  },
  {
   "alignment" : 4,
   "fields" :
   [
    {
     "field_name" : "numerator",
     "referenced_type" : "_ZTIi"
    },
    {
     "field_name" : "denominator",
     "field_offset" : 32,
     "referenced_type" : "_ZTIi"
    }
   ],
   "linker_set_key" : "_ZTI24camera_metadata_rational",
   "name" : "camera_metadata_rational",
   "referenced_type" : "_ZTI24camera_metadata_rational",
   "self_type" : "_ZTI24camera_metadata_rational",
   "size" : 8,
   "source_file" : "/system/media/camera/include/system/camera_metadata.h"
  },
  {
   "alignment" : 4,
   "fields" :
   [
    {
     "field_name" : "index",
     "referenced_type" : "_ZTIj"
    },
    {
     "field_name" : "tag",
     "field_offset" : 32,
     "referenced_type" : "_ZTIj"
    },
    {
     "field_name" : "type",
     "field_offset" : 64,
     "referenced_type" : "_ZTIh"
    },
    {
     "field_name" : "count",
     "field_offset" : 96,
     "referenced_type" : "_ZTIj"
    },
    {
     "field_name" : "data",
     "field_offset" : 128,
     "referenced_type" : "_ZTIN24camera_metadata_ro_entryUt_E"
    }
   ],
   "linker_set_key" : "_ZTI24camera_metadata_ro_entry",
   "name" : "camera_metadata_ro_entry",
   "referenced_type" : "_ZTI24camera_metadata_ro_entry",
   "self_type" : "_ZTI24camera_metadata_ro_entry",
   "size" : 20,
   "source_file" : "/system/media/camera/include/system/camera_metadata.h"
  },
  {
   "alignment" : 4,
   "fields" :
   [
    {
     "field_name" : "u8",
     "referenced_type" : "_ZTIPh"
    },
    {
     "field_name" : "i32",
     "referenced_type" : "_ZTIPi"
    },
    {
     "field_name" : "f",
     "referenced_type" : "_ZTIPf"
    },
    {
     "field_name" : "i64",
     "referenced_type" : "_ZTIPx"
    },
    {
     "field_name" : "d",
     "referenced_type" : "_ZTIPd"
    },
    {
     "field_name" : "r",
     "referenced_type" : "_ZTIP24camera_metadata_rational"
    }
   ],
   "is_anonymous" : true,
   "linker_set_key" : "_ZTIN21camera_metadata_entryUt_E",
   "name" : "camera_metadata_entry::(anonymous union at system/media/camera/include/system/camera_metadata.h:85:5)",
   "record_kind" : "union",
   "referenced_type" : "_ZTIN21camera_metadata_entryUt_E",
   "self_type" : "_ZTIN21camera_metadata_entryUt_E",
   "size" : 4,
   "source_file" : "/system/media/camera/include/system/camera_metadata.h"
  },
  {
   "alignment" : 4,
   "fields" :
   [
    {
     "field_name" : "u8",
     "referenced_type" : "_ZTIPKh"
    },
    {
     "field_name" : "i32",
     "referenced_type" : "_ZTIPKi"
    },
    {
     "field_name" : "f",
     "referenced_type" : "_ZTIPKf"
    },
    {
     "field_name" : "i64",
     "referenced_type" : "_ZTIPKx"
    },
    {
     "field_name" : "d",
     "referenced_type" : "_ZTIPKd"
    },
    {
     "field_name" : "r",
     "referenced_type" : "_ZTIPK24camera_metadata_rational"
    }
   ],
   "is_anonymous" : true,
   "linker_set_key" : "_ZTIN24camera_metadata_ro_entryUt_E",
   "name" : "camera_metadata_ro_entry::(anonymous union at system/media/camera/include/system/camera_metadata.h:104:5)",
   "record_kind" : "union",
   "referenced_type" : "_ZTIN24camera_metadata_ro_entryUt_E",
   "self_type" : "_ZTIN24camera_metadata_ro_entryUt_E",
   "size" : 4,
   "source_file" : "/system/media/camera/include/system/camera_metadata.h"
  }
 ],
 "rvalue_reference_types" : []
}
