{
 "array_types" :
 [
  {
   "alignment" : 1,
   "linker_set_key" : "char [0]",
   "name" : "char [0]",
   "referenced_type" : "type-116",
   "self_type" : "type-115",
   "source_file" : "/system/core/liblog/include/log/log_read.h"
  },
  {
   "linker_set_key" : "float []",
   "name" : "float []",
   "referenced_type" : "type-616",
   "self_type" : "type-885",
   "source_file" : "/system/core/libsystem/include/system/graphics.h"
  },
  {
   "alignment" : 4,
   "linker_set_key" : "int [0]",
   "name" : "int [0]",
   "referenced_type" : "type-45",
   "self_type" : "type-46",
   "source_file" : "/system/core/libcutils/include/cutils/native_handle.h"
  },
  {
   "alignment" : 4,
   "linker_set_key" : "int [2]",
   "name" : "int [2]",
   "referenced_type" : "type-45",
   "self_type" : "type-95",
   "size" : 8,
   "source_file" : "/system/libhidl/base/include/hidl/HidlSupport.h"
  },
  {
   "alignment" : 4,
   "linker_set_key" : "int [4]",
   "name" : "int [4]",
   "referenced_type" : "type-45",
   "self_type" : "type-93",
   "size" : 16,
   "source_file" : "/system/libhidl/base/include/hidl/HidlSupport.h"
  },
  {
   "alignment" : 1,
   "linker_set_key" : "unsigned char [32]",
   "name" : "unsigned char [32]",
   "referenced_type" : "type-112",
   "self_type" : "type-691",
   "size" : 32,
   "source_file" : "/system/libhidl/base/include/hidl/HidlSupport.h"
  },
  {
   "alignment" : 1,
   "linker_set_key" : "unsigned char [5121]",
   "name" : "unsigned char [5121]",
   "referenced_type" : "type-112",
   "self_type" : "type-111",
   "size" : 5121,
   "source_file" : "/system/core/liblog/include/log/log_read.h"
  },
  {
   "alignment" : 4,
   "linker_set_key" : "unsigned int [8]",
   "name" : "unsigned int [8]",
   "referenced_type" : "type-2",
   "self_type" : "type-875",
   "size" : 32,
   "source_file" : "/system/core/libsystem/include/system/graphics.h"
  }
 ],
 "builtin_types" :
 [
  {
   "alignment" : 1,
   "is_integral" : true,
   "is_unsigned" : true,
   "linker_set_key" : "bool",
   "name" : "bool",
   "referenced_type" : "type-3",
   "self_type" : "type-3",
   "size" : 1
  },
  {
   "alignment" : 1,
   "is_integral" : true,
   "is_unsigned" : true,
   "linker_set_key" : "char",
   "name" : "char",
   "referenced_type" : "type-116",
   "self_type" : "type-116",
   "size" : 1
  },
  {
   "alignment" : 2,
   "is_integral" : true,
   "is_unsigned" : true,
   "linker_set_key" : "char16_t",
   "name" : "char16_t",
   "referenced_type" : "type-140",
   "self_type" : "type-140",
   "size" : 2
  },
  {
   "alignment" : 8,
   "linker_set_key" : "double",
   "name" : "double",
   "referenced_type" : "type-621",
   "self_type" : "type-621",
   "size" : 8
  },
  {
   "alignment" : 4,
   "linker_set_key" : "float",
   "name" : "float",
   "referenced_type" : "type-616",
   "self_type" : "type-616",
   "size" : 4
  },
  {
   "alignment" : 4,
   "is_integral" : true,
   "linker_set_key" : "int",
   "name" : "int",
   "referenced_type" : "type-45",
   "self_type" : "type-45",
   "size" : 4
  },
  {
   "alignment" : 4,
   "is_integral" : true,
   "linker_set_key" : "long",
   "name" : "long",
   "referenced_type" : "type-585",
   "self_type" : "type-585",
   "size" : 4
  },
  {
   "alignment" : 8,
   "linker_set_key" : "long double",
   "name" : "long double",
   "referenced_type" : "type-282",
   "self_type" : "type-282",
   "size" : 8
  },
  {
   "alignment" : 8,
   "is_integral" : true,
   "linker_set_key" : "long long",
   "name" : "long long",
   "referenced_type" : "type-48",
   "self_type" : "type-48",
   "size" : 8
  },
  {
   "alignment" : 2,
   "is_integral" : true,
   "linker_set_key" : "short",
   "name" : "short",
   "referenced_type" : "type-538",
   "self_type" : "type-538",
   "size" : 2
  },
  {
   "alignment" : 1,
   "is_integral" : true,
   "linker_set_key" : "signed char",
   "name" : "signed char",
   "referenced_type" : "type-627",
   "self_type" : "type-627",
   "size" : 1
  },
  {
   "alignment" : 1,
   "is_integral" : true,
   "is_unsigned" : true,
   "linker_set_key" : "unsigned char",
   "name" : "unsigned char",
   "referenced_type" : "type-112",
   "self_type" : "type-112",
   "size" : 1
  },
  {
   "alignment" : 4,
   "is_integral" : true,
   "is_unsigned" : true,
   "linker_set_key" : "unsigned int",
   "name" : "unsigned int",
   "referenced_type" : "type-2",
   "self_type" : "type-2",
   "size" : 4
  },
  {
   "alignment" : 4,
   "is_integral" : true,
   "is_unsigned" : true,
   "linker_set_key" : "unsigned long",
   "name" : "unsigned long",
   "referenced_type" : "type-603",
   "self_type" : "type-603",
   "size" : 4
  },
  {
   "alignment" : 8,
   "is_integral" : true,
   "is_unsigned" : true,
   "linker_set_key" : "unsigned long long",
   "name" : "unsigned long long",
   "referenced_type" : "type-47",
   "self_type" : "type-47",
   "size" : 8
  },
  {
   "alignment" : 2,
   "is_integral" : true,
   "is_unsigned" : true,
   "linker_set_key" : "unsigned short",
   "name" : "unsigned short",
   "referenced_type" : "type-114",
   "self_type" : "type-114",
   "size" : 2
  },
  {
   "linker_set_key" : "void",
   "name" : "void",
   "referenced_type" : "type-124",
   "self_type" : "type-124"
  }
 ],
 "elf_functions" :
 [
  {
   "binding" : "weak",
   "name" : "_ZN7android8hardware10fromBinderINS0_6camera6device4V1_021ICameraDeviceCallbackENS4_24BpHwCameraDeviceCallbackENS4_24BnHwCameraDeviceCallbackEEENS_2spIT_EERKNS8_INS0_7IBinderEEE"
  },
  {
   "binding" : "weak",
   "name" : "_ZN7android8hardware10fromBinderINS0_6camera6device4V1_028ICameraDevicePreviewCallbackENS4_31BpHwCameraDevicePreviewCallbackENS4_31BnHwCameraDevicePreviewCallbackEEENS_2spIT_EERKNS8_INS0_7IBinderEEE"
  },
  {
   "name" : "_ZN7android8hardware6camera6device4V1_013ICameraDevice10getServiceERKNSt3__112basic_stringIcNS5_11char_traitsIcEENS5_9allocatorIcEEEEb"
  },
  {
   "name" : "_ZN7android8hardware6camera6device4V1_013ICameraDevice11linkToDeathERKNS_2spINS0_20hidl_death_recipientEEEy"
  },
  {
   "name" : "_ZN7android8hardware6camera6device4V1_013ICameraDevice12getDebugInfoENSt3__18functionIFvRKNS_4hidl4base4V1_09DebugInfoEEEE"
  },
  {
   "name" : "_ZN7android8hardware6camera6device4V1_013ICameraDevice12getHashChainENSt3__18functionIFvRKNS0_8hidl_vecINS0_10hidl_arrayIhLj32EJEEEEEEEE"
  },
  {
   "name" : "_ZN7android8hardware6camera6device4V1_013ICameraDevice13tryGetServiceERKNSt3__112basic_stringIcNS5_11char_traitsIcEENS5_9allocatorIcEEEEb"
  },
  {
   "name" : "_ZN7android8hardware6camera6device4V1_013ICameraDevice13unlinkToDeathERKNS_2spINS0_20hidl_death_recipientEEE"
  },
  {
   "name" : "_ZN7android8hardware6camera6device4V1_013ICameraDevice14interfaceChainENSt3__18functionIFvRKNS0_8hidl_vecINS0_11hidl_stringEEEEEE"
  },
  {
   "name" : "_ZN7android8hardware6camera6device4V1_013ICameraDevice17registerAsServiceERKNSt3__112basic_stringIcNS5_11char_traitsIcEENS5_9allocatorIcEEEE"
  },
  {
   "name" : "_ZN7android8hardware6camera6device4V1_013ICameraDevice19interfaceDescriptorENSt3__18functionIFvRKNS0_11hidl_stringEEEE"
  },
  {
   "name" : "_ZN7android8hardware6camera6device4V1_013ICameraDevice21notifySyspropsChangedEv"
  },
  {
   "name" : "_ZN7android8hardware6camera6device4V1_013ICameraDevice21setHALInstrumentationEv"
  },
  {
   "name" : "_ZN7android8hardware6camera6device4V1_013ICameraDevice24registerForNotificationsERKNSt3__112basic_stringIcNS5_11char_traitsIcEENS5_9allocatorIcEEEERKNS_2spINS_4hidl7manager4V1_020IServiceNotificationEEE"
  },
  {
   "name" : "_ZN7android8hardware6camera6device4V1_013ICameraDevice4pingEv"
  },
  {
   "name" : "_ZN7android8hardware6camera6device4V1_013ICameraDevice5debugERKNS0_11hidl_handleERKNS0_8hidl_vecINS0_11hidl_stringEEE"
  },
  {
   "name" : "_ZN7android8hardware6camera6device4V1_013ICameraDevice8castFromERKNS_2spINS_4hidl4base4V1_05IBaseEEEb"
  },
  {
   "name" : "_ZN7android8hardware6camera6device4V1_013ICameraDevice8castFromERKNS_2spIS4_EEb"
  },
  {
   "name" : "_ZN7android8hardware6camera6device4V1_014BsCameraDevice13addOnewayTaskENSt3__18functionIFvvEEE"
  },
  {
   "name" : "_ZN7android8hardware6camera6device4V1_014BsCameraDeviceC1ENS_2spINS3_13ICameraDeviceEEE"
  },
  {
   "name" : "_ZN7android8hardware6camera6device4V1_014BsCameraDeviceC2ENS_2spINS3_13ICameraDeviceEEE"
  },
  {
   "name" : "_ZN7android8hardware6camera6device4V1_016BnHwCameraDevice10_hidl_openEPNS_4hidl4base4V1_08BnHwBaseERKNS0_6ParcelEPSA_NSt3__18functionIFvRSA_EEE"
  },
  {
   "name" : "_ZN7android8hardware6camera6device4V1_016BnHwCameraDevice10onTransactEjRKNS0_6ParcelEPS5_jNSt3__18functionIFvRS5_EEE"
  },
  {
   "name" : "_ZN7android8hardware6camera6device4V1_016BnHwCameraDevice11_hidl_closeEPNS_4hidl4base4V1_08BnHwBaseERKNS0_6ParcelEPSA_NSt3__18functionIFvRSA_EEE"
  },
  {
   "name" : "_ZN7android8hardware6camera6device4V1_016BnHwCameraDevice12getDebugInfoENSt3__18functionIFvRKNS_4hidl4base4V1_09DebugInfoEEEE"
  },
  {
   "name" : "_ZN7android8hardware6camera6device4V1_016BnHwCameraDevice15_hidl_autoFocusEPNS_4hidl4base4V1_08BnHwBaseERKNS0_6ParcelEPSA_NSt3__18functionIFvRSA_EEE"
  },
  {
   "name" : "_ZN7android8hardware6camera6device4V1_016BnHwCameraDevice15_hidl_dumpStateEPNS_4hidl4base4V1_08BnHwBaseERKNS0_6ParcelEPSA_NSt3__18functionIFvRSA_EEE"
  },
  {
   "name" : "_ZN7android8hardware6camera6device4V1_016BnHwCameraDevice17_hidl_sendCommandEPNS_4hidl4base4V1_08BnHwBaseERKNS0_6ParcelEPSA_NSt3__18functionIFvRSA_EEE"
  },
  {
   "name" : "_ZN7android8hardware6camera6device4V1_016BnHwCameraDevice17_hidl_stopPreviewEPNS_4hidl4base4V1_08BnHwBaseERKNS0_6ParcelEPSA_NSt3__18functionIFvRSA_EEE"
  },
  {
   "name" : "_ZN7android8hardware6camera6device4V1_016BnHwCameraDevice17_hidl_takePictureEPNS_4hidl4base4V1_08BnHwBaseERKNS0_6ParcelEPSA_NSt3__18functionIFvRSA_EEE"
  },
  {
   "name" : "_ZN7android8hardware6camera6device4V1_016BnHwCameraDevice18_hidl_setTorchModeEPNS_4hidl4base4V1_08BnHwBaseERKNS0_6ParcelEPSA_NSt3__18functionIFvRSA_EEE"
  },
  {
   "name" : "_ZN7android8hardware6camera6device4V1_016BnHwCameraDevice18_hidl_startPreviewEPNS_4hidl4base4V1_08BnHwBaseERKNS0_6ParcelEPSA_NSt3__18functionIFvRSA_EEE"
  },
  {
   "name" : "_ZN7android8hardware6camera6device4V1_016BnHwCameraDevice19_hidl_cancelPictureEPNS_4hidl4base4V1_08BnHwBaseERKNS0_6ParcelEPSA_NSt3__18functionIFvRSA_EEE"
  },
  {
   "name" : "_ZN7android8hardware6camera6device4V1_016BnHwCameraDevice19_hidl_enableMsgTypeEPNS_4hidl4base4V1_08BnHwBaseERKNS0_6ParcelEPSA_NSt3__18functionIFvRSA_EEE"
  },
  {
   "name" : "_ZN7android8hardware6camera6device4V1_016BnHwCameraDevice19_hidl_getCameraInfoEPNS_4hidl4base4V1_08BnHwBaseERKNS0_6ParcelEPSA_NSt3__18functionIFvRSA_EEE"
  },
  {
   "name" : "_ZN7android8hardware6camera6device4V1_016BnHwCameraDevice19_hidl_getParametersEPNS_4hidl4base4V1_08BnHwBaseERKNS0_6ParcelEPSA_NSt3__18functionIFvRSA_EEE"
  },
  {
   "name" : "_ZN7android8hardware6camera6device4V1_016BnHwCameraDevice19_hidl_setParametersEPNS_4hidl4base4V1_08BnHwBaseERKNS0_6ParcelEPSA_NSt3__18functionIFvRSA_EEE"
  },
  {
   "name" : "_ZN7android8hardware6camera6device4V1_016BnHwCameraDevice19_hidl_stopRecordingEPNS_4hidl4base4V1_08BnHwBaseERKNS0_6ParcelEPSA_NSt3__18functionIFvRSA_EEE"
  },
  {
   "name" : "_ZN7android8hardware6camera6device4V1_016BnHwCameraDevice20_hidl_disableMsgTypeEPNS_4hidl4base4V1_08BnHwBaseERKNS0_6ParcelEPSA_NSt3__18functionIFvRSA_EEE"
  },
  {
   "name" : "_ZN7android8hardware6camera6device4V1_016BnHwCameraDevice20_hidl_msgTypeEnabledEPNS_4hidl4base4V1_08BnHwBaseERKNS0_6ParcelEPSA_NSt3__18functionIFvRSA_EEE"
  },
  {
   "name" : "_ZN7android8hardware6camera6device4V1_016BnHwCameraDevice20_hidl_previewEnabledEPNS_4hidl4base4V1_08BnHwBaseERKNS0_6ParcelEPSA_NSt3__18functionIFvRSA_EEE"
  },
  {
   "name" : "_ZN7android8hardware6camera6device4V1_016BnHwCameraDevice20_hidl_startRecordingEPNS_4hidl4base4V1_08BnHwBaseERKNS0_6ParcelEPSA_NSt3__18functionIFvRSA_EEE"
  },
  {
   "name" : "_ZN7android8hardware6camera6device4V1_016BnHwCameraDevice21_hidl_cancelAutoFocusEPNS_4hidl4base4V1_08BnHwBaseERKNS0_6ParcelEPSA_NSt3__18functionIFvRSA_EEE"
  },
  {
   "name" : "_ZN7android8hardware6camera6device4V1_016BnHwCameraDevice21_hidl_getResourceCostEPNS_4hidl4base4V1_08BnHwBaseERKNS0_6ParcelEPSA_NSt3__18functionIFvRSA_EEE"
  },
  {
   "name" : "_ZN7android8hardware6camera6device4V1_016BnHwCameraDevice22_hidl_recordingEnabledEPNS_4hidl4base4V1_08BnHwBaseERKNS0_6ParcelEPSA_NSt3__18functionIFvRSA_EEE"
  },
  {
   "name" : "_ZN7android8hardware6camera6device4V1_016BnHwCameraDevice22_hidl_setPreviewWindowEPNS_4hidl4base4V1_08BnHwBaseERKNS0_6ParcelEPSA_NSt3__18functionIFvRSA_EEE"
  },
  {
   "name" : "_ZN7android8hardware6camera6device4V1_016BnHwCameraDevice27_hidl_releaseRecordingFrameEPNS_4hidl4base4V1_08BnHwBaseERKNS0_6ParcelEPSA_NSt3__18functionIFvRSA_EEE"
  },
  {
   "name" : "_ZN7android8hardware6camera6device4V1_016BnHwCameraDevice28_hidl_storeMetaDataInBuffersEPNS_4hidl4base4V1_08BnHwBaseERKNS0_6ParcelEPSA_NSt3__18functionIFvRSA_EEE"
  },
  {
   "name" : "_ZN7android8hardware6camera6device4V1_016BnHwCameraDevice33_hidl_releaseRecordingFrameHandleEPNS_4hidl4base4V1_08BnHwBaseERKNS0_6ParcelEPSA_NSt3__18functionIFvRSA_EEE"
  },
  {
   "name" : "_ZN7android8hardware6camera6device4V1_016BnHwCameraDevice38_hidl_releaseRecordingFrameHandleBatchEPNS_4hidl4base4V1_08BnHwBaseERKNS0_6ParcelEPSA_NSt3__18functionIFvRSA_EEE"
  },
  {
   "name" : "_ZN7android8hardware6camera6device4V1_016BnHwCameraDevice4pingEv"
  },
  {
   "name" : "_ZN7android8hardware6camera6device4V1_016BnHwCameraDeviceC1ERKNS_2spINS3_13ICameraDeviceEEE"
  },
  {
   "name" : "_ZN7android8hardware6camera6device4V1_016BnHwCameraDeviceC2ERKNS_2spINS3_13ICameraDeviceEEE"
  },
  {
   "name" : "_ZN7android8hardware6camera6device4V1_016BnHwCameraDeviceD0Ev"
  },
  {
   "name" : "_ZN7android8hardware6camera6device4V1_016BnHwCameraDeviceD1Ev"
  },
  {
   "name" : "_ZN7android8hardware6camera6device4V1_016BnHwCameraDeviceD2Ev"
  },
  {
   "name" : "_ZN7android8hardware6camera6device4V1_016BpHwCameraDevice10_hidl_openEPNS0_10IInterfaceEPNS0_7details16HidlInstrumentorERKNS_2spINS3_21ICameraDeviceCallbackEEE"
  },
  {
   "name" : "_ZN7android8hardware6camera6device4V1_016BpHwCameraDevice11_hidl_closeEPNS0_10IInterfaceEPNS0_7details16HidlInstrumentorE"
  },
  {
   "name" : "_ZN7android8hardware6camera6device4V1_016BpHwCameraDevice11linkToDeathERKNS_2spINS0_20hidl_death_recipientEEEy"
  },
  {
   "name" : "_ZN7android8hardware6camera6device4V1_016BpHwCameraDevice11sendCommandENS3_11CommandTypeEii"
  },
  {
   "name" : "_ZN7android8hardware6camera6device4V1_016BpHwCameraDevice11stopPreviewEv"
  },
  {
   "name" : "_ZN7android8hardware6camera6device4V1_016BpHwCameraDevice11takePictureEv"
  },
  {
   "name" : "_ZN7android8hardware6camera6device4V1_016BpHwCameraDevice12getDebugInfoENSt3__18functionIFvRKNS_4hidl4base4V1_09DebugInfoEEEE"
  },
  {
   "name" : "_ZN7android8hardware6camera6device4V1_016BpHwCameraDevice12getHashChainENSt3__18functionIFvRKNS0_8hidl_vecINS0_10hidl_arrayIhLj32EJEEEEEEEE"
  },
  {
   "name" : "_ZN7android8hardware6camera6device4V1_016BpHwCameraDevice12setTorchModeENS1_6common4V1_09TorchModeE"
  },
  {
   "name" : "_ZN7android8hardware6camera6device4V1_016BpHwCameraDevice12startPreviewEv"
  },
  {
   "name" : "_ZN7android8hardware6camera6device4V1_016BpHwCameraDevice13cancelPictureEv"
  },
  {
   "name" : "_ZN7android8hardware6camera6device4V1_016BpHwCameraDevice13enableMsgTypeEj"
  },
  {
   "name" : "_ZN7android8hardware6camera6device4V1_016BpHwCameraDevice13getCameraInfoENSt3__18functionIFvNS1_6common4V1_06StatusERKNS3_10CameraInfoEEEE"
  },
  {
   "name" : "_ZN7android8hardware6camera6device4V1_016BpHwCameraDevice13getParametersENSt3__18functionIFvRKNS0_11hidl_stringEEEE"
  },
  {
   "name" : "_ZN7android8hardware6camera6device4V1_016BpHwCameraDevice13setParametersERKNS0_11hidl_stringE"
  },
  {
   "name" : "_ZN7android8hardware6camera6device4V1_016BpHwCameraDevice13stopRecordingEv"
  },
  {
   "name" : "_ZN7android8hardware6camera6device4V1_016BpHwCameraDevice13unlinkToDeathERKNS_2spINS0_20hidl_death_recipientEEE"
  },
  {
   "name" : "_ZN7android8hardware6camera6device4V1_016BpHwCameraDevice14disableMsgTypeEj"
  },
  {
   "name" : "_ZN7android8hardware6camera6device4V1_016BpHwCameraDevice14interfaceChainENSt3__18functionIFvRKNS0_8hidl_vecINS0_11hidl_stringEEEEEE"
  },
  {
   "name" : "_ZN7android8hardware6camera6device4V1_016BpHwCameraDevice14msgTypeEnabledEj"
  },
  {
   "name" : "_ZN7android8hardware6camera6device4V1_016BpHwCameraDevice14previewEnabledEv"
  },
  {
   "name" : "_ZN7android8hardware6camera6device4V1_016BpHwCameraDevice14startRecordingEv"
  },
  {
   "name" : "_ZN7android8hardware6camera6device4V1_016BpHwCameraDevice15_hidl_autoFocusEPNS0_10IInterfaceEPNS0_7details16HidlInstrumentorE"
  },
  {
   "name" : "_ZN7android8hardware6camera6device4V1_016BpHwCameraDevice15_hidl_dumpStateEPNS0_10IInterfaceEPNS0_7details16HidlInstrumentorERKNS0_11hidl_handleE"
  },
  {
   "name" : "_ZN7android8hardware6camera6device4V1_016BpHwCameraDevice15cancelAutoFocusEv"
  },
  {
   "name" : "_ZN7android8hardware6camera6device4V1_016BpHwCameraDevice15getResourceCostENSt3__18functionIFvNS1_6common4V1_06StatusERKNS8_18CameraResourceCostEEEE"
  },
  {
   "name" : "_ZN7android8hardware6camera6device4V1_016BpHwCameraDevice16recordingEnabledEv"
  },
  {
   "name" : "_ZN7android8hardware6camera6device4V1_016BpHwCameraDevice16setPreviewWindowERKNS_2spINS3_28ICameraDevicePreviewCallbackEEE"
  },
  {
   "name" : "_ZN7android8hardware6camera6device4V1_016BpHwCameraDevice17_hidl_sendCommandEPNS0_10IInterfaceEPNS0_7details16HidlInstrumentorENS3_11CommandTypeEii"
  },
  {
   "name" : "_ZN7android8hardware6camera6device4V1_016BpHwCameraDevice17_hidl_stopPreviewEPNS0_10IInterfaceEPNS0_7details16HidlInstrumentorE"
  },
  {
   "name" : "_ZN7android8hardware6camera6device4V1_016BpHwCameraDevice17_hidl_takePictureEPNS0_10IInterfaceEPNS0_7details16HidlInstrumentorE"
  },
  {
   "name" : "_ZN7android8hardware6camera6device4V1_016BpHwCameraDevice18_hidl_setTorchModeEPNS0_10IInterfaceEPNS0_7details16HidlInstrumentorENS1_6common4V1_09TorchModeE"
  },
  {
   "name" : "_ZN7android8hardware6camera6device4V1_016BpHwCameraDevice18_hidl_startPreviewEPNS0_10IInterfaceEPNS0_7details16HidlInstrumentorE"
  },
  {
   "name" : "_ZN7android8hardware6camera6device4V1_016BpHwCameraDevice19_hidl_cancelPictureEPNS0_10IInterfaceEPNS0_7details16HidlInstrumentorE"
  },
  {
   "name" : "_ZN7android8hardware6camera6device4V1_016BpHwCameraDevice19_hidl_enableMsgTypeEPNS0_10IInterfaceEPNS0_7details16HidlInstrumentorEj"
  },
  {
   "name" : "_ZN7android8hardware6camera6device4V1_016BpHwCameraDevice19_hidl_getCameraInfoEPNS0_10IInterfaceEPNS0_7details16HidlInstrumentorENSt3__18functionIFvNS1_6common4V1_06StatusERKNS3_10CameraInfoEEEE"
  },
  {
   "name" : "_ZN7android8hardware6camera6device4V1_016BpHwCameraDevice19_hidl_getParametersEPNS0_10IInterfaceEPNS0_7details16HidlInstrumentorENSt3__18functionIFvRKNS0_11hidl_stringEEEE"
  },
  {
   "name" : "_ZN7android8hardware6camera6device4V1_016BpHwCameraDevice19_hidl_setParametersEPNS0_10IInterfaceEPNS0_7details16HidlInstrumentorERKNS0_11hidl_stringE"
  },
  {
   "name" : "_ZN7android8hardware6camera6device4V1_016BpHwCameraDevice19_hidl_stopRecordingEPNS0_10IInterfaceEPNS0_7details16HidlInstrumentorE"
  },
  {
   "name" : "_ZN7android8hardware6camera6device4V1_016BpHwCameraDevice19interfaceDescriptorENSt3__18functionIFvRKNS0_11hidl_stringEEEE"
  },
  {
   "name" : "_ZN7android8hardware6camera6device4V1_016BpHwCameraDevice20_hidl_disableMsgTypeEPNS0_10IInterfaceEPNS0_7details16HidlInstrumentorEj"
  },
  {
   "name" : "_ZN7android8hardware6camera6device4V1_016BpHwCameraDevice20_hidl_msgTypeEnabledEPNS0_10IInterfaceEPNS0_7details16HidlInstrumentorEj"
  },
  {
   "name" : "_ZN7android8hardware6camera6device4V1_016BpHwCameraDevice20_hidl_previewEnabledEPNS0_10IInterfaceEPNS0_7details16HidlInstrumentorE"
  },
  {
   "name" : "_ZN7android8hardware6camera6device4V1_016BpHwCameraDevice20_hidl_startRecordingEPNS0_10IInterfaceEPNS0_7details16HidlInstrumentorE"
  },
  {
   "name" : "_ZN7android8hardware6camera6device4V1_016BpHwCameraDevice21_hidl_cancelAutoFocusEPNS0_10IInterfaceEPNS0_7details16HidlInstrumentorE"
  },
  {
   "name" : "_ZN7android8hardware6camera6device4V1_016BpHwCameraDevice21_hidl_getResourceCostEPNS0_10IInterfaceEPNS0_7details16HidlInstrumentorENSt3__18functionIFvNS1_6common4V1_06StatusERKNSD_18CameraResourceCostEEEE"
  },
  {
   "name" : "_ZN7android8hardware6camera6device4V1_016BpHwCameraDevice21notifySyspropsChangedEv"
  },
  {
   "name" : "_ZN7android8hardware6camera6device4V1_016BpHwCameraDevice21releaseRecordingFrameEjj"
  },
  {
   "name" : "_ZN7android8hardware6camera6device4V1_016BpHwCameraDevice21setHALInstrumentationEv"
  },
  {
   "name" : "_ZN7android8hardware6camera6device4V1_016BpHwCameraDevice22_hidl_recordingEnabledEPNS0_10IInterfaceEPNS0_7details16HidlInstrumentorE"
  },
  {
   "name" : "_ZN7android8hardware6camera6device4V1_016BpHwCameraDevice22_hidl_setPreviewWindowEPNS0_10IInterfaceEPNS0_7details16HidlInstrumentorERKNS_2spINS3_28ICameraDevicePreviewCallbackEEE"
  },
  {
   "name" : "_ZN7android8hardware6camera6device4V1_016BpHwCameraDevice22storeMetaDataInBuffersEb"
  },
  {
   "name" : "_ZN7android8hardware6camera6device4V1_016BpHwCameraDevice27_hidl_releaseRecordingFrameEPNS0_10IInterfaceEPNS0_7details16HidlInstrumentorEjj"
  },
  {
   "name" : "_ZN7android8hardware6camera6device4V1_016BpHwCameraDevice27releaseRecordingFrameHandleEjjRKNS0_11hidl_handleE"
  },
  {
   "name" : "_ZN7android8hardware6camera6device4V1_016BpHwCameraDevice28_hidl_storeMetaDataInBuffersEPNS0_10IInterfaceEPNS0_7details16HidlInstrumentorEb"
  },
  {
   "name" : "_ZN7android8hardware6camera6device4V1_016BpHwCameraDevice32releaseRecordingFrameHandleBatchERKNS0_8hidl_vecINS3_17VideoFrameMessageEEE"
  },
  {
   "name" : "_ZN7android8hardware6camera6device4V1_016BpHwCameraDevice33_hidl_releaseRecordingFrameHandleEPNS0_10IInterfaceEPNS0_7details16HidlInstrumentorEjjRKNS0_11hidl_handleE"
  },
  {
   "name" : "_ZN7android8hardware6camera6device4V1_016BpHwCameraDevice38_hidl_releaseRecordingFrameHandleBatchEPNS0_10IInterfaceEPNS0_7details16HidlInstrumentorERKNS0_8hidl_vecINS3_17VideoFrameMessageEEE"
  },
  {
   "name" : "_ZN7android8hardware6camera6device4V1_016BpHwCameraDevice4openERKNS_2spINS3_21ICameraDeviceCallbackEEE"
  },
  {
   "name" : "_ZN7android8hardware6camera6device4V1_016BpHwCameraDevice4pingEv"
  },
  {
   "name" : "_ZN7android8hardware6camera6device4V1_016BpHwCameraDevice5closeEv"
  },
  {
   "name" : "_ZN7android8hardware6camera6device4V1_016BpHwCameraDevice5debugERKNS0_11hidl_handleERKNS0_8hidl_vecINS0_11hidl_stringEEE"
  },
  {
   "name" : "_ZN7android8hardware6camera6device4V1_016BpHwCameraDevice9autoFocusEv"
  },
  {
   "name" : "_ZN7android8hardware6camera6device4V1_016BpHwCameraDevice9dumpStateERKNS0_11hidl_handleE"
  },
  {
   "name" : "_ZN7android8hardware6camera6device4V1_016BpHwCameraDeviceC1ERKNS_2spINS0_7IBinderEEE"
  },
  {
   "name" : "_ZN7android8hardware6camera6device4V1_016BpHwCameraDeviceC2ERKNS_2spINS0_7IBinderEEE"
  },
  {
   "name" : "_ZN7android8hardware6camera6device4V1_021ICameraDeviceCallback10getServiceERKNSt3__112basic_stringIcNS5_11char_traitsIcEENS5_9allocatorIcEEEEb"
  },
  {
   "name" : "_ZN7android8hardware6camera6device4V1_021ICameraDeviceCallback11linkToDeathERKNS_2spINS0_20hidl_death_recipientEEEy"
  },
  {
   "name" : "_ZN7android8hardware6camera6device4V1_021ICameraDeviceCallback12getDebugInfoENSt3__18functionIFvRKNS_4hidl4base4V1_09DebugInfoEEEE"
  },
  {
   "name" : "_ZN7android8hardware6camera6device4V1_021ICameraDeviceCallback12getHashChainENSt3__18functionIFvRKNS0_8hidl_vecINS0_10hidl_arrayIhLj32EJEEEEEEEE"
  },
  {
   "name" : "_ZN7android8hardware6camera6device4V1_021ICameraDeviceCallback13tryGetServiceERKNSt3__112basic_stringIcNS5_11char_traitsIcEENS5_9allocatorIcEEEEb"
  },
  {
   "name" : "_ZN7android8hardware6camera6device4V1_021ICameraDeviceCallback13unlinkToDeathERKNS_2spINS0_20hidl_death_recipientEEE"
  },
  {
   "name" : "_ZN7android8hardware6camera6device4V1_021ICameraDeviceCallback14interfaceChainENSt3__18functionIFvRKNS0_8hidl_vecINS0_11hidl_stringEEEEEE"
  },
  {
   "name" : "_ZN7android8hardware6camera6device4V1_021ICameraDeviceCallback17registerAsServiceERKNSt3__112basic_stringIcNS5_11char_traitsIcEENS5_9allocatorIcEEEE"
  },
  {
   "name" : "_ZN7android8hardware6camera6device4V1_021ICameraDeviceCallback19interfaceDescriptorENSt3__18functionIFvRKNS0_11hidl_stringEEEE"
  },
  {
   "name" : "_ZN7android8hardware6camera6device4V1_021ICameraDeviceCallback21notifySyspropsChangedEv"
  },
  {
   "name" : "_ZN7android8hardware6camera6device4V1_021ICameraDeviceCallback21setHALInstrumentationEv"
  },
  {
   "name" : "_ZN7android8hardware6camera6device4V1_021ICameraDeviceCallback24registerForNotificationsERKNSt3__112basic_stringIcNS5_11char_traitsIcEENS5_9allocatorIcEEEERKNS_2spINS_4hidl7manager4V1_020IServiceNotificationEEE"
  },
  {
   "name" : "_ZN7android8hardware6camera6device4V1_021ICameraDeviceCallback4pingEv"
  },
  {
   "name" : "_ZN7android8hardware6camera6device4V1_021ICameraDeviceCallback5debugERKNS0_11hidl_handleERKNS0_8hidl_vecINS0_11hidl_stringEEE"
  },
  {
   "name" : "_ZN7android8hardware6camera6device4V1_021ICameraDeviceCallback8castFromERKNS_2spINS_4hidl4base4V1_05IBaseEEEb"
  },
  {
   "name" : "_ZN7android8hardware6camera6device4V1_021ICameraDeviceCallback8castFromERKNS_2spIS4_EEb"
  },
  {
   "name" : "_ZN7android8hardware6camera6device4V1_021writeEmbeddedToParcelERKNS3_17VideoFrameMessageEPNS0_6ParcelEjj"
  },
  {
   "name" : "_ZN7android8hardware6camera6device4V1_021writeEmbeddedToParcelERKNS3_19CameraFrameMetadataEPNS0_6ParcelEjj"
  },
  {
   "name" : "_ZN7android8hardware6camera6device4V1_021writeEmbeddedToParcelERKNS3_22HandleTimestampMessageEPNS0_6ParcelEjj"
  },
  {
   "name" : "_ZN7android8hardware6camera6device4V1_022BsCameraDeviceCallback13addOnewayTaskENSt3__18functionIFvvEEE"
  },
  {
   "name" : "_ZN7android8hardware6camera6device4V1_022BsCameraDeviceCallbackC1ENS_2spINS3_21ICameraDeviceCallbackEEE"
  },
  {
   "name" : "_ZN7android8hardware6camera6device4V1_022BsCameraDeviceCallbackC2ENS_2spINS3_21ICameraDeviceCallbackEEE"
  },
  {
   "name" : "_ZN7android8hardware6camera6device4V1_022readEmbeddedFromParcelERKNS3_17VideoFrameMessageERKNS0_6ParcelEjj"
  },
  {
   "name" : "_ZN7android8hardware6camera6device4V1_022readEmbeddedFromParcelERKNS3_19CameraFrameMetadataERKNS0_6ParcelEjj"
  },
  {
   "name" : "_ZN7android8hardware6camera6device4V1_022readEmbeddedFromParcelERKNS3_22HandleTimestampMessageERKNS0_6ParcelEjj"
  },
  {
   "name" : "_ZN7android8hardware6camera6device4V1_024BnHwCameraDeviceCallback10onTransactEjRKNS0_6ParcelEPS5_jNSt3__18functionIFvRS5_EEE"
  },
  {
   "name" : "_ZN7android8hardware6camera6device4V1_024BnHwCameraDeviceCallback12getDebugInfoENSt3__18functionIFvRKNS_4hidl4base4V1_09DebugInfoEEEE"
  },
  {
   "name" : "_ZN7android8hardware6camera6device4V1_024BnHwCameraDeviceCallback18_hidl_dataCallbackEPNS_4hidl4base4V1_08BnHwBaseERKNS0_6ParcelEPSA_NSt3__18functionIFvRSA_EEE"
  },
  {
   "name" : "_ZN7android8hardware6camera6device4V1_024BnHwCameraDeviceCallback20_hidl_notifyCallbackEPNS_4hidl4base4V1_08BnHwBaseERKNS0_6ParcelEPSA_NSt3__18functionIFvRSA_EEE"
  },
  {
   "name" : "_ZN7android8hardware6camera6device4V1_024BnHwCameraDeviceCallback20_hidl_registerMemoryEPNS_4hidl4base4V1_08BnHwBaseERKNS0_6ParcelEPSA_NSt3__18functionIFvRSA_EEE"
  },
  {
   "name" : "_ZN7android8hardware6camera6device4V1_024BnHwCameraDeviceCallback22_hidl_unregisterMemoryEPNS_4hidl4base4V1_08BnHwBaseERKNS0_6ParcelEPSA_NSt3__18functionIFvRSA_EEE"
  },
  {
   "name" : "_ZN7android8hardware6camera6device4V1_024BnHwCameraDeviceCallback27_hidl_dataCallbackTimestampEPNS_4hidl4base4V1_08BnHwBaseERKNS0_6ParcelEPSA_NSt3__18functionIFvRSA_EEE"
  },
  {
   "name" : "_ZN7android8hardware6camera6device4V1_024BnHwCameraDeviceCallback29_hidl_handleCallbackTimestampEPNS_4hidl4base4V1_08BnHwBaseERKNS0_6ParcelEPSA_NSt3__18functionIFvRSA_EEE"
  },
  {
   "name" : "_ZN7android8hardware6camera6device4V1_024BnHwCameraDeviceCallback34_hidl_handleCallbackTimestampBatchEPNS_4hidl4base4V1_08BnHwBaseERKNS0_6ParcelEPSA_NSt3__18functionIFvRSA_EEE"
  },
  {
   "name" : "_ZN7android8hardware6camera6device4V1_024BnHwCameraDeviceCallback4pingEv"
  },
  {
   "name" : "_ZN7android8hardware6camera6device4V1_024BnHwCameraDeviceCallbackC1ERKNS_2spINS3_21ICameraDeviceCallbackEEE"
  },
  {
   "name" : "_ZN7android8hardware6camera6device4V1_024BnHwCameraDeviceCallbackC2ERKNS_2spINS3_21ICameraDeviceCallbackEEE"
  },
  {
   "name" : "_ZN7android8hardware6camera6device4V1_024BnHwCameraDeviceCallbackD0Ev"
  },
  {
   "name" : "_ZN7android8hardware6camera6device4V1_024BnHwCameraDeviceCallbackD1Ev"
  },
  {
   "name" : "_ZN7android8hardware6camera6device4V1_024BnHwCameraDeviceCallbackD2Ev"
  },
  {
   "name" : "_ZN7android8hardware6camera6device4V1_024BpHwCameraDeviceCallback11linkToDeathERKNS_2spINS0_20hidl_death_recipientEEEy"
  },
  {
   "name" : "_ZN7android8hardware6camera6device4V1_024BpHwCameraDeviceCallback12dataCallbackENS3_15DataCallbackMsgEjjRKNS3_19CameraFrameMetadataE"
  },
  {
   "name" : "_ZN7android8hardware6camera6device4V1_024BpHwCameraDeviceCallback12getDebugInfoENSt3__18functionIFvRKNS_4hidl4base4V1_09DebugInfoEEEE"
  },
  {
   "name" : "_ZN7android8hardware6camera6device4V1_024BpHwCameraDeviceCallback12getHashChainENSt3__18functionIFvRKNS0_8hidl_vecINS0_10hidl_arrayIhLj32EJEEEEEEEE"
  },
  {
   "name" : "_ZN7android8hardware6camera6device4V1_024BpHwCameraDeviceCallback13unlinkToDeathERKNS_2spINS0_20hidl_death_recipientEEE"
  },
  {
   "name" : "_ZN7android8hardware6camera6device4V1_024BpHwCameraDeviceCallback14interfaceChainENSt3__18functionIFvRKNS0_8hidl_vecINS0_11hidl_stringEEEEEE"
  },
  {
   "name" : "_ZN7android8hardware6camera6device4V1_024BpHwCameraDeviceCallback14notifyCallbackENS3_17NotifyCallbackMsgEii"
  },
  {
   "name" : "_ZN7android8hardware6camera6device4V1_024BpHwCameraDeviceCallback14registerMemoryERKNS0_11hidl_handleEjj"
  },
  {
   "name" : "_ZN7android8hardware6camera6device4V1_024BpHwCameraDeviceCallback16unregisterMemoryEj"
  },
  {
   "name" : "_ZN7android8hardware6camera6device4V1_024BpHwCameraDeviceCallback18_hidl_dataCallbackEPNS0_10IInterfaceEPNS0_7details16HidlInstrumentorENS3_15DataCallbackMsgEjjRKNS3_19CameraFrameMetadataE"
  },
  {
   "name" : "_ZN7android8hardware6camera6device4V1_024BpHwCameraDeviceCallback19interfaceDescriptorENSt3__18functionIFvRKNS0_11hidl_stringEEEE"
  },
  {
   "name" : "_ZN7android8hardware6camera6device4V1_024BpHwCameraDeviceCallback20_hidl_notifyCallbackEPNS0_10IInterfaceEPNS0_7details16HidlInstrumentorENS3_17NotifyCallbackMsgEii"
  },
  {
   "name" : "_ZN7android8hardware6camera6device4V1_024BpHwCameraDeviceCallback20_hidl_registerMemoryEPNS0_10IInterfaceEPNS0_7details16HidlInstrumentorERKNS0_11hidl_handleEjj"
  },
  {
   "name" : "_ZN7android8hardware6camera6device4V1_024BpHwCameraDeviceCallback21dataCallbackTimestampENS3_15DataCallbackMsgEjjx"
  },
  {
   "name" : "_ZN7android8hardware6camera6device4V1_024BpHwCameraDeviceCallback21notifySyspropsChangedEv"
  },
  {
   "name" : "_ZN7android8hardware6camera6device4V1_024BpHwCameraDeviceCallback21setHALInstrumentationEv"
  },
  {
   "name" : "_ZN7android8hardware6camera6device4V1_024BpHwCameraDeviceCallback22_hidl_unregisterMemoryEPNS0_10IInterfaceEPNS0_7details16HidlInstrumentorEj"
  },
  {
   "name" : "_ZN7android8hardware6camera6device4V1_024BpHwCameraDeviceCallback23handleCallbackTimestampENS3_15DataCallbackMsgERKNS0_11hidl_handleEjjx"
  },
  {
   "name" : "_ZN7android8hardware6camera6device4V1_024BpHwCameraDeviceCallback27_hidl_dataCallbackTimestampEPNS0_10IInterfaceEPNS0_7details16HidlInstrumentorENS3_15DataCallbackMsgEjjx"
  },
  {
   "name" : "_ZN7android8hardware6camera6device4V1_024BpHwCameraDeviceCallback28handleCallbackTimestampBatchENS3_15DataCallbackMsgERKNS0_8hidl_vecINS3_22HandleTimestampMessageEEE"
  },
  {
   "name" : "_ZN7android8hardware6camera6device4V1_024BpHwCameraDeviceCallback29_hidl_handleCallbackTimestampEPNS0_10IInterfaceEPNS0_7details16HidlInstrumentorENS3_15DataCallbackMsgERKNS0_11hidl_handleEjjx"
  },
  {
   "name" : "_ZN7android8hardware6camera6device4V1_024BpHwCameraDeviceCallback34_hidl_handleCallbackTimestampBatchEPNS0_10IInterfaceEPNS0_7details16HidlInstrumentorENS3_15DataCallbackMsgERKNS0_8hidl_vecINS3_22HandleTimestampMessageEEE"
  },
  {
   "name" : "_ZN7android8hardware6camera6device4V1_024BpHwCameraDeviceCallback4pingEv"
  },
  {
   "name" : "_ZN7android8hardware6camera6device4V1_024BpHwCameraDeviceCallback5debugERKNS0_11hidl_handleERKNS0_8hidl_vecINS0_11hidl_stringEEE"
  },
  {
   "name" : "_ZN7android8hardware6camera6device4V1_024BpHwCameraDeviceCallbackC1ERKNS_2spINS0_7IBinderEEE"
  },
  {
   "name" : "_ZN7android8hardware6camera6device4V1_024BpHwCameraDeviceCallbackC2ERKNS_2spINS0_7IBinderEEE"
  },
  {
   "name" : "_ZN7android8hardware6camera6device4V1_028ICameraDevicePreviewCallback10getServiceERKNSt3__112basic_stringIcNS5_11char_traitsIcEENS5_9allocatorIcEEEEb"
  },
  {
   "name" : "_ZN7android8hardware6camera6device4V1_028ICameraDevicePreviewCallback11linkToDeathERKNS_2spINS0_20hidl_death_recipientEEEy"
  },
  {
   "name" : "_ZN7android8hardware6camera6device4V1_028ICameraDevicePreviewCallback12getDebugInfoENSt3__18functionIFvRKNS_4hidl4base4V1_09DebugInfoEEEE"
  },
  {
   "name" : "_ZN7android8hardware6camera6device4V1_028ICameraDevicePreviewCallback12getHashChainENSt3__18functionIFvRKNS0_8hidl_vecINS0_10hidl_arrayIhLj32EJEEEEEEEE"
  },
  {
   "name" : "_ZN7android8hardware6camera6device4V1_028ICameraDevicePreviewCallback13tryGetServiceERKNSt3__112basic_stringIcNS5_11char_traitsIcEENS5_9allocatorIcEEEEb"
  },
  {
   "name" : "_ZN7android8hardware6camera6device4V1_028ICameraDevicePreviewCallback13unlinkToDeathERKNS_2spINS0_20hidl_death_recipientEEE"
  },
  {
   "name" : "_ZN7android8hardware6camera6device4V1_028ICameraDevicePreviewCallback14interfaceChainENSt3__18functionIFvRKNS0_8hidl_vecINS0_11hidl_stringEEEEEE"
  },
  {
   "name" : "_ZN7android8hardware6camera6device4V1_028ICameraDevicePreviewCallback17registerAsServiceERKNSt3__112basic_stringIcNS5_11char_traitsIcEENS5_9allocatorIcEEEE"
  },
  {
   "name" : "_ZN7android8hardware6camera6device4V1_028ICameraDevicePreviewCallback19interfaceDescriptorENSt3__18functionIFvRKNS0_11hidl_stringEEEE"
  },
  {
   "name" : "_ZN7android8hardware6camera6device4V1_028ICameraDevicePreviewCallback21notifySyspropsChangedEv"
  },
  {
   "name" : "_ZN7android8hardware6camera6device4V1_028ICameraDevicePreviewCallback21setHALInstrumentationEv"
  },
  {
   "name" : "_ZN7android8hardware6camera6device4V1_028ICameraDevicePreviewCallback24registerForNotificationsERKNSt3__112basic_stringIcNS5_11char_traitsIcEENS5_9allocatorIcEEEERKNS_2spINS_4hidl7manager4V1_020IServiceNotificationEEE"
  },
  {
   "name" : "_ZN7android8hardware6camera6device4V1_028ICameraDevicePreviewCallback4pingEv"
  },
  {
   "name" : "_ZN7android8hardware6camera6device4V1_028ICameraDevicePreviewCallback5debugERKNS0_11hidl_handleERKNS0_8hidl_vecINS0_11hidl_stringEEE"
  },
  {
   "name" : "_ZN7android8hardware6camera6device4V1_028ICameraDevicePreviewCallback8castFromERKNS_2spINS_4hidl4base4V1_05IBaseEEEb"
  },
  {
   "name" : "_ZN7android8hardware6camera6device4V1_028ICameraDevicePreviewCallback8castFromERKNS_2spIS4_EEb"
  },
  {
   "name" : "_ZN7android8hardware6camera6device4V1_029BsCameraDevicePreviewCallback13addOnewayTaskENSt3__18functionIFvvEEE"
  },
  {
   "name" : "_ZN7android8hardware6camera6device4V1_029BsCameraDevicePreviewCallbackC1ENS_2spINS3_28ICameraDevicePreviewCallbackEEE"
  },
  {
   "name" : "_ZN7android8hardware6camera6device4V1_029BsCameraDevicePreviewCallbackC2ENS_2spINS3_28ICameraDevicePreviewCallbackEEE"
  },
  {
   "name" : "_ZN7android8hardware6camera6device4V1_031BnHwCameraDevicePreviewCallback10onTransactEjRKNS0_6ParcelEPS5_jNSt3__18functionIFvRS5_EEE"
  },
  {
   "name" : "_ZN7android8hardware6camera6device4V1_031BnHwCameraDevicePreviewCallback12getDebugInfoENSt3__18functionIFvRKNS_4hidl4base4V1_09DebugInfoEEEE"
  },
  {
   "name" : "_ZN7android8hardware6camera6device4V1_031BnHwCameraDevicePreviewCallback13_hidl_setCropEPNS_4hidl4base4V1_08BnHwBaseERKNS0_6ParcelEPSA_NSt3__18functionIFvRSA_EEE"
  },
  {
   "name" : "_ZN7android8hardware6camera6device4V1_031BnHwCameraDevicePreviewCallback14_hidl_setUsageEPNS_4hidl4base4V1_08BnHwBaseERKNS0_6ParcelEPSA_NSt3__18functionIFvRSA_EEE"
  },
  {
   "name" : "_ZN7android8hardware6camera6device4V1_031BnHwCameraDevicePreviewCallback18_hidl_cancelBufferEPNS_4hidl4base4V1_08BnHwBaseERKNS0_6ParcelEPSA_NSt3__18functionIFvRSA_EEE"
  },
  {
   "name" : "_ZN7android8hardware6camera6device4V1_031BnHwCameraDevicePreviewCallback18_hidl_setTimestampEPNS_4hidl4base4V1_08BnHwBaseERKNS0_6ParcelEPSA_NSt3__18functionIFvRSA_EEE"
  },
  {
   "name" : "_ZN7android8hardware6camera6device4V1_031BnHwCameraDevicePreviewCallback19_hidl_dequeueBufferEPNS_4hidl4base4V1_08BnHwBaseERKNS0_6ParcelEPSA_NSt3__18functionIFvRSA_EEE"
  },
  {
   "name" : "_ZN7android8hardware6camera6device4V1_031BnHwCameraDevicePreviewCallback19_hidl_enqueueBufferEPNS_4hidl4base4V1_08BnHwBaseERKNS0_6ParcelEPSA_NSt3__18functionIFvRSA_EEE"
  },
  {
   "name" : "_ZN7android8hardware6camera6device4V1_031BnHwCameraDevicePreviewCallback20_hidl_setBufferCountEPNS_4hidl4base4V1_08BnHwBaseERKNS0_6ParcelEPSA_NSt3__18functionIFvRSA_EEE"
  },
  {
   "name" : "_ZN7android8hardware6camera6device4V1_031BnHwCameraDevicePreviewCallback21_hidl_setSwapIntervalEPNS_4hidl4base4V1_08BnHwBaseERKNS0_6ParcelEPSA_NSt3__18functionIFvRSA_EEE"
  },
  {
   "name" : "_ZN7android8hardware6camera6device4V1_031BnHwCameraDevicePreviewCallback24_hidl_setBuffersGeometryEPNS_4hidl4base4V1_08BnHwBaseERKNS0_6ParcelEPSA_NSt3__18functionIFvRSA_EEE"
  },
  {
   "name" : "_ZN7android8hardware6camera6device4V1_031BnHwCameraDevicePreviewCallback33_hidl_getMinUndequeuedBufferCountEPNS_4hidl4base4V1_08BnHwBaseERKNS0_6ParcelEPSA_NSt3__18functionIFvRSA_EEE"
  },
  {
   "name" : "_ZN7android8hardware6camera6device4V1_031BnHwCameraDevicePreviewCallback4pingEv"
  },
  {
   "name" : "_ZN7android8hardware6camera6device4V1_031BnHwCameraDevicePreviewCallbackC1ERKNS_2spINS3_28ICameraDevicePreviewCallbackEEE"
  },
  {
   "name" : "_ZN7android8hardware6camera6device4V1_031BnHwCameraDevicePreviewCallbackC2ERKNS_2spINS3_28ICameraDevicePreviewCallbackEEE"
  },
  {
   "name" : "_ZN7android8hardware6camera6device4V1_031BnHwCameraDevicePreviewCallbackD0Ev"
  },
  {
   "name" : "_ZN7android8hardware6camera6device4V1_031BnHwCameraDevicePreviewCallbackD1Ev"
  },
  {
   "name" : "_ZN7android8hardware6camera6device4V1_031BnHwCameraDevicePreviewCallbackD2Ev"
  },
  {
   "name" : "_ZN7android8hardware6camera6device4V1_031BpHwCameraDevicePreviewCallback11linkToDeathERKNS_2spINS0_20hidl_death_recipientEEEy"
  },
  {
   "name" : "_ZN7android8hardware6camera6device4V1_031BpHwCameraDevicePreviewCallback12cancelBufferEy"
  },
  {
   "name" : "_ZN7android8hardware6camera6device4V1_031BpHwCameraDevicePreviewCallback12getDebugInfoENSt3__18functionIFvRKNS_4hidl4base4V1_09DebugInfoEEEE"
  },
  {
   "name" : "_ZN7android8hardware6camera6device4V1_031BpHwCameraDevicePreviewCallback12getHashChainENSt3__18functionIFvRKNS0_8hidl_vecINS0_10hidl_arrayIhLj32EJEEEEEEEE"
  },
  {
   "name" : "_ZN7android8hardware6camera6device4V1_031BpHwCameraDevicePreviewCallback12setTimestampEx"
  },
  {
   "name" : "_ZN7android8hardware6camera6device4V1_031BpHwCameraDevicePreviewCallback13_hidl_setCropEPNS0_10IInterfaceEPNS0_7details16HidlInstrumentorEiiii"
  },
  {
   "name" : "_ZN7android8hardware6camera6device4V1_031BpHwCameraDevicePreviewCallback13dequeueBufferENSt3__18functionIFvNS1_6common4V1_06StatusEyRKNS0_11hidl_handleEjEEE"
  },
  {
   "name" : "_ZN7android8hardware6camera6device4V1_031BpHwCameraDevicePreviewCallback13enqueueBufferEy"
  },
  {
   "name" : "_ZN7android8hardware6camera6device4V1_031BpHwCameraDevicePreviewCallback13unlinkToDeathERKNS_2spINS0_20hidl_death_recipientEEE"
  },
  {
   "name" : "_ZN7android8hardware6camera6device4V1_031BpHwCameraDevicePreviewCallback14_hidl_setUsageEPNS0_10IInterfaceEPNS0_7details16HidlInstrumentorENS0_8graphics6common4V1_011BufferUsageE"
  },
  {
   "name" : "_ZN7android8hardware6camera6device4V1_031BpHwCameraDevicePreviewCallback14interfaceChainENSt3__18functionIFvRKNS0_8hidl_vecINS0_11hidl_stringEEEEEE"
  },
  {
   "name" : "_ZN7android8hardware6camera6device4V1_031BpHwCameraDevicePreviewCallback14setBufferCountEj"
  },
  {
   "name" : "_ZN7android8hardware6camera6device4V1_031BpHwCameraDevicePreviewCallback15setSwapIntervalEi"
  },
  {
   "name" : "_ZN7android8hardware6camera6device4V1_031BpHwCameraDevicePreviewCallback18_hidl_cancelBufferEPNS0_10IInterfaceEPNS0_7details16HidlInstrumentorEy"
  },
  {
   "name" : "_ZN7android8hardware6camera6device4V1_031BpHwCameraDevicePreviewCallback18_hidl_setTimestampEPNS0_10IInterfaceEPNS0_7details16HidlInstrumentorEx"
  },
  {
   "name" : "_ZN7android8hardware6camera6device4V1_031BpHwCameraDevicePreviewCallback18setBuffersGeometryEjjNS0_8graphics6common4V1_011PixelFormatE"
  },
  {
   "name" : "_ZN7android8hardware6camera6device4V1_031BpHwCameraDevicePreviewCallback19_hidl_dequeueBufferEPNS0_10IInterfaceEPNS0_7details16HidlInstrumentorENSt3__18functionIFvNS1_6common4V1_06StatusEyRKNS0_11hidl_handleEjEEE"
  },
  {
   "name" : "_ZN7android8hardware6camera6device4V1_031BpHwCameraDevicePreviewCallback19_hidl_enqueueBufferEPNS0_10IInterfaceEPNS0_7details16HidlInstrumentorEy"
  },
  {
   "name" : "_ZN7android8hardware6camera6device4V1_031BpHwCameraDevicePreviewCallback19interfaceDescriptorENSt3__18functionIFvRKNS0_11hidl_stringEEEE"
  },
  {
   "name" : "_ZN7android8hardware6camera6device4V1_031BpHwCameraDevicePreviewCallback20_hidl_setBufferCountEPNS0_10IInterfaceEPNS0_7details16HidlInstrumentorEj"
  },
  {
   "name" : "_ZN7android8hardware6camera6device4V1_031BpHwCameraDevicePreviewCallback21_hidl_setSwapIntervalEPNS0_10IInterfaceEPNS0_7details16HidlInstrumentorEi"
  },
  {
   "name" : "_ZN7android8hardware6camera6device4V1_031BpHwCameraDevicePreviewCallback21notifySyspropsChangedEv"
  },
  {
   "name" : "_ZN7android8hardware6camera6device4V1_031BpHwCameraDevicePreviewCallback21setHALInstrumentationEv"
  },
  {
   "name" : "_ZN7android8hardware6camera6device4V1_031BpHwCameraDevicePreviewCallback24_hidl_setBuffersGeometryEPNS0_10IInterfaceEPNS0_7details16HidlInstrumentorEjjNS0_8graphics6common4V1_011PixelFormatE"
  },
  {
   "name" : "_ZN7android8hardware6camera6device4V1_031BpHwCameraDevicePreviewCallback27getMinUndequeuedBufferCountENSt3__18functionIFvNS1_6common4V1_06StatusEjEEE"
  },
  {
   "name" : "_ZN7android8hardware6camera6device4V1_031BpHwCameraDevicePreviewCallback33_hidl_getMinUndequeuedBufferCountEPNS0_10IInterfaceEPNS0_7details16HidlInstrumentorENSt3__18functionIFvNS1_6common4V1_06StatusEjEEE"
  },
  {
   "name" : "_ZN7android8hardware6camera6device4V1_031BpHwCameraDevicePreviewCallback4pingEv"
  },
  {
   "name" : "_ZN7android8hardware6camera6device4V1_031BpHwCameraDevicePreviewCallback5debugERKNS0_11hidl_handleERKNS0_8hidl_vecINS0_11hidl_stringEEE"
  },
  {
   "name" : "_ZN7android8hardware6camera6device4V1_031BpHwCameraDevicePreviewCallback7setCropEiiii"
  },
  {
   "name" : "_ZN7android8hardware6camera6device4V1_031BpHwCameraDevicePreviewCallback8setUsageENS0_8graphics6common4V1_011BufferUsageE"
  },
  {
   "name" : "_ZN7android8hardware6camera6device4V1_031BpHwCameraDevicePreviewCallbackC1ERKNS_2spINS0_7IBinderEEE"
  },
  {
   "name" : "_ZN7android8hardware6camera6device4V1_031BpHwCameraDevicePreviewCallbackC2ERKNS_2spINS0_7IBinderEEE"
  },
  {
   "binding" : "weak",
   "name" : "_ZN7android8hardware7details13castInterfaceINS0_6camera6device4V1_013ICameraDeviceENS_4hidl4base4V1_05IBaseENS5_16BpHwCameraDeviceEEENS0_6ReturnINS_2spIT_EEEENSD_IT0_EEPKcb"
  },
  {
   "binding" : "weak",
   "name" : "_ZN7android8hardware7details13castInterfaceINS0_6camera6device4V1_021ICameraDeviceCallbackENS_4hidl4base4V1_05IBaseENS5_24BpHwCameraDeviceCallbackEEENS0_6ReturnINS_2spIT_EEEENSD_IT0_EEPKcb"
  },
  {
   "binding" : "weak",
   "name" : "_ZN7android8hardware7details13castInterfaceINS0_6camera6device4V1_028ICameraDevicePreviewCallbackENS_4hidl4base4V1_05IBaseENS5_31BpHwCameraDevicePreviewCallbackEEENS0_6ReturnINS_2spIT_EEEENSD_IT0_EEPKcb"
  },
  {
   "binding" : "weak",
   "name" : "_ZN7android8hardware7details15wrapPassthroughINS0_6camera6device4V1_021ICameraDeviceCallbackEvEENS_2spIT_EES9_"
  },
  {
   "binding" : "weak",
   "name" : "_ZN7android8hardware7details15wrapPassthroughINS0_6camera6device4V1_028ICameraDevicePreviewCallbackEvEENS_2spIT_EES9_"
  },
  {
   "binding" : "weak",
   "name" : "_ZN7android8hardware7details18getServiceInternalINS0_6camera6device4V1_016BpHwCameraDeviceENS5_13ICameraDeviceEvvEENS_2spIT0_EERKNSt3__112basic_stringIcNSB_11char_traitsIcEENSB_9allocatorIcEEEEbb"
  },
  {
   "binding" : "weak",
   "name" : "_ZN7android8hardware7details18getServiceInternalINS0_6camera6device4V1_024BpHwCameraDeviceCallbackENS5_21ICameraDeviceCallbackEvvEENS_2spIT0_EERKNSt3__112basic_stringIcNSB_11char_traitsIcEENSB_9allocatorIcEEEEbb"
  },
  {
   "binding" : "weak",
   "name" : "_ZN7android8hardware7details18getServiceInternalINS0_6camera6device4V1_031BpHwCameraDevicePreviewCallbackENS5_28ICameraDevicePreviewCallbackEvvEENS_2spIT0_EERKNSt3__112basic_stringIcNSB_11char_traitsIcEENSB_9allocatorIcEEEEbb"
  },
  {
   "binding" : "weak",
   "name" : "_ZNSt3__113__tree_removeIPNS_16__tree_node_baseIPvEEEEvT_S5_"
  },
  {
   "binding" : "weak",
   "name" : "_ZNSt3__127__tree_balance_after_insertIPNS_16__tree_node_baseIPvEEEEvT_S5_"
  },
  {
   "binding" : "weak",
   "name" : "_ZNSt3__16__treeINS_12__value_typeINS_12basic_stringIcNS_11char_traitsIcEENS_9allocatorIcEEEENS_8functionIFN7android2spINS9_4hidl4base4V1_05IBaseEEEPvEEEEENS_19__map_value_compareIS7_SJ_NS_4lessIS7_EELb1EEENS5_ISJ_EEE12__find_equalIS7_EERPNS_16__tree_node_baseISG_EERPNS_15__tree_end_nodeIST_EERKT_"
  },
  {
   "binding" : "weak",
   "name" : "_ZNSt3__16__treeINS_12__value_typeINS_12basic_stringIcNS_11char_traitsIcEENS_9allocatorIcEEEENS_8functionIFN7android2spINS9_4hidl4base4V1_05IBaseEEEPvEEEEENS_19__map_value_compareIS7_SJ_NS_4lessIS7_EELb1EEENS5_ISJ_EEE4findIS7_EENS_15__tree_iteratorISJ_PNS_11__tree_nodeISJ_SG_EEiEERKT_"
  },
  {
   "binding" : "weak",
   "name" : "_ZNSt3__16__treeINS_12__value_typeINS_12basic_stringIcNS_11char_traitsIcEENS_9allocatorIcEEEENS_8functionIFN7android2spINS9_4hidl4base4V1_05IBaseEEEPvEEEEENS_19__map_value_compareIS7_SJ_NS_4lessIS7_EELb1EEENS5_ISJ_EEE5eraseENS_21__tree_const_iteratorISJ_PNS_11__tree_nodeISJ_SG_EEiEE"
  },
  {
   "binding" : "weak",
   "name" : "_ZNSt3__16__treeINS_12__value_typeINS_12basic_stringIcNS_11char_traitsIcEENS_9allocatorIcEEEENS_8functionIFN7android2spINS9_8hardware7IBinderEEEPvEEEEENS_19__map_value_compareIS7_SH_NS_4lessIS7_EELb1EEENS5_ISH_EEE12__find_equalIS7_EERPNS_16__tree_node_baseISE_EERPNS_15__tree_end_nodeISR_EERKT_"
  },
  {
   "binding" : "weak",
   "name" : "_ZNSt3__16__treeINS_12__value_typeINS_12basic_stringIcNS_11char_traitsIcEENS_9allocatorIcEEEENS_8functionIFN7android2spINS9_8hardware7IBinderEEEPvEEEEENS_19__map_value_compareIS7_SH_NS_4lessIS7_EELb1EEENS5_ISH_EEE4findIS7_EENS_15__tree_iteratorISH_PNS_11__tree_nodeISH_SE_EEiEERKT_"
  },
  {
   "binding" : "weak",
   "name" : "_ZNSt3__16__treeINS_12__value_typeINS_12basic_stringIcNS_11char_traitsIcEENS_9allocatorIcEEEENS_8functionIFN7android2spINS9_8hardware7IBinderEEEPvEEEEENS_19__map_value_compareIS7_SH_NS_4lessIS7_EELb1EEENS5_ISH_EEE5eraseENS_21__tree_const_iteratorISH_PNS_11__tree_nodeISH_SE_EEiEE"
  },
  {
   "binding" : "weak",
   "name" : "_ZNSt3__16vectorIN7android2spINS1_8hardware27hidl_binder_death_recipientEEENS_9allocatorIS5_EEE21__push_back_slow_pathIS5_EEvOT_"
  },
  {
   "binding" : "weak",
   "name" : "_ZNSt3__16vectorINS_8functionIFvN7android8hardware7details16HidlInstrumentor20InstrumentationEventEPKcS8_S8_S8_PNS0_IPvNS_9allocatorIS9_EEEEEEENSA_ISF_EEEC2ERKSH_"
  },
  {
   "binding" : "weak",
   "name" : "_ZNSt3__16vectorIPvNS_9allocatorIS1_EEE21__push_back_slow_pathIS1_EEvOT_"
  },
  {
   "name" : "_ZThn20_N7android8hardware6camera6device4V1_016BnHwCameraDeviceD0Ev"
  },
  {
   "name" : "_ZThn20_N7android8hardware6camera6device4V1_016BnHwCameraDeviceD1Ev"
  },
  {
   "name" : "_ZThn20_N7android8hardware6camera6device4V1_024BnHwCameraDeviceCallbackD0Ev"
  },
  {
   "name" : "_ZThn20_N7android8hardware6camera6device4V1_024BnHwCameraDeviceCallbackD1Ev"
  },
  {
   "name" : "_ZThn20_N7android8hardware6camera6device4V1_031BnHwCameraDevicePreviewCallbackD0Ev"
  },
  {
   "name" : "_ZThn20_N7android8hardware6camera6device4V1_031BnHwCameraDevicePreviewCallbackD1Ev"
  },
  {
   "name" : "_ZTv0_n12_N7android8hardware6camera6device4V1_016BnHwCameraDeviceD0Ev"
  },
  {
   "name" : "_ZTv0_n12_N7android8hardware6camera6device4V1_016BnHwCameraDeviceD1Ev"
  },
  {
   "name" : "_ZTv0_n12_N7android8hardware6camera6device4V1_024BnHwCameraDeviceCallbackD0Ev"
  },
  {
   "name" : "_ZTv0_n12_N7android8hardware6camera6device4V1_024BnHwCameraDeviceCallbackD1Ev"
  },
  {
   "name" : "_ZTv0_n12_N7android8hardware6camera6device4V1_031BnHwCameraDevicePreviewCallbackD0Ev"
  },
  {
   "name" : "_ZTv0_n12_N7android8hardware6camera6device4V1_031BnHwCameraDevicePreviewCallbackD1Ev"
  },
  {
   "name" : "__aeabi_memclr"
  },
  {
   "name" : "__aeabi_memclr4"
  },
  {
   "name" : "__aeabi_memclr8"
  },
  {
   "name" : "__aeabi_memcpy"
  },
  {
   "name" : "__aeabi_memcpy4"
  },
  {
   "name" : "__aeabi_memcpy8"
  },
  {
   "name" : "__aeabi_memset"
  },
  {
   "name" : "__aeabi_memset4"
  },
  {
   "name" : "__aeabi_memset8"
  }
 ],
 "elf_objects" :
 [
  {
   "name" : "_ZN7android8hardware6camera6device4V1_013ICameraDevice10descriptorE"
  },
  {
   "name" : "_ZN7android8hardware6camera6device4V1_021ICameraDeviceCallback10descriptorE"
  },
  {
   "name" : "_ZN7android8hardware6camera6device4V1_028ICameraDevicePreviewCallback10descriptorE"
  },
  {
   "name" : "_ZTCN7android8hardware6camera6device4V1_013ICameraDeviceE0_NS_4hidl4base4V1_05IBaseE"
  },
  {
   "binding" : "weak",
   "name" : "_ZTCN7android8hardware6camera6device4V1_014BsCameraDeviceE0_NS3_13ICameraDeviceE"
  },
  {
   "name" : "_ZTCN7android8hardware6camera6device4V1_016BnHwCameraDeviceE0_NS0_7IBinderE"
  },
  {
   "name" : "_ZTCN7android8hardware6camera6device4V1_016BnHwCameraDeviceE0_NS0_9BHwBinderE"
  },
  {
   "name" : "_ZTCN7android8hardware6camera6device4V1_016BnHwCameraDeviceE0_NS_4hidl4base4V1_08BnHwBaseE"
  },
  {
   "name" : "_ZTCN7android8hardware6camera6device4V1_016BpHwCameraDeviceE0_NS0_11BpInterfaceINS3_13ICameraDeviceEEE"
  },
  {
   "name" : "_ZTCN7android8hardware6camera6device4V1_016BpHwCameraDeviceE0_NS3_13ICameraDeviceE"
  },
  {
   "name" : "_ZTCN7android8hardware6camera6device4V1_016BpHwCameraDeviceE0_NS_4hidl4base4V1_05IBaseE"
  },
  {
   "name" : "_ZTCN7android8hardware6camera6device4V1_016BpHwCameraDeviceE4_NS0_10IInterfaceE"
  },
  {
   "name" : "_ZTCN7android8hardware6camera6device4V1_016BpHwCameraDeviceE8_NS0_11BpHwRefBaseE"
  },
  {
   "name" : "_ZTCN7android8hardware6camera6device4V1_021ICameraDeviceCallbackE0_NS_4hidl4base4V1_05IBaseE"
  },
  {
   "binding" : "weak",
   "name" : "_ZTCN7android8hardware6camera6device4V1_022BsCameraDeviceCallbackE0_NS3_21ICameraDeviceCallbackE"
  },
  {
   "name" : "_ZTCN7android8hardware6camera6device4V1_024BnHwCameraDeviceCallbackE0_NS0_7IBinderE"
  },
  {
   "name" : "_ZTCN7android8hardware6camera6device4V1_024BnHwCameraDeviceCallbackE0_NS0_9BHwBinderE"
  },
  {
   "name" : "_ZTCN7android8hardware6camera6device4V1_024BnHwCameraDeviceCallbackE0_NS_4hidl4base4V1_08BnHwBaseE"
  },
  {
   "name" : "_ZTCN7android8hardware6camera6device4V1_024BpHwCameraDeviceCallbackE0_NS0_11BpInterfaceINS3_21ICameraDeviceCallbackEEE"
  },
  {
   "name" : "_ZTCN7android8hardware6camera6device4V1_024BpHwCameraDeviceCallbackE0_NS3_21ICameraDeviceCallbackE"
  },
  {
   "name" : "_ZTCN7android8hardware6camera6device4V1_024BpHwCameraDeviceCallbackE0_NS_4hidl4base4V1_05IBaseE"
  },
  {
   "name" : "_ZTCN7android8hardware6camera6device4V1_024BpHwCameraDeviceCallbackE4_NS0_10IInterfaceE"
  },
  {
   "name" : "_ZTCN7android8hardware6camera6device4V1_024BpHwCameraDeviceCallbackE8_NS0_11BpHwRefBaseE"
  },
  {
   "name" : "_ZTCN7android8hardware6camera6device4V1_028ICameraDevicePreviewCallbackE0_NS_4hidl4base4V1_05IBaseE"
  },
  {
   "binding" : "weak",
   "name" : "_ZTCN7android8hardware6camera6device4V1_029BsCameraDevicePreviewCallbackE0_NS3_28ICameraDevicePreviewCallbackE"
  },
  {
   "name" : "_ZTCN7android8hardware6camera6device4V1_031BnHwCameraDevicePreviewCallbackE0_NS0_7IBinderE"
  },
  {
   "name" : "_ZTCN7android8hardware6camera6device4V1_031BnHwCameraDevicePreviewCallbackE0_NS0_9BHwBinderE"
  },
  {
   "name" : "_ZTCN7android8hardware6camera6device4V1_031BnHwCameraDevicePreviewCallbackE0_NS_4hidl4base4V1_08BnHwBaseE"
  },
  {
   "name" : "_ZTCN7android8hardware6camera6device4V1_031BpHwCameraDevicePreviewCallbackE0_NS0_11BpInterfaceINS3_28ICameraDevicePreviewCallbackEEE"
  },
  {
   "name" : "_ZTCN7android8hardware6camera6device4V1_031BpHwCameraDevicePreviewCallbackE0_NS3_28ICameraDevicePreviewCallbackE"
  },
  {
   "name" : "_ZTCN7android8hardware6camera6device4V1_031BpHwCameraDevicePreviewCallbackE0_NS_4hidl4base4V1_05IBaseE"
  },
  {
   "name" : "_ZTCN7android8hardware6camera6device4V1_031BpHwCameraDevicePreviewCallbackE4_NS0_10IInterfaceE"
  },
  {
   "name" : "_ZTCN7android8hardware6camera6device4V1_031BpHwCameraDevicePreviewCallbackE8_NS0_11BpHwRefBaseE"
  },
  {
   "name" : "_ZTTN7android8hardware6camera6device4V1_013ICameraDeviceE"
  },
  {
   "name" : "_ZTTN7android8hardware6camera6device4V1_016BnHwCameraDeviceE"
  },
  {
   "name" : "_ZTTN7android8hardware6camera6device4V1_016BpHwCameraDeviceE"
  },
  {
   "name" : "_ZTTN7android8hardware6camera6device4V1_021ICameraDeviceCallbackE"
  },
  {
   "name" : "_ZTTN7android8hardware6camera6device4V1_024BnHwCameraDeviceCallbackE"
  },
  {
   "name" : "_ZTTN7android8hardware6camera6device4V1_024BpHwCameraDeviceCallbackE"
  },
  {
   "name" : "_ZTTN7android8hardware6camera6device4V1_028ICameraDevicePreviewCallbackE"
  },
  {
   "name" : "_ZTTN7android8hardware6camera6device4V1_031BnHwCameraDevicePreviewCallbackE"
  },
  {
   "name" : "_ZTTN7android8hardware6camera6device4V1_031BpHwCameraDevicePreviewCallbackE"
  },
  {
   "name" : "_ZTVN7android8hardware6camera6device4V1_013ICameraDeviceE"
  },
  {
   "binding" : "weak",
   "name" : "_ZTVN7android8hardware6camera6device4V1_014BsCameraDeviceE"
  },
  {
   "name" : "_ZTVN7android8hardware6camera6device4V1_016BnHwCameraDeviceE"
  },
  {
   "name" : "_ZTVN7android8hardware6camera6device4V1_016BpHwCameraDeviceE"
  },
  {
   "name" : "_ZTVN7android8hardware6camera6device4V1_021ICameraDeviceCallbackE"
  },
  {
   "binding" : "weak",
   "name" : "_ZTVN7android8hardware6camera6device4V1_022BsCameraDeviceCallbackE"
  },
  {
   "name" : "_ZTVN7android8hardware6camera6device4V1_024BnHwCameraDeviceCallbackE"
  },
  {
   "name" : "_ZTVN7android8hardware6camera6device4V1_024BpHwCameraDeviceCallbackE"
  },
  {
   "name" : "_ZTVN7android8hardware6camera6device4V1_028ICameraDevicePreviewCallbackE"
  },
  {
   "binding" : "weak",
   "name" : "_ZTVN7android8hardware6camera6device4V1_029BsCameraDevicePreviewCallbackE"
  },
  {
   "name" : "_ZTVN7android8hardware6camera6device4V1_031BnHwCameraDevicePreviewCallbackE"
  },
  {
   "name" : "_ZTVN7android8hardware6camera6device4V1_031BpHwCameraDevicePreviewCallbackE"
  }
 ],
 "enum_types" :
 [
  {
   "alignment" : 4,
   "enum_fields" :
   [
    {
     "enum_field_value" : 0,
     "name" : "android::Condition::WAKE_UP_ONE"
    },
    {
     "enum_field_value" : 1,
     "name" : "android::Condition::WAKE_UP_ALL"
    }
   ],
   "linker_set_key" : "android::Condition::WakeUpType",
   "name" : "android::Condition::WakeUpType",
   "referenced_type" : "type-898",
   "self_type" : "type-898",
   "size" : 4,
   "source_file" : "/system/core/libutils/include/utils/Condition.h",
   "underlying_type" : "type-2",
   "unique_id" : "_ZTSN7android9Condition10WakeUpTypeE"
  },
  {
   "alignment" : 4,
   "enum_fields" :
   [
    {
     "enum_field_value" : 0,
     "name" : "android::String16::kEmptyString"
    }
   ],
   "linker_set_key" : "android::String16::StaticLinkage",
   "name" : "android::String16::StaticLinkage",
   "referenced_type" : "type-782",
   "self_type" : "type-782",
   "size" : 4,
   "source_file" : "/system/core/libutils/include/utils/String16.h",
   "underlying_type" : "type-2",
   "unique_id" : "_ZTSN7android8String1613StaticLinkageE"
  },
  {
   "alignment" : 4,
   "enum_fields" :
   [
    {
     "enum_field_value" : 0,
     "name" : "android::String8::kEmptyString"
    }
   ],
   "linker_set_key" : "android::String8::StaticLinkage",
   "name" : "android::String8::StaticLinkage",
   "referenced_type" : "type-775",
   "self_type" : "type-775",
   "size" : 4,
   "source_file" : "/system/core/libutils/include/utils/String8.h",
   "underlying_type" : "type-2",
   "unique_id" : "_ZTSN7android7String813StaticLinkageE"
  },
  {
   "alignment" : 4,
   "enum_fields" :
   [
    {
     "enum_field_value" : 0,
     "name" : "android::hardware::HidlReturnRestriction::NONE"
    },
    {
     "enum_field_value" : 1,
     "name" : "android::hardware::HidlReturnRestriction::ERROR_IF_UNCHECKED"
    },
    {
     "enum_field_value" : 2,
     "name" : "android::hardware::HidlReturnRestriction::FATAL_IF_UNCHECKED"
    }
   ],
   "linker_set_key" : "android::hardware::HidlReturnRestriction",
   "name" : "android::hardware::HidlReturnRestriction",
   "referenced_type" : "type-457",
   "self_type" : "type-457",
   "size" : 4,
   "source_file" : "/system/libhidl/base/include/hidl/Status.h",
   "underlying_type" : "type-45",
   "unique_id" : "_ZTSN7android8hardware21HidlReturnRestrictionE"
  },
  {
   "alignment" : 4,
   "enum_fields" :
   [
    {
     "enum_field_value" : 0,
     "name" : "android::hardware::MQDescriptor<char, android::hardware::kSynchronizedReadWrite>::READPTRPOS"
    },
    {
     "enum_field_value" : 1,
     "name" : "android::hardware::MQDescriptor<char, android::hardware::kSynchronizedReadWrite>::WRITEPTRPOS"
    },
    {
     "enum_field_value" : 2,
     "name" : "android::hardware::MQDescriptor<char, android::hardware::kSynchronizedReadWrite>::DATAPTRPOS"
    },
    {
     "enum_field_value" : 3,
     "name" : "android::hardware::MQDescriptor<char, android::hardware::kSynchronizedReadWrite>::EVFLAGWORDPOS"
    }
   ],
   "linker_set_key" : "android::hardware::MQDescriptor<char, android::hardware::kSynchronizedReadWrite>::GrantorType",
   "name" : "android::hardware::MQDescriptor<char, android::hardware::kSynchronizedReadWrite>::GrantorType",
   "referenced_type" : "type-766",
   "self_type" : "type-766",
   "size" : 4,
   "source_file" : "/system/libhidl/base/include/hidl/MQDescriptor.h",
   "underlying_type" : "type-45",
   "unique_id" : "_ZTSN7android8hardware12MQDescriptorIcLNS0_8MQFlavorE1EE11GrantorTypeE"
  },
  {
   "alignment" : 4,
   "enum_fields" :
   [
    {
     "enum_field_value" : 1,
     "name" : "android::hardware::kSynchronizedReadWrite"
    },
    {
     "enum_field_value" : 2,
     "name" : "android::hardware::kUnsynchronizedWrite"
    }
   ],
   "linker_set_key" : "android::hardware::MQFlavor",
   "name" : "android::hardware::MQFlavor",
   "referenced_type" : "type-764",
   "self_type" : "type-764",
   "size" : 4,
   "source_file" : "/system/libhidl/base/include/hidl/MQDescriptor.h",
   "underlying_type" : "type-2",
   "unique_id" : "_ZTSN7android8hardware8MQFlavorE"
  },
  {
   "alignment" : 4,
   "enum_fields" :
   [
    {
     "enum_field_value" : 0,
     "name" : "android::hardware::ProcessState::CallRestriction::NONE"
    },
    {
     "enum_field_value" : 1,
     "name" : "android::hardware::ProcessState::CallRestriction::ERROR_IF_NOT_ONEWAY"
    },
    {
     "enum_field_value" : 2,
     "name" : "android::hardware::ProcessState::CallRestriction::FATAL_IF_NOT_ONEWAY"
    }
   ],
   "linker_set_key" : "android::hardware::ProcessState::CallRestriction",
   "name" : "android::hardware::ProcessState::CallRestriction",
   "referenced_type" : "type-150",
   "self_type" : "type-150",
   "size" : 4,
   "source_file" : "/system/libhwbinder/include/hwbinder/ProcessState.h",
   "underlying_type" : "type-45",
   "unique_id" : "_ZTSN7android8hardware12ProcessState15CallRestrictionE"
  },
  {
   "alignment" : 4,
   "enum_fields" :
   [
    {
     "enum_field_value" : 0,
     "name" : "android::hardware::Status::EX_NONE"
    },
    {
     "enum_field_value" : -1,
     "name" : "android::hardware::Status::EX_SECURITY"
    },
    {
     "enum_field_value" : -2,
     "name" : "android::hardware::Status::EX_BAD_PARCELABLE"
    },
    {
     "enum_field_value" : -3,
     "name" : "android::hardware::Status::EX_ILLEGAL_ARGUMENT"
    },
    {
     "enum_field_value" : -4,
     "name" : "android::hardware::Status::EX_NULL_POINTER"
    },
    {
     "enum_field_value" : -5,
     "name" : "android::hardware::Status::EX_ILLEGAL_STATE"
    },
    {
     "enum_field_value" : -6,
     "name" : "android::hardware::Status::EX_NETWORK_MAIN_THREAD"
    },
    {
     "enum_field_value" : -7,
     "name" : "android::hardware::Status::EX_UNSUPPORTED_OPERATION"
    },
    {
     "enum_field_value" : -128,
     "name" : "android::hardware::Status::EX_HAS_REPLY_HEADER"
    },
    {
     "enum_field_value" : -129,
     "name" : "android::hardware::Status::EX_TRANSACTION_FAILED"
    }
   ],
   "linker_set_key" : "android::hardware::Status::Exception",
   "name" : "android::hardware::Status::Exception",
   "referenced_type" : "type-381",
   "self_type" : "type-381",
   "size" : 4,
   "source_file" : "/system/libhidl/base/include/hidl/Status.h",
   "underlying_type" : "type-45",
   "unique_id" : "_ZTSN7android8hardware6Status9ExceptionE"
  },
  {
   "alignment" : 4,
   "enum_fields" :
   [
    {
     "enum_field_value" : 0,
     "name" : "android::hardware::camera::common::V1_0::CameraDeviceStatus::NOT_PRESENT"
    },
    {
     "enum_field_value" : 1,
     "name" : "android::hardware::camera::common::V1_0::CameraDeviceStatus::PRESENT"
    },
    {
     "enum_field_value" : 2,
     "name" : "android::hardware::camera::common::V1_0::CameraDeviceStatus::ENUMERATING"
    }
   ],
   "linker_set_key" : "android::hardware::camera::common::V1_0::CameraDeviceStatus",
   "name" : "android::hardware::camera::common::V1_0::CameraDeviceStatus",
   "referenced_type" : "type-928",
   "self_type" : "type-928",
   "size" : 4,
   "source_file" : "/out/soong/.intermediates/hardware/interfaces/camera/common/1.0/android.hardware.camera.common@1.0_genc++_headers/gen/android/hardware/camera/common/1.0/types.h",
   "underlying_type" : "type-2",
   "unique_id" : "_ZTSN7android8hardware6camera6common4V1_018CameraDeviceStatusE"
  },
  {
   "alignment" : 4,
   "enum_fields" :
   [
    {
     "enum_field_value" : 0,
     "name" : "android::hardware::camera::common::V1_0::CameraMetadataType::BYTE"
    },
    {
     "enum_field_value" : 1,
     "name" : "android::hardware::camera::common::V1_0::CameraMetadataType::INT32"
    },
    {
     "enum_field_value" : 2,
     "name" : "android::hardware::camera::common::V1_0::CameraMetadataType::FLOAT"
    },
    {
     "enum_field_value" : 3,
     "name" : "android::hardware::camera::common::V1_0::CameraMetadataType::INT64"
    },
    {
     "enum_field_value" : 4,
     "name" : "android::hardware::camera::common::V1_0::CameraMetadataType::DOUBLE"
    },
    {
     "enum_field_value" : 5,
     "name" : "android::hardware::camera::common::V1_0::CameraMetadataType::RATIONAL"
    }
   ],
   "linker_set_key" : "android::hardware::camera::common::V1_0::CameraMetadataType",
   "name" : "android::hardware::camera::common::V1_0::CameraMetadataType",
   "referenced_type" : "type-709",
   "self_type" : "type-709",
   "size" : 4,
   "source_file" : "/out/soong/.intermediates/hardware/interfaces/camera/common/1.0/android.hardware.camera.common@1.0_genc++_headers/gen/android/hardware/camera/common/1.0/types.h",
   "underlying_type" : "type-2",
   "unique_id" : "_ZTSN7android8hardware6camera6common4V1_018CameraMetadataTypeE"
  },
  {
   "alignment" : 4,
   "enum_fields" :
   [
    {
     "enum_field_value" : 0,
     "name" : "android::hardware::camera::common::V1_0::Status::OK"
    },
    {
     "enum_field_value" : 1,
     "name" : "android::hardware::camera::common::V1_0::Status::ILLEGAL_ARGUMENT"
    },
    {
     "enum_field_value" : 2,
     "name" : "android::hardware::camera::common::V1_0::Status::CAMERA_IN_USE"
    },
    {
     "enum_field_value" : 3,
     "name" : "android::hardware::camera::common::V1_0::Status::MAX_CAMERAS_IN_USE"
    },
    {
     "enum_field_value" : 4,
     "name" : "android::hardware::camera::common::V1_0::Status::METHOD_NOT_SUPPORTED"
    },
    {
     "enum_field_value" : 5,
     "name" : "android::hardware::camera::common::V1_0::Status::OPERATION_NOT_SUPPORTED"
    },
    {
     "enum_field_value" : 6,
     "name" : "android::hardware::camera::common::V1_0::Status::CAMERA_DISCONNECTED"
    },
    {
     "enum_field_value" : 7,
     "name" : "android::hardware::camera::common::V1_0::Status::INTERNAL_ERROR"
    }
   ],
   "linker_set_key" : "android::hardware::camera::common::V1_0::Status",
   "name" : "android::hardware::camera::common::V1_0::Status",
   "referenced_type" : "type-409",
   "self_type" : "type-409",
   "size" : 4,
   "source_file" : "/out/soong/.intermediates/hardware/interfaces/camera/common/1.0/android.hardware.camera.common@1.0_genc++_headers/gen/android/hardware/camera/common/1.0/types.h",
   "underlying_type" : "type-2",
   "unique_id" : "_ZTSN7android8hardware6camera6common4V1_06StatusE"
  },
  {
   "alignment" : 4,
   "enum_fields" :
   [
    {
     "enum_field_value" : 0,
     "name" : "android::hardware::camera::common::V1_0::TagBoundaryId::AOSP"
    },
    {
     "enum_field_value" : -2147483648,
     "name" : "android::hardware::camera::common::V1_0::TagBoundaryId::VENDOR"
    }
   ],
   "linker_set_key" : "android::hardware::camera::common::V1_0::TagBoundaryId",
   "name" : "android::hardware::camera::common::V1_0::TagBoundaryId",
   "referenced_type" : "type-927",
   "self_type" : "type-927",
   "size" : 4,
   "source_file" : "/out/soong/.intermediates/hardware/interfaces/camera/common/1.0/android.hardware.camera.common@1.0_genc++_headers/gen/android/hardware/camera/common/1.0/types.h",
   "underlying_type" : "type-2",
   "unique_id" : "_ZTSN7android8hardware6camera6common4V1_013TagBoundaryIdE"
  },
  {
   "alignment" : 4,
   "enum_fields" :
   [
    {
     "enum_field_value" : 0,
     "name" : "android::hardware::camera::common::V1_0::TorchMode::OFF"
    },
    {
     "enum_field_value" : 1,
     "name" : "android::hardware::camera::common::V1_0::TorchMode::ON"
    }
   ],
   "linker_set_key" : "android::hardware::camera::common::V1_0::TorchMode",
   "name" : "android::hardware::camera::common::V1_0::TorchMode",
   "referenced_type" : "type-925",
   "self_type" : "type-925",
   "size" : 4,
   "source_file" : "/out/soong/.intermediates/hardware/interfaces/camera/common/1.0/android.hardware.camera.common@1.0_genc++_headers/gen/android/hardware/camera/common/1.0/types.h",
   "underlying_type" : "type-2",
   "unique_id" : "_ZTSN7android8hardware6camera6common4V1_09TorchModeE"
  },
  {
   "alignment" : 4,
   "enum_fields" :
   [
    {
     "enum_field_value" : 0,
     "name" : "android::hardware::camera::common::V1_0::TorchModeStatus::NOT_AVAILABLE"
    },
    {
     "enum_field_value" : 1,
     "name" : "android::hardware::camera::common::V1_0::TorchModeStatus::AVAILABLE_OFF"
    },
    {
     "enum_field_value" : 2,
     "name" : "android::hardware::camera::common::V1_0::TorchModeStatus::AVAILABLE_ON"
    }
   ],
   "linker_set_key" : "android::hardware::camera::common::V1_0::TorchModeStatus",
   "name" : "android::hardware::camera::common::V1_0::TorchModeStatus",
   "referenced_type" : "type-929",
   "self_type" : "type-929",
   "size" : 4,
   "source_file" : "/out/soong/.intermediates/hardware/interfaces/camera/common/1.0/android.hardware.camera.common@1.0_genc++_headers/gen/android/hardware/camera/common/1.0/types.h",
   "underlying_type" : "type-2",
   "unique_id" : "_ZTSN7android8hardware6camera6common4V1_015TorchModeStatusE"
  },
  {
   "alignment" : 4,
   "enum_fields" :
   [
    {
     "enum_field_value" : 0,
     "name" : "android::hardware::camera::device::V1_0::CameraFacing::BACK"
    },
    {
     "enum_field_value" : 1,
     "name" : "android::hardware::camera::device::V1_0::CameraFacing::FRONT"
    },
    {
     "enum_field_value" : 2,
     "name" : "android::hardware::camera::device::V1_0::CameraFacing::EXTERNAL"
    }
   ],
   "linker_set_key" : "android::hardware::camera::device::V1_0::CameraFacing",
   "name" : "android::hardware::camera::device::V1_0::CameraFacing",
   "referenced_type" : "type-950",
   "self_type" : "type-950",
   "size" : 4,
   "source_file" : "/out/soong/.intermediates/hardware/interfaces/camera/device/1.0/android.hardware.camera.device@1.0_genc++_headers/gen/android/hardware/camera/device/1.0/types.h",
   "underlying_type" : "type-2",
   "unique_id" : "_ZTSN7android8hardware6camera6device4V1_012CameraFacingE"
  },
  {
   "alignment" : 4,
   "enum_fields" :
   [
    {
     "enum_field_value" : 1,
     "name" : "android::hardware::camera::device::V1_0::CommandType::START_SMOOTH_ZOOM"
    },
    {
     "enum_field_value" : 2,
     "name" : "android::hardware::camera::device::V1_0::CommandType::STOP_SMOOTH_ZOOM"
    },
    {
     "enum_field_value" : 6,
     "name" : "android::hardware::camera::device::V1_0::CommandType::START_FACE_DETECTION"
    },
    {
     "enum_field_value" : 7,
     "name" : "android::hardware::camera::device::V1_0::CommandType::STOP_FACE_DETECTION"
    },
    {
     "enum_field_value" : 8,
     "name" : "android::hardware::camera::device::V1_0::CommandType::ENABLE_FOCUS_MOVE_MSG"
    },
    {
     "enum_field_value" : 11,
     "name" : "android::hardware::camera::device::V1_0::CommandType::SET_VIDEO_FORMAT"
    }
   ],
   "linker_set_key" : "android::hardware::camera::device::V1_0::CommandType",
   "name" : "android::hardware::camera::device::V1_0::CommandType",
   "referenced_type" : "type-953",
   "self_type" : "type-953",
   "size" : 4,
   "source_file" : "/out/soong/.intermediates/hardware/interfaces/camera/device/1.0/android.hardware.camera.device@1.0_genc++_headers/gen/android/hardware/camera/device/1.0/types.h",
   "underlying_type" : "type-2",
   "unique_id" : "_ZTSN7android8hardware6camera6device4V1_011CommandTypeE"
  },
  {
   "alignment" : 4,
   "enum_fields" :
   [
    {
     "enum_field_value" : 16,
     "name" : "android::hardware::camera::device::V1_0::DataCallbackMsg::PREVIEW_FRAME"
    },
    {
     "enum_field_value" : 32,
     "name" : "android::hardware::camera::device::V1_0::DataCallbackMsg::VIDEO_FRAME"
    },
    {
     "enum_field_value" : 64,
     "name" : "android::hardware::camera::device::V1_0::DataCallbackMsg::POSTVIEW_FRAME"
    },
    {
     "enum_field_value" : 128,
     "name" : "android::hardware::camera::device::V1_0::DataCallbackMsg::RAW_IMAGE"
    },
    {
     "enum_field_value" : 256,
     "name" : "android::hardware::camera::device::V1_0::DataCallbackMsg::COMPRESSED_IMAGE"
    },
    {
     "enum_field_value" : 512,
     "name" : "android::hardware::camera::device::V1_0::DataCallbackMsg::RAW_IMAGE_NOTIFY"
    },
    {
     "enum_field_value" : 1024,
     "name" : "android::hardware::camera::device::V1_0::DataCallbackMsg::PREVIEW_METADATA"
    }
   ],
   "linker_set_key" : "android::hardware::camera::device::V1_0::DataCallbackMsg",
   "name" : "android::hardware::camera::device::V1_0::DataCallbackMsg",
   "referenced_type" : "type-955",
   "self_type" : "type-955",
   "size" : 4,
   "source_file" : "/out/soong/.intermediates/hardware/interfaces/camera/device/1.0/android.hardware.camera.device@1.0_genc++_headers/gen/android/hardware/camera/device/1.0/types.h",
   "underlying_type" : "type-2",
   "unique_id" : "_ZTSN7android8hardware6camera6device4V1_015DataCallbackMsgE"
  },
  {
   "alignment" : 4,
   "enum_fields" :
   [
    {
     "enum_field_value" : 1,
     "name" : "android::hardware::camera::device::V1_0::FrameCallbackFlag::ENABLE_MASK"
    },
    {
     "enum_field_value" : 2,
     "name" : "android::hardware::camera::device::V1_0::FrameCallbackFlag::ONE_SHOT_MASK"
    },
    {
     "enum_field_value" : 4,
     "name" : "android::hardware::camera::device::V1_0::FrameCallbackFlag::COPY_OUT_MASK"
    },
    {
     "enum_field_value" : 0,
     "name" : "android::hardware::camera::device::V1_0::FrameCallbackFlag::NOOP"
    },
    {
     "enum_field_value" : 1,
     "name" : "android::hardware::camera::device::V1_0::FrameCallbackFlag::CAMCORDER"
    },
    {
     "enum_field_value" : 5,
     "name" : "android::hardware::camera::device::V1_0::FrameCallbackFlag::CAMERA"
    },
    {
     "enum_field_value" : 7,
     "name" : "android::hardware::camera::device::V1_0::FrameCallbackFlag::BARCODE_SCANNER"
    }
   ],
   "linker_set_key" : "android::hardware::camera::device::V1_0::FrameCallbackFlag",
   "name" : "android::hardware::camera::device::V1_0::FrameCallbackFlag",
   "referenced_type" : "type-952",
   "self_type" : "type-952",
   "size" : 4,
   "source_file" : "/out/soong/.intermediates/hardware/interfaces/camera/device/1.0/android.hardware.camera.device@1.0_genc++_headers/gen/android/hardware/camera/device/1.0/types.h",
   "underlying_type" : "type-2",
   "unique_id" : "_ZTSN7android8hardware6camera6device4V1_017FrameCallbackFlagE"
  },
  {
   "alignment" : 4,
   "enum_fields" :
   [
    {
     "enum_field_value" : 1,
     "name" : "android::hardware::camera::device::V1_0::NotifyCallbackMsg::ERROR"
    },
    {
     "enum_field_value" : 2,
     "name" : "android::hardware::camera::device::V1_0::NotifyCallbackMsg::SHUTTER"
    },
    {
     "enum_field_value" : 4,
     "name" : "android::hardware::camera::device::V1_0::NotifyCallbackMsg::FOCUS"
    },
    {
     "enum_field_value" : 8,
     "name" : "android::hardware::camera::device::V1_0::NotifyCallbackMsg::ZOOM"
    },
    {
     "enum_field_value" : 2048,
     "name" : "android::hardware::camera::device::V1_0::NotifyCallbackMsg::FOCUS_MOVE"
    }
   ],
   "linker_set_key" : "android::hardware::camera::device::V1_0::NotifyCallbackMsg",
   "name" : "android::hardware::camera::device::V1_0::NotifyCallbackMsg",
   "referenced_type" : "type-954",
   "self_type" : "type-954",
   "size" : 4,
   "source_file" : "/out/soong/.intermediates/hardware/interfaces/camera/device/1.0/android.hardware.camera.device@1.0_genc++_headers/gen/android/hardware/camera/device/1.0/types.h",
   "underlying_type" : "type-2",
   "unique_id" : "_ZTSN7android8hardware6camera6device4V1_017NotifyCallbackMsgE"
  },
  {
   "alignment" : 4,
   "enum_fields" :
   [
    {
     "enum_field_value" : 0,
     "name" : "android::hardware::details::HidlInstrumentor::SERVER_API_ENTRY"
    },
    {
     "enum_field_value" : 1,
     "name" : "android::hardware::details::HidlInstrumentor::SERVER_API_EXIT"
    },
    {
     "enum_field_value" : 2,
     "name" : "android::hardware::details::HidlInstrumentor::CLIENT_API_ENTRY"
    },
    {
     "enum_field_value" : 3,
     "name" : "android::hardware::details::HidlInstrumentor::CLIENT_API_EXIT"
    },
    {
     "enum_field_value" : 4,
     "name" : "android::hardware::details::HidlInstrumentor::SYNC_CALLBACK_ENTRY"
    },
    {
     "enum_field_value" : 5,
     "name" : "android::hardware::details::HidlInstrumentor::SYNC_CALLBACK_EXIT"
    },
    {
     "enum_field_value" : 6,
     "name" : "android::hardware::details::HidlInstrumentor::ASYNC_CALLBACK_ENTRY"
    },
    {
     "enum_field_value" : 7,
     "name" : "android::hardware::details::HidlInstrumentor::ASYNC_CALLBACK_EXIT"
    },
    {
     "enum_field_value" : 8,
     "name" : "android::hardware::details::HidlInstrumentor::PASSTHROUGH_ENTRY"
    },
    {
     "enum_field_value" : 9,
     "name" : "android::hardware::details::HidlInstrumentor::PASSTHROUGH_EXIT"
    }
   ],
   "linker_set_key" : "android::hardware::details::HidlInstrumentor::InstrumentationEvent",
   "name" : "android::hardware::details::HidlInstrumentor::InstrumentationEvent",
   "referenced_type" : "type-168",
   "self_type" : "type-168",
   "size" : 4,
   "source_file" : "/system/libhidl/base/include/hidl/HidlInternal.h",
   "underlying_type" : "type-2",
   "unique_id" : "_ZTSN7android8hardware7details16HidlInstrumentor20InstrumentationEventE"
  },
  {
   "alignment" : 8,
   "enum_fields" :
   [
    {
     "enum_field_value" : 15,
     "name" : "android::hardware::graphics::common::V1_0::BufferUsage::CPU_READ_MASK"
    },
    {
     "enum_field_value" : 0,
     "name" : "android::hardware::graphics::common::V1_0::BufferUsage::CPU_READ_NEVER"
    },
    {
     "enum_field_value" : 2,
     "name" : "android::hardware::graphics::common::V1_0::BufferUsage::CPU_READ_RARELY"
    },
    {
     "enum_field_value" : 3,
     "name" : "android::hardware::graphics::common::V1_0::BufferUsage::CPU_READ_OFTEN"
    },
    {
     "enum_field_value" : 240,
     "name" : "android::hardware::graphics::common::V1_0::BufferUsage::CPU_WRITE_MASK"
    },
    {
     "enum_field_value" : 0,
     "name" : "android::hardware::graphics::common::V1_0::BufferUsage::CPU_WRITE_NEVER"
    },
    {
     "enum_field_value" : 32,
     "name" : "android::hardware::graphics::common::V1_0::BufferUsage::CPU_WRITE_RARELY"
    },
    {
     "enum_field_value" : 48,
     "name" : "android::hardware::graphics::common::V1_0::BufferUsage::CPU_WRITE_OFTEN"
    },
    {
     "enum_field_value" : 256,
     "name" : "android::hardware::graphics::common::V1_0::BufferUsage::GPU_TEXTURE"
    },
    {
     "enum_field_value" : 512,
     "name" : "android::hardware::graphics::common::V1_0::BufferUsage::GPU_RENDER_TARGET"
    },
    {
     "enum_field_value" : 2048,
     "name" : "android::hardware::graphics::common::V1_0::BufferUsage::COMPOSER_OVERLAY"
    },
    {
     "enum_field_value" : 4096,
     "name" : "android::hardware::graphics::common::V1_0::BufferUsage::COMPOSER_CLIENT_TARGET"
    },
    {
     "enum_field_value" : 16384,
     "name" : "android::hardware::graphics::common::V1_0::BufferUsage::PROTECTED"
    },
    {
     "enum_field_value" : 32768,
     "name" : "android::hardware::graphics::common::V1_0::BufferUsage::COMPOSER_CURSOR"
    },
    {
     "enum_field_value" : 65536,
     "name" : "android::hardware::graphics::common::V1_0::BufferUsage::VIDEO_ENCODER"
    },
    {
     "enum_field_value" : 131072,
     "name" : "android::hardware::graphics::common::V1_0::BufferUsage::CAMERA_OUTPUT"
    },
    {
     "enum_field_value" : 262144,
     "name" : "android::hardware::graphics::common::V1_0::BufferUsage::CAMERA_INPUT"
    },
    {
     "enum_field_value" : 1048576,
     "name" : "android::hardware::graphics::common::V1_0::BufferUsage::RENDERSCRIPT"
    },
    {
     "enum_field_value" : 4194304,
     "name" : "android::hardware::graphics::common::V1_0::BufferUsage::VIDEO_DECODER"
    },
    {
     "enum_field_value" : 8388608,
     "name" : "android::hardware::graphics::common::V1_0::BufferUsage::SENSOR_DIRECT_DATA"
    },
    {
     "enum_field_value" : 16777216,
     "name" : "android::hardware::graphics::common::V1_0::BufferUsage::GPU_DATA_BUFFER"
    },
    {
     "enum_field_value" : -268435456,
     "name" : "android::hardware::graphics::common::V1_0::BufferUsage::VENDOR_MASK"
    },
    {
     "enum_field_value" : 0,
     "name" : "android::hardware::graphics::common::V1_0::BufferUsage::VENDOR_MASK_HI"
    }
   ],
   "linker_set_key" : "android::hardware::graphics::common::V1_0::BufferUsage",
   "name" : "android::hardware::graphics::common::V1_0::BufferUsage",
   "referenced_type" : "type-973",
   "self_type" : "type-973",
   "size" : 8,
   "source_file" : "/out/soong/.intermediates/hardware/interfaces/graphics/common/1.0/android.hardware.graphics.common@1.0_genc++_headers/gen/android/hardware/graphics/common/1.0/types.h",
   "underlying_type" : "type-47",
   "unique_id" : "_ZTSN7android8hardware8graphics6common4V1_011BufferUsageE"
  },
  {
   "alignment" : 4,
   "enum_fields" :
   [
    {
     "enum_field_value" : 0,
     "name" : "android::hardware::graphics::common::V1_0::ColorMode::NATIVE"
    },
    {
     "enum_field_value" : 1,
     "name" : "android::hardware::graphics::common::V1_0::ColorMode::STANDARD_BT601_625"
    },
    {
     "enum_field_value" : 2,
     "name" : "android::hardware::graphics::common::V1_0::ColorMode::STANDARD_BT601_625_UNADJUSTED"
    },
    {
     "enum_field_value" : 3,
     "name" : "android::hardware::graphics::common::V1_0::ColorMode::STANDARD_BT601_525"
    },
    {
     "enum_field_value" : 4,
     "name" : "android::hardware::graphics::common::V1_0::ColorMode::STANDARD_BT601_525_UNADJUSTED"
    },
    {
     "enum_field_value" : 5,
     "name" : "android::hardware::graphics::common::V1_0::ColorMode::STANDARD_BT709"
    },
    {
     "enum_field_value" : 6,
     "name" : "android::hardware::graphics::common::V1_0::ColorMode::DCI_P3"
    },
    {
     "enum_field_value" : 7,
     "name" : "android::hardware::graphics::common::V1_0::ColorMode::SRGB"
    },
    {
     "enum_field_value" : 8,
     "name" : "android::hardware::graphics::common::V1_0::ColorMode::ADOBE_RGB"
    },
    {
     "enum_field_value" : 9,
     "name" : "android::hardware::graphics::common::V1_0::ColorMode::DISPLAY_P3"
    }
   ],
   "linker_set_key" : "android::hardware::graphics::common::V1_0::ColorMode",
   "name" : "android::hardware::graphics::common::V1_0::ColorMode",
   "referenced_type" : "type-976",
   "self_type" : "type-976",
   "size" : 4,
   "source_file" : "/out/soong/.intermediates/hardware/interfaces/graphics/common/1.0/android.hardware.graphics.common@1.0_genc++_headers/gen/android/hardware/graphics/common/1.0/types.h",
   "underlying_type" : "type-45",
   "unique_id" : "_ZTSN7android8hardware8graphics6common4V1_09ColorModeE"
  },
  {
   "alignment" : 4,
   "enum_fields" :
   [
    {
     "enum_field_value" : 0,
     "name" : "android::hardware::graphics::common::V1_0::ColorTransform::IDENTITY"
    },
    {
     "enum_field_value" : 1,
     "name" : "android::hardware::graphics::common::V1_0::ColorTransform::ARBITRARY_MATRIX"
    },
    {
     "enum_field_value" : 2,
     "name" : "android::hardware::graphics::common::V1_0::ColorTransform::VALUE_INVERSE"
    },
    {
     "enum_field_value" : 3,
     "name" : "android::hardware::graphics::common::V1_0::ColorTransform::GRAYSCALE"
    },
    {
     "enum_field_value" : 4,
     "name" : "android::hardware::graphics::common::V1_0::ColorTransform::CORRECT_PROTANOPIA"
    },
    {
     "enum_field_value" : 5,
     "name" : "android::hardware::graphics::common::V1_0::ColorTransform::CORRECT_DEUTERANOPIA"
    },
    {
     "enum_field_value" : 6,
     "name" : "android::hardware::graphics::common::V1_0::ColorTransform::CORRECT_TRITANOPIA"
    }
   ],
   "linker_set_key" : "android::hardware::graphics::common::V1_0::ColorTransform",
   "name" : "android::hardware::graphics::common::V1_0::ColorTransform",
   "referenced_type" : "type-978",
   "self_type" : "type-978",
   "size" : 4,
   "source_file" : "/out/soong/.intermediates/hardware/interfaces/graphics/common/1.0/android.hardware.graphics.common@1.0_genc++_headers/gen/android/hardware/graphics/common/1.0/types.h",
   "underlying_type" : "type-45",
   "unique_id" : "_ZTSN7android8hardware8graphics6common4V1_014ColorTransformE"
  },
  {
   "alignment" : 4,
   "enum_fields" :
   [
    {
     "enum_field_value" : 0,
     "name" : "android::hardware::graphics::common::V1_0::Dataspace::UNKNOWN"
    },
    {
     "enum_field_value" : 1,
     "name" : "android::hardware::graphics::common::V1_0::Dataspace::ARBITRARY"
    },
    {
     "enum_field_value" : 16,
     "name" : "android::hardware::graphics::common::V1_0::Dataspace::STANDARD_SHIFT"
    },
    {
     "enum_field_value" : 4128768,
     "name" : "android::hardware::graphics::common::V1_0::Dataspace::STANDARD_MASK"
    },
    {
     "enum_field_value" : 0,
     "name" : "android::hardware::graphics::common::V1_0::Dataspace::STANDARD_UNSPECIFIED"
    },
    {
     "enum_field_value" : 65536,
     "name" : "android::hardware::graphics::common::V1_0::Dataspace::STANDARD_BT709"
    },
    {
     "enum_field_value" : 131072,
     "name" : "android::hardware::graphics::common::V1_0::Dataspace::STANDARD_BT601_625"
    },
    {
     "enum_field_value" : 196608,
     "name" : "android::hardware::graphics::common::V1_0::Dataspace::STANDARD_BT601_625_UNADJUSTED"
    },
    {
     "enum_field_value" : 262144,
     "name" : "android::hardware::graphics::common::V1_0::Dataspace::STANDARD_BT601_525"
    },
    {
     "enum_field_value" : 327680,
     "name" : "android::hardware::graphics::common::V1_0::Dataspace::STANDARD_BT601_525_UNADJUSTED"
    },
    {
     "enum_field_value" : 393216,
     "name" : "android::hardware::graphics::common::V1_0::Dataspace::STANDARD_BT2020"
    },
    {
     "enum_field_value" : 458752,
     "name" : "android::hardware::graphics::common::V1_0::Dataspace::STANDARD_BT2020_CONSTANT_LUMINANCE"
    },
    {
     "enum_field_value" : 524288,
     "name" : "android::hardware::graphics::common::V1_0::Dataspace::STANDARD_BT470M"
    },
    {
     "enum_field_value" : 589824,
     "name" : "android::hardware::graphics::common::V1_0::Dataspace::STANDARD_FILM"
    },
    {
     "enum_field_value" : 655360,
     "name" : "android::hardware::graphics::common::V1_0::Dataspace::STANDARD_DCI_P3"
    },
    {
     "enum_field_value" : 720896,
     "name" : "android::hardware::graphics::common::V1_0::Dataspace::STANDARD_ADOBE_RGB"
    },
    {
     "enum_field_value" : 22,
     "name" : "android::hardware::graphics::common::V1_0::Dataspace::TRANSFER_SHIFT"
    },
    {
     "enum_field_value" : 130023424,
     "name" : "android::hardware::graphics::common::V1_0::Dataspace::TRANSFER_MASK"
    },
    {
     "enum_field_value" : 0,
     "name" : "android::hardware::graphics::common::V1_0::Dataspace::TRANSFER_UNSPECIFIED"
    },
    {
     "enum_field_value" : 4194304,
     "name" : "android::hardware::graphics::common::V1_0::Dataspace::TRANSFER_LINEAR"
    },
    {
     "enum_field_value" : 8388608,
     "name" : "android::hardware::graphics::common::V1_0::Dataspace::TRANSFER_SRGB"
    },
    {
     "enum_field_value" : 12582912,
     "name" : "android::hardware::graphics::common::V1_0::Dataspace::TRANSFER_SMPTE_170M"
    },
    {
     "enum_field_value" : 16777216,
     "name" : "android::hardware::graphics::common::V1_0::Dataspace::TRANSFER_GAMMA2_2"
    },
    {
     "enum_field_value" : 20971520,
     "name" : "android::hardware::graphics::common::V1_0::Dataspace::TRANSFER_GAMMA2_6"
    },
    {
     "enum_field_value" : 25165824,
     "name" : "android::hardware::graphics::common::V1_0::Dataspace::TRANSFER_GAMMA2_8"
    },
    {
     "enum_field_value" : 29360128,
     "name" : "android::hardware::graphics::common::V1_0::Dataspace::TRANSFER_ST2084"
    },
    {
     "enum_field_value" : 33554432,
     "name" : "android::hardware::graphics::common::V1_0::Dataspace::TRANSFER_HLG"
    },
    {
     "enum_field_value" : 27,
     "name" : "android::hardware::graphics::common::V1_0::Dataspace::RANGE_SHIFT"
    },
    {
     "enum_field_value" : 939524096,
     "name" : "android::hardware::graphics::common::V1_0::Dataspace::RANGE_MASK"
    },
    {
     "enum_field_value" : 0,
     "name" : "android::hardware::graphics::common::V1_0::Dataspace::RANGE_UNSPECIFIED"
    },
    {
     "enum_field_value" : 134217728,
     "name" : "android::hardware::graphics::common::V1_0::Dataspace::RANGE_FULL"
    },
    {
     "enum_field_value" : 268435456,
     "name" : "android::hardware::graphics::common::V1_0::Dataspace::RANGE_LIMITED"
    },
    {
     "enum_field_value" : 402653184,
     "name" : "android::hardware::graphics::common::V1_0::Dataspace::RANGE_EXTENDED"
    },
    {
     "enum_field_value" : 512,
     "name" : "android::hardware::graphics::common::V1_0::Dataspace::SRGB_LINEAR"
    },
    {
     "enum_field_value" : 138477568,
     "name" : "android::hardware::graphics::common::V1_0::Dataspace::V0_SRGB_LINEAR"
    },
    {
     "enum_field_value" : 406913024,
     "name" : "android::hardware::graphics::common::V1_0::Dataspace::V0_SCRGB_LINEAR"
    },
    {
     "enum_field_value" : 513,
     "name" : "android::hardware::graphics::common::V1_0::Dataspace::SRGB"
    },
    {
     "enum_field_value" : 142671872,
     "name" : "android::hardware::graphics::common::V1_0::Dataspace::V0_SRGB"
    },
    {
     "enum_field_value" : 411107328,
     "name" : "android::hardware::graphics::common::V1_0::Dataspace::V0_SCRGB"
    },
    {
     "enum_field_value" : 257,
     "name" : "android::hardware::graphics::common::V1_0::Dataspace::JFIF"
    },
    {
     "enum_field_value" : 146931712,
     "name" : "android::hardware::graphics::common::V1_0::Dataspace::V0_JFIF"
    },
    {
     "enum_field_value" : 258,
     "name" : "android::hardware::graphics::common::V1_0::Dataspace::BT601_625"
    },
    {
     "enum_field_value" : 281149440,
     "name" : "android::hardware::graphics::common::V1_0::Dataspace::V0_BT601_625"
    },
    {
     "enum_field_value" : 259,
     "name" : "android::hardware::graphics::common::V1_0::Dataspace::BT601_525"
    },
    {
     "enum_field_value" : 281280512,
     "name" : "android::hardware::graphics::common::V1_0::Dataspace::V0_BT601_525"
    },
    {
     "enum_field_value" : 260,
     "name" : "android::hardware::graphics::common::V1_0::Dataspace::BT709"
    },
    {
     "enum_field_value" : 281083904,
     "name" : "android::hardware::graphics::common::V1_0::Dataspace::V0_BT709"
    },
    {
     "enum_field_value" : 139067392,
     "name" : "android::hardware::graphics::common::V1_0::Dataspace::DCI_P3_LINEAR"
    },
    {
     "enum_field_value" : 155844608,
     "name" : "android::hardware::graphics::common::V1_0::Dataspace::DCI_P3"
    },
    {
     "enum_field_value" : 139067392,
     "name" : "android::hardware::graphics::common::V1_0::Dataspace::DISPLAY_P3_LINEAR"
    },
    {
     "enum_field_value" : 143261696,
     "name" : "android::hardware::graphics::common::V1_0::Dataspace::DISPLAY_P3"
    },
    {
     "enum_field_value" : 151715840,
     "name" : "android::hardware::graphics::common::V1_0::Dataspace::ADOBE_RGB"
    },
    {
     "enum_field_value" : 138805248,
     "name" : "android::hardware::graphics::common::V1_0::Dataspace::BT2020_LINEAR"
    },
    {
     "enum_field_value" : 147193856,
     "name" : "android::hardware::graphics::common::V1_0::Dataspace::BT2020"
    },
    {
     "enum_field_value" : 163971072,
     "name" : "android::hardware::graphics::common::V1_0::Dataspace::BT2020_PQ"
    },
    {
     "enum_field_value" : 4096,
     "name" : "android::hardware::graphics::common::V1_0::Dataspace::DEPTH"
    },
    {
     "enum_field_value" : 4097,
     "name" : "android::hardware::graphics::common::V1_0::Dataspace::SENSOR"
    }
   ],
   "linker_set_key" : "android::hardware::graphics::common::V1_0::Dataspace",
   "name" : "android::hardware::graphics::common::V1_0::Dataspace",
   "referenced_type" : "type-975",
   "self_type" : "type-975",
   "size" : 4,
   "source_file" : "/out/soong/.intermediates/hardware/interfaces/graphics/common/1.0/android.hardware.graphics.common@1.0_genc++_headers/gen/android/hardware/graphics/common/1.0/types.h",
   "underlying_type" : "type-45",
   "unique_id" : "_ZTSN7android8hardware8graphics6common4V1_09DataspaceE"
  },
  {
   "alignment" : 4,
   "enum_fields" :
   [
    {
     "enum_field_value" : 1,
     "name" : "android::hardware::graphics::common::V1_0::Hdr::DOLBY_VISION"
    },
    {
     "enum_field_value" : 2,
     "name" : "android::hardware::graphics::common::V1_0::Hdr::HDR10"
    },
    {
     "enum_field_value" : 3,
     "name" : "android::hardware::graphics::common::V1_0::Hdr::HLG"
    }
   ],
   "linker_set_key" : "android::hardware::graphics::common::V1_0::Hdr",
   "name" : "android::hardware::graphics::common::V1_0::Hdr",
   "referenced_type" : "type-979",
   "self_type" : "type-979",
   "size" : 4,
   "source_file" : "/out/soong/.intermediates/hardware/interfaces/graphics/common/1.0/android.hardware.graphics.common@1.0_genc++_headers/gen/android/hardware/graphics/common/1.0/types.h",
   "underlying_type" : "type-45",
   "unique_id" : "_ZTSN7android8hardware8graphics6common4V1_03HdrE"
  },
  {
   "alignment" : 4,
   "enum_fields" :
   [
    {
     "enum_field_value" : 1,
     "name" : "android::hardware::graphics::common::V1_0::PixelFormat::RGBA_8888"
    },
    {
     "enum_field_value" : 2,
     "name" : "android::hardware::graphics::common::V1_0::PixelFormat::RGBX_8888"
    },
    {
     "enum_field_value" : 3,
     "name" : "android::hardware::graphics::common::V1_0::PixelFormat::RGB_888"
    },
    {
     "enum_field_value" : 4,
     "name" : "android::hardware::graphics::common::V1_0::PixelFormat::RGB_565"
    },
    {
     "enum_field_value" : 5,
     "name" : "android::hardware::graphics::common::V1_0::PixelFormat::BGRA_8888"
    },
    {
     "enum_field_value" : 16,
     "name" : "android::hardware::graphics::common::V1_0::PixelFormat::YCBCR_422_SP"
    },
    {
     "enum_field_value" : 17,
     "name" : "android::hardware::graphics::common::V1_0::PixelFormat::YCRCB_420_SP"
    },
    {
     "enum_field_value" : 20,
     "name" : "android::hardware::graphics::common::V1_0::PixelFormat::YCBCR_422_I"
    },
    {
     "enum_field_value" : 22,
     "name" : "android::hardware::graphics::common::V1_0::PixelFormat::RGBA_FP16"
    },
    {
     "enum_field_value" : 32,
     "name" : "android::hardware::graphics::common::V1_0::PixelFormat::RAW16"
    },
    {
     "enum_field_value" : 33,
     "name" : "android::hardware::graphics::common::V1_0::PixelFormat::BLOB"
    },
    {
     "enum_field_value" : 34,
     "name" : "android::hardware::graphics::common::V1_0::PixelFormat::IMPLEMENTATION_DEFINED"
    },
    {
     "enum_field_value" : 35,
     "name" : "android::hardware::graphics::common::V1_0::PixelFormat::YCBCR_420_888"
    },
    {
     "enum_field_value" : 36,
     "name" : "android::hardware::graphics::common::V1_0::PixelFormat::RAW_OPAQUE"
    },
    {
     "enum_field_value" : 37,
     "name" : "android::hardware::graphics::common::V1_0::PixelFormat::RAW10"
    },
    {
     "enum_field_value" : 38,
     "name" : "android::hardware::graphics::common::V1_0::PixelFormat::RAW12"
    },
    {
     "enum_field_value" : 43,
     "name" : "android::hardware::graphics::common::V1_0::PixelFormat::RGBA_1010102"
    },
    {
     "enum_field_value" : 538982489,
     "name" : "android::hardware::graphics::common::V1_0::PixelFormat::Y8"
    },
    {
     "enum_field_value" : 540422489,
     "name" : "android::hardware::graphics::common::V1_0::PixelFormat::Y16"
    },
    {
     "enum_field_value" : 842094169,
     "name" : "android::hardware::graphics::common::V1_0::PixelFormat::YV12"
    }
   ],
   "linker_set_key" : "android::hardware::graphics::common::V1_0::PixelFormat",
   "name" : "android::hardware::graphics::common::V1_0::PixelFormat",
   "referenced_type" : "type-972",
   "self_type" : "type-972",
   "size" : 4,
   "source_file" : "/out/soong/.intermediates/hardware/interfaces/graphics/common/1.0/android.hardware.graphics.common@1.0_genc++_headers/gen/android/hardware/graphics/common/1.0/types.h",
   "underlying_type" : "type-45",
   "unique_id" : "_ZTSN7android8hardware8graphics6common4V1_011PixelFormatE"
  },
  {
   "alignment" : 4,
   "enum_fields" :
   [
    {
     "enum_field_value" : 1,
     "name" : "android::hardware::graphics::common::V1_0::Transform::FLIP_H"
    },
    {
     "enum_field_value" : 2,
     "name" : "android::hardware::graphics::common::V1_0::Transform::FLIP_V"
    },
    {
     "enum_field_value" : 4,
     "name" : "android::hardware::graphics::common::V1_0::Transform::ROT_90"
    },
    {
     "enum_field_value" : 3,
     "name" : "android::hardware::graphics::common::V1_0::Transform::ROT_180"
    },
    {
     "enum_field_value" : 7,
     "name" : "android::hardware::graphics::common::V1_0::Transform::ROT_270"
    }
   ],
   "linker_set_key" : "android::hardware::graphics::common::V1_0::Transform",
   "name" : "android::hardware::graphics::common::V1_0::Transform",
   "referenced_type" : "type-974",
   "self_type" : "type-974",
   "size" : 4,
   "source_file" : "/out/soong/.intermediates/hardware/interfaces/graphics/common/1.0/android.hardware.graphics.common@1.0_genc++_headers/gen/android/hardware/graphics/common/1.0/types.h",
   "underlying_type" : "type-45",
   "unique_id" : "_ZTSN7android8hardware8graphics6common4V1_09TransformE"
  },
  {
   "alignment" : 4,
   "enum_fields" :
   [
    {
     "enum_field_value" : 0,
     "name" : "android::hidl::base::V1_0::DebugInfo::Architecture::UNKNOWN"
    },
    {
     "enum_field_value" : 1,
     "name" : "android::hidl::base::V1_0::DebugInfo::Architecture::IS_64BIT"
    },
    {
     "enum_field_value" : 2,
     "name" : "android::hidl::base::V1_0::DebugInfo::Architecture::IS_32BIT"
    }
   ],
   "linker_set_key" : "android::hidl::base::V1_0::DebugInfo::Architecture",
   "name" : "android::hidl::base::V1_0::DebugInfo::Architecture",
   "referenced_type" : "type-770",
   "self_type" : "type-770",
   "size" : 4,
   "source_file" : "/out/soong/.intermediates/system/libhidl/transport/base/1.0/android.hidl.base@1.0_genc++_headers/gen/android/hidl/base/1.0/types.h",
   "underlying_type" : "type-45",
   "unique_id" : "_ZTSN7android4hidl4base4V1_09DebugInfo12ArchitectureE"
  },
  {
   "alignment" : 4,
   "enum_fields" :
   [
    {
     "enum_field_value" : -1,
     "name" : "android::hidl::manager::V1_0::IServiceManager::PidConstant::NO_PID"
    }
   ],
   "linker_set_key" : "android::hidl::manager::V1_0::IServiceManager::PidConstant",
   "name" : "android::hidl::manager::V1_0::IServiceManager::PidConstant",
   "referenced_type" : "type-916",
   "self_type" : "type-916",
   "size" : 4,
   "source_file" : "/out/soong/.intermediates/system/libhidl/transport/manager/1.0/android.hidl.manager@1.0_genc++_headers/gen/android/hidl/manager/1.0/IServiceManager.h",
   "underlying_type" : "type-45",
   "unique_id" : "_ZTSN7android4hidl7manager4V1_015IServiceManager11PidConstantE"
  },
  {
   "alignment" : 1,
   "enum_fields" :
   [
    {
     "enum_field_value" : 0,
     "name" : "android::hidl::manager::V1_0::IServiceManager::Transport::EMPTY"
    },
    {
     "enum_field_value" : 1,
     "name" : "android::hidl::manager::V1_0::IServiceManager::Transport::HWBINDER"
    },
    {
     "enum_field_value" : 2,
     "name" : "android::hidl::manager::V1_0::IServiceManager::Transport::PASSTHROUGH"
    }
   ],
   "linker_set_key" : "android::hidl::manager::V1_0::IServiceManager::Transport",
   "name" : "android::hidl::manager::V1_0::IServiceManager::Transport",
   "referenced_type" : "type-915",
   "self_type" : "type-915",
   "size" : 1,
   "source_file" : "/out/soong/.intermediates/system/libhidl/transport/manager/1.0/android.hidl.manager@1.0_genc++_headers/gen/android/hidl/manager/1.0/IServiceManager.h",
   "underlying_type" : "type-112",
   "unique_id" : "_ZTSN7android4hidl7manager4V1_015IServiceManager9TransportE"
  },
  {
   "alignment" : 4,
   "enum_fields" :
   [
    {
     "enum_field_value" : 0,
     "name" : "ANDROID_LOG_UNKNOWN"
    },
    {
     "enum_field_value" : 1,
     "name" : "ANDROID_LOG_DEFAULT"
    },
    {
     "enum_field_value" : 2,
     "name" : "ANDROID_LOG_VERBOSE"
    },
    {
     "enum_field_value" : 3,
     "name" : "ANDROID_LOG_DEBUG"
    },
    {
     "enum_field_value" : 4,
     "name" : "ANDROID_LOG_INFO"
    },
    {
     "enum_field_value" : 5,
     "name" : "ANDROID_LOG_WARN"
    },
    {
     "enum_field_value" : 6,
     "name" : "ANDROID_LOG_ERROR"
    },
    {
     "enum_field_value" : 7,
     "name" : "ANDROID_LOG_FATAL"
    },
    {
     "enum_field_value" : 8,
     "name" : "ANDROID_LOG_SILENT"
    }
   ],
   "linker_set_key" : "android_LogPriority",
   "name" : "android_LogPriority",
   "referenced_type" : "type-1",
   "self_type" : "type-1",
   "size" : 4,
   "source_file" : "/system/core/liblog/include/android/log.h",
   "underlying_type" : "type-2",
   "unique_id" : "android_LogPriority"
  },
  {
   "alignment" : 4,
   "enum_fields" :
   [
    {
     "enum_field_value" : 0,
     "name" : "HAL_COLOR_MODE_NATIVE"
    },
    {
     "enum_field_value" : 1,
     "name" : "HAL_COLOR_MODE_STANDARD_BT601_625"
    },
    {
     "enum_field_value" : 2,
     "name" : "HAL_COLOR_MODE_STANDARD_BT601_625_UNADJUSTED"
    },
    {
     "enum_field_value" : 3,
     "name" : "HAL_COLOR_MODE_STANDARD_BT601_525"
    },
    {
     "enum_field_value" : 4,
     "name" : "HAL_COLOR_MODE_STANDARD_BT601_525_UNADJUSTED"
    },
    {
     "enum_field_value" : 5,
     "name" : "HAL_COLOR_MODE_STANDARD_BT709"
    },
    {
     "enum_field_value" : 6,
     "name" : "HAL_COLOR_MODE_DCI_P3"
    },
    {
     "enum_field_value" : 7,
     "name" : "HAL_COLOR_MODE_SRGB"
    },
    {
     "enum_field_value" : 8,
     "name" : "HAL_COLOR_MODE_ADOBE_RGB"
    },
    {
     "enum_field_value" : 9,
     "name" : "HAL_COLOR_MODE_DISPLAY_P3"
    }
   ],
   "linker_set_key" : "android_color_mode_t",
   "name" : "android_color_mode_t",
   "referenced_type" : "type-862",
   "self_type" : "type-862",
   "size" : 4,
   "source_file" : "/system/core/libsystem/include/system/graphics-base-v1.0.h",
   "underlying_type" : "type-2",
   "unique_id" : "android_color_mode_t"
  },
  {
   "alignment" : 4,
   "enum_fields" :
   [
    {
     "enum_field_value" : 10,
     "name" : "HAL_COLOR_MODE_BT2020"
    },
    {
     "enum_field_value" : 11,
     "name" : "HAL_COLOR_MODE_BT2100_PQ"
    },
    {
     "enum_field_value" : 12,
     "name" : "HAL_COLOR_MODE_BT2100_HLG"
    }
   ],
   "linker_set_key" : "android_color_mode_v1_1_t",
   "name" : "android_color_mode_v1_1_t",
   "referenced_type" : "type-867",
   "self_type" : "type-867",
   "size" : 4,
   "source_file" : "/system/core/libsystem/include/system/graphics-base-v1.1.h",
   "underlying_type" : "type-2",
   "unique_id" : "android_color_mode_v1_1_t"
  },
  {
   "alignment" : 4,
   "enum_fields" :
   [
    {
     "enum_field_value" : 0,
     "name" : "HAL_COLOR_TRANSFORM_IDENTITY"
    },
    {
     "enum_field_value" : 1,
     "name" : "HAL_COLOR_TRANSFORM_ARBITRARY_MATRIX"
    },
    {
     "enum_field_value" : 2,
     "name" : "HAL_COLOR_TRANSFORM_VALUE_INVERSE"
    },
    {
     "enum_field_value" : 3,
     "name" : "HAL_COLOR_TRANSFORM_GRAYSCALE"
    },
    {
     "enum_field_value" : 4,
     "name" : "HAL_COLOR_TRANSFORM_CORRECT_PROTANOPIA"
    },
    {
     "enum_field_value" : 5,
     "name" : "HAL_COLOR_TRANSFORM_CORRECT_DEUTERANOPIA"
    },
    {
     "enum_field_value" : 6,
     "name" : "HAL_COLOR_TRANSFORM_CORRECT_TRITANOPIA"
    }
   ],
   "linker_set_key" : "android_color_transform_t",
   "name" : "android_color_transform_t",
   "referenced_type" : "type-863",
   "self_type" : "type-863",
   "size" : 4,
   "source_file" : "/system/core/libsystem/include/system/graphics-base-v1.0.h",
   "underlying_type" : "type-2",
   "unique_id" : "android_color_transform_t"
  },
  {
   "alignment" : 4,
   "enum_fields" :
   [
    {
     "enum_field_value" : 0,
     "name" : "HAL_DATASPACE_UNKNOWN"
    },
    {
     "enum_field_value" : 1,
     "name" : "HAL_DATASPACE_ARBITRARY"
    },
    {
     "enum_field_value" : 16,
     "name" : "HAL_DATASPACE_STANDARD_SHIFT"
    },
    {
     "enum_field_value" : 4128768,
     "name" : "HAL_DATASPACE_STANDARD_MASK"
    },
    {
     "enum_field_value" : 0,
     "name" : "HAL_DATASPACE_STANDARD_UNSPECIFIED"
    },
    {
     "enum_field_value" : 65536,
     "name" : "HAL_DATASPACE_STANDARD_BT709"
    },
    {
     "enum_field_value" : 131072,
     "name" : "HAL_DATASPACE_STANDARD_BT601_625"
    },
    {
     "enum_field_value" : 196608,
     "name" : "HAL_DATASPACE_STANDARD_BT601_625_UNADJUSTED"
    },
    {
     "enum_field_value" : 262144,
     "name" : "HAL_DATASPACE_STANDARD_BT601_525"
    },
    {
     "enum_field_value" : 327680,
     "name" : "HAL_DATASPACE_STANDARD_BT601_525_UNADJUSTED"
    },
    {
     "enum_field_value" : 393216,
     "name" : "HAL_DATASPACE_STANDARD_BT2020"
    },
    {
     "enum_field_value" : 458752,
     "name" : "HAL_DATASPACE_STANDARD_BT2020_CONSTANT_LUMINANCE"
    },
    {
     "enum_field_value" : 524288,
     "name" : "HAL_DATASPACE_STANDARD_BT470M"
    },
    {
     "enum_field_value" : 589824,
     "name" : "HAL_DATASPACE_STANDARD_FILM"
    },
    {
     "enum_field_value" : 655360,
     "name" : "HAL_DATASPACE_STANDARD_DCI_P3"
    },
    {
     "enum_field_value" : 720896,
     "name" : "HAL_DATASPACE_STANDARD_ADOBE_RGB"
    },
    {
     "enum_field_value" : 22,
     "name" : "HAL_DATASPACE_TRANSFER_SHIFT"
    },
    {
     "enum_field_value" : 130023424,
     "name" : "HAL_DATASPACE_TRANSFER_MASK"
    },
    {
     "enum_field_value" : 0,
     "name" : "HAL_DATASPACE_TRANSFER_UNSPECIFIED"
    },
    {
     "enum_field_value" : 4194304,
     "name" : "HAL_DATASPACE_TRANSFER_LINEAR"
    },
    {
     "enum_field_value" : 8388608,
     "name" : "HAL_DATASPACE_TRANSFER_SRGB"
    },
    {
     "enum_field_value" : 12582912,
     "name" : "HAL_DATASPACE_TRANSFER_SMPTE_170M"
    },
    {
     "enum_field_value" : 16777216,
     "name" : "HAL_DATASPACE_TRANSFER_GAMMA2_2"
    },
    {
     "enum_field_value" : 20971520,
     "name" : "HAL_DATASPACE_TRANSFER_GAMMA2_6"
    },
    {
     "enum_field_value" : 25165824,
     "name" : "HAL_DATASPACE_TRANSFER_GAMMA2_8"
    },
    {
     "enum_field_value" : 29360128,
     "name" : "HAL_DATASPACE_TRANSFER_ST2084"
    },
    {
     "enum_field_value" : 33554432,
     "name" : "HAL_DATASPACE_TRANSFER_HLG"
    },
    {
     "enum_field_value" : 27,
     "name" : "HAL_DATASPACE_RANGE_SHIFT"
    },
    {
     "enum_field_value" : 939524096,
     "name" : "HAL_DATASPACE_RANGE_MASK"
    },
    {
     "enum_field_value" : 0,
     "name" : "HAL_DATASPACE_RANGE_UNSPECIFIED"
    },
    {
     "enum_field_value" : 134217728,
     "name" : "HAL_DATASPACE_RANGE_FULL"
    },
    {
     "enum_field_value" : 268435456,
     "name" : "HAL_DATASPACE_RANGE_LIMITED"
    },
    {
     "enum_field_value" : 402653184,
     "name" : "HAL_DATASPACE_RANGE_EXTENDED"
    },
    {
     "enum_field_value" : 512,
     "name" : "HAL_DATASPACE_SRGB_LINEAR"
    },
    {
     "enum_field_value" : 138477568,
     "name" : "HAL_DATASPACE_V0_SRGB_LINEAR"
    },
    {
     "enum_field_value" : 406913024,
     "name" : "HAL_DATASPACE_V0_SCRGB_LINEAR"
    },
    {
     "enum_field_value" : 513,
     "name" : "HAL_DATASPACE_SRGB"
    },
    {
     "enum_field_value" : 142671872,
     "name" : "HAL_DATASPACE_V0_SRGB"
    },
    {
     "enum_field_value" : 411107328,
     "name" : "HAL_DATASPACE_V0_SCRGB"
    },
    {
     "enum_field_value" : 257,
     "name" : "HAL_DATASPACE_JFIF"
    },
    {
     "enum_field_value" : 146931712,
     "name" : "HAL_DATASPACE_V0_JFIF"
    },
    {
     "enum_field_value" : 258,
     "name" : "HAL_DATASPACE_BT601_625"
    },
    {
     "enum_field_value" : 281149440,
     "name" : "HAL_DATASPACE_V0_BT601_625"
    },
    {
     "enum_field_value" : 259,
     "name" : "HAL_DATASPACE_BT601_525"
    },
    {
     "enum_field_value" : 281280512,
     "name" : "HAL_DATASPACE_V0_BT601_525"
    },
    {
     "enum_field_value" : 260,
     "name" : "HAL_DATASPACE_BT709"
    },
    {
     "enum_field_value" : 281083904,
     "name" : "HAL_DATASPACE_V0_BT709"
    },
    {
     "enum_field_value" : 139067392,
     "name" : "HAL_DATASPACE_DCI_P3_LINEAR"
    },
    {
     "enum_field_value" : 155844608,
     "name" : "HAL_DATASPACE_DCI_P3"
    },
    {
     "enum_field_value" : 139067392,
     "name" : "HAL_DATASPACE_DISPLAY_P3_LINEAR"
    },
    {
     "enum_field_value" : 143261696,
     "name" : "HAL_DATASPACE_DISPLAY_P3"
    },
    {
     "enum_field_value" : 151715840,
     "name" : "HAL_DATASPACE_ADOBE_RGB"
    },
    {
     "enum_field_value" : 138805248,
     "name" : "HAL_DATASPACE_BT2020_LINEAR"
    },
    {
     "enum_field_value" : 147193856,
     "name" : "HAL_DATASPACE_BT2020"
    },
    {
     "enum_field_value" : 163971072,
     "name" : "HAL_DATASPACE_BT2020_PQ"
    },
    {
     "enum_field_value" : 4096,
     "name" : "HAL_DATASPACE_DEPTH"
    },
    {
     "enum_field_value" : 4097,
     "name" : "HAL_DATASPACE_SENSOR"
    }
   ],
   "linker_set_key" : "android_dataspace_t",
   "name" : "android_dataspace_t",
   "referenced_type" : "type-861",
   "self_type" : "type-861",
   "size" : 4,
   "source_file" : "/system/core/libsystem/include/system/graphics-base-v1.0.h",
   "underlying_type" : "type-2",
   "unique_id" : "android_dataspace_t"
  },
  {
   "alignment" : 4,
   "enum_fields" :
   [
    {
     "enum_field_value" : 281411584,
     "name" : "HAL_DATASPACE_BT2020_ITU"
    },
    {
     "enum_field_value" : 298188800,
     "name" : "HAL_DATASPACE_BT2020_ITU_PQ"
    },
    {
     "enum_field_value" : 302383104,
     "name" : "HAL_DATASPACE_BT2020_ITU_HLG"
    },
    {
     "enum_field_value" : 168165376,
     "name" : "HAL_DATASPACE_BT2020_HLG"
    }
   ],
   "linker_set_key" : "android_dataspace_v1_1_t",
   "name" : "android_dataspace_v1_1_t",
   "referenced_type" : "type-866",
   "self_type" : "type-866",
   "size" : 4,
   "source_file" : "/system/core/libsystem/include/system/graphics-base-v1.1.h",
   "underlying_type" : "type-2",
   "unique_id" : "android_dataspace_v1_1_t"
  },
  {
   "alignment" : 4,
   "enum_fields" :
   [
    {
     "enum_field_value" : 142999552,
     "name" : "HAL_DATASPACE_DISPLAY_BT2020"
    },
    {
     "enum_field_value" : 4098,
     "name" : "HAL_DATASPACE_DYNAMIC_DEPTH"
    },
    {
     "enum_field_value" : 4099,
     "name" : "HAL_DATASPACE_JPEG_APP_SEGMENTS"
    },
    {
     "enum_field_value" : 4100,
     "name" : "HAL_DATASPACE_HEIF"
    }
   ],
   "linker_set_key" : "android_dataspace_v1_2_t",
   "name" : "android_dataspace_v1_2_t",
   "referenced_type" : "type-871",
   "self_type" : "type-871",
   "size" : 4,
   "source_file" : "/system/core/libsystem/include/system/graphics-base-v1.2.h",
   "underlying_type" : "type-2",
   "unique_id" : "android_dataspace_v1_2_t"
  },
  {
   "alignment" : 4,
   "enum_fields" :
   [
    {
     "enum_field_value" : 1,
     "name" : "FLEX_COMPONENT_Y"
    },
    {
     "enum_field_value" : 2,
     "name" : "FLEX_COMPONENT_Cb"
    },
    {
     "enum_field_value" : 4,
     "name" : "FLEX_COMPONENT_Cr"
    },
    {
     "enum_field_value" : 1024,
     "name" : "FLEX_COMPONENT_R"
    },
    {
     "enum_field_value" : 2048,
     "name" : "FLEX_COMPONENT_G"
    },
    {
     "enum_field_value" : 4096,
     "name" : "FLEX_COMPONENT_B"
    },
    {
     "enum_field_value" : 1073741824,
     "name" : "FLEX_COMPONENT_A"
    }
   ],
   "linker_set_key" : "android_flex_component",
   "name" : "android_flex_component",
   "referenced_type" : "type-876",
   "self_type" : "type-876",
   "size" : 4,
   "source_file" : "/system/core/libsystem/include/system/graphics.h",
   "underlying_type" : "type-2",
   "unique_id" : "android_flex_component"
  },
  {
   "alignment" : 4,
   "enum_fields" :
   [
    {
     "enum_field_value" : 0,
     "name" : "FLEX_FORMAT_INVALID"
    },
    {
     "enum_field_value" : 1,
     "name" : "FLEX_FORMAT_Y"
    },
    {
     "enum_field_value" : 7,
     "name" : "FLEX_FORMAT_YCbCr"
    },
    {
     "enum_field_value" : 1073741831,
     "name" : "FLEX_FORMAT_YCbCrA"
    },
    {
     "enum_field_value" : 7168,
     "name" : "FLEX_FORMAT_RGB"
    },
    {
     "enum_field_value" : 1073748992,
     "name" : "FLEX_FORMAT_RGBA"
    }
   ],
   "linker_set_key" : "android_flex_format",
   "name" : "android_flex_format",
   "referenced_type" : "type-878",
   "self_type" : "type-878",
   "size" : 4,
   "source_file" : "/system/core/libsystem/include/system/graphics.h",
   "underlying_type" : "type-2",
   "unique_id" : "android_flex_format"
  },
  {
   "alignment" : 4,
   "enum_fields" :
   [
    {
     "enum_field_value" : 1,
     "name" : "HAL_HDR_DOLBY_VISION"
    },
    {
     "enum_field_value" : 2,
     "name" : "HAL_HDR_HDR10"
    },
    {
     "enum_field_value" : 3,
     "name" : "HAL_HDR_HLG"
    }
   ],
   "linker_set_key" : "android_hdr_t",
   "name" : "android_hdr_t",
   "referenced_type" : "type-864",
   "self_type" : "type-864",
   "size" : 4,
   "source_file" : "/system/core/libsystem/include/system/graphics-base-v1.0.h",
   "underlying_type" : "type-2",
   "unique_id" : "android_hdr_t"
  },
  {
   "alignment" : 4,
   "enum_fields" :
   [
    {
     "enum_field_value" : 4,
     "name" : "HAL_HDR_HDR10_PLUS"
    }
   ],
   "linker_set_key" : "android_hdr_v1_2_t",
   "name" : "android_hdr_v1_2_t",
   "referenced_type" : "type-870",
   "self_type" : "type-870",
   "size" : 4,
   "source_file" : "/system/core/libsystem/include/system/graphics-base-v1.2.h",
   "underlying_type" : "type-2",
   "unique_id" : "android_hdr_v1_2_t"
  },
  {
   "alignment" : 4,
   "enum_fields" :
   [
    {
     "enum_field_value" : 39,
     "name" : "HAL_PIXEL_FORMAT_YCBCR_422_888"
    },
    {
     "enum_field_value" : 40,
     "name" : "HAL_PIXEL_FORMAT_YCBCR_444_888"
    },
    {
     "enum_field_value" : 41,
     "name" : "HAL_PIXEL_FORMAT_FLEX_RGB_888"
    },
    {
     "enum_field_value" : 42,
     "name" : "HAL_PIXEL_FORMAT_FLEX_RGBA_8888"
    }
   ],
   "linker_set_key" : "android_pixel_format_sw_t",
   "name" : "android_pixel_format_sw_t",
   "referenced_type" : "type-873",
   "self_type" : "type-873",
   "size" : 4,
   "source_file" : "/system/core/libsystem/include/system/graphics-sw.h",
   "underlying_type" : "type-2",
   "unique_id" : "_ZTS25android_pixel_format_sw_t"
  },
  {
   "alignment" : 4,
   "enum_fields" :
   [
    {
     "enum_field_value" : 1,
     "name" : "HAL_PIXEL_FORMAT_RGBA_8888"
    },
    {
     "enum_field_value" : 2,
     "name" : "HAL_PIXEL_FORMAT_RGBX_8888"
    },
    {
     "enum_field_value" : 3,
     "name" : "HAL_PIXEL_FORMAT_RGB_888"
    },
    {
     "enum_field_value" : 4,
     "name" : "HAL_PIXEL_FORMAT_RGB_565"
    },
    {
     "enum_field_value" : 5,
     "name" : "HAL_PIXEL_FORMAT_BGRA_8888"
    },
    {
     "enum_field_value" : 16,
     "name" : "HAL_PIXEL_FORMAT_YCBCR_422_SP"
    },
    {
     "enum_field_value" : 17,
     "name" : "HAL_PIXEL_FORMAT_YCRCB_420_SP"
    },
    {
     "enum_field_value" : 20,
     "name" : "HAL_PIXEL_FORMAT_YCBCR_422_I"
    },
    {
     "enum_field_value" : 22,
     "name" : "HAL_PIXEL_FORMAT_RGBA_FP16"
    },
    {
     "enum_field_value" : 32,
     "name" : "HAL_PIXEL_FORMAT_RAW16"
    },
    {
     "enum_field_value" : 33,
     "name" : "HAL_PIXEL_FORMAT_BLOB"
    },
    {
     "enum_field_value" : 34,
     "name" : "HAL_PIXEL_FORMAT_IMPLEMENTATION_DEFINED"
    },
    {
     "enum_field_value" : 35,
     "name" : "HAL_PIXEL_FORMAT_YCBCR_420_888"
    },
    {
     "enum_field_value" : 36,
     "name" : "HAL_PIXEL_FORMAT_RAW_OPAQUE"
    },
    {
     "enum_field_value" : 37,
     "name" : "HAL_PIXEL_FORMAT_RAW10"
    },
    {
     "enum_field_value" : 38,
     "name" : "HAL_PIXEL_FORMAT_RAW12"
    },
    {
     "enum_field_value" : 43,
     "name" : "HAL_PIXEL_FORMAT_RGBA_1010102"
    },
    {
     "enum_field_value" : 538982489,
     "name" : "HAL_PIXEL_FORMAT_Y8"
    },
    {
     "enum_field_value" : 540422489,
     "name" : "HAL_PIXEL_FORMAT_Y16"
    },
    {
     "enum_field_value" : 842094169,
     "name" : "HAL_PIXEL_FORMAT_YV12"
    }
   ],
   "linker_set_key" : "android_pixel_format_t",
   "name" : "android_pixel_format_t",
   "referenced_type" : "type-859",
   "self_type" : "type-859",
   "size" : 4,
   "source_file" : "/system/core/libsystem/include/system/graphics-base-v1.0.h",
   "underlying_type" : "type-2",
   "unique_id" : "android_pixel_format_t"
  },
  {
   "alignment" : 4,
   "enum_fields" :
   [
    {
     "enum_field_value" : 48,
     "name" : "HAL_PIXEL_FORMAT_DEPTH_16"
    },
    {
     "enum_field_value" : 49,
     "name" : "HAL_PIXEL_FORMAT_DEPTH_24"
    },
    {
     "enum_field_value" : 50,
     "name" : "HAL_PIXEL_FORMAT_DEPTH_24_STENCIL_8"
    },
    {
     "enum_field_value" : 51,
     "name" : "HAL_PIXEL_FORMAT_DEPTH_32F"
    },
    {
     "enum_field_value" : 52,
     "name" : "HAL_PIXEL_FORMAT_DEPTH_32F_STENCIL_8"
    },
    {
     "enum_field_value" : 53,
     "name" : "HAL_PIXEL_FORMAT_STENCIL_8"
    },
    {
     "enum_field_value" : 54,
     "name" : "HAL_PIXEL_FORMAT_YCBCR_P010"
    }
   ],
   "linker_set_key" : "android_pixel_format_v1_1_t",
   "name" : "android_pixel_format_v1_1_t",
   "referenced_type" : "type-865",
   "self_type" : "type-865",
   "size" : 4,
   "source_file" : "/system/core/libsystem/include/system/graphics-base-v1.1.h",
   "underlying_type" : "type-2",
   "unique_id" : "android_pixel_format_v1_1_t"
  },
  {
   "alignment" : 4,
   "enum_fields" :
   [
    {
     "enum_field_value" : 55,
     "name" : "HAL_PIXEL_FORMAT_HSV_888"
    }
   ],
   "linker_set_key" : "android_pixel_format_v1_2_t",
   "name" : "android_pixel_format_v1_2_t",
   "referenced_type" : "type-872",
   "self_type" : "type-872",
   "size" : 4,
   "source_file" : "/system/core/libsystem/include/system/graphics-base-v1.2.h",
   "underlying_type" : "type-2",
   "unique_id" : "android_pixel_format_v1_2_t"
  },
  {
   "alignment" : 4,
   "enum_fields" :
   [
    {
     "enum_field_value" : 0,
     "name" : "HAL_RENDER_INTENT_COLORIMETRIC"
    },
    {
     "enum_field_value" : 1,
     "name" : "HAL_RENDER_INTENT_ENHANCE"
    },
    {
     "enum_field_value" : 2,
     "name" : "HAL_RENDER_INTENT_TONE_MAP_COLORIMETRIC"
    },
    {
     "enum_field_value" : 3,
     "name" : "HAL_RENDER_INTENT_TONE_MAP_ENHANCE"
    }
   ],
   "linker_set_key" : "android_render_intent_v1_1_t",
   "name" : "android_render_intent_v1_1_t",
   "referenced_type" : "type-868",
   "self_type" : "type-868",
   "size" : 4,
   "source_file" : "/system/core/libsystem/include/system/graphics-base-v1.1.h",
   "underlying_type" : "type-2",
   "unique_id" : "android_render_intent_v1_1_t"
  },
  {
   "alignment" : 4,
   "enum_fields" :
   [
    {
     "enum_field_value" : 1,
     "name" : "HAL_TRANSFORM_FLIP_H"
    },
    {
     "enum_field_value" : 2,
     "name" : "HAL_TRANSFORM_FLIP_V"
    },
    {
     "enum_field_value" : 4,
     "name" : "HAL_TRANSFORM_ROT_90"
    },
    {
     "enum_field_value" : 3,
     "name" : "HAL_TRANSFORM_ROT_180"
    },
    {
     "enum_field_value" : 7,
     "name" : "HAL_TRANSFORM_ROT_270"
    }
   ],
   "linker_set_key" : "android_transform_t",
   "name" : "android_transform_t",
   "referenced_type" : "type-860",
   "self_type" : "type-860",
   "size" : 4,
   "source_file" : "/system/core/libsystem/include/system/graphics-base-v1.0.h",
   "underlying_type" : "type-2",
   "unique_id" : "android_transform_t"
  },
  {
   "alignment" : 4,
   "enum_fields" :
   [
    {
     "enum_field_value" : 0,
     "name" : "LOG_ID_MIN"
    },
    {
     "enum_field_value" : 0,
     "name" : "LOG_ID_MAIN"
    },
    {
     "enum_field_value" : 1,
     "name" : "LOG_ID_RADIO"
    },
    {
     "enum_field_value" : 2,
     "name" : "LOG_ID_EVENTS"
    },
    {
     "enum_field_value" : 3,
     "name" : "LOG_ID_SYSTEM"
    },
    {
     "enum_field_value" : 4,
     "name" : "LOG_ID_CRASH"
    },
    {
     "enum_field_value" : 5,
     "name" : "LOG_ID_STATS"
    },
    {
     "enum_field_value" : 6,
     "name" : "LOG_ID_SECURITY"
    },
    {
     "enum_field_value" : 7,
     "name" : "LOG_ID_KERNEL"
    },
    {
     "enum_field_value" : 8,
     "name" : "LOG_ID_MAX"
    }
   ],
   "linker_set_key" : "log_id",
   "name" : "log_id",
   "referenced_type" : "type-567",
   "self_type" : "type-567",
   "size" : 4,
   "source_file" : "/system/core/liblog/include/android/log.h",
   "underlying_type" : "type-2",
   "unique_id" : "log_id"
  }
 ],
 "function_types" :
 [
  {
   "alignment" : 4,
   "linker_set_key" : "bool (const android::String16 &, const android::sp<android::hardware::IBinder> &, void *)",
   "name" : "bool (const android::String16 &, const android::sp<android::hardware::IBinder> &, void *)",
   "parameters" :
   [
    {
     "referenced_type" : "type-135"
    },
    {
     "referenced_type" : "type-141"
    },
    {
     "referenced_type" : "type-123"
    }
   ],
   "referenced_type" : "type-134",
   "return_type" : "type-3",
   "self_type" : "type-134",
   "source_file" : "/system/libhwbinder/include/hwbinder/ProcessState.h"
  },
  {
   "alignment" : 4,
   "linker_set_key" : "int (void *)",
   "name" : "int (void *)",
   "parameters" :
   [
    {
     "referenced_type" : "type-123"
    }
   ],
   "referenced_type" : "type-889",
   "return_type" : "type-45",
   "self_type" : "type-889",
   "source_file" : "/system/core/libutils/include/utils/AndroidThreads.h"
  },
  {
   "alignment" : 4,
   "linker_set_key" : "void (android::hardware::Parcel *, const unsigned char *, unsigned int, const unsigned long long *, unsigned int, void *)",
   "name" : "void (android::hardware::Parcel *, const unsigned char *, unsigned int, const unsigned long long *, unsigned int, void *)",
   "parameters" :
   [
    {
     "referenced_type" : "type-799"
    },
    {
     "referenced_type" : "type-742"
    },
    {
     "referenced_type" : "type-2"
    },
    {
     "referenced_type" : "type-800"
    },
    {
     "referenced_type" : "type-2"
    },
    {
     "referenced_type" : "type-123"
    }
   ],
   "referenced_type" : "type-798",
   "return_type" : "type-124",
   "self_type" : "type-798",
   "source_file" : "/system/libhwbinder/include/hwbinder/Parcel.h"
  }
 ],
 "functions" :
 [
  {
   "function_name" : "android::hardware::fromBinder",
   "linker_set_key" : "_ZN7android8hardware10fromBinderINS0_6camera6device4V1_021ICameraDeviceCallbackENS4_24BpHwCameraDeviceCallbackENS4_24BnHwCameraDeviceCallbackEEENS_2spIT_EERKNS8_INS0_7IBinderEEE",
   "parameters" :
   [
    {
     "referenced_type" : "type-141"
    }
   ],
   "return_type" : "type-12",
   "source_file" : "/system/libhidl/transport/include/hidl/HidlBinderSupport.h",
   "template_args" : [ "type-4", "type-287", "type-811" ]
  },
  {
   "function_name" : "android::hardware::fromBinder",
   "linker_set_key" : "_ZN7android8hardware10fromBinderINS0_6camera6device4V1_028ICameraDevicePreviewCallbackENS4_31BpHwCameraDevicePreviewCallbackENS4_31BnHwCameraDevicePreviewCallbackEEENS_2spIT_EERKNS8_INS0_7IBinderEEE",
   "parameters" :
   [
    {
     "referenced_type" : "type-141"
    }
   ],
   "return_type" : "type-15",
   "source_file" : "/system/libhidl/transport/include/hidl/HidlBinderSupport.h",
   "template_args" : [ "type-17", "type-298", "type-813" ]
  },
  {
   "function_name" : "android::hardware::camera::device::V1_0::ICameraDevice::getService",
   "linker_set_key" : "_ZN7android8hardware6camera6device4V1_013ICameraDevice10getServiceERKNSt3__112basic_stringIcNS5_11char_traitsIcEENS5_9allocatorIcEEEEb",
   "parameters" :
   [
    {
     "default_arg" : true,
     "referenced_type" : "type-816"
    },
    {
     "default_arg" : true,
     "referenced_type" : "type-3"
    }
   ],
   "return_type" : "type-321",
   "source_file" : "/out/soong/.intermediates/hardware/interfaces/camera/device/1.0/android.hardware.camera.device@1.0_genc++_headers/gen/android/hardware/camera/device/1.0/ICameraDevice.h"
  },
  {
   "function_name" : "android::hardware::camera::device::V1_0::ICameraDevice::linkToDeath",
   "linker_set_key" : "_ZN7android8hardware6camera6device4V1_013ICameraDevice11linkToDeathERKNS_2spINS0_20hidl_death_recipientEEEy",
   "parameters" :
   [
    {
     "is_this_ptr" : true,
     "referenced_type" : "type-322"
    },
    {
     "referenced_type" : "type-913"
    },
    {
     "referenced_type" : "type-47"
    }
   ],
   "return_type" : "type-402",
   "source_file" : "/out/soong/.intermediates/hardware/interfaces/camera/device/1.0/android.hardware.camera.device@1.0_genc++_headers/gen/android/hardware/camera/device/1.0/ICameraDevice.h"
  },
  {
   "function_name" : "android::hardware::camera::device::V1_0::ICameraDevice::getDebugInfo",
   "linker_set_key" : "_ZN7android8hardware6camera6device4V1_013ICameraDevice12getDebugInfoENSt3__18functionIFvRKNS_4hidl4base4V1_09DebugInfoEEEE",
   "parameters" :
   [
    {
     "is_this_ptr" : true,
     "referenced_type" : "type-322"
    },
    {
     "referenced_type" : "type-1079"
    }
   ],
   "return_type" : "type-464",
   "source_file" : "/out/soong/.intermediates/hardware/interfaces/camera/device/1.0/android.hardware.camera.device@1.0_genc++_headers/gen/android/hardware/camera/device/1.0/ICameraDevice.h"
  },
  {
   "function_name" : "android::hardware::camera::device::V1_0::ICameraDevice::getHashChain",
   "linker_set_key" : "_ZN7android8hardware6camera6device4V1_013ICameraDevice12getHashChainENSt3__18functionIFvRKNS0_8hidl_vecINS0_10hidl_arrayIhLj32EJEEEEEEEE",
   "parameters" :
   [
    {
     "is_this_ptr" : true,
     "referenced_type" : "type-322"
    },
    {
     "referenced_type" : "type-1080"
    }
   ],
   "return_type" : "type-464",
   "source_file" : "/out/soong/.intermediates/hardware/interfaces/camera/device/1.0/android.hardware.camera.device@1.0_genc++_headers/gen/android/hardware/camera/device/1.0/ICameraDevice.h"
  },
  {
   "function_name" : "android::hardware::camera::device::V1_0::ICameraDevice::tryGetService",
   "linker_set_key" : "_ZN7android8hardware6camera6device4V1_013ICameraDevice13tryGetServiceERKNSt3__112basic_stringIcNS5_11char_traitsIcEENS5_9allocatorIcEEEEb",
   "parameters" :
   [
    {
     "default_arg" : true,
     "referenced_type" : "type-816"
    },
    {
     "default_arg" : true,
     "referenced_type" : "type-3"
    }
   ],
   "return_type" : "type-321",
   "source_file" : "/out/soong/.intermediates/hardware/interfaces/camera/device/1.0/android.hardware.camera.device@1.0_genc++_headers/gen/android/hardware/camera/device/1.0/ICameraDevice.h"
  },
  {
   "function_name" : "android::hardware::camera::device::V1_0::ICameraDevice::unlinkToDeath",
   "linker_set_key" : "_ZN7android8hardware6camera6device4V1_013ICameraDevice13unlinkToDeathERKNS_2spINS0_20hidl_death_recipientEEE",
   "parameters" :
   [
    {
     "is_this_ptr" : true,
     "referenced_type" : "type-322"
    },
    {
     "referenced_type" : "type-913"
    }
   ],
   "return_type" : "type-402",
   "source_file" : "/out/soong/.intermediates/hardware/interfaces/camera/device/1.0/android.hardware.camera.device@1.0_genc++_headers/gen/android/hardware/camera/device/1.0/ICameraDevice.h"
  },
  {
   "function_name" : "android::hardware::camera::device::V1_0::ICameraDevice::interfaceChain",
   "linker_set_key" : "_ZN7android8hardware6camera6device4V1_013ICameraDevice14interfaceChainENSt3__18functionIFvRKNS0_8hidl_vecINS0_11hidl_stringEEEEEE",
   "parameters" :
   [
    {
     "is_this_ptr" : true,
     "referenced_type" : "type-322"
    },
    {
     "referenced_type" : "type-1081"
    }
   ],
   "return_type" : "type-464",
   "source_file" : "/out/soong/.intermediates/hardware/interfaces/camera/device/1.0/android.hardware.camera.device@1.0_genc++_headers/gen/android/hardware/camera/device/1.0/ICameraDevice.h"
  },
  {
   "function_name" : "android::hardware::camera::device::V1_0::ICameraDevice::registerAsService",
   "linker_set_key" : "_ZN7android8hardware6camera6device4V1_013ICameraDevice17registerAsServiceERKNSt3__112basic_stringIcNS5_11char_traitsIcEENS5_9allocatorIcEEEE",
   "parameters" :
   [
    {
     "is_this_ptr" : true,
     "referenced_type" : "type-322"
    },
    {
     "default_arg" : true,
     "referenced_type" : "type-816"
    }
   ],
   "return_type" : "type-45",
   "source_file" : "/out/soong/.intermediates/hardware/interfaces/camera/device/1.0/android.hardware.camera.device@1.0_genc++_headers/gen/android/hardware/camera/device/1.0/ICameraDevice.h"
  },
  {
   "function_name" : "android::hardware::camera::device::V1_0::ICameraDevice::interfaceDescriptor",
   "linker_set_key" : "_ZN7android8hardware6camera6device4V1_013ICameraDevice19interfaceDescriptorENSt3__18functionIFvRKNS0_11hidl_stringEEEE",
   "parameters" :
   [
    {
     "is_this_ptr" : true,
     "referenced_type" : "type-322"
    },
    {
     "referenced_type" : "type-1082"
    }
   ],
   "return_type" : "type-464",
   "source_file" : "/out/soong/.intermediates/hardware/interfaces/camera/device/1.0/android.hardware.camera.device@1.0_genc++_headers/gen/android/hardware/camera/device/1.0/ICameraDevice.h"
  },
  {
   "function_name" : "android::hardware::camera::device::V1_0::ICameraDevice::notifySyspropsChanged",
   "linker_set_key" : "_ZN7android8hardware6camera6device4V1_013ICameraDevice21notifySyspropsChangedEv",
   "parameters" :
   [
    {
     "is_this_ptr" : true,
     "referenced_type" : "type-322"
    }
   ],
   "return_type" : "type-464",
   "source_file" : "/out/soong/.intermediates/hardware/interfaces/camera/device/1.0/android.hardware.camera.device@1.0_genc++_headers/gen/android/hardware/camera/device/1.0/ICameraDevice.h"
  },
  {
   "function_name" : "android::hardware::camera::device::V1_0::ICameraDevice::setHALInstrumentation",
   "linker_set_key" : "_ZN7android8hardware6camera6device4V1_013ICameraDevice21setHALInstrumentationEv",
   "parameters" :
   [
    {
     "is_this_ptr" : true,
     "referenced_type" : "type-322"
    }
   ],
   "return_type" : "type-464",
   "source_file" : "/out/soong/.intermediates/hardware/interfaces/camera/device/1.0/android.hardware.camera.device@1.0_genc++_headers/gen/android/hardware/camera/device/1.0/ICameraDevice.h"
  },
  {
   "function_name" : "android::hardware::camera::device::V1_0::ICameraDevice::registerForNotifications",
   "linker_set_key" : "_ZN7android8hardware6camera6device4V1_013ICameraDevice24registerForNotificationsERKNSt3__112basic_stringIcNS5_11char_traitsIcEENS5_9allocatorIcEEEERKNS_2spINS_4hidl7manager4V1_020IServiceNotificationEEE",
   "parameters" :
   [
    {
     "referenced_type" : "type-816"
    },
    {
     "referenced_type" : "type-1009"
    }
   ],
   "return_type" : "type-3",
   "source_file" : "/out/soong/.intermediates/hardware/interfaces/camera/device/1.0/android.hardware.camera.device@1.0_genc++_headers/gen/android/hardware/camera/device/1.0/ICameraDevice.h"
  },
  {
   "function_name" : "android::hardware::camera::device::V1_0::ICameraDevice::ping",
   "linker_set_key" : "_ZN7android8hardware6camera6device4V1_013ICameraDevice4pingEv",
   "parameters" :
   [
    {
     "is_this_ptr" : true,
     "referenced_type" : "type-322"
    }
   ],
   "return_type" : "type-464",
   "source_file" : "/out/soong/.intermediates/hardware/interfaces/camera/device/1.0/android.hardware.camera.device@1.0_genc++_headers/gen/android/hardware/camera/device/1.0/ICameraDevice.h"
  },
  {
   "function_name" : "android::hardware::camera::device::V1_0::ICameraDevice::debug",
   "linker_set_key" : "_ZN7android8hardware6camera6device4V1_013ICameraDevice5debugERKNS0_11hidl_handleERKNS0_8hidl_vecINS0_11hidl_stringEEE",
   "parameters" :
   [
    {
     "is_this_ptr" : true,
     "referenced_type" : "type-322"
    },
    {
     "referenced_type" : "type-763"
    },
    {
     "referenced_type" : "type-685"
    }
   ],
   "return_type" : "type-464",
   "source_file" : "/out/soong/.intermediates/hardware/interfaces/camera/device/1.0/android.hardware.camera.device@1.0_genc++_headers/gen/android/hardware/camera/device/1.0/ICameraDevice.h"
  },
  {
   "function_name" : "android::hardware::camera::device::V1_0::ICameraDevice::castFrom",
   "linker_set_key" : "_ZN7android8hardware6camera6device4V1_013ICameraDevice8castFromERKNS_2spINS_4hidl4base4V1_05IBaseEEEb",
   "parameters" :
   [
    {
     "referenced_type" : "type-1047"
    },
    {
     "default_arg" : true,
     "referenced_type" : "type-3"
    }
   ],
   "return_type" : "type-425",
   "source_file" : "/out/soong/.intermediates/hardware/interfaces/camera/device/1.0/android.hardware.camera.device@1.0_genc++_headers/gen/android/hardware/camera/device/1.0/ICameraDevice.h"
  },
  {
   "function_name" : "android::hardware::camera::device::V1_0::ICameraDevice::castFrom",
   "linker_set_key" : "_ZN7android8hardware6camera6device4V1_013ICameraDevice8castFromERKNS_2spIS4_EEb",
   "parameters" :
   [
    {
     "referenced_type" : "type-628"
    },
    {
     "default_arg" : true,
     "referenced_type" : "type-3"
    }
   ],
   "return_type" : "type-425",
   "source_file" : "/out/soong/.intermediates/hardware/interfaces/camera/device/1.0/android.hardware.camera.device@1.0_genc++_headers/gen/android/hardware/camera/device/1.0/ICameraDevice.h"
  },
  {
   "access" : "private",
   "function_name" : "android::hardware::camera::device::V1_0::BsCameraDevice::addOnewayTask",
   "linker_set_key" : "_ZN7android8hardware6camera6device4V1_014BsCameraDevice13addOnewayTaskENSt3__18functionIFvvEEE",
   "parameters" :
   [
    {
     "is_this_ptr" : true,
     "referenced_type" : "type-1051"
    },
    {
     "referenced_type" : "type-1085"
    }
   ],
   "return_type" : "type-464",
   "source_file" : "/out/soong/.intermediates/hardware/interfaces/camera/device/1.0/android.hardware.camera.device@1.0_genc++_headers/gen/android/hardware/camera/device/1.0/BsCameraDevice.h"
  },
  {
   "function_name" : "android::hardware::camera::device::V1_0::BsCameraDevice::BsCameraDevice",
   "linker_set_key" : "_ZN7android8hardware6camera6device4V1_014BsCameraDeviceC1ENS_2spINS3_13ICameraDeviceEEE",
   "parameters" :
   [
    {
     "is_this_ptr" : true,
     "referenced_type" : "type-1051"
    },
    {
     "referenced_type" : "type-332"
    }
   ],
   "return_type" : "type-124",
   "source_file" : "/out/soong/.intermediates/hardware/interfaces/camera/device/1.0/android.hardware.camera.device@1.0_genc++_headers/gen/android/hardware/camera/device/1.0/BsCameraDevice.h"
  },
  {
   "function_name" : "android::hardware::camera::device::V1_0::BsCameraDevice::BsCameraDevice",
   "linker_set_key" : "_ZN7android8hardware6camera6device4V1_014BsCameraDeviceC2ENS_2spINS3_13ICameraDeviceEEE",
   "parameters" :
   [
    {
     "is_this_ptr" : true,
     "referenced_type" : "type-1051"
    },
    {
     "referenced_type" : "type-332"
    }
   ],
   "return_type" : "type-124",
   "source_file" : "/out/soong/.intermediates/hardware/interfaces/camera/device/1.0/android.hardware.camera.device@1.0_genc++_headers/gen/android/hardware/camera/device/1.0/BsCameraDevice.h"
  },
  {
   "function_name" : "android::hardware::camera::device::V1_0::BnHwCameraDevice::_hidl_open",
   "linker_set_key" : "_ZN7android8hardware6camera6device4V1_016BnHwCameraDevice10_hidl_openEPNS_4hidl4base4V1_08BnHwBaseERKNS0_6ParcelEPSA_NSt3__18functionIFvRSA_EEE",
   "parameters" :
   [
    {
     "referenced_type" : "type-807"
    },
    {
     "referenced_type" : "type-806"
    },
    {
     "referenced_type" : "type-799"
    },
    {
     "referenced_type" : "type-1091"
    }
   ],
   "return_type" : "type-45",
   "source_file" : "/out/soong/.intermediates/hardware/interfaces/camera/device/1.0/android.hardware.camera.device@1.0_genc++_headers/gen/android/hardware/camera/device/1.0/BnHwCameraDevice.h"
  },
  {
   "function_name" : "android::hardware::camera::device::V1_0::BnHwCameraDevice::onTransact",
   "linker_set_key" : "_ZN7android8hardware6camera6device4V1_016BnHwCameraDevice10onTransactEjRKNS0_6ParcelEPS5_jNSt3__18functionIFvRS5_EEE",
   "parameters" :
   [
    {
     "is_this_ptr" : true,
     "referenced_type" : "type-1036"
    },
    {
     "referenced_type" : "type-2"
    },
    {
     "referenced_type" : "type-806"
    },
    {
     "referenced_type" : "type-799"
    },
    {
     "default_arg" : true,
     "referenced_type" : "type-2"
    },
    {
     "default_arg" : true,
     "referenced_type" : "type-1092"
    }
   ],
   "return_type" : "type-45",
   "source_file" : "/out/soong/.intermediates/hardware/interfaces/camera/device/1.0/android.hardware.camera.device@1.0_genc++_headers/gen/android/hardware/camera/device/1.0/BnHwCameraDevice.h"
  },
  {
   "function_name" : "android::hardware::camera::device::V1_0::BnHwCameraDevice::_hidl_close",
   "linker_set_key" : "_ZN7android8hardware6camera6device4V1_016BnHwCameraDevice11_hidl_closeEPNS_4hidl4base4V1_08BnHwBaseERKNS0_6ParcelEPSA_NSt3__18functionIFvRSA_EEE",
   "parameters" :
   [
    {
     "referenced_type" : "type-807"
    },
    {
     "referenced_type" : "type-806"
    },
    {
     "referenced_type" : "type-799"
    },
    {
     "referenced_type" : "type-1093"
    }
   ],
   "return_type" : "type-45",
   "source_file" : "/out/soong/.intermediates/hardware/interfaces/camera/device/1.0/android.hardware.camera.device@1.0_genc++_headers/gen/android/hardware/camera/device/1.0/BnHwCameraDevice.h"
  },
  {
   "access" : "private",
   "function_name" : "android::hardware::camera::device::V1_0::BnHwCameraDevice::getDebugInfo",
   "linker_set_key" : "_ZN7android8hardware6camera6device4V1_016BnHwCameraDevice12getDebugInfoENSt3__18functionIFvRKNS_4hidl4base4V1_09DebugInfoEEEE",
   "parameters" :
   [
    {
     "is_this_ptr" : true,
     "referenced_type" : "type-1036"
    },
    {
     "referenced_type" : "type-1094"
    }
   ],
   "return_type" : "type-464",
   "source_file" : "/out/soong/.intermediates/hardware/interfaces/camera/device/1.0/android.hardware.camera.device@1.0_genc++_headers/gen/android/hardware/camera/device/1.0/BnHwCameraDevice.h"
  },
  {
   "function_name" : "android::hardware::camera::device::V1_0::BnHwCameraDevice::_hidl_autoFocus",
   "linker_set_key" : "_ZN7android8hardware6camera6device4V1_016BnHwCameraDevice15_hidl_autoFocusEPNS_4hidl4base4V1_08BnHwBaseERKNS0_6ParcelEPSA_NSt3__18functionIFvRSA_EEE",
   "parameters" :
   [
    {
     "referenced_type" : "type-807"
    },
    {
     "referenced_type" : "type-806"
    },
    {
     "referenced_type" : "type-799"
    },
    {
     "referenced_type" : "type-1095"
    }
   ],
   "return_type" : "type-45",
   "source_file" : "/out/soong/.intermediates/hardware/interfaces/camera/device/1.0/android.hardware.camera.device@1.0_genc++_headers/gen/android/hardware/camera/device/1.0/BnHwCameraDevice.h"
  },
  {
   "function_name" : "android::hardware::camera::device::V1_0::BnHwCameraDevice::_hidl_dumpState",
   "linker_set_key" : "_ZN7android8hardware6camera6device4V1_016BnHwCameraDevice15_hidl_dumpStateEPNS_4hidl4base4V1_08BnHwBaseERKNS0_6ParcelEPSA_NSt3__18functionIFvRSA_EEE",
   "parameters" :
   [
    {
     "referenced_type" : "type-807"
    },
    {
     "referenced_type" : "type-806"
    },
    {
     "referenced_type" : "type-799"
    },
    {
     "referenced_type" : "type-1096"
    }
   ],
   "return_type" : "type-45",
   "source_file" : "/out/soong/.intermediates/hardware/interfaces/camera/device/1.0/android.hardware.camera.device@1.0_genc++_headers/gen/android/hardware/camera/device/1.0/BnHwCameraDevice.h"
  },
  {
   "function_name" : "android::hardware::camera::device::V1_0::BnHwCameraDevice::_hidl_sendCommand",
   "linker_set_key" : "_ZN7android8hardware6camera6device4V1_016BnHwCameraDevice17_hidl_sendCommandEPNS_4hidl4base4V1_08BnHwBaseERKNS0_6ParcelEPSA_NSt3__18functionIFvRSA_EEE",
   "parameters" :
   [
    {
     "referenced_type" : "type-807"
    },
    {
     "referenced_type" : "type-806"
    },
    {
     "referenced_type" : "type-799"
    },
    {
     "referenced_type" : "type-1097"
    }
   ],
   "return_type" : "type-45",
   "source_file" : "/out/soong/.intermediates/hardware/interfaces/camera/device/1.0/android.hardware.camera.device@1.0_genc++_headers/gen/android/hardware/camera/device/1.0/BnHwCameraDevice.h"
  },
  {
   "function_name" : "android::hardware::camera::device::V1_0::BnHwCameraDevice::_hidl_stopPreview",
   "linker_set_key" : "_ZN7android8hardware6camera6device4V1_016BnHwCameraDevice17_hidl_stopPreviewEPNS_4hidl4base4V1_08BnHwBaseERKNS0_6ParcelEPSA_NSt3__18functionIFvRSA_EEE",
   "parameters" :
   [
    {
     "referenced_type" : "type-807"
    },
    {
     "referenced_type" : "type-806"
    },
    {
     "referenced_type" : "type-799"
    },
    {
     "referenced_type" : "type-1098"
    }
   ],
   "return_type" : "type-45",
   "source_file" : "/out/soong/.intermediates/hardware/interfaces/camera/device/1.0/android.hardware.camera.device@1.0_genc++_headers/gen/android/hardware/camera/device/1.0/BnHwCameraDevice.h"
  },
  {
   "function_name" : "android::hardware::camera::device::V1_0::BnHwCameraDevice::_hidl_takePicture",
   "linker_set_key" : "_ZN7android8hardware6camera6device4V1_016BnHwCameraDevice17_hidl_takePictureEPNS_4hidl4base4V1_08BnHwBaseERKNS0_6ParcelEPSA_NSt3__18functionIFvRSA_EEE",
   "parameters" :
   [
    {
     "referenced_type" : "type-807"
    },
    {
     "referenced_type" : "type-806"
    },
    {
     "referenced_type" : "type-799"
    },
    {
     "referenced_type" : "type-1099"
    }
   ],
   "return_type" : "type-45",
   "source_file" : "/out/soong/.intermediates/hardware/interfaces/camera/device/1.0/android.hardware.camera.device@1.0_genc++_headers/gen/android/hardware/camera/device/1.0/BnHwCameraDevice.h"
  },
  {
   "function_name" : "android::hardware::camera::device::V1_0::BnHwCameraDevice::_hidl_setTorchMode",
   "linker_set_key" : "_ZN7android8hardware6camera6device4V1_016BnHwCameraDevice18_hidl_setTorchModeEPNS_4hidl4base4V1_08BnHwBaseERKNS0_6ParcelEPSA_NSt3__18functionIFvRSA_EEE",
   "parameters" :
   [
    {
     "referenced_type" : "type-807"
    },
    {
     "referenced_type" : "type-806"
    },
    {
     "referenced_type" : "type-799"
    },
    {
     "referenced_type" : "type-1100"
    }
   ],
   "return_type" : "type-45",
   "source_file" : "/out/soong/.intermediates/hardware/interfaces/camera/device/1.0/android.hardware.camera.device@1.0_genc++_headers/gen/android/hardware/camera/device/1.0/BnHwCameraDevice.h"
  },
  {
   "function_name" : "android::hardware::camera::device::V1_0::BnHwCameraDevice::_hidl_startPreview",
   "linker_set_key" : "_ZN7android8hardware6camera6device4V1_016BnHwCameraDevice18_hidl_startPreviewEPNS_4hidl4base4V1_08BnHwBaseERKNS0_6ParcelEPSA_NSt3__18functionIFvRSA_EEE",
   "parameters" :
   [
    {
     "referenced_type" : "type-807"
    },
    {
     "referenced_type" : "type-806"
    },
    {
     "referenced_type" : "type-799"
    },
    {
     "referenced_type" : "type-1101"
    }
   ],
   "return_type" : "type-45",
   "source_file" : "/out/soong/.intermediates/hardware/interfaces/camera/device/1.0/android.hardware.camera.device@1.0_genc++_headers/gen/android/hardware/camera/device/1.0/BnHwCameraDevice.h"
  },
  {
   "function_name" : "android::hardware::camera::device::V1_0::BnHwCameraDevice::_hidl_cancelPicture",
   "linker_set_key" : "_ZN7android8hardware6camera6device4V1_016BnHwCameraDevice19_hidl_cancelPictureEPNS_4hidl4base4V1_08BnHwBaseERKNS0_6ParcelEPSA_NSt3__18functionIFvRSA_EEE",
   "parameters" :
   [
    {
     "referenced_type" : "type-807"
    },
    {
     "referenced_type" : "type-806"
    },
    {
     "referenced_type" : "type-799"
    },
    {
     "referenced_type" : "type-1102"
    }
   ],
   "return_type" : "type-45",
   "source_file" : "/out/soong/.intermediates/hardware/interfaces/camera/device/1.0/android.hardware.camera.device@1.0_genc++_headers/gen/android/hardware/camera/device/1.0/BnHwCameraDevice.h"
  },
  {
   "function_name" : "android::hardware::camera::device::V1_0::BnHwCameraDevice::_hidl_enableMsgType",
   "linker_set_key" : "_ZN7android8hardware6camera6device4V1_016BnHwCameraDevice19_hidl_enableMsgTypeEPNS_4hidl4base4V1_08BnHwBaseERKNS0_6ParcelEPSA_NSt3__18functionIFvRSA_EEE",
   "parameters" :
   [
    {
     "referenced_type" : "type-807"
    },
    {
     "referenced_type" : "type-806"
    },
    {
     "referenced_type" : "type-799"
    },
    {
     "referenced_type" : "type-1103"
    }
   ],
   "return_type" : "type-45",
   "source_file" : "/out/soong/.intermediates/hardware/interfaces/camera/device/1.0/android.hardware.camera.device@1.0_genc++_headers/gen/android/hardware/camera/device/1.0/BnHwCameraDevice.h"
  },
  {
   "function_name" : "android::hardware::camera::device::V1_0::BnHwCameraDevice::_hidl_getCameraInfo",
   "linker_set_key" : "_ZN7android8hardware6camera6device4V1_016BnHwCameraDevice19_hidl_getCameraInfoEPNS_4hidl4base4V1_08BnHwBaseERKNS0_6ParcelEPSA_NSt3__18functionIFvRSA_EEE",
   "parameters" :
   [
    {
     "referenced_type" : "type-807"
    },
    {
     "referenced_type" : "type-806"
    },
    {
     "referenced_type" : "type-799"
    },
    {
     "referenced_type" : "type-1104"
    }
   ],
   "return_type" : "type-45",
   "source_file" : "/out/soong/.intermediates/hardware/interfaces/camera/device/1.0/android.hardware.camera.device@1.0_genc++_headers/gen/android/hardware/camera/device/1.0/BnHwCameraDevice.h"
  },
  {
   "function_name" : "android::hardware::camera::device::V1_0::BnHwCameraDevice::_hidl_getParameters",
   "linker_set_key" : "_ZN7android8hardware6camera6device4V1_016BnHwCameraDevice19_hidl_getParametersEPNS_4hidl4base4V1_08BnHwBaseERKNS0_6ParcelEPSA_NSt3__18functionIFvRSA_EEE",
   "parameters" :
   [
    {
     "referenced_type" : "type-807"
    },
    {
     "referenced_type" : "type-806"
    },
    {
     "referenced_type" : "type-799"
    },
    {
     "referenced_type" : "type-1105"
    }
   ],
   "return_type" : "type-45",
   "source_file" : "/out/soong/.intermediates/hardware/interfaces/camera/device/1.0/android.hardware.camera.device@1.0_genc++_headers/gen/android/hardware/camera/device/1.0/BnHwCameraDevice.h"
  },
  {
   "function_name" : "android::hardware::camera::device::V1_0::BnHwCameraDevice::_hidl_setParameters",
   "linker_set_key" : "_ZN7android8hardware6camera6device4V1_016BnHwCameraDevice19_hidl_setParametersEPNS_4hidl4base4V1_08BnHwBaseERKNS0_6ParcelEPSA_NSt3__18functionIFvRSA_EEE",
   "parameters" :
   [
    {
     "referenced_type" : "type-807"
    },
    {
     "referenced_type" : "type-806"
    },
    {
     "referenced_type" : "type-799"
    },
    {
     "referenced_type" : "type-1106"
    }
   ],
   "return_type" : "type-45",
   "source_file" : "/out/soong/.intermediates/hardware/interfaces/camera/device/1.0/android.hardware.camera.device@1.0_genc++_headers/gen/android/hardware/camera/device/1.0/BnHwCameraDevice.h"
  },
  {
   "function_name" : "android::hardware::camera::device::V1_0::BnHwCameraDevice::_hidl_stopRecording",
   "linker_set_key" : "_ZN7android8hardware6camera6device4V1_016BnHwCameraDevice19_hidl_stopRecordingEPNS_4hidl4base4V1_08BnHwBaseERKNS0_6ParcelEPSA_NSt3__18functionIFvRSA_EEE",
   "parameters" :
   [
    {
     "referenced_type" : "type-807"
    },
    {
     "referenced_type" : "type-806"
    },
    {
     "referenced_type" : "type-799"
    },
    {
     "referenced_type" : "type-1107"
    }
   ],
   "return_type" : "type-45",
   "source_file" : "/out/soong/.intermediates/hardware/interfaces/camera/device/1.0/android.hardware.camera.device@1.0_genc++_headers/gen/android/hardware/camera/device/1.0/BnHwCameraDevice.h"
  },
  {
   "function_name" : "android::hardware::camera::device::V1_0::BnHwCameraDevice::_hidl_disableMsgType",
   "linker_set_key" : "_ZN7android8hardware6camera6device4V1_016BnHwCameraDevice20_hidl_disableMsgTypeEPNS_4hidl4base4V1_08BnHwBaseERKNS0_6ParcelEPSA_NSt3__18functionIFvRSA_EEE",
   "parameters" :
   [
    {
     "referenced_type" : "type-807"
    },
    {
     "referenced_type" : "type-806"
    },
    {
     "referenced_type" : "type-799"
    },
    {
     "referenced_type" : "type-1108"
    }
   ],
   "return_type" : "type-45",
   "source_file" : "/out/soong/.intermediates/hardware/interfaces/camera/device/1.0/android.hardware.camera.device@1.0_genc++_headers/gen/android/hardware/camera/device/1.0/BnHwCameraDevice.h"
  },
  {
   "function_name" : "android::hardware::camera::device::V1_0::BnHwCameraDevice::_hidl_msgTypeEnabled",
   "linker_set_key" : "_ZN7android8hardware6camera6device4V1_016BnHwCameraDevice20_hidl_msgTypeEnabledEPNS_4hidl4base4V1_08BnHwBaseERKNS0_6ParcelEPSA_NSt3__18functionIFvRSA_EEE",
   "parameters" :
   [
    {
     "referenced_type" : "type-807"
    },
    {
     "referenced_type" : "type-806"
    },
    {
     "referenced_type" : "type-799"
    },
    {
     "referenced_type" : "type-1109"
    }
   ],
   "return_type" : "type-45",
   "source_file" : "/out/soong/.intermediates/hardware/interfaces/camera/device/1.0/android.hardware.camera.device@1.0_genc++_headers/gen/android/hardware/camera/device/1.0/BnHwCameraDevice.h"
  },
  {
   "function_name" : "android::hardware::camera::device::V1_0::BnHwCameraDevice::_hidl_previewEnabled",
   "linker_set_key" : "_ZN7android8hardware6camera6device4V1_016BnHwCameraDevice20_hidl_previewEnabledEPNS_4hidl4base4V1_08BnHwBaseERKNS0_6ParcelEPSA_NSt3__18functionIFvRSA_EEE",
   "parameters" :
   [
    {
     "referenced_type" : "type-807"
    },
    {
     "referenced_type" : "type-806"
    },
    {
     "referenced_type" : "type-799"
    },
    {
     "referenced_type" : "type-1110"
    }
   ],
   "return_type" : "type-45",
   "source_file" : "/out/soong/.intermediates/hardware/interfaces/camera/device/1.0/android.hardware.camera.device@1.0_genc++_headers/gen/android/hardware/camera/device/1.0/BnHwCameraDevice.h"
  },
  {
   "function_name" : "android::hardware::camera::device::V1_0::BnHwCameraDevice::_hidl_startRecording",
   "linker_set_key" : "_ZN7android8hardware6camera6device4V1_016BnHwCameraDevice20_hidl_startRecordingEPNS_4hidl4base4V1_08BnHwBaseERKNS0_6ParcelEPSA_NSt3__18functionIFvRSA_EEE",
   "parameters" :
   [
    {
     "referenced_type" : "type-807"
    },
    {
     "referenced_type" : "type-806"
    },
    {
     "referenced_type" : "type-799"
    },
    {
     "referenced_type" : "type-1111"
    }
   ],
   "return_type" : "type-45",
   "source_file" : "/out/soong/.intermediates/hardware/interfaces/camera/device/1.0/android.hardware.camera.device@1.0_genc++_headers/gen/android/hardware/camera/device/1.0/BnHwCameraDevice.h"
  },
  {
   "function_name" : "android::hardware::camera::device::V1_0::BnHwCameraDevice::_hidl_cancelAutoFocus",
   "linker_set_key" : "_ZN7android8hardware6camera6device4V1_016BnHwCameraDevice21_hidl_cancelAutoFocusEPNS_4hidl4base4V1_08BnHwBaseERKNS0_6ParcelEPSA_NSt3__18functionIFvRSA_EEE",
   "parameters" :
   [
    {
     "referenced_type" : "type-807"
    },
    {
     "referenced_type" : "type-806"
    },
    {
     "referenced_type" : "type-799"
    },
    {
     "referenced_type" : "type-1112"
    }
   ],
   "return_type" : "type-45",
   "source_file" : "/out/soong/.intermediates/hardware/interfaces/camera/device/1.0/android.hardware.camera.device@1.0_genc++_headers/gen/android/hardware/camera/device/1.0/BnHwCameraDevice.h"
  },
  {
   "function_name" : "android::hardware::camera::device::V1_0::BnHwCameraDevice::_hidl_getResourceCost",
   "linker_set_key" : "_ZN7android8hardware6camera6device4V1_016BnHwCameraDevice21_hidl_getResourceCostEPNS_4hidl4base4V1_08BnHwBaseERKNS0_6ParcelEPSA_NSt3__18functionIFvRSA_EEE",
   "parameters" :
   [
    {
     "referenced_type" : "type-807"
    },
    {
     "referenced_type" : "type-806"
    },
    {
     "referenced_type" : "type-799"
    },
    {
     "referenced_type" : "type-1113"
    }
   ],
   "return_type" : "type-45",
   "source_file" : "/out/soong/.intermediates/hardware/interfaces/camera/device/1.0/android.hardware.camera.device@1.0_genc++_headers/gen/android/hardware/camera/device/1.0/BnHwCameraDevice.h"
  },
  {
   "function_name" : "android::hardware::camera::device::V1_0::BnHwCameraDevice::_hidl_recordingEnabled",
   "linker_set_key" : "_ZN7android8hardware6camera6device4V1_016BnHwCameraDevice22_hidl_recordingEnabledEPNS_4hidl4base4V1_08BnHwBaseERKNS0_6ParcelEPSA_NSt3__18functionIFvRSA_EEE",
   "parameters" :
   [
    {
     "referenced_type" : "type-807"
    },
    {
     "referenced_type" : "type-806"
    },
    {
     "referenced_type" : "type-799"
    },
    {
     "referenced_type" : "type-1114"
    }
   ],
   "return_type" : "type-45",
   "source_file" : "/out/soong/.intermediates/hardware/interfaces/camera/device/1.0/android.hardware.camera.device@1.0_genc++_headers/gen/android/hardware/camera/device/1.0/BnHwCameraDevice.h"
  },
  {
   "function_name" : "android::hardware::camera::device::V1_0::BnHwCameraDevice::_hidl_setPreviewWindow",
   "linker_set_key" : "_ZN7android8hardware6camera6device4V1_016BnHwCameraDevice22_hidl_setPreviewWindowEPNS_4hidl4base4V1_08BnHwBaseERKNS0_6ParcelEPSA_NSt3__18functionIFvRSA_EEE",
   "parameters" :
   [
    {
     "referenced_type" : "type-807"
    },
    {
     "referenced_type" : "type-806"
    },
    {
     "referenced_type" : "type-799"
    },
    {
     "referenced_type" : "type-1115"
    }
   ],
   "return_type" : "type-45",
   "source_file" : "/out/soong/.intermediates/hardware/interfaces/camera/device/1.0/android.hardware.camera.device@1.0_genc++_headers/gen/android/hardware/camera/device/1.0/BnHwCameraDevice.h"
  },
  {
   "function_name" : "android::hardware::camera::device::V1_0::BnHwCameraDevice::_hidl_releaseRecordingFrame",
   "linker_set_key" : "_ZN7android8hardware6camera6device4V1_016BnHwCameraDevice27_hidl_releaseRecordingFrameEPNS_4hidl4base4V1_08BnHwBaseERKNS0_6ParcelEPSA_NSt3__18functionIFvRSA_EEE",
   "parameters" :
   [
    {
     "referenced_type" : "type-807"
    },
    {
     "referenced_type" : "type-806"
    },
    {
     "referenced_type" : "type-799"
    },
    {
     "referenced_type" : "type-1116"
    }
   ],
   "return_type" : "type-45",
   "source_file" : "/out/soong/.intermediates/hardware/interfaces/camera/device/1.0/android.hardware.camera.device@1.0_genc++_headers/gen/android/hardware/camera/device/1.0/BnHwCameraDevice.h"
  },
  {
   "function_name" : "android::hardware::camera::device::V1_0::BnHwCameraDevice::_hidl_storeMetaDataInBuffers",
   "linker_set_key" : "_ZN7android8hardware6camera6device4V1_016BnHwCameraDevice28_hidl_storeMetaDataInBuffersEPNS_4hidl4base4V1_08BnHwBaseERKNS0_6ParcelEPSA_NSt3__18functionIFvRSA_EEE",
   "parameters" :
   [
    {
     "referenced_type" : "type-807"
    },
    {
     "referenced_type" : "type-806"
    },
    {
     "referenced_type" : "type-799"
    },
    {
     "referenced_type" : "type-1117"
    }
   ],
   "return_type" : "type-45",
   "source_file" : "/out/soong/.intermediates/hardware/interfaces/camera/device/1.0/android.hardware.camera.device@1.0_genc++_headers/gen/android/hardware/camera/device/1.0/BnHwCameraDevice.h"
  },
  {
   "function_name" : "android::hardware::camera::device::V1_0::BnHwCameraDevice::_hidl_releaseRecordingFrameHandle",
   "linker_set_key" : "_ZN7android8hardware6camera6device4V1_016BnHwCameraDevice33_hidl_releaseRecordingFrameHandleEPNS_4hidl4base4V1_08BnHwBaseERKNS0_6ParcelEPSA_NSt3__18functionIFvRSA_EEE",
   "parameters" :
   [
    {
     "referenced_type" : "type-807"
    },
    {
     "referenced_type" : "type-806"
    },
    {
     "referenced_type" : "type-799"
    },
    {
     "referenced_type" : "type-1118"
    }
   ],
   "return_type" : "type-45",
   "source_file" : "/out/soong/.intermediates/hardware/interfaces/camera/device/1.0/android.hardware.camera.device@1.0_genc++_headers/gen/android/hardware/camera/device/1.0/BnHwCameraDevice.h"
  },
  {
   "function_name" : "android::hardware::camera::device::V1_0::BnHwCameraDevice::_hidl_releaseRecordingFrameHandleBatch",
   "linker_set_key" : "_ZN7android8hardware6camera6device4V1_016BnHwCameraDevice38_hidl_releaseRecordingFrameHandleBatchEPNS_4hidl4base4V1_08BnHwBaseERKNS0_6ParcelEPSA_NSt3__18functionIFvRSA_EEE",
   "parameters" :
   [
    {
     "referenced_type" : "type-807"
    },
    {
     "referenced_type" : "type-806"
    },
    {
     "referenced_type" : "type-799"
    },
    {
     "referenced_type" : "type-1119"
    }
   ],
   "return_type" : "type-45",
   "source_file" : "/out/soong/.intermediates/hardware/interfaces/camera/device/1.0/android.hardware.camera.device@1.0_genc++_headers/gen/android/hardware/camera/device/1.0/BnHwCameraDevice.h"
  },
  {
   "access" : "private",
   "function_name" : "android::hardware::camera::device::V1_0::BnHwCameraDevice::ping",
   "linker_set_key" : "_ZN7android8hardware6camera6device4V1_016BnHwCameraDevice4pingEv",
   "parameters" :
   [
    {
     "is_this_ptr" : true,
     "referenced_type" : "type-1036"
    }
   ],
   "return_type" : "type-464",
   "source_file" : "/out/soong/.intermediates/hardware/interfaces/camera/device/1.0/android.hardware.camera.device@1.0_genc++_headers/gen/android/hardware/camera/device/1.0/BnHwCameraDevice.h"
  },
  {
   "function_name" : "android::hardware::camera::device::V1_0::BnHwCameraDevice::BnHwCameraDevice",
   "linker_set_key" : "_ZN7android8hardware6camera6device4V1_016BnHwCameraDeviceC1ERKNS_2spINS3_13ICameraDeviceEEE",
   "parameters" :
   [
    {
     "is_this_ptr" : true,
     "referenced_type" : "type-1036"
    },
    {
     "referenced_type" : "type-628"
    }
   ],
   "return_type" : "type-124",
   "source_file" : "/out/soong/.intermediates/hardware/interfaces/camera/device/1.0/android.hardware.camera.device@1.0_genc++_headers/gen/android/hardware/camera/device/1.0/BnHwCameraDevice.h"
  },
  {
   "function_name" : "android::hardware::camera::device::V1_0::BnHwCameraDevice::BnHwCameraDevice",
   "linker_set_key" : "_ZN7android8hardware6camera6device4V1_016BnHwCameraDeviceC2ERKNS_2spINS3_13ICameraDeviceEEE",
   "parameters" :
   [
    {
     "is_this_ptr" : true,
     "referenced_type" : "type-1036"
    },
    {
     "referenced_type" : "type-628"
    }
   ],
   "return_type" : "type-124",
   "source_file" : "/out/soong/.intermediates/hardware/interfaces/camera/device/1.0/android.hardware.camera.device@1.0_genc++_headers/gen/android/hardware/camera/device/1.0/BnHwCameraDevice.h"
  },
  {
   "function_name" : "android::hardware::camera::device::V1_0::BnHwCameraDevice::~BnHwCameraDevice",
   "linker_set_key" : "_ZN7android8hardware6camera6device4V1_016BnHwCameraDeviceD0Ev",
   "parameters" :
   [
    {
     "is_this_ptr" : true,
     "referenced_type" : "type-1036"
    }
   ],
   "return_type" : "type-124",
   "source_file" : "/out/soong/.intermediates/hardware/interfaces/camera/device/1.0/android.hardware.camera.device@1.0_genc++_headers/gen/android/hardware/camera/device/1.0/BnHwCameraDevice.h"
  },
  {
   "function_name" : "android::hardware::camera::device::V1_0::BnHwCameraDevice::~BnHwCameraDevice",
   "linker_set_key" : "_ZN7android8hardware6camera6device4V1_016BnHwCameraDeviceD1Ev",
   "parameters" :
   [
    {
     "is_this_ptr" : true,
     "referenced_type" : "type-1036"
    }
   ],
   "return_type" : "type-124",
   "source_file" : "/out/soong/.intermediates/hardware/interfaces/camera/device/1.0/android.hardware.camera.device@1.0_genc++_headers/gen/android/hardware/camera/device/1.0/BnHwCameraDevice.h"
  },
  {
   "function_name" : "android::hardware::camera::device::V1_0::BnHwCameraDevice::~BnHwCameraDevice",
   "linker_set_key" : "_ZN7android8hardware6camera6device4V1_016BnHwCameraDeviceD2Ev",
   "parameters" :
   [
    {
     "is_this_ptr" : true,
     "referenced_type" : "type-1036"
    }
   ],
   "return_type" : "type-124",
   "source_file" : "/out/soong/.intermediates/hardware/interfaces/camera/device/1.0/android.hardware.camera.device@1.0_genc++_headers/gen/android/hardware/camera/device/1.0/BnHwCameraDevice.h"
  },
  {
   "function_name" : "android::hardware::camera::device::V1_0::BpHwCameraDevice::_hidl_open",
   "linker_set_key" : "_ZN7android8hardware6camera6device4V1_016BpHwCameraDevice10_hidl_openEPNS0_10IInterfaceEPNS0_7details16HidlInstrumentorERKNS_2spINS3_21ICameraDeviceCallbackEEE",
   "parameters" :
   [
    {
     "referenced_type" : "type-107"
    },
    {
     "referenced_type" : "type-268"
    },
    {
     "referenced_type" : "type-10"
    }
   ],
   "return_type" : "type-408",
   "source_file" : "/out/soong/.intermediates/hardware/interfaces/camera/device/1.0/android.hardware.camera.device@1.0_genc++_headers/gen/android/hardware/camera/device/1.0/BpHwCameraDevice.h"
  },
  {
   "function_name" : "android::hardware::camera::device::V1_0::BpHwCameraDevice::_hidl_close",
   "linker_set_key" : "_ZN7android8hardware6camera6device4V1_016BpHwCameraDevice11_hidl_closeEPNS0_10IInterfaceEPNS0_7details16HidlInstrumentorE",
   "parameters" :
   [
    {
     "referenced_type" : "type-107"
    },
    {
     "referenced_type" : "type-268"
    }
   ],
   "return_type" : "type-464",
   "source_file" : "/out/soong/.intermediates/hardware/interfaces/camera/device/1.0/android.hardware.camera.device@1.0_genc++_headers/gen/android/hardware/camera/device/1.0/BpHwCameraDevice.h"
  },
  {
   "function_name" : "android::hardware::camera::device::V1_0::BpHwCameraDevice::linkToDeath",
   "linker_set_key" : "_ZN7android8hardware6camera6device4V1_016BpHwCameraDevice11linkToDeathERKNS_2spINS0_20hidl_death_recipientEEEy",
   "parameters" :
   [
    {
     "is_this_ptr" : true,
     "referenced_type" : "type-1067"
    },
    {
     "referenced_type" : "type-913"
    },
    {
     "referenced_type" : "type-47"
    }
   ],
   "return_type" : "type-402",
   "source_file" : "/out/soong/.intermediates/hardware/interfaces/camera/device/1.0/android.hardware.camera.device@1.0_genc++_headers/gen/android/hardware/camera/device/1.0/BpHwCameraDevice.h"
  },
  {
   "function_name" : "android::hardware::camera::device::V1_0::BpHwCameraDevice::sendCommand",
   "linker_set_key" : "_ZN7android8hardware6camera6device4V1_016BpHwCameraDevice11sendCommandENS3_11CommandTypeEii",
   "parameters" :
   [
    {
     "is_this_ptr" : true,
     "referenced_type" : "type-1067"
    },
    {
     "referenced_type" : "type-953"
    },
    {
     "referenced_type" : "type-45"
    },
    {
     "referenced_type" : "type-45"
    }
   ],
   "return_type" : "type-408",
   "source_file" : "/out/soong/.intermediates/hardware/interfaces/camera/device/1.0/android.hardware.camera.device@1.0_genc++_headers/gen/android/hardware/camera/device/1.0/BpHwCameraDevice.h"
  },
  {
   "function_name" : "android::hardware::camera::device::V1_0::BpHwCameraDevice::stopPreview",
   "linker_set_key" : "_ZN7android8hardware6camera6device4V1_016BpHwCameraDevice11stopPreviewEv",
   "parameters" :
   [
    {
     "is_this_ptr" : true,
     "referenced_type" : "type-1067"
    }
   ],
   "return_type" : "type-464",
   "source_file" : "/out/soong/.intermediates/hardware/interfaces/camera/device/1.0/android.hardware.camera.device@1.0_genc++_headers/gen/android/hardware/camera/device/1.0/BpHwCameraDevice.h"
  },
  {
   "function_name" : "android::hardware::camera::device::V1_0::BpHwCameraDevice::takePicture",
   "linker_set_key" : "_ZN7android8hardware6camera6device4V1_016BpHwCameraDevice11takePictureEv",
   "parameters" :
   [
    {
     "is_this_ptr" : true,
     "referenced_type" : "type-1067"
    }
   ],
   "return_type" : "type-408",
   "source_file" : "/out/soong/.intermediates/hardware/interfaces/camera/device/1.0/android.hardware.camera.device@1.0_genc++_headers/gen/android/hardware/camera/device/1.0/BpHwCameraDevice.h"
  },
  {
   "function_name" : "android::hardware::camera::device::V1_0::BpHwCameraDevice::getDebugInfo",
   "linker_set_key" : "_ZN7android8hardware6camera6device4V1_016BpHwCameraDevice12getDebugInfoENSt3__18functionIFvRKNS_4hidl4base4V1_09DebugInfoEEEE",
   "parameters" :
   [
    {
     "is_this_ptr" : true,
     "referenced_type" : "type-1067"
    },
    {
     "referenced_type" : "type-1120"
    }
   ],
   "return_type" : "type-464",
   "source_file" : "/out/soong/.intermediates/hardware/interfaces/camera/device/1.0/android.hardware.camera.device@1.0_genc++_headers/gen/android/hardware/camera/device/1.0/BpHwCameraDevice.h"
  },
  {
   "function_name" : "android::hardware::camera::device::V1_0::BpHwCameraDevice::getHashChain",
   "linker_set_key" : "_ZN7android8hardware6camera6device4V1_016BpHwCameraDevice12getHashChainENSt3__18functionIFvRKNS0_8hidl_vecINS0_10hidl_arrayIhLj32EJEEEEEEEE",
   "parameters" :
   [
    {
     "is_this_ptr" : true,
     "referenced_type" : "type-1067"
    },
    {
     "referenced_type" : "type-1121"
    }
   ],
   "return_type" : "type-464",
   "source_file" : "/out/soong/.intermediates/hardware/interfaces/camera/device/1.0/android.hardware.camera.device@1.0_genc++_headers/gen/android/hardware/camera/device/1.0/BpHwCameraDevice.h"
  },
  {
   "function_name" : "android::hardware::camera::device::V1_0::BpHwCameraDevice::setTorchMode",
   "linker_set_key" : "_ZN7android8hardware6camera6device4V1_016BpHwCameraDevice12setTorchModeENS1_6common4V1_09TorchModeE",
   "parameters" :
   [
    {
     "is_this_ptr" : true,
     "referenced_type" : "type-1067"
    },
    {
     "referenced_type" : "type-925"
    }
   ],
   "return_type" : "type-408",
   "source_file" : "/out/soong/.intermediates/hardware/interfaces/camera/device/1.0/android.hardware.camera.device@1.0_genc++_headers/gen/android/hardware/camera/device/1.0/BpHwCameraDevice.h"
  },
  {
   "function_name" : "android::hardware::camera::device::V1_0::BpHwCameraDevice::startPreview",
   "linker_set_key" : "_ZN7android8hardware6camera6device4V1_016BpHwCameraDevice12startPreviewEv",
   "parameters" :
   [
    {
     "is_this_ptr" : true,
     "referenced_type" : "type-1067"
    }
   ],
   "return_type" : "type-408",
   "source_file" : "/out/soong/.intermediates/hardware/interfaces/camera/device/1.0/android.hardware.camera.device@1.0_genc++_headers/gen/android/hardware/camera/device/1.0/BpHwCameraDevice.h"
  },
  {
   "function_name" : "android::hardware::camera::device::V1_0::BpHwCameraDevice::cancelPicture",
   "linker_set_key" : "_ZN7android8hardware6camera6device4V1_016BpHwCameraDevice13cancelPictureEv",
   "parameters" :
   [
    {
     "is_this_ptr" : true,
     "referenced_type" : "type-1067"
    }
   ],
   "return_type" : "type-408",
   "source_file" : "/out/soong/.intermediates/hardware/interfaces/camera/device/1.0/android.hardware.camera.device@1.0_genc++_headers/gen/android/hardware/camera/device/1.0/BpHwCameraDevice.h"
  },
  {
   "function_name" : "android::hardware::camera::device::V1_0::BpHwCameraDevice::enableMsgType",
   "linker_set_key" : "_ZN7android8hardware6camera6device4V1_016BpHwCameraDevice13enableMsgTypeEj",
   "parameters" :
   [
    {
     "is_this_ptr" : true,
     "referenced_type" : "type-1067"
    },
    {
     "referenced_type" : "type-2"
    }
   ],
   "return_type" : "type-464",
   "source_file" : "/out/soong/.intermediates/hardware/interfaces/camera/device/1.0/android.hardware.camera.device@1.0_genc++_headers/gen/android/hardware/camera/device/1.0/BpHwCameraDevice.h"
  },
  {
   "function_name" : "android::hardware::camera::device::V1_0::BpHwCameraDevice::getCameraInfo",
   "linker_set_key" : "_ZN7android8hardware6camera6device4V1_016BpHwCameraDevice13getCameraInfoENSt3__18functionIFvNS1_6common4V1_06StatusERKNS3_10CameraInfoEEEE",
   "parameters" :
   [
    {
     "is_this_ptr" : true,
     "referenced_type" : "type-1067"
    },
    {
     "referenced_type" : "type-1122"
    }
   ],
   "return_type" : "type-464",
   "source_file" : "/out/soong/.intermediates/hardware/interfaces/camera/device/1.0/android.hardware.camera.device@1.0_genc++_headers/gen/android/hardware/camera/device/1.0/BpHwCameraDevice.h"
  },
  {
   "function_name" : "android::hardware::camera::device::V1_0::BpHwCameraDevice::getParameters",
   "linker_set_key" : "_ZN7android8hardware6camera6device4V1_016BpHwCameraDevice13getParametersENSt3__18functionIFvRKNS0_11hidl_stringEEEE",
   "parameters" :
   [
    {
     "is_this_ptr" : true,
     "referenced_type" : "type-1067"
    },
    {
     "referenced_type" : "type-1123"
    }
   ],
   "return_type" : "type-464",
   "source_file" : "/out/soong/.intermediates/hardware/interfaces/camera/device/1.0/android.hardware.camera.device@1.0_genc++_headers/gen/android/hardware/camera/device/1.0/BpHwCameraDevice.h"
  },
  {
   "function_name" : "android::hardware::camera::device::V1_0::BpHwCameraDevice::setParameters",
   "linker_set_key" : "_ZN7android8hardware6camera6device4V1_016BpHwCameraDevice13setParametersERKNS0_11hidl_stringE",
   "parameters" :
   [
    {
     "is_this_ptr" : true,
     "referenced_type" : "type-1067"
    },
    {
     "referenced_type" : "type-1020"
    }
   ],
   "return_type" : "type-408",
   "source_file" : "/out/soong/.intermediates/hardware/interfaces/camera/device/1.0/android.hardware.camera.device@1.0_genc++_headers/gen/android/hardware/camera/device/1.0/BpHwCameraDevice.h"
  },
  {
   "function_name" : "android::hardware::camera::device::V1_0::BpHwCameraDevice::stopRecording",
   "linker_set_key" : "_ZN7android8hardware6camera6device4V1_016BpHwCameraDevice13stopRecordingEv",
   "parameters" :
   [
    {
     "is_this_ptr" : true,
     "referenced_type" : "type-1067"
    }
   ],
   "return_type" : "type-464",
   "source_file" : "/out/soong/.intermediates/hardware/interfaces/camera/device/1.0/android.hardware.camera.device@1.0_genc++_headers/gen/android/hardware/camera/device/1.0/BpHwCameraDevice.h"
  },
  {
   "function_name" : "android::hardware::camera::device::V1_0::BpHwCameraDevice::unlinkToDeath",
   "linker_set_key" : "_ZN7android8hardware6camera6device4V1_016BpHwCameraDevice13unlinkToDeathERKNS_2spINS0_20hidl_death_recipientEEE",
   "parameters" :
   [
    {
     "is_this_ptr" : true,
     "referenced_type" : "type-1067"
    },
    {
     "referenced_type" : "type-913"
    }
   ],
   "return_type" : "type-402",
   "source_file" : "/out/soong/.intermediates/hardware/interfaces/camera/device/1.0/android.hardware.camera.device@1.0_genc++_headers/gen/android/hardware/camera/device/1.0/BpHwCameraDevice.h"
  },
  {
   "function_name" : "android::hardware::camera::device::V1_0::BpHwCameraDevice::disableMsgType",
   "linker_set_key" : "_ZN7android8hardware6camera6device4V1_016BpHwCameraDevice14disableMsgTypeEj",
   "parameters" :
   [
    {
     "is_this_ptr" : true,
     "referenced_type" : "type-1067"
    },
    {
     "referenced_type" : "type-2"
    }
   ],
   "return_type" : "type-464",
   "source_file" : "/out/soong/.intermediates/hardware/interfaces/camera/device/1.0/android.hardware.camera.device@1.0_genc++_headers/gen/android/hardware/camera/device/1.0/BpHwCameraDevice.h"
  },
  {
   "function_name" : "android::hardware::camera::device::V1_0::BpHwCameraDevice::interfaceChain",
   "linker_set_key" : "_ZN7android8hardware6camera6device4V1_016BpHwCameraDevice14interfaceChainENSt3__18functionIFvRKNS0_8hidl_vecINS0_11hidl_stringEEEEEE",
   "parameters" :
   [
    {
     "is_this_ptr" : true,
     "referenced_type" : "type-1067"
    },
    {
     "referenced_type" : "type-1124"
    }
   ],
   "return_type" : "type-464",
   "source_file" : "/out/soong/.intermediates/hardware/interfaces/camera/device/1.0/android.hardware.camera.device@1.0_genc++_headers/gen/android/hardware/camera/device/1.0/BpHwCameraDevice.h"
  },
  {
   "function_name" : "android::hardware::camera::device::V1_0::BpHwCameraDevice::msgTypeEnabled",
   "linker_set_key" : "_ZN7android8hardware6camera6device4V1_016BpHwCameraDevice14msgTypeEnabledEj",
   "parameters" :
   [
    {
     "is_this_ptr" : true,
     "referenced_type" : "type-1067"
    },
    {
     "referenced_type" : "type-2"
    }
   ],
   "return_type" : "type-402",
   "source_file" : "/out/soong/.intermediates/hardware/interfaces/camera/device/1.0/android.hardware.camera.device@1.0_genc++_headers/gen/android/hardware/camera/device/1.0/BpHwCameraDevice.h"
  },
  {
   "function_name" : "android::hardware::camera::device::V1_0::BpHwCameraDevice::previewEnabled",
   "linker_set_key" : "_ZN7android8hardware6camera6device4V1_016BpHwCameraDevice14previewEnabledEv",
   "parameters" :
   [
    {
     "is_this_ptr" : true,
     "referenced_type" : "type-1067"
    }
   ],
   "return_type" : "type-402",
   "source_file" : "/out/soong/.intermediates/hardware/interfaces/camera/device/1.0/android.hardware.camera.device@1.0_genc++_headers/gen/android/hardware/camera/device/1.0/BpHwCameraDevice.h"
  },
  {
   "function_name" : "android::hardware::camera::device::V1_0::BpHwCameraDevice::startRecording",
   "linker_set_key" : "_ZN7android8hardware6camera6device4V1_016BpHwCameraDevice14startRecordingEv",
   "parameters" :
   [
    {
     "is_this_ptr" : true,
     "referenced_type" : "type-1067"
    }
   ],
   "return_type" : "type-408",
   "source_file" : "/out/soong/.intermediates/hardware/interfaces/camera/device/1.0/android.hardware.camera.device@1.0_genc++_headers/gen/android/hardware/camera/device/1.0/BpHwCameraDevice.h"
  },
  {
   "function_name" : "android::hardware::camera::device::V1_0::BpHwCameraDevice::_hidl_autoFocus",
   "linker_set_key" : "_ZN7android8hardware6camera6device4V1_016BpHwCameraDevice15_hidl_autoFocusEPNS0_10IInterfaceEPNS0_7details16HidlInstrumentorE",
   "parameters" :
   [
    {
     "referenced_type" : "type-107"
    },
    {
     "referenced_type" : "type-268"
    }
   ],
   "return_type" : "type-408",
   "source_file" : "/out/soong/.intermediates/hardware/interfaces/camera/device/1.0/android.hardware.camera.device@1.0_genc++_headers/gen/android/hardware/camera/device/1.0/BpHwCameraDevice.h"
  },
  {
   "function_name" : "android::hardware::camera::device::V1_0::BpHwCameraDevice::_hidl_dumpState",
   "linker_set_key" : "_ZN7android8hardware6camera6device4V1_016BpHwCameraDevice15_hidl_dumpStateEPNS0_10IInterfaceEPNS0_7details16HidlInstrumentorERKNS0_11hidl_handleE",
   "parameters" :
   [
    {
     "referenced_type" : "type-107"
    },
    {
     "referenced_type" : "type-268"
    },
    {
     "referenced_type" : "type-763"
    }
   ],
   "return_type" : "type-408",
   "source_file" : "/out/soong/.intermediates/hardware/interfaces/camera/device/1.0/android.hardware.camera.device@1.0_genc++_headers/gen/android/hardware/camera/device/1.0/BpHwCameraDevice.h"
  },
  {
   "function_name" : "android::hardware::camera::device::V1_0::BpHwCameraDevice::cancelAutoFocus",
   "linker_set_key" : "_ZN7android8hardware6camera6device4V1_016BpHwCameraDevice15cancelAutoFocusEv",
   "parameters" :
   [
    {
     "is_this_ptr" : true,
     "referenced_type" : "type-1067"
    }
   ],
   "return_type" : "type-408",
   "source_file" : "/out/soong/.intermediates/hardware/interfaces/camera/device/1.0/android.hardware.camera.device@1.0_genc++_headers/gen/android/hardware/camera/device/1.0/BpHwCameraDevice.h"
  },
  {
   "function_name" : "android::hardware::camera::device::V1_0::BpHwCameraDevice::getResourceCost",
   "linker_set_key" : "_ZN7android8hardware6camera6device4V1_016BpHwCameraDevice15getResourceCostENSt3__18functionIFvNS1_6common4V1_06StatusERKNS8_18CameraResourceCostEEEE",
   "parameters" :
   [
    {
     "is_this_ptr" : true,
     "referenced_type" : "type-1067"
    },
    {
     "referenced_type" : "type-1125"
    }
   ],
   "return_type" : "type-464",
   "source_file" : "/out/soong/.intermediates/hardware/interfaces/camera/device/1.0/android.hardware.camera.device@1.0_genc++_headers/gen/android/hardware/camera/device/1.0/BpHwCameraDevice.h"
  },
  {
   "function_name" : "android::hardware::camera::device::V1_0::BpHwCameraDevice::recordingEnabled",
   "linker_set_key" : "_ZN7android8hardware6camera6device4V1_016BpHwCameraDevice16recordingEnabledEv",
   "parameters" :
   [
    {
     "is_this_ptr" : true,
     "referenced_type" : "type-1067"
    }
   ],
   "return_type" : "type-402",
   "source_file" : "/out/soong/.intermediates/hardware/interfaces/camera/device/1.0/android.hardware.camera.device@1.0_genc++_headers/gen/android/hardware/camera/device/1.0/BpHwCameraDevice.h"
  },
  {
   "function_name" : "android::hardware::camera::device::V1_0::BpHwCameraDevice::setPreviewWindow",
   "linker_set_key" : "_ZN7android8hardware6camera6device4V1_016BpHwCameraDevice16setPreviewWindowERKNS_2spINS3_28ICameraDevicePreviewCallbackEEE",
   "parameters" :
   [
    {
     "is_this_ptr" : true,
     "referenced_type" : "type-1067"
    },
    {
     "referenced_type" : "type-52"
    }
   ],
   "return_type" : "type-408",
   "source_file" : "/out/soong/.intermediates/hardware/interfaces/camera/device/1.0/android.hardware.camera.device@1.0_genc++_headers/gen/android/hardware/camera/device/1.0/BpHwCameraDevice.h"
  },
  {
   "function_name" : "android::hardware::camera::device::V1_0::BpHwCameraDevice::_hidl_sendCommand",
   "linker_set_key" : "_ZN7android8hardware6camera6device4V1_016BpHwCameraDevice17_hidl_sendCommandEPNS0_10IInterfaceEPNS0_7details16HidlInstrumentorENS3_11CommandTypeEii",
   "parameters" :
   [
    {
     "referenced_type" : "type-107"
    },
    {
     "referenced_type" : "type-268"
    },
    {
     "referenced_type" : "type-953"
    },
    {
     "referenced_type" : "type-45"
    },
    {
     "referenced_type" : "type-45"
    }
   ],
   "return_type" : "type-408",
   "source_file" : "/out/soong/.intermediates/hardware/interfaces/camera/device/1.0/android.hardware.camera.device@1.0_genc++_headers/gen/android/hardware/camera/device/1.0/BpHwCameraDevice.h"
  },
  {
   "function_name" : "android::hardware::camera::device::V1_0::BpHwCameraDevice::_hidl_stopPreview",
   "linker_set_key" : "_ZN7android8hardware6camera6device4V1_016BpHwCameraDevice17_hidl_stopPreviewEPNS0_10IInterfaceEPNS0_7details16HidlInstrumentorE",
   "parameters" :
   [
    {
     "referenced_type" : "type-107"
    },
    {
     "referenced_type" : "type-268"
    }
   ],
   "return_type" : "type-464",
   "source_file" : "/out/soong/.intermediates/hardware/interfaces/camera/device/1.0/android.hardware.camera.device@1.0_genc++_headers/gen/android/hardware/camera/device/1.0/BpHwCameraDevice.h"
  },
  {
   "function_name" : "android::hardware::camera::device::V1_0::BpHwCameraDevice::_hidl_takePicture",
   "linker_set_key" : "_ZN7android8hardware6camera6device4V1_016BpHwCameraDevice17_hidl_takePictureEPNS0_10IInterfaceEPNS0_7details16HidlInstrumentorE",
   "parameters" :
   [
    {
     "referenced_type" : "type-107"
    },
    {
     "referenced_type" : "type-268"
    }
   ],
   "return_type" : "type-408",
   "source_file" : "/out/soong/.intermediates/hardware/interfaces/camera/device/1.0/android.hardware.camera.device@1.0_genc++_headers/gen/android/hardware/camera/device/1.0/BpHwCameraDevice.h"
  },
  {
   "function_name" : "android::hardware::camera::device::V1_0::BpHwCameraDevice::_hidl_setTorchMode",
   "linker_set_key" : "_ZN7android8hardware6camera6device4V1_016BpHwCameraDevice18_hidl_setTorchModeEPNS0_10IInterfaceEPNS0_7details16HidlInstrumentorENS1_6common4V1_09TorchModeE",
   "parameters" :
   [
    {
     "referenced_type" : "type-107"
    },
    {
     "referenced_type" : "type-268"
    },
    {
     "referenced_type" : "type-925"
    }
   ],
   "return_type" : "type-408",
   "source_file" : "/out/soong/.intermediates/hardware/interfaces/camera/device/1.0/android.hardware.camera.device@1.0_genc++_headers/gen/android/hardware/camera/device/1.0/BpHwCameraDevice.h"
  },
  {
   "function_name" : "android::hardware::camera::device::V1_0::BpHwCameraDevice::_hidl_startPreview",
   "linker_set_key" : "_ZN7android8hardware6camera6device4V1_016BpHwCameraDevice18_hidl_startPreviewEPNS0_10IInterfaceEPNS0_7details16HidlInstrumentorE",
   "parameters" :
   [
    {
     "referenced_type" : "type-107"
    },
    {
     "referenced_type" : "type-268"
    }
   ],
   "return_type" : "type-408",
   "source_file" : "/out/soong/.intermediates/hardware/interfaces/camera/device/1.0/android.hardware.camera.device@1.0_genc++_headers/gen/android/hardware/camera/device/1.0/BpHwCameraDevice.h"
  },
  {
   "function_name" : "android::hardware::camera::device::V1_0::BpHwCameraDevice::_hidl_cancelPicture",
   "linker_set_key" : "_ZN7android8hardware6camera6device4V1_016BpHwCameraDevice19_hidl_cancelPictureEPNS0_10IInterfaceEPNS0_7details16HidlInstrumentorE",
   "parameters" :
   [
    {
     "referenced_type" : "type-107"
    },
    {
     "referenced_type" : "type-268"
    }
   ],
   "return_type" : "type-408",
   "source_file" : "/out/soong/.intermediates/hardware/interfaces/camera/device/1.0/android.hardware.camera.device@1.0_genc++_headers/gen/android/hardware/camera/device/1.0/BpHwCameraDevice.h"
  },
  {
   "function_name" : "android::hardware::camera::device::V1_0::BpHwCameraDevice::_hidl_enableMsgType",
   "linker_set_key" : "_ZN7android8hardware6camera6device4V1_016BpHwCameraDevice19_hidl_enableMsgTypeEPNS0_10IInterfaceEPNS0_7details16HidlInstrumentorEj",
   "parameters" :
   [
    {
     "referenced_type" : "type-107"
    },
    {
     "referenced_type" : "type-268"
    },
    {
     "referenced_type" : "type-2"
    }
   ],
   "return_type" : "type-464",
   "source_file" : "/out/soong/.intermediates/hardware/interfaces/camera/device/1.0/android.hardware.camera.device@1.0_genc++_headers/gen/android/hardware/camera/device/1.0/BpHwCameraDevice.h"
  },
  {
   "function_name" : "android::hardware::camera::device::V1_0::BpHwCameraDevice::_hidl_getCameraInfo",
   "linker_set_key" : "_ZN7android8hardware6camera6device4V1_016BpHwCameraDevice19_hidl_getCameraInfoEPNS0_10IInterfaceEPNS0_7details16HidlInstrumentorENSt3__18functionIFvNS1_6common4V1_06StatusERKNS3_10CameraInfoEEEE",
   "parameters" :
   [
    {
     "referenced_type" : "type-107"
    },
    {
     "referenced_type" : "type-268"
    },
    {
     "referenced_type" : "type-1126"
    }
   ],
   "return_type" : "type-464",
   "source_file" : "/out/soong/.intermediates/hardware/interfaces/camera/device/1.0/android.hardware.camera.device@1.0_genc++_headers/gen/android/hardware/camera/device/1.0/BpHwCameraDevice.h"
  },
  {
   "function_name" : "android::hardware::camera::device::V1_0::BpHwCameraDevice::_hidl_getParameters",
   "linker_set_key" : "_ZN7android8hardware6camera6device4V1_016BpHwCameraDevice19_hidl_getParametersEPNS0_10IInterfaceEPNS0_7details16HidlInstrumentorENSt3__18functionIFvRKNS0_11hidl_stringEEEE",
   "parameters" :
   [
    {
     "referenced_type" : "type-107"
    },
    {
     "referenced_type" : "type-268"
    },
    {
     "referenced_type" : "type-1127"
    }
   ],
   "return_type" : "type-464",
   "source_file" : "/out/soong/.intermediates/hardware/interfaces/camera/device/1.0/android.hardware.camera.device@1.0_genc++_headers/gen/android/hardware/camera/device/1.0/BpHwCameraDevice.h"
  },
  {
   "function_name" : "android::hardware::camera::device::V1_0::BpHwCameraDevice::_hidl_setParameters",
   "linker_set_key" : "_ZN7android8hardware6camera6device4V1_016BpHwCameraDevice19_hidl_setParametersEPNS0_10IInterfaceEPNS0_7details16HidlInstrumentorERKNS0_11hidl_stringE",
   "parameters" :
   [
    {
     "referenced_type" : "type-107"
    },
    {
     "referenced_type" : "type-268"
    },
    {
     "referenced_type" : "type-1020"
    }
   ],
   "return_type" : "type-408",
   "source_file" : "/out/soong/.intermediates/hardware/interfaces/camera/device/1.0/android.hardware.camera.device@1.0_genc++_headers/gen/android/hardware/camera/device/1.0/BpHwCameraDevice.h"
  },
  {
   "function_name" : "android::hardware::camera::device::V1_0::BpHwCameraDevice::_hidl_stopRecording",
   "linker_set_key" : "_ZN7android8hardware6camera6device4V1_016BpHwCameraDevice19_hidl_stopRecordingEPNS0_10IInterfaceEPNS0_7details16HidlInstrumentorE",
   "parameters" :
   [
    {
     "referenced_type" : "type-107"
    },
    {
     "referenced_type" : "type-268"
    }
   ],
   "return_type" : "type-464",
   "source_file" : "/out/soong/.intermediates/hardware/interfaces/camera/device/1.0/android.hardware.camera.device@1.0_genc++_headers/gen/android/hardware/camera/device/1.0/BpHwCameraDevice.h"
  },
  {
   "function_name" : "android::hardware::camera::device::V1_0::BpHwCameraDevice::interfaceDescriptor",
   "linker_set_key" : "_ZN7android8hardware6camera6device4V1_016BpHwCameraDevice19interfaceDescriptorENSt3__18functionIFvRKNS0_11hidl_stringEEEE",
   "parameters" :
   [
    {
     "is_this_ptr" : true,
     "referenced_type" : "type-1067"
    },
    {
     "referenced_type" : "type-1128"
    }
   ],
   "return_type" : "type-464",
   "source_file" : "/out/soong/.intermediates/hardware/interfaces/camera/device/1.0/android.hardware.camera.device@1.0_genc++_headers/gen/android/hardware/camera/device/1.0/BpHwCameraDevice.h"
  },
  {
   "function_name" : "android::hardware::camera::device::V1_0::BpHwCameraDevice::_hidl_disableMsgType",
   "linker_set_key" : "_ZN7android8hardware6camera6device4V1_016BpHwCameraDevice20_hidl_disableMsgTypeEPNS0_10IInterfaceEPNS0_7details16HidlInstrumentorEj",
   "parameters" :
   [
    {
     "referenced_type" : "type-107"
    },
    {
     "referenced_type" : "type-268"
    },
    {
     "referenced_type" : "type-2"
    }
   ],
   "return_type" : "type-464",
   "source_file" : "/out/soong/.intermediates/hardware/interfaces/camera/device/1.0/android.hardware.camera.device@1.0_genc++_headers/gen/android/hardware/camera/device/1.0/BpHwCameraDevice.h"
  },
  {
   "function_name" : "android::hardware::camera::device::V1_0::BpHwCameraDevice::_hidl_msgTypeEnabled",
   "linker_set_key" : "_ZN7android8hardware6camera6device4V1_016BpHwCameraDevice20_hidl_msgTypeEnabledEPNS0_10IInterfaceEPNS0_7details16HidlInstrumentorEj",
   "parameters" :
   [
    {
     "referenced_type" : "type-107"
    },
    {
     "referenced_type" : "type-268"
    },
    {
     "referenced_type" : "type-2"
    }
   ],
   "return_type" : "type-402",
   "source_file" : "/out/soong/.intermediates/hardware/interfaces/camera/device/1.0/android.hardware.camera.device@1.0_genc++_headers/gen/android/hardware/camera/device/1.0/BpHwCameraDevice.h"
  },
  {
   "function_name" : "android::hardware::camera::device::V1_0::BpHwCameraDevice::_hidl_previewEnabled",
   "linker_set_key" : "_ZN7android8hardware6camera6device4V1_016BpHwCameraDevice20_hidl_previewEnabledEPNS0_10IInterfaceEPNS0_7details16HidlInstrumentorE",
   "parameters" :
   [
    {
     "referenced_type" : "type-107"
    },
    {
     "referenced_type" : "type-268"
    }
   ],
   "return_type" : "type-402",
   "source_file" : "/out/soong/.intermediates/hardware/interfaces/camera/device/1.0/android.hardware.camera.device@1.0_genc++_headers/gen/android/hardware/camera/device/1.0/BpHwCameraDevice.h"
  },
  {
   "function_name" : "android::hardware::camera::device::V1_0::BpHwCameraDevice::_hidl_startRecording",
   "linker_set_key" : "_ZN7android8hardware6camera6device4V1_016BpHwCameraDevice20_hidl_startRecordingEPNS0_10IInterfaceEPNS0_7details16HidlInstrumentorE",
   "parameters" :
   [
    {
     "referenced_type" : "type-107"
    },
    {
     "referenced_type" : "type-268"
    }
   ],
   "return_type" : "type-408",
   "source_file" : "/out/soong/.intermediates/hardware/interfaces/camera/device/1.0/android.hardware.camera.device@1.0_genc++_headers/gen/android/hardware/camera/device/1.0/BpHwCameraDevice.h"
  },
  {
   "function_name" : "android::hardware::camera::device::V1_0::BpHwCameraDevice::_hidl_cancelAutoFocus",
   "linker_set_key" : "_ZN7android8hardware6camera6device4V1_016BpHwCameraDevice21_hidl_cancelAutoFocusEPNS0_10IInterfaceEPNS0_7details16HidlInstrumentorE",
   "parameters" :
   [
    {
     "referenced_type" : "type-107"
    },
    {
     "referenced_type" : "type-268"
    }
   ],
   "return_type" : "type-408",
   "source_file" : "/out/soong/.intermediates/hardware/interfaces/camera/device/1.0/android.hardware.camera.device@1.0_genc++_headers/gen/android/hardware/camera/device/1.0/BpHwCameraDevice.h"
  },
  {
   "function_name" : "android::hardware::camera::device::V1_0::BpHwCameraDevice::_hidl_getResourceCost",
   "linker_set_key" : "_ZN7android8hardware6camera6device4V1_016BpHwCameraDevice21_hidl_getResourceCostEPNS0_10IInterfaceEPNS0_7details16HidlInstrumentorENSt3__18functionIFvNS1_6common4V1_06StatusERKNSD_18CameraResourceCostEEEE",
   "parameters" :
   [
    {
     "referenced_type" : "type-107"
    },
    {
     "referenced_type" : "type-268"
    },
    {
     "referenced_type" : "type-1129"
    }
   ],
   "return_type" : "type-464",
   "source_file" : "/out/soong/.intermediates/hardware/interfaces/camera/device/1.0/android.hardware.camera.device@1.0_genc++_headers/gen/android/hardware/camera/device/1.0/BpHwCameraDevice.h"
  },
  {
   "function_name" : "android::hardware::camera::device::V1_0::BpHwCameraDevice::notifySyspropsChanged",
   "linker_set_key" : "_ZN7android8hardware6camera6device4V1_016BpHwCameraDevice21notifySyspropsChangedEv",
   "parameters" :
   [
    {
     "is_this_ptr" : true,
     "referenced_type" : "type-1067"
    }
   ],
   "return_type" : "type-464",
   "source_file" : "/out/soong/.intermediates/hardware/interfaces/camera/device/1.0/android.hardware.camera.device@1.0_genc++_headers/gen/android/hardware/camera/device/1.0/BpHwCameraDevice.h"
  },
  {
   "function_name" : "android::hardware::camera::device::V1_0::BpHwCameraDevice::releaseRecordingFrame",
   "linker_set_key" : "_ZN7android8hardware6camera6device4V1_016BpHwCameraDevice21releaseRecordingFrameEjj",
   "parameters" :
   [
    {
     "is_this_ptr" : true,
     "referenced_type" : "type-1067"
    },
    {
     "referenced_type" : "type-2"
    },
    {
     "referenced_type" : "type-2"
    }
   ],
   "return_type" : "type-464",
   "source_file" : "/out/soong/.intermediates/hardware/interfaces/camera/device/1.0/android.hardware.camera.device@1.0_genc++_headers/gen/android/hardware/camera/device/1.0/BpHwCameraDevice.h"
  },
  {
   "function_name" : "android::hardware::camera::device::V1_0::BpHwCameraDevice::setHALInstrumentation",
   "linker_set_key" : "_ZN7android8hardware6camera6device4V1_016BpHwCameraDevice21setHALInstrumentationEv",
   "parameters" :
   [
    {
     "is_this_ptr" : true,
     "referenced_type" : "type-1067"
    }
   ],
   "return_type" : "type-464",
   "source_file" : "/out/soong/.intermediates/hardware/interfaces/camera/device/1.0/android.hardware.camera.device@1.0_genc++_headers/gen/android/hardware/camera/device/1.0/BpHwCameraDevice.h"
  },
  {
   "function_name" : "android::hardware::camera::device::V1_0::BpHwCameraDevice::_hidl_recordingEnabled",
   "linker_set_key" : "_ZN7android8hardware6camera6device4V1_016BpHwCameraDevice22_hidl_recordingEnabledEPNS0_10IInterfaceEPNS0_7details16HidlInstrumentorE",
   "parameters" :
   [
    {
     "referenced_type" : "type-107"
    },
    {
     "referenced_type" : "type-268"
    }
   ],
   "return_type" : "type-402",
   "source_file" : "/out/soong/.intermediates/hardware/interfaces/camera/device/1.0/android.hardware.camera.device@1.0_genc++_headers/gen/android/hardware/camera/device/1.0/BpHwCameraDevice.h"
  },
  {
   "function_name" : "android::hardware::camera::device::V1_0::BpHwCameraDevice::_hidl_setPreviewWindow",
   "linker_set_key" : "_ZN7android8hardware6camera6device4V1_016BpHwCameraDevice22_hidl_setPreviewWindowEPNS0_10IInterfaceEPNS0_7details16HidlInstrumentorERKNS_2spINS3_28ICameraDevicePreviewCallbackEEE",
   "parameters" :
   [
    {
     "referenced_type" : "type-107"
    },
    {
     "referenced_type" : "type-268"
    },
    {
     "referenced_type" : "type-52"
    }
   ],
   "return_type" : "type-408",
   "source_file" : "/out/soong/.intermediates/hardware/interfaces/camera/device/1.0/android.hardware.camera.device@1.0_genc++_headers/gen/android/hardware/camera/device/1.0/BpHwCameraDevice.h"
  },
  {
   "function_name" : "android::hardware::camera::device::V1_0::BpHwCameraDevice::storeMetaDataInBuffers",
   "linker_set_key" : "_ZN7android8hardware6camera6device4V1_016BpHwCameraDevice22storeMetaDataInBuffersEb",
   "parameters" :
   [
    {
     "is_this_ptr" : true,
     "referenced_type" : "type-1067"
    },
    {
     "referenced_type" : "type-3"
    }
   ],
   "return_type" : "type-408",
   "source_file" : "/out/soong/.intermediates/hardware/interfaces/camera/device/1.0/android.hardware.camera.device@1.0_genc++_headers/gen/android/hardware/camera/device/1.0/BpHwCameraDevice.h"
  },
  {
   "function_name" : "android::hardware::camera::device::V1_0::BpHwCameraDevice::_hidl_releaseRecordingFrame",
   "linker_set_key" : "_ZN7android8hardware6camera6device4V1_016BpHwCameraDevice27_hidl_releaseRecordingFrameEPNS0_10IInterfaceEPNS0_7details16HidlInstrumentorEjj",
   "parameters" :
   [
    {
     "referenced_type" : "type-107"
    },
    {
     "referenced_type" : "type-268"
    },
    {
     "referenced_type" : "type-2"
    },
    {
     "referenced_type" : "type-2"
    }
   ],
   "return_type" : "type-464",
   "source_file" : "/out/soong/.intermediates/hardware/interfaces/camera/device/1.0/android.hardware.camera.device@1.0_genc++_headers/gen/android/hardware/camera/device/1.0/BpHwCameraDevice.h"
  },
  {
   "function_name" : "android::hardware::camera::device::V1_0::BpHwCameraDevice::releaseRecordingFrameHandle",
   "linker_set_key" : "_ZN7android8hardware6camera6device4V1_016BpHwCameraDevice27releaseRecordingFrameHandleEjjRKNS0_11hidl_handleE",
   "parameters" :
   [
    {
     "is_this_ptr" : true,
     "referenced_type" : "type-1067"
    },
    {
     "referenced_type" : "type-2"
    },
    {
     "referenced_type" : "type-2"
    },
    {
     "referenced_type" : "type-763"
    }
   ],
   "return_type" : "type-464",
   "source_file" : "/out/soong/.intermediates/hardware/interfaces/camera/device/1.0/android.hardware.camera.device@1.0_genc++_headers/gen/android/hardware/camera/device/1.0/BpHwCameraDevice.h"
  },
  {
   "function_name" : "android::hardware::camera::device::V1_0::BpHwCameraDevice::_hidl_storeMetaDataInBuffers",
   "linker_set_key" : "_ZN7android8hardware6camera6device4V1_016BpHwCameraDevice28_hidl_storeMetaDataInBuffersEPNS0_10IInterfaceEPNS0_7details16HidlInstrumentorEb",
   "parameters" :
   [
    {
     "referenced_type" : "type-107"
    },
    {
     "referenced_type" : "type-268"
    },
    {
     "referenced_type" : "type-3"
    }
   ],
   "return_type" : "type-408",
   "source_file" : "/out/soong/.intermediates/hardware/interfaces/camera/device/1.0/android.hardware.camera.device@1.0_genc++_headers/gen/android/hardware/camera/device/1.0/BpHwCameraDevice.h"
  },
  {
   "function_name" : "android::hardware::camera::device::V1_0::BpHwCameraDevice::releaseRecordingFrameHandleBatch",
   "linker_set_key" : "_ZN7android8hardware6camera6device4V1_016BpHwCameraDevice32releaseRecordingFrameHandleBatchERKNS0_8hidl_vecINS3_17VideoFrameMessageEEE",
   "parameters" :
   [
    {
     "is_this_ptr" : true,
     "referenced_type" : "type-1067"
    },
    {
     "referenced_type" : "type-809"
    }
   ],
   "return_type" : "type-464",
   "source_file" : "/out/soong/.intermediates/hardware/interfaces/camera/device/1.0/android.hardware.camera.device@1.0_genc++_headers/gen/android/hardware/camera/device/1.0/BpHwCameraDevice.h"
  },
  {
   "function_name" : "android::hardware::camera::device::V1_0::BpHwCameraDevice::_hidl_releaseRecordingFrameHandle",
   "linker_set_key" : "_ZN7android8hardware6camera6device4V1_016BpHwCameraDevice33_hidl_releaseRecordingFrameHandleEPNS0_10IInterfaceEPNS0_7details16HidlInstrumentorEjjRKNS0_11hidl_handleE",
   "parameters" :
   [
    {
     "referenced_type" : "type-107"
    },
    {
     "referenced_type" : "type-268"
    },
    {
     "referenced_type" : "type-2"
    },
    {
     "referenced_type" : "type-2"
    },
    {
     "referenced_type" : "type-763"
    }
   ],
   "return_type" : "type-464",
   "source_file" : "/out/soong/.intermediates/hardware/interfaces/camera/device/1.0/android.hardware.camera.device@1.0_genc++_headers/gen/android/hardware/camera/device/1.0/BpHwCameraDevice.h"
  },
  {
   "function_name" : "android::hardware::camera::device::V1_0::BpHwCameraDevice::_hidl_releaseRecordingFrameHandleBatch",
   "linker_set_key" : "_ZN7android8hardware6camera6device4V1_016BpHwCameraDevice38_hidl_releaseRecordingFrameHandleBatchEPNS0_10IInterfaceEPNS0_7details16HidlInstrumentorERKNS0_8hidl_vecINS3_17VideoFrameMessageEEE",
   "parameters" :
   [
    {
     "referenced_type" : "type-107"
    },
    {
     "referenced_type" : "type-268"
    },
    {
     "referenced_type" : "type-809"
    }
   ],
   "return_type" : "type-464",
   "source_file" : "/out/soong/.intermediates/hardware/interfaces/camera/device/1.0/android.hardware.camera.device@1.0_genc++_headers/gen/android/hardware/camera/device/1.0/BpHwCameraDevice.h"
  },
  {
   "function_name" : "android::hardware::camera::device::V1_0::BpHwCameraDevice::open",
   "linker_set_key" : "_ZN7android8hardware6camera6device4V1_016BpHwCameraDevice4openERKNS_2spINS3_21ICameraDeviceCallbackEEE",
   "parameters" :
   [
    {
     "is_this_ptr" : true,
     "referenced_type" : "type-1067"
    },
    {
     "referenced_type" : "type-10"
    }
   ],
   "return_type" : "type-408",
   "source_file" : "/out/soong/.intermediates/hardware/interfaces/camera/device/1.0/android.hardware.camera.device@1.0_genc++_headers/gen/android/hardware/camera/device/1.0/BpHwCameraDevice.h"
  },
  {
   "function_name" : "android::hardware::camera::device::V1_0::BpHwCameraDevice::ping",
   "linker_set_key" : "_ZN7android8hardware6camera6device4V1_016BpHwCameraDevice4pingEv",
   "parameters" :
   [
    {
     "is_this_ptr" : true,
     "referenced_type" : "type-1067"
    }
   ],
   "return_type" : "type-464",
   "source_file" : "/out/soong/.intermediates/hardware/interfaces/camera/device/1.0/android.hardware.camera.device@1.0_genc++_headers/gen/android/hardware/camera/device/1.0/BpHwCameraDevice.h"
  },
  {
   "function_name" : "android::hardware::camera::device::V1_0::BpHwCameraDevice::close",
   "linker_set_key" : "_ZN7android8hardware6camera6device4V1_016BpHwCameraDevice5closeEv",
   "parameters" :
   [
    {
     "is_this_ptr" : true,
     "referenced_type" : "type-1067"
    }
   ],
   "return_type" : "type-464",
   "source_file" : "/out/soong/.intermediates/hardware/interfaces/camera/device/1.0/android.hardware.camera.device@1.0_genc++_headers/gen/android/hardware/camera/device/1.0/BpHwCameraDevice.h"
  },
  {
   "function_name" : "android::hardware::camera::device::V1_0::BpHwCameraDevice::debug",
   "linker_set_key" : "_ZN7android8hardware6camera6device4V1_016BpHwCameraDevice5debugERKNS0_11hidl_handleERKNS0_8hidl_vecINS0_11hidl_stringEEE",
   "parameters" :
   [
    {
     "is_this_ptr" : true,
     "referenced_type" : "type-1067"
    },
    {
     "referenced_type" : "type-763"
    },
    {
     "referenced_type" : "type-685"
    }
   ],
   "return_type" : "type-464",
   "source_file" : "/out/soong/.intermediates/hardware/interfaces/camera/device/1.0/android.hardware.camera.device@1.0_genc++_headers/gen/android/hardware/camera/device/1.0/BpHwCameraDevice.h"
  },
  {
   "function_name" : "android::hardware::camera::device::V1_0::BpHwCameraDevice::autoFocus",
   "linker_set_key" : "_ZN7android8hardware6camera6device4V1_016BpHwCameraDevice9autoFocusEv",
   "parameters" :
   [
    {
     "is_this_ptr" : true,
     "referenced_type" : "type-1067"
    }
   ],
   "return_type" : "type-408",
   "source_file" : "/out/soong/.intermediates/hardware/interfaces/camera/device/1.0/android.hardware.camera.device@1.0_genc++_headers/gen/android/hardware/camera/device/1.0/BpHwCameraDevice.h"
  },
  {
   "function_name" : "android::hardware::camera::device::V1_0::BpHwCameraDevice::dumpState",
   "linker_set_key" : "_ZN7android8hardware6camera6device4V1_016BpHwCameraDevice9dumpStateERKNS0_11hidl_handleE",
   "parameters" :
   [
    {
     "is_this_ptr" : true,
     "referenced_type" : "type-1067"
    },
    {
     "referenced_type" : "type-763"
    }
   ],
   "return_type" : "type-408",
   "source_file" : "/out/soong/.intermediates/hardware/interfaces/camera/device/1.0/android.hardware.camera.device@1.0_genc++_headers/gen/android/hardware/camera/device/1.0/BpHwCameraDevice.h"
  },
  {
   "function_name" : "android::hardware::camera::device::V1_0::BpHwCameraDevice::BpHwCameraDevice",
   "linker_set_key" : "_ZN7android8hardware6camera6device4V1_016BpHwCameraDeviceC1ERKNS_2spINS0_7IBinderEEE",
   "parameters" :
   [
    {
     "is_this_ptr" : true,
     "referenced_type" : "type-1067"
    },
    {
     "referenced_type" : "type-141"
    }
   ],
   "return_type" : "type-124",
   "source_file" : "/out/soong/.intermediates/hardware/interfaces/camera/device/1.0/android.hardware.camera.device@1.0_genc++_headers/gen/android/hardware/camera/device/1.0/BpHwCameraDevice.h"
  },
  {
   "function_name" : "android::hardware::camera::device::V1_0::BpHwCameraDevice::BpHwCameraDevice",
   "linker_set_key" : "_ZN7android8hardware6camera6device4V1_016BpHwCameraDeviceC2ERKNS_2spINS0_7IBinderEEE",
   "parameters" :
   [
    {
     "is_this_ptr" : true,
     "referenced_type" : "type-1067"
    },
    {
     "referenced_type" : "type-141"
    }
   ],
   "return_type" : "type-124",
   "source_file" : "/out/soong/.intermediates/hardware/interfaces/camera/device/1.0/android.hardware.camera.device@1.0_genc++_headers/gen/android/hardware/camera/device/1.0/BpHwCameraDevice.h"
  },
  {
   "function_name" : "android::hardware::camera::device::V1_0::ICameraDeviceCallback::getService",
   "linker_set_key" : "_ZN7android8hardware6camera6device4V1_021ICameraDeviceCallback10getServiceERKNSt3__112basic_stringIcNS5_11char_traitsIcEENS5_9allocatorIcEEEEb",
   "parameters" :
   [
    {
     "default_arg" : true,
     "referenced_type" : "type-51"
    },
    {
     "default_arg" : true,
     "referenced_type" : "type-3"
    }
   ],
   "return_type" : "type-12",
   "source_file" : "/out/soong/.intermediates/hardware/interfaces/camera/device/1.0/android.hardware.camera.device@1.0_genc++_headers/gen/android/hardware/camera/device/1.0/ICameraDeviceCallback.h"
  },
  {
   "function_name" : "android::hardware::camera::device::V1_0::ICameraDeviceCallback::linkToDeath",
   "linker_set_key" : "_ZN7android8hardware6camera6device4V1_021ICameraDeviceCallback11linkToDeathERKNS_2spINS0_20hidl_death_recipientEEEy",
   "parameters" :
   [
    {
     "is_this_ptr" : true,
     "referenced_type" : "type-13"
    },
    {
     "referenced_type" : "type-913"
    },
    {
     "referenced_type" : "type-47"
    }
   ],
   "return_type" : "type-402",
   "source_file" : "/out/soong/.intermediates/hardware/interfaces/camera/device/1.0/android.hardware.camera.device@1.0_genc++_headers/gen/android/hardware/camera/device/1.0/ICameraDeviceCallback.h"
  },
  {
   "function_name" : "android::hardware::camera::device::V1_0::ICameraDeviceCallback::getDebugInfo",
   "linker_set_key" : "_ZN7android8hardware6camera6device4V1_021ICameraDeviceCallback12getDebugInfoENSt3__18functionIFvRKNS_4hidl4base4V1_09DebugInfoEEEE",
   "parameters" :
   [
    {
     "is_this_ptr" : true,
     "referenced_type" : "type-13"
    },
    {
     "referenced_type" : "type-1130"
    }
   ],
   "return_type" : "type-464",
   "source_file" : "/out/soong/.intermediates/hardware/interfaces/camera/device/1.0/android.hardware.camera.device@1.0_genc++_headers/gen/android/hardware/camera/device/1.0/ICameraDeviceCallback.h"
  },
  {
   "function_name" : "android::hardware::camera::device::V1_0::ICameraDeviceCallback::getHashChain",
   "linker_set_key" : "_ZN7android8hardware6camera6device4V1_021ICameraDeviceCallback12getHashChainENSt3__18functionIFvRKNS0_8hidl_vecINS0_10hidl_arrayIhLj32EJEEEEEEEE",
   "parameters" :
   [
    {
     "is_this_ptr" : true,
     "referenced_type" : "type-13"
    },
    {
     "referenced_type" : "type-1131"
    }
   ],
   "return_type" : "type-464",
   "source_file" : "/out/soong/.intermediates/hardware/interfaces/camera/device/1.0/android.hardware.camera.device@1.0_genc++_headers/gen/android/hardware/camera/device/1.0/ICameraDeviceCallback.h"
  },
  {
   "function_name" : "android::hardware::camera::device::V1_0::ICameraDeviceCallback::tryGetService",
   "linker_set_key" : "_ZN7android8hardware6camera6device4V1_021ICameraDeviceCallback13tryGetServiceERKNSt3__112basic_stringIcNS5_11char_traitsIcEENS5_9allocatorIcEEEEb",
   "parameters" :
   [
    {
     "default_arg" : true,
     "referenced_type" : "type-51"
    },
    {
     "default_arg" : true,
     "referenced_type" : "type-3"
    }
   ],
   "return_type" : "type-12",
   "source_file" : "/out/soong/.intermediates/hardware/interfaces/camera/device/1.0/android.hardware.camera.device@1.0_genc++_headers/gen/android/hardware/camera/device/1.0/ICameraDeviceCallback.h"
  },
  {
   "function_name" : "android::hardware::camera::device::V1_0::ICameraDeviceCallback::unlinkToDeath",
   "linker_set_key" : "_ZN7android8hardware6camera6device4V1_021ICameraDeviceCallback13unlinkToDeathERKNS_2spINS0_20hidl_death_recipientEEE",
   "parameters" :
   [
    {
     "is_this_ptr" : true,
     "referenced_type" : "type-13"
    },
    {
     "referenced_type" : "type-913"
    }
   ],
   "return_type" : "type-402",
   "source_file" : "/out/soong/.intermediates/hardware/interfaces/camera/device/1.0/android.hardware.camera.device@1.0_genc++_headers/gen/android/hardware/camera/device/1.0/ICameraDeviceCallback.h"
  },
  {
   "function_name" : "android::hardware::camera::device::V1_0::ICameraDeviceCallback::interfaceChain",
   "linker_set_key" : "_ZN7android8hardware6camera6device4V1_021ICameraDeviceCallback14interfaceChainENSt3__18functionIFvRKNS0_8hidl_vecINS0_11hidl_stringEEEEEE",
   "parameters" :
   [
    {
     "is_this_ptr" : true,
     "referenced_type" : "type-13"
    },
    {
     "referenced_type" : "type-1132"
    }
   ],
   "return_type" : "type-464",
   "source_file" : "/out/soong/.intermediates/hardware/interfaces/camera/device/1.0/android.hardware.camera.device@1.0_genc++_headers/gen/android/hardware/camera/device/1.0/ICameraDeviceCallback.h"
  },
  {
   "function_name" : "android::hardware::camera::device::V1_0::ICameraDeviceCallback::registerAsService",
   "linker_set_key" : "_ZN7android8hardware6camera6device4V1_021ICameraDeviceCallback17registerAsServiceERKNSt3__112basic_stringIcNS5_11char_traitsIcEENS5_9allocatorIcEEEE",
   "parameters" :
   [
    {
     "is_this_ptr" : true,
     "referenced_type" : "type-13"
    },
    {
     "default_arg" : true,
     "referenced_type" : "type-51"
    }
   ],
   "return_type" : "type-45",
   "source_file" : "/out/soong/.intermediates/hardware/interfaces/camera/device/1.0/android.hardware.camera.device@1.0_genc++_headers/gen/android/hardware/camera/device/1.0/ICameraDeviceCallback.h"
  },
  {
   "function_name" : "android::hardware::camera::device::V1_0::ICameraDeviceCallback::interfaceDescriptor",
   "linker_set_key" : "_ZN7android8hardware6camera6device4V1_021ICameraDeviceCallback19interfaceDescriptorENSt3__18functionIFvRKNS0_11hidl_stringEEEE",
   "parameters" :
   [
    {
     "is_this_ptr" : true,
     "referenced_type" : "type-13"
    },
    {
     "referenced_type" : "type-1133"
    }
   ],
   "return_type" : "type-464",
   "source_file" : "/out/soong/.intermediates/hardware/interfaces/camera/device/1.0/android.hardware.camera.device@1.0_genc++_headers/gen/android/hardware/camera/device/1.0/ICameraDeviceCallback.h"
  },
  {
   "function_name" : "android::hardware::camera::device::V1_0::ICameraDeviceCallback::notifySyspropsChanged",
   "linker_set_key" : "_ZN7android8hardware6camera6device4V1_021ICameraDeviceCallback21notifySyspropsChangedEv",
   "parameters" :
   [
    {
     "is_this_ptr" : true,
     "referenced_type" : "type-13"
    }
   ],
   "return_type" : "type-464",
   "source_file" : "/out/soong/.intermediates/hardware/interfaces/camera/device/1.0/android.hardware.camera.device@1.0_genc++_headers/gen/android/hardware/camera/device/1.0/ICameraDeviceCallback.h"
  },
  {
   "function_name" : "android::hardware::camera::device::V1_0::ICameraDeviceCallback::setHALInstrumentation",
   "linker_set_key" : "_ZN7android8hardware6camera6device4V1_021ICameraDeviceCallback21setHALInstrumentationEv",
   "parameters" :
   [
    {
     "is_this_ptr" : true,
     "referenced_type" : "type-13"
    }
   ],
   "return_type" : "type-464",
   "source_file" : "/out/soong/.intermediates/hardware/interfaces/camera/device/1.0/android.hardware.camera.device@1.0_genc++_headers/gen/android/hardware/camera/device/1.0/ICameraDeviceCallback.h"
  },
  {
   "function_name" : "android::hardware::camera::device::V1_0::ICameraDeviceCallback::registerForNotifications",
   "linker_set_key" : "_ZN7android8hardware6camera6device4V1_021ICameraDeviceCallback24registerForNotificationsERKNSt3__112basic_stringIcNS5_11char_traitsIcEENS5_9allocatorIcEEEERKNS_2spINS_4hidl7manager4V1_020IServiceNotificationEEE",
   "parameters" :
   [
    {
     "referenced_type" : "type-51"
    },
    {
     "referenced_type" : "type-1009"
    }
   ],
   "return_type" : "type-3",
   "source_file" : "/out/soong/.intermediates/hardware/interfaces/camera/device/1.0/android.hardware.camera.device@1.0_genc++_headers/gen/android/hardware/camera/device/1.0/ICameraDeviceCallback.h"
  },
  {
   "function_name" : "android::hardware::camera::device::V1_0::ICameraDeviceCallback::ping",
   "linker_set_key" : "_ZN7android8hardware6camera6device4V1_021ICameraDeviceCallback4pingEv",
   "parameters" :
   [
    {
     "is_this_ptr" : true,
     "referenced_type" : "type-13"
    }
   ],
   "return_type" : "type-464",
   "source_file" : "/out/soong/.intermediates/hardware/interfaces/camera/device/1.0/android.hardware.camera.device@1.0_genc++_headers/gen/android/hardware/camera/device/1.0/ICameraDeviceCallback.h"
  },
  {
   "function_name" : "android::hardware::camera::device::V1_0::ICameraDeviceCallback::debug",
   "linker_set_key" : "_ZN7android8hardware6camera6device4V1_021ICameraDeviceCallback5debugERKNS0_11hidl_handleERKNS0_8hidl_vecINS0_11hidl_stringEEE",
   "parameters" :
   [
    {
     "is_this_ptr" : true,
     "referenced_type" : "type-13"
    },
    {
     "referenced_type" : "type-763"
    },
    {
     "referenced_type" : "type-685"
    }
   ],
   "return_type" : "type-464",
   "source_file" : "/out/soong/.intermediates/hardware/interfaces/camera/device/1.0/android.hardware.camera.device@1.0_genc++_headers/gen/android/hardware/camera/device/1.0/ICameraDeviceCallback.h"
  },
  {
   "function_name" : "android::hardware::camera::device::V1_0::ICameraDeviceCallback::castFrom",
   "linker_set_key" : "_ZN7android8hardware6camera6device4V1_021ICameraDeviceCallback8castFromERKNS_2spINS_4hidl4base4V1_05IBaseEEEb",
   "parameters" :
   [
    {
     "referenced_type" : "type-1047"
    },
    {
     "default_arg" : true,
     "referenced_type" : "type-3"
    }
   ],
   "return_type" : "type-1058",
   "source_file" : "/out/soong/.intermediates/hardware/interfaces/camera/device/1.0/android.hardware.camera.device@1.0_genc++_headers/gen/android/hardware/camera/device/1.0/ICameraDeviceCallback.h"
  },
  {
   "function_name" : "android::hardware::camera::device::V1_0::ICameraDeviceCallback::castFrom",
   "linker_set_key" : "_ZN7android8hardware6camera6device4V1_021ICameraDeviceCallback8castFromERKNS_2spIS4_EEb",
   "parameters" :
   [
    {
     "referenced_type" : "type-10"
    },
    {
     "default_arg" : true,
     "referenced_type" : "type-3"
    }
   ],
   "return_type" : "type-1058",
   "source_file" : "/out/soong/.intermediates/hardware/interfaces/camera/device/1.0/android.hardware.camera.device@1.0_genc++_headers/gen/android/hardware/camera/device/1.0/ICameraDeviceCallback.h"
  },
  {
   "function_name" : "android::hardware::camera::device::V1_0::writeEmbeddedToParcel",
   "linker_set_key" : "_ZN7android8hardware6camera6device4V1_021writeEmbeddedToParcelERKNS3_17VideoFrameMessageEPNS0_6ParcelEjj",
   "parameters" :
   [
    {
     "referenced_type" : "type-1033"
    },
    {
     "referenced_type" : "type-799"
    },
    {
     "referenced_type" : "type-2"
    },
    {
     "referenced_type" : "type-2"
    }
   ],
   "return_type" : "type-45",
   "source_file" : "/out/soong/.intermediates/hardware/interfaces/camera/device/1.0/android.hardware.camera.device@1.0_genc++_headers/gen/android/hardware/camera/device/1.0/hwtypes.h"
  },
  {
   "function_name" : "android::hardware::camera::device::V1_0::writeEmbeddedToParcel",
   "linker_set_key" : "_ZN7android8hardware6camera6device4V1_021writeEmbeddedToParcelERKNS3_19CameraFrameMetadataEPNS0_6ParcelEjj",
   "parameters" :
   [
    {
     "referenced_type" : "type-96"
    },
    {
     "referenced_type" : "type-799"
    },
    {
     "referenced_type" : "type-2"
    },
    {
     "referenced_type" : "type-2"
    }
   ],
   "return_type" : "type-45",
   "source_file" : "/out/soong/.intermediates/hardware/interfaces/camera/device/1.0/android.hardware.camera.device@1.0_genc++_headers/gen/android/hardware/camera/device/1.0/hwtypes.h"
  },
  {
   "function_name" : "android::hardware::camera::device::V1_0::writeEmbeddedToParcel",
   "linker_set_key" : "_ZN7android8hardware6camera6device4V1_021writeEmbeddedToParcelERKNS3_22HandleTimestampMessageEPNS0_6ParcelEjj",
   "parameters" :
   [
    {
     "referenced_type" : "type-100"
    },
    {
     "referenced_type" : "type-799"
    },
    {
     "referenced_type" : "type-2"
    },
    {
     "referenced_type" : "type-2"
    }
   ],
   "return_type" : "type-45",
   "source_file" : "/out/soong/.intermediates/hardware/interfaces/camera/device/1.0/android.hardware.camera.device@1.0_genc++_headers/gen/android/hardware/camera/device/1.0/hwtypes.h"
  },
  {
   "access" : "private",
   "function_name" : "android::hardware::camera::device::V1_0::BsCameraDeviceCallback::addOnewayTask",
   "linker_set_key" : "_ZN7android8hardware6camera6device4V1_022BsCameraDeviceCallback13addOnewayTaskENSt3__18functionIFvvEEE",
   "parameters" :
   [
    {
     "is_this_ptr" : true,
     "referenced_type" : "type-1050"
    },
    {
     "referenced_type" : "type-1136"
    }
   ],
   "return_type" : "type-464",
   "source_file" : "/out/soong/.intermediates/hardware/interfaces/camera/device/1.0/android.hardware.camera.device@1.0_genc++_headers/gen/android/hardware/camera/device/1.0/BsCameraDeviceCallback.h"
  },
  {
   "function_name" : "android::hardware::camera::device::V1_0::BsCameraDeviceCallback::BsCameraDeviceCallback",
   "linker_set_key" : "_ZN7android8hardware6camera6device4V1_022BsCameraDeviceCallbackC1ENS_2spINS3_21ICameraDeviceCallbackEEE",
   "parameters" :
   [
    {
     "is_this_ptr" : true,
     "referenced_type" : "type-1050"
    },
    {
     "referenced_type" : "type-11"
    }
   ],
   "return_type" : "type-124",
   "source_file" : "/out/soong/.intermediates/hardware/interfaces/camera/device/1.0/android.hardware.camera.device@1.0_genc++_headers/gen/android/hardware/camera/device/1.0/BsCameraDeviceCallback.h"
  },
  {
   "function_name" : "android::hardware::camera::device::V1_0::BsCameraDeviceCallback::BsCameraDeviceCallback",
   "linker_set_key" : "_ZN7android8hardware6camera6device4V1_022BsCameraDeviceCallbackC2ENS_2spINS3_21ICameraDeviceCallbackEEE",
   "parameters" :
   [
    {
     "is_this_ptr" : true,
     "referenced_type" : "type-1050"
    },
    {
     "referenced_type" : "type-11"
    }
   ],
   "return_type" : "type-124",
   "source_file" : "/out/soong/.intermediates/hardware/interfaces/camera/device/1.0/android.hardware.camera.device@1.0_genc++_headers/gen/android/hardware/camera/device/1.0/BsCameraDeviceCallback.h"
  },
  {
   "function_name" : "android::hardware::camera::device::V1_0::readEmbeddedFromParcel",
   "linker_set_key" : "_ZN7android8hardware6camera6device4V1_022readEmbeddedFromParcelERKNS3_17VideoFrameMessageERKNS0_6ParcelEjj",
   "parameters" :
   [
    {
     "referenced_type" : "type-1033"
    },
    {
     "referenced_type" : "type-806"
    },
    {
     "referenced_type" : "type-2"
    },
    {
     "referenced_type" : "type-2"
    }
   ],
   "return_type" : "type-45",
   "source_file" : "/out/soong/.intermediates/hardware/interfaces/camera/device/1.0/android.hardware.camera.device@1.0_genc++_headers/gen/android/hardware/camera/device/1.0/hwtypes.h"
  },
  {
   "function_name" : "android::hardware::camera::device::V1_0::readEmbeddedFromParcel",
   "linker_set_key" : "_ZN7android8hardware6camera6device4V1_022readEmbeddedFromParcelERKNS3_19CameraFrameMetadataERKNS0_6ParcelEjj",
   "parameters" :
   [
    {
     "referenced_type" : "type-96"
    },
    {
     "referenced_type" : "type-806"
    },
    {
     "referenced_type" : "type-2"
    },
    {
     "referenced_type" : "type-2"
    }
   ],
   "return_type" : "type-45",
   "source_file" : "/out/soong/.intermediates/hardware/interfaces/camera/device/1.0/android.hardware.camera.device@1.0_genc++_headers/gen/android/hardware/camera/device/1.0/hwtypes.h"
  },
  {
   "function_name" : "android::hardware::camera::device::V1_0::readEmbeddedFromParcel",
   "linker_set_key" : "_ZN7android8hardware6camera6device4V1_022readEmbeddedFromParcelERKNS3_22HandleTimestampMessageERKNS0_6ParcelEjj",
   "parameters" :
   [
    {
     "referenced_type" : "type-100"
    },
    {
     "referenced_type" : "type-806"
    },
    {
     "referenced_type" : "type-2"
    },
    {
     "referenced_type" : "type-2"
    }
   ],
   "return_type" : "type-45",
   "source_file" : "/out/soong/.intermediates/hardware/interfaces/camera/device/1.0/android.hardware.camera.device@1.0_genc++_headers/gen/android/hardware/camera/device/1.0/hwtypes.h"
  },
  {
   "function_name" : "android::hardware::camera::device::V1_0::BnHwCameraDeviceCallback::onTransact",
   "linker_set_key" : "_ZN7android8hardware6camera6device4V1_024BnHwCameraDeviceCallback10onTransactEjRKNS0_6ParcelEPS5_jNSt3__18functionIFvRS5_EEE",
   "parameters" :
   [
    {
     "is_this_ptr" : true,
     "referenced_type" : "type-1015"
    },
    {
     "referenced_type" : "type-2"
    },
    {
     "referenced_type" : "type-806"
    },
    {
     "referenced_type" : "type-799"
    },
    {
     "default_arg" : true,
     "referenced_type" : "type-2"
    },
    {
     "default_arg" : true,
     "referenced_type" : "type-1139"
    }
   ],
   "return_type" : "type-45",
   "source_file" : "/out/soong/.intermediates/hardware/interfaces/camera/device/1.0/android.hardware.camera.device@1.0_genc++_headers/gen/android/hardware/camera/device/1.0/BnHwCameraDeviceCallback.h"
  },
  {
   "access" : "private",
   "function_name" : "android::hardware::camera::device::V1_0::BnHwCameraDeviceCallback::getDebugInfo",
   "linker_set_key" : "_ZN7android8hardware6camera6device4V1_024BnHwCameraDeviceCallback12getDebugInfoENSt3__18functionIFvRKNS_4hidl4base4V1_09DebugInfoEEEE",
   "parameters" :
   [
    {
     "is_this_ptr" : true,
     "referenced_type" : "type-1015"
    },
    {
     "referenced_type" : "type-1140"
    }
   ],
   "return_type" : "type-464",
   "source_file" : "/out/soong/.intermediates/hardware/interfaces/camera/device/1.0/android.hardware.camera.device@1.0_genc++_headers/gen/android/hardware/camera/device/1.0/BnHwCameraDeviceCallback.h"
  },
  {
   "function_name" : "android::hardware::camera::device::V1_0::BnHwCameraDeviceCallback::_hidl_dataCallback",
   "linker_set_key" : "_ZN7android8hardware6camera6device4V1_024BnHwCameraDeviceCallback18_hidl_dataCallbackEPNS_4hidl4base4V1_08BnHwBaseERKNS0_6ParcelEPSA_NSt3__18functionIFvRSA_EEE",
   "parameters" :
   [
    {
     "referenced_type" : "type-807"
    },
    {
     "referenced_type" : "type-806"
    },
    {
     "referenced_type" : "type-799"
    },
    {
     "referenced_type" : "type-1141"
    }
   ],
   "return_type" : "type-45",
   "source_file" : "/out/soong/.intermediates/hardware/interfaces/camera/device/1.0/android.hardware.camera.device@1.0_genc++_headers/gen/android/hardware/camera/device/1.0/BnHwCameraDeviceCallback.h"
  },
  {
   "function_name" : "android::hardware::camera::device::V1_0::BnHwCameraDeviceCallback::_hidl_notifyCallback",
   "linker_set_key" : "_ZN7android8hardware6camera6device4V1_024BnHwCameraDeviceCallback20_hidl_notifyCallbackEPNS_4hidl4base4V1_08BnHwBaseERKNS0_6ParcelEPSA_NSt3__18functionIFvRSA_EEE",
   "parameters" :
   [
    {
     "referenced_type" : "type-807"
    },
    {
     "referenced_type" : "type-806"
    },
    {
     "referenced_type" : "type-799"
    },
    {
     "referenced_type" : "type-1142"
    }
   ],
   "return_type" : "type-45",
   "source_file" : "/out/soong/.intermediates/hardware/interfaces/camera/device/1.0/android.hardware.camera.device@1.0_genc++_headers/gen/android/hardware/camera/device/1.0/BnHwCameraDeviceCallback.h"
  },
  {
   "function_name" : "android::hardware::camera::device::V1_0::BnHwCameraDeviceCallback::_hidl_registerMemory",
   "linker_set_key" : "_ZN7android8hardware6camera6device4V1_024BnHwCameraDeviceCallback20_hidl_registerMemoryEPNS_4hidl4base4V1_08BnHwBaseERKNS0_6ParcelEPSA_NSt3__18functionIFvRSA_EEE",
   "parameters" :
   [
    {
     "referenced_type" : "type-807"
    },
    {
     "referenced_type" : "type-806"
    },
    {
     "referenced_type" : "type-799"
    },
    {
     "referenced_type" : "type-1143"
    }
   ],
   "return_type" : "type-45",
   "source_file" : "/out/soong/.intermediates/hardware/interfaces/camera/device/1.0/android.hardware.camera.device@1.0_genc++_headers/gen/android/hardware/camera/device/1.0/BnHwCameraDeviceCallback.h"
  },
  {
   "function_name" : "android::hardware::camera::device::V1_0::BnHwCameraDeviceCallback::_hidl_unregisterMemory",
   "linker_set_key" : "_ZN7android8hardware6camera6device4V1_024BnHwCameraDeviceCallback22_hidl_unregisterMemoryEPNS_4hidl4base4V1_08BnHwBaseERKNS0_6ParcelEPSA_NSt3__18functionIFvRSA_EEE",
   "parameters" :
   [
    {
     "referenced_type" : "type-807"
    },
    {
     "referenced_type" : "type-806"
    },
    {
     "referenced_type" : "type-799"
    },
    {
     "referenced_type" : "type-1144"
    }
   ],
   "return_type" : "type-45",
   "source_file" : "/out/soong/.intermediates/hardware/interfaces/camera/device/1.0/android.hardware.camera.device@1.0_genc++_headers/gen/android/hardware/camera/device/1.0/BnHwCameraDeviceCallback.h"
  },
  {
   "function_name" : "android::hardware::camera::device::V1_0::BnHwCameraDeviceCallback::_hidl_dataCallbackTimestamp",
   "linker_set_key" : "_ZN7android8hardware6camera6device4V1_024BnHwCameraDeviceCallback27_hidl_dataCallbackTimestampEPNS_4hidl4base4V1_08BnHwBaseERKNS0_6ParcelEPSA_NSt3__18functionIFvRSA_EEE",
   "parameters" :
   [
    {
     "referenced_type" : "type-807"
    },
    {
     "referenced_type" : "type-806"
    },
    {
     "referenced_type" : "type-799"
    },
    {
     "referenced_type" : "type-1145"
    }
   ],
   "return_type" : "type-45",
   "source_file" : "/out/soong/.intermediates/hardware/interfaces/camera/device/1.0/android.hardware.camera.device@1.0_genc++_headers/gen/android/hardware/camera/device/1.0/BnHwCameraDeviceCallback.h"
  },
  {
   "function_name" : "android::hardware::camera::device::V1_0::BnHwCameraDeviceCallback::_hidl_handleCallbackTimestamp",
   "linker_set_key" : "_ZN7android8hardware6camera6device4V1_024BnHwCameraDeviceCallback29_hidl_handleCallbackTimestampEPNS_4hidl4base4V1_08BnHwBaseERKNS0_6ParcelEPSA_NSt3__18functionIFvRSA_EEE",
   "parameters" :
   [
    {
     "referenced_type" : "type-807"
    },
    {
     "referenced_type" : "type-806"
    },
    {
     "referenced_type" : "type-799"
    },
    {
     "referenced_type" : "type-1146"
    }
   ],
   "return_type" : "type-45",
   "source_file" : "/out/soong/.intermediates/hardware/interfaces/camera/device/1.0/android.hardware.camera.device@1.0_genc++_headers/gen/android/hardware/camera/device/1.0/BnHwCameraDeviceCallback.h"
  },
  {
   "function_name" : "android::hardware::camera::device::V1_0::BnHwCameraDeviceCallback::_hidl_handleCallbackTimestampBatch",
   "linker_set_key" : "_ZN7android8hardware6camera6device4V1_024BnHwCameraDeviceCallback34_hidl_handleCallbackTimestampBatchEPNS_4hidl4base4V1_08BnHwBaseERKNS0_6ParcelEPSA_NSt3__18functionIFvRSA_EEE",
   "parameters" :
   [
    {
     "referenced_type" : "type-807"
    },
    {
     "referenced_type" : "type-806"
    },
    {
     "referenced_type" : "type-799"
    },
    {
     "referenced_type" : "type-1147"
    }
   ],
   "return_type" : "type-45",
   "source_file" : "/out/soong/.intermediates/hardware/interfaces/camera/device/1.0/android.hardware.camera.device@1.0_genc++_headers/gen/android/hardware/camera/device/1.0/BnHwCameraDeviceCallback.h"
  },
  {
   "access" : "private",
   "function_name" : "android::hardware::camera::device::V1_0::BnHwCameraDeviceCallback::ping",
   "linker_set_key" : "_ZN7android8hardware6camera6device4V1_024BnHwCameraDeviceCallback4pingEv",
   "parameters" :
   [
    {
     "is_this_ptr" : true,
     "referenced_type" : "type-1015"
    }
   ],
   "return_type" : "type-464",
   "source_file" : "/out/soong/.intermediates/hardware/interfaces/camera/device/1.0/android.hardware.camera.device@1.0_genc++_headers/gen/android/hardware/camera/device/1.0/BnHwCameraDeviceCallback.h"
  },
  {
   "function_name" : "android::hardware::camera::device::V1_0::BnHwCameraDeviceCallback::BnHwCameraDeviceCallback",
   "linker_set_key" : "_ZN7android8hardware6camera6device4V1_024BnHwCameraDeviceCallbackC1ERKNS_2spINS3_21ICameraDeviceCallbackEEE",
   "parameters" :
   [
    {
     "is_this_ptr" : true,
     "referenced_type" : "type-1015"
    },
    {
     "referenced_type" : "type-10"
    }
   ],
   "return_type" : "type-124",
   "source_file" : "/out/soong/.intermediates/hardware/interfaces/camera/device/1.0/android.hardware.camera.device@1.0_genc++_headers/gen/android/hardware/camera/device/1.0/BnHwCameraDeviceCallback.h"
  },
  {
   "function_name" : "android::hardware::camera::device::V1_0::BnHwCameraDeviceCallback::BnHwCameraDeviceCallback",
   "linker_set_key" : "_ZN7android8hardware6camera6device4V1_024BnHwCameraDeviceCallbackC2ERKNS_2spINS3_21ICameraDeviceCallbackEEE",
   "parameters" :
   [
    {
     "is_this_ptr" : true,
     "referenced_type" : "type-1015"
    },
    {
     "referenced_type" : "type-10"
    }
   ],
   "return_type" : "type-124",
   "source_file" : "/out/soong/.intermediates/hardware/interfaces/camera/device/1.0/android.hardware.camera.device@1.0_genc++_headers/gen/android/hardware/camera/device/1.0/BnHwCameraDeviceCallback.h"
  },
  {
   "function_name" : "android::hardware::camera::device::V1_0::BnHwCameraDeviceCallback::~BnHwCameraDeviceCallback",
   "linker_set_key" : "_ZN7android8hardware6camera6device4V1_024BnHwCameraDeviceCallbackD0Ev",
   "parameters" :
   [
    {
     "is_this_ptr" : true,
     "referenced_type" : "type-1015"
    }
   ],
   "return_type" : "type-124",
   "source_file" : "/out/soong/.intermediates/hardware/interfaces/camera/device/1.0/android.hardware.camera.device@1.0_genc++_headers/gen/android/hardware/camera/device/1.0/BnHwCameraDeviceCallback.h"
  },
  {
   "function_name" : "android::hardware::camera::device::V1_0::BnHwCameraDeviceCallback::~BnHwCameraDeviceCallback",
   "linker_set_key" : "_ZN7android8hardware6camera6device4V1_024BnHwCameraDeviceCallbackD1Ev",
   "parameters" :
   [
    {
     "is_this_ptr" : true,
     "referenced_type" : "type-1015"
    }
   ],
   "return_type" : "type-124",
   "source_file" : "/out/soong/.intermediates/hardware/interfaces/camera/device/1.0/android.hardware.camera.device@1.0_genc++_headers/gen/android/hardware/camera/device/1.0/BnHwCameraDeviceCallback.h"
  },
  {
   "function_name" : "android::hardware::camera::device::V1_0::BnHwCameraDeviceCallback::~BnHwCameraDeviceCallback",
   "linker_set_key" : "_ZN7android8hardware6camera6device4V1_024BnHwCameraDeviceCallbackD2Ev",
   "parameters" :
   [
    {
     "is_this_ptr" : true,
     "referenced_type" : "type-1015"
    }
   ],
   "return_type" : "type-124",
   "source_file" : "/out/soong/.intermediates/hardware/interfaces/camera/device/1.0/android.hardware.camera.device@1.0_genc++_headers/gen/android/hardware/camera/device/1.0/BnHwCameraDeviceCallback.h"
  },
  {
   "function_name" : "android::hardware::camera::device::V1_0::BpHwCameraDeviceCallback::linkToDeath",
   "linker_set_key" : "_ZN7android8hardware6camera6device4V1_024BpHwCameraDeviceCallback11linkToDeathERKNS_2spINS0_20hidl_death_recipientEEEy",
   "parameters" :
   [
    {
     "is_this_ptr" : true,
     "referenced_type" : "type-291"
    },
    {
     "referenced_type" : "type-913"
    },
    {
     "referenced_type" : "type-47"
    }
   ],
   "return_type" : "type-402",
   "source_file" : "/out/soong/.intermediates/hardware/interfaces/camera/device/1.0/android.hardware.camera.device@1.0_genc++_headers/gen/android/hardware/camera/device/1.0/BpHwCameraDeviceCallback.h"
  },
  {
   "function_name" : "android::hardware::camera::device::V1_0::BpHwCameraDeviceCallback::dataCallback",
   "linker_set_key" : "_ZN7android8hardware6camera6device4V1_024BpHwCameraDeviceCallback12dataCallbackENS3_15DataCallbackMsgEjjRKNS3_19CameraFrameMetadataE",
   "parameters" :
   [
    {
     "is_this_ptr" : true,
     "referenced_type" : "type-291"
    },
    {
     "referenced_type" : "type-955"
    },
    {
     "referenced_type" : "type-2"
    },
    {
     "referenced_type" : "type-2"
    },
    {
     "referenced_type" : "type-96"
    }
   ],
   "return_type" : "type-464",
   "source_file" : "/out/soong/.intermediates/hardware/interfaces/camera/device/1.0/android.hardware.camera.device@1.0_genc++_headers/gen/android/hardware/camera/device/1.0/BpHwCameraDeviceCallback.h"
  },
  {
   "function_name" : "android::hardware::camera::device::V1_0::BpHwCameraDeviceCallback::getDebugInfo",
   "linker_set_key" : "_ZN7android8hardware6camera6device4V1_024BpHwCameraDeviceCallback12getDebugInfoENSt3__18functionIFvRKNS_4hidl4base4V1_09DebugInfoEEEE",
   "parameters" :
   [
    {
     "is_this_ptr" : true,
     "referenced_type" : "type-291"
    },
    {
     "referenced_type" : "type-1148"
    }
   ],
   "return_type" : "type-464",
   "source_file" : "/out/soong/.intermediates/hardware/interfaces/camera/device/1.0/android.hardware.camera.device@1.0_genc++_headers/gen/android/hardware/camera/device/1.0/BpHwCameraDeviceCallback.h"
  },
  {
   "function_name" : "android::hardware::camera::device::V1_0::BpHwCameraDeviceCallback::getHashChain",
   "linker_set_key" : "_ZN7android8hardware6camera6device4V1_024BpHwCameraDeviceCallback12getHashChainENSt3__18functionIFvRKNS0_8hidl_vecINS0_10hidl_arrayIhLj32EJEEEEEEEE",
   "parameters" :
   [
    {
     "is_this_ptr" : true,
     "referenced_type" : "type-291"
    },
    {
     "referenced_type" : "type-1149"
    }
   ],
   "return_type" : "type-464",
   "source_file" : "/out/soong/.intermediates/hardware/interfaces/camera/device/1.0/android.hardware.camera.device@1.0_genc++_headers/gen/android/hardware/camera/device/1.0/BpHwCameraDeviceCallback.h"
  },
  {
   "function_name" : "android::hardware::camera::device::V1_0::BpHwCameraDeviceCallback::unlinkToDeath",
   "linker_set_key" : "_ZN7android8hardware6camera6device4V1_024BpHwCameraDeviceCallback13unlinkToDeathERKNS_2spINS0_20hidl_death_recipientEEE",
   "parameters" :
   [
    {
     "is_this_ptr" : true,
     "referenced_type" : "type-291"
    },
    {
     "referenced_type" : "type-913"
    }
   ],
   "return_type" : "type-402",
   "source_file" : "/out/soong/.intermediates/hardware/interfaces/camera/device/1.0/android.hardware.camera.device@1.0_genc++_headers/gen/android/hardware/camera/device/1.0/BpHwCameraDeviceCallback.h"
  },
  {
   "function_name" : "android::hardware::camera::device::V1_0::BpHwCameraDeviceCallback::interfaceChain",
   "linker_set_key" : "_ZN7android8hardware6camera6device4V1_024BpHwCameraDeviceCallback14interfaceChainENSt3__18functionIFvRKNS0_8hidl_vecINS0_11hidl_stringEEEEEE",
   "parameters" :
   [
    {
     "is_this_ptr" : true,
     "referenced_type" : "type-291"
    },
    {
     "referenced_type" : "type-1150"
    }
   ],
   "return_type" : "type-464",
   "source_file" : "/out/soong/.intermediates/hardware/interfaces/camera/device/1.0/android.hardware.camera.device@1.0_genc++_headers/gen/android/hardware/camera/device/1.0/BpHwCameraDeviceCallback.h"
  },
  {
   "function_name" : "android::hardware::camera::device::V1_0::BpHwCameraDeviceCallback::notifyCallback",
   "linker_set_key" : "_ZN7android8hardware6camera6device4V1_024BpHwCameraDeviceCallback14notifyCallbackENS3_17NotifyCallbackMsgEii",
   "parameters" :
   [
    {
     "is_this_ptr" : true,
     "referenced_type" : "type-291"
    },
    {
     "referenced_type" : "type-954"
    },
    {
     "referenced_type" : "type-45"
    },
    {
     "referenced_type" : "type-45"
    }
   ],
   "return_type" : "type-464",
   "source_file" : "/out/soong/.intermediates/hardware/interfaces/camera/device/1.0/android.hardware.camera.device@1.0_genc++_headers/gen/android/hardware/camera/device/1.0/BpHwCameraDeviceCallback.h"
  },
  {
   "function_name" : "android::hardware::camera::device::V1_0::BpHwCameraDeviceCallback::registerMemory",
   "linker_set_key" : "_ZN7android8hardware6camera6device4V1_024BpHwCameraDeviceCallback14registerMemoryERKNS0_11hidl_handleEjj",
   "parameters" :
   [
    {
     "is_this_ptr" : true,
     "referenced_type" : "type-291"
    },
    {
     "referenced_type" : "type-763"
    },
    {
     "referenced_type" : "type-2"
    },
    {
     "referenced_type" : "type-2"
    }
   ],
   "return_type" : "type-1052",
   "source_file" : "/out/soong/.intermediates/hardware/interfaces/camera/device/1.0/android.hardware.camera.device@1.0_genc++_headers/gen/android/hardware/camera/device/1.0/BpHwCameraDeviceCallback.h"
  },
  {
   "function_name" : "android::hardware::camera::device::V1_0::BpHwCameraDeviceCallback::unregisterMemory",
   "linker_set_key" : "_ZN7android8hardware6camera6device4V1_024BpHwCameraDeviceCallback16unregisterMemoryEj",
   "parameters" :
   [
    {
     "is_this_ptr" : true,
     "referenced_type" : "type-291"
    },
    {
     "referenced_type" : "type-2"
    }
   ],
   "return_type" : "type-464",
   "source_file" : "/out/soong/.intermediates/hardware/interfaces/camera/device/1.0/android.hardware.camera.device@1.0_genc++_headers/gen/android/hardware/camera/device/1.0/BpHwCameraDeviceCallback.h"
  },
  {
   "function_name" : "android::hardware::camera::device::V1_0::BpHwCameraDeviceCallback::_hidl_dataCallback",
   "linker_set_key" : "_ZN7android8hardware6camera6device4V1_024BpHwCameraDeviceCallback18_hidl_dataCallbackEPNS0_10IInterfaceEPNS0_7details16HidlInstrumentorENS3_15DataCallbackMsgEjjRKNS3_19CameraFrameMetadataE",
   "parameters" :
   [
    {
     "referenced_type" : "type-107"
    },
    {
     "referenced_type" : "type-268"
    },
    {
     "referenced_type" : "type-955"
    },
    {
     "referenced_type" : "type-2"
    },
    {
     "referenced_type" : "type-2"
    },
    {
     "referenced_type" : "type-96"
    }
   ],
   "return_type" : "type-464",
   "source_file" : "/out/soong/.intermediates/hardware/interfaces/camera/device/1.0/android.hardware.camera.device@1.0_genc++_headers/gen/android/hardware/camera/device/1.0/BpHwCameraDeviceCallback.h"
  },
  {
   "function_name" : "android::hardware::camera::device::V1_0::BpHwCameraDeviceCallback::interfaceDescriptor",
   "linker_set_key" : "_ZN7android8hardware6camera6device4V1_024BpHwCameraDeviceCallback19interfaceDescriptorENSt3__18functionIFvRKNS0_11hidl_stringEEEE",
   "parameters" :
   [
    {
     "is_this_ptr" : true,
     "referenced_type" : "type-291"
    },
    {
     "referenced_type" : "type-1151"
    }
   ],
   "return_type" : "type-464",
   "source_file" : "/out/soong/.intermediates/hardware/interfaces/camera/device/1.0/android.hardware.camera.device@1.0_genc++_headers/gen/android/hardware/camera/device/1.0/BpHwCameraDeviceCallback.h"
  },
  {
   "function_name" : "android::hardware::camera::device::V1_0::BpHwCameraDeviceCallback::_hidl_notifyCallback",
   "linker_set_key" : "_ZN7android8hardware6camera6device4V1_024BpHwCameraDeviceCallback20_hidl_notifyCallbackEPNS0_10IInterfaceEPNS0_7details16HidlInstrumentorENS3_17NotifyCallbackMsgEii",
   "parameters" :
   [
    {
     "referenced_type" : "type-107"
    },
    {
     "referenced_type" : "type-268"
    },
    {
     "referenced_type" : "type-954"
    },
    {
     "referenced_type" : "type-45"
    },
    {
     "referenced_type" : "type-45"
    }
   ],
   "return_type" : "type-464",
   "source_file" : "/out/soong/.intermediates/hardware/interfaces/camera/device/1.0/android.hardware.camera.device@1.0_genc++_headers/gen/android/hardware/camera/device/1.0/BpHwCameraDeviceCallback.h"
  },
  {
   "function_name" : "android::hardware::camera::device::V1_0::BpHwCameraDeviceCallback::_hidl_registerMemory",
   "linker_set_key" : "_ZN7android8hardware6camera6device4V1_024BpHwCameraDeviceCallback20_hidl_registerMemoryEPNS0_10IInterfaceEPNS0_7details16HidlInstrumentorERKNS0_11hidl_handleEjj",
   "parameters" :
   [
    {
     "referenced_type" : "type-107"
    },
    {
     "referenced_type" : "type-268"
    },
    {
     "referenced_type" : "type-763"
    },
    {
     "referenced_type" : "type-2"
    },
    {
     "referenced_type" : "type-2"
    }
   ],
   "return_type" : "type-1052",
   "source_file" : "/out/soong/.intermediates/hardware/interfaces/camera/device/1.0/android.hardware.camera.device@1.0_genc++_headers/gen/android/hardware/camera/device/1.0/BpHwCameraDeviceCallback.h"
  },
  {
   "function_name" : "android::hardware::camera::device::V1_0::BpHwCameraDeviceCallback::dataCallbackTimestamp",
   "linker_set_key" : "_ZN7android8hardware6camera6device4V1_024BpHwCameraDeviceCallback21dataCallbackTimestampENS3_15DataCallbackMsgEjjx",
   "parameters" :
   [
    {
     "is_this_ptr" : true,
     "referenced_type" : "type-291"
    },
    {
     "referenced_type" : "type-955"
    },
    {
     "referenced_type" : "type-2"
    },
    {
     "referenced_type" : "type-2"
    },
    {
     "referenced_type" : "type-48"
    }
   ],
   "return_type" : "type-464",
   "source_file" : "/out/soong/.intermediates/hardware/interfaces/camera/device/1.0/android.hardware.camera.device@1.0_genc++_headers/gen/android/hardware/camera/device/1.0/BpHwCameraDeviceCallback.h"
  },
  {
   "function_name" : "android::hardware::camera::device::V1_0::BpHwCameraDeviceCallback::notifySyspropsChanged",
   "linker_set_key" : "_ZN7android8hardware6camera6device4V1_024BpHwCameraDeviceCallback21notifySyspropsChangedEv",
   "parameters" :
   [
    {
     "is_this_ptr" : true,
     "referenced_type" : "type-291"
    }
   ],
   "return_type" : "type-464",
   "source_file" : "/out/soong/.intermediates/hardware/interfaces/camera/device/1.0/android.hardware.camera.device@1.0_genc++_headers/gen/android/hardware/camera/device/1.0/BpHwCameraDeviceCallback.h"
  },
  {
   "function_name" : "android::hardware::camera::device::V1_0::BpHwCameraDeviceCallback::setHALInstrumentation",
   "linker_set_key" : "_ZN7android8hardware6camera6device4V1_024BpHwCameraDeviceCallback21setHALInstrumentationEv",
   "parameters" :
   [
    {
     "is_this_ptr" : true,
     "referenced_type" : "type-291"
    }
   ],
   "return_type" : "type-464",
   "source_file" : "/out/soong/.intermediates/hardware/interfaces/camera/device/1.0/android.hardware.camera.device@1.0_genc++_headers/gen/android/hardware/camera/device/1.0/BpHwCameraDeviceCallback.h"
  },
  {
   "function_name" : "android::hardware::camera::device::V1_0::BpHwCameraDeviceCallback::_hidl_unregisterMemory",
   "linker_set_key" : "_ZN7android8hardware6camera6device4V1_024BpHwCameraDeviceCallback22_hidl_unregisterMemoryEPNS0_10IInterfaceEPNS0_7details16HidlInstrumentorEj",
   "parameters" :
   [
    {
     "referenced_type" : "type-107"
    },
    {
     "referenced_type" : "type-268"
    },
    {
     "referenced_type" : "type-2"
    }
   ],
   "return_type" : "type-464",
   "source_file" : "/out/soong/.intermediates/hardware/interfaces/camera/device/1.0/android.hardware.camera.device@1.0_genc++_headers/gen/android/hardware/camera/device/1.0/BpHwCameraDeviceCallback.h"
  },
  {
   "function_name" : "android::hardware::camera::device::V1_0::BpHwCameraDeviceCallback::handleCallbackTimestamp",
   "linker_set_key" : "_ZN7android8hardware6camera6device4V1_024BpHwCameraDeviceCallback23handleCallbackTimestampENS3_15DataCallbackMsgERKNS0_11hidl_handleEjjx",
   "parameters" :
   [
    {
     "is_this_ptr" : true,
     "referenced_type" : "type-291"
    },
    {
     "referenced_type" : "type-955"
    },
    {
     "referenced_type" : "type-763"
    },
    {
     "referenced_type" : "type-2"
    },
    {
     "referenced_type" : "type-2"
    },
    {
     "referenced_type" : "type-48"
    }
   ],
   "return_type" : "type-464",
   "source_file" : "/out/soong/.intermediates/hardware/interfaces/camera/device/1.0/android.hardware.camera.device@1.0_genc++_headers/gen/android/hardware/camera/device/1.0/BpHwCameraDeviceCallback.h"
  },
  {
   "function_name" : "android::hardware::camera::device::V1_0::BpHwCameraDeviceCallback::_hidl_dataCallbackTimestamp",
   "linker_set_key" : "_ZN7android8hardware6camera6device4V1_024BpHwCameraDeviceCallback27_hidl_dataCallbackTimestampEPNS0_10IInterfaceEPNS0_7details16HidlInstrumentorENS3_15DataCallbackMsgEjjx",
   "parameters" :
   [
    {
     "referenced_type" : "type-107"
    },
    {
     "referenced_type" : "type-268"
    },
    {
     "referenced_type" : "type-955"
    },
    {
     "referenced_type" : "type-2"
    },
    {
     "referenced_type" : "type-2"
    },
    {
     "referenced_type" : "type-48"
    }
   ],
   "return_type" : "type-464",
   "source_file" : "/out/soong/.intermediates/hardware/interfaces/camera/device/1.0/android.hardware.camera.device@1.0_genc++_headers/gen/android/hardware/camera/device/1.0/BpHwCameraDeviceCallback.h"
  },
  {
   "function_name" : "android::hardware::camera::device::V1_0::BpHwCameraDeviceCallback::handleCallbackTimestampBatch",
   "linker_set_key" : "_ZN7android8hardware6camera6device4V1_024BpHwCameraDeviceCallback28handleCallbackTimestampBatchENS3_15DataCallbackMsgERKNS0_8hidl_vecINS3_22HandleTimestampMessageEEE",
   "parameters" :
   [
    {
     "is_this_ptr" : true,
     "referenced_type" : "type-291"
    },
    {
     "referenced_type" : "type-955"
    },
    {
     "referenced_type" : "type-32"
    }
   ],
   "return_type" : "type-464",
   "source_file" : "/out/soong/.intermediates/hardware/interfaces/camera/device/1.0/android.hardware.camera.device@1.0_genc++_headers/gen/android/hardware/camera/device/1.0/BpHwCameraDeviceCallback.h"
  },
  {
   "function_name" : "android::hardware::camera::device::V1_0::BpHwCameraDeviceCallback::_hidl_handleCallbackTimestamp",
   "linker_set_key" : "_ZN7android8hardware6camera6device4V1_024BpHwCameraDeviceCallback29_hidl_handleCallbackTimestampEPNS0_10IInterfaceEPNS0_7details16HidlInstrumentorENS3_15DataCallbackMsgERKNS0_11hidl_handleEjjx",
   "parameters" :
   [
    {
     "referenced_type" : "type-107"
    },
    {
     "referenced_type" : "type-268"
    },
    {
     "referenced_type" : "type-955"
    },
    {
     "referenced_type" : "type-763"
    },
    {
     "referenced_type" : "type-2"
    },
    {
     "referenced_type" : "type-2"
    },
    {
     "referenced_type" : "type-48"
    }
   ],
   "return_type" : "type-464",
   "source_file" : "/out/soong/.intermediates/hardware/interfaces/camera/device/1.0/android.hardware.camera.device@1.0_genc++_headers/gen/android/hardware/camera/device/1.0/BpHwCameraDeviceCallback.h"
  },
  {
   "function_name" : "android::hardware::camera::device::V1_0::BpHwCameraDeviceCallback::_hidl_handleCallbackTimestampBatch",
   "linker_set_key" : "_ZN7android8hardware6camera6device4V1_024BpHwCameraDeviceCallback34_hidl_handleCallbackTimestampBatchEPNS0_10IInterfaceEPNS0_7details16HidlInstrumentorENS3_15DataCallbackMsgERKNS0_8hidl_vecINS3_22HandleTimestampMessageEEE",
   "parameters" :
   [
    {
     "referenced_type" : "type-107"
    },
    {
     "referenced_type" : "type-268"
    },
    {
     "referenced_type" : "type-955"
    },
    {
     "referenced_type" : "type-32"
    }
   ],
   "return_type" : "type-464",
   "source_file" : "/out/soong/.intermediates/hardware/interfaces/camera/device/1.0/android.hardware.camera.device@1.0_genc++_headers/gen/android/hardware/camera/device/1.0/BpHwCameraDeviceCallback.h"
  },
  {
   "function_name" : "android::hardware::camera::device::V1_0::BpHwCameraDeviceCallback::ping",
   "linker_set_key" : "_ZN7android8hardware6camera6device4V1_024BpHwCameraDeviceCallback4pingEv",
   "parameters" :
   [
    {
     "is_this_ptr" : true,
     "referenced_type" : "type-291"
    }
   ],
   "return_type" : "type-464",
   "source_file" : "/out/soong/.intermediates/hardware/interfaces/camera/device/1.0/android.hardware.camera.device@1.0_genc++_headers/gen/android/hardware/camera/device/1.0/BpHwCameraDeviceCallback.h"
  },
  {
   "function_name" : "android::hardware::camera::device::V1_0::BpHwCameraDeviceCallback::debug",
   "linker_set_key" : "_ZN7android8hardware6camera6device4V1_024BpHwCameraDeviceCallback5debugERKNS0_11hidl_handleERKNS0_8hidl_vecINS0_11hidl_stringEEE",
   "parameters" :
   [
    {
     "is_this_ptr" : true,
     "referenced_type" : "type-291"
    },
    {
     "referenced_type" : "type-763"
    },
    {
     "referenced_type" : "type-685"
    }
   ],
   "return_type" : "type-464",
   "source_file" : "/out/soong/.intermediates/hardware/interfaces/camera/device/1.0/android.hardware.camera.device@1.0_genc++_headers/gen/android/hardware/camera/device/1.0/BpHwCameraDeviceCallback.h"
  },
  {
   "function_name" : "android::hardware::camera::device::V1_0::BpHwCameraDeviceCallback::BpHwCameraDeviceCallback",
   "linker_set_key" : "_ZN7android8hardware6camera6device4V1_024BpHwCameraDeviceCallbackC1ERKNS_2spINS0_7IBinderEEE",
   "parameters" :
   [
    {
     "is_this_ptr" : true,
     "referenced_type" : "type-291"
    },
    {
     "referenced_type" : "type-141"
    }
   ],
   "return_type" : "type-124",
   "source_file" : "/out/soong/.intermediates/hardware/interfaces/camera/device/1.0/android.hardware.camera.device@1.0_genc++_headers/gen/android/hardware/camera/device/1.0/BpHwCameraDeviceCallback.h"
  },
  {
   "function_name" : "android::hardware::camera::device::V1_0::BpHwCameraDeviceCallback::BpHwCameraDeviceCallback",
   "linker_set_key" : "_ZN7android8hardware6camera6device4V1_024BpHwCameraDeviceCallbackC2ERKNS_2spINS0_7IBinderEEE",
   "parameters" :
   [
    {
     "is_this_ptr" : true,
     "referenced_type" : "type-291"
    },
    {
     "referenced_type" : "type-141"
    }
   ],
   "return_type" : "type-124",
   "source_file" : "/out/soong/.intermediates/hardware/interfaces/camera/device/1.0/android.hardware.camera.device@1.0_genc++_headers/gen/android/hardware/camera/device/1.0/BpHwCameraDeviceCallback.h"
  },
  {
   "function_name" : "android::hardware::camera::device::V1_0::ICameraDevicePreviewCallback::getService",
   "linker_set_key" : "_ZN7android8hardware6camera6device4V1_028ICameraDevicePreviewCallback10getServiceERKNSt3__112basic_stringIcNS5_11char_traitsIcEENS5_9allocatorIcEEEEb",
   "parameters" :
   [
    {
     "default_arg" : true,
     "referenced_type" : "type-187"
    },
    {
     "default_arg" : true,
     "referenced_type" : "type-3"
    }
   ],
   "return_type" : "type-15",
   "source_file" : "/out/soong/.intermediates/hardware/interfaces/camera/device/1.0/android.hardware.camera.device@1.0_genc++_headers/gen/android/hardware/camera/device/1.0/ICameraDevicePreviewCallback.h"
  },
  {
   "function_name" : "android::hardware::camera::device::V1_0::ICameraDevicePreviewCallback::linkToDeath",
   "linker_set_key" : "_ZN7android8hardware6camera6device4V1_028ICameraDevicePreviewCallback11linkToDeathERKNS_2spINS0_20hidl_death_recipientEEEy",
   "parameters" :
   [
    {
     "is_this_ptr" : true,
     "referenced_type" : "type-16"
    },
    {
     "referenced_type" : "type-913"
    },
    {
     "referenced_type" : "type-47"
    }
   ],
   "return_type" : "type-402",
   "source_file" : "/out/soong/.intermediates/hardware/interfaces/camera/device/1.0/android.hardware.camera.device@1.0_genc++_headers/gen/android/hardware/camera/device/1.0/ICameraDevicePreviewCallback.h"
  },
  {
   "function_name" : "android::hardware::camera::device::V1_0::ICameraDevicePreviewCallback::getDebugInfo",
   "linker_set_key" : "_ZN7android8hardware6camera6device4V1_028ICameraDevicePreviewCallback12getDebugInfoENSt3__18functionIFvRKNS_4hidl4base4V1_09DebugInfoEEEE",
   "parameters" :
   [
    {
     "is_this_ptr" : true,
     "referenced_type" : "type-16"
    },
    {
     "referenced_type" : "type-1152"
    }
   ],
   "return_type" : "type-464",
   "source_file" : "/out/soong/.intermediates/hardware/interfaces/camera/device/1.0/android.hardware.camera.device@1.0_genc++_headers/gen/android/hardware/camera/device/1.0/ICameraDevicePreviewCallback.h"
  },
  {
   "function_name" : "android::hardware::camera::device::V1_0::ICameraDevicePreviewCallback::getHashChain",
   "linker_set_key" : "_ZN7android8hardware6camera6device4V1_028ICameraDevicePreviewCallback12getHashChainENSt3__18functionIFvRKNS0_8hidl_vecINS0_10hidl_arrayIhLj32EJEEEEEEEE",
   "parameters" :
   [
    {
     "is_this_ptr" : true,
     "referenced_type" : "type-16"
    },
    {
     "referenced_type" : "type-1153"
    }
   ],
   "return_type" : "type-464",
   "source_file" : "/out/soong/.intermediates/hardware/interfaces/camera/device/1.0/android.hardware.camera.device@1.0_genc++_headers/gen/android/hardware/camera/device/1.0/ICameraDevicePreviewCallback.h"
  },
  {
   "function_name" : "android::hardware::camera::device::V1_0::ICameraDevicePreviewCallback::tryGetService",
   "linker_set_key" : "_ZN7android8hardware6camera6device4V1_028ICameraDevicePreviewCallback13tryGetServiceERKNSt3__112basic_stringIcNS5_11char_traitsIcEENS5_9allocatorIcEEEEb",
   "parameters" :
   [
    {
     "default_arg" : true,
     "referenced_type" : "type-187"
    },
    {
     "default_arg" : true,
     "referenced_type" : "type-3"
    }
   ],
   "return_type" : "type-15",
   "source_file" : "/out/soong/.intermediates/hardware/interfaces/camera/device/1.0/android.hardware.camera.device@1.0_genc++_headers/gen/android/hardware/camera/device/1.0/ICameraDevicePreviewCallback.h"
  },
  {
   "function_name" : "android::hardware::camera::device::V1_0::ICameraDevicePreviewCallback::unlinkToDeath",
   "linker_set_key" : "_ZN7android8hardware6camera6device4V1_028ICameraDevicePreviewCallback13unlinkToDeathERKNS_2spINS0_20hidl_death_recipientEEE",
   "parameters" :
   [
    {
     "is_this_ptr" : true,
     "referenced_type" : "type-16"
    },
    {
     "referenced_type" : "type-913"
    }
   ],
   "return_type" : "type-402",
   "source_file" : "/out/soong/.intermediates/hardware/interfaces/camera/device/1.0/android.hardware.camera.device@1.0_genc++_headers/gen/android/hardware/camera/device/1.0/ICameraDevicePreviewCallback.h"
  },
  {
   "function_name" : "android::hardware::camera::device::V1_0::ICameraDevicePreviewCallback::interfaceChain",
   "linker_set_key" : "_ZN7android8hardware6camera6device4V1_028ICameraDevicePreviewCallback14interfaceChainENSt3__18functionIFvRKNS0_8hidl_vecINS0_11hidl_stringEEEEEE",
   "parameters" :
   [
    {
     "is_this_ptr" : true,
     "referenced_type" : "type-16"
    },
    {
     "referenced_type" : "type-1154"
    }
   ],
   "return_type" : "type-464",
   "source_file" : "/out/soong/.intermediates/hardware/interfaces/camera/device/1.0/android.hardware.camera.device@1.0_genc++_headers/gen/android/hardware/camera/device/1.0/ICameraDevicePreviewCallback.h"
  },
  {
   "function_name" : "android::hardware::camera::device::V1_0::ICameraDevicePreviewCallback::registerAsService",
   "linker_set_key" : "_ZN7android8hardware6camera6device4V1_028ICameraDevicePreviewCallback17registerAsServiceERKNSt3__112basic_stringIcNS5_11char_traitsIcEENS5_9allocatorIcEEEE",
   "parameters" :
   [
    {
     "is_this_ptr" : true,
     "referenced_type" : "type-16"
    },
    {
     "default_arg" : true,
     "referenced_type" : "type-187"
    }
   ],
   "return_type" : "type-45",
   "source_file" : "/out/soong/.intermediates/hardware/interfaces/camera/device/1.0/android.hardware.camera.device@1.0_genc++_headers/gen/android/hardware/camera/device/1.0/ICameraDevicePreviewCallback.h"
  },
  {
   "function_name" : "android::hardware::camera::device::V1_0::ICameraDevicePreviewCallback::interfaceDescriptor",
   "linker_set_key" : "_ZN7android8hardware6camera6device4V1_028ICameraDevicePreviewCallback19interfaceDescriptorENSt3__18functionIFvRKNS0_11hidl_stringEEEE",
   "parameters" :
   [
    {
     "is_this_ptr" : true,
     "referenced_type" : "type-16"
    },
    {
     "referenced_type" : "type-1155"
    }
   ],
   "return_type" : "type-464",
   "source_file" : "/out/soong/.intermediates/hardware/interfaces/camera/device/1.0/android.hardware.camera.device@1.0_genc++_headers/gen/android/hardware/camera/device/1.0/ICameraDevicePreviewCallback.h"
  },
  {
   "function_name" : "android::hardware::camera::device::V1_0::ICameraDevicePreviewCallback::notifySyspropsChanged",
   "linker_set_key" : "_ZN7android8hardware6camera6device4V1_028ICameraDevicePreviewCallback21notifySyspropsChangedEv",
   "parameters" :
   [
    {
     "is_this_ptr" : true,
     "referenced_type" : "type-16"
    }
   ],
   "return_type" : "type-464",
   "source_file" : "/out/soong/.intermediates/hardware/interfaces/camera/device/1.0/android.hardware.camera.device@1.0_genc++_headers/gen/android/hardware/camera/device/1.0/ICameraDevicePreviewCallback.h"
  },
  {
   "function_name" : "android::hardware::camera::device::V1_0::ICameraDevicePreviewCallback::setHALInstrumentation",
   "linker_set_key" : "_ZN7android8hardware6camera6device4V1_028ICameraDevicePreviewCallback21setHALInstrumentationEv",
   "parameters" :
   [
    {
     "is_this_ptr" : true,
     "referenced_type" : "type-16"
    }
   ],
   "return_type" : "type-464",
   "source_file" : "/out/soong/.intermediates/hardware/interfaces/camera/device/1.0/android.hardware.camera.device@1.0_genc++_headers/gen/android/hardware/camera/device/1.0/ICameraDevicePreviewCallback.h"
  },
  {
   "function_name" : "android::hardware::camera::device::V1_0::ICameraDevicePreviewCallback::registerForNotifications",
   "linker_set_key" : "_ZN7android8hardware6camera6device4V1_028ICameraDevicePreviewCallback24registerForNotificationsERKNSt3__112basic_stringIcNS5_11char_traitsIcEENS5_9allocatorIcEEEERKNS_2spINS_4hidl7manager4V1_020IServiceNotificationEEE",
   "parameters" :
   [
    {
     "referenced_type" : "type-187"
    },
    {
     "referenced_type" : "type-1009"
    }
   ],
   "return_type" : "type-3",
   "source_file" : "/out/soong/.intermediates/hardware/interfaces/camera/device/1.0/android.hardware.camera.device@1.0_genc++_headers/gen/android/hardware/camera/device/1.0/ICameraDevicePreviewCallback.h"
  },
  {
   "function_name" : "android::hardware::camera::device::V1_0::ICameraDevicePreviewCallback::ping",
   "linker_set_key" : "_ZN7android8hardware6camera6device4V1_028ICameraDevicePreviewCallback4pingEv",
   "parameters" :
   [
    {
     "is_this_ptr" : true,
     "referenced_type" : "type-16"
    }
   ],
   "return_type" : "type-464",
   "source_file" : "/out/soong/.intermediates/hardware/interfaces/camera/device/1.0/android.hardware.camera.device@1.0_genc++_headers/gen/android/hardware/camera/device/1.0/ICameraDevicePreviewCallback.h"
  },
  {
   "function_name" : "android::hardware::camera::device::V1_0::ICameraDevicePreviewCallback::debug",
   "linker_set_key" : "_ZN7android8hardware6camera6device4V1_028ICameraDevicePreviewCallback5debugERKNS0_11hidl_handleERKNS0_8hidl_vecINS0_11hidl_stringEEE",
   "parameters" :
   [
    {
     "is_this_ptr" : true,
     "referenced_type" : "type-16"
    },
    {
     "referenced_type" : "type-763"
    },
    {
     "referenced_type" : "type-685"
    }
   ],
   "return_type" : "type-464",
   "source_file" : "/out/soong/.intermediates/hardware/interfaces/camera/device/1.0/android.hardware.camera.device@1.0_genc++_headers/gen/android/hardware/camera/device/1.0/ICameraDevicePreviewCallback.h"
  },
  {
   "function_name" : "android::hardware::camera::device::V1_0::ICameraDevicePreviewCallback::castFrom",
   "linker_set_key" : "_ZN7android8hardware6camera6device4V1_028ICameraDevicePreviewCallback8castFromERKNS_2spINS_4hidl4base4V1_05IBaseEEEb",
   "parameters" :
   [
    {
     "referenced_type" : "type-1047"
    },
    {
     "default_arg" : true,
     "referenced_type" : "type-3"
    }
   ],
   "return_type" : "type-159",
   "source_file" : "/out/soong/.intermediates/hardware/interfaces/camera/device/1.0/android.hardware.camera.device@1.0_genc++_headers/gen/android/hardware/camera/device/1.0/ICameraDevicePreviewCallback.h"
  },
  {
   "function_name" : "android::hardware::camera::device::V1_0::ICameraDevicePreviewCallback::castFrom",
   "linker_set_key" : "_ZN7android8hardware6camera6device4V1_028ICameraDevicePreviewCallback8castFromERKNS_2spIS4_EEb",
   "parameters" :
   [
    {
     "referenced_type" : "type-52"
    },
    {
     "default_arg" : true,
     "referenced_type" : "type-3"
    }
   ],
   "return_type" : "type-159",
   "source_file" : "/out/soong/.intermediates/hardware/interfaces/camera/device/1.0/android.hardware.camera.device@1.0_genc++_headers/gen/android/hardware/camera/device/1.0/ICameraDevicePreviewCallback.h"
  },
  {
   "access" : "private",
   "function_name" : "android::hardware::camera::device::V1_0::BsCameraDevicePreviewCallback::addOnewayTask",
   "linker_set_key" : "_ZN7android8hardware6camera6device4V1_029BsCameraDevicePreviewCallback13addOnewayTaskENSt3__18functionIFvvEEE",
   "parameters" :
   [
    {
     "is_this_ptr" : true,
     "referenced_type" : "type-158"
    },
    {
     "referenced_type" : "type-1158"
    }
   ],
   "return_type" : "type-464",
   "source_file" : "/out/soong/.intermediates/hardware/interfaces/camera/device/1.0/android.hardware.camera.device@1.0_genc++_headers/gen/android/hardware/camera/device/1.0/BsCameraDevicePreviewCallback.h"
  },
  {
   "function_name" : "android::hardware::camera::device::V1_0::BsCameraDevicePreviewCallback::BsCameraDevicePreviewCallback",
   "linker_set_key" : "_ZN7android8hardware6camera6device4V1_029BsCameraDevicePreviewCallbackC1ENS_2spINS3_28ICameraDevicePreviewCallbackEEE",
   "parameters" :
   [
    {
     "is_this_ptr" : true,
     "referenced_type" : "type-158"
    },
    {
     "referenced_type" : "type-14"
    }
   ],
   "return_type" : "type-124",
   "source_file" : "/out/soong/.intermediates/hardware/interfaces/camera/device/1.0/android.hardware.camera.device@1.0_genc++_headers/gen/android/hardware/camera/device/1.0/BsCameraDevicePreviewCallback.h"
  },
  {
   "function_name" : "android::hardware::camera::device::V1_0::BsCameraDevicePreviewCallback::BsCameraDevicePreviewCallback",
   "linker_set_key" : "_ZN7android8hardware6camera6device4V1_029BsCameraDevicePreviewCallbackC2ENS_2spINS3_28ICameraDevicePreviewCallbackEEE",
   "parameters" :
   [
    {
     "is_this_ptr" : true,
     "referenced_type" : "type-158"
    },
    {
     "referenced_type" : "type-14"
    }
   ],
   "return_type" : "type-124",
   "source_file" : "/out/soong/.intermediates/hardware/interfaces/camera/device/1.0/android.hardware.camera.device@1.0_genc++_headers/gen/android/hardware/camera/device/1.0/BsCameraDevicePreviewCallback.h"
  },
  {
   "function_name" : "android::hardware::camera::device::V1_0::BnHwCameraDevicePreviewCallback::onTransact",
   "linker_set_key" : "_ZN7android8hardware6camera6device4V1_031BnHwCameraDevicePreviewCallback10onTransactEjRKNS0_6ParcelEPS5_jNSt3__18functionIFvRS5_EEE",
   "parameters" :
   [
    {
     "is_this_ptr" : true,
     "referenced_type" : "type-1018"
    },
    {
     "referenced_type" : "type-2"
    },
    {
     "referenced_type" : "type-806"
    },
    {
     "referenced_type" : "type-799"
    },
    {
     "default_arg" : true,
     "referenced_type" : "type-2"
    },
    {
     "default_arg" : true,
     "referenced_type" : "type-1163"
    }
   ],
   "return_type" : "type-45",
   "source_file" : "/out/soong/.intermediates/hardware/interfaces/camera/device/1.0/android.hardware.camera.device@1.0_genc++_headers/gen/android/hardware/camera/device/1.0/BnHwCameraDevicePreviewCallback.h"
  },
  {
   "access" : "private",
   "function_name" : "android::hardware::camera::device::V1_0::BnHwCameraDevicePreviewCallback::getDebugInfo",
   "linker_set_key" : "_ZN7android8hardware6camera6device4V1_031BnHwCameraDevicePreviewCallback12getDebugInfoENSt3__18functionIFvRKNS_4hidl4base4V1_09DebugInfoEEEE",
   "parameters" :
   [
    {
     "is_this_ptr" : true,
     "referenced_type" : "type-1018"
    },
    {
     "referenced_type" : "type-1164"
    }
   ],
   "return_type" : "type-464",
   "source_file" : "/out/soong/.intermediates/hardware/interfaces/camera/device/1.0/android.hardware.camera.device@1.0_genc++_headers/gen/android/hardware/camera/device/1.0/BnHwCameraDevicePreviewCallback.h"
  },
  {
   "function_name" : "android::hardware::camera::device::V1_0::BnHwCameraDevicePreviewCallback::_hidl_setCrop",
   "linker_set_key" : "_ZN7android8hardware6camera6device4V1_031BnHwCameraDevicePreviewCallback13_hidl_setCropEPNS_4hidl4base4V1_08BnHwBaseERKNS0_6ParcelEPSA_NSt3__18functionIFvRSA_EEE",
   "parameters" :
   [
    {
     "referenced_type" : "type-807"
    },
    {
     "referenced_type" : "type-806"
    },
    {
     "referenced_type" : "type-799"
    },
    {
     "referenced_type" : "type-1165"
    }
   ],
   "return_type" : "type-45",
   "source_file" : "/out/soong/.intermediates/hardware/interfaces/camera/device/1.0/android.hardware.camera.device@1.0_genc++_headers/gen/android/hardware/camera/device/1.0/BnHwCameraDevicePreviewCallback.h"
  },
  {
   "function_name" : "android::hardware::camera::device::V1_0::BnHwCameraDevicePreviewCallback::_hidl_setUsage",
   "linker_set_key" : "_ZN7android8hardware6camera6device4V1_031BnHwCameraDevicePreviewCallback14_hidl_setUsageEPNS_4hidl4base4V1_08BnHwBaseERKNS0_6ParcelEPSA_NSt3__18functionIFvRSA_EEE",
   "parameters" :
   [
    {
     "referenced_type" : "type-807"
    },
    {
     "referenced_type" : "type-806"
    },
    {
     "referenced_type" : "type-799"
    },
    {
     "referenced_type" : "type-1166"
    }
   ],
   "return_type" : "type-45",
   "source_file" : "/out/soong/.intermediates/hardware/interfaces/camera/device/1.0/android.hardware.camera.device@1.0_genc++_headers/gen/android/hardware/camera/device/1.0/BnHwCameraDevicePreviewCallback.h"
  },
  {
   "function_name" : "android::hardware::camera::device::V1_0::BnHwCameraDevicePreviewCallback::_hidl_cancelBuffer",
   "linker_set_key" : "_ZN7android8hardware6camera6device4V1_031BnHwCameraDevicePreviewCallback18_hidl_cancelBufferEPNS_4hidl4base4V1_08BnHwBaseERKNS0_6ParcelEPSA_NSt3__18functionIFvRSA_EEE",
   "parameters" :
   [
    {
     "referenced_type" : "type-807"
    },
    {
     "referenced_type" : "type-806"
    },
    {
     "referenced_type" : "type-799"
    },
    {
     "referenced_type" : "type-1167"
    }
   ],
   "return_type" : "type-45",
   "source_file" : "/out/soong/.intermediates/hardware/interfaces/camera/device/1.0/android.hardware.camera.device@1.0_genc++_headers/gen/android/hardware/camera/device/1.0/BnHwCameraDevicePreviewCallback.h"
  },
  {
   "function_name" : "android::hardware::camera::device::V1_0::BnHwCameraDevicePreviewCallback::_hidl_setTimestamp",
   "linker_set_key" : "_ZN7android8hardware6camera6device4V1_031BnHwCameraDevicePreviewCallback18_hidl_setTimestampEPNS_4hidl4base4V1_08BnHwBaseERKNS0_6ParcelEPSA_NSt3__18functionIFvRSA_EEE",
   "parameters" :
   [
    {
     "referenced_type" : "type-807"
    },
    {
     "referenced_type" : "type-806"
    },
    {
     "referenced_type" : "type-799"
    },
    {
     "referenced_type" : "type-1168"
    }
   ],
   "return_type" : "type-45",
   "source_file" : "/out/soong/.intermediates/hardware/interfaces/camera/device/1.0/android.hardware.camera.device@1.0_genc++_headers/gen/android/hardware/camera/device/1.0/BnHwCameraDevicePreviewCallback.h"
  },
  {
   "function_name" : "android::hardware::camera::device::V1_0::BnHwCameraDevicePreviewCallback::_hidl_dequeueBuffer",
   "linker_set_key" : "_ZN7android8hardware6camera6device4V1_031BnHwCameraDevicePreviewCallback19_hidl_dequeueBufferEPNS_4hidl4base4V1_08BnHwBaseERKNS0_6ParcelEPSA_NSt3__18functionIFvRSA_EEE",
   "parameters" :
   [
    {
     "referenced_type" : "type-807"
    },
    {
     "referenced_type" : "type-806"
    },
    {
     "referenced_type" : "type-799"
    },
    {
     "referenced_type" : "type-1169"
    }
   ],
   "return_type" : "type-45",
   "source_file" : "/out/soong/.intermediates/hardware/interfaces/camera/device/1.0/android.hardware.camera.device@1.0_genc++_headers/gen/android/hardware/camera/device/1.0/BnHwCameraDevicePreviewCallback.h"
  },
  {
   "function_name" : "android::hardware::camera::device::V1_0::BnHwCameraDevicePreviewCallback::_hidl_enqueueBuffer",
   "linker_set_key" : "_ZN7android8hardware6camera6device4V1_031BnHwCameraDevicePreviewCallback19_hidl_enqueueBufferEPNS_4hidl4base4V1_08BnHwBaseERKNS0_6ParcelEPSA_NSt3__18functionIFvRSA_EEE",
   "parameters" :
   [
    {
     "referenced_type" : "type-807"
    },
    {
     "referenced_type" : "type-806"
    },
    {
     "referenced_type" : "type-799"
    },
    {
     "referenced_type" : "type-1170"
    }
   ],
   "return_type" : "type-45",
   "source_file" : "/out/soong/.intermediates/hardware/interfaces/camera/device/1.0/android.hardware.camera.device@1.0_genc++_headers/gen/android/hardware/camera/device/1.0/BnHwCameraDevicePreviewCallback.h"
  },
  {
   "function_name" : "android::hardware::camera::device::V1_0::BnHwCameraDevicePreviewCallback::_hidl_setBufferCount",
   "linker_set_key" : "_ZN7android8hardware6camera6device4V1_031BnHwCameraDevicePreviewCallback20_hidl_setBufferCountEPNS_4hidl4base4V1_08BnHwBaseERKNS0_6ParcelEPSA_NSt3__18functionIFvRSA_EEE",
   "parameters" :
   [
    {
     "referenced_type" : "type-807"
    },
    {
     "referenced_type" : "type-806"
    },
    {
     "referenced_type" : "type-799"
    },
    {
     "referenced_type" : "type-1171"
    }
   ],
   "return_type" : "type-45",
   "source_file" : "/out/soong/.intermediates/hardware/interfaces/camera/device/1.0/android.hardware.camera.device@1.0_genc++_headers/gen/android/hardware/camera/device/1.0/BnHwCameraDevicePreviewCallback.h"
  },
  {
   "function_name" : "android::hardware::camera::device::V1_0::BnHwCameraDevicePreviewCallback::_hidl_setSwapInterval",
   "linker_set_key" : "_ZN7android8hardware6camera6device4V1_031BnHwCameraDevicePreviewCallback21_hidl_setSwapIntervalEPNS_4hidl4base4V1_08BnHwBaseERKNS0_6ParcelEPSA_NSt3__18functionIFvRSA_EEE",
   "parameters" :
   [
    {
     "referenced_type" : "type-807"
    },
    {
     "referenced_type" : "type-806"
    },
    {
     "referenced_type" : "type-799"
    },
    {
     "referenced_type" : "type-1172"
    }
   ],
   "return_type" : "type-45",
   "source_file" : "/out/soong/.intermediates/hardware/interfaces/camera/device/1.0/android.hardware.camera.device@1.0_genc++_headers/gen/android/hardware/camera/device/1.0/BnHwCameraDevicePreviewCallback.h"
  },
  {
   "function_name" : "android::hardware::camera::device::V1_0::BnHwCameraDevicePreviewCallback::_hidl_setBuffersGeometry",
   "linker_set_key" : "_ZN7android8hardware6camera6device4V1_031BnHwCameraDevicePreviewCallback24_hidl_setBuffersGeometryEPNS_4hidl4base4V1_08BnHwBaseERKNS0_6ParcelEPSA_NSt3__18functionIFvRSA_EEE",
   "parameters" :
   [
    {
     "referenced_type" : "type-807"
    },
    {
     "referenced_type" : "type-806"
    },
    {
     "referenced_type" : "type-799"
    },
    {
     "referenced_type" : "type-1173"
    }
   ],
   "return_type" : "type-45",
   "source_file" : "/out/soong/.intermediates/hardware/interfaces/camera/device/1.0/android.hardware.camera.device@1.0_genc++_headers/gen/android/hardware/camera/device/1.0/BnHwCameraDevicePreviewCallback.h"
  },
  {
   "function_name" : "android::hardware::camera::device::V1_0::BnHwCameraDevicePreviewCallback::_hidl_getMinUndequeuedBufferCount",
   "linker_set_key" : "_ZN7android8hardware6camera6device4V1_031BnHwCameraDevicePreviewCallback33_hidl_getMinUndequeuedBufferCountEPNS_4hidl4base4V1_08BnHwBaseERKNS0_6ParcelEPSA_NSt3__18functionIFvRSA_EEE",
   "parameters" :
   [
    {
     "referenced_type" : "type-807"
    },
    {
     "referenced_type" : "type-806"
    },
    {
     "referenced_type" : "type-799"
    },
    {
     "referenced_type" : "type-1174"
    }
   ],
   "return_type" : "type-45",
   "source_file" : "/out/soong/.intermediates/hardware/interfaces/camera/device/1.0/android.hardware.camera.device@1.0_genc++_headers/gen/android/hardware/camera/device/1.0/BnHwCameraDevicePreviewCallback.h"
  },
  {
   "access" : "private",
   "function_name" : "android::hardware::camera::device::V1_0::BnHwCameraDevicePreviewCallback::ping",
   "linker_set_key" : "_ZN7android8hardware6camera6device4V1_031BnHwCameraDevicePreviewCallback4pingEv",
   "parameters" :
   [
    {
     "is_this_ptr" : true,
     "referenced_type" : "type-1018"
    }
   ],
   "return_type" : "type-464",
   "source_file" : "/out/soong/.intermediates/hardware/interfaces/camera/device/1.0/android.hardware.camera.device@1.0_genc++_headers/gen/android/hardware/camera/device/1.0/BnHwCameraDevicePreviewCallback.h"
  },
  {
   "function_name" : "android::hardware::camera::device::V1_0::BnHwCameraDevicePreviewCallback::BnHwCameraDevicePreviewCallback",
   "linker_set_key" : "_ZN7android8hardware6camera6device4V1_031BnHwCameraDevicePreviewCallbackC1ERKNS_2spINS3_28ICameraDevicePreviewCallbackEEE",
   "parameters" :
   [
    {
     "is_this_ptr" : true,
     "referenced_type" : "type-1018"
    },
    {
     "referenced_type" : "type-52"
    }
   ],
   "return_type" : "type-124",
   "source_file" : "/out/soong/.intermediates/hardware/interfaces/camera/device/1.0/android.hardware.camera.device@1.0_genc++_headers/gen/android/hardware/camera/device/1.0/BnHwCameraDevicePreviewCallback.h"
  },
  {
   "function_name" : "android::hardware::camera::device::V1_0::BnHwCameraDevicePreviewCallback::BnHwCameraDevicePreviewCallback",
   "linker_set_key" : "_ZN7android8hardware6camera6device4V1_031BnHwCameraDevicePreviewCallbackC2ERKNS_2spINS3_28ICameraDevicePreviewCallbackEEE",
   "parameters" :
   [
    {
     "is_this_ptr" : true,
     "referenced_type" : "type-1018"
    },
    {
     "referenced_type" : "type-52"
    }
   ],
   "return_type" : "type-124",
   "source_file" : "/out/soong/.intermediates/hardware/interfaces/camera/device/1.0/android.hardware.camera.device@1.0_genc++_headers/gen/android/hardware/camera/device/1.0/BnHwCameraDevicePreviewCallback.h"
  },
  {
   "function_name" : "android::hardware::camera::device::V1_0::BnHwCameraDevicePreviewCallback::~BnHwCameraDevicePreviewCallback",
   "linker_set_key" : "_ZN7android8hardware6camera6device4V1_031BnHwCameraDevicePreviewCallbackD0Ev",
   "parameters" :
   [
    {
     "is_this_ptr" : true,
     "referenced_type" : "type-1018"
    }
   ],
   "return_type" : "type-124",
   "source_file" : "/out/soong/.intermediates/hardware/interfaces/camera/device/1.0/android.hardware.camera.device@1.0_genc++_headers/gen/android/hardware/camera/device/1.0/BnHwCameraDevicePreviewCallback.h"
  },
  {
   "function_name" : "android::hardware::camera::device::V1_0::BnHwCameraDevicePreviewCallback::~BnHwCameraDevicePreviewCallback",
   "linker_set_key" : "_ZN7android8hardware6camera6device4V1_031BnHwCameraDevicePreviewCallbackD1Ev",
   "parameters" :
   [
    {
     "is_this_ptr" : true,
     "referenced_type" : "type-1018"
    }
   ],
   "return_type" : "type-124",
   "source_file" : "/out/soong/.intermediates/hardware/interfaces/camera/device/1.0/android.hardware.camera.device@1.0_genc++_headers/gen/android/hardware/camera/device/1.0/BnHwCameraDevicePreviewCallback.h"
  },
  {
   "function_name" : "android::hardware::camera::device::V1_0::BnHwCameraDevicePreviewCallback::~BnHwCameraDevicePreviewCallback",
   "linker_set_key" : "_ZN7android8hardware6camera6device4V1_031BnHwCameraDevicePreviewCallbackD2Ev",
   "parameters" :
   [
    {
     "is_this_ptr" : true,
     "referenced_type" : "type-1018"
    }
   ],
   "return_type" : "type-124",
   "source_file" : "/out/soong/.intermediates/hardware/interfaces/camera/device/1.0/android.hardware.camera.device@1.0_genc++_headers/gen/android/hardware/camera/device/1.0/BnHwCameraDevicePreviewCallback.h"
  },
  {
   "function_name" : "android::hardware::camera::device::V1_0::BpHwCameraDevicePreviewCallback::linkToDeath",
   "linker_set_key" : "_ZN7android8hardware6camera6device4V1_031BpHwCameraDevicePreviewCallback11linkToDeathERKNS_2spINS0_20hidl_death_recipientEEEy",
   "parameters" :
   [
    {
     "is_this_ptr" : true,
     "referenced_type" : "type-306"
    },
    {
     "referenced_type" : "type-913"
    },
    {
     "referenced_type" : "type-47"
    }
   ],
   "return_type" : "type-402",
   "source_file" : "/out/soong/.intermediates/hardware/interfaces/camera/device/1.0/android.hardware.camera.device@1.0_genc++_headers/gen/android/hardware/camera/device/1.0/BpHwCameraDevicePreviewCallback.h"
  },
  {
   "function_name" : "android::hardware::camera::device::V1_0::BpHwCameraDevicePreviewCallback::cancelBuffer",
   "linker_set_key" : "_ZN7android8hardware6camera6device4V1_031BpHwCameraDevicePreviewCallback12cancelBufferEy",
   "parameters" :
   [
    {
     "is_this_ptr" : true,
     "referenced_type" : "type-306"
    },
    {
     "referenced_type" : "type-47"
    }
   ],
   "return_type" : "type-408",
   "source_file" : "/out/soong/.intermediates/hardware/interfaces/camera/device/1.0/android.hardware.camera.device@1.0_genc++_headers/gen/android/hardware/camera/device/1.0/BpHwCameraDevicePreviewCallback.h"
  },
  {
   "function_name" : "android::hardware::camera::device::V1_0::BpHwCameraDevicePreviewCallback::getDebugInfo",
   "linker_set_key" : "_ZN7android8hardware6camera6device4V1_031BpHwCameraDevicePreviewCallback12getDebugInfoENSt3__18functionIFvRKNS_4hidl4base4V1_09DebugInfoEEEE",
   "parameters" :
   [
    {
     "is_this_ptr" : true,
     "referenced_type" : "type-306"
    },
    {
     "referenced_type" : "type-1175"
    }
   ],
   "return_type" : "type-464",
   "source_file" : "/out/soong/.intermediates/hardware/interfaces/camera/device/1.0/android.hardware.camera.device@1.0_genc++_headers/gen/android/hardware/camera/device/1.0/BpHwCameraDevicePreviewCallback.h"
  },
  {
   "function_name" : "android::hardware::camera::device::V1_0::BpHwCameraDevicePreviewCallback::getHashChain",
   "linker_set_key" : "_ZN7android8hardware6camera6device4V1_031BpHwCameraDevicePreviewCallback12getHashChainENSt3__18functionIFvRKNS0_8hidl_vecINS0_10hidl_arrayIhLj32EJEEEEEEEE",
   "parameters" :
   [
    {
     "is_this_ptr" : true,
     "referenced_type" : "type-306"
    },
    {
     "referenced_type" : "type-1176"
    }
   ],
   "return_type" : "type-464",
   "source_file" : "/out/soong/.intermediates/hardware/interfaces/camera/device/1.0/android.hardware.camera.device@1.0_genc++_headers/gen/android/hardware/camera/device/1.0/BpHwCameraDevicePreviewCallback.h"
  },
  {
   "function_name" : "android::hardware::camera::device::V1_0::BpHwCameraDevicePreviewCallback::setTimestamp",
   "linker_set_key" : "_ZN7android8hardware6camera6device4V1_031BpHwCameraDevicePreviewCallback12setTimestampEx",
   "parameters" :
   [
    {
     "is_this_ptr" : true,
     "referenced_type" : "type-306"
    },
    {
     "referenced_type" : "type-48"
    }
   ],
   "return_type" : "type-408",
   "source_file" : "/out/soong/.intermediates/hardware/interfaces/camera/device/1.0/android.hardware.camera.device@1.0_genc++_headers/gen/android/hardware/camera/device/1.0/BpHwCameraDevicePreviewCallback.h"
  },
  {
   "function_name" : "android::hardware::camera::device::V1_0::BpHwCameraDevicePreviewCallback::_hidl_setCrop",
   "linker_set_key" : "_ZN7android8hardware6camera6device4V1_031BpHwCameraDevicePreviewCallback13_hidl_setCropEPNS0_10IInterfaceEPNS0_7details16HidlInstrumentorEiiii",
   "parameters" :
   [
    {
     "referenced_type" : "type-107"
    },
    {
     "referenced_type" : "type-268"
    },
    {
     "referenced_type" : "type-45"
    },
    {
     "referenced_type" : "type-45"
    },
    {
     "referenced_type" : "type-45"
    },
    {
     "referenced_type" : "type-45"
    }
   ],
   "return_type" : "type-408",
   "source_file" : "/out/soong/.intermediates/hardware/interfaces/camera/device/1.0/android.hardware.camera.device@1.0_genc++_headers/gen/android/hardware/camera/device/1.0/BpHwCameraDevicePreviewCallback.h"
  },
  {
   "function_name" : "android::hardware::camera::device::V1_0::BpHwCameraDevicePreviewCallback::dequeueBuffer",
   "linker_set_key" : "_ZN7android8hardware6camera6device4V1_031BpHwCameraDevicePreviewCallback13dequeueBufferENSt3__18functionIFvNS1_6common4V1_06StatusEyRKNS0_11hidl_handleEjEEE",
   "parameters" :
   [
    {
     "is_this_ptr" : true,
     "referenced_type" : "type-306"
    },
    {
     "referenced_type" : "type-1177"
    }
   ],
   "return_type" : "type-464",
   "source_file" : "/out/soong/.intermediates/hardware/interfaces/camera/device/1.0/android.hardware.camera.device@1.0_genc++_headers/gen/android/hardware/camera/device/1.0/BpHwCameraDevicePreviewCallback.h"
  },
  {
   "function_name" : "android::hardware::camera::device::V1_0::BpHwCameraDevicePreviewCallback::enqueueBuffer",
   "linker_set_key" : "_ZN7android8hardware6camera6device4V1_031BpHwCameraDevicePreviewCallback13enqueueBufferEy",
   "parameters" :
   [
    {
     "is_this_ptr" : true,
     "referenced_type" : "type-306"
    },
    {
     "referenced_type" : "type-47"
    }
   ],
   "return_type" : "type-408",
   "source_file" : "/out/soong/.intermediates/hardware/interfaces/camera/device/1.0/android.hardware.camera.device@1.0_genc++_headers/gen/android/hardware/camera/device/1.0/BpHwCameraDevicePreviewCallback.h"
  },
  {
   "function_name" : "android::hardware::camera::device::V1_0::BpHwCameraDevicePreviewCallback::unlinkToDeath",
   "linker_set_key" : "_ZN7android8hardware6camera6device4V1_031BpHwCameraDevicePreviewCallback13unlinkToDeathERKNS_2spINS0_20hidl_death_recipientEEE",
   "parameters" :
   [
    {
     "is_this_ptr" : true,
     "referenced_type" : "type-306"
    },
    {
     "referenced_type" : "type-913"
    }
   ],
   "return_type" : "type-402",
   "source_file" : "/out/soong/.intermediates/hardware/interfaces/camera/device/1.0/android.hardware.camera.device@1.0_genc++_headers/gen/android/hardware/camera/device/1.0/BpHwCameraDevicePreviewCallback.h"
  },
  {
   "function_name" : "android::hardware::camera::device::V1_0::BpHwCameraDevicePreviewCallback::_hidl_setUsage",
   "linker_set_key" : "_ZN7android8hardware6camera6device4V1_031BpHwCameraDevicePreviewCallback14_hidl_setUsageEPNS0_10IInterfaceEPNS0_7details16HidlInstrumentorENS0_8graphics6common4V1_011BufferUsageE",
   "parameters" :
   [
    {
     "referenced_type" : "type-107"
    },
    {
     "referenced_type" : "type-268"
    },
    {
     "referenced_type" : "type-973"
    }
   ],
   "return_type" : "type-408",
   "source_file" : "/out/soong/.intermediates/hardware/interfaces/camera/device/1.0/android.hardware.camera.device@1.0_genc++_headers/gen/android/hardware/camera/device/1.0/BpHwCameraDevicePreviewCallback.h"
  },
  {
   "function_name" : "android::hardware::camera::device::V1_0::BpHwCameraDevicePreviewCallback::interfaceChain",
   "linker_set_key" : "_ZN7android8hardware6camera6device4V1_031BpHwCameraDevicePreviewCallback14interfaceChainENSt3__18functionIFvRKNS0_8hidl_vecINS0_11hidl_stringEEEEEE",
   "parameters" :
   [
    {
     "is_this_ptr" : true,
     "referenced_type" : "type-306"
    },
    {
     "referenced_type" : "type-1178"
    }
   ],
   "return_type" : "type-464",
   "source_file" : "/out/soong/.intermediates/hardware/interfaces/camera/device/1.0/android.hardware.camera.device@1.0_genc++_headers/gen/android/hardware/camera/device/1.0/BpHwCameraDevicePreviewCallback.h"
  },
  {
   "function_name" : "android::hardware::camera::device::V1_0::BpHwCameraDevicePreviewCallback::setBufferCount",
   "linker_set_key" : "_ZN7android8hardware6camera6device4V1_031BpHwCameraDevicePreviewCallback14setBufferCountEj",
   "parameters" :
   [
    {
     "is_this_ptr" : true,
     "referenced_type" : "type-306"
    },
    {
     "referenced_type" : "type-2"
    }
   ],
   "return_type" : "type-408",
   "source_file" : "/out/soong/.intermediates/hardware/interfaces/camera/device/1.0/android.hardware.camera.device@1.0_genc++_headers/gen/android/hardware/camera/device/1.0/BpHwCameraDevicePreviewCallback.h"
  },
  {
   "function_name" : "android::hardware::camera::device::V1_0::BpHwCameraDevicePreviewCallback::setSwapInterval",
   "linker_set_key" : "_ZN7android8hardware6camera6device4V1_031BpHwCameraDevicePreviewCallback15setSwapIntervalEi",
   "parameters" :
   [
    {
     "is_this_ptr" : true,
     "referenced_type" : "type-306"
    },
    {
     "referenced_type" : "type-45"
    }
   ],
   "return_type" : "type-408",
   "source_file" : "/out/soong/.intermediates/hardware/interfaces/camera/device/1.0/android.hardware.camera.device@1.0_genc++_headers/gen/android/hardware/camera/device/1.0/BpHwCameraDevicePreviewCallback.h"
  },
  {
   "function_name" : "android::hardware::camera::device::V1_0::BpHwCameraDevicePreviewCallback::_hidl_cancelBuffer",
   "linker_set_key" : "_ZN7android8hardware6camera6device4V1_031BpHwCameraDevicePreviewCallback18_hidl_cancelBufferEPNS0_10IInterfaceEPNS0_7details16HidlInstrumentorEy",
   "parameters" :
   [
    {
     "referenced_type" : "type-107"
    },
    {
     "referenced_type" : "type-268"
    },
    {
     "referenced_type" : "type-47"
    }
   ],
   "return_type" : "type-408",
   "source_file" : "/out/soong/.intermediates/hardware/interfaces/camera/device/1.0/android.hardware.camera.device@1.0_genc++_headers/gen/android/hardware/camera/device/1.0/BpHwCameraDevicePreviewCallback.h"
  },
  {
   "function_name" : "android::hardware::camera::device::V1_0::BpHwCameraDevicePreviewCallback::_hidl_setTimestamp",
   "linker_set_key" : "_ZN7android8hardware6camera6device4V1_031BpHwCameraDevicePreviewCallback18_hidl_setTimestampEPNS0_10IInterfaceEPNS0_7details16HidlInstrumentorEx",
   "parameters" :
   [
    {
     "referenced_type" : "type-107"
    },
    {
     "referenced_type" : "type-268"
    },
    {
     "referenced_type" : "type-48"
    }
   ],
   "return_type" : "type-408",
   "source_file" : "/out/soong/.intermediates/hardware/interfaces/camera/device/1.0/android.hardware.camera.device@1.0_genc++_headers/gen/android/hardware/camera/device/1.0/BpHwCameraDevicePreviewCallback.h"
  },
  {
   "function_name" : "android::hardware::camera::device::V1_0::BpHwCameraDevicePreviewCallback::setBuffersGeometry",
   "linker_set_key" : "_ZN7android8hardware6camera6device4V1_031BpHwCameraDevicePreviewCallback18setBuffersGeometryEjjNS0_8graphics6common4V1_011PixelFormatE",
   "parameters" :
   [
    {
     "is_this_ptr" : true,
     "referenced_type" : "type-306"
    },
    {
     "referenced_type" : "type-2"
    },
    {
     "referenced_type" : "type-2"
    },
    {
     "referenced_type" : "type-972"
    }
   ],
   "return_type" : "type-408",
   "source_file" : "/out/soong/.intermediates/hardware/interfaces/camera/device/1.0/android.hardware.camera.device@1.0_genc++_headers/gen/android/hardware/camera/device/1.0/BpHwCameraDevicePreviewCallback.h"
  },
  {
   "function_name" : "android::hardware::camera::device::V1_0::BpHwCameraDevicePreviewCallback::_hidl_dequeueBuffer",
   "linker_set_key" : "_ZN7android8hardware6camera6device4V1_031BpHwCameraDevicePreviewCallback19_hidl_dequeueBufferEPNS0_10IInterfaceEPNS0_7details16HidlInstrumentorENSt3__18functionIFvNS1_6common4V1_06StatusEyRKNS0_11hidl_handleEjEEE",
   "parameters" :
   [
    {
     "referenced_type" : "type-107"
    },
    {
     "referenced_type" : "type-268"
    },
    {
     "referenced_type" : "type-1179"
    }
   ],
   "return_type" : "type-464",
   "source_file" : "/out/soong/.intermediates/hardware/interfaces/camera/device/1.0/android.hardware.camera.device@1.0_genc++_headers/gen/android/hardware/camera/device/1.0/BpHwCameraDevicePreviewCallback.h"
  },
  {
   "function_name" : "android::hardware::camera::device::V1_0::BpHwCameraDevicePreviewCallback::_hidl_enqueueBuffer",
   "linker_set_key" : "_ZN7android8hardware6camera6device4V1_031BpHwCameraDevicePreviewCallback19_hidl_enqueueBufferEPNS0_10IInterfaceEPNS0_7details16HidlInstrumentorEy",
   "parameters" :
   [
    {
     "referenced_type" : "type-107"
    },
    {
     "referenced_type" : "type-268"
    },
    {
     "referenced_type" : "type-47"
    }
   ],
   "return_type" : "type-408",
   "source_file" : "/out/soong/.intermediates/hardware/interfaces/camera/device/1.0/android.hardware.camera.device@1.0_genc++_headers/gen/android/hardware/camera/device/1.0/BpHwCameraDevicePreviewCallback.h"
  },
  {
   "function_name" : "android::hardware::camera::device::V1_0::BpHwCameraDevicePreviewCallback::interfaceDescriptor",
   "linker_set_key" : "_ZN7android8hardware6camera6device4V1_031BpHwCameraDevicePreviewCallback19interfaceDescriptorENSt3__18functionIFvRKNS0_11hidl_stringEEEE",
   "parameters" :
   [
    {
     "is_this_ptr" : true,
     "referenced_type" : "type-306"
    },
    {
     "referenced_type" : "type-1180"
    }
   ],
   "return_type" : "type-464",
   "source_file" : "/out/soong/.intermediates/hardware/interfaces/camera/device/1.0/android.hardware.camera.device@1.0_genc++_headers/gen/android/hardware/camera/device/1.0/BpHwCameraDevicePreviewCallback.h"
  },
  {
   "function_name" : "android::hardware::camera::device::V1_0::BpHwCameraDevicePreviewCallback::_hidl_setBufferCount",
   "linker_set_key" : "_ZN7android8hardware6camera6device4V1_031BpHwCameraDevicePreviewCallback20_hidl_setBufferCountEPNS0_10IInterfaceEPNS0_7details16HidlInstrumentorEj",
   "parameters" :
   [
    {
     "referenced_type" : "type-107"
    },
    {
     "referenced_type" : "type-268"
    },
    {
     "referenced_type" : "type-2"
    }
   ],
   "return_type" : "type-408",
   "source_file" : "/out/soong/.intermediates/hardware/interfaces/camera/device/1.0/android.hardware.camera.device@1.0_genc++_headers/gen/android/hardware/camera/device/1.0/BpHwCameraDevicePreviewCallback.h"
  },
  {
   "function_name" : "android::hardware::camera::device::V1_0::BpHwCameraDevicePreviewCallback::_hidl_setSwapInterval",
   "linker_set_key" : "_ZN7android8hardware6camera6device4V1_031BpHwCameraDevicePreviewCallback21_hidl_setSwapIntervalEPNS0_10IInterfaceEPNS0_7details16HidlInstrumentorEi",
   "parameters" :
   [
    {
     "referenced_type" : "type-107"
    },
    {
     "referenced_type" : "type-268"
    },
    {
     "referenced_type" : "type-45"
    }
   ],
   "return_type" : "type-408",
   "source_file" : "/out/soong/.intermediates/hardware/interfaces/camera/device/1.0/android.hardware.camera.device@1.0_genc++_headers/gen/android/hardware/camera/device/1.0/BpHwCameraDevicePreviewCallback.h"
  },
  {
   "function_name" : "android::hardware::camera::device::V1_0::BpHwCameraDevicePreviewCallback::notifySyspropsChanged",
   "linker_set_key" : "_ZN7android8hardware6camera6device4V1_031BpHwCameraDevicePreviewCallback21notifySyspropsChangedEv",
   "parameters" :
   [
    {
     "is_this_ptr" : true,
     "referenced_type" : "type-306"
    }
   ],
   "return_type" : "type-464",
   "source_file" : "/out/soong/.intermediates/hardware/interfaces/camera/device/1.0/android.hardware.camera.device@1.0_genc++_headers/gen/android/hardware/camera/device/1.0/BpHwCameraDevicePreviewCallback.h"
  },
  {
   "function_name" : "android::hardware::camera::device::V1_0::BpHwCameraDevicePreviewCallback::setHALInstrumentation",
   "linker_set_key" : "_ZN7android8hardware6camera6device4V1_031BpHwCameraDevicePreviewCallback21setHALInstrumentationEv",
   "parameters" :
   [
    {
     "is_this_ptr" : true,
     "referenced_type" : "type-306"
    }
   ],
   "return_type" : "type-464",
   "source_file" : "/out/soong/.intermediates/hardware/interfaces/camera/device/1.0/android.hardware.camera.device@1.0_genc++_headers/gen/android/hardware/camera/device/1.0/BpHwCameraDevicePreviewCallback.h"
  },
  {
   "function_name" : "android::hardware::camera::device::V1_0::BpHwCameraDevicePreviewCallback::_hidl_setBuffersGeometry",
   "linker_set_key" : "_ZN7android8hardware6camera6device4V1_031BpHwCameraDevicePreviewCallback24_hidl_setBuffersGeometryEPNS0_10IInterfaceEPNS0_7details16HidlInstrumentorEjjNS0_8graphics6common4V1_011PixelFormatE",
   "parameters" :
   [
    {
     "referenced_type" : "type-107"
    },
    {
     "referenced_type" : "type-268"
    },
    {
     "referenced_type" : "type-2"
    },
    {
     "referenced_type" : "type-2"
    },
    {
     "referenced_type" : "type-972"
    }
   ],
   "return_type" : "type-408",
   "source_file" : "/out/soong/.intermediates/hardware/interfaces/camera/device/1.0/android.hardware.camera.device@1.0_genc++_headers/gen/android/hardware/camera/device/1.0/BpHwCameraDevicePreviewCallback.h"
  },
  {
   "function_name" : "android::hardware::camera::device::V1_0::BpHwCameraDevicePreviewCallback::getMinUndequeuedBufferCount",
   "linker_set_key" : "_ZN7android8hardware6camera6device4V1_031BpHwCameraDevicePreviewCallback27getMinUndequeuedBufferCountENSt3__18functionIFvNS1_6common4V1_06StatusEjEEE",
   "parameters" :
   [
    {
     "is_this_ptr" : true,
     "referenced_type" : "type-306"
    },
    {
     "referenced_type" : "type-1181"
    }
   ],
   "return_type" : "type-464",
   "source_file" : "/out/soong/.intermediates/hardware/interfaces/camera/device/1.0/android.hardware.camera.device@1.0_genc++_headers/gen/android/hardware/camera/device/1.0/BpHwCameraDevicePreviewCallback.h"
  },
  {
   "function_name" : "android::hardware::camera::device::V1_0::BpHwCameraDevicePreviewCallback::_hidl_getMinUndequeuedBufferCount",
   "linker_set_key" : "_ZN7android8hardware6camera6device4V1_031BpHwCameraDevicePreviewCallback33_hidl_getMinUndequeuedBufferCountEPNS0_10IInterfaceEPNS0_7details16HidlInstrumentorENSt3__18functionIFvNS1_6common4V1_06StatusEjEEE",
   "parameters" :
   [
    {
     "referenced_type" : "type-107"
    },
    {
     "referenced_type" : "type-268"
    },
    {
     "referenced_type" : "type-1182"
    }
   ],
   "return_type" : "type-464",
   "source_file" : "/out/soong/.intermediates/hardware/interfaces/camera/device/1.0/android.hardware.camera.device@1.0_genc++_headers/gen/android/hardware/camera/device/1.0/BpHwCameraDevicePreviewCallback.h"
  },
  {
   "function_name" : "android::hardware::camera::device::V1_0::BpHwCameraDevicePreviewCallback::ping",
   "linker_set_key" : "_ZN7android8hardware6camera6device4V1_031BpHwCameraDevicePreviewCallback4pingEv",
   "parameters" :
   [
    {
     "is_this_ptr" : true,
     "referenced_type" : "type-306"
    }
   ],
   "return_type" : "type-464",
   "source_file" : "/out/soong/.intermediates/hardware/interfaces/camera/device/1.0/android.hardware.camera.device@1.0_genc++_headers/gen/android/hardware/camera/device/1.0/BpHwCameraDevicePreviewCallback.h"
  },
  {
   "function_name" : "android::hardware::camera::device::V1_0::BpHwCameraDevicePreviewCallback::debug",
   "linker_set_key" : "_ZN7android8hardware6camera6device4V1_031BpHwCameraDevicePreviewCallback5debugERKNS0_11hidl_handleERKNS0_8hidl_vecINS0_11hidl_stringEEE",
   "parameters" :
   [
    {
     "is_this_ptr" : true,
     "referenced_type" : "type-306"
    },
    {
     "referenced_type" : "type-763"
    },
    {
     "referenced_type" : "type-685"
    }
   ],
   "return_type" : "type-464",
   "source_file" : "/out/soong/.intermediates/hardware/interfaces/camera/device/1.0/android.hardware.camera.device@1.0_genc++_headers/gen/android/hardware/camera/device/1.0/BpHwCameraDevicePreviewCallback.h"
  },
  {
   "function_name" : "android::hardware::camera::device::V1_0::BpHwCameraDevicePreviewCallback::setCrop",
   "linker_set_key" : "_ZN7android8hardware6camera6device4V1_031BpHwCameraDevicePreviewCallback7setCropEiiii",
   "parameters" :
   [
    {
     "is_this_ptr" : true,
     "referenced_type" : "type-306"
    },
    {
     "referenced_type" : "type-45"
    },
    {
     "referenced_type" : "type-45"
    },
    {
     "referenced_type" : "type-45"
    },
    {
     "referenced_type" : "type-45"
    }
   ],
   "return_type" : "type-408",
   "source_file" : "/out/soong/.intermediates/hardware/interfaces/camera/device/1.0/android.hardware.camera.device@1.0_genc++_headers/gen/android/hardware/camera/device/1.0/BpHwCameraDevicePreviewCallback.h"
  },
  {
   "function_name" : "android::hardware::camera::device::V1_0::BpHwCameraDevicePreviewCallback::setUsage",
   "linker_set_key" : "_ZN7android8hardware6camera6device4V1_031BpHwCameraDevicePreviewCallback8setUsageENS0_8graphics6common4V1_011BufferUsageE",
   "parameters" :
   [
    {
     "is_this_ptr" : true,
     "referenced_type" : "type-306"
    },
    {
     "referenced_type" : "type-973"
    }
   ],
   "return_type" : "type-408",
   "source_file" : "/out/soong/.intermediates/hardware/interfaces/camera/device/1.0/android.hardware.camera.device@1.0_genc++_headers/gen/android/hardware/camera/device/1.0/BpHwCameraDevicePreviewCallback.h"
  },
  {
   "function_name" : "android::hardware::camera::device::V1_0::BpHwCameraDevicePreviewCallback::BpHwCameraDevicePreviewCallback",
   "linker_set_key" : "_ZN7android8hardware6camera6device4V1_031BpHwCameraDevicePreviewCallbackC1ERKNS_2spINS0_7IBinderEEE",
   "parameters" :
   [
    {
     "is_this_ptr" : true,
     "referenced_type" : "type-306"
    },
    {
     "referenced_type" : "type-141"
    }
   ],
   "return_type" : "type-124",
   "source_file" : "/out/soong/.intermediates/hardware/interfaces/camera/device/1.0/android.hardware.camera.device@1.0_genc++_headers/gen/android/hardware/camera/device/1.0/BpHwCameraDevicePreviewCallback.h"
  },
  {
   "function_name" : "android::hardware::camera::device::V1_0::BpHwCameraDevicePreviewCallback::BpHwCameraDevicePreviewCallback",
   "linker_set_key" : "_ZN7android8hardware6camera6device4V1_031BpHwCameraDevicePreviewCallbackC2ERKNS_2spINS0_7IBinderEEE",
   "parameters" :
   [
    {
     "is_this_ptr" : true,
     "referenced_type" : "type-306"
    },
    {
     "referenced_type" : "type-141"
    }
   ],
   "return_type" : "type-124",
   "source_file" : "/out/soong/.intermediates/hardware/interfaces/camera/device/1.0/android.hardware.camera.device@1.0_genc++_headers/gen/android/hardware/camera/device/1.0/BpHwCameraDevicePreviewCallback.h"
  },
  {
   "function_name" : "android::hardware::details::castInterface",
   "linker_set_key" : "_ZN7android8hardware7details13castInterfaceINS0_6camera6device4V1_013ICameraDeviceENS_4hidl4base4V1_05IBaseENS5_16BpHwCameraDeviceEEENS0_6ReturnINS_2spIT_EEEENSD_IT0_EEPKcb",
   "parameters" :
   [
    {
     "referenced_type" : "type-55"
    },
    {
     "referenced_type" : "type-147"
    },
    {
     "referenced_type" : "type-3"
    }
   ],
   "return_type" : "type-425",
   "source_file" : "/system/libhidl/transport/include/hidl/HidlTransportSupport.h",
   "template_args" : [ "type-323", "type-5", "type-1024" ]
  },
  {
   "function_name" : "android::hardware::details::castInterface",
   "linker_set_key" : "_ZN7android8hardware7details13castInterfaceINS0_6camera6device4V1_021ICameraDeviceCallbackENS_4hidl4base4V1_05IBaseENS5_24BpHwCameraDeviceCallbackEEENS0_6ReturnINS_2spIT_EEEENSD_IT0_EEPKcb",
   "parameters" :
   [
    {
     "referenced_type" : "type-55"
    },
    {
     "referenced_type" : "type-147"
    },
    {
     "referenced_type" : "type-3"
    }
   ],
   "return_type" : "type-1058",
   "source_file" : "/system/libhidl/transport/include/hidl/HidlTransportSupport.h",
   "template_args" : [ "type-4", "type-5", "type-287" ]
  },
  {
   "function_name" : "android::hardware::details::castInterface",
   "linker_set_key" : "_ZN7android8hardware7details13castInterfaceINS0_6camera6device4V1_028ICameraDevicePreviewCallbackENS_4hidl4base4V1_05IBaseENS5_31BpHwCameraDevicePreviewCallbackEEENS0_6ReturnINS_2spIT_EEEENSD_IT0_EEPKcb",
   "parameters" :
   [
    {
     "referenced_type" : "type-55"
    },
    {
     "referenced_type" : "type-147"
    },
    {
     "referenced_type" : "type-3"
    }
   ],
   "return_type" : "type-159",
   "source_file" : "/system/libhidl/transport/include/hidl/HidlTransportSupport.h",
   "template_args" : [ "type-17", "type-5", "type-298" ]
  },
  {
   "function_name" : "android::hardware::details::wrapPassthrough",
   "linker_set_key" : "_ZN7android8hardware7details15wrapPassthroughINS0_6camera6device4V1_021ICameraDeviceCallbackEvEENS_2spIT_EES9_",
   "parameters" :
   [
    {
     "referenced_type" : "type-12"
    }
   ],
   "return_type" : "type-12",
   "source_file" : "/system/libhidl/transport/include/hidl/HidlPassthroughSupport.h",
   "template_args" : [ "type-4", "type-124" ]
  },
  {
   "function_name" : "android::hardware::details::wrapPassthrough",
   "linker_set_key" : "_ZN7android8hardware7details15wrapPassthroughINS0_6camera6device4V1_028ICameraDevicePreviewCallbackEvEENS_2spIT_EES9_",
   "parameters" :
   [
    {
     "referenced_type" : "type-15"
    }
   ],
   "return_type" : "type-15",
   "source_file" : "/system/libhidl/transport/include/hidl/HidlPassthroughSupport.h",
   "template_args" : [ "type-17", "type-124" ]
  },
  {
   "function_name" : "android::hardware::details::getServiceInternal",
   "linker_set_key" : "_ZN7android8hardware7details18getServiceInternalINS0_6camera6device4V1_016BpHwCameraDeviceENS5_13ICameraDeviceEvvEENS_2spIT0_EERKNSt3__112basic_stringIcNSB_11char_traitsIcEENSB_9allocatorIcEEEEbb",
   "parameters" :
   [
    {
     "referenced_type" : "type-816"
    },
    {
     "referenced_type" : "type-3"
    },
    {
     "referenced_type" : "type-3"
    }
   ],
   "return_type" : "type-321",
   "source_file" : "/system/libhidl/transport/include/hidl/HidlTransportSupport.h",
   "template_args" : [ "type-1024", "type-323", "type-124", "type-124" ]
  },
  {
   "function_name" : "android::hardware::details::getServiceInternal",
   "linker_set_key" : "_ZN7android8hardware7details18getServiceInternalINS0_6camera6device4V1_024BpHwCameraDeviceCallbackENS5_21ICameraDeviceCallbackEvvEENS_2spIT0_EERKNSt3__112basic_stringIcNSB_11char_traitsIcEENSB_9allocatorIcEEEEbb",
   "parameters" :
   [
    {
     "referenced_type" : "type-51"
    },
    {
     "referenced_type" : "type-3"
    },
    {
     "referenced_type" : "type-3"
    }
   ],
   "return_type" : "type-12",
   "source_file" : "/system/libhidl/transport/include/hidl/HidlTransportSupport.h",
   "template_args" : [ "type-287", "type-4", "type-124", "type-124" ]
  },
  {
   "function_name" : "android::hardware::details::getServiceInternal",
   "linker_set_key" : "_ZN7android8hardware7details18getServiceInternalINS0_6camera6device4V1_031BpHwCameraDevicePreviewCallbackENS5_28ICameraDevicePreviewCallbackEvvEENS_2spIT0_EERKNSt3__112basic_stringIcNSB_11char_traitsIcEENSB_9allocatorIcEEEEbb",
   "parameters" :
   [
    {
     "referenced_type" : "type-187"
    },
    {
     "referenced_type" : "type-3"
    },
    {
     "referenced_type" : "type-3"
    }
   ],
   "return_type" : "type-15",
   "source_file" : "/system/libhidl/transport/include/hidl/HidlTransportSupport.h",
   "template_args" : [ "type-298", "type-17", "type-124", "type-124" ]
  }
 ],
 "global_vars" :
 [
  {
   "linker_set_key" : "_ZN7android8hardware6camera6device4V1_013ICameraDevice10descriptorE",
   "name" : "android::hardware::camera::device::V1_0::ICameraDevice::descriptor",
   "referenced_type" : "type-147",
   "source_file" : "/out/soong/.intermediates/hardware/interfaces/camera/device/1.0/android.hardware.camera.device@1.0_genc++_headers/gen/android/hardware/camera/device/1.0/ICameraDevice.h"
  },
  {
   "linker_set_key" : "_ZN7android8hardware6camera6device4V1_021ICameraDeviceCallback10descriptorE",
   "name" : "android::hardware::camera::device::V1_0::ICameraDeviceCallback::descriptor",
   "referenced_type" : "type-147",
   "source_file" : "/out/soong/.intermediates/hardware/interfaces/camera/device/1.0/android.hardware.camera.device@1.0_genc++_headers/gen/android/hardware/camera/device/1.0/ICameraDeviceCallback.h"
  },
  {
   "linker_set_key" : "_ZN7android8hardware6camera6device4V1_028ICameraDevicePreviewCallback10descriptorE",
   "name" : "android::hardware::camera::device::V1_0::ICameraDevicePreviewCallback::descriptor",
   "referenced_type" : "type-147",
   "source_file" : "/out/soong/.intermediates/hardware/interfaces/camera/device/1.0/android.hardware.camera.device@1.0_genc++_headers/gen/android/hardware/camera/device/1.0/ICameraDevicePreviewCallback.h"
  }
 ],
 "lvalue_reference_types" :
 [
  {
   "alignment" : 4,
   "linker_set_key" : "android::Mutex &",
   "name" : "android::Mutex &",
   "referenced_type" : "type-127",
   "self_type" : "type-896",
   "size" : 4,
   "source_file" : "/system/core/libutils/include/utils/Mutex.h"
  },
  {
   "alignment" : 4,
   "linker_set_key" : "android::RWLock &",
   "name" : "android::RWLock &",
   "referenced_type" : "type-900",
   "self_type" : "type-905",
   "size" : 4,
   "source_file" : "/system/core/libutils/include/utils/RWLock.h"
  },
  {
   "alignment" : 4,
   "linker_set_key" : "android::String16 &",
   "name" : "android::String16 &",
   "referenced_type" : "type-137",
   "self_type" : "type-784",
   "size" : 4,
   "source_file" : "/system/core/libutils/include/utils/String16.h"
  },
  {
   "alignment" : 4,
   "linker_set_key" : "android::String8 &",
   "name" : "android::String8 &",
   "referenced_type" : "type-146",
   "self_type" : "type-779",
   "size" : 4,
   "source_file" : "/system/core/libutils/include/utils/String8.h"
  },
  {
   "alignment" : 4,
   "linker_set_key" : "android::hardware::Return<android::hardware::camera::common::V1_0::Status> &",
   "name" : "android::hardware::Return<android::hardware::camera::common::V1_0::Status> &",
   "referenced_type" : "type-408",
   "self_type" : "type-422",
   "size" : 4,
   "source_file" : "/system/libhidl/base/include/hidl/Status.h"
  },
  {
   "alignment" : 4,
   "linker_set_key" : "android::hardware::Return<android::sp<android::hardware::camera::device::V1_0::ICameraDevice> > &",
   "name" : "android::hardware::Return<android::sp<android::hardware::camera::device::V1_0::ICameraDevice> > &",
   "referenced_type" : "type-425",
   "self_type" : "type-430",
   "size" : 4,
   "source_file" : "/system/libhidl/base/include/hidl/Status.h"
  },
  {
   "alignment" : 4,
   "linker_set_key" : "android::hardware::Return<android::sp<android::hardware::camera::device::V1_0::ICameraDeviceCallback> > &",
   "name" : "android::hardware::Return<android::sp<android::hardware::camera::device::V1_0::ICameraDeviceCallback> > &",
   "referenced_type" : "type-1058",
   "self_type" : "type-1061",
   "size" : 4,
   "source_file" : "/system/libhidl/base/include/hidl/Status.h"
  },
  {
   "alignment" : 4,
   "linker_set_key" : "android::hardware::Return<android::sp<android::hardware::camera::device::V1_0::ICameraDevicePreviewCallback> > &",
   "name" : "android::hardware::Return<android::sp<android::hardware::camera::device::V1_0::ICameraDevicePreviewCallback> > &",
   "referenced_type" : "type-159",
   "self_type" : "type-165",
   "size" : 4,
   "source_file" : "/system/libhidl/base/include/hidl/Status.h"
  },
  {
   "alignment" : 4,
   "linker_set_key" : "android::hardware::Return<bool> &",
   "name" : "android::hardware::Return<bool> &",
   "referenced_type" : "type-402",
   "self_type" : "type-405",
   "size" : 4,
   "source_file" : "/system/libhidl/base/include/hidl/Status.h"
  },
  {
   "alignment" : 4,
   "linker_set_key" : "android::hardware::Return<unsigned int> &",
   "name" : "android::hardware::Return<unsigned int> &",
   "referenced_type" : "type-1052",
   "self_type" : "type-1055",
   "size" : 4,
   "source_file" : "/system/libhidl/base/include/hidl/Status.h"
  },
  {
   "alignment" : 4,
   "linker_set_key" : "android::hardware::Return<void> &",
   "name" : "android::hardware::Return<void> &",
   "referenced_type" : "type-464",
   "self_type" : "type-470",
   "size" : 4,
   "source_file" : "/system/libhidl/base/include/hidl/Status.h"
  },
  {
   "alignment" : 4,
   "linker_set_key" : "android::hardware::Status &",
   "name" : "android::hardware::Status &",
   "referenced_type" : "type-161",
   "self_type" : "type-400",
   "size" : 4,
   "source_file" : "/system/libhidl/base/include/hidl/Status.h"
  },
  {
   "alignment" : 4,
   "linker_set_key" : "android::hardware::TextOutput &",
   "name" : "android::hardware::TextOutput &",
   "referenced_type" : "type-184",
   "self_type" : "type-183",
   "size" : 4,
   "source_file" : "/system/libhwbinder/include/hwbinder/Parcel.h"
  },
  {
   "alignment" : 4,
   "linker_set_key" : "android::hardware::TextOutput &",
   "name" : "android::hardware::TextOutput &",
   "referenced_type" : "type-260",
   "self_type" : "type-259",
   "size" : 4,
   "source_file" : "/system/libhwbinder/include/hwbinder/Parcel.h"
  },
  {
   "alignment" : 4,
   "linker_set_key" : "android::hardware::TextOutput &",
   "name" : "android::hardware::TextOutput &",
   "referenced_type" : "type-31",
   "self_type" : "type-30",
   "size" : 4,
   "source_file" : "/system/libhwbinder/include/hwbinder/Parcel.h"
  },
  {
   "alignment" : 4,
   "linker_set_key" : "android::hardware::TextOutput &",
   "name" : "android::hardware::TextOutput &",
   "referenced_type" : "type-326",
   "self_type" : "type-325",
   "size" : 4,
   "source_file" : "/system/libhwbinder/include/hwbinder/Parcel.h"
  },
  {
   "alignment" : 4,
   "linker_set_key" : "android::hardware::TextOutput &",
   "name" : "android::hardware::TextOutput &",
   "referenced_type" : "type-433",
   "self_type" : "type-432",
   "size" : 4,
   "source_file" : "/system/libhwbinder/include/hwbinder/Parcel.h"
  },
  {
   "alignment" : 4,
   "linker_set_key" : "android::hardware::TextOutput &",
   "name" : "android::hardware::TextOutput &",
   "referenced_type" : "type-503",
   "self_type" : "type-502",
   "size" : 4,
   "source_file" : "/system/libhwbinder/include/hwbinder/Parcel.h"
  },
  {
   "alignment" : 4,
   "linker_set_key" : "android::hardware::TextOutput &",
   "name" : "android::hardware::TextOutput &",
   "referenced_type" : "type-581",
   "self_type" : "type-580",
   "size" : 4,
   "source_file" : "/system/libhwbinder/include/hwbinder/Parcel.h"
  },
  {
   "alignment" : 4,
   "linker_set_key" : "android::hardware::TextOutput &",
   "name" : "android::hardware::TextOutput &",
   "referenced_type" : "type-804",
   "self_type" : "type-803",
   "size" : 4,
   "source_file" : "/system/libhwbinder/include/hwbinder/Parcel.h"
  },
  {
   "alignment" : 4,
   "linker_set_key" : "android::hardware::details::hidl_pointer<android::hardware::hidl_array<unsigned char, 32> > &",
   "name" : "android::hardware::details::hidl_pointer<android::hardware::hidl_array<unsigned char, 32> > &",
   "referenced_type" : "type-687",
   "self_type" : "type-1035",
   "size" : 4,
   "source_file" : "/system/libhidl/base/include/hidl/HidlInternal.h"
  },
  {
   "alignment" : 4,
   "linker_set_key" : "android::hardware::details::hidl_pointer<android::hardware::hidl_string> &",
   "name" : "android::hardware::details::hidl_pointer<android::hardware::hidl_string> &",
   "referenced_type" : "type-675",
   "self_type" : "type-977",
   "size" : 4,
   "source_file" : "/system/libhidl/base/include/hidl/HidlInternal.h"
  },
  {
   "alignment" : 4,
   "linker_set_key" : "android::hardware::hidl_array<unsigned char, 32> &",
   "name" : "android::hardware::hidl_array<unsigned char, 32> &",
   "referenced_type" : "type-690",
   "self_type" : "type-1039",
   "size" : 4,
   "source_file" : "/system/libhidl/base/include/hidl/HidlInternal.h"
  },
  {
   "alignment" : 4,
   "linker_set_key" : "android::hardware::hidl_memory &",
   "name" : "android::hardware::hidl_memory &",
   "referenced_type" : "type-655",
   "self_type" : "type-662",
   "size" : 4,
   "source_file" : "/system/libhidl/base/include/hidl/HidlSupport.h"
  },
  {
   "alignment" : 4,
   "linker_set_key" : "android::hardware::hidl_string &",
   "name" : "android::hardware::hidl_string &",
   "referenced_type" : "type-656",
   "self_type" : "type-1008",
   "size" : 4,
   "source_file" : "/system/libhidl/base/include/hidl/HidlInternal.h"
  },
  {
   "alignment" : 4,
   "linker_set_key" : "android::hardware::hidl_vec<android::hardware::hidl_array<unsigned char, 32> > &",
   "name" : "android::hardware::hidl_vec<android::hardware::hidl_array<unsigned char, 32> > &",
   "referenced_type" : "type-686",
   "self_type" : "type-695",
   "size" : 4,
   "source_file" : "/system/libhidl/base/include/hidl/HidlSupport.h"
  },
  {
   "alignment" : 4,
   "linker_set_key" : "android::hardware::hidl_vec<android::hardware::hidl_string> &",
   "name" : "android::hardware::hidl_vec<android::hardware::hidl_string> &",
   "referenced_type" : "type-674",
   "self_type" : "type-682",
   "size" : 4,
   "source_file" : "/system/libhidl/base/include/hidl/HidlSupport.h"
  },
  {
   "alignment" : 4,
   "linker_set_key" : "android::sp<android::hardware::camera::device::V1_0::ICameraDevice> &",
   "name" : "android::sp<android::hardware::camera::device::V1_0::ICameraDevice> &",
   "referenced_type" : "type-321",
   "self_type" : "type-327",
   "size" : 4,
   "source_file" : "/system/core/libutils/include/utils/StrongPointer.h"
  },
  {
   "alignment" : 4,
   "linker_set_key" : "android::sp<android::hardware::camera::device::V1_0::ICameraDeviceCallback> &",
   "name" : "android::sp<android::hardware::camera::device::V1_0::ICameraDeviceCallback> &",
   "referenced_type" : "type-12",
   "self_type" : "type-292",
   "size" : 4,
   "source_file" : "/system/core/libutils/include/utils/StrongPointer.h"
  },
  {
   "alignment" : 4,
   "linker_set_key" : "android::sp<android::hardware::camera::device::V1_0::ICameraDevicePreviewCallback> &",
   "name" : "android::sp<android::hardware::camera::device::V1_0::ICameraDevicePreviewCallback> &",
   "referenced_type" : "type-15",
   "self_type" : "type-310",
   "size" : 4,
   "source_file" : "/system/core/libutils/include/utils/StrongPointer.h"
  },
  {
   "alignment" : 4,
   "linker_set_key" : "android::sp<android::hardware::hidl_binder_death_recipient> &",
   "name" : "android::sp<android::hardware::hidl_binder_death_recipient> &",
   "referenced_type" : "type-336",
   "self_type" : "type-347",
   "size" : 4,
   "source_file" : "/system/core/libutils/include/utils/StrongPointer.h"
  },
  {
   "alignment" : 4,
   "linker_set_key" : "const android::String16 &",
   "name" : "const android::String16 &",
   "referenced_type" : "type-136",
   "self_type" : "type-135",
   "size" : 4,
   "source_file" : "/system/core/libutils/include/utils/String16.h"
  },
  {
   "alignment" : 4,
   "linker_set_key" : "const android::String8 &",
   "name" : "const android::String8 &",
   "referenced_type" : "type-776",
   "self_type" : "type-778",
   "size" : 4,
   "source_file" : "/system/core/libutils/include/utils/String8.h"
  },
  {
   "alignment" : 4,
   "linker_set_key" : "const android::hardware::Parcel &",
   "name" : "const android::hardware::Parcel &",
   "referenced_type" : "type-805",
   "self_type" : "type-806",
   "size" : 4,
   "source_file" : "/system/libhwbinder/include/hwbinder/Parcel.h"
  },
  {
   "alignment" : 4,
   "linker_set_key" : "const android::hardware::Return<bool> &",
   "name" : "const android::hardware::Return<bool> &",
   "referenced_type" : "type-406",
   "self_type" : "type-438",
   "size" : 4,
   "source_file" : "/system/libhidl/base/include/hidl/Status.h"
  },
  {
   "alignment" : 4,
   "linker_set_key" : "const android::hardware::Status &",
   "name" : "const android::hardware::Status &",
   "referenced_type" : "type-397",
   "self_type" : "type-398",
   "size" : 4,
   "source_file" : "/system/libhidl/base/include/hidl/Status.h"
  },
  {
   "alignment" : 4,
   "linker_set_key" : "const android::hardware::camera::common::V1_0::VendorTag &",
   "name" : "const android::hardware::camera::common::V1_0::VendorTag &",
   "referenced_type" : "type-883",
   "self_type" : "type-882",
   "size" : 4,
   "source_file" : "/system/libhidl/base/include/hidl/HidlInternal.h"
  },
  {
   "alignment" : 4,
   "linker_set_key" : "const android::hardware::camera::device::V1_0::CameraFace &",
   "name" : "const android::hardware::camera::device::V1_0::CameraFace &",
   "referenced_type" : "type-248",
   "self_type" : "type-1028",
   "size" : 4,
   "source_file" : "/system/libhidl/base/include/hidl/HidlInternal.h"
  },
  {
   "alignment" : 4,
   "linker_set_key" : "const android::hardware::camera::device::V1_0::CameraFrameMetadata &",
   "name" : "const android::hardware::camera::device::V1_0::CameraFrameMetadata &",
   "referenced_type" : "type-85",
   "self_type" : "type-96",
   "size" : 4,
   "source_file" : "/out/soong/.intermediates/hardware/interfaces/camera/device/1.0/android.hardware.camera.device@1.0_genc++_headers/gen/android/hardware/camera/device/1.0/BpHwCameraDeviceCallback.h"
  },
  {
   "alignment" : 4,
   "linker_set_key" : "const android::hardware::camera::device::V1_0::HandleTimestampMessage &",
   "name" : "const android::hardware::camera::device::V1_0::HandleTimestampMessage &",
   "referenced_type" : "type-101",
   "self_type" : "type-100",
   "size" : 4,
   "source_file" : "/system/libhidl/base/include/hidl/HidlInternal.h"
  },
  {
   "alignment" : 4,
   "linker_set_key" : "const android::hardware::camera::device::V1_0::VideoFrameMessage &",
   "name" : "const android::hardware::camera::device::V1_0::VideoFrameMessage &",
   "referenced_type" : "type-723",
   "self_type" : "type-1033",
   "size" : 4,
   "source_file" : "/system/libhidl/base/include/hidl/HidlInternal.h"
  },
  {
   "alignment" : 4,
   "linker_set_key" : "const android::hardware::details::SchedPrio &",
   "name" : "const android::hardware::details::SchedPrio &",
   "referenced_type" : "type-822",
   "self_type" : "type-821",
   "size" : 4,
   "source_file" : "/system/libhidl/transport/include/hidl/ConcurrentMap.h"
  },
  {
   "alignment" : 4,
   "linker_set_key" : "const android::hardware::details::const_accessor<int, 2> &",
   "name" : "const android::hardware::details::const_accessor<int, 2> &",
   "referenced_type" : "type-740",
   "self_type" : "type-761",
   "size" : 4,
   "source_file" : "/system/libhidl/base/include/hidl/HidlSupport.h"
  },
  {
   "alignment" : 4,
   "linker_set_key" : "const android::hardware::details::const_accessor<int, 4> &",
   "name" : "const android::hardware::details::const_accessor<int, 4> &",
   "referenced_type" : "type-736",
   "self_type" : "type-760",
   "size" : 4,
   "source_file" : "/system/libhidl/base/include/hidl/HidlSupport.h"
  },
  {
   "alignment" : 4,
   "linker_set_key" : "const android::hardware::hidl_array<int, 2> &",
   "name" : "const android::hardware::hidl_array<int, 2> &",
   "referenced_type" : "type-750",
   "self_type" : "type-752",
   "size" : 4,
   "source_file" : "/system/libhidl/base/include/hidl/HidlSupport.h"
  },
  {
   "alignment" : 4,
   "linker_set_key" : "const android::hardware::hidl_array<int, 4> &",
   "name" : "const android::hardware::hidl_array<int, 4> &",
   "referenced_type" : "type-746",
   "self_type" : "type-748",
   "size" : 4,
   "source_file" : "/system/libhidl/base/include/hidl/HidlSupport.h"
  },
  {
   "alignment" : 4,
   "linker_set_key" : "const android::hardware::hidl_handle &",
   "name" : "const android::hardware::hidl_handle &",
   "referenced_type" : "type-762",
   "self_type" : "type-763",
   "size" : 4,
   "source_file" : "/system/libhidl/base/include/hidl/HidlSupport.h"
  },
  {
   "alignment" : 4,
   "linker_set_key" : "const android::hardware::hidl_memory &",
   "name" : "const android::hardware::hidl_memory &",
   "referenced_type" : "type-659",
   "self_type" : "type-661",
   "size" : 4,
   "source_file" : "/system/libhidl/base/include/hidl/HidlSupport.h"
  },
  {
   "alignment" : 4,
   "linker_set_key" : "const android::hardware::hidl_string &",
   "name" : "const android::hardware::hidl_string &",
   "referenced_type" : "type-1021",
   "self_type" : "type-1020",
   "size" : 4,
   "source_file" : "/system/libhidl/base/include/hidl/HidlInternal.h"
  },
  {
   "alignment" : 4,
   "linker_set_key" : "const android::hardware::hidl_vec<android::hardware::camera::common::V1_0::VendorTag> &",
   "name" : "const android::hardware::hidl_vec<android::hardware::camera::common::V1_0::VendorTag> &",
   "referenced_type" : "type-710",
   "self_type" : "type-713",
   "size" : 4,
   "source_file" : "/system/libhidl/base/include/hidl/HidlSupport.h"
  },
  {
   "alignment" : 4,
   "linker_set_key" : "const android::hardware::hidl_vec<android::hardware::camera::device::V1_0::CameraFace> &",
   "name" : "const android::hardware::hidl_vec<android::hardware::camera::device::V1_0::CameraFace> &",
   "referenced_type" : "type-714",
   "self_type" : "type-716",
   "size" : 4,
   "source_file" : "/system/libhidl/base/include/hidl/HidlSupport.h"
  },
  {
   "alignment" : 4,
   "linker_set_key" : "const android::hardware::hidl_vec<android::hardware::camera::device::V1_0::HandleTimestampMessage> &",
   "name" : "const android::hardware::hidl_vec<android::hardware::camera::device::V1_0::HandleTimestampMessage> &",
   "referenced_type" : "type-33",
   "self_type" : "type-32",
   "size" : 4,
   "source_file" : "/system/libhidl/transport/include/hidl/HidlBinderSupport.h"
  },
  {
   "alignment" : 4,
   "linker_set_key" : "const android::hardware::hidl_vec<android::hardware::camera::device::V1_0::VideoFrameMessage> &",
   "name" : "const android::hardware::hidl_vec<android::hardware::camera::device::V1_0::VideoFrameMessage> &",
   "referenced_type" : "type-724",
   "self_type" : "type-809",
   "size" : 4,
   "source_file" : "/system/libhidl/transport/include/hidl/HidlBinderSupport.h"
  },
  {
   "alignment" : 4,
   "linker_set_key" : "const android::hardware::hidl_vec<android::hardware::hidl_string> &",
   "name" : "const android::hardware::hidl_vec<android::hardware::hidl_string> &",
   "referenced_type" : "type-683",
   "self_type" : "type-685",
   "size" : 4,
   "source_file" : "/system/libhidl/base/include/hidl/HidlSupport.h"
  },
  {
   "alignment" : 4,
   "linker_set_key" : "const android::hardware::hidl_vec<int> &",
   "name" : "const android::hardware::hidl_vec<int> &",
   "referenced_type" : "type-700",
   "self_type" : "type-702",
   "size" : 4,
   "source_file" : "/system/libhidl/base/include/hidl/HidlSupport.h"
  },
  {
   "alignment" : 4,
   "linker_set_key" : "const android::hardware::hidl_version &",
   "name" : "const android::hardware::hidl_version &",
   "referenced_type" : "type-755",
   "self_type" : "type-757",
   "size" : 4,
   "source_file" : "/system/libhidl/base/include/hidl/HidlSupport.h"
  },
  {
   "alignment" : 4,
   "linker_set_key" : "const android::hidl::base::V1_0::IBase *const &",
   "name" : "const android::hidl::base::V1_0::IBase *const &",
   "referenced_type" : "type-836",
   "self_type" : "type-837",
   "size" : 4,
   "source_file" : "/system/libhidl/transport/include/hidl/ConcurrentMap.h"
  },
  {
   "alignment" : 4,
   "linker_set_key" : "const android::sp<android::hardware::IBinder> &",
   "name" : "const android::sp<android::hardware::IBinder> &",
   "referenced_type" : "type-98",
   "self_type" : "type-141",
   "size" : 4,
   "source_file" : "/system/libhwbinder/include/hwbinder/IInterface.h"
  },
  {
   "alignment" : 4,
   "linker_set_key" : "const android::sp<android::hardware::camera::device::V1_0::ICameraDevice> &",
   "name" : "const android::sp<android::hardware::camera::device::V1_0::ICameraDevice> &",
   "referenced_type" : "type-332",
   "self_type" : "type-628",
   "size" : 4,
   "source_file" : "/system/core/libutils/include/utils/RefBase.h"
  },
  {
   "alignment" : 4,
   "linker_set_key" : "const android::sp<android::hardware::camera::device::V1_0::ICameraDeviceCallback> &",
   "name" : "const android::sp<android::hardware::camera::device::V1_0::ICameraDeviceCallback> &",
   "referenced_type" : "type-11",
   "self_type" : "type-10",
   "size" : 4,
   "source_file" : "/system/core/libutils/include/utils/StrongPointer.h"
  },
  {
   "alignment" : 4,
   "linker_set_key" : "const android::sp<android::hardware::camera::device::V1_0::ICameraDevicePreviewCallback> &",
   "name" : "const android::sp<android::hardware::camera::device::V1_0::ICameraDevicePreviewCallback> &",
   "referenced_type" : "type-14",
   "self_type" : "type-52",
   "size" : 4,
   "source_file" : "/system/core/libutils/include/utils/StrongPointer.h"
  },
  {
   "alignment" : 4,
   "linker_set_key" : "const android::sp<android::hardware::hidl_binder_death_recipient> &",
   "name" : "const android::sp<android::hardware::hidl_binder_death_recipient> &",
   "referenced_type" : "type-349",
   "self_type" : "type-801",
   "size" : 4,
   "source_file" : "/system/core/libutils/include/utils/RefBase.h"
  },
  {
   "alignment" : 4,
   "linker_set_key" : "const android::sp<android::hardware::hidl_death_recipient> &",
   "name" : "const android::sp<android::hardware::hidl_death_recipient> &",
   "referenced_type" : "type-891",
   "self_type" : "type-913",
   "size" : 4,
   "source_file" : "/system/core/libutils/include/utils/RefBase.h"
  },
  {
   "alignment" : 4,
   "linker_set_key" : "const android::sp<android::hidl::base::V1_0::IBase> &",
   "name" : "const android::sp<android::hidl::base::V1_0::IBase> &",
   "referenced_type" : "type-54",
   "self_type" : "type-1047",
   "size" : 4,
   "source_file" : "/system/core/libutils/include/utils/StrongPointer.h"
  },
  {
   "alignment" : 4,
   "linker_set_key" : "const android::sp<android::hidl::manager::V1_0::IServiceNotification> &",
   "name" : "const android::sp<android::hidl::manager::V1_0::IServiceNotification> &",
   "referenced_type" : "type-280",
   "self_type" : "type-1009",
   "size" : 4,
   "source_file" : "/out/soong/.intermediates/hardware/interfaces/camera/device/1.0/android.hardware.camera.device@1.0_genc++_headers/gen/android/hardware/camera/device/1.0/ICameraDevice.h"
  },
  {
   "alignment" : 4,
   "linker_set_key" : "const android::wp<android::hardware::BHwBinder> &",
   "name" : "const android::wp<android::hardware::BHwBinder> &",
   "referenced_type" : "type-1040",
   "self_type" : "type-1042",
   "size" : 4,
   "source_file" : "/system/core/libutils/include/utils/RefBase.h"
  },
  {
   "alignment" : 4,
   "linker_set_key" : "const android::wp<android::hidl::base::V1_0::IBase> &",
   "name" : "const android::wp<android::hidl::base::V1_0::IBase> &",
   "referenced_type" : "type-639",
   "self_type" : "type-660",
   "size" : 4,
   "source_file" : "/system/core/libutils/include/utils/RefBase.h"
  },
  {
   "alignment" : 4,
   "linker_set_key" : "const bool &",
   "name" : "const bool &",
   "referenced_type" : "type-253",
   "self_type" : "type-625",
   "size" : 4,
   "source_file" : "/system/core/libutils/include/utils/TypeHelpers.h"
  },
  {
   "alignment" : 4,
   "linker_set_key" : "const double &",
   "name" : "const double &",
   "referenced_type" : "type-646",
   "self_type" : "type-647",
   "size" : 4,
   "source_file" : "/system/core/libutils/include/utils/TypeHelpers.h"
  },
  {
   "alignment" : 4,
   "linker_set_key" : "const float &",
   "name" : "const float &",
   "referenced_type" : "type-644",
   "self_type" : "type-645",
   "size" : 4,
   "source_file" : "/system/core/libutils/include/utils/TypeHelpers.h"
  },
  {
   "alignment" : 4,
   "linker_set_key" : "const int &",
   "name" : "const int &",
   "referenced_type" : "type-734",
   "self_type" : "type-790",
   "size" : 4,
   "source_file" : "/system/libhidl/base/include/hidl/HidlInternal.h"
  },
  {
   "linker_set_key" : "const iter<is_const> &",
   "name" : "const iter<is_const> &",
   "referenced_type" : "type-1068",
   "self_type" : "type-1070",
   "source_file" : "/system/libhidl/base/include/hidl/HidlSupport.h"
  },
  {
   "linker_set_key" : "const iter<is_const> &",
   "name" : "const iter<is_const> &",
   "referenced_type" : "type-172",
   "self_type" : "type-174",
   "source_file" : "/system/libhidl/base/include/hidl/HidlSupport.h"
  },
  {
   "linker_set_key" : "const iter<is_const> &",
   "name" : "const iter<is_const> &",
   "referenced_type" : "type-244",
   "self_type" : "type-246",
   "source_file" : "/system/libhidl/base/include/hidl/HidlSupport.h"
  },
  {
   "linker_set_key" : "const iter<is_const> &",
   "name" : "const iter<is_const> &",
   "referenced_type" : "type-304",
   "self_type" : "type-307",
   "source_file" : "/system/libhidl/base/include/hidl/HidlSupport.h"
  },
  {
   "linker_set_key" : "const iter<is_const> &",
   "name" : "const iter<is_const> &",
   "referenced_type" : "type-415",
   "self_type" : "type-417",
   "source_file" : "/system/libhidl/base/include/hidl/HidlSupport.h"
  },
  {
   "linker_set_key" : "const iter<is_const> &",
   "name" : "const iter<is_const> &",
   "referenced_type" : "type-487",
   "self_type" : "type-489",
   "source_file" : "/system/libhidl/base/include/hidl/HidlSupport.h"
  },
  {
   "linker_set_key" : "const iter<is_const> &",
   "name" : "const iter<is_const> &",
   "referenced_type" : "type-568",
   "self_type" : "type-571",
   "source_file" : "/system/libhidl/base/include/hidl/HidlSupport.h"
  },
  {
   "linker_set_key" : "const iter<is_const> &",
   "name" : "const iter<is_const> &",
   "referenced_type" : "type-666",
   "self_type" : "type-668",
   "source_file" : "/system/libhidl/base/include/hidl/HidlSupport.h"
  },
  {
   "alignment" : 4,
   "linker_set_key" : "const log_msg &",
   "name" : "const log_msg &",
   "referenced_type" : "type-108",
   "self_type" : "type-275",
   "size" : 4,
   "source_file" : "/system/core/liblog/include/log/log_read.h"
  },
  {
   "alignment" : 4,
   "linker_set_key" : "const long long &",
   "name" : "const long long &",
   "referenced_type" : "type-640",
   "self_type" : "type-641",
   "size" : 4,
   "source_file" : "/system/core/libutils/include/utils/TypeHelpers.h"
  },
  {
   "alignment" : 4,
   "linker_set_key" : "const short &",
   "name" : "const short &",
   "referenced_type" : "type-632",
   "self_type" : "type-633",
   "size" : 4,
   "source_file" : "/system/core/libutils/include/utils/TypeHelpers.h"
  },
  {
   "alignment" : 4,
   "linker_set_key" : "const signed char &",
   "name" : "const signed char &",
   "referenced_type" : "type-626",
   "self_type" : "type-629",
   "size" : 4,
   "source_file" : "/system/core/libutils/include/utils/TypeHelpers.h"
  },
  {
   "alignment" : 4,
   "linker_set_key" : "const std::basic_string<char, std::char_traits<char>, std::allocator<char> > &",
   "name" : "const std::basic_string<char, std::char_traits<char>, std::allocator<char> > &",
   "referenced_type" : "type-185",
   "self_type" : "type-187",
   "size" : 4,
   "source_file" : "/system/libhidl/transport/include/hidl/HidlTransportSupport.h"
  },
  {
   "alignment" : 4,
   "linker_set_key" : "const std::basic_string<char, std::char_traits<char>, std::allocator<char> > &",
   "name" : "const std::basic_string<char, std::char_traits<char>, std::allocator<char> > &",
   "referenced_type" : "type-328",
   "self_type" : "type-330",
   "size" : 4,
   "source_file" : "/system/libhidl/transport/include/hidl/HidlTransportSupport.h"
  },
  {
   "alignment" : 4,
   "linker_set_key" : "const std::basic_string<char, std::char_traits<char>, std::allocator<char> > &",
   "name" : "const std::basic_string<char, std::char_traits<char>, std::allocator<char> > &",
   "referenced_type" : "type-434",
   "self_type" : "type-436",
   "size" : 4,
   "source_file" : "/system/libhidl/transport/include/hidl/HidlTransportSupport.h"
  },
  {
   "alignment" : 4,
   "linker_set_key" : "const std::basic_string<char, std::char_traits<char>, std::allocator<char> > &",
   "name" : "const std::basic_string<char, std::char_traits<char>, std::allocator<char> > &",
   "referenced_type" : "type-49",
   "self_type" : "type-51",
   "size" : 4,
   "source_file" : "/system/libhidl/transport/include/hidl/HidlTransportSupport.h"
  },
  {
   "alignment" : 4,
   "linker_set_key" : "const std::basic_string<char, std::char_traits<char>, std::allocator<char> > &",
   "name" : "const std::basic_string<char, std::char_traits<char>, std::allocator<char> > &",
   "referenced_type" : "type-505",
   "self_type" : "type-507",
   "size" : 4,
   "source_file" : "/system/libhidl/transport/include/hidl/HidlTransportSupport.h"
  },
  {
   "alignment" : 4,
   "linker_set_key" : "const std::basic_string<char, std::char_traits<char>, std::allocator<char> > &",
   "name" : "const std::basic_string<char, std::char_traits<char>, std::allocator<char> > &",
   "referenced_type" : "type-814",
   "self_type" : "type-816",
   "size" : 4,
   "source_file" : "/system/libhidl/transport/include/hidl/HidlTransportSupport.h"
  },
  {
   "alignment" : 4,
   "linker_set_key" : "const std::vector<std::function<void (InstrumentationEvent, const char *, const char *, const char *, const char *, vector<void *, allocator<void *> > *)>, std::allocator<std::function<void (InstrumentationEvent, const char *, const char *, const char *, const char *, vector<void *, allocator<void *> > *)> > > &",
   "name" : "const std::vector<std::function<void (InstrumentationEvent, const char *, const char *, const char *, const char *, vector<void *, allocator<void *> > *)>, std::allocator<std::function<void (InstrumentationEvent, const char *, const char *, const char *, const char *, vector<void *, allocator<void *> > *)> > > &",
   "referenced_type" : "type-104",
   "self_type" : "type-103",
   "size" : 4,
   "source_file" : "/system/libhidl/base/include/hidl/HidlInternal.h"
  },
  {
   "alignment" : 4,
   "linker_set_key" : "const std::vector<std::function<void (InstrumentationEvent, const char *, const char *, const char *, const char *, vector<void *, allocator<void *> > *)>, std::allocator<std::function<void (InstrumentationEvent, const char *, const char *, const char *, const char *, vector<void *, allocator<void *> > *)> > > &",
   "name" : "const std::vector<std::function<void (InstrumentationEvent, const char *, const char *, const char *, const char *, vector<void *, allocator<void *> > *)>, std::allocator<std::function<void (InstrumentationEvent, const char *, const char *, const char *, const char *, vector<void *, allocator<void *> > *)> > > &",
   "referenced_type" : "type-191",
   "self_type" : "type-190",
   "size" : 4,
   "source_file" : "/system/libhidl/base/include/hidl/HidlInternal.h"
  },
  {
   "alignment" : 4,
   "linker_set_key" : "const std::vector<std::function<void (InstrumentationEvent, const char *, const char *, const char *, const char *, vector<void *, allocator<void *> > *)>, std::allocator<std::function<void (InstrumentationEvent, const char *, const char *, const char *, const char *, vector<void *, allocator<void *> > *)> > > &",
   "name" : "const std::vector<std::function<void (InstrumentationEvent, const char *, const char *, const char *, const char *, vector<void *, allocator<void *> > *)>, std::allocator<std::function<void (InstrumentationEvent, const char *, const char *, const char *, const char *, vector<void *, allocator<void *> > *)> > > &",
   "referenced_type" : "type-230",
   "self_type" : "type-229",
   "size" : 4,
   "source_file" : "/system/libhidl/base/include/hidl/HidlInternal.h"
  },
  {
   "alignment" : 4,
   "linker_set_key" : "const std::vector<std::function<void (InstrumentationEvent, const char *, const char *, const char *, const char *, vector<void *, allocator<void *> > *)>, std::allocator<std::function<void (InstrumentationEvent, const char *, const char *, const char *, const char *, vector<void *, allocator<void *> > *)> > > &",
   "name" : "const std::vector<std::function<void (InstrumentationEvent, const char *, const char *, const char *, const char *, vector<void *, allocator<void *> > *)>, std::allocator<std::function<void (InstrumentationEvent, const char *, const char *, const char *, const char *, vector<void *, allocator<void *> > *)> > > &",
   "referenced_type" : "type-277",
   "self_type" : "type-276",
   "size" : 4,
   "source_file" : "/system/libhidl/base/include/hidl/HidlInternal.h"
  },
  {
   "alignment" : 4,
   "linker_set_key" : "const std::vector<std::function<void (InstrumentationEvent, const char *, const char *, const char *, const char *, vector<void *, allocator<void *> > *)>, std::allocator<std::function<void (InstrumentationEvent, const char *, const char *, const char *, const char *, vector<void *, allocator<void *> > *)> > > &",
   "name" : "const std::vector<std::function<void (InstrumentationEvent, const char *, const char *, const char *, const char *, vector<void *, allocator<void *> > *)>, std::allocator<std::function<void (InstrumentationEvent, const char *, const char *, const char *, const char *, vector<void *, allocator<void *> > *)> > > &",
   "referenced_type" : "type-284",
   "self_type" : "type-283",
   "size" : 4,
   "source_file" : "/system/libhidl/base/include/hidl/HidlInternal.h"
  },
  {
   "alignment" : 4,
   "linker_set_key" : "const std::vector<std::function<void (InstrumentationEvent, const char *, const char *, const char *, const char *, vector<void *, allocator<void *> > *)>, std::allocator<std::function<void (InstrumentationEvent, const char *, const char *, const char *, const char *, vector<void *, allocator<void *> > *)> > > &",
   "name" : "const std::vector<std::function<void (InstrumentationEvent, const char *, const char *, const char *, const char *, vector<void *, allocator<void *> > *)>, std::allocator<std::function<void (InstrumentationEvent, const char *, const char *, const char *, const char *, vector<void *, allocator<void *> > *)> > > &",
   "referenced_type" : "type-468",
   "self_type" : "type-467",
   "size" : 4,
   "source_file" : "/system/libhidl/base/include/hidl/HidlInternal.h"
  },
  {
   "alignment" : 4,
   "linker_set_key" : "const std::vector<std::function<void (InstrumentationEvent, const char *, const char *, const char *, const char *, vector<void *, allocator<void *> > *)>, std::allocator<std::function<void (InstrumentationEvent, const char *, const char *, const char *, const char *, vector<void *, allocator<void *> > *)> > > &",
   "name" : "const std::vector<std::function<void (InstrumentationEvent, const char *, const char *, const char *, const char *, vector<void *, allocator<void *> > *)>, std::allocator<std::function<void (InstrumentationEvent, const char *, const char *, const char *, const char *, vector<void *, allocator<void *> > *)> > > &",
   "referenced_type" : "type-556",
   "self_type" : "type-555",
   "size" : 4,
   "source_file" : "/system/libhidl/base/include/hidl/HidlInternal.h"
  },
  {
   "alignment" : 4,
   "linker_set_key" : "const std::vector<std::function<void (InstrumentationEvent, const char *, const char *, const char *, const char *, vector<void *, allocator<void *> > *)>, std::allocator<std::function<void (InstrumentationEvent, const char *, const char *, const char *, const char *, vector<void *, allocator<void *> > *)> > > &",
   "name" : "const std::vector<std::function<void (InstrumentationEvent, const char *, const char *, const char *, const char *, vector<void *, allocator<void *> > *)>, std::allocator<std::function<void (InstrumentationEvent, const char *, const char *, const char *, const char *, vector<void *, allocator<void *> > *)> > > &",
   "referenced_type" : "type-597",
   "self_type" : "type-596",
   "size" : 4,
   "source_file" : "/system/libhidl/base/include/hidl/HidlInternal.h"
  },
  {
   "alignment" : 4,
   "linker_set_key" : "const unsigned char &",
   "name" : "const unsigned char &",
   "referenced_type" : "type-630",
   "self_type" : "type-631",
   "size" : 4,
   "source_file" : "/system/core/libutils/include/utils/TypeHelpers.h"
  },
  {
   "alignment" : 4,
   "linker_set_key" : "const unsigned int &",
   "name" : "const unsigned int &",
   "referenced_type" : "type-131",
   "self_type" : "type-636",
   "size" : 4,
   "source_file" : "/system/core/libutils/include/utils/TypeHelpers.h"
  },
  {
   "alignment" : 4,
   "linker_set_key" : "const unsigned long long &",
   "name" : "const unsigned long long &",
   "referenced_type" : "type-642",
   "self_type" : "type-643",
   "size" : 4,
   "source_file" : "/system/core/libutils/include/utils/TypeHelpers.h"
  },
  {
   "alignment" : 4,
   "linker_set_key" : "const unsigned short &",
   "name" : "const unsigned short &",
   "referenced_type" : "type-634",
   "self_type" : "type-635",
   "size" : 4,
   "source_file" : "/system/core/libutils/include/utils/TypeHelpers.h"
  },
  {
   "alignment" : 4,
   "linker_set_key" : "int &",
   "name" : "int &",
   "referenced_type" : "type-45",
   "self_type" : "type-772",
   "size" : 4,
   "source_file" : "/out/soong/.intermediates/system/libhidl/transport/base/1.0/android.hidl.base@1.0_genc++_headers/gen/android/hidl/base/1.0/types.h"
  },
  {
   "alignment" : 4,
   "linker_set_key" : "unsigned char &",
   "name" : "unsigned char &",
   "referenced_type" : "type-112",
   "self_type" : "type-919",
   "size" : 4,
   "source_file" : "/out/soong/.intermediates/system/libhidl/transport/manager/1.0/android.hidl.manager@1.0_genc++_headers/gen/android/hidl/manager/1.0/IServiceManager.h"
  },
  {
   "alignment" : 4,
   "linker_set_key" : "unsigned int &",
   "name" : "unsigned int &",
   "referenced_type" : "type-2",
   "self_type" : "type-932",
   "size" : 4,
   "source_file" : "/out/soong/.intermediates/hardware/interfaces/camera/common/1.0/android.hardware.camera.common@1.0_genc++_headers/gen/android/hardware/camera/common/1.0/types.h"
  },
  {
   "alignment" : 4,
   "linker_set_key" : "unsigned long long &",
   "name" : "unsigned long long &",
   "referenced_type" : "type-47",
   "self_type" : "type-982",
   "size" : 4,
   "source_file" : "/out/soong/.intermediates/hardware/interfaces/graphics/common/1.0/android.hardware.graphics.common@1.0_genc++_headers/gen/android/hardware/graphics/common/1.0/types.h"
  }
 ],
 "pointer_types" :
 [
  {
   "alignment" : 4,
   "linker_set_key" : "android::Condition *",
   "name" : "android::Condition *",
   "referenced_type" : "type-254",
   "self_type" : "type-899",
   "size" : 4,
   "source_file" : "/system/core/libutils/include/utils/Condition.h"
  },
  {
   "alignment" : 4,
   "linker_set_key" : "android::Mutex *",
   "name" : "android::Mutex *",
   "referenced_type" : "type-127",
   "self_type" : "type-894",
   "size" : 4,
   "source_file" : "/system/core/libutils/include/utils/Mutex.h"
  },
  {
   "alignment" : 4,
   "linker_set_key" : "android::Mutex::Autolock *",
   "name" : "android::Mutex::Autolock *",
   "referenced_type" : "type-895",
   "self_type" : "type-897",
   "size" : 4,
   "source_file" : "/system/core/libutils/include/utils/Mutex.h"
  },
  {
   "alignment" : 4,
   "linker_set_key" : "android::RWLock *",
   "name" : "android::RWLock *",
   "referenced_type" : "type-900",
   "self_type" : "type-903",
   "size" : 4,
   "source_file" : "/system/core/libutils/include/utils/RWLock.h"
  },
  {
   "alignment" : 4,
   "linker_set_key" : "android::RWLock::AutoRLock *",
   "name" : "android::RWLock::AutoRLock *",
   "referenced_type" : "type-904",
   "self_type" : "type-906",
   "size" : 4,
   "source_file" : "/system/core/libutils/include/utils/RWLock.h"
  },
  {
   "alignment" : 4,
   "linker_set_key" : "android::RWLock::AutoWLock *",
   "name" : "android::RWLock::AutoWLock *",
   "referenced_type" : "type-907",
   "self_type" : "type-908",
   "size" : 4,
   "source_file" : "/system/core/libutils/include/utils/RWLock.h"
  },
  {
   "alignment" : 4,
   "linker_set_key" : "android::RefBase *",
   "name" : "android::RefBase *",
   "referenced_type" : "type-6",
   "self_type" : "type-653",
   "size" : 4,
   "source_file" : "/system/core/libutils/include/utils/RefBase.h"
  },
  {
   "alignment" : 4,
   "linker_set_key" : "android::RefBase::weakref_impl *",
   "name" : "android::RefBase::weakref_impl *",
   "referenced_type" : "type-1065",
   "self_type" : "type-1064",
   "size" : 4,
   "source_file" : "/system/core/libutils/include/utils/RefBase.h"
  },
  {
   "alignment" : 4,
   "linker_set_key" : "android::RefBase::weakref_impl *",
   "name" : "android::RefBase::weakref_impl *",
   "referenced_type" : "type-170",
   "self_type" : "type-169",
   "size" : 4,
   "source_file" : "/system/core/libutils/include/utils/RefBase.h"
  },
  {
   "alignment" : 4,
   "linker_set_key" : "android::RefBase::weakref_impl *",
   "name" : "android::RefBase::weakref_impl *",
   "referenced_type" : "type-240",
   "self_type" : "type-239",
   "size" : 4,
   "source_file" : "/system/core/libutils/include/utils/RefBase.h"
  },
  {
   "alignment" : 4,
   "linker_set_key" : "android::RefBase::weakref_impl *",
   "name" : "android::RefBase::weakref_impl *",
   "referenced_type" : "type-302",
   "self_type" : "type-301",
   "size" : 4,
   "source_file" : "/system/core/libutils/include/utils/RefBase.h"
  },
  {
   "alignment" : 4,
   "linker_set_key" : "android::RefBase::weakref_impl *",
   "name" : "android::RefBase::weakref_impl *",
   "referenced_type" : "type-413",
   "self_type" : "type-412",
   "size" : 4,
   "source_file" : "/system/core/libutils/include/utils/RefBase.h"
  },
  {
   "alignment" : 4,
   "linker_set_key" : "android::RefBase::weakref_impl *",
   "name" : "android::RefBase::weakref_impl *",
   "referenced_type" : "type-484",
   "self_type" : "type-483",
   "size" : 4,
   "source_file" : "/system/core/libutils/include/utils/RefBase.h"
  },
  {
   "alignment" : 4,
   "linker_set_key" : "android::RefBase::weakref_impl *",
   "name" : "android::RefBase::weakref_impl *",
   "referenced_type" : "type-565",
   "self_type" : "type-564",
   "size" : 4,
   "source_file" : "/system/core/libutils/include/utils/RefBase.h"
  },
  {
   "alignment" : 4,
   "linker_set_key" : "android::RefBase::weakref_impl *",
   "name" : "android::RefBase::weakref_impl *",
   "referenced_type" : "type-9",
   "self_type" : "type-8",
   "size" : 4,
   "source_file" : "/system/core/libutils/include/utils/RefBase.h"
  },
  {
   "alignment" : 4,
   "linker_set_key" : "android::RefBase::weakref_type *",
   "name" : "android::RefBase::weakref_type *",
   "referenced_type" : "type-28",
   "self_type" : "type-27",
   "size" : 4,
   "source_file" : "/system/core/libutils/include/utils/RefBase.h"
  },
  {
   "alignment" : 4,
   "linker_set_key" : "android::ReferenceRenamer *",
   "name" : "android::ReferenceRenamer *",
   "referenced_type" : "type-648",
   "self_type" : "type-649",
   "size" : 4,
   "source_file" : "/system/core/libutils/include/utils/RefBase.h"
  },
  {
   "alignment" : 4,
   "linker_set_key" : "android::ScopedTrace *",
   "name" : "android::ScopedTrace *",
   "referenced_type" : "type-910",
   "self_type" : "type-911",
   "size" : 4,
   "source_file" : "/system/core/libutils/include/utils/Trace.h"
  },
  {
   "alignment" : 4,
   "linker_set_key" : "android::String16 *",
   "name" : "android::String16 *",
   "referenced_type" : "type-137",
   "self_type" : "type-785",
   "size" : 4,
   "source_file" : "/system/core/libutils/include/utils/String16.h"
  },
  {
   "alignment" : 4,
   "linker_set_key" : "android::String8 *",
   "name" : "android::String8 *",
   "referenced_type" : "type-146",
   "self_type" : "type-780",
   "size" : 4,
   "source_file" : "/system/core/libutils/include/utils/String8.h"
  },
  {
   "alignment" : 4,
   "linker_set_key" : "android::Thread *",
   "name" : "android::Thread *",
   "referenced_type" : "type-252",
   "self_type" : "type-251",
   "size" : 4,
   "source_file" : "/system/core/libutils/include/utils/StrongPointer.h"
  },
  {
   "alignment" : 4,
   "linker_set_key" : "android::VirtualLightRefBase *",
   "name" : "android::VirtualLightRefBase *",
   "referenced_type" : "type-473",
   "self_type" : "type-479",
   "size" : 4,
   "source_file" : "/system/core/libutils/include/utils/LightRefBase.h"
  },
  {
   "alignment" : 4,
   "linker_set_key" : "android::hardware::BHwBinder *",
   "name" : "android::hardware::BHwBinder *",
   "referenced_type" : "type-363",
   "self_type" : "type-362",
   "size" : 4,
   "source_file" : "/system/core/libutils/include/utils/RefBase.h"
  },
  {
   "alignment" : 4,
   "linker_set_key" : "android::hardware::BpInterface<android::hardware::camera::device::V1_0::ICameraDevice> *",
   "name" : "android::hardware::BpInterface<android::hardware::camera::device::V1_0::ICameraDevice> *",
   "referenced_type" : "type-792",
   "self_type" : "type-791",
   "size" : 4,
   "source_file" : "/system/libhwbinder/include/hwbinder/IInterface.h"
  },
  {
   "alignment" : 4,
   "linker_set_key" : "android::hardware::BpInterface<android::hardware::camera::device::V1_0::ICameraDeviceCallback> *",
   "name" : "android::hardware::BpInterface<android::hardware::camera::device::V1_0::ICameraDeviceCallback> *",
   "referenced_type" : "type-21",
   "self_type" : "type-20",
   "size" : 4,
   "source_file" : "/system/libhwbinder/include/hwbinder/IInterface.h"
  },
  {
   "alignment" : 4,
   "linker_set_key" : "android::hardware::BpInterface<android::hardware::camera::device::V1_0::ICameraDevicePreviewCallback> *",
   "name" : "android::hardware::BpInterface<android::hardware::camera::device::V1_0::ICameraDevicePreviewCallback> *",
   "referenced_type" : "type-182",
   "self_type" : "type-181",
   "size" : 4,
   "source_file" : "/system/libhwbinder/include/hwbinder/IInterface.h"
  },
  {
   "alignment" : 4,
   "linker_set_key" : "android::hardware::ConcurrentMap<const android::hidl::base::V1_0::IBase *, android::wp<android::hardware::BHwBinder> > *",
   "name" : "android::hardware::ConcurrentMap<const android::hidl::base::V1_0::IBase *, android::wp<android::hardware::BHwBinder> > *",
   "referenced_type" : "type-831",
   "self_type" : "type-835",
   "size" : 4,
   "source_file" : "/system/libhidl/transport/include/hidl/ConcurrentMap.h"
  },
  {
   "alignment" : 4,
   "linker_set_key" : "android::hardware::ConcurrentMap<std::basic_string<char, std::char_traits<char>, std::allocator<char> >, std::function<sp<IBase> (void *)> > *",
   "name" : "android::hardware::ConcurrentMap<std::basic_string<char, std::char_traits<char>, std::allocator<char> >, std::function<sp<IBase> (void *)> > *",
   "referenced_type" : "type-848",
   "self_type" : "type-853",
   "size" : 4,
   "source_file" : "/system/libhidl/transport/include/hidl/ConcurrentMap.h"
  },
  {
   "alignment" : 4,
   "linker_set_key" : "android::hardware::ConcurrentMap<std::basic_string<char, std::char_traits<char>, std::allocator<char> >, std::function<sp<IBinder> (void *)> > *",
   "name" : "android::hardware::ConcurrentMap<std::basic_string<char, std::char_traits<char>, std::allocator<char> >, std::function<sp<IBinder> (void *)> > *",
   "referenced_type" : "type-838",
   "self_type" : "type-843",
   "size" : 4,
   "source_file" : "/system/libhidl/transport/include/hidl/ConcurrentMap.h"
  },
  {
   "alignment" : 4,
   "linker_set_key" : "android::hardware::GrantorDescriptor *",
   "name" : "android::hardware::GrantorDescriptor *",
   "referenced_type" : "type-673",
   "self_type" : "type-672",
   "size" : 4,
   "source_file" : "/system/libhidl/base/include/hidl/HidlInternal.h"
  },
  {
   "alignment" : 4,
   "linker_set_key" : "android::hardware::IBinder *",
   "name" : "android::hardware::IBinder *",
   "referenced_type" : "type-26",
   "self_type" : "type-25",
   "size" : 4,
   "source_file" : "/system/core/libutils/include/utils/StrongPointer.h"
  },
  {
   "alignment" : 4,
   "linker_set_key" : "android::hardware::IBinder::DeathRecipient *",
   "name" : "android::hardware::IBinder::DeathRecipient *",
   "referenced_type" : "type-67",
   "self_type" : "type-66",
   "size" : 4,
   "source_file" : "/system/core/libutils/include/utils/RefBase.h"
  },
  {
   "alignment" : 4,
   "linker_set_key" : "android::hardware::IInterface *",
   "name" : "android::hardware::IInterface *",
   "referenced_type" : "type-22",
   "self_type" : "type-107",
   "size" : 4,
   "source_file" : "/system/core/libutils/include/utils/StrongPointer.h"
  },
  {
   "alignment" : 4,
   "linker_set_key" : "android::hardware::Parcel *",
   "name" : "android::hardware::Parcel *",
   "referenced_type" : "type-793",
   "self_type" : "type-799",
   "size" : 4,
   "source_file" : "/system/libhwbinder/include/hwbinder/Parcel.h"
  },
  {
   "alignment" : 4,
   "linker_set_key" : "android::hardware::ProcessState *",
   "name" : "android::hardware::ProcessState *",
   "referenced_type" : "type-122",
   "self_type" : "type-121",
   "size" : 4,
   "source_file" : "/system/core/libutils/include/utils/StrongPointer.h"
  },
  {
   "alignment" : 4,
   "linker_set_key" : "android::hardware::Return<android::hardware::camera::common::V1_0::Status> *",
   "name" : "android::hardware::Return<android::hardware::camera::common::V1_0::Status> *",
   "referenced_type" : "type-408",
   "self_type" : "type-410",
   "size" : 4,
   "source_file" : "/system/libhidl/base/include/hidl/Status.h"
  },
  {
   "alignment" : 4,
   "linker_set_key" : "android::hardware::Return<android::sp<android::hardware::camera::device::V1_0::ICameraDevice> > *",
   "name" : "android::hardware::Return<android::sp<android::hardware::camera::device::V1_0::ICameraDevice> > *",
   "referenced_type" : "type-425",
   "self_type" : "type-426",
   "size" : 4,
   "source_file" : "/system/libhidl/base/include/hidl/Status.h"
  },
  {
   "alignment" : 4,
   "linker_set_key" : "android::hardware::Return<android::sp<android::hardware::camera::device::V1_0::ICameraDeviceCallback> > *",
   "name" : "android::hardware::Return<android::sp<android::hardware::camera::device::V1_0::ICameraDeviceCallback> > *",
   "referenced_type" : "type-1058",
   "self_type" : "type-1059",
   "size" : 4,
   "source_file" : "/system/libhidl/base/include/hidl/Status.h"
  },
  {
   "alignment" : 4,
   "linker_set_key" : "android::hardware::Return<android::sp<android::hardware::camera::device::V1_0::ICameraDevicePreviewCallback> > *",
   "name" : "android::hardware::Return<android::sp<android::hardware::camera::device::V1_0::ICameraDevicePreviewCallback> > *",
   "referenced_type" : "type-159",
   "self_type" : "type-163",
   "size" : 4,
   "source_file" : "/system/libhidl/base/include/hidl/Status.h"
  },
  {
   "alignment" : 4,
   "linker_set_key" : "android::hardware::Return<bool> *",
   "name" : "android::hardware::Return<bool> *",
   "referenced_type" : "type-402",
   "self_type" : "type-403",
   "size" : 4,
   "source_file" : "/system/libhidl/base/include/hidl/Status.h"
  },
  {
   "alignment" : 4,
   "linker_set_key" : "android::hardware::Return<unsigned int> *",
   "name" : "android::hardware::Return<unsigned int> *",
   "referenced_type" : "type-1052",
   "self_type" : "type-1053",
   "size" : 4,
   "source_file" : "/system/libhidl/base/include/hidl/Status.h"
  },
  {
   "alignment" : 4,
   "linker_set_key" : "android::hardware::Return<void> *",
   "name" : "android::hardware::Return<void> *",
   "referenced_type" : "type-464",
   "self_type" : "type-465",
   "size" : 4,
   "source_file" : "/system/libhidl/base/include/hidl/Status.h"
  },
  {
   "alignment" : 4,
   "linker_set_key" : "android::hardware::Status *",
   "name" : "android::hardware::Status *",
   "referenced_type" : "type-161",
   "self_type" : "type-390",
   "size" : 4,
   "source_file" : "/system/libhidl/base/include/hidl/Status.h"
  },
  {
   "alignment" : 4,
   "linker_set_key" : "android::hardware::camera::common::V1_0::VendorTag *",
   "name" : "android::hardware::camera::common::V1_0::VendorTag *",
   "referenced_type" : "type-708",
   "self_type" : "type-707",
   "size" : 4,
   "source_file" : "/system/libhidl/base/include/hidl/HidlInternal.h"
  },
  {
   "alignment" : 4,
   "linker_set_key" : "android::hardware::camera::device::V1_0::BnHwCameraDevice *",
   "name" : "android::hardware::camera::device::V1_0::BnHwCameraDevice *",
   "referenced_type" : "type-1003",
   "self_type" : "type-1036",
   "size" : 4,
   "source_file" : "/system/core/libutils/include/utils/RefBase.h"
  },
  {
   "alignment" : 4,
   "linker_set_key" : "android::hardware::camera::device::V1_0::BnHwCameraDeviceCallback *",
   "name" : "android::hardware::camera::device::V1_0::BnHwCameraDeviceCallback *",
   "referenced_type" : "type-811",
   "self_type" : "type-1015",
   "size" : 4,
   "source_file" : "/out/soong/.intermediates/hardware/interfaces/camera/device/1.0/android.hardware.camera.device@1.0_genc++_headers/gen/android/hardware/camera/device/1.0/BnHwCameraDeviceCallback.h"
  },
  {
   "alignment" : 4,
   "linker_set_key" : "android::hardware::camera::device::V1_0::BnHwCameraDevicePreviewCallback *",
   "name" : "android::hardware::camera::device::V1_0::BnHwCameraDevicePreviewCallback *",
   "referenced_type" : "type-813",
   "self_type" : "type-1018",
   "size" : 4,
   "source_file" : "/out/soong/.intermediates/hardware/interfaces/camera/device/1.0/android.hardware.camera.device@1.0_genc++_headers/gen/android/hardware/camera/device/1.0/BnHwCameraDevicePreviewCallback.h"
  },
  {
   "alignment" : 4,
   "linker_set_key" : "android::hardware::camera::device::V1_0::BpHwCameraDevice *",
   "name" : "android::hardware::camera::device::V1_0::BpHwCameraDevice *",
   "referenced_type" : "type-1024",
   "self_type" : "type-1067",
   "size" : 4,
   "source_file" : "/system/core/libutils/include/utils/StrongPointer.h"
  },
  {
   "alignment" : 4,
   "linker_set_key" : "android::hardware::camera::device::V1_0::BpHwCameraDeviceCallback *",
   "name" : "android::hardware::camera::device::V1_0::BpHwCameraDeviceCallback *",
   "referenced_type" : "type-287",
   "self_type" : "type-291",
   "size" : 4,
   "source_file" : "/system/core/libutils/include/utils/StrongPointer.h"
  },
  {
   "alignment" : 4,
   "linker_set_key" : "android::hardware::camera::device::V1_0::BpHwCameraDevicePreviewCallback *",
   "name" : "android::hardware::camera::device::V1_0::BpHwCameraDevicePreviewCallback *",
   "referenced_type" : "type-298",
   "self_type" : "type-306",
   "size" : 4,
   "source_file" : "/system/core/libutils/include/utils/StrongPointer.h"
  },
  {
   "alignment" : 4,
   "linker_set_key" : "android::hardware::camera::device::V1_0::BsCameraDevice *",
   "name" : "android::hardware::camera::device::V1_0::BsCameraDevice *",
   "referenced_type" : "type-1048",
   "self_type" : "type-1051",
   "size" : 4,
   "source_file" : "/system/core/libutils/include/utils/StrongPointer.h"
  },
  {
   "alignment" : 4,
   "linker_set_key" : "android::hardware::camera::device::V1_0::BsCameraDeviceCallback *",
   "name" : "android::hardware::camera::device::V1_0::BsCameraDeviceCallback *",
   "referenced_type" : "type-1049",
   "self_type" : "type-1050",
   "size" : 4,
   "source_file" : "/system/core/libutils/include/utils/StrongPointer.h"
  },
  {
   "alignment" : 4,
   "linker_set_key" : "android::hardware::camera::device::V1_0::BsCameraDevicePreviewCallback *",
   "name" : "android::hardware::camera::device::V1_0::BsCameraDevicePreviewCallback *",
   "referenced_type" : "type-151",
   "self_type" : "type-158",
   "size" : 4,
   "source_file" : "/system/core/libutils/include/utils/StrongPointer.h"
  },
  {
   "alignment" : 4,
   "linker_set_key" : "android::hardware::camera::device::V1_0::CameraFace *",
   "name" : "android::hardware::camera::device::V1_0::CameraFace *",
   "referenced_type" : "type-91",
   "self_type" : "type-90",
   "size" : 4,
   "source_file" : "/system/libhidl/base/include/hidl/HidlInternal.h"
  },
  {
   "alignment" : 4,
   "linker_set_key" : "android::hardware::camera::device::V1_0::HandleTimestampMessage *",
   "name" : "android::hardware::camera::device::V1_0::HandleTimestampMessage *",
   "referenced_type" : "type-38",
   "self_type" : "type-37",
   "size" : 4,
   "source_file" : "/system/libhidl/base/include/hidl/HidlInternal.h"
  },
  {
   "alignment" : 4,
   "linker_set_key" : "android::hardware::camera::device::V1_0::ICameraDevice *",
   "name" : "android::hardware::camera::device::V1_0::ICameraDevice *",
   "referenced_type" : "type-323",
   "self_type" : "type-322",
   "size" : 4,
   "source_file" : "/system/core/libutils/include/utils/StrongPointer.h"
  },
  {
   "alignment" : 4,
   "linker_set_key" : "android::hardware::camera::device::V1_0::ICameraDeviceCallback *",
   "name" : "android::hardware::camera::device::V1_0::ICameraDeviceCallback *",
   "referenced_type" : "type-4",
   "self_type" : "type-13",
   "size" : 4,
   "source_file" : "/system/core/libutils/include/utils/StrongPointer.h"
  },
  {
   "alignment" : 4,
   "linker_set_key" : "android::hardware::camera::device::V1_0::ICameraDevicePreviewCallback *",
   "name" : "android::hardware::camera::device::V1_0::ICameraDevicePreviewCallback *",
   "referenced_type" : "type-17",
   "self_type" : "type-16",
   "size" : 4,
   "source_file" : "/system/core/libutils/include/utils/StrongPointer.h"
  },
  {
   "alignment" : 4,
   "linker_set_key" : "android::hardware::camera::device::V1_0::VideoFrameMessage *",
   "name" : "android::hardware::camera::device::V1_0::VideoFrameMessage *",
   "referenced_type" : "type-721",
   "self_type" : "type-720",
   "size" : 4,
   "source_file" : "/system/libhidl/base/include/hidl/HidlInternal.h"
  },
  {
   "alignment" : 4,
   "linker_set_key" : "android::hardware::details::HidlInstrumentor *",
   "name" : "android::hardware::details::HidlInstrumentor *",
   "referenced_type" : "type-154",
   "self_type" : "type-268",
   "size" : 4,
   "source_file" : "/system/libhidl/base/include/hidl/HidlInternal.h"
  },
  {
   "alignment" : 4,
   "linker_set_key" : "android::hardware::details::const_accessor<int, 2> *",
   "name" : "android::hardware::details::const_accessor<int, 2> *",
   "referenced_type" : "type-738",
   "self_type" : "type-739",
   "size" : 4,
   "source_file" : "/system/libhidl/base/include/hidl/HidlSupport.h"
  },
  {
   "alignment" : 4,
   "linker_set_key" : "android::hardware::details::const_accessor<int, 4> *",
   "name" : "android::hardware::details::const_accessor<int, 4> *",
   "referenced_type" : "type-732",
   "self_type" : "type-735",
   "size" : 4,
   "source_file" : "/system/libhidl/base/include/hidl/HidlSupport.h"
  },
  {
   "alignment" : 4,
   "linker_set_key" : "android::hardware::details::hidl_pointer<android::hardware::hidl_array<unsigned char, 32> > *",
   "name" : "android::hardware::details::hidl_pointer<android::hardware::hidl_array<unsigned char, 32> > *",
   "referenced_type" : "type-687",
   "self_type" : "type-1034",
   "size" : 4,
   "source_file" : "/system/libhidl/base/include/hidl/HidlInternal.h"
  },
  {
   "alignment" : 4,
   "linker_set_key" : "android::hardware::details::hidl_pointer<android::hardware::hidl_string> *",
   "name" : "android::hardware::details::hidl_pointer<android::hardware::hidl_string> *",
   "referenced_type" : "type-675",
   "self_type" : "type-965",
   "size" : 4,
   "source_file" : "/system/libhidl/base/include/hidl/HidlInternal.h"
  },
  {
   "alignment" : 4,
   "linker_set_key" : "android::hardware::details::return_status *",
   "name" : "android::hardware::details::return_status *",
   "referenced_type" : "type-160",
   "self_type" : "type-445",
   "size" : 4,
   "source_file" : "/system/libhidl/base/include/hidl/Status.h"
  },
  {
   "alignment" : 4,
   "linker_set_key" : "android::hardware::hidl_array<int, 2> *",
   "name" : "android::hardware::hidl_array<int, 2> *",
   "referenced_type" : "type-94",
   "self_type" : "type-749",
   "size" : 4,
   "source_file" : "/system/libhidl/base/include/hidl/HidlSupport.h"
  },
  {
   "alignment" : 4,
   "linker_set_key" : "android::hardware::hidl_array<int, 4> *",
   "name" : "android::hardware::hidl_array<int, 4> *",
   "referenced_type" : "type-92",
   "self_type" : "type-743",
   "size" : 4,
   "source_file" : "/system/libhidl/base/include/hidl/HidlSupport.h"
  },
  {
   "alignment" : 4,
   "linker_set_key" : "android::hardware::hidl_array<unsigned char, 32> *",
   "name" : "android::hardware::hidl_array<unsigned char, 32> *",
   "referenced_type" : "type-690",
   "self_type" : "type-689",
   "size" : 4,
   "source_file" : "/system/libhidl/base/include/hidl/HidlInternal.h"
  },
  {
   "alignment" : 4,
   "linker_set_key" : "android::hardware::hidl_binder_death_recipient *",
   "name" : "android::hardware::hidl_binder_death_recipient *",
   "referenced_type" : "type-338",
   "self_type" : "type-337",
   "size" : 4,
   "source_file" : "/system/core/libutils/include/utils/StrongPointer.h"
  },
  {
   "alignment" : 4,
   "linker_set_key" : "android::hardware::hidl_death_recipient *",
   "name" : "android::hardware::hidl_death_recipient *",
   "referenced_type" : "type-341",
   "self_type" : "type-340",
   "size" : 4,
   "source_file" : "/system/core/libutils/include/utils/RefBase.h"
  },
  {
   "alignment" : 4,
   "linker_set_key" : "android::hardware::hidl_memory *",
   "name" : "android::hardware::hidl_memory *",
   "referenced_type" : "type-655",
   "self_type" : "type-657",
   "size" : 4,
   "source_file" : "/system/libhidl/base/include/hidl/HidlSupport.h"
  },
  {
   "alignment" : 4,
   "linker_set_key" : "android::hardware::hidl_string *",
   "name" : "android::hardware::hidl_string *",
   "referenced_type" : "type-656",
   "self_type" : "type-677",
   "size" : 4,
   "source_file" : "/system/libhidl/base/include/hidl/HidlInternal.h"
  },
  {
   "alignment" : 4,
   "linker_set_key" : "android::hardware::hidl_vec<android::hardware::hidl_array<unsigned char, 32> > *",
   "name" : "android::hardware::hidl_vec<android::hardware::hidl_array<unsigned char, 32> > *",
   "referenced_type" : "type-686",
   "self_type" : "type-692",
   "size" : 4,
   "source_file" : "/system/libhidl/base/include/hidl/HidlSupport.h"
  },
  {
   "alignment" : 4,
   "linker_set_key" : "android::hardware::hidl_vec<android::hardware::hidl_string> *",
   "name" : "android::hardware::hidl_vec<android::hardware::hidl_string> *",
   "referenced_type" : "type-674",
   "self_type" : "type-678",
   "size" : 4,
   "source_file" : "/system/libhidl/base/include/hidl/HidlSupport.h"
  },
  {
   "alignment" : 4,
   "linker_set_key" : "android::hardware::hidl_version *",
   "name" : "android::hardware::hidl_version *",
   "referenced_type" : "type-753",
   "self_type" : "type-754",
   "size" : 4,
   "source_file" : "/system/libhidl/base/include/hidl/HidlSupport.h"
  },
  {
   "alignment" : 4,
   "linker_set_key" : "android::hidl::base::V1_0::BnHwBase *",
   "name" : "android::hidl::base::V1_0::BnHwBase *",
   "referenced_type" : "type-808",
   "self_type" : "type-807",
   "size" : 4,
   "source_file" : "/out/soong/.intermediates/system/libhidl/transport/base/1.0/android.hidl.base@1.0_genc++_headers/gen/android/hidl/base/1.0/BnHwBase.h"
  },
  {
   "alignment" : 4,
   "linker_set_key" : "android::hidl::base::V1_0::IBase *",
   "name" : "android::hidl::base::V1_0::IBase *",
   "referenced_type" : "type-5",
   "self_type" : "type-56",
   "size" : 4,
   "source_file" : "/system/core/libutils/include/utils/RefBase.h"
  },
  {
   "alignment" : 4,
   "linker_set_key" : "android::hidl::manager::V1_0::IServiceManager *",
   "name" : "android::hidl::manager::V1_0::IServiceManager *",
   "referenced_type" : "type-235",
   "self_type" : "type-234",
   "size" : 4,
   "source_file" : "/system/core/libutils/include/utils/StrongPointer.h"
  },
  {
   "alignment" : 4,
   "linker_set_key" : "android::hidl::manager::V1_0::IServiceNotification *",
   "name" : "android::hidl::manager::V1_0::IServiceNotification *",
   "referenced_type" : "type-263",
   "self_type" : "type-262",
   "size" : 4,
   "source_file" : "/system/core/libutils/include/utils/StrongPointer.h"
  },
  {
   "alignment" : 4,
   "linker_set_key" : "android::sp<android::hardware::IBinder::DeathRecipient> *",
   "name" : "android::sp<android::hardware::IBinder::DeathRecipient> *",
   "referenced_type" : "type-65",
   "self_type" : "type-72",
   "size" : 4,
   "source_file" : "/system/core/libutils/include/utils/StrongPointer.h"
  },
  {
   "alignment" : 4,
   "linker_set_key" : "android::sp<android::hardware::IBinder> *",
   "name" : "android::sp<android::hardware::IBinder> *",
   "referenced_type" : "type-77",
   "self_type" : "type-84",
   "size" : 4,
   "source_file" : "/system/core/libutils/include/utils/StrongPointer.h"
  },
  {
   "alignment" : 4,
   "linker_set_key" : "android::sp<android::hardware::ProcessState> *",
   "name" : "android::sp<android::hardware::ProcessState> *",
   "referenced_type" : "type-120",
   "self_type" : "type-227",
   "size" : 4,
   "source_file" : "/system/core/libutils/include/utils/StrongPointer.h"
  },
  {
   "alignment" : 4,
   "linker_set_key" : "android::sp<android::hardware::camera::device::V1_0::ICameraDevice> *",
   "name" : "android::sp<android::hardware::camera::device::V1_0::ICameraDevice> *",
   "referenced_type" : "type-321",
   "self_type" : "type-320",
   "size" : 4,
   "source_file" : "/system/core/libutils/include/utils/StrongPointer.h"
  },
  {
   "alignment" : 4,
   "linker_set_key" : "android::sp<android::hardware::camera::device::V1_0::ICameraDeviceCallback> *",
   "name" : "android::sp<android::hardware::camera::device::V1_0::ICameraDeviceCallback> *",
   "referenced_type" : "type-12",
   "self_type" : "type-286",
   "size" : 4,
   "source_file" : "/system/core/libutils/include/utils/StrongPointer.h"
  },
  {
   "alignment" : 4,
   "linker_set_key" : "android::sp<android::hardware::camera::device::V1_0::ICameraDevicePreviewCallback> *",
   "name" : "android::sp<android::hardware::camera::device::V1_0::ICameraDevicePreviewCallback> *",
   "referenced_type" : "type-15",
   "self_type" : "type-297",
   "size" : 4,
   "source_file" : "/system/core/libutils/include/utils/StrongPointer.h"
  },
  {
   "alignment" : 4,
   "linker_set_key" : "android::sp<android::hardware::hidl_binder_death_recipient> *",
   "name" : "android::sp<android::hardware::hidl_binder_death_recipient> *",
   "referenced_type" : "type-336",
   "self_type" : "type-335",
   "size" : 4,
   "source_file" : "/system/core/libutils/include/utils/StrongPointer.h"
  },
  {
   "alignment" : 4,
   "linker_set_key" : "android::sp<android::hidl::base::V1_0::IBase> *",
   "name" : "android::sp<android::hidl::base::V1_0::IBase> *",
   "referenced_type" : "type-55",
   "self_type" : "type-1046",
   "size" : 4,
   "source_file" : "/system/core/libutils/include/utils/StrongPointer.h"
  },
  {
   "alignment" : 4,
   "linker_set_key" : "android::sp<android::hidl::manager::V1_0::IServiceManager> *",
   "name" : "android::sp<android::hidl::manager::V1_0::IServiceManager> *",
   "referenced_type" : "type-233",
   "self_type" : "type-237",
   "size" : 4,
   "source_file" : "/system/core/libutils/include/utils/StrongPointer.h"
  },
  {
   "alignment" : 4,
   "linker_set_key" : "android::sp<android::hidl::manager::V1_0::IServiceNotification> *",
   "name" : "android::sp<android::hidl::manager::V1_0::IServiceNotification> *",
   "referenced_type" : "type-261",
   "self_type" : "type-279",
   "size" : 4,
   "source_file" : "/system/core/libutils/include/utils/StrongPointer.h"
  },
  {
   "alignment" : 4,
   "linker_set_key" : "android::wp<android::hardware::BHwBinder> *",
   "name" : "android::wp<android::hardware::BHwBinder> *",
   "referenced_type" : "type-834",
   "self_type" : "type-993",
   "size" : 4,
   "source_file" : "/system/core/libutils/include/utils/RefBase.h"
  },
  {
   "alignment" : 4,
   "linker_set_key" : "android::wp<android::hardware::IBinder::DeathRecipient> *",
   "name" : "android::wp<android::hardware::IBinder::DeathRecipient> *",
   "referenced_type" : "type-681",
   "self_type" : "type-712",
   "size" : 4,
   "source_file" : "/system/core/libutils/include/utils/RefBase.h"
  },
  {
   "alignment" : 4,
   "linker_set_key" : "android::wp<android::hardware::hidl_death_recipient> *",
   "name" : "android::wp<android::hardware::hidl_death_recipient> *",
   "referenced_type" : "type-339",
   "self_type" : "type-858",
   "size" : 4,
   "source_file" : "/system/core/libutils/include/utils/RefBase.h"
  },
  {
   "alignment" : 4,
   "linker_set_key" : "android::wp<android::hidl::base::V1_0::IBase> *",
   "name" : "android::wp<android::hidl::base::V1_0::IBase> *",
   "referenced_type" : "type-290",
   "self_type" : "type-558",
   "size" : 4,
   "source_file" : "/system/core/libutils/include/utils/RefBase.h"
  },
  {
   "alignment" : 4,
   "linker_set_key" : "android_flex_plane *",
   "name" : "android_flex_plane *",
   "referenced_type" : "type-877",
   "self_type" : "type-880",
   "size" : 4,
   "source_file" : "/system/core/libsystem/include/system/graphics.h"
  },
  {
   "alignment" : 4,
   "linker_set_key" : "bool (*)(const android::String16 &, const android::sp<android::hardware::IBinder> &, void *)",
   "name" : "bool (*)(const android::String16 &, const android::sp<android::hardware::IBinder> &, void *)",
   "referenced_type" : "type-134",
   "self_type" : "type-133",
   "size" : 4,
   "source_file" : "/system/libhwbinder/include/hwbinder/ProcessState.h"
  },
  {
   "alignment" : 4,
   "linker_set_key" : "char *",
   "name" : "char *",
   "referenced_type" : "type-116",
   "self_type" : "type-354",
   "size" : 4,
   "source_file" : "/system/core/liblog/include/log/log_read.h"
  },
  {
   "alignment" : 4,
   "linker_set_key" : "const android::NativeHandle *",
   "name" : "const android::NativeHandle *",
   "referenced_type" : "type-767",
   "self_type" : "type-768",
   "size" : 4,
   "source_file" : "/system/core/libutils/include/utils/NativeHandle.h"
  },
  {
   "alignment" : 4,
   "linker_set_key" : "const android::RefBase *",
   "name" : "const android::RefBase *",
   "referenced_type" : "type-651",
   "self_type" : "type-652",
   "size" : 4,
   "source_file" : "/system/core/libutils/include/utils/RefBase.h"
  },
  {
   "alignment" : 4,
   "linker_set_key" : "const android::String16 *",
   "name" : "const android::String16 *",
   "referenced_type" : "type-136",
   "self_type" : "type-783",
   "size" : 4,
   "source_file" : "/system/core/libutils/include/utils/String16.h"
  },
  {
   "alignment" : 4,
   "linker_set_key" : "const android::String8 *",
   "name" : "const android::String8 *",
   "referenced_type" : "type-776",
   "self_type" : "type-777",
   "size" : 4,
   "source_file" : "/system/core/libutils/include/utils/String8.h"
  },
  {
   "alignment" : 4,
   "linker_set_key" : "const android::VectorImpl *",
   "name" : "const android::VectorImpl *",
   "referenced_type" : "type-856",
   "self_type" : "type-857",
   "size" : 4,
   "source_file" : "/system/core/libutils/include/utils/VectorImpl.h"
  },
  {
   "alignment" : 4,
   "linker_set_key" : "const android::hardware::BpHwRefBase *",
   "name" : "const android::hardware::BpHwRefBase *",
   "referenced_type" : "type-787",
   "self_type" : "type-788",
   "size" : 4,
   "source_file" : "/system/libhwbinder/include/hwbinder/Binder.h"
  },
  {
   "alignment" : 4,
   "linker_set_key" : "const android::hardware::ConcurrentMap<android::wp<android::hidl::base::V1_0::IBase>, android::hardware::details::SchedPrio> *",
   "name" : "const android::hardware::ConcurrentMap<android::wp<android::hidl::base::V1_0::IBase>, android::hardware::details::SchedPrio> *",
   "referenced_type" : "type-823",
   "self_type" : "type-825",
   "size" : 4,
   "source_file" : "/system/libhidl/transport/include/hidl/ConcurrentMap.h"
  },
  {
   "alignment" : 4,
   "linker_set_key" : "const android::hardware::ConcurrentMap<android::wp<android::hidl::base::V1_0::IBase>, bool> *",
   "name" : "const android::hardware::ConcurrentMap<android::wp<android::hidl::base::V1_0::IBase>, bool> *",
   "referenced_type" : "type-829",
   "self_type" : "type-830",
   "size" : 4,
   "source_file" : "/system/libhidl/transport/include/hidl/ConcurrentMap.h"
  },
  {
   "alignment" : 4,
   "linker_set_key" : "const android::hardware::Return<android::hardware::camera::common::V1_0::Status> *",
   "name" : "const android::hardware::Return<android::hardware::camera::common::V1_0::Status> *",
   "referenced_type" : "type-423",
   "self_type" : "type-424",
   "size" : 4,
   "source_file" : "/system/libhidl/base/include/hidl/Status.h"
  },
  {
   "alignment" : 4,
   "linker_set_key" : "const android::hardware::Return<android::sp<android::hardware::camera::device::V1_0::ICameraDevice> > *",
   "name" : "const android::hardware::Return<android::sp<android::hardware::camera::device::V1_0::ICameraDevice> > *",
   "referenced_type" : "type-431",
   "self_type" : "type-437",
   "size" : 4,
   "source_file" : "/system/libhidl/base/include/hidl/Status.h"
  },
  {
   "alignment" : 4,
   "linker_set_key" : "const android::hardware::Return<android::sp<android::hardware::camera::device::V1_0::ICameraDeviceCallback> > *",
   "name" : "const android::hardware::Return<android::sp<android::hardware::camera::device::V1_0::ICameraDeviceCallback> > *",
   "referenced_type" : "type-1062",
   "self_type" : "type-1063",
   "size" : 4,
   "source_file" : "/system/libhidl/base/include/hidl/Status.h"
  },
  {
   "alignment" : 4,
   "linker_set_key" : "const android::hardware::Return<android::sp<android::hardware::camera::device::V1_0::ICameraDevicePreviewCallback> > *",
   "name" : "const android::hardware::Return<android::sp<android::hardware::camera::device::V1_0::ICameraDevicePreviewCallback> > *",
   "referenced_type" : "type-166",
   "self_type" : "type-167",
   "size" : 4,
   "source_file" : "/system/libhidl/base/include/hidl/Status.h"
  },
  {
   "alignment" : 4,
   "linker_set_key" : "const android::hardware::Return<bool> *",
   "name" : "const android::hardware::Return<bool> *",
   "referenced_type" : "type-406",
   "self_type" : "type-407",
   "size" : 4,
   "source_file" : "/system/libhidl/base/include/hidl/Status.h"
  },
  {
   "alignment" : 4,
   "linker_set_key" : "const android::hardware::Return<unsigned int> *",
   "name" : "const android::hardware::Return<unsigned int> *",
   "referenced_type" : "type-1056",
   "self_type" : "type-1057",
   "size" : 4,
   "source_file" : "/system/libhidl/base/include/hidl/Status.h"
  },
  {
   "alignment" : 4,
   "linker_set_key" : "const android::hardware::Status *",
   "name" : "const android::hardware::Status *",
   "referenced_type" : "type-397",
   "self_type" : "type-401",
   "size" : 4,
   "source_file" : "/system/libhidl/base/include/hidl/Status.h"
  },
  {
   "alignment" : 4,
   "linker_set_key" : "const android::hardware::camera::device::V1_0::BpHwCameraDevice *",
   "name" : "const android::hardware::camera::device::V1_0::BpHwCameraDevice *",
   "referenced_type" : "type-1023",
   "self_type" : "type-1027",
   "size" : 4,
   "source_file" : "/out/soong/.intermediates/hardware/interfaces/camera/device/1.0/android.hardware.camera.device@1.0_genc++_headers/gen/android/hardware/camera/device/1.0/BpHwCameraDevice.h"
  },
  {
   "alignment" : 4,
   "linker_set_key" : "const android::hardware::camera::device::V1_0::BpHwCameraDeviceCallback *",
   "name" : "const android::hardware::camera::device::V1_0::BpHwCameraDeviceCallback *",
   "referenced_type" : "type-1016",
   "self_type" : "type-1017",
   "size" : 4,
   "source_file" : "/out/soong/.intermediates/hardware/interfaces/camera/device/1.0/android.hardware.camera.device@1.0_genc++_headers/gen/android/hardware/camera/device/1.0/BpHwCameraDeviceCallback.h"
  },
  {
   "alignment" : 4,
   "linker_set_key" : "const android::hardware::camera::device::V1_0::BpHwCameraDevicePreviewCallback *",
   "name" : "const android::hardware::camera::device::V1_0::BpHwCameraDevicePreviewCallback *",
   "referenced_type" : "type-1019",
   "self_type" : "type-1022",
   "size" : 4,
   "source_file" : "/out/soong/.intermediates/hardware/interfaces/camera/device/1.0/android.hardware.camera.device@1.0_genc++_headers/gen/android/hardware/camera/device/1.0/BpHwCameraDevicePreviewCallback.h"
  },
  {
   "alignment" : 4,
   "linker_set_key" : "const android::hardware::camera::device::V1_0::CameraFace *",
   "name" : "const android::hardware::camera::device::V1_0::CameraFace *",
   "referenced_type" : "type-248",
   "self_type" : "type-247",
   "size" : 4,
   "source_file" : "/system/libhidl/base/include/hidl/HidlSupport.h"
  },
  {
   "alignment" : 4,
   "linker_set_key" : "const android::hardware::camera::device::V1_0::HandleTimestampMessage *",
   "name" : "const android::hardware::camera::device::V1_0::HandleTimestampMessage *",
   "referenced_type" : "type-101",
   "self_type" : "type-1075",
   "size" : 4,
   "source_file" : "/system/libhidl/base/include/hidl/HidlSupport.h"
  },
  {
   "alignment" : 4,
   "linker_set_key" : "const android::hardware::camera::device::V1_0::ICameraDevice *",
   "name" : "const android::hardware::camera::device::V1_0::ICameraDevice *",
   "referenced_type" : "type-1006",
   "self_type" : "type-1007",
   "size" : 4,
   "source_file" : "/out/soong/.intermediates/hardware/interfaces/camera/device/1.0/android.hardware.camera.device@1.0_genc++_headers/gen/android/hardware/camera/device/1.0/ICameraDevice.h"
  },
  {
   "alignment" : 4,
   "linker_set_key" : "const android::hardware::camera::device::V1_0::ICameraDeviceCallback *",
   "name" : "const android::hardware::camera::device::V1_0::ICameraDeviceCallback *",
   "referenced_type" : "type-295",
   "self_type" : "type-296",
   "size" : 4,
   "source_file" : "/system/core/libutils/include/utils/StrongPointer.h"
  },
  {
   "alignment" : 4,
   "linker_set_key" : "const android::hardware::camera::device::V1_0::ICameraDevicePreviewCallback *",
   "name" : "const android::hardware::camera::device::V1_0::ICameraDevicePreviewCallback *",
   "referenced_type" : "type-316",
   "self_type" : "type-317",
   "size" : 4,
   "source_file" : "/system/core/libutils/include/utils/StrongPointer.h"
  },
  {
   "alignment" : 4,
   "linker_set_key" : "const android::hardware::camera::device::V1_0::VideoFrameMessage *",
   "name" : "const android::hardware::camera::device::V1_0::VideoFrameMessage *",
   "referenced_type" : "type-723",
   "self_type" : "type-722",
   "size" : 4,
   "source_file" : "/system/libhidl/base/include/hidl/HidlSupport.h"
  },
  {
   "alignment" : 4,
   "linker_set_key" : "const android::hardware::details::const_accessor<int, 2> *",
   "name" : "const android::hardware::details::const_accessor<int, 2> *",
   "referenced_type" : "type-740",
   "self_type" : "type-741",
   "size" : 4,
   "source_file" : "/system/libhidl/base/include/hidl/HidlSupport.h"
  },
  {
   "alignment" : 4,
   "linker_set_key" : "const android::hardware::details::const_accessor<int, 4> *",
   "name" : "const android::hardware::details::const_accessor<int, 4> *",
   "referenced_type" : "type-736",
   "self_type" : "type-737",
   "size" : 4,
   "source_file" : "/system/libhidl/base/include/hidl/HidlSupport.h"
  },
  {
   "alignment" : 4,
   "linker_set_key" : "const android::hardware::details::hidl_pointer<android::hardware::camera::common::V1_0::VendorTag> *",
   "name" : "const android::hardware::details::hidl_pointer<android::hardware::camera::common::V1_0::VendorTag> *",
   "referenced_type" : "type-902",
   "self_type" : "type-909",
   "size" : 4,
   "source_file" : "/system/libhidl/base/include/hidl/HidlInternal.h"
  },
  {
   "alignment" : 4,
   "linker_set_key" : "const android::hardware::details::hidl_pointer<android::hardware::camera::device::V1_0::CameraFace> *",
   "name" : "const android::hardware::details::hidl_pointer<android::hardware::camera::device::V1_0::CameraFace> *",
   "referenced_type" : "type-1029",
   "self_type" : "type-1030",
   "size" : 4,
   "source_file" : "/system/libhidl/base/include/hidl/HidlInternal.h"
  },
  {
   "alignment" : 4,
   "linker_set_key" : "const android::hardware::details::hidl_pointer<android::hardware::camera::device::V1_0::HandleTimestampMessage> *",
   "name" : "const android::hardware::details::hidl_pointer<android::hardware::camera::device::V1_0::HandleTimestampMessage> *",
   "referenced_type" : "type-97",
   "self_type" : "type-99",
   "size" : 4,
   "source_file" : "/system/libhidl/base/include/hidl/HidlInternal.h"
  },
  {
   "alignment" : 4,
   "linker_set_key" : "const android::hardware::details::hidl_pointer<android::hardware::camera::device::V1_0::VideoFrameMessage> *",
   "name" : "const android::hardware::details::hidl_pointer<android::hardware::camera::device::V1_0::VideoFrameMessage> *",
   "referenced_type" : "type-1031",
   "self_type" : "type-1032",
   "size" : 4,
   "source_file" : "/system/libhidl/base/include/hidl/HidlInternal.h"
  },
  {
   "alignment" : 4,
   "linker_set_key" : "const android::hardware::details::hidl_pointer<android::hardware::hidl_array<unsigned char, 32> > *",
   "name" : "const android::hardware::details::hidl_pointer<android::hardware::hidl_array<unsigned char, 32> > *",
   "referenced_type" : "type-1037",
   "self_type" : "type-1038",
   "size" : 4,
   "source_file" : "/system/libhidl/base/include/hidl/HidlInternal.h"
  },
  {
   "alignment" : 4,
   "linker_set_key" : "const android::hardware::details::hidl_pointer<android::hardware::hidl_string> *",
   "name" : "const android::hardware::details::hidl_pointer<android::hardware::hidl_string> *",
   "referenced_type" : "type-988",
   "self_type" : "type-1000",
   "size" : 4,
   "source_file" : "/system/libhidl/base/include/hidl/HidlInternal.h"
  },
  {
   "alignment" : 4,
   "linker_set_key" : "const android::hardware::details::hidl_pointer<int> *",
   "name" : "const android::hardware::details::hidl_pointer<int> *",
   "referenced_type" : "type-812",
   "self_type" : "type-824",
   "size" : 4,
   "source_file" : "/system/libhidl/base/include/hidl/HidlInternal.h"
  },
  {
   "alignment" : 4,
   "linker_set_key" : "const android::hardware::details::return_status *",
   "name" : "const android::hardware::details::return_status *",
   "referenced_type" : "type-447",
   "self_type" : "type-452",
   "size" : 4,
   "source_file" : "/system/libhidl/base/include/hidl/Status.h"
  },
  {
   "alignment" : 4,
   "linker_set_key" : "const android::hardware::hidl_array<int, 2> *",
   "name" : "const android::hardware::hidl_array<int, 2> *",
   "referenced_type" : "type-750",
   "self_type" : "type-751",
   "size" : 4,
   "source_file" : "/system/libhidl/base/include/hidl/HidlSupport.h"
  },
  {
   "alignment" : 4,
   "linker_set_key" : "const android::hardware::hidl_array<int, 4> *",
   "name" : "const android::hardware::hidl_array<int, 4> *",
   "referenced_type" : "type-746",
   "self_type" : "type-747",
   "size" : 4,
   "source_file" : "/system/libhidl/base/include/hidl/HidlSupport.h"
  },
  {
   "alignment" : 4,
   "linker_set_key" : "const android::hardware::hidl_death_recipient *",
   "name" : "const android::hardware::hidl_death_recipient *",
   "referenced_type" : "type-1044",
   "self_type" : "type-1045",
   "size" : 4,
   "source_file" : "/system/core/libutils/include/utils/StrongPointer.h"
  },
  {
   "alignment" : 4,
   "linker_set_key" : "const android::hardware::hidl_memory *",
   "name" : "const android::hardware::hidl_memory *",
   "referenced_type" : "type-659",
   "self_type" : "type-664",
   "size" : 4,
   "source_file" : "/system/libhidl/base/include/hidl/HidlSupport.h"
  },
  {
   "alignment" : 4,
   "linker_set_key" : "const android::hardware::hidl_vec<android::hardware::camera::common::V1_0::VendorTag> *",
   "name" : "const android::hardware::hidl_vec<android::hardware::camera::common::V1_0::VendorTag> *",
   "referenced_type" : "type-710",
   "self_type" : "type-711",
   "size" : 4,
   "source_file" : "/system/libhidl/base/include/hidl/HidlSupport.h"
  },
  {
   "alignment" : 4,
   "linker_set_key" : "const android::hardware::hidl_vec<android::hardware::camera::device::V1_0::CameraFace> *",
   "name" : "const android::hardware::hidl_vec<android::hardware::camera::device::V1_0::CameraFace> *",
   "referenced_type" : "type-714",
   "self_type" : "type-715",
   "size" : 4,
   "source_file" : "/system/libhidl/base/include/hidl/HidlSupport.h"
  },
  {
   "alignment" : 4,
   "linker_set_key" : "const android::hardware::hidl_vec<android::hardware::camera::device::V1_0::HandleTimestampMessage> *",
   "name" : "const android::hardware::hidl_vec<android::hardware::camera::device::V1_0::HandleTimestampMessage> *",
   "referenced_type" : "type-33",
   "self_type" : "type-1076",
   "size" : 4,
   "source_file" : "/system/libhidl/base/include/hidl/HidlSupport.h"
  },
  {
   "alignment" : 4,
   "linker_set_key" : "const android::hardware::hidl_vec<android::hardware::camera::device::V1_0::VideoFrameMessage> *",
   "name" : "const android::hardware::hidl_vec<android::hardware::camera::device::V1_0::VideoFrameMessage> *",
   "referenced_type" : "type-724",
   "self_type" : "type-725",
   "size" : 4,
   "source_file" : "/system/libhidl/base/include/hidl/HidlSupport.h"
  },
  {
   "alignment" : 4,
   "linker_set_key" : "const android::hardware::hidl_vec<android::hardware::hidl_string> *",
   "name" : "const android::hardware::hidl_vec<android::hardware::hidl_string> *",
   "referenced_type" : "type-683",
   "self_type" : "type-684",
   "size" : 4,
   "source_file" : "/system/libhidl/base/include/hidl/HidlSupport.h"
  },
  {
   "alignment" : 4,
   "linker_set_key" : "const android::hardware::hidl_vec<int> *",
   "name" : "const android::hardware::hidl_vec<int> *",
   "referenced_type" : "type-700",
   "self_type" : "type-701",
   "size" : 4,
   "source_file" : "/system/libhidl/base/include/hidl/HidlSupport.h"
  },
  {
   "alignment" : 4,
   "linker_set_key" : "const android::hardware::hidl_version *",
   "name" : "const android::hardware::hidl_version *",
   "referenced_type" : "type-755",
   "self_type" : "type-756",
   "size" : 4,
   "source_file" : "/system/libhidl/base/include/hidl/HidlSupport.h"
  },
  {
   "alignment" : 4,
   "linker_set_key" : "const android::hidl::base::V1_0::BpHwBase *",
   "name" : "const android::hidl::base::V1_0::BpHwBase *",
   "referenced_type" : "type-1013",
   "self_type" : "type-1014",
   "size" : 4,
   "source_file" : "/out/soong/.intermediates/system/libhidl/transport/base/1.0/android.hidl.base@1.0_genc++_headers/gen/android/hidl/base/1.0/BpHwBase.h"
  },
  {
   "alignment" : 4,
   "linker_set_key" : "const android::hidl::base::V1_0::IBase *",
   "name" : "const android::hidl::base::V1_0::IBase *",
   "referenced_type" : "type-63",
   "self_type" : "type-64",
   "size" : 4,
   "source_file" : "/system/core/libutils/include/utils/StrongPointer.h"
  },
  {
   "alignment" : 4,
   "linker_set_key" : "const android::hidl::manager::V1_0::IServiceManager *",
   "name" : "const android::hidl::manager::V1_0::IServiceManager *",
   "referenced_type" : "type-243",
   "self_type" : "type-249",
   "size" : 4,
   "source_file" : "/system/core/libutils/include/utils/StrongPointer.h"
  },
  {
   "alignment" : 4,
   "linker_set_key" : "const android::hidl::manager::V1_0::IServiceNotification *",
   "name" : "const android::hidl::manager::V1_0::IServiceNotification *",
   "referenced_type" : "type-912",
   "self_type" : "type-914",
   "size" : 4,
   "source_file" : "/out/soong/.intermediates/system/libhidl/transport/manager/1.0/android.hidl.manager@1.0_genc++_headers/gen/android/hidl/manager/1.0/IServiceNotification.h"
  },
  {
   "alignment" : 4,
   "linker_set_key" : "const android::sp<android::hardware::IBinder> *",
   "name" : "const android::sp<android::hardware::IBinder> *",
   "referenced_type" : "type-98",
   "self_type" : "type-102",
   "size" : 4,
   "source_file" : "/system/core/libutils/include/utils/StrongPointer.h"
  },
  {
   "alignment" : 4,
   "linker_set_key" : "const android::sp<android::hardware::ProcessState> *",
   "name" : "const android::sp<android::hardware::ProcessState> *",
   "referenced_type" : "type-228",
   "self_type" : "type-232",
   "size" : 4,
   "source_file" : "/system/core/libutils/include/utils/StrongPointer.h"
  },
  {
   "alignment" : 4,
   "linker_set_key" : "const android::sp<android::hardware::camera::device::V1_0::ICameraDevice> *",
   "name" : "const android::sp<android::hardware::camera::device::V1_0::ICameraDevice> *",
   "referenced_type" : "type-332",
   "self_type" : "type-331",
   "size" : 4,
   "source_file" : "/system/core/libutils/include/utils/StrongPointer.h"
  },
  {
   "alignment" : 4,
   "linker_set_key" : "const android::sp<android::hardware::camera::device::V1_0::ICameraDeviceCallback> *",
   "name" : "const android::sp<android::hardware::camera::device::V1_0::ICameraDeviceCallback> *",
   "referenced_type" : "type-11",
   "self_type" : "type-294",
   "size" : 4,
   "source_file" : "/system/core/libutils/include/utils/StrongPointer.h"
  },
  {
   "alignment" : 4,
   "linker_set_key" : "const android::sp<android::hardware::camera::device::V1_0::ICameraDevicePreviewCallback> *",
   "name" : "const android::sp<android::hardware::camera::device::V1_0::ICameraDevicePreviewCallback> *",
   "referenced_type" : "type-14",
   "self_type" : "type-314",
   "size" : 4,
   "source_file" : "/system/core/libutils/include/utils/StrongPointer.h"
  },
  {
   "alignment" : 4,
   "linker_set_key" : "const android::sp<android::hardware::hidl_binder_death_recipient> *",
   "name" : "const android::sp<android::hardware::hidl_binder_death_recipient> *",
   "referenced_type" : "type-349",
   "self_type" : "type-348",
   "size" : 4,
   "source_file" : "/system/core/libutils/include/utils/StrongPointer.h"
  },
  {
   "alignment" : 4,
   "linker_set_key" : "const android::sp<android::hardware::hidl_death_recipient> *",
   "name" : "const android::sp<android::hardware::hidl_death_recipient> *",
   "referenced_type" : "type-891",
   "self_type" : "type-1043",
   "size" : 4,
   "source_file" : "/system/core/libutils/include/utils/StrongPointer.h"
  },
  {
   "alignment" : 4,
   "linker_set_key" : "const android::sp<android::hidl::base::V1_0::IBase> *",
   "name" : "const android::sp<android::hidl::base::V1_0::IBase> *",
   "referenced_type" : "type-54",
   "self_type" : "type-53",
   "size" : 4,
   "source_file" : "/system/core/libutils/include/utils/StrongPointer.h"
  },
  {
   "alignment" : 4,
   "linker_set_key" : "const android::sp<android::hidl::manager::V1_0::IServiceManager> *",
   "name" : "const android::sp<android::hidl::manager::V1_0::IServiceManager> *",
   "referenced_type" : "type-238",
   "self_type" : "type-242",
   "size" : 4,
   "source_file" : "/system/core/libutils/include/utils/StrongPointer.h"
  },
  {
   "alignment" : 4,
   "linker_set_key" : "const android::sp<android::hidl::manager::V1_0::IServiceNotification> *",
   "name" : "const android::sp<android::hidl::manager::V1_0::IServiceNotification> *",
   "referenced_type" : "type-280",
   "self_type" : "type-281",
   "size" : 4,
   "source_file" : "/system/core/libutils/include/utils/StrongPointer.h"
  },
  {
   "alignment" : 4,
   "linker_set_key" : "const android::wp<android::hardware::BHwBinder> *",
   "name" : "const android::wp<android::hardware::BHwBinder> *",
   "referenced_type" : "type-1040",
   "self_type" : "type-1041",
   "size" : 4,
   "source_file" : "/system/core/libutils/include/utils/RefBase.h"
  },
  {
   "alignment" : 4,
   "linker_set_key" : "const android::wp<android::hardware::hidl_death_recipient> *",
   "name" : "const android::wp<android::hardware::hidl_death_recipient> *",
   "referenced_type" : "type-869",
   "self_type" : "type-881",
   "size" : 4,
   "source_file" : "/system/core/libutils/include/utils/RefBase.h"
  },
  {
   "alignment" : 4,
   "linker_set_key" : "const android::wp<android::hidl::base::V1_0::IBase> *",
   "name" : "const android::wp<android::hidl::base::V1_0::IBase> *",
   "referenced_type" : "type-639",
   "self_type" : "type-650",
   "size" : 4,
   "source_file" : "/system/core/libutils/include/utils/RefBase.h"
  },
  {
   "alignment" : 4,
   "linker_set_key" : "const char *",
   "name" : "const char *",
   "referenced_type" : "type-148",
   "self_type" : "type-147",
   "size" : 4,
   "source_file" : "/system/libhidl/base/include/hidl/HidlInternal.h"
  },
  {
   "alignment" : 4,
   "linker_set_key" : "const char16_t *",
   "name" : "const char16_t *",
   "referenced_type" : "type-139",
   "self_type" : "type-138",
   "size" : 4,
   "source_file" : "/system/core/libutils/include/utils/String16.h"
  },
  {
   "alignment" : 4,
   "linker_set_key" : "const int *",
   "name" : "const int *",
   "referenced_type" : "type-734",
   "self_type" : "type-733",
   "size" : 4,
   "source_file" : "/system/libhidl/base/include/hidl/HidlSupport.h"
  },
  {
   "alignment" : 4,
   "linker_set_key" : "const log_msg *",
   "name" : "const log_msg *",
   "referenced_type" : "type-108",
   "self_type" : "type-236",
   "size" : 4,
   "source_file" : "/system/core/liblog/include/log/log_read.h"
  },
  {
   "alignment" : 4,
   "linker_set_key" : "const native_handle *",
   "name" : "const native_handle *",
   "referenced_type" : "type-43",
   "self_type" : "type-42",
   "size" : 4,
   "source_file" : "/system/libhidl/base/include/hidl/HidlInternal.h"
  },
  {
   "alignment" : 4,
   "linker_set_key" : "const unsigned char *",
   "name" : "const unsigned char *",
   "referenced_type" : "type-630",
   "self_type" : "type-742",
   "size" : 4,
   "source_file" : "/system/libhidl/base/include/hidl/HidlSupport.h"
  },
  {
   "alignment" : 4,
   "linker_set_key" : "const unsigned long long *",
   "name" : "const unsigned long long *",
   "referenced_type" : "type-642",
   "self_type" : "type-800",
   "size" : 4,
   "source_file" : "/system/libhwbinder/include/hwbinder/Parcel.h"
  },
  {
   "alignment" : 4,
   "linker_set_key" : "const void *",
   "name" : "const void *",
   "referenced_type" : "type-758",
   "self_type" : "type-759",
   "size" : 4,
   "source_file" : "/system/libhidl/base/include/hidl/HidlSupport.h"
  },
  {
   "alignment" : 4,
   "linker_set_key" : "int (*)(void *)",
   "name" : "int (*)(void *)",
   "referenced_type" : "type-889",
   "self_type" : "type-890",
   "size" : 4,
   "source_file" : "/system/core/libutils/include/utils/AndroidThreads.h"
  },
  {
   "alignment" : 4,
   "linker_set_key" : "int *",
   "name" : "int *",
   "referenced_type" : "type-45",
   "self_type" : "type-699",
   "size" : 4,
   "source_file" : "/system/libhidl/base/include/hidl/HidlInternal.h"
  },
  {
   "alignment" : 4,
   "linker_set_key" : "log_msg *",
   "name" : "log_msg *",
   "referenced_type" : "type-109",
   "self_type" : "type-315",
   "size" : 4,
   "source_file" : "/system/core/liblog/include/log/log_read.h"
  },
  {
   "alignment" : 4,
   "linker_set_key" : "native_handle *",
   "name" : "native_handle *",
   "referenced_type" : "type-44",
   "self_type" : "type-478",
   "size" : 4,
   "source_file" : "/system/libhidl/base/include/hidl/HidlInternal.h"
  },
  {
   "alignment" : 4,
   "linker_set_key" : "unsigned char *",
   "name" : "unsigned char *",
   "referenced_type" : "type-112",
   "self_type" : "type-795",
   "size" : 4,
   "source_file" : "/system/libhwbinder/include/hwbinder/Parcel.h"
  },
  {
   "alignment" : 4,
   "linker_set_key" : "unsigned int *",
   "name" : "unsigned int *",
   "referenced_type" : "type-2",
   "self_type" : "type-810",
   "size" : 4,
   "source_file" : "/system/libhidl/transport/include/hidl/HidlBinderSupport.h"
  },
  {
   "alignment" : 4,
   "linker_set_key" : "unsigned long long *",
   "name" : "unsigned long long *",
   "referenced_type" : "type-47",
   "self_type" : "type-796",
   "size" : 4,
   "source_file" : "/system/libhwbinder/include/hwbinder/Parcel.h"
  },
  {
   "alignment" : 4,
   "linker_set_key" : "void (*)(android::hardware::Parcel *, const unsigned char *, unsigned int, const unsigned long long *, unsigned int, void *)",
   "name" : "void (*)(android::hardware::Parcel *, const unsigned char *, unsigned int, const unsigned long long *, unsigned int, void *)",
   "referenced_type" : "type-798",
   "self_type" : "type-797",
   "size" : 4,
   "source_file" : "/system/libhwbinder/include/hwbinder/Parcel.h"
  },
  {
   "alignment" : 4,
   "linker_set_key" : "void *",
   "name" : "void *",
   "referenced_type" : "type-124",
   "self_type" : "type-123",
   "size" : 4,
   "source_file" : "/system/libhwbinder/include/hwbinder/Binder.h"
  },
  {
   "alignment" : 4,
   "linker_set_key" : "void **",
   "name" : "void **",
   "referenced_type" : "type-123",
   "self_type" : "type-893",
   "size" : 4,
   "source_file" : "/system/core/libutils/include/utils/AndroidThreads.h"
  }
 ],
 "qualified_types" :
 [
  {
   "alignment" : 4,
   "is_const" : true,
   "linker_set_key" : "android::RefBase::weakref_impl *const",
   "name" : "android::RefBase::weakref_impl *const",
   "referenced_type" : "type-1064",
   "self_type" : "type-1066",
   "size" : 4,
   "source_file" : "/system/core/libutils/include/utils/RefBase.h"
  },
  {
   "alignment" : 4,
   "is_const" : true,
   "linker_set_key" : "android::RefBase::weakref_impl *const",
   "name" : "android::RefBase::weakref_impl *const",
   "referenced_type" : "type-169",
   "self_type" : "type-171",
   "size" : 4,
   "source_file" : "/system/core/libutils/include/utils/RefBase.h"
  },
  {
   "alignment" : 4,
   "is_const" : true,
   "linker_set_key" : "android::RefBase::weakref_impl *const",
   "name" : "android::RefBase::weakref_impl *const",
   "referenced_type" : "type-239",
   "self_type" : "type-241",
   "size" : 4,
   "source_file" : "/system/core/libutils/include/utils/RefBase.h"
  },
  {
   "alignment" : 4,
   "is_const" : true,
   "linker_set_key" : "android::RefBase::weakref_impl *const",
   "name" : "android::RefBase::weakref_impl *const",
   "referenced_type" : "type-301",
   "self_type" : "type-303",
   "size" : 4,
   "source_file" : "/system/core/libutils/include/utils/RefBase.h"
  },
  {
   "alignment" : 4,
   "is_const" : true,
   "linker_set_key" : "android::RefBase::weakref_impl *const",
   "name" : "android::RefBase::weakref_impl *const",
   "referenced_type" : "type-412",
   "self_type" : "type-414",
   "size" : 4,
   "source_file" : "/system/core/libutils/include/utils/RefBase.h"
  },
  {
   "alignment" : 4,
   "is_const" : true,
   "linker_set_key" : "android::RefBase::weakref_impl *const",
   "name" : "android::RefBase::weakref_impl *const",
   "referenced_type" : "type-483",
   "self_type" : "type-485",
   "size" : 4,
   "source_file" : "/system/core/libutils/include/utils/RefBase.h"
  },
  {
   "alignment" : 4,
   "is_const" : true,
   "linker_set_key" : "android::RefBase::weakref_impl *const",
   "name" : "android::RefBase::weakref_impl *const",
   "referenced_type" : "type-564",
   "self_type" : "type-566",
   "size" : 4,
   "source_file" : "/system/core/libutils/include/utils/RefBase.h"
  },
  {
   "alignment" : 4,
   "is_const" : true,
   "linker_set_key" : "android::RefBase::weakref_impl *const",
   "name" : "android::RefBase::weakref_impl *const",
   "referenced_type" : "type-8",
   "self_type" : "type-7",
   "size" : 4,
   "source_file" : "/system/core/libutils/include/utils/RefBase.h"
  },
  {
   "alignment" : 4,
   "is_const" : true,
   "linker_set_key" : "android::hardware::IBinder *const",
   "name" : "android::hardware::IBinder *const",
   "referenced_type" : "type-25",
   "self_type" : "type-24",
   "size" : 4,
   "source_file" : "/system/libhwbinder/include/hwbinder/Binder.h"
  },
  {
   "alignment" : 4,
   "is_const" : true,
   "linker_set_key" : "const android::NativeHandle",
   "name" : "const android::NativeHandle",
   "referenced_type" : "type-477",
   "self_type" : "type-767",
   "size" : 12,
   "source_file" : "/system/core/libutils/include/utils/NativeHandle.h"
  },
  {
   "alignment" : 4,
   "is_const" : true,
   "linker_set_key" : "const android::RefBase",
   "name" : "const android::RefBase",
   "referenced_type" : "type-6",
   "self_type" : "type-651",
   "size" : 8,
   "source_file" : "/system/core/libutils/include/utils/RefBase.h"
  },
  {
   "alignment" : 4,
   "is_const" : true,
   "linker_set_key" : "const android::String16",
   "name" : "const android::String16",
   "referenced_type" : "type-137",
   "self_type" : "type-136",
   "size" : 4,
   "source_file" : "/system/core/libutils/include/utils/String16.h"
  },
  {
   "alignment" : 4,
   "is_const" : true,
   "linker_set_key" : "const android::String8",
   "name" : "const android::String8",
   "referenced_type" : "type-146",
   "self_type" : "type-776",
   "size" : 4,
   "source_file" : "/system/core/libutils/include/utils/String8.h"
  },
  {
   "alignment" : 4,
   "is_const" : true,
   "linker_set_key" : "const android::VectorImpl",
   "name" : "const android::VectorImpl",
   "referenced_type" : "type-130",
   "self_type" : "type-856",
   "size" : 20,
   "source_file" : "/system/core/libutils/include/utils/VectorImpl.h"
  },
  {
   "alignment" : 4,
   "is_const" : true,
   "linker_set_key" : "const android::hardware::BpHwRefBase",
   "name" : "const android::hardware::BpHwRefBase",
   "referenced_type" : "type-23",
   "self_type" : "type-787",
   "size" : 24,
   "source_file" : "/system/libhwbinder/include/hwbinder/Binder.h"
  },
  {
   "alignment" : 4,
   "is_const" : true,
   "linker_set_key" : "const android::hardware::ConcurrentMap<android::wp<android::hidl::base::V1_0::IBase>, android::hardware::details::SchedPrio>",
   "name" : "const android::hardware::ConcurrentMap<android::wp<android::hidl::base::V1_0::IBase>, android::hardware::details::SchedPrio>",
   "referenced_type" : "type-817",
   "self_type" : "type-823",
   "size" : 16,
   "source_file" : "/system/libhidl/transport/include/hidl/ConcurrentMap.h"
  },
  {
   "alignment" : 4,
   "is_const" : true,
   "linker_set_key" : "const android::hardware::ConcurrentMap<android::wp<android::hidl::base::V1_0::IBase>, bool>",
   "name" : "const android::hardware::ConcurrentMap<android::wp<android::hidl::base::V1_0::IBase>, bool>",
   "referenced_type" : "type-826",
   "self_type" : "type-829",
   "size" : 16,
   "source_file" : "/system/libhidl/transport/include/hidl/ConcurrentMap.h"
  },
  {
   "alignment" : 4,
   "is_const" : true,
   "linker_set_key" : "const android::hardware::Parcel",
   "name" : "const android::hardware::Parcel",
   "referenced_type" : "type-793",
   "self_type" : "type-805",
   "size" : 68,
   "source_file" : "/system/libhwbinder/include/hwbinder/Parcel.h"
  },
  {
   "alignment" : 4,
   "is_const" : true,
   "linker_set_key" : "const android::hardware::Return<android::hardware::camera::common::V1_0::Status>",
   "name" : "const android::hardware::Return<android::hardware::camera::common::V1_0::Status>",
   "referenced_type" : "type-408",
   "self_type" : "type-423",
   "size" : 28,
   "source_file" : "/system/libhidl/base/include/hidl/Status.h"
  },
  {
   "alignment" : 4,
   "is_const" : true,
   "linker_set_key" : "const android::hardware::Return<android::sp<android::hardware::camera::device::V1_0::ICameraDevice> >",
   "name" : "const android::hardware::Return<android::sp<android::hardware::camera::device::V1_0::ICameraDevice> >",
   "referenced_type" : "type-425",
   "self_type" : "type-431",
   "size" : 28,
   "source_file" : "/system/libhidl/base/include/hidl/Status.h"
  },
  {
   "alignment" : 4,
   "is_const" : true,
   "linker_set_key" : "const android::hardware::Return<android::sp<android::hardware::camera::device::V1_0::ICameraDeviceCallback> >",
   "name" : "const android::hardware::Return<android::sp<android::hardware::camera::device::V1_0::ICameraDeviceCallback> >",
   "referenced_type" : "type-1058",
   "self_type" : "type-1062",
   "size" : 28,
   "source_file" : "/system/libhidl/base/include/hidl/Status.h"
  },
  {
   "alignment" : 4,
   "is_const" : true,
   "linker_set_key" : "const android::hardware::Return<android::sp<android::hardware::camera::device::V1_0::ICameraDevicePreviewCallback> >",
   "name" : "const android::hardware::Return<android::sp<android::hardware::camera::device::V1_0::ICameraDevicePreviewCallback> >",
   "referenced_type" : "type-159",
   "self_type" : "type-166",
   "size" : 28,
   "source_file" : "/system/libhidl/base/include/hidl/Status.h"
  },
  {
   "alignment" : 4,
   "is_const" : true,
   "linker_set_key" : "const android::hardware::Return<bool>",
   "name" : "const android::hardware::Return<bool>",
   "referenced_type" : "type-402",
   "self_type" : "type-406",
   "size" : 24,
   "source_file" : "/system/libhidl/base/include/hidl/Status.h"
  },
  {
   "alignment" : 4,
   "is_const" : true,
   "linker_set_key" : "const android::hardware::Return<unsigned int>",
   "name" : "const android::hardware::Return<unsigned int>",
   "referenced_type" : "type-1052",
   "self_type" : "type-1056",
   "size" : 28,
   "source_file" : "/system/libhidl/base/include/hidl/Status.h"
  },
  {
   "alignment" : 4,
   "is_const" : true,
   "linker_set_key" : "const android::hardware::Status",
   "name" : "const android::hardware::Status",
   "referenced_type" : "type-161",
   "self_type" : "type-397",
   "size" : 20,
   "source_file" : "/system/libhidl/base/include/hidl/Status.h"
  },
  {
   "alignment" : 4,
   "is_const" : true,
   "linker_set_key" : "const android::hardware::camera::common::V1_0::CameraDeviceStatus",
   "name" : "const android::hardware::camera::common::V1_0::CameraDeviceStatus",
   "referenced_type" : "type-928",
   "self_type" : "type-936",
   "size" : 4,
   "source_file" : "/out/soong/.intermediates/hardware/interfaces/camera/common/1.0/android.hardware.camera.common@1.0_genc++_headers/gen/android/hardware/camera/common/1.0/types.h"
  },
  {
   "alignment" : 4,
   "is_const" : true,
   "linker_set_key" : "const android::hardware::camera::common::V1_0::CameraMetadataType",
   "name" : "const android::hardware::camera::common::V1_0::CameraMetadataType",
   "referenced_type" : "type-709",
   "self_type" : "type-934",
   "size" : 4,
   "source_file" : "/out/soong/.intermediates/hardware/interfaces/camera/common/1.0/android.hardware.camera.common@1.0_genc++_headers/gen/android/hardware/camera/common/1.0/types.h"
  },
  {
   "alignment" : 4,
   "is_const" : true,
   "linker_set_key" : "const android::hardware::camera::common::V1_0::Status",
   "name" : "const android::hardware::camera::common::V1_0::Status",
   "referenced_type" : "type-409",
   "self_type" : "type-931",
   "size" : 4,
   "source_file" : "/out/soong/.intermediates/hardware/interfaces/camera/common/1.0/android.hardware.camera.common@1.0_genc++_headers/gen/android/hardware/camera/common/1.0/types.h"
  },
  {
   "alignment" : 4,
   "is_const" : true,
   "linker_set_key" : "const android::hardware::camera::common::V1_0::TagBoundaryId",
   "name" : "const android::hardware::camera::common::V1_0::TagBoundaryId",
   "referenced_type" : "type-927",
   "self_type" : "type-935",
   "size" : 4,
   "source_file" : "/out/soong/.intermediates/hardware/interfaces/camera/common/1.0/android.hardware.camera.common@1.0_genc++_headers/gen/android/hardware/camera/common/1.0/types.h"
  },
  {
   "alignment" : 4,
   "is_const" : true,
   "linker_set_key" : "const android::hardware::camera::common::V1_0::TorchMode",
   "name" : "const android::hardware::camera::common::V1_0::TorchMode",
   "referenced_type" : "type-925",
   "self_type" : "type-933",
   "size" : 4,
   "source_file" : "/out/soong/.intermediates/hardware/interfaces/camera/common/1.0/android.hardware.camera.common@1.0_genc++_headers/gen/android/hardware/camera/common/1.0/types.h"
  },
  {
   "alignment" : 4,
   "is_const" : true,
   "linker_set_key" : "const android::hardware::camera::common::V1_0::TorchModeStatus",
   "name" : "const android::hardware::camera::common::V1_0::TorchModeStatus",
   "referenced_type" : "type-929",
   "self_type" : "type-937",
   "size" : 4,
   "source_file" : "/out/soong/.intermediates/hardware/interfaces/camera/common/1.0/android.hardware.camera.common@1.0_genc++_headers/gen/android/hardware/camera/common/1.0/types.h"
  },
  {
   "alignment" : 8,
   "is_const" : true,
   "linker_set_key" : "const android::hardware::camera::common::V1_0::VendorTag",
   "name" : "const android::hardware::camera::common::V1_0::VendorTag",
   "referenced_type" : "type-708",
   "self_type" : "type-883",
   "size" : 32,
   "source_file" : "/system/libhidl/base/include/hidl/HidlInternal.h"
  },
  {
   "alignment" : 4,
   "is_const" : true,
   "linker_set_key" : "const android::hardware::camera::device::V1_0::BpHwCameraDevice",
   "name" : "const android::hardware::camera::device::V1_0::BpHwCameraDevice",
   "referenced_type" : "type-1024",
   "self_type" : "type-1023",
   "size" : 92,
   "source_file" : "/out/soong/.intermediates/hardware/interfaces/camera/device/1.0/android.hardware.camera.device@1.0_genc++_headers/gen/android/hardware/camera/device/1.0/BpHwCameraDevice.h"
  },
  {
   "alignment" : 4,
   "is_const" : true,
   "linker_set_key" : "const android::hardware::camera::device::V1_0::BpHwCameraDeviceCallback",
   "name" : "const android::hardware::camera::device::V1_0::BpHwCameraDeviceCallback",
   "referenced_type" : "type-287",
   "self_type" : "type-1016",
   "size" : 92,
   "source_file" : "/out/soong/.intermediates/hardware/interfaces/camera/device/1.0/android.hardware.camera.device@1.0_genc++_headers/gen/android/hardware/camera/device/1.0/BpHwCameraDeviceCallback.h"
  },
  {
   "alignment" : 4,
   "is_const" : true,
   "linker_set_key" : "const android::hardware::camera::device::V1_0::BpHwCameraDevicePreviewCallback",
   "name" : "const android::hardware::camera::device::V1_0::BpHwCameraDevicePreviewCallback",
   "referenced_type" : "type-298",
   "self_type" : "type-1019",
   "size" : 92,
   "source_file" : "/out/soong/.intermediates/hardware/interfaces/camera/device/1.0/android.hardware.camera.device@1.0_genc++_headers/gen/android/hardware/camera/device/1.0/BpHwCameraDevicePreviewCallback.h"
  },
  {
   "alignment" : 4,
   "is_const" : true,
   "linker_set_key" : "const android::hardware::camera::device::V1_0::CameraFace",
   "name" : "const android::hardware::camera::device::V1_0::CameraFace",
   "referenced_type" : "type-91",
   "self_type" : "type-248",
   "size" : 48,
   "source_file" : "/system/libhidl/base/include/hidl/HidlInternal.h"
  },
  {
   "alignment" : 4,
   "is_const" : true,
   "linker_set_key" : "const android::hardware::camera::device::V1_0::CameraFacing",
   "name" : "const android::hardware::camera::device::V1_0::CameraFacing",
   "referenced_type" : "type-950",
   "self_type" : "type-956",
   "size" : 4,
   "source_file" : "/out/soong/.intermediates/hardware/interfaces/camera/device/1.0/android.hardware.camera.device@1.0_genc++_headers/gen/android/hardware/camera/device/1.0/types.h"
  },
  {
   "alignment" : 8,
   "is_const" : true,
   "linker_set_key" : "const android::hardware::camera::device::V1_0::CameraFrameMetadata",
   "name" : "const android::hardware::camera::device::V1_0::CameraFrameMetadata",
   "referenced_type" : "type-86",
   "self_type" : "type-85",
   "size" : 16,
   "source_file" : "/out/soong/.intermediates/hardware/interfaces/camera/device/1.0/android.hardware.camera.device@1.0_genc++_headers/gen/android/hardware/camera/device/1.0/BpHwCameraDeviceCallback.h"
  },
  {
   "alignment" : 4,
   "is_const" : true,
   "linker_set_key" : "const android::hardware::camera::device::V1_0::CommandType",
   "name" : "const android::hardware::camera::device::V1_0::CommandType",
   "referenced_type" : "type-953",
   "self_type" : "type-958",
   "size" : 4,
   "source_file" : "/out/soong/.intermediates/hardware/interfaces/camera/device/1.0/android.hardware.camera.device@1.0_genc++_headers/gen/android/hardware/camera/device/1.0/types.h"
  },
  {
   "alignment" : 4,
   "is_const" : true,
   "linker_set_key" : "const android::hardware::camera::device::V1_0::DataCallbackMsg",
   "name" : "const android::hardware::camera::device::V1_0::DataCallbackMsg",
   "referenced_type" : "type-955",
   "self_type" : "type-960",
   "size" : 4,
   "source_file" : "/out/soong/.intermediates/hardware/interfaces/camera/device/1.0/android.hardware.camera.device@1.0_genc++_headers/gen/android/hardware/camera/device/1.0/types.h"
  },
  {
   "alignment" : 4,
   "is_const" : true,
   "linker_set_key" : "const android::hardware::camera::device::V1_0::FrameCallbackFlag",
   "name" : "const android::hardware::camera::device::V1_0::FrameCallbackFlag",
   "referenced_type" : "type-952",
   "self_type" : "type-957",
   "size" : 4,
   "source_file" : "/out/soong/.intermediates/hardware/interfaces/camera/device/1.0/android.hardware.camera.device@1.0_genc++_headers/gen/android/hardware/camera/device/1.0/types.h"
  },
  {
   "alignment" : 8,
   "is_const" : true,
   "linker_set_key" : "const android::hardware::camera::device::V1_0::HandleTimestampMessage",
   "name" : "const android::hardware::camera::device::V1_0::HandleTimestampMessage",
   "referenced_type" : "type-38",
   "self_type" : "type-101",
   "size" : 32,
   "source_file" : "/system/libhidl/base/include/hidl/HidlInternal.h"
  },
  {
   "alignment" : 4,
   "is_const" : true,
   "linker_set_key" : "const android::hardware::camera::device::V1_0::ICameraDevice",
   "name" : "const android::hardware::camera::device::V1_0::ICameraDevice",
   "referenced_type" : "type-323",
   "self_type" : "type-1006",
   "size" : 12,
   "source_file" : "/out/soong/.intermediates/hardware/interfaces/camera/device/1.0/android.hardware.camera.device@1.0_genc++_headers/gen/android/hardware/camera/device/1.0/ICameraDevice.h"
  },
  {
   "alignment" : 4,
   "is_const" : true,
   "linker_set_key" : "const android::hardware::camera::device::V1_0::ICameraDeviceCallback",
   "name" : "const android::hardware::camera::device::V1_0::ICameraDeviceCallback",
   "referenced_type" : "type-4",
   "self_type" : "type-295",
   "size" : 12,
   "source_file" : "/system/core/libutils/include/utils/StrongPointer.h"
  },
  {
   "alignment" : 4,
   "is_const" : true,
   "linker_set_key" : "const android::hardware::camera::device::V1_0::ICameraDevicePreviewCallback",
   "name" : "const android::hardware::camera::device::V1_0::ICameraDevicePreviewCallback",
   "referenced_type" : "type-17",
   "self_type" : "type-316",
   "size" : 12,
   "source_file" : "/system/core/libutils/include/utils/StrongPointer.h"
  },
  {
   "alignment" : 4,
   "is_const" : true,
   "linker_set_key" : "const android::hardware::camera::device::V1_0::NotifyCallbackMsg",
   "name" : "const android::hardware::camera::device::V1_0::NotifyCallbackMsg",
   "referenced_type" : "type-954",
   "self_type" : "type-959",
   "size" : 4,
   "source_file" : "/out/soong/.intermediates/hardware/interfaces/camera/device/1.0/android.hardware.camera.device@1.0_genc++_headers/gen/android/hardware/camera/device/1.0/types.h"
  },
  {
   "alignment" : 8,
   "is_const" : true,
   "linker_set_key" : "const android::hardware::camera::device::V1_0::VideoFrameMessage",
   "name" : "const android::hardware::camera::device::V1_0::VideoFrameMessage",
   "referenced_type" : "type-721",
   "self_type" : "type-723",
   "size" : 24,
   "source_file" : "/system/libhidl/base/include/hidl/HidlInternal.h"
  },
  {
   "alignment" : 4,
   "is_const" : true,
   "linker_set_key" : "const android::hardware::details::SchedPrio",
   "name" : "const android::hardware::details::SchedPrio",
   "referenced_type" : "type-820",
   "self_type" : "type-822",
   "size" : 8,
   "source_file" : "/system/libhidl/transport/include/hidl/ConcurrentMap.h"
  },
  {
   "alignment" : 4,
   "is_const" : true,
   "linker_set_key" : "const android::hardware::details::const_accessor<int, 2>",
   "name" : "const android::hardware::details::const_accessor<int, 2>",
   "referenced_type" : "type-738",
   "self_type" : "type-740",
   "size" : 4,
   "source_file" : "/system/libhidl/base/include/hidl/HidlSupport.h"
  },
  {
   "alignment" : 4,
   "is_const" : true,
   "linker_set_key" : "const android::hardware::details::const_accessor<int, 4>",
   "name" : "const android::hardware::details::const_accessor<int, 4>",
   "referenced_type" : "type-732",
   "self_type" : "type-736",
   "size" : 4,
   "source_file" : "/system/libhidl/base/include/hidl/HidlSupport.h"
  },
  {
   "alignment" : 8,
   "is_const" : true,
   "linker_set_key" : "const android::hardware::details::hidl_pointer<android::hardware::camera::common::V1_0::VendorTag>",
   "name" : "const android::hardware::details::hidl_pointer<android::hardware::camera::common::V1_0::VendorTag>",
   "referenced_type" : "type-705",
   "self_type" : "type-902",
   "size" : 8,
   "source_file" : "/system/libhidl/base/include/hidl/HidlInternal.h"
  },
  {
   "alignment" : 8,
   "is_const" : true,
   "linker_set_key" : "const android::hardware::details::hidl_pointer<android::hardware::camera::device::V1_0::CameraFace>",
   "name" : "const android::hardware::details::hidl_pointer<android::hardware::camera::device::V1_0::CameraFace>",
   "referenced_type" : "type-88",
   "self_type" : "type-1029",
   "size" : 8,
   "source_file" : "/system/libhidl/base/include/hidl/HidlInternal.h"
  },
  {
   "alignment" : 8,
   "is_const" : true,
   "linker_set_key" : "const android::hardware::details::hidl_pointer<android::hardware::camera::device::V1_0::HandleTimestampMessage>",
   "name" : "const android::hardware::details::hidl_pointer<android::hardware::camera::device::V1_0::HandleTimestampMessage>",
   "referenced_type" : "type-35",
   "self_type" : "type-97",
   "size" : 8,
   "source_file" : "/system/libhidl/base/include/hidl/HidlInternal.h"
  },
  {
   "alignment" : 8,
   "is_const" : true,
   "linker_set_key" : "const android::hardware::details::hidl_pointer<android::hardware::camera::device::V1_0::VideoFrameMessage>",
   "name" : "const android::hardware::details::hidl_pointer<android::hardware::camera::device::V1_0::VideoFrameMessage>",
   "referenced_type" : "type-718",
   "self_type" : "type-1031",
   "size" : 8,
   "source_file" : "/system/libhidl/base/include/hidl/HidlInternal.h"
  },
  {
   "alignment" : 8,
   "is_const" : true,
   "linker_set_key" : "const android::hardware::details::hidl_pointer<android::hardware::hidl_array<unsigned char, 32> >",
   "name" : "const android::hardware::details::hidl_pointer<android::hardware::hidl_array<unsigned char, 32> >",
   "referenced_type" : "type-687",
   "self_type" : "type-1037",
   "size" : 8,
   "source_file" : "/system/libhidl/base/include/hidl/HidlInternal.h"
  },
  {
   "alignment" : 8,
   "is_const" : true,
   "linker_set_key" : "const android::hardware::details::hidl_pointer<android::hardware::hidl_string>",
   "name" : "const android::hardware::details::hidl_pointer<android::hardware::hidl_string>",
   "referenced_type" : "type-675",
   "self_type" : "type-988",
   "size" : 8,
   "source_file" : "/system/libhidl/base/include/hidl/HidlInternal.h"
  },
  {
   "alignment" : 8,
   "is_const" : true,
   "linker_set_key" : "const android::hardware::details::hidl_pointer<int>",
   "name" : "const android::hardware::details::hidl_pointer<int>",
   "referenced_type" : "type-697",
   "self_type" : "type-812",
   "size" : 8,
   "source_file" : "/system/libhidl/base/include/hidl/HidlInternal.h"
  },
  {
   "alignment" : 4,
   "is_const" : true,
   "linker_set_key" : "const android::hardware::details::return_status",
   "name" : "const android::hardware::details::return_status",
   "referenced_type" : "type-160",
   "self_type" : "type-447",
   "size" : 24,
   "source_file" : "/system/libhidl/base/include/hidl/Status.h"
  },
  {
   "alignment" : 8,
   "is_const" : true,
   "linker_set_key" : "const android::hardware::graphics::common::V1_0::BufferUsage",
   "name" : "const android::hardware::graphics::common::V1_0::BufferUsage",
   "referenced_type" : "type-973",
   "self_type" : "type-981",
   "size" : 8,
   "source_file" : "/out/soong/.intermediates/hardware/interfaces/graphics/common/1.0/android.hardware.graphics.common@1.0_genc++_headers/gen/android/hardware/graphics/common/1.0/types.h"
  },
  {
   "alignment" : 4,
   "is_const" : true,
   "linker_set_key" : "const android::hardware::graphics::common::V1_0::ColorMode",
   "name" : "const android::hardware::graphics::common::V1_0::ColorMode",
   "referenced_type" : "type-976",
   "self_type" : "type-985",
   "size" : 4,
   "source_file" : "/out/soong/.intermediates/hardware/interfaces/graphics/common/1.0/android.hardware.graphics.common@1.0_genc++_headers/gen/android/hardware/graphics/common/1.0/types.h"
  },
  {
   "alignment" : 4,
   "is_const" : true,
   "linker_set_key" : "const android::hardware::graphics::common::V1_0::ColorTransform",
   "name" : "const android::hardware::graphics::common::V1_0::ColorTransform",
   "referenced_type" : "type-978",
   "self_type" : "type-986",
   "size" : 4,
   "source_file" : "/out/soong/.intermediates/hardware/interfaces/graphics/common/1.0/android.hardware.graphics.common@1.0_genc++_headers/gen/android/hardware/graphics/common/1.0/types.h"
  },
  {
   "alignment" : 4,
   "is_const" : true,
   "linker_set_key" : "const android::hardware::graphics::common::V1_0::Dataspace",
   "name" : "const android::hardware::graphics::common::V1_0::Dataspace",
   "referenced_type" : "type-975",
   "self_type" : "type-984",
   "size" : 4,
   "source_file" : "/out/soong/.intermediates/hardware/interfaces/graphics/common/1.0/android.hardware.graphics.common@1.0_genc++_headers/gen/android/hardware/graphics/common/1.0/types.h"
  },
  {
   "alignment" : 4,
   "is_const" : true,
   "linker_set_key" : "const android::hardware::graphics::common::V1_0::Hdr",
   "name" : "const android::hardware::graphics::common::V1_0::Hdr",
   "referenced_type" : "type-979",
   "self_type" : "type-987",
   "size" : 4,
   "source_file" : "/out/soong/.intermediates/hardware/interfaces/graphics/common/1.0/android.hardware.graphics.common@1.0_genc++_headers/gen/android/hardware/graphics/common/1.0/types.h"
  },
  {
   "alignment" : 4,
   "is_const" : true,
   "linker_set_key" : "const android::hardware::graphics::common::V1_0::PixelFormat",
   "name" : "const android::hardware::graphics::common::V1_0::PixelFormat",
   "referenced_type" : "type-972",
   "self_type" : "type-980",
   "size" : 4,
   "source_file" : "/out/soong/.intermediates/hardware/interfaces/graphics/common/1.0/android.hardware.graphics.common@1.0_genc++_headers/gen/android/hardware/graphics/common/1.0/types.h"
  },
  {
   "alignment" : 4,
   "is_const" : true,
   "linker_set_key" : "const android::hardware::graphics::common::V1_0::Transform",
   "name" : "const android::hardware::graphics::common::V1_0::Transform",
   "referenced_type" : "type-974",
   "self_type" : "type-983",
   "size" : 4,
   "source_file" : "/out/soong/.intermediates/hardware/interfaces/graphics/common/1.0/android.hardware.graphics.common@1.0_genc++_headers/gen/android/hardware/graphics/common/1.0/types.h"
  },
  {
   "alignment" : 4,
   "is_const" : true,
   "linker_set_key" : "const android::hardware::hidl_array<int, 2>",
   "name" : "const android::hardware::hidl_array<int, 2>",
   "referenced_type" : "type-94",
   "self_type" : "type-750",
   "size" : 8,
   "source_file" : "/system/libhidl/base/include/hidl/HidlSupport.h"
  },
  {
   "alignment" : 4,
   "is_const" : true,
   "linker_set_key" : "const android::hardware::hidl_array<int, 4>",
   "name" : "const android::hardware::hidl_array<int, 4>",
   "referenced_type" : "type-92",
   "self_type" : "type-746",
   "size" : 16,
   "source_file" : "/system/libhidl/base/include/hidl/HidlSupport.h"
  },
  {
   "alignment" : 4,
   "is_const" : true,
   "linker_set_key" : "const android::hardware::hidl_death_recipient",
   "name" : "const android::hardware::hidl_death_recipient",
   "referenced_type" : "type-341",
   "self_type" : "type-1044",
   "size" : 12,
   "source_file" : "/system/core/libutils/include/utils/StrongPointer.h"
  },
  {
   "alignment" : 8,
   "is_const" : true,
   "linker_set_key" : "const android::hardware::hidl_handle",
   "name" : "const android::hardware::hidl_handle",
   "referenced_type" : "type-39",
   "self_type" : "type-762",
   "size" : 16,
   "source_file" : "/system/libhidl/base/include/hidl/HidlSupport.h"
  },
  {
   "alignment" : 8,
   "is_const" : true,
   "linker_set_key" : "const android::hardware::hidl_memory",
   "name" : "const android::hardware::hidl_memory",
   "referenced_type" : "type-655",
   "self_type" : "type-659",
   "size" : 40,
   "source_file" : "/system/libhidl/base/include/hidl/HidlSupport.h"
  },
  {
   "alignment" : 8,
   "is_const" : true,
   "linker_set_key" : "const android::hardware::hidl_string",
   "name" : "const android::hardware::hidl_string",
   "referenced_type" : "type-656",
   "self_type" : "type-1021",
   "size" : 16,
   "source_file" : "/system/libhidl/base/include/hidl/HidlInternal.h"
  },
  {
   "alignment" : 8,
   "is_const" : true,
   "linker_set_key" : "const android::hardware::hidl_vec<android::hardware::camera::common::V1_0::VendorTag>",
   "name" : "const android::hardware::hidl_vec<android::hardware::camera::common::V1_0::VendorTag>",
   "referenced_type" : "type-704",
   "self_type" : "type-710",
   "size" : 16,
   "source_file" : "/system/libhidl/base/include/hidl/HidlSupport.h"
  },
  {
   "alignment" : 8,
   "is_const" : true,
   "linker_set_key" : "const android::hardware::hidl_vec<android::hardware::camera::device::V1_0::CameraFace>",
   "name" : "const android::hardware::hidl_vec<android::hardware::camera::device::V1_0::CameraFace>",
   "referenced_type" : "type-87",
   "self_type" : "type-714",
   "size" : 16,
   "source_file" : "/system/libhidl/base/include/hidl/HidlSupport.h"
  },
  {
   "alignment" : 8,
   "is_const" : true,
   "linker_set_key" : "const android::hardware::hidl_vec<android::hardware::camera::device::V1_0::HandleTimestampMessage>",
   "name" : "const android::hardware::hidl_vec<android::hardware::camera::device::V1_0::HandleTimestampMessage>",
   "referenced_type" : "type-34",
   "self_type" : "type-33",
   "size" : 16,
   "source_file" : "/system/libhidl/base/include/hidl/HidlSupport.h"
  },
  {
   "alignment" : 8,
   "is_const" : true,
   "linker_set_key" : "const android::hardware::hidl_vec<android::hardware::camera::device::V1_0::VideoFrameMessage>",
   "name" : "const android::hardware::hidl_vec<android::hardware::camera::device::V1_0::VideoFrameMessage>",
   "referenced_type" : "type-717",
   "self_type" : "type-724",
   "size" : 16,
   "source_file" : "/system/libhidl/base/include/hidl/HidlSupport.h"
  },
  {
   "alignment" : 8,
   "is_const" : true,
   "linker_set_key" : "const android::hardware::hidl_vec<android::hardware::hidl_string>",
   "name" : "const android::hardware::hidl_vec<android::hardware::hidl_string>",
   "referenced_type" : "type-674",
   "self_type" : "type-683",
   "size" : 16,
   "source_file" : "/system/libhidl/base/include/hidl/HidlSupport.h"
  },
  {
   "alignment" : 8,
   "is_const" : true,
   "linker_set_key" : "const android::hardware::hidl_vec<int>",
   "name" : "const android::hardware::hidl_vec<int>",
   "referenced_type" : "type-696",
   "self_type" : "type-700",
   "size" : 16,
   "source_file" : "/system/libhidl/base/include/hidl/HidlSupport.h"
  },
  {
   "alignment" : 2,
   "is_const" : true,
   "linker_set_key" : "const android::hardware::hidl_version",
   "name" : "const android::hardware::hidl_version",
   "referenced_type" : "type-753",
   "self_type" : "type-755",
   "size" : 4,
   "source_file" : "/system/libhidl/base/include/hidl/HidlSupport.h"
  },
  {
   "alignment" : 4,
   "is_const" : true,
   "linker_set_key" : "const android::hidl::base::V1_0::BpHwBase",
   "name" : "const android::hidl::base::V1_0::BpHwBase",
   "referenced_type" : "type-1010",
   "self_type" : "type-1013",
   "size" : 92,
   "source_file" : "/out/soong/.intermediates/system/libhidl/transport/base/1.0/android.hidl.base@1.0_genc++_headers/gen/android/hidl/base/1.0/BpHwBase.h"
  },
  {
   "alignment" : 4,
   "is_const" : true,
   "linker_set_key" : "const android::hidl::base::V1_0::DebugInfo::Architecture",
   "name" : "const android::hidl::base::V1_0::DebugInfo::Architecture",
   "referenced_type" : "type-770",
   "self_type" : "type-771",
   "size" : 4,
   "source_file" : "/out/soong/.intermediates/system/libhidl/transport/base/1.0/android.hidl.base@1.0_genc++_headers/gen/android/hidl/base/1.0/types.h"
  },
  {
   "alignment" : 4,
   "is_const" : true,
   "linker_set_key" : "const android::hidl::base::V1_0::IBase",
   "name" : "const android::hidl::base::V1_0::IBase",
   "referenced_type" : "type-5",
   "self_type" : "type-63",
   "size" : 12,
   "source_file" : "/system/core/libutils/include/utils/StrongPointer.h"
  },
  {
   "alignment" : 4,
   "is_const" : true,
   "linker_set_key" : "const android::hidl::base::V1_0::IBase *const",
   "name" : "const android::hidl::base::V1_0::IBase *const",
   "referenced_type" : "type-64",
   "self_type" : "type-836",
   "size" : 4,
   "source_file" : "/system/libhidl/transport/include/hidl/ConcurrentMap.h"
  },
  {
   "alignment" : 4,
   "is_const" : true,
   "linker_set_key" : "const android::hidl::manager::V1_0::IServiceManager",
   "name" : "const android::hidl::manager::V1_0::IServiceManager",
   "referenced_type" : "type-235",
   "self_type" : "type-243",
   "size" : 12,
   "source_file" : "/system/core/libutils/include/utils/StrongPointer.h"
  },
  {
   "alignment" : 4,
   "is_const" : true,
   "linker_set_key" : "const android::hidl::manager::V1_0::IServiceManager::PidConstant",
   "name" : "const android::hidl::manager::V1_0::IServiceManager::PidConstant",
   "referenced_type" : "type-916",
   "self_type" : "type-920",
   "size" : 4,
   "source_file" : "/out/soong/.intermediates/system/libhidl/transport/manager/1.0/android.hidl.manager@1.0_genc++_headers/gen/android/hidl/manager/1.0/IServiceManager.h"
  },
  {
   "alignment" : 1,
   "is_const" : true,
   "linker_set_key" : "const android::hidl::manager::V1_0::IServiceManager::Transport",
   "name" : "const android::hidl::manager::V1_0::IServiceManager::Transport",
   "referenced_type" : "type-915",
   "self_type" : "type-918",
   "size" : 1,
   "source_file" : "/out/soong/.intermediates/system/libhidl/transport/manager/1.0/android.hidl.manager@1.0_genc++_headers/gen/android/hidl/manager/1.0/IServiceManager.h"
  },
  {
   "alignment" : 4,
   "is_const" : true,
   "linker_set_key" : "const android::hidl::manager::V1_0::IServiceNotification",
   "name" : "const android::hidl::manager::V1_0::IServiceNotification",
   "referenced_type" : "type-263",
   "self_type" : "type-912",
   "size" : 12,
   "source_file" : "/out/soong/.intermediates/system/libhidl/transport/manager/1.0/android.hidl.manager@1.0_genc++_headers/gen/android/hidl/manager/1.0/IServiceNotification.h"
  },
  {
   "alignment" : 4,
   "is_const" : true,
   "linker_set_key" : "const android::sp<android::hardware::IBinder>",
   "name" : "const android::sp<android::hardware::IBinder>",
   "referenced_type" : "type-77",
   "self_type" : "type-98",
   "size" : 4,
   "source_file" : "/system/core/libutils/include/utils/StrongPointer.h"
  },
  {
   "alignment" : 4,
   "is_const" : true,
   "linker_set_key" : "const android::sp<android::hardware::ProcessState>",
   "name" : "const android::sp<android::hardware::ProcessState>",
   "referenced_type" : "type-120",
   "self_type" : "type-228",
   "size" : 4,
   "source_file" : "/system/core/libutils/include/utils/StrongPointer.h"
  },
  {
   "alignment" : 4,
   "is_const" : true,
   "linker_set_key" : "const android::sp<android::hardware::camera::device::V1_0::ICameraDevice>",
   "name" : "const android::sp<android::hardware::camera::device::V1_0::ICameraDevice>",
   "referenced_type" : "type-321",
   "self_type" : "type-332",
   "size" : 4,
   "source_file" : "/system/core/libutils/include/utils/RefBase.h"
  },
  {
   "alignment" : 4,
   "is_const" : true,
   "linker_set_key" : "const android::sp<android::hardware::camera::device::V1_0::ICameraDeviceCallback>",
   "name" : "const android::sp<android::hardware::camera::device::V1_0::ICameraDeviceCallback>",
   "referenced_type" : "type-12",
   "self_type" : "type-11",
   "size" : 4,
   "source_file" : "/system/core/libutils/include/utils/StrongPointer.h"
  },
  {
   "alignment" : 4,
   "is_const" : true,
   "linker_set_key" : "const android::sp<android::hardware::camera::device::V1_0::ICameraDevicePreviewCallback>",
   "name" : "const android::sp<android::hardware::camera::device::V1_0::ICameraDevicePreviewCallback>",
   "referenced_type" : "type-15",
   "self_type" : "type-14",
   "size" : 4,
   "source_file" : "/system/core/libutils/include/utils/StrongPointer.h"
  },
  {
   "alignment" : 4,
   "is_const" : true,
   "linker_set_key" : "const android::sp<android::hardware::hidl_binder_death_recipient>",
   "name" : "const android::sp<android::hardware::hidl_binder_death_recipient>",
   "referenced_type" : "type-336",
   "self_type" : "type-349",
   "size" : 4,
   "source_file" : "/system/core/libutils/include/utils/RefBase.h"
  },
  {
   "alignment" : 4,
   "is_const" : true,
   "linker_set_key" : "const android::sp<android::hardware::hidl_death_recipient>",
   "name" : "const android::sp<android::hardware::hidl_death_recipient>",
   "referenced_type" : "type-892",
   "self_type" : "type-891",
   "size" : 4,
   "source_file" : "/system/core/libutils/include/utils/RefBase.h"
  },
  {
   "alignment" : 4,
   "is_const" : true,
   "linker_set_key" : "const android::sp<android::hidl::base::V1_0::IBase>",
   "name" : "const android::sp<android::hidl::base::V1_0::IBase>",
   "referenced_type" : "type-55",
   "self_type" : "type-54",
   "size" : 4,
   "source_file" : "/system/core/libutils/include/utils/StrongPointer.h"
  },
  {
   "alignment" : 4,
   "is_const" : true,
   "linker_set_key" : "const android::sp<android::hidl::manager::V1_0::IServiceManager>",
   "name" : "const android::sp<android::hidl::manager::V1_0::IServiceManager>",
   "referenced_type" : "type-233",
   "self_type" : "type-238",
   "size" : 4,
   "source_file" : "/system/core/libutils/include/utils/StrongPointer.h"
  },
  {
   "alignment" : 4,
   "is_const" : true,
   "linker_set_key" : "const android::sp<android::hidl::manager::V1_0::IServiceNotification>",
   "name" : "const android::sp<android::hidl::manager::V1_0::IServiceNotification>",
   "referenced_type" : "type-261",
   "self_type" : "type-280",
   "size" : 4,
   "source_file" : "/system/core/libutils/include/utils/StrongPointer.h"
  },
  {
   "alignment" : 4,
   "is_const" : true,
   "linker_set_key" : "const android::wp<android::hardware::BHwBinder>",
   "name" : "const android::wp<android::hardware::BHwBinder>",
   "referenced_type" : "type-834",
   "self_type" : "type-1040",
   "size" : 8,
   "source_file" : "/system/core/libutils/include/utils/RefBase.h"
  },
  {
   "alignment" : 4,
   "is_const" : true,
   "linker_set_key" : "const android::wp<android::hardware::hidl_death_recipient>",
   "name" : "const android::wp<android::hardware::hidl_death_recipient>",
   "referenced_type" : "type-339",
   "self_type" : "type-869",
   "size" : 8,
   "source_file" : "/system/core/libutils/include/utils/RefBase.h"
  },
  {
   "alignment" : 4,
   "is_const" : true,
   "linker_set_key" : "const android::wp<android::hidl::base::V1_0::IBase>",
   "name" : "const android::wp<android::hidl::base::V1_0::IBase>",
   "referenced_type" : "type-290",
   "self_type" : "type-639",
   "size" : 8,
   "source_file" : "/system/core/libutils/include/utils/RefBase.h"
  },
  {
   "alignment" : 1,
   "is_const" : true,
   "linker_set_key" : "const bool",
   "name" : "const bool",
   "referenced_type" : "type-3",
   "self_type" : "type-253",
   "size" : 1,
   "source_file" : "/system/core/libutils/include/utils/TypeHelpers.h"
  },
  {
   "alignment" : 1,
   "is_const" : true,
   "linker_set_key" : "const char",
   "name" : "const char",
   "referenced_type" : "type-116",
   "self_type" : "type-148",
   "size" : 1,
   "source_file" : "/system/libhidl/base/include/hidl/HidlInternal.h"
  },
  {
   "alignment" : 2,
   "is_const" : true,
   "linker_set_key" : "const char16_t",
   "name" : "const char16_t",
   "referenced_type" : "type-140",
   "self_type" : "type-139",
   "size" : 2,
   "source_file" : "/system/core/libutils/include/utils/String16.h"
  },
  {
   "alignment" : 8,
   "is_const" : true,
   "linker_set_key" : "const double",
   "name" : "const double",
   "referenced_type" : "type-621",
   "self_type" : "type-646",
   "size" : 8,
   "source_file" : "/system/core/libutils/include/utils/TypeHelpers.h"
  },
  {
   "alignment" : 4,
   "is_const" : true,
   "linker_set_key" : "const float",
   "name" : "const float",
   "referenced_type" : "type-616",
   "self_type" : "type-644",
   "size" : 4,
   "source_file" : "/system/core/libutils/include/utils/TypeHelpers.h"
  },
  {
   "alignment" : 4,
   "is_const" : true,
   "linker_set_key" : "const int",
   "name" : "const int",
   "referenced_type" : "type-45",
   "self_type" : "type-734",
   "size" : 4,
   "source_file" : "/system/libhidl/base/include/hidl/HidlInternal.h"
  },
  {
   "is_const" : true,
   "linker_set_key" : "const iter<is_const>",
   "name" : "const iter<is_const>",
   "referenced_type" : "type-1069",
   "self_type" : "type-1068",
   "source_file" : "/system/libhidl/base/include/hidl/HidlSupport.h"
  },
  {
   "is_const" : true,
   "linker_set_key" : "const iter<is_const>",
   "name" : "const iter<is_const>",
   "referenced_type" : "type-173",
   "self_type" : "type-172",
   "source_file" : "/system/libhidl/base/include/hidl/HidlSupport.h"
  },
  {
   "is_const" : true,
   "linker_set_key" : "const iter<is_const>",
   "name" : "const iter<is_const>",
   "referenced_type" : "type-245",
   "self_type" : "type-244",
   "source_file" : "/system/libhidl/base/include/hidl/HidlSupport.h"
  },
  {
   "is_const" : true,
   "linker_set_key" : "const iter<is_const>",
   "name" : "const iter<is_const>",
   "referenced_type" : "type-305",
   "self_type" : "type-304",
   "source_file" : "/system/libhidl/base/include/hidl/HidlSupport.h"
  },
  {
   "is_const" : true,
   "linker_set_key" : "const iter<is_const>",
   "name" : "const iter<is_const>",
   "referenced_type" : "type-416",
   "self_type" : "type-415",
   "source_file" : "/system/libhidl/base/include/hidl/HidlSupport.h"
  },
  {
   "is_const" : true,
   "linker_set_key" : "const iter<is_const>",
   "name" : "const iter<is_const>",
   "referenced_type" : "type-488",
   "self_type" : "type-487",
   "source_file" : "/system/libhidl/base/include/hidl/HidlSupport.h"
  },
  {
   "is_const" : true,
   "linker_set_key" : "const iter<is_const>",
   "name" : "const iter<is_const>",
   "referenced_type" : "type-569",
   "self_type" : "type-568",
   "source_file" : "/system/libhidl/base/include/hidl/HidlSupport.h"
  },
  {
   "is_const" : true,
   "linker_set_key" : "const iter<is_const>",
   "name" : "const iter<is_const>",
   "referenced_type" : "type-667",
   "self_type" : "type-666",
   "source_file" : "/system/libhidl/base/include/hidl/HidlSupport.h"
  },
  {
   "alignment" : 4,
   "is_const" : true,
   "linker_set_key" : "const log_msg",
   "name" : "const log_msg",
   "referenced_type" : "type-109",
   "self_type" : "type-108",
   "size" : 5124,
   "source_file" : "/system/core/liblog/include/log/log_read.h"
  },
  {
   "alignment" : 8,
   "is_const" : true,
   "linker_set_key" : "const long long",
   "name" : "const long long",
   "referenced_type" : "type-48",
   "self_type" : "type-640",
   "size" : 8,
   "source_file" : "/system/core/libutils/include/utils/TypeHelpers.h"
  },
  {
   "alignment" : 4,
   "is_const" : true,
   "linker_set_key" : "const native_handle",
   "name" : "const native_handle",
   "referenced_type" : "type-44",
   "self_type" : "type-43",
   "size" : 12,
   "source_file" : "/system/libhidl/base/include/hidl/HidlInternal.h"
  },
  {
   "alignment" : 2,
   "is_const" : true,
   "linker_set_key" : "const short",
   "name" : "const short",
   "referenced_type" : "type-538",
   "self_type" : "type-632",
   "size" : 2,
   "source_file" : "/system/core/libutils/include/utils/TypeHelpers.h"
  },
  {
   "alignment" : 1,
   "is_const" : true,
   "linker_set_key" : "const signed char",
   "name" : "const signed char",
   "referenced_type" : "type-627",
   "self_type" : "type-626",
   "size" : 1,
   "source_file" : "/system/core/libutils/include/utils/TypeHelpers.h"
  },
  {
   "alignment" : 4,
   "is_const" : true,
   "linker_set_key" : "const std::array<android::hardware::camera::common::V1_0::CameraDeviceStatus, 3>",
   "name" : "const std::array<android::hardware::camera::common::V1_0::CameraDeviceStatus, 3>",
   "referenced_type" : "type-210",
   "self_type" : "type-209",
   "size" : 12,
   "source_file" : "/out/soong/.intermediates/hardware/interfaces/camera/common/1.0/android.hardware.camera.common@1.0_genc++_headers/gen/android/hardware/camera/common/1.0/types.h"
  },
  {
   "alignment" : 4,
   "is_const" : true,
   "linker_set_key" : "const std::array<android::hardware::camera::common::V1_0::CameraDeviceStatus, 3>",
   "name" : "const std::array<android::hardware::camera::common::V1_0::CameraDeviceStatus, 3>",
   "referenced_type" : "type-368",
   "self_type" : "type-367",
   "size" : 12,
   "source_file" : "/out/soong/.intermediates/hardware/interfaces/camera/common/1.0/android.hardware.camera.common@1.0_genc++_headers/gen/android/hardware/camera/common/1.0/types.h"
  },
  {
   "alignment" : 4,
   "is_const" : true,
   "linker_set_key" : "const std::array<android::hardware::camera::common::V1_0::CameraDeviceStatus, 3>",
   "name" : "const std::array<android::hardware::camera::common::V1_0::CameraDeviceStatus, 3>",
   "referenced_type" : "type-533",
   "self_type" : "type-532",
   "size" : 12,
   "source_file" : "/out/soong/.intermediates/hardware/interfaces/camera/common/1.0/android.hardware.camera.common@1.0_genc++_headers/gen/android/hardware/camera/common/1.0/types.h"
  },
  {
   "alignment" : 4,
   "is_const" : true,
   "linker_set_key" : "const std::array<android::hardware::camera::common::V1_0::CameraDeviceStatus, 3>",
   "name" : "const std::array<android::hardware::camera::common::V1_0::CameraDeviceStatus, 3>",
   "referenced_type" : "type-947",
   "self_type" : "type-946",
   "size" : 12,
   "source_file" : "/out/soong/.intermediates/hardware/interfaces/camera/common/1.0/android.hardware.camera.common@1.0_genc++_headers/gen/android/hardware/camera/common/1.0/types.h"
  },
  {
   "alignment" : 4,
   "is_const" : true,
   "linker_set_key" : "const std::array<android::hardware::camera::common::V1_0::CameraMetadataType, 6>",
   "name" : "const std::array<android::hardware::camera::common::V1_0::CameraMetadataType, 6>",
   "referenced_type" : "type-206",
   "self_type" : "type-205",
   "size" : 24,
   "source_file" : "/out/soong/.intermediates/hardware/interfaces/camera/common/1.0/android.hardware.camera.common@1.0_genc++_headers/gen/android/hardware/camera/common/1.0/types.h"
  },
  {
   "alignment" : 4,
   "is_const" : true,
   "linker_set_key" : "const std::array<android::hardware::camera::common::V1_0::CameraMetadataType, 6>",
   "name" : "const std::array<android::hardware::camera::common::V1_0::CameraMetadataType, 6>",
   "referenced_type" : "type-360",
   "self_type" : "type-359",
   "size" : 24,
   "source_file" : "/out/soong/.intermediates/hardware/interfaces/camera/common/1.0/android.hardware.camera.common@1.0_genc++_headers/gen/android/hardware/camera/common/1.0/types.h"
  },
  {
   "alignment" : 4,
   "is_const" : true,
   "linker_set_key" : "const std::array<android::hardware::camera::common::V1_0::CameraMetadataType, 6>",
   "name" : "const std::array<android::hardware::camera::common::V1_0::CameraMetadataType, 6>",
   "referenced_type" : "type-529",
   "self_type" : "type-528",
   "size" : 24,
   "source_file" : "/out/soong/.intermediates/hardware/interfaces/camera/common/1.0/android.hardware.camera.common@1.0_genc++_headers/gen/android/hardware/camera/common/1.0/types.h"
  },
  {
   "alignment" : 4,
   "is_const" : true,
   "linker_set_key" : "const std::array<android::hardware::camera::common::V1_0::CameraMetadataType, 6>",
   "name" : "const std::array<android::hardware::camera::common::V1_0::CameraMetadataType, 6>",
   "referenced_type" : "type-943",
   "self_type" : "type-942",
   "size" : 24,
   "source_file" : "/out/soong/.intermediates/hardware/interfaces/camera/common/1.0/android.hardware.camera.common@1.0_genc++_headers/gen/android/hardware/camera/common/1.0/types.h"
  },
  {
   "alignment" : 4,
   "is_const" : true,
   "linker_set_key" : "const std::array<android::hardware::camera::common::V1_0::Status, 8>",
   "name" : "const std::array<android::hardware::camera::common::V1_0::Status, 8>",
   "referenced_type" : "type-202",
   "self_type" : "type-201",
   "size" : 32,
   "source_file" : "/out/soong/.intermediates/hardware/interfaces/camera/common/1.0/android.hardware.camera.common@1.0_genc++_headers/gen/android/hardware/camera/common/1.0/types.h"
  },
  {
   "alignment" : 4,
   "is_const" : true,
   "linker_set_key" : "const std::array<android::hardware::camera::common::V1_0::Status, 8>",
   "name" : "const std::array<android::hardware::camera::common::V1_0::Status, 8>",
   "referenced_type" : "type-356",
   "self_type" : "type-355",
   "size" : 32,
   "source_file" : "/out/soong/.intermediates/hardware/interfaces/camera/common/1.0/android.hardware.camera.common@1.0_genc++_headers/gen/android/hardware/camera/common/1.0/types.h"
  },
  {
   "alignment" : 4,
   "is_const" : true,
   "linker_set_key" : "const std::array<android::hardware::camera::common::V1_0::Status, 8>",
   "name" : "const std::array<android::hardware::camera::common::V1_0::Status, 8>",
   "referenced_type" : "type-525",
   "self_type" : "type-524",
   "size" : 32,
   "source_file" : "/out/soong/.intermediates/hardware/interfaces/camera/common/1.0/android.hardware.camera.common@1.0_genc++_headers/gen/android/hardware/camera/common/1.0/types.h"
  },
  {
   "alignment" : 4,
   "is_const" : true,
   "linker_set_key" : "const std::array<android::hardware::camera::common::V1_0::Status, 8>",
   "name" : "const std::array<android::hardware::camera::common::V1_0::Status, 8>",
   "referenced_type" : "type-939",
   "self_type" : "type-938",
   "size" : 32,
   "source_file" : "/out/soong/.intermediates/hardware/interfaces/camera/common/1.0/android.hardware.camera.common@1.0_genc++_headers/gen/android/hardware/camera/common/1.0/types.h"
  },
  {
   "alignment" : 4,
   "is_const" : true,
   "linker_set_key" : "const std::array<android::hardware::camera::common::V1_0::TagBoundaryId, 2>",
   "name" : "const std::array<android::hardware::camera::common::V1_0::TagBoundaryId, 2>",
   "referenced_type" : "type-208",
   "self_type" : "type-207",
   "size" : 8,
   "source_file" : "/out/soong/.intermediates/hardware/interfaces/camera/common/1.0/android.hardware.camera.common@1.0_genc++_headers/gen/android/hardware/camera/common/1.0/types.h"
  },
  {
   "alignment" : 4,
   "is_const" : true,
   "linker_set_key" : "const std::array<android::hardware::camera::common::V1_0::TagBoundaryId, 2>",
   "name" : "const std::array<android::hardware::camera::common::V1_0::TagBoundaryId, 2>",
   "referenced_type" : "type-366",
   "self_type" : "type-365",
   "size" : 8,
   "source_file" : "/out/soong/.intermediates/hardware/interfaces/camera/common/1.0/android.hardware.camera.common@1.0_genc++_headers/gen/android/hardware/camera/common/1.0/types.h"
  },
  {
   "alignment" : 4,
   "is_const" : true,
   "linker_set_key" : "const std::array<android::hardware::camera::common::V1_0::TagBoundaryId, 2>",
   "name" : "const std::array<android::hardware::camera::common::V1_0::TagBoundaryId, 2>",
   "referenced_type" : "type-531",
   "self_type" : "type-530",
   "size" : 8,
   "source_file" : "/out/soong/.intermediates/hardware/interfaces/camera/common/1.0/android.hardware.camera.common@1.0_genc++_headers/gen/android/hardware/camera/common/1.0/types.h"
  },
  {
   "alignment" : 4,
   "is_const" : true,
   "linker_set_key" : "const std::array<android::hardware::camera::common::V1_0::TagBoundaryId, 2>",
   "name" : "const std::array<android::hardware::camera::common::V1_0::TagBoundaryId, 2>",
   "referenced_type" : "type-945",
   "self_type" : "type-944",
   "size" : 8,
   "source_file" : "/out/soong/.intermediates/hardware/interfaces/camera/common/1.0/android.hardware.camera.common@1.0_genc++_headers/gen/android/hardware/camera/common/1.0/types.h"
  },
  {
   "alignment" : 4,
   "is_const" : true,
   "linker_set_key" : "const std::array<android::hardware::camera::common::V1_0::TorchMode, 2>",
   "name" : "const std::array<android::hardware::camera::common::V1_0::TorchMode, 2>",
   "referenced_type" : "type-204",
   "self_type" : "type-203",
   "size" : 8,
   "source_file" : "/out/soong/.intermediates/hardware/interfaces/camera/common/1.0/android.hardware.camera.common@1.0_genc++_headers/gen/android/hardware/camera/common/1.0/types.h"
  },
  {
   "alignment" : 4,
   "is_const" : true,
   "linker_set_key" : "const std::array<android::hardware::camera::common::V1_0::TorchMode, 2>",
   "name" : "const std::array<android::hardware::camera::common::V1_0::TorchMode, 2>",
   "referenced_type" : "type-358",
   "self_type" : "type-357",
   "size" : 8,
   "source_file" : "/out/soong/.intermediates/hardware/interfaces/camera/common/1.0/android.hardware.camera.common@1.0_genc++_headers/gen/android/hardware/camera/common/1.0/types.h"
  },
  {
   "alignment" : 4,
   "is_const" : true,
   "linker_set_key" : "const std::array<android::hardware::camera::common::V1_0::TorchMode, 2>",
   "name" : "const std::array<android::hardware::camera::common::V1_0::TorchMode, 2>",
   "referenced_type" : "type-527",
   "self_type" : "type-526",
   "size" : 8,
   "source_file" : "/out/soong/.intermediates/hardware/interfaces/camera/common/1.0/android.hardware.camera.common@1.0_genc++_headers/gen/android/hardware/camera/common/1.0/types.h"
  },
  {
   "alignment" : 4,
   "is_const" : true,
   "linker_set_key" : "const std::array<android::hardware::camera::common::V1_0::TorchMode, 2>",
   "name" : "const std::array<android::hardware::camera::common::V1_0::TorchMode, 2>",
   "referenced_type" : "type-941",
   "self_type" : "type-940",
   "size" : 8,
   "source_file" : "/out/soong/.intermediates/hardware/interfaces/camera/common/1.0/android.hardware.camera.common@1.0_genc++_headers/gen/android/hardware/camera/common/1.0/types.h"
  },
  {
   "alignment" : 4,
   "is_const" : true,
   "linker_set_key" : "const std::array<android::hardware::camera::common::V1_0::TorchModeStatus, 3>",
   "name" : "const std::array<android::hardware::camera::common::V1_0::TorchModeStatus, 3>",
   "referenced_type" : "type-212",
   "self_type" : "type-211",
   "size" : 12,
   "source_file" : "/out/soong/.intermediates/hardware/interfaces/camera/common/1.0/android.hardware.camera.common@1.0_genc++_headers/gen/android/hardware/camera/common/1.0/types.h"
  },
  {
   "alignment" : 4,
   "is_const" : true,
   "linker_set_key" : "const std::array<android::hardware::camera::common::V1_0::TorchModeStatus, 3>",
   "name" : "const std::array<android::hardware::camera::common::V1_0::TorchModeStatus, 3>",
   "referenced_type" : "type-370",
   "self_type" : "type-369",
   "size" : 12,
   "source_file" : "/out/soong/.intermediates/hardware/interfaces/camera/common/1.0/android.hardware.camera.common@1.0_genc++_headers/gen/android/hardware/camera/common/1.0/types.h"
  },
  {
   "alignment" : 4,
   "is_const" : true,
   "linker_set_key" : "const std::array<android::hardware::camera::common::V1_0::TorchModeStatus, 3>",
   "name" : "const std::array<android::hardware::camera::common::V1_0::TorchModeStatus, 3>",
   "referenced_type" : "type-536",
   "self_type" : "type-535",
   "size" : 12,
   "source_file" : "/out/soong/.intermediates/hardware/interfaces/camera/common/1.0/android.hardware.camera.common@1.0_genc++_headers/gen/android/hardware/camera/common/1.0/types.h"
  },
  {
   "alignment" : 4,
   "is_const" : true,
   "linker_set_key" : "const std::array<android::hardware::camera::common::V1_0::TorchModeStatus, 3>",
   "name" : "const std::array<android::hardware::camera::common::V1_0::TorchModeStatus, 3>",
   "referenced_type" : "type-949",
   "self_type" : "type-948",
   "size" : 12,
   "source_file" : "/out/soong/.intermediates/hardware/interfaces/camera/common/1.0/android.hardware.camera.common@1.0_genc++_headers/gen/android/hardware/camera/common/1.0/types.h"
  },
  {
   "alignment" : 4,
   "is_const" : true,
   "linker_set_key" : "const std::array<android::hardware::camera::device::V1_0::CameraFacing, 3>",
   "name" : "const std::array<android::hardware::camera::device::V1_0::CameraFacing, 3>",
   "referenced_type" : "type-265",
   "self_type" : "type-264",
   "size" : 12,
   "source_file" : "/out/soong/.intermediates/hardware/interfaces/camera/device/1.0/android.hardware.camera.device@1.0_genc++_headers/gen/android/hardware/camera/device/1.0/types.h"
  },
  {
   "alignment" : 4,
   "is_const" : true,
   "linker_set_key" : "const std::array<android::hardware::camera::device::V1_0::CameraFacing, 3>",
   "name" : "const std::array<android::hardware::camera::device::V1_0::CameraFacing, 3>",
   "referenced_type" : "type-372",
   "self_type" : "type-371",
   "size" : 12,
   "source_file" : "/out/soong/.intermediates/hardware/interfaces/camera/device/1.0/android.hardware.camera.device@1.0_genc++_headers/gen/android/hardware/camera/device/1.0/types.h"
  },
  {
   "alignment" : 4,
   "is_const" : true,
   "linker_set_key" : "const std::array<android::hardware::camera::device::V1_0::CameraFacing, 3>",
   "name" : "const std::array<android::hardware::camera::device::V1_0::CameraFacing, 3>",
   "referenced_type" : "type-454",
   "self_type" : "type-453",
   "size" : 12,
   "source_file" : "/out/soong/.intermediates/hardware/interfaces/camera/device/1.0/android.hardware.camera.device@1.0_genc++_headers/gen/android/hardware/camera/device/1.0/types.h"
  },
  {
   "alignment" : 4,
   "is_const" : true,
   "linker_set_key" : "const std::array<android::hardware::camera::device::V1_0::CameraFacing, 3>",
   "name" : "const std::array<android::hardware::camera::device::V1_0::CameraFacing, 3>",
   "referenced_type" : "type-587",
   "self_type" : "type-586",
   "size" : 12,
   "source_file" : "/out/soong/.intermediates/hardware/interfaces/camera/device/1.0/android.hardware.camera.device@1.0_genc++_headers/gen/android/hardware/camera/device/1.0/types.h"
  },
  {
   "alignment" : 4,
   "is_const" : true,
   "linker_set_key" : "const std::array<android::hardware::camera::device::V1_0::CameraFacing, 3>",
   "name" : "const std::array<android::hardware::camera::device::V1_0::CameraFacing, 3>",
   "referenced_type" : "type-74",
   "self_type" : "type-73",
   "size" : 12,
   "source_file" : "/out/soong/.intermediates/hardware/interfaces/camera/device/1.0/android.hardware.camera.device@1.0_genc++_headers/gen/android/hardware/camera/device/1.0/types.h"
  },
  {
   "alignment" : 4,
   "is_const" : true,
   "linker_set_key" : "const std::array<android::hardware::camera::device::V1_0::CameraFacing, 3>",
   "name" : "const std::array<android::hardware::camera::device::V1_0::CameraFacing, 3>",
   "referenced_type" : "type-962",
   "self_type" : "type-961",
   "size" : 12,
   "source_file" : "/out/soong/.intermediates/hardware/interfaces/camera/device/1.0/android.hardware.camera.device@1.0_genc++_headers/gen/android/hardware/camera/device/1.0/types.h"
  },
  {
   "alignment" : 4,
   "is_const" : true,
   "linker_set_key" : "const std::array<android::hardware::camera::device::V1_0::CommandType, 6>",
   "name" : "const std::array<android::hardware::camera::device::V1_0::CommandType, 6>",
   "referenced_type" : "type-270",
   "self_type" : "type-269",
   "size" : 24,
   "source_file" : "/out/soong/.intermediates/hardware/interfaces/camera/device/1.0/android.hardware.camera.device@1.0_genc++_headers/gen/android/hardware/camera/device/1.0/types.h"
  },
  {
   "alignment" : 4,
   "is_const" : true,
   "linker_set_key" : "const std::array<android::hardware::camera::device::V1_0::CommandType, 6>",
   "name" : "const std::array<android::hardware::camera::device::V1_0::CommandType, 6>",
   "referenced_type" : "type-376",
   "self_type" : "type-375",
   "size" : 24,
   "source_file" : "/out/soong/.intermediates/hardware/interfaces/camera/device/1.0/android.hardware.camera.device@1.0_genc++_headers/gen/android/hardware/camera/device/1.0/types.h"
  },
  {
   "alignment" : 4,
   "is_const" : true,
   "linker_set_key" : "const std::array<android::hardware::camera::device::V1_0::CommandType, 6>",
   "name" : "const std::array<android::hardware::camera::device::V1_0::CommandType, 6>",
   "referenced_type" : "type-459",
   "self_type" : "type-458",
   "size" : 24,
   "source_file" : "/out/soong/.intermediates/hardware/interfaces/camera/device/1.0/android.hardware.camera.device@1.0_genc++_headers/gen/android/hardware/camera/device/1.0/types.h"
  },
  {
   "alignment" : 4,
   "is_const" : true,
   "linker_set_key" : "const std::array<android::hardware::camera::device::V1_0::CommandType, 6>",
   "name" : "const std::array<android::hardware::camera::device::V1_0::CommandType, 6>",
   "referenced_type" : "type-591",
   "self_type" : "type-590",
   "size" : 24,
   "source_file" : "/out/soong/.intermediates/hardware/interfaces/camera/device/1.0/android.hardware.camera.device@1.0_genc++_headers/gen/android/hardware/camera/device/1.0/types.h"
  },
  {
   "alignment" : 4,
   "is_const" : true,
   "linker_set_key" : "const std::array<android::hardware::camera::device::V1_0::CommandType, 6>",
   "name" : "const std::array<android::hardware::camera::device::V1_0::CommandType, 6>",
   "referenced_type" : "type-79",
   "self_type" : "type-78",
   "size" : 24,
   "source_file" : "/out/soong/.intermediates/hardware/interfaces/camera/device/1.0/android.hardware.camera.device@1.0_genc++_headers/gen/android/hardware/camera/device/1.0/types.h"
  },
  {
   "alignment" : 4,
   "is_const" : true,
   "linker_set_key" : "const std::array<android::hardware::camera::device::V1_0::CommandType, 6>",
   "name" : "const std::array<android::hardware::camera::device::V1_0::CommandType, 6>",
   "referenced_type" : "type-967",
   "self_type" : "type-966",
   "size" : 24,
   "source_file" : "/out/soong/.intermediates/hardware/interfaces/camera/device/1.0/android.hardware.camera.device@1.0_genc++_headers/gen/android/hardware/camera/device/1.0/types.h"
  },
  {
   "alignment" : 4,
   "is_const" : true,
   "linker_set_key" : "const std::array<android::hardware::camera::device::V1_0::DataCallbackMsg, 7>",
   "name" : "const std::array<android::hardware::camera::device::V1_0::DataCallbackMsg, 7>",
   "referenced_type" : "type-274",
   "self_type" : "type-273",
   "size" : 28,
   "source_file" : "/out/soong/.intermediates/hardware/interfaces/camera/device/1.0/android.hardware.camera.device@1.0_genc++_headers/gen/android/hardware/camera/device/1.0/types.h"
  },
  {
   "alignment" : 4,
   "is_const" : true,
   "linker_set_key" : "const std::array<android::hardware::camera::device::V1_0::DataCallbackMsg, 7>",
   "name" : "const std::array<android::hardware::camera::device::V1_0::DataCallbackMsg, 7>",
   "referenced_type" : "type-380",
   "self_type" : "type-379",
   "size" : 28,
   "source_file" : "/out/soong/.intermediates/hardware/interfaces/camera/device/1.0/android.hardware.camera.device@1.0_genc++_headers/gen/android/hardware/camera/device/1.0/types.h"
  },
  {
   "alignment" : 4,
   "is_const" : true,
   "linker_set_key" : "const std::array<android::hardware::camera::device::V1_0::DataCallbackMsg, 7>",
   "name" : "const std::array<android::hardware::camera::device::V1_0::DataCallbackMsg, 7>",
   "referenced_type" : "type-463",
   "self_type" : "type-462",
   "size" : 28,
   "source_file" : "/out/soong/.intermediates/hardware/interfaces/camera/device/1.0/android.hardware.camera.device@1.0_genc++_headers/gen/android/hardware/camera/device/1.0/types.h"
  },
  {
   "alignment" : 4,
   "is_const" : true,
   "linker_set_key" : "const std::array<android::hardware::camera::device::V1_0::DataCallbackMsg, 7>",
   "name" : "const std::array<android::hardware::camera::device::V1_0::DataCallbackMsg, 7>",
   "referenced_type" : "type-595",
   "self_type" : "type-594",
   "size" : 28,
   "source_file" : "/out/soong/.intermediates/hardware/interfaces/camera/device/1.0/android.hardware.camera.device@1.0_genc++_headers/gen/android/hardware/camera/device/1.0/types.h"
  },
  {
   "alignment" : 4,
   "is_const" : true,
   "linker_set_key" : "const std::array<android::hardware::camera::device::V1_0::DataCallbackMsg, 7>",
   "name" : "const std::array<android::hardware::camera::device::V1_0::DataCallbackMsg, 7>",
   "referenced_type" : "type-83",
   "self_type" : "type-82",
   "size" : 28,
   "source_file" : "/out/soong/.intermediates/hardware/interfaces/camera/device/1.0/android.hardware.camera.device@1.0_genc++_headers/gen/android/hardware/camera/device/1.0/types.h"
  },
  {
   "alignment" : 4,
   "is_const" : true,
   "linker_set_key" : "const std::array<android::hardware::camera::device::V1_0::DataCallbackMsg, 7>",
   "name" : "const std::array<android::hardware::camera::device::V1_0::DataCallbackMsg, 7>",
   "referenced_type" : "type-971",
   "self_type" : "type-970",
   "size" : 28,
   "source_file" : "/out/soong/.intermediates/hardware/interfaces/camera/device/1.0/android.hardware.camera.device@1.0_genc++_headers/gen/android/hardware/camera/device/1.0/types.h"
  },
  {
   "alignment" : 4,
   "is_const" : true,
   "linker_set_key" : "const std::array<android::hardware::camera::device::V1_0::FrameCallbackFlag, 7>",
   "name" : "const std::array<android::hardware::camera::device::V1_0::FrameCallbackFlag, 7>",
   "referenced_type" : "type-267",
   "self_type" : "type-266",
   "size" : 28,
   "source_file" : "/out/soong/.intermediates/hardware/interfaces/camera/device/1.0/android.hardware.camera.device@1.0_genc++_headers/gen/android/hardware/camera/device/1.0/types.h"
  },
  {
   "alignment" : 4,
   "is_const" : true,
   "linker_set_key" : "const std::array<android::hardware::camera::device::V1_0::FrameCallbackFlag, 7>",
   "name" : "const std::array<android::hardware::camera::device::V1_0::FrameCallbackFlag, 7>",
   "referenced_type" : "type-374",
   "self_type" : "type-373",
   "size" : 28,
   "source_file" : "/out/soong/.intermediates/hardware/interfaces/camera/device/1.0/android.hardware.camera.device@1.0_genc++_headers/gen/android/hardware/camera/device/1.0/types.h"
  },
  {
   "alignment" : 4,
   "is_const" : true,
   "linker_set_key" : "const std::array<android::hardware::camera::device::V1_0::FrameCallbackFlag, 7>",
   "name" : "const std::array<android::hardware::camera::device::V1_0::FrameCallbackFlag, 7>",
   "referenced_type" : "type-456",
   "self_type" : "type-455",
   "size" : 28,
   "source_file" : "/out/soong/.intermediates/hardware/interfaces/camera/device/1.0/android.hardware.camera.device@1.0_genc++_headers/gen/android/hardware/camera/device/1.0/types.h"
  },
  {
   "alignment" : 4,
   "is_const" : true,
   "linker_set_key" : "const std::array<android::hardware::camera::device::V1_0::FrameCallbackFlag, 7>",
   "name" : "const std::array<android::hardware::camera::device::V1_0::FrameCallbackFlag, 7>",
   "referenced_type" : "type-589",
   "self_type" : "type-588",
   "size" : 28,
   "source_file" : "/out/soong/.intermediates/hardware/interfaces/camera/device/1.0/android.hardware.camera.device@1.0_genc++_headers/gen/android/hardware/camera/device/1.0/types.h"
  },
  {
   "alignment" : 4,
   "is_const" : true,
   "linker_set_key" : "const std::array<android::hardware::camera::device::V1_0::FrameCallbackFlag, 7>",
   "name" : "const std::array<android::hardware::camera::device::V1_0::FrameCallbackFlag, 7>",
   "referenced_type" : "type-76",
   "self_type" : "type-75",
   "size" : 28,
   "source_file" : "/out/soong/.intermediates/hardware/interfaces/camera/device/1.0/android.hardware.camera.device@1.0_genc++_headers/gen/android/hardware/camera/device/1.0/types.h"
  },
  {
   "alignment" : 4,
   "is_const" : true,
   "linker_set_key" : "const std::array<android::hardware::camera::device::V1_0::FrameCallbackFlag, 7>",
   "name" : "const std::array<android::hardware::camera::device::V1_0::FrameCallbackFlag, 7>",
   "referenced_type" : "type-964",
   "self_type" : "type-963",
   "size" : 28,
   "source_file" : "/out/soong/.intermediates/hardware/interfaces/camera/device/1.0/android.hardware.camera.device@1.0_genc++_headers/gen/android/hardware/camera/device/1.0/types.h"
  },
  {
   "alignment" : 4,
   "is_const" : true,
   "linker_set_key" : "const std::array<android::hardware::camera::device::V1_0::NotifyCallbackMsg, 5>",
   "name" : "const std::array<android::hardware::camera::device::V1_0::NotifyCallbackMsg, 5>",
   "referenced_type" : "type-272",
   "self_type" : "type-271",
   "size" : 20,
   "source_file" : "/out/soong/.intermediates/hardware/interfaces/camera/device/1.0/android.hardware.camera.device@1.0_genc++_headers/gen/android/hardware/camera/device/1.0/types.h"
  },
  {
   "alignment" : 4,
   "is_const" : true,
   "linker_set_key" : "const std::array<android::hardware::camera::device::V1_0::NotifyCallbackMsg, 5>",
   "name" : "const std::array<android::hardware::camera::device::V1_0::NotifyCallbackMsg, 5>",
   "referenced_type" : "type-378",
   "self_type" : "type-377",
   "size" : 20,
   "source_file" : "/out/soong/.intermediates/hardware/interfaces/camera/device/1.0/android.hardware.camera.device@1.0_genc++_headers/gen/android/hardware/camera/device/1.0/types.h"
  },
  {
   "alignment" : 4,
   "is_const" : true,
   "linker_set_key" : "const std::array<android::hardware::camera::device::V1_0::NotifyCallbackMsg, 5>",
   "name" : "const std::array<android::hardware::camera::device::V1_0::NotifyCallbackMsg, 5>",
   "referenced_type" : "type-461",
   "self_type" : "type-460",
   "size" : 20,
   "source_file" : "/out/soong/.intermediates/hardware/interfaces/camera/device/1.0/android.hardware.camera.device@1.0_genc++_headers/gen/android/hardware/camera/device/1.0/types.h"
  },
  {
   "alignment" : 4,
   "is_const" : true,
   "linker_set_key" : "const std::array<android::hardware::camera::device::V1_0::NotifyCallbackMsg, 5>",
   "name" : "const std::array<android::hardware::camera::device::V1_0::NotifyCallbackMsg, 5>",
   "referenced_type" : "type-593",
   "self_type" : "type-592",
   "size" : 20,
   "source_file" : "/out/soong/.intermediates/hardware/interfaces/camera/device/1.0/android.hardware.camera.device@1.0_genc++_headers/gen/android/hardware/camera/device/1.0/types.h"
  },
  {
   "alignment" : 4,
   "is_const" : true,
   "linker_set_key" : "const std::array<android::hardware::camera::device::V1_0::NotifyCallbackMsg, 5>",
   "name" : "const std::array<android::hardware::camera::device::V1_0::NotifyCallbackMsg, 5>",
   "referenced_type" : "type-81",
   "self_type" : "type-80",
   "size" : 20,
   "source_file" : "/out/soong/.intermediates/hardware/interfaces/camera/device/1.0/android.hardware.camera.device@1.0_genc++_headers/gen/android/hardware/camera/device/1.0/types.h"
  },
  {
   "alignment" : 4,
   "is_const" : true,
   "linker_set_key" : "const std::array<android::hardware::camera::device::V1_0::NotifyCallbackMsg, 5>",
   "name" : "const std::array<android::hardware::camera::device::V1_0::NotifyCallbackMsg, 5>",
   "referenced_type" : "type-969",
   "self_type" : "type-968",
   "size" : 20,
   "source_file" : "/out/soong/.intermediates/hardware/interfaces/camera/device/1.0/android.hardware.camera.device@1.0_genc++_headers/gen/android/hardware/camera/device/1.0/types.h"
  },
  {
   "alignment" : 8,
   "is_const" : true,
   "linker_set_key" : "const std::array<android::hardware::graphics::common::V1_0::BufferUsage, 23>",
   "name" : "const std::array<android::hardware::graphics::common::V1_0::BufferUsage, 23>",
   "referenced_type" : "type-216",
   "self_type" : "type-215",
   "size" : 184,
   "source_file" : "/out/soong/.intermediates/hardware/interfaces/graphics/common/1.0/android.hardware.graphics.common@1.0_genc++_headers/gen/android/hardware/graphics/common/1.0/types.h"
  },
  {
   "alignment" : 8,
   "is_const" : true,
   "linker_set_key" : "const std::array<android::hardware::graphics::common::V1_0::BufferUsage, 23>",
   "name" : "const std::array<android::hardware::graphics::common::V1_0::BufferUsage, 23>",
   "referenced_type" : "type-385",
   "self_type" : "type-384",
   "size" : 184,
   "source_file" : "/out/soong/.intermediates/hardware/interfaces/graphics/common/1.0/android.hardware.graphics.common@1.0_genc++_headers/gen/android/hardware/graphics/common/1.0/types.h"
  },
  {
   "alignment" : 8,
   "is_const" : true,
   "linker_set_key" : "const std::array<android::hardware::graphics::common::V1_0::BufferUsage, 23>",
   "name" : "const std::array<android::hardware::graphics::common::V1_0::BufferUsage, 23>",
   "referenced_type" : "type-542",
   "self_type" : "type-541",
   "size" : 184,
   "source_file" : "/out/soong/.intermediates/hardware/interfaces/graphics/common/1.0/android.hardware.graphics.common@1.0_genc++_headers/gen/android/hardware/graphics/common/1.0/types.h"
  },
  {
   "alignment" : 8,
   "is_const" : true,
   "linker_set_key" : "const std::array<android::hardware::graphics::common::V1_0::BufferUsage, 23>",
   "name" : "const std::array<android::hardware::graphics::common::V1_0::BufferUsage, 23>",
   "referenced_type" : "type-992",
   "self_type" : "type-991",
   "size" : 184,
   "source_file" : "/out/soong/.intermediates/hardware/interfaces/graphics/common/1.0/android.hardware.graphics.common@1.0_genc++_headers/gen/android/hardware/graphics/common/1.0/types.h"
  },
  {
   "alignment" : 4,
   "is_const" : true,
   "linker_set_key" : "const std::array<android::hardware::graphics::common::V1_0::ColorMode, 10>",
   "name" : "const std::array<android::hardware::graphics::common::V1_0::ColorMode, 10>",
   "referenced_type" : "type-222",
   "self_type" : "type-221",
   "size" : 40,
   "source_file" : "/out/soong/.intermediates/hardware/interfaces/graphics/common/1.0/android.hardware.graphics.common@1.0_genc++_headers/gen/android/hardware/graphics/common/1.0/types.h"
  },
  {
   "alignment" : 4,
   "is_const" : true,
   "linker_set_key" : "const std::array<android::hardware::graphics::common::V1_0::ColorMode, 10>",
   "name" : "const std::array<android::hardware::graphics::common::V1_0::ColorMode, 10>",
   "referenced_type" : "type-392",
   "self_type" : "type-391",
   "size" : 40,
   "source_file" : "/out/soong/.intermediates/hardware/interfaces/graphics/common/1.0/android.hardware.graphics.common@1.0_genc++_headers/gen/android/hardware/graphics/common/1.0/types.h"
  },
  {
   "alignment" : 4,
   "is_const" : true,
   "linker_set_key" : "const std::array<android::hardware::graphics::common::V1_0::ColorMode, 10>",
   "name" : "const std::array<android::hardware::graphics::common::V1_0::ColorMode, 10>",
   "referenced_type" : "type-548",
   "self_type" : "type-547",
   "size" : 40,
   "source_file" : "/out/soong/.intermediates/hardware/interfaces/graphics/common/1.0/android.hardware.graphics.common@1.0_genc++_headers/gen/android/hardware/graphics/common/1.0/types.h"
  },
  {
   "alignment" : 4,
   "is_const" : true,
   "linker_set_key" : "const std::array<android::hardware::graphics::common::V1_0::ColorMode, 10>",
   "name" : "const std::array<android::hardware::graphics::common::V1_0::ColorMode, 10>",
   "referenced_type" : "type-999",
   "self_type" : "type-998",
   "size" : 40,
   "source_file" : "/out/soong/.intermediates/hardware/interfaces/graphics/common/1.0/android.hardware.graphics.common@1.0_genc++_headers/gen/android/hardware/graphics/common/1.0/types.h"
  },
  {
   "alignment" : 4,
   "is_const" : true,
   "linker_set_key" : "const std::array<android::hardware::graphics::common::V1_0::ColorTransform, 7>",
   "name" : "const std::array<android::hardware::graphics::common::V1_0::ColorTransform, 7>",
   "referenced_type" : "type-1002",
   "self_type" : "type-1001",
   "size" : 28,
   "source_file" : "/out/soong/.intermediates/hardware/interfaces/graphics/common/1.0/android.hardware.graphics.common@1.0_genc++_headers/gen/android/hardware/graphics/common/1.0/types.h"
  },
  {
   "alignment" : 4,
   "is_const" : true,
   "linker_set_key" : "const std::array<android::hardware::graphics::common::V1_0::ColorTransform, 7>",
   "name" : "const std::array<android::hardware::graphics::common::V1_0::ColorTransform, 7>",
   "referenced_type" : "type-224",
   "self_type" : "type-223",
   "size" : 28,
   "source_file" : "/out/soong/.intermediates/hardware/interfaces/graphics/common/1.0/android.hardware.graphics.common@1.0_genc++_headers/gen/android/hardware/graphics/common/1.0/types.h"
  },
  {
   "alignment" : 4,
   "is_const" : true,
   "linker_set_key" : "const std::array<android::hardware::graphics::common::V1_0::ColorTransform, 7>",
   "name" : "const std::array<android::hardware::graphics::common::V1_0::ColorTransform, 7>",
   "referenced_type" : "type-394",
   "self_type" : "type-393",
   "size" : 28,
   "source_file" : "/out/soong/.intermediates/hardware/interfaces/graphics/common/1.0/android.hardware.graphics.common@1.0_genc++_headers/gen/android/hardware/graphics/common/1.0/types.h"
  },
  {
   "alignment" : 4,
   "is_const" : true,
   "linker_set_key" : "const std::array<android::hardware::graphics::common::V1_0::ColorTransform, 7>",
   "name" : "const std::array<android::hardware::graphics::common::V1_0::ColorTransform, 7>",
   "referenced_type" : "type-550",
   "self_type" : "type-549",
   "size" : 28,
   "source_file" : "/out/soong/.intermediates/hardware/interfaces/graphics/common/1.0/android.hardware.graphics.common@1.0_genc++_headers/gen/android/hardware/graphics/common/1.0/types.h"
  },
  {
   "alignment" : 4,
   "is_const" : true,
   "linker_set_key" : "const std::array<android::hardware::graphics::common::V1_0::Dataspace, 57>",
   "name" : "const std::array<android::hardware::graphics::common::V1_0::Dataspace, 57>",
   "referenced_type" : "type-220",
   "self_type" : "type-219",
   "size" : 228,
   "source_file" : "/out/soong/.intermediates/hardware/interfaces/graphics/common/1.0/android.hardware.graphics.common@1.0_genc++_headers/gen/android/hardware/graphics/common/1.0/types.h"
  },
  {
   "alignment" : 4,
   "is_const" : true,
   "linker_set_key" : "const std::array<android::hardware::graphics::common::V1_0::Dataspace, 57>",
   "name" : "const std::array<android::hardware::graphics::common::V1_0::Dataspace, 57>",
   "referenced_type" : "type-389",
   "self_type" : "type-388",
   "size" : 228,
   "source_file" : "/out/soong/.intermediates/hardware/interfaces/graphics/common/1.0/android.hardware.graphics.common@1.0_genc++_headers/gen/android/hardware/graphics/common/1.0/types.h"
  },
  {
   "alignment" : 4,
   "is_const" : true,
   "linker_set_key" : "const std::array<android::hardware::graphics::common::V1_0::Dataspace, 57>",
   "name" : "const std::array<android::hardware::graphics::common::V1_0::Dataspace, 57>",
   "referenced_type" : "type-546",
   "self_type" : "type-545",
   "size" : 228,
   "source_file" : "/out/soong/.intermediates/hardware/interfaces/graphics/common/1.0/android.hardware.graphics.common@1.0_genc++_headers/gen/android/hardware/graphics/common/1.0/types.h"
  },
  {
   "alignment" : 4,
   "is_const" : true,
   "linker_set_key" : "const std::array<android::hardware::graphics::common::V1_0::Dataspace, 57>",
   "name" : "const std::array<android::hardware::graphics::common::V1_0::Dataspace, 57>",
   "referenced_type" : "type-997",
   "self_type" : "type-996",
   "size" : 228,
   "source_file" : "/out/soong/.intermediates/hardware/interfaces/graphics/common/1.0/android.hardware.graphics.common@1.0_genc++_headers/gen/android/hardware/graphics/common/1.0/types.h"
  },
  {
   "alignment" : 4,
   "is_const" : true,
   "linker_set_key" : "const std::array<android::hardware::graphics::common::V1_0::Hdr, 3>",
   "name" : "const std::array<android::hardware::graphics::common::V1_0::Hdr, 3>",
   "referenced_type" : "type-1005",
   "self_type" : "type-1004",
   "size" : 12,
   "source_file" : "/out/soong/.intermediates/hardware/interfaces/graphics/common/1.0/android.hardware.graphics.common@1.0_genc++_headers/gen/android/hardware/graphics/common/1.0/types.h"
  },
  {
   "alignment" : 4,
   "is_const" : true,
   "linker_set_key" : "const std::array<android::hardware::graphics::common::V1_0::Hdr, 3>",
   "name" : "const std::array<android::hardware::graphics::common::V1_0::Hdr, 3>",
   "referenced_type" : "type-226",
   "self_type" : "type-225",
   "size" : 12,
   "source_file" : "/out/soong/.intermediates/hardware/interfaces/graphics/common/1.0/android.hardware.graphics.common@1.0_genc++_headers/gen/android/hardware/graphics/common/1.0/types.h"
  },
  {
   "alignment" : 4,
   "is_const" : true,
   "linker_set_key" : "const std::array<android::hardware::graphics::common::V1_0::Hdr, 3>",
   "name" : "const std::array<android::hardware::graphics::common::V1_0::Hdr, 3>",
   "referenced_type" : "type-396",
   "self_type" : "type-395",
   "size" : 12,
   "source_file" : "/out/soong/.intermediates/hardware/interfaces/graphics/common/1.0/android.hardware.graphics.common@1.0_genc++_headers/gen/android/hardware/graphics/common/1.0/types.h"
  },
  {
   "alignment" : 4,
   "is_const" : true,
   "linker_set_key" : "const std::array<android::hardware::graphics::common::V1_0::Hdr, 3>",
   "name" : "const std::array<android::hardware::graphics::common::V1_0::Hdr, 3>",
   "referenced_type" : "type-552",
   "self_type" : "type-551",
   "size" : 12,
   "source_file" : "/out/soong/.intermediates/hardware/interfaces/graphics/common/1.0/android.hardware.graphics.common@1.0_genc++_headers/gen/android/hardware/graphics/common/1.0/types.h"
  },
  {
   "alignment" : 4,
   "is_const" : true,
   "linker_set_key" : "const std::array<android::hardware::graphics::common::V1_0::PixelFormat, 20>",
   "name" : "const std::array<android::hardware::graphics::common::V1_0::PixelFormat, 20>",
   "referenced_type" : "type-214",
   "self_type" : "type-213",
   "size" : 80,
   "source_file" : "/out/soong/.intermediates/hardware/interfaces/graphics/common/1.0/android.hardware.graphics.common@1.0_genc++_headers/gen/android/hardware/graphics/common/1.0/types.h"
  },
  {
   "alignment" : 4,
   "is_const" : true,
   "linker_set_key" : "const std::array<android::hardware::graphics::common::V1_0::PixelFormat, 20>",
   "name" : "const std::array<android::hardware::graphics::common::V1_0::PixelFormat, 20>",
   "referenced_type" : "type-383",
   "self_type" : "type-382",
   "size" : 80,
   "source_file" : "/out/soong/.intermediates/hardware/interfaces/graphics/common/1.0/android.hardware.graphics.common@1.0_genc++_headers/gen/android/hardware/graphics/common/1.0/types.h"
  },
  {
   "alignment" : 4,
   "is_const" : true,
   "linker_set_key" : "const std::array<android::hardware::graphics::common::V1_0::PixelFormat, 20>",
   "name" : "const std::array<android::hardware::graphics::common::V1_0::PixelFormat, 20>",
   "referenced_type" : "type-540",
   "self_type" : "type-539",
   "size" : 80,
   "source_file" : "/out/soong/.intermediates/hardware/interfaces/graphics/common/1.0/android.hardware.graphics.common@1.0_genc++_headers/gen/android/hardware/graphics/common/1.0/types.h"
  },
  {
   "alignment" : 4,
   "is_const" : true,
   "linker_set_key" : "const std::array<android::hardware::graphics::common::V1_0::PixelFormat, 20>",
   "name" : "const std::array<android::hardware::graphics::common::V1_0::PixelFormat, 20>",
   "referenced_type" : "type-990",
   "self_type" : "type-989",
   "size" : 80,
   "source_file" : "/out/soong/.intermediates/hardware/interfaces/graphics/common/1.0/android.hardware.graphics.common@1.0_genc++_headers/gen/android/hardware/graphics/common/1.0/types.h"
  },
  {
   "alignment" : 4,
   "is_const" : true,
   "linker_set_key" : "const std::array<android::hardware::graphics::common::V1_0::Transform, 5>",
   "name" : "const std::array<android::hardware::graphics::common::V1_0::Transform, 5>",
   "referenced_type" : "type-218",
   "self_type" : "type-217",
   "size" : 20,
   "source_file" : "/out/soong/.intermediates/hardware/interfaces/graphics/common/1.0/android.hardware.graphics.common@1.0_genc++_headers/gen/android/hardware/graphics/common/1.0/types.h"
  },
  {
   "alignment" : 4,
   "is_const" : true,
   "linker_set_key" : "const std::array<android::hardware::graphics::common::V1_0::Transform, 5>",
   "name" : "const std::array<android::hardware::graphics::common::V1_0::Transform, 5>",
   "referenced_type" : "type-387",
   "self_type" : "type-386",
   "size" : 20,
   "source_file" : "/out/soong/.intermediates/hardware/interfaces/graphics/common/1.0/android.hardware.graphics.common@1.0_genc++_headers/gen/android/hardware/graphics/common/1.0/types.h"
  },
  {
   "alignment" : 4,
   "is_const" : true,
   "linker_set_key" : "const std::array<android::hardware::graphics::common::V1_0::Transform, 5>",
   "name" : "const std::array<android::hardware::graphics::common::V1_0::Transform, 5>",
   "referenced_type" : "type-544",
   "self_type" : "type-543",
   "size" : 20,
   "source_file" : "/out/soong/.intermediates/hardware/interfaces/graphics/common/1.0/android.hardware.graphics.common@1.0_genc++_headers/gen/android/hardware/graphics/common/1.0/types.h"
  },
  {
   "alignment" : 4,
   "is_const" : true,
   "linker_set_key" : "const std::array<android::hardware::graphics::common::V1_0::Transform, 5>",
   "name" : "const std::array<android::hardware::graphics::common::V1_0::Transform, 5>",
   "referenced_type" : "type-995",
   "self_type" : "type-994",
   "size" : 20,
   "source_file" : "/out/soong/.intermediates/hardware/interfaces/graphics/common/1.0/android.hardware.graphics.common@1.0_genc++_headers/gen/android/hardware/graphics/common/1.0/types.h"
  },
  {
   "alignment" : 4,
   "is_const" : true,
   "linker_set_key" : "const std::array<android::hidl::base::V1_0::DebugInfo::Architecture, 3>",
   "name" : "const std::array<android::hidl::base::V1_0::DebugInfo::Architecture, 3>",
   "referenced_type" : "type-180",
   "self_type" : "type-179",
   "size" : 12,
   "source_file" : "/out/soong/.intermediates/system/libhidl/transport/base/1.0/android.hidl.base@1.0_genc++_headers/gen/android/hidl/base/1.0/types.h"
  },
  {
   "alignment" : 4,
   "is_const" : true,
   "linker_set_key" : "const std::array<android::hidl::base::V1_0::DebugInfo::Architecture, 3>",
   "name" : "const std::array<android::hidl::base::V1_0::DebugInfo::Architecture, 3>",
   "referenced_type" : "type-19",
   "self_type" : "type-18",
   "size" : 12,
   "source_file" : "/out/soong/.intermediates/system/libhidl/transport/base/1.0/android.hidl.base@1.0_genc++_headers/gen/android/hidl/base/1.0/types.h"
  },
  {
   "alignment" : 4,
   "is_const" : true,
   "linker_set_key" : "const std::array<android::hidl::base::V1_0::DebugInfo::Architecture, 3>",
   "name" : "const std::array<android::hidl::base::V1_0::DebugInfo::Architecture, 3>",
   "referenced_type" : "type-258",
   "self_type" : "type-257",
   "size" : 12,
   "source_file" : "/out/soong/.intermediates/system/libhidl/transport/base/1.0/android.hidl.base@1.0_genc++_headers/gen/android/hidl/base/1.0/types.h"
  },
  {
   "alignment" : 4,
   "is_const" : true,
   "linker_set_key" : "const std::array<android::hidl::base::V1_0::DebugInfo::Architecture, 3>",
   "name" : "const std::array<android::hidl::base::V1_0::DebugInfo::Architecture, 3>",
   "referenced_type" : "type-319",
   "self_type" : "type-318",
   "size" : 12,
   "source_file" : "/out/soong/.intermediates/system/libhidl/transport/base/1.0/android.hidl.base@1.0_genc++_headers/gen/android/hidl/base/1.0/types.h"
  },
  {
   "alignment" : 4,
   "is_const" : true,
   "linker_set_key" : "const std::array<android::hidl::base::V1_0::DebugInfo::Architecture, 3>",
   "name" : "const std::array<android::hidl::base::V1_0::DebugInfo::Architecture, 3>",
   "referenced_type" : "type-428",
   "self_type" : "type-427",
   "size" : 12,
   "source_file" : "/out/soong/.intermediates/system/libhidl/transport/base/1.0/android.hidl.base@1.0_genc++_headers/gen/android/hidl/base/1.0/types.h"
  },
  {
   "alignment" : 4,
   "is_const" : true,
   "linker_set_key" : "const std::array<android::hidl::base::V1_0::DebugInfo::Architecture, 3>",
   "name" : "const std::array<android::hidl::base::V1_0::DebugInfo::Architecture, 3>",
   "referenced_type" : "type-499",
   "self_type" : "type-498",
   "size" : 12,
   "source_file" : "/out/soong/.intermediates/system/libhidl/transport/base/1.0/android.hidl.base@1.0_genc++_headers/gen/android/hidl/base/1.0/types.h"
  },
  {
   "alignment" : 4,
   "is_const" : true,
   "linker_set_key" : "const std::array<android::hidl::base::V1_0::DebugInfo::Architecture, 3>",
   "name" : "const std::array<android::hidl::base::V1_0::DebugInfo::Architecture, 3>",
   "referenced_type" : "type-576",
   "self_type" : "type-575",
   "size" : 12,
   "source_file" : "/out/soong/.intermediates/system/libhidl/transport/base/1.0/android.hidl.base@1.0_genc++_headers/gen/android/hidl/base/1.0/types.h"
  },
  {
   "alignment" : 4,
   "is_const" : true,
   "linker_set_key" : "const std::array<android::hidl::base::V1_0::DebugInfo::Architecture, 3>",
   "name" : "const std::array<android::hidl::base::V1_0::DebugInfo::Architecture, 3>",
   "referenced_type" : "type-774",
   "self_type" : "type-773",
   "size" : 12,
   "source_file" : "/out/soong/.intermediates/system/libhidl/transport/base/1.0/android.hidl.base@1.0_genc++_headers/gen/android/hidl/base/1.0/types.h"
  },
  {
   "alignment" : 4,
   "is_const" : true,
   "linker_set_key" : "const std::array<android::hidl::manager::V1_0::IServiceManager::PidConstant, 1>",
   "name" : "const std::array<android::hidl::manager::V1_0::IServiceManager::PidConstant, 1>",
   "referenced_type" : "type-200",
   "self_type" : "type-199",
   "size" : 4,
   "source_file" : "/out/soong/.intermediates/system/libhidl/transport/manager/1.0/android.hidl.manager@1.0_genc++_headers/gen/android/hidl/manager/1.0/IServiceManager.h"
  },
  {
   "alignment" : 4,
   "is_const" : true,
   "linker_set_key" : "const std::array<android::hidl::manager::V1_0::IServiceManager::PidConstant, 1>",
   "name" : "const std::array<android::hidl::manager::V1_0::IServiceManager::PidConstant, 1>",
   "referenced_type" : "type-353",
   "self_type" : "type-352",
   "size" : 4,
   "source_file" : "/out/soong/.intermediates/system/libhidl/transport/manager/1.0/android.hidl.manager@1.0_genc++_headers/gen/android/hidl/manager/1.0/IServiceManager.h"
  },
  {
   "alignment" : 4,
   "is_const" : true,
   "linker_set_key" : "const std::array<android::hidl::manager::V1_0::IServiceManager::PidConstant, 1>",
   "name" : "const std::array<android::hidl::manager::V1_0::IServiceManager::PidConstant, 1>",
   "referenced_type" : "type-451",
   "self_type" : "type-450",
   "size" : 4,
   "source_file" : "/out/soong/.intermediates/system/libhidl/transport/manager/1.0/android.hidl.manager@1.0_genc++_headers/gen/android/hidl/manager/1.0/IServiceManager.h"
  },
  {
   "alignment" : 4,
   "is_const" : true,
   "linker_set_key" : "const std::array<android::hidl::manager::V1_0::IServiceManager::PidConstant, 1>",
   "name" : "const std::array<android::hidl::manager::V1_0::IServiceManager::PidConstant, 1>",
   "referenced_type" : "type-522",
   "self_type" : "type-521",
   "size" : 4,
   "source_file" : "/out/soong/.intermediates/system/libhidl/transport/manager/1.0/android.hidl.manager@1.0_genc++_headers/gen/android/hidl/manager/1.0/IServiceManager.h"
  },
  {
   "alignment" : 4,
   "is_const" : true,
   "linker_set_key" : "const std::array<android::hidl::manager::V1_0::IServiceManager::PidConstant, 1>",
   "name" : "const std::array<android::hidl::manager::V1_0::IServiceManager::PidConstant, 1>",
   "referenced_type" : "type-71",
   "self_type" : "type-70",
   "size" : 4,
   "source_file" : "/out/soong/.intermediates/system/libhidl/transport/manager/1.0/android.hidl.manager@1.0_genc++_headers/gen/android/hidl/manager/1.0/IServiceManager.h"
  },
  {
   "alignment" : 4,
   "is_const" : true,
   "linker_set_key" : "const std::array<android::hidl::manager::V1_0::IServiceManager::PidConstant, 1>",
   "name" : "const std::array<android::hidl::manager::V1_0::IServiceManager::PidConstant, 1>",
   "referenced_type" : "type-924",
   "self_type" : "type-923",
   "size" : 4,
   "source_file" : "/out/soong/.intermediates/system/libhidl/transport/manager/1.0/android.hidl.manager@1.0_genc++_headers/gen/android/hidl/manager/1.0/IServiceManager.h"
  },
  {
   "alignment" : 1,
   "is_const" : true,
   "linker_set_key" : "const std::array<android::hidl::manager::V1_0::IServiceManager::Transport, 3>",
   "name" : "const std::array<android::hidl::manager::V1_0::IServiceManager::Transport, 3>",
   "referenced_type" : "type-198",
   "self_type" : "type-197",
   "size" : 3,
   "source_file" : "/out/soong/.intermediates/system/libhidl/transport/manager/1.0/android.hidl.manager@1.0_genc++_headers/gen/android/hidl/manager/1.0/IServiceManager.h"
  },
  {
   "alignment" : 1,
   "is_const" : true,
   "linker_set_key" : "const std::array<android::hidl::manager::V1_0::IServiceManager::Transport, 3>",
   "name" : "const std::array<android::hidl::manager::V1_0::IServiceManager::Transport, 3>",
   "referenced_type" : "type-351",
   "self_type" : "type-350",
   "size" : 3,
   "source_file" : "/out/soong/.intermediates/system/libhidl/transport/manager/1.0/android.hidl.manager@1.0_genc++_headers/gen/android/hidl/manager/1.0/IServiceManager.h"
  },
  {
   "alignment" : 1,
   "is_const" : true,
   "linker_set_key" : "const std::array<android::hidl::manager::V1_0::IServiceManager::Transport, 3>",
   "name" : "const std::array<android::hidl::manager::V1_0::IServiceManager::Transport, 3>",
   "referenced_type" : "type-449",
   "self_type" : "type-448",
   "size" : 3,
   "source_file" : "/out/soong/.intermediates/system/libhidl/transport/manager/1.0/android.hidl.manager@1.0_genc++_headers/gen/android/hidl/manager/1.0/IServiceManager.h"
  },
  {
   "alignment" : 1,
   "is_const" : true,
   "linker_set_key" : "const std::array<android::hidl::manager::V1_0::IServiceManager::Transport, 3>",
   "name" : "const std::array<android::hidl::manager::V1_0::IServiceManager::Transport, 3>",
   "referenced_type" : "type-520",
   "self_type" : "type-519",
   "size" : 3,
   "source_file" : "/out/soong/.intermediates/system/libhidl/transport/manager/1.0/android.hidl.manager@1.0_genc++_headers/gen/android/hidl/manager/1.0/IServiceManager.h"
  },
  {
   "alignment" : 1,
   "is_const" : true,
   "linker_set_key" : "const std::array<android::hidl::manager::V1_0::IServiceManager::Transport, 3>",
   "name" : "const std::array<android::hidl::manager::V1_0::IServiceManager::Transport, 3>",
   "referenced_type" : "type-69",
   "self_type" : "type-68",
   "size" : 3,
   "source_file" : "/out/soong/.intermediates/system/libhidl/transport/manager/1.0/android.hidl.manager@1.0_genc++_headers/gen/android/hidl/manager/1.0/IServiceManager.h"
  },
  {
   "alignment" : 1,
   "is_const" : true,
   "linker_set_key" : "const std::array<android::hidl::manager::V1_0::IServiceManager::Transport, 3>",
   "name" : "const std::array<android::hidl::manager::V1_0::IServiceManager::Transport, 3>",
   "referenced_type" : "type-922",
   "self_type" : "type-921",
   "size" : 3,
   "source_file" : "/out/soong/.intermediates/system/libhidl/transport/manager/1.0/android.hidl.manager@1.0_genc++_headers/gen/android/hidl/manager/1.0/IServiceManager.h"
  },
  {
   "alignment" : 4,
   "is_const" : true,
   "linker_set_key" : "const std::basic_string<char, std::char_traits<char>, std::allocator<char> >",
   "name" : "const std::basic_string<char, std::char_traits<char>, std::allocator<char> >",
   "referenced_type" : "type-186",
   "self_type" : "type-185",
   "size" : 12,
   "source_file" : "/system/libhidl/transport/include/hidl/HidlTransportSupport.h"
  },
  {
   "alignment" : 4,
   "is_const" : true,
   "linker_set_key" : "const std::basic_string<char, std::char_traits<char>, std::allocator<char> >",
   "name" : "const std::basic_string<char, std::char_traits<char>, std::allocator<char> >",
   "referenced_type" : "type-329",
   "self_type" : "type-328",
   "size" : 12,
   "source_file" : "/system/libhidl/transport/include/hidl/HidlTransportSupport.h"
  },
  {
   "alignment" : 4,
   "is_const" : true,
   "linker_set_key" : "const std::basic_string<char, std::char_traits<char>, std::allocator<char> >",
   "name" : "const std::basic_string<char, std::char_traits<char>, std::allocator<char> >",
   "referenced_type" : "type-435",
   "self_type" : "type-434",
   "size" : 12,
   "source_file" : "/system/libhidl/transport/include/hidl/HidlTransportSupport.h"
  },
  {
   "alignment" : 4,
   "is_const" : true,
   "linker_set_key" : "const std::basic_string<char, std::char_traits<char>, std::allocator<char> >",
   "name" : "const std::basic_string<char, std::char_traits<char>, std::allocator<char> >",
   "referenced_type" : "type-506",
   "self_type" : "type-505",
   "size" : 12,
   "source_file" : "/system/libhidl/transport/include/hidl/HidlTransportSupport.h"
  },
  {
   "alignment" : 4,
   "is_const" : true,
   "linker_set_key" : "const std::basic_string<char, std::char_traits<char>, std::allocator<char> >",
   "name" : "const std::basic_string<char, std::char_traits<char>, std::allocator<char> >",
   "referenced_type" : "type-50",
   "self_type" : "type-49",
   "size" : 12,
   "source_file" : "/system/libhidl/transport/include/hidl/HidlTransportSupport.h"
  },
  {
   "alignment" : 4,
   "is_const" : true,
   "linker_set_key" : "const std::basic_string<char, std::char_traits<char>, std::allocator<char> >",
   "name" : "const std::basic_string<char, std::char_traits<char>, std::allocator<char> >",
   "referenced_type" : "type-815",
   "self_type" : "type-814",
   "size" : 12,
   "source_file" : "/system/libhidl/transport/include/hidl/HidlTransportSupport.h"
  },
  {
   "alignment" : 4,
   "is_const" : true,
   "linker_set_key" : "const std::initializer_list<android::hardware::hidl_array<unsigned char, 32> >",
   "name" : "const std::initializer_list<android::hardware::hidl_array<unsigned char, 32> >",
   "referenced_type" : "type-1074",
   "self_type" : "type-1073",
   "size" : 8,
   "source_file" : "/system/libhidl/base/include/hidl/HidlSupport.h"
  },
  {
   "alignment" : 4,
   "is_const" : true,
   "linker_set_key" : "const std::initializer_list<android::hardware::hidl_array<unsigned char, 32> >",
   "name" : "const std::initializer_list<android::hardware::hidl_array<unsigned char, 32> >",
   "referenced_type" : "type-178",
   "self_type" : "type-177",
   "size" : 8,
   "source_file" : "/system/libhidl/base/include/hidl/HidlSupport.h"
  },
  {
   "alignment" : 4,
   "is_const" : true,
   "linker_set_key" : "const std::initializer_list<android::hardware::hidl_array<unsigned char, 32> >",
   "name" : "const std::initializer_list<android::hardware::hidl_array<unsigned char, 32> >",
   "referenced_type" : "type-312",
   "self_type" : "type-311",
   "size" : 8,
   "source_file" : "/system/libhidl/base/include/hidl/HidlSupport.h"
  },
  {
   "alignment" : 4,
   "is_const" : true,
   "linker_set_key" : "const std::initializer_list<android::hardware::hidl_array<unsigned char, 32> >",
   "name" : "const std::initializer_list<android::hardware::hidl_array<unsigned char, 32> >",
   "referenced_type" : "type-421",
   "self_type" : "type-420",
   "size" : 8,
   "source_file" : "/system/libhidl/base/include/hidl/HidlSupport.h"
  },
  {
   "alignment" : 4,
   "is_const" : true,
   "linker_set_key" : "const std::initializer_list<android::hardware::hidl_array<unsigned char, 32> >",
   "name" : "const std::initializer_list<android::hardware::hidl_array<unsigned char, 32> >",
   "referenced_type" : "type-494",
   "self_type" : "type-493",
   "size" : 8,
   "source_file" : "/system/libhidl/base/include/hidl/HidlSupport.h"
  },
  {
   "alignment" : 4,
   "is_const" : true,
   "linker_set_key" : "const std::initializer_list<android::hardware::hidl_array<unsigned char, 32> >",
   "name" : "const std::initializer_list<android::hardware::hidl_array<unsigned char, 32> >",
   "referenced_type" : "type-694",
   "self_type" : "type-693",
   "size" : 8,
   "source_file" : "/system/libhidl/base/include/hidl/HidlSupport.h"
  },
  {
   "alignment" : 4,
   "is_const" : true,
   "linker_set_key" : "const std::initializer_list<android::hardware::hidl_string>",
   "name" : "const std::initializer_list<android::hardware::hidl_string>",
   "referenced_type" : "type-1072",
   "self_type" : "type-1071",
   "size" : 8,
   "source_file" : "/system/libhidl/base/include/hidl/HidlSupport.h"
  },
  {
   "alignment" : 4,
   "is_const" : true,
   "linker_set_key" : "const std::initializer_list<android::hardware::hidl_string>",
   "name" : "const std::initializer_list<android::hardware::hidl_string>",
   "referenced_type" : "type-176",
   "self_type" : "type-175",
   "size" : 8,
   "source_file" : "/system/libhidl/base/include/hidl/HidlSupport.h"
  },
  {
   "alignment" : 4,
   "is_const" : true,
   "linker_set_key" : "const std::initializer_list<android::hardware::hidl_string>",
   "name" : "const std::initializer_list<android::hardware::hidl_string>",
   "referenced_type" : "type-309",
   "self_type" : "type-308",
   "size" : 8,
   "source_file" : "/system/libhidl/base/include/hidl/HidlSupport.h"
  },
  {
   "alignment" : 4,
   "is_const" : true,
   "linker_set_key" : "const std::initializer_list<android::hardware::hidl_string>",
   "name" : "const std::initializer_list<android::hardware::hidl_string>",
   "referenced_type" : "type-419",
   "self_type" : "type-418",
   "size" : 8,
   "source_file" : "/system/libhidl/base/include/hidl/HidlSupport.h"
  },
  {
   "alignment" : 4,
   "is_const" : true,
   "linker_set_key" : "const std::initializer_list<android::hardware::hidl_string>",
   "name" : "const std::initializer_list<android::hardware::hidl_string>",
   "referenced_type" : "type-491",
   "self_type" : "type-490",
   "size" : 8,
   "source_file" : "/system/libhidl/base/include/hidl/HidlSupport.h"
  },
  {
   "alignment" : 4,
   "is_const" : true,
   "linker_set_key" : "const std::initializer_list<android::hardware::hidl_string>",
   "name" : "const std::initializer_list<android::hardware::hidl_string>",
   "referenced_type" : "type-680",
   "self_type" : "type-679",
   "size" : 8,
   "source_file" : "/system/libhidl/base/include/hidl/HidlSupport.h"
  },
  {
   "alignment" : 4,
   "is_const" : true,
   "linker_set_key" : "const std::vector<std::function<void (InstrumentationEvent, const char *, const char *, const char *, const char *, vector<void *, allocator<void *> > *)>, std::allocator<std::function<void (InstrumentationEvent, const char *, const char *, const char *, const char *, vector<void *, allocator<void *> > *)> > >",
   "name" : "const std::vector<std::function<void (InstrumentationEvent, const char *, const char *, const char *, const char *, vector<void *, allocator<void *> > *)>, std::allocator<std::function<void (InstrumentationEvent, const char *, const char *, const char *, const char *, vector<void *, allocator<void *> > *)> > >",
   "referenced_type" : "type-105",
   "self_type" : "type-104",
   "size" : 12,
   "source_file" : "/system/libhidl/base/include/hidl/HidlInternal.h"
  },
  {
   "alignment" : 4,
   "is_const" : true,
   "linker_set_key" : "const std::vector<std::function<void (InstrumentationEvent, const char *, const char *, const char *, const char *, vector<void *, allocator<void *> > *)>, std::allocator<std::function<void (InstrumentationEvent, const char *, const char *, const char *, const char *, vector<void *, allocator<void *> > *)> > >",
