{
 "array_types" :
 [
  {
   "alignment" : 4,
   "linker_set_key" : "_ZTIA0_i",
   "name" : "int [0]",
   "referenced_type" : "_ZTIi",
   "self_type" : "_ZTIA0_i",
   "source_file" : "/system/core/libcutils/include/cutils/native_handle.h"
  },
  {
   "alignment" : 1,
   "linker_set_key" : "_ZTIA16_c",
   "name" : "char [16]",
   "referenced_type" : "_ZTIc",
   "self_type" : "_ZTIA16_c",
   "size" : 16,
   "source_file" : "/system/libhidl/transport/include/hidl/ConcurrentMap.h"
  },
  {
   "alignment" : 1,
   "linker_set_key" : "_ZTIA32_h",
   "name" : "unsigned char [32]",
   "referenced_type" : "_ZTIh",
   "self_type" : "_ZTIA32_h",
   "size" : 32,
   "source_file" : "/system/libhidl/base/include/hidl/HidlSupport.h"
  },
  {
   "alignment" : 1,
   "linker_set_key" : "_ZTIA3_h",
   "name" : "unsigned char [3]",
   "referenced_type" : "_ZTIh",
   "self_type" : "_ZTIA3_h",
   "size" : 3,
   "source_file" : "/system/libhidl/base/include/hidl/HidlSupport.h"
  },
  {
   "alignment" : 1,
   "linker_set_key" : "_ZTIA5121_h",
   "name" : "unsigned char [5121]",
   "referenced_type" : "_ZTIh",
   "self_type" : "_ZTIA5121_h",
   "size" : 5121,
   "source_file" : "/system/core/liblog/include/log/log_read.h"
  },
  {
   "alignment" : 4,
   "linker_set_key" : "_ZTIA5_j",
   "name" : "unsigned int [5]",
   "referenced_type" : "_ZTIj",
   "self_type" : "_ZTIA5_j",
   "size" : 20,
   "source_file" : "/system/libhidl/base/include/hidl/HidlSupport.h"
  },
  {
   "alignment" : 1,
   "linker_set_key" : "_ZTIA7_h",
   "name" : "unsigned char [7]",
   "referenced_type" : "_ZTIh",
   "self_type" : "_ZTIA7_h",
   "size" : 7,
   "source_file" : "/system/libhidl/base/include/hidl/HidlSupport.h"
  },
  {
   "alignment" : 4,
   "linker_set_key" : "_ZTIA8_j",
   "name" : "unsigned int [8]",
   "referenced_type" : "_ZTIj",
   "self_type" : "_ZTIA8_j",
   "size" : 32,
   "source_file" : "/system/core/libsystem/include/system/graphics.h"
  },
  {
   "linker_set_key" : "_ZTIA_f",
   "name" : "float []",
   "referenced_type" : "_ZTIf",
   "self_type" : "_ZTIA_f",
   "source_file" : "/system/core/libsystem/include/system/graphics.h"
  }
 ],
 "builtin_types" :
 [
  {
   "alignment" : 2,
   "is_integral" : true,
   "is_unsigned" : true,
   "linker_set_key" : "_ZTIDs",
   "name" : "char16_t",
   "referenced_type" : "_ZTIDs",
   "self_type" : "_ZTIDs",
   "size" : 2
  },
  {
   "alignment" : 1,
   "is_integral" : true,
   "linker_set_key" : "_ZTIa",
   "name" : "signed char",
   "referenced_type" : "_ZTIa",
   "self_type" : "_ZTIa",
   "size" : 1
  },
  {
   "alignment" : 1,
   "is_integral" : true,
   "is_unsigned" : true,
   "linker_set_key" : "_ZTIb",
   "name" : "bool",
   "referenced_type" : "_ZTIb",
   "self_type" : "_ZTIb",
   "size" : 1
  },
  {
   "alignment" : 1,
   "is_integral" : true,
   "linker_set_key" : "_ZTIc",
   "name" : "char",
   "referenced_type" : "_ZTIc",
   "self_type" : "_ZTIc",
   "size" : 1
  },
  {
   "alignment" : 4,
   "linker_set_key" : "_ZTId",
   "name" : "double",
   "referenced_type" : "_ZTId",
   "self_type" : "_ZTId",
   "size" : 8
  },
  {
   "alignment" : 4,
   "linker_set_key" : "_ZTIf",
   "name" : "float",
   "referenced_type" : "_ZTIf",
   "self_type" : "_ZTIf",
   "size" : 4
  },
  {
   "alignment" : 1,
   "is_integral" : true,
   "is_unsigned" : true,
   "linker_set_key" : "_ZTIh",
   "name" : "unsigned char",
   "referenced_type" : "_ZTIh",
   "self_type" : "_ZTIh",
   "size" : 1
  },
  {
   "alignment" : 4,
   "is_integral" : true,
   "linker_set_key" : "_ZTIi",
   "name" : "int",
   "referenced_type" : "_ZTIi",
   "self_type" : "_ZTIi",
   "size" : 4
  },
  {
   "alignment" : 4,
   "is_integral" : true,
   "is_unsigned" : true,
   "linker_set_key" : "_ZTIj",
   "name" : "unsigned int",
   "referenced_type" : "_ZTIj",
   "self_type" : "_ZTIj",
   "size" : 4
  },
  {
   "alignment" : 4,
   "is_integral" : true,
   "linker_set_key" : "_ZTIl",
   "name" : "long",
   "referenced_type" : "_ZTIl",
   "self_type" : "_ZTIl",
   "size" : 4
  },
  {
   "alignment" : 4,
   "is_integral" : true,
   "is_unsigned" : true,
   "linker_set_key" : "_ZTIm",
   "name" : "unsigned long",
   "referenced_type" : "_ZTIm",
   "self_type" : "_ZTIm",
   "size" : 4
  },
  {
   "alignment" : 2,
   "is_integral" : true,
   "linker_set_key" : "_ZTIs",
   "name" : "short",
   "referenced_type" : "_ZTIs",
   "self_type" : "_ZTIs",
   "size" : 2
  },
  {
   "alignment" : 2,
   "is_integral" : true,
   "is_unsigned" : true,
   "linker_set_key" : "_ZTIt",
   "name" : "unsigned short",
   "referenced_type" : "_ZTIt",
   "self_type" : "_ZTIt",
   "size" : 2
  },
  {
   "linker_set_key" : "_ZTIv",
   "name" : "void",
   "referenced_type" : "_ZTIv",
   "self_type" : "_ZTIv"
  },
  {
   "alignment" : 4,
   "is_integral" : true,
   "linker_set_key" : "_ZTIx",
   "name" : "long long",
   "referenced_type" : "_ZTIx",
   "self_type" : "_ZTIx",
   "size" : 8
  },
  {
   "alignment" : 4,
   "is_integral" : true,
   "is_unsigned" : true,
   "linker_set_key" : "_ZTIy",
   "name" : "unsigned long long",
   "referenced_type" : "_ZTIy",
   "self_type" : "_ZTIy",
   "size" : 8
  }
 ],
 "elf_functions" :
 [
  {
   "name" : "_ZN7android8hardware5radio6config4V1_112IRadioConfig10getServiceERKNSt3__112basic_stringIcNS5_11char_traitsIcEENS5_9allocatorIcEEEEb"
  },
  {
   "name" : "_ZN7android8hardware5radio6config4V1_112IRadioConfig11linkToDeathERKNS_2spINS0_20hidl_death_recipientEEEy"
  },
  {
   "name" : "_ZN7android8hardware5radio6config4V1_112IRadioConfig12getDebugInfoENSt3__18functionIFvRKNS_4hidl4base4V1_09DebugInfoEEEE"
  },
  {
   "name" : "_ZN7android8hardware5radio6config4V1_112IRadioConfig12getHashChainENSt3__18functionIFvRKNS0_8hidl_vecINS0_10hidl_arrayIhLj32EJEEEEEEEE"
  },
  {
   "name" : "_ZN7android8hardware5radio6config4V1_112IRadioConfig13tryGetServiceERKNSt3__112basic_stringIcNS5_11char_traitsIcEENS5_9allocatorIcEEEEb"
  },
  {
   "name" : "_ZN7android8hardware5radio6config4V1_112IRadioConfig13unlinkToDeathERKNS_2spINS0_20hidl_death_recipientEEE"
  },
  {
   "name" : "_ZN7android8hardware5radio6config4V1_112IRadioConfig14interfaceChainENSt3__18functionIFvRKNS0_8hidl_vecINS0_11hidl_stringEEEEEE"
  },
  {
   "name" : "_ZN7android8hardware5radio6config4V1_112IRadioConfig17registerAsServiceERKNSt3__112basic_stringIcNS5_11char_traitsIcEENS5_9allocatorIcEEEE"
  },
  {
   "name" : "_ZN7android8hardware5radio6config4V1_112IRadioConfig19interfaceDescriptorENSt3__18functionIFvRKNS0_11hidl_stringEEEE"
  },
  {
   "name" : "_ZN7android8hardware5radio6config4V1_112IRadioConfig21notifySyspropsChangedEv"
  },
  {
   "name" : "_ZN7android8hardware5radio6config4V1_112IRadioConfig21setHALInstrumentationEv"
  },
  {
   "name" : "_ZN7android8hardware5radio6config4V1_112IRadioConfig24registerForNotificationsERKNSt3__112basic_stringIcNS5_11char_traitsIcEENS5_9allocatorIcEEEERKNS_2spINS_4hidl7manager4V1_020IServiceNotificationEEE"
  },
  {
   "name" : "_ZN7android8hardware5radio6config4V1_112IRadioConfig4pingEv"
  },
  {
   "name" : "_ZN7android8hardware5radio6config4V1_112IRadioConfig5debugERKNS0_11hidl_handleERKNS0_8hidl_vecINS0_11hidl_stringEEE"
  },
  {
   "name" : "_ZN7android8hardware5radio6config4V1_112IRadioConfig8castFromERKNS_2spINS2_4V1_012IRadioConfigEEEb"
  },
  {
   "name" : "_ZN7android8hardware5radio6config4V1_112IRadioConfig8castFromERKNS_2spINS_4hidl4base4V1_05IBaseEEEb"
  },
  {
   "name" : "_ZN7android8hardware5radio6config4V1_112IRadioConfig8castFromERKNS_2spIS4_EEb"
  },
  {
   "name" : "_ZN7android8hardware5radio6config4V1_113BsRadioConfig13addOnewayTaskENSt3__18functionIFvvEEE"
  },
  {
   "name" : "_ZN7android8hardware5radio6config4V1_113BsRadioConfigC1ENS_2spINS3_12IRadioConfigEEE"
  },
  {
   "name" : "_ZN7android8hardware5radio6config4V1_113BsRadioConfigC2ENS_2spINS3_12IRadioConfigEEE"
  },
  {
   "name" : "_ZN7android8hardware5radio6config4V1_115BnHwRadioConfig10onTransactEjRKNS0_6ParcelEPS5_jNSt3__18functionIFvRS5_EEE"
  },
  {
   "name" : "_ZN7android8hardware5radio6config4V1_115BnHwRadioConfig12getDebugInfoENSt3__18functionIFvRKNS_4hidl4base4V1_09DebugInfoEEEE"
  },
  {
   "name" : "_ZN7android8hardware5radio6config4V1_115BnHwRadioConfig21_hidl_getModemsConfigEPNS_4hidl4base4V1_08BnHwBaseERKNS0_6ParcelEPSA_NSt3__18functionIFvRSA_EEE"
  },
  {
   "name" : "_ZN7android8hardware5radio6config4V1_115BnHwRadioConfig21_hidl_setModemsConfigEPNS_4hidl4base4V1_08BnHwBaseERKNS0_6ParcelEPSA_NSt3__18functionIFvRSA_EEE"
  },
  {
   "name" : "_ZN7android8hardware5radio6config4V1_115BnHwRadioConfig24_hidl_getPhoneCapabilityEPNS_4hidl4base4V1_08BnHwBaseERKNS0_6ParcelEPSA_NSt3__18functionIFvRSA_EEE"
  },
  {
   "name" : "_ZN7android8hardware5radio6config4V1_115BnHwRadioConfig27_hidl_setPreferredDataModemEPNS_4hidl4base4V1_08BnHwBaseERKNS0_6ParcelEPSA_NSt3__18functionIFvRSA_EEE"
  },
  {
   "name" : "_ZN7android8hardware5radio6config4V1_115BnHwRadioConfig4pingEv"
  },
  {
   "name" : "_ZN7android8hardware5radio6config4V1_115BnHwRadioConfigC1ERKNS_2spINS3_12IRadioConfigEEE"
  },
  {
   "name" : "_ZN7android8hardware5radio6config4V1_115BnHwRadioConfigC2ERKNS_2spINS3_12IRadioConfigEEE"
  },
  {
   "name" : "_ZN7android8hardware5radio6config4V1_115BnHwRadioConfigD0Ev"
  },
  {
   "name" : "_ZN7android8hardware5radio6config4V1_115BnHwRadioConfigD1Ev"
  },
  {
   "name" : "_ZN7android8hardware5radio6config4V1_115BnHwRadioConfigD2Ev"
  },
  {
   "name" : "_ZN7android8hardware5radio6config4V1_115BpHwRadioConfig11linkToDeathERKNS_2spINS0_20hidl_death_recipientEEEy"
  },
  {
   "name" : "_ZN7android8hardware5radio6config4V1_115BpHwRadioConfig12getDebugInfoENSt3__18functionIFvRKNS_4hidl4base4V1_09DebugInfoEEEE"
  },
  {
   "name" : "_ZN7android8hardware5radio6config4V1_115BpHwRadioConfig12getHashChainENSt3__18functionIFvRKNS0_8hidl_vecINS0_10hidl_arrayIhLj32EJEEEEEEEE"
  },
  {
   "name" : "_ZN7android8hardware5radio6config4V1_115BpHwRadioConfig13unlinkToDeathERKNS_2spINS0_20hidl_death_recipientEEE"
  },
  {
   "name" : "_ZN7android8hardware5radio6config4V1_115BpHwRadioConfig14interfaceChainENSt3__18functionIFvRKNS0_8hidl_vecINS0_11hidl_stringEEEEEE"
  },
  {
   "name" : "_ZN7android8hardware5radio6config4V1_115BpHwRadioConfig15getModemsConfigEi"
  },
  {
   "name" : "_ZN7android8hardware5radio6config4V1_115BpHwRadioConfig15onLastStrongRefEPKv"
  },
  {
   "name" : "_ZN7android8hardware5radio6config4V1_115BpHwRadioConfig15setModemsConfigEiRKNS3_12ModemsConfigE"
  },
  {
   "name" : "_ZN7android8hardware5radio6config4V1_115BpHwRadioConfig17getSimSlotsStatusEi"
  },
  {
   "name" : "_ZN7android8hardware5radio6config4V1_115BpHwRadioConfig18getPhoneCapabilityEi"
  },
  {
   "name" : "_ZN7android8hardware5radio6config4V1_115BpHwRadioConfig18setSimSlotsMappingEiRKNS0_8hidl_vecIjEE"
  },
  {
   "name" : "_ZN7android8hardware5radio6config4V1_115BpHwRadioConfig19interfaceDescriptorENSt3__18functionIFvRKNS0_11hidl_stringEEEE"
  },
  {
   "name" : "_ZN7android8hardware5radio6config4V1_115BpHwRadioConfig20setResponseFunctionsERKNS_2spINS2_4V1_020IRadioConfigResponseEEERKNS5_INS6_22IRadioConfigIndicationEEE"
  },
  {
   "name" : "_ZN7android8hardware5radio6config4V1_115BpHwRadioConfig21_hidl_getModemsConfigEPNS0_10IInterfaceEPNS0_7details16HidlInstrumentorEi"
  },
  {
   "name" : "_ZN7android8hardware5radio6config4V1_115BpHwRadioConfig21_hidl_setModemsConfigEPNS0_10IInterfaceEPNS0_7details16HidlInstrumentorEiRKNS3_12ModemsConfigE"
  },
  {
   "name" : "_ZN7android8hardware5radio6config4V1_115BpHwRadioConfig21notifySyspropsChangedEv"
  },
  {
   "name" : "_ZN7android8hardware5radio6config4V1_115BpHwRadioConfig21setHALInstrumentationEv"
  },
  {
   "name" : "_ZN7android8hardware5radio6config4V1_115BpHwRadioConfig21setPreferredDataModemEih"
  },
  {
   "name" : "_ZN7android8hardware5radio6config4V1_115BpHwRadioConfig24_hidl_getPhoneCapabilityEPNS0_10IInterfaceEPNS0_7details16HidlInstrumentorEi"
  },
  {
   "name" : "_ZN7android8hardware5radio6config4V1_115BpHwRadioConfig27_hidl_setPreferredDataModemEPNS0_10IInterfaceEPNS0_7details16HidlInstrumentorEih"
  },
  {
   "name" : "_ZN7android8hardware5radio6config4V1_115BpHwRadioConfig4pingEv"
  },
  {
   "name" : "_ZN7android8hardware5radio6config4V1_115BpHwRadioConfig5debugERKNS0_11hidl_handleERKNS0_8hidl_vecINS0_11hidl_stringEEE"
  },
  {
   "name" : "_ZN7android8hardware5radio6config4V1_115BpHwRadioConfigC1ERKNS_2spINS0_7IBinderEEE"
  },
  {
   "name" : "_ZN7android8hardware5radio6config4V1_115BpHwRadioConfigC2ERKNS_2spINS0_7IBinderEEE"
  },
  {
   "name" : "_ZN7android8hardware5radio6config4V1_120IRadioConfigResponse10getServiceERKNSt3__112basic_stringIcNS5_11char_traitsIcEENS5_9allocatorIcEEEEb"
  },
  {
   "name" : "_ZN7android8hardware5radio6config4V1_120IRadioConfigResponse11linkToDeathERKNS_2spINS0_20hidl_death_recipientEEEy"
  },
  {
   "name" : "_ZN7android8hardware5radio6config4V1_120IRadioConfigResponse12getDebugInfoENSt3__18functionIFvRKNS_4hidl4base4V1_09DebugInfoEEEE"
  },
  {
   "name" : "_ZN7android8hardware5radio6config4V1_120IRadioConfigResponse12getHashChainENSt3__18functionIFvRKNS0_8hidl_vecINS0_10hidl_arrayIhLj32EJEEEEEEEE"
  },
  {
   "name" : "_ZN7android8hardware5radio6config4V1_120IRadioConfigResponse13tryGetServiceERKNSt3__112basic_stringIcNS5_11char_traitsIcEENS5_9allocatorIcEEEEb"
  },
  {
   "name" : "_ZN7android8hardware5radio6config4V1_120IRadioConfigResponse13unlinkToDeathERKNS_2spINS0_20hidl_death_recipientEEE"
  },
  {
   "name" : "_ZN7android8hardware5radio6config4V1_120IRadioConfigResponse14interfaceChainENSt3__18functionIFvRKNS0_8hidl_vecINS0_11hidl_stringEEEEEE"
  },
  {
   "name" : "_ZN7android8hardware5radio6config4V1_120IRadioConfigResponse17registerAsServiceERKNSt3__112basic_stringIcNS5_11char_traitsIcEENS5_9allocatorIcEEEE"
  },
  {
   "name" : "_ZN7android8hardware5radio6config4V1_120IRadioConfigResponse19interfaceDescriptorENSt3__18functionIFvRKNS0_11hidl_stringEEEE"
  },
  {
   "name" : "_ZN7android8hardware5radio6config4V1_120IRadioConfigResponse21notifySyspropsChangedEv"
  },
  {
   "name" : "_ZN7android8hardware5radio6config4V1_120IRadioConfigResponse21setHALInstrumentationEv"
  },
  {
   "name" : "_ZN7android8hardware5radio6config4V1_120IRadioConfigResponse24registerForNotificationsERKNSt3__112basic_stringIcNS5_11char_traitsIcEENS5_9allocatorIcEEEERKNS_2spINS_4hidl7manager4V1_020IServiceNotificationEEE"
  },
  {
   "name" : "_ZN7android8hardware5radio6config4V1_120IRadioConfigResponse4pingEv"
  },
  {
   "name" : "_ZN7android8hardware5radio6config4V1_120IRadioConfigResponse5debugERKNS0_11hidl_handleERKNS0_8hidl_vecINS0_11hidl_stringEEE"
  },
  {
   "name" : "_ZN7android8hardware5radio6config4V1_120IRadioConfigResponse8castFromERKNS_2spINS2_4V1_020IRadioConfigResponseEEEb"
  },
  {
   "name" : "_ZN7android8hardware5radio6config4V1_120IRadioConfigResponse8castFromERKNS_2spINS_4hidl4base4V1_05IBaseEEEb"
  },
  {
   "name" : "_ZN7android8hardware5radio6config4V1_120IRadioConfigResponse8castFromERKNS_2spIS4_EEb"
  },
  {
   "name" : "_ZN7android8hardware5radio6config4V1_121BsRadioConfigResponse13addOnewayTaskENSt3__18functionIFvvEEE"
  },
  {
   "name" : "_ZN7android8hardware5radio6config4V1_121BsRadioConfigResponseC1ENS_2spINS3_20IRadioConfigResponseEEE"
  },
  {
   "name" : "_ZN7android8hardware5radio6config4V1_121BsRadioConfigResponseC2ENS_2spINS3_20IRadioConfigResponseEEE"
  },
  {
   "name" : "_ZN7android8hardware5radio6config4V1_121writeEmbeddedToParcelERKNS3_15PhoneCapabilityEPNS0_6ParcelEjj"
  },
  {
   "name" : "_ZN7android8hardware5radio6config4V1_122IRadioConfigIndication10getServiceERKNSt3__112basic_stringIcNS5_11char_traitsIcEENS5_9allocatorIcEEEEb"
  },
  {
   "name" : "_ZN7android8hardware5radio6config4V1_122IRadioConfigIndication11linkToDeathERKNS_2spINS0_20hidl_death_recipientEEEy"
  },
  {
   "name" : "_ZN7android8hardware5radio6config4V1_122IRadioConfigIndication12getDebugInfoENSt3__18functionIFvRKNS_4hidl4base4V1_09DebugInfoEEEE"
  },
  {
   "name" : "_ZN7android8hardware5radio6config4V1_122IRadioConfigIndication12getHashChainENSt3__18functionIFvRKNS0_8hidl_vecINS0_10hidl_arrayIhLj32EJEEEEEEEE"
  },
  {
   "name" : "_ZN7android8hardware5radio6config4V1_122IRadioConfigIndication13tryGetServiceERKNSt3__112basic_stringIcNS5_11char_traitsIcEENS5_9allocatorIcEEEEb"
  },
  {
   "name" : "_ZN7android8hardware5radio6config4V1_122IRadioConfigIndication13unlinkToDeathERKNS_2spINS0_20hidl_death_recipientEEE"
  },
  {
   "name" : "_ZN7android8hardware5radio6config4V1_122IRadioConfigIndication14interfaceChainENSt3__18functionIFvRKNS0_8hidl_vecINS0_11hidl_stringEEEEEE"
  },
  {
   "name" : "_ZN7android8hardware5radio6config4V1_122IRadioConfigIndication17registerAsServiceERKNSt3__112basic_stringIcNS5_11char_traitsIcEENS5_9allocatorIcEEEE"
  },
  {
   "name" : "_ZN7android8hardware5radio6config4V1_122IRadioConfigIndication19interfaceDescriptorENSt3__18functionIFvRKNS0_11hidl_stringEEEE"
  },
  {
   "name" : "_ZN7android8hardware5radio6config4V1_122IRadioConfigIndication21notifySyspropsChangedEv"
  },
  {
   "name" : "_ZN7android8hardware5radio6config4V1_122IRadioConfigIndication21setHALInstrumentationEv"
  },
  {
   "name" : "_ZN7android8hardware5radio6config4V1_122IRadioConfigIndication24registerForNotificationsERKNSt3__112basic_stringIcNS5_11char_traitsIcEENS5_9allocatorIcEEEERKNS_2spINS_4hidl7manager4V1_020IServiceNotificationEEE"
  },
  {
   "name" : "_ZN7android8hardware5radio6config4V1_122IRadioConfigIndication4pingEv"
  },
  {
   "name" : "_ZN7android8hardware5radio6config4V1_122IRadioConfigIndication5debugERKNS0_11hidl_handleERKNS0_8hidl_vecINS0_11hidl_stringEEE"
  },
  {
   "name" : "_ZN7android8hardware5radio6config4V1_122IRadioConfigIndication8castFromERKNS_2spINS2_4V1_022IRadioConfigIndicationEEEb"
  },
  {
   "name" : "_ZN7android8hardware5radio6config4V1_122IRadioConfigIndication8castFromERKNS_2spINS_4hidl4base4V1_05IBaseEEEb"
  },
  {
   "name" : "_ZN7android8hardware5radio6config4V1_122IRadioConfigIndication8castFromERKNS_2spIS4_EEb"
  },
  {
   "name" : "_ZN7android8hardware5radio6config4V1_122readEmbeddedFromParcelERKNS3_15PhoneCapabilityERKNS0_6ParcelEjj"
  },
  {
   "name" : "_ZN7android8hardware5radio6config4V1_123BnHwRadioConfigResponse10onTransactEjRKNS0_6ParcelEPS5_jNSt3__18functionIFvRS5_EEE"
  },
  {
   "name" : "_ZN7android8hardware5radio6config4V1_123BnHwRadioConfigResponse12getDebugInfoENSt3__18functionIFvRKNS_4hidl4base4V1_09DebugInfoEEEE"
  },
  {
   "name" : "_ZN7android8hardware5radio6config4V1_123BnHwRadioConfigResponse29_hidl_getModemsConfigResponseEPNS_4hidl4base4V1_08BnHwBaseERKNS0_6ParcelEPSA_NSt3__18functionIFvRSA_EEE"
  },
  {
   "name" : "_ZN7android8hardware5radio6config4V1_123BnHwRadioConfigResponse29_hidl_setModemsConfigResponseEPNS_4hidl4base4V1_08BnHwBaseERKNS0_6ParcelEPSA_NSt3__18functionIFvRSA_EEE"
  },
  {
   "name" : "_ZN7android8hardware5radio6config4V1_123BnHwRadioConfigResponse32_hidl_getPhoneCapabilityResponseEPNS_4hidl4base4V1_08BnHwBaseERKNS0_6ParcelEPSA_NSt3__18functionIFvRSA_EEE"
  },
  {
   "name" : "_ZN7android8hardware5radio6config4V1_123BnHwRadioConfigResponse35_hidl_setPreferredDataModemResponseEPNS_4hidl4base4V1_08BnHwBaseERKNS0_6ParcelEPSA_NSt3__18functionIFvRSA_EEE"
  },
  {
   "name" : "_ZN7android8hardware5radio6config4V1_123BnHwRadioConfigResponse4pingEv"
  },
  {
   "name" : "_ZN7android8hardware5radio6config4V1_123BnHwRadioConfigResponseC1ERKNS_2spINS3_20IRadioConfigResponseEEE"
  },
  {
   "name" : "_ZN7android8hardware5radio6config4V1_123BnHwRadioConfigResponseC2ERKNS_2spINS3_20IRadioConfigResponseEEE"
  },
  {
   "name" : "_ZN7android8hardware5radio6config4V1_123BnHwRadioConfigResponseD0Ev"
  },
  {
   "name" : "_ZN7android8hardware5radio6config4V1_123BnHwRadioConfigResponseD1Ev"
  },
  {
   "name" : "_ZN7android8hardware5radio6config4V1_123BnHwRadioConfigResponseD2Ev"
  },
  {
   "name" : "_ZN7android8hardware5radio6config4V1_123BpHwRadioConfigResponse11linkToDeathERKNS_2spINS0_20hidl_death_recipientEEEy"
  },
  {
   "name" : "_ZN7android8hardware5radio6config4V1_123BpHwRadioConfigResponse12getDebugInfoENSt3__18functionIFvRKNS_4hidl4base4V1_09DebugInfoEEEE"
  },
  {
   "name" : "_ZN7android8hardware5radio6config4V1_123BpHwRadioConfigResponse12getHashChainENSt3__18functionIFvRKNS0_8hidl_vecINS0_10hidl_arrayIhLj32EJEEEEEEEE"
  },
  {
   "name" : "_ZN7android8hardware5radio6config4V1_123BpHwRadioConfigResponse13unlinkToDeathERKNS_2spINS0_20hidl_death_recipientEEE"
  },
  {
   "name" : "_ZN7android8hardware5radio6config4V1_123BpHwRadioConfigResponse14interfaceChainENSt3__18functionIFvRKNS0_8hidl_vecINS0_11hidl_stringEEEEEE"
  },
  {
   "name" : "_ZN7android8hardware5radio6config4V1_123BpHwRadioConfigResponse15onLastStrongRefEPKv"
  },
  {
   "name" : "_ZN7android8hardware5radio6config4V1_123BpHwRadioConfigResponse19interfaceDescriptorENSt3__18functionIFvRKNS0_11hidl_stringEEEE"
  },
  {
   "name" : "_ZN7android8hardware5radio6config4V1_123BpHwRadioConfigResponse21notifySyspropsChangedEv"
  },
  {
   "name" : "_ZN7android8hardware5radio6config4V1_123BpHwRadioConfigResponse21setHALInstrumentationEv"
  },
  {
   "name" : "_ZN7android8hardware5radio6config4V1_123BpHwRadioConfigResponse23getModemsConfigResponseERKNS1_4V1_017RadioResponseInfoERKNS3_12ModemsConfigE"
  },
  {
   "name" : "_ZN7android8hardware5radio6config4V1_123BpHwRadioConfigResponse23setModemsConfigResponseERKNS1_4V1_017RadioResponseInfoE"
  },
  {
   "name" : "_ZN7android8hardware5radio6config4V1_123BpHwRadioConfigResponse25getSimSlotsStatusResponseERKNS1_4V1_017RadioResponseInfoERKNS0_8hidl_vecINS2_4V1_013SimSlotStatusEEE"
  },
  {
   "name" : "_ZN7android8hardware5radio6config4V1_123BpHwRadioConfigResponse26getPhoneCapabilityResponseERKNS1_4V1_017RadioResponseInfoERKNS3_15PhoneCapabilityE"
  },
  {
   "name" : "_ZN7android8hardware5radio6config4V1_123BpHwRadioConfigResponse26setSimSlotsMappingResponseERKNS1_4V1_017RadioResponseInfoE"
  },
  {
   "name" : "_ZN7android8hardware5radio6config4V1_123BpHwRadioConfigResponse29_hidl_getModemsConfigResponseEPNS0_10IInterfaceEPNS0_7details16HidlInstrumentorERKNS1_4V1_017RadioResponseInfoERKNS3_12ModemsConfigE"
  },
  {
   "name" : "_ZN7android8hardware5radio6config4V1_123BpHwRadioConfigResponse29_hidl_setModemsConfigResponseEPNS0_10IInterfaceEPNS0_7details16HidlInstrumentorERKNS1_4V1_017RadioResponseInfoE"
  },
  {
   "name" : "_ZN7android8hardware5radio6config4V1_123BpHwRadioConfigResponse29setPreferredDataModemResponseERKNS1_4V1_017RadioResponseInfoE"
  },
  {
   "name" : "_ZN7android8hardware5radio6config4V1_123BpHwRadioConfigResponse32_hidl_getPhoneCapabilityResponseEPNS0_10IInterfaceEPNS0_7details16HidlInstrumentorERKNS1_4V1_017RadioResponseInfoERKNS3_15PhoneCapabilityE"
  },
  {
   "name" : "_ZN7android8hardware5radio6config4V1_123BpHwRadioConfigResponse35_hidl_setPreferredDataModemResponseEPNS0_10IInterfaceEPNS0_7details16HidlInstrumentorERKNS1_4V1_017RadioResponseInfoE"
  },
  {
   "name" : "_ZN7android8hardware5radio6config4V1_123BpHwRadioConfigResponse4pingEv"
  },
  {
   "name" : "_ZN7android8hardware5radio6config4V1_123BpHwRadioConfigResponse5debugERKNS0_11hidl_handleERKNS0_8hidl_vecINS0_11hidl_stringEEE"
  },
  {
   "name" : "_ZN7android8hardware5radio6config4V1_123BpHwRadioConfigResponseC1ERKNS_2spINS0_7IBinderEEE"
  },
  {
   "name" : "_ZN7android8hardware5radio6config4V1_123BpHwRadioConfigResponseC2ERKNS_2spINS0_7IBinderEEE"
  },
  {
   "name" : "_ZN7android8hardware5radio6config4V1_123BsRadioConfigIndication13addOnewayTaskENSt3__18functionIFvvEEE"
  },
  {
   "name" : "_ZN7android8hardware5radio6config4V1_123BsRadioConfigIndicationC1ENS_2spINS3_22IRadioConfigIndicationEEE"
  },
  {
   "name" : "_ZN7android8hardware5radio6config4V1_123BsRadioConfigIndicationC2ENS_2spINS3_22IRadioConfigIndicationEEE"
  },
  {
   "name" : "_ZN7android8hardware5radio6config4V1_125BnHwRadioConfigIndication10onTransactEjRKNS0_6ParcelEPS5_jNSt3__18functionIFvRS5_EEE"
  },
  {
   "name" : "_ZN7android8hardware5radio6config4V1_125BnHwRadioConfigIndication12getDebugInfoENSt3__18functionIFvRKNS_4hidl4base4V1_09DebugInfoEEEE"
  },
  {
   "name" : "_ZN7android8hardware5radio6config4V1_125BnHwRadioConfigIndication4pingEv"
  },
  {
   "name" : "_ZN7android8hardware5radio6config4V1_125BnHwRadioConfigIndicationC1ERKNS_2spINS3_22IRadioConfigIndicationEEE"
  },
  {
   "name" : "_ZN7android8hardware5radio6config4V1_125BnHwRadioConfigIndicationC2ERKNS_2spINS3_22IRadioConfigIndicationEEE"
  },
  {
   "name" : "_ZN7android8hardware5radio6config4V1_125BnHwRadioConfigIndicationD0Ev"
  },
  {
   "name" : "_ZN7android8hardware5radio6config4V1_125BnHwRadioConfigIndicationD1Ev"
  },
  {
   "name" : "_ZN7android8hardware5radio6config4V1_125BnHwRadioConfigIndicationD2Ev"
  },
  {
   "name" : "_ZN7android8hardware5radio6config4V1_125BpHwRadioConfigIndication11linkToDeathERKNS_2spINS0_20hidl_death_recipientEEEy"
  },
  {
   "name" : "_ZN7android8hardware5radio6config4V1_125BpHwRadioConfigIndication12getDebugInfoENSt3__18functionIFvRKNS_4hidl4base4V1_09DebugInfoEEEE"
  },
  {
   "name" : "_ZN7android8hardware5radio6config4V1_125BpHwRadioConfigIndication12getHashChainENSt3__18functionIFvRKNS0_8hidl_vecINS0_10hidl_arrayIhLj32EJEEEEEEEE"
  },
  {
   "name" : "_ZN7android8hardware5radio6config4V1_125BpHwRadioConfigIndication13unlinkToDeathERKNS_2spINS0_20hidl_death_recipientEEE"
  },
  {
   "name" : "_ZN7android8hardware5radio6config4V1_125BpHwRadioConfigIndication14interfaceChainENSt3__18functionIFvRKNS0_8hidl_vecINS0_11hidl_stringEEEEEE"
  },
  {
   "name" : "_ZN7android8hardware5radio6config4V1_125BpHwRadioConfigIndication15onLastStrongRefEPKv"
  },
  {
   "name" : "_ZN7android8hardware5radio6config4V1_125BpHwRadioConfigIndication19interfaceDescriptorENSt3__18functionIFvRKNS0_11hidl_stringEEEE"
  },
  {
   "name" : "_ZN7android8hardware5radio6config4V1_125BpHwRadioConfigIndication21notifySyspropsChangedEv"
  },
  {
   "name" : "_ZN7android8hardware5radio6config4V1_125BpHwRadioConfigIndication21setHALInstrumentationEv"
  },
  {
   "name" : "_ZN7android8hardware5radio6config4V1_125BpHwRadioConfigIndication21simSlotsStatusChangedENS1_4V1_019RadioIndicationTypeERKNS0_8hidl_vecINS2_4V1_013SimSlotStatusEEE"
  },
  {
   "name" : "_ZN7android8hardware5radio6config4V1_125BpHwRadioConfigIndication4pingEv"
  },
  {
   "name" : "_ZN7android8hardware5radio6config4V1_125BpHwRadioConfigIndication5debugERKNS0_11hidl_handleERKNS0_8hidl_vecINS0_11hidl_stringEEE"
  },
  {
   "name" : "_ZN7android8hardware5radio6config4V1_125BpHwRadioConfigIndicationC1ERKNS_2spINS0_7IBinderEEE"
  },
  {
   "name" : "_ZN7android8hardware5radio6config4V1_125BpHwRadioConfigIndicationC2ERKNS_2spINS0_7IBinderEEE"
  },
  {
   "binding" : "weak",
   "name" : "_ZN7android8hardware7details13castInterfaceINS0_5radio6config4V1_112IRadioConfigENS4_4V1_012IRadioConfigENS5_15BpHwRadioConfigEEENS0_6ReturnINS_2spIT_EEEENSB_IT0_EEPKcb"
  },
  {
   "binding" : "weak",
   "name" : "_ZN7android8hardware7details13castInterfaceINS0_5radio6config4V1_112IRadioConfigENS_4hidl4base4V1_05IBaseENS5_15BpHwRadioConfigEEENS0_6ReturnINS_2spIT_EEEENSD_IT0_EEPKcb"
  },
  {
   "binding" : "weak",
   "name" : "_ZN7android8hardware7details13castInterfaceINS0_5radio6config4V1_120IRadioConfigResponseENS4_4V1_020IRadioConfigResponseENS5_23BpHwRadioConfigResponseEEENS0_6ReturnINS_2spIT_EEEENSB_IT0_EEPKcb"
  },
  {
   "binding" : "weak",
   "name" : "_ZN7android8hardware7details13castInterfaceINS0_5radio6config4V1_120IRadioConfigResponseENS_4hidl4base4V1_05IBaseENS5_23BpHwRadioConfigResponseEEENS0_6ReturnINS_2spIT_EEEENSD_IT0_EEPKcb"
  },
  {
   "binding" : "weak",
   "name" : "_ZN7android8hardware7details13castInterfaceINS0_5radio6config4V1_122IRadioConfigIndicationENS4_4V1_022IRadioConfigIndicationENS5_25BpHwRadioConfigIndicationEEENS0_6ReturnINS_2spIT_EEEENSB_IT0_EEPKcb"
  },
  {
   "binding" : "weak",
   "name" : "_ZN7android8hardware7details13castInterfaceINS0_5radio6config4V1_122IRadioConfigIndicationENS_4hidl4base4V1_05IBaseENS5_25BpHwRadioConfigIndicationEEENS0_6ReturnINS_2spIT_EEEENSD_IT0_EEPKcb"
  },
  {
   "binding" : "weak",
   "name" : "_ZN7android8hardware7details15wrapPassthroughINS0_5radio6config4V1_020IRadioConfigResponseEvEENS_2spIT_EES9_"
  },
  {
   "binding" : "weak",
   "name" : "_ZN7android8hardware7details15wrapPassthroughINS0_5radio6config4V1_022IRadioConfigIndicationEvEENS_2spIT_EES9_"
  },
  {
   "binding" : "weak",
   "name" : "_ZN7android8hardware7details18getServiceInternalINS0_5radio6config4V1_115BpHwRadioConfigENS5_12IRadioConfigEvvEENS_2spIT0_EERKNSt3__112basic_stringIcNSB_11char_traitsIcEENSB_9allocatorIcEEEEbb"
  },
  {
   "binding" : "weak",
   "name" : "_ZN7android8hardware7details18getServiceInternalINS0_5radio6config4V1_123BpHwRadioConfigResponseENS5_20IRadioConfigResponseEvvEENS_2spIT0_EERKNSt3__112basic_stringIcNSB_11char_traitsIcEENSB_9allocatorIcEEEEbb"
  },
  {
   "binding" : "weak",
   "name" : "_ZN7android8hardware7details18getServiceInternalINS0_5radio6config4V1_125BpHwRadioConfigIndicationENS5_22IRadioConfigIndicationEvvEENS_2spIT0_EERKNSt3__112basic_stringIcNSB_11char_traitsIcEENSB_9allocatorIcEEEEbb"
  },
  {
   "binding" : "weak",
   "name" : "_ZNKSt3__18functionIFvN7android8hardware7details16HidlInstrumentor20InstrumentationEventEPKcS7_S7_S7_PNS_6vectorIPvNS_9allocatorIS9_EEEEEEclES5_S7_S7_S7_S7_SD_"
  },
  {
   "binding" : "weak",
   "name" : "_ZNSt3__113__tree_removeIPNS_16__tree_node_baseIPvEEEEvT_S5_"
  },
  {
   "binding" : "weak",
   "name" : "_ZNSt3__127__tree_balance_after_insertIPNS_16__tree_node_baseIPvEEEEvT_S5_"
  },
  {
   "binding" : "weak",
   "name" : "_ZNSt3__16__treeINS_12__value_typeINS_12basic_stringIcNS_11char_traitsIcEENS_9allocatorIcEEEENS_8functionIFN7android2spINS9_4hidl4base4V1_05IBaseEEEPvEEEEENS_19__map_value_compareIS7_SJ_NS_4lessIS7_EELb1EEENS5_ISJ_EEE12__find_equalIS7_EERPNS_16__tree_node_baseISG_EERPNS_15__tree_end_nodeIST_EERKT_"
  },
  {
   "binding" : "weak",
   "name" : "_ZNSt3__16__treeINS_12__value_typeINS_12basic_stringIcNS_11char_traitsIcEENS_9allocatorIcEEEENS_8functionIFN7android2spINS9_4hidl4base4V1_05IBaseEEEPvEEEEENS_19__map_value_compareIS7_SJ_NS_4lessIS7_EELb1EEENS5_ISJ_EEE4findIS7_EENS_15__tree_iteratorISJ_PNS_11__tree_nodeISJ_SG_EEiEERKT_"
  },
  {
   "binding" : "weak",
   "name" : "_ZNSt3__16__treeINS_12__value_typeINS_12basic_stringIcNS_11char_traitsIcEENS_9allocatorIcEEEENS_8functionIFN7android2spINS9_4hidl4base4V1_05IBaseEEEPvEEEEENS_19__map_value_compareIS7_SJ_NS_4lessIS7_EELb1EEENS5_ISJ_EEE5eraseENS_21__tree_const_iteratorISJ_PNS_11__tree_nodeISJ_SG_EEiEE"
  },
  {
   "binding" : "weak",
   "name" : "_ZNSt3__16__treeINS_12__value_typeINS_12basic_stringIcNS_11char_traitsIcEENS_9allocatorIcEEEENS_8functionIFN7android2spINS9_8hardware7IBinderEEEPvEEEEENS_19__map_value_compareIS7_SH_NS_4lessIS7_EELb1EEENS5_ISH_EEE12__find_equalIS7_EERPNS_16__tree_node_baseISE_EERPNS_15__tree_end_nodeISR_EERKT_"
  },
  {
   "binding" : "weak",
   "name" : "_ZNSt3__16__treeINS_12__value_typeINS_12basic_stringIcNS_11char_traitsIcEENS_9allocatorIcEEEENS_8functionIFN7android2spINS9_8hardware7IBinderEEEPvEEEEENS_19__map_value_compareIS7_SH_NS_4lessIS7_EELb1EEENS5_ISH_EEE4findIS7_EENS_15__tree_iteratorISH_PNS_11__tree_nodeISH_SE_EEiEERKT_"
  },
  {
   "binding" : "weak",
   "name" : "_ZNSt3__16__treeINS_12__value_typeINS_12basic_stringIcNS_11char_traitsIcEENS_9allocatorIcEEEENS_8functionIFN7android2spINS9_8hardware7IBinderEEEPvEEEEENS_19__map_value_compareIS7_SH_NS_4lessIS7_EELb1EEENS5_ISH_EEE5eraseENS_21__tree_const_iteratorISH_PNS_11__tree_nodeISH_SE_EEiEE"
  },
  {
   "binding" : "weak",
   "name" : "_ZNSt3__16vectorIN7android2spINS1_8hardware27hidl_binder_death_recipientEEENS_9allocatorIS5_EEE21__push_back_slow_pathIS5_EEvOT_"
  },
  {
   "binding" : "weak",
   "name" : "_ZNSt3__16vectorINS_8functionIFvN7android8hardware7details16HidlInstrumentor20InstrumentationEventEPKcS8_S8_S8_PNS0_IPvNS_9allocatorIS9_EEEEEEENSA_ISF_EEEC2ERKSH_"
  },
  {
   "binding" : "weak",
   "name" : "_ZNSt3__16vectorIPvNS_9allocatorIS1_EEE21__push_back_slow_pathIS1_EEvOT_"
  },
  {
   "name" : "_ZThn20_N7android8hardware5radio6config4V1_115BnHwRadioConfigD0Ev"
  },
  {
   "name" : "_ZThn20_N7android8hardware5radio6config4V1_115BnHwRadioConfigD1Ev"
  },
  {
   "name" : "_ZThn20_N7android8hardware5radio6config4V1_123BnHwRadioConfigResponseD0Ev"
  },
  {
   "name" : "_ZThn20_N7android8hardware5radio6config4V1_123BnHwRadioConfigResponseD1Ev"
  },
  {
   "name" : "_ZThn20_N7android8hardware5radio6config4V1_125BnHwRadioConfigIndicationD0Ev"
  },
  {
   "name" : "_ZThn20_N7android8hardware5radio6config4V1_125BnHwRadioConfigIndicationD1Ev"
  },
  {
   "name" : "_ZThn8_N7android8hardware5radio6config4V1_115BpHwRadioConfig15onLastStrongRefEPKv"
  },
  {
   "name" : "_ZThn8_N7android8hardware5radio6config4V1_123BpHwRadioConfigResponse15onLastStrongRefEPKv"
  },
  {
   "name" : "_ZThn8_N7android8hardware5radio6config4V1_125BpHwRadioConfigIndication15onLastStrongRefEPKv"
  },
  {
   "name" : "_ZTv0_n12_N7android8hardware5radio6config4V1_115BnHwRadioConfigD0Ev"
  },
  {
   "name" : "_ZTv0_n12_N7android8hardware5radio6config4V1_115BnHwRadioConfigD1Ev"
  },
  {
   "name" : "_ZTv0_n12_N7android8hardware5radio6config4V1_123BnHwRadioConfigResponseD0Ev"
  },
  {
   "name" : "_ZTv0_n12_N7android8hardware5radio6config4V1_123BnHwRadioConfigResponseD1Ev"
  },
  {
   "name" : "_ZTv0_n12_N7android8hardware5radio6config4V1_125BnHwRadioConfigIndicationD0Ev"
  },
  {
   "name" : "_ZTv0_n12_N7android8hardware5radio6config4V1_125BnHwRadioConfigIndicationD1Ev"
  },
  {
   "name" : "_ZTv0_n20_N7android8hardware5radio6config4V1_115BpHwRadioConfig15onLastStrongRefEPKv"
  },
  {
   "name" : "_ZTv0_n20_N7android8hardware5radio6config4V1_123BpHwRadioConfigResponse15onLastStrongRefEPKv"
  },
  {
   "name" : "_ZTv0_n20_N7android8hardware5radio6config4V1_125BpHwRadioConfigIndication15onLastStrongRefEPKv"
  }
 ],
 "elf_objects" :
 [
  {
   "name" : "_ZN7android8hardware5radio6config4V1_112IRadioConfig10descriptorE"
  },
  {
   "name" : "_ZN7android8hardware5radio6config4V1_120IRadioConfigResponse10descriptorE"
  },
  {
   "name" : "_ZN7android8hardware5radio6config4V1_122IRadioConfigIndication10descriptorE"
  },
  {
   "name" : "_ZTCN7android8hardware5radio6config4V1_112IRadioConfigE0_NS2_4V1_012IRadioConfigE"
  },
  {
   "name" : "_ZTCN7android8hardware5radio6config4V1_112IRadioConfigE0_NS_4hidl4base4V1_05IBaseE"
  },
  {
   "binding" : "weak",
   "name" : "_ZTCN7android8hardware5radio6config4V1_113BsRadioConfigE0_NS3_12IRadioConfigE"
  },
  {
   "name" : "_ZTCN7android8hardware5radio6config4V1_115BnHwRadioConfigE0_NS0_7IBinderE"
  },
  {
   "name" : "_ZTCN7android8hardware5radio6config4V1_115BnHwRadioConfigE0_NS0_9BHwBinderE"
  },
  {
   "name" : "_ZTCN7android8hardware5radio6config4V1_115BnHwRadioConfigE0_NS_4hidl4base4V1_08BnHwBaseE"
  },
  {
   "name" : "_ZTCN7android8hardware5radio6config4V1_115BpHwRadioConfigE0_NS0_11BpInterfaceINS3_12IRadioConfigEEE"
  },
  {
   "name" : "_ZTCN7android8hardware5radio6config4V1_115BpHwRadioConfigE0_NS2_4V1_012IRadioConfigE"
  },
  {
   "name" : "_ZTCN7android8hardware5radio6config4V1_115BpHwRadioConfigE0_NS3_12IRadioConfigE"
  },
  {
   "name" : "_ZTCN7android8hardware5radio6config4V1_115BpHwRadioConfigE0_NS_4hidl4base4V1_05IBaseE"
  },
  {
   "name" : "_ZTCN7android8hardware5radio6config4V1_115BpHwRadioConfigE4_NS0_10IInterfaceE"
  },
  {
   "name" : "_ZTCN7android8hardware5radio6config4V1_115BpHwRadioConfigE8_NS0_11BpHwRefBaseE"
  },
  {
   "name" : "_ZTCN7android8hardware5radio6config4V1_120IRadioConfigResponseE0_NS2_4V1_020IRadioConfigResponseE"
  },
  {
   "name" : "_ZTCN7android8hardware5radio6config4V1_120IRadioConfigResponseE0_NS_4hidl4base4V1_05IBaseE"
  },
  {
   "binding" : "weak",
   "name" : "_ZTCN7android8hardware5radio6config4V1_121BsRadioConfigResponseE0_NS3_20IRadioConfigResponseE"
  },
  {
   "name" : "_ZTCN7android8hardware5radio6config4V1_122IRadioConfigIndicationE0_NS2_4V1_022IRadioConfigIndicationE"
  },
  {
   "name" : "_ZTCN7android8hardware5radio6config4V1_122IRadioConfigIndicationE0_NS_4hidl4base4V1_05IBaseE"
  },
  {
   "name" : "_ZTCN7android8hardware5radio6config4V1_123BnHwRadioConfigResponseE0_NS0_7IBinderE"
  },
  {
   "name" : "_ZTCN7android8hardware5radio6config4V1_123BnHwRadioConfigResponseE0_NS0_9BHwBinderE"
  },
  {
   "name" : "_ZTCN7android8hardware5radio6config4V1_123BnHwRadioConfigResponseE0_NS_4hidl4base4V1_08BnHwBaseE"
  },
  {
   "name" : "_ZTCN7android8hardware5radio6config4V1_123BpHwRadioConfigResponseE0_NS0_11BpInterfaceINS3_20IRadioConfigResponseEEE"
  },
  {
   "name" : "_ZTCN7android8hardware5radio6config4V1_123BpHwRadioConfigResponseE0_NS2_4V1_020IRadioConfigResponseE"
  },
  {
   "name" : "_ZTCN7android8hardware5radio6config4V1_123BpHwRadioConfigResponseE0_NS3_20IRadioConfigResponseE"
  },
  {
   "name" : "_ZTCN7android8hardware5radio6config4V1_123BpHwRadioConfigResponseE0_NS_4hidl4base4V1_05IBaseE"
  },
  {
   "name" : "_ZTCN7android8hardware5radio6config4V1_123BpHwRadioConfigResponseE4_NS0_10IInterfaceE"
  },
  {
   "name" : "_ZTCN7android8hardware5radio6config4V1_123BpHwRadioConfigResponseE8_NS0_11BpHwRefBaseE"
  },
  {
   "binding" : "weak",
   "name" : "_ZTCN7android8hardware5radio6config4V1_123BsRadioConfigIndicationE0_NS3_22IRadioConfigIndicationE"
  },
  {
   "name" : "_ZTCN7android8hardware5radio6config4V1_125BnHwRadioConfigIndicationE0_NS0_7IBinderE"
  },
  {
   "name" : "_ZTCN7android8hardware5radio6config4V1_125BnHwRadioConfigIndicationE0_NS0_9BHwBinderE"
  },
  {
   "name" : "_ZTCN7android8hardware5radio6config4V1_125BnHwRadioConfigIndicationE0_NS_4hidl4base4V1_08BnHwBaseE"
  },
  {
   "name" : "_ZTCN7android8hardware5radio6config4V1_125BpHwRadioConfigIndicationE0_NS0_11BpInterfaceINS3_22IRadioConfigIndicationEEE"
  },
  {
   "name" : "_ZTCN7android8hardware5radio6config4V1_125BpHwRadioConfigIndicationE0_NS2_4V1_022IRadioConfigIndicationE"
  },
  {
   "name" : "_ZTCN7android8hardware5radio6config4V1_125BpHwRadioConfigIndicationE0_NS3_22IRadioConfigIndicationE"
  },
  {
   "name" : "_ZTCN7android8hardware5radio6config4V1_125BpHwRadioConfigIndicationE0_NS_4hidl4base4V1_05IBaseE"
  },
  {
   "name" : "_ZTCN7android8hardware5radio6config4V1_125BpHwRadioConfigIndicationE4_NS0_10IInterfaceE"
  },
  {
   "name" : "_ZTCN7android8hardware5radio6config4V1_125BpHwRadioConfigIndicationE8_NS0_11BpHwRefBaseE"
  },
  {
   "name" : "_ZTTN7android8hardware5radio6config4V1_112IRadioConfigE"
  },
  {
   "name" : "_ZTTN7android8hardware5radio6config4V1_115BnHwRadioConfigE"
  },
  {
   "name" : "_ZTTN7android8hardware5radio6config4V1_115BpHwRadioConfigE"
  },
  {
   "name" : "_ZTTN7android8hardware5radio6config4V1_120IRadioConfigResponseE"
  },
  {
   "name" : "_ZTTN7android8hardware5radio6config4V1_122IRadioConfigIndicationE"
  },
  {
   "name" : "_ZTTN7android8hardware5radio6config4V1_123BnHwRadioConfigResponseE"
  },
  {
   "name" : "_ZTTN7android8hardware5radio6config4V1_123BpHwRadioConfigResponseE"
  },
  {
   "name" : "_ZTTN7android8hardware5radio6config4V1_125BnHwRadioConfigIndicationE"
  },
  {
   "name" : "_ZTTN7android8hardware5radio6config4V1_125BpHwRadioConfigIndicationE"
  },
  {
   "name" : "_ZTVN7android8hardware5radio6config4V1_112IRadioConfigE"
  },
  {
   "binding" : "weak",
   "name" : "_ZTVN7android8hardware5radio6config4V1_113BsRadioConfigE"
  },
  {
   "name" : "_ZTVN7android8hardware5radio6config4V1_115BnHwRadioConfigE"
  },
  {
   "name" : "_ZTVN7android8hardware5radio6config4V1_115BpHwRadioConfigE"
  },
  {
   "name" : "_ZTVN7android8hardware5radio6config4V1_120IRadioConfigResponseE"
  },
  {
   "binding" : "weak",
   "name" : "_ZTVN7android8hardware5radio6config4V1_121BsRadioConfigResponseE"
  },
  {
   "name" : "_ZTVN7android8hardware5radio6config4V1_122IRadioConfigIndicationE"
  },
  {
   "name" : "_ZTVN7android8hardware5radio6config4V1_123BnHwRadioConfigResponseE"
  },
  {
   "name" : "_ZTVN7android8hardware5radio6config4V1_123BpHwRadioConfigResponseE"
  },
  {
   "binding" : "weak",
   "name" : "_ZTVN7android8hardware5radio6config4V1_123BsRadioConfigIndicationE"
  },
  {
   "name" : "_ZTVN7android8hardware5radio6config4V1_125BnHwRadioConfigIndicationE"
  },
  {
   "name" : "_ZTVN7android8hardware5radio6config4V1_125BpHwRadioConfigIndicationE"
  }
 ],
 "enum_types" :
 [
  {
   "alignment" : 4,
   "enum_fields" :
   [
    {
     "enum_field_value" : 1,
     "name" : "HAL_HDR_DOLBY_VISION"
    },
    {
     "enum_field_value" : 2,
     "name" : "HAL_HDR_HDR10"
    },
    {
     "enum_field_value" : 3,
     "name" : "HAL_HDR_HLG"
    }
   ],
   "linker_set_key" : "_ZTI13android_hdr_t",
   "name" : "android_hdr_t",
   "referenced_type" : "_ZTI13android_hdr_t",
   "self_type" : "_ZTI13android_hdr_t",
   "size" : 4,
   "source_file" : "/system/core/libsystem/include/system/graphics-base-v1.0.h",
   "underlying_type" : "_ZTIj"
  },
  {
   "alignment" : 4,
   "enum_fields" :
   [
    {
     "enum_field_value" : 4,
     "name" : "HAL_HDR_HDR10_PLUS"
    }
   ],
   "linker_set_key" : "_ZTI18android_hdr_v1_2_t",
   "name" : "android_hdr_v1_2_t",
   "referenced_type" : "_ZTI18android_hdr_v1_2_t",
   "self_type" : "_ZTI18android_hdr_v1_2_t",
   "size" : 4,
   "source_file" : "/system/core/libsystem/include/system/graphics-base-v1.2.h",
   "underlying_type" : "_ZTIj"
  },
  {
   "alignment" : 4,
   "enum_fields" :
   [
    {
     "enum_field_value" : 0,
     "name" : "ANDROID_LOG_UNKNOWN"
    },
    {
     "enum_field_value" : 1,
     "name" : "ANDROID_LOG_DEFAULT"
    },
    {
     "enum_field_value" : 2,
     "name" : "ANDROID_LOG_VERBOSE"
    },
    {
     "enum_field_value" : 3,
     "name" : "ANDROID_LOG_DEBUG"
    },
    {
     "enum_field_value" : 4,
     "name" : "ANDROID_LOG_INFO"
    },
    {
     "enum_field_value" : 5,
     "name" : "ANDROID_LOG_WARN"
    },
    {
     "enum_field_value" : 6,
     "name" : "ANDROID_LOG_ERROR"
    },
    {
     "enum_field_value" : 7,
     "name" : "ANDROID_LOG_FATAL"
    },
    {
     "enum_field_value" : 8,
     "name" : "ANDROID_LOG_SILENT"
    }
   ],
   "linker_set_key" : "_ZTI19android_LogPriority",
   "name" : "android_LogPriority",
   "referenced_type" : "_ZTI19android_LogPriority",
   "self_type" : "_ZTI19android_LogPriority",
   "size" : 4,
   "source_file" : "/system/core/liblog/include/android/log.h",
   "underlying_type" : "_ZTIj"
  },
  {
   "alignment" : 4,
   "enum_fields" :
   [
    {
     "enum_field_value" : 0,
     "name" : "HAL_DATASPACE_UNKNOWN"
    },
    {
     "enum_field_value" : 1,
     "name" : "HAL_DATASPACE_ARBITRARY"
    },
    {
     "enum_field_value" : 16,
     "name" : "HAL_DATASPACE_STANDARD_SHIFT"
    },
    {
     "enum_field_value" : 4128768,
     "name" : "HAL_DATASPACE_STANDARD_MASK"
    },
    {
     "enum_field_value" : 0,
     "name" : "HAL_DATASPACE_STANDARD_UNSPECIFIED"
    },
    {
     "enum_field_value" : 65536,
     "name" : "HAL_DATASPACE_STANDARD_BT709"
    },
    {
     "enum_field_value" : 131072,
     "name" : "HAL_DATASPACE_STANDARD_BT601_625"
    },
    {
     "enum_field_value" : 196608,
     "name" : "HAL_DATASPACE_STANDARD_BT601_625_UNADJUSTED"
    },
    {
     "enum_field_value" : 262144,
     "name" : "HAL_DATASPACE_STANDARD_BT601_525"
    },
    {
     "enum_field_value" : 327680,
     "name" : "HAL_DATASPACE_STANDARD_BT601_525_UNADJUSTED"
    },
    {
     "enum_field_value" : 393216,
     "name" : "HAL_DATASPACE_STANDARD_BT2020"
    },
    {
     "enum_field_value" : 458752,
     "name" : "HAL_DATASPACE_STANDARD_BT2020_CONSTANT_LUMINANCE"
    },
    {
     "enum_field_value" : 524288,
     "name" : "HAL_DATASPACE_STANDARD_BT470M"
    },
    {
     "enum_field_value" : 589824,
     "name" : "HAL_DATASPACE_STANDARD_FILM"
    },
    {
     "enum_field_value" : 655360,
     "name" : "HAL_DATASPACE_STANDARD_DCI_P3"
    },
    {
     "enum_field_value" : 720896,
     "name" : "HAL_DATASPACE_STANDARD_ADOBE_RGB"
    },
    {
     "enum_field_value" : 22,
     "name" : "HAL_DATASPACE_TRANSFER_SHIFT"
    },
    {
     "enum_field_value" : 130023424,
     "name" : "HAL_DATASPACE_TRANSFER_MASK"
    },
    {
     "enum_field_value" : 0,
     "name" : "HAL_DATASPACE_TRANSFER_UNSPECIFIED"
    },
    {
     "enum_field_value" : 4194304,
     "name" : "HAL_DATASPACE_TRANSFER_LINEAR"
    },
    {
     "enum_field_value" : 8388608,
     "name" : "HAL_DATASPACE_TRANSFER_SRGB"
    },
    {
     "enum_field_value" : 12582912,
     "name" : "HAL_DATASPACE_TRANSFER_SMPTE_170M"
    },
    {
     "enum_field_value" : 16777216,
     "name" : "HAL_DATASPACE_TRANSFER_GAMMA2_2"
    },
    {
     "enum_field_value" : 20971520,
     "name" : "HAL_DATASPACE_TRANSFER_GAMMA2_6"
    },
    {
     "enum_field_value" : 25165824,
     "name" : "HAL_DATASPACE_TRANSFER_GAMMA2_8"
    },
    {
     "enum_field_value" : 29360128,
     "name" : "HAL_DATASPACE_TRANSFER_ST2084"
    },
    {
     "enum_field_value" : 33554432,
     "name" : "HAL_DATASPACE_TRANSFER_HLG"
    },
    {
     "enum_field_value" : 27,
     "name" : "HAL_DATASPACE_RANGE_SHIFT"
    },
    {
     "enum_field_value" : 939524096,
     "name" : "HAL_DATASPACE_RANGE_MASK"
    },
    {
     "enum_field_value" : 0,
     "name" : "HAL_DATASPACE_RANGE_UNSPECIFIED"
    },
    {
     "enum_field_value" : 134217728,
     "name" : "HAL_DATASPACE_RANGE_FULL"
    },
    {
     "enum_field_value" : 268435456,
     "name" : "HAL_DATASPACE_RANGE_LIMITED"
    },
    {
     "enum_field_value" : 402653184,
     "name" : "HAL_DATASPACE_RANGE_EXTENDED"
    },
    {
     "enum_field_value" : 512,
     "name" : "HAL_DATASPACE_SRGB_LINEAR"
    },
    {
     "enum_field_value" : 138477568,
     "name" : "HAL_DATASPACE_V0_SRGB_LINEAR"
    },
    {
     "enum_field_value" : 406913024,
     "name" : "HAL_DATASPACE_V0_SCRGB_LINEAR"
    },
    {
     "enum_field_value" : 513,
     "name" : "HAL_DATASPACE_SRGB"
    },
    {
     "enum_field_value" : 142671872,
     "name" : "HAL_DATASPACE_V0_SRGB"
    },
    {
     "enum_field_value" : 411107328,
     "name" : "HAL_DATASPACE_V0_SCRGB"
    },
    {
     "enum_field_value" : 257,
     "name" : "HAL_DATASPACE_JFIF"
    },
    {
     "enum_field_value" : 146931712,
     "name" : "HAL_DATASPACE_V0_JFIF"
    },
    {
     "enum_field_value" : 258,
     "name" : "HAL_DATASPACE_BT601_625"
    },
    {
     "enum_field_value" : 281149440,
     "name" : "HAL_DATASPACE_V0_BT601_625"
    },
    {
     "enum_field_value" : 259,
     "name" : "HAL_DATASPACE_BT601_525"
    },
    {
     "enum_field_value" : 281280512,
     "name" : "HAL_DATASPACE_V0_BT601_525"
    },
    {
     "enum_field_value" : 260,
     "name" : "HAL_DATASPACE_BT709"
    },
    {
     "enum_field_value" : 281083904,
     "name" : "HAL_DATASPACE_V0_BT709"
    },
    {
     "enum_field_value" : 139067392,
     "name" : "HAL_DATASPACE_DCI_P3_LINEAR"
    },
    {
     "enum_field_value" : 155844608,
     "name" : "HAL_DATASPACE_DCI_P3"
    },
    {
     "enum_field_value" : 139067392,
     "name" : "HAL_DATASPACE_DISPLAY_P3_LINEAR"
    },
    {
     "enum_field_value" : 143261696,
     "name" : "HAL_DATASPACE_DISPLAY_P3"
    },
    {
     "enum_field_value" : 151715840,
     "name" : "HAL_DATASPACE_ADOBE_RGB"
    },
    {
     "enum_field_value" : 138805248,
     "name" : "HAL_DATASPACE_BT2020_LINEAR"
    },
    {
     "enum_field_value" : 147193856,
     "name" : "HAL_DATASPACE_BT2020"
    },
    {
     "enum_field_value" : 163971072,
     "name" : "HAL_DATASPACE_BT2020_PQ"
    },
    {
     "enum_field_value" : 4096,
     "name" : "HAL_DATASPACE_DEPTH"
    },
    {
     "enum_field_value" : 4097,
     "name" : "HAL_DATASPACE_SENSOR"
    }
   ],
   "linker_set_key" : "_ZTI19android_dataspace_t",
   "name" : "android_dataspace_t",
   "referenced_type" : "_ZTI19android_dataspace_t",
   "self_type" : "_ZTI19android_dataspace_t",
   "size" : 4,
   "source_file" : "/system/core/libsystem/include/system/graphics-base-v1.0.h",
   "underlying_type" : "_ZTIj"
  },
  {
   "alignment" : 4,
   "enum_fields" :
   [
    {
     "enum_field_value" : 0,
     "name" : "FLEX_FORMAT_INVALID"
    },
    {
     "enum_field_value" : 1,
     "name" : "FLEX_FORMAT_Y"
    },
    {
     "enum_field_value" : 7,
     "name" : "FLEX_FORMAT_YCbCr"
    },
    {
     "enum_field_value" : 1073741831,
     "name" : "FLEX_FORMAT_YCbCrA"
    },
    {
     "enum_field_value" : 7168,
     "name" : "FLEX_FORMAT_RGB"
    },
    {
     "enum_field_value" : 1073748992,
     "name" : "FLEX_FORMAT_RGBA"
    }
   ],
   "linker_set_key" : "_ZTI19android_flex_format",
   "name" : "android_flex_format",
   "referenced_type" : "_ZTI19android_flex_format",
   "self_type" : "_ZTI19android_flex_format",
   "size" : 4,
   "source_file" : "/system/core/libsystem/include/system/graphics.h",
   "underlying_type" : "_ZTIj"
  },
  {
   "alignment" : 4,
   "enum_fields" :
   [
    {
     "enum_field_value" : 1,
     "name" : "HAL_TRANSFORM_FLIP_H"
    },
    {
     "enum_field_value" : 2,
     "name" : "HAL_TRANSFORM_FLIP_V"
    },
    {
     "enum_field_value" : 4,
     "name" : "HAL_TRANSFORM_ROT_90"
    },
    {
     "enum_field_value" : 3,
     "name" : "HAL_TRANSFORM_ROT_180"
    },
    {
     "enum_field_value" : 7,
     "name" : "HAL_TRANSFORM_ROT_270"
    }
   ],
   "linker_set_key" : "_ZTI19android_transform_t",
   "name" : "android_transform_t",
   "referenced_type" : "_ZTI19android_transform_t",
   "self_type" : "_ZTI19android_transform_t",
   "size" : 4,
   "source_file" : "/system/core/libsystem/include/system/graphics-base-v1.0.h",
   "underlying_type" : "_ZTIj"
  },
  {
   "alignment" : 4,
   "enum_fields" :
   [
    {
     "enum_field_value" : 0,
     "name" : "HAL_COLOR_MODE_NATIVE"
    },
    {
     "enum_field_value" : 1,
     "name" : "HAL_COLOR_MODE_STANDARD_BT601_625"
    },
    {
     "enum_field_value" : 2,
     "name" : "HAL_COLOR_MODE_STANDARD_BT601_625_UNADJUSTED"
    },
    {
     "enum_field_value" : 3,
     "name" : "HAL_COLOR_MODE_STANDARD_BT601_525"
    },
    {
     "enum_field_value" : 4,
     "name" : "HAL_COLOR_MODE_STANDARD_BT601_525_UNADJUSTED"
    },
    {
     "enum_field_value" : 5,
     "name" : "HAL_COLOR_MODE_STANDARD_BT709"
    },
    {
     "enum_field_value" : 6,
     "name" : "HAL_COLOR_MODE_DCI_P3"
    },
    {
     "enum_field_value" : 7,
     "name" : "HAL_COLOR_MODE_SRGB"
    },
    {
     "enum_field_value" : 8,
     "name" : "HAL_COLOR_MODE_ADOBE_RGB"
    },
    {
     "enum_field_value" : 9,
     "name" : "HAL_COLOR_MODE_DISPLAY_P3"
    }
   ],
   "linker_set_key" : "_ZTI20android_color_mode_t",
   "name" : "android_color_mode_t",
   "referenced_type" : "_ZTI20android_color_mode_t",
   "self_type" : "_ZTI20android_color_mode_t",
   "size" : 4,
   "source_file" : "/system/core/libsystem/include/system/graphics-base-v1.0.h",
   "underlying_type" : "_ZTIj"
  },
  {
   "alignment" : 4,
   "enum_fields" :
   [
    {
     "enum_field_value" : 0,
     "name" : "SYSTEM_TIME_REALTIME"
    },
    {
     "enum_field_value" : 1,
     "name" : "SYSTEM_TIME_MONOTONIC"
    },
    {
     "enum_field_value" : 2,
     "name" : "SYSTEM_TIME_PROCESS"
    },
    {
     "enum_field_value" : 3,
     "name" : "SYSTEM_TIME_THREAD"
    },
    {
     "enum_field_value" : 4,
     "name" : "SYSTEM_TIME_BOOTTIME"
    }
   ],
   "linker_set_key" : "_ZTI21$SYSTEM_TIME_BOOTTIME",
   "name" : "(anonymous enum at system/core/libutils/include/utils/Timers.h:79:1)",
   "referenced_type" : "_ZTI21$SYSTEM_TIME_BOOTTIME",
   "self_type" : "_ZTI21$SYSTEM_TIME_BOOTTIME",
   "size" : 4,
   "source_file" : "/system/core/libutils/include/utils/Timers.h",
   "underlying_type" : "_ZTIj"
  },
  {
   "alignment" : 4,
   "enum_fields" :
   [
    {
     "enum_field_value" : 1,
     "name" : "FLEX_COMPONENT_Y"
    },
    {
     "enum_field_value" : 2,
     "name" : "FLEX_COMPONENT_Cb"
    },
    {
     "enum_field_value" : 4,
     "name" : "FLEX_COMPONENT_Cr"
    },
    {
     "enum_field_value" : 1024,
     "name" : "FLEX_COMPONENT_R"
    },
    {
     "enum_field_value" : 2048,
     "name" : "FLEX_COMPONENT_G"
    },
    {
     "enum_field_value" : 4096,
     "name" : "FLEX_COMPONENT_B"
    },
    {
     "enum_field_value" : 1073741824,
     "name" : "FLEX_COMPONENT_A"
    }
   ],
   "linker_set_key" : "_ZTI22android_flex_component",
   "name" : "android_flex_component",
   "referenced_type" : "_ZTI22android_flex_component",
   "self_type" : "_ZTI22android_flex_component",
   "size" : 4,
   "source_file" : "/system/core/libsystem/include/system/graphics.h",
   "underlying_type" : "_ZTIj"
  },
  {
   "alignment" : 4,
   "enum_fields" :
   [
    {
     "enum_field_value" : 1,
     "name" : "HAL_PIXEL_FORMAT_RGBA_8888"
    },
    {
     "enum_field_value" : 2,
     "name" : "HAL_PIXEL_FORMAT_RGBX_8888"
    },
    {
     "enum_field_value" : 3,
     "name" : "HAL_PIXEL_FORMAT_RGB_888"
    },
    {
     "enum_field_value" : 4,
     "name" : "HAL_PIXEL_FORMAT_RGB_565"
    },
    {
     "enum_field_value" : 5,
     "name" : "HAL_PIXEL_FORMAT_BGRA_8888"
    },
    {
     "enum_field_value" : 16,
     "name" : "HAL_PIXEL_FORMAT_YCBCR_422_SP"
    },
    {
     "enum_field_value" : 17,
     "name" : "HAL_PIXEL_FORMAT_YCRCB_420_SP"
    },
    {
     "enum_field_value" : 20,
     "name" : "HAL_PIXEL_FORMAT_YCBCR_422_I"
    },
    {
     "enum_field_value" : 22,
     "name" : "HAL_PIXEL_FORMAT_RGBA_FP16"
    },
    {
     "enum_field_value" : 32,
     "name" : "HAL_PIXEL_FORMAT_RAW16"
    },
    {
     "enum_field_value" : 33,
     "name" : "HAL_PIXEL_FORMAT_BLOB"
    },
    {
     "enum_field_value" : 34,
     "name" : "HAL_PIXEL_FORMAT_IMPLEMENTATION_DEFINED"
    },
    {
     "enum_field_value" : 35,
     "name" : "HAL_PIXEL_FORMAT_YCBCR_420_888"
    },
    {
     "enum_field_value" : 36,
     "name" : "HAL_PIXEL_FORMAT_RAW_OPAQUE"
    },
    {
     "enum_field_value" : 37,
     "name" : "HAL_PIXEL_FORMAT_RAW10"
    },
    {
     "enum_field_value" : 38,
     "name" : "HAL_PIXEL_FORMAT_RAW12"
    },
    {
     "enum_field_value" : 43,
     "name" : "HAL_PIXEL_FORMAT_RGBA_1010102"
    },
    {
     "enum_field_value" : 538982489,
     "name" : "HAL_PIXEL_FORMAT_Y8"
    },
    {
     "enum_field_value" : 540422489,
     "name" : "HAL_PIXEL_FORMAT_Y16"
    },
    {
     "enum_field_value" : 842094169,
     "name" : "HAL_PIXEL_FORMAT_YV12"
    }
   ],
   "linker_set_key" : "_ZTI22android_pixel_format_t",
   "name" : "android_pixel_format_t",
   "referenced_type" : "_ZTI22android_pixel_format_t",
   "self_type" : "_ZTI22android_pixel_format_t",
   "size" : 4,
   "source_file" : "/system/core/libsystem/include/system/graphics-base-v1.0.h",
   "underlying_type" : "_ZTIj"
  },
  {
   "alignment" : 4,
   "enum_fields" :
   [
    {
     "enum_field_value" : 19,
     "name" : "ANDROID_PRIORITY_LOWEST"
    },
    {
     "enum_field_value" : 10,
     "name" : "ANDROID_PRIORITY_BACKGROUND"
    },
    {
     "enum_field_value" : 0,
     "name" : "ANDROID_PRIORITY_NORMAL"
    },
    {
     "enum_field_value" : -2,
     "name" : "ANDROID_PRIORITY_FOREGROUND"
    },
    {
     "enum_field_value" : -4,
     "name" : "ANDROID_PRIORITY_DISPLAY"
    },
    {
     "enum_field_value" : -8,
     "name" : "ANDROID_PRIORITY_URGENT_DISPLAY"
    },
    {
     "enum_field_value" : -10,
     "name" : "ANDROID_PRIORITY_VIDEO"
    },
    {
     "enum_field_value" : -16,
     "name" : "ANDROID_PRIORITY_AUDIO"
    },
    {
     "enum_field_value" : -19,
     "name" : "ANDROID_PRIORITY_URGENT_AUDIO"
    },
    {
     "enum_field_value" : -20,
     "name" : "ANDROID_PRIORITY_HIGHEST"
    },
    {
     "enum_field_value" : 0,
     "name" : "ANDROID_PRIORITY_DEFAULT"
    },
    {
     "enum_field_value" : -1,
     "name" : "ANDROID_PRIORITY_MORE_FAVORABLE"
    },
    {
     "enum_field_value" : 1,
     "name" : "ANDROID_PRIORITY_LESS_FAVORABLE"
    }
   ],
   "linker_set_key" : "_ZTI23$ANDROID_PRIORITY_AUDIO",
   "name" : "(anonymous enum at system/core/libsystem/include/system/thread_defs.h:26:1)",
   "referenced_type" : "_ZTI23$ANDROID_PRIORITY_AUDIO",
   "self_type" : "_ZTI23$ANDROID_PRIORITY_AUDIO",
   "size" : 4,
   "source_file" : "/system/core/libsystem/include/system/thread_defs.h",
   "underlying_type" : "_ZTIi"
  },
  {
   "alignment" : 4,
   "enum_fields" :
   [
    {
     "enum_field_value" : 281411584,
     "name" : "HAL_DATASPACE_BT2020_ITU"
    },
    {
     "enum_field_value" : 298188800,
     "name" : "HAL_DATASPACE_BT2020_ITU_PQ"
    },
    {
     "enum_field_value" : 302383104,
     "name" : "HAL_DATASPACE_BT2020_ITU_HLG"
    },
    {
     "enum_field_value" : 168165376,
     "name" : "HAL_DATASPACE_BT2020_HLG"
    }
   ],
   "linker_set_key" : "_ZTI24android_dataspace_v1_1_t",
   "name" : "android_dataspace_v1_1_t",
   "referenced_type" : "_ZTI24android_dataspace_v1_1_t",
   "self_type" : "_ZTI24android_dataspace_v1_1_t",
   "size" : 4,
   "source_file" : "/system/core/libsystem/include/system/graphics-base-v1.1.h",
   "underlying_type" : "_ZTIj"
  },
  {
   "alignment" : 4,
   "enum_fields" :
   [
    {
     "enum_field_value" : 142999552,
     "name" : "HAL_DATASPACE_DISPLAY_BT2020"
    },
    {
     "enum_field_value" : 4098,
     "name" : "HAL_DATASPACE_DYNAMIC_DEPTH"
    },
    {
     "enum_field_value" : 4099,
     "name" : "HAL_DATASPACE_JPEG_APP_SEGMENTS"
    },
    {
     "enum_field_value" : 4100,
     "name" : "HAL_DATASPACE_HEIF"
    }
   ],
   "linker_set_key" : "_ZTI24android_dataspace_v1_2_t",
   "name" : "android_dataspace_v1_2_t",
   "referenced_type" : "_ZTI24android_dataspace_v1_2_t",
   "self_type" : "_ZTI24android_dataspace_v1_2_t",
   "size" : 4,
   "source_file" : "/system/core/libsystem/include/system/graphics-base-v1.2.h",
   "underlying_type" : "_ZTIj"
  },
  {
   "alignment" : 4,
   "enum_fields" :
   [
    {
     "enum_field_value" : 10,
     "name" : "HAL_COLOR_MODE_BT2020"
    },
    {
     "enum_field_value" : 11,
     "name" : "HAL_COLOR_MODE_BT2100_PQ"
    },
    {
     "enum_field_value" : 12,
     "name" : "HAL_COLOR_MODE_BT2100_HLG"
    }
   ],
   "linker_set_key" : "_ZTI25android_color_mode_v1_1_t",
   "name" : "android_color_mode_v1_1_t",
   "referenced_type" : "_ZTI25android_color_mode_v1_1_t",
   "self_type" : "_ZTI25android_color_mode_v1_1_t",
   "size" : 4,
   "source_file" : "/system/core/libsystem/include/system/graphics-base-v1.1.h",
   "underlying_type" : "_ZTIj"
  },
  {
   "alignment" : 4,
   "enum_fields" :
   [
    {
     "enum_field_value" : 0,
     "name" : "HAL_COLOR_TRANSFORM_IDENTITY"
    },
    {
     "enum_field_value" : 1,
     "name" : "HAL_COLOR_TRANSFORM_ARBITRARY_MATRIX"
    },
    {
     "enum_field_value" : 2,
     "name" : "HAL_COLOR_TRANSFORM_VALUE_INVERSE"
    },
    {
     "enum_field_value" : 3,
     "name" : "HAL_COLOR_TRANSFORM_GRAYSCALE"
    },
    {
     "enum_field_value" : 4,
     "name" : "HAL_COLOR_TRANSFORM_CORRECT_PROTANOPIA"
    },
    {
     "enum_field_value" : 5,
     "name" : "HAL_COLOR_TRANSFORM_CORRECT_DEUTERANOPIA"
    },
    {
     "enum_field_value" : 6,
     "name" : "HAL_COLOR_TRANSFORM_CORRECT_TRITANOPIA"
    }
   ],
   "linker_set_key" : "_ZTI25android_color_transform_t",
   "name" : "android_color_transform_t",
   "referenced_type" : "_ZTI25android_color_transform_t",
   "self_type" : "_ZTI25android_color_transform_t",
   "size" : 4,
   "source_file" : "/system/core/libsystem/include/system/graphics-base-v1.0.h",
   "underlying_type" : "_ZTIj"
  },
  {
   "alignment" : 4,
   "enum_fields" :
   [
    {
     "enum_field_value" : 39,
     "name" : "HAL_PIXEL_FORMAT_YCBCR_422_888"
    },
    {
     "enum_field_value" : 40,
     "name" : "HAL_PIXEL_FORMAT_YCBCR_444_888"
    },
    {
     "enum_field_value" : 41,
     "name" : "HAL_PIXEL_FORMAT_FLEX_RGB_888"
    },
    {
     "enum_field_value" : 42,
     "name" : "HAL_PIXEL_FORMAT_FLEX_RGBA_8888"
    }
   ],
   "linker_set_key" : "_ZTI25android_pixel_format_sw_t",
   "name" : "android_pixel_format_sw_t",
   "referenced_type" : "_ZTI25android_pixel_format_sw_t",
   "self_type" : "_ZTI25android_pixel_format_sw_t",
   "size" : 4,
   "source_file" : "/system/core/libsystem/include/system/graphics-sw.h",
   "underlying_type" : "_ZTIj"
  },
  {
   "alignment" : 4,
   "enum_fields" :
   [
    {
     "enum_field_value" : 48,
     "name" : "HAL_PIXEL_FORMAT_DEPTH_16"
    },
    {
     "enum_field_value" : 49,
     "name" : "HAL_PIXEL_FORMAT_DEPTH_24"
    },
    {
     "enum_field_value" : 50,
     "name" : "HAL_PIXEL_FORMAT_DEPTH_24_STENCIL_8"
    },
    {
     "enum_field_value" : 51,
     "name" : "HAL_PIXEL_FORMAT_DEPTH_32F"
    },
    {
     "enum_field_value" : 52,
     "name" : "HAL_PIXEL_FORMAT_DEPTH_32F_STENCIL_8"
    },
    {
     "enum_field_value" : 53,
     "name" : "HAL_PIXEL_FORMAT_STENCIL_8"
    },
    {
     "enum_field_value" : 54,
     "name" : "HAL_PIXEL_FORMAT_YCBCR_P010"
    }
   ],
   "linker_set_key" : "_ZTI27android_pixel_format_v1_1_t",
   "name" : "android_pixel_format_v1_1_t",
   "referenced_type" : "_ZTI27android_pixel_format_v1_1_t",
   "self_type" : "_ZTI27android_pixel_format_v1_1_t",
   "size" : 4,
   "source_file" : "/system/core/libsystem/include/system/graphics-base-v1.1.h",
   "underlying_type" : "_ZTIj"
  },
  {
   "alignment" : 4,
   "enum_fields" :
   [
    {
     "enum_field_value" : 55,
     "name" : "HAL_PIXEL_FORMAT_HSV_888"
    }
   ],
   "linker_set_key" : "_ZTI27android_pixel_format_v1_2_t",
   "name" : "android_pixel_format_v1_2_t",
   "referenced_type" : "_ZTI27android_pixel_format_v1_2_t",
   "self_type" : "_ZTI27android_pixel_format_v1_2_t",
   "size" : 4,
   "source_file" : "/system/core/libsystem/include/system/graphics-base-v1.2.h",
   "underlying_type" : "_ZTIj"
  },
  {
   "alignment" : 4,
   "enum_fields" :
   [
    {
     "enum_field_value" : 0,
     "name" : "HAL_RENDER_INTENT_COLORIMETRIC"
    },
    {
     "enum_field_value" : 1,
     "name" : "HAL_RENDER_INTENT_ENHANCE"
    },
    {
     "enum_field_value" : 2,
     "name" : "HAL_RENDER_INTENT_TONE_MAP_COLORIMETRIC"
    },
    {
     "enum_field_value" : 3,
     "name" : "HAL_RENDER_INTENT_TONE_MAP_ENHANCE"
    }
   ],
   "linker_set_key" : "_ZTI28android_render_intent_v1_1_t",
   "name" : "android_render_intent_v1_1_t",
   "referenced_type" : "_ZTI28android_render_intent_v1_1_t",
   "self_type" : "_ZTI28android_render_intent_v1_1_t",
   "size" : 4,
   "source_file" : "/system/core/libsystem/include/system/graphics-base-v1.1.h",
   "underlying_type" : "_ZTIj"
  },
  {
   "alignment" : 4,
   "enum_fields" :
   [
    {
     "enum_field_value" : 0,
     "name" : "LOG_ID_MIN"
    },
    {
     "enum_field_value" : 0,
     "name" : "LOG_ID_MAIN"
    },
    {
     "enum_field_value" : 1,
     "name" : "LOG_ID_RADIO"
    },
    {
     "enum_field_value" : 2,
     "name" : "LOG_ID_EVENTS"
    },
    {
     "enum_field_value" : 3,
     "name" : "LOG_ID_SYSTEM"
    },
    {
     "enum_field_value" : 4,
     "name" : "LOG_ID_CRASH"
    },
    {
     "enum_field_value" : 5,
     "name" : "LOG_ID_STATS"
    },
    {
     "enum_field_value" : 6,
     "name" : "LOG_ID_SECURITY"
    },
    {
     "enum_field_value" : 7,
     "name" : "LOG_ID_KERNEL"
    },
    {
     "enum_field_value" : 8,
     "name" : "LOG_ID_MAX"
    },
    {
     "enum_field_value" : 2147483647,
     "name" : "LOG_ID_DEFAULT"
    }
   ],
   "linker_set_key" : "_ZTI6log_id",
   "name" : "log_id",
   "referenced_type" : "_ZTI6log_id",
   "self_type" : "_ZTI6log_id",
   "size" : 4,
   "source_file" : "/system/core/liblog/include/android/log.h",
   "underlying_type" : "_ZTIj"
  },
  {
   "alignment" : 4,
   "enum_fields" :
   [
    {
     "enum_field_value" : 1,
     "name" : "android::VectorImpl::HAS_TRIVIAL_CTOR"
    },
    {
     "enum_field_value" : 2,
     "name" : "android::VectorImpl::HAS_TRIVIAL_DTOR"
    },
    {
     "enum_field_value" : 4,
     "name" : "android::VectorImpl::HAS_TRIVIAL_COPY"
    }
   ],
   "linker_set_key" : "_ZTIN7android10VectorImpl17$HAS_TRIVIAL_COPYE",
   "name" : "android::VectorImpl::(anonymous enum at system/core/libutils/include/utils/VectorImpl.h:43:5)",
   "referenced_type" : "_ZTIN7android10VectorImpl17$HAS_TRIVIAL_COPYE",
   "self_type" : "_ZTIN7android10VectorImpl17$HAS_TRIVIAL_COPYE",
   "size" : 4,
   "source_file" : "/system/core/libutils/include/utils/VectorImpl.h",
   "underlying_type" : "_ZTIj"
  },
  {
   "alignment" : 4,
   "enum_fields" :
   [
    {
     "enum_field_value" : 0,
     "name" : "android::OK"
    },
    {
     "enum_field_value" : 0,
     "name" : "android::NO_ERROR"
    },
    {
     "enum_field_value" : -2147483648,
     "name" : "android::UNKNOWN_ERROR"
    },
    {
     "enum_field_value" : -12,
     "name" : "android::NO_MEMORY"
    },
    {
     "enum_field_value" : -38,
     "name" : "android::INVALID_OPERATION"
    },
    {
     "enum_field_value" : -22,
     "name" : "android::BAD_VALUE"
    },
    {
     "enum_field_value" : -2147483647,
     "name" : "android::BAD_TYPE"
    },
    {
     "enum_field_value" : -2,
     "name" : "android::NAME_NOT_FOUND"
    },
    {
     "enum_field_value" : -1,
     "name" : "android::PERMISSION_DENIED"
    },
    {
     "enum_field_value" : -19,
     "name" : "android::NO_INIT"
    },
    {
     "enum_field_value" : -17,
     "name" : "android::ALREADY_EXISTS"
    },
    {
     "enum_field_value" : -32,
     "name" : "android::DEAD_OBJECT"
    },
    {
     "enum_field_value" : -2147483646,
     "name" : "android::FAILED_TRANSACTION"
    },
    {
     "enum_field_value" : -75,
     "name" : "android::BAD_INDEX"
    },
    {
     "enum_field_value" : -61,
     "name" : "android::NOT_ENOUGH_DATA"
    },
    {
     "enum_field_value" : -11,
     "name" : "android::WOULD_BLOCK"
    },
    {
     "enum_field_value" : -110,
     "name" : "android::TIMED_OUT"
    },
    {
     "enum_field_value" : -74,
     "name" : "android::UNKNOWN_TRANSACTION"
    },
    {
     "enum_field_value" : -2147483641,
     "name" : "android::FDS_NOT_ALLOWED"
    },
    {
     "enum_field_value" : -2147483640,
     "name" : "android::UNEXPECTED_NULL"
    }
   ],
   "linker_set_key" : "_ZTIN7android15$ALREADY_EXISTSE",
   "name" : "android::(anonymous enum at system/core/libutils/include/utils/Errors.h:43:1)",
   "referenced_type" : "_ZTIN7android15$ALREADY_EXISTSE",
   "self_type" : "_ZTIN7android15$ALREADY_EXISTSE",
   "size" : 4,
   "source_file" : "/system/core/libutils/include/utils/Errors.h",
   "underlying_type" : "_ZTIi"
  },
  {
   "alignment" : 4,
   "enum_fields" :
   [
    {
     "enum_field_value" : 19,
     "name" : "android::PRIORITY_LOWEST"
    },
    {
     "enum_field_value" : 10,
     "name" : "android::PRIORITY_BACKGROUND"
    },
    {
     "enum_field_value" : 0,
     "name" : "android::PRIORITY_NORMAL"
    },
    {
     "enum_field_value" : -2,
     "name" : "android::PRIORITY_FOREGROUND"
    },
    {
     "enum_field_value" : -4,
     "name" : "android::PRIORITY_DISPLAY"
    },
    {
     "enum_field_value" : -8,
     "name" : "android::PRIORITY_URGENT_DISPLAY"
    },
    {
     "enum_field_value" : -16,
     "name" : "android::PRIORITY_AUDIO"
    },
    {
     "enum_field_value" : -19,
     "name" : "android::PRIORITY_URGENT_AUDIO"
    },
    {
     "enum_field_value" : -20,
     "name" : "android::PRIORITY_HIGHEST"
    },
    {
     "enum_field_value" : 0,
     "name" : "android::PRIORITY_DEFAULT"
    },
    {
     "enum_field_value" : -1,
     "name" : "android::PRIORITY_MORE_FAVORABLE"
    },
    {
     "enum_field_value" : 1,
     "name" : "android::PRIORITY_LESS_FAVORABLE"
    }
   ],
   "linker_set_key" : "_ZTIN7android15$PRIORITY_AUDIOE",
   "name" : "android::(anonymous enum at system/core/libutils/include/utils/ThreadDefs.h:53:1)",
   "referenced_type" : "_ZTIN7android15$PRIORITY_AUDIOE",
   "self_type" : "_ZTIN7android15$PRIORITY_AUDIOE",
   "size" : 4,
   "source_file" : "/system/core/libutils/include/utils/ThreadDefs.h",
   "underlying_type" : "_ZTIi"
  },
  {
   "alignment" : 4,
   "enum_fields" :
   [
    {
     "enum_field_value" : 1,
     "name" : "android::trait_trivial_copy<bool>::value"
    }
   ],
   "linker_set_key" : "_ZTIN7android18trait_trivial_copyIbE6$valueE",
   "name" : "android::trait_trivial_copy<bool>::(anonymous enum at system/core/libutils/include/utils/TypeHelpers.h:98:1)",
   "referenced_type" : "_ZTIN7android18trait_trivial_copyIbE6$valueE",
   "self_type" : "_ZTIN7android18trait_trivial_copyIbE6$valueE",
   "size" : 4,
   "source_file" : "/system/core/libutils/include/utils/TypeHelpers.h",
   "underlying_type" : "_ZTIj"
  },
  {
   "alignment" : 4,
   "enum_fields" :
   [
    {
     "enum_field_value" : 1,
     "name" : "android::trait_trivial_copy<char>::value"
    }
   ],
   "linker_set_key" : "_ZTIN7android18trait_trivial_copyIcE6$valueE",
   "name" : "android::trait_trivial_copy<char>::(anonymous enum at system/core/libutils/include/utils/TypeHelpers.h:99:1)",
   "referenced_type" : "_ZTIN7android18trait_trivial_copyIcE6$valueE",
   "self_type" : "_ZTIN7android18trait_trivial_copyIcE6$valueE",
   "size" : 4,
   "source_file" : "/system/core/libutils/include/utils/TypeHelpers.h",
   "underlying_type" : "_ZTIj"
  },
  {
   "alignment" : 4,
   "enum_fields" :
   [
    {
     "enum_field_value" : 1,
     "name" : "android::trait_trivial_copy<double>::value"
    }
   ],
   "linker_set_key" : "_ZTIN7android18trait_trivial_copyIdE6$valueE",
   "name" : "android::trait_trivial_copy<double>::(anonymous enum at system/core/libutils/include/utils/TypeHelpers.h:110:1)",
   "referenced_type" : "_ZTIN7android18trait_trivial_copyIdE6$valueE",
   "self_type" : "_ZTIN7android18trait_trivial_copyIdE6$valueE",
   "size" : 4,
   "source_file" : "/system/core/libutils/include/utils/TypeHelpers.h",
   "underlying_type" : "_ZTIj"
  },
  {
   "alignment" : 4,
   "enum_fields" :
   [
    {
     "enum_field_value" : 1,
     "name" : "android::trait_trivial_copy<float>::value"
    }
   ],
   "linker_set_key" : "_ZTIN7android18trait_trivial_copyIfE6$valueE",
   "name" : "android::trait_trivial_copy<float>::(anonymous enum at system/core/libutils/include/utils/TypeHelpers.h:109:1)",
   "referenced_type" : "_ZTIN7android18trait_trivial_copyIfE6$valueE",
   "self_type" : "_ZTIN7android18trait_trivial_copyIfE6$valueE",
   "size" : 4,
   "source_file" : "/system/core/libutils/include/utils/TypeHelpers.h",
   "underlying_type" : "_ZTIj"
  },
  {
   "alignment" : 4,
   "enum_fields" :
   [
    {
     "enum_field_value" : 1,
     "name" : "android::trait_trivial_copy<unsigned char>::value"
    }
   ],
   "linker_set_key" : "_ZTIN7android18trait_trivial_copyIhE6$valueE",
   "name" : "android::trait_trivial_copy<unsigned char>::(anonymous enum at system/core/libutils/include/utils/TypeHelpers.h:100:1)",
   "referenced_type" : "_ZTIN7android18trait_trivial_copyIhE6$valueE",
   "self_type" : "_ZTIN7android18trait_trivial_copyIhE6$valueE",
   "size" : 4,
   "source_file" : "/system/core/libutils/include/utils/TypeHelpers.h",
   "underlying_type" : "_ZTIj"
  },
  {
   "alignment" : 4,
   "enum_fields" :
   [
    {
     "enum_field_value" : 1,
     "name" : "android::trait_trivial_copy<int>::value"
    }
   ],
   "linker_set_key" : "_ZTIN7android18trait_trivial_copyIiE6$valueE",
   "name" : "android::trait_trivial_copy<int>::(anonymous enum at system/core/libutils/include/utils/TypeHelpers.h:103:1)",
   "referenced_type" : "_ZTIN7android18trait_trivial_copyIiE6$valueE",
   "self_type" : "_ZTIN7android18trait_trivial_copyIiE6$valueE",
   "size" : 4,
   "source_file" : "/system/core/libutils/include/utils/TypeHelpers.h",
   "underlying_type" : "_ZTIj"
  },
  {
   "alignment" : 4,
   "enum_fields" :
   [
    {
     "enum_field_value" : 1,
     "name" : "android::trait_trivial_copy<unsigned int>::value"
    }
   ],
   "linker_set_key" : "_ZTIN7android18trait_trivial_copyIjE6$valueE",
   "name" : "android::trait_trivial_copy<unsigned int>::(anonymous enum at system/core/libutils/include/utils/TypeHelpers.h:104:1)",
   "referenced_type" : "_ZTIN7android18trait_trivial_copyIjE6$valueE",
   "self_type" : "_ZTIN7android18trait_trivial_copyIjE6$valueE",
   "size" : 4,
   "source_file" : "/system/core/libutils/include/utils/TypeHelpers.h",
   "underlying_type" : "_ZTIj"
  },
  {
   "alignment" : 4,
   "enum_fields" :
   [
    {
     "enum_field_value" : 1,
     "name" : "android::trait_trivial_copy<long>::value"
    }
   ],
   "linker_set_key" : "_ZTIN7android18trait_trivial_copyIlE6$valueE",
   "name" : "android::trait_trivial_copy<long>::(anonymous enum at system/core/libutils/include/utils/TypeHelpers.h:105:1)",
   "referenced_type" : "_ZTIN7android18trait_trivial_copyIlE6$valueE",
   "self_type" : "_ZTIN7android18trait_trivial_copyIlE6$valueE",
   "size" : 4,
   "source_file" : "/system/core/libutils/include/utils/TypeHelpers.h",
   "underlying_type" : "_ZTIj"
  },
  {
   "alignment" : 4,
   "enum_fields" :
   [
    {
     "enum_field_value" : 1,
     "name" : "android::trait_trivial_copy<unsigned long>::value"
    }
   ],
   "linker_set_key" : "_ZTIN7android18trait_trivial_copyImE6$valueE",
   "name" : "android::trait_trivial_copy<unsigned long>::(anonymous enum at system/core/libutils/include/utils/TypeHelpers.h:106:1)",
   "referenced_type" : "_ZTIN7android18trait_trivial_copyImE6$valueE",
   "self_type" : "_ZTIN7android18trait_trivial_copyImE6$valueE",
   "size" : 4,
   "source_file" : "/system/core/libutils/include/utils/TypeHelpers.h",
   "underlying_type" : "_ZTIj"
  },
  {
   "alignment" : 4,
   "enum_fields" :
   [
    {
     "enum_field_value" : 1,
     "name" : "android::trait_trivial_copy<short>::value"
    }
   ],
   "linker_set_key" : "_ZTIN7android18trait_trivial_copyIsE6$valueE",
   "name" : "android::trait_trivial_copy<short>::(anonymous enum at system/core/libutils/include/utils/TypeHelpers.h:101:1)",
   "referenced_type" : "_ZTIN7android18trait_trivial_copyIsE6$valueE",
   "self_type" : "_ZTIN7android18trait_trivial_copyIsE6$valueE",
   "size" : 4,
   "source_file" : "/system/core/libutils/include/utils/TypeHelpers.h",
   "underlying_type" : "_ZTIj"
  },
  {
   "alignment" : 4,
   "enum_fields" :
   [
    {
     "enum_field_value" : 1,
     "name" : "android::trait_trivial_copy<unsigned short>::value"
    }
   ],
   "linker_set_key" : "_ZTIN7android18trait_trivial_copyItE6$valueE",
   "name" : "android::trait_trivial_copy<unsigned short>::(anonymous enum at system/core/libutils/include/utils/TypeHelpers.h:102:1)",
   "referenced_type" : "_ZTIN7android18trait_trivial_copyItE6$valueE",
   "self_type" : "_ZTIN7android18trait_trivial_copyItE6$valueE",
   "size" : 4,
   "source_file" : "/system/core/libutils/include/utils/TypeHelpers.h",
   "underlying_type" : "_ZTIj"
  },
  {
   "alignment" : 4,
   "enum_fields" :
   [
    {
     "enum_field_value" : 1,
     "name" : "android::trait_trivial_copy<void>::value"
    }
   ],
   "linker_set_key" : "_ZTIN7android18trait_trivial_copyIvE6$valueE",
   "name" : "android::trait_trivial_copy<void>::(anonymous enum at system/core/libutils/include/utils/TypeHelpers.h:97:1)",
   "referenced_type" : "_ZTIN7android18trait_trivial_copyIvE6$valueE",
   "self_type" : "_ZTIN7android18trait_trivial_copyIvE6$valueE",
   "size" : 4,
   "source_file" : "/system/core/libutils/include/utils/TypeHelpers.h",
   "underlying_type" : "_ZTIj"
  },
  {
   "alignment" : 4,
   "enum_fields" :
   [
    {
     "enum_field_value" : 1,
     "name" : "android::trait_trivial_copy<long long>::value"
    }
   ],
   "linker_set_key" : "_ZTIN7android18trait_trivial_copyIxE6$valueE",
   "name" : "android::trait_trivial_copy<long long>::(anonymous enum at system/core/libutils/include/utils/TypeHelpers.h:107:1)",
   "referenced_type" : "_ZTIN7android18trait_trivial_copyIxE6$valueE",
   "self_type" : "_ZTIN7android18trait_trivial_copyIxE6$valueE",
   "size" : 4,
   "source_file" : "/system/core/libutils/include/utils/TypeHelpers.h",
   "underlying_type" : "_ZTIj"
  },
  {
   "alignment" : 4,
   "enum_fields" :
   [
    {
     "enum_field_value" : 1,
     "name" : "android::trait_trivial_copy<unsigned long long>::value"
    }
   ],
   "linker_set_key" : "_ZTIN7android18trait_trivial_copyIyE6$valueE",
   "name" : "android::trait_trivial_copy<unsigned long long>::(anonymous enum at system/core/libutils/include/utils/TypeHelpers.h:108:1)",
   "referenced_type" : "_ZTIN7android18trait_trivial_copyIyE6$valueE",
   "self_type" : "_ZTIN7android18trait_trivial_copyIyE6$valueE",
   "size" : 4,
   "source_file" : "/system/core/libutils/include/utils/TypeHelpers.h",
   "underlying_type" : "_ZTIj"
  },
  {
   "alignment" : 4,
   "enum_fields" :
   [
    {
     "enum_field_value" : 1,
     "name" : "android::trait_trivial_ctor<bool>::value"
    }
   ],
   "linker_set_key" : "_ZTIN7android18trait_trivial_ctorIbE6$valueE",
   "name" : "android::trait_trivial_ctor<bool>::(anonymous enum at system/core/libutils/include/utils/TypeHelpers.h:98:1)",
   "referenced_type" : "_ZTIN7android18trait_trivial_ctorIbE6$valueE",
   "self_type" : "_ZTIN7android18trait_trivial_ctorIbE6$valueE",
   "size" : 4,
   "source_file" : "/system/core/libutils/include/utils/TypeHelpers.h",
   "underlying_type" : "_ZTIj"
  },
  {
   "alignment" : 4,
   "enum_fields" :
   [
    {
     "enum_field_value" : 1,
     "name" : "android::trait_trivial_ctor<char>::value"
    }
   ],
   "linker_set_key" : "_ZTIN7android18trait_trivial_ctorIcE6$valueE",
   "name" : "android::trait_trivial_ctor<char>::(anonymous enum at system/core/libutils/include/utils/TypeHelpers.h:99:1)",
   "referenced_type" : "_ZTIN7android18trait_trivial_ctorIcE6$valueE",
   "self_type" : "_ZTIN7android18trait_trivial_ctorIcE6$valueE",
   "size" : 4,
   "source_file" : "/system/core/libutils/include/utils/TypeHelpers.h",
   "underlying_type" : "_ZTIj"
  },
  {
   "alignment" : 4,
   "enum_fields" :
   [
    {
     "enum_field_value" : 1,
     "name" : "android::trait_trivial_ctor<double>::value"
    }
   ],
   "linker_set_key" : "_ZTIN7android18trait_trivial_ctorIdE6$valueE",
   "name" : "android::trait_trivial_ctor<double>::(anonymous enum at system/core/libutils/include/utils/TypeHelpers.h:110:1)",
   "referenced_type" : "_ZTIN7android18trait_trivial_ctorIdE6$valueE",
   "self_type" : "_ZTIN7android18trait_trivial_ctorIdE6$valueE",
   "size" : 4,
   "source_file" : "/system/core/libutils/include/utils/TypeHelpers.h",
   "underlying_type" : "_ZTIj"
  },
  {
   "alignment" : 4,
   "enum_fields" :
   [
    {
     "enum_field_value" : 1,
     "name" : "android::trait_trivial_ctor<float>::value"
    }
   ],
   "linker_set_key" : "_ZTIN7android18trait_trivial_ctorIfE6$valueE",
   "name" : "android::trait_trivial_ctor<float>::(anonymous enum at system/core/libutils/include/utils/TypeHelpers.h:109:1)",
   "referenced_type" : "_ZTIN7android18trait_trivial_ctorIfE6$valueE",
   "self_type" : "_ZTIN7android18trait_trivial_ctorIfE6$valueE",
   "size" : 4,
   "source_file" : "/system/core/libutils/include/utils/TypeHelpers.h",
   "underlying_type" : "_ZTIj"
  },
  {
   "alignment" : 4,
   "enum_fields" :
   [
    {
     "enum_field_value" : 1,
     "name" : "android::trait_trivial_ctor<unsigned char>::value"
    }
   ],
   "linker_set_key" : "_ZTIN7android18trait_trivial_ctorIhE6$valueE",
   "name" : "android::trait_trivial_ctor<unsigned char>::(anonymous enum at system/core/libutils/include/utils/TypeHelpers.h:100:1)",
   "referenced_type" : "_ZTIN7android18trait_trivial_ctorIhE6$valueE",
   "self_type" : "_ZTIN7android18trait_trivial_ctorIhE6$valueE",
   "size" : 4,
   "source_file" : "/system/core/libutils/include/utils/TypeHelpers.h",
   "underlying_type" : "_ZTIj"
  },
  {
   "alignment" : 4,
   "enum_fields" :
   [
    {
     "enum_field_value" : 1,
     "name" : "android::trait_trivial_ctor<int>::value"
    }
   ],
   "linker_set_key" : "_ZTIN7android18trait_trivial_ctorIiE6$valueE",
   "name" : "android::trait_trivial_ctor<int>::(anonymous enum at system/core/libutils/include/utils/TypeHelpers.h:103:1)",
   "referenced_type" : "_ZTIN7android18trait_trivial_ctorIiE6$valueE",
   "self_type" : "_ZTIN7android18trait_trivial_ctorIiE6$valueE",
   "size" : 4,
   "source_file" : "/system/core/libutils/include/utils/TypeHelpers.h",
   "underlying_type" : "_ZTIj"
  },
  {
   "alignment" : 4,
   "enum_fields" :
   [
    {
     "enum_field_value" : 1,
     "name" : "android::trait_trivial_ctor<unsigned int>::value"
    }
   ],
   "linker_set_key" : "_ZTIN7android18trait_trivial_ctorIjE6$valueE",
   "name" : "android::trait_trivial_ctor<unsigned int>::(anonymous enum at system/core/libutils/include/utils/TypeHelpers.h:104:1)",
   "referenced_type" : "_ZTIN7android18trait_trivial_ctorIjE6$valueE",
   "self_type" : "_ZTIN7android18trait_trivial_ctorIjE6$valueE",
   "size" : 4,
   "source_file" : "/system/core/libutils/include/utils/TypeHelpers.h",
   "underlying_type" : "_ZTIj"
  },
  {
   "alignment" : 4,
   "enum_fields" :
   [
    {
     "enum_field_value" : 1,
     "name" : "android::trait_trivial_ctor<long>::value"
    }
   ],
   "linker_set_key" : "_ZTIN7android18trait_trivial_ctorIlE6$valueE",
   "name" : "android::trait_trivial_ctor<long>::(anonymous enum at system/core/libutils/include/utils/TypeHelpers.h:105:1)",
   "referenced_type" : "_ZTIN7android18trait_trivial_ctorIlE6$valueE",
   "self_type" : "_ZTIN7android18trait_trivial_ctorIlE6$valueE",
   "size" : 4,
   "source_file" : "/system/core/libutils/include/utils/TypeHelpers.h",
   "underlying_type" : "_ZTIj"
  },
  {
   "alignment" : 4,
   "enum_fields" :
   [
    {
     "enum_field_value" : 1,
     "name" : "android::trait_trivial_ctor<unsigned long>::value"
    }
   ],
   "linker_set_key" : "_ZTIN7android18trait_trivial_ctorImE6$valueE",
   "name" : "android::trait_trivial_ctor<unsigned long>::(anonymous enum at system/core/libutils/include/utils/TypeHelpers.h:106:1)",
   "referenced_type" : "_ZTIN7android18trait_trivial_ctorImE6$valueE",
   "self_type" : "_ZTIN7android18trait_trivial_ctorImE6$valueE",
   "size" : 4,
   "source_file" : "/system/core/libutils/include/utils/TypeHelpers.h",
   "underlying_type" : "_ZTIj"
  },
  {
   "alignment" : 4,
   "enum_fields" :
   [
    {
     "enum_field_value" : 1,
     "name" : "android::trait_trivial_ctor<short>::value"
    }
   ],
   "linker_set_key" : "_ZTIN7android18trait_trivial_ctorIsE6$valueE",
   "name" : "android::trait_trivial_ctor<short>::(anonymous enum at system/core/libutils/include/utils/TypeHelpers.h:101:1)",
   "referenced_type" : "_ZTIN7android18trait_trivial_ctorIsE6$valueE",
   "self_type" : "_ZTIN7android18trait_trivial_ctorIsE6$valueE",
   "size" : 4,
   "source_file" : "/system/core/libutils/include/utils/TypeHelpers.h",
   "underlying_type" : "_ZTIj"
  },
  {
   "alignment" : 4,
   "enum_fields" :
   [
    {
     "enum_field_value" : 1,
     "name" : "android::trait_trivial_ctor<unsigned short>::value"
    }
   ],
   "linker_set_key" : "_ZTIN7android18trait_trivial_ctorItE6$valueE",
   "name" : "android::trait_trivial_ctor<unsigned short>::(anonymous enum at system/core/libutils/include/utils/TypeHelpers.h:102:1)",
   "referenced_type" : "_ZTIN7android18trait_trivial_ctorItE6$valueE",
   "self_type" : "_ZTIN7android18trait_trivial_ctorItE6$valueE",
   "size" : 4,
   "source_file" : "/system/core/libutils/include/utils/TypeHelpers.h",
   "underlying_type" : "_ZTIj"
  },
  {
   "alignment" : 4,
   "enum_fields" :
   [
    {
     "enum_field_value" : 1,
     "name" : "android::trait_trivial_ctor<void>::value"
    }
   ],
   "linker_set_key" : "_ZTIN7android18trait_trivial_ctorIvE6$valueE",
   "name" : "android::trait_trivial_ctor<void>::(anonymous enum at system/core/libutils/include/utils/TypeHelpers.h:97:1)",
   "referenced_type" : "_ZTIN7android18trait_trivial_ctorIvE6$valueE",
   "self_type" : "_ZTIN7android18trait_trivial_ctorIvE6$valueE",
   "size" : 4,
   "source_file" : "/system/core/libutils/include/utils/TypeHelpers.h",
   "underlying_type" : "_ZTIj"
  },
  {
   "alignment" : 4,
   "enum_fields" :
   [
    {
     "enum_field_value" : 1,
     "name" : "android::trait_trivial_ctor<long long>::value"
    }
   ],
   "linker_set_key" : "_ZTIN7android18trait_trivial_ctorIxE6$valueE",
   "name" : "android::trait_trivial_ctor<long long>::(anonymous enum at system/core/libutils/include/utils/TypeHelpers.h:107:1)",
   "referenced_type" : "_ZTIN7android18trait_trivial_ctorIxE6$valueE",
   "self_type" : "_ZTIN7android18trait_trivial_ctorIxE6$valueE",
   "size" : 4,
   "source_file" : "/system/core/libutils/include/utils/TypeHelpers.h",
   "underlying_type" : "_ZTIj"
  },
  {
   "alignment" : 4,
   "enum_fields" :
   [
    {
     "enum_field_value" : 1,
     "name" : "android::trait_trivial_ctor<unsigned long long>::value"
    }
   ],
   "linker_set_key" : "_ZTIN7android18trait_trivial_ctorIyE6$valueE",
   "name" : "android::trait_trivial_ctor<unsigned long long>::(anonymous enum at system/core/libutils/include/utils/TypeHelpers.h:108:1)",
   "referenced_type" : "_ZTIN7android18trait_trivial_ctorIyE6$valueE",
   "self_type" : "_ZTIN7android18trait_trivial_ctorIyE6$valueE",
   "size" : 4,
   "source_file" : "/system/core/libutils/include/utils/TypeHelpers.h",
   "underlying_type" : "_ZTIj"
  },
  {
   "alignment" : 4,
   "enum_fields" :
   [
    {
     "enum_field_value" : 1,
     "name" : "android::trait_trivial_dtor<bool>::value"
    }
   ],
   "linker_set_key" : "_ZTIN7android18trait_trivial_dtorIbE6$valueE",
   "name" : "android::trait_trivial_dtor<bool>::(anonymous enum at system/core/libutils/include/utils/TypeHelpers.h:98:1)",
   "referenced_type" : "_ZTIN7android18trait_trivial_dtorIbE6$valueE",
   "self_type" : "_ZTIN7android18trait_trivial_dtorIbE6$valueE",
   "size" : 4,
   "source_file" : "/system/core/libutils/include/utils/TypeHelpers.h",
   "underlying_type" : "_ZTIj"
  },
  {
   "alignment" : 4,
   "enum_fields" :
   [
    {
     "enum_field_value" : 1,
     "name" : "android::trait_trivial_dtor<char>::value"
    }
   ],
   "linker_set_key" : "_ZTIN7android18trait_trivial_dtorIcE6$valueE",
   "name" : "android::trait_trivial_dtor<char>::(anonymous enum at system/core/libutils/include/utils/TypeHelpers.h:99:1)",
   "referenced_type" : "_ZTIN7android18trait_trivial_dtorIcE6$valueE",
   "self_type" : "_ZTIN7android18trait_trivial_dtorIcE6$valueE",
   "size" : 4,
   "source_file" : "/system/core/libutils/include/utils/TypeHelpers.h",
   "underlying_type" : "_ZTIj"
  },
  {
   "alignment" : 4,
   "enum_fields" :
   [
    {
     "enum_field_value" : 1,
     "name" : "android::trait_trivial_dtor<double>::value"
    }
   ],
   "linker_set_key" : "_ZTIN7android18trait_trivial_dtorIdE6$valueE",
   "name" : "android::trait_trivial_dtor<double>::(anonymous enum at system/core/libutils/include/utils/TypeHelpers.h:110:1)",
   "referenced_type" : "_ZTIN7android18trait_trivial_dtorIdE6$valueE",
   "self_type" : "_ZTIN7android18trait_trivial_dtorIdE6$valueE",
   "size" : 4,
   "source_file" : "/system/core/libutils/include/utils/TypeHelpers.h",
   "underlying_type" : "_ZTIj"
  },
  {
   "alignment" : 4,
   "enum_fields" :
   [
    {
     "enum_field_value" : 1,
     "name" : "android::trait_trivial_dtor<float>::value"
    }
   ],
   "linker_set_key" : "_ZTIN7android18trait_trivial_dtorIfE6$valueE",
   "name" : "android::trait_trivial_dtor<float>::(anonymous enum at system/core/libutils/include/utils/TypeHelpers.h:109:1)",
   "referenced_type" : "_ZTIN7android18trait_trivial_dtorIfE6$valueE",
   "self_type" : "_ZTIN7android18trait_trivial_dtorIfE6$valueE",
   "size" : 4,
   "source_file" : "/system/core/libutils/include/utils/TypeHelpers.h",
   "underlying_type" : "_ZTIj"
  },
  {
   "alignment" : 4,
   "enum_fields" :
   [
    {
     "enum_field_value" : 1,
     "name" : "android::trait_trivial_dtor<unsigned char>::value"
    }
   ],
   "linker_set_key" : "_ZTIN7android18trait_trivial_dtorIhE6$valueE",
   "name" : "android::trait_trivial_dtor<unsigned char>::(anonymous enum at system/core/libutils/include/utils/TypeHelpers.h:100:1)",
   "referenced_type" : "_ZTIN7android18trait_trivial_dtorIhE6$valueE",
   "self_type" : "_ZTIN7android18trait_trivial_dtorIhE6$valueE",
   "size" : 4,
   "source_file" : "/system/core/libutils/include/utils/TypeHelpers.h",
   "underlying_type" : "_ZTIj"
  },
  {
   "alignment" : 4,
   "enum_fields" :
   [
    {
     "enum_field_value" : 1,
     "name" : "android::trait_trivial_dtor<int>::value"
    }
   ],
   "linker_set_key" : "_ZTIN7android18trait_trivial_dtorIiE6$valueE",
   "name" : "android::trait_trivial_dtor<int>::(anonymous enum at system/core/libutils/include/utils/TypeHelpers.h:103:1)",
   "referenced_type" : "_ZTIN7android18trait_trivial_dtorIiE6$valueE",
   "self_type" : "_ZTIN7android18trait_trivial_dtorIiE6$valueE",
   "size" : 4,
   "source_file" : "/system/core/libutils/include/utils/TypeHelpers.h",
   "underlying_type" : "_ZTIj"
  },
  {
   "alignment" : 4,
   "enum_fields" :
   [
    {
     "enum_field_value" : 1,
     "name" : "android::trait_trivial_dtor<unsigned int>::value"
    }
   ],
   "linker_set_key" : "_ZTIN7android18trait_trivial_dtorIjE6$valueE",
   "name" : "android::trait_trivial_dtor<unsigned int>::(anonymous enum at system/core/libutils/include/utils/TypeHelpers.h:104:1)",
   "referenced_type" : "_ZTIN7android18trait_trivial_dtorIjE6$valueE",
   "self_type" : "_ZTIN7android18trait_trivial_dtorIjE6$valueE",
   "size" : 4,
   "source_file" : "/system/core/libutils/include/utils/TypeHelpers.h",
   "underlying_type" : "_ZTIj"
  },
  {
   "alignment" : 4,
   "enum_fields" :
   [
    {
     "enum_field_value" : 1,
     "name" : "android::trait_trivial_dtor<long>::value"
    }
   ],
   "linker_set_key" : "_ZTIN7android18trait_trivial_dtorIlE6$valueE",
   "name" : "android::trait_trivial_dtor<long>::(anonymous enum at system/core/libutils/include/utils/TypeHelpers.h:105:1)",
   "referenced_type" : "_ZTIN7android18trait_trivial_dtorIlE6$valueE",
   "self_type" : "_ZTIN7android18trait_trivial_dtorIlE6$valueE",
   "size" : 4,
   "source_file" : "/system/core/libutils/include/utils/TypeHelpers.h",
   "underlying_type" : "_ZTIj"
  },
  {
   "alignment" : 4,
   "enum_fields" :
   [
    {
     "enum_field_value" : 1,
     "name" : "android::trait_trivial_dtor<unsigned long>::value"
    }
   ],
   "linker_set_key" : "_ZTIN7android18trait_trivial_dtorImE6$valueE",
   "name" : "android::trait_trivial_dtor<unsigned long>::(anonymous enum at system/core/libutils/include/utils/TypeHelpers.h:106:1)",
   "referenced_type" : "_ZTIN7android18trait_trivial_dtorImE6$valueE",
   "self_type" : "_ZTIN7android18trait_trivial_dtorImE6$valueE",
   "size" : 4,
   "source_file" : "/system/core/libutils/include/utils/TypeHelpers.h",
   "underlying_type" : "_ZTIj"
  },
  {
   "alignment" : 4,
   "enum_fields" :
   [
    {
     "enum_field_value" : 1,
     "name" : "android::trait_trivial_dtor<short>::value"
    }
   ],
   "linker_set_key" : "_ZTIN7android18trait_trivial_dtorIsE6$valueE",
   "name" : "android::trait_trivial_dtor<short>::(anonymous enum at system/core/libutils/include/utils/TypeHelpers.h:101:1)",
   "referenced_type" : "_ZTIN7android18trait_trivial_dtorIsE6$valueE",
   "self_type" : "_ZTIN7android18trait_trivial_dtorIsE6$valueE",
   "size" : 4,
   "source_file" : "/system/core/libutils/include/utils/TypeHelpers.h",
   "underlying_type" : "_ZTIj"
  },
  {
   "alignment" : 4,
   "enum_fields" :
   [
    {
     "enum_field_value" : 1,
     "name" : "android::trait_trivial_dtor<unsigned short>::value"
    }
   ],
   "linker_set_key" : "_ZTIN7android18trait_trivial_dtorItE6$valueE",
   "name" : "android::trait_trivial_dtor<unsigned short>::(anonymous enum at system/core/libutils/include/utils/TypeHelpers.h:102:1)",
   "referenced_type" : "_ZTIN7android18trait_trivial_dtorItE6$valueE",
   "self_type" : "_ZTIN7android18trait_trivial_dtorItE6$valueE",
   "size" : 4,
   "source_file" : "/system/core/libutils/include/utils/TypeHelpers.h",
   "underlying_type" : "_ZTIj"
  },
  {
   "alignment" : 4,
   "enum_fields" :
   [
    {
     "enum_field_value" : 1,
     "name" : "android::trait_trivial_dtor<void>::value"
    }
   ],
   "linker_set_key" : "_ZTIN7android18trait_trivial_dtorIvE6$valueE",
   "name" : "android::trait_trivial_dtor<void>::(anonymous enum at system/core/libutils/include/utils/TypeHelpers.h:97:1)",
   "referenced_type" : "_ZTIN7android18trait_trivial_dtorIvE6$valueE",
   "self_type" : "_ZTIN7android18trait_trivial_dtorIvE6$valueE",
   "size" : 4,
   "source_file" : "/system/core/libutils/include/utils/TypeHelpers.h",
   "underlying_type" : "_ZTIj"
  },
  {
   "alignment" : 4,
   "enum_fields" :
   [
    {
     "enum_field_value" : 1,
     "name" : "android::trait_trivial_dtor<long long>::value"
    }
   ],
   "linker_set_key" : "_ZTIN7android18trait_trivial_dtorIxE6$valueE",
   "name" : "android::trait_trivial_dtor<long long>::(anonymous enum at system/core/libutils/include/utils/TypeHelpers.h:107:1)",
   "referenced_type" : "_ZTIN7android18trait_trivial_dtorIxE6$valueE",
   "self_type" : "_ZTIN7android18trait_trivial_dtorIxE6$valueE",
   "size" : 4,
   "source_file" : "/system/core/libutils/include/utils/TypeHelpers.h",
   "underlying_type" : "_ZTIj"
  },
  {
   "alignment" : 4,
   "enum_fields" :
   [
    {
     "enum_field_value" : 1,
     "name" : "android::trait_trivial_dtor<unsigned long long>::value"
    }
   ],
   "linker_set_key" : "_ZTIN7android18trait_trivial_dtorIyE6$valueE",
   "name" : "android::trait_trivial_dtor<unsigned long long>::(anonymous enum at system/core/libutils/include/utils/TypeHelpers.h:108:1)",
   "referenced_type" : "_ZTIN7android18trait_trivial_dtorIyE6$valueE",
   "self_type" : "_ZTIN7android18trait_trivial_dtorIyE6$valueE",
   "size" : 4,
   "source_file" : "/system/core/libutils/include/utils/TypeHelpers.h",
   "underlying_type" : "_ZTIj"
  },
  {
   "alignment" : 4,
   "enum_fields" :
   [
    {
     "enum_field_value" : 1,
     "name" : "android::trait_trivial_move<android::String8>::value"
    }
   ],
   "linker_set_key" : "_ZTIN7android18trait_trivial_moveINS_7String8EE6$valueE",
   "name" : "android::trait_trivial_move<String8>::(anonymous enum at system/core/libutils/include/utils/String8.h:242:1)",
   "referenced_type" : "_ZTIN7android18trait_trivial_moveINS_7String8EE6$valueE",
   "self_type" : "_ZTIN7android18trait_trivial_moveINS_7String8EE6$valueE",
   "size" : 4,
   "source_file" : "/system/core/libutils/include/utils/String8.h",
   "underlying_type" : "_ZTIj"
  },
  {
   "alignment" : 4,
   "enum_fields" :
   [
    {
     "enum_field_value" : 1,
     "name" : "android::trait_trivial_move<android::String16>::value"
    }
   ],
   "linker_set_key" : "_ZTIN7android18trait_trivial_moveINS_8String16EE6$valueE",
   "name" : "android::trait_trivial_move<String16>::(anonymous enum at system/core/libutils/include/utils/String16.h:197:1)",
   "referenced_type" : "_ZTIN7android18trait_trivial_moveINS_8String16EE6$valueE",
   "self_type" : "_ZTIN7android18trait_trivial_moveINS_8String16EE6$valueE",
   "size" : 4,
   "source_file" : "/system/core/libutils/include/utils/String16.h",
   "underlying_type" : "_ZTIj"
  },
  {
   "alignment" : 4,
   "enum_fields" :
   [
    {
     "enum_field_value" : 1,
     "name" : "android::trait_trivial_move<bool>::value"
    }
   ],
   "linker_set_key" : "_ZTIN7android18trait_trivial_moveIbE6$valueE",
   "name" : "android::trait_trivial_move<bool>::(anonymous enum at system/core/libutils/include/utils/TypeHelpers.h:98:1)",
   "referenced_type" : "_ZTIN7android18trait_trivial_moveIbE6$valueE",
   "self_type" : "_ZTIN7android18trait_trivial_moveIbE6$valueE",
   "size" : 4,
   "source_file" : "/system/core/libutils/include/utils/TypeHelpers.h",
   "underlying_type" : "_ZTIj"
  },
  {
   "alignment" : 4,
   "enum_fields" :
   [
    {
     "enum_field_value" : 1,
     "name" : "android::trait_trivial_move<char>::value"
    }
   ],
   "linker_set_key" : "_ZTIN7android18trait_trivial_moveIcE6$valueE",
   "name" : "android::trait_trivial_move<char>::(anonymous enum at system/core/libutils/include/utils/TypeHelpers.h:99:1)",
   "referenced_type" : "_ZTIN7android18trait_trivial_moveIcE6$valueE",
   "self_type" : "_ZTIN7android18trait_trivial_moveIcE6$valueE",
   "size" : 4,
   "source_file" : "/system/core/libutils/include/utils/TypeHelpers.h",
   "underlying_type" : "_ZTIj"
  },
  {
   "alignment" : 4,
   "enum_fields" :
   [
    {
     "enum_field_value" : 1,
     "name" : "android::trait_trivial_move<double>::value"
    }
   ],
   "linker_set_key" : "_ZTIN7android18trait_trivial_moveIdE6$valueE",
   "name" : "android::trait_trivial_move<double>::(anonymous enum at system/core/libutils/include/utils/TypeHelpers.h:110:1)",
   "referenced_type" : "_ZTIN7android18trait_trivial_moveIdE6$valueE",
   "self_type" : "_ZTIN7android18trait_trivial_moveIdE6$valueE",
   "size" : 4,
   "source_file" : "/system/core/libutils/include/utils/TypeHelpers.h",
   "underlying_type" : "_ZTIj"
  },
  {
   "alignment" : 4,
   "enum_fields" :
   [
    {
     "enum_field_value" : 1,
     "name" : "android::trait_trivial_move<float>::value"
    }
   ],
   "linker_set_key" : "_ZTIN7android18trait_trivial_moveIfE6$valueE",
   "name" : "android::trait_trivial_move<float>::(anonymous enum at system/core/libutils/include/utils/TypeHelpers.h:109:1)",
   "referenced_type" : "_ZTIN7android18trait_trivial_moveIfE6$valueE",
   "self_type" : "_ZTIN7android18trait_trivial_moveIfE6$valueE",
   "size" : 4,
   "source_file" : "/system/core/libutils/include/utils/TypeHelpers.h",
   "underlying_type" : "_ZTIj"
  },
  {
   "alignment" : 4,
   "enum_fields" :
   [
    {
     "enum_field_value" : 1,
     "name" : "android::trait_trivial_move<unsigned char>::value"
    }
   ],
   "linker_set_key" : "_ZTIN7android18trait_trivial_moveIhE6$valueE",
   "name" : "android::trait_trivial_move<unsigned char>::(anonymous enum at system/core/libutils/include/utils/TypeHelpers.h:100:1)",
   "referenced_type" : "_ZTIN7android18trait_trivial_moveIhE6$valueE",
   "self_type" : "_ZTIN7android18trait_trivial_moveIhE6$valueE",
   "size" : 4,
   "source_file" : "/system/core/libutils/include/utils/TypeHelpers.h",
   "underlying_type" : "_ZTIj"
  },
  {
   "alignment" : 4,
   "enum_fields" :
   [
    {
     "enum_field_value" : 1,
     "name" : "android::trait_trivial_move<int>::value"
    }
   ],
   "linker_set_key" : "_ZTIN7android18trait_trivial_moveIiE6$valueE",
   "name" : "android::trait_trivial_move<int>::(anonymous enum at system/core/libutils/include/utils/TypeHelpers.h:103:1)",
   "referenced_type" : "_ZTIN7android18trait_trivial_moveIiE6$valueE",
   "self_type" : "_ZTIN7android18trait_trivial_moveIiE6$valueE",
   "size" : 4,
   "source_file" : "/system/core/libutils/include/utils/TypeHelpers.h",
   "underlying_type" : "_ZTIj"
  },
  {
   "alignment" : 4,
   "enum_fields" :
   [
    {
     "enum_field_value" : 1,
     "name" : "android::trait_trivial_move<unsigned int>::value"
    }
   ],
   "linker_set_key" : "_ZTIN7android18trait_trivial_moveIjE6$valueE",
   "name" : "android::trait_trivial_move<unsigned int>::(anonymous enum at system/core/libutils/include/utils/TypeHelpers.h:104:1)",
   "referenced_type" : "_ZTIN7android18trait_trivial_moveIjE6$valueE",
   "self_type" : "_ZTIN7android18trait_trivial_moveIjE6$valueE",
   "size" : 4,
   "source_file" : "/system/core/libutils/include/utils/TypeHelpers.h",
   "underlying_type" : "_ZTIj"
  },
  {
   "alignment" : 4,
   "enum_fields" :
   [
    {
     "enum_field_value" : 1,
     "name" : "android::trait_trivial_move<long>::value"
    }
   ],
   "linker_set_key" : "_ZTIN7android18trait_trivial_moveIlE6$valueE",
   "name" : "android::trait_trivial_move<long>::(anonymous enum at system/core/libutils/include/utils/TypeHelpers.h:105:1)",
   "referenced_type" : "_ZTIN7android18trait_trivial_moveIlE6$valueE",
   "self_type" : "_ZTIN7android18trait_trivial_moveIlE6$valueE",
   "size" : 4,
   "source_file" : "/system/core/libutils/include/utils/TypeHelpers.h",
   "underlying_type" : "_ZTIj"
  },
  {
   "alignment" : 4,
   "enum_fields" :
   [
    {
     "enum_field_value" : 1,
     "name" : "android::trait_trivial_move<unsigned long>::value"
    }
   ],
   "linker_set_key" : "_ZTIN7android18trait_trivial_moveImE6$valueE",
   "name" : "android::trait_trivial_move<unsigned long>::(anonymous enum at system/core/libutils/include/utils/TypeHelpers.h:106:1)",
   "referenced_type" : "_ZTIN7android18trait_trivial_moveImE6$valueE",
   "self_type" : "_ZTIN7android18trait_trivial_moveImE6$valueE",
   "size" : 4,
   "source_file" : "/system/core/libutils/include/utils/TypeHelpers.h",
   "underlying_type" : "_ZTIj"
  },
  {
   "alignment" : 4,
   "enum_fields" :
   [
    {
     "enum_field_value" : 1,
     "name" : "android::trait_trivial_move<short>::value"
    }
   ],
   "linker_set_key" : "_ZTIN7android18trait_trivial_moveIsE6$valueE",
   "name" : "android::trait_trivial_move<short>::(anonymous enum at system/core/libutils/include/utils/TypeHelpers.h:101:1)",
   "referenced_type" : "_ZTIN7android18trait_trivial_moveIsE6$valueE",
   "self_type" : "_ZTIN7android18trait_trivial_moveIsE6$valueE",
   "size" : 4,
   "source_file" : "/system/core/libutils/include/utils/TypeHelpers.h",
   "underlying_type" : "_ZTIj"
  },
  {
   "alignment" : 4,
   "enum_fields" :
   [
    {
     "enum_field_value" : 1,
     "name" : "android::trait_trivial_move<unsigned short>::value"
    }
   ],
   "linker_set_key" : "_ZTIN7android18trait_trivial_moveItE6$valueE",
   "name" : "android::trait_trivial_move<unsigned short>::(anonymous enum at system/core/libutils/include/utils/TypeHelpers.h:102:1)",
   "referenced_type" : "_ZTIN7android18trait_trivial_moveItE6$valueE",
   "self_type" : "_ZTIN7android18trait_trivial_moveItE6$valueE",
   "size" : 4,
   "source_file" : "/system/core/libutils/include/utils/TypeHelpers.h",
   "underlying_type" : "_ZTIj"
  },
  {
   "alignment" : 4,
   "enum_fields" :
   [
    {
     "enum_field_value" : 1,
     "name" : "android::trait_trivial_move<void>::value"
    }
   ],
   "linker_set_key" : "_ZTIN7android18trait_trivial_moveIvE6$valueE",
   "name" : "android::trait_trivial_move<void>::(anonymous enum at system/core/libutils/include/utils/TypeHelpers.h:97:1)",
   "referenced_type" : "_ZTIN7android18trait_trivial_moveIvE6$valueE",
   "self_type" : "_ZTIN7android18trait_trivial_moveIvE6$valueE",
   "size" : 4,
   "source_file" : "/system/core/libutils/include/utils/TypeHelpers.h",
   "underlying_type" : "_ZTIj"
  },
  {
   "alignment" : 4,
   "enum_fields" :
   [
    {
     "enum_field_value" : 1,
     "name" : "android::trait_trivial_move<long long>::value"
    }
   ],
   "linker_set_key" : "_ZTIN7android18trait_trivial_moveIxE6$valueE",
   "name" : "android::trait_trivial_move<long long>::(anonymous enum at system/core/libutils/include/utils/TypeHelpers.h:107:1)",
   "referenced_type" : "_ZTIN7android18trait_trivial_moveIxE6$valueE",
   "self_type" : "_ZTIN7android18trait_trivial_moveIxE6$valueE",
   "size" : 4,
   "source_file" : "/system/core/libutils/include/utils/TypeHelpers.h",
   "underlying_type" : "_ZTIj"
  },
  {
   "alignment" : 4,
   "enum_fields" :
   [
    {
     "enum_field_value" : 1,
     "name" : "android::trait_trivial_move<unsigned long long>::value"
    }
   ],
   "linker_set_key" : "_ZTIN7android18trait_trivial_moveIyE6$valueE",
   "name" : "android::trait_trivial_move<unsigned long long>::(anonymous enum at system/core/libutils/include/utils/TypeHelpers.h:108:1)",
   "referenced_type" : "_ZTIN7android18trait_trivial_moveIyE6$valueE",
   "self_type" : "_ZTIN7android18trait_trivial_moveIyE6$valueE",
   "size" : 4,
   "source_file" : "/system/core/libutils/include/utils/TypeHelpers.h",
   "underlying_type" : "_ZTIj"
  },
  {
   "alignment" : 4,
   "enum_fields" :
   [
    {
     "enum_field_value" : 0,
     "name" : "android::hidl::base::V1_0::DebugInfo::Architecture::UNKNOWN"
    },
    {
     "enum_field_value" : 1,
     "name" : "android::hidl::base::V1_0::DebugInfo::Architecture::IS_64BIT"
    },
    {
     "enum_field_value" : 2,
     "name" : "android::hidl::base::V1_0::DebugInfo::Architecture::IS_32BIT"
    }
   ],
   "linker_set_key" : "_ZTIN7android4hidl4base4V1_09DebugInfo12ArchitectureE",
   "name" : "android::hidl::base::V1_0::DebugInfo::Architecture",
   "referenced_type" : "_ZTIN7android4hidl4base4V1_09DebugInfo12ArchitectureE",
   "self_type" : "_ZTIN7android4hidl4base4V1_09DebugInfo12ArchitectureE",
   "size" : 4,
   "source_file" : "/out/soong/.intermediates/system/libhidl/transport/base/1.0/android.hidl.base@1.0_genc++_headers/gen/android/hidl/base/1.0/types.h",
   "underlying_type" : "_ZTIi"
  },
  {
   "alignment" : 4,
   "enum_fields" :
   [
    {
     "enum_field_value" : -1,
     "name" : "android::hidl::manager::V1_0::IServiceManager::PidConstant::NO_PID"
    }
   ],
   "linker_set_key" : "_ZTIN7android4hidl7manager4V1_015IServiceManager11PidConstantE",
   "name" : "android::hidl::manager::V1_0::IServiceManager::PidConstant",
   "referenced_type" : "_ZTIN7android4hidl7manager4V1_015IServiceManager11PidConstantE",
   "self_type" : "_ZTIN7android4hidl7manager4V1_015IServiceManager11PidConstantE",
   "size" : 4,
   "source_file" : "/out/soong/.intermediates/system/libhidl/transport/manager/1.0/android.hidl.manager@1.0_genc++_headers/gen/android/hidl/manager/1.0/IServiceManager.h",
   "underlying_type" : "_ZTIi"
  },
  {
   "alignment" : 1,
   "enum_fields" :
   [
    {
     "enum_field_value" : 0,
     "name" : "android::hidl::manager::V1_0::IServiceManager::Transport::EMPTY"
    },
    {
     "enum_field_value" : 1,
     "name" : "android::hidl::manager::V1_0::IServiceManager::Transport::HWBINDER"
    },
    {
     "enum_field_value" : 2,
     "name" : "android::hidl::manager::V1_0::IServiceManager::Transport::PASSTHROUGH"
    }
   ],
   "linker_set_key" : "_ZTIN7android4hidl7manager4V1_015IServiceManager9TransportE",
   "name" : "android::hidl::manager::V1_0::IServiceManager::Transport",
   "referenced_type" : "_ZTIN7android4hidl7manager4V1_015IServiceManager9TransportE",
   "self_type" : "_ZTIN7android4hidl7manager4V1_015IServiceManager9TransportE",
   "size" : 1,
   "source_file" : "/out/soong/.intermediates/system/libhidl/transport/manager/1.0/android.hidl.manager@1.0_genc++_headers/gen/android/hidl/manager/1.0/IServiceManager.h",
   "underlying_type" : "_ZTIh"
  },
  {
   "alignment" : 4,
   "enum_fields" :
   [
    {
     "enum_field_value" : 0,
     "name" : "android::Mutex::PRIVATE"
    },
    {
     "enum_field_value" : 1,
     "name" : "android::Mutex::SHARED"
    }
   ],
   "linker_set_key" : "_ZTIN7android5Mutex8$PRIVATEE",
   "name" : "android::Mutex::(anonymous enum at system/core/libutils/include/utils/Mutex.h:96:5)",
   "referenced_type" : "_ZTIN7android5Mutex8$PRIVATEE",
   "self_type" : "_ZTIN7android5Mutex8$PRIVATEE",
   "size" : 4,
   "source_file" : "/system/core/libutils/include/utils/Mutex.h",
   "underlying_type" : "_ZTIj"
  },
  {
   "alignment" : 4,
   "enum_fields" :
   [
    {
     "enum_field_value" : 0,
     "name" : "android::RWLock::PRIVATE"
    },
    {
     "enum_field_value" : 1,
     "name" : "android::RWLock::SHARED"
    }
   ],
   "linker_set_key" : "_ZTIN7android6RWLock8$PRIVATEE",
   "name" : "android::RWLock::(anonymous enum at system/core/libutils/include/utils/RWLock.h:44:5)",
   "referenced_type" : "_ZTIN7android6RWLock8$PRIVATEE",
   "self_type" : "_ZTIN7android6RWLock8$PRIVATEE",
   "size" : 4,
   "source_file" : "/system/core/libutils/include/utils/RWLock.h",
   "underlying_type" : "_ZTIj"
  },
  {
   "access" : "protected",
   "alignment" : 4,
   "enum_fields" :
   [
    {
     "enum_field_value" : 1,
     "name" : "android::RefBase::FIRST_INC_STRONG"
    }
   ],
   "linker_set_key" : "_ZTIN7android7RefBase17$FIRST_INC_STRONGE",
   "name" : "android::RefBase::(anonymous enum at system/core/libutils/include/utils/RefBase.h:313:5)",
   "referenced_type" : "_ZTIN7android7RefBase17$FIRST_INC_STRONGE",
   "self_type" : "_ZTIN7android7RefBase17$FIRST_INC_STRONGE",
   "size" : 4,
   "source_file" : "/system/core/libutils/include/utils/RefBase.h",
   "underlying_type" : "_ZTIj"
  },
  {
   "access" : "protected",
   "alignment" : 4,
   "enum_fields" :
   [
    {
     "enum_field_value" : 0,
     "name" : "android::RefBase::OBJECT_LIFETIME_STRONG"
    },
    {
     "enum_field_value" : 1,
     "name" : "android::RefBase::OBJECT_LIFETIME_WEAK"
    },
    {
     "enum_field_value" : 1,
     "name" : "android::RefBase::OBJECT_LIFETIME_MASK"
    }
   ],
   "linker_set_key" : "_ZTIN7android7RefBase21$OBJECT_LIFETIME_MASKE",
   "name" : "android::RefBase::(anonymous enum at system/core/libutils/include/utils/RefBase.h:304:5)",
   "referenced_type" : "_ZTIN7android7RefBase21$OBJECT_LIFETIME_MASKE",
   "self_type" : "_ZTIN7android7RefBase21$OBJECT_LIFETIME_MASKE",
   "size" : 4,
   "source_file" : "/system/core/libutils/include/utils/RefBase.h",
   "underlying_type" : "_ZTIj"
  },
  {
   "alignment" : 4,
   "enum_fields" :
   [
    {
     "enum_field_value" : 0,
     "name" : "android::String8::kEmptyString"
    }
   ],
   "linker_set_key" : "_ZTIN7android7String813StaticLinkageE",
   "name" : "android::String8::StaticLinkage",
   "referenced_type" : "_ZTIN7android7String813StaticLinkageE",
   "self_type" : "_ZTIN7android7String813StaticLinkageE",
   "size" : 4,
   "source_file" : "/system/core/libutils/include/utils/String8.h",
   "underlying_type" : "_ZTIj"
  },
  {
   "alignment" : 4,
   "enum_fields" :
   [
    {
     "enum_field_value" : 0,
     "name" : "android::String16::kEmptyString"
    }
   ],
   "linker_set_key" : "_ZTIN7android8String1613StaticLinkageE",
   "name" : "android::String16::StaticLinkage",
   "referenced_type" : "_ZTIN7android8String1613StaticLinkageE",
   "self_type" : "_ZTIN7android8String1613StaticLinkageE",
   "size" : 4,
   "source_file" : "/system/core/libutils/include/utils/String16.h",
   "underlying_type" : "_ZTIj"
  },
  {
   "alignment" : 4,
   "enum_fields" :
   [
    {
     "enum_field_value" : 0,
     "name" : "android::hardware::MQDescriptor<char, android::hardware::kSynchronizedReadWrite>::READPTRPOS"
    },
    {
     "enum_field_value" : 1,
     "name" : "android::hardware::MQDescriptor<char, android::hardware::kSynchronizedReadWrite>::WRITEPTRPOS"
    },
    {
     "enum_field_value" : 2,
     "name" : "android::hardware::MQDescriptor<char, android::hardware::kSynchronizedReadWrite>::DATAPTRPOS"
    },
    {
     "enum_field_value" : 3,
     "name" : "android::hardware::MQDescriptor<char, android::hardware::kSynchronizedReadWrite>::EVFLAGWORDPOS"
    }
   ],
   "linker_set_key" : "_ZTIN7android8hardware12MQDescriptorIcLNS0_8MQFlavorE1EE11GrantorTypeE",
   "name" : "android::hardware::MQDescriptor<char, android::hardware::kSynchronizedReadWrite>::GrantorType",
   "referenced_type" : "_ZTIN7android8hardware12MQDescriptorIcLNS0_8MQFlavorE1EE11GrantorTypeE",
   "self_type" : "_ZTIN7android8hardware12MQDescriptorIcLNS0_8MQFlavorE1EE11GrantorTypeE",
   "size" : 4,
   "source_file" : "/system/libhidl/base/include/hidl/MQDescriptor.h",
   "underlying_type" : "_ZTIi"
  },
  {
   "alignment" : 4,
   "enum_fields" :
   [
    {
     "enum_field_value" : 0,
     "name" : "android::hardware::ProcessState::CallRestriction::NONE"
    },
    {
     "enum_field_value" : 1,
     "name" : "android::hardware::ProcessState::CallRestriction::ERROR_IF_NOT_ONEWAY"
    },
    {
     "enum_field_value" : 2,
     "name" : "android::hardware::ProcessState::CallRestriction::FATAL_IF_NOT_ONEWAY"
    }
   ],
   "linker_set_key" : "_ZTIN7android8hardware12ProcessState15CallRestrictionE",
   "name" : "android::hardware::ProcessState::CallRestriction",
   "referenced_type" : "_ZTIN7android8hardware12ProcessState15CallRestrictionE",
   "self_type" : "_ZTIN7android8hardware12ProcessState15CallRestrictionE",
   "size" : 4,
   "source_file" : "/system/libhwbinder/include/hwbinder/ProcessState.h",
   "underlying_type" : "_ZTIi"
  },
  {
   "alignment" : 4,
   "enum_fields" :
   [
    {
     "enum_field_value" : 0,
     "name" : "android::hardware::HidlReturnRestriction::NONE"
    },
    {
     "enum_field_value" : 1,
     "name" : "android::hardware::HidlReturnRestriction::ERROR_IF_UNCHECKED"
    },
    {
     "enum_field_value" : 2,
     "name" : "android::hardware::HidlReturnRestriction::FATAL_IF_UNCHECKED"
    }
   ],
   "linker_set_key" : "_ZTIN7android8hardware21HidlReturnRestrictionE",
   "name" : "android::hardware::HidlReturnRestriction",
   "referenced_type" : "_ZTIN7android8hardware21HidlReturnRestrictionE",
   "self_type" : "_ZTIN7android8hardware21HidlReturnRestrictionE",
   "size" : 4,
   "source_file" : "/system/libhidl/base/include/hidl/Status.h",
   "underlying_type" : "_ZTIi"
  },
  {
   "alignment" : 4,
   "enum_fields" :
   [
    {
     "enum_field_value" : 0,
     "name" : "android::hardware::radio::V1_0::ClipStatus::CLIP_PROVISIONED"
    },
    {
     "enum_field_value" : 1,
     "name" : "android::hardware::radio::V1_0::ClipStatus::CLIP_UNPROVISIONED"
    },
    {
     "enum_field_value" : 2,
     "name" : "android::hardware::radio::V1_0::ClipStatus::UNKNOWN"
    }
   ],
   "linker_set_key" : "_ZTIN7android8hardware5radio4V1_010ClipStatusE",
   "name" : "android::hardware::radio::V1_0::ClipStatus",
   "referenced_type" : "_ZTIN7android8hardware5radio4V1_010ClipStatusE",
   "self_type" : "_ZTIN7android8hardware5radio4V1_010ClipStatusE",
   "size" : 4,
   "source_file" : "/out/soong/.intermediates/hardware/interfaces/radio/1.0/android.hardware.radio@1.0_genc++_headers/gen/android/hardware/radio/1.0/types.h",
   "underlying_type" : "_ZTIi"
  },
  {
   "alignment" : 4,
   "enum_fields" :
   [
    {
     "enum_field_value" : -1,
     "name" : "android::hardware::radio::V1_0::P2Constant::NO_P2"
    }
   ],
   "linker_set_key" : "_ZTIN7android8hardware5radio4V1_010P2ConstantE",
   "name" : "android::hardware::radio::V1_0::P2Constant",
   "referenced_type" : "_ZTIN7android8hardware5radio4V1_010P2ConstantE",
   "self_type" : "_ZTIN7android8hardware5radio4V1_010P2ConstantE",
   "size" : 4,
   "source_file" : "/out/soong/.intermediates/hardware/interfaces/radio/1.0/android.hardware.radio@1.0_genc++_headers/gen/android/hardware/radio/1.0/types.h",
   "underlying_type" : "_ZTIi"
  },
  {
   "alignment" : 4,
   "enum_fields" :
   [
    {
     "enum_field_value" : 64,
     "name" : "android::hardware::radio::V1_0::RadioConst::CDMA_ALPHA_INFO_BUFFER_LENGTH"
    },
    {
     "enum_field_value" : 81,
     "name" : "android::hardware::radio::V1_0::RadioConst::CDMA_NUMBER_INFO_BUFFER_LENGTH"
    },
    {
     "enum_field_value" : 3,
     "name" : "android::hardware::radio::V1_0::RadioConst::MAX_RILDS"
    },
    {
     "enum_field_value" : 6,
     "name" : "android::hardware::radio::V1_0::RadioConst::MAX_SOCKET_NAME_LENGTH"
    },
    {
     "enum_field_value" : 2,
     "name" : "android::hardware::radio::V1_0::RadioConst::MAX_CLIENT_ID_LENGTH"
    },
    {
     "enum_field_value" : 12,
     "name" : "android::hardware::radio::V1_0::RadioConst::MAX_DEBUG_SOCKET_NAME_LENGTH"
    },
    {
     "enum_field_value" : 11,
     "name" : "android::hardware::radio::V1_0::RadioConst::MAX_QEMU_PIPE_NAME_LENGTH"
    },
    {
     "enum_field_value" : 64,
     "name" : "android::hardware::radio::V1_0::RadioConst::MAX_UUID_LENGTH"
    },
    {
     "enum_field_value" : 8,
     "name" : "android::hardware::radio::V1_0::RadioConst::CARD_MAX_APPS"
    },
    {
     "enum_field_value" : 10,
     "name" : "android::hardware::radio::V1_0::RadioConst::CDMA_MAX_NUMBER_OF_INFO_RECS"
    },
    {
     "enum_field_value" : 4,
     "name" : "android::hardware::radio::V1_0::RadioConst::SS_INFO_MAX"
    },
    {
     "enum_field_value" : 7,
     "name" : "android::hardware::radio::V1_0::RadioConst::NUM_SERVICE_CLASSES"
    },
    {
     "enum_field_value" : 5,
     "name" : "android::hardware::radio::V1_0::RadioConst::NUM_TX_POWER_LEVELS"
    }
   ],
   "linker_set_key" : "_ZTIN7android8hardware5radio4V1_010RadioConstE",
   "name" : "android::hardware::radio::V1_0::RadioConst",
   "referenced_type" : "_ZTIN7android8hardware5radio4V1_010RadioConstE",
   "self_type" : "_ZTIN7android8hardware5radio4V1_010RadioConstE",
   "size" : 4,
   "source_file" : "/out/soong/.intermediates/hardware/interfaces/radio/1.0/android.hardware.radio@1.0_genc++_headers/gen/android/hardware/radio/1.0/types.h",
   "underlying_type" : "_ZTIi"
  },
  {
   "alignment" : 4,
   "enum_fields" :
   [
    {
     "enum_field_value" : 0,
     "name" : "android::hardware::radio::V1_0::RadioError::NONE"
    },
    {
     "enum_field_value" : 1,
     "name" : "android::hardware::radio::V1_0::RadioError::RADIO_NOT_AVAILABLE"
    },
    {
     "enum_field_value" : 2,
     "name" : "android::hardware::radio::V1_0::RadioError::GENERIC_FAILURE"
    },
    {
     "enum_field_value" : 3,
     "name" : "android::hardware::radio::V1_0::RadioError::PASSWORD_INCORRECT"
    },
    {
     "enum_field_value" : 4,
     "name" : "android::hardware::radio::V1_0::RadioError::SIM_PIN2"
    },
    {
     "enum_field_value" : 5,
     "name" : "android::hardware::radio::V1_0::RadioError::SIM_PUK2"
    },
    {
     "enum_field_value" : 6,
     "name" : "android::hardware::radio::V1_0::RadioError::REQUEST_NOT_SUPPORTED"
    },
    {
     "enum_field_value" : 7,
     "name" : "android::hardware::radio::V1_0::RadioError::CANCELLED"
    },
    {
     "enum_field_value" : 8,
     "name" : "android::hardware::radio::V1_0::RadioError::OP_NOT_ALLOWED_DURING_VOICE_CALL"
    },
    {
     "enum_field_value" : 9,
     "name" : "android::hardware::radio::V1_0::RadioError::OP_NOT_ALLOWED_BEFORE_REG_TO_NW"
    },
    {
     "enum_field_value" : 10,
     "name" : "android::hardware::radio::V1_0::RadioError::SMS_SEND_FAIL_RETRY"
    },
    {
     "enum_field_value" : 11,
     "name" : "android::hardware::radio::V1_0::RadioError::SIM_ABSENT"
    },
    {
     "enum_field_value" : 12,
     "name" : "android::hardware::radio::V1_0::RadioError::SUBSCRIPTION_NOT_AVAILABLE"
    },
    {
     "enum_field_value" : 13,
     "name" : "android::hardware::radio::V1_0::RadioError::MODE_NOT_SUPPORTED"
    },
    {
     "enum_field_value" : 14,
     "name" : "android::hardware::radio::V1_0::RadioError::FDN_CHECK_FAILURE"
    },
    {
     "enum_field_value" : 15,
     "name" : "android::hardware::radio::V1_0::RadioError::ILLEGAL_SIM_OR_ME"
    },
    {
     "enum_field_value" : 16,
     "name" : "android::hardware::radio::V1_0::RadioError::MISSING_RESOURCE"
    },
    {
     "enum_field_value" : 17,
     "name" : "android::hardware::radio::V1_0::RadioError::NO_SUCH_ELEMENT"
    },
    {
     "enum_field_value" : 18,
     "name" : "android::hardware::radio::V1_0::RadioError::DIAL_MODIFIED_TO_USSD"
    },
    {
     "enum_field_value" : 19,
     "name" : "android::hardware::radio::V1_0::RadioError::DIAL_MODIFIED_TO_SS"
    },
    {
     "enum_field_value" : 20,
     "name" : "android::hardware::radio::V1_0::RadioError::DIAL_MODIFIED_TO_DIAL"
    },
    {
     "enum_field_value" : 21,
     "name" : "android::hardware::radio::V1_0::RadioError::USSD_MODIFIED_TO_DIAL"
    },
    {
     "enum_field_value" : 22,
     "name" : "android::hardware::radio::V1_0::RadioError::USSD_MODIFIED_TO_SS"
    },
    {
     "enum_field_value" : 23,
     "name" : "android::hardware::radio::V1_0::RadioError::USSD_MODIFIED_TO_USSD"
    },
    {
     "enum_field_value" : 24,
     "name" : "android::hardware::radio::V1_0::RadioError::SS_MODIFIED_TO_DIAL"
    },
    {
     "enum_field_value" : 25,
     "name" : "android::hardware::radio::V1_0::RadioError::SS_MODIFIED_TO_USSD"
    },
    {
     "enum_field_value" : 26,
     "name" : "android::hardware::radio::V1_0::RadioError::SUBSCRIPTION_NOT_SUPPORTED"
    },
    {
     "enum_field_value" : 27,
     "name" : "android::hardware::radio::V1_0::RadioError::SS_MODIFIED_TO_SS"
    },
    {
     "enum_field_value" : 36,
     "name" : "android::hardware::radio::V1_0::RadioError::LCE_NOT_SUPPORTED"
    },
    {
     "enum_field_value" : 37,
     "name" : "android::hardware::radio::V1_0::RadioError::NO_MEMORY"
    },
    {
     "enum_field_value" : 38,
     "name" : "android::hardware::radio::V1_0::RadioError::INTERNAL_ERR"
    },
    {
     "enum_field_value" : 39,
     "name" : "android::hardware::radio::V1_0::RadioError::SYSTEM_ERR"
    },
    {
     "enum_field_value" : 40,
     "name" : "android::hardware::radio::V1_0::RadioError::MODEM_ERR"
    },
    {
     "enum_field_value" : 41,
     "name" : "android::hardware::radio::V1_0::RadioError::INVALID_STATE"
    },
    {
     "enum_field_value" : 42,
     "name" : "android::hardware::radio::V1_0::RadioError::NO_RESOURCES"
    },
    {
     "enum_field_value" : 43,
     "name" : "android::hardware::radio::V1_0::RadioError::SIM_ERR"
    },
    {
     "enum_field_value" : 44,
     "name" : "android::hardware::radio::V1_0::RadioError::INVALID_ARGUMENTS"
    },
    {
     "enum_field_value" : 45,
     "name" : "android::hardware::radio::V1_0::RadioError::INVALID_SIM_STATE"
    },
    {
     "enum_field_value" : 46,
     "name" : "android::hardware::radio::V1_0::RadioError::INVALID_MODEM_STATE"
    },
    {
     "enum_field_value" : 47,
     "name" : "android::hardware::radio::V1_0::RadioError::INVALID_CALL_ID"
    },
    {
     "enum_field_value" : 48,
     "name" : "android::hardware::radio::V1_0::RadioError::NO_SMS_TO_ACK"
    },
    {
     "enum_field_value" : 49,
     "name" : "android::hardware::radio::V1_0::RadioError::NETWORK_ERR"
    },
    {
     "enum_field_value" : 50,
     "name" : "android::hardware::radio::V1_0::RadioError::REQUEST_RATE_LIMITED"
    },
    {
     "enum_field_value" : 51,
     "name" : "android::hardware::radio::V1_0::RadioError::SIM_BUSY"
    },
    {
     "enum_field_value" : 52,
     "name" : "android::hardware::radio::V1_0::RadioError::SIM_FULL"
    },
    {
     "enum_field_value" : 53,
     "name" : "android::hardware::radio::V1_0::RadioError::NETWORK_REJECT"
    },
    {
     "enum_field_value" : 54,
     "name" : "android::hardware::radio::V1_0::RadioError::OPERATION_NOT_ALLOWED"
    },
    {
     "enum_field_value" : 55,
     "name" : "android::hardware::radio::V1_0::RadioError::EMPTY_RECORD"
    },
    {
     "enum_field_value" : 56,
     "name" : "android::hardware::radio::V1_0::RadioError::INVALID_SMS_FORMAT"
    },
    {
     "enum_field_value" : 57,
     "name" : "android::hardware::radio::V1_0::RadioError::ENCODING_ERR"
    },
    {
     "enum_field_value" : 58,
     "name" : "android::hardware::radio::V1_0::RadioError::INVALID_SMSC_ADDRESS"
    },
    {
     "enum_field_value" : 59,
     "name" : "android::hardware::radio::V1_0::RadioError::NO_SUCH_ENTRY"
    },
    {
     "enum_field_value" : 60,
     "name" : "android::hardware::radio::V1_0::RadioError::NETWORK_NOT_READY"
    },
    {
     "enum_field_value" : 61,
     "name" : "android::hardware::radio::V1_0::RadioError::NOT_PROVISIONED"
    },
    {
     "enum_field_value" : 62,
     "name" : "android::hardware::radio::V1_0::RadioError::NO_SUBSCRIPTION"
    },
    {
     "enum_field_value" : 63,
     "name" : "android::hardware::radio::V1_0::RadioError::NO_NETWORK_FOUND"
    },
    {
     "enum_field_value" : 64,
     "name" : "android::hardware::radio::V1_0::RadioError::DEVICE_IN_USE"
    },
    {
     "enum_field_value" : 65,
     "name" : "android::hardware::radio::V1_0::RadioError::ABORTED"
    },
    {
     "enum_field_value" : 66,
     "name" : "android::hardware::radio::V1_0::RadioError::INVALID_RESPONSE"
    },
    {
     "enum_field_value" : 501,
     "name" : "android::hardware::radio::V1_0::RadioError::OEM_ERROR_1"
    },
    {
     "enum_field_value" : 502,
     "name" : "android::hardware::radio::V1_0::RadioError::OEM_ERROR_2"
    },
    {
     "enum_field_value" : 503,
     "name" : "android::hardware::radio::V1_0::RadioError::OEM_ERROR_3"
    },
    {
     "enum_field_value" : 504,
     "name" : "android::hardware::radio::V1_0::RadioError::OEM_ERROR_4"
    },
    {
     "enum_field_value" : 505,
     "name" : "android::hardware::radio::V1_0::RadioError::OEM_ERROR_5"
    },
    {
     "enum_field_value" : 506,
     "name" : "android::hardware::radio::V1_0::RadioError::OEM_ERROR_6"
    },
    {
     "enum_field_value" : 507,
     "name" : "android::hardware::radio::V1_0::RadioError::OEM_ERROR_7"
    },
    {
     "enum_field_value" : 508,
     "name" : "android::hardware::radio::V1_0::RadioError::OEM_ERROR_8"
    },
    {
     "enum_field_value" : 509,
     "name" : "android::hardware::radio::V1_0::RadioError::OEM_ERROR_9"
    },
    {
     "enum_field_value" : 510,
     "name" : "android::hardware::radio::V1_0::RadioError::OEM_ERROR_10"
    },
    {
     "enum_field_value" : 511,
     "name" : "android::hardware::radio::V1_0::RadioError::OEM_ERROR_11"
    },
    {
     "enum_field_value" : 512,
     "name" : "android::hardware::radio::V1_0::RadioError::OEM_ERROR_12"
    },
    {
     "enum_field_value" : 513,
     "name" : "android::hardware::radio::V1_0::RadioError::OEM_ERROR_13"
    },
    {
     "enum_field_value" : 514,
     "name" : "android::hardware::radio::V1_0::RadioError::OEM_ERROR_14"
    },
    {
     "enum_field_value" : 515,
     "name" : "android::hardware::radio::V1_0::RadioError::OEM_ERROR_15"
    },
    {
     "enum_field_value" : 516,
     "name" : "android::hardware::radio::V1_0::RadioError::OEM_ERROR_16"
    },
    {
     "enum_field_value" : 517,
     "name" : "android::hardware::radio::V1_0::RadioError::OEM_ERROR_17"
    },
    {
     "enum_field_value" : 518,
     "name" : "android::hardware::radio::V1_0::RadioError::OEM_ERROR_18"
    },
    {
     "enum_field_value" : 519,
     "name" : "android::hardware::radio::V1_0::RadioError::OEM_ERROR_19"
    },
    {
     "enum_field_value" : 520,
     "name" : "android::hardware::radio::V1_0::RadioError::OEM_ERROR_20"
    },
    {
     "enum_field_value" : 521,
     "name" : "android::hardware::radio::V1_0::RadioError::OEM_ERROR_21"
    },
    {
     "enum_field_value" : 522,
     "name" : "android::hardware::radio::V1_0::RadioError::OEM_ERROR_22"
    },
    {
     "enum_field_value" : 523,
     "name" : "android::hardware::radio::V1_0::RadioError::OEM_ERROR_23"
    },
    {
     "enum_field_value" : 524,
     "name" : "android::hardware::radio::V1_0::RadioError::OEM_ERROR_24"
    },
    {
     "enum_field_value" : 525,
     "name" : "android::hardware::radio::V1_0::RadioError::OEM_ERROR_25"
    }
   ],
   "linker_set_key" : "_ZTIN7android8hardware5radio4V1_010RadioErrorE",
   "name" : "android::hardware::radio::V1_0::RadioError",
   "referenced_type" : "_ZTIN7android8hardware5radio4V1_010RadioErrorE",
   "self_type" : "_ZTIN7android8hardware5radio4V1_010RadioErrorE",
   "size" : 4,
   "source_file" : "/out/soong/.intermediates/hardware/interfaces/radio/1.0/android.hardware.radio@1.0_genc++_headers/gen/android/hardware/radio/1.0/types.h",
   "underlying_type" : "_ZTIi"
  },
  {
   "alignment" : 4,
   "enum_fields" :
   [
    {
     "enum_field_value" : 0,
     "name" : "android::hardware::radio::V1_0::RadioState::OFF"
    },
    {
     "enum_field_value" : 1,
     "name" : "android::hardware::radio::V1_0::RadioState::UNAVAILABLE"
    },
    {
     "enum_field_value" : 10,
     "name" : "android::hardware::radio::V1_0::RadioState::ON"
    }
   ],
   "linker_set_key" : "_ZTIN7android8hardware5radio4V1_010RadioStateE",
   "name" : "android::hardware::radio::V1_0::RadioState",
   "referenced_type" : "_ZTIN7android8hardware5radio4V1_010RadioStateE",
   "self_type" : "_ZTIN7android8hardware5radio4V1_010RadioStateE",
   "size" : 4,
   "source_file" : "/out/soong/.intermediates/hardware/interfaces/radio/1.0/android.hardware.radio@1.0_genc++_headers/gen/android/hardware/radio/1.0/types.h",
   "underlying_type" : "_ZTIi"
  },
  {
   "alignment" : 4,
   "enum_fields" :
   [
    {
     "enum_field_value" : 0,
     "name" : "android::hardware::radio::V1_0::SrvccState::HANDOVER_STARTED"
    },
    {
     "enum_field_value" : 1,
     "name" : "android::hardware::radio::V1_0::SrvccState::HANDOVER_COMPLETED"
    },
    {
     "enum_field_value" : 2,
     "name" : "android::hardware::radio::V1_0::SrvccState::HANDOVER_FAILED"
    },
    {
     "enum_field_value" : 3,
     "name" : "android::hardware::radio::V1_0::SrvccState::HANDOVER_CANCELED"
    }
   ],
   "linker_set_key" : "_ZTIN7android8hardware5radio4V1_010SrvccStateE",
   "name" : "android::hardware::radio::V1_0::SrvccState",
   "referenced_type" : "_ZTIN7android8hardware5radio4V1_010SrvccStateE",
   "self_type" : "_ZTIN7android8hardware5radio4V1_010SrvccStateE",
   "size" : 4,
   "source_file" : "/out/soong/.intermediates/hardware/interfaces/radio/1.0/android.hardware.radio@1.0_genc++_headers/gen/android/hardware/radio/1.0/types.h",
   "underlying_type" : "_ZTIi"
  },
  {
   "alignment" : 4,
   "enum_fields" :
   [
    {
     "enum_field_value" : 0,
     "name" : "android::hardware::radio::V1_0::ApnAuthType::NO_PAP_NO_CHAP"
    },
    {
     "enum_field_value" : 1,
     "name" : "android::hardware::radio::V1_0::ApnAuthType::PAP_NO_CHAP"
    },
    {
     "enum_field_value" : 2,
     "name" : "android::hardware::radio::V1_0::ApnAuthType::NO_PAP_CHAP"
    },
    {
     "enum_field_value" : 3,
     "name" : "android::hardware::radio::V1_0::ApnAuthType::PAP_CHAP"
    }
   ],
   "linker_set_key" : "_ZTIN7android8hardware5radio4V1_011ApnAuthTypeE",
   "name" : "android::hardware::radio::V1_0::ApnAuthType",
   "referenced_type" : "_ZTIN7android8hardware5radio4V1_011ApnAuthTypeE",
   "self_type" : "_ZTIN7android8hardware5radio4V1_011ApnAuthTypeE",
   "size" : 4,
   "source_file" : "/out/soong/.intermediates/hardware/interfaces/radio/1.0/android.hardware.radio@1.0_genc++_headers/gen/android/hardware/radio/1.0/types.h",
   "underlying_type" : "_ZTIi"
  },
  {
   "alignment" : 4,
   "enum_fields" :
   [
    {
     "enum_field_value" : 0,
     "name" : "android::hardware::radio::V1_0::ResetNvType::RELOAD"
    },
    {
     "enum_field_value" : 1,
     "name" : "android::hardware::radio::V1_0::ResetNvType::ERASE"
    },
    {
     "enum_field_value" : 2,
     "name" : "android::hardware::radio::V1_0::ResetNvType::FACTORY_RESET"
    }
   ],
   "linker_set_key" : "_ZTIN7android8hardware5radio4V1_011ResetNvTypeE",
   "name" : "android::hardware::radio::V1_0::ResetNvType",
   "referenced_type" : "_ZTIN7android8hardware5radio4V1_011ResetNvTypeE",
   "self_type" : "_ZTIN7android8hardware5radio4V1_011ResetNvTypeE",
   "size" : 4,
   "source_file" : "/out/soong/.intermediates/hardware/interfaces/radio/1.0/android.hardware.radio@1.0_genc++_headers/gen/android/hardware/radio/1.0/types.h",
   "underlying_type" : "_ZTIi"
  },
  {
   "alignment" : 4,
   "enum_fields" :
   [
    {
     "enum_field_value" : 0,
     "name" : "android::hardware::radio::V1_0::SapApduType::APDU"
    },
    {
     "enum_field_value" : 1,
     "name" : "android::hardware::radio::V1_0::SapApduType::APDU7816"
    }
   ],
   "linker_set_key" : "_ZTIN7android8hardware5radio4V1_011SapApduTypeE",
   "name" : "android::hardware::radio::V1_0::SapApduType",
   "referenced_type" : "_ZTIN7android8hardware5radio4V1_011SapApduTypeE",
   "self_type" : "_ZTIN7android8hardware5radio4V1_011SapApduTypeE",
   "size" : 4,
   "source_file" : "/out/soong/.intermediates/hardware/interfaces/radio/1.0/android.hardware.radio@1.0_genc++_headers/gen/android/hardware/radio/1.0/types.h",
   "underlying_type" : "_ZTIi"
  },
  {
   "alignment" : 4,
   "enum_fields" :
   [
    {
     "enum_field_value" : 0,
     "name" : "android::hardware::radio::V1_0::CellInfoType::NONE"
    },
    {
     "enum_field_value" : 1,
     "name" : "android::hardware::radio::V1_0::CellInfoType::GSM"
    },
    {
     "enum_field_value" : 2,
     "name" : "android::hardware::radio::V1_0::CellInfoType::CDMA"
    },
    {
     "enum_field_value" : 3,
     "name" : "android::hardware::radio::V1_0::CellInfoType::LTE"
    },
    {
     "enum_field_value" : 4,
     "name" : "android::hardware::radio::V1_0::CellInfoType::WCDMA"
    },
    {
     "enum_field_value" : 5,
     "name" : "android::hardware::radio::V1_0::CellInfoType::TD_SCDMA"
    }
   ],
   "linker_set_key" : "_ZTIN7android8hardware5radio4V1_012CellInfoTypeE",
   "name" : "android::hardware::radio::V1_0::CellInfoType",
   "referenced_type" : "_ZTIN7android8hardware5radio4V1_012CellInfoTypeE",
   "self_type" : "_ZTIN7android8hardware5radio4V1_012CellInfoTypeE",
   "size" : 4,
   "source_file" : "/out/soong/.intermediates/hardware/interfaces/radio/1.0/android.hardware.radio@1.0_genc++_headers/gen/android/hardware/radio/1.0/types.h",
   "underlying_type" : "_ZTIi"
  },
  {
   "alignment" : 4,
   "enum_fields" :
   [
    {
     "enum_field_value" : 0,
     "name" : "android::hardware::radio::V1_0::UssdModeType::NOTIFY"
    },
    {
     "enum_field_value" : 1,
     "name" : "android::hardware::radio::V1_0::UssdModeType::REQUEST"
    },
    {
     "enum_field_value" : 2,
     "name" : "android::hardware::radio::V1_0::UssdModeType::NW_RELEASE"
    },
    {
     "enum_field_value" : 3,
     "name" : "android::hardware::radio::V1_0::UssdModeType::LOCAL_CLIENT"
    },
    {
     "enum_field_value" : 4,
     "name" : "android::hardware::radio::V1_0::UssdModeType::NOT_SUPPORTED"
    },
    {
     "enum_field_value" : 5,
     "name" : "android::hardware::radio::V1_0::UssdModeType::NW_TIMEOUT"
    }
   ],
   "linker_set_key" : "_ZTIN7android8hardware5radio4V1_012UssdModeTypeE",
   "name" : "android::hardware::radio::V1_0::UssdModeType",
   "referenced_type" : "_ZTIN7android8hardware5radio4V1_012UssdModeTypeE",
   "self_type" : "_ZTIN7android8hardware5radio4V1_012UssdModeTypeE",
   "size" : 4,
   "source_file" : "/out/soong/.intermediates/hardware/interfaces/radio/1.0/android.hardware.radio@1.0_genc++_headers/gen/android/hardware/radio/1.0/types.h",
   "underlying_type" : "_ZTIi"
  },
  {
   "alignment" : 4,
   "enum_fields" :
   [
    {
     "enum_field_value" : 0,
     "name" : "android::hardware::radio::V1_0::DataProfileId::DEFAULT"
    },
    {
     "enum_field_value" : 1,
     "name" : "android::hardware::radio::V1_0::DataProfileId::TETHERED"
    },
    {
     "enum_field_value" : 2,
     "name" : "android::hardware::radio::V1_0::DataProfileId::IMS"
    },
    {
     "enum_field_value" : 3,
     "name" : "android::hardware::radio::V1_0::DataProfileId::FOTA"
    },
    {
     "enum_field_value" : 4,
     "name" : "android::hardware::radio::V1_0::DataProfileId::CBS"
    },
    {
     "enum_field_value" : 1000,
     "name" : "android::hardware::radio::V1_0::DataProfileId::OEM_BASE"
    },
    {
     "enum_field_value" : -1,
     "name" : "android::hardware::radio::V1_0::DataProfileId::INVALID"
    }
   ],
   "linker_set_key" : "_ZTIN7android8hardware5radio4V1_013DataProfileIdE",
   "name" : "android::hardware::radio::V1_0::DataProfileId",
   "referenced_type" : "_ZTIN7android8hardware5radio4V1_013DataProfileIdE",
   "self_type" : "_ZTIN7android8hardware5radio4V1_013DataProfileIdE",
   "size" : 4,
   "source_file" : "/out/soong/.intermediates/hardware/interfaces/radio/1.0/android.hardware.radio@1.0_genc++_headers/gen/android/hardware/radio/1.0/types.h",
   "underlying_type" : "_ZTIi"
  },
  {
   "alignment" : 4,
   "enum_fields" :
   [
    {
     "enum_field_value" : 0,
     "name" : "android::hardware::radio::V1_0::PersoSubstate::UNKNOWN"
    },
    {
     "enum_field_value" : 1,
     "name" : "android::hardware::radio::V1_0::PersoSubstate::IN_PROGRESS"
    },
    {
     "enum_field_value" : 2,
     "name" : "android::hardware::radio::V1_0::PersoSubstate::READY"
    },
    {
     "enum_field_value" : 3,
     "name" : "android::hardware::radio::V1_0::PersoSubstate::SIM_NETWORK"
    },
    {
     "enum_field_value" : 4,
     "name" : "android::hardware::radio::V1_0::PersoSubstate::SIM_NETWORK_SUBSET"
    },
    {
     "enum_field_value" : 5,
     "name" : "android::hardware::radio::V1_0::PersoSubstate::SIM_CORPORATE"
    },
    {
     "enum_field_value" : 6,
     "name" : "android::hardware::radio::V1_0::PersoSubstate::SIM_SERVICE_PROVIDER"
    },
    {
     "enum_field_value" : 7,
     "name" : "android::hardware::radio::V1_0::PersoSubstate::SIM_SIM"
    },
    {
     "enum_field_value" : 8,
     "name" : "android::hardware::radio::V1_0::PersoSubstate::SIM_NETWORK_PUK"
    },
    {
     "enum_field_value" : 9,
     "name" : "android::hardware::radio::V1_0::PersoSubstate::SIM_NETWORK_SUBSET_PUK"
    },
    {
     "enum_field_value" : 10,
     "name" : "android::hardware::radio::V1_0::PersoSubstate::SIM_CORPORATE_PUK"
    },
    {
     "enum_field_value" : 11,
     "name" : "android::hardware::radio::V1_0::PersoSubstate::SIM_SERVICE_PROVIDER_PUK"
    },
    {
     "enum_field_value" : 12,
     "name" : "android::hardware::radio::V1_0::PersoSubstate::SIM_SIM_PUK"
    },
    {
     "enum_field_value" : 13,
     "name" : "android::hardware::radio::V1_0::PersoSubstate::RUIM_NETWORK1"
    },
    {
     "enum_field_value" : 14,
     "name" : "android::hardware::radio::V1_0::PersoSubstate::RUIM_NETWORK2"
    },
    {
     "enum_field_value" : 15,
     "name" : "android::hardware::radio::V1_0::PersoSubstate::RUIM_HRPD"
    },
    {
     "enum_field_value" : 16,
     "name" : "android::hardware::radio::V1_0::PersoSubstate::RUIM_CORPORATE"
    },
    {
     "enum_field_value" : 17,
     "name" : "android::hardware::radio::V1_0::PersoSubstate::RUIM_SERVICE_PROVIDER"
    },
    {
     "enum_field_value" : 18,
     "name" : "android::hardware::radio::V1_0::PersoSubstate::RUIM_RUIM"
    },
    {
     "enum_field_value" : 19,
     "name" : "android::hardware::radio::V1_0::PersoSubstate::RUIM_NETWORK1_PUK"
    },
    {
     "enum_field_value" : 20,
     "name" : "android::hardware::radio::V1_0::PersoSubstate::RUIM_NETWORK2_PUK"
    },
    {
     "enum_field_value" : 21,
     "name" : "android::hardware::radio::V1_0::PersoSubstate::RUIM_HRPD_PUK"
    },
    {
     "enum_field_value" : 22,
     "name" : "android::hardware::radio::V1_0::PersoSubstate::RUIM_CORPORATE_PUK"
    },
    {
     "enum_field_value" : 23,
     "name" : "android::hardware::radio::V1_0::PersoSubstate::RUIM_SERVICE_PROVIDER_PUK"
    },
    {
     "enum_field_value" : 24,
     "name" : "android::hardware::radio::V1_0::PersoSubstate::RUIM_RUIM_PUK"
    }
   ],
   "linker_set_key" : "_ZTIN7android8hardware5radio4V1_013PersoSubstateE",
   "name" : "android::hardware::radio::V1_0::PersoSubstate",
   "referenced_type" : "_ZTIN7android8hardware5radio4V1_013PersoSubstateE",
   "self_type" : "_ZTIN7android8hardware5radio4V1_013PersoSubstateE",
   "size" : 4,
   "source_file" : "/out/soong/.intermediates/hardware/interfaces/radio/1.0/android.hardware.radio@1.0_genc++_headers/gen/android/hardware/radio/1.0/types.h",
   "underlying_type" : "_ZTIi"
  },
  {
   "alignment" : 4,
   "enum_fields" :
   [
    {
     "enum_field_value" : 0,
     "name" : "android::hardware::radio::V1_0::RadioBandMode::BAND_MODE_UNSPECIFIED"
    },
    {
     "enum_field_value" : 1,
     "name" : "android::hardware::radio::V1_0::RadioBandMode::BAND_MODE_EURO"
    },
    {
     "enum_field_value" : 2,
     "name" : "android::hardware::radio::V1_0::RadioBandMode::BAND_MODE_USA"
    },
    {
     "enum_field_value" : 3,
     "name" : "android::hardware::radio::V1_0::RadioBandMode::BAND_MODE_JPN"
    },
    {
     "enum_field_value" : 4,
     "name" : "android::hardware::radio::V1_0::RadioBandMode::BAND_MODE_AUS"
    },
    {
     "enum_field_value" : 5,
     "name" : "android::hardware::radio::V1_0::RadioBandMode::BAND_MODE_AUS_2"
    },
    {
     "enum_field_value" : 6,
     "name" : "android::hardware::radio::V1_0::RadioBandMode::BAND_MODE_CELL_800"
    },
    {
     "enum_field_value" : 7,
     "name" : "android::hardware::radio::V1_0::RadioBandMode::BAND_MODE_PCS"
    },
    {
     "enum_field_value" : 8,
     "name" : "android::hardware::radio::V1_0::RadioBandMode::BAND_MODE_JTACS"
    },
    {
     "enum_field_value" : 9,
     "name" : "android::hardware::radio::V1_0::RadioBandMode::BAND_MODE_KOREA_PCS"
    },
    {
     "enum_field_value" : 10,
     "name" : "android::hardware::radio::V1_0::RadioBandMode::BAND_MODE_5_450M"
    },
    {
     "enum_field_value" : 11,
     "name" : "android::hardware::radio::V1_0::RadioBandMode::BAND_MODE_IMT2000"
    },
    {
     "enum_field_value" : 12,
     "name" : "android::hardware::radio::V1_0::RadioBandMode::BAND_MODE_7_700M_2"
    },
    {
     "enum_field_value" : 13,
     "name" : "android::hardware::radio::V1_0::RadioBandMode::BAND_MODE_8_1800M"
    },
    {
     "enum_field_value" : 14,
     "name" : "android::hardware::radio::V1_0::RadioBandMode::BAND_MODE_9_900M"
    },
    {
     "enum_field_value" : 15,
     "name" : "android::hardware::radio::V1_0::RadioBandMode::BAND_MODE_10_800M_2"
    },
    {
     "enum_field_value" : 16,
     "name" : "android::hardware::radio::V1_0::RadioBandMode::BAND_MODE_EURO_PAMR_400M"
    },
    {
     "enum_field_value" : 17,
     "name" : "android::hardware::radio::V1_0::RadioBandMode::BAND_MODE_AWS"
    },
    {
     "enum_field_value" : 18,
     "name" : "android::hardware::radio::V1_0::RadioBandMode::BAND_MODE_USA_2500M"
    }
   ],
   "linker_set_key" : "_ZTIN7android8hardware5radio4V1_013RadioBandModeE",
   "name" : "android::hardware::radio::V1_0::RadioBandMode",
   "referenced_type" : "_ZTIN7android8hardware5radio4V1_013RadioBandModeE",
   "self_type" : "_ZTIN7android8hardware5radio4V1_013RadioBandModeE",
   "size" : 4,
   "source_file" : "/out/soong/.intermediates/hardware/interfaces/radio/1.0/android.hardware.radio@1.0_genc++_headers/gen/android/hardware/radio/1.0/types.h",
   "underlying_type" : "_ZTIi"
  },
  {
   "alignment" : 4,
   "enum_fields" :
   [
    {
     "enum_field_value" : 0,
     "name" : "android::hardware::radio::V1_0::SapConnectRsp::SUCCESS"
    },
    {
     "enum_field_value" : 1,
     "name" : "android::hardware::radio::V1_0::SapConnectRsp::CONNECT_FAILURE"
    },
    {
     "enum_field_value" : 2,
     "name" : "android::hardware::radio::V1_0::SapConnectRsp::MSG_SIZE_TOO_LARGE"
    },
    {
     "enum_field_value" : 3,
     "name" : "android::hardware::radio::V1_0::SapConnectRsp::MSG_SIZE_TOO_SMALL"
    },
    {
     "enum_field_value" : 4,
     "name" : "android::hardware::radio::V1_0::SapConnectRsp::CONNECT_OK_CALL_ONGOING"
    }
   ],
   "linker_set_key" : "_ZTIN7android8hardware5radio4V1_013SapConnectRspE",
   "name" : "android::hardware::radio::V1_0::SapConnectRsp",
   "referenced_type" : "_ZTIN7android8hardware5radio4V1_013SapConnectRspE",
   "self_type" : "_ZTIN7android8hardware5radio4V1_013SapConnectRspE",
   "size" : 4,
   "source_file" : "/out/soong/.intermediates/hardware/interfaces/radio/1.0/android.hardware.radio@1.0_genc++_headers/gen/android/hardware/radio/1.0/types.h",
   "underlying_type" : "_ZTIi"
  },
  {
   "alignment" : 4,
   "enum_fields" :
   [
    {
     "enum_field_value" : 0,
     "name" : "android::hardware::radio::V1_0::SapResultCode::SUCCESS"
    },
    {
     "enum_field_value" : 1,
     "name" : "android::hardware::radio::V1_0::SapResultCode::GENERIC_FAILURE"
    },
    {
     "enum_field_value" : 2,
     "name" : "android::hardware::radio::V1_0::SapResultCode::CARD_NOT_ACCESSSIBLE"
    },
    {
     "enum_field_value" : 3,
     "name" : "android::hardware::radio::V1_0::SapResultCode::CARD_ALREADY_POWERED_OFF"
    },
    {
     "enum_field_value" : 4,
     "name" : "android::hardware::radio::V1_0::SapResultCode::CARD_REMOVED"
    },
    {
     "enum_field_value" : 5,
     "name" : "android::hardware::radio::V1_0::SapResultCode::CARD_ALREADY_POWERED_ON"
    },
    {
     "enum_field_value" : 6,
     "name" : "android::hardware::radio::V1_0::SapResultCode::DATA_NOT_AVAILABLE"
    },
    {
     "enum_field_value" : 7,
     "name" : "android::hardware::radio::V1_0::SapResultCode::NOT_SUPPORTED"
    }
   ],
   "linker_set_key" : "_ZTIN7android8hardware5radio4V1_013SapResultCodeE",
   "name" : "android::hardware::radio::V1_0::SapResultCode",
   "referenced_type" : "_ZTIN7android8hardware5radio4V1_013SapResultCodeE",
   "self_type" : "_ZTIN7android8hardware5radio4V1_013SapResultCodeE",
   "size" : 4,
   "source_file" : "/out/soong/.intermediates/hardware/interfaces/radio/1.0/android.hardware.radio@1.0_genc++_headers/gen/android/hardware/radio/1.0/types.h",
   "underlying_type" : "_ZTIi"
  },
  {
   "alignment" : 4,
   "enum_fields" :
   [
    {
     "enum_field_value" : 0,
     "name" : "android::hardware::radio::V1_0::SsRequestType::ACTIVATION"
    },
    {
     "enum_field_value" : 1,
     "name" : "android::hardware::radio::V1_0::SsRequestType::DEACTIVATION"
    },
    {
     "enum_field_value" : 2,
     "name" : "android::hardware::radio::V1_0::SsRequestType::INTERROGATION"
    },
    {
     "enum_field_value" : 3,
     "name" : "android::hardware::radio::V1_0::SsRequestType::REGISTRATION"
    },
    {
     "enum_field_value" : 4,
     "name" : "android::hardware::radio::V1_0::SsRequestType::ERASURE"
    }
   ],
   "linker_set_key" : "_ZTIN7android8hardware5radio4V1_013SsRequestTypeE",
   "name" : "android::hardware::radio::V1_0::SsRequestType",
   "referenced_type" : "_ZTIN7android8hardware5radio4V1_013SsRequestTypeE",
   "self_type" : "_ZTIN7android8hardware5radio4V1_013SsRequestTypeE",
   "size" : 4,
   "source_file" : "/out/soong/.intermediates/hardware/interfaces/radio/1.0/android.hardware.radio@1.0_genc++_headers/gen/android/hardware/radio/1.0/types.h",
   "underlying_type" : "_ZTIi"
  },
  {
   "alignment" : 4,
   "enum_fields" :
   [
    {
     "enum_field_value" : 0,
     "name" : "android::hardware::radio::V1_0::SsServiceType::CFU"
    },
    {
     "enum_field_value" : 1,
     "name" : "android::hardware::radio::V1_0::SsServiceType::CF_BUSY"
    },
    {
     "enum_field_value" : 2,
     "name" : "android::hardware::radio::V1_0::SsServiceType::CF_NO_REPLY"
    },
    {
     "enum_field_value" : 3,
     "name" : "android::hardware::radio::V1_0::SsServiceType::CF_NOT_REACHABLE"
    },
    {
     "enum_field_value" : 4,
     "name" : "android::hardware::radio::V1_0::SsServiceType::CF_ALL"
    },
    {
     "enum_field_value" : 5,
     "name" : "android::hardware::radio::V1_0::SsServiceType::CF_ALL_CONDITIONAL"
    },
    {
     "enum_field_value" : 6,
     "name" : "android::hardware::radio::V1_0::SsServiceType::CLIP"
    },
    {
     "enum_field_value" : 7,
     "name" : "android::hardware::radio::V1_0::SsServiceType::CLIR"
    },
    {
     "enum_field_value" : 8,
     "name" : "android::hardware::radio::V1_0::SsServiceType::COLP"
    },
    {
     "enum_field_value" : 9,
     "name" : "android::hardware::radio::V1_0::SsServiceType::COLR"
    },
    {
     "enum_field_value" : 10,
     "name" : "android::hardware::radio::V1_0::SsServiceType::WAIT"
    },
    {
     "enum_field_value" : 11,
     "name" : "android::hardware::radio::V1_0::SsServiceType::BAOC"
    },
    {
     "enum_field_value" : 12,
     "name" : "android::hardware::radio::V1_0::SsServiceType::BAOIC"
    },
    {
     "enum_field_value" : 13,
     "name" : "android::hardware::radio::V1_0::SsServiceType::BAOIC_EXC_HOME"
    },
    {
     "enum_field_value" : 14,
     "name" : "android::hardware::radio::V1_0::SsServiceType::BAIC"
    },
    {
     "enum_field_value" : 15,
     "name" : "android::hardware::radio::V1_0::SsServiceType::BAIC_ROAMING"
    },
    {
     "enum_field_value" : 16,
     "name" : "android::hardware::radio::V1_0::SsServiceType::ALL_BARRING"
    },
    {
     "enum_field_value" : 17,
     "name" : "android::hardware::radio::V1_0::SsServiceType::OUTGOING_BARRING"
    },
    {
     "enum_field_value" : 18,
     "name" : "android::hardware::radio::V1_0::SsServiceType::INCOMING_BARRING"
    }
   ],
   "linker_set_key" : "_ZTIN7android8hardware5radio4V1_013SsServiceTypeE",
   "name" : "android::hardware::radio::V1_0::SsServiceType",
   "referenced_type" : "_ZTIN7android8hardware5radio4V1_013SsServiceTypeE",
   "self_type" : "_ZTIN7android8hardware5radio4V1_013SsServiceTypeE",
   "size" : 4,
   "source_file" : "/out/soong/.intermediates/hardware/interfaces/radio/1.0/android.hardware.radio@1.0_genc++_headers/gen/android/hardware/radio/1.0/types.h",
   "underlying_type" : "_ZTIi"
  },
  {
   "alignment" : 4,
   "enum_fields" :
   [
    {
     "enum_field_value" : 0,
     "name" : "android::hardware::radio::V1_0::TimeStampType::UNKNOWN"
    },
    {
     "enum_field_value" : 1,
     "name" : "android::hardware::radio::V1_0::TimeStampType::ANTENNA"
    },
    {
     "enum_field_value" : 2,
     "name" : "android::hardware::radio::V1_0::TimeStampType::MODEM"
    },
    {
     "enum_field_value" : 3,
     "name" : "android::hardware::radio::V1_0::TimeStampType::OEM_RIL"
    },
    {
     "enum_field_value" : 4,
     "name" : "android::hardware::radio::V1_0::TimeStampType::JAVA_RIL"
    }
   ],
   "linker_set_key" : "_ZTIN7android8hardware5radio4V1_013TimeStampTypeE",
   "name" : "android::hardware::radio::V1_0::TimeStampType",
   "referenced_type" : "_ZTIN7android8hardware5radio4V1_013TimeStampTypeE",
   "self_type" : "_ZTIN7android8hardware5radio4V1_013TimeStampTypeE",
   "size" : 4,
   "source_file" : "/out/soong/.intermediates/hardware/interfaces/radio/1.0/android.hardware.radio@1.0_genc++_headers/gen/android/hardware/radio/1.0/types.h",
   "underlying_type" : "_ZTIi"
  },
  {
   "alignment" : 4,
   "enum_fields" :
   [
    {
     "enum_field_value" : 0,
     "name" : "android::hardware::radio::V1_0::OperatorStatus::UNKNOWN"
    },
    {
     "enum_field_value" : 1,
     "name" : "android::hardware::radio::V1_0::OperatorStatus::AVAILABLE"
    },
    {
     "enum_field_value" : 2,
     "name" : "android::hardware::radio::V1_0::OperatorStatus::CURRENT"
    },
    {
     "enum_field_value" : 3,
     "name" : "android::hardware::radio::V1_0::OperatorStatus::FORBIDDEN"
    }
   ],
   "linker_set_key" : "_ZTIN7android8hardware5radio4V1_014OperatorStatusE",
   "name" : "android::hardware::radio::V1_0::OperatorStatus",
   "referenced_type" : "_ZTIN7android8hardware5radio4V1_014OperatorStatusE",
   "self_type" : "_ZTIN7android8hardware5radio4V1_014OperatorStatusE",
   "size" : 4,
   "source_file" : "/out/soong/.intermediates/hardware/interfaces/radio/1.0/android.hardware.radio@1.0_genc++_headers/gen/android/hardware/radio/1.0/types.h",
   "underlying_type" : "_ZTIi"
  },
  {
   "alignment" : 4,
   "enum_fields" :
   [
    {
     "enum_field_value" : 0,
     "name" : "android::hardware::radio::V1_0::SimRefreshType::SIM_FILE_UPDATE"
    },
    {
     "enum_field_value" : 1,
     "name" : "android::hardware::radio::V1_0::SimRefreshType::SIM_INIT"
    },
    {
     "enum_field_value" : 2,
     "name" : "android::hardware::radio::V1_0::SimRefreshType::SIM_RESET"
    }
   ],
   "linker_set_key" : "_ZTIN7android8hardware5radio4V1_014SimRefreshTypeE",
   "name" : "android::hardware::radio::V1_0::SimRefreshType",
   "referenced_type" : "_ZTIN7android8hardware5radio4V1_014SimRefreshTypeE",
   "self_type" : "_ZTIN7android8hardware5radio4V1_014SimRefreshTypeE",
   "size" : 4,
   "source_file" : "/out/soong/.intermediates/hardware/interfaces/radio/1.0/android.hardware.radio@1.0_genc++_headers/gen/android/hardware/radio/1.0/types.h",
   "underlying_type" : "_ZTIi"
  },
  {
   "alignment" : 4,
   "enum_fields" :
   [
    {
     "enum_field_value" : 0,
     "name" : "android::hardware::radio::V1_0::CdmaInfoRecName::DISPLAY"
    },
    {
     "enum_field_value" : 1,
     "name" : "android::hardware::radio::V1_0::CdmaInfoRecName::CALLED_PARTY_NUMBER"
    },
    {
     "enum_field_value" : 2,
     "name" : "android::hardware::radio::V1_0::CdmaInfoRecName::CALLING_PARTY_NUMBER"
    },
    {
     "enum_field_value" : 3,
     "name" : "android::hardware::radio::V1_0::CdmaInfoRecName::CONNECTED_NUMBER"
    },
    {
     "enum_field_value" : 4,
     "name" : "android::hardware::radio::V1_0::CdmaInfoRecName::SIGNAL"
    },
    {
     "enum_field_value" : 5,
     "name" : "android::hardware::radio::V1_0::CdmaInfoRecName::REDIRECTING_NUMBER"
    },
    {
     "enum_field_value" : 6,
     "name" : "android::hardware::radio::V1_0::CdmaInfoRecName::LINE_CONTROL"
    },
    {
     "enum_field_value" : 7,
     "name" : "android::hardware::radio::V1_0::CdmaInfoRecName::EXTENDED_DISPLAY"
    },
    {
     "enum_field_value" : 8,
     "name" : "android::hardware::radio::V1_0::CdmaInfoRecName::T53_CLIR"
    },
    {
     "enum_field_value" : 9,
     "name" : "android::hardware::radio::V1_0::CdmaInfoRecName::T53_RELEASE"
    },
    {
     "enum_field_value" : 10,
     "name" : "android::hardware::radio::V1_0::CdmaInfoRecName::T53_AUDIO_CONTROL"
    }
   ],
   "linker_set_key" : "_ZTIN7android8hardware5radio4V1_015CdmaInfoRecNameE",
   "name" : "android::hardware::radio::V1_0::CdmaInfoRecName",
   "referenced_type" : "_ZTIN7android8hardware5radio4V1_015CdmaInfoRecNameE",
   "self_type" : "_ZTIN7android8hardware5radio4V1_015CdmaInfoRecNameE",
   "size" : 4,
   "source_file" : "/out/soong/.intermediates/hardware/interfaces/radio/1.0/android.hardware.radio@1.0_genc++_headers/gen/android/hardware/radio/1.0/types.h",
   "underlying_type" : "_ZTIi"
  },
  {
   "alignment" : 4,
   "enum_fields" :
   [
    {
     "enum_field_value" : 0,
     "name" : "android::hardware::radio::V1_0::CdmaRoamingType::HOME_NETWORK"
    },
    {
     "enum_field_value" : 1,
     "name" : "android::hardware::radio::V1_0::CdmaRoamingType::AFFILIATED_ROAM"
    },
    {
     "enum_field_value" : 2,
     "name" : "android::hardware::radio::V1_0::CdmaRoamingType::ANY_ROAM"
    }
   ],
   "linker_set_key" : "_ZTIN7android8hardware5radio4V1_015CdmaRoamingTypeE",
   "name" : "android::hardware::radio::V1_0::CdmaRoamingType",
   "referenced_type" : "_ZTIN7android8hardware5radio4V1_015CdmaRoamingTypeE",
   "self_type" : "_ZTIN7android8hardware5radio4V1_015CdmaRoamingTypeE",
   "size" : 4,
   "source_file" : "/out/soong/.intermediates/hardware/interfaces/radio/1.0/android.hardware.radio@1.0_genc++_headers/gen/android/hardware/radio/1.0/types.h",
   "underlying_type" : "_ZTIi"
  },
  {
   "alignment" : 4,
   "enum_fields" :
   [
    {
     "enum_field_value" : 0,
     "name" : "android::hardware::radio::V1_0::DeviceStateType::POWER_SAVE_MODE"
    },
    {
     "enum_field_value" : 1,
     "name" : "android::hardware::radio::V1_0::DeviceStateType::CHARGING_STATE"
    },
    {
     "enum_field_value" : 2,
     "name" : "android::hardware::radio::V1_0::DeviceStateType::LOW_DATA_EXPECTED"
    }
   ],
   "linker_set_key" : "_ZTIN7android8hardware5radio4V1_015DeviceStateTypeE",
   "name" : "android::hardware::radio::V1_0::DeviceStateType",
   "referenced_type" : "_ZTIN7android8hardware5radio4V1_015DeviceStateTypeE",
   "self_type" : "_ZTIN7android8hardware5radio4V1_015DeviceStateTypeE",
   "size" : 4,
   "source_file" : "/out/soong/.intermediates/hardware/interfaces/radio/1.0/android.hardware.radio@1.0_genc++_headers/gen/android/hardware/radio/1.0/types.h",
   "underlying_type" : "_ZTIi"
  },
  {
   "alignment" : 4,
   "enum_fields" :
   [
    {
     "enum_field_value" : 0,
     "name" : "android::hardware::radio::V1_0::RadioTechnology::UNKNOWN"
    },
    {
     "enum_field_value" : 1,
     "name" : "android::hardware::radio::V1_0::RadioTechnology::GPRS"
    },
    {
     "enum_field_value" : 2,
     "name" : "android::hardware::radio::V1_0::RadioTechnology::EDGE"
    },
    {
     "enum_field_value" : 3,
     "name" : "android::hardware::radio::V1_0::RadioTechnology::UMTS"
    },
    {
     "enum_field_value" : 4,
     "name" : "android::hardware::radio::V1_0::RadioTechnology::IS95A"
    },
    {
     "enum_field_value" : 5,
     "name" : "android::hardware::radio::V1_0::RadioTechnology::IS95B"
    },
    {
     "enum_field_value" : 6,
     "name" : "android::hardware::radio::V1_0::RadioTechnology::ONE_X_RTT"
    },
    {
     "enum_field_value" : 7,
     "name" : "android::hardware::radio::V1_0::RadioTechnology::EVDO_0"
    },
    {
     "enum_field_value" : 8,
     "name" : "android::hardware::radio::V1_0::RadioTechnology::EVDO_A"
    },
    {
     "enum_field_value" : 9,
     "name" : "android::hardware::radio::V1_0::RadioTechnology::HSDPA"
    },
    {
     "enum_field_value" : 10,
     "name" : "android::hardware::radio::V1_0::RadioTechnology::HSUPA"
    },
    {
     "enum_field_value" : 11,
     "name" : "android::hardware::radio::V1_0::RadioTechnology::HSPA"
    },
    {
     "enum_field_value" : 12,
     "name" : "android::hardware::radio::V1_0::RadioTechnology::EVDO_B"
    },
    {
     "enum_field_value" : 13,
     "name" : "android::hardware::radio::V1_0::RadioTechnology::EHRPD"
    },
    {
     "enum_field_value" : 14,
     "name" : "android::hardware::radio::V1_0::RadioTechnology::LTE"
    },
    {
     "enum_field_value" : 15,
     "name" : "android::hardware::radio::V1_0::RadioTechnology::HSPAP"
    },
    {
     "enum_field_value" : 16,
     "name" : "android::hardware::radio::V1_0::RadioTechnology::GSM"
    },
    {
     "enum_field_value" : 17,
     "name" : "android::hardware::radio::V1_0::RadioTechnology::TD_SCDMA"
    },
    {
     "enum_field_value" : 18,
     "name" : "android::hardware::radio::V1_0::RadioTechnology::IWLAN"
    },
    {
     "enum_field_value" : 19,
     "name" : "android::hardware::radio::V1_0::RadioTechnology::LTE_CA"
    }
   ],
   "linker_set_key" : "_ZTIN7android8hardware5radio4V1_015RadioTechnologyE",
   "name" : "android::hardware::radio::V1_0::RadioTechnology",
   "referenced_type" : "_ZTIN7android8hardware5radio4V1_015RadioTechnologyE",
   "self_type" : "_ZTIN7android8hardware5radio4V1_015RadioTechnologyE",
   "size" : 4,
   "source_file" : "/out/soong/.intermediates/hardware/interfaces/radio/1.0/android.hardware.radio@1.0_genc++_headers/gen/android/hardware/radio/1.0/types.h",
   "underlying_type" : "_ZTIi"
  },
  {
   "alignment" : 4,
   "enum_fields" :
   [
    {
     "enum_field_value" : 0,
     "name" : "android::hardware::radio::V1_0::RestrictedState::NONE"
    },
    {
     "enum_field_value" : 1,
     "name" : "android::hardware::radio::V1_0::RestrictedState::CS_EMERGENCY"
    },
    {
     "enum_field_value" : 2,
     "name" : "android::hardware::radio::V1_0::RestrictedState::CS_NORMAL"
    },
    {
     "enum_field_value" : 4,
     "name" : "android::hardware::radio::V1_0::RestrictedState::CS_ALL"
    },
    {
     "enum_field_value" : 16,
     "name" : "android::hardware::radio::V1_0::RestrictedState::PS_ALL"
    }
   ],
   "linker_set_key" : "_ZTIN7android8hardware5radio4V1_015RestrictedStateE",
   "name" : "android::hardware::radio::V1_0::RestrictedState",
   "referenced_type" : "_ZTIN7android8hardware5radio4V1_015RestrictedStateE",
   "self_type" : "_ZTIN7android8hardware5radio4V1_015RestrictedStateE",
   "size" : 4,
   "source_file" : "/out/soong/.intermediates/hardware/interfaces/radio/1.0/android.hardware.radio@1.0_genc++_headers/gen/android/hardware/radio/1.0/types.h",
   "underlying_type" : "_ZTIi"
  },
  {
   "alignment" : 4,
   "enum_fields" :
   [
    {
     "enum_field_value" : 0,
     "name" : "android::hardware::radio::V1_0::CallPresentation::ALLOWED"
    },
    {
     "enum_field_value" : 1,
     "name" : "android::hardware::radio::V1_0::CallPresentation::RESTRICTED"
    },
    {
     "enum_field_value" : 2,
     "name" : "android::hardware::radio::V1_0::CallPresentation::UNKNOWN"
    },
    {
     "enum_field_value" : 3,
     "name" : "android::hardware::radio::V1_0::CallPresentation::PAYPHONE"
    }
   ],
   "linker_set_key" : "_ZTIN7android8hardware5radio4V1_016CallPresentationE",
   "name" : "android::hardware::radio::V1_0::CallPresentation",
   "referenced_type" : "_ZTIN7android8hardware5radio4V1_016CallPresentationE",
   "self_type" : "_ZTIN7android8hardware5radio4V1_016CallPresentationE",
   "size" : 4,
   "source_file" : "/out/soong/.intermediates/hardware/interfaces/radio/1.0/android.hardware.radio@1.0_genc++_headers/gen/android/hardware/radio/1.0/types.h",
   "underlying_type" : "_ZTIi"
  },
  {
   "alignment" : 4,
   "enum_fields" :
   [
    {
     "enum_field_value" : 0,
     "name" : "android::hardware::radio::V1_0::CarrierMatchType::ALL"
    },
    {
     "enum_field_value" : 1,
     "name" : "android::hardware::radio::V1_0::CarrierMatchType::SPN"
    },
    {
     "enum_field_value" : 2,
     "name" : "android::hardware::radio::V1_0::CarrierMatchType::IMSI_PREFIX"
    },
    {
     "enum_field_value" : 3,
     "name" : "android::hardware::radio::V1_0::CarrierMatchType::GID1"
    },
    {
     "enum_field_value" : 4,
     "name" : "android::hardware::radio::V1_0::CarrierMatchType::GID2"
    }
   ],
   "linker_set_key" : "_ZTIN7android8hardware5radio4V1_016CarrierMatchTypeE",
   "name" : "android::hardware::radio::V1_0::CarrierMatchType",
   "referenced_type" : "_ZTIN7android8hardware5radio4V1_016CarrierMatchTypeE",
   "self_type" : "_ZTIN7android8hardware5radio4V1_016CarrierMatchTypeE",
   "size" : 4,
   "source_file" : "/out/soong/.intermediates/hardware/interfaces/radio/1.0/android.hardware.radio@1.0_genc++_headers/gen/android/hardware/radio/1.0/types.h",
   "underlying_type" : "_ZTIi"
  },
  {
   "alignment" : 4,
   "enum_fields" :
   [
    {
     "enum_field_value" : 0,
     "name" : "android::hardware::radio::V1_0::CdmaSmsDigitMode::FOUR_BIT"
    },
    {
     "enum_field_value" : 1,
     "name" : "android::hardware::radio::V1_0::CdmaSmsDigitMode::EIGHT_BIT"
    }
   ],
   "linker_set_key" : "_ZTIN7android8hardware5radio4V1_016CdmaSmsDigitModeE",
   "name" : "android::hardware::radio::V1_0::CdmaSmsDigitMode",
   "referenced_type" : "_ZTIN7android8hardware5radio4V1_016CdmaSmsDigitModeE",
   "self_type" : "_ZTIN7android8hardware5radio4V1_016CdmaSmsDigitModeE",
   "size" : 4,
   "source_file" : "/out/soong/.intermediates/hardware/interfaces/radio/1.0/android.hardware.radio@1.0_genc++_headers/gen/android/hardware/radio/1.0/types.h",
   "underlying_type" : "_ZTIi"
  },
  {
   "alignment" : 4,
   "enum_fields" :
   [
    {
     "enum_field_value" : 0,
     "name" : "android::hardware::radio::V1_0::IndicationFilter::NONE"
    },
    {
     "enum_field_value" : 1,
     "name" : "android::hardware::radio::V1_0::IndicationFilter::SIGNAL_STRENGTH"
    },
    {
     "enum_field_value" : 2,
     "name" : "android::hardware::radio::V1_0::IndicationFilter::FULL_NETWORK_STATE"
    },
    {
     "enum_field_value" : 4,
     "name" : "android::hardware::radio::V1_0::IndicationFilter::DATA_CALL_DORMANCY_CHANGED"
    },
    {
     "enum_field_value" : 7,
     "name" : "android::hardware::radio::V1_0::IndicationFilter::ALL"
    }
   ],
   "linker_set_key" : "_ZTIN7android8hardware5radio4V1_016IndicationFilterE",
   "name" : "android::hardware::radio::V1_0::IndicationFilter",
   "referenced_type" : "_ZTIN7android8hardware5radio4V1_016IndicationFilterE",
   "self_type" : "_ZTIN7android8hardware5radio4V1_016IndicationFilterE",
   "size" : 4,
   "source_file" : "/out/soong/.intermediates/hardware/interfaces/radio/1.0/android.hardware.radio@1.0_genc++_headers/gen/android/hardware/radio/1.0/types.h",
   "underlying_type" : "_ZTIi"
  },
  {
   "alignment" : 4,
   "enum_fields" :
   [
    {
     "enum_field_value" : 0,
     "name" : "android::hardware::radio::V1_0::SubscriptionType::SUBSCRIPTION_1"
    },
    {
     "enum_field_value" : 1,
     "name" : "android::hardware::radio::V1_0::SubscriptionType::SUBSCRIPTION_2"
    },
    {
     "enum_field_value" : 2,
     "name" : "android::hardware::radio::V1_0::SubscriptionType::SUBSCRIPTION_3"
    }
   ],
   "linker_set_key" : "_ZTIN7android8hardware5radio4V1_016SubscriptionTypeE",
   "name" : "android::hardware::radio::V1_0::SubscriptionType",
   "referenced_type" : "_ZTIN7android8hardware5radio4V1_016SubscriptionTypeE",
   "self_type" : "_ZTIN7android8hardware5radio4V1_016SubscriptionTypeE",
   "size" : 4,
   "source_file" : "/out/soong/.intermediates/hardware/interfaces/radio/1.0/android.hardware.radio@1.0_genc++_headers/gen/android/hardware/radio/1.0/types.h",
   "underlying_type" : "_ZTIi"
  },
  {
   "alignment" : 4,
   "enum_fields" :
   [
    {
     "enum_field_value" : 0,
     "name" : "android::hardware::radio::V1_0::SuppServiceClass::NONE"
    },
    {
     "enum_field_value" : 1,
     "name" : "android::hardware::radio::V1_0::SuppServiceClass::VOICE"
    },
    {
     "enum_field_value" : 2,
     "name" : "android::hardware::radio::V1_0::SuppServiceClass::DATA"
    },
    {
     "enum_field_value" : 4,
     "name" : "android::hardware::radio::V1_0::SuppServiceClass::FAX"
    },
    {
     "enum_field_value" : 8,
     "name" : "android::hardware::radio::V1_0::SuppServiceClass::SMS"
    },
    {
     "enum_field_value" : 16,
     "name" : "android::hardware::radio::V1_0::SuppServiceClass::DATA_SYNC"
    },
    {
     "enum_field_value" : 32,
     "name" : "android::hardware::radio::V1_0::SuppServiceClass::DATA_ASYNC"
    },
    {
     "enum_field_value" : 64,
     "name" : "android::hardware::radio::V1_0::SuppServiceClass::PACKET"
    },
    {
     "enum_field_value" : 128,
     "name" : "android::hardware::radio::V1_0::SuppServiceClass::PAD"
    },
    {
     "enum_field_value" : 128,
     "name" : "android::hardware::radio::V1_0::SuppServiceClass::MAX"
    }
   ],
   "linker_set_key" : "_ZTIN7android8hardware5radio4V1_016SuppServiceClassE",
   "name" : "android::hardware::radio::V1_0::SuppServiceClass",
   "referenced_type" : "_ZTIN7android8hardware5radio4V1_016SuppServiceClassE",
   "self_type" : "_ZTIN7android8hardware5radio4V1_016SuppServiceClassE",
   "size" : 4,
   "source_file" : "/out/soong/.intermediates/hardware/interfaces/radio/1.0/android.hardware.radio@1.0_genc++_headers/gen/android/hardware/radio/1.0/types.h",
   "underlying_type" : "_ZTIi"
  },
  {
   "alignment" : 4,
   "enum_fields" :
   [
    {
     "enum_field_value" : 0,
     "name" : "android::hardware::radio::V1_0::UiccSubActStatus::DEACTIVATE"
    },
    {
     "enum_field_value" : 1,
     "name" : "android::hardware::radio::V1_0::UiccSubActStatus::ACTIVATE"
    }
   ],
   "linker_set_key" : "_ZTIN7android8hardware5radio4V1_016UiccSubActStatusE",
   "name" : "android::hardware::radio::V1_0::UiccSubActStatus",
   "referenced_type" : "_ZTIN7android8hardware5radio4V1_016UiccSubActStatusE",
   "self_type" : "_ZTIN7android8hardware5radio4V1_016UiccSubActStatusE",
   "size" : 4,
   "source_file" : "/out/soong/.intermediates/hardware/interfaces/radio/1.0/android.hardware.radio@1.0_genc++_headers/gen/android/hardware/radio/1.0/types.h",
   "underlying_type" : "_ZTIi"
  },
  {
   "alignment" : 4,
   "enum_fields" :
   [
    {
     "enum_field_value" : 0,
     "name" : "android::hardware::radio::V1_0::CdmaSmsErrorClass::NO_ERROR"
    },
    {
     "enum_field_value" : 1,
     "name" : "android::hardware::radio::V1_0::CdmaSmsErrorClass::ERROR"
    }
   ],
   "linker_set_key" : "_ZTIN7android8hardware5radio4V1_017CdmaSmsErrorClassE",
   "name" : "android::hardware::radio::V1_0::CdmaSmsErrorClass",
   "referenced_type" : "_ZTIN7android8hardware5radio4V1_017CdmaSmsErrorClassE",
   "self_type" : "_ZTIN7android8hardware5radio4V1_017CdmaSmsErrorClassE",
   "size" : 4,
   "source_file" : "/out/soong/.intermediates/hardware/interfaces/radio/1.0/android.hardware.radio@1.0_genc++_headers/gen/android/hardware/radio/1.0/types.h",
   "underlying_type" : "_ZTIi"
  },
  {
   "alignment" : 4,
   "enum_fields" :
   [
    {
     "enum_field_value" : 0,
     "name" : "android::hardware::radio::V1_0::CdmaSmsNumberMode::NOT_DATA_NETWORK"
    },
    {
     "enum_field_value" : 1,
     "name" : "android::hardware::radio::V1_0::CdmaSmsNumberMode::DATA_NETWORK"
    }
   ],
   "linker_set_key" : "_ZTIN7android8hardware5radio4V1_017CdmaSmsNumberModeE",
   "name" : "android::hardware::radio::V1_0::CdmaSmsNumberMode",
   "referenced_type" : "_ZTIN7android8hardware5radio4V1_017CdmaSmsNumberModeE",
   "self_type" : "_ZTIN7android8hardware5radio4V1_017CdmaSmsNumberModeE",
   "size" : 4,
   "source_file" : "/out/soong/.intermediates/hardware/interfaces/radio/1.0/android.hardware.radio@1.0_genc++_headers/gen/android/hardware/radio/1.0/types.h",
   "underlying_type" : "_ZTIi"
  },
  {
   "alignment" : 4,
   "enum_fields" :
   [
    {
     "enum_field_value" : 0,
     "name" : "android::hardware::radio::V1_0::CdmaSmsNumberPlan::UNKNOWN"
    },
    {
     "enum_field_value" : 1,
     "name" : "android::hardware::radio::V1_0::CdmaSmsNumberPlan::TELEPHONY"
    },
    {
     "enum_field_value" : 2,
     "name" : "android::hardware::radio::V1_0::CdmaSmsNumberPlan::RESERVED_2"
    },
    {
     "enum_field_value" : 3,
     "name" : "android::hardware::radio::V1_0::CdmaSmsNumberPlan::DATA"
    },
    {
     "enum_field_value" : 4,
     "name" : "android::hardware::radio::V1_0::CdmaSmsNumberPlan::TELEX"
    },
    {
     "enum_field_value" : 5,
     "name" : "android::hardware::radio::V1_0::CdmaSmsNumberPlan::RESERVED_5"
    },
    {
     "enum_field_value" : 6,
     "name" : "android::hardware::radio::V1_0::CdmaSmsNumberPlan::RESERVED_6"
    },
    {
     "enum_field_value" : 7,
     "name" : "android::hardware::radio::V1_0::CdmaSmsNumberPlan::RESERVED_7"
    },
    {
     "enum_field_value" : 8,
     "name" : "android::hardware::radio::V1_0::CdmaSmsNumberPlan::RESERVED_8"
    },
    {
     "enum_field_value" : 9,
     "name" : "android::hardware::radio::V1_0::CdmaSmsNumberPlan::PRIVATE"
    },
    {
     "enum_field_value" : 10,
     "name" : "android::hardware::radio::V1_0::CdmaSmsNumberPlan::RESERVED_10"
    },
    {
     "enum_field_value" : 11,
     "name" : "android::hardware::radio::V1_0::CdmaSmsNumberPlan::RESERVED_11"
    },
    {
     "enum_field_value" : 12,
     "name" : "android::hardware::radio::V1_0::CdmaSmsNumberPlan::RESERVED_12"
    },
    {
     "enum_field_value" : 13,
     "name" : "android::hardware::radio::V1_0::CdmaSmsNumberPlan::RESERVED_13"
    },
    {
     "enum_field_value" : 14,
     "name" : "android::hardware::radio::V1_0::CdmaSmsNumberPlan::RESERVED_14"
    },
    {
     "enum_field_value" : 15,
     "name" : "android::hardware::radio::V1_0::CdmaSmsNumberPlan::RESERVED_15"
    }
   ],
   "linker_set_key" : "_ZTIN7android8hardware5radio4V1_017CdmaSmsNumberPlanE",
   "name" : "android::hardware::radio::V1_0::CdmaSmsNumberPlan",
   "referenced_type" : "_ZTIN7android8hardware5radio4V1_017CdmaSmsNumberPlanE",
   "self_type" : "_ZTIN7android8hardware5radio4V1_017CdmaSmsNumberPlanE",
   "size" : 4,
   "source_file" : "/out/soong/.intermediates/hardware/interfaces/radio/1.0/android.hardware.radio@1.0_genc++_headers/gen/android/hardware/radio/1.0/types.h",
   "underlying_type" : "_ZTIi"
  },
  {
   "alignment" : 4,
   "enum_fields" :
   [
    {
     "enum_field_value" : 0,
     "name" : "android::hardware::radio::V1_0::CdmaSmsNumberType::UNKNOWN"
    },
    {
     "enum_field_value" : 1,
     "name" : "android::hardware::radio::V1_0::CdmaSmsNumberType::INTERNATIONAL_OR_DATA_IP"
    },
    {
     "enum_field_value" : 2,
     "name" : "android::hardware::radio::V1_0::CdmaSmsNumberType::NATIONAL_OR_INTERNET_MAIL"
    },
    {
     "enum_field_value" : 3,
     "name" : "android::hardware::radio::V1_0::CdmaSmsNumberType::NETWORK"
    },
    {
     "enum_field_value" : 4,
     "name" : "android::hardware::radio::V1_0::CdmaSmsNumberType::SUBSCRIBER"
    },
    {
     "enum_field_value" : 5,
     "name" : "android::hardware::radio::V1_0::CdmaSmsNumberType::ALPHANUMERIC"
    },
    {
     "enum_field_value" : 6,
     "name" : "android::hardware::radio::V1_0::CdmaSmsNumberType::ABBREVIATED"
    },
    {
     "enum_field_value" : 7,
     "name" : "android::hardware::radio::V1_0::CdmaSmsNumberType::RESERVED_7"
    }
   ],
   "linker_set_key" : "_ZTIN7android8hardware5radio4V1_017CdmaSmsNumberTypeE",
   "name" : "android::hardware::radio::V1_0::CdmaSmsNumberType",
   "referenced_type" : "_ZTIN7android8hardware5radio4V1_017CdmaSmsNumberTypeE",
   "self_type" : "_ZTIN7android8hardware5radio4V1_017CdmaSmsNumberTypeE",
   "size" : 4,
   "source_file" : "/out/soong/.intermediates/hardware/interfaces/radio/1.0/android.hardware.radio@1.0_genc++_headers/gen/android/hardware/radio/1.0/types.h",
   "underlying_type" : "_ZTIi"
  },
  {
   "alignment" : 4,
   "enum_fields" :
   [
    {
     "enum_field_value" : 0,
     "name" : "android::hardware::radio::V1_0::DataCallFailCause::NONE"
    },
    {
     "enum_field_value" : 8,
     "name" : "android::hardware::radio::V1_0::DataCallFailCause::OPERATOR_BARRED"
    },
    {
     "enum_field_value" : 14,
     "name" : "android::hardware::radio::V1_0::DataCallFailCause::NAS_SIGNALLING"
    },
    {
     "enum_field_value" : 26,
     "name" : "android::hardware::radio::V1_0::DataCallFailCause::INSUFFICIENT_RESOURCES"
    },
    {
     "enum_field_value" : 27,
     "name" : "android::hardware::radio::V1_0::DataCallFailCause::MISSING_UKNOWN_APN"
    },
    {
     "enum_field_value" : 28,
     "name" : "android::hardware::radio::V1_0::DataCallFailCause::UNKNOWN_PDP_ADDRESS_TYPE"
    },
    {
     "enum_field_value" : 29,
     "name" : "android::hardware::radio::V1_0::DataCallFailCause::USER_AUTHENTICATION"
    },
    {
     "enum_field_value" : 30,
     "name" : "android::hardware::radio::V1_0::DataCallFailCause::ACTIVATION_REJECT_GGSN"
    },
    {
     "enum_field_value" : 31,
     "name" : "android::hardware::radio::V1_0::DataCallFailCause::ACTIVATION_REJECT_UNSPECIFIED"
    },
    {
     "enum_field_value" : 32,
     "name" : "android::hardware::radio::V1_0::DataCallFailCause::SERVICE_OPTION_NOT_SUPPORTED"
    },
    {
     "enum_field_value" : 33,
     "name" : "android::hardware::radio::V1_0::DataCallFailCause::SERVICE_OPTION_NOT_SUBSCRIBED"
    },
    {
     "enum_field_value" : 34,
     "name" : "android::hardware::radio::V1_0::DataCallFailCause::SERVICE_OPTION_OUT_OF_ORDER"
    },
    {
     "enum_field_value" : 35,
     "name" : "android::hardware::radio::V1_0::DataCallFailCause::NSAPI_IN_USE"
    },
    {
     "enum_field_value" : 36,
     "name" : "android::hardware::radio::V1_0::DataCallFailCause::REGULAR_DEACTIVATION"
    },
    {
     "enum_field_value" : 37,
     "name" : "android::hardware::radio::V1_0::DataCallFailCause::QOS_NOT_ACCEPTED"
    },
    {
     "enum_field_value" : 38,
     "name" : "android::hardware::radio::V1_0::DataCallFailCause::NETWORK_FAILURE"
    },
    {
     "enum_field_value" : 39,
     "name" : "android::hardware::radio::V1_0::DataCallFailCause::UMTS_REACTIVATION_REQ"
    },
    {
     "enum_field_value" : 40,
     "name" : "android::hardware::radio::V1_0::DataCallFailCause::FEATURE_NOT_SUPP"
    },
    {
     "enum_field_value" : 41,
     "name" : "android::hardware::radio::V1_0::DataCallFailCause::TFT_SEMANTIC_ERROR"
    },
    {
     "enum_field_value" : 42,
     "name" : "android::hardware::radio::V1_0::DataCallFailCause::TFT_SYTAX_ERROR"
    },
    {
     "enum_field_value" : 43,
     "name" : "android::hardware::radio::V1_0::DataCallFailCause::UNKNOWN_PDP_CONTEXT"
    },
    {
     "enum_field_value" : 44,
     "name" : "android::hardware::radio::V1_0::DataCallFailCause::FILTER_SEMANTIC_ERROR"
    },
    {
     "enum_field_value" : 45,
     "name" : "android::hardware::radio::V1_0::DataCallFailCause::FILTER_SYTAX_ERROR"
    },
    {
     "enum_field_value" : 46,
     "name" : "android::hardware::radio::V1_0::DataCallFailCause::PDP_WITHOUT_ACTIVE_TFT"
    },
    {
     "enum_field_value" : 50,
     "name" : "android::hardware::radio::V1_0::DataCallFailCause::ONLY_IPV4_ALLOWED"
    },
    {
     "enum_field_value" : 51,
     "name" : "android::hardware::radio::V1_0::DataCallFailCause::ONLY_IPV6_ALLOWED"
    },
    {
     "enum_field_value" : 52,
     "name" : "android::hardware::radio::V1_0::DataCallFailCause::ONLY_SINGLE_BEARER_ALLOWED"
    },
    {
     "enum_field_value" : 53,
     "name" : "android::hardware::radio::V1_0::DataCallFailCause::ESM_INFO_NOT_RECEIVED"
    },
    {
     "enum_field_value" : 54,
     "name" : "android::hardware::radio::V1_0::DataCallFailCause::PDN_CONN_DOES_NOT_EXIST"
    },
    {
     "enum_field_value" : 55,
     "name" : "android::hardware::radio::V1_0::DataCallFailCause::MULTI_CONN_TO_SAME_PDN_NOT_ALLOWED"
    },
    {
     "enum_field_value" : 65,
     "name" : "android::hardware::radio::V1_0::DataCallFailCause::MAX_ACTIVE_PDP_CONTEXT_REACHED"
    },
    {
     "enum_field_value" : 66,
     "name" : "android::hardware::radio::V1_0::DataCallFailCause::UNSUPPORTED_APN_IN_CURRENT_PLMN"
    },
    {
     "enum_field_value" : 81,
     "name" : "android::hardware::radio::V1_0::DataCallFailCause::INVALID_TRANSACTION_ID"
    },
    {
     "enum_field_value" : 95,
     "name" : "android::hardware::radio::V1_0::DataCallFailCause::MESSAGE_INCORRECT_SEMANTIC"
    },
    {
     "enum_field_value" : 96,
     "name" : "android::hardware::radio::V1_0::DataCallFailCause::INVALID_MANDATORY_INFO"
    },
    {
     "enum_field_value" : 97,
     "name" : "android::hardware::radio::V1_0::DataCallFailCause::MESSAGE_TYPE_UNSUPPORTED"
    },
    {
     "enum_field_value" : 98,
     "name" : "android::hardware::radio::V1_0::DataCallFailCause::MSG_TYPE_NONCOMPATIBLE_STATE"
    },
    {
     "enum_field_value" : 99,
     "name" : "android::hardware::radio::V1_0::DataCallFailCause::UNKNOWN_INFO_ELEMENT"
    },
    {
     "enum_field_value" : 100,
     "name" : "android::hardware::radio::V1_0::DataCallFailCause::CONDITIONAL_IE_ERROR"
    },
    {
     "enum_field_value" : 101,
     "name" : "android::hardware::radio::V1_0::DataCallFailCause::MSG_AND_PROTOCOL_STATE_UNCOMPATIBLE"
    },
    {
     "enum_field_value" : 111,
     "name" : "android::hardware::radio::V1_0::DataCallFailCause::PROTOCOL_ERRORS"
    },
    {
     "enum_field_value" : 112,
     "name" : "android::hardware::radio::V1_0::DataCallFailCause::APN_TYPE_CONFLICT"
    },
    {
     "enum_field_value" : 113,
     "name" : "android::hardware::radio::V1_0::DataCallFailCause::INVALID_PCSCF_ADDR"
    },
    {
     "enum_field_value" : 114,
     "name" : "android::hardware::radio::V1_0::DataCallFailCause::INTERNAL_CALL_PREEMPT_BY_HIGH_PRIO_APN"
    },
    {
     "enum_field_value" : 115,
     "name" : "android::hardware::radio::V1_0::DataCallFailCause::EMM_ACCESS_BARRED"
    },
    {
     "enum_field_value" : 116,
     "name" : "android::hardware::radio::V1_0::DataCallFailCause::EMERGENCY_IFACE_ONLY"
    },
    {
     "enum_field_value" : 117,
     "name" : "android::hardware::radio::V1_0::DataCallFailCause::IFACE_MISMATCH"
    },
    {
     "enum_field_value" : 118,
     "name" : "android::hardware::radio::V1_0::DataCallFailCause::COMPANION_IFACE_IN_USE"
    },
    {
     "enum_field_value" : 119,
     "name" : "android::hardware::radio::V1_0::DataCallFailCause::IP_ADDRESS_MISMATCH"
    },
    {
     "enum_field_value" : 120,
     "name" : "android::hardware::radio::V1_0::DataCallFailCause::IFACE_AND_POL_FAMILY_MISMATCH"
    },
    {
     "enum_field_value" : 121,
     "name" : "android::hardware::radio::V1_0::DataCallFailCause::EMM_ACCESS_BARRED_INFINITE_RETRY"
    },
    {
     "enum_field_value" : 122,
     "name" : "android::hardware::radio::V1_0::DataCallFailCause::AUTH_FAILURE_ON_EMERGENCY_CALL"
    },
    {
     "enum_field_value" : 4097,
     "name" : "android::hardware::radio::V1_0::DataCallFailCause::OEM_DCFAILCAUSE_1"
    },
    {
     "enum_field_value" : 4098,
     "name" : "android::hardware::radio::V1_0::DataCallFailCause::OEM_DCFAILCAUSE_2"
    },
    {
     "enum_field_value" : 4099,
     "name" : "android::hardware::radio::V1_0::DataCallFailCause::OEM_DCFAILCAUSE_3"
    },
    {
     "enum_field_value" : 4100,
     "name" : "android::hardware::radio::V1_0::DataCallFailCause::OEM_DCFAILCAUSE_4"
    },
    {
     "enum_field_value" : 4101,
     "name" : "android::hardware::radio::V1_0::DataCallFailCause::OEM_DCFAILCAUSE_5"
    },
    {
     "enum_field_value" : 4102,
     "name" : "android::hardware::radio::V1_0::DataCallFailCause::OEM_DCFAILCAUSE_6"
    },
    {
     "enum_field_value" : 4103,
     "name" : "android::hardware::radio::V1_0::DataCallFailCause::OEM_DCFAILCAUSE_7"
    },
    {
     "enum_field_value" : 4104,
     "name" : "android::hardware::radio::V1_0::DataCallFailCause::OEM_DCFAILCAUSE_8"
    },
    {
     "enum_field_value" : 4105,
     "name" : "android::hardware::radio::V1_0::DataCallFailCause::OEM_DCFAILCAUSE_9"
    },
    {
     "enum_field_value" : 4106,
     "name" : "android::hardware::radio::V1_0::DataCallFailCause::OEM_DCFAILCAUSE_10"
    },
    {
     "enum_field_value" : 4107,
     "name" : "android::hardware::radio::V1_0::DataCallFailCause::OEM_DCFAILCAUSE_11"
    },
    {
     "enum_field_value" : 4108,
     "name" : "android::hardware::radio::V1_0::DataCallFailCause::OEM_DCFAILCAUSE_12"
    },
    {
     "enum_field_value" : 4109,
     "name" : "android::hardware::radio::V1_0::DataCallFailCause::OEM_DCFAILCAUSE_13"
    },
    {
     "enum_field_value" : 4110,
     "name" : "android::hardware::radio::V1_0::DataCallFailCause::OEM_DCFAILCAUSE_14"
    },
    {
     "enum_field_value" : 4111,
     "name" : "android::hardware::radio::V1_0::DataCallFailCause::OEM_DCFAILCAUSE_15"
    },
    {
     "enum_field_value" : -1,
     "name" : "android::hardware::radio::V1_0::DataCallFailCause::VOICE_REGISTRATION_FAIL"
    },
    {
     "enum_field_value" : -2,
     "name" : "android::hardware::radio::V1_0::DataCallFailCause::DATA_REGISTRATION_FAIL"
    },
    {
     "enum_field_value" : -3,
     "name" : "android::hardware::radio::V1_0::DataCallFailCause::SIGNAL_LOST"
    },
    {
     "enum_field_value" : -4,
     "name" : "android::hardware::radio::V1_0::DataCallFailCause::PREF_RADIO_TECH_CHANGED"
    },
    {
     "enum_field_value" : -5,
     "name" : "android::hardware::radio::V1_0::DataCallFailCause::RADIO_POWER_OFF"
    },
    {
     "enum_field_value" : -6,
     "name" : "android::hardware::radio::V1_0::DataCallFailCause::TETHERED_CALL_ACTIVE"
    },
    {
     "enum_field_value" : 65535,
     "name" : "android::hardware::radio::V1_0::DataCallFailCause::ERROR_UNSPECIFIED"
    }
   ],
   "linker_set_key" : "_ZTIN7android8hardware5radio4V1_017DataCallFailCauseE",
   "name" : "android::hardware::radio::V1_0::DataCallFailCause",
   "referenced_type" : "_ZTIN7android8hardware5radio4V1_017DataCallFailCauseE",
   "self_type" : "_ZTIN7android8hardware5radio4V1_017DataCallFailCauseE",
   "size" : 4,
   "source_file" : "/out/soong/.intermediates/hardware/interfaces/radio/1.0/android.hardware.radio@1.0_genc++_headers/gen/android/hardware/radio/1.0/types.h",
   "underlying_type" : "_ZTIi"
  },
  {
   "alignment" : 4,
   "enum_fields" :
   [
    {
     "enum_field_value" : 1,
     "name" : "android::hardware::radio::V1_0::LastCallFailCause::UNOBTAINABLE_NUMBER"
    },
    {
     "enum_field_value" : 3,
     "name" : "android::hardware::radio::V1_0::LastCallFailCause::NO_ROUTE_TO_DESTINATION"
    },
    {
     "enum_field_value" : 6,
     "name" : "android::hardware::radio::V1_0::LastCallFailCause::CHANNEL_UNACCEPTABLE"
    },
    {
     "enum_field_value" : 8,
     "name" : "android::hardware::radio::V1_0::LastCallFailCause::OPERATOR_DETERMINED_BARRING"
    },
    {
     "enum_field_value" : 16,
     "name" : "android::hardware::radio::V1_0::LastCallFailCause::NORMAL"
    },
    {
     "enum_field_value" : 17,
     "name" : "android::hardware::radio::V1_0::LastCallFailCause::BUSY"
    },
    {
     "enum_field_value" : 18,
     "name" : "android::hardware::radio::V1_0::LastCallFailCause::NO_USER_RESPONDING"
    },
    {
     "enum_field_value" : 19,
     "name" : "android::hardware::radio::V1_0::LastCallFailCause::NO_ANSWER_FROM_USER"
    },
    {
     "enum_field_value" : 21,
     "name" : "android::hardware::radio::V1_0::LastCallFailCause::CALL_REJECTED"
    },
    {
     "enum_field_value" : 22,
     "name" : "android::hardware::radio::V1_0::LastCallFailCause::NUMBER_CHANGED"
    },
    {
     "enum_field_value" : 25,
     "name" : "android::hardware::radio::V1_0::LastCallFailCause::PREEMPTION"
    },
    {
     "enum_field_value" : 27,
     "name" : "android::hardware::radio::V1_0::LastCallFailCause::DESTINATION_OUT_OF_ORDER"
    },
    {
     "enum_field_value" : 28,
     "name" : "android::hardware::radio::V1_0::LastCallFailCause::INVALID_NUMBER_FORMAT"
    },
    {
     "enum_field_value" : 29,
     "name" : "android::hardware::radio::V1_0::LastCallFailCause::FACILITY_REJECTED"
    },
    {
     "enum_field_value" : 30,
     "name" : "android::hardware::radio::V1_0::LastCallFailCause::RESP_TO_STATUS_ENQUIRY"
    },
    {
     "enum_field_value" : 31,
     "name" : "android::hardware::radio::V1_0::LastCallFailCause::NORMAL_UNSPECIFIED"
    },
    {
     "enum_field_value" : 34,
     "name" : "android::hardware::radio::V1_0::LastCallFailCause::CONGESTION"
    },
    {
     "enum_field_value" : 38,
     "name" : "android::hardware::radio::V1_0::LastCallFailCause::NETWORK_OUT_OF_ORDER"
    },
    {
     "enum_field_value" : 41,
     "name" : "android::hardware::radio::V1_0::LastCallFailCause::TEMPORARY_FAILURE"
    },
    {
     "enum_field_value" : 42,
     "name" : "android::hardware::radio::V1_0::LastCallFailCause::SWITCHING_EQUIPMENT_CONGESTION"
    },
    {
     "enum_field_value" : 43,
     "name" : "android::hardware::radio::V1_0::LastCallFailCause::ACCESS_INFORMATION_DISCARDED"
    },
    {
     "enum_field_value" : 44,
     "name" : "android::hardware::radio::V1_0::LastCallFailCause::REQUESTED_CIRCUIT_OR_CHANNEL_NOT_AVAILABLE"
    },
    {
     "enum_field_value" : 47,
     "name" : "android::hardware::radio::V1_0::LastCallFailCause::RESOURCES_UNAVAILABLE_OR_UNSPECIFIED"
    },
    {
     "enum_field_value" : 49,
     "name" : "android::hardware::radio::V1_0::LastCallFailCause::QOS_UNAVAILABLE"
    },
    {
     "enum_field_value" : 50,
     "name" : "android::hardware::radio::V1_0::LastCallFailCause::REQUESTED_FACILITY_NOT_SUBSCRIBED"
    },
    {
     "enum_field_value" : 55,
     "name" : "android::hardware::radio::V1_0::LastCallFailCause::INCOMING_CALLS_BARRED_WITHIN_CUG"
    },
    {
     "enum_field_value" : 57,
     "name" : "android::hardware::radio::V1_0::LastCallFailCause::BEARER_CAPABILITY_NOT_AUTHORIZED"
    },
    {
     "enum_field_value" : 58,
     "name" : "android::hardware::radio::V1_0::LastCallFailCause::BEARER_CAPABILITY_UNAVAILABLE"
    },
    {
     "enum_field_value" : 63,
     "name" : "android::hardware::radio::V1_0::LastCallFailCause::SERVICE_OPTION_NOT_AVAILABLE"
    },
    {
     "enum_field_value" : 65,
     "name" : "android::hardware::radio::V1_0::LastCallFailCause::BEARER_SERVICE_NOT_IMPLEMENTED"
    },
    {
     "enum_field_value" : 68,
     "name" : "android::hardware::radio::V1_0::LastCallFailCause::ACM_LIMIT_EXCEEDED"
    },
    {
     "enum_field_value" : 69,
     "name" : "android::hardware::radio::V1_0::LastCallFailCause::REQUESTED_FACILITY_NOT_IMPLEMENTED"
    },
    {
     "enum_field_value" : 70,
     "name" : "android::hardware::radio::V1_0::LastCallFailCause::ONLY_DIGITAL_INFORMATION_BEARER_AVAILABLE"
    },
    {
     "enum_field_value" : 79,
     "name" : "android::hardware::radio::V1_0::LastCallFailCause::SERVICE_OR_OPTION_NOT_IMPLEMENTED"
    },
    {
     "enum_field_value" : 81,
     "name" : "android::hardware::radio::V1_0::LastCallFailCause::INVALID_TRANSACTION_IDENTIFIER"
    },
    {
     "enum_field_value" : 87,
     "name" : "android::hardware::radio::V1_0::LastCallFailCause::USER_NOT_MEMBER_OF_CUG"
    },
    {
     "enum_field_value" : 88,
     "name" : "android::hardware::radio::V1_0::LastCallFailCause::INCOMPATIBLE_DESTINATION"
    },
    {
     "enum_field_value" : 91,
     "name" : "android::hardware::radio::V1_0::LastCallFailCause::INVALID_TRANSIT_NW_SELECTION"
    },
    {
     "enum_field_value" : 95,
     "name" : "android::hardware::radio::V1_0::LastCallFailCause::SEMANTICALLY_INCORRECT_MESSAGE"
    },
    {
     "enum_field_value" : 96,
     "name" : "android::hardware::radio::V1_0::LastCallFailCause::INVALID_MANDATORY_INFORMATION"
    },
    {
     "enum_field_value" : 97,
     "name" : "android::hardware::radio::V1_0::LastCallFailCause::MESSAGE_TYPE_NON_IMPLEMENTED"
    },
    {
     "enum_field_value" : 98,
     "name" : "android::hardware::radio::V1_0::LastCallFailCause::MESSAGE_TYPE_NOT_COMPATIBLE_WITH_PROTOCOL_STATE"
    },
    {
     "enum_field_value" : 99,
     "name" : "android::hardware::radio::V1_0::LastCallFailCause::INFORMATION_ELEMENT_NON_EXISTENT"
    },
    {
     "enum_field_value" : 100,
     "name" : "android::hardware::radio::V1_0::LastCallFailCause::CONDITIONAL_IE_ERROR"
    },
    {
     "enum_field_value" : 101,
     "name" : "android::hardware::radio::V1_0::LastCallFailCause::MESSAGE_NOT_COMPATIBLE_WITH_PROTOCOL_STATE"
    },
    {
     "enum_field_value" : 102,
     "name" : "android::hardware::radio::V1_0::LastCallFailCause::RECOVERY_ON_TIMER_EXPIRED"
    },
    {
     "enum_field_value" : 111,
     "name" : "android::hardware::radio::V1_0::LastCallFailCause::PROTOCOL_ERROR_UNSPECIFIED"
    },
    {
     "enum_field_value" : 127,
     "name" : "android::hardware::radio::V1_0::LastCallFailCause::INTERWORKING_UNSPECIFIED"
    },
    {
     "enum_field_value" : 240,
     "name" : "android::hardware::radio::V1_0::LastCallFailCause::CALL_BARRED"
    },
    {
     "enum_field_value" : 241,
     "name" : "android::hardware::radio::V1_0::LastCallFailCause::FDN_BLOCKED"
    },
    {
     "enum_field_value" : 242,
     "name" : "android::hardware::radio::V1_0::LastCallFailCause::IMSI_UNKNOWN_IN_VLR"
    },
    {
     "enum_field_value" : 243,
     "name" : "android::hardware::radio::V1_0::LastCallFailCause::IMEI_NOT_ACCEPTED"
    },
    {
     "enum_field_value" : 244,
     "name" : "android::hardware::radio::V1_0::LastCallFailCause::DIAL_MODIFIED_TO_USSD"
    },
    {
     "enum_field_value" : 245,
     "name" : "android::hardware::radio::V1_0::LastCallFailCause::DIAL_MODIFIED_TO_SS"
    },
    {
     "enum_field_value" : 246,
     "name" : "android::hardware::radio::V1_0::LastCallFailCause::DIAL_MODIFIED_TO_DIAL"
    },
    {
     "enum_field_value" : 247,
     "name" : "android::hardware::radio::V1_0::LastCallFailCause::RADIO_OFF"
    },
    {
     "enum_field_value" : 248,
     "name" : "android::hardware::radio::V1_0::LastCallFailCause::OUT_OF_SERVICE"
    },
    {
     "enum_field_value" : 249,
     "name" : "android::hardware::radio::V1_0::LastCallFailCause::NO_VALID_SIM"
    },
    {
     "enum_field_value" : 250,
     "name" : "android::hardware::radio::V1_0::LastCallFailCause::RADIO_INTERNAL_ERROR"
    },
    {
     "enum_field_value" : 251,
     "name" : "android::hardware::radio::V1_0::LastCallFailCause::NETWORK_RESP_TIMEOUT"
    },
    {
     "enum_field_value" : 252,
     "name" : "android::hardware::radio::V1_0::LastCallFailCause::NETWORK_REJECT"
    },
    {
     "enum_field_value" : 253,
     "name" : "android::hardware::radio::V1_0::LastCallFailCause::RADIO_ACCESS_FAILURE"
    },
    {
     "enum_field_value" : 254,
     "name" : "android::hardware::radio::V1_0::LastCallFailCause::RADIO_LINK_FAILURE"
    },
    {
     "enum_field_value" : 255,
     "name" : "android::hardware::radio::V1_0::LastCallFailCause::RADIO_LINK_LOST"
    },
    {
     "enum_field_value" : 256,
     "name" : "android::hardware::radio::V1_0::LastCallFailCause::RADIO_UPLINK_FAILURE"
    },
    {
     "enum_field_value" : 257,
     "name" : "android::hardware::radio::V1_0::LastCallFailCause::RADIO_SETUP_FAILURE"
    },
    {
     "enum_field_value" : 258,
     "name" : "android::hardware::radio::V1_0::LastCallFailCause::RADIO_RELEASE_NORMAL"
    },
    {
     "enum_field_value" : 259,
     "name" : "android::hardware::radio::V1_0::LastCallFailCause::RADIO_RELEASE_ABNORMAL"
    },
    {
     "enum_field_value" : 260,
     "name" : "android::hardware::radio::V1_0::LastCallFailCause::ACCESS_CLASS_BLOCKED"
    },
    {
     "enum_field_value" : 261,
     "name" : "android::hardware::radio::V1_0::LastCallFailCause::NETWORK_DETACH"
    },
    {
     "enum_field_value" : 1000,
     "name" : "android::hardware::radio::V1_0::LastCallFailCause::CDMA_LOCKED_UNTIL_POWER_CYCLE"
    },
    {
     "enum_field_value" : 1001,
     "name" : "android::hardware::radio::V1_0::LastCallFailCause::CDMA_DROP"
    },
    {
     "enum_field_value" : 1002,
     "name" : "android::hardware::radio::V1_0::LastCallFailCause::CDMA_INTERCEPT"
    },
    {
     "enum_field_value" : 1003,
     "name" : "android::hardware::radio::V1_0::LastCallFailCause::CDMA_REORDER"
    },
    {
     "enum_field_value" : 1004,
     "name" : "android::hardware::radio::V1_0::LastCallFailCause::CDMA_SO_REJECT"
    },
    {
     "enum_field_value" : 1005,
     "name" : "android::hardware::radio::V1_0::LastCallFailCause::CDMA_RETRY_ORDER"
    },
    {
     "enum_field_value" : 1006,
     "name" : "android::hardware::radio::V1_0::LastCallFailCause::CDMA_ACCESS_FAILURE"
    },
    {
     "enum_field_value" : 1007,
     "name" : "android::hardware::radio::V1_0::LastCallFailCause::CDMA_PREEMPTED"
    },
    {
     "enum_field_value" : 1008,
     "name" : "android::hardware::radio::V1_0::LastCallFailCause::CDMA_NOT_EMERGENCY"
    },
    {
     "enum_field_value" : 1009,
     "name" : "android::hardware::radio::V1_0::LastCallFailCause::CDMA_ACCESS_BLOCKED"
    },
    {
     "enum_field_value" : 61441,
     "name" : "android::hardware::radio::V1_0::LastCallFailCause::OEM_CAUSE_1"
    },
    {
     "enum_field_value" : 61442,
     "name" : "android::hardware::radio::V1_0::LastCallFailCause::OEM_CAUSE_2"
    },
    {
     "enum_field_value" : 61443,
     "name" : "android::hardware::radio::V1_0::LastCallFailCause::OEM_CAUSE_3"
    },
    {
     "enum_field_value" : 61444,
     "name" : "android::hardware::radio::V1_0::LastCallFailCause::OEM_CAUSE_4"
    },
    {
     "enum_field_value" : 61445,
     "name" : "android::hardware::radio::V1_0::LastCallFailCause::OEM_CAUSE_5"
    },
    {
     "enum_field_value" : 61446,
     "name" : "android::hardware::radio::V1_0::LastCallFailCause::OEM_CAUSE_6"
    },
    {
     "enum_field_value" : 61447,
     "name" : "android::hardware::radio::V1_0::LastCallFailCause::OEM_CAUSE_7"
    },
    {
     "enum_field_value" : 61448,
     "name" : "android::hardware::radio::V1_0::LastCallFailCause::OEM_CAUSE_8"
    },
    {
     "enum_field_value" : 61449,
     "name" : "android::hardware::radio::V1_0::LastCallFailCause::OEM_CAUSE_9"
    },
    {
     "enum_field_value" : 61450,
     "name" : "android::hardware::radio::V1_0::LastCallFailCause::OEM_CAUSE_10"
    },
    {
     "enum_field_value" : 61451,
     "name" : "android::hardware::radio::V1_0::LastCallFailCause::OEM_CAUSE_11"
    },
    {
     "enum_field_value" : 61452,
     "name" : "android::hardware::radio::V1_0::LastCallFailCause::OEM_CAUSE_12"
    },
    {
     "enum_field_value" : 61453,
     "name" : "android::hardware::radio::V1_0::LastCallFailCause::OEM_CAUSE_13"
    },
    {
     "enum_field_value" : 61454,
     "name" : "android::hardware::radio::V1_0::LastCallFailCause::OEM_CAUSE_14"
    },
    {
     "enum_field_value" : 61455,
     "name" : "android::hardware::radio::V1_0::LastCallFailCause::OEM_CAUSE_15"
    },
    {
     "enum_field_value" : 65535,
     "name" : "android::hardware::radio::V1_0::LastCallFailCause::ERROR_UNSPECIFIED"
    }
   ],
   "linker_set_key" : "_ZTIN7android8hardware5radio4V1_017LastCallFailCauseE",
   "name" : "android::hardware::radio::V1_0::LastCallFailCause",
   "referenced_type" : "_ZTIN7android8hardware5radio4V1_017LastCallFailCauseE",
   "self_type" : "_ZTIN7android8hardware5radio4V1_017LastCallFailCauseE",
   "size" : 4,
   "source_file" : "/out/soong/.intermediates/hardware/interfaces/radio/1.0/android.hardware.radio@1.0_genc++_headers/gen/android/hardware/radio/1.0/types.h",
   "underlying_type" : "_ZTIi"
  },
  {
   "alignment" : 4,
   "enum_fields" :
   [
    {
     "enum_field_value" : 1,
     "name" : "android::hardware::radio::V1_0::RadioAccessFamily::UNKNOWN"
    },
    {
     "enum_field_value" : 2,
     "name" : "android::hardware::radio::V1_0::RadioAccessFamily::GPRS"
    },
    {
     "enum_field_value" : 4,
     "name" : "android::hardware::radio::V1_0::RadioAccessFamily::EDGE"
    },
    {
     "enum_field_value" : 8,
     "name" : "android::hardware::radio::V1_0::RadioAccessFamily::UMTS"
    },
    {
     "enum_field_value" : 16,
     "name" : "android::hardware::radio::V1_0::RadioAccessFamily::IS95A"
    },
    {
     "enum_field_value" : 32,
     "name" : "android::hardware::radio::V1_0::RadioAccessFamily::IS95B"
    },
    {
     "enum_field_value" : 64,
     "name" : "android::hardware::radio::V1_0::RadioAccessFamily::ONE_X_RTT"
    },
    {
     "enum_field_value" : 128,
     "name" : "android::hardware::radio::V1_0::RadioAccessFamily::EVDO_0"
    },
    {
     "enum_field_value" : 256,
     "name" : "android::hardware::radio::V1_0::RadioAccessFamily::EVDO_A"
    },
    {
     "enum_field_value" : 512,
     "name" : "android::hardware::radio::V1_0::RadioAccessFamily::HSDPA"
    },
    {
     "enum_field_value" : 1024,
     "name" : "android::hardware::radio::V1_0::RadioAccessFamily::HSUPA"
    },
    {
     "enum_field_value" : 2048,
     "name" : "android::hardware::radio::V1_0::RadioAccessFamily::HSPA"
    },
    {
     "enum_field_value" : 4096,
     "name" : "android::hardware::radio::V1_0::RadioAccessFamily::EVDO_B"
    },
    {
     "enum_field_value" : 8192,
     "name" : "android::hardware::radio::V1_0::RadioAccessFamily::EHRPD"
    },
    {
     "enum_field_value" : 16384,
     "name" : "android::hardware::radio::V1_0::RadioAccessFamily::LTE"
    },
    {
     "enum_field_value" : 32768,
     "name" : "android::hardware::radio::V1_0::RadioAccessFamily::HSPAP"
    },
    {
     "enum_field_value" : 65536,
     "name" : "android::hardware::radio::V1_0::RadioAccessFamily::GSM"
    },
    {
     "enum_field_value" : 131072,
     "name" : "android::hardware::radio::V1_0::RadioAccessFamily::TD_SCDMA"
    },
    {
     "enum_field_value" : 524288,
     "name" : "android::hardware::radio::V1_0::RadioAccessFamily::LTE_CA"
    }
   ],
   "linker_set_key" : "_ZTIN7android8hardware5radio4V1_017RadioAccessFamilyE",
   "name" : "android::hardware::radio::V1_0::RadioAccessFamily",
   "referenced_type" : "_ZTIN7android8hardware5radio4V1_017RadioAccessFamilyE",
   "self_type" : "_ZTIN7android8hardware5radio4V1_017RadioAccessFamilyE",
   "size" : 4,
   "source_file" : "/out/soong/.intermediates/hardware/interfaces/radio/1.0/android.hardware.radio@1.0_genc++_headers/gen/android/hardware/radio/1.0/types.h",
   "underlying_type" : "_ZTIi"
  },
  {
   "alignment" : 4,
   "enum_fields" :
   [
    {
     "enum_field_value" : 36,
     "name" : "android::hardware::radio::V1_0::RadioCdmaSmsConst::ADDRESS_MAX"
    },
    {
     "enum_field_value" : 36,
     "name" : "android::hardware::radio::V1_0::RadioCdmaSmsConst::SUBADDRESS_MAX"
    },
    {
     "enum_field_value" : 255,
     "name" : "android::hardware::radio::V1_0::RadioCdmaSmsConst::BEARER_DATA_MAX"
    },
    {
     "enum_field_value" : 128,
     "name" : "android::hardware::radio::V1_0::RadioCdmaSmsConst::UDH_MAX_SND_SIZE"
    },
    {
     "enum_field_value" : 131,
     "name" : "android::hardware::radio::V1_0::RadioCdmaSmsConst::UDH_EO_DATA_SEGMENT_MAX"
    },
    {
     "enum_field_value" : 7,
     "name" : "android::hardware::radio::V1_0::RadioCdmaSmsConst::MAX_UD_HEADERS"
    },
    {
     "enum_field_value" : 229,
     "name" : "android::hardware::radio::V1_0::RadioCdmaSmsConst::USER_DATA_MAX"
    },
    {
     "enum_field_value" : 128,
     "name" : "android::hardware::radio::V1_0::RadioCdmaSmsConst::UDH_LARGE_PIC_SIZE"
    },
    {
     "enum_field_value" : 32,
     "name" : "android::hardware::radio::V1_0::RadioCdmaSmsConst::UDH_SMALL_PIC_SIZE"
    },
    {
     "enum_field_value" : 134,
     "name" : "android::hardware::radio::V1_0::RadioCdmaSmsConst::UDH_VAR_PIC_SIZE"
    },
    {
     "enum_field_value" : 4,
     "name" : "android::hardware::radio::V1_0::RadioCdmaSmsConst::UDH_ANIM_NUM_BITMAPS"
    },
    {
     "enum_field_value" : 32,
     "name" : "android::hardware::radio::V1_0::RadioCdmaSmsConst::UDH_LARGE_BITMAP_SIZE"
    },
    {
     "enum_field_value" : 8,
     "name" : "android::hardware::radio::V1_0::RadioCdmaSmsConst::UDH_SMALL_BITMAP_SIZE"
    },
    {
     "enum_field_value" : 226,
     "name" : "android::hardware::radio::V1_0::RadioCdmaSmsConst::UDH_OTHER_SIZE"
    },
    {
     "enum_field_value" : 4,
     "name" : "android::hardware::radio::V1_0::RadioCdmaSmsConst::IP_ADDRESS_SIZE"
    }
   ],
   "linker_set_key" : "_ZTIN7android8hardware5radio4V1_017RadioCdmaSmsConstE",
   "name" : "android::hardware::radio::V1_0::RadioCdmaSmsConst",
   "referenced_type" : "_ZTIN7android8hardware5radio4V1_017RadioCdmaSmsConstE",
   "self_type" : "_ZTIN7android8hardware5radio4V1_017RadioCdmaSmsConstE",
   "size" : 4,
   "source_file" : "/out/soong/.intermediates/hardware/interfaces/radio/1.0/android.hardware.radio@1.0_genc++_headers/gen/android/hardware/radio/1.0/types.h",
   "underlying_type" : "_ZTIi"
  },
  {
   "alignment" : 4,
   "enum_fields" :
   [
    {
     "enum_field_value" : 0,
     "name" : "android::hardware::radio::V1_0::RadioResponseType::SOLICITED"
    },
    {
     "enum_field_value" : 1,
     "name" : "android::hardware::radio::V1_0::RadioResponseType::SOLICITED_ACK"
    },
    {
     "enum_field_value" : 2,
     "name" : "android::hardware::radio::V1_0::RadioResponseType::SOLICITED_ACK_EXP"
    }
   ],
   "linker_set_key" : "_ZTIN7android8hardware5radio4V1_017RadioResponseTypeE",
   "name" : "android::hardware::radio::V1_0::RadioResponseType",
   "referenced_type" : "_ZTIN7android8hardware5radio4V1_017RadioResponseTypeE",
   "self_type" : "_ZTIN7android8hardware5radio4V1_017RadioResponseTypeE",
   "size" : 4,
   "source_file" : "/out/soong/.intermediates/hardware/interfaces/radio/1.0/android.hardware.radio@1.0_genc++_headers/gen/android/hardware/radio/1.0/types.h",
   "underlying_type" : "_ZTIi"
  },
  {
   "alignment" : 4,
   "enum_fields" :
   [
    {
     "enum_field_value" : 0,
     "name" : "android::hardware::radio::V1_0::SapDisconnectType::GRACEFUL"
    },
    {
     "enum_field_value" : 1,
     "name" : "android::hardware::radio::V1_0::SapDisconnectType::IMMEDIATE"
    }
   ],
   "linker_set_key" : "_ZTIN7android8hardware5radio4V1_017SapDisconnectTypeE",
   "name" : "android::hardware::radio::V1_0::SapDisconnectType",
   "referenced_type" : "_ZTIN7android8hardware5radio4V1_017SapDisconnectTypeE",
   "self_type" : "_ZTIN7android8hardware5radio4V1_017SapDisconnectTypeE",
   "size" : 4,
   "source_file" : "/out/soong/.intermediates/hardware/interfaces/radio/1.0/android.hardware.radio@1.0_genc++_headers/gen/android/hardware/radio/1.0/types.h",
   "underlying_type" : "_ZTIi"
  },
  {
   "alignment" : 4,
   "enum_fields" :
   [
    {
     "enum_field_value" : 0,
     "name" : "android::hardware::radio::V1_0::SsTeleserviceType::ALL_TELE_AND_BEARER_SERVICES"
    },
    {
     "enum_field_value" : 1,
     "name" : "android::hardware::radio::V1_0::SsTeleserviceType::ALL_TELESEVICES"
    },
    {
     "enum_field_value" : 2,
     "name" : "android::hardware::radio::V1_0::SsTeleserviceType::TELEPHONY"
    },
    {
     "enum_field_value" : 3,
     "name" : "android::hardware::radio::V1_0::SsTeleserviceType::ALL_DATA_TELESERVICES"
    },
    {
     "enum_field_value" : 4,
     "name" : "android::hardware::radio::V1_0::SsTeleserviceType::SMS_SERVICES"
    },
    {
     "enum_field_value" : 5,
     "name" : "android::hardware::radio::V1_0::SsTeleserviceType::ALL_TELESERVICES_EXCEPT_SMS"
    }
   ],
   "linker_set_key" : "_ZTIN7android8hardware5radio4V1_017SsTeleserviceTypeE",
   "name" : "android::hardware::radio::V1_0::SsTeleserviceType",
   "referenced_type" : "_ZTIN7android8hardware5radio4V1_017SsTeleserviceTypeE",
   "self_type" : "_ZTIN7android8hardware5radio4V1_017SsTeleserviceTypeE",
   "size" : 4,
   "source_file" : "/out/soong/.intermediates/hardware/interfaces/radio/1.0/android.hardware.radio@1.0_genc++_headers/gen/android/hardware/radio/1.0/types.h",
   "underlying_type" : "_ZTIi"
  },
  {
   "alignment" : 4,
   "enum_fields" :
   [
    {
     "enum_field_value" : 0,
     "name" : "android::hardware::radio::V1_0::HardwareConfigType::MODEM"
    },
    {
     "enum_field_value" : 1,
     "name" : "android::hardware::radio::V1_0::HardwareConfigType::SIM"
    }
   ],
   "linker_set_key" : "_ZTIN7android8hardware5radio4V1_018HardwareConfigTypeE",
   "name" : "android::hardware::radio::V1_0::HardwareConfigType",
   "referenced_type" : "_ZTIN7android8hardware5radio4V1_018HardwareConfigTypeE",
   "self_type" : "_ZTIN7android8hardware5radio4V1_018HardwareConfigTypeE",
   "size" : 4,
   "source_file" : "/out/soong/.intermediates/hardware/interfaces/radio/1.0/android.hardware.radio@1.0_genc++_headers/gen/android/hardware/radio/1.0/types.h",
   "underlying_type" : "_ZTIi"
  },
  {
   "alignment" : 4,
   "enum_fields" :
   [
    {
     "enum_field_value" : 0,
     "name" : "android::hardware::radio::V1_0::SmsWriteArgsStatus::REC_UNREAD"
    },
    {
     "enum_field_value" : 1,
     "name" : "android::hardware::radio::V1_0::SmsWriteArgsStatus::REC_READ"
    },
    {
     "enum_field_value" : 2,
     "name" : "android::hardware::radio::V1_0::SmsWriteArgsStatus::STO_UNSENT"
    },
    {
     "enum_field_value" : 3,
     "name" : "android::hardware::radio::V1_0::SmsWriteArgsStatus::STO_SENT"
    }
   ],
   "linker_set_key" : "_ZTIN7android8hardware5radio4V1_018SmsWriteArgsStatusE",
   "name" : "android::hardware::radio::V1_0::SmsWriteArgsStatus",
   "referenced_type" : "_ZTIN7android8hardware5radio4V1_018SmsWriteArgsStatusE",
   "self_type" : "_ZTIN7android8hardware5radio4V1_018SmsWriteArgsStatusE",
   "size" : 4,
   "source_file" : "/out/soong/.intermediates/hardware/interfaces/radio/1.0/android.hardware.radio@1.0_genc++_headers/gen/android/hardware/radio/1.0/types.h",
   "underlying_type" : "_ZTIi"
  },
  {
   "alignment" : 4,
   "enum_fields" :
   [
    {
     "enum_field_value" : 0,
     "name" : "android::hardware::radio::V1_0::DataProfileInfoType::COMMON"
    },
    {
     "enum_field_value" : 1,
     "name" : "android::hardware::radio::V1_0::DataProfileInfoType::THREE_GPP"
    },
    {
     "enum_field_value" : 2,
     "name" : "android::hardware::radio::V1_0::DataProfileInfoType::THREE_GPP2"
    }
   ],
   "linker_set_key" : "_ZTIN7android8hardware5radio4V1_019DataProfileInfoTypeE",
   "name" : "android::hardware::radio::V1_0::DataProfileInfoType",
   "referenced_type" : "_ZTIN7android8hardware5radio4V1_019DataProfileInfoTypeE",
   "self_type" : "_ZTIN7android8hardware5radio4V1_019DataProfileInfoTypeE",
   "size" : 4,
   "source_file" : "/out/soong/.intermediates/hardware/interfaces/radio/1.0/android.hardware.radio@1.0_genc++_headers/gen/android/hardware/radio/1.0/types.h",
   "underlying_type" : "_ZTIi"
  },
  {
   "alignment" : 4,
   "enum_fields" :
   [
    {
     "enum_field_value" : 0,
     "name" : "android::hardware::radio::V1_0::HardwareConfigState::ENABLED"
    },
    {
     "enum_field_value" : 1,
     "name" : "android::hardware::radio::V1_0::HardwareConfigState::STANDBY"
    },
    {
     "enum_field_value" : 2,
     "name" : "android::hardware::radio::V1_0::HardwareConfigState::DISABLED"
    }
   ],
   "linker_set_key" : "_ZTIN7android8hardware5radio4V1_019HardwareConfigStateE",
   "name" : "android::hardware::radio::V1_0::HardwareConfigState",
   "referenced_type" : "_ZTIN7android8hardware5radio4V1_019HardwareConfigStateE",
   "self_type" : "_ZTIN7android8hardware5radio4V1_019HardwareConfigStateE",
   "size" : 4,
   "source_file" : "/out/soong/.intermediates/hardware/interfaces/radio/1.0/android.hardware.radio@1.0_genc++_headers/gen/android/hardware/radio/1.0/types.h",
   "underlying_type" : "_ZTIi"
  },
  {
   "alignment" : 4,
   "enum_fields" :
   [
    {
     "enum_field_value" : 0,
     "name" : "android::hardware::radio::V1_0::RadioIndicationType::UNSOLICITED"
    },
    {
     "enum_field_value" : 1,
     "name" : "android::hardware::radio::V1_0::RadioIndicationType::UNSOLICITED_ACK_EXP"
    }
   ],
   "linker_set_key" : "_ZTIN7android8hardware5radio4V1_019RadioIndicationTypeE",
   "name" : "android::hardware::radio::V1_0::RadioIndicationType",
   "referenced_type" : "_ZTIN7android8hardware5radio4V1_019RadioIndicationTypeE",
   "self_type" : "_ZTIN7android8hardware5radio4V1_019RadioIndicationTypeE",
   "size" : 4,
   "source_file" : "/out/soong/.intermediates/hardware/interfaces/radio/1.0/android.hardware.radio@1.0_genc++_headers/gen/android/hardware/radio/1.0/types.h",
   "underlying_type" : "_ZTIi"
  },
  {
   "alignment" : 4,
   "enum_fields" :
   [
    {
     "enum_field_value" : 0,
     "name" : "android::hardware::radio::V1_0::SapTransferProtocol::T0"
    },
    {
     "enum_field_value" : 1,
     "name" : "android::hardware::radio::V1_0::SapTransferProtocol::T1"
    }
   ],
   "linker_set_key" : "_ZTIN7android8hardware5radio4V1_019SapTransferProtocolE",
   "name" : "android::hardware::radio::V1_0::SapTransferProtocol",
   "referenced_type" : "_ZTIN7android8hardware5radio4V1_019SapTransferProtocolE",
   "self_type" : "_ZTIN7android8hardware5radio4V1_019SapTransferProtocolE",
   "size" : 4,
   "source_file" : "/out/soong/.intermediates/hardware/interfaces/radio/1.0/android.hardware.radio@1.0_genc++_headers/gen/android/hardware/radio/1.0/types.h",
   "underlying_type" : "_ZTIi"
  },
  {
   "alignment" : 4,
   "enum_fields" :
   [
    {
     "enum_field_value" : 0,
     "name" : "android::hardware::radio::V1_0::PhoneRestrictedState::NONE"
    },
    {
     "enum_field_value" : 1,
     "name" : "android::hardware::radio::V1_0::PhoneRestrictedState::CS_EMERGENCY"
    },
    {
     "enum_field_value" : 2,
     "name" : "android::hardware::radio::V1_0::PhoneRestrictedState::CS_NORMAL"
    },
    {
     "enum_field_value" : 4,
     "name" : "android::hardware::radio::V1_0::PhoneRestrictedState::CS_ALL"
    },
    {
     "enum_field_value" : 16,
     "name" : "android::hardware::radio::V1_0::PhoneRestrictedState::PS_ALL"
    }
   ],
   "linker_set_key" : "_ZTIN7android8hardware5radio4V1_020PhoneRestrictedStateE",
   "name" : "android::hardware::radio::V1_0::PhoneRestrictedState",
   "referenced_type" : "_ZTIN7android8hardware5radio4V1_020PhoneRestrictedStateE",
   "self_type" : "_ZTIN7android8hardware5radio4V1_020PhoneRestrictedStateE",
   "size" : 4,
   "source_file" : "/out/soong/.intermediates/hardware/interfaces/radio/1.0/android.hardware.radio@1.0_genc++_headers/gen/android/hardware/radio/1.0/types.h",
   "underlying_type" : "_ZTIi"
  },
  {
   "alignment" : 4,
   "enum_fields" :
   [
    {
     "enum_field_value" : 0,
     "name" : "android::hardware::radio::V1_0::PreferredNetworkType::GSM_WCDMA"
    },
    {
     "enum_field_value" : 1,
     "name" : "android::hardware::radio::V1_0::PreferredNetworkType::GSM_ONLY"
    },
    {
     "enum_field_value" : 2,
     "name" : "android::hardware::radio::V1_0::PreferredNetworkType::WCDMA"
    },
    {
     "enum_field_value" : 3,
     "name" : "android::hardware::radio::V1_0::PreferredNetworkType::GSM_WCDMA_AUTO"
    },
    {
     "enum_field_value" : 4,
     "name" : "android::hardware::radio::V1_0::PreferredNetworkType::CDMA_EVDO_AUTO"
    },
    {
     "enum_field_value" : 5,
     "name" : "android::hardware::radio::V1_0::PreferredNetworkType::CDMA_ONLY"
    },
    {
     "enum_field_value" : 6,
     "name" : "android::hardware::radio::V1_0::PreferredNetworkType::EVDO_ONLY"
    },
    {
     "enum_field_value" : 7,
     "name" : "android::hardware::radio::V1_0::PreferredNetworkType::GSM_WCDMA_CDMA_EVDO_AUTO"
    },
    {
     "enum_field_value" : 8,
     "name" : "android::hardware::radio::V1_0::PreferredNetworkType::LTE_CDMA_EVDO"
    },
    {
     "enum_field_value" : 9,
     "name" : "android::hardware::radio::V1_0::PreferredNetworkType::LTE_GSM_WCDMA"
    },
    {
     "enum_field_value" : 10,
     "name" : "android::hardware::radio::V1_0::PreferredNetworkType::LTE_CMDA_EVDO_GSM_WCDMA"
    },
    {
     "enum_field_value" : 11,
     "name" : "android::hardware::radio::V1_0::PreferredNetworkType::LTE_ONLY"
    },
    {
     "enum_field_value" : 12,
     "name" : "android::hardware::radio::V1_0::PreferredNetworkType::LTE_WCDMA"
    },
    {
     "enum_field_value" : 13,
     "name" : "android::hardware::radio::V1_0::PreferredNetworkType::TD_SCDMA_ONLY"
    },
    {
     "enum_field_value" : 14,
     "name" : "android::hardware::radio::V1_0::PreferredNetworkType::TD_SCDMA_WCDMA"
    },
    {
     "enum_field_value" : 15,
     "name" : "android::hardware::radio::V1_0::PreferredNetworkType::TD_SCDMA_LTE"
    },
    {
     "enum_field_value" : 16,
     "name" : "android::hardware::radio::V1_0::PreferredNetworkType::TD_SCDMA_GSM"
    },
    {
     "enum_field_value" : 17,
     "name" : "android::hardware::radio::V1_0::PreferredNetworkType::TD_SCDMA_GSM_LTE"
    },
    {
     "enum_field_value" : 18,
     "name" : "android::hardware::radio::V1_0::PreferredNetworkType::TD_SCDMA_GSM_WCDMA"
    },
    {
     "enum_field_value" : 19,
     "name" : "android::hardware::radio::V1_0::PreferredNetworkType::TD_SCDMA_WCDMA_LTE"
    },
    {
     "enum_field_value" : 20,
     "name" : "android::hardware::radio::V1_0::PreferredNetworkType::TD_SCDMA_GSM_WCDMA_LTE"
    },
    {
     "enum_field_value" : 21,
     "name" : "android::hardware::radio::V1_0::PreferredNetworkType::TD_SCDMA_GSM_WCDMA_CDMA_EVDO_AUTO"
    },
    {
     "enum_field_value" : 22,
     "name" : "android::hardware::radio::V1_0::PreferredNetworkType::TD_SCDMA_LTE_CDMA_EVDO_GSM_WCDMA"
    }
   ],
   "linker_set_key" : "_ZTIN7android8hardware5radio4V1_020PreferredNetworkTypeE",
   "name" : "android::hardware::radio::V1_0::PreferredNetworkType",
   "referenced_type" : "_ZTIN7android8hardware5radio4V1_020PreferredNetworkTypeE",
   "self_type" : "_ZTIN7android8hardware5radio4V1_020PreferredNetworkTypeE",
   "size" : 4,
   "source_file" : "/out/soong/.intermediates/hardware/interfaces/radio/1.0/android.hardware.radio@1.0_genc++_headers/gen/android/hardware/radio/1.0/types.h",
   "underlying_type" : "_ZTIi"
  },
  {
   "alignment" : 4,
   "enum_fields" :
   [
    {
     "enum_field_value" : 0,
     "name" : "android::hardware::radio::V1_0::RadioCapabilityPhase::CONFIGURED"
    },
    {
     "enum_field_value" : 1,
     "name" : "android::hardware::radio::V1_0::RadioCapabilityPhase::START"
    },
    {
     "enum_field_value" : 2,
     "name" : "android::hardware::radio::V1_0::RadioCapabilityPhase::APPLY"
    },
    {
     "enum_field_value" : 3,
     "name" : "android::hardware::radio::V1_0::RadioCapabilityPhase::UNSOL_RSP"
    },
    {
     "enum_field_value" : 4,
     "name" : "android::hardware::radio::V1_0::RadioCapabilityPhase::FINISH"
    }
   ],
   "linker_set_key" : "_ZTIN7android8hardware5radio4V1_020RadioCapabilityPhaseE",
   "name" : "android::hardware::radio::V1_0::RadioCapabilityPhase",
   "referenced_type" : "_ZTIN7android8hardware5radio4V1_020RadioCapabilityPhaseE",
   "self_type" : "_ZTIN7android8hardware5radio4V1_020RadioCapabilityPhaseE",
   "size" : 4,
   "source_file" : "/out/soong/.intermediates/hardware/interfaces/radio/1.0/android.hardware.radio@1.0_genc++_headers/gen/android/hardware/radio/1.0/types.h",
   "underlying_type" : "_ZTIi"
  },
  {
   "alignment" : 4,
   "enum_fields" :
   [
    {
     "enum_field_value" : 0,
     "name" : "android::hardware::radio::V1_0::CallForwardInfoStatus::DISABLE"
    },
    {
     "enum_field_value" : 1,
     "name" : "android::hardware::radio::V1_0::CallForwardInfoStatus::ENABLE"
    },
    {
     "enum_field_value" : 2,
     "name" : "android::hardware::radio::V1_0::CallForwardInfoStatus::INTERROGATE"
    },
    {
     "enum_field_value" : 3,
     "name" : "android::hardware::radio::V1_0::CallForwardInfoStatus::REGISTRATION"
    },
    {
     "enum_field_value" : 4,
     "name" : "android::hardware::radio::V1_0::CallForwardInfoStatus::ERASURE"
    }
   ],
   "linker_set_key" : "_ZTIN7android8hardware5radio4V1_021CallForwardInfoStatusE",
   "name" : "android::hardware::radio::V1_0::CallForwardInfoStatus",
   "referenced_type" : "_ZTIN7android8hardware5radio4V1_021CallForwardInfoStatusE",
   "self_type" : "_ZTIN7android8hardware5radio4V1_021CallForwardInfoStatusE",
   "size" : 4,
   "source_file" : "/out/soong/.intermediates/hardware/interfaces/radio/1.0/android.hardware.radio@1.0_genc++_headers/gen/android/hardware/radio/1.0/types.h",
   "underlying_type" : "_ZTIi"
  },
  {
   "alignment" : 4,
   "enum_fields" :
   [
    {
     "enum_field_value" : 0,
     "name" : "android::hardware::radio::V1_0::CdmaRedirectingReason::UNKNOWN"
    },
    {
     "enum_field_value" : 1,
     "name" : "android::hardware::radio::V1_0::CdmaRedirectingReason::CALL_FORWARDING_BUSY"
    },
    {
     "enum_field_value" : 2,
     "name" : "android::hardware::radio::V1_0::CdmaRedirectingReason::CALL_FORWARDING_NO_REPLY"
    },
    {
     "enum_field_value" : 9,
     "name" : "android::hardware::radio::V1_0::CdmaRedirectingReason::CALLED_DTE_OUT_OF_ORDER"
    },
    {
     "enum_field_value" : 10,
     "name" : "android::hardware::radio::V1_0::CdmaRedirectingReason::CALL_FORWARDING_BY_THE_CALLED_DTE"
    },
    {
     "enum_field_value" : 15,
     "name" : "android::hardware::radio::V1_0::CdmaRedirectingReason::CALL_FORWARDING_UNCONDITIONAL"
    },
    {
     "enum_field_value" : 16,
     "name" : "android::hardware::radio::V1_0::CdmaRedirectingReason::RESERVED"
    }
   ],
   "linker_set_key" : "_ZTIN7android8hardware5radio4V1_021CdmaRedirectingReasonE",
   "name" : "android::hardware::radio::V1_0::CdmaRedirectingReason",
   "referenced_type" : "_ZTIN7android8hardware5radio4V1_021CdmaRedirectingReasonE",
   "self_type" : "_ZTIN7android8hardware5radio4V1_021CdmaRedirectingReasonE",
   "size" : 4,
   "source_file" : "/out/soong/.intermediates/hardware/interfaces/radio/1.0/android.hardware.radio@1.0_genc++_headers/gen/android/hardware/radio/1.0/types.h",
   "underlying_type" : "_ZTIi"
  },
  {
   "alignment" : 4,
   "enum_fields" :
   [
    {
     "enum_field_value" : 0,
     "name" : "android::hardware::radio::V1_0::CdmaSmsSubaddressType::NSAP"
    },
    {
     "enum_field_value" : 1,
     "name" : "android::hardware::radio::V1_0::CdmaSmsSubaddressType::USER_SPECIFIED"
    }
   ],
   "linker_set_key" : "_ZTIN7android8hardware5radio4V1_021CdmaSmsSubaddressTypeE",
   "name" : "android::hardware::radio::V1_0::CdmaSmsSubaddressType",
   "referenced_type" : "_ZTIN7android8hardware5radio4V1_021CdmaSmsSubaddressTypeE",
   "self_type" : "_ZTIN7android8hardware5radio4V1_021CdmaSmsSubaddressTypeE",
   "size" : 4,
   "source_file" : "/out/soong/.intermediates/hardware/interfaces/radio/1.0/android.hardware.radio@1.0_genc++_headers/gen/android/hardware/radio/1.0/types.h",
   "underlying_type" : "_ZTIi"
  },
  {
   "alignment" : 4,
   "enum_fields" :
   [
    {
     "enum_field_value" : 0,
     "name" : "android::hardware::radio::V1_0::RadioCapabilityStatus::NONE"
    },
    {
     "enum_field_value" : 1,
     "name" : "android::hardware::radio::V1_0::RadioCapabilityStatus::SUCCESS"
    },
    {
     "enum_field_value" : 2,
     "name" : "android::hardware::radio::V1_0::RadioCapabilityStatus::FAIL"
    }
   ],
   "linker_set_key" : "_ZTIN7android8hardware5radio4V1_021RadioCapabilityStatusE",
   "name" : "android::hardware::radio::V1_0::RadioCapabilityStatus",
   "referenced_type" : "_ZTIN7android8hardware5radio4V1_021RadioCapabilityStatusE",
   "self_type" : "_ZTIN7android8hardware5radio4V1_021RadioCapabilityStatusE",
   "size" : 4,
   "source_file" : "/out/soong/.intermediates/hardware/interfaces/radio/1.0/android.hardware.radio@1.0_genc++_headers/gen/android/hardware/radio/1.0/types.h",
   "underlying_type" : "_ZTIi"
  },
  {
   "alignment" : 4,
   "enum_fields" :
   [
    {
     "enum_field_value" : 0,
     "name" : "android::hardware::radio::V1_0::RadioTechnologyFamily::THREE_GPP"
    },
    {
     "enum_field_value" : 1,
     "name" : "android::hardware::radio::V1_0::RadioTechnologyFamily::THREE_GPP2"
    }
   ],
   "linker_set_key" : "_ZTIN7android8hardware5radio4V1_021RadioTechnologyFamilyE",
   "name" : "android::hardware::radio::V1_0::RadioTechnologyFamily",
   "referenced_type" : "_ZTIN7android8hardware5radio4V1_021RadioTechnologyFamilyE",
   "self_type" : "_ZTIN7android8hardware5radio4V1_021RadioTechnologyFamilyE",
   "size" : 4,
   "source_file" : "/out/soong/.intermediates/hardware/interfaces/radio/1.0/android.hardware.radio@1.0_genc++_headers/gen/android/hardware/radio/1.0/types.h",
   "underlying_type" : "_ZTIi"
  },
  {
   "alignment" : 4,
   "enum_fields" :
   [
    {
     "enum_field_value" : 0,
     "name" : "android::hardware::radio::V1_0::CdmaOtaProvisionStatus::SPL_UNLOCKED"
    },
    {
     "enum_field_value" : 1,
     "name" : "android::hardware::radio::V1_0::CdmaOtaProvisionStatus::SPC_RETRIES_EXCEEDED"
    },
    {
     "enum_field_value" : 2,
     "name" : "android::hardware::radio::V1_0::CdmaOtaProvisionStatus::A_KEY_EXCHANGED"
    },
    {
     "enum_field_value" : 3,
     "name" : "android::hardware::radio::V1_0::CdmaOtaProvisionStatus::SSD_UPDATED"
    },
    {
     "enum_field_value" : 4,
     "name" : "android::hardware::radio::V1_0::CdmaOtaProvisionStatus::NAM_DOWNLOADED"
    },
    {
     "enum_field_value" : 5,
     "name" : "android::hardware::radio::V1_0::CdmaOtaProvisionStatus::MDN_DOWNLOADED"
    },
    {
     "enum_field_value" : 6,
     "name" : "android::hardware::radio::V1_0::CdmaOtaProvisionStatus::IMSI_DOWNLOADED"
    },
    {
     "enum_field_value" : 7,
     "name" : "android::hardware::radio::V1_0::CdmaOtaProvisionStatus::PRL_DOWNLOADED"
    },
    {
     "enum_field_value" : 8,
     "name" : "android::hardware::radio::V1_0::CdmaOtaProvisionStatus::COMMITTED"
    },
    {
     "enum_field_value" : 9,
     "name" : "android::hardware::radio::V1_0::CdmaOtaProvisionStatus::OTAPA_STARTED"
    },
    {
     "enum_field_value" : 10,
     "name" : "android::hardware::radio::V1_0::CdmaOtaProvisionStatus::OTAPA_STOPPED"
    },
    {
     "enum_field_value" : 11,
     "name" : "android::hardware::radio::V1_0::CdmaOtaProvisionStatus::OTAPA_ABORTED"
    }
   ],
   "linker_set_key" : "_ZTIN7android8hardware5radio4V1_022CdmaOtaProvisionStatusE",
   "name" : "android::hardware::radio::V1_0::CdmaOtaProvisionStatus",
   "referenced_type" : "_ZTIN7android8hardware5radio4V1_022CdmaOtaProvisionStatusE",
   "self_type" : "_ZTIN7android8hardware5radio4V1_022CdmaOtaProvisionStatusE",
   "size" : 4,
   "source_file" : "/out/soong/.intermediates/hardware/interfaces/radio/1.0/android.hardware.radio@1.0_genc++_headers/gen/android/hardware/radio/1.0/types.h",
   "underlying_type" : "_ZTIi"
  },
  {
   "alignment" : 4,
   "enum_fields" :
   [
    {
     "enum_field_value" : 0,
     "name" : "android::hardware::radio::V1_0::CdmaSmsWriteArgsStatus::REC_UNREAD"
    },
    {
     "enum_field_value" : 1,
     "name" : "android::hardware::radio::V1_0::CdmaSmsWriteArgsStatus::REC_READ"
    },
    {
     "enum_field_value" : 2,
     "name" : "android::hardware::radio::V1_0::CdmaSmsWriteArgsStatus::STO_UNSENT"
    },
    {
     "enum_field_value" : 3,
     "name" : "android::hardware::radio::V1_0::CdmaSmsWriteArgsStatus::STO_SENT"
    }
   ],
   "linker_set_key" : "_ZTIN7android8hardware5radio4V1_022CdmaSmsWriteArgsStatusE",
   "name" : "android::hardware::radio::V1_0::CdmaSmsWriteArgsStatus",
   "referenced_type" : "_ZTIN7android8hardware5radio4V1_022CdmaSmsWriteArgsStatusE",
   "self_type" : "_ZTIN7android8hardware5radio4V1_022CdmaSmsWriteArgsStatusE",
   "size" : 4,
   "source_file" : "/out/soong/.intermediates/hardware/interfaces/radio/1.0/android.hardware.radio@1.0_genc++_headers/gen/android/hardware/radio/1.0/types.h",
   "underlying_type" : "_ZTIi"
  },
  {
   "alignment" : 4,
   "enum_fields" :
   [
    {
     "enum_field_value" : 0,
     "name" : "android::hardware::radio::V1_0::CdmaSubscriptionSource::RUIM_SIM"
    },
    {
     "enum_field_value" : 1,
     "name" : "android::hardware::radio::V1_0::CdmaSubscriptionSource::NV"
    }
   ],
   "linker_set_key" : "_ZTIN7android8hardware5radio4V1_022CdmaSubscriptionSourceE",
   "name" : "android::hardware::radio::V1_0::CdmaSubscriptionSource",
   "referenced_type" : "_ZTIN7android8hardware5radio4V1_022CdmaSubscriptionSourceE",
   "self_type" : "_ZTIN7android8hardware5radio4V1_022CdmaSubscriptionSourceE",
   "size" : 4,
   "source_file" : "/out/soong/.intermediates/hardware/interfaces/radio/1.0/android.hardware.radio@1.0_genc++_headers/gen/android/hardware/radio/1.0/types.h",
   "underlying_type" : "_ZTIi"
  },
  {
   "alignment" : 4,
   "enum_fields" :
   [
    {
     "enum_field_value" : 211,
     "name" : "android::hardware::radio::V1_0::SmsAcknowledgeFailCause::MEMORY_CAPACITY_EXCEEDED"
    },
    {
     "enum_field_value" : 255,
     "name" : "android::hardware::radio::V1_0::SmsAcknowledgeFailCause::UNSPECIFIED_ERROR"
    }
   ],
   "linker_set_key" : "_ZTIN7android8hardware5radio4V1_023SmsAcknowledgeFailCauseE",
   "name" : "android::hardware::radio::V1_0::SmsAcknowledgeFailCause",
   "referenced_type" : "_ZTIN7android8hardware5radio4V1_023SmsAcknowledgeFailCauseE",
   "self_type" : "_ZTIN7android8hardware5radio4V1_023SmsAcknowledgeFailCauseE",
   "size" : 4,
   "source_file" : "/out/soong/.intermediates/hardware/interfaces/radio/1.0/android.hardware.radio@1.0_genc++_headers/gen/android/hardware/radio/1.0/types.h",
   "underlying_type" : "_ZTIi"
  },
  {
   "alignment" : 4,
   "enum_fields" :
   [
    {
     "enum_field_value" : 0,
     "name" : "android::hardware::radio::V1_0::CdmaCallWaitingNumberPlan::UNKNOWN"
    },
    {
     "enum_field_value" : 1,
     "name" : "android::hardware::radio::V1_0::CdmaCallWaitingNumberPlan::ISDN"
    },
    {
     "enum_field_value" : 3,
     "name" : "android::hardware::radio::V1_0::CdmaCallWaitingNumberPlan::DATA"
    },
    {
     "enum_field_value" : 4,
     "name" : "android::hardware::radio::V1_0::CdmaCallWaitingNumberPlan::TELEX"
    },
    {
     "enum_field_value" : 8,
     "name" : "android::hardware::radio::V1_0::CdmaCallWaitingNumberPlan::NATIONAL"
    },
    {
     "enum_field_value" : 9,
     "name" : "android::hardware::radio::V1_0::CdmaCallWaitingNumberPlan::PRIVATE"
    }
   ],
   "linker_set_key" : "_ZTIN7android8hardware5radio4V1_025CdmaCallWaitingNumberPlanE",
   "name" : "android::hardware::radio::V1_0::CdmaCallWaitingNumberPlan",
   "referenced_type" : "_ZTIN7android8hardware5radio4V1_025CdmaCallWaitingNumberPlanE",
   "self_type" : "_ZTIN7android8hardware5radio4V1_025CdmaCallWaitingNumberPlanE",
   "size" : 4,
   "source_file" : "/out/soong/.intermediates/hardware/interfaces/radio/1.0/android.hardware.radio@1.0_genc++_headers/gen/android/hardware/radio/1.0/types.h",
   "underlying_type" : "_ZTIi"
  },
  {
   "alignment" : 4,
   "enum_fields" :
   [
    {
     "enum_field_value" : 0,
     "name" : "android::hardware::radio::V1_0::CdmaCallWaitingNumberType::UNKNOWN"
    },
    {
     "enum_field_value" : 1,
     "name" : "android::hardware::radio::V1_0::CdmaCallWaitingNumberType::INTERNATIONAL"
    },
    {
     "enum_field_value" : 2,
     "name" : "android::hardware::radio::V1_0::CdmaCallWaitingNumberType::NATIONAL"
    },
    {
     "enum_field_value" : 3,
     "name" : "android::hardware::radio::V1_0::CdmaCallWaitingNumberType::NETWORK_SPECIFIC"
    },
    {
     "enum_field_value" : 4,
     "name" : "android::hardware::radio::V1_0::CdmaCallWaitingNumberType::SUBSCRIBER"
    }
   ],
   "linker_set_key" : "_ZTIN7android8hardware5radio4V1_025CdmaCallWaitingNumberTypeE",
   "name" : "android::hardware::radio::V1_0::CdmaCallWaitingNumberType",
   "referenced_type" : "_ZTIN7android8hardware5radio4V1_025CdmaCallWaitingNumberTypeE",
   "self_type" : "_ZTIN7android8hardware5radio4V1_025CdmaCallWaitingNumberTypeE",
   "size" : 4,
   "source_file" : "/out/soong/.intermediates/hardware/interfaces/radio/1.0/android.hardware.radio@1.0_genc++_headers/gen/android/hardware/radio/1.0/types.h",
   "underlying_type" : "_ZTIi"
  },
  {
   "alignment" : 4,
   "enum_fields" :
   [
    {
     "enum_field_value" : 0,
     "name" : "android::hardware::radio::V1_0::CdmaCallWaitingNumberPresentation::ALLOWED"
    },
    {
     "enum_field_value" : 1,
     "name" : "android::hardware::radio::V1_0::CdmaCallWaitingNumberPresentation::RESTRICTED"
    },
    {
     "enum_field_value" : 2,
     "name" : "android::hardware::radio::V1_0::CdmaCallWaitingNumberPresentation::UNKNOWN"
    }
   ],
   "linker_set_key" : "_ZTIN7android8hardware5radio4V1_033CdmaCallWaitingNumberPresentationE",
   "name" : "android::hardware::radio::V1_0::CdmaCallWaitingNumberPresentation",
   "referenced_type" : "_ZTIN7android8hardware5radio4V1_033CdmaCallWaitingNumberPresentationE",
   "self_type" : "_ZTIN7android8hardware5radio4V1_033CdmaCallWaitingNumberPresentationE",
   "size" : 4,
   "source_file" : "/out/soong/.intermediates/hardware/interfaces/radio/1.0/android.hardware.radio@1.0_genc++_headers/gen/android/hardware/radio/1.0/types.h",
   "underlying_type" : "_ZTIi"
  },
  {
   "alignment" : 4,
   "enum_fields" :
   [
    {
     "enum_field_value" : 0,
     "name" : "android::hardware::radio::V1_0::Clir::DEFAULT"
    },
    {
     "enum_field_value" : 1,
     "name" : "android::hardware::radio::V1_0::Clir::INVOCATION"
    },
    {
     "enum_field_value" : 2,
     "name" : "android::hardware::radio::V1_0::Clir::SUPPRESSION"
    }
   ],
   "linker_set_key" : "_ZTIN7android8hardware5radio4V1_04ClirE",
   "name" : "android::hardware::radio::V1_0::Clir",
   "referenced_type" : "_ZTIN7android8hardware5radio4V1_04ClirE",
   "self_type" : "_ZTIN7android8hardware5radio4V1_04ClirE",
   "size" : 4,
   "source_file" : "/out/soong/.intermediates/hardware/interfaces/radio/1.0/android.hardware.radio@1.0_genc++_headers/gen/android/hardware/radio/1.0/types.h",
   "underlying_type" : "_ZTIi"
  },
  {
   "alignment" : 4,
   "enum_fields" :
   [
    {
     "enum_field_value" : 1,
     "name" : "android::hardware::radio::V1_0::NvItem::CDMA_MEID"
    },
    {
     "enum_field_value" : 2,
     "name" : "android::hardware::radio::V1_0::NvItem::CDMA_MIN"
    },
    {
     "enum_field_value" : 3,
     "name" : "android::hardware::radio::V1_0::NvItem::CDMA_MDN"
    },
    {
     "enum_field_value" : 4,
     "name" : "android::hardware::radio::V1_0::NvItem::CDMA_ACCOLC"
    },
    {
     "enum_field_value" : 11,
     "name" : "android::hardware::radio::V1_0::NvItem::DEVICE_MSL"
    },
    {
     "enum_field_value" : 12,
     "name" : "android::hardware::radio::V1_0::NvItem::RTN_RECONDITIONED_STATUS"
    },
    {
     "enum_field_value" : 13,
     "name" : "android::hardware::radio::V1_0::NvItem::RTN_ACTIVATION_DATE"
    },
    {
     "enum_field_value" : 14,
     "name" : "android::hardware::radio::V1_0::NvItem::RTN_LIFE_TIMER"
    },
    {
     "enum_field_value" : 15,
     "name" : "android::hardware::radio::V1_0::NvItem::RTN_LIFE_CALLS"
    },
    {
     "enum_field_value" : 16,
     "name" : "android::hardware::radio::V1_0::NvItem::RTN_LIFE_DATA_TX"
    },
    {
     "enum_field_value" : 17,
     "name" : "android::hardware::radio::V1_0::NvItem::RTN_LIFE_DATA_RX"
    },
    {
     "enum_field_value" : 18,
     "name" : "android::hardware::radio::V1_0::NvItem::OMADM_HFA_LEVEL"
    },
    {
     "enum_field_value" : 31,
     "name" : "android::hardware::radio::V1_0::NvItem::MIP_PROFILE_NAI"
    },
    {
     "enum_field_value" : 32,
     "name" : "android::hardware::radio::V1_0::NvItem::MIP_PROFILE_HOME_ADDRESS"
    },
    {
     "enum_field_value" : 33,
     "name" : "android::hardware::radio::V1_0::NvItem::MIP_PROFILE_AAA_AUTH"
    },
    {
     "enum_field_value" : 34,
     "name" : "android::hardware::radio::V1_0::NvItem::MIP_PROFILE_HA_AUTH"
    },
    {
     "enum_field_value" : 35,
     "name" : "android::hardware::radio::V1_0::NvItem::MIP_PROFILE_PRI_HA_ADDR"
    },
    {
     "enum_field_value" : 36,
     "name" : "android::hardware::radio::V1_0::NvItem::MIP_PROFILE_SEC_HA_ADDR"
    },
    {
     "enum_field_value" : 37,
     "name" : "android::hardware::radio::V1_0::NvItem::MIP_PROFILE_REV_TUN_PREF"
    },
    {
     "enum_field_value" : 38,
     "name" : "android::hardware::radio::V1_0::NvItem::MIP_PROFILE_HA_SPI"
    },
    {
     "enum_field_value" : 39,
     "name" : "android::hardware::radio::V1_0::NvItem::MIP_PROFILE_AAA_SPI"
    },
    {
     "enum_field_value" : 40,
     "name" : "android::hardware::radio::V1_0::NvItem::MIP_PROFILE_MN_HA_SS"
    },
    {
     "enum_field_value" : 41,
     "name" : "android::hardware::radio::V1_0::NvItem::MIP_PROFILE_MN_AAA_SS"
    },
    {
     "enum_field_value" : 51,
     "name" : "android::hardware::radio::V1_0::NvItem::CDMA_PRL_VERSION"
    },
    {
     "enum_field_value" : 52,
     "name" : "android::hardware::radio::V1_0::NvItem::CDMA_BC10"
    },
    {
     "enum_field_value" : 53,
     "name" : "android::hardware::radio::V1_0::NvItem::CDMA_BC14"
    },
    {
     "enum_field_value" : 54,
     "name" : "android::hardware::radio::V1_0::NvItem::CDMA_SO68"
    },
    {
     "enum_field_value" : 55,
     "name" : "android::hardware::radio::V1_0::NvItem::CDMA_SO73_COP0"
    },
    {
     "enum_field_value" : 56,
     "name" : "android::hardware::radio::V1_0::NvItem::CDMA_SO73_COP1TO7"
    },
    {
     "enum_field_value" : 57,
     "name" : "android::hardware::radio::V1_0::NvItem::CDMA_1X_ADVANCED_ENABLED"
    },
    {
     "enum_field_value" : 58,
     "name" : "android::hardware::radio::V1_0::NvItem::CDMA_EHRPD_ENABLED"
    },
    {
     "enum_field_value" : 59,
     "name" : "android::hardware::radio::V1_0::NvItem::CDMA_EHRPD_FORCED"
    },
    {
     "enum_field_value" : 71,
     "name" : "android::hardware::radio::V1_0::NvItem::LTE_BAND_ENABLE_25"
    },
    {
     "enum_field_value" : 72,
     "name" : "android::hardware::radio::V1_0::NvItem::LTE_BAND_ENABLE_26"
    },
    {
     "enum_field_value" : 73,
     "name" : "android::hardware::radio::V1_0::NvItem::LTE_BAND_ENABLE_41"
    },
    {
     "enum_field_value" : 74,
     "name" : "android::hardware::radio::V1_0::NvItem::LTE_SCAN_PRIORITY_25"
    },
    {
     "enum_field_value" : 75,
     "name" : "android::hardware::radio::V1_0::NvItem::LTE_SCAN_PRIORITY_26"
    },
    {
     "enum_field_value" : 76,
     "name" : "android::hardware::radio::V1_0::NvItem::LTE_SCAN_PRIORITY_41"
    },
    {
     "enum_field_value" : 77,
     "name" : "android::hardware::radio::V1_0::NvItem::LTE_HIDDEN_BAND_PRIORITY_25"
    },
    {
     "enum_field_value" : 78,
     "name" : "android::hardware::radio::V1_0::NvItem::LTE_HIDDEN_BAND_PRIORITY_26"
    },
    {
     "enum_field_value" : 79,
     "name" : "android::hardware::radio::V1_0::NvItem::LTE_HIDDEN_BAND_PRIORITY_41"
    }
   ],
   "linker_set_key" : "_ZTIN7android8hardware5radio4V1_06NvItemE",
   "name" : "android::hardware::radio::V1_0::NvItem",
   "referenced_type" : "_ZTIN7android8hardware5radio4V1_06NvItemE",
   "self_type" : "_ZTIN7android8hardware5radio4V1_06NvItemE",
   "size" : 4,
   "source_file" : "/out/soong/.intermediates/hardware/interfaces/radio/1.0/android.hardware.radio@1.0_genc++_headers/gen/android/hardware/radio/1.0/types.h",
   "underlying_type" : "_ZTIi"
  },
  {
   "alignment" : 4,
   "enum_fields" :
   [
    {
     "enum_field_value" : 0,
     "name" : "android::hardware::radio::V1_0::UusDcs::USP"
    },
    {
     "enum_field_value" : 1,
     "name" : "android::hardware::radio::V1_0::UusDcs::OSIHLP"
    },
    {
     "enum_field_value" : 2,
     "name" : "android::hardware::radio::V1_0::UusDcs::X244"
    },
    {
     "enum_field_value" : 3,
     "name" : "android::hardware::radio::V1_0::UusDcs::RMCF"
    },
    {
     "enum_field_value" : 4,
     "name" : "android::hardware::radio::V1_0::UusDcs::IA5C"
    }
   ],
   "linker_set_key" : "_ZTIN7android8hardware5radio4V1_06UusDcsE",
   "name" : "android::hardware::radio::V1_0::UusDcs",
   "referenced_type" : "_ZTIN7android8hardware5radio4V1_06UusDcsE",
   "self_type" : "_ZTIN7android8hardware5radio4V1_06UusDcsE",
   "size" : 4,
   "source_file" : "/out/soong/.intermediates/hardware/interfaces/radio/1.0/android.hardware.radio@1.0_genc++_headers/gen/android/hardware/radio/1.0/types.h",
   "underlying_type" : "_ZTIi"
  },
  {
   "alignment" : 4,
   "enum_fields" :
   [
    {
     "enum_field_value" : 0,
     "name" : "android::hardware::radio::V1_0::AppType::UNKNOWN"
    },
    {
     "enum_field_value" : 1,
     "name" : "android::hardware::radio::V1_0::AppType::SIM"
    },
    {
     "enum_field_value" : 2,
     "name" : "android::hardware::radio::V1_0::AppType::USIM"
    },
    {
     "enum_field_value" : 3,
     "name" : "android::hardware::radio::V1_0::AppType::RUIM"
    },
    {
     "enum_field_value" : 4,
     "name" : "android::hardware::radio::V1_0::AppType::CSIM"
    },
    {
     "enum_field_value" : 5,
     "name" : "android::hardware::radio::V1_0::AppType::ISIM"
    }
   ],
   "linker_set_key" : "_ZTIN7android8hardware5radio4V1_07AppTypeE",
   "name" : "android::hardware::radio::V1_0::AppType",
   "referenced_type" : "_ZTIN7android8hardware5radio4V1_07AppTypeE",
   "self_type" : "_ZTIN7android8hardware5radio4V1_07AppTypeE",
   "size" : 4,
   "source_file" : "/out/soong/.intermediates/hardware/interfaces/radio/1.0/android.hardware.radio@1.0_genc++_headers/gen/android/hardware/radio/1.0/types.h",
   "underlying_type" : "_ZTIi"
  },
  {
   "alignment" : 4,
   "enum_fields" :
   [
    {
     "enum_field_value" : 0,
     "name" : "android::hardware::radio::V1_0::TtyMode::OFF"
    },
    {
     "enum_field_value" : 1,
     "name" : "android::hardware::radio::V1_0::TtyMode::FULL"
    },
    {
     "enum_field_value" : 2,
     "name" : "android::hardware::radio::V1_0::TtyMode::HCO"
    },
    {
     "enum_field_value" : 3,
     "name" : "android::hardware::radio::V1_0::TtyMode::VCO"
    }
   ],
   "linker_set_key" : "_ZTIN7android8hardware5radio4V1_07TtyModeE",
   "name" : "android::hardware::radio::V1_0::TtyMode",
   "referenced_type" : "_ZTIN7android8hardware5radio4V1_07TtyModeE",
   "self_type" : "_ZTIN7android8hardware5radio4V1_07TtyModeE",
   "size" : 4,
   "source_file" : "/out/soong/.intermediates/hardware/interfaces/radio/1.0/android.hardware.radio@1.0_genc++_headers/gen/android/hardware/radio/1.0/types.h",
   "underlying_type" : "_ZTIi"
  },
  {
   "alignment" : 4,
   "enum_fields" :
   [
    {
     "enum_field_value" : 0,
     "name" : "android::hardware::radio::V1_0::UusType::TYPE1_IMPLICIT"
    },
    {
     "enum_field_value" : 1,
     "name" : "android::hardware::radio::V1_0::UusType::TYPE1_REQUIRED"
    },
    {
     "enum_field_value" : 2,
     "name" : "android::hardware::radio::V1_0::UusType::TYPE1_NOT_REQUIRED"
    },
    {
     "enum_field_value" : 3,
     "name" : "android::hardware::radio::V1_0::UusType::TYPE2_REQUIRED"
    },
    {
     "enum_field_value" : 4,
     "name" : "android::hardware::radio::V1_0::UusType::TYPE2_NOT_REQUIRED"
    },
    {
     "enum_field_value" : 5,
     "name" : "android::hardware::radio::V1_0::UusType::TYPE3_REQUIRED"
    },
    {
     "enum_field_value" : 6,
     "name" : "android::hardware::radio::V1_0::UusType::TYPE3_NOT_REQUIRED"
    }
   ],
   "linker_set_key" : "_ZTIN7android8hardware5radio4V1_07UusTypeE",
   "name" : "android::hardware::radio::V1_0::UusType",
   "referenced_type" : "_ZTIN7android8hardware5radio4V1_07UusTypeE",
   "self_type" : "_ZTIN7android8hardware5radio4V1_07UusTypeE",
   "size" : 4,
   "source_file" : "/out/soong/.intermediates/hardware/interfaces/radio/1.0/android.hardware.radio@1.0_genc++_headers/gen/android/hardware/radio/1.0/types.h",
   "underlying_type" : "_ZTIi"
  },
  {
   "alignment" : 4,
   "enum_fields" :
   [
    {
     "enum_field_value" : 0,
     "name" : "android::hardware::radio::V1_0::ApnTypes::NONE"
    },
    {
     "enum_field_value" : 1,
     "name" : "android::hardware::radio::V1_0::ApnTypes::DEFAULT"
    },
    {
     "enum_field_value" : 2,
     "name" : "android::hardware::radio::V1_0::ApnTypes::MMS"
    },
    {
     "enum_field_value" : 4,
     "name" : "android::hardware::radio::V1_0::ApnTypes::SUPL"
    },
    {
     "enum_field_value" : 8,
     "name" : "android::hardware::radio::V1_0::ApnTypes::DUN"
    },
    {
     "enum_field_value" : 16,
     "name" : "android::hardware::radio::V1_0::ApnTypes::HIPRI"
    },
    {
     "enum_field_value" : 32,
     "name" : "android::hardware::radio::V1_0::ApnTypes::FOTA"
    },
    {
     "enum_field_value" : 64,
     "name" : "android::hardware::radio::V1_0::ApnTypes::IMS"
    },
    {
     "enum_field_value" : 128,
     "name" : "android::hardware::radio::V1_0::ApnTypes::CBS"
    },
    {
     "enum_field_value" : 256,
     "name" : "android::hardware::radio::V1_0::ApnTypes::IA"
    },
    {
     "enum_field_value" : 512,
     "name" : "android::hardware::radio::V1_0::ApnTypes::EMERGENCY"
    },
    {
     "enum_field_value" : 1023,
     "name" : "android::hardware::radio::V1_0::ApnTypes::ALL"
    }
   ],
   "linker_set_key" : "_ZTIN7android8hardware5radio4V1_08ApnTypesE",
   "name" : "android::hardware::radio::V1_0::ApnTypes",
   "referenced_type" : "_ZTIN7android8hardware5radio4V1_08ApnTypesE",
   "self_type" : "_ZTIN7android8hardware5radio4V1_08ApnTypesE",
   "size" : 4,
   "source_file" : "/out/soong/.intermediates/hardware/interfaces/radio/1.0/android.hardware.radio@1.0_genc++_headers/gen/android/hardware/radio/1.0/types.h",
   "underlying_type" : "_ZTIi"
  },
  {
   "alignment" : 4,
   "enum_fields" :
   [
    {
     "enum_field_value" : 0,
     "name" : "android::hardware::radio::V1_0::AppState::UNKNOWN"
    },
    {
     "enum_field_value" : 1,
     "name" : "android::hardware::radio::V1_0::AppState::DETECTED"
    },
    {
     "enum_field_value" : 2,
     "name" : "android::hardware::radio::V1_0::AppState::PIN"
    },
    {
     "enum_field_value" : 3,
     "name" : "android::hardware::radio::V1_0::AppState::PUK"
    },
    {
     "enum_field_value" : 4,
     "name" : "android::hardware::radio::V1_0::AppState::SUBSCRIPTION_PERSO"
    },
    {
     "enum_field_value" : 5,
     "name" : "android::hardware::radio::V1_0::AppState::READY"
    }
   ],
   "linker_set_key" : "_ZTIN7android8hardware5radio4V1_08AppStateE",
   "name" : "android::hardware::radio::V1_0::AppState",
   "referenced_type" : "_ZTIN7android8hardware5radio4V1_08AppStateE",
   "self_type" : "_ZTIN7android8hardware5radio4V1_08AppStateE",
   "size" : 4,
   "source_file" : "/out/soong/.intermediates/hardware/interfaces/radio/1.0/android.hardware.radio@1.0_genc++_headers/gen/android/hardware/radio/1.0/types.h",
   "underlying_type" : "_ZTIi"
  },
  {
   "alignment" : 4,
   "enum_fields" :
   [
    {
     "enum_field_value" : 0,
     "name" : "android::hardware::radio::V1_0::MvnoType::NONE"
    },
    {
     "enum_field_value" : 1,
     "name" : "android::hardware::radio::V1_0::MvnoType::IMSI"
    },
    {
     "enum_field_value" : 2,
     "name" : "android::hardware::radio::V1_0::MvnoType::GID"
    },
    {
     "enum_field_value" : 3,
     "name" : "android::hardware::radio::V1_0::MvnoType::SPN"
    }
   ],
   "linker_set_key" : "_ZTIN7android8hardware5radio4V1_08MvnoTypeE",
   "name" : "android::hardware::radio::V1_0::MvnoType",
   "referenced_type" : "_ZTIN7android8hardware5radio4V1_08MvnoTypeE",
   "self_type" : "_ZTIN7android8hardware5radio4V1_08MvnoTypeE",
   "size" : 4,
   "source_file" : "/out/soong/.intermediates/hardware/interfaces/radio/1.0/android.hardware.radio@1.0_genc++_headers/gen/android/hardware/radio/1.0/types.h",
   "underlying_type" : "_ZTIi"
  },
  {
   "alignment" : 4,
   "enum_fields" :
   [
    {
     "enum_field_value" : 0,
     "name" : "android::hardware::radio::V1_0::PinState::UNKNOWN"
    },
    {
     "enum_field_value" : 1,
     "name" : "android::hardware::radio::V1_0::PinState::ENABLED_NOT_VERIFIED"
    },
    {
     "enum_field_value" : 2,
     "name" : "android::hardware::radio::V1_0::PinState::ENABLED_VERIFIED"
    },
    {
     "enum_field_value" : 3,
     "name" : "android::hardware::radio::V1_0::PinState::DISABLED"
    },
    {
     "enum_field_value" : 4,
     "name" : "android::hardware::radio::V1_0::PinState::ENABLED_BLOCKED"
    },
    {
     "enum_field_value" : 5,
     "name" : "android::hardware::radio::V1_0::PinState::ENABLED_PERM_BLOCKED"
    }
   ],
   "linker_set_key" : "_ZTIN7android8hardware5radio4V1_08PinStateE",
   "name" : "android::hardware::radio::V1_0::PinState",
   "referenced_type" : "_ZTIN7android8hardware5radio4V1_08PinStateE",
   "self_type" : "_ZTIN7android8hardware5radio4V1_08PinStateE",
   "size" : 4,
   "source_file" : "/out/soong/.intermediates/hardware/interfaces/radio/1.0/android.hardware.radio@1.0_genc++_headers/gen/android/hardware/radio/1.0/types.h",
   "underlying_type" : "_ZTIi"
  },
  {
   "alignment" : 4,
   "enum_fields" :
   [
    {
     "enum_field_value" : 0,
     "name" : "android::hardware::radio::V1_0::RegState::NOT_REG_MT_NOT_SEARCHING_OP"
    },
    {
     "enum_field_value" : 1,
     "name" : "android::hardware::radio::V1_0::RegState::REG_HOME"
    },
    {
     "enum_field_value" : 2,
     "name" : "android::hardware::radio::V1_0::RegState::NOT_REG_MT_SEARCHING_OP"
    },
    {
     "enum_field_value" : 3,
     "name" : "android::hardware::radio::V1_0::RegState::REG_DENIED"
    },
    {
     "enum_field_value" : 4,
     "name" : "android::hardware::radio::V1_0::RegState::UNKNOWN"
    },
    {
     "enum_field_value" : 5,
     "name" : "android::hardware::radio::V1_0::RegState::REG_ROAMING"
    },
    {
     "enum_field_value" : 10,
     "name" : "android::hardware::radio::V1_0::RegState::NOT_REG_MT_NOT_SEARCHING_OP_EM"
    },
    {
     "enum_field_value" : 12,
     "name" : "android::hardware::radio::V1_0::RegState::NOT_REG_MT_SEARCHING_OP_EM"
    },
    {
     "enum_field_value" : 13,
     "name" : "android::hardware::radio::V1_0::RegState::REG_DENIED_EM"
    },
    {
     "enum_field_value" : 14,
     "name" : "android::hardware::radio::V1_0::RegState::UNKNOWN_EM"
    }
   ],
   "linker_set_key" : "_ZTIN7android8hardware5radio4V1_08RegStateE",
   "name" : "android::hardware::radio::V1_0::RegState",
   "referenced_type" : "_ZTIN7android8hardware5radio4V1_08RegStateE",
   "self_type" : "_ZTIN7android8hardware5radio4V1_08RegStateE",
   "size" : 4,
   "source_file" : "/out/soong/.intermediates/hardware/interfaces/radio/1.0/android.hardware.radio@1.0_genc++_headers/gen/android/hardware/radio/1.0/types.h",
   "underlying_type" : "_ZTIi"
  },
  {
   "alignment" : 4,
   "enum_fields" :
   [
    {
     "enum_field_value" : 0,
     "name" : "android::hardware::radio::V1_0::CallState::ACTIVE"
    },
    {
     "enum_field_value" : 1,
     "name" : "android::hardware::radio::V1_0::CallState::HOLDING"
    },
    {
     "enum_field_value" : 2,
     "name" : "android::hardware::radio::V1_0::CallState::DIALING"
    },
    {
     "enum_field_value" : 3,
     "name" : "android::hardware::radio::V1_0::CallState::ALERTING"
    },
    {
     "enum_field_value" : 4,
     "name" : "android::hardware::radio::V1_0::CallState::INCOMING"
    },
    {
     "enum_field_value" : 5,
     "name" : "android::hardware::radio::V1_0::CallState::WAITING"
    }
   ],
   "linker_set_key" : "_ZTIN7android8hardware5radio4V1_09CallStateE",
   "name" : "android::hardware::radio::V1_0::CallState",
   "referenced_type" : "_ZTIN7android8hardware5radio4V1_09CallStateE",
   "self_type" : "_ZTIN7android8hardware5radio4V1_09CallStateE",
   "size" : 4,
   "source_file" : "/out/soong/.intermediates/hardware/interfaces/radio/1.0/android.hardware.radio@1.0_genc++_headers/gen/android/hardware/radio/1.0/types.h",
   "underlying_type" : "_ZTIi"
  },
  {
   "alignment" : 4,
   "enum_fields" :
   [
    {
     "enum_field_value" : 0,
     "name" : "android::hardware::radio::V1_0::CardState::ABSENT"
    },
    {
     "enum_field_value" : 1,
     "name" : "android::hardware::radio::V1_0::CardState::PRESENT"
    },
    {
     "enum_field_value" : 2,
     "name" : "android::hardware::radio::V1_0::CardState::ERROR"
    },
    {
     "enum_field_value" : 3,
     "name" : "android::hardware::radio::V1_0::CardState::RESTRICTED"
    }
   ],
   "linker_set_key" : "_ZTIN7android8hardware5radio4V1_09CardStateE",
   "name" : "android::hardware::radio::V1_0::CardState",
   "referenced_type" : "_ZTIN7android8hardware5radio4V1_09CardStateE",
   "self_type" : "_ZTIN7android8hardware5radio4V1_09CardStateE",
   "size" : 4,
   "source_file" : "/out/soong/.intermediates/hardware/interfaces/radio/1.0/android.hardware.radio@1.0_genc++_headers/gen/android/hardware/radio/1.0/types.h",
   "underlying_type" : "_ZTIi"
  },
  {
   "alignment" : 4,
   "enum_fields" :
   [
    {
     "enum_field_value" : 0,
     "name" : "android::hardware::radio::V1_0::LceStatus::NOT_SUPPORTED"
    },
    {
     "enum_field_value" : 1,
     "name" : "android::hardware::radio::V1_0::LceStatus::STOPPED"
    },
    {
     "enum_field_value" : 2,
     "name" : "android::hardware::radio::V1_0::LceStatus::ACTIVE"
    }
   ],
   "linker_set_key" : "_ZTIN7android8hardware5radio4V1_09LceStatusE",
   "name" : "android::hardware::radio::V1_0::LceStatus",
   "referenced_type" : "_ZTIN7android8hardware5radio4V1_09LceStatusE",
   "self_type" : "_ZTIN7android8hardware5radio4V1_09LceStatusE",
   "size" : 4,
   "source_file" : "/out/soong/.intermediates/hardware/interfaces/radio/1.0/android.hardware.radio@1.0_genc++_headers/gen/android/hardware/radio/1.0/types.h",
   "underlying_type" : "_ZTIi"
  },
  {
   "alignment" : 4,
   "enum_fields" :
   [
    {
     "enum_field_value" : 0,
     "name" : "android::hardware::radio::V1_0::SapStatus::UNKNOWN_ERROR"
    },
    {
     "enum_field_value" : 1,
     "name" : "android::hardware::radio::V1_0::SapStatus::CARD_RESET"
    },
    {
     "enum_field_value" : 2,
     "name" : "android::hardware::radio::V1_0::SapStatus::CARD_NOT_ACCESSIBLE"
    },
    {
     "enum_field_value" : 3,
     "name" : "android::hardware::radio::V1_0::SapStatus::CARD_REMOVED"
    },
    {
     "enum_field_value" : 4,
     "name" : "android::hardware::radio::V1_0::SapStatus::CARD_INSERTED"
    },
    {
     "enum_field_value" : 5,
     "name" : "android::hardware::radio::V1_0::SapStatus::RECOVERED"
    }
   ],
   "linker_set_key" : "_ZTIN7android8hardware5radio4V1_09SapStatusE",
   "name" : "android::hardware::radio::V1_0::SapStatus",
   "referenced_type" : "_ZTIN7android8hardware5radio4V1_09SapStatusE",
   "self_type" : "_ZTIN7android8hardware5radio4V1_09SapStatusE",
   "size" : 4,
   "source_file" : "/out/soong/.intermediates/hardware/interfaces/radio/1.0/android.hardware.radio@1.0_genc++_headers/gen/android/hardware/radio/1.0/types.h",
   "underlying_type" : "_ZTIi"
  },
  {
   "alignment" : 4,
   "enum_fields" :
   [
    {
     "enum_field_value" : 0,
     "name" : "android::hardware::radio::config::V1_0::SlotState::INACTIVE"
    },
    {
     "enum_field_value" : 1,
     "name" : "android::hardware::radio::config::V1_0::SlotState::ACTIVE"
    }
   ],
   "linker_set_key" : "_ZTIN7android8hardware5radio6config4V1_09SlotStateE",
   "name" : "android::hardware::radio::config::V1_0::SlotState",
   "referenced_type" : "_ZTIN7android8hardware5radio6config4V1_09SlotStateE",
   "self_type" : "_ZTIN7android8hardware5radio6config4V1_09SlotStateE",
   "size" : 4,
   "source_file" : "/out/soong/.intermediates/hardware/interfaces/radio/config/1.0/android.hardware.radio.config@1.0_genc++_headers/gen/android/hardware/radio/config/1.0/types.h",
   "underlying_type" : "_ZTIi"
  },
  {
   "alignment" : 4,
   "enum_fields" :
   [
    {
     "enum_field_value" : 0,
     "name" : "android::hardware::Status::EX_NONE"
    },
    {
     "enum_field_value" : -1,
     "name" : "android::hardware::Status::EX_SECURITY"
    },
    {
     "enum_field_value" : -2,
     "name" : "android::hardware::Status::EX_BAD_PARCELABLE"
    },
    {
     "enum_field_value" : -3,
     "name" : "android::hardware::Status::EX_ILLEGAL_ARGUMENT"
    },
    {
     "enum_field_value" : -4,
     "name" : "android::hardware::Status::EX_NULL_POINTER"
    },
    {
     "enum_field_value" : -5,
     "name" : "android::hardware::Status::EX_ILLEGAL_STATE"
    },
    {
     "enum_field_value" : -6,
     "name" : "android::hardware::Status::EX_NETWORK_MAIN_THREAD"
    },
    {
     "enum_field_value" : -7,
     "name" : "android::hardware::Status::EX_UNSUPPORTED_OPERATION"
    },
    {
     "enum_field_value" : -128,
     "name" : "android::hardware::Status::EX_HAS_REPLY_HEADER"
    },
    {
     "enum_field_value" : -129,
     "name" : "android::hardware::Status::EX_TRANSACTION_FAILED"
    }
   ],
   "linker_set_key" : "_ZTIN7android8hardware6Status9ExceptionE",
   "name" : "android::hardware::Status::Exception",
   "referenced_type" : "_ZTIN7android8hardware6Status9ExceptionE",
   "self_type" : "_ZTIN7android8hardware6Status9ExceptionE",
   "size" : 4,
   "source_file" : "/system/libhidl/base/include/hidl/Status.h",
   "underlying_type" : "_ZTIi"
  },
  {
   "alignment" : 4,
   "enum_fields" :
   [
    {
     "enum_field_value" : 1,
     "name" : "android::hardware::IBinder::FLAG_ONEWAY"
    }
   ],
   "linker_set_key" : "_ZTIN7android8hardware7IBinder12$FLAG_ONEWAYE",
   "name" : "android::hardware::IBinder::(anonymous enum at system/libhwbinder/include/hwbinder/IBinder.h:47:5)",
   "referenced_type" : "_ZTIN7android8hardware7IBinder12$FLAG_ONEWAYE",
   "self_type" : "_ZTIN7android8hardware7IBinder12$FLAG_ONEWAYE",
   "size" : 4,
   "source_file" : "/system/libhwbinder/include/hwbinder/IBinder.h",
   "underlying_type" : "_ZTIj"
  },
  {
   "alignment" : 4,
   "enum_fields" :
   [
    {
     "enum_field_value" : 0,
     "name" : "android::hardware::details::HidlInstrumentor::SERVER_API_ENTRY"
    },
    {
     "enum_field_value" : 1,
     "name" : "android::hardware::details::HidlInstrumentor::SERVER_API_EXIT"
    },
    {
     "enum_field_value" : 2,
     "name" : "android::hardware::details::HidlInstrumentor::CLIENT_API_ENTRY"
    },
    {
     "enum_field_value" : 3,
     "name" : "android::hardware::details::HidlInstrumentor::CLIENT_API_EXIT"
    },
    {
     "enum_field_value" : 4,
     "name" : "android::hardware::details::HidlInstrumentor::SYNC_CALLBACK_ENTRY"
    },
    {
     "enum_field_value" : 5,
     "name" : "android::hardware::details::HidlInstrumentor::SYNC_CALLBACK_EXIT"
    },
    {
     "enum_field_value" : 6,
     "name" : "android::hardware::details::HidlInstrumentor::ASYNC_CALLBACK_ENTRY"
    },
    {
     "enum_field_value" : 7,
     "name" : "android::hardware::details::HidlInstrumentor::ASYNC_CALLBACK_EXIT"
    },
    {
     "enum_field_value" : 8,
     "name" : "android::hardware::details::HidlInstrumentor::PASSTHROUGH_ENTRY"
    },
    {
     "enum_field_value" : 9,
     "name" : "android::hardware::details::HidlInstrumentor::PASSTHROUGH_EXIT"
    }
   ],
   "linker_set_key" : "_ZTIN7android8hardware7details16HidlInstrumentor20InstrumentationEventE",
   "name" : "android::hardware::details::HidlInstrumentor::InstrumentationEvent",
   "referenced_type" : "_ZTIN7android8hardware7details16HidlInstrumentor20InstrumentationEventE",
   "self_type" : "_ZTIN7android8hardware7details16HidlInstrumentor20InstrumentationEventE",
   "size" : 4,
   "source_file" : "/system/libhidl/base/include/hidl/HidlInternal.h",
   "underlying_type" : "_ZTIj"
  },
  {
   "alignment" : 4,
   "enum_fields" :
   [
    {
     "enum_field_value" : 1,
     "name" : "android::hardware::kSynchronizedReadWrite"
    },
    {
     "enum_field_value" : 2,
     "name" : "android::hardware::kUnsynchronizedWrite"
    }
   ],
   "linker_set_key" : "_ZTIN7android8hardware8MQFlavorE",
   "name" : "android::hardware::MQFlavor",
   "referenced_type" : "_ZTIN7android8hardware8MQFlavorE",
   "self_type" : "_ZTIN7android8hardware8MQFlavorE",
   "size" : 4,
   "source_file" : "/system/libhidl/base/include/hidl/MQDescriptor.h",
   "underlying_type" : "_ZTIj"
  },
  {
   "alignment" : 4,
   "enum_fields" :
   [
    {
     "enum_field_value" : 0,
     "name" : "android::Condition::WAKE_UP_ONE"
    },
    {
     "enum_field_value" : 1,
     "name" : "android::Condition::WAKE_UP_ALL"
    }
   ],
   "linker_set_key" : "_ZTIN7android9Condition10WakeUpTypeE",
   "name" : "android::Condition::WakeUpType",
   "referenced_type" : "_ZTIN7android9Condition10WakeUpTypeE",
   "self_type" : "_ZTIN7android9Condition10WakeUpTypeE",
   "size" : 4,
   "source_file" : "/system/core/libutils/include/utils/Condition.h",
   "underlying_type" : "_ZTIj"
  },
  {
   "alignment" : 4,
   "enum_fields" :
   [
    {
     "enum_field_value" : 0,
     "name" : "android::Condition::PRIVATE"
    },
    {
     "enum_field_value" : 1,
     "name" : "android::Condition::SHARED"
    }
   ],
   "linker_set_key" : "_ZTIN7android9Condition8$PRIVATEE",
   "name" : "android::Condition::(anonymous enum at system/core/libutils/include/utils/Condition.h:54:5)",
   "referenced_type" : "_ZTIN7android9Condition8$PRIVATEE",
   "self_type" : "_ZTIN7android9Condition8$PRIVATEE",
   "size" : 4,
   "source_file" : "/system/core/libutils/include/utils/Condition.h",
   "underlying_type" : "_ZTIj"
  }
 ],
 "function_types" :
 [
  {
   "alignment" : 4,
   "linker_set_key" : "_ZTIFbRKN7android8String16ERKNS_2spINS_8hardware7IBinderEEEPvE",
   "name" : "bool (const android::String16 &, const android::sp<android::hardware::IBinder> &, void *)",
   "parameters" :
   [
    {
     "referenced_type" : "_ZTIRKN7android8String16E"
    },
    {
     "referenced_type" : "_ZTIRKN7android2spINS_8hardware7IBinderEEE"
    },
    {
     "referenced_type" : "_ZTIPv"
    }
   ],
   "referenced_type" : "_ZTIFbRKN7android8String16ERKNS_2spINS_8hardware7IBinderEEEPvE",
   "return_type" : "_ZTIb",
   "self_type" : "_ZTIFbRKN7android8String16ERKNS_2spINS_8hardware7IBinderEEEPvE",
   "source_file" : "/system/libhwbinder/include/hwbinder/ProcessState.h"
  },
  {
   "alignment" : 4,
   "linker_set_key" : "_ZTIFiPvE",
   "name" : "int (void *)",
   "parameters" :
   [
    {
     "referenced_type" : "_ZTIPv"
    }
   ],
   "referenced_type" : "_ZTIFiPvE",
   "return_type" : "_ZTIi",
   "self_type" : "_ZTIFiPvE",
   "source_file" : "/system/core/libutils/include/utils/AndroidThreads.h"
  },
  {
   "alignment" : 4,
   "linker_set_key" : "_ZTIFvPN7android8hardware6ParcelEPKhjPKyjPvE",
   "name" : "void (android::hardware::Parcel *, const unsigned char *, unsigned int, const unsigned long long *, unsigned int, void *)",
   "parameters" :
   [
    {
     "referenced_type" : "_ZTIPN7android8hardware6ParcelE"
    },
    {
     "referenced_type" : "_ZTIPKh"
    },
    {
     "referenced_type" : "_ZTIj"
    },
    {
     "referenced_type" : "_ZTIPKy"
    },
    {
     "referenced_type" : "_ZTIj"
    },
    {
     "referenced_type" : "_ZTIPv"
    }
   ],
   "referenced_type" : "_ZTIFvPN7android8hardware6ParcelEPKhjPKyjPvE",
   "return_type" : "_ZTIv",
   "self_type" : "_ZTIFvPN7android8hardware6ParcelEPKhjPKyjPvE",
   "source_file" : "/system/libhwbinder/include/hwbinder/Parcel.h"
  }
 ],
 "functions" :
 [
  {
   "function_name" : "android::hardware::radio::config::V1_1::IRadioConfig::getService",
   "linker_set_key" : "_ZN7android8hardware5radio6config4V1_112IRadioConfig10getServiceERKNSt3__112basic_stringIcNS5_11char_traitsIcEENS5_9allocatorIcEEEEb",
   "parameters" :
   [
    {
     "default_arg" : true,
     "referenced_type" : "_ZTIRKNSt3__112basic_stringIcNS_11char_traitsIcEENS_9allocatorIcEEEE"
    },
    {
     "default_arg" : true,
     "referenced_type" : "_ZTIb"
    }
   ],
   "return_type" : "_ZTIN7android2spINS_8hardware5radio6config4V1_112IRadioConfigEEE",
   "source_file" : "/out/soong/.intermediates/hardware/interfaces/radio/config/1.1/android.hardware.radio.config@1.1_genc++_headers/gen/android/hardware/radio/config/1.1/IRadioConfig.h"
  },
  {
   "function_name" : "android::hardware::radio::config::V1_1::IRadioConfig::linkToDeath",
   "linker_set_key" : "_ZN7android8hardware5radio6config4V1_112IRadioConfig11linkToDeathERKNS_2spINS0_20hidl_death_recipientEEEy",
   "parameters" :
   [
    {
     "is_this_ptr" : true,
     "referenced_type" : "_ZTIPN7android8hardware5radio6config4V1_112IRadioConfigE"
    },
    {
     "referenced_type" : "_ZTIRKN7android2spINS_8hardware20hidl_death_recipientEEE"
    },
    {
     "referenced_type" : "_ZTIy"
    }
   ],
   "return_type" : "_ZTIN7android8hardware6ReturnIbEE",
   "source_file" : "/out/soong/.intermediates/hardware/interfaces/radio/config/1.1/android.hardware.radio.config@1.1_genc++_headers/gen/android/hardware/radio/config/1.1/IRadioConfig.h"
  },
  {
   "function_name" : "android::hardware::radio::config::V1_1::IRadioConfig::getDebugInfo",
   "linker_set_key" : "_ZN7android8hardware5radio6config4V1_112IRadioConfig12getDebugInfoENSt3__18functionIFvRKNS_4hidl4base4V1_09DebugInfoEEEE",
   "parameters" :
   [
    {
     "is_this_ptr" : true,
     "referenced_type" : "_ZTIPN7android8hardware5radio6config4V1_112IRadioConfigE"
    },
    {
     "referenced_type" : "_ZTINSt3__18functionIFvRKN7android4hidl4base4V1_09DebugInfoEEEE"
    }
   ],
   "return_type" : "_ZTIN7android8hardware6ReturnIvEE",
   "source_file" : "/out/soong/.intermediates/hardware/interfaces/radio/config/1.1/android.hardware.radio.config@1.1_genc++_headers/gen/android/hardware/radio/config/1.1/IRadioConfig.h"
  },
  {
   "function_name" : "android::hardware::radio::config::V1_1::IRadioConfig::getHashChain",
   "linker_set_key" : "_ZN7android8hardware5radio6config4V1_112IRadioConfig12getHashChainENSt3__18functionIFvRKNS0_8hidl_vecINS0_10hidl_arrayIhLj32EJEEEEEEEE",
   "parameters" :
   [
    {
     "is_this_ptr" : true,
     "referenced_type" : "_ZTIPN7android8hardware5radio6config4V1_112IRadioConfigE"
    },
    {
     "referenced_type" : "_ZTINSt3__18functionIFvRKN7android8hardware8hidl_vecINS2_10hidl_arrayIhLj32EJEEEEEEEE"
    }
   ],
   "return_type" : "_ZTIN7android8hardware6ReturnIvEE",
   "source_file" : "/out/soong/.intermediates/hardware/interfaces/radio/config/1.1/android.hardware.radio.config@1.1_genc++_headers/gen/android/hardware/radio/config/1.1/IRadioConfig.h"
  },
  {
   "function_name" : "android::hardware::radio::config::V1_1::IRadioConfig::tryGetService",
   "linker_set_key" : "_ZN7android8hardware5radio6config4V1_112IRadioConfig13tryGetServiceERKNSt3__112basic_stringIcNS5_11char_traitsIcEENS5_9allocatorIcEEEEb",
   "parameters" :
   [
    {
     "default_arg" : true,
     "referenced_type" : "_ZTIRKNSt3__112basic_stringIcNS_11char_traitsIcEENS_9allocatorIcEEEE"
    },
    {
     "default_arg" : true,
     "referenced_type" : "_ZTIb"
    }
   ],
   "return_type" : "_ZTIN7android2spINS_8hardware5radio6config4V1_112IRadioConfigEEE",
   "source_file" : "/out/soong/.intermediates/hardware/interfaces/radio/config/1.1/android.hardware.radio.config@1.1_genc++_headers/gen/android/hardware/radio/config/1.1/IRadioConfig.h"
  },
  {
   "function_name" : "android::hardware::radio::config::V1_1::IRadioConfig::unlinkToDeath",
   "linker_set_key" : "_ZN7android8hardware5radio6config4V1_112IRadioConfig13unlinkToDeathERKNS_2spINS0_20hidl_death_recipientEEE",
   "parameters" :
   [
    {
     "is_this_ptr" : true,
     "referenced_type" : "_ZTIPN7android8hardware5radio6config4V1_112IRadioConfigE"
    },
    {
     "referenced_type" : "_ZTIRKN7android2spINS_8hardware20hidl_death_recipientEEE"
    }
   ],
   "return_type" : "_ZTIN7android8hardware6ReturnIbEE",
   "source_file" : "/out/soong/.intermediates/hardware/interfaces/radio/config/1.1/android.hardware.radio.config@1.1_genc++_headers/gen/android/hardware/radio/config/1.1/IRadioConfig.h"
  },
  {
   "function_name" : "android::hardware::radio::config::V1_1::IRadioConfig::interfaceChain",
   "linker_set_key" : "_ZN7android8hardware5radio6config4V1_112IRadioConfig14interfaceChainENSt3__18functionIFvRKNS0_8hidl_vecINS0_11hidl_stringEEEEEE",
   "parameters" :
   [
    {
     "is_this_ptr" : true,
     "referenced_type" : "_ZTIPN7android8hardware5radio6config4V1_112IRadioConfigE"
    },
    {
     "referenced_type" : "_ZTINSt3__18functionIFvRKN7android8hardware8hidl_vecINS2_11hidl_stringEEEEEE"
    }
   ],
   "return_type" : "_ZTIN7android8hardware6ReturnIvEE",
   "source_file" : "/out/soong/.intermediates/hardware/interfaces/radio/config/1.1/android.hardware.radio.config@1.1_genc++_headers/gen/android/hardware/radio/config/1.1/IRadioConfig.h"
  },
  {
   "function_name" : "android::hardware::radio::config::V1_1::IRadioConfig::registerAsService",
   "linker_set_key" : "_ZN7android8hardware5radio6config4V1_112IRadioConfig17registerAsServiceERKNSt3__112basic_stringIcNS5_11char_traitsIcEENS5_9allocatorIcEEEE",
   "parameters" :
   [
    {
     "is_this_ptr" : true,
     "referenced_type" : "_ZTIPN7android8hardware5radio6config4V1_112IRadioConfigE"
    },
    {
     "default_arg" : true,
     "referenced_type" : "_ZTIRKNSt3__112basic_stringIcNS_11char_traitsIcEENS_9allocatorIcEEEE"
    }
   ],
   "return_type" : "_ZTIi",
   "source_file" : "/out/soong/.intermediates/hardware/interfaces/radio/config/1.1/android.hardware.radio.config@1.1_genc++_headers/gen/android/hardware/radio/config/1.1/IRadioConfig.h"
  },
  {
   "function_name" : "android::hardware::radio::config::V1_1::IRadioConfig::interfaceDescriptor",
   "linker_set_key" : "_ZN7android8hardware5radio6config4V1_112IRadioConfig19interfaceDescriptorENSt3__18functionIFvRKNS0_11hidl_stringEEEE",
   "parameters" :
   [
    {
     "is_this_ptr" : true,
     "referenced_type" : "_ZTIPN7android8hardware5radio6config4V1_112IRadioConfigE"
    },
    {
     "referenced_type" : "_ZTINSt3__18functionIFvRKN7android8hardware11hidl_stringEEEE"
    }
   ],
   "return_type" : "_ZTIN7android8hardware6ReturnIvEE",
   "source_file" : "/out/soong/.intermediates/hardware/interfaces/radio/config/1.1/android.hardware.radio.config@1.1_genc++_headers/gen/android/hardware/radio/config/1.1/IRadioConfig.h"
  },
  {
   "function_name" : "android::hardware::radio::config::V1_1::IRadioConfig::notifySyspropsChanged",
   "linker_set_key" : "_ZN7android8hardware5radio6config4V1_112IRadioConfig21notifySyspropsChangedEv",
   "parameters" :
   [
    {
     "is_this_ptr" : true,
     "referenced_type" : "_ZTIPN7android8hardware5radio6config4V1_112IRadioConfigE"
    }
   ],
   "return_type" : "_ZTIN7android8hardware6ReturnIvEE",
   "source_file" : "/out/soong/.intermediates/hardware/interfaces/radio/config/1.1/android.hardware.radio.config@1.1_genc++_headers/gen/android/hardware/radio/config/1.1/IRadioConfig.h"
  },
  {
   "function_name" : "android::hardware::radio::config::V1_1::IRadioConfig::setHALInstrumentation",
   "linker_set_key" : "_ZN7android8hardware5radio6config4V1_112IRadioConfig21setHALInstrumentationEv",
   "parameters" :
   [
    {
     "is_this_ptr" : true,
     "referenced_type" : "_ZTIPN7android8hardware5radio6config4V1_112IRadioConfigE"
    }
   ],
   "return_type" : "_ZTIN7android8hardware6ReturnIvEE",
   "source_file" : "/out/soong/.intermediates/hardware/interfaces/radio/config/1.1/android.hardware.radio.config@1.1_genc++_headers/gen/android/hardware/radio/config/1.1/IRadioConfig.h"
  },
  {
   "function_name" : "android::hardware::radio::config::V1_1::IRadioConfig::registerForNotifications",
   "linker_set_key" : "_ZN7android8hardware5radio6config4V1_112IRadioConfig24registerForNotificationsERKNSt3__112basic_stringIcNS5_11char_traitsIcEENS5_9allocatorIcEEEERKNS_2spINS_4hidl7manager4V1_020IServiceNotificationEEE",
   "parameters" :
   [
    {
     "referenced_type" : "_ZTIRKNSt3__112basic_stringIcNS_11char_traitsIcEENS_9allocatorIcEEEE"
    },
    {
     "referenced_type" : "_ZTIRKN7android2spINS_4hidl7manager4V1_020IServiceNotificationEEE"
    }
   ],
   "return_type" : "_ZTIb",
   "source_file" : "/out/soong/.intermediates/hardware/interfaces/radio/config/1.1/android.hardware.radio.config@1.1_genc++_headers/gen/android/hardware/radio/config/1.1/IRadioConfig.h"
  },
  {
   "function_name" : "android::hardware::radio::config::V1_1::IRadioConfig::ping",
   "linker_set_key" : "_ZN7android8hardware5radio6config4V1_112IRadioConfig4pingEv",
   "parameters" :
   [
    {
     "is_this_ptr" : true,
     "referenced_type" : "_ZTIPN7android8hardware5radio6config4V1_112IRadioConfigE"
    }
   ],
   "return_type" : "_ZTIN7android8hardware6ReturnIvEE",
   "source_file" : "/out/soong/.intermediates/hardware/interfaces/radio/config/1.1/android.hardware.radio.config@1.1_genc++_headers/gen/android/hardware/radio/config/1.1/IRadioConfig.h"
  },
  {
   "function_name" : "android::hardware::radio::config::V1_1::IRadioConfig::debug",
   "linker_set_key" : "_ZN7android8hardware5radio6config4V1_112IRadioConfig5debugERKNS0_11hidl_handleERKNS0_8hidl_vecINS0_11hidl_stringEEE",
   "parameters" :
   [
    {
     "is_this_ptr" : true,
     "referenced_type" : "_ZTIPN7android8hardware5radio6config4V1_112IRadioConfigE"
    },
    {
     "referenced_type" : "_ZTIRKN7android8hardware11hidl_handleE"
    },
    {
     "referenced_type" : "_ZTIRKN7android8hardware8hidl_vecINS0_11hidl_stringEEE"
    }
   ],
   "return_type" : "_ZTIN7android8hardware6ReturnIvEE",
   "source_file" : "/out/soong/.intermediates/hardware/interfaces/radio/config/1.1/android.hardware.radio.config@1.1_genc++_headers/gen/android/hardware/radio/config/1.1/IRadioConfig.h"
  },
  {
   "function_name" : "android::hardware::radio::config::V1_1::IRadioConfig::castFrom",
   "linker_set_key" : "_ZN7android8hardware5radio6config4V1_112IRadioConfig8castFromERKNS_2spINS2_4V1_012IRadioConfigEEEb",
   "parameters" :
   [
    {
     "referenced_type" : "_ZTIRKN7android2spINS_8hardware5radio6config4V1_012IRadioConfigEEE"
    },
    {
     "default_arg" : true,
     "referenced_type" : "_ZTIb"
    }
   ],
   "return_type" : "_ZTIN7android8hardware6ReturnINS_2spINS0_5radio6config4V1_112IRadioConfigEEEEE",
   "source_file" : "/out/soong/.intermediates/hardware/interfaces/radio/config/1.1/android.hardware.radio.config@1.1_genc++_headers/gen/android/hardware/radio/config/1.1/IRadioConfig.h"
  },
  {
   "function_name" : "android::hardware::radio::config::V1_1::IRadioConfig::castFrom",
   "linker_set_key" : "_ZN7android8hardware5radio6config4V1_112IRadioConfig8castFromERKNS_2spINS_4hidl4base4V1_05IBaseEEEb",
   "parameters" :
   [
    {
     "referenced_type" : "_ZTIRKN7android2spINS_4hidl4base4V1_05IBaseEEE"
    },
    {
     "default_arg" : true,
     "referenced_type" : "_ZTIb"
    }
   ],
   "return_type" : "_ZTIN7android8hardware6ReturnINS_2spINS0_5radio6config4V1_112IRadioConfigEEEEE",
   "source_file" : "/out/soong/.intermediates/hardware/interfaces/radio/config/1.1/android.hardware.radio.config@1.1_genc++_headers/gen/android/hardware/radio/config/1.1/IRadioConfig.h"
  },
  {
   "function_name" : "android::hardware::radio::config::V1_1::IRadioConfig::castFrom",
   "linker_set_key" : "_ZN7android8hardware5radio6config4V1_112IRadioConfig8castFromERKNS_2spIS4_EEb",
   "parameters" :
   [
    {
     "referenced_type" : "_ZTIRKN7android2spINS_8hardware5radio6config4V1_112IRadioConfigEEE"
    },
    {
     "default_arg" : true,
     "referenced_type" : "_ZTIb"
    }
   ],
   "return_type" : "_ZTIN7android8hardware6ReturnINS_2spINS0_5radio6config4V1_112IRadioConfigEEEEE",
   "source_file" : "/out/soong/.intermediates/hardware/interfaces/radio/config/1.1/android.hardware.radio.config@1.1_genc++_headers/gen/android/hardware/radio/config/1.1/IRadioConfig.h"
  },
  {
   "access" : "private",
   "function_name" : "android::hardware::radio::config::V1_1::BsRadioConfig::addOnewayTask",
   "linker_set_key" : "_ZN7android8hardware5radio6config4V1_113BsRadioConfig13addOnewayTaskENSt3__18functionIFvvEEE",
   "parameters" :
   [
    {
     "is_this_ptr" : true,
     "referenced_type" : "_ZTIPN7android8hardware5radio6config4V1_113BsRadioConfigE"
    },
    {
     "referenced_type" : "_ZTINSt3__18functionIFvvEEE"
    }
   ],
   "return_type" : "_ZTIN7android8hardware6ReturnIvEE",
   "source_file" : "/out/soong/.intermediates/hardware/interfaces/radio/config/1.1/android.hardware.radio.config@1.1_genc++_headers/gen/android/hardware/radio/config/1.1/BsRadioConfig.h"
  },
  {
   "function_name" : "android::hardware::radio::config::V1_1::BsRadioConfig::BsRadioConfig",
   "linker_set_key" : "_ZN7android8hardware5radio6config4V1_113BsRadioConfigC1ENS_2spINS3_12IRadioConfigEEE",
   "parameters" :
   [
    {
     "is_this_ptr" : true,
     "referenced_type" : "_ZTIPN7android8hardware5radio6config4V1_113BsRadioConfigE"
    },
    {
     "referenced_type" : "_ZTIKN7android2spINS_8hardware5radio6config4V1_112IRadioConfigEEE"
    }
   ],
   "return_type" : "_ZTIv",
   "source_file" : "/out/soong/.intermediates/hardware/interfaces/radio/config/1.1/android.hardware.radio.config@1.1_genc++_headers/gen/android/hardware/radio/config/1.1/BsRadioConfig.h"
  },
  {
   "function_name" : "android::hardware::radio::config::V1_1::BsRadioConfig::BsRadioConfig",
   "linker_set_key" : "_ZN7android8hardware5radio6config4V1_113BsRadioConfigC2ENS_2spINS3_12IRadioConfigEEE",
   "parameters" :
   [
    {
     "is_this_ptr" : true,
     "referenced_type" : "_ZTIPN7android8hardware5radio6config4V1_113BsRadioConfigE"
    },
    {
     "referenced_type" : "_ZTIKN7android2spINS_8hardware5radio6config4V1_112IRadioConfigEEE"
    }
   ],
   "return_type" : "_ZTIv",
   "source_file" : "/out/soong/.intermediates/hardware/interfaces/radio/config/1.1/android.hardware.radio.config@1.1_genc++_headers/gen/android/hardware/radio/config/1.1/BsRadioConfig.h"
  },
  {
   "function_name" : "android::hardware::radio::config::V1_1::BnHwRadioConfig::onTransact",
   "linker_set_key" : "_ZN7android8hardware5radio6config4V1_115BnHwRadioConfig10onTransactEjRKNS0_6ParcelEPS5_jNSt3__18functionIFvRS5_EEE",
   "parameters" :
   [
    {
     "is_this_ptr" : true,
     "referenced_type" : "_ZTIPN7android8hardware5radio6config4V1_115BnHwRadioConfigE"
    },
    {
     "referenced_type" : "_ZTIj"
    },
    {
     "referenced_type" : "_ZTIRKN7android8hardware6ParcelE"
    },
    {
     "referenced_type" : "_ZTIPN7android8hardware6ParcelE"
    },
    {
     "default_arg" : true,
     "referenced_type" : "_ZTIj"
    },
    {
     "default_arg" : true,
     "referenced_type" : "_ZTINSt3__18functionIFvRN7android8hardware6ParcelEEEE"
    }
   ],
   "return_type" : "_ZTIi",
   "source_file" : "/out/soong/.intermediates/hardware/interfaces/radio/config/1.1/android.hardware.radio.config@1.1_genc++_headers/gen/android/hardware/radio/config/1.1/BnHwRadioConfig.h"
  },
  {
   "access" : "private",
   "function_name" : "android::hardware::radio::config::V1_1::BnHwRadioConfig::getDebugInfo",
   "linker_set_key" : "_ZN7android8hardware5radio6config4V1_115BnHwRadioConfig12getDebugInfoENSt3__18functionIFvRKNS_4hidl4base4V1_09DebugInfoEEEE",
   "parameters" :
   [
    {
     "is_this_ptr" : true,
     "referenced_type" : "_ZTIPN7android8hardware5radio6config4V1_115BnHwRadioConfigE"
    },
    {
     "referenced_type" : "_ZTINSt3__18functionIFvRKN7android4hidl4base4V1_09DebugInfoEEEE"
    }
   ],
   "return_type" : "_ZTIN7android8hardware6ReturnIvEE",
   "source_file" : "/out/soong/.intermediates/hardware/interfaces/radio/config/1.1/android.hardware.radio.config@1.1_genc++_headers/gen/android/hardware/radio/config/1.1/BnHwRadioConfig.h"
  },
  {
   "function_name" : "android::hardware::radio::config::V1_1::BnHwRadioConfig::_hidl_getModemsConfig",
   "linker_set_key" : "_ZN7android8hardware5radio6config4V1_115BnHwRadioConfig21_hidl_getModemsConfigEPNS_4hidl4base4V1_08BnHwBaseERKNS0_6ParcelEPSA_NSt3__18functionIFvRSA_EEE",
   "parameters" :
   [
    {
     "referenced_type" : "_ZTIPN7android4hidl4base4V1_08BnHwBaseE"
    },
    {
     "referenced_type" : "_ZTIRKN7android8hardware6ParcelE"
    },
    {
     "referenced_type" : "_ZTIPN7android8hardware6ParcelE"
    },
    {
     "referenced_type" : "_ZTINSt3__18functionIFvRN7android8hardware6ParcelEEEE"
    }
   ],
   "return_type" : "_ZTIi",
   "source_file" : "/out/soong/.intermediates/hardware/interfaces/radio/config/1.1/android.hardware.radio.config@1.1_genc++_headers/gen/android/hardware/radio/config/1.1/BnHwRadioConfig.h"
  },
  {
   "function_name" : "android::hardware::radio::config::V1_1::BnHwRadioConfig::_hidl_setModemsConfig",
   "linker_set_key" : "_ZN7android8hardware5radio6config4V1_115BnHwRadioConfig21_hidl_setModemsConfigEPNS_4hidl4base4V1_08BnHwBaseERKNS0_6ParcelEPSA_NSt3__18functionIFvRSA_EEE",
   "parameters" :
   [
    {
     "referenced_type" : "_ZTIPN7android4hidl4base4V1_08BnHwBaseE"
    },
    {
     "referenced_type" : "_ZTIRKN7android8hardware6ParcelE"
    },
    {
     "referenced_type" : "_ZTIPN7android8hardware6ParcelE"
    },
    {
     "referenced_type" : "_ZTINSt3__18functionIFvRN7android8hardware6ParcelEEEE"
    }
   ],
   "return_type" : "_ZTIi",
   "source_file" : "/out/soong/.intermediates/hardware/interfaces/radio/config/1.1/android.hardware.radio.config@1.1_genc++_headers/gen/android/hardware/radio/config/1.1/BnHwRadioConfig.h"
  },
  {
   "function_name" : "android::hardware::radio::config::V1_1::BnHwRadioConfig::_hidl_getPhoneCapability",
   "linker_set_key" : "_ZN7android8hardware5radio6config4V1_115BnHwRadioConfig24_hidl_getPhoneCapabilityEPNS_4hidl4base4V1_08BnHwBaseERKNS0_6ParcelEPSA_NSt3__18functionIFvRSA_EEE",
   "parameters" :
   [
    {
     "referenced_type" : "_ZTIPN7android4hidl4base4V1_08BnHwBaseE"
    },
    {
     "referenced_type" : "_ZTIRKN7android8hardware6ParcelE"
    },
    {
     "referenced_type" : "_ZTIPN7android8hardware6ParcelE"
    },
    {
     "referenced_type" : "_ZTINSt3__18functionIFvRN7android8hardware6ParcelEEEE"
    }
   ],
   "return_type" : "_ZTIi",
   "source_file" : "/out/soong/.intermediates/hardware/interfaces/radio/config/1.1/android.hardware.radio.config@1.1_genc++_headers/gen/android/hardware/radio/config/1.1/BnHwRadioConfig.h"
  },
  {
   "function_name" : "android::hardware::radio::config::V1_1::BnHwRadioConfig::_hidl_setPreferredDataModem",
   "linker_set_key" : "_ZN7android8hardware5radio6config4V1_115BnHwRadioConfig27_hidl_setPreferredDataModemEPNS_4hidl4base4V1_08BnHwBaseERKNS0_6ParcelEPSA_NSt3__18functionIFvRSA_EEE",
   "parameters" :
   [
    {
     "referenced_type" : "_ZTIPN7android4hidl4base4V1_08BnHwBaseE"
    },
    {
     "referenced_type" : "_ZTIRKN7android8hardware6ParcelE"
    },
    {
     "referenced_type" : "_ZTIPN7android8hardware6ParcelE"
    },
    {
     "referenced_type" : "_ZTINSt3__18functionIFvRN7android8hardware6ParcelEEEE"
    }
   ],
   "return_type" : "_ZTIi",
   "source_file" : "/out/soong/.intermediates/hardware/interfaces/radio/config/1.1/android.hardware.radio.config@1.1_genc++_headers/gen/android/hardware/radio/config/1.1/BnHwRadioConfig.h"
  },
  {
   "access" : "private",
   "function_name" : "android::hardware::radio::config::V1_1::BnHwRadioConfig::ping",
   "linker_set_key" : "_ZN7android8hardware5radio6config4V1_115BnHwRadioConfig4pingEv",
   "parameters" :
   [
    {
     "is_this_ptr" : true,
     "referenced_type" : "_ZTIPN7android8hardware5radio6config4V1_115BnHwRadioConfigE"
    }
   ],
   "return_type" : "_ZTIN7android8hardware6ReturnIvEE",
   "source_file" : "/out/soong/.intermediates/hardware/interfaces/radio/config/1.1/android.hardware.radio.config@1.1_genc++_headers/gen/android/hardware/radio/config/1.1/BnHwRadioConfig.h"
  },
  {
   "function_name" : "android::hardware::radio::config::V1_1::BnHwRadioConfig::BnHwRadioConfig",
   "linker_set_key" : "_ZN7android8hardware5radio6config4V1_115BnHwRadioConfigC1ERKNS_2spINS3_12IRadioConfigEEE",
   "parameters" :
   [
    {
     "is_this_ptr" : true,
     "referenced_type" : "_ZTIPN7android8hardware5radio6config4V1_115BnHwRadioConfigE"
    },
    {
     "referenced_type" : "_ZTIRKN7android2spINS_8hardware5radio6config4V1_112IRadioConfigEEE"
    }
   ],
   "return_type" : "_ZTIv",
   "source_file" : "/out/soong/.intermediates/hardware/interfaces/radio/config/1.1/android.hardware.radio.config@1.1_genc++_headers/gen/android/hardware/radio/config/1.1/BnHwRadioConfig.h"
  },
  {
   "function_name" : "android::hardware::radio::config::V1_1::BnHwRadioConfig::BnHwRadioConfig",
   "linker_set_key" : "_ZN7android8hardware5radio6config4V1_115BnHwRadioConfigC2ERKNS_2spINS3_12IRadioConfigEEE",
   "parameters" :
   [
    {
     "is_this_ptr" : true,
     "referenced_type" : "_ZTIPN7android8hardware5radio6config4V1_115BnHwRadioConfigE"
    },
    {
     "referenced_type" : "_ZTIRKN7android2spINS_8hardware5radio6config4V1_112IRadioConfigEEE"
    }
   ],
   "return_type" : "_ZTIv",
   "source_file" : "/out/soong/.intermediates/hardware/interfaces/radio/config/1.1/android.hardware.radio.config@1.1_genc++_headers/gen/android/hardware/radio/config/1.1/BnHwRadioConfig.h"
  },
  {
   "function_name" : "android::hardware::radio::config::V1_1::BnHwRadioConfig::~BnHwRadioConfig",
   "linker_set_key" : "_ZN7android8hardware5radio6config4V1_115BnHwRadioConfigD0Ev",
   "parameters" :
   [
    {
     "is_this_ptr" : true,
     "referenced_type" : "_ZTIPN7android8hardware5radio6config4V1_115BnHwRadioConfigE"
    }
   ],
   "return_type" : "_ZTIv",
   "source_file" : "/out/soong/.intermediates/hardware/interfaces/radio/config/1.1/android.hardware.radio.config@1.1_genc++_headers/gen/android/hardware/radio/config/1.1/BnHwRadioConfig.h"
  },
  {
   "function_name" : "android::hardware::radio::config::V1_1::BnHwRadioConfig::~BnHwRadioConfig",
   "linker_set_key" : "_ZN7android8hardware5radio6config4V1_115BnHwRadioConfigD1Ev",
   "parameters" :
   [
    {
     "is_this_ptr" : true,
     "referenced_type" : "_ZTIPN7android8hardware5radio6config4V1_115BnHwRadioConfigE"
    }
   ],
   "return_type" : "_ZTIv",
   "source_file" : "/out/soong/.intermediates/hardware/interfaces/radio/config/1.1/android.hardware.radio.config@1.1_genc++_headers/gen/android/hardware/radio/config/1.1/BnHwRadioConfig.h"
  },
  {
   "function_name" : "android::hardware::radio::config::V1_1::BnHwRadioConfig::~BnHwRadioConfig",
   "linker_set_key" : "_ZN7android8hardware5radio6config4V1_115BnHwRadioConfigD2Ev",
   "parameters" :
   [
    {
     "is_this_ptr" : true,
     "referenced_type" : "_ZTIPN7android8hardware5radio6config4V1_115BnHwRadioConfigE"
    }
   ],
   "return_type" : "_ZTIv",
   "source_file" : "/out/soong/.intermediates/hardware/interfaces/radio/config/1.1/android.hardware.radio.config@1.1_genc++_headers/gen/android/hardware/radio/config/1.1/BnHwRadioConfig.h"
  },
  {
   "function_name" : "android::hardware::radio::config::V1_1::BpHwRadioConfig::linkToDeath",
   "linker_set_key" : "_ZN7android8hardware5radio6config4V1_115BpHwRadioConfig11linkToDeathERKNS_2spINS0_20hidl_death_recipientEEEy",
   "parameters" :
   [
    {
     "is_this_ptr" : true,
     "referenced_type" : "_ZTIPN7android8hardware5radio6config4V1_115BpHwRadioConfigE"
    },
    {
     "referenced_type" : "_ZTIRKN7android2spINS_8hardware20hidl_death_recipientEEE"
    },
    {
     "referenced_type" : "_ZTIy"
    }
   ],
   "return_type" : "_ZTIN7android8hardware6ReturnIbEE",
   "source_file" : "/out/soong/.intermediates/hardware/interfaces/radio/config/1.1/android.hardware.radio.config@1.1_genc++_headers/gen/android/hardware/radio/config/1.1/BpHwRadioConfig.h"
  },
  {
   "function_name" : "android::hardware::radio::config::V1_1::BpHwRadioConfig::getDebugInfo",
   "linker_set_key" : "_ZN7android8hardware5radio6config4V1_115BpHwRadioConfig12getDebugInfoENSt3__18functionIFvRKNS_4hidl4base4V1_09DebugInfoEEEE",
   "parameters" :
   [
    {
     "is_this_ptr" : true,
     "referenced_type" : "_ZTIPN7android8hardware5radio6config4V1_115BpHwRadioConfigE"
    },
    {
     "referenced_type" : "_ZTINSt3__18functionIFvRKN7android4hidl4base4V1_09DebugInfoEEEE"
    }
   ],
   "return_type" : "_ZTIN7android8hardware6ReturnIvEE",
   "source_file" : "/out/soong/.intermediates/hardware/interfaces/radio/config/1.1/android.hardware.radio.config@1.1_genc++_headers/gen/android/hardware/radio/config/1.1/BpHwRadioConfig.h"
  },
  {
   "function_name" : "android::hardware::radio::config::V1_1::BpHwRadioConfig::getHashChain",
   "linker_set_key" : "_ZN7android8hardware5radio6config4V1_115BpHwRadioConfig12getHashChainENSt3__18functionIFvRKNS0_8hidl_vecINS0_10hidl_arrayIhLj32EJEEEEEEEE",
   "parameters" :
   [
    {
     "is_this_ptr" : true,
     "referenced_type" : "_ZTIPN7android8hardware5radio6config4V1_115BpHwRadioConfigE"
    },
    {
     "referenced_type" : "_ZTINSt3__18functionIFvRKN7android8hardware8hidl_vecINS2_10hidl_arrayIhLj32EJEEEEEEEE"
    }
   ],
   "return_type" : "_ZTIN7android8hardware6ReturnIvEE",
   "source_file" : "/out/soong/.intermediates/hardware/interfaces/radio/config/1.1/android.hardware.radio.config@1.1_genc++_headers/gen/android/hardware/radio/config/1.1/BpHwRadioConfig.h"
  },
  {
   "function_name" : "android::hardware::radio::config::V1_1::BpHwRadioConfig::unlinkToDeath",
   "linker_set_key" : "_ZN7android8hardware5radio6config4V1_115BpHwRadioConfig13unlinkToDeathERKNS_2spINS0_20hidl_death_recipientEEE",
   "parameters" :
   [
    {
     "is_this_ptr" : true,
     "referenced_type" : "_ZTIPN7android8hardware5radio6config4V1_115BpHwRadioConfigE"
    },
    {
     "referenced_type" : "_ZTIRKN7android2spINS_8hardware20hidl_death_recipientEEE"
    }
   ],
   "return_type" : "_ZTIN7android8hardware6ReturnIbEE",
   "source_file" : "/out/soong/.intermediates/hardware/interfaces/radio/config/1.1/android.hardware.radio.config@1.1_genc++_headers/gen/android/hardware/radio/config/1.1/BpHwRadioConfig.h"
  },
  {
   "function_name" : "android::hardware::radio::config::V1_1::BpHwRadioConfig::interfaceChain",
   "linker_set_key" : "_ZN7android8hardware5radio6config4V1_115BpHwRadioConfig14interfaceChainENSt3__18functionIFvRKNS0_8hidl_vecINS0_11hidl_stringEEEEEE",
   "parameters" :
   [
    {
     "is_this_ptr" : true,
     "referenced_type" : "_ZTIPN7android8hardware5radio6config4V1_115BpHwRadioConfigE"
    },
    {
     "referenced_type" : "_ZTINSt3__18functionIFvRKN7android8hardware8hidl_vecINS2_11hidl_stringEEEEEE"
    }
   ],
   "return_type" : "_ZTIN7android8hardware6ReturnIvEE",
   "source_file" : "/out/soong/.intermediates/hardware/interfaces/radio/config/1.1/android.hardware.radio.config@1.1_genc++_headers/gen/android/hardware/radio/config/1.1/BpHwRadioConfig.h"
  },
  {
   "function_name" : "android::hardware::radio::config::V1_1::BpHwRadioConfig::getModemsConfig",
   "linker_set_key" : "_ZN7android8hardware5radio6config4V1_115BpHwRadioConfig15getModemsConfigEi",
   "parameters" :
   [
    {
     "is_this_ptr" : true,
     "referenced_type" : "_ZTIPN7android8hardware5radio6config4V1_115BpHwRadioConfigE"
    },
    {
     "referenced_type" : "_ZTIi"
    }
   ],
   "return_type" : "_ZTIN7android8hardware6ReturnIvEE",
   "source_file" : "/out/soong/.intermediates/hardware/interfaces/radio/config/1.1/android.hardware.radio.config@1.1_genc++_headers/gen/android/hardware/radio/config/1.1/BpHwRadioConfig.h"
  },
  {
   "function_name" : "android::hardware::radio::config::V1_1::BpHwRadioConfig::onLastStrongRef",
   "linker_set_key" : "_ZN7android8hardware5radio6config4V1_115BpHwRadioConfig15onLastStrongRefEPKv",
   "parameters" :
   [
    {
     "is_this_ptr" : true,
     "referenced_type" : "_ZTIPN7android8hardware5radio6config4V1_115BpHwRadioConfigE"
    },
    {
     "referenced_type" : "_ZTIPKv"
    }
   ],
   "return_type" : "_ZTIv",
   "source_file" : "/out/soong/.intermediates/hardware/interfaces/radio/config/1.1/android.hardware.radio.config@1.1_genc++_headers/gen/android/hardware/radio/config/1.1/BpHwRadioConfig.h"
  },
  {
   "function_name" : "android::hardware::radio::config::V1_1::BpHwRadioConfig::setModemsConfig",
   "linker_set_key" : "_ZN7android8hardware5radio6config4V1_115BpHwRadioConfig15setModemsConfigEiRKNS3_12ModemsConfigE",
   "parameters" :
   [
    {
     "is_this_ptr" : true,
     "referenced_type" : "_ZTIPN7android8hardware5radio6config4V1_115BpHwRadioConfigE"
    },
    {
     "referenced_type" : "_ZTIi"
    },
    {
     "referenced_type" : "_ZTIRKN7android8hardware5radio6config4V1_112ModemsConfigE"
    }
   ],
   "return_type" : "_ZTIN7android8hardware6ReturnIvEE",
   "source_file" : "/out/soong/.intermediates/hardware/interfaces/radio/config/1.1/android.hardware.radio.config@1.1_genc++_headers/gen/android/hardware/radio/config/1.1/BpHwRadioConfig.h"
  },
  {
   "function_name" : "android::hardware::radio::config::V1_1::BpHwRadioConfig::getSimSlotsStatus",
   "linker_set_key" : "_ZN7android8hardware5radio6config4V1_115BpHwRadioConfig17getSimSlotsStatusEi",
   "parameters" :
   [
    {
     "is_this_ptr" : true,
     "referenced_type" : "_ZTIPN7android8hardware5radio6config4V1_115BpHwRadioConfigE"
    },
    {
     "referenced_type" : "_ZTIi"
    }
   ],
   "return_type" : "_ZTIN7android8hardware6ReturnIvEE",
   "source_file" : "/out/soong/.intermediates/hardware/interfaces/radio/config/1.1/android.hardware.radio.config@1.1_genc++_headers/gen/android/hardware/radio/config/1.1/BpHwRadioConfig.h"
  },
  {
   "function_name" : "android::hardware::radio::config::V1_1::BpHwRadioConfig::getPhoneCapability",
   "linker_set_key" : "_ZN7android8hardware5radio6config4V1_115BpHwRadioConfig18getPhoneCapabilityEi",
   "parameters" :
   [
    {
     "is_this_ptr" : true,
     "referenced_type" : "_ZTIPN7android8hardware5radio6config4V1_115BpHwRadioConfigE"
    },
    {
     "referenced_type" : "_ZTIi"
    }
   ],
   "return_type" : "_ZTIN7android8hardware6ReturnIvEE",
   "source_file" : "/out/soong/.intermediates/hardware/interfaces/radio/config/1.1/android.hardware.radio.config@1.1_genc++_headers/gen/android/hardware/radio/config/1.1/BpHwRadioConfig.h"
  },
  {
   "function_name" : "android::hardware::radio::config::V1_1::BpHwRadioConfig::setSimSlotsMapping",
   "linker_set_key" : "_ZN7android8hardware5radio6config4V1_115BpHwRadioConfig18setSimSlotsMappingEiRKNS0_8hidl_vecIjEE",
   "parameters" :
   [
    {
     "is_this_ptr" : true,
     "referenced_type" : "_ZTIPN7android8hardware5radio6config4V1_115BpHwRadioConfigE"
    },
    {
     "referenced_type" : "_ZTIi"
    },
    {
     "referenced_type" : "_ZTIRKN7android8hardware8hidl_vecIjEE"
    }
   ],
   "return_type" : "_ZTIN7android8hardware6ReturnIvEE",
   "source_file" : "/out/soong/.intermediates/hardware/interfaces/radio/config/1.1/android.hardware.radio.config@1.1_genc++_headers/gen/android/hardware/radio/config/1.1/BpHwRadioConfig.h"
  },
  {
   "function_name" : "android::hardware::radio::config::V1_1::BpHwRadioConfig::interfaceDescriptor",
   "linker_set_key" : "_ZN7android8hardware5radio6config4V1_115BpHwRadioConfig19interfaceDescriptorENSt3__18functionIFvRKNS0_11hidl_stringEEEE",
   "parameters" :
   [
    {
     "is_this_ptr" : true,
     "referenced_type" : "_ZTIPN7android8hardware5radio6config4V1_115BpHwRadioConfigE"
    },
    {
     "referenced_type" : "_ZTINSt3__18functionIFvRKN7android8hardware11hidl_stringEEEE"
    }
   ],
   "return_type" : "_ZTIN7android8hardware6ReturnIvEE",
   "source_file" : "/out/soong/.intermediates/hardware/interfaces/radio/config/1.1/android.hardware.radio.config@1.1_genc++_headers/gen/android/hardware/radio/config/1.1/BpHwRadioConfig.h"
  },
  {
   "function_name" : "android::hardware::radio::config::V1_1::BpHwRadioConfig::setResponseFunctions",
   "linker_set_key" : "_ZN7android8hardware5radio6config4V1_115BpHwRadioConfig20setResponseFunctionsERKNS_2spINS2_4V1_020IRadioConfigResponseEEERKNS5_INS6_22IRadioConfigIndicationEEE",
   "parameters" :
   [
    {
     "is_this_ptr" : true,
     "referenced_type" : "_ZTIPN7android8hardware5radio6config4V1_115BpHwRadioConfigE"
    },
    {
     "referenced_type" : "_ZTIRKN7android2spINS_8hardware5radio6config4V1_020IRadioConfigResponseEEE"
    },
    {
     "referenced_type" : "_ZTIRKN7android2spINS_8hardware5radio6config4V1_022IRadioConfigIndicationEEE"
    }
   ],
   "return_type" : "_ZTIN7android8hardware6ReturnIvEE",
   "source_file" : "/out/soong/.intermediates/hardware/interfaces/radio/config/1.1/android.hardware.radio.config@1.1_genc++_headers/gen/android/hardware/radio/config/1.1/BpHwRadioConfig.h"
  },
  {
   "function_name" : "android::hardware::radio::config::V1_1::BpHwRadioConfig::_hidl_getModemsConfig",
   "linker_set_key" : "_ZN7android8hardware5radio6config4V1_115BpHwRadioConfig21_hidl_getModemsConfigEPNS0_10IInterfaceEPNS0_7details16HidlInstrumentorEi",
   "parameters" :
   [
    {
     "referenced_type" : "_ZTIPN7android8hardware10IInterfaceE"
    },
    {
     "referenced_type" : "_ZTIPN7android8hardware7details16HidlInstrumentorE"
    },
    {
     "referenced_type" : "_ZTIi"
    }
   ],
   "return_type" : "_ZTIN7android8hardware6ReturnIvEE",
   "source_file" : "/out/soong/.intermediates/hardware/interfaces/radio/config/1.1/android.hardware.radio.config@1.1_genc++_headers/gen/android/hardware/radio/config/1.1/BpHwRadioConfig.h"
  },
  {
   "function_name" : "android::hardware::radio::config::V1_1::BpHwRadioConfig::_hidl_setModemsConfig",
   "linker_set_key" : "_ZN7android8hardware5radio6config4V1_115BpHwRadioConfig21_hidl_setModemsConfigEPNS0_10IInterfaceEPNS0_7details16HidlInstrumentorEiRKNS3_12ModemsConfigE",
   "parameters" :
   [
    {
     "referenced_type" : "_ZTIPN7android8hardware10IInterfaceE"
    },
    {
     "referenced_type" : "_ZTIPN7android8hardware7details16HidlInstrumentorE"
    },
    {
     "referenced_type" : "_ZTIi"
    },
    {
     "referenced_type" : "_ZTIRKN7android8hardware5radio6config4V1_112ModemsConfigE"
    }
   ],
   "return_type" : "_ZTIN7android8hardware6ReturnIvEE",
   "source_file" : "/out/soong/.intermediates/hardware/interfaces/radio/config/1.1/android.hardware.radio.config@1.1_genc++_headers/gen/android/hardware/radio/config/1.1/BpHwRadioConfig.h"
  },
  {
   "function_name" : "android::hardware::radio::config::V1_1::BpHwRadioConfig::notifySyspropsChanged",
   "linker_set_key" : "_ZN7android8hardware5radio6config4V1_115BpHwRadioConfig21notifySyspropsChangedEv",
   "parameters" :
   [
    {
     "is_this_ptr" : true,
     "referenced_type" : "_ZTIPN7android8hardware5radio6config4V1_115BpHwRadioConfigE"
    }
   ],
   "return_type" : "_ZTIN7android8hardware6ReturnIvEE",
   "source_file" : "/out/soong/.intermediates/hardware/interfaces/radio/config/1.1/android.hardware.radio.config@1.1_genc++_headers/gen/android/hardware/radio/config/1.1/BpHwRadioConfig.h"
  },
  {
   "function_name" : "android::hardware::radio::config::V1_1::BpHwRadioConfig::setHALInstrumentation",
   "linker_set_key" : "_ZN7android8hardware5radio6config4V1_115BpHwRadioConfig21setHALInstrumentationEv",
   "parameters" :
   [
    {
     "is_this_ptr" : true,
     "referenced_type" : "_ZTIPN7android8hardware5radio6config4V1_115BpHwRadioConfigE"
    }
   ],
   "return_type" : "_ZTIN7android8hardware6ReturnIvEE",
   "source_file" : "/out/soong/.intermediates/hardware/interfaces/radio/config/1.1/android.hardware.radio.config@1.1_genc++_headers/gen/android/hardware/radio/config/1.1/BpHwRadioConfig.h"
  },
  {
   "function_name" : "android::hardware::radio::config::V1_1::BpHwRadioConfig::setPreferredDataModem",
   "linker_set_key" : "_ZN7android8hardware5radio6config4V1_115BpHwRadioConfig21setPreferredDataModemEih",
   "parameters" :
   [
    {
     "is_this_ptr" : true,
     "referenced_type" : "_ZTIPN7android8hardware5radio6config4V1_115BpHwRadioConfigE"
    },
    {
     "referenced_type" : "_ZTIi"
    },
    {
     "referenced_type" : "_ZTIh"
    }
   ],
   "return_type" : "_ZTIN7android8hardware6ReturnIvEE",
   "source_file" : "/out/soong/.intermediates/hardware/interfaces/radio/config/1.1/android.hardware.radio.config@1.1_genc++_headers/gen/android/hardware/radio/config/1.1/BpHwRadioConfig.h"
  },
  {
   "function_name" : "android::hardware::radio::config::V1_1::BpHwRadioConfig::_hidl_getPhoneCapability",
   "linker_set_key" : "_ZN7android8hardware5radio6config4V1_115BpHwRadioConfig24_hidl_getPhoneCapabilityEPNS0_10IInterfaceEPNS0_7details16HidlInstrumentorEi",
   "parameters" :
   [
    {
     "referenced_type" : "_ZTIPN7android8hardware10IInterfaceE"
    },
    {
     "referenced_type" : "_ZTIPN7android8hardware7details16HidlInstrumentorE"
    },
    {
     "referenced_type" : "_ZTIi"
    }
   ],
   "return_type" : "_ZTIN7android8hardware6ReturnIvEE",
   "source_file" : "/out/soong/.intermediates/hardware/interfaces/radio/config/1.1/android.hardware.radio.config@1.1_genc++_headers/gen/android/hardware/radio/config/1.1/BpHwRadioConfig.h"
  },
  {
   "function_name" : "android::hardware::radio::config::V1_1::BpHwRadioConfig::_hidl_setPreferredDataModem",
   "linker_set_key" : "_ZN7android8hardware5radio6config4V1_115BpHwRadioConfig27_hidl_setPreferredDataModemEPNS0_10IInterfaceEPNS0_7details16HidlInstrumentorEih",
   "parameters" :
   [
    {
     "referenced_type" : "_ZTIPN7android8hardware10IInterfaceE"
    },
    {
     "referenced_type" : "_ZTIPN7android8hardware7details16HidlInstrumentorE"
    },
    {
     "referenced_type" : "_ZTIi"
    },
    {
     "referenced_type" : "_ZTIh"
    }
   ],
   "return_type" : "_ZTIN7android8hardware6ReturnIvEE",
   "source_file" : "/out/soong/.intermediates/hardware/interfaces/radio/config/1.1/android.hardware.radio.config@1.1_genc++_headers/gen/android/hardware/radio/config/1.1/BpHwRadioConfig.h"
  },
  {
   "function_name" : "android::hardware::radio::config::V1_1::BpHwRadioConfig::ping",
   "linker_set_key" : "_ZN7android8hardware5radio6config4V1_115BpHwRadioConfig4pingEv",
   "parameters" :
   [
    {
     "is_this_ptr" : true,
     "referenced_type" : "_ZTIPN7android8hardware5radio6config4V1_115BpHwRadioConfigE"
    }
   ],
   "return_type" : "_ZTIN7android8hardware6ReturnIvEE",
   "source_file" : "/out/soong/.intermediates/hardware/interfaces/radio/config/1.1/android.hardware.radio.config@1.1_genc++_headers/gen/android/hardware/radio/config/1.1/BpHwRadioConfig.h"
  },
  {
   "function_name" : "android::hardware::radio::config::V1_1::BpHwRadioConfig::debug",
   "linker_set_key" : "_ZN7android8hardware5radio6config4V1_115BpHwRadioConfig5debugERKNS0_11hidl_handleERKNS0_8hidl_vecINS0_11hidl_stringEEE",
   "parameters" :
   [
    {
     "is_this_ptr" : true,
     "referenced_type" : "_ZTIPN7android8hardware5radio6config4V1_115BpHwRadioConfigE"
    },
    {
     "referenced_type" : "_ZTIRKN7android8hardware11hidl_handleE"
    },
    {
     "referenced_type" : "_ZTIRKN7android8hardware8hidl_vecINS0_11hidl_stringEEE"
    }
   ],
   "return_type" : "_ZTIN7android8hardware6ReturnIvEE",
   "source_file" : "/out/soong/.intermediates/hardware/interfaces/radio/config/1.1/android.hardware.radio.config@1.1_genc++_headers/gen/android/hardware/radio/config/1.1/BpHwRadioConfig.h"
  },
  {
   "function_name" : "android::hardware::radio::config::V1_1::BpHwRadioConfig::BpHwRadioConfig",
   "linker_set_key" : "_ZN7android8hardware5radio6config4V1_115BpHwRadioConfigC1ERKNS_2spINS0_7IBinderEEE",
   "parameters" :
   [
    {
     "is_this_ptr" : true,
     "referenced_type" : "_ZTIPN7android8hardware5radio6config4V1_115BpHwRadioConfigE"
    },
    {
     "referenced_type" : "_ZTIRKN7android2spINS_8hardware7IBinderEEE"
    }
   ],
   "return_type" : "_ZTIv",
   "source_file" : "/out/soong/.intermediates/hardware/interfaces/radio/config/1.1/android.hardware.radio.config@1.1_genc++_headers/gen/android/hardware/radio/config/1.1/BpHwRadioConfig.h"
  },
  {
   "function_name" : "android::hardware::radio::config::V1_1::BpHwRadioConfig::BpHwRadioConfig",
   "linker_set_key" : "_ZN7android8hardware5radio6config4V1_115BpHwRadioConfigC2ERKNS_2spINS0_7IBinderEEE",
   "parameters" :
   [
    {
     "is_this_ptr" : true,
     "referenced_type" : "_ZTIPN7android8hardware5radio6config4V1_115BpHwRadioConfigE"
    },
    {
     "referenced_type" : "_ZTIRKN7android2spINS_8hardware7IBinderEEE"
    }
   ],
   "return_type" : "_ZTIv",
   "source_file" : "/out/soong/.intermediates/hardware/interfaces/radio/config/1.1/android.hardware.radio.config@1.1_genc++_headers/gen/android/hardware/radio/config/1.1/BpHwRadioConfig.h"
  },
  {
   "function_name" : "android::hardware::radio::config::V1_1::IRadioConfigResponse::getService",
   "linker_set_key" : "_ZN7android8hardware5radio6config4V1_120IRadioConfigResponse10getServiceERKNSt3__112basic_stringIcNS5_11char_traitsIcEENS5_9allocatorIcEEEEb",
   "parameters" :
   [
    {
     "default_arg" : true,
     "referenced_type" : "_ZTIRKNSt3__112basic_stringIcNS_11char_traitsIcEENS_9allocatorIcEEEE"
    },
    {
     "default_arg" : true,
     "referenced_type" : "_ZTIb"
    }
   ],
   "return_type" : "_ZTIN7android2spINS_8hardware5radio6config4V1_120IRadioConfigResponseEEE",
   "source_file" : "/out/soong/.intermediates/hardware/interfaces/radio/config/1.1/android.hardware.radio.config@1.1_genc++_headers/gen/android/hardware/radio/config/1.1/IRadioConfigResponse.h"
  },
  {
   "function_name" : "android::hardware::radio::config::V1_1::IRadioConfigResponse::linkToDeath",
   "linker_set_key" : "_ZN7android8hardware5radio6config4V1_120IRadioConfigResponse11linkToDeathERKNS_2spINS0_20hidl_death_recipientEEEy",
   "parameters" :
   [
    {
     "is_this_ptr" : true,
     "referenced_type" : "_ZTIPN7android8hardware5radio6config4V1_120IRadioConfigResponseE"
    },
    {
     "referenced_type" : "_ZTIRKN7android2spINS_8hardware20hidl_death_recipientEEE"
    },
    {
     "referenced_type" : "_ZTIy"
    }
   ],
   "return_type" : "_ZTIN7android8hardware6ReturnIbEE",
   "source_file" : "/out/soong/.intermediates/hardware/interfaces/radio/config/1.1/android.hardware.radio.config@1.1_genc++_headers/gen/android/hardware/radio/config/1.1/IRadioConfigResponse.h"
  },
  {
   "function_name" : "android::hardware::radio::config::V1_1::IRadioConfigResponse::getDebugInfo",
   "linker_set_key" : "_ZN7android8hardware5radio6config4V1_120IRadioConfigResponse12getDebugInfoENSt3__18functionIFvRKNS_4hidl4base4V1_09DebugInfoEEEE",
   "parameters" :
   [
    {
     "is_this_ptr" : true,
     "referenced_type" : "_ZTIPN7android8hardware5radio6config4V1_120IRadioConfigResponseE"
    },
    {
     "referenced_type" : "_ZTINSt3__18functionIFvRKN7android4hidl4base4V1_09DebugInfoEEEE"
    }
   ],
   "return_type" : "_ZTIN7android8hardware6ReturnIvEE",
   "source_file" : "/out/soong/.intermediates/hardware/interfaces/radio/config/1.1/android.hardware.radio.config@1.1_genc++_headers/gen/android/hardware/radio/config/1.1/IRadioConfigResponse.h"
  },
  {
   "function_name" : "android::hardware::radio::config::V1_1::IRadioConfigResponse::getHashChain",
   "linker_set_key" : "_ZN7android8hardware5radio6config4V1_120IRadioConfigResponse12getHashChainENSt3__18functionIFvRKNS0_8hidl_vecINS0_10hidl_arrayIhLj32EJEEEEEEEE",
   "parameters" :
   [
    {
     "is_this_ptr" : true,
     "referenced_type" : "_ZTIPN7android8hardware5radio6config4V1_120IRadioConfigResponseE"
    },
    {
     "referenced_type" : "_ZTINSt3__18functionIFvRKN7android8hardware8hidl_vecINS2_10hidl_arrayIhLj32EJEEEEEEEE"
    }
   ],
   "return_type" : "_ZTIN7android8hardware6ReturnIvEE",
   "source_file" : "/out/soong/.intermediates/hardware/interfaces/radio/config/1.1/android.hardware.radio.config@1.1_genc++_headers/gen/android/hardware/radio/config/1.1/IRadioConfigResponse.h"
  },
  {
   "function_name" : "android::hardware::radio::config::V1_1::IRadioConfigResponse::tryGetService",
   "linker_set_key" : "_ZN7android8hardware5radio6config4V1_120IRadioConfigResponse13tryGetServiceERKNSt3__112basic_stringIcNS5_11char_traitsIcEENS5_9allocatorIcEEEEb",
   "parameters" :
   [
    {
     "default_arg" : true,
     "referenced_type" : "_ZTIRKNSt3__112basic_stringIcNS_11char_traitsIcEENS_9allocatorIcEEEE"
    },
    {
     "default_arg" : true,
     "referenced_type" : "_ZTIb"
    }
   ],
   "return_type" : "_ZTIN7android2spINS_8hardware5radio6config4V1_120IRadioConfigResponseEEE",
   "source_file" : "/out/soong/.intermediates/hardware/interfaces/radio/config/1.1/android.hardware.radio.config@1.1_genc++_headers/gen/android/hardware/radio/config/1.1/IRadioConfigResponse.h"
  },
  {
   "function_name" : "android::hardware::radio::config::V1_1::IRadioConfigResponse::unlinkToDeath",
   "linker_set_key" : "_ZN7android8hardware5radio6config4V1_120IRadioConfigResponse13unlinkToDeathERKNS_2spINS0_20hidl_death_recipientEEE",
   "parameters" :
   [
    {
     "is_this_ptr" : true,
     "referenced_type" : "_ZTIPN7android8hardware5radio6config4V1_120IRadioConfigResponseE"
    },
    {
     "referenced_type" : "_ZTIRKN7android2spINS_8hardware20hidl_death_recipientEEE"
    }
   ],
   "return_type" : "_ZTIN7android8hardware6ReturnIbEE",
   "source_file" : "/out/soong/.intermediates/hardware/interfaces/radio/config/1.1/android.hardware.radio.config@1.1_genc++_headers/gen/android/hardware/radio/config/1.1/IRadioConfigResponse.h"
  },
  {
   "function_name" : "android::hardware::radio::config::V1_1::IRadioConfigResponse::interfaceChain",
   "linker_set_key" : "_ZN7android8hardware5radio6config4V1_120IRadioConfigResponse14interfaceChainENSt3__18functionIFvRKNS0_8hidl_vecINS0_11hidl_stringEEEEEE",
   "parameters" :
   [
    {
     "is_this_ptr" : true,
     "referenced_type" : "_ZTIPN7android8hardware5radio6config4V1_120IRadioConfigResponseE"
    },
    {
     "referenced_type" : "_ZTINSt3__18functionIFvRKN7android8hardware8hidl_vecINS2_11hidl_stringEEEEEE"
    }
   ],
   "return_type" : "_ZTIN7android8hardware6ReturnIvEE",
   "source_file" : "/out/soong/.intermediates/hardware/interfaces/radio/config/1.1/android.hardware.radio.config@1.1_genc++_headers/gen/android/hardware/radio/config/1.1/IRadioConfigResponse.h"
  },
  {
   "function_name" : "android::hardware::radio::config::V1_1::IRadioConfigResponse::registerAsService",
   "linker_set_key" : "_ZN7android8hardware5radio6config4V1_120IRadioConfigResponse17registerAsServiceERKNSt3__112basic_stringIcNS5_11char_traitsIcEENS5_9allocatorIcEEEE",
   "parameters" :
   [
    {
     "is_this_ptr" : true,
     "referenced_type" : "_ZTIPN7android8hardware5radio6config4V1_120IRadioConfigResponseE"
    },
    {
     "default_arg" : true,
     "referenced_type" : "_ZTIRKNSt3__112basic_stringIcNS_11char_traitsIcEENS_9allocatorIcEEEE"
    }
   ],
   "return_type" : "_ZTIi",
   "source_file" : "/out/soong/.intermediates/hardware/interfaces/radio/config/1.1/android.hardware.radio.config@1.1_genc++_headers/gen/android/hardware/radio/config/1.1/IRadioConfigResponse.h"
  },
  {
   "function_name" : "android::hardware::radio::config::V1_1::IRadioConfigResponse::interfaceDescriptor",
   "linker_set_key" : "_ZN7android8hardware5radio6config4V1_120IRadioConfigResponse19interfaceDescriptorENSt3__18functionIFvRKNS0_11hidl_stringEEEE",
   "parameters" :
   [
    {
     "is_this_ptr" : true,
     "referenced_type" : "_ZTIPN7android8hardware5radio6config4V1_120IRadioConfigResponseE"
    },
    {
     "referenced_type" : "_ZTINSt3__18functionIFvRKN7android8hardware11hidl_stringEEEE"
    }
   ],
   "return_type" : "_ZTIN7android8hardware6ReturnIvEE",
   "source_file" : "/out/soong/.intermediates/hardware/interfaces/radio/config/1.1/android.hardware.radio.config@1.1_genc++_headers/gen/android/hardware/radio/config/1.1/IRadioConfigResponse.h"
  },
  {
   "function_name" : "android::hardware::radio::config::V1_1::IRadioConfigResponse::notifySyspropsChanged",
   "linker_set_key" : "_ZN7android8hardware5radio6config4V1_120IRadioConfigResponse21notifySyspropsChangedEv",
   "parameters" :
   [
    {
     "is_this_ptr" : true,
     "referenced_type" : "_ZTIPN7android8hardware5radio6config4V1_120IRadioConfigResponseE"
    }
   ],
   "return_type" : "_ZTIN7android8hardware6ReturnIvEE",
   "source_file" : "/out/soong/.intermediates/hardware/interfaces/radio/config/1.1/android.hardware.radio.config@1.1_genc++_headers/gen/android/hardware/radio/config/1.1/IRadioConfigResponse.h"
  },
  {
   "function_name" : "android::hardware::radio::config::V1_1::IRadioConfigResponse::setHALInstrumentation",
   "linker_set_key" : "_ZN7android8hardware5radio6config4V1_120IRadioConfigResponse21setHALInstrumentationEv",
   "parameters" :
   [
    {
     "is_this_ptr" : true,
     "referenced_type" : "_ZTIPN7android8hardware5radio6config4V1_120IRadioConfigResponseE"
    }
   ],
   "return_type" : "_ZTIN7android8hardware6ReturnIvEE",
   "source_file" : "/out/soong/.intermediates/hardware/interfaces/radio/config/1.1/android.hardware.radio.config@1.1_genc++_headers/gen/android/hardware/radio/config/1.1/IRadioConfigResponse.h"
  },
  {
   "function_name" : "android::hardware::radio::config::V1_1::IRadioConfigResponse::registerForNotifications",
   "linker_set_key" : "_ZN7android8hardware5radio6config4V1_120IRadioConfigResponse24registerForNotificationsERKNSt3__112basic_stringIcNS5_11char_traitsIcEENS5_9allocatorIcEEEERKNS_2spINS_4hidl7manager4V1_020IServiceNotificationEEE",
   "parameters" :
   [
    {
     "referenced_type" : "_ZTIRKNSt3__112basic_stringIcNS_11char_traitsIcEENS_9allocatorIcEEEE"
    },
    {
     "referenced_type" : "_ZTIRKN7android2spINS_4hidl7manager4V1_020IServiceNotificationEEE"
    }
   ],
   "return_type" : "_ZTIb",
   "source_file" : "/out/soong/.intermediates/hardware/interfaces/radio/config/1.1/android.hardware.radio.config@1.1_genc++_headers/gen/android/hardware/radio/config/1.1/IRadioConfigResponse.h"
  },
  {
   "function_name" : "android::hardware::radio::config::V1_1::IRadioConfigResponse::ping",
   "linker_set_key" : "_ZN7android8hardware5radio6config4V1_120IRadioConfigResponse4pingEv",
   "parameters" :
   [
    {
     "is_this_ptr" : true,
     "referenced_type" : "_ZTIPN7android8hardware5radio6config4V1_120IRadioConfigResponseE"
    }
   ],
   "return_type" : "_ZTIN7android8hardware6ReturnIvEE",
   "source_file" : "/out/soong/.intermediates/hardware/interfaces/radio/config/1.1/android.hardware.radio.config@1.1_genc++_headers/gen/android/hardware/radio/config/1.1/IRadioConfigResponse.h"
  },
  {
   "function_name" : "android::hardware::radio::config::V1_1::IRadioConfigResponse::debug",
   "linker_set_key" : "_ZN7android8hardware5radio6config4V1_120IRadioConfigResponse5debugERKNS0_11hidl_handleERKNS0_8hidl_vecINS0_11hidl_stringEEE",
   "parameters" :
   [
    {
     "is_this_ptr" : true,
     "referenced_type" : "_ZTIPN7android8hardware5radio6config4V1_120IRadioConfigResponseE"
    },
    {
     "referenced_type" : "_ZTIRKN7android8hardware11hidl_handleE"
    },
    {
     "referenced_type" : "_ZTIRKN7android8hardware8hidl_vecINS0_11hidl_stringEEE"
    }
   ],
   "return_type" : "_ZTIN7android8hardware6ReturnIvEE",
   "source_file" : "/out/soong/.intermediates/hardware/interfaces/radio/config/1.1/android.hardware.radio.config@1.1_genc++_headers/gen/android/hardware/radio/config/1.1/IRadioConfigResponse.h"
  },
  {
   "function_name" : "android::hardware::radio::config::V1_1::IRadioConfigResponse::castFrom",
   "linker_set_key" : "_ZN7android8hardware5radio6config4V1_120IRadioConfigResponse8castFromERKNS_2spINS2_4V1_020IRadioConfigResponseEEEb",
   "parameters" :
   [
    {
     "referenced_type" : "_ZTIRKN7android2spINS_8hardware5radio6config4V1_020IRadioConfigResponseEEE"
    },
    {
     "default_arg" : true,
     "referenced_type" : "_ZTIb"
    }
   ],
   "return_type" : "_ZTIN7android8hardware6ReturnINS_2spINS0_5radio6config4V1_120IRadioConfigResponseEEEEE",
   "source_file" : "/out/soong/.intermediates/hardware/interfaces/radio/config/1.1/android.hardware.radio.config@1.1_genc++_headers/gen/android/hardware/radio/config/1.1/IRadioConfigResponse.h"
  },
  {
   "function_name" : "android::hardware::radio::config::V1_1::IRadioConfigResponse::castFrom",
   "linker_set_key" : "_ZN7android8hardware5radio6config4V1_120IRadioConfigResponse8castFromERKNS_2spINS_4hidl4base4V1_05IBaseEEEb",
   "parameters" :
   [
    {
     "referenced_type" : "_ZTIRKN7android2spINS_4hidl4base4V1_05IBaseEEE"
    },
    {
     "default_arg" : true,
     "referenced_type" : "_ZTIb"
    }
   ],
   "return_type" : "_ZTIN7android8hardware6ReturnINS_2spINS0_5radio6config4V1_120IRadioConfigResponseEEEEE",
   "source_file" : "/out/soong/.intermediates/hardware/interfaces/radio/config/1.1/android.hardware.radio.config@1.1_genc++_headers/gen/android/hardware/radio/config/1.1/IRadioConfigResponse.h"
  },
  {
   "function_name" : "android::hardware::radio::config::V1_1::IRadioConfigResponse::castFrom",
   "linker_set_key" : "_ZN7android8hardware5radio6config4V1_120IRadioConfigResponse8castFromERKNS_2spIS4_EEb",
   "parameters" :
   [
    {
     "referenced_type" : "_ZTIRKN7android2spINS_8hardware5radio6config4V1_120IRadioConfigResponseEEE"
    },
    {
     "default_arg" : true,
     "referenced_type" : "_ZTIb"
    }
   ],
   "return_type" : "_ZTIN7android8hardware6ReturnINS_2spINS0_5radio6config4V1_120IRadioConfigResponseEEEEE",
   "source_file" : "/out/soong/.intermediates/hardware/interfaces/radio/config/1.1/android.hardware.radio.config@1.1_genc++_headers/gen/android/hardware/radio/config/1.1/IRadioConfigResponse.h"
  },
  {
   "access" : "private",
   "function_name" : "android::hardware::radio::config::V1_1::BsRadioConfigResponse::addOnewayTask",
   "linker_set_key" : "_ZN7android8hardware5radio6config4V1_121BsRadioConfigResponse13addOnewayTaskENSt3__18functionIFvvEEE",
   "parameters" :
   [
    {
     "is_this_ptr" : true,
     "referenced_type" : "_ZTIPN7android8hardware5radio6config4V1_121BsRadioConfigResponseE"
    },
    {
     "referenced_type" : "_ZTINSt3__18functionIFvvEEE"
    }
   ],
   "return_type" : "_ZTIN7android8hardware6ReturnIvEE",
   "source_file" : "/out/soong/.intermediates/hardware/interfaces/radio/config/1.1/android.hardware.radio.config@1.1_genc++_headers/gen/android/hardware/radio/config/1.1/BsRadioConfigResponse.h"
  },
  {
   "function_name" : "android::hardware::radio::config::V1_1::BsRadioConfigResponse::BsRadioConfigResponse",
   "linker_set_key" : "_ZN7android8hardware5radio6config4V1_121BsRadioConfigResponseC1ENS_2spINS3_20IRadioConfigResponseEEE",
   "parameters" :
   [
    {
     "is_this_ptr" : true,
     "referenced_type" : "_ZTIPN7android8hardware5radio6config4V1_121BsRadioConfigResponseE"
    },
    {
     "referenced_type" : "_ZTIKN7android2spINS_8hardware5radio6config4V1_120IRadioConfigResponseEEE"
    }
   ],
   "return_type" : "_ZTIv",
   "source_file" : "/out/soong/.intermediates/hardware/interfaces/radio/config/1.1/android.hardware.radio.config@1.1_genc++_headers/gen/android/hardware/radio/config/1.1/BsRadioConfigResponse.h"
  },
  {
   "function_name" : "android::hardware::radio::config::V1_1::BsRadioConfigResponse::BsRadioConfigResponse",
   "linker_set_key" : "_ZN7android8hardware5radio6config4V1_121BsRadioConfigResponseC2ENS_2spINS3_20IRadioConfigResponseEEE",
   "parameters" :
   [
    {
     "is_this_ptr" : true,
     "referenced_type" : "_ZTIPN7android8hardware5radio6config4V1_121BsRadioConfigResponseE"
    },
    {
     "referenced_type" : "_ZTIKN7android2spINS_8hardware5radio6config4V1_120IRadioConfigResponseEEE"
    }
   ],
   "return_type" : "_ZTIv",
   "source_file" : "/out/soong/.intermediates/hardware/interfaces/radio/config/1.1/android.hardware.radio.config@1.1_genc++_headers/gen/android/hardware/radio/config/1.1/BsRadioConfigResponse.h"
  },
  {
   "function_name" : "android::hardware::radio::config::V1_1::writeEmbeddedToParcel",
   "linker_set_key" : "_ZN7android8hardware5radio6config4V1_121writeEmbeddedToParcelERKNS3_15PhoneCapabilityEPNS0_6ParcelEjj",
   "parameters" :
   [
    {
     "referenced_type" : "_ZTIRKN7android8hardware5radio6config4V1_115PhoneCapabilityE"
    },
    {
     "referenced_type" : "_ZTIPN7android8hardware6ParcelE"
    },
    {
     "referenced_type" : "_ZTIj"
    },
    {
     "referenced_type" : "_ZTIj"
    }
   ],
   "return_type" : "_ZTIi",
   "source_file" : "/out/soong/.intermediates/hardware/interfaces/radio/config/1.1/android.hardware.radio.config@1.1_genc++_headers/gen/android/hardware/radio/config/1.1/hwtypes.h"
  },
  {
   "function_name" : "android::hardware::radio::config::V1_1::IRadioConfigIndication::getService",
   "linker_set_key" : "_ZN7android8hardware5radio6config4V1_122IRadioConfigIndication10getServiceERKNSt3__112basic_stringIcNS5_11char_traitsIcEENS5_9allocatorIcEEEEb",
   "parameters" :
   [
    {
     "default_arg" : true,
     "referenced_type" : "_ZTIRKNSt3__112basic_stringIcNS_11char_traitsIcEENS_9allocatorIcEEEE"
    },
    {
     "default_arg" : true,
     "referenced_type" : "_ZTIb"
    }
   ],
   "return_type" : "_ZTIN7android2spINS_8hardware5radio6config4V1_122IRadioConfigIndicationEEE",
   "source_file" : "/out/soong/.intermediates/hardware/interfaces/radio/config/1.1/android.hardware.radio.config@1.1_genc++_headers/gen/android/hardware/radio/config/1.1/IRadioConfigIndication.h"
  },
  {
   "function_name" : "android::hardware::radio::config::V1_1::IRadioConfigIndication::linkToDeath",
   "linker_set_key" : "_ZN7android8hardware5radio6config4V1_122IRadioConfigIndication11linkToDeathERKNS_2spINS0_20hidl_death_recipientEEEy",
   "parameters" :
   [
    {
     "is_this_ptr" : true,
     "referenced_type" : "_ZTIPN7android8hardware5radio6config4V1_122IRadioConfigIndicationE"
    },
    {
     "referenced_type" : "_ZTIRKN7android2spINS_8hardware20hidl_death_recipientEEE"
    },
    {
     "referenced_type" : "_ZTIy"
    }
   ],
   "return_type" : "_ZTIN7android8hardware6ReturnIbEE",
   "source_file" : "/out/soong/.intermediates/hardware/interfaces/radio/config/1.1/android.hardware.radio.config@1.1_genc++_headers/gen/android/hardware/radio/config/1.1/IRadioConfigIndication.h"
  },
  {
   "function_name" : "android::hardware::radio::config::V1_1::IRadioConfigIndication::getDebugInfo",
   "linker_set_key" : "_ZN7android8hardware5radio6config4V1_122IRadioConfigIndication12getDebugInfoENSt3__18functionIFvRKNS_4hidl4base4V1_09DebugInfoEEEE",
   "parameters" :
   [
    {
     "is_this_ptr" : true,
     "referenced_type" : "_ZTIPN7android8hardware5radio6config4V1_122IRadioConfigIndicationE"
    },
    {
     "referenced_type" : "_ZTINSt3__18functionIFvRKN7android4hidl4base4V1_09DebugInfoEEEE"
    }
   ],
   "return_type" : "_ZTIN7android8hardware6ReturnIvEE",
   "source_file" : "/out/soong/.intermediates/hardware/interfaces/radio/config/1.1/android.hardware.radio.config@1.1_genc++_headers/gen/android/hardware/radio/config/1.1/IRadioConfigIndication.h"
  },
  {
   "function_name" : "android::hardware::radio::config::V1_1::IRadioConfigIndication::getHashChain",
   "linker_set_key" : "_ZN7android8hardware5radio6config4V1_122IRadioConfigIndication12getHashChainENSt3__18functionIFvRKNS0_8hidl_vecINS0_10hidl_arrayIhLj32EJEEEEEEEE",
   "parameters" :
   [
    {
     "is_this_ptr" : true,
     "referenced_type" : "_ZTIPN7android8hardware5radio6config4V1_122IRadioConfigIndicationE"
    },
    {
     "referenced_type" : "_ZTINSt3__18functionIFvRKN7android8hardware8hidl_vecINS2_10hidl_arrayIhLj32EJEEEEEEEE"
    }
   ],
   "return_type" : "_ZTIN7android8hardware6ReturnIvEE",
   "source_file" : "/out/soong/.intermediates/hardware/interfaces/radio/config/1.1/android.hardware.radio.config@1.1_genc++_headers/gen/android/hardware/radio/config/1.1/IRadioConfigIndication.h"
  },
  {
   "function_name" : "android::hardware::radio::config::V1_1::IRadioConfigIndication::tryGetService",
   "linker_set_key" : "_ZN7android8hardware5radio6config4V1_122IRadioConfigIndication13tryGetServiceERKNSt3__112basic_stringIcNS5_11char_traitsIcEENS5_9allocatorIcEEEEb",
   "parameters" :
   [
    {
     "default_arg" : true,
     "referenced_type" : "_ZTIRKNSt3__112basic_stringIcNS_11char_traitsIcEENS_9allocatorIcEEEE"
    },
    {
     "default_arg" : true,
     "referenced_type" : "_ZTIb"
    }
   ],
   "return_type" : "_ZTIN7android2spINS_8hardware5radio6config4V1_122IRadioConfigIndicationEEE",
   "source_file" : "/out/soong/.intermediates/hardware/interfaces/radio/config/1.1/android.hardware.radio.config@1.1_genc++_headers/gen/android/hardware/radio/config/1.1/IRadioConfigIndication.h"
  },
  {
   "function_name" : "android::hardware::radio::config::V1_1::IRadioConfigIndication::unlinkToDeath",
   "linker_set_key" : "_ZN7android8hardware5radio6config4V1_122IRadioConfigIndication13unlinkToDeathERKNS_2spINS0_20hidl_death_recipientEEE",
   "parameters" :
   [
    {
     "is_this_ptr" : true,
     "referenced_type" : "_ZTIPN7android8hardware5radio6config4V1_122IRadioConfigIndicationE"
    },
    {
     "referenced_type" : "_ZTIRKN7android2spINS_8hardware20hidl_death_recipientEEE"
    }
   ],
   "return_type" : "_ZTIN7android8hardware6ReturnIbEE",
   "source_file" : "/out/soong/.intermediates/hardware/interfaces/radio/config/1.1/android.hardware.radio.config@1.1_genc++_headers/gen/android/hardware/radio/config/1.1/IRadioConfigIndication.h"
  },
  {
   "function_name" : "android::hardware::radio::config::V1_1::IRadioConfigIndication::interfaceChain",
   "linker_set_key" : "_ZN7android8hardware5radio6config4V1_122IRadioConfigIndication14interfaceChainENSt3__18functionIFvRKNS0_8hidl_vecINS0_11hidl_stringEEEEEE",
   "parameters" :
   [
    {
     "is_this_ptr" : true,
     "referenced_type" : "_ZTIPN7android8hardware5radio6config4V1_122IRadioConfigIndicationE"
    },
    {
     "referenced_type" : "_ZTINSt3__18functionIFvRKN7android8hardware8hidl_vecINS2_11hidl_stringEEEEEE"
    }
   ],
   "return_type" : "_ZTIN7android8hardware6ReturnIvEE",
   "source_file" : "/out/soong/.intermediates/hardware/interfaces/radio/config/1.1/android.hardware.radio.config@1.1_genc++_headers/gen/android/hardware/radio/config/1.1/IRadioConfigIndication.h"
  },
  {
   "function_name" : "android::hardware::radio::config::V1_1::IRadioConfigIndication::registerAsService",
   "linker_set_key" : "_ZN7android8hardware5radio6config4V1_122IRadioConfigIndication17registerAsServiceERKNSt3__112basic_stringIcNS5_11char_traitsIcEENS5_9allocatorIcEEEE",
   "parameters" :
   [
    {
     "is_this_ptr" : true,
     "referenced_type" : "_ZTIPN7android8hardware5radio6config4V1_122IRadioConfigIndicationE"
    },
    {
     "default_arg" : true,
     "referenced_type" : "_ZTIRKNSt3__112basic_stringIcNS_11char_traitsIcEENS_9allocatorIcEEEE"
    }
   ],
   "return_type" : "_ZTIi",
   "source_file" : "/out/soong/.intermediates/hardware/interfaces/radio/config/1.1/android.hardware.radio.config@1.1_genc++_headers/gen/android/hardware/radio/config/1.1/IRadioConfigIndication.h"
  },
  {
   "function_name" : "android::hardware::radio::config::V1_1::IRadioConfigIndication::interfaceDescriptor",
   "linker_set_key" : "_ZN7android8hardware5radio6config4V1_122IRadioConfigIndication19interfaceDescriptorENSt3__18functionIFvRKNS0_11hidl_stringEEEE",
   "parameters" :
   [
    {
     "is_this_ptr" : true,
     "referenced_type" : "_ZTIPN7android8hardware5radio6config4V1_122IRadioConfigIndicationE"
    },
    {
     "referenced_type" : "_ZTINSt3__18functionIFvRKN7android8hardware11hidl_stringEEEE"
    }
   ],
   "return_type" : "_ZTIN7android8hardware6ReturnIvEE",
   "source_file" : "/out/soong/.intermediates/hardware/interfaces/radio/config/1.1/android.hardware.radio.config@1.1_genc++_headers/gen/android/hardware/radio/config/1.1/IRadioConfigIndication.h"
  },
  {
   "function_name" : "android::hardware::radio::config::V1_1::IRadioConfigIndication::notifySyspropsChanged",
   "linker_set_key" : "_ZN7android8hardware5radio6config4V1_122IRadioConfigIndication21notifySyspropsChangedEv",
   "parameters" :
   [
    {
     "is_this_ptr" : true,
     "referenced_type" : "_ZTIPN7android8hardware5radio6config4V1_122IRadioConfigIndicationE"
    }
   ],
   "return_type" : "_ZTIN7android8hardware6ReturnIvEE",
   "source_file" : "/out/soong/.intermediates/hardware/interfaces/radio/config/1.1/android.hardware.radio.config@1.1_genc++_headers/gen/android/hardware/radio/config/1.1/IRadioConfigIndication.h"
  },
  {
   "function_name" : "android::hardware::radio::config::V1_1::IRadioConfigIndication::setHALInstrumentation",
   "linker_set_key" : "_ZN7android8hardware5radio6config4V1_122IRadioConfigIndication21setHALInstrumentationEv",
   "parameters" :
   [
    {
     "is_this_ptr" : true,
     "referenced_type" : "_ZTIPN7android8hardware5radio6config4V1_122IRadioConfigIndicationE"
    }
   ],
   "return_type" : "_ZTIN7android8hardware6ReturnIvEE",
   "source_file" : "/out/soong/.intermediates/hardware/interfaces/radio/config/1.1/android.hardware.radio.config@1.1_genc++_headers/gen/android/hardware/radio/config/1.1/IRadioConfigIndication.h"
  },
  {
   "function_name" : "android::hardware::radio::config::V1_1::IRadioConfigIndication::registerForNotifications",
   "linker_set_key" : "_ZN7android8hardware5radio6config4V1_122IRadioConfigIndication24registerForNotificationsERKNSt3__112basic_stringIcNS5_11char_traitsIcEENS5_9allocatorIcEEEERKNS_2spINS_4hidl7manager4V1_020IServiceNotificationEEE",
   "parameters" :
   [
    {
     "referenced_type" : "_ZTIRKNSt3__112basic_stringIcNS_11char_traitsIcEENS_9allocatorIcEEEE"
    },
    {
     "referenced_type" : "_ZTIRKN7android2spINS_4hidl7manager4V1_020IServiceNotificationEEE"
    }
   ],
   "return_type" : "_ZTIb",
   "source_file" : "/out/soong/.intermediates/hardware/interfaces/radio/config/1.1/android.hardware.radio.config@1.1_genc++_headers/gen/android/hardware/radio/config/1.1/IRadioConfigIndication.h"
  },
  {
   "function_name" : "android::hardware::radio::config::V1_1::IRadioConfigIndication::ping",
   "linker_set_key" : "_ZN7android8hardware5radio6config4V1_122IRadioConfigIndication4pingEv",
   "parameters" :
   [
    {
     "is_this_ptr" : true,
     "referenced_type" : "_ZTIPN7android8hardware5radio6config4V1_122IRadioConfigIndicationE"
    }
   ],
   "return_type" : "_ZTIN7android8hardware6ReturnIvEE",
   "source_file" : "/out/soong/.intermediates/hardware/interfaces/radio/config/1.1/android.hardware.radio.config@1.1_genc++_headers/gen/android/hardware/radio/config/1.1/IRadioConfigIndication.h"
  },
  {
   "function_name" : "android::hardware::radio::config::V1_1::IRadioConfigIndication::debug",
   "linker_set_key" : "_ZN7android8hardware5radio6config4V1_122IRadioConfigIndication5debugERKNS0_11hidl_handleERKNS0_8hidl_vecINS0_11hidl_stringEEE",
   "parameters" :
   [
    {
     "is_this_ptr" : true,
     "referenced_type" : "_ZTIPN7android8hardware5radio6config4V1_122IRadioConfigIndicationE"
    },
    {
     "referenced_type" : "_ZTIRKN7android8hardware11hidl_handleE"
    },
    {
     "referenced_type" : "_ZTIRKN7android8hardware8hidl_vecINS0_11hidl_stringEEE"
    }
   ],
   "return_type" : "_ZTIN7android8hardware6ReturnIvEE",
   "source_file" : "/out/soong/.intermediates/hardware/interfaces/radio/config/1.1/android.hardware.radio.config@1.1_genc++_headers/gen/android/hardware/radio/config/1.1/IRadioConfigIndication.h"
  },
  {
   "function_name" : "android::hardware::radio::config::V1_1::IRadioConfigIndication::castFrom",
   "linker_set_key" : "_ZN7android8hardware5radio6config4V1_122IRadioConfigIndication8castFromERKNS_2spINS2_4V1_022IRadioConfigIndicationEEEb",
   "parameters" :
   [
    {
     "referenced_type" : "_ZTIRKN7android2spINS_8hardware5radio6config4V1_022IRadioConfigIndicationEEE"
    },
    {
     "default_arg" : true,
     "referenced_type" : "_ZTIb"
    }
   ],
   "return_type" : "_ZTIN7android8hardware6ReturnINS_2spINS0_5radio6config4V1_122IRadioConfigIndicationEEEEE",
   "source_file" : "/out/soong/.intermediates/hardware/interfaces/radio/config/1.1/android.hardware.radio.config@1.1_genc++_headers/gen/android/hardware/radio/config/1.1/IRadioConfigIndication.h"
  },
  {
   "function_name" : "android::hardware::radio::config::V1_1::IRadioConfigIndication::castFrom",
   "linker_set_key" : "_ZN7android8hardware5radio6config4V1_122IRadioConfigIndication8castFromERKNS_2spINS_4hidl4base4V1_05IBaseEEEb",
   "parameters" :
   [
    {
     "referenced_type" : "_ZTIRKN7android2spINS_4hidl4base4V1_05IBaseEEE"
    },
    {
     "default_arg" : true,
     "referenced_type" : "_ZTIb"
    }
   ],
   "return_type" : "_ZTIN7android8hardware6ReturnINS_2spINS0_5radio6config4V1_122IRadioConfigIndicationEEEEE",
   "source_file" : "/out/soong/.intermediates/hardware/interfaces/radio/config/1.1/android.hardware.radio.config@1.1_genc++_headers/gen/android/hardware/radio/config/1.1/IRadioConfigIndication.h"
  },
  {
   "function_name" : "android::hardware::radio::config::V1_1::IRadioConfigIndication::castFrom",
   "linker_set_key" : "_ZN7android8hardware5radio6config4V1_122IRadioConfigIndication8castFromERKNS_2spIS4_EEb",
   "parameters" :
   [
    {
     "referenced_type" : "_ZTIRKN7android2spINS_8hardware5radio6config4V1_122IRadioConfigIndicationEEE"
    },
    {
     "default_arg" : true,
     "referenced_type" : "_ZTIb"
    }
   ],
   "return_type" : "_ZTIN7android8hardware6ReturnINS_2spINS0_5radio6config4V1_122IRadioConfigIndicationEEEEE",
   "source_file" : "/out/soong/.intermediates/hardware/interfaces/radio/config/1.1/android.hardware.radio.config@1.1_genc++_headers/gen/android/hardware/radio/config/1.1/IRadioConfigIndication.h"
  },
  {
   "function_name" : "android::hardware::radio::config::V1_1::readEmbeddedFromParcel",
   "linker_set_key" : "_ZN7android8hardware5radio6config4V1_122readEmbeddedFromParcelERKNS3_15PhoneCapabilityERKNS0_6ParcelEjj",
   "parameters" :
   [
    {
     "referenced_type" : "_ZTIRKN7android8hardware5radio6config4V1_115PhoneCapabilityE"
    },
    {
     "referenced_type" : "_ZTIRKN7android8hardware6ParcelE"
    },
    {
     "referenced_type" : "_ZTIj"
    },
    {
     "referenced_type" : "_ZTIj"
    }
   ],
   "return_type" : "_ZTIi",
   "source_file" : "/out/soong/.intermediates/hardware/interfaces/radio/config/1.1/android.hardware.radio.config@1.1_genc++_headers/gen/android/hardware/radio/config/1.1/hwtypes.h"
  },
  {
   "function_name" : "android::hardware::radio::config::V1_1::BnHwRadioConfigResponse::onTransact",
   "linker_set_key" : "_ZN7android8hardware5radio6config4V1_123BnHwRadioConfigResponse10onTransactEjRKNS0_6ParcelEPS5_jNSt3__18functionIFvRS5_EEE",
   "parameters" :
   [
    {
     "is_this_ptr" : true,
     "referenced_type" : "_ZTIPN7android8hardware5radio6config4V1_123BnHwRadioConfigResponseE"
    },
    {
     "referenced_type" : "_ZTIj"
    },
    {
     "referenced_type" : "_ZTIRKN7android8hardware6ParcelE"
    },
    {
     "referenced_type" : "_ZTIPN7android8hardware6ParcelE"
    },
    {
     "default_arg" : true,
     "referenced_type" : "_ZTIj"
    },
    {
     "default_arg" : true,
     "referenced_type" : "_ZTINSt3__18functionIFvRN7android8hardware6ParcelEEEE"
    }
   ],
   "return_type" : "_ZTIi",
   "source_file" : "/out/soong/.intermediates/hardware/interfaces/radio/config/1.1/android.hardware.radio.config@1.1_genc++_headers/gen/android/hardware/radio/config/1.1/BnHwRadioConfigResponse.h"
  },
  {
   "access" : "private",
   "function_name" : "android::hardware::radio::config::V1_1::BnHwRadioConfigResponse::getDebugInfo",
   "linker_set_key" : "_ZN7android8hardware5radio6config4V1_123BnHwRadioConfigResponse12getDebugInfoENSt3__18functionIFvRKNS_4hidl4base4V1_09DebugInfoEEEE",
   "parameters" :
   [
    {
     "is_this_ptr" : true,
     "referenced_type" : "_ZTIPN7android8hardware5radio6config4V1_123BnHwRadioConfigResponseE"
    },
    {
     "referenced_type" : "_ZTINSt3__18functionIFvRKN7android4hidl4base4V1_09DebugInfoEEEE"
    }
   ],
   "return_type" : "_ZTIN7android8hardware6ReturnIvEE",
   "source_file" : "/out/soong/.intermediates/hardware/interfaces/radio/config/1.1/android.hardware.radio.config@1.1_genc++_headers/gen/android/hardware/radio/config/1.1/BnHwRadioConfigResponse.h"
  },
  {
   "function_name" : "android::hardware::radio::config::V1_1::BnHwRadioConfigResponse::_hidl_getModemsConfigResponse",
   "linker_set_key" : "_ZN7android8hardware5radio6config4V1_123BnHwRadioConfigResponse29_hidl_getModemsConfigResponseEPNS_4hidl4base4V1_08BnHwBaseERKNS0_6ParcelEPSA_NSt3__18functionIFvRSA_EEE",
   "parameters" :
   [
    {
     "referenced_type" : "_ZTIPN7android4hidl4base4V1_08BnHwBaseE"
    },
    {
     "referenced_type" : "_ZTIRKN7android8hardware6ParcelE"
    },
    {
     "referenced_type" : "_ZTIPN7android8hardware6ParcelE"
    },
    {
     "referenced_type" : "_ZTINSt3__18functionIFvRN7android8hardware6ParcelEEEE"
    }
   ],
   "return_type" : "_ZTIi",
   "source_file" : "/out/soong/.intermediates/hardware/interfaces/radio/config/1.1/android.hardware.radio.config@1.1_genc++_headers/gen/android/hardware/radio/config/1.1/BnHwRadioConfigResponse.h"
  },
  {
   "function_name" : "android::hardware::radio::config::V1_1::BnHwRadioConfigResponse::_hidl_setModemsConfigResponse",
   "linker_set_key" : "_ZN7android8hardware5radio6config4V1_123BnHwRadioConfigResponse29_hidl_setModemsConfigResponseEPNS_4hidl4base4V1_08BnHwBaseERKNS0_6ParcelEPSA_NSt3__18functionIFvRSA_EEE",
   "parameters" :
   [
    {
     "referenced_type" : "_ZTIPN7android4hidl4base4V1_08BnHwBaseE"
    },
    {
     "referenced_type" : "_ZTIRKN7android8hardware6ParcelE"
    },
    {
     "referenced_type" : "_ZTIPN7android8hardware6ParcelE"
    },
    {
     "referenced_type" : "_ZTINSt3__18functionIFvRN7android8hardware6ParcelEEEE"
    }
   ],
   "return_type" : "_ZTIi",
   "source_file" : "/out/soong/.intermediates/hardware/interfaces/radio/config/1.1/android.hardware.radio.config@1.1_genc++_headers/gen/android/hardware/radio/config/1.1/BnHwRadioConfigResponse.h"
  },
  {
   "function_name" : "android::hardware::radio::config::V1_1::BnHwRadioConfigResponse::_hidl_getPhoneCapabilityResponse",
   "linker_set_key" : "_ZN7android8hardware5radio6config4V1_123BnHwRadioConfigResponse32_hidl_getPhoneCapabilityResponseEPNS_4hidl4base4V1_08BnHwBaseERKNS0_6ParcelEPSA_NSt3__18functionIFvRSA_EEE",
   "parameters" :
   [
    {
     "referenced_type" : "_ZTIPN7android4hidl4base4V1_08BnHwBaseE"
    },
    {
     "referenced_type" : "_ZTIRKN7android8hardware6ParcelE"
    },
    {
     "referenced_type" : "_ZTIPN7android8hardware6ParcelE"
    },
    {
     "referenced_type" : "_ZTINSt3__18functionIFvRN7android8hardware6ParcelEEEE"
    }
   ],
   "return_type" : "_ZTIi",
   "source_file" : "/out/soong/.intermediates/hardware/interfaces/radio/config/1.1/android.hardware.radio.config@1.1_genc++_headers/gen/android/hardware/radio/config/1.1/BnHwRadioConfigResponse.h"
  },
  {
   "function_name" : "android::hardware::radio::config::V1_1::BnHwRadioConfigResponse::_hidl_setPreferredDataModemResponse",
   "linker_set_key" : "_ZN7android8hardware5radio6config4V1_123BnHwRadioConfigResponse35_hidl_setPreferredDataModemResponseEPNS_4hidl4base4V1_08BnHwBaseERKNS0_6ParcelEPSA_NSt3__18functionIFvRSA_EEE",
   "parameters" :
   [
    {
     "referenced_type" : "_ZTIPN7android4hidl4base4V1_08BnHwBaseE"
    },
    {
     "referenced_type" : "_ZTIRKN7android8hardware6ParcelE"
    },
    {
     "referenced_type" : "_ZTIPN7android8hardware6ParcelE"
    },
    {
     "referenced_type" : "_ZTINSt3__18functionIFvRN7android8hardware6ParcelEEEE"
    }
   ],
   "return_type" : "_ZTIi",
   "source_file" : "/out/soong/.intermediates/hardware/interfaces/radio/config/1.1/android.hardware.radio.config@1.1_genc++_headers/gen/android/hardware/radio/config/1.1/BnHwRadioConfigResponse.h"
  },
  {
   "access" : "private",
   "function_name" : "android::hardware::radio::config::V1_1::BnHwRadioConfigResponse::ping",
   "linker_set_key" : "_ZN7android8hardware5radio6config4V1_123BnHwRadioConfigResponse4pingEv",
   "parameters" :
   [
    {
     "is_this_ptr" : true,
     "referenced_type" : "_ZTIPN7android8hardware5radio6config4V1_123BnHwRadioConfigResponseE"
    }
   ],
   "return_type" : "_ZTIN7android8hardware6ReturnIvEE",
   "source_file" : "/out/soong/.intermediates/hardware/interfaces/radio/config/1.1/android.hardware.radio.config@1.1_genc++_headers/gen/android/hardware/radio/config/1.1/BnHwRadioConfigResponse.h"
  },
  {
   "function_name" : "android::hardware::radio::config::V1_1::BnHwRadioConfigResponse::BnHwRadioConfigResponse",
   "linker_set_key" : "_ZN7android8hardware5radio6config4V1_123BnHwRadioConfigResponseC1ERKNS_2spINS3_20IRadioConfigResponseEEE",
   "parameters" :
   [
    {
     "is_this_ptr" : true,
     "referenced_type" : "_ZTIPN7android8hardware5radio6config4V1_123BnHwRadioConfigResponseE"
    },
    {
     "referenced_type" : "_ZTIRKN7android2spINS_8hardware5radio6config4V1_120IRadioConfigResponseEEE"
    }
   ],
   "return_type" : "_ZTIv",
   "source_file" : "/out/soong/.intermediates/hardware/interfaces/radio/config/1.1/android.hardware.radio.config@1.1_genc++_headers/gen/android/hardware/radio/config/1.1/BnHwRadioConfigResponse.h"
  },
  {
   "function_name" : "android::hardware::radio::config::V1_1::BnHwRadioConfigResponse::BnHwRadioConfigResponse",
   "linker_set_key" : "_ZN7android8hardware5radio6config4V1_123BnHwRadioConfigResponseC2ERKNS_2spINS3_20IRadioConfigResponseEEE",
   "parameters" :
   [
    {
     "is_this_ptr" : true,
     "referenced_type" : "_ZTIPN7android8hardware5radio6config4V1_123BnHwRadioConfigResponseE"
    },
    {
     "referenced_type" : "_ZTIRKN7android2spINS_8hardware5radio6config4V1_120IRadioConfigResponseEEE"
    }
   ],
   "return_type" : "_ZTIv",
   "source_file" : "/out/soong/.intermediates/hardware/interfaces/radio/config/1.1/android.hardware.radio.config@1.1_genc++_headers/gen/android/hardware/radio/config/1.1/BnHwRadioConfigResponse.h"
  },
  {
   "function_name" : "android::hardware::radio::config::V1_1::BnHwRadioConfigResponse::~BnHwRadioConfigResponse",
   "linker_set_key" : "_ZN7android8hardware5radio6config4V1_123BnHwRadioConfigResponseD0Ev",
   "parameters" :
   [
    {
     "is_this_ptr" : true,
     "referenced_type" : "_ZTIPN7android8hardware5radio6config4V1_123BnHwRadioConfigResponseE"
    }
   ],
   "return_type" : "_ZTIv",
   "source_file" : "/out/soong/.intermediates/hardware/interfaces/radio/config/1.1/android.hardware.radio.config@1.1_genc++_headers/gen/android/hardware/radio/config/1.1/BnHwRadioConfigResponse.h"
  },
  {
   "function_name" : "android::hardware::radio::config::V1_1::BnHwRadioConfigResponse::~BnHwRadioConfigResponse",
   "linker_set_key" : "_ZN7android8hardware5radio6config4V1_123BnHwRadioConfigResponseD1Ev",
   "parameters" :
   [
    {
     "is_this_ptr" : true,
     "referenced_type" : "_ZTIPN7android8hardware5radio6config4V1_123BnHwRadioConfigResponseE"
    }
   ],
   "return_type" : "_ZTIv",
   "source_file" : "/out/soong/.intermediates/hardware/interfaces/radio/config/1.1/android.hardware.radio.config@1.1_genc++_headers/gen/android/hardware/radio/config/1.1/BnHwRadioConfigResponse.h"
  },
  {
   "function_name" : "android::hardware::radio::config::V1_1::BnHwRadioConfigResponse::~BnHwRadioConfigResponse",
   "linker_set_key" : "_ZN7android8hardware5radio6config4V1_123BnHwRadioConfigResponseD2Ev",
   "parameters" :
   [
    {
     "is_this_ptr" : true,
     "referenced_type" : "_ZTIPN7android8hardware5radio6config4V1_123BnHwRadioConfigResponseE"
    }
   ],
   "return_type" : "_ZTIv",
   "source_file" : "/out/soong/.intermediates/hardware/interfaces/radio/config/1.1/android.hardware.radio.config@1.1_genc++_headers/gen/android/hardware/radio/config/1.1/BnHwRadioConfigResponse.h"
  },
  {
   "function_name" : "android::hardware::radio::config::V1_1::BpHwRadioConfigResponse::linkToDeath",
   "linker_set_key" : "_ZN7android8hardware5radio6config4V1_123BpHwRadioConfigResponse11linkToDeathERKNS_2spINS0_20hidl_death_recipientEEEy",
   "parameters" :
   [
    {
     "is_this_ptr" : true,
     "referenced_type" : "_ZTIPN7android8hardware5radio6config4V1_123BpHwRadioConfigResponseE"
    },
    {
     "referenced_type" : "_ZTIRKN7android2spINS_8hardware20hidl_death_recipientEEE"
    },
    {
     "referenced_type" : "_ZTIy"
    }
   ],
   "return_type" : "_ZTIN7android8hardware6ReturnIbEE",
   "source_file" : "/out/soong/.intermediates/hardware/interfaces/radio/config/1.1/android.hardware.radio.config@1.1_genc++_headers/gen/android/hardware/radio/config/1.1/BpHwRadioConfigResponse.h"
  },
  {
   "function_name" : "android::hardware::radio::config::V1_1::BpHwRadioConfigResponse::getDebugInfo",
   "linker_set_key" : "_ZN7android8hardware5radio6config4V1_123BpHwRadioConfigResponse12getDebugInfoENSt3__18functionIFvRKNS_4hidl4base4V1_09DebugInfoEEEE",
   "parameters" :
   [
    {
     "is_this_ptr" : true,
     "referenced_type" : "_ZTIPN7android8hardware5radio6config4V1_123BpHwRadioConfigResponseE"
    },
    {
     "referenced_type" : "_ZTINSt3__18functionIFvRKN7android4hidl4base4V1_09DebugInfoEEEE"
    }
   ],
   "return_type" : "_ZTIN7android8hardware6ReturnIvEE",
   "source_file" : "/out/soong/.intermediates/hardware/interfaces/radio/config/1.1/android.hardware.radio.config@1.1_genc++_headers/gen/android/hardware/radio/config/1.1/BpHwRadioConfigResponse.h"
  },
  {
   "function_name" : "android::hardware::radio::config::V1_1::BpHwRadioConfigResponse::getHashChain",
   "linker_set_key" : "_ZN7android8hardware5radio6config4V1_123BpHwRadioConfigResponse12getHashChainENSt3__18functionIFvRKNS0_8hidl_vecINS0_10hidl_arrayIhLj32EJEEEEEEEE",
   "parameters" :
   [
    {
     "is_this_ptr" : true,
     "referenced_type" : "_ZTIPN7android8hardware5radio6config4V1_123BpHwRadioConfigResponseE"
    },
    {
     "referenced_type" : "_ZTINSt3__18functionIFvRKN7android8hardware8hidl_vecINS2_10hidl_arrayIhLj32EJEEEEEEEE"
    }
   ],
   "return_type" : "_ZTIN7android8hardware6ReturnIvEE",
   "source_file" : "/out/soong/.intermediates/hardware/interfaces/radio/config/1.1/android.hardware.radio.config@1.1_genc++_headers/gen/android/hardware/radio/config/1.1/BpHwRadioConfigResponse.h"
  },
  {
   "function_name" : "android::hardware::radio::config::V1_1::BpHwRadioConfigResponse::unlinkToDeath",
   "linker_set_key" : "_ZN7android8hardware5radio6config4V1_123BpHwRadioConfigResponse13unlinkToDeathERKNS_2spINS0_20hidl_death_recipientEEE",
   "parameters" :
   [
    {
     "is_this_ptr" : true,
     "referenced_type" : "_ZTIPN7android8hardware5radio6config4V1_123BpHwRadioConfigResponseE"
    },
    {
     "referenced_type" : "_ZTIRKN7android2spINS_8hardware20hidl_death_recipientEEE"
    }
   ],
   "return_type" : "_ZTIN7android8hardware6ReturnIbEE",
   "source_file" : "/out/soong/.intermediates/hardware/interfaces/radio/config/1.1/android.hardware.radio.config@1.1_genc++_headers/gen/android/hardware/radio/config/1.1/BpHwRadioConfigResponse.h"
  },
  {
   "function_name" : "android::hardware::radio::config::V1_1::BpHwRadioConfigResponse::interfaceChain",
   "linker_set_key" : "_ZN7android8hardware5radio6config4V1_123BpHwRadioConfigResponse14interfaceChainENSt3__18functionIFvRKNS0_8hidl_vecINS0_11hidl_stringEEEEEE",
   "parameters" :
   [
    {
     "is_this_ptr" : true,
     "referenced_type" : "_ZTIPN7android8hardware5radio6config4V1_123BpHwRadioConfigResponseE"
    },
    {
     "referenced_type" : "_ZTINSt3__18functionIFvRKN7android8hardware8hidl_vecINS2_11hidl_stringEEEEEE"
    }
   ],
   "return_type" : "_ZTIN7android8hardware6ReturnIvEE",
   "source_file" : "/out/soong/.intermediates/hardware/interfaces/radio/config/1.1/android.hardware.radio.config@1.1_genc++_headers/gen/android/hardware/radio/config/1.1/BpHwRadioConfigResponse.h"
  },
  {
   "function_name" : "android::hardware::radio::config::V1_1::BpHwRadioConfigResponse::onLastStrongRef",
   "linker_set_key" : "_ZN7android8hardware5radio6config4V1_123BpHwRadioConfigResponse15onLastStrongRefEPKv",
   "parameters" :
   [
    {
     "is_this_ptr" : true,
     "referenced_type" : "_ZTIPN7android8hardware5radio6config4V1_123BpHwRadioConfigResponseE"
    },
    {
     "referenced_type" : "_ZTIPKv"
    }
   ],
   "return_type" : "_ZTIv",
   "source_file" : "/out/soong/.intermediates/hardware/interfaces/radio/config/1.1/android.hardware.radio.config@1.1_genc++_headers/gen/android/hardware/radio/config/1.1/BpHwRadioConfigResponse.h"
  },
  {
   "function_name" : "android::hardware::radio::config::V1_1::BpHwRadioConfigResponse::interfaceDescriptor",
   "linker_set_key" : "_ZN7android8hardware5radio6config4V1_123BpHwRadioConfigResponse19interfaceDescriptorENSt3__18functionIFvRKNS0_11hidl_stringEEEE",
   "parameters" :
   [
    {
     "is_this_ptr" : true,
     "referenced_type" : "_ZTIPN7android8hardware5radio6config4V1_123BpHwRadioConfigResponseE"
    },
    {
     "referenced_type" : "_ZTINSt3__18functionIFvRKN7android8hardware11hidl_stringEEEE"
    }
   ],
   "return_type" : "_ZTIN7android8hardware6ReturnIvEE",
   "source_file" : "/out/soong/.intermediates/hardware/interfaces/radio/config/1.1/android.hardware.radio.config@1.1_genc++_headers/gen/android/hardware/radio/config/1.1/BpHwRadioConfigResponse.h"
  },
  {
   "function_name" : "android::hardware::radio::config::V1_1::BpHwRadioConfigResponse::notifySyspropsChanged",
   "linker_set_key" : "_ZN7android8hardware5radio6config4V1_123BpHwRadioConfigResponse21notifySyspropsChangedEv",
   "parameters" :
   [
    {
     "is_this_ptr" : true,
     "referenced_type" : "_ZTIPN7android8hardware5radio6config4V1_123BpHwRadioConfigResponseE"
    }
   ],
   "return_type" : "_ZTIN7android8hardware6ReturnIvEE",
   "source_file" : "/out/soong/.intermediates/hardware/interfaces/radio/config/1.1/android.hardware.radio.config@1.1_genc++_headers/gen/android/hardware/radio/config/1.1/BpHwRadioConfigResponse.h"
  },
  {
   "function_name" : "android::hardware::radio::config::V1_1::BpHwRadioConfigResponse::setHALInstrumentation",
   "linker_set_key" : "_ZN7android8hardware5radio6config4V1_123BpHwRadioConfigResponse21setHALInstrumentationEv",
   "parameters" :
   [
    {
     "is_this_ptr" : true,
     "referenced_type" : "_ZTIPN7android8hardware5radio6config4V1_123BpHwRadioConfigResponseE"
    }
   ],
   "return_type" : "_ZTIN7android8hardware6ReturnIvEE",
   "source_file" : "/out/soong/.intermediates/hardware/interfaces/radio/config/1.1/android.hardware.radio.config@1.1_genc++_headers/gen/android/hardware/radio/config/1.1/BpHwRadioConfigResponse.h"
  },
  {
   "function_name" : "android::hardware::radio::config::V1_1::BpHwRadioConfigResponse::getModemsConfigResponse",
   "linker_set_key" : "_ZN7android8hardware5radio6config4V1_123BpHwRadioConfigResponse23getModemsConfigResponseERKNS1_4V1_017RadioResponseInfoERKNS3_12ModemsConfigE",
   "parameters" :
   [
    {
     "is_this_ptr" : true,
     "referenced_type" : "_ZTIPN7android8hardware5radio6config4V1_123BpHwRadioConfigResponseE"
    },
    {
     "referenced_type" : "_ZTIRKN7android8hardware5radio4V1_017RadioResponseInfoE"
    },
    {
     "referenced_type" : "_ZTIRKN7android8hardware5radio6config4V1_112ModemsConfigE"
    }
   ],
   "return_type" : "_ZTIN7android8hardware6ReturnIvEE",
   "source_file" : "/out/soong/.intermediates/hardware/interfaces/radio/config/1.1/android.hardware.radio.config@1.1_genc++_headers/gen/android/hardware/radio/config/1.1/BpHwRadioConfigResponse.h"
  },
  {
   "function_name" : "android::hardware::radio::config::V1_1::BpHwRadioConfigResponse::setModemsConfigResponse",
   "linker_set_key" : "_ZN7android8hardware5radio6config4V1_123BpHwRadioConfigResponse23setModemsConfigResponseERKNS1_4V1_017RadioResponseInfoE",
   "parameters" :
   [
    {
     "is_this_ptr" : true,
     "referenced_type" : "_ZTIPN7android8hardware5radio6config4V1_123BpHwRadioConfigResponseE"
    },
    {
     "referenced_type" : "_ZTIRKN7android8hardware5radio4V1_017RadioResponseInfoE"
    }
   ],
   "return_type" : "_ZTIN7android8hardware6ReturnIvEE",
   "source_file" : "/out/soong/.intermediates/hardware/interfaces/radio/config/1.1/android.hardware.radio.config@1.1_genc++_headers/gen/android/hardware/radio/config/1.1/BpHwRadioConfigResponse.h"
  },
  {
   "function_name" : "android::hardware::radio::config::V1_1::BpHwRadioConfigResponse::getSimSlotsStatusResponse",
   "linker_set_key" : "_ZN7android8hardware5radio6config4V1_123BpHwRadioConfigResponse25getSimSlotsStatusResponseERKNS1_4V1_017RadioResponseInfoERKNS0_8hidl_vecINS2_4V1_013SimSlotStatusEEE",
   "parameters" :
   [
    {
     "is_this_ptr" : true,
     "referenced_type" : "_ZTIPN7android8hardware5radio6config4V1_123BpHwRadioConfigResponseE"
    },
    {
     "referenced_type" : "_ZTIRKN7android8hardware5radio4V1_017RadioResponseInfoE"
    },
    {
     "referenced_type" : "_ZTIRKN7android8hardware8hidl_vecINS0_5radio6config4V1_013SimSlotStatusEEE"
    }
   ],
   "return_type" : "_ZTIN7android8hardware6ReturnIvEE",
   "source_file" : "/out/soong/.intermediates/hardware/interfaces/radio/config/1.1/android.hardware.radio.config@1.1_genc++_headers/gen/android/hardware/radio/config/1.1/BpHwRadioConfigResponse.h"
  },
  {
   "function_name" : "android::hardware::radio::config::V1_1::BpHwRadioConfigResponse::getPhoneCapabilityResponse",
   "linker_set_key" : "_ZN7android8hardware5radio6config4V1_123BpHwRadioConfigResponse26getPhoneCapabilityResponseERKNS1_4V1_017RadioResponseInfoERKNS3_15PhoneCapabilityE",
   "parameters" :
   [
    {
     "is_this_ptr" : true,
     "referenced_type" : "_ZTIPN7android8hardware5radio6config4V1_123BpHwRadioConfigResponseE"
    },
    {
     "referenced_type" : "_ZTIRKN7android8hardware5radio4V1_017RadioResponseInfoE"
    },
    {
     "referenced_type" : "_ZTIRKN7android8hardware5radio6config4V1_115PhoneCapabilityE"
    }
   ],
   "return_type" : "_ZTIN7android8hardware6ReturnIvEE",
   "source_file" : "/out/soong/.intermediates/hardware/interfaces/radio/config/1.1/android.hardware.radio.config@1.1_genc++_headers/gen/android/hardware/radio/config/1.1/BpHwRadioConfigResponse.h"
  },
  {
   "function_name" : "android::hardware::radio::config::V1_1::BpHwRadioConfigResponse::setSimSlotsMappingResponse",
   "linker_set_key" : "_ZN7android8hardware5radio6config4V1_123BpHwRadioConfigResponse26setSimSlotsMappingResponseERKNS1_4V1_017RadioResponseInfoE",
   "parameters" :
   [
    {
     "is_this_ptr" : true,
     "referenced_type" : "_ZTIPN7android8hardware5radio6config4V1_123BpHwRadioConfigResponseE"
    },
    {
     "referenced_type" : "_ZTIRKN7android8hardware5radio4V1_017RadioResponseInfoE"
    }
   ],
   "return_type" : "_ZTIN7android8hardware6ReturnIvEE",
   "source_file" : "/out/soong/.intermediates/hardware/interfaces/radio/config/1.1/android.hardware.radio.config@1.1_genc++_headers/gen/android/hardware/radio/config/1.1/BpHwRadioConfigResponse.h"
  },
  {
   "function_name" : "android::hardware::radio::config::V1_1::BpHwRadioConfigResponse::_hidl_getModemsConfigResponse",
   "linker_set_key" : "_ZN7android8hardware5radio6config4V1_123BpHwRadioConfigResponse29_hidl_getModemsConfigResponseEPNS0_10IInterfaceEPNS0_7details16HidlInstrumentorERKNS1_4V1_017RadioResponseInfoERKNS3_12ModemsConfigE",
   "parameters" :
   [
    {
     "referenced_type" : "_ZTIPN7android8hardware10IInterfaceE"
    },
    {
     "referenced_type" : "_ZTIPN7android8hardware7details16HidlInstrumentorE"
    },
    {
     "referenced_type" : "_ZTIRKN7android8hardware5radio4V1_017RadioResponseInfoE"
    },
    {
     "referenced_type" : "_ZTIRKN7android8hardware5radio6config4V1_112ModemsConfigE"
    }
   ],
   "return_type" : "_ZTIN7android8hardware6ReturnIvEE",
   "source_file" : "/out/soong/.intermediates/hardware/interfaces/radio/config/1.1/android.hardware.radio.config@1.1_genc++_headers/gen/android/hardware/radio/config/1.1/BpHwRadioConfigResponse.h"
  },
  {
   "function_name" : "android::hardware::radio::config::V1_1::BpHwRadioConfigResponse::_hidl_setModemsConfigResponse",
   "linker_set_key" : "_ZN7android8hardware5radio6config4V1_123BpHwRadioConfigResponse29_hidl_setModemsConfigResponseEPNS0_10IInterfaceEPNS0_7details16HidlInstrumentorERKNS1_4V1_017RadioResponseInfoE",
   "parameters" :
   [
    {
     "referenced_type" : "_ZTIPN7android8hardware10IInterfaceE"
    },
    {
     "referenced_type" : "_ZTIPN7android8hardware7details16HidlInstrumentorE"
    },
    {
     "referenced_type" : "_ZTIRKN7android8hardware5radio4V1_017RadioResponseInfoE"
    }
   ],
   "return_type" : "_ZTIN7android8hardware6ReturnIvEE",
   "source_file" : "/out/soong/.intermediates/hardware/interfaces/radio/config/1.1/android.hardware.radio.config@1.1_genc++_headers/gen/android/hardware/radio/config/1.1/BpHwRadioConfigResponse.h"
  },
  {
   "function_name" : "android::hardware::radio::config::V1_1::BpHwRadioConfigResponse::setPreferredDataModemResponse",
   "linker_set_key" : "_ZN7android8hardware5radio6config4V1_123BpHwRadioConfigResponse29setPreferredDataModemResponseERKNS1_4V1_017RadioResponseInfoE",
   "parameters" :
   [
    {
     "is_this_ptr" : true,
     "referenced_type" : "_ZTIPN7android8hardware5radio6config4V1_123BpHwRadioConfigResponseE"
    },
    {
     "referenced_type" : "_ZTIRKN7android8hardware5radio4V1_017RadioResponseInfoE"
    }
   ],
   "return_type" : "_ZTIN7android8hardware6ReturnIvEE",
   "source_file" : "/out/soong/.intermediates/hardware/interfaces/radio/config/1.1/android.hardware.radio.config@1.1_genc++_headers/gen/android/hardware/radio/config/1.1/BpHwRadioConfigResponse.h"
  },
  {
   "function_name" : "android::hardware::radio::config::V1_1::BpHwRadioConfigResponse::_hidl_getPhoneCapabilityResponse",
   "linker_set_key" : "_ZN7android8hardware5radio6config4V1_123BpHwRadioConfigResponse32_hidl_getPhoneCapabilityResponseEPNS0_10IInterfaceEPNS0_7details16HidlInstrumentorERKNS1_4V1_017RadioResponseInfoERKNS3_15PhoneCapabilityE",
   "parameters" :
   [
    {
     "referenced_type" : "_ZTIPN7android8hardware10IInterfaceE"
    },
    {
     "referenced_type" : "_ZTIPN7android8hardware7details16HidlInstrumentorE"
    },
    {
     "referenced_type" : "_ZTIRKN7android8hardware5radio4V1_017RadioResponseInfoE"
    },
    {
     "referenced_type" : "_ZTIRKN7android8hardware5radio6config4V1_115PhoneCapabilityE"
    }
   ],
   "return_type" : "_ZTIN7android8hardware6ReturnIvEE",
   "source_file" : "/out/soong/.intermediates/hardware/interfaces/radio/config/1.1/android.hardware.radio.config@1.1_genc++_headers/gen/android/hardware/radio/config/1.1/BpHwRadioConfigResponse.h"
  },
  {
   "function_name" : "android::hardware::radio::config::V1_1::BpHwRadioConfigResponse::_hidl_setPreferredDataModemResponse",
   "linker_set_key" : "_ZN7android8hardware5radio6config4V1_123BpHwRadioConfigResponse35_hidl_setPreferredDataModemResponseEPNS0_10IInterfaceEPNS0_7details16HidlInstrumentorERKNS1_4V1_017RadioResponseInfoE",
   "parameters" :
   [
    {
     "referenced_type" : "_ZTIPN7android8hardware10IInterfaceE"
    },
    {
     "referenced_type" : "_ZTIPN7android8hardware7details16HidlInstrumentorE"
    },
    {
     "referenced_type" : "_ZTIRKN7android8hardware5radio4V1_017RadioResponseInfoE"
    }
   ],
   "return_type" : "_ZTIN7android8hardware6ReturnIvEE",
   "source_file" : "/out/soong/.intermediates/hardware/interfaces/radio/config/1.1/android.hardware.radio.config@1.1_genc++_headers/gen/android/hardware/radio/config/1.1/BpHwRadioConfigResponse.h"
  },
  {
   "function_name" : "android::hardware::radio::config::V1_1::BpHwRadioConfigResponse::ping",
   "linker_set_key" : "_ZN7android8hardware5radio6config4V1_123BpHwRadioConfigResponse4pingEv",
   "parameters" :
   [
    {
     "is_this_ptr" : true,
     "referenced_type" : "_ZTIPN7android8hardware5radio6config4V1_123BpHwRadioConfigResponseE"
    }
   ],
   "return_type" : "_ZTIN7android8hardware6ReturnIvEE",
   "source_file" : "/out/soong/.intermediates/hardware/interfaces/radio/config/1.1/android.hardware.radio.config@1.1_genc++_headers/gen/android/hardware/radio/config/1.1/BpHwRadioConfigResponse.h"
  },
  {
   "function_name" : "android::hardware::radio::config::V1_1::BpHwRadioConfigResponse::debug",
   "linker_set_key" : "_ZN7android8hardware5radio6config4V1_123BpHwRadioConfigResponse5debugERKNS0_11hidl_handleERKNS0_8hidl_vecINS0_11hidl_stringEEE",
   "parameters" :
   [
    {
     "is_this_ptr" : true,
     "referenced_type" : "_ZTIPN7android8hardware5radio6config4V1_123BpHwRadioConfigResponseE"
    },
    {
     "referenced_type" : "_ZTIRKN7android8hardware11hidl_handleE"
    },
    {
     "referenced_type" : "_ZTIRKN7android8hardware8hidl_vecINS0_11hidl_stringEEE"
    }
   ],
   "return_type" : "_ZTIN7android8hardware6ReturnIvEE",
   "source_file" : "/out/soong/.intermediates/hardware/interfaces/radio/config/1.1/android.hardware.radio.config@1.1_genc++_headers/gen/android/hardware/radio/config/1.1/BpHwRadioConfigResponse.h"
  },
  {
   "function_name" : "android::hardware::radio::config::V1_1::BpHwRadioConfigResponse::BpHwRadioConfigResponse",
   "linker_set_key" : "_ZN7android8hardware5radio6config4V1_123BpHwRadioConfigResponseC1ERKNS_2spINS0_7IBinderEEE",
   "parameters" :
   [
    {
     "is_this_ptr" : true,
     "referenced_type" : "_ZTIPN7android8hardware5radio6config4V1_123BpHwRadioConfigResponseE"
    },
    {
     "referenced_type" : "_ZTIRKN7android2spINS_8hardware7IBinderEEE"
    }
   ],
   "return_type" : "_ZTIv",
   "source_file" : "/out/soong/.intermediates/hardware/interfaces/radio/config/1.1/android.hardware.radio.config@1.1_genc++_headers/gen/android/hardware/radio/config/1.1/BpHwRadioConfigResponse.h"
  },
  {
   "function_name" : "android::hardware::radio::config::V1_1::BpHwRadioConfigResponse::BpHwRadioConfigResponse",
   "linker_set_key" : "_ZN7android8hardware5radio6config4V1_123BpHwRadioConfigResponseC2ERKNS_2spINS0_7IBinderEEE",
   "parameters" :
   [
    {
     "is_this_ptr" : true,
     "referenced_type" : "_ZTIPN7android8hardware5radio6config4V1_123BpHwRadioConfigResponseE"
    },
    {
     "referenced_type" : "_ZTIRKN7android2spINS_8hardware7IBinderEEE"
    }
   ],
   "return_type" : "_ZTIv",
   "source_file" : "/out/soong/.intermediates/hardware/interfaces/radio/config/1.1/android.hardware.radio.config@1.1_genc++_headers/gen/android/hardware/radio/config/1.1/BpHwRadioConfigResponse.h"
  },
  {
   "access" : "private",
   "function_name" : "android::hardware::radio::config::V1_1::BsRadioConfigIndication::addOnewayTask",
   "linker_set_key" : "_ZN7android8hardware5radio6config4V1_123BsRadioConfigIndication13addOnewayTaskENSt3__18functionIFvvEEE",
   "parameters" :
   [
    {
     "is_this_ptr" : true,
     "referenced_type" : "_ZTIPN7android8hardware5radio6config4V1_123BsRadioConfigIndicationE"
    },
    {
     "referenced_type" : "_ZTINSt3__18functionIFvvEEE"
    }
   ],
   "return_type" : "_ZTIN7android8hardware6ReturnIvEE",
   "source_file" : "/out/soong/.intermediates/hardware/interfaces/radio/config/1.1/android.hardware.radio.config@1.1_genc++_headers/gen/android/hardware/radio/config/1.1/BsRadioConfigIndication.h"
  },
  {
   "function_name" : "android::hardware::radio::config::V1_1::BsRadioConfigIndication::BsRadioConfigIndication",
   "linker_set_key" : "_ZN7android8hardware5radio6config4V1_123BsRadioConfigIndicationC1ENS_2spINS3_22IRadioConfigIndicationEEE",
   "parameters" :
   [
    {
     "is_this_ptr" : true,
     "referenced_type" : "_ZTIPN7android8hardware5radio6config4V1_123BsRadioConfigIndicationE"
    },
    {
     "referenced_type" : "_ZTIKN7android2spINS_8hardware5radio6config4V1_122IRadioConfigIndicationEEE"
    }
   ],
   "return_type" : "_ZTIv",
   "source_file" : "/out/soong/.intermediates/hardware/interfaces/radio/config/1.1/android.hardware.radio.config@1.1_genc++_headers/gen/android/hardware/radio/config/1.1/BsRadioConfigIndication.h"
  },
  {
   "function_name" : "android::hardware::radio::config::V1_1::BsRadioConfigIndication::BsRadioConfigIndication",
   "linker_set_key" : "_ZN7android8hardware5radio6config4V1_123BsRadioConfigIndicationC2ENS_2spINS3_22IRadioConfigIndicationEEE",
   "parameters" :
   [
    {
     "is_this_ptr" : true,
     "referenced_type" : "_ZTIPN7android8hardware5radio6config4V1_123BsRadioConfigIndicationE"
    },
    {
     "referenced_type" : "_ZTIKN7android2spINS_8hardware5radio6config4V1_122IRadioConfigIndicationEEE"
    }
   ],
   "return_type" : "_ZTIv",
   "source_file" : "/out/soong/.intermediates/hardware/interfaces/radio/config/1.1/android.hardware.radio.config@1.1_genc++_headers/gen/android/hardware/radio/config/1.1/BsRadioConfigIndication.h"
  },
  {
   "function_name" : "android::hardware::radio::config::V1_1::BnHwRadioConfigIndication::onTransact",
   "linker_set_key" : "_ZN7android8hardware5radio6config4V1_125BnHwRadioConfigIndication10onTransactEjRKNS0_6ParcelEPS5_jNSt3__18functionIFvRS5_EEE",
   "parameters" :
   [
    {
     "is_this_ptr" : true,
     "referenced_type" : "_ZTIPN7android8hardware5radio6config4V1_125BnHwRadioConfigIndicationE"
    },
    {
     "referenced_type" : "_ZTIj"
    },
    {
     "referenced_type" : "_ZTIRKN7android8hardware6ParcelE"
    },
    {
     "referenced_type" : "_ZTIPN7android8hardware6ParcelE"
    },
    {
     "default_arg" : true,
     "referenced_type" : "_ZTIj"
    },
    {
     "default_arg" : true,
     "referenced_type" : "_ZTINSt3__18functionIFvRN7android8hardware6ParcelEEEE"
    }
   ],
   "return_type" : "_ZTIi",
   "source_file" : "/out/soong/.intermediates/hardware/interfaces/radio/config/1.1/android.hardware.radio.config@1.1_genc++_headers/gen/android/hardware/radio/config/1.1/BnHwRadioConfigIndication.h"
  },
  {
   "access" : "private",
   "function_name" : "android::hardware::radio::config::V1_1::BnHwRadioConfigIndication::getDebugInfo",
   "linker_set_key" : "_ZN7android8hardware5radio6config4V1_125BnHwRadioConfigIndication12getDebugInfoENSt3__18functionIFvRKNS_4hidl4base4V1_09DebugInfoEEEE",
   "parameters" :
   [
    {
     "is_this_ptr" : true,
     "referenced_type" : "_ZTIPN7android8hardware5radio6config4V1_125BnHwRadioConfigIndicationE"
    },
    {
     "referenced_type" : "_ZTINSt3__18functionIFvRKN7android4hidl4base4V1_09DebugInfoEEEE"
    }
   ],
   "return_type" : "_ZTIN7android8hardware6ReturnIvEE",
   "source_file" : "/out/soong/.intermediates/hardware/interfaces/radio/config/1.1/android.hardware.radio.config@1.1_genc++_headers/gen/android/hardware/radio/config/1.1/BnHwRadioConfigIndication.h"
  },
  {
   "access" : "private",
   "function_name" : "android::hardware::radio::config::V1_1::BnHwRadioConfigIndication::ping",
   "linker_set_key" : "_ZN7android8hardware5radio6config4V1_125BnHwRadioConfigIndication4pingEv",
   "parameters" :
   [
    {
     "is_this_ptr" : true,
     "referenced_type" : "_ZTIPN7android8hardware5radio6config4V1_125BnHwRadioConfigIndicationE"
    }
   ],
   "return_type" : "_ZTIN7android8hardware6ReturnIvEE",
   "source_file" : "/out/soong/.intermediates/hardware/interfaces/radio/config/1.1/android.hardware.radio.config@1.1_genc++_headers/gen/android/hardware/radio/config/1.1/BnHwRadioConfigIndication.h"
  },
  {
   "function_name" : "android::hardware::radio::config::V1_1::BnHwRadioConfigIndication::BnHwRadioConfigIndication",
   "linker_set_key" : "_ZN7android8hardware5radio6config4V1_125BnHwRadioConfigIndicationC1ERKNS_2spINS3_22IRadioConfigIndicationEEE",
   "parameters" :
   [
    {
     "is_this_ptr" : true,
     "referenced_type" : "_ZTIPN7android8hardware5radio6config4V1_125BnHwRadioConfigIndicationE"
    },
    {
     "referenced_type" : "_ZTIRKN7android2spINS_8hardware5radio6config4V1_122IRadioConfigIndicationEEE"
    }
   ],
   "return_type" : "_ZTIv",
   "source_file" : "/out/soong/.intermediates/hardware/interfaces/radio/config/1.1/android.hardware.radio.config@1.1_genc++_headers/gen/android/hardware/radio/config/1.1/BnHwRadioConfigIndication.h"
  },
  {
   "function_name" : "android::hardware::radio::config::V1_1::BnHwRadioConfigIndication::BnHwRadioConfigIndication",
   "linker_set_key" : "_ZN7android8hardware5radio6config4V1_125BnHwRadioConfigIndicationC2ERKNS_2spINS3_22IRadioConfigIndicationEEE",
   "parameters" :
   [
    {
     "is_this_ptr" : true,
     "referenced_type" : "_ZTIPN7android8hardware5radio6config4V1_125BnHwRadioConfigIndicationE"
    },
    {
     "referenced_type" : "_ZTIRKN7android2spINS_8hardware5radio6config4V1_122IRadioConfigIndicationEEE"
    }
   ],
   "return_type" : "_ZTIv",
   "source_file" : "/out/soong/.intermediates/hardware/interfaces/radio/config/1.1/android.hardware.radio.config@1.1_genc++_headers/gen/android/hardware/radio/config/1.1/BnHwRadioConfigIndication.h"
  },
  {
   "function_name" : "android::hardware::radio::config::V1_1::BnHwRadioConfigIndication::~BnHwRadioConfigIndication",
   "linker_set_key" : "_ZN7android8hardware5radio6config4V1_125BnHwRadioConfigIndicationD0Ev",
   "parameters" :
   [
    {
     "is_this_ptr" : true,
     "referenced_type" : "_ZTIPN7android8hardware5radio6config4V1_125BnHwRadioConfigIndicationE"
    }
   ],
   "return_type" : "_ZTIv",
   "source_file" : "/out/soong/.intermediates/hardware/interfaces/radio/config/1.1/android.hardware.radio.config@1.1_genc++_headers/gen/android/hardware/radio/config/1.1/BnHwRadioConfigIndication.h"
  },
  {
   "function_name" : "android::hardware::radio::config::V1_1::BnHwRadioConfigIndication::~BnHwRadioConfigIndication",
   "linker_set_key" : "_ZN7android8hardware5radio6config4V1_125BnHwRadioConfigIndicationD1Ev",
   "parameters" :
   [
    {
     "is_this_ptr" : true,
     "referenced_type" : "_ZTIPN7android8hardware5radio6config4V1_125BnHwRadioConfigIndicationE"
    }
   ],
   "return_type" : "_ZTIv",
   "source_file" : "/out/soong/.intermediates/hardware/interfaces/radio/config/1.1/android.hardware.radio.config@1.1_genc++_headers/gen/android/hardware/radio/config/1.1/BnHwRadioConfigIndication.h"
  },
  {
   "function_name" : "android::hardware::radio::config::V1_1::BnHwRadioConfigIndication::~BnHwRadioConfigIndication",
   "linker_set_key" : "_ZN7android8hardware5radio6config4V1_125BnHwRadioConfigIndicationD2Ev",
   "parameters" :
   [
    {
     "is_this_ptr" : true,
     "referenced_type" : "_ZTIPN7android8hardware5radio6config4V1_125BnHwRadioConfigIndicationE"
    }
   ],
   "return_type" : "_ZTIv",
   "source_file" : "/out/soong/.intermediates/hardware/interfaces/radio/config/1.1/android.hardware.radio.config@1.1_genc++_headers/gen/android/hardware/radio/config/1.1/BnHwRadioConfigIndication.h"
  },
  {
   "function_name" : "android::hardware::radio::config::V1_1::BpHwRadioConfigIndication::linkToDeath",
   "linker_set_key" : "_ZN7android8hardware5radio6config4V1_125BpHwRadioConfigIndication11linkToDeathERKNS_2spINS0_20hidl_death_recipientEEEy",
   "parameters" :
   [
    {
     "is_this_ptr" : true,
     "referenced_type" : "_ZTIPN7android8hardware5radio6config4V1_125BpHwRadioConfigIndicationE"
    },
    {
     "referenced_type" : "_ZTIRKN7android2spINS_8hardware20hidl_death_recipientEEE"
    },
    {
     "referenced_type" : "_ZTIy"
    }
   ],
   "return_type" : "_ZTIN7android8hardware6ReturnIbEE",
   "source_file" : "/out/soong/.intermediates/hardware/interfaces/radio/config/1.1/android.hardware.radio.config@1.1_genc++_headers/gen/android/hardware/radio/config/1.1/BpHwRadioConfigIndication.h"
  },
  {
   "function_name" : "android::hardware::radio::config::V1_1::BpHwRadioConfigIndication::getDebugInfo",
   "linker_set_key" : "_ZN7android8hardware5radio6config4V1_125BpHwRadioConfigIndication12getDebugInfoENSt3__18functionIFvRKNS_4hidl4base4V1_09DebugInfoEEEE",
   "parameters" :
   [
    {
     "is_this_ptr" : true,
     "referenced_type" : "_ZTIPN7android8hardware5radio6config4V1_125BpHwRadioConfigIndicationE"
    },
    {
     "referenced_type" : "_ZTINSt3__18functionIFvRKN7android4hidl4base4V1_09DebugInfoEEEE"
    }
   ],
   "return_type" : "_ZTIN7android8hardware6ReturnIvEE",
   "source_file" : "/out/soong/.intermediates/hardware/interfaces/radio/config/1.1/android.hardware.radio.config@1.1_genc++_headers/gen/android/hardware/radio/config/1.1/BpHwRadioConfigIndication.h"
  },
  {
   "function_name" : "android::hardware::radio::config::V1_1::BpHwRadioConfigIndication::getHashChain",
   "linker_set_key" : "_ZN7android8hardware5radio6config4V1_125BpHwRadioConfigIndication12getHashChainENSt3__18functionIFvRKNS0_8hidl_vecINS0_10hidl_arrayIhLj32EJEEEEEEEE",
   "parameters" :
   [
    {
     "is_this_ptr" : true,
     "referenced_type" : "_ZTIPN7android8hardware5radio6config4V1_125BpHwRadioConfigIndicationE"
    },
    {
     "referenced_type" : "_ZTINSt3__18functionIFvRKN7android8hardware8hidl_vecINS2_10hidl_arrayIhLj32EJEEEEEEEE"
    }
   ],
   "return_type" : "_ZTIN7android8hardware6ReturnIvEE",
   "source_file" : "/out/soong/.intermediates/hardware/interfaces/radio/config/1.1/android.hardware.radio.config@1.1_genc++_headers/gen/android/hardware/radio/config/1.1/BpHwRadioConfigIndication.h"
  },
  {
   "function_name" : "android::hardware::radio::config::V1_1::BpHwRadioConfigIndication::unlinkToDeath",
   "linker_set_key" : "_ZN7android8hardware5radio6config4V1_125BpHwRadioConfigIndication13unlinkToDeathERKNS_2spINS0_20hidl_death_recipientEEE",
   "parameters" :
   [
    {
     "is_this_ptr" : true,
     "referenced_type" : "_ZTIPN7android8hardware5radio6config4V1_125BpHwRadioConfigIndicationE"
    },
    {
     "referenced_type" : "_ZTIRKN7android2spINS_8hardware20hidl_death_recipientEEE"
    }
   ],
   "return_type" : "_ZTIN7android8hardware6ReturnIbEE",
   "source_file" : "/out/soong/.intermediates/hardware/interfaces/radio/config/1.1/android.hardware.radio.config@1.1_genc++_headers/gen/android/hardware/radio/config/1.1/BpHwRadioConfigIndication.h"
  },
  {
   "function_name" : "android::hardware::radio::config::V1_1::BpHwRadioConfigIndication::interfaceChain",
   "linker_set_key" : "_ZN7android8hardware5radio6config4V1_125BpHwRadioConfigIndication14interfaceChainENSt3__18functionIFvRKNS0_8hidl_vecINS0_11hidl_stringEEEEEE",
   "parameters" :
   [
    {
     "is_this_ptr" : true,
     "referenced_type" : "_ZTIPN7android8hardware5radio6config4V1_125BpHwRadioConfigIndicationE"
    },
    {
     "referenced_type" : "_ZTINSt3__18functionIFvRKN7android8hardware8hidl_vecINS2_11hidl_stringEEEEEE"
    }
   ],
   "return_type" : "_ZTIN7android8hardware6ReturnIvEE",
   "source_file" : "/out/soong/.intermediates/hardware/interfaces/radio/config/1.1/android.hardware.radio.config@1.1_genc++_headers/gen/android/hardware/radio/config/1.1/BpHwRadioConfigIndication.h"
  },
  {
   "function_name" : "android::hardware::radio::config::V1_1::BpHwRadioConfigIndication::onLastStrongRef",
   "linker_set_key" : "_ZN7android8hardware5radio6config4V1_125BpHwRadioConfigIndication15onLastStrongRefEPKv",
   "parameters" :
   [
    {
     "is_this_ptr" : true,
     "referenced_type" : "_ZTIPN7android8hardware5radio6config4V1_125BpHwRadioConfigIndicationE"
    },
    {
     "referenced_type" : "_ZTIPKv"
    }
   ],
   "return_type" : "_ZTIv",
   "source_file" : "/out/soong/.intermediates/hardware/interfaces/radio/config/1.1/android.hardware.radio.config@1.1_genc++_headers/gen/android/hardware/radio/config/1.1/BpHwRadioConfigIndication.h"
  },
  {
   "function_name" : "android::hardware::radio::config::V1_1::BpHwRadioConfigIndication::interfaceDescriptor",
   "linker_set_key" : "_ZN7android8hardware5radio6config4V1_125BpHwRadioConfigIndication19interfaceDescriptorENSt3__18functionIFvRKNS0_11hidl_stringEEEE",
   "parameters" :
   [
    {
     "is_this_ptr" : true,
     "referenced_type" : "_ZTIPN7android8hardware5radio6config4V1_125BpHwRadioConfigIndicationE"
    },
    {
     "referenced_type" : "_ZTINSt3__18functionIFvRKN7android8hardware11hidl_stringEEEE"
    }
   ],
   "return_type" : "_ZTIN7android8hardware6ReturnIvEE",
   "source_file" : "/out/soong/.intermediates/hardware/interfaces/radio/config/1.1/android.hardware.radio.config@1.1_genc++_headers/gen/android/hardware/radio/config/1.1/BpHwRadioConfigIndication.h"
  },
  {
   "function_name" : "android::hardware::radio::config::V1_1::BpHwRadioConfigIndication::notifySyspropsChanged",
   "linker_set_key" : "_ZN7android8hardware5radio6config4V1_125BpHwRadioConfigIndication21notifySyspropsChangedEv",
   "parameters" :
   [
    {
     "is_this_ptr" : true,
     "referenced_type" : "_ZTIPN7android8hardware5radio6config4V1_125BpHwRadioConfigIndicationE"
    }
   ],
   "return_type" : "_ZTIN7android8hardware6ReturnIvEE",
   "source_file" : "/out/soong/.intermediates/hardware/interfaces/radio/config/1.1/android.hardware.radio.config@1.1_genc++_headers/gen/android/hardware/radio/config/1.1/BpHwRadioConfigIndication.h"
  },
  {
   "function_name" : "android::hardware::radio::config::V1_1::BpHwRadioConfigIndication::setHALInstrumentation",
   "linker_set_key" : "_ZN7android8hardware5radio6config4V1_125BpHwRadioConfigIndication21setHALInstrumentationEv",
   "parameters" :
   [
    {
     "is_this_ptr" : true,
     "referenced_type" : "_ZTIPN7android8hardware5radio6config4V1_125BpHwRadioConfigIndicationE"
    }
   ],
   "return_type" : "_ZTIN7android8hardware6ReturnIvEE",
   "source_file" : "/out/soong/.intermediates/hardware/interfaces/radio/config/1.1/android.hardware.radio.config@1.1_genc++_headers/gen/android/hardware/radio/config/1.1/BpHwRadioConfigIndication.h"
  },
  {
   "function_name" : "android::hardware::radio::config::V1_1::BpHwRadioConfigIndication::simSlotsStatusChanged",
   "linker_set_key" : "_ZN7android8hardware5radio6config4V1_125BpHwRadioConfigIndication21simSlotsStatusChangedENS1_4V1_019RadioIndicationTypeERKNS0_8hidl_vecINS2_4V1_013SimSlotStatusEEE",
   "parameters" :
   [
    {
     "is_this_ptr" : true,
     "referenced_type" : "_ZTIPN7android8hardware5radio6config4V1_125BpHwRadioConfigIndicationE"
    },
    {
     "referenced_type" : "_ZTIN7android8hardware5radio4V1_019RadioIndicationTypeE"
    },
    {
     "referenced_type" : "_ZTIRKN7android8hardware8hidl_vecINS0_5radio6config4V1_013SimSlotStatusEEE"
    }
   ],
   "return_type" : "_ZTIN7android8hardware6ReturnIvEE",
   "source_file" : "/out/soong/.intermediates/hardware/interfaces/radio/config/1.1/android.hardware.radio.config@1.1_genc++_headers/gen/android/hardware/radio/config/1.1/BpHwRadioConfigIndication.h"
  },
  {
   "function_name" : "android::hardware::radio::config::V1_1::BpHwRadioConfigIndication::ping",
   "linker_set_key" : "_ZN7android8hardware5radio6config4V1_125BpHwRadioConfigIndication4pingEv",
   "parameters" :
   [
    {
     "is_this_ptr" : true,
     "referenced_type" : "_ZTIPN7android8hardware5radio6config4V1_125BpHwRadioConfigIndicationE"
    }
   ],
   "return_type" : "_ZTIN7android8hardware6ReturnIvEE",
   "source_file" : "/out/soong/.intermediates/hardware/interfaces/radio/config/1.1/android.hardware.radio.config@1.1_genc++_headers/gen/android/hardware/radio/config/1.1/BpHwRadioConfigIndication.h"
  },
  {
   "function_name" : "android::hardware::radio::config::V1_1::BpHwRadioConfigIndication::debug",
   "linker_set_key" : "_ZN7android8hardware5radio6config4V1_125BpHwRadioConfigIndication5debugERKNS0_11hidl_handleERKNS0_8hidl_vecINS0_11hidl_stringEEE",
   "parameters" :
   [
    {
     "is_this_ptr" : true,
     "referenced_type" : "_ZTIPN7android8hardware5radio6config4V1_125BpHwRadioConfigIndicationE"
    },
    {
     "referenced_type" : "_ZTIRKN7android8hardware11hidl_handleE"
    },
    {
     "referenced_type" : "_ZTIRKN7android8hardware8hidl_vecINS0_11hidl_stringEEE"
    }
   ],
   "return_type" : "_ZTIN7android8hardware6ReturnIvEE",
   "source_file" : "/out/soong/.intermediates/hardware/interfaces/radio/config/1.1/android.hardware.radio.config@1.1_genc++_headers/gen/android/hardware/radio/config/1.1/BpHwRadioConfigIndication.h"
  },
  {
   "function_name" : "android::hardware::radio::config::V1_1::BpHwRadioConfigIndication::BpHwRadioConfigIndication",
   "linker_set_key" : "_ZN7android8hardware5radio6config4V1_125BpHwRadioConfigIndicationC1ERKNS_2spINS0_7IBinderEEE",
   "parameters" :
   [
    {
     "is_this_ptr" : true,
     "referenced_type" : "_ZTIPN7android8hardware5radio6config4V1_125BpHwRadioConfigIndicationE"
    },
    {
     "referenced_type" : "_ZTIRKN7android2spINS_8hardware7IBinderEEE"
    }
   ],
   "return_type" : "_ZTIv",
   "source_file" : "/out/soong/.intermediates/hardware/interfaces/radio/config/1.1/android.hardware.radio.config@1.1_genc++_headers/gen/android/hardware/radio/config/1.1/BpHwRadioConfigIndication.h"
  },
  {
   "function_name" : "android::hardware::radio::config::V1_1::BpHwRadioConfigIndication::BpHwRadioConfigIndication",
   "linker_set_key" : "_ZN7android8hardware5radio6config4V1_125BpHwRadioConfigIndicationC2ERKNS_2spINS0_7IBinderEEE",
   "parameters" :
   [
    {
     "is_this_ptr" : true,
     "referenced_type" : "_ZTIPN7android8hardware5radio6config4V1_125BpHwRadioConfigIndicationE"
    },
    {
     "referenced_type" : "_ZTIRKN7android2spINS_8hardware7IBinderEEE"
    }
   ],
   "return_type" : "_ZTIv",
   "source_file" : "/out/soong/.intermediates/hardware/interfaces/radio/config/1.1/android.hardware.radio.config@1.1_genc++_headers/gen/android/hardware/radio/config/1.1/BpHwRadioConfigIndication.h"
  },
  {
   "function_name" : "android::hardware::details::castInterface",
   "linker_set_key" : "_ZN7android8hardware7details13castInterfaceINS0_5radio6config4V1_112IRadioConfigENS4_4V1_012IRadioConfigENS5_15BpHwRadioConfigEEENS0_6ReturnINS_2spIT_EEEENSB_IT0_EEPKcb",
   "parameters" :
   [
    {
     "referenced_type" : "_ZTIN7android2spINS_8hardware5radio6config4V1_012IRadioConfigEEE"
    },
    {
     "referenced_type" : "_ZTIPKc"
    },
    {
     "referenced_type" : "_ZTIb"
    }
   ],
   "return_type" : "_ZTIN7android8hardware6ReturnINS_2spINS0_5radio6config4V1_112IRadioConfigEEEEE",
   "source_file" : "/system/libhidl/transport/include/hidl/HidlTransportSupport.h",
   "template_args" :
   [
    "_ZTIN7android8hardware5radio6config4V1_112IRadioConfigE",
    "_ZTIN7android8hardware5radio6config4V1_012IRadioConfigE",
    "_ZTIN7android8hardware5radio6config4V1_115BpHwRadioConfigE"
   ]
  },
  {
   "function_name" : "android::hardware::details::castInterface",
   "linker_set_key" : "_ZN7android8hardware7details13castInterfaceINS0_5radio6config4V1_112IRadioConfigENS_4hidl4base4V1_05IBaseENS5_15BpHwRadioConfigEEENS0_6ReturnINS_2spIT_EEEENSD_IT0_EEPKcb",
   "parameters" :
   [
    {
     "referenced_type" : "_ZTIN7android2spINS_4hidl4base4V1_05IBaseEEE"
    },
    {
     "referenced_type" : "_ZTIPKc"
    },
    {
     "referenced_type" : "_ZTIb"
    }
   ],
   "return_type" : "_ZTIN7android8hardware6ReturnINS_2spINS0_5radio6config4V1_112IRadioConfigEEEEE",
   "source_file" : "/system/libhidl/transport/include/hidl/HidlTransportSupport.h",
   "template_args" :
   [
    "_ZTIN7android8hardware5radio6config4V1_112IRadioConfigE",
    "_ZTIN7android4hidl4base4V1_05IBaseE",
    "_ZTIN7android8hardware5radio6config4V1_115BpHwRadioConfigE"
   ]
  },
  {
   "function_name" : "android::hardware::details::castInterface",
   "linker_set_key" : "_ZN7android8hardware7details13castInterfaceINS0_5radio6config4V1_120IRadioConfigResponseENS4_4V1_020IRadioConfigResponseENS5_23BpHwRadioConfigResponseEEENS0_6ReturnINS_2spIT_EEEENSB_IT0_EEPKcb",
   "parameters" :
   [
    {
     "referenced_type" : "_ZTIN7android2spINS_8hardware5radio6config4V1_020IRadioConfigResponseEEE"
    },
    {
     "referenced_type" : "_ZTIPKc"
    },
    {
     "referenced_type" : "_ZTIb"
    }
   ],
   "return_type" : "_ZTIN7android8hardware6ReturnINS_2spINS0_5radio6config4V1_120IRadioConfigResponseEEEEE",
   "source_file" : "/system/libhidl/transport/include/hidl/HidlTransportSupport.h",
   "template_args" :
   [
    "_ZTIN7android8hardware5radio6config4V1_120IRadioConfigResponseE",
    "_ZTIN7android8hardware5radio6config4V1_020IRadioConfigResponseE",
    "_ZTIN7android8hardware5radio6config4V1_123BpHwRadioConfigResponseE"
   ]
  },
  {
   "function_name" : "android::hardware::details::castInterface",
   "linker_set_key" : "_ZN7android8hardware7details13castInterfaceINS0_5radio6config4V1_120IRadioConfigResponseENS_4hidl4base4V1_05IBaseENS5_23BpHwRadioConfigResponseEEENS0_6ReturnINS_2spIT_EEEENSD_IT0_EEPKcb",
   "parameters" :
   [
    {
     "referenced_type" : "_ZTIN7android2spINS_4hidl4base4V1_05IBaseEEE"
    },
    {
     "referenced_type" : "_ZTIPKc"
    },
    {
     "referenced_type" : "_ZTIb"
    }
   ],
   "return_type" : "_ZTIN7android8hardware6ReturnINS_2spINS0_5radio6config4V1_120IRadioConfigResponseEEEEE",
   "source_file" : "/system/libhidl/transport/include/hidl/HidlTransportSupport.h",
   "template_args" :
   [
    "_ZTIN7android8hardware5radio6config4V1_120IRadioConfigResponseE",
    "_ZTIN7android4hidl4base4V1_05IBaseE",
    "_ZTIN7android8hardware5radio6config4V1_123BpHwRadioConfigResponseE"
   ]
  },
  {
   "function_name" : "android::hardware::details::castInterface",
   "linker_set_key" : "_ZN7android8hardware7details13castInterfaceINS0_5radio6config4V1_122IRadioConfigIndicationENS4_4V1_022IRadioConfigIndicationENS5_25BpHwRadioConfigIndicationEEENS0_6ReturnINS_2spIT_EEEENSB_IT0_EEPKcb",
   "parameters" :
   [
    {
     "referenced_type" : "_ZTIN7android2spINS_8hardware5radio6config4V1_022IRadioConfigIndicationEEE"
    },
    {
     "referenced_type" : "_ZTIPKc"
    },
    {
     "referenced_type" : "_ZTIb"
    }
   ],
   "return_type" : "_ZTIN7android8hardware6ReturnINS_2spINS0_5radio6config4V1_122IRadioConfigIndicationEEEEE",
   "source_file" : "/system/libhidl/transport/include/hidl/HidlTransportSupport.h",
   "template_args" :
   [
    "_ZTIN7android8hardware5radio6config4V1_122IRadioConfigIndicationE",
    "_ZTIN7android8hardware5radio6config4V1_022IRadioConfigIndicationE",
    "_ZTIN7android8hardware5radio6config4V1_125BpHwRadioConfigIndicationE"
   ]
  },
  {
   "function_name" : "android::hardware::details::castInterface",
   "linker_set_key" : "_ZN7android8hardware7details13castInterfaceINS0_5radio6config4V1_122IRadioConfigIndicationENS_4hidl4base4V1_05IBaseENS5_25BpHwRadioConfigIndicationEEENS0_6ReturnINS_2spIT_EEEENSD_IT0_EEPKcb",
   "parameters" :
   [
    {
     "referenced_type" : "_ZTIN7android2spINS_4hidl4base4V1_05IBaseEEE"
    },
    {
     "referenced_type" : "_ZTIPKc"
    },
    {
     "referenced_type" : "_ZTIb"
    }
   ],
   "return_type" : "_ZTIN7android8hardware6ReturnINS_2spINS0_5radio6config4V1_122IRadioConfigIndicationEEEEE",
   "source_file" : "/system/libhidl/transport/include/hidl/HidlTransportSupport.h",
   "template_args" :
   [
    "_ZTIN7android8hardware5radio6config4V1_122IRadioConfigIndicationE",
    "_ZTIN7android4hidl4base4V1_05IBaseE",
    "_ZTIN7android8hardware5radio6config4V1_125BpHwRadioConfigIndicationE"
   ]
  },
  {
   "function_name" : "android::hardware::details::wrapPassthrough",
   "linker_set_key" : "_ZN7android8hardware7details15wrapPassthroughINS0_5radio6config4V1_020IRadioConfigResponseEvEENS_2spIT_EES9_",
   "parameters" :
   [
    {
     "referenced_type" : "_ZTIN7android2spINS_8hardware5radio6config4V1_020IRadioConfigResponseEEE"
    }
   ],
   "return_type" : "_ZTIN7android2spINS_8hardware5radio6config4V1_020IRadioConfigResponseEEE",
   "source_file" : "/system/libhidl/transport/include/hidl/HidlPassthroughSupport.h",
   "template_args" :
   [
    "_ZTIN7android8hardware5radio6config4V1_020IRadioConfigResponseE",
    "_ZTIv"
   ]
  },
  {
   "function_name" : "android::hardware::details::wrapPassthrough",
   "linker_set_key" : "_ZN7android8hardware7details15wrapPassthroughINS0_5radio6config4V1_022IRadioConfigIndicationEvEENS_2spIT_EES9_",
   "parameters" :
   [
    {
     "referenced_type" : "_ZTIN7android2spINS_8hardware5radio6config4V1_022IRadioConfigIndicationEEE"
    }
   ],
   "return_type" : "_ZTIN7android2spINS_8hardware5radio6config4V1_022IRadioConfigIndicationEEE",
   "source_file" : "/system/libhidl/transport/include/hidl/HidlPassthroughSupport.h",
   "template_args" :
   [
    "_ZTIN7android8hardware5radio6config4V1_022IRadioConfigIndicationE",
    "_ZTIv"
   ]
  },
  {
   "function_name" : "android::hardware::details::getServiceInternal",
   "linker_set_key" : "_ZN7android8hardware7details18getServiceInternalINS0_5radio6config4V1_115BpHwRadioConfigENS5_12IRadioConfigEvvEENS_2spIT0_EERKNSt3__112basic_stringIcNSB_11char_traitsIcEENSB_9allocatorIcEEEEbb",
   "parameters" :
   [
    {
     "referenced_type" : "_ZTIRKNSt3__112basic_stringIcNS_11char_traitsIcEENS_9allocatorIcEEEE"
    },
    {
     "referenced_type" : "_ZTIb"
    },
    {
     "referenced_type" : "_ZTIb"
    }
   ],
   "return_type" : "_ZTIN7android2spINS_8hardware5radio6config4V1_112IRadioConfigEEE",
   "source_file" : "/system/libhidl/transport/include/hidl/HidlTransportSupport.h",
   "template_args" :
   [
    "_ZTIN7android8hardware5radio6config4V1_115BpHwRadioConfigE",
    "_ZTIN7android8hardware5radio6config4V1_112IRadioConfigE",
    "_ZTIv",
    "_ZTIv"
   ]
  },
  {
   "function_name" : "android::hardware::details::getServiceInternal",
   "linker_set_key" : "_ZN7android8hardware7details18getServiceInternalINS0_5radio6config4V1_123BpHwRadioConfigResponseENS5_20IRadioConfigResponseEvvEENS_2spIT0_EERKNSt3__112basic_stringIcNSB_11char_traitsIcEENSB_9allocatorIcEEEEbb",
   "parameters" :
   [
    {
     "referenced_type" : "_ZTIRKNSt3__112basic_stringIcNS_11char_traitsIcEENS_9allocatorIcEEEE"
    },
    {
     "referenced_type" : "_ZTIb"
    },
    {
     "referenced_type" : "_ZTIb"
    }
   ],
   "return_type" : "_ZTIN7android2spINS_8hardware5radio6config4V1_120IRadioConfigResponseEEE",
   "source_file" : "/system/libhidl/transport/include/hidl/HidlTransportSupport.h",
   "template_args" :
   [
    "_ZTIN7android8hardware5radio6config4V1_123BpHwRadioConfigResponseE",
    "_ZTIN7android8hardware5radio6config4V1_120IRadioConfigResponseE",
    "_ZTIv",
    "_ZTIv"
   ]
  },
  {
   "function_name" : "android::hardware::details::getServiceInternal",
   "linker_set_key" : "_ZN7android8hardware7details18getServiceInternalINS0_5radio6config4V1_125BpHwRadioConfigIndicationENS5_22IRadioConfigIndicationEvvEENS_2spIT0_EERKNSt3__112basic_stringIcNSB_11char_traitsIcEENSB_9allocatorIcEEEEbb",
   "parameters" :
   [
    {
     "referenced_type" : "_ZTIRKNSt3__112basic_stringIcNS_11char_traitsIcEENS_9allocatorIcEEEE"
    },
    {
     "referenced_type" : "_ZTIb"
    },
    {
     "referenced_type" : "_ZTIb"
    }
   ],
   "return_type" : "_ZTIN7android2spINS_8hardware5radio6config4V1_122IRadioConfigIndicationEEE",
   "source_file" : "/system/libhidl/transport/include/hidl/HidlTransportSupport.h",
   "template_args" :
   [
    "_ZTIN7android8hardware5radio6config4V1_125BpHwRadioConfigIndicationE",
    "_ZTIN7android8hardware5radio6config4V1_122IRadioConfigIndicationE",
    "_ZTIv",
    "_ZTIv"
   ]
  },
  {
   "function_name" : "android::hardware::radio::config::V1_1::BpHwRadioConfig::onLastStrongRef",
   "linker_set_key" : "_ZThn8_N7android8hardware5radio6config4V1_115BpHwRadioConfig15onLastStrongRefEPKv",
   "parameters" :
   [
    {
     "is_this_ptr" : true,
     "referenced_type" : "_ZTIPN7android8hardware5radio6config4V1_115BpHwRadioConfigE"
    },
    {
     "referenced_type" : "_ZTIPKv"
    }
   ],
   "return_type" : "_ZTIv",
   "source_file" : "/out/soong/.intermediates/hardware/interfaces/radio/config/1.1/android.hardware.radio.config@1.1_genc++_headers/gen/android/hardware/radio/config/1.1/BpHwRadioConfig.h"
  },
  {
   "function_name" : "android::hardware::radio::config::V1_1::BpHwRadioConfigResponse::onLastStrongRef",
   "linker_set_key" : "_ZThn8_N7android8hardware5radio6config4V1_123BpHwRadioConfigResponse15onLastStrongRefEPKv",
   "parameters" :
   [
    {
     "is_this_ptr" : true,
     "referenced_type" : "_ZTIPN7android8hardware5radio6config4V1_123BpHwRadioConfigResponseE"
    },
    {
     "referenced_type" : "_ZTIPKv"
    }
   ],
   "return_type" : "_ZTIv",
   "source_file" : "/out/soong/.intermediates/hardware/interfaces/radio/config/1.1/android.hardware.radio.config@1.1_genc++_headers/gen/android/hardware/radio/config/1.1/BpHwRadioConfigResponse.h"
  },
  {
   "function_name" : "android::hardware::radio::config::V1_1::BpHwRadioConfigIndication::onLastStrongRef",
   "linker_set_key" : "_ZThn8_N7android8hardware5radio6config4V1_125BpHwRadioConfigIndication15onLastStrongRefEPKv",
   "parameters" :
   [
    {
     "is_this_ptr" : true,
     "referenced_type" : "_ZTIPN7android8hardware5radio6config4V1_125BpHwRadioConfigIndicationE"
    },
    {
     "referenced_type" : "_ZTIPKv"
    }
   ],
   "return_type" : "_ZTIv",
   "source_file" : "/out/soong/.intermediates/hardware/interfaces/radio/config/1.1/android.hardware.radio.config@1.1_genc++_headers/gen/android/hardware/radio/config/1.1/BpHwRadioConfigIndication.h"
  },
  {
   "function_name" : "android::hardware::radio::config::V1_1::BpHwRadioConfig::onLastStrongRef",
   "linker_set_key" : "_ZTv0_n20_N7android8hardware5radio6config4V1_115BpHwRadioConfig15onLastStrongRefEPKv",
   "parameters" :
   [
    {
     "is_this_ptr" : true,
     "referenced_type" : "_ZTIPN7android8hardware5radio6config4V1_115BpHwRadioConfigE"
    },
    {
     "referenced_type" : "_ZTIPKv"
    }
   ],
   "return_type" : "_ZTIv",
   "source_file" : "/out/soong/.intermediates/hardware/interfaces/radio/config/1.1/android.hardware.radio.config@1.1_genc++_headers/gen/android/hardware/radio/config/1.1/BpHwRadioConfig.h"
  },
  {
   "function_name" : "android::hardware::radio::config::V1_1::BpHwRadioConfigResponse::onLastStrongRef",
   "linker_set_key" : "_ZTv0_n20_N7android8hardware5radio6config4V1_123BpHwRadioConfigResponse15onLastStrongRefEPKv",
   "parameters" :
   [
    {
     "is_this_ptr" : true,
     "referenced_type" : "_ZTIPN7android8hardware5radio6config4V1_123BpHwRadioConfigResponseE"
    },
    {
     "referenced_type" : "_ZTIPKv"
    }
   ],
   "return_type" : "_ZTIv",
   "source_file" : "/out/soong/.intermediates/hardware/interfaces/radio/config/1.1/android.hardware.radio.config@1.1_genc++_headers/gen/android/hardware/radio/config/1.1/BpHwRadioConfigResponse.h"
  },
  {
   "function_name" : "android::hardware::radio::config::V1_1::BpHwRadioConfigIndication::onLastStrongRef",
   "linker_set_key" : "_ZTv0_n20_N7android8hardware5radio6config4V1_125BpHwRadioConfigIndication15onLastStrongRefEPKv",
   "parameters" :
   [
    {
     "is_this_ptr" : true,
     "referenced_type" : "_ZTIPN7android8hardware5radio6config4V1_125BpHwRadioConfigIndicationE"
    },
    {
     "referenced_type" : "_ZTIPKv"
    }
   ],
   "return_type" : "_ZTIv",
   "source_file" : "/out/soong/.intermediates/hardware/interfaces/radio/config/1.1/android.hardware.radio.config@1.1_genc++_headers/gen/android/hardware/radio/config/1.1/BpHwRadioConfigIndication.h"
  }
 ],
 "global_vars" :
 [
  {
   "linker_set_key" : "_ZN7android8hardware5radio6config4V1_112IRadioConfig10descriptorE",
   "name" : "android::hardware::radio::config::V1_1::IRadioConfig::descriptor",
   "referenced_type" : "_ZTIPKc",
   "source_file" : "/out/soong/.intermediates/hardware/interfaces/radio/config/1.1/android.hardware.radio.config@1.1_genc++_headers/gen/android/hardware/radio/config/1.1/IRadioConfig.h"
  },
  {
   "linker_set_key" : "_ZN7android8hardware5radio6config4V1_120IRadioConfigResponse10descriptorE",
   "name" : "android::hardware::radio::config::V1_1::IRadioConfigResponse::descriptor",
   "referenced_type" : "_ZTIPKc",
   "source_file" : "/out/soong/.intermediates/hardware/interfaces/radio/config/1.1/android.hardware.radio.config@1.1_genc++_headers/gen/android/hardware/radio/config/1.1/IRadioConfigResponse.h"
  },
  {
   "linker_set_key" : "_ZN7android8hardware5radio6config4V1_122IRadioConfigIndication10descriptorE",
   "name" : "android::hardware::radio::config::V1_1::IRadioConfigIndication::descriptor",
   "referenced_type" : "_ZTIPKc",
   "source_file" : "/out/soong/.intermediates/hardware/interfaces/radio/config/1.1/android.hardware.radio.config@1.1_genc++_headers/gen/android/hardware/radio/config/1.1/IRadioConfigIndication.h"
  }
 ],
 "lvalue_reference_types" :
 [
  {
   "alignment" : 4,
   "linker_set_key" : "_ZTIRK7log_msg",
   "name" : "const log_msg &",
   "referenced_type" : "_ZTIK7log_msg",
   "self_type" : "_ZTIRK7log_msg",
   "size" : 4,
   "source_file" : "/system/core/liblog/include/log/log_read.h"
  },
  {
   "alignment" : 4,
   "linker_set_key" : "_ZTIRKN7android2spINS_4hidl4base4V1_05IBaseEEE",
   "name" : "const android::sp<android::hidl::base::V1_0::IBase> &",
   "referenced_type" : "_ZTIKN7android2spINS_4hidl4base4V1_05IBaseEEE",
   "self_type" : "_ZTIRKN7android2spINS_4hidl4base4V1_05IBaseEEE",
   "size" : 4,
   "source_file" : "/system/core/libutils/include/utils/StrongPointer.h"
  },
  {
   "alignment" : 4,
   "linker_set_key" : "_ZTIRKN7android2spINS_4hidl7manager4V1_020IServiceNotificationEEE",
   "name" : "const android::sp<android::hidl::manager::V1_0::IServiceNotification> &",
   "referenced_type" : "_ZTIKN7android2spINS_4hidl7manager4V1_020IServiceNotificationEEE",
   "self_type" : "_ZTIRKN7android2spINS_4hidl7manager4V1_020IServiceNotificationEEE",
   "size" : 4,
   "source_file" : "/out/soong/.intermediates/hardware/interfaces/radio/config/1.1/android.hardware.radio.config@1.1_genc++_headers/gen/android/hardware/radio/config/1.1/IRadioConfig.h"
  },
  {
   "alignment" : 4,
   "linker_set_key" : "_ZTIRKN7android2spINS_8hardware20hidl_death_recipientEEE",
   "name" : "const android::sp<android::hardware::hidl_death_recipient> &",
   "referenced_type" : "_ZTIKN7android2spINS_8hardware20hidl_death_recipientEEE",
   "self_type" : "_ZTIRKN7android2spINS_8hardware20hidl_death_recipientEEE",
   "size" : 4,
   "source_file" : "/system/core/libutils/include/utils/RefBase.h"
  },
  {
   "alignment" : 4,
   "linker_set_key" : "_ZTIRKN7android2spINS_8hardware27hidl_binder_death_recipientEEE",
   "name" : "const android::sp<android::hardware::hidl_binder_death_recipient> &",
   "referenced_type" : "_ZTIKN7android2spINS_8hardware27hidl_binder_death_recipientEEE",
   "self_type" : "_ZTIRKN7android2spINS_8hardware27hidl_binder_death_recipientEEE",
   "size" : 4,
   "source_file" : "/system/core/libutils/include/utils/RefBase.h"
  },
  {
   "alignment" : 4,
   "linker_set_key" : "_ZTIRKN7android2spINS_8hardware5radio6config4V1_012IRadioConfigEEE",
   "name" : "const android::sp<android::hardware::radio::config::V1_0::IRadioConfig> &",
   "referenced_type" : "_ZTIKN7android2spINS_8hardware5radio6config4V1_012IRadioConfigEEE",
   "self_type" : "_ZTIRKN7android2spINS_8hardware5radio6config4V1_012IRadioConfigEEE",
   "size" : 4,
   "source_file" : "/system/core/libutils/include/utils/StrongPointer.h"
  },
  {
   "alignment" : 4,
   "linker_set_key" : "_ZTIRKN7android2spINS_8hardware5radio6config4V1_020IRadioConfigResponseEEE",
   "name" : "const android::sp<android::hardware::radio::config::V1_0::IRadioConfigResponse> &",
   "referenced_type" : "_ZTIKN7android2spINS_8hardware5radio6config4V1_020IRadioConfigResponseEEE",
   "self_type" : "_ZTIRKN7android2spINS_8hardware5radio6config4V1_020IRadioConfigResponseEEE",
   "size" : 4,
   "source_file" : "/system/core/libutils/include/utils/StrongPointer.h"
  },
  {
   "alignment" : 4,
   "linker_set_key" : "_ZTIRKN7android2spINS_8hardware5radio6config4V1_022IRadioConfigIndicationEEE",
   "name" : "const android::sp<android::hardware::radio::config::V1_0::IRadioConfigIndication> &",
   "referenced_type" : "_ZTIKN7android2spINS_8hardware5radio6config4V1_022IRadioConfigIndicationEEE",
   "self_type" : "_ZTIRKN7android2spINS_8hardware5radio6config4V1_022IRadioConfigIndicationEEE",
   "size" : 4,
   "source_file" : "/system/core/libutils/include/utils/StrongPointer.h"
  },
  {
   "alignment" : 4,
   "linker_set_key" : "_ZTIRKN7android2spINS_8hardware5radio6config4V1_112IRadioConfigEEE",
   "name" : "const android::sp<android::hardware::radio::config::V1_1::IRadioConfig> &",
   "referenced_type" : "_ZTIKN7android2spINS_8hardware5radio6config4V1_112IRadioConfigEEE",
   "self_type" : "_ZTIRKN7android2spINS_8hardware5radio6config4V1_112IRadioConfigEEE",
   "size" : 4,
   "source_file" : "/system/core/libutils/include/utils/StrongPointer.h"
  },
  {
   "alignment" : 4,
   "linker_set_key" : "_ZTIRKN7android2spINS_8hardware5radio6config4V1_120IRadioConfigResponseEEE",
   "name" : "const android::sp<android::hardware::radio::config::V1_1::IRadioConfigResponse> &",
   "referenced_type" : "_ZTIKN7android2spINS_8hardware5radio6config4V1_120IRadioConfigResponseEEE",
   "self_type" : "_ZTIRKN7android2spINS_8hardware5radio6config4V1_120IRadioConfigResponseEEE",
   "size" : 4,
   "source_file" : "/system/core/libutils/include/utils/StrongPointer.h"
  },
  {
   "alignment" : 4,
   "linker_set_key" : "_ZTIRKN7android2spINS_8hardware5radio6config4V1_122IRadioConfigIndicationEEE",
   "name" : "const android::sp<android::hardware::radio::config::V1_1::IRadioConfigIndication> &",
   "referenced_type" : "_ZTIKN7android2spINS_8hardware5radio6config4V1_122IRadioConfigIndicationEEE",
   "self_type" : "_ZTIRKN7android2spINS_8hardware5radio6config4V1_122IRadioConfigIndicationEEE",
   "size" : 4,
   "source_file" : "/system/core/libutils/include/utils/StrongPointer.h"
  },
  {
   "alignment" : 4,
   "linker_set_key" : "_ZTIRKN7android2spINS_8hardware7IBinderEEE",
   "name" : "const android::sp<android::hardware::IBinder> &",
   "referenced_type" : "_ZTIKN7android2spINS_8hardware7IBinderEEE",
   "self_type" : "_ZTIRKN7android2spINS_8hardware7IBinderEEE",
   "size" : 4,
   "source_file" : "/system/libhwbinder/include/hwbinder/IInterface.h"
  },
  {
   "alignment" : 4,
   "linker_set_key" : "_ZTIRKN7android2wpINS_8hardware9BHwBinderEEE",
   "name" : "const android::wp<android::hardware::BHwBinder> &",
   "referenced_type" : "_ZTIKN7android2wpINS_8hardware9BHwBinderEEE",
   "self_type" : "_ZTIRKN7android2wpINS_8hardware9BHwBinderEEE",
   "size" : 4,
   "source_file" : "/system/core/libutils/include/utils/RefBase.h"
  },
  {
   "alignment" : 4,
   "linker_set_key" : "_ZTIRKN7android7String8E",
   "name" : "const android::String8 &",
   "referenced_type" : "_ZTIKN7android7String8E",
   "self_type" : "_ZTIRKN7android7String8E",
   "size" : 4,
   "source_file" : "/system/core/libutils/include/utils/String8.h"
  },
  {
   "alignment" : 4,
   "linker_set_key" : "_ZTIRKN7android8String16E",
   "name" : "const android::String16 &",
   "referenced_type" : "_ZTIKN7android8String16E",
   "self_type" : "_ZTIRKN7android8String16E",
   "size" : 4,
   "source_file" : "/system/core/libutils/include/utils/String16.h"
  },
  {
   "alignment" : 4,
   "linker_set_key" : "_ZTIRKN7android8hardware10hidl_arrayIhLj32EJEEE",
   "name" : "const android::hardware::hidl_array<unsigned char, 32> &",
   "referenced_type" : "_ZTIKN7android8hardware10hidl_arrayIhLj32EJEEE",
   "self_type" : "_ZTIRKN7android8hardware10hidl_arrayIhLj32EJEEE",
   "size" : 4,
   "source_file" : "/system/libhidl/base/include/hidl/HidlSupport.h"
  },
  {
   "alignment" : 4,
   "linker_set_key" : "_ZTIRKN7android8hardware10hidl_arrayIjLj5EJEEE",
   "name" : "const android::hardware::hidl_array<unsigned int, 5> &",
   "referenced_type" : "_ZTIKN7android8hardware10hidl_arrayIjLj5EJEEE",
   "self_type" : "_ZTIRKN7android8hardware10hidl_arrayIjLj5EJEEE",
   "size" : 4,
   "source_file" : "/system/libhidl/base/include/hidl/HidlSupport.h"
  },
  {
   "alignment" : 4,
   "linker_set_key" : "_ZTIRKN7android8hardware11hidl_handleE",
   "name" : "const android::hardware::hidl_handle &",
   "referenced_type" : "_ZTIKN7android8hardware11hidl_handleE",
   "self_type" : "_ZTIRKN7android8hardware11hidl_handleE",
   "size" : 4,
   "source_file" : "/system/libhidl/base/include/hidl/HidlSupport.h"
  },
  {
   "alignment" : 4,
   "linker_set_key" : "_ZTIRKN7android8hardware11hidl_memoryE",
   "name" : "const android::hardware::hidl_memory &",
   "referenced_type" : "_ZTIKN7android8hardware11hidl_memoryE",
   "self_type" : "_ZTIRKN7android8hardware11hidl_memoryE",
   "size" : 4,
   "source_file" : "/system/libhidl/base/include/hidl/HidlSupport.h"
  },
  {
   "alignment" : 4,
   "linker_set_key" : "_ZTIRKN7android8hardware11hidl_stringE",
   "name" : "const android::hardware::hidl_string &",
   "referenced_type" : "_ZTIKN7android8hardware11hidl_stringE",
   "self_type" : "_ZTIRKN7android8hardware11hidl_stringE",
   "size" : 4,
   "source_file" : "/system/libhidl/base/include/hidl/HidlSupport.h"
  },
  {
   "alignment" : 4,
   "linker_set_key" : "_ZTIRKN7android8hardware12hidl_versionE",
   "name" : "const android::hardware::hidl_version &",
   "referenced_type" : "_ZTIKN7android8hardware12hidl_versionE",
   "self_type" : "_ZTIRKN7android8hardware12hidl_versionE",
   "size" : 4,
   "source_file" : "/system/libhidl/base/include/hidl/HidlSupport.h"
  },
  {
   "alignment" : 4,
   "linker_set_key" : "_ZTIRKN7android8hardware5radio4V1_010SsInfoDataE",
   "name" : "const android::hardware::radio::V1_0::SsInfoData &",
   "referenced_type" : "_ZTIKN7android8hardware5radio4V1_010SsInfoDataE",
   "self_type" : "_ZTIRKN7android8hardware5radio4V1_010SsInfoDataE",
   "size" : 4,
   "source_file" : "/system/libhidl/base/include/hidl/HidlInternal.h"
  },
  {
   "alignment" : 4,
   "linker_set_key" : "_ZTIRKN7android8hardware5radio4V1_011CellInfoGsmE",
   "name" : "const android::hardware::radio::V1_0::CellInfoGsm &",
   "referenced_type" : "_ZTIKN7android8hardware5radio4V1_011CellInfoGsmE",
   "self_type" : "_ZTIRKN7android8hardware5radio4V1_011CellInfoGsmE",
   "size" : 4,
   "source_file" : "/system/libhidl/base/include/hidl/HidlInternal.h"
  },
  {
   "alignment" : 4,
   "linker_set_key" : "_ZTIRKN7android8hardware5radio4V1_011CellInfoLteE",
   "name" : "const android::hardware::radio::V1_0::CellInfoLte &",
   "referenced_type" : "_ZTIKN7android8hardware5radio4V1_011CellInfoLteE",
   "self_type" : "_ZTIRKN7android8hardware5radio4V1_011CellInfoLteE",
   "size" : 4,
   "source_file" : "/system/libhidl/base/include/hidl/HidlInternal.h"
  },
  {
   "alignment" : 4,
   "linker_set_key" : "_ZTIRKN7android8hardware5radio4V1_012CellInfoCdmaE",
   "name" : "const android::hardware::radio::V1_0::CellInfoCdma &",
   "referenced_type" : "_ZTIKN7android8hardware5radio4V1_012CellInfoCdmaE",
   "self_type" : "_ZTIRKN7android8hardware5radio4V1_012CellInfoCdmaE",
   "size" : 4,
   "source_file" : "/system/libhidl/base/include/hidl/HidlInternal.h"
  },
  {
   "alignment" : 4,
   "linker_set_key" : "_ZTIRKN7android8hardware5radio4V1_013CellInfoWcdmaE",
   "name" : "const android::hardware::radio::V1_0::CellInfoWcdma &",
   "referenced_type" : "_ZTIKN7android8hardware5radio4V1_013CellInfoWcdmaE",
   "self_type" : "_ZTIRKN7android8hardware5radio4V1_013CellInfoWcdmaE",
   "size" : 4,
   "source_file" : "/system/libhidl/base/include/hidl/HidlInternal.h"
  },
  {
   "alignment" : 4,
   "linker_set_key" : "_ZTIRKN7android8hardware5radio4V1_013GsmSmsMessageE",
   "name" : "const android::hardware::radio::V1_0::GsmSmsMessage &",
   "referenced_type" : "_ZTIKN7android8hardware5radio4V1_013GsmSmsMessageE",
   "self_type" : "_ZTIRKN7android8hardware5radio4V1_013GsmSmsMessageE",
   "size" : 4,
   "source_file" : "/system/libhidl/base/include/hidl/HidlInternal.h"
  },
  {
   "alignment" : 4,
   "linker_set_key" : "_ZTIRKN7android8hardware5radio4V1_014CdmaSmsMessageE",
   "name" : "const android::hardware::radio::V1_0::CdmaSmsMessage &",
   "referenced_type" : "_ZTIKN7android8hardware5radio4V1_014CdmaSmsMessageE",
   "self_type" : "_ZTIRKN7android8hardware5radio4V1_014CdmaSmsMessageE",
   "size" : 4,
   "source_file" : "/system/libhidl/base/include/hidl/HidlInternal.h"
  },
  {
   "alignment" : 4,
   "linker_set_key" : "_ZTIRKN7android8hardware5radio4V1_015CallForwardInfoE",
   "name" : "const android::hardware::radio::V1_0::CallForwardInfo &",
   "referenced_type" : "_ZTIKN7android8hardware5radio4V1_015CallForwardInfoE",
   "self_type" : "_ZTIRKN7android8hardware5radio4V1_015CallForwardInfoE",
   "size" : 4,
   "source_file" : "/system/libhidl/base/include/hidl/HidlInternal.h"
  },
  {
   "alignment" : 4,
   "linker_set_key" : "_ZTIRKN7android8hardware5radio4V1_015CellIdentityGsmE",
   "name" : "const android::hardware::radio::V1_0::CellIdentityGsm &",
   "referenced_type" : "_ZTIKN7android8hardware5radio4V1_015CellIdentityGsmE",
   "self_type" : "_ZTIRKN7android8hardware5radio4V1_015CellIdentityGsmE",
   "size" : 4,
   "source_file" : "/system/libhidl/base/include/hidl/HidlInternal.h"
  },
  {
   "alignment" : 4,
   "linker_set_key" : "_ZTIRKN7android8hardware5radio4V1_015CellIdentityLteE",
   "name" : "const android::hardware::radio::V1_0::CellIdentityLte &",
   "referenced_type" : "_ZTIKN7android8hardware5radio4V1_015CellIdentityLteE",
   "self_type" : "_ZTIRKN7android8hardware5radio4V1_015CellIdentityLteE",
   "size" : 4,
   "source_file" : "/system/libhidl/base/include/hidl/HidlInternal.h"
  },
  {
   "alignment" : 4,
   "linker_set_key" : "_ZTIRKN7android8hardware5radio4V1_015CellInfoTdscdmaE",
   "name" : "const android::hardware::radio::V1_0::CellInfoTdscdma &",
   "referenced_type" : "_ZTIKN7android8hardware5radio4V1_015CellInfoTdscdmaE",
   "self_type" : "_ZTIRKN7android8hardware5radio4V1_015CellInfoTdscdmaE",
   "size" : 4,
   "source_file" : "/system/libhidl/base/include/hidl/HidlInternal.h"
  },
  {
   "alignment" : 4,
   "linker_set_key" : "_ZTIRKN7android8hardware5radio4V1_016CellIdentityCdmaE",
   "name" : "const android::hardware::radio::V1_0::CellIdentityCdma &",
   "referenced_type" : "_ZTIKN7android8hardware5radio4V1_016CellIdentityCdmaE",
   "self_type" : "_ZTIRKN7android8hardware5radio4V1_016CellIdentityCdmaE",
   "size" : 4,
   "source_file" : "/system/libhidl/base/include/hidl/HidlInternal.h"
  },
  {
   "alignment" : 4,
   "linker_set_key" : "_ZTIRKN7android8hardware5radio4V1_017CellIdentityWcdmaE",
   "name" : "const android::hardware::radio::V1_0::CellIdentityWcdma &",
   "referenced_type" : "_ZTIKN7android8hardware5radio4V1_017CellIdentityWcdmaE",
   "self_type" : "_ZTIRKN7android8hardware5radio4V1_017CellIdentityWcdmaE",
   "size" : 4,
   "source_file" : "/system/libhidl/base/include/hidl/HidlInternal.h"
  },
  {
   "alignment" : 4,
   "linker_set_key" : "_ZTIRKN7android8hardware5radio4V1_017HardwareConfigSimE",
   "name" : "const android::hardware::radio::V1_0::HardwareConfigSim &",
   "referenced_type" : "_ZTIKN7android8hardware5radio4V1_017HardwareConfigSimE",
   "self_type" : "_ZTIRKN7android8hardware5radio4V1_017HardwareConfigSimE",
   "size" : 4,
   "source_file" : "/system/libhidl/base/include/hidl/HidlInternal.h"
  },
  {
   "alignment" : 4,
   "linker_set_key" : "_ZTIRKN7android8hardware5radio4V1_017RadioResponseInfoE",
   "name" : "const android::hardware::radio::V1_0::RadioResponseInfo &",
   "referenced_type" : "_ZTIKN7android8hardware5radio4V1_017RadioResponseInfoE",
   "self_type" : "_ZTIRKN7android8hardware5radio4V1_017RadioResponseInfoE",
   "size" : 4,
   "source_file" : "/out/soong/.intermediates/hardware/interfaces/radio/config/1.1/android.hardware.radio.config@1.1_genc++_headers/gen/android/hardware/radio/config/1.1/BpHwRadioConfigResponse.h"
  },
  {
   "alignment" : 4,
   "linker_set_key" : "_ZTIRKN7android8hardware5radio4V1_019CellIdentityTdscdmaE",
   "name" : "const android::hardware::radio::V1_0::CellIdentityTdscdma &",
   "referenced_type" : "_ZTIKN7android8hardware5radio4V1_019CellIdentityTdscdmaE",
   "self_type" : "_ZTIRKN7android8hardware5radio4V1_019CellIdentityTdscdmaE",
   "size" : 4,
   "source_file" : "/system/libhidl/base/include/hidl/HidlInternal.h"
  },
  {
   "alignment" : 4,
   "linker_set_key" : "_ZTIRKN7android8hardware5radio4V1_019HardwareConfigModemE",
   "name" : "const android::hardware::radio::V1_0::HardwareConfigModem &",
   "referenced_type" : "_ZTIKN7android8hardware5radio4V1_019HardwareConfigModemE",
   "self_type" : "_ZTIRKN7android8hardware5radio4V1_019HardwareConfigModemE",
   "size" : 4,
   "source_file" : "/system/libhidl/base/include/hidl/HidlInternal.h"
  },
  {
   "alignment" : 4,
   "linker_set_key" : "_ZTIRKN7android8hardware5radio4V1_020CdmaNumberInfoRecordE",
   "name" : "const android::hardware::radio::V1_0::CdmaNumberInfoRecord &",
   "referenced_type" : "_ZTIKN7android8hardware5radio4V1_020CdmaNumberInfoRecordE",
   "self_type" : "_ZTIRKN7android8hardware5radio4V1_020CdmaNumberInfoRecordE",
   "size" : 4,
   "source_file" : "/system/libhidl/base/include/hidl/HidlInternal.h"
  },
  {
   "alignment" : 4,
   "linker_set_key" : "_ZTIRKN7android8hardware5radio4V1_020CdmaSignalInfoRecordE",
   "name" : "const android::hardware::radio::V1_0::CdmaSignalInfoRecord &",
   "referenced_type" : "_ZTIKN7android8hardware5radio4V1_020CdmaSignalInfoRecordE",
   "self_type" : "_ZTIRKN7android8hardware5radio4V1_020CdmaSignalInfoRecordE",
   "size" : 4,
   "source_file" : "/system/libhidl/base/include/hidl/HidlInternal.h"
  },
  {
   "alignment" : 4,
   "linker_set_key" : "_ZTIRKN7android8hardware5radio4V1_021CdmaDisplayInfoRecordE",
   "name" : "const android::hardware::radio::V1_0::CdmaDisplayInfoRecord &",
   "referenced_type" : "_ZTIKN7android8hardware5radio4V1_021CdmaDisplayInfoRecordE",
   "self_type" : "_ZTIRKN7android8hardware5radio4V1_021CdmaDisplayInfoRecordE",
   "size" : 4,
   "source_file" : "/system/libhidl/base/include/hidl/HidlInternal.h"
  },
  {
   "alignment" : 4,
   "linker_set_key" : "_ZTIRKN7android8hardware5radio4V1_021CdmaInformationRecordE",
   "name" : "const android::hardware::radio::V1_0::CdmaInformationRecord &",
   "referenced_type" : "_ZTIKN7android8hardware5radio4V1_021CdmaInformationRecordE",
   "self_type" : "_ZTIRKN7android8hardware5radio4V1_021CdmaInformationRecordE",
   "size" : 4,
   "source_file" : "/system/libhidl/base/include/hidl/HidlInternal.h"
  },
  {
   "alignment" : 4,
   "linker_set_key" : "_ZTIRKN7android8hardware5radio4V1_021CdmaT53ClirInfoRecordE",
   "name" : "const android::hardware::radio::V1_0::CdmaT53ClirInfoRecord &",
   "referenced_type" : "_ZTIKN7android8hardware5radio4V1_021CdmaT53ClirInfoRecordE",
   "self_type" : "_ZTIRKN7android8hardware5radio4V1_021CdmaT53ClirInfoRecordE",
   "size" : 4,
   "source_file" : "/system/libhidl/base/include/hidl/HidlInternal.h"
  },
  {
   "alignment" : 4,
   "linker_set_key" : "_ZTIRKN7android8hardware5radio4V1_025CdmaLineControlInfoRecordE",
   "name" : "const android::hardware::radio::V1_0::CdmaLineControlInfoRecord &",
   "referenced_type" : "_ZTIKN7android8hardware5radio4V1_025CdmaLineControlInfoRecordE",
   "self_type" : "_ZTIRKN7android8hardware5radio4V1_025CdmaLineControlInfoRecordE",
   "size" : 4,
   "source_file" : "/system/libhidl/base/include/hidl/HidlInternal.h"
  },
  {
   "alignment" : 4,
   "linker_set_key" : "_ZTIRKN7android8hardware5radio4V1_029CdmaT53AudioControlInfoRecordE",
   "name" : "const android::hardware::radio::V1_0::CdmaT53AudioControlInfoRecord &",
   "referenced_type" : "_ZTIKN7android8hardware5radio4V1_029CdmaT53AudioControlInfoRecordE",
   "self_type" : "_ZTIRKN7android8hardware5radio4V1_029CdmaT53AudioControlInfoRecordE",
   "size" : 4,
   "source_file" : "/system/libhidl/base/include/hidl/HidlInternal.h"
  },
  {
   "alignment" : 4,
   "linker_set_key" : "_ZTIRKN7android8hardware5radio4V1_031CdmaRedirectingNumberInfoRecordE",
   "name" : "const android::hardware::radio::V1_0::CdmaRedirectingNumberInfoRecord &",
   "referenced_type" : "_ZTIKN7android8hardware5radio4V1_031CdmaRedirectingNumberInfoRecordE",
   "self_type" : "_ZTIRKN7android8hardware5radio4V1_031CdmaRedirectingNumberInfoRecordE",
   "size" : 4,
   "source_file" : "/system/libhidl/base/include/hidl/HidlInternal.h"
  },
  {
   "alignment" : 4,
   "linker_set_key" : "_ZTIRKN7android8hardware5radio4V1_06CfDataE",
   "name" : "const android::hardware::radio::V1_0::CfData &",
   "referenced_type" : "_ZTIKN7android8hardware5radio4V1_06CfDataE",
   "self_type" : "_ZTIRKN7android8hardware5radio4V1_06CfDataE",
   "size" : 4,
   "source_file" : "/system/libhidl/base/include/hidl/HidlInternal.h"
  },
  {
   "alignment" : 4,
   "linker_set_key" : "_ZTIRKN7android8hardware5radio4V1_07CarrierE",
   "name" : "const android::hardware::radio::V1_0::Carrier &",
   "referenced_type" : "_ZTIKN7android8hardware5radio4V1_07CarrierE",
   "self_type" : "_ZTIRKN7android8hardware5radio4V1_07CarrierE",
   "size" : 4,
   "source_file" : "/system/libhidl/base/include/hidl/HidlInternal.h"
  },
  {
   "alignment" : 4,
   "linker_set_key" : "_ZTIRKN7android8hardware5radio4V1_07UusInfoE",
   "name" : "const android::hardware::radio::V1_0::UusInfo &",
   "referenced_type" : "_ZTIKN7android8hardware5radio4V1_07UusInfoE",
   "self_type" : "_ZTIRKN7android8hardware5radio4V1_07UusInfoE",
   "size" : 4,
   "source_file" : "/system/libhidl/base/include/hidl/HidlInternal.h"
  },
  {
   "alignment" : 4,
   "linker_set_key" : "_ZTIRKN7android8hardware5radio4V1_09AppStatusE",
   "name" : "const android::hardware::radio::V1_0::AppStatus &",
   "referenced_type" : "_ZTIKN7android8hardware5radio4V1_09AppStatusE",
   "self_type" : "_ZTIRKN7android8hardware5radio4V1_09AppStatusE",
   "size" : 4,
   "source_file" : "/system/libhidl/base/include/hidl/HidlInternal.h"
  },
  {
   "alignment" : 4,
   "linker_set_key" : "_ZTIRKN7android8hardware5radio6config4V1_013SimSlotStatusE",
   "name" : "const android::hardware::radio::config::V1_0::SimSlotStatus &",
   "referenced_type" : "_ZTIKN7android8hardware5radio6config4V1_013SimSlotStatusE",
   "self_type" : "_ZTIRKN7android8hardware5radio6config4V1_013SimSlotStatusE",
   "size" : 4,
   "source_file" : "/system/libhidl/base/include/hidl/HidlInternal.h"
  },
  {
   "alignment" : 4,
   "linker_set_key" : "_ZTIRKN7android8hardware5radio6config4V1_112ModemsConfigE",
   "name" : "const android::hardware::radio::config::V1_1::ModemsConfig &",
   "referenced_type" : "_ZTIKN7android8hardware5radio6config4V1_112ModemsConfigE",
   "self_type" : "_ZTIRKN7android8hardware5radio6config4V1_112ModemsConfigE",
   "size" : 4,
   "source_file" : "/out/soong/.intermediates/hardware/interfaces/radio/config/1.1/android.hardware.radio.config@1.1_genc++_headers/gen/android/hardware/radio/config/1.1/BpHwRadioConfig.h"
  },
  {
   "alignment" : 4,
   "linker_set_key" : "_ZTIRKN7android8hardware5radio6config4V1_115PhoneCapabilityE",
   "name" : "const android::hardware::radio::config::V1_1::PhoneCapability &",
   "referenced_type" : "_ZTIKN7android8hardware5radio6config4V1_115PhoneCapabilityE",
   "self_type" : "_ZTIRKN7android8hardware5radio6config4V1_115PhoneCapabilityE",
   "size" : 4,
   "source_file" : "/out/soong/.intermediates/hardware/interfaces/radio/config/1.1/android.hardware.radio.config@1.1_genc++_headers/gen/android/hardware/radio/config/1.1/BpHwRadioConfigResponse.h"
  },
  {
   "alignment" : 4,
   "linker_set_key" : "_ZTIRKN7android8hardware5radio6config4V1_19ModemInfoE",
   "name" : "const android::hardware::radio::config::V1_1::ModemInfo &",
   "referenced_type" : "_ZTIKN7android8hardware5radio6config4V1_19ModemInfoE",
   "self_type" : "_ZTIRKN7android8hardware5radio6config4V1_19ModemInfoE",
   "size" : 4,
   "source_file" : "/system/libhidl/base/include/hidl/HidlInternal.h"
  },
  {
   "alignment" : 4,
   "linker_set_key" : "_ZTIRKN7android8hardware6ParcelE",
   "name" : "const android::hardware::Parcel &",
   "referenced_type" : "_ZTIKN7android8hardware6ParcelE",
   "self_type" : "_ZTIRKN7android8hardware6ParcelE",
   "size" : 4,
   "source_file" : "/system/libhwbinder/include/hwbinder/Parcel.h"
  },
  {
   "alignment" : 4,
   "linker_set_key" : "_ZTIRKN7android8hardware6ReturnIbEE",
   "name" : "const android::hardware::Return<bool> &",
   "referenced_type" : "_ZTIKN7android8hardware6ReturnIbEE",
   "self_type" : "_ZTIRKN7android8hardware6ReturnIbEE",
   "size" : 4,
   "source_file" : "/system/libhidl/base/include/hidl/Status.h"
  },
  {
   "alignment" : 4,
   "linker_set_key" : "_ZTIRKN7android8hardware6StatusE",
   "name" : "const android::hardware::Status &",
   "referenced_type" : "_ZTIKN7android8hardware6StatusE",
   "self_type" : "_ZTIRKN7android8hardware6StatusE",
   "size" : 4,
   "source_file" : "/system/libhidl/base/include/hidl/Status.h"
  },
  {
   "alignment" : 4,
   "linker_set_key" : "_ZTIRKN7android8hardware7details14const_accessorIjLj5EJEEE",
   "name" : "const android::hardware::details::const_accessor<unsigned int, 5> &",
   "referenced_type" : "_ZTIKN7android8hardware7details14const_accessorIjLj5EJEEE",
   "self_type" : "_ZTIRKN7android8hardware7details14const_accessorIjLj5EJEEE",
   "size" : 4,
   "source_file" : "/system/libhidl/base/include/hidl/HidlSupport.h"
  },
  {
   "linker_set_key" : "_ZTIRKN7android8hardware8hidl_vec4iterIXTL0__EEE",
   "name" : "const iter<is_const> &",
   "referenced_type" : "_ZTIKN7android8hardware8hidl_vec4iterIXTL0__EEE",
   "self_type" : "_ZTIRKN7android8hardware8hidl_vec4iterIXTL0__EEE",
   "source_file" : "/system/libhidl/base/include/hidl/HidlSupport.h"
  },
  {
   "alignment" : 4,
   "linker_set_key" : "_ZTIRKN7android8hardware8hidl_vecINS0_11hidl_stringEEE",
   "name" : "const android::hardware::hidl_vec<android::hardware::hidl_string> &",
   "referenced_type" : "_ZTIKN7android8hardware8hidl_vecINS0_11hidl_stringEEE",
   "self_type" : "_ZTIRKN7android8hardware8hidl_vecINS0_11hidl_stringEEE",
   "size" : 4,
   "source_file" : "/out/soong/.intermediates/hardware/interfaces/radio/config/1.1/android.hardware.radio.config@1.1_genc++_headers/gen/android/hardware/radio/config/1.1/IRadioConfig.h"
  },
  {
   "alignment" : 4,
   "linker_set_key" : "_ZTIRKN7android8hardware8hidl_vecINS0_5radio4V1_010SsInfoDataEEE",
   "name" : "const android::hardware::hidl_vec<android::hardware::radio::V1_0::SsInfoData> &",
   "referenced_type" : "_ZTIKN7android8hardware8hidl_vecINS0_5radio4V1_010SsInfoDataEEE",
   "self_type" : "_ZTIRKN7android8hardware8hidl_vecINS0_5radio4V1_010SsInfoDataEEE",
   "size" : 4,
   "source_file" : "/system/libhidl/base/include/hidl/HidlSupport.h"
  },
  {
   "alignment" : 4,
   "linker_set_key" : "_ZTIRKN7android8hardware8hidl_vecINS0_5radio4V1_011CellInfoGsmEEE",
   "name" : "const android::hardware::hidl_vec<android::hardware::radio::V1_0::CellInfoGsm> &",
   "referenced_type" : "_ZTIKN7android8hardware8hidl_vecINS0_5radio4V1_011CellInfoGsmEEE",
   "self_type" : "_ZTIRKN7android8hardware8hidl_vecINS0_5radio4V1_011CellInfoGsmEEE",
   "size" : 4,
   "source_file" : "/system/libhidl/base/include/hidl/HidlSupport.h"
  },
  {
   "alignment" : 4,
   "linker_set_key" : "_ZTIRKN7android8hardware8hidl_vecINS0_5radio4V1_011CellInfoLteEEE",
   "name" : "const android::hardware::hidl_vec<android::hardware::radio::V1_0::CellInfoLte> &",
   "referenced_type" : "_ZTIKN7android8hardware8hidl_vecINS0_5radio4V1_011CellInfoLteEEE",
   "self_type" : "_ZTIRKN7android8hardware8hidl_vecINS0_5radio4V1_011CellInfoLteEEE",
   "size" : 4,
   "source_file" : "/system/libhidl/base/include/hidl/HidlSupport.h"
  },
  {
   "alignment" : 4,
   "linker_set_key" : "_ZTIRKN7android8hardware8hidl_vecINS0_5radio4V1_012CellInfoCdmaEEE",
   "name" : "const android::hardware::hidl_vec<android::hardware::radio::V1_0::CellInfoCdma> &",
   "referenced_type" : "_ZTIKN7android8hardware8hidl_vecINS0_5radio4V1_012CellInfoCdmaEEE",
   "self_type" : "_ZTIRKN7android8hardware8hidl_vecINS0_5radio4V1_012CellInfoCdmaEEE",
   "size" : 4,
   "source_file" : "/system/libhidl/base/include/hidl/HidlSupport.h"
  },
  {
   "alignment" : 4,
   "linker_set_key" : "_ZTIRKN7android8hardware8hidl_vecINS0_5radio4V1_013CellInfoWcdmaEEE",
   "name" : "const android::hardware::hidl_vec<android::hardware::radio::V1_0::CellInfoWcdma> &",
   "referenced_type" : "_ZTIKN7android8hardware8hidl_vecINS0_5radio4V1_013CellInfoWcdmaEEE",
   "self_type" : "_ZTIRKN7android8hardware8hidl_vecINS0_5radio4V1_013CellInfoWcdmaEEE",
   "size" : 4,
   "source_file" : "/system/libhidl/base/include/hidl/HidlSupport.h"
  },
  {
   "alignment" : 4,
   "linker_set_key" : "_ZTIRKN7android8hardware8hidl_vecINS0_5radio4V1_013GsmSmsMessageEEE",
   "name" : "const android::hardware::hidl_vec<android::hardware::radio::V1_0::GsmSmsMessage> &",
   "referenced_type" : "_ZTIKN7android8hardware8hidl_vecINS0_5radio4V1_013GsmSmsMessageEEE",
   "self_type" : "_ZTIRKN7android8hardware8hidl_vecINS0_5radio4V1_013GsmSmsMessageEEE",
   "size" : 4,
   "source_file" : "/system/libhidl/base/include/hidl/HidlSupport.h"
  },
  {
   "alignment" : 4,
   "linker_set_key" : "_ZTIRKN7android8hardware8hidl_vecINS0_5radio4V1_014CdmaSmsMessageEEE",
   "name" : "const android::hardware::hidl_vec<android::hardware::radio::V1_0::CdmaSmsMessage> &",
   "referenced_type" : "_ZTIKN7android8hardware8hidl_vecINS0_5radio4V1_014CdmaSmsMessageEEE",
   "self_type" : "_ZTIRKN7android8hardware8hidl_vecINS0_5radio4V1_014CdmaSmsMessageEEE",
   "size" : 4,
   "source_file" : "/system/libhidl/base/include/hidl/HidlSupport.h"
  },
  {
   "alignment" : 4,
   "linker_set_key" : "_ZTIRKN7android8hardware8hidl_vecINS0_5radio4V1_015CallForwardInfoEEE",
   "name" : "const android::hardware::hidl_vec<android::hardware::radio::V1_0::CallForwardInfo> &",
   "referenced_type" : "_ZTIKN7android8hardware8hidl_vecINS0_5radio4V1_015CallForwardInfoEEE",
   "self_type" : "_ZTIRKN7android8hardware8hidl_vecINS0_5radio4V1_015CallForwardInfoEEE",
   "size" : 4,
   "source_file" : "/system/libhidl/base/include/hidl/HidlSupport.h"
  },
  {
   "alignment" : 4,
   "linker_set_key" : "_ZTIRKN7android8hardware8hidl_vecINS0_5radio4V1_015CellIdentityGsmEEE",
   "name" : "const android::hardware::hidl_vec<android::hardware::radio::V1_0::CellIdentityGsm> &",
   "referenced_type" : "_ZTIKN7android8hardware8hidl_vecINS0_5radio4V1_015CellIdentityGsmEEE",
   "self_type" : "_ZTIRKN7android8hardware8hidl_vecINS0_5radio4V1_015CellIdentityGsmEEE",
   "size" : 4,
   "source_file" : "/system/libhidl/base/include/hidl/HidlSupport.h"
  },
  {
   "alignment" : 4,
   "linker_set_key" : "_ZTIRKN7android8hardware8hidl_vecINS0_5radio4V1_015CellIdentityLteEEE",
   "name" : "const android::hardware::hidl_vec<android::hardware::radio::V1_0::CellIdentityLte> &",
   "referenced_type" : "_ZTIKN7android8hardware8hidl_vecINS0_5radio4V1_015CellIdentityLteEEE",
   "self_type" : "_ZTIRKN7android8hardware8hidl_vecINS0_5radio4V1_015CellIdentityLteEEE",
   "size" : 4,
   "source_file" : "/system/libhidl/base/include/hidl/HidlSupport.h"
  },
  {
   "alignment" : 4,
   "linker_set_key" : "_ZTIRKN7android8hardware8hidl_vecINS0_5radio4V1_015CellInfoTdscdmaEEE",
   "name" : "const android::hardware::hidl_vec<android::hardware::radio::V1_0::CellInfoTdscdma> &",
   "referenced_type" : "_ZTIKN7android8hardware8hidl_vecINS0_5radio4V1_015CellInfoTdscdmaEEE",
   "self_type" : "_ZTIRKN7android8hardware8hidl_vecINS0_5radio4V1_015CellInfoTdscdmaEEE",
   "size" : 4,
   "source_file" : "/system/libhidl/base/include/hidl/HidlSupport.h"
  },
  {
   "alignment" : 4,
   "linker_set_key" : "_ZTIRKN7android8hardware8hidl_vecINS0_5radio4V1_016CellIdentityCdmaEEE",
   "name" : "const android::hardware::hidl_vec<android::hardware::radio::V1_0::CellIdentityCdma> &",
   "referenced_type" : "_ZTIKN7android8hardware8hidl_vecINS0_5radio4V1_016CellIdentityCdmaEEE",
   "self_type" : "_ZTIRKN7android8hardware8hidl_vecINS0_5radio4V1_016CellIdentityCdmaEEE",
   "size" : 4,
   "source_file" : "/system/libhidl/base/include/hidl/HidlSupport.h"
  },
  {
   "alignment" : 4,
   "linker_set_key" : "_ZTIRKN7android8hardware8hidl_vecINS0_5radio4V1_017CellIdentityWcdmaEEE",
   "name" : "const android::hardware::hidl_vec<android::hardware::radio::V1_0::CellIdentityWcdma> &",
   "referenced_type" : "_ZTIKN7android8hardware8hidl_vecINS0_5radio4V1_017CellIdentityWcdmaEEE",
   "self_type" : "_ZTIRKN7android8hardware8hidl_vecINS0_5radio4V1_017CellIdentityWcdmaEEE",
   "size" : 4,
   "source_file" : "/system/libhidl/base/include/hidl/HidlSupport.h"
  },
  {
   "alignment" : 4,
   "linker_set_key" : "_ZTIRKN7android8hardware8hidl_vecINS0_5radio4V1_017HardwareConfigSimEEE",
   "name" : "const android::hardware::hidl_vec<android::hardware::radio::V1_0::HardwareConfigSim> &",
   "referenced_type" : "_ZTIKN7android8hardware8hidl_vecINS0_5radio4V1_017HardwareConfigSimEEE",
   "self_type" : "_ZTIRKN7android8hardware8hidl_vecINS0_5radio4V1_017HardwareConfigSimEEE",
   "size" : 4,
   "source_file" : "/system/libhidl/base/include/hidl/HidlSupport.h"
  },
  {
   "alignment" : 4,
   "linker_set_key" : "_ZTIRKN7android8hardware8hidl_vecINS0_5radio4V1_019CellIdentityTdscdmaEEE",
   "name" : "const android::hardware::hidl_vec<android::hardware::radio::V1_0::CellIdentityTdscdma> &",
   "referenced_type" : "_ZTIKN7android8hardware8hidl_vecINS0_5radio4V1_019CellIdentityTdscdmaEEE",
   "self_type" : "_ZTIRKN7android8hardware8hidl_vecINS0_5radio4V1_019CellIdentityTdscdmaEEE",
   "size" : 4,
   "source_file" : "/system/libhidl/base/include/hidl/HidlSupport.h"
  },
  {
   "alignment" : 4,
   "linker_set_key" : "_ZTIRKN7android8hardware8hidl_vecINS0_5radio4V1_019HardwareConfigModemEEE",
   "name" : "const android::hardware::hidl_vec<android::hardware::radio::V1_0::HardwareConfigModem> &",
   "referenced_type" : "_ZTIKN7android8hardware8hidl_vecINS0_5radio4V1_019HardwareConfigModemEEE",
   "self_type" : "_ZTIRKN7android8hardware8hidl_vecINS0_5radio4V1_019HardwareConfigModemEEE",
   "size" : 4,
   "source_file" : "/system/libhidl/base/include/hidl/HidlSupport.h"
  },
  {
   "alignment" : 4,
   "linker_set_key" : "_ZTIRKN7android8hardware8hidl_vecINS0_5radio4V1_020CdmaNumberInfoRecordEEE",
   "name" : "const android::hardware::hidl_vec<android::hardware::radio::V1_0::CdmaNumberInfoRecord> &",
   "referenced_type" : "_ZTIKN7android8hardware8hidl_vecINS0_5radio4V1_020CdmaNumberInfoRecordEEE",
   "self_type" : "_ZTIRKN7android8hardware8hidl_vecINS0_5radio4V1_020CdmaNumberInfoRecordEEE",
   "size" : 4,
   "source_file" : "/system/libhidl/base/include/hidl/HidlSupport.h"
  },
  {
   "alignment" : 4,
   "linker_set_key" : "_ZTIRKN7android8hardware8hidl_vecINS0_5radio4V1_020CdmaSignalInfoRecordEEE",
   "name" : "const android::hardware::hidl_vec<android::hardware::radio::V1_0::CdmaSignalInfoRecord> &",
   "referenced_type" : "_ZTIKN7android8hardware8hidl_vecINS0_5radio4V1_020CdmaSignalInfoRecordEEE",
   "self_type" : "_ZTIRKN7android8hardware8hidl_vecINS0_5radio4V1_020CdmaSignalInfoRecordEEE",
   "size" : 4,
   "source_file" : "/system/libhidl/base/include/hidl/HidlSupport.h"
  },
  {
   "alignment" : 4,
   "linker_set_key" : "_ZTIRKN7android8hardware8hidl_vecINS0_5radio4V1_021CdmaDisplayInfoRecordEEE",
   "name" : "const android::hardware::hidl_vec<android::hardware::radio::V1_0::CdmaDisplayInfoRecord> &",
   "referenced_type" : "_ZTIKN7android8hardware8hidl_vecINS0_5radio4V1_021CdmaDisplayInfoRecordEEE",
   "self_type" : "_ZTIRKN7android8hardware8hidl_vecINS0_5radio4V1_021CdmaDisplayInfoRecordEEE",
   "size" : 4,
   "source_file" : "/system/libhidl/base/include/hidl/HidlSupport.h"
  },
  {
   "alignment" : 4,
   "linker_set_key" : "_ZTIRKN7android8hardware8hidl_vecINS0_5radio4V1_021CdmaInformationRecordEEE",
   "name" : "const android::hardware::hidl_vec<android::hardware::radio::V1_0::CdmaInformationRecord> &",
   "referenced_type" : "_ZTIKN7android8hardware8hidl_vecINS0_5radio4V1_021CdmaInformationRecordEEE",
   "self_type" : "_ZTIRKN7android8hardware8hidl_vecINS0_5radio4V1_021CdmaInformationRecordEEE",
   "size" : 4,
   "source_file" : "/system/libhidl/base/include/hidl/HidlSupport.h"
  },
  {
   "alignment" : 4,
   "linker_set_key" : "_ZTIRKN7android8hardware8hidl_vecINS0_5radio4V1_021CdmaT53ClirInfoRecordEEE",
   "name" : "const android::hardware::hidl_vec<android::hardware::radio::V1_0::CdmaT53ClirInfoRecord> &",
   "referenced_type" : "_ZTIKN7android8hardware8hidl_vecINS0_5radio4V1_021CdmaT53ClirInfoRecordEEE",
   "self_type" : "_ZTIRKN7android8hardware8hidl_vecINS0_5radio4V1_021CdmaT53ClirInfoRecordEEE",
   "size" : 4,
   "source_file" : "/system/libhidl/base/include/hidl/HidlSupport.h"
  },
  {
   "alignment" : 4,
   "linker_set_key" : "_ZTIRKN7android8hardware8hidl_vecINS0_5radio4V1_025CdmaLineControlInfoRecordEEE",
   "name" : "const android::hardware::hidl_vec<android::hardware::radio::V1_0::CdmaLineControlInfoRecord> &",
   "referenced_type" : "_ZTIKN7android8hardware8hidl_vecINS0_5radio4V1_025CdmaLineControlInfoRecordEEE",
   "self_type" : "_ZTIRKN7android8hardware8hidl_vecINS0_5radio4V1_025CdmaLineControlInfoRecordEEE",
   "size" : 4,
   "source_file" : "/system/libhidl/base/include/hidl/HidlSupport.h"
  },
  {
   "alignment" : 4,
   "linker_set_key" : "_ZTIRKN7android8hardware8hidl_vecINS0_5radio4V1_029CdmaT53AudioControlInfoRecordEEE",
   "name" : "const android::hardware::hidl_vec<android::hardware::radio::V1_0::CdmaT53AudioControlInfoRecord> &",
   "referenced_type" : "_ZTIKN7android8hardware8hidl_vecINS0_5radio4V1_029CdmaT53AudioControlInfoRecordEEE",
   "self_type" : "_ZTIRKN7android8hardware8hidl_vecINS0_5radio4V1_029CdmaT53AudioControlInfoRecordEEE",
   "size" : 4,
   "source_file" : "/system/libhidl/base/include/hidl/HidlSupport.h"
  },
  {
   "alignment" : 4,
   "linker_set_key" : "_ZTIRKN7android8hardware8hidl_vecINS0_5radio4V1_031CdmaRedirectingNumberInfoRecordEEE",
   "name" : "const android::hardware::hidl_vec<android::hardware::radio::V1_0::CdmaRedirectingNumberInfoRecord> &",
   "referenced_type" : "_ZTIKN7android8hardware8hidl_vecINS0_5radio4V1_031CdmaRedirectingNumberInfoRecordEEE",
   "self_type" : "_ZTIRKN7android8hardware8hidl_vecINS0_5radio4V1_031CdmaRedirectingNumberInfoRecordEEE",
   "size" : 4,
   "source_file" : "/system/libhidl/base/include/hidl/HidlSupport.h"
  },
  {
   "alignment" : 4,
   "linker_set_key" : "_ZTIRKN7android8hardware8hidl_vecINS0_5radio4V1_06CfDataEEE",
   "name" : "const android::hardware::hidl_vec<android::hardware::radio::V1_0::CfData> &",
   "referenced_type" : "_ZTIKN7android8hardware8hidl_vecINS0_5radio4V1_06CfDataEEE",
   "self_type" : "_ZTIRKN7android8hardware8hidl_vecINS0_5radio4V1_06CfDataEEE",
   "size" : 4,
   "source_file" : "/system/libhidl/base/include/hidl/HidlSupport.h"
  },
  {
   "alignment" : 4,
   "linker_set_key" : "_ZTIRKN7android8hardware8hidl_vecINS0_5radio4V1_07CarrierEEE",
   "name" : "const android::hardware::hidl_vec<android::hardware::radio::V1_0::Carrier> &",
   "referenced_type" : "_ZTIKN7android8hardware8hidl_vecINS0_5radio4V1_07CarrierEEE",
   "self_type" : "_ZTIRKN7android8hardware8hidl_vecINS0_5radio4V1_07CarrierEEE",
   "size" : 4,
   "source_file" : "/system/libhidl/base/include/hidl/HidlSupport.h"
  },
  {
   "alignment" : 4,
   "linker_set_key" : "_ZTIRKN7android8hardware8hidl_vecINS0_5radio4V1_07UusInfoEEE",
   "name" : "const android::hardware::hidl_vec<android::hardware::radio::V1_0::UusInfo> &",
   "referenced_type" : "_ZTIKN7android8hardware8hidl_vecINS0_5radio4V1_07UusInfoEEE",
   "self_type" : "_ZTIRKN7android8hardware8hidl_vecINS0_5radio4V1_07UusInfoEEE",
   "size" : 4,
   "source_file" : "/system/libhidl/base/include/hidl/HidlSupport.h"
  },
  {
   "alignment" : 4,
   "linker_set_key" : "_ZTIRKN7android8hardware8hidl_vecINS0_5radio4V1_09AppStatusEEE",
   "name" : "const android::hardware::hidl_vec<android::hardware::radio::V1_0::AppStatus> &",
   "referenced_type" : "_ZTIKN7android8hardware8hidl_vecINS0_5radio4V1_09AppStatusEEE",
   "self_type" : "_ZTIRKN7android8hardware8hidl_vecINS0_5radio4V1_09AppStatusEEE",
   "size" : 4,
   "source_file" : "/system/libhidl/base/include/hidl/HidlSupport.h"
  },
  {
   "alignment" : 4,
   "linker_set_key" : "_ZTIRKN7android8hardware8hidl_vecINS0_5radio6config4V1_013SimSlotStatusEEE",
   "name" : "const android::hardware::hidl_vec<android::hardware::radio::config::V1_0::SimSlotStatus> &",
   "referenced_type" : "_ZTIKN7android8hardware8hidl_vecINS0_5radio6config4V1_013SimSlotStatusEEE",
   "self_type" : "_ZTIRKN7android8hardware8hidl_vecINS0_5radio6config4V1_013SimSlotStatusEEE",
   "size" : 4,
   "source_file" : "/system/libhidl/base/include/hidl/HidlSupport.h"
  },
  {
   "alignment" : 4,
   "linker_set_key" : "_ZTIRKN7android8hardware8hidl_vecINS0_5radio6config4V1_19ModemInfoEEE",
   "name" : "const android::hardware::hidl_vec<android::hardware::radio::config::V1_1::ModemInfo> &",
   "referenced_type" : "_ZTIKN7android8hardware8hidl_vecINS0_5radio6config4V1_19ModemInfoEEE",
   "self_type" : "_ZTIRKN7android8hardware8hidl_vecINS0_5radio6config4V1_19ModemInfoEEE",
   "size" : 4,
   "source_file" : "/system/libhidl/base/include/hidl/HidlSupport.h"
  },
  {
   "alignment" : 4,
   "linker_set_key" : "_ZTIRKN7android8hardware8hidl_vecIhEE",
   "name" : "const android::hardware::hidl_vec<unsigned char> &",
   "referenced_type" : "_ZTIKN7android8hardware8hidl_vecIhEE",
   "self_type" : "_ZTIRKN7android8hardware8hidl_vecIhEE",
   "size" : 4,
   "source_file" : "/system/libhidl/base/include/hidl/HidlSupport.h"
  },
  {
   "alignment" : 4,
   "linker_set_key" : "_ZTIRKN7android8hardware8hidl_vecIiEE",
   "name" : "const android::hardware::hidl_vec<int> &",
   "referenced_type" : "_ZTIKN7android8hardware8hidl_vecIiEE",
   "self_type" : "_ZTIRKN7android8hardware8hidl_vecIiEE",
   "size" : 4,
   "source_file" : "/system/libhidl/base/include/hidl/HidlSupport.h"
  },
  {
   "alignment" : 4,
   "linker_set_key" : "_ZTIRKN7android8hardware8hidl_vecIjEE",
   "name" : "const android::hardware::hidl_vec<unsigned int> &",
   "referenced_type" : "_ZTIKN7android8hardware8hidl_vecIjEE",
   "self_type" : "_ZTIRKN7android8hardware8hidl_vecIjEE",
   "size" : 4,
   "source_file" : "/system/libhidl/base/include/hidl/HidlSupport.h"
  },
  {
   "alignment" : 4,
   "linker_set_key" : "_ZTIRKNSt3__112basic_stringIcNS_11char_traitsIcEENS_9allocatorIcEEEE",
   "name" : "const std::basic_string<char, std::char_traits<char>, std::allocator<char> > &",
   "referenced_type" : "_ZTIKNSt3__112basic_stringIcNS_11char_traitsIcEENS_9allocatorIcEEEE",
   "self_type" : "_ZTIRKNSt3__112basic_stringIcNS_11char_traitsIcEENS_9allocatorIcEEEE",
   "size" : 4,
   "source_file" : "/system/libhidl/transport/include/hidl/HidlTransportSupport.h"
  },
  {
   "alignment" : 4,
   "linker_set_key" : "_ZTIRKNSt3__16vectorINS_8functionIFvN7android8hardware7details16HidlInstrumentor20InstrumentationEventEPKcS8_S8_S8_PNS0_IPvNS_9allocatorIS9_EEEEEEENSA_ISF_EEEE",
   "name" : "const std::vector<std::function<void (InstrumentationEvent, const char *, const char *, const char *, const char *, vector<void *, allocator<void *> > *)>, std::allocator<std::function<void (InstrumentationEvent, const char *, const char *, const char *, const char *, vector<void *, allocator<void *> > *)> > > &",
   "referenced_type" : "_ZTIKNSt3__16vectorINS_8functionIFvN7android8hardware7details16HidlInstrumentor20InstrumentationEventEPKcS8_S8_S8_PNS0_IPvNS_9allocatorIS9_EEEEEEENSA_ISF_EEEE",
   "self_type" : "_ZTIRKNSt3__16vectorINS_8functionIFvN7android8hardware7details16HidlInstrumentor20InstrumentationEventEPKcS8_S8_S8_PNS0_IPvNS_9allocatorIS9_EEEEEEENSA_ISF_EEEE",
   "size" : 4,
   "source_file" : "/system/libhidl/base/include/hidl/HidlInternal.h"
  },
  {
   "alignment" : 4,
   "linker_set_key" : "_ZTIRKPKN7android4hidl4base4V1_05IBaseE",
   "name" : "const android::hidl::base::V1_0::IBase *const &",
   "referenced_type" : "_ZTIKPKN7android4hidl4base4V1_05IBaseE",
   "self_type" : "_ZTIRKPKN7android4hidl4base4V1_05IBaseE",
   "size" : 4,
   "source_file" : "/system/libhidl/transport/include/hidl/ConcurrentMap.h"
  },
  {
   "alignment" : 4,
   "linker_set_key" : "_ZTIRKa",
   "name" : "const signed char &",
   "referenced_type" : "_ZTIKa",
   "self_type" : "_ZTIRKa",
   "size" : 4,
   "source_file" : "/system/core/libutils/include/utils/TypeHelpers.h"
  },
  {
   "alignment" : 4,
   "linker_set_key" : "_ZTIRKb",
   "name" : "const bool &",
   "referenced_type" : "_ZTIKb",
   "self_type" : "_ZTIRKb",
   "size" : 4,
   "source_file" : "/system/core/libutils/include/utils/TypeHelpers.h"
  },
  {
   "alignment" : 4,
   "linker_set_key" : "_ZTIRKd",
   "name" : "const double &",
   "referenced_type" : "_ZTIKd",
   "self_type" : "_ZTIRKd",
   "size" : 4,
   "source_file" : "/system/core/libutils/include/utils/TypeHelpers.h"
  },
  {
   "alignment" : 4,
   "linker_set_key" : "_ZTIRKf",
   "name" : "const float &",
   "referenced_type" : "_ZTIKf",
   "self_type" : "_ZTIRKf",
   "size" : 4,
   "source_file" : "/system/core/libutils/include/utils/TypeHelpers.h"
  },
  {
   "alignment" : 4,
   "linker_set_key" : "_ZTIRKh",
   "name" : "const unsigned char &",
   "referenced_type" : "_ZTIKh",
   "self_type" : "_ZTIRKh",
   "size" : 4,
   "source_file" : "/system/libhidl/base/include/hidl/HidlInternal.h"
  },
  {
   "alignment" : 4,
   "linker_set_key" : "_ZTIRKi",
   "name" : "const int &",
   "referenced_type" : "_ZTIKi",
   "self_type" : "_ZTIRKi",
   "size" : 4,
   "source_file" : "/system/libhidl/base/include/hidl/HidlInternal.h"
  },
  {
   "alignment" : 4,
   "linker_set_key" : "_ZTIRKj",
   "name" : "const unsigned int &",
   "referenced_type" : "_ZTIKj",
   "self_type" : "_ZTIRKj",
   "size" : 4,
   "source_file" : "/system/libhidl/base/include/hidl/HidlInternal.h"
  },
  {
   "alignment" : 4,
   "linker_set_key" : "_ZTIRKs",
   "name" : "const short &",
   "referenced_type" : "_ZTIKs",
   "self_type" : "_ZTIRKs",
   "size" : 4,
   "source_file" : "/system/core/libutils/include/utils/TypeHelpers.h"
  },
  {
   "alignment" : 4,
   "linker_set_key" : "_ZTIRKt",
   "name" : "const unsigned short &",
   "referenced_type" : "_ZTIKt",
   "self_type" : "_ZTIRKt",
   "size" : 4,
   "source_file" : "/system/core/libutils/include/utils/TypeHelpers.h"
  },
  {
   "alignment" : 4,
   "linker_set_key" : "_ZTIRKx",
   "name" : "const long long &",
   "referenced_type" : "_ZTIKx",
   "self_type" : "_ZTIRKx",
   "size" : 4,
   "source_file" : "/system/core/libutils/include/utils/TypeHelpers.h"
  },
  {
   "alignment" : 4,
   "linker_set_key" : "_ZTIRKy",
   "name" : "const unsigned long long &",
   "referenced_type" : "_ZTIKy",
   "self_type" : "_ZTIRKy",
   "size" : 4,
   "source_file" : "/system/core/libutils/include/utils/TypeHelpers.h"
  },
  {
   "alignment" : 4,
   "linker_set_key" : "_ZTIRN7android2spINS_8hardware27hidl_binder_death_recipientEEE",
   "name" : "android::sp<android::hardware::hidl_binder_death_recipient> &",
   "referenced_type" : "_ZTIN7android2spINS_8hardware27hidl_binder_death_recipientEEE",
   "self_type" : "_ZTIRN7android2spINS_8hardware27hidl_binder_death_recipientEEE",
   "size" : 4,
   "source_file" : "/system/core/libutils/include/utils/StrongPointer.h"
  },
  {
   "alignment" : 4,
   "linker_set_key" : "_ZTIRN7android2spINS_8hardware5radio6config4V1_020IRadioConfigResponseEEE",
   "name" : "android::sp<android::hardware::radio::config::V1_0::IRadioConfigResponse> &",
   "referenced_type" : "_ZTIN7android2spINS_8hardware5radio6config4V1_020IRadioConfigResponseEEE",
   "self_type" : "_ZTIRN7android2spINS_8hardware5radio6config4V1_020IRadioConfigResponseEEE",
   "size" : 4,
   "source_file" : "/system/core/libutils/include/utils/StrongPointer.h"
  },
  {
   "alignment" : 4,
   "linker_set_key" : "_ZTIRN7android2spINS_8hardware5radio6config4V1_022IRadioConfigIndicationEEE",
   "name" : "android::sp<android::hardware::radio::config::V1_0::IRadioConfigIndication> &",
   "referenced_type" : "_ZTIN7android2spINS_8hardware5radio6config4V1_022IRadioConfigIndicationEEE",
   "self_type" : "_ZTIRN7android2spINS_8hardware5radio6config4V1_022IRadioConfigIndicationEEE",
   "size" : 4,
   "source_file" : "/system/core/libutils/include/utils/StrongPointer.h"
  },
  {
   "alignment" : 4,
   "linker_set_key" : "_ZTIRN7android2spINS_8hardware5radio6config4V1_112IRadioConfigEEE",
   "name" : "android::sp<android::hardware::radio::config::V1_1::IRadioConfig> &",
   "referenced_type" : "_ZTIN7android2spINS_8hardware5radio6config4V1_112IRadioConfigEEE",
   "self_type" : "_ZTIRN7android2spINS_8hardware5radio6config4V1_112IRadioConfigEEE",
   "size" : 4,
   "source_file" : "/system/core/libutils/include/utils/StrongPointer.h"
  },
  {
   "alignment" : 4,
   "linker_set_key" : "_ZTIRN7android2spINS_8hardware5radio6config4V1_120IRadioConfigResponseEEE",
   "name" : "android::sp<android::hardware::radio::config::V1_1::IRadioConfigResponse> &",
   "referenced_type" : "_ZTIN7android2spINS_8hardware5radio6config4V1_120IRadioConfigResponseEEE",
   "self_type" : "_ZTIRN7android2spINS_8hardware5radio6config4V1_120IRadioConfigResponseEEE",
   "size" : 4,
   "source_file" : "/system/core/libutils/include/utils/StrongPointer.h"
  },
  {
   "alignment" : 4,
   "linker_set_key" : "_ZTIRN7android2spINS_8hardware5radio6config4V1_122IRadioConfigIndicationEEE",
   "name" : "android::sp<android::hardware::radio::config::V1_1::IRadioConfigIndication> &",
   "referenced_type" : "_ZTIN7android2spINS_8hardware5radio6config4V1_122IRadioConfigIndicationEEE",
   "self_type" : "_ZTIRN7android2spINS_8hardware5radio6config4V1_122IRadioConfigIndicationEEE",
   "size" : 4,
   "source_file" : "/system/core/libutils/include/utils/StrongPointer.h"
  },
  {
   "alignment" : 4,
   "linker_set_key" : "_ZTIRN7android5MutexE",
   "name" : "android::Mutex &",
   "referenced_type" : "_ZTIN7android5MutexE",
   "self_type" : "_ZTIRN7android5MutexE",
   "size" : 4,
   "source_file" : "/system/core/libutils/include/utils/Mutex.h"
  },
  {
   "alignment" : 4,
   "linker_set_key" : "_ZTIRN7android6RWLockE",
   "name" : "android::RWLock &",
   "referenced_type" : "_ZTIN7android6RWLockE",
   "self_type" : "_ZTIRN7android6RWLockE",
   "size" : 4,
   "source_file" : "/system/core/libutils/include/utils/RWLock.h"
  },
  {
   "alignment" : 4,
   "linker_set_key" : "_ZTIRN7android7String8E",
   "name" : "android::String8 &",
   "referenced_type" : "_ZTIN7android7String8E",
   "self_type" : "_ZTIRN7android7String8E",
   "size" : 4,
   "source_file" : "/system/core/libutils/include/utils/String8.h"
  },
  {
   "alignment" : 4,
   "linker_set_key" : "_ZTIRN7android8String16E",
   "name" : "android::String16 &",
   "referenced_type" : "_ZTIN7android8String16E",
   "self_type" : "_ZTIRN7android8String16E",
   "size" : 4,
   "source_file" : "/system/core/libutils/include/utils/String16.h"
  },
  {
   "alignment" : 4,
   "linker_set_key" : "_ZTIRN7android8hardware10TextOutputE",
   "name" : "android::hardware::TextOutput &",
   "referenced_type" : "_ZTIN7android8hardware10TextOutputE",
   "self_type" : "_ZTIRN7android8hardware10TextOutputE",
   "size" : 4,
   "source_file" : "/system/libhwbinder/include/hwbinder/Parcel.h"
  },
  {
   "alignment" : 4,
   "linker_set_key" : "_ZTIRN7android8hardware10hidl_arrayIhLj32EJEEE",
   "name" : "android::hardware::hidl_array<unsigned char, 32> &",
   "referenced_type" : "_ZTIN7android8hardware10hidl_arrayIhLj32EJEEE",
   "self_type" : "_ZTIRN7android8hardware10hidl_arrayIhLj32EJEEE",
   "size" : 4,
   "source_file" : "/system/libhidl/base/include/hidl/HidlInternal.h"
  },
  {
   "alignment" : 4,
   "linker_set_key" : "_ZTIRN7android8hardware10hidl_arrayIjLj5EJEEE",
   "name" : "android::hardware::hidl_array<unsigned int, 5> &",
   "referenced_type" : "_ZTIN7android8hardware10hidl_arrayIjLj5EJEEE",
   "self_type" : "_ZTIRN7android8hardware10hidl_arrayIjLj5EJEEE",
   "size" : 4,
   "source_file" : "/system/libhidl/base/include/hidl/HidlSupport.h"
  },
  {
   "alignment" : 4,
   "linker_set_key" : "_ZTIRN7android8hardware11hidl_memoryE",
   "name" : "android::hardware::hidl_memory &",
   "referenced_type" : "_ZTIN7android8hardware11hidl_memoryE",
   "self_type" : "_ZTIRN7android8hardware11hidl_memoryE",
   "size" : 4,
   "source_file" : "/system/libhidl/base/include/hidl/HidlSupport.h"
  },
  {
   "alignment" : 4,
   "linker_set_key" : "_ZTIRN7android8hardware11hidl_stringE",
   "name" : "android::hardware::hidl_string &",
   "referenced_type" : "_ZTIN7android8hardware11hidl_stringE",
   "self_type" : "_ZTIRN7android8hardware11hidl_stringE",
   "size" : 4,
   "source_file" : "/system/libhidl/base/include/hidl/HidlInternal.h"
  },
  {
   "alignment" : 4,
   "linker_set_key" : "_ZTIRN7android8hardware5radio6config4V1_013SimSlotStatusE",
   "name" : "android::hardware::radio::config::V1_0::SimSlotStatus &",
   "referenced_type" : "_ZTIN7android8hardware5radio6config4V1_013SimSlotStatusE",
   "self_type" : "_ZTIRN7android8hardware5radio6config4V1_013SimSlotStatusE",
   "size" : 4,
   "source_file" : "/system/libhidl/base/include/hidl/HidlInternal.h"
  },
  {
   "alignment" : 4,
   "linker_set_key" : "_ZTIRN7android8hardware5radio6config4V1_19ModemInfoE",
   "name" : "android::hardware::radio::config::V1_1::ModemInfo &",
   "referenced_type" : "_ZTIN7android8hardware5radio6config4V1_19ModemInfoE",
   "self_type" : "_ZTIRN7android8hardware5radio6config4V1_19ModemInfoE",
   "size" : 4,
   "source_file" : "/system/libhidl/base/include/hidl/HidlInternal.h"
  },
  {
   "alignment" : 4,
   "linker_set_key" : "_ZTIRN7android8hardware6ReturnINS_2spINS0_5radio6config4V1_112IRadioConfigEEEEE",
   "name" : "android::hardware::Return<android::sp<android::hardware::radio::config::V1_1::IRadioConfig> > &",
   "referenced_type" : "_ZTIN7android8hardware6ReturnINS_2spINS0_5radio6config4V1_112IRadioConfigEEEEE",
   "self_type" : "_ZTIRN7android8hardware6ReturnINS_2spINS0_5radio6config4V1_112IRadioConfigEEEEE",
   "size" : 4,
   "source_file" : "/system/libhidl/base/include/hidl/Status.h"
  },
  {
   "alignment" : 4,
   "linker_set_key" : "_ZTIRN7android8hardware6ReturnINS_2spINS0_5radio6config4V1_120IRadioConfigResponseEEEEE",
   "name" : "android::hardware::Return<android::sp<android::hardware::radio::config::V1_1::IRadioConfigResponse> > &",
   "referenced_type" : "_ZTIN7android8hardware6ReturnINS_2spINS0_5radio6config4V1_120IRadioConfigResponseEEEEE",
   "self_type" : "_ZTIRN7android8hardware6ReturnINS_2spINS0_5radio6config4V1_120IRadioConfigResponseEEEEE",
   "size" : 4,
   "source_file" : "/system/libhidl/base/include/hidl/Status.h"
  },
  {
   "alignment" : 4,
   "linker_set_key" : "_ZTIRN7android8hardware6ReturnINS_2spINS0_5radio6config4V1_122IRadioConfigIndicationEEEEE",
   "name" : "android::hardware::Return<android::sp<android::hardware::radio::config::V1_1::IRadioConfigIndication> > &",
   "referenced_type" : "_ZTIN7android8hardware6ReturnINS_2spINS0_5radio6config4V1_122IRadioConfigIndicationEEEEE",
   "self_type" : "_ZTIRN7android8hardware6ReturnINS_2spINS0_5radio6config4V1_122IRadioConfigIndicationEEEEE",
   "size" : 4,
   "source_file" : "/system/libhidl/base/include/hidl/Status.h"
  },
  {
   "alignment" : 4,
   "linker_set_key" : "_ZTIRN7android8hardware6ReturnIbEE",
   "name" : "android::hardware::Return<bool> &",
   "referenced_type" : "_ZTIN7android8hardware6ReturnIbEE",
   "self_type" : "_ZTIRN7android8hardware6ReturnIbEE",
   "size" : 4,
   "source_file" : "/system/libhidl/base/include/hidl/Status.h"
  },
  {
   "alignment" : 4,
   "linker_set_key" : "_ZTIRN7android8hardware6ReturnIvEE",
   "name" : "android::hardware::Return<void> &",
   "referenced_type" : "_ZTIN7android8hardware6ReturnIvEE",
   "self_type" : "_ZTIRN7android8hardware6ReturnIvEE",
   "size" : 4,
   "source_file" : "/system/libhidl/base/include/hidl/Status.h"
  },
  {
   "alignment" : 4,
   "linker_set_key" : "_ZTIRN7android8hardware6StatusE",
   "name" : "android::hardware::Status &",
   "referenced_type" : "_ZTIN7android8hardware6StatusE",
   "self_type" : "_ZTIRN7android8hardware6StatusE",
   "size" : 4,
   "source_file" : "/system/libhidl/base/include/hidl/Status.h"
  },
  {
   "alignment" : 4,
   "linker_set_key" : "_ZTIRN7android8hardware7details12hidl_pointerINS0_10hidl_arrayIhLj32EJEEEEE",
   "name" : "android::hardware::details::hidl_pointer<android::hardware::hidl_array<unsigned char, 32> > &",
   "referenced_type" : "_ZTIN7android8hardware7details12hidl_pointerINS0_10hidl_arrayIhLj32EJEEEEE",
   "self_type" : "_ZTIRN7android8hardware7details12hidl_pointerINS0_10hidl_arrayIhLj32EJEEEEE",
   "size" : 4,
   "source_file" : "/system/libhidl/base/include/hidl/HidlInternal.h"
  },
  {
   "alignment" : 4,
   "linker_set_key" : "_ZTIRN7android8hardware7details12hidl_pointerINS0_11hidl_stringEEE",
   "name" : "android::hardware::details::hidl_pointer<android::hardware::hidl_string> &",
   "referenced_type" : "_ZTIN7android8hardware7details12hidl_pointerINS0_11hidl_stringEEE",
   "self_type" : "_ZTIRN7android8hardware7details12hidl_pointerINS0_11hidl_stringEEE",
   "size" : 4,
   "source_file" : "/system/libhidl/base/include/hidl/HidlInternal.h"
  },
  {
   "alignment" : 4,
   "linker_set_key" : "_ZTIRN7android8hardware7details12hidl_pointerINS0_5radio6config4V1_013SimSlotStatusEEE",
   "name" : "android::hardware::details::hidl_pointer<android::hardware::radio::config::V1_0::SimSlotStatus> &",
   "referenced_type" : "_ZTIN7android8hardware7details12hidl_pointerINS0_5radio6config4V1_013SimSlotStatusEEE",
   "self_type" : "_ZTIRN7android8hardware7details12hidl_pointerINS0_5radio6config4V1_013SimSlotStatusEEE",
   "size" : 4,
   "source_file" : "/system/libhidl/base/include/hidl/HidlInternal.h"
  },
  {
   "alignment" : 4,
   "linker_set_key" : "_ZTIRN7android8hardware7details12hidl_pointerINS0_5radio6config4V1_19ModemInfoEEE",
   "name" : "android::hardware::details::hidl_pointer<android::hardware::radio::config::V1_1::ModemInfo> &",
   "referenced_type" : "_ZTIN7android8hardware7details12hidl_pointerINS0_5radio6config4V1_19ModemInfoEEE",
   "self_type" : "_ZTIRN7android8hardware7details12hidl_pointerINS0_5radio6config4V1_19ModemInfoEEE",
   "size" : 4,
   "source_file" : "/system/libhidl/base/include/hidl/HidlInternal.h"
  },
  {
   "alignment" : 4,
   "linker_set_key" : "_ZTIRN7android8hardware7details12hidl_pointerIjEE",
   "name" : "android::hardware::details::hidl_pointer<unsigned int> &",
   "referenced_type" : "_ZTIN7android8hardware7details12hidl_pointerIjEE",
   "self_type" : "_ZTIRN7android8hardware7details12hidl_pointerIjEE",
   "size" : 4,
   "source_file" : "/system/libhidl/base/include/hidl/HidlInternal.h"
  },
  {
   "alignment" : 4,
   "linker_set_key" : "_ZTIRN7android8hardware8hidl_vecINS0_10hidl_arrayIhLj32EJEEEEE",
   "name" : "android::hardware::hidl_vec<android::hardware::hidl_array<unsigned char, 32> > &",
   "referenced_type" : "_ZTIN7android8hardware8hidl_vecINS0_10hidl_arrayIhLj32EJEEEEE",
   "self_type" : "_ZTIRN7android8hardware8hidl_vecINS0_10hidl_arrayIhLj32EJEEEEE",
   "size" : 4,
   "source_file" : "/system/libhidl/base/include/hidl/HidlSupport.h"
  },
  {
   "alignment" : 4,
   "linker_set_key" : "_ZTIRN7android8hardware8hidl_vecINS0_11hidl_stringEEE",
   "name" : "android::hardware::hidl_vec<android::hardware::hidl_string> &",
   "referenced_type" : "_ZTIN7android8hardware8hidl_vecINS0_11hidl_stringEEE",
   "self_type" : "_ZTIRN7android8hardware8hidl_vecINS0_11hidl_stringEEE",
   "size" : 4,
   "source_file" : "/system/libhidl/base/include/hidl/HidlSupport.h"
  },
  {
   "alignment" : 4,
   "linker_set_key" : "_ZTIRN7android8hardware8hidl_vecINS0_5radio6config4V1_013SimSlotStatusEEE",
   "name" : "android::hardware::hidl_vec<android::hardware::radio::config::V1_0::SimSlotStatus> &",
   "referenced_type" : "_ZTIN7android8hardware8hidl_vecINS0_5radio6config4V1_013SimSlotStatusEEE",
   "self_type" : "_ZTIRN7android8hardware8hidl_vecINS0_5radio6config4V1_013SimSlotStatusEEE",
   "size" : 4,
   "source_file" : "/system/libhidl/base/include/hidl/HidlSupport.h"
  },
  {
   "alignment" : 4,
   "linker_set_key" : "_ZTIRN7android8hardware8hidl_vecINS0_5radio6config4V1_19ModemInfoEEE",
   "name" : "android::hardware::hidl_vec<android::hardware::radio::config::V1_1::ModemInfo> &",
   "referenced_type" : "_ZTIN7android8hardware8hidl_vecINS0_5radio6config4V1_19ModemInfoEEE",
   "self_type" : "_ZTIRN7android8hardware8hidl_vecINS0_5radio6config4V1_19ModemInfoEEE",
   "size" : 4,
   "source_file" : "/system/libhidl/base/include/hidl/HidlSupport.h"
  },
  {
   "alignment" : 4,
   "linker_set_key" : "_ZTIRN7android8hardware8hidl_vecIjEE",
   "name" : "android::hardware::hidl_vec<unsigned int> &",
   "referenced_type" : "_ZTIN7android8hardware8hidl_vecIjEE",
   "self_type" : "_ZTIRN7android8hardware8hidl_vecIjEE",
   "size" : 4,
   "source_file" : "/system/libhidl/base/include/hidl/HidlSupport.h"
  },
  {
   "alignment" : 4,
   "linker_set_key" : "_ZTIRh",
   "name" : "unsigned char &",
   "referenced_type" : "_ZTIh",
   "self_type" : "_ZTIRh",
   "size" : 4,
   "source_file" : "/out/soong/.intermediates/system/libhidl/transport/manager/1.0/android.hidl.manager@1.0_genc++_headers/gen/android/hidl/manager/1.0/IServiceManager.h"
  },
  {
   "alignment" : 4,
   "linker_set_key" : "_ZTIRi",
   "name" : "int &",
   "referenced_type" : "_ZTIi",
   "self_type" : "_ZTIRi",
   "size" : 4,
   "source_file" : "/out/soong/.intermediates/system/libhidl/transport/base/1.0/android.hidl.base@1.0_genc++_headers/gen/android/hidl/base/1.0/types.h"
  },
  {
   "alignment" : 4,
   "linker_set_key" : "_ZTIRj",
   "name" : "unsigned int &",
   "referenced_type" : "_ZTIj",
   "self_type" : "_ZTIRj",
   "size" : 4,
   "source_file" : "/system/libhidl/base/include/hidl/HidlInternal.h"
  }
 ],
 "pointer_types" :
 [
  {
   "alignment" : 4,
   "linker_set_key" : "_ZTIP13native_handle",
   "name" : "native_handle *",
   "referenced_type" : "_ZTI13native_handle",
   "self_type" : "_ZTIP13native_handle",
   "size" : 4,
   "source_file" : "/system/libhidl/base/include/hidl/HidlInternal.h"
  },
  {
   "alignment" : 4,
   "linker_set_key" : "_ZTIP18android_flex_plane",
   "name" : "android_flex_plane *",
   "referenced_type" : "_ZTI18android_flex_plane",
   "self_type" : "_ZTIP18android_flex_plane",
   "size" : 4,
   "source_file" : "/system/core/libsystem/include/system/graphics.h"
  },
  {
   "alignment" : 4,
   "linker_set_key" : "_ZTIP7log_msg",
   "name" : "log_msg *",
   "referenced_type" : "_ZTI7log_msg",
   "self_type" : "_ZTIP7log_msg",
   "size" : 4,
   "source_file" : "/system/core/liblog/include/log/log_read.h"
  },
  {
   "alignment" : 4,
   "linker_set_key" : "_ZTIPFbRKN7android8String16ERKNS_2spINS_8hardware7IBinderEEEPvE",
   "name" : "bool (*)(const android::String16 &, const android::sp<android::hardware::IBinder> &, void *)",
   "referenced_type" : "_ZTIFbRKN7android8String16ERKNS_2spINS_8hardware7IBinderEEEPvE",
   "self_type" : "_ZTIPFbRKN7android8String16ERKNS_2spINS_8hardware7IBinderEEEPvE",
   "size" : 4,
   "source_file" : "/system/libhwbinder/include/hwbinder/ProcessState.h"
  },
  {
   "alignment" : 4,
   "linker_set_key" : "_ZTIPFiPvE",
   "name" : "int (*)(void *)",
   "referenced_type" : "_ZTIFiPvE",
   "self_type" : "_ZTIPFiPvE",
   "size" : 4,
   "source_file" : "/system/core/libutils/include/utils/AndroidThreads.h"
  },
  {
   "alignment" : 4,
   "linker_set_key" : "_ZTIPFvPN7android8hardware6ParcelEPKhjPKyjPvE",
   "name" : "void (*)(android::hardware::Parcel *, const unsigned char *, unsigned int, const unsigned long long *, unsigned int, void *)",
   "referenced_type" : "_ZTIFvPN7android8hardware6ParcelEPKhjPKyjPvE",
   "self_type" : "_ZTIPFvPN7android8hardware6ParcelEPKhjPKyjPvE",
   "size" : 4,
   "source_file" : "/system/libhwbinder/include/hwbinder/Parcel.h"
  },
  {
   "alignment" : 4,
   "linker_set_key" : "_ZTIPK13native_handle",
   "name" : "const native_handle *",
   "referenced_type" : "_ZTIK13native_handle",
   "self_type" : "_ZTIPK13native_handle",
   "size" : 4,
   "source_file" : "/system/libhidl/base/include/hidl/HidlInternal.h"
  },
  {
   "alignment" : 4,
   "linker_set_key" : "_ZTIPK7log_msg",
   "name" : "const log_msg *",
   "referenced_type" : "_ZTIK7log_msg",
   "self_type" : "_ZTIPK7log_msg",
   "size" : 4,
   "source_file" : "/system/core/liblog/include/log/log_read.h"
  },
  {
   "alignment" : 4,
   "linker_set_key" : "_ZTIPKDs",
   "name" : "const char16_t *",
   "referenced_type" : "_ZTIKDs",
   "self_type" : "_ZTIPKDs",
   "size" : 4,
   "source_file" : "/system/core/libutils/include/utils/String16.h"
  },
  {
   "alignment" : 4,
   "linker_set_key" : "_ZTIPKN7android10VectorImplE",
   "name" : "const android::VectorImpl *",
   "referenced_type" : "_ZTIKN7android10VectorImplE",
   "self_type" : "_ZTIPKN7android10VectorImplE",
   "size" : 4,
   "source_file" : "/system/core/libutils/include/utils/VectorImpl.h"
  },
  {
   "alignment" : 4,
   "linker_set_key" : "_ZTIPKN7android12NativeHandleE",
   "name" : "const android::NativeHandle *",
   "referenced_type" : "_ZTIKN7android12NativeHandleE",
   "self_type" : "_ZTIPKN7android12NativeHandleE",
   "size" : 4,
   "source_file" : "/system/core/libutils/include/utils/NativeHandle.h"
  },
  {
   "alignment" : 4,
   "linker_set_key" : "_ZTIPKN7android2spINS_4hidl4base4V1_05IBaseEEE",
   "name" : "const android::sp<android::hidl::base::V1_0::IBase> *",
   "referenced_type" : "_ZTIKN7android2spINS_4hidl4base4V1_05IBaseEEE",
   "self_type" : "_ZTIPKN7android2spINS_4hidl4base4V1_05IBaseEEE",
   "size" : 4,
   "source_file" : "/system/core/libutils/include/utils/StrongPointer.h"
  },
  {
   "alignment" : 4,
   "linker_set_key" : "_ZTIPKN7android2spINS_4hidl7manager4V1_015IServiceManagerEEE",
   "name" : "const android::sp<android::hidl::manager::V1_0::IServiceManager> *",
   "referenced_type" : "_ZTIKN7android2spINS_4hidl7manager4V1_015IServiceManagerEEE",
   "self_type" : "_ZTIPKN7android2spINS_4hidl7manager4V1_015IServiceManagerEEE",
   "size" : 4,
   "source_file" : "/system/core/libutils/include/utils/StrongPointer.h"
  },
  {
   "alignment" : 4,
   "linker_set_key" : "_ZTIPKN7android2spINS_4hidl7manager4V1_020IServiceNotificationEEE",
   "name" : "const android::sp<android::hidl::manager::V1_0::IServiceNotification> *",
   "referenced_type" : "_ZTIKN7android2spINS_4hidl7manager4V1_020IServiceNotificationEEE",
   "self_type" : "_ZTIPKN7android2spINS_4hidl7manager4V1_020IServiceNotificationEEE",
   "size" : 4,
   "source_file" : "/system/core/libutils/include/utils/StrongPointer.h"
  },
  {
   "alignment" : 4,
   "linker_set_key" : "_ZTIPKN7android2spINS_8hardware12ProcessStateEEE",
   "name" : "const android::sp<android::hardware::ProcessState> *",
   "referenced_type" : "_ZTIKN7android2spINS_8hardware12ProcessStateEEE",
   "self_type" : "_ZTIPKN7android2spINS_8hardware12ProcessStateEEE",
   "size" : 4,
   "source_file" : "/system/core/libutils/include/utils/StrongPointer.h"
  },
  {
   "alignment" : 4,
   "linker_set_key" : "_ZTIPKN7android2spINS_8hardware20hidl_death_recipientEEE",
   "name" : "const android::sp<android::hardware::hidl_death_recipient> *",
   "referenced_type" : "_ZTIKN7android2spINS_8hardware20hidl_death_recipientEEE",
   "self_type" : "_ZTIPKN7android2spINS_8hardware20hidl_death_recipientEEE",
   "size" : 4,
   "source_file" : "/system/core/libutils/include/utils/StrongPointer.h"
  },
  {
   "alignment" : 4,
   "linker_set_key" : "_ZTIPKN7android2spINS_8hardware27hidl_binder_death_recipientEEE",
   "name" : "const android::sp<android::hardware::hidl_binder_death_recipient> *",
   "referenced_type" : "_ZTIKN7android2spINS_8hardware27hidl_binder_death_recipientEEE",
   "self_type" : "_ZTIPKN7android2spINS_8hardware27hidl_binder_death_recipientEEE",
   "size" : 4,
   "source_file" : "/system/core/libutils/include/utils/StrongPointer.h"
  },
  {
   "alignment" : 4,
   "linker_set_key" : "_ZTIPKN7android2spINS_8hardware5radio6config4V1_012IRadioConfigEEE",
   "name" : "const android::sp<android::hardware::radio::config::V1_0::IRadioConfig> *",
   "referenced_type" : "_ZTIKN7android2spINS_8hardware5radio6config4V1_012IRadioConfigEEE",
   "self_type" : "_ZTIPKN7android2spINS_8hardware5radio6config4V1_012IRadioConfigEEE",
   "size" : 4,
   "source_file" : "/system/core/libutils/include/utils/StrongPointer.h"
  },
  {
   "alignment" : 4,
   "linker_set_key" : "_ZTIPKN7android2spINS_8hardware5radio6config4V1_020IRadioConfigResponseEEE",
   "name" : "const android::sp<android::hardware::radio::config::V1_0::IRadioConfigResponse> *",
   "referenced_type" : "_ZTIKN7android2spINS_8hardware5radio6config4V1_020IRadioConfigResponseEEE",
   "self_type" : "_ZTIPKN7android2spINS_8hardware5radio6config4V1_020IRadioConfigResponseEEE",
   "size" : 4,
   "source_file" : "/system/core/libutils/include/utils/StrongPointer.h"
  },
  {
   "alignment" : 4,
   "linker_set_key" : "_ZTIPKN7android2spINS_8hardware5radio6config4V1_022IRadioConfigIndicationEEE",
   "name" : "const android::sp<android::hardware::radio::config::V1_0::IRadioConfigIndication> *",
   "referenced_type" : "_ZTIKN7android2spINS_8hardware5radio6config4V1_022IRadioConfigIndicationEEE",
   "self_type" : "_ZTIPKN7android2spINS_8hardware5radio6config4V1_022IRadioConfigIndicationEEE",
   "size" : 4,
   "source_file" : "/system/core/libutils/include/utils/StrongPointer.h"
  },
  {
   "alignment" : 4,
   "linker_set_key" : "_ZTIPKN7android2spINS_8hardware5radio6config4V1_112IRadioConfigEEE",
   "name" : "const android::sp<android::hardware::radio::config::V1_1::IRadioConfig> *",
   "referenced_type" : "_ZTIKN7android2spINS_8hardware5radio6config4V1_112IRadioConfigEEE",
   "self_type" : "_ZTIPKN7android2spINS_8hardware5radio6config4V1_112IRadioConfigEEE",
   "size" : 4,
   "source_file" : "/system/core/libutils/include/utils/StrongPointer.h"
  },
  {
   "alignment" : 4,
   "linker_set_key" : "_ZTIPKN7android2spINS_8hardware5radio6config4V1_120IRadioConfigResponseEEE",
   "name" : "const android::sp<android::hardware::radio::config::V1_1::IRadioConfigResponse> *",
   "referenced_type" : "_ZTIKN7android2spINS_8hardware5radio6config4V1_120IRadioConfigResponseEEE",
   "self_type" : "_ZTIPKN7android2spINS_8hardware5radio6config4V1_120IRadioConfigResponseEEE",
   "size" : 4,
   "source_file" : "/system/core/libutils/include/utils/StrongPointer.h"
  },
  {
   "alignment" : 4,
   "linker_set_key" : "_ZTIPKN7android2spINS_8hardware5radio6config4V1_122IRadioConfigIndicationEEE",
   "name" : "const android::sp<android::hardware::radio::config::V1_1::IRadioConfigIndication> *",
   "referenced_type" : "_ZTIKN7android2spINS_8hardware5radio6config4V1_122IRadioConfigIndicationEEE",
   "self_type" : "_ZTIPKN7android2spINS_8hardware5radio6config4V1_122IRadioConfigIndicationEEE",
   "size" : 4,
   "source_file" : "/system/core/libutils/include/utils/StrongPointer.h"
  },
  {
   "alignment" : 4,
   "linker_set_key" : "_ZTIPKN7android2spINS_8hardware7IBinderEEE",
   "name" : "const android::sp<android::hardware::IBinder> *",
   "referenced_type" : "_ZTIKN7android2spINS_8hardware7IBinderEEE",
   "self_type" : "_ZTIPKN7android2spINS_8hardware7IBinderEEE",
   "size" : 4,
   "source_file" : "/system/core/libutils/include/utils/StrongPointer.h"
  },
  {
   "alignment" : 4,
   "linker_set_key" : "_ZTIPKN7android2wpINS_8hardware20hidl_death_recipientEEE",
   "name" : "const android::wp<android::hardware::hidl_death_recipient> *",
   "referenced_type" : "_ZTIKN7android2wpINS_8hardware20hidl_death_recipientEEE",
   "self_type" : "_ZTIPKN7android2wpINS_8hardware20hidl_death_recipientEEE",
   "size" : 4,
   "source_file" : "/system/core/libutils/include/utils/RefBase.h"
  },
  {
   "alignment" : 4,
   "linker_set_key" : "_ZTIPKN7android2wpINS_8hardware9BHwBinderEEE",
   "name" : "const android::wp<android::hardware::BHwBinder> *",
   "referenced_type" : "_ZTIKN7android2wpINS_8hardware9BHwBinderEEE",
   "self_type" : "_ZTIPKN7android2wpINS_8hardware9BHwBinderEEE",
   "size" : 4,
   "source_file" : "/system/core/libutils/include/utils/RefBase.h"
  },
  {
   "alignment" : 4,
   "linker_set_key" : "_ZTIPKN7android4hidl4base4V1_05IBaseE",
   "name" : "const android::hidl::base::V1_0::IBase *",
   "referenced_type" : "_ZTIKN7android4hidl4base4V1_05IBaseE",
   "self_type" : "_ZTIPKN7android4hidl4base4V1_05IBaseE",
   "size" : 4,
   "source_file" : "/out/soong/.intermediates/system/libhidl/transport/base/1.0/android.hidl.base@1.0_genc++_headers/gen/android/hidl/base/1.0/IBase.h"
  },
  {
   "alignment" : 4,
   "linker_set_key" : "_ZTIPKN7android4hidl4base4V1_08BpHwBaseE",
   "name" : "const android::hidl::base::V1_0::BpHwBase *",
   "referenced_type" : "_ZTIKN7android4hidl4base4V1_08BpHwBaseE",
   "self_type" : "_ZTIPKN7android4hidl4base4V1_08BpHwBaseE",
   "size" : 4,
   "source_file" : "/out/soong/.intermediates/system/libhidl/transport/base/1.0/android.hidl.base@1.0_genc++_headers/gen/android/hidl/base/1.0/BpHwBase.h"
  },
  {
   "alignment" : 4,
   "linker_set_key" : "_ZTIPKN7android4hidl7manager4V1_015IServiceManagerE",
   "name" : "const android::hidl::manager::V1_0::IServiceManager *",
   "referenced_type" : "_ZTIKN7android4hidl7manager4V1_015IServiceManagerE",
   "self_type" : "_ZTIPKN7android4hidl7manager4V1_015IServiceManagerE",
   "size" : 4,
   "source_file" : "/out/soong/.intermediates/system/libhidl/transport/manager/1.0/android.hidl.manager@1.0_genc++_headers/gen/android/hidl/manager/1.0/IServiceManager.h"
  },
  {
   "alignment" : 4,
   "linker_set_key" : "_ZTIPKN7android4hidl7manager4V1_020IServiceNotificationE",
   "name" : "const android::hidl::manager::V1_0::IServiceNotification *",
   "referenced_type" : "_ZTIKN7android4hidl7manager4V1_020IServiceNotificationE",
   "self_type" : "_ZTIPKN7android4hidl7manager4V1_020IServiceNotificationE",
   "size" : 4,
   "source_file" : "/out/soong/.intermediates/system/libhidl/transport/manager/1.0/android.hidl.manager@1.0_genc++_headers/gen/android/hidl/manager/1.0/IServiceNotification.h"
  },
  {
   "alignment" : 4,
   "linker_set_key" : "_ZTIPKN7android7RefBaseE",
   "name" : "const android::RefBase *",
   "referenced_type" : "_ZTIKN7android7RefBaseE",
   "self_type" : "_ZTIPKN7android7RefBaseE",
   "size" : 4,
   "source_file" : "/system/core/libutils/include/utils/RefBase.h"
  },
  {
   "alignment" : 4,
   "linker_set_key" : "_ZTIPKN7android7String8E",
   "name" : "const android::String8 *",
   "referenced_type" : "_ZTIKN7android7String8E",
   "self_type" : "_ZTIPKN7android7String8E",
   "size" : 4,
   "source_file" : "/system/core/libutils/include/utils/String8.h"
  },
  {
   "alignment" : 4,
   "linker_set_key" : "_ZTIPKN7android8String16E",
   "name" : "const android::String16 *",
   "referenced_type" : "_ZTIKN7android8String16E",
   "self_type" : "_ZTIPKN7android8String16E",
   "size" : 4,
   "source_file" : "/system/core/libutils/include/utils/String16.h"
  },
  {
   "alignment" : 4,
   "linker_set_key" : "_ZTIPKN7android8hardware10hidl_arrayIjLj5EJEEE",
   "name" : "const android::hardware::hidl_array<unsigned int, 5> *",
   "referenced_type" : "_ZTIKN7android8hardware10hidl_arrayIjLj5EJEEE",
   "self_type" : "_ZTIPKN7android8hardware10hidl_arrayIjLj5EJEEE",
   "size" : 4,
   "source_file" : "/system/libhidl/base/include/hidl/HidlSupport.h"
  },
  {
   "alignment" : 4,
   "linker_set_key" : "_ZTIPKN7android8hardware11BpHwRefBaseE",
   "name" : "const android::hardware::BpHwRefBase *",
   "referenced_type" : "_ZTIKN7android8hardware11BpHwRefBaseE",
   "self_type" : "_ZTIPKN7android8hardware11BpHwRefBaseE",
   "size" : 4,
   "source_file" : "/system/libhwbinder/include/hwbinder/Binder.h"
  },
  {
   "alignment" : 4,
   "linker_set_key" : "_ZTIPKN7android8hardware11hidl_memoryE",
   "name" : "const android::hardware::hidl_memory *",
   "referenced_type" : "_ZTIKN7android8hardware11hidl_memoryE",
   "self_type" : "_ZTIPKN7android8hardware11hidl_memoryE",
   "size" : 4,
   "source_file" : "/system/libhidl/base/include/hidl/HidlSupport.h"
  },
  {
   "alignment" : 4,
   "linker_set_key" : "_ZTIPKN7android8hardware12hidl_versionE",
   "name" : "const android::hardware::hidl_version *",
   "referenced_type" : "_ZTIKN7android8hardware12hidl_versionE",
   "self_type" : "_ZTIPKN7android8hardware12hidl_versionE",
   "size" : 4,
   "source_file" : "/system/libhidl/base/include/hidl/HidlSupport.h"
  },
  {
   "alignment" : 4,
   "linker_set_key" : "_ZTIPKN7android8hardware5radio6config4V1_012IRadioConfigE",
   "name" : "const android::hardware::radio::config::V1_0::IRadioConfig *",
   "referenced_type" : "_ZTIKN7android8hardware5radio6config4V1_012IRadioConfigE",
   "self_type" : "_ZTIPKN7android8hardware5radio6config4V1_012IRadioConfigE",
   "size" : 4,
   "source_file" : "/out/soong/.intermediates/hardware/interfaces/radio/config/1.0/android.hardware.radio.config@1.0_genc++_headers/gen/android/hardware/radio/config/1.0/IRadioConfig.h"
  },
  {
   "alignment" : 4,
   "linker_set_key" : "_ZTIPKN7android8hardware5radio6config4V1_015BpHwRadioConfigE",
   "name" : "const android::hardware::radio::config::V1_0::BpHwRadioConfig *",
   "referenced_type" : "_ZTIKN7android8hardware5radio6config4V1_015BpHwRadioConfigE",
   "self_type" : "_ZTIPKN7android8hardware5radio6config4V1_015BpHwRadioConfigE",
   "size" : 4,
   "source_file" : "/out/soong/.intermediates/hardware/interfaces/radio/config/1.0/android.hardware.radio.config@1.0_genc++_headers/gen/android/hardware/radio/config/1.0/BpHwRadioConfig.h"
  },
  {
   "alignment" : 4,
   "linker_set_key" : "_ZTIPKN7android8hardware5radio6config4V1_020IRadioConfigResponseE",
   "name" : "const android::hardware::radio::config::V1_0::IRadioConfigResponse *",
   "referenced_type" : "_ZTIKN7android8hardware5radio6config4V1_020IRadioConfigResponseE",
   "self_type" : "_ZTIPKN7android8hardware5radio6config4V1_020IRadioConfigResponseE",
   "size" : 4,
   "source_file" : "/out/soong/.intermediates/hardware/interfaces/radio/config/1.0/android.hardware.radio.config@1.0_genc++_headers/gen/android/hardware/radio/config/1.0/IRadioConfigResponse.h"
  },
  {
   "alignment" : 4,
   "linker_set_key" : "_ZTIPKN7android8hardware5radio6config4V1_022IRadioConfigIndicationE",
   "name" : "const android::hardware::radio::config::V1_0::IRadioConfigIndication *",
   "referenced_type" : "_ZTIKN7android8hardware5radio6config4V1_022IRadioConfigIndicationE",
   "self_type" : "_ZTIPKN7android8hardware5radio6config4V1_022IRadioConfigIndicationE",
   "size" : 4,
   "source_file" : "/out/soong/.intermediates/hardware/interfaces/radio/config/1.0/android.hardware.radio.config@1.0_genc++_headers/gen/android/hardware/radio/config/1.0/IRadioConfigIndication.h"
  },
  {
   "alignment" : 4,
   "linker_set_key" : "_ZTIPKN7android8hardware5radio6config4V1_023BpHwRadioConfigResponseE",
   "name" : "const android::hardware::radio::config::V1_0::BpHwRadioConfigResponse *",
   "referenced_type" : "_ZTIKN7android8hardware5radio6config4V1_023BpHwRadioConfigResponseE",
   "self_type" : "_ZTIPKN7android8hardware5radio6config4V1_023BpHwRadioConfigResponseE",
   "size" : 4,
   "source_file" : "/out/soong/.intermediates/hardware/interfaces/radio/config/1.0/android.hardware.radio.config@1.0_genc++_headers/gen/android/hardware/radio/config/1.0/BpHwRadioConfigResponse.h"
  },
  {
   "alignment" : 4,
   "linker_set_key" : "_ZTIPKN7android8hardware5radio6config4V1_025BpHwRadioConfigIndicationE",
   "name" : "const android::hardware::radio::config::V1_0::BpHwRadioConfigIndication *",
   "referenced_type" : "_ZTIKN7android8hardware5radio6config4V1_025BpHwRadioConfigIndicationE",
   "self_type" : "_ZTIPKN7android8hardware5radio6config4V1_025BpHwRadioConfigIndicationE",
   "size" : 4,
   "source_file" : "/out/soong/.intermediates/hardware/interfaces/radio/config/1.0/android.hardware.radio.config@1.0_genc++_headers/gen/android/hardware/radio/config/1.0/BpHwRadioConfigIndication.h"
  },
  {
   "alignment" : 4,
   "linker_set_key" : "_ZTIPKN7android8hardware5radio6config4V1_112IRadioConfigE",
   "name" : "const android::hardware::radio::config::V1_1::IRadioConfig *",
   "referenced_type" : "_ZTIKN7android8hardware5radio6config4V1_112IRadioConfigE",
   "self_type" : "_ZTIPKN7android8hardware5radio6config4V1_112IRadioConfigE",
   "size" : 4,
   "source_file" : "/out/soong/.intermediates/hardware/interfaces/radio/config/1.1/android.hardware.radio.config@1.1_genc++_headers/gen/android/hardware/radio/config/1.1/IRadioConfig.h"
  },
  {
   "alignment" : 4,
   "linker_set_key" : "_ZTIPKN7android8hardware5radio6config4V1_115BpHwRadioConfigE",
   "name" : "const android::hardware::radio::config::V1_1::BpHwRadioConfig *",
   "referenced_type" : "_ZTIKN7android8hardware5radio6config4V1_115BpHwRadioConfigE",
   "self_type" : "_ZTIPKN7android8hardware5radio6config4V1_115BpHwRadioConfigE",
   "size" : 4,
   "source_file" : "/out/soong/.intermediates/hardware/interfaces/radio/config/1.1/android.hardware.radio.config@1.1_genc++_headers/gen/android/hardware/radio/config/1.1/BpHwRadioConfig.h"
  },
  {
   "alignment" : 4,
   "linker_set_key" : "_ZTIPKN7android8hardware5radio6config4V1_120IRadioConfigResponseE",
   "name" : "const android::hardware::radio::config::V1_1::IRadioConfigResponse *",
   "referenced_type" : "_ZTIKN7android8hardware5radio6config4V1_120IRadioConfigResponseE",
   "self_type" : "_ZTIPKN7android8hardware5radio6config4V1_120IRadioConfigResponseE",
   "size" : 4,
   "source_file" : "/out/soong/.intermediates/hardware/interfaces/radio/config/1.1/android.hardware.radio.config@1.1_genc++_headers/gen/android/hardware/radio/config/1.1/IRadioConfigResponse.h"
  },
  {
   "alignment" : 4,
   "linker_set_key" : "_ZTIPKN7android8hardware5radio6config4V1_122IRadioConfigIndicationE",
   "name" : "const android::hardware::radio::config::V1_1::IRadioConfigIndication *",
   "referenced_type" : "_ZTIKN7android8hardware5radio6config4V1_122IRadioConfigIndicationE",
   "self_type" : "_ZTIPKN7android8hardware5radio6config4V1_122IRadioConfigIndicationE",
   "size" : 4,
   "source_file" : "/out/soong/.intermediates/hardware/interfaces/radio/config/1.1/android.hardware.radio.config@1.1_genc++_headers/gen/android/hardware/radio/config/1.1/IRadioConfigIndication.h"
  },
  {
   "alignment" : 4,
   "linker_set_key" : "_ZTIPKN7android8hardware5radio6config4V1_123BpHwRadioConfigResponseE",
   "name" : "const android::hardware::radio::config::V1_1::BpHwRadioConfigResponse *",
   "referenced_type" : "_ZTIKN7android8hardware5radio6config4V1_123BpHwRadioConfigResponseE",
   "self_type" : "_ZTIPKN7android8hardware5radio6config4V1_123BpHwRadioConfigResponseE",
   "size" : 4,
   "source_file" : "/out/soong/.intermediates/hardware/interfaces/radio/config/1.1/android.hardware.radio.config@1.1_genc++_headers/gen/android/hardware/radio/config/1.1/BpHwRadioConfigResponse.h"
  },
  {
   "alignment" : 4,
   "linker_set_key" : "_ZTIPKN7android8hardware5radio6config4V1_125BpHwRadioConfigIndicationE",
   "name" : "const android::hardware::radio::config::V1_1::BpHwRadioConfigIndication *",
   "referenced_type" : "_ZTIKN7android8hardware5radio6config4V1_125BpHwRadioConfigIndicationE",
   "self_type" : "_ZTIPKN7android8hardware5radio6config4V1_125BpHwRadioConfigIndicationE",
   "size" : 4,
   "source_file" : "/out/soong/.intermediates/hardware/interfaces/radio/config/1.1/android.hardware.radio.config@1.1_genc++_headers/gen/android/hardware/radio/config/1.1/BpHwRadioConfigIndication.h"
  },
  {
   "alignment" : 4,
   "linker_set_key" : "_ZTIPKN7android8hardware5radio6config4V1_19ModemInfoE",
   "name" : "const android::hardware::radio::config::V1_1::ModemInfo *",
   "referenced_type" : "_ZTIKN7android8hardware5radio6config4V1_19ModemInfoE",
   "self_type" : "_ZTIPKN7android8hardware5radio6config4V1_19ModemInfoE",
   "size" : 4,
   "source_file" : "/system/libhidl/base/include/hidl/HidlSupport.h"
  },
  {
   "alignment" : 4,
   "linker_set_key" : "_ZTIPKN7android8hardware6ReturnINS_2spINS0_5radio6config4V1_112IRadioConfigEEEEE",
   "name" : "const android::hardware::Return<android::sp<android::hardware::radio::config::V1_1::IRadioConfig> > *",
   "referenced_type" : "_ZTIKN7android8hardware6ReturnINS_2spINS0_5radio6config4V1_112IRadioConfigEEEEE",
   "self_type" : "_ZTIPKN7android8hardware6ReturnINS_2spINS0_5radio6config4V1_112IRadioConfigEEEEE",
   "size" : 4,
   "source_file" : "/system/libhidl/base/include/hidl/Status.h"
  },
  {
   "alignment" : 4,
   "linker_set_key" : "_ZTIPKN7android8hardware6ReturnINS_2spINS0_5radio6config4V1_120IRadioConfigResponseEEEEE",
   "name" : "const android::hardware::Return<android::sp<android::hardware::radio::config::V1_1::IRadioConfigResponse> > *",
   "referenced_type" : "_ZTIKN7android8hardware6ReturnINS_2spINS0_5radio6config4V1_120IRadioConfigResponseEEEEE",
   "self_type" : "_ZTIPKN7android8hardware6ReturnINS_2spINS0_5radio6config4V1_120IRadioConfigResponseEEEEE",
   "size" : 4,
   "source_file" : "/system/libhidl/base/include/hidl/Status.h"
  },
  {
   "alignment" : 4,
   "linker_set_key" : "_ZTIPKN7android8hardware6ReturnINS_2spINS0_5radio6config4V1_122IRadioConfigIndicationEEEEE",
   "name" : "const android::hardware::Return<android::sp<android::hardware::radio::config::V1_1::IRadioConfigIndication> > *",
   "referenced_type" : "_ZTIKN7android8hardware6ReturnINS_2spINS0_5radio6config4V1_122IRadioConfigIndicationEEEEE",
   "self_type" : "_ZTIPKN7android8hardware6ReturnINS_2spINS0_5radio6config4V1_122IRadioConfigIndicationEEEEE",
   "size" : 4,
   "source_file" : "/system/libhidl/base/include/hidl/Status.h"
  },
  {
   "alignment" : 4,
   "linker_set_key" : "_ZTIPKN7android8hardware6ReturnIbEE",
   "name" : "const android::hardware::Return<bool> *",
   "referenced_type" : "_ZTIKN7android8hardware6ReturnIbEE",
   "self_type" : "_ZTIPKN7android8hardware6ReturnIbEE",
   "size" : 4,
   "source_file" : "/system/libhidl/base/include/hidl/Status.h"
  },
  {
   "alignment" : 4,
   "linker_set_key" : "_ZTIPKN7android8hardware6StatusE",
   "name" : "const android::hardware::Status *",
   "referenced_type" : "_ZTIKN7android8hardware6StatusE",
   "self_type" : "_ZTIPKN7android8hardware6StatusE",
   "size" : 4,
   "source_file" : "/system/libhidl/base/include/hidl/Status.h"
  },
  {
   "alignment" : 4,
   "linker_set_key" : "_ZTIPKN7android8hardware7details12hidl_pointerINS0_10hidl_arrayIhLj32EJEEEEE",
   "name" : "const android::hardware::details::hidl_pointer<android::hardware::hidl_array<unsigned char, 32> > *",
   "referenced_type" : "_ZTIKN7android8hardware7details12hidl_pointerINS0_10hidl_arrayIhLj32EJEEEEE",
   "self_type" : "_ZTIPKN7android8hardware7details12hidl_pointerINS0_10hidl_arrayIhLj32EJEEEEE",
   "size" : 4,
   "source_file" : "/system/libhidl/base/include/hidl/HidlInternal.h"
  },
  {
   "alignment" : 4,
   "linker_set_key" : "_ZTIPKN7android8hardware7details12hidl_pointerINS0_11hidl_stringEEE",
   "name" : "const android::hardware::details::hidl_pointer<android::hardware::hidl_string> *",
   "referenced_type" : "_ZTIKN7android8hardware7details12hidl_pointerINS0_11hidl_stringEEE",
   "self_type" : "_ZTIPKN7android8hardware7details12hidl_pointerINS0_11hidl_stringEEE",
   "size" : 4,
   "source_file" : "/system/libhidl/base/include/hidl/HidlInternal.h"
  },
  {
   "alignment" : 4,
   "linker_set_key" : "_ZTIPKN7android8hardware7details12hidl_pointerINS0_5radio4V1_010SsInfoDataEEE",
   "name" : "const android::hardware::details::hidl_pointer<android::hardware::radio::V1_0::SsInfoData> *",
   "referenced_type" : "_ZTIKN7android8hardware7details12hidl_pointerINS0_5radio4V1_010SsInfoDataEEE",
   "self_type" : "_ZTIPKN7android8hardware7details12hidl_pointerINS0_5radio4V1_010SsInfoDataEEE",
   "size" : 4,
   "source_file" : "/system/libhidl/base/include/hidl/HidlInternal.h"
  },
  {
   "alignment" : 4,
   "linker_set_key" : "_ZTIPKN7android8hardware7details12hidl_pointerINS0_5radio4V1_011CellInfoGsmEEE",
   "name" : "const android::hardware::details::hidl_pointer<android::hardware::radio::V1_0::CellInfoGsm> *",
   "referenced_type" : "_ZTIKN7android8hardware7details12hidl_pointerINS0_5radio4V1_011CellInfoGsmEEE",
   "self_type" : "_ZTIPKN7android8hardware7details12hidl_pointerINS0_5radio4V1_011CellInfoGsmEEE",
   "size" : 4,
   "source_file" : "/system/libhidl/base/include/hidl/HidlInternal.h"
  },
  {
   "alignment" : 4,
   "linker_set_key" : "_ZTIPKN7android8hardware7details12hidl_pointerINS0_5radio4V1_011CellInfoLteEEE",
   "name" : "const android::hardware::details::hidl_pointer<android::hardware::radio::V1_0::CellInfoLte> *",
   "referenced_type" : "_ZTIKN7android8hardware7details12hidl_pointerINS0_5radio4V1_011CellInfoLteEEE",
   "self_type" : "_ZTIPKN7android8hardware7details12hidl_pointerINS0_5radio4V1_011CellInfoLteEEE",
   "size" : 4,
   "source_file" : "/system/libhidl/base/include/hidl/HidlInternal.h"
  },
  {
   "alignment" : 4,
   "linker_set_key" : "_ZTIPKN7android8hardware7details12hidl_pointerINS0_5radio4V1_012CellInfoCdmaEEE",
   "name" : "const android::hardware::details::hidl_pointer<android::hardware::radio::V1_0::CellInfoCdma> *",
   "referenced_type" : "_ZTIKN7android8hardware7details12hidl_pointerINS0_5radio4V1_012CellInfoCdmaEEE",
   "self_type" : "_ZTIPKN7android8hardware7details12hidl_pointerINS0_5radio4V1_012CellInfoCdmaEEE",
   "size" : 4,
   "source_file" : "/system/libhidl/base/include/hidl/HidlInternal.h"
  },
  {
   "alignment" : 4,
   "linker_set_key" : "_ZTIPKN7android8hardware7details12hidl_pointerINS0_5radio4V1_013CellInfoWcdmaEEE",
   "name" : "const android::hardware::details::hidl_pointer<android::hardware::radio::V1_0::CellInfoWcdma> *",
   "referenced_type" : "_ZTIKN7android8hardware7details12hidl_pointerINS0_5radio4V1_013CellInfoWcdmaEEE",
   "self_type" : "_ZTIPKN7android8hardware7details12hidl_pointerINS0_5radio4V1_013CellInfoWcdmaEEE",
   "size" : 4,
   "source_file" : "/system/libhidl/base/include/hidl/HidlInternal.h"
  },
  {
   "alignment" : 4,
   "linker_set_key" : "_ZTIPKN7android8hardware7details12hidl_pointerINS0_5radio4V1_013GsmSmsMessageEEE",
   "name" : "const android::hardware::details::hidl_pointer<android::hardware::radio::V1_0::GsmSmsMessage> *",
   "referenced_type" : "_ZTIKN7android8hardware7details12hidl_pointerINS0_5radio4V1_013GsmSmsMessageEEE",
   "self_type" : "_ZTIPKN7android8hardware7details12hidl_pointerINS0_5radio4V1_013GsmSmsMessageEEE",
   "size" : 4,
   "source_file" : "/system/libhidl/base/include/hidl/HidlInternal.h"
  },
  {
   "alignment" : 4,
   "linker_set_key" : "_ZTIPKN7android8hardware7details12hidl_pointerINS0_5radio4V1_014CdmaSmsMessageEEE",
   "name" : "const android::hardware::details::hidl_pointer<android::hardware::radio::V1_0::CdmaSmsMessage> *",
   "referenced_type" : "_ZTIKN7android8hardware7details12hidl_pointerINS0_5radio4V1_014CdmaSmsMessageEEE",
   "self_type" : "_ZTIPKN7android8hardware7details12hidl_pointerINS0_5radio4V1_014CdmaSmsMessageEEE",
   "size" : 4,
   "source_file" : "/system/libhidl/base/include/hidl/HidlInternal.h"
  },
  {
   "alignment" : 4,
   "linker_set_key" : "_ZTIPKN7android8hardware7details12hidl_pointerINS0_5radio4V1_015CallForwardInfoEEE",
   "name" : "const android::hardware::details::hidl_pointer<android::hardware::radio::V1_0::CallForwardInfo> *",
   "referenced_type" : "_ZTIKN7android8hardware7details12hidl_pointerINS0_5radio4V1_015CallForwardInfoEEE",
   "self_type" : "_ZTIPKN7android8hardware7details12hidl_pointerINS0_5radio4V1_015CallForwardInfoEEE",
   "size" : 4,
   "source_file" : "/system/libhidl/base/include/hidl/HidlInternal.h"
  },
  {
   "alignment" : 4,
   "linker_set_key" : "_ZTIPKN7android8hardware7details12hidl_pointerINS0_5radio4V1_015CellIdentityGsmEEE",
   "name" : "const android::hardware::details::hidl_pointer<android::hardware::radio::V1_0::CellIdentityGsm> *",
   "referenced_type" : "_ZTIKN7android8hardware7details12hidl_pointerINS0_5radio4V1_015CellIdentityGsmEEE",
   "self_type" : "_ZTIPKN7android8hardware7details12hidl_pointerINS0_5radio4V1_015CellIdentityGsmEEE",
   "size" : 4,
   "source_file" : "/system/libhidl/base/include/hidl/HidlInternal.h"
  },
  {
   "alignment" : 4,
   "linker_set_key" : "_ZTIPKN7android8hardware7details12hidl_pointerINS0_5radio4V1_015CellIdentityLteEEE",
   "name" : "const android::hardware::details::hidl_pointer<android::hardware::radio::V1_0::CellIdentityLte> *",
   "referenced_type" : "_ZTIKN7android8hardware7details12hidl_pointerINS0_5radio4V1_015CellIdentityLteEEE",
   "self_type" : "_ZTIPKN7android8hardware7details12hidl_pointerINS0_5radio4V1_015CellIdentityLteEEE",
   "size" : 4,
   "source_file" : "/system/libhidl/base/include/hidl/HidlInternal.h"
  },
  {
   "alignment" : 4,
   "linker_set_key" : "_ZTIPKN7android8hardware7details12hidl_pointerINS0_5radio4V1_015CellInfoTdscdmaEEE",
   "name" : "const android::hardware::details::hidl_pointer<android::hardware::radio::V1_0::CellInfoTdscdma> *",
   "referenced_type" : "_ZTIKN7android8hardware7details12hidl_pointerINS0_5radio4V1_015CellInfoTdscdmaEEE",
   "self_type" : "_ZTIPKN7android8hardware7details12hidl_pointerINS0_5radio4V1_015CellInfoTdscdmaEEE",
   "size" : 4,
   "source_file" : "/system/libhidl/base/include/hidl/HidlInternal.h"
  },
  {
   "alignment" : 4,
   "linker_set_key" : "_ZTIPKN7android8hardware7details12hidl_pointerINS0_5radio4V1_016CellIdentityCdmaEEE",
   "name" : "const android::hardware::details::hidl_pointer<android::hardware::radio::V1_0::CellIdentityCdma> *",
   "referenced_type" : "_ZTIKN7android8hardware7details12hidl_pointerINS0_5radio4V1_016CellIdentityCdmaEEE",
   "self_type" : "_ZTIPKN7android8hardware7details12hidl_pointerINS0_5radio4V1_016CellIdentityCdmaEEE",
   "size" : 4,
   "source_file" : "/system/libhidl/base/include/hidl/HidlInternal.h"
  },
  {
   "alignment" : 4,
   "linker_set_key" : "_ZTIPKN7android8hardware7details12hidl_pointerINS0_5radio4V1_017CellIdentityWcdmaEEE",
   "name" : "const android::hardware::details::hidl_pointer<android::hardware::radio::V1_0::CellIdentityWcdma> *",
   "referenced_type" : "_ZTIKN7android8hardware7details12hidl_pointerINS0_5radio4V1_017CellIdentityWcdmaEEE",
   "self_type" : "_ZTIPKN7android8hardware7details12hidl_pointerINS0_5radio4V1_017CellIdentityWcdmaEEE",
   "size" : 4,
   "source_file" : "/system/libhidl/base/include/hidl/HidlInternal.h"
  },
  {
   "alignment" : 4,
   "linker_set_key" : "_ZTIPKN7android8hardware7details12hidl_pointerINS0_5radio4V1_017HardwareConfigSimEEE",
   "name" : "const android::hardware::details::hidl_pointer<android::hardware::radio::V1_0::HardwareConfigSim> *",
   "referenced_type" : "_ZTIKN7android8hardware7details12hidl_pointerINS0_5radio4V1_017HardwareConfigSimEEE",
   "self_type" : "_ZTIPKN7android8hardware7details12hidl_pointerINS0_5radio4V1_017HardwareConfigSimEEE",
   "size" : 4,
   "source_file" : "/system/libhidl/base/include/hidl/HidlInternal.h"
  },
  {
   "alignment" : 4,
   "linker_set_key" : "_ZTIPKN7android8hardware7details12hidl_pointerINS0_5radio4V1_019CellIdentityTdscdmaEEE",
   "name" : "const android::hardware::details::hidl_pointer<android::hardware::radio::V1_0::CellIdentityTdscdma> *",
   "referenced_type" : "_ZTIKN7android8hardware7details12hidl_pointerINS0_5radio4V1_019CellIdentityTdscdmaEEE",
   "self_type" : "_ZTIPKN7android8hardware7details12hidl_pointerINS0_5radio4V1_019CellIdentityTdscdmaEEE",
   "size" : 4,
   "source_file" : "/system/libhidl/base/include/hidl/HidlInternal.h"
  },
  {
   "alignment" : 4,
   "linker_set_key" : "_ZTIPKN7android8hardware7details12hidl_pointerINS0_5radio4V1_019HardwareConfigModemEEE",
   "name" : "const android::hardware::details::hidl_pointer<android::hardware::radio::V1_0::HardwareConfigModem> *",
   "referenced_type" : "_ZTIKN7android8hardware7details12hidl_pointerINS0_5radio4V1_019HardwareConfigModemEEE",
   "self_type" : "_ZTIPKN7android8hardware7details12hidl_pointerINS0_5radio4V1_019HardwareConfigModemEEE",
   "size" : 4,
   "source_file" : "/system/libhidl/base/include/hidl/HidlInternal.h"
  },
  {
   "alignment" : 4,
   "linker_set_key" : "_ZTIPKN7android8hardware7details12hidl_pointerINS0_5radio4V1_020CdmaNumberInfoRecordEEE",
   "name" : "const android::hardware::details::hidl_pointer<android::hardware::radio::V1_0::CdmaNumberInfoRecord> *",
   "referenced_type" : "_ZTIKN7android8hardware7details12hidl_pointerINS0_5radio4V1_020CdmaNumberInfoRecordEEE",
   "self_type" : "_ZTIPKN7android8hardware7details12hidl_pointerINS0_5radio4V1_020CdmaNumberInfoRecordEEE",
   "size" : 4,
   "source_file" : "/system/libhidl/base/include/hidl/HidlInternal.h"
  },
  {
   "alignment" : 4,
   "linker_set_key" : "_ZTIPKN7android8hardware7details12hidl_pointerINS0_5radio4V1_020CdmaSignalInfoRecordEEE",
   "name" : "const android::hardware::details::hidl_pointer<android::hardware::radio::V1_0::CdmaSignalInfoRecord> *",
   "referenced_type" : "_ZTIKN7android8hardware7details12hidl_pointerINS0_5radio4V1_020CdmaSignalInfoRecordEEE",
   "self_type" : "_ZTIPKN7android8hardware7details12hidl_pointerINS0_5radio4V1_020CdmaSignalInfoRecordEEE",
   "size" : 4,
   "source_file" : "/system/libhidl/base/include/hidl/HidlInternal.h"
  },
  {
   "alignment" : 4,
   "linker_set_key" : "_ZTIPKN7android8hardware7details12hidl_pointerINS0_5radio4V1_021CdmaDisplayInfoRecordEEE",
   "name" : "const android::hardware::details::hidl_pointer<android::hardware::radio::V1_0::CdmaDisplayInfoRecord> *",
   "referenced_type" : "_ZTIKN7android8hardware7details12hidl_pointerINS0_5radio4V1_021CdmaDisplayInfoRecordEEE",
   "self_type" : "_ZTIPKN7android8hardware7details12hidl_pointerINS0_5radio4V1_021CdmaDisplayInfoRecordEEE",
   "size" : 4,
   "source_file" : "/system/libhidl/base/include/hidl/HidlInternal.h"
  },
  {
   "alignment" : 4,
   "linker_set_key" : "_ZTIPKN7android8hardware7details12hidl_pointerINS0_5radio4V1_021CdmaInformationRecordEEE",
   "name" : "const android::hardware::details::hidl_pointer<android::hardware::radio::V1_0::CdmaInformationRecord> *",
   "referenced_type" : "_ZTIKN7android8hardware7details12hidl_pointerINS0_5radio4V1_021CdmaInformationRecordEEE",
   "self_type" : "_ZTIPKN7android8hardware7details12hidl_pointerINS0_5radio4V1_021CdmaInformationRecordEEE",
   "size" : 4,
   "source_file" : "/system/libhidl/base/include/hidl/HidlInternal.h"
  },
  {
   "alignment" : 4,
   "linker_set_key" : "_ZTIPKN7android8hardware7details12hidl_pointerINS0_5radio4V1_021CdmaT53ClirInfoRecordEEE",
   "name" : "const android::hardware::details::hidl_pointer<android::hardware::radio::V1_0::CdmaT53ClirInfoRecord> *",
   "referenced_type" : "_ZTIKN7android8hardware7details12hidl_pointerINS0_5radio4V1_021CdmaT53ClirInfoRecordEEE",
   "self_type" : "_ZTIPKN7android8hardware7details12hidl_pointerINS0_5radio4V1_021CdmaT53ClirInfoRecordEEE",
   "size" : 4,
   "source_file" : "/system/libhidl/base/include/hidl/HidlInternal.h"
  },
  {
   "alignment" : 4,
   "linker_set_key" : "_ZTIPKN7android8hardware7details12hidl_pointerINS0_5radio4V1_025CdmaLineControlInfoRecordEEE",
   "name" : "const android::hardware::details::hidl_pointer<android::hardware::radio::V1_0::CdmaLineControlInfoRecord> *",
   "referenced_type" : "_ZTIKN7android8hardware7details12hidl_pointerINS0_5radio4V1_025CdmaLineControlInfoRecordEEE",
   "self_type" : "_ZTIPKN7android8hardware7details12hidl_pointerINS0_5radio4V1_025CdmaLineControlInfoRecordEEE",
   "size" : 4,
   "source_file" : "/system/libhidl/base/include/hidl/HidlInternal.h"
  },
  {
   "alignment" : 4,
   "linker_set_key" : "_ZTIPKN7android8hardware7details12hidl_pointerINS0_5radio4V1_029CdmaT53AudioControlInfoRecordEEE",
   "name" : "const android::hardware::details::hidl_pointer<android::hardware::radio::V1_0::CdmaT53AudioControlInfoRecord> *",
   "referenced_type" : "_ZTIKN7android8hardware7details12hidl_pointerINS0_5radio4V1_029CdmaT53AudioControlInfoRecordEEE",
   "self_type" : "_ZTIPKN7android8hardware7details12hidl_pointerINS0_5radio4V1_029CdmaT53AudioControlInfoRecordEEE",
   "size" : 4,
   "source_file" : "/system/libhidl/base/include/hidl/HidlInternal.h"
  },
  {
   "alignment" : 4,
   "linker_set_key" : "_ZTIPKN7android8hardware7details12hidl_pointerINS0_5radio4V1_031CdmaRedirectingNumberInfoRecordEEE",
   "name" : "const android::hardware::details::hidl_pointer<android::hardware::radio::V1_0::CdmaRedirectingNumberInfoRecord> *",
   "referenced_type" : "_ZTIKN7android8hardware7details12hidl_pointerINS0_5radio4V1_031CdmaRedirectingNumberInfoRecordEEE",
   "self_type" : "_ZTIPKN7android8hardware7details12hidl_pointerINS0_5radio4V1_031CdmaRedirectingNumberInfoRecordEEE",
   "size" : 4,
   "source_file" : "/system/libhidl/base/include/hidl/HidlInternal.h"
  },
  {
   "alignment" : 4,
   "linker_set_key" : "_ZTIPKN7android8hardware7details12hidl_pointerINS0_5radio4V1_06CfDataEEE",
   "name" : "const android::hardware::details::hidl_pointer<android::hardware::radio::V1_0::CfData> *",
   "referenced_type" : "_ZTIKN7android8hardware7details12hidl_pointerINS0_5radio4V1_06CfDataEEE",
   "self_type" : "_ZTIPKN7android8hardware7details12hidl_pointerINS0_5radio4V1_06CfDataEEE",
   "size" : 4,
   "source_file" : "/system/libhidl/base/include/hidl/HidlInternal.h"
  },
  {
   "alignment" : 4,
   "linker_set_key" : "_ZTIPKN7android8hardware7details12hidl_pointerINS0_5radio4V1_07CarrierEEE",
   "name" : "const android::hardware::details::hidl_pointer<android::hardware::radio::V1_0::Carrier> *",
   "referenced_type" : "_ZTIKN7android8hardware7details12hidl_pointerINS0_5radio4V1_07CarrierEEE",
   "self_type" : "_ZTIPKN7android8hardware7details12hidl_pointerINS0_5radio4V1_07CarrierEEE",
   "size" : 4,
   "source_file" : "/system/libhidl/base/include/hidl/HidlInternal.h"
  },
  {
   "alignment" : 4,
   "linker_set_key" : "_ZTIPKN7android8hardware7details12hidl_pointerINS0_5radio4V1_07UusInfoEEE",
   "name" : "const android::hardware::details::hidl_pointer<android::hardware::radio::V1_0::UusInfo> *",
   "referenced_type" : "_ZTIKN7android8hardware7details12hidl_pointerINS0_5radio4V1_07UusInfoEEE",
   "self_type" : "_ZTIPKN7android8hardware7details12hidl_pointerINS0_5radio4V1_07UusInfoEEE",
   "size" : 4,
   "source_file" : "/system/libhidl/base/include/hidl/HidlInternal.h"
  },
  {
   "alignment" : 4,
   "linker_set_key" : "_ZTIPKN7android8hardware7details12hidl_pointerINS0_5radio4V1_09AppStatusEEE",
   "name" : "const android::hardware::details::hidl_pointer<android::hardware::radio::V1_0::AppStatus> *",
   "referenced_type" : "_ZTIKN7android8hardware7details12hidl_pointerINS0_5radio4V1_09AppStatusEEE",
   "self_type" : "_ZTIPKN7android8hardware7details12hidl_pointerINS0_5radio4V1_09AppStatusEEE",
   "size" : 4,
   "source_file" : "/system/libhidl/base/include/hidl/HidlInternal.h"
  },
  {
   "alignment" : 4,
   "linker_set_key" : "_ZTIPKN7android8hardware7details12hidl_pointerINS0_5radio6config4V1_013SimSlotStatusEEE",
   "name" : "const android::hardware::details::hidl_pointer<android::hardware::radio::config::V1_0::SimSlotStatus> *",
   "referenced_type" : "_ZTIKN7android8hardware7details12hidl_pointerINS0_5radio6config4V1_013SimSlotStatusEEE",
   "self_type" : "_ZTIPKN7android8hardware7details12hidl_pointerINS0_5radio6config4V1_013SimSlotStatusEEE",
   "size" : 4,
   "source_file" : "/system/libhidl/base/include/hidl/HidlInternal.h"
  },
  {
   "alignment" : 4,
   "linker_set_key" : "_ZTIPKN7android8hardware7details12hidl_pointerINS0_5radio6config4V1_19ModemInfoEEE",
   "name" : "const android::hardware::details::hidl_pointer<android::hardware::radio::config::V1_1::ModemInfo> *",
   "referenced_type" : "_ZTIKN7android8hardware7details12hidl_pointerINS0_5radio6config4V1_19ModemInfoEEE",
   "self_type" : "_ZTIPKN7android8hardware7details12hidl_pointerINS0_5radio6config4V1_19ModemInfoEEE",
   "size" : 4,
   "source_file" : "/system/libhidl/base/include/hidl/HidlInternal.h"
  },
  {
   "alignment" : 4,
   "linker_set_key" : "_ZTIPKN7android8hardware7details12hidl_pointerIhEE",
   "name" : "const android::hardware::details::hidl_pointer<unsigned char> *",
   "referenced_type" : "_ZTIKN7android8hardware7details12hidl_pointerIhEE",
   "self_type" : "_ZTIPKN7android8hardware7details12hidl_pointerIhEE",
   "size" : 4,
   "source_file" : "/system/libhidl/base/include/hidl/HidlInternal.h"
  },
  {
   "alignment" : 4,
   "linker_set_key" : "_ZTIPKN7android8hardware7details12hidl_pointerIiEE",
   "name" : "const android::hardware::details::hidl_pointer<int> *",
   "referenced_type" : "_ZTIKN7android8hardware7details12hidl_pointerIiEE",
   "self_type" : "_ZTIPKN7android8hardware7details12hidl_pointerIiEE",
   "size" : 4,
   "source_file" : "/system/libhidl/base/include/hidl/HidlInternal.h"
  },
  {
   "alignment" : 4,
   "linker_set_key" : "_ZTIPKN7android8hardware7details12hidl_pointerIjEE",
   "name" : "const android::hardware::details::hidl_pointer<unsigned int> *",
   "referenced_type" : "_ZTIKN7android8hardware7details12hidl_pointerIjEE",
   "self_type" : "_ZTIPKN7android8hardware7details12hidl_pointerIjEE",
   "size" : 4,
   "source_file" : "/system/libhidl/base/include/hidl/HidlInternal.h"
  },
  {
   "alignment" : 4,
   "linker_set_key" : "_ZTIPKN7android8hardware7details13return_statusE",
   "name" : "const android::hardware::details::return_status *",
   "referenced_type" : "_ZTIKN7android8hardware7details13return_statusE",
   "self_type" : "_ZTIPKN7android8hardware7details13return_statusE",
   "size" : 4,
   "source_file" : "/system/libhidl/base/include/hidl/Status.h"
  },
  {
   "alignment" : 4,
   "linker_set_key" : "_ZTIPKN7android8hardware7details14const_accessorIjLj5EJEEE",
   "name" : "const android::hardware::details::const_accessor<unsigned int, 5> *",
   "referenced_type" : "_ZTIKN7android8hardware7details14const_accessorIjLj5EJEEE",
   "self_type" : "_ZTIPKN7android8hardware7details14const_accessorIjLj5EJEEE",
   "size" : 4,
   "source_file" : "/system/libhidl/base/include/hidl/HidlSupport.h"
  },
  {
   "alignment" : 4,
   "linker_set_key" : "_ZTIPKN7android8hardware8hidl_vecINS0_5radio4V1_010SsInfoDataEEE",
   "name" : "const android::hardware::hidl_vec<android::hardware::radio::V1_0::SsInfoData> *",
   "referenced_type" : "_ZTIKN7android8hardware8hidl_vecINS0_5radio4V1_010SsInfoDataEEE",
   "self_type" : "_ZTIPKN7android8hardware8hidl_vecINS0_5radio4V1_010SsInfoDataEEE",
   "size" : 4,
   "source_file" : "/system/libhidl/base/include/hidl/HidlSupport.h"
  },
  {
   "alignment" : 4,
   "linker_set_key" : "_ZTIPKN7android8hardware8hidl_vecINS0_5radio4V1_011CellInfoGsmEEE",
   "name" : "const android::hardware::hidl_vec<android::hardware::radio::V1_0::CellInfoGsm> *",
   "referenced_type" : "_ZTIKN7android8hardware8hidl_vecINS0_5radio4V1_011CellInfoGsmEEE",
   "self_type" : "_ZTIPKN7android8hardware8hidl_vecINS0_5radio4V1_011CellInfoGsmEEE",
   "size" : 4,
   "source_file" : "/system/libhidl/base/include/hidl/HidlSupport.h"
  },
  {
   "alignment" : 4,
   "linker_set_key" : "_ZTIPKN7android8hardware8hidl_vecINS0_5radio4V1_011CellInfoLteEEE",
   "name" : "const android::hardware::hidl_vec<android::hardware::radio::V1_0::CellInfoLte> *",
   "referenced_type" : "_ZTIKN7android8hardware8hidl_vecINS0_5radio4V1_011CellInfoLteEEE",
   "self_type" : "_ZTIPKN7android8hardware8hidl_vecINS0_5radio4V1_011CellInfoLteEEE",
   "size" : 4,
   "source_file" : "/system/libhidl/base/include/hidl/HidlSupport.h"
  },
  {
   "alignment" : 4,
   "linker_set_key" : "_ZTIPKN7android8hardware8hidl_vecINS0_5radio4V1_012CellInfoCdmaEEE",
   "name" : "const android::hardware::hidl_vec<android::hardware::radio::V1_0::CellInfoCdma> *",
   "referenced_type" : "_ZTIKN7android8hardware8hidl_vecINS0_5radio4V1_012CellInfoCdmaEEE",
   "self_type" : "_ZTIPKN7android8hardware8hidl_vecINS0_5radio4V1_012CellInfoCdmaEEE",
   "size" : 4,
   "source_file" : "/system/libhidl/base/include/hidl/HidlSupport.h"
  },
  {
   "alignment" : 4,
   "linker_set_key" : "_ZTIPKN7android8hardware8hidl_vecINS0_5radio4V1_013CellInfoWcdmaEEE",
   "name" : "const android::hardware::hidl_vec<android::hardware::radio::V1_0::CellInfoWcdma> *",
   "referenced_type" : "_ZTIKN7android8hardware8hidl_vecINS0_5radio4V1_013CellInfoWcdmaEEE",
   "self_type" : "_ZTIPKN7android8hardware8hidl_vecINS0_5radio4V1_013CellInfoWcdmaEEE",
   "size" : 4,
   "source_file" : "/system/libhidl/base/include/hidl/HidlSupport.h"
  },
  {
   "alignment" : 4,
   "linker_set_key" : "_ZTIPKN7android8hardware8hidl_vecINS0_5radio4V1_013GsmSmsMessageEEE",
   "name" : "const android::hardware::hidl_vec<android::hardware::radio::V1_0::GsmSmsMessage> *",
   "referenced_type" : "_ZTIKN7android8hardware8hidl_vecINS0_5radio4V1_013GsmSmsMessageEEE",
   "self_type" : "_ZTIPKN7android8hardware8hidl_vecINS0_5radio4V1_013GsmSmsMessageEEE",
   "size" : 4,
   "source_file" : "/system/libhidl/base/include/hidl/HidlSupport.h"
  },
  {
   "alignment" : 4,
   "linker_set_key" : "_ZTIPKN7android8hardware8hidl_vecINS0_5radio4V1_014CdmaSmsMessageEEE",
   "name" : "const android::hardware::hidl_vec<android::hardware::radio::V1_0::CdmaSmsMessage> *",
   "referenced_type" : "_ZTIKN7android8hardware8hidl_vecINS0_5radio4V1_014CdmaSmsMessageEEE",
   "self_type" : "_ZTIPKN7android8hardware8hidl_vecINS0_5radio4V1_014CdmaSmsMessageEEE",
   "size" : 4,
   "source_file" : "/system/libhidl/base/include/hidl/HidlSupport.h"
  },
  {
   "alignment" : 4,
   "linker_set_key" : "_ZTIPKN7android8hardware8hidl_vecINS0_5radio4V1_015CallForwardInfoEEE",
   "name" : "const android::hardware::hidl_vec<android::hardware::radio::V1_0::CallForwardInfo> *",
   "referenced_type" : "_ZTIKN7android8hardware8hidl_vecINS0_5radio4V1_015CallForwardInfoEEE",
   "self_type" : "_ZTIPKN7android8hardware8hidl_vecINS0_5radio4V1_015CallForwardInfoEEE",
   "size" : 4,
   "source_file" : "/system/libhidl/base/include/hidl/HidlSupport.h"
  },
  {
   "alignment" : 4,
   "linker_set_key" : "_ZTIPKN7android8hardware8hidl_vecINS0_5radio4V1_015CellIdentityGsmEEE",
   "name" : "const android::hardware::hidl_vec<android::hardware::radio::V1_0::CellIdentityGsm> *",
   "referenced_type" : "_ZTIKN7android8hardware8hidl_vecINS0_5radio4V1_015CellIdentityGsmEEE",
   "self_type" : "_ZTIPKN7android8hardware8hidl_vecINS0_5radio4V1_015CellIdentityGsmEEE",
   "size" : 4,
   "source_file" : "/system/libhidl/base/include/hidl/HidlSupport.h"
  },
  {
   "alignment" : 4,
   "linker_set_key" : "_ZTIPKN7android8hardware8hidl_vecINS0_5radio4V1_015CellIdentityLteEEE",
   "name" : "const android::hardware::hidl_vec<android::hardware::radio::V1_0::CellIdentityLte> *",
   "referenced_type" : "_ZTIKN7android8hardware8hidl_vecINS0_5radio4V1_015CellIdentityLteEEE",
