{
 "array_types" :
 [
  {
   "alignment" : 4,
   "linker_set_key" : "_ZTIA0_i",
   "name" : "int [0]",
   "referenced_type" : "_ZTIi",
   "self_type" : "_ZTIA0_i",
   "source_file" : "/system/core/libcutils/include/cutils/native_handle.h"
  },
  {
   "alignment" : 1,
   "linker_set_key" : "_ZTIA16_c",
   "name" : "char [16]",
   "referenced_type" : "_ZTIc",
   "self_type" : "_ZTIA16_c",
   "size" : 16,
   "source_file" : "/system/libhidl/transport/include/hidl/ConcurrentMap.h"
  },
  {
   "alignment" : 1,
   "linker_set_key" : "_ZTIA32_h",
   "name" : "unsigned char [32]",
   "referenced_type" : "_ZTIh",
   "self_type" : "_ZTIA32_h",
   "size" : 32,
   "source_file" : "/system/libhidl/base/include/hidl/HidlSupport.h"
  },
  {
   "alignment" : 1,
   "linker_set_key" : "_ZTIA3_h",
   "name" : "unsigned char [3]",
   "referenced_type" : "_ZTIh",
   "self_type" : "_ZTIA3_h",
   "size" : 3,
   "source_file" : "/system/libhidl/base/include/hidl/HidlSupport.h"
  },
  {
   "alignment" : 1,
   "linker_set_key" : "_ZTIA5121_h",
   "name" : "unsigned char [5121]",
   "referenced_type" : "_ZTIh",
   "self_type" : "_ZTIA5121_h",
   "size" : 5121,
   "source_file" : "/system/core/liblog/include/log/log_read.h"
  },
  {
   "alignment" : 1,
   "linker_set_key" : "_ZTIA7_h",
   "name" : "unsigned char [7]",
   "referenced_type" : "_ZTIh",
   "self_type" : "_ZTIA7_h",
   "size" : 7,
   "source_file" : "/system/libhidl/base/include/hidl/HidlSupport.h"
  },
  {
   "alignment" : 4,
   "linker_set_key" : "_ZTIA8_j",
   "name" : "unsigned int [8]",
   "referenced_type" : "_ZTIj",
   "self_type" : "_ZTIA8_j",
   "size" : 32,
   "source_file" : "/system/core/libsystem/include/system/graphics.h"
  },
  {
   "linker_set_key" : "_ZTIA_f",
   "name" : "float []",
   "referenced_type" : "_ZTIf",
   "self_type" : "_ZTIA_f",
   "source_file" : "/system/core/libsystem/include/system/graphics.h"
  }
 ],
 "builtin_types" :
 [
  {
   "alignment" : 2,
   "is_integral" : true,
   "is_unsigned" : true,
   "linker_set_key" : "_ZTIDs",
   "name" : "char16_t",
   "referenced_type" : "_ZTIDs",
   "self_type" : "_ZTIDs",
   "size" : 2
  },
  {
   "alignment" : 1,
   "is_integral" : true,
   "linker_set_key" : "_ZTIa",
   "name" : "signed char",
   "referenced_type" : "_ZTIa",
   "self_type" : "_ZTIa",
   "size" : 1
  },
  {
   "alignment" : 1,
   "is_integral" : true,
   "is_unsigned" : true,
   "linker_set_key" : "_ZTIb",
   "name" : "bool",
   "referenced_type" : "_ZTIb",
   "self_type" : "_ZTIb",
   "size" : 1
  },
  {
   "alignment" : 1,
   "is_integral" : true,
   "linker_set_key" : "_ZTIc",
   "name" : "char",
   "referenced_type" : "_ZTIc",
   "self_type" : "_ZTIc",
   "size" : 1
  },
  {
   "alignment" : 4,
   "linker_set_key" : "_ZTId",
   "name" : "double",
   "referenced_type" : "_ZTId",
   "self_type" : "_ZTId",
   "size" : 8
  },
  {
   "alignment" : 4,
   "linker_set_key" : "_ZTIf",
   "name" : "float",
   "referenced_type" : "_ZTIf",
   "self_type" : "_ZTIf",
   "size" : 4
  },
  {
   "alignment" : 1,
   "is_integral" : true,
   "is_unsigned" : true,
   "linker_set_key" : "_ZTIh",
   "name" : "unsigned char",
   "referenced_type" : "_ZTIh",
   "self_type" : "_ZTIh",
   "size" : 1
  },
  {
   "alignment" : 4,
   "is_integral" : true,
   "linker_set_key" : "_ZTIi",
   "name" : "int",
   "referenced_type" : "_ZTIi",
   "self_type" : "_ZTIi",
   "size" : 4
  },
  {
   "alignment" : 4,
   "is_integral" : true,
   "is_unsigned" : true,
   "linker_set_key" : "_ZTIj",
   "name" : "unsigned int",
   "referenced_type" : "_ZTIj",
   "self_type" : "_ZTIj",
   "size" : 4
  },
  {
   "alignment" : 4,
   "is_integral" : true,
   "linker_set_key" : "_ZTIl",
   "name" : "long",
   "referenced_type" : "_ZTIl",
   "self_type" : "_ZTIl",
   "size" : 4
  },
  {
   "alignment" : 4,
   "is_integral" : true,
   "is_unsigned" : true,
   "linker_set_key" : "_ZTIm",
   "name" : "unsigned long",
   "referenced_type" : "_ZTIm",
   "self_type" : "_ZTIm",
   "size" : 4
  },
  {
   "alignment" : 2,
   "is_integral" : true,
   "linker_set_key" : "_ZTIs",
   "name" : "short",
   "referenced_type" : "_ZTIs",
   "self_type" : "_ZTIs",
   "size" : 2
  },
  {
   "alignment" : 2,
   "is_integral" : true,
   "is_unsigned" : true,
   "linker_set_key" : "_ZTIt",
   "name" : "unsigned short",
   "referenced_type" : "_ZTIt",
   "self_type" : "_ZTIt",
   "size" : 2
  },
  {
   "linker_set_key" : "_ZTIv",
   "name" : "void",
   "referenced_type" : "_ZTIv",
   "self_type" : "_ZTIv"
  },
  {
   "alignment" : 4,
   "is_integral" : true,
   "linker_set_key" : "_ZTIx",
   "name" : "long long",
   "referenced_type" : "_ZTIx",
   "self_type" : "_ZTIx",
   "size" : 8
  },
  {
   "alignment" : 4,
   "is_integral" : true,
   "is_unsigned" : true,
   "linker_set_key" : "_ZTIy",
   "name" : "unsigned long long",
   "referenced_type" : "_ZTIy",
   "self_type" : "_ZTIy",
   "size" : 8
  }
 ],
 "elf_functions" :
 [
  {
   "name" : "_ZN7android10frameworks16schedulerservice4V1_024ISchedulingPolicyService10getServiceERKNSt3__112basic_stringIcNS4_11char_traitsIcEENS4_9allocatorIcEEEEb"
  },
  {
   "name" : "_ZN7android10frameworks16schedulerservice4V1_024ISchedulingPolicyService11linkToDeathERKNS_2spINS_8hardware20hidl_death_recipientEEEy"
  },
  {
   "name" : "_ZN7android10frameworks16schedulerservice4V1_024ISchedulingPolicyService12getDebugInfoENSt3__18functionIFvRKNS_4hidl4base4V1_09DebugInfoEEEE"
  },
  {
   "name" : "_ZN7android10frameworks16schedulerservice4V1_024ISchedulingPolicyService12getHashChainENSt3__18functionIFvRKNS_8hardware8hidl_vecINS6_10hidl_arrayIhLj32EJEEEEEEEE"
  },
  {
   "name" : "_ZN7android10frameworks16schedulerservice4V1_024ISchedulingPolicyService13tryGetServiceERKNSt3__112basic_stringIcNS4_11char_traitsIcEENS4_9allocatorIcEEEEb"
  },
  {
   "name" : "_ZN7android10frameworks16schedulerservice4V1_024ISchedulingPolicyService13unlinkToDeathERKNS_2spINS_8hardware20hidl_death_recipientEEE"
  },
  {
   "name" : "_ZN7android10frameworks16schedulerservice4V1_024ISchedulingPolicyService14interfaceChainENSt3__18functionIFvRKNS_8hardware8hidl_vecINS6_11hidl_stringEEEEEE"
  },
  {
   "name" : "_ZN7android10frameworks16schedulerservice4V1_024ISchedulingPolicyService17registerAsServiceERKNSt3__112basic_stringIcNS4_11char_traitsIcEENS4_9allocatorIcEEEE"
  },
  {
   "name" : "_ZN7android10frameworks16schedulerservice4V1_024ISchedulingPolicyService19interfaceDescriptorENSt3__18functionIFvRKNS_8hardware11hidl_stringEEEE"
  },
  {
   "name" : "_ZN7android10frameworks16schedulerservice4V1_024ISchedulingPolicyService21notifySyspropsChangedEv"
  },
  {
   "name" : "_ZN7android10frameworks16schedulerservice4V1_024ISchedulingPolicyService21setHALInstrumentationEv"
  },
  {
   "name" : "_ZN7android10frameworks16schedulerservice4V1_024ISchedulingPolicyService24registerForNotificationsERKNSt3__112basic_stringIcNS4_11char_traitsIcEENS4_9allocatorIcEEEERKNS_2spINS_4hidl7manager4V1_020IServiceNotificationEEE"
  },
  {
   "name" : "_ZN7android10frameworks16schedulerservice4V1_024ISchedulingPolicyService4pingEv"
  },
  {
   "name" : "_ZN7android10frameworks16schedulerservice4V1_024ISchedulingPolicyService5debugERKNS_8hardware11hidl_handleERKNS4_8hidl_vecINS4_11hidl_stringEEE"
  },
  {
   "name" : "_ZN7android10frameworks16schedulerservice4V1_024ISchedulingPolicyService8castFromERKNS_2spINS_4hidl4base4V1_05IBaseEEEb"
  },
  {
   "name" : "_ZN7android10frameworks16schedulerservice4V1_024ISchedulingPolicyService8castFromERKNS_2spIS3_EEb"
  },
  {
   "name" : "_ZN7android10frameworks16schedulerservice4V1_025BsSchedulingPolicyService13addOnewayTaskENSt3__18functionIFvvEEE"
  },
  {
   "name" : "_ZN7android10frameworks16schedulerservice4V1_025BsSchedulingPolicyServiceC1ENS_2spINS2_24ISchedulingPolicyServiceEEE"
  },
  {
   "name" : "_ZN7android10frameworks16schedulerservice4V1_025BsSchedulingPolicyServiceC2ENS_2spINS2_24ISchedulingPolicyServiceEEE"
  },
  {
   "name" : "_ZN7android10frameworks16schedulerservice4V1_027BnHwSchedulingPolicyService10onTransactEjRKNS_8hardware6ParcelEPS5_jNSt3__18functionIFvRS5_EEE"
  },
  {
   "name" : "_ZN7android10frameworks16schedulerservice4V1_027BnHwSchedulingPolicyService12getDebugInfoENSt3__18functionIFvRKNS_4hidl4base4V1_09DebugInfoEEEE"
  },
  {
   "name" : "_ZN7android10frameworks16schedulerservice4V1_027BnHwSchedulingPolicyService21_hidl_requestPriorityEPNS_4hidl4base4V1_08BnHwBaseERKNS_8hardware6ParcelEPSA_NSt3__18functionIFvRSA_EEE"
  },
  {
   "name" : "_ZN7android10frameworks16schedulerservice4V1_027BnHwSchedulingPolicyService27_hidl_getMaxAllowedPriorityEPNS_4hidl4base4V1_08BnHwBaseERKNS_8hardware6ParcelEPSA_NSt3__18functionIFvRSA_EEE"
  },
  {
   "name" : "_ZN7android10frameworks16schedulerservice4V1_027BnHwSchedulingPolicyService4pingEv"
  },
  {
   "name" : "_ZN7android10frameworks16schedulerservice4V1_027BnHwSchedulingPolicyServiceC1ERKNS_2spINS2_24ISchedulingPolicyServiceEEE"
  },
  {
   "name" : "_ZN7android10frameworks16schedulerservice4V1_027BnHwSchedulingPolicyServiceC2ERKNS_2spINS2_24ISchedulingPolicyServiceEEE"
  },
  {
   "name" : "_ZN7android10frameworks16schedulerservice4V1_027BnHwSchedulingPolicyServiceD0Ev"
  },
  {
   "name" : "_ZN7android10frameworks16schedulerservice4V1_027BnHwSchedulingPolicyServiceD1Ev"
  },
  {
   "name" : "_ZN7android10frameworks16schedulerservice4V1_027BnHwSchedulingPolicyServiceD2Ev"
  },
  {
   "name" : "_ZN7android10frameworks16schedulerservice4V1_027BpHwSchedulingPolicyService11linkToDeathERKNS_2spINS_8hardware20hidl_death_recipientEEEy"
  },
  {
   "name" : "_ZN7android10frameworks16schedulerservice4V1_027BpHwSchedulingPolicyService12getDebugInfoENSt3__18functionIFvRKNS_4hidl4base4V1_09DebugInfoEEEE"
  },
  {
   "name" : "_ZN7android10frameworks16schedulerservice4V1_027BpHwSchedulingPolicyService12getHashChainENSt3__18functionIFvRKNS_8hardware8hidl_vecINS6_10hidl_arrayIhLj32EJEEEEEEEE"
  },
  {
   "name" : "_ZN7android10frameworks16schedulerservice4V1_027BpHwSchedulingPolicyService13unlinkToDeathERKNS_2spINS_8hardware20hidl_death_recipientEEE"
  },
  {
   "name" : "_ZN7android10frameworks16schedulerservice4V1_027BpHwSchedulingPolicyService14interfaceChainENSt3__18functionIFvRKNS_8hardware8hidl_vecINS6_11hidl_stringEEEEEE"
  },
  {
   "name" : "_ZN7android10frameworks16schedulerservice4V1_027BpHwSchedulingPolicyService15onLastStrongRefEPKv"
  },
  {
   "name" : "_ZN7android10frameworks16schedulerservice4V1_027BpHwSchedulingPolicyService15requestPriorityEiii"
  },
  {
   "name" : "_ZN7android10frameworks16schedulerservice4V1_027BpHwSchedulingPolicyService19interfaceDescriptorENSt3__18functionIFvRKNS_8hardware11hidl_stringEEEE"
  },
  {
   "name" : "_ZN7android10frameworks16schedulerservice4V1_027BpHwSchedulingPolicyService21_hidl_requestPriorityEPNS_8hardware10IInterfaceEPNS4_7details16HidlInstrumentorEiii"
  },
  {
   "name" : "_ZN7android10frameworks16schedulerservice4V1_027BpHwSchedulingPolicyService21getMaxAllowedPriorityEv"
  },
  {
   "name" : "_ZN7android10frameworks16schedulerservice4V1_027BpHwSchedulingPolicyService21notifySyspropsChangedEv"
  },
  {
   "name" : "_ZN7android10frameworks16schedulerservice4V1_027BpHwSchedulingPolicyService21setHALInstrumentationEv"
  },
  {
   "name" : "_ZN7android10frameworks16schedulerservice4V1_027BpHwSchedulingPolicyService27_hidl_getMaxAllowedPriorityEPNS_8hardware10IInterfaceEPNS4_7details16HidlInstrumentorE"
  },
  {
   "name" : "_ZN7android10frameworks16schedulerservice4V1_027BpHwSchedulingPolicyService4pingEv"
  },
  {
   "name" : "_ZN7android10frameworks16schedulerservice4V1_027BpHwSchedulingPolicyService5debugERKNS_8hardware11hidl_handleERKNS4_8hidl_vecINS4_11hidl_stringEEE"
  },
  {
   "name" : "_ZN7android10frameworks16schedulerservice4V1_027BpHwSchedulingPolicyServiceC1ERKNS_2spINS_8hardware7IBinderEEE"
  },
  {
   "name" : "_ZN7android10frameworks16schedulerservice4V1_027BpHwSchedulingPolicyServiceC2ERKNS_2spINS_8hardware7IBinderEEE"
  },
  {
   "binding" : "weak",
   "name" : "_ZN7android8hardware7details13castInterfaceINS_10frameworks16schedulerservice4V1_024ISchedulingPolicyServiceENS_4hidl4base4V1_05IBaseENS5_27BpHwSchedulingPolicyServiceEEENS0_6ReturnINS_2spIT_EEEENSD_IT0_EEPKcb"
  },
  {
   "binding" : "weak",
   "name" : "_ZN7android8hardware7details18getServiceInternalINS_10frameworks16schedulerservice4V1_027BpHwSchedulingPolicyServiceENS5_24ISchedulingPolicyServiceEvvEENS_2spIT0_EERKNSt3__112basic_stringIcNSB_11char_traitsIcEENSB_9allocatorIcEEEEbb"
  },
  {
   "binding" : "weak",
   "name" : "_ZNKSt3__18functionIFvN7android8hardware7details16HidlInstrumentor20InstrumentationEventEPKcS7_S7_S7_PNS_6vectorIPvNS_9allocatorIS9_EEEEEEclES5_S7_S7_S7_S7_SD_"
  },
  {
   "binding" : "weak",
   "name" : "_ZNSt3__113__tree_removeIPNS_16__tree_node_baseIPvEEEEvT_S5_"
  },
  {
   "binding" : "weak",
   "name" : "_ZNSt3__127__tree_balance_after_insertIPNS_16__tree_node_baseIPvEEEEvT_S5_"
  },
  {
   "binding" : "weak",
   "name" : "_ZNSt3__16__treeINS_12__value_typeINS_12basic_stringIcNS_11char_traitsIcEENS_9allocatorIcEEEENS_8functionIFN7android2spINS9_4hidl4base4V1_05IBaseEEEPvEEEEENS_19__map_value_compareIS7_SJ_NS_4lessIS7_EELb1EEENS5_ISJ_EEE12__find_equalIS7_EERPNS_16__tree_node_baseISG_EERPNS_15__tree_end_nodeIST_EERKT_"
  },
  {
   "binding" : "weak",
   "name" : "_ZNSt3__16__treeINS_12__value_typeINS_12basic_stringIcNS_11char_traitsIcEENS_9allocatorIcEEEENS_8functionIFN7android2spINS9_4hidl4base4V1_05IBaseEEEPvEEEEENS_19__map_value_compareIS7_SJ_NS_4lessIS7_EELb1EEENS5_ISJ_EEE4findIS7_EENS_15__tree_iteratorISJ_PNS_11__tree_nodeISJ_SG_EEiEERKT_"
  },
  {
   "binding" : "weak",
   "name" : "_ZNSt3__16__treeINS_12__value_typeINS_12basic_stringIcNS_11char_traitsIcEENS_9allocatorIcEEEENS_8functionIFN7android2spINS9_4hidl4base4V1_05IBaseEEEPvEEEEENS_19__map_value_compareIS7_SJ_NS_4lessIS7_EELb1EEENS5_ISJ_EEE5eraseENS_21__tree_const_iteratorISJ_PNS_11__tree_nodeISJ_SG_EEiEE"
  },
  {
   "binding" : "weak",
   "name" : "_ZNSt3__16__treeINS_12__value_typeINS_12basic_stringIcNS_11char_traitsIcEENS_9allocatorIcEEEENS_8functionIFN7android2spINS9_8hardware7IBinderEEEPvEEEEENS_19__map_value_compareIS7_SH_NS_4lessIS7_EELb1EEENS5_ISH_EEE12__find_equalIS7_EERPNS_16__tree_node_baseISE_EERPNS_15__tree_end_nodeISR_EERKT_"
  },
  {
   "binding" : "weak",
   "name" : "_ZNSt3__16__treeINS_12__value_typeINS_12basic_stringIcNS_11char_traitsIcEENS_9allocatorIcEEEENS_8functionIFN7android2spINS9_8hardware7IBinderEEEPvEEEEENS_19__map_value_compareIS7_SH_NS_4lessIS7_EELb1EEENS5_ISH_EEE4findIS7_EENS_15__tree_iteratorISH_PNS_11__tree_nodeISH_SE_EEiEERKT_"
  },
  {
   "binding" : "weak",
   "name" : "_ZNSt3__16__treeINS_12__value_typeINS_12basic_stringIcNS_11char_traitsIcEENS_9allocatorIcEEEENS_8functionIFN7android2spINS9_8hardware7IBinderEEEPvEEEEENS_19__map_value_compareIS7_SH_NS_4lessIS7_EELb1EEENS5_ISH_EEE5eraseENS_21__tree_const_iteratorISH_PNS_11__tree_nodeISH_SE_EEiEE"
  },
  {
   "binding" : "weak",
   "name" : "_ZNSt3__16vectorIN7android2spINS1_8hardware27hidl_binder_death_recipientEEENS_9allocatorIS5_EEE21__push_back_slow_pathIS5_EEvOT_"
  },
  {
   "binding" : "weak",
   "name" : "_ZNSt3__16vectorINS_8functionIFvN7android8hardware7details16HidlInstrumentor20InstrumentationEventEPKcS8_S8_S8_PNS0_IPvNS_9allocatorIS9_EEEEEEENSA_ISF_EEEC2ERKSH_"
  },
  {
   "binding" : "weak",
   "name" : "_ZNSt3__16vectorIPvNS_9allocatorIS1_EEE21__push_back_slow_pathIS1_EEvOT_"
  },
  {
   "name" : "_ZThn20_N7android10frameworks16schedulerservice4V1_027BnHwSchedulingPolicyServiceD0Ev"
  },
  {
   "name" : "_ZThn20_N7android10frameworks16schedulerservice4V1_027BnHwSchedulingPolicyServiceD1Ev"
  },
  {
   "name" : "_ZThn8_N7android10frameworks16schedulerservice4V1_027BpHwSchedulingPolicyService15onLastStrongRefEPKv"
  },
  {
   "name" : "_ZTv0_n12_N7android10frameworks16schedulerservice4V1_027BnHwSchedulingPolicyServiceD0Ev"
  },
  {
   "name" : "_ZTv0_n12_N7android10frameworks16schedulerservice4V1_027BnHwSchedulingPolicyServiceD1Ev"
  },
  {
   "name" : "_ZTv0_n20_N7android10frameworks16schedulerservice4V1_027BpHwSchedulingPolicyService15onLastStrongRefEPKv"
  }
 ],
 "elf_objects" :
 [
  {
   "name" : "_ZN7android10frameworks16schedulerservice4V1_024ISchedulingPolicyService10descriptorE"
  },
  {
   "name" : "_ZTCN7android10frameworks16schedulerservice4V1_024ISchedulingPolicyServiceE0_NS_4hidl4base4V1_05IBaseE"
  },
  {
   "binding" : "weak",
   "name" : "_ZTCN7android10frameworks16schedulerservice4V1_025BsSchedulingPolicyServiceE0_NS2_24ISchedulingPolicyServiceE"
  },
  {
   "name" : "_ZTCN7android10frameworks16schedulerservice4V1_027BnHwSchedulingPolicyServiceE0_NS_4hidl4base4V1_08BnHwBaseE"
  },
  {
   "name" : "_ZTCN7android10frameworks16schedulerservice4V1_027BnHwSchedulingPolicyServiceE0_NS_8hardware7IBinderE"
  },
  {
   "name" : "_ZTCN7android10frameworks16schedulerservice4V1_027BnHwSchedulingPolicyServiceE0_NS_8hardware9BHwBinderE"
  },
  {
   "name" : "_ZTCN7android10frameworks16schedulerservice4V1_027BpHwSchedulingPolicyServiceE0_NS2_24ISchedulingPolicyServiceE"
  },
  {
   "name" : "_ZTCN7android10frameworks16schedulerservice4V1_027BpHwSchedulingPolicyServiceE0_NS_4hidl4base4V1_05IBaseE"
  },
  {
   "name" : "_ZTCN7android10frameworks16schedulerservice4V1_027BpHwSchedulingPolicyServiceE0_NS_8hardware11BpInterfaceINS2_24ISchedulingPolicyServiceEEE"
  },
  {
   "name" : "_ZTCN7android10frameworks16schedulerservice4V1_027BpHwSchedulingPolicyServiceE4_NS_8hardware10IInterfaceE"
  },
  {
   "name" : "_ZTCN7android10frameworks16schedulerservice4V1_027BpHwSchedulingPolicyServiceE8_NS_8hardware11BpHwRefBaseE"
  },
  {
   "name" : "_ZTTN7android10frameworks16schedulerservice4V1_024ISchedulingPolicyServiceE"
  },
  {
   "name" : "_ZTTN7android10frameworks16schedulerservice4V1_027BnHwSchedulingPolicyServiceE"
  },
  {
   "name" : "_ZTTN7android10frameworks16schedulerservice4V1_027BpHwSchedulingPolicyServiceE"
  },
  {
   "name" : "_ZTVN7android10frameworks16schedulerservice4V1_024ISchedulingPolicyServiceE"
  },
  {
   "binding" : "weak",
   "name" : "_ZTVN7android10frameworks16schedulerservice4V1_025BsSchedulingPolicyServiceE"
  },
  {
   "name" : "_ZTVN7android10frameworks16schedulerservice4V1_027BnHwSchedulingPolicyServiceE"
  },
  {
   "name" : "_ZTVN7android10frameworks16schedulerservice4V1_027BpHwSchedulingPolicyServiceE"
  }
 ],
 "enum_types" :
 [
  {
   "alignment" : 4,
   "enum_fields" :
   [
    {
     "enum_field_value" : 1,
     "name" : "HAL_HDR_DOLBY_VISION"
    },
    {
     "enum_field_value" : 2,
     "name" : "HAL_HDR_HDR10"
    },
    {
     "enum_field_value" : 3,
     "name" : "HAL_HDR_HLG"
    }
   ],
   "linker_set_key" : "_ZTI13android_hdr_t",
   "name" : "android_hdr_t",
   "referenced_type" : "_ZTI13android_hdr_t",
   "self_type" : "_ZTI13android_hdr_t",
   "size" : 4,
   "source_file" : "/system/core/libsystem/include/system/graphics-base-v1.0.h",
   "underlying_type" : "_ZTIj"
  },
  {
   "alignment" : 4,
   "enum_fields" :
   [
    {
     "enum_field_value" : 4,
     "name" : "HAL_HDR_HDR10_PLUS"
    }
   ],
   "linker_set_key" : "_ZTI18android_hdr_v1_2_t",
   "name" : "android_hdr_v1_2_t",
   "referenced_type" : "_ZTI18android_hdr_v1_2_t",
   "self_type" : "_ZTI18android_hdr_v1_2_t",
   "size" : 4,
   "source_file" : "/system/core/libsystem/include/system/graphics-base-v1.2.h",
   "underlying_type" : "_ZTIj"
  },
  {
   "alignment" : 4,
   "enum_fields" :
   [
    {
     "enum_field_value" : 0,
     "name" : "ANDROID_LOG_UNKNOWN"
    },
    {
     "enum_field_value" : 1,
     "name" : "ANDROID_LOG_DEFAULT"
    },
    {
     "enum_field_value" : 2,
     "name" : "ANDROID_LOG_VERBOSE"
    },
    {
     "enum_field_value" : 3,
     "name" : "ANDROID_LOG_DEBUG"
    },
    {
     "enum_field_value" : 4,
     "name" : "ANDROID_LOG_INFO"
    },
    {
     "enum_field_value" : 5,
     "name" : "ANDROID_LOG_WARN"
    },
    {
     "enum_field_value" : 6,
     "name" : "ANDROID_LOG_ERROR"
    },
    {
     "enum_field_value" : 7,
     "name" : "ANDROID_LOG_FATAL"
    },
    {
     "enum_field_value" : 8,
     "name" : "ANDROID_LOG_SILENT"
    }
   ],
   "linker_set_key" : "_ZTI19android_LogPriority",
   "name" : "android_LogPriority",
   "referenced_type" : "_ZTI19android_LogPriority",
   "self_type" : "_ZTI19android_LogPriority",
   "size" : 4,
   "source_file" : "/system/core/liblog/include/android/log.h",
   "underlying_type" : "_ZTIj"
  },
  {
   "alignment" : 4,
   "enum_fields" :
   [
    {
     "enum_field_value" : 0,
     "name" : "HAL_DATASPACE_UNKNOWN"
    },
    {
     "enum_field_value" : 1,
     "name" : "HAL_DATASPACE_ARBITRARY"
    },
    {
     "enum_field_value" : 16,
     "name" : "HAL_DATASPACE_STANDARD_SHIFT"
    },
    {
     "enum_field_value" : 4128768,
     "name" : "HAL_DATASPACE_STANDARD_MASK"
    },
    {
     "enum_field_value" : 0,
     "name" : "HAL_DATASPACE_STANDARD_UNSPECIFIED"
    },
    {
     "enum_field_value" : 65536,
     "name" : "HAL_DATASPACE_STANDARD_BT709"
    },
    {
     "enum_field_value" : 131072,
     "name" : "HAL_DATASPACE_STANDARD_BT601_625"
    },
    {
     "enum_field_value" : 196608,
     "name" : "HAL_DATASPACE_STANDARD_BT601_625_UNADJUSTED"
    },
    {
     "enum_field_value" : 262144,
     "name" : "HAL_DATASPACE_STANDARD_BT601_525"
    },
    {
     "enum_field_value" : 327680,
     "name" : "HAL_DATASPACE_STANDARD_BT601_525_UNADJUSTED"
    },
    {
     "enum_field_value" : 393216,
     "name" : "HAL_DATASPACE_STANDARD_BT2020"
    },
    {
     "enum_field_value" : 458752,
     "name" : "HAL_DATASPACE_STANDARD_BT2020_CONSTANT_LUMINANCE"
    },
    {
     "enum_field_value" : 524288,
     "name" : "HAL_DATASPACE_STANDARD_BT470M"
    },
    {
     "enum_field_value" : 589824,
     "name" : "HAL_DATASPACE_STANDARD_FILM"
    },
    {
     "enum_field_value" : 655360,
     "name" : "HAL_DATASPACE_STANDARD_DCI_P3"
    },
    {
     "enum_field_value" : 720896,
     "name" : "HAL_DATASPACE_STANDARD_ADOBE_RGB"
    },
    {
     "enum_field_value" : 22,
     "name" : "HAL_DATASPACE_TRANSFER_SHIFT"
    },
    {
     "enum_field_value" : 130023424,
     "name" : "HAL_DATASPACE_TRANSFER_MASK"
    },
    {
     "enum_field_value" : 0,
     "name" : "HAL_DATASPACE_TRANSFER_UNSPECIFIED"
    },
    {
     "enum_field_value" : 4194304,
     "name" : "HAL_DATASPACE_TRANSFER_LINEAR"
    },
    {
     "enum_field_value" : 8388608,
     "name" : "HAL_DATASPACE_TRANSFER_SRGB"
    },
    {
     "enum_field_value" : 12582912,
     "name" : "HAL_DATASPACE_TRANSFER_SMPTE_170M"
    },
    {
     "enum_field_value" : 16777216,
     "name" : "HAL_DATASPACE_TRANSFER_GAMMA2_2"
    },
    {
     "enum_field_value" : 20971520,
     "name" : "HAL_DATASPACE_TRANSFER_GAMMA2_6"
    },
    {
     "enum_field_value" : 25165824,
     "name" : "HAL_DATASPACE_TRANSFER_GAMMA2_8"
    },
    {
     "enum_field_value" : 29360128,
     "name" : "HAL_DATASPACE_TRANSFER_ST2084"
    },
    {
     "enum_field_value" : 33554432,
     "name" : "HAL_DATASPACE_TRANSFER_HLG"
    },
    {
     "enum_field_value" : 27,
     "name" : "HAL_DATASPACE_RANGE_SHIFT"
    },
    {
     "enum_field_value" : 939524096,
     "name" : "HAL_DATASPACE_RANGE_MASK"
    },
    {
     "enum_field_value" : 0,
     "name" : "HAL_DATASPACE_RANGE_UNSPECIFIED"
    },
    {
     "enum_field_value" : 134217728,
     "name" : "HAL_DATASPACE_RANGE_FULL"
    },
    {
     "enum_field_value" : 268435456,
     "name" : "HAL_DATASPACE_RANGE_LIMITED"
    },
    {
     "enum_field_value" : 402653184,
     "name" : "HAL_DATASPACE_RANGE_EXTENDED"
    },
    {
     "enum_field_value" : 512,
     "name" : "HAL_DATASPACE_SRGB_LINEAR"
    },
    {
     "enum_field_value" : 138477568,
     "name" : "HAL_DATASPACE_V0_SRGB_LINEAR"
    },
    {
     "enum_field_value" : 406913024,
     "name" : "HAL_DATASPACE_V0_SCRGB_LINEAR"
    },
    {
     "enum_field_value" : 513,
     "name" : "HAL_DATASPACE_SRGB"
    },
    {
     "enum_field_value" : 142671872,
     "name" : "HAL_DATASPACE_V0_SRGB"
    },
    {
     "enum_field_value" : 411107328,
     "name" : "HAL_DATASPACE_V0_SCRGB"
    },
    {
     "enum_field_value" : 257,
     "name" : "HAL_DATASPACE_JFIF"
    },
    {
     "enum_field_value" : 146931712,
     "name" : "HAL_DATASPACE_V0_JFIF"
    },
    {
     "enum_field_value" : 258,
     "name" : "HAL_DATASPACE_BT601_625"
    },
    {
     "enum_field_value" : 281149440,
     "name" : "HAL_DATASPACE_V0_BT601_625"
    },
    {
     "enum_field_value" : 259,
     "name" : "HAL_DATASPACE_BT601_525"
    },
    {
     "enum_field_value" : 281280512,
     "name" : "HAL_DATASPACE_V0_BT601_525"
    },
    {
     "enum_field_value" : 260,
     "name" : "HAL_DATASPACE_BT709"
    },
    {
     "enum_field_value" : 281083904,
     "name" : "HAL_DATASPACE_V0_BT709"
    },
    {
     "enum_field_value" : 139067392,
     "name" : "HAL_DATASPACE_DCI_P3_LINEAR"
    },
    {
     "enum_field_value" : 155844608,
     "name" : "HAL_DATASPACE_DCI_P3"
    },
    {
     "enum_field_value" : 139067392,
     "name" : "HAL_DATASPACE_DISPLAY_P3_LINEAR"
    },
    {
     "enum_field_value" : 143261696,
     "name" : "HAL_DATASPACE_DISPLAY_P3"
    },
    {
     "enum_field_value" : 151715840,
     "name" : "HAL_DATASPACE_ADOBE_RGB"
    },
    {
     "enum_field_value" : 138805248,
     "name" : "HAL_DATASPACE_BT2020_LINEAR"
    },
    {
     "enum_field_value" : 147193856,
     "name" : "HAL_DATASPACE_BT2020"
    },
    {
     "enum_field_value" : 163971072,
     "name" : "HAL_DATASPACE_BT2020_PQ"
    },
    {
     "enum_field_value" : 4096,
     "name" : "HAL_DATASPACE_DEPTH"
    },
    {
     "enum_field_value" : 4097,
     "name" : "HAL_DATASPACE_SENSOR"
    }
   ],
   "linker_set_key" : "_ZTI19android_dataspace_t",
   "name" : "android_dataspace_t",
   "referenced_type" : "_ZTI19android_dataspace_t",
   "self_type" : "_ZTI19android_dataspace_t",
   "size" : 4,
   "source_file" : "/system/core/libsystem/include/system/graphics-base-v1.0.h",
   "underlying_type" : "_ZTIj"
  },
  {
   "alignment" : 4,
   "enum_fields" :
   [
    {
     "enum_field_value" : 0,
     "name" : "FLEX_FORMAT_INVALID"
    },
    {
     "enum_field_value" : 1,
     "name" : "FLEX_FORMAT_Y"
    },
    {
     "enum_field_value" : 7,
     "name" : "FLEX_FORMAT_YCbCr"
    },
    {
     "enum_field_value" : 1073741831,
     "name" : "FLEX_FORMAT_YCbCrA"
    },
    {
     "enum_field_value" : 7168,
     "name" : "FLEX_FORMAT_RGB"
    },
    {
     "enum_field_value" : 1073748992,
     "name" : "FLEX_FORMAT_RGBA"
    }
   ],
   "linker_set_key" : "_ZTI19android_flex_format",
   "name" : "android_flex_format",
   "referenced_type" : "_ZTI19android_flex_format",
   "self_type" : "_ZTI19android_flex_format",
   "size" : 4,
   "source_file" : "/system/core/libsystem/include/system/graphics.h",
   "underlying_type" : "_ZTIj"
  },
  {
   "alignment" : 4,
   "enum_fields" :
   [
    {
     "enum_field_value" : 1,
     "name" : "HAL_TRANSFORM_FLIP_H"
    },
    {
     "enum_field_value" : 2,
     "name" : "HAL_TRANSFORM_FLIP_V"
    },
    {
     "enum_field_value" : 4,
     "name" : "HAL_TRANSFORM_ROT_90"
    },
    {
     "enum_field_value" : 3,
     "name" : "HAL_TRANSFORM_ROT_180"
    },
    {
     "enum_field_value" : 7,
     "name" : "HAL_TRANSFORM_ROT_270"
    }
   ],
   "linker_set_key" : "_ZTI19android_transform_t",
   "name" : "android_transform_t",
   "referenced_type" : "_ZTI19android_transform_t",
   "self_type" : "_ZTI19android_transform_t",
   "size" : 4,
   "source_file" : "/system/core/libsystem/include/system/graphics-base-v1.0.h",
   "underlying_type" : "_ZTIj"
  },
  {
   "alignment" : 4,
   "enum_fields" :
   [
    {
     "enum_field_value" : 0,
     "name" : "HAL_COLOR_MODE_NATIVE"
    },
    {
     "enum_field_value" : 1,
     "name" : "HAL_COLOR_MODE_STANDARD_BT601_625"
    },
    {
     "enum_field_value" : 2,
     "name" : "HAL_COLOR_MODE_STANDARD_BT601_625_UNADJUSTED"
    },
    {
     "enum_field_value" : 3,
     "name" : "HAL_COLOR_MODE_STANDARD_BT601_525"
    },
    {
     "enum_field_value" : 4,
     "name" : "HAL_COLOR_MODE_STANDARD_BT601_525_UNADJUSTED"
    },
    {
     "enum_field_value" : 5,
     "name" : "HAL_COLOR_MODE_STANDARD_BT709"
    },
    {
     "enum_field_value" : 6,
     "name" : "HAL_COLOR_MODE_DCI_P3"
    },
    {
     "enum_field_value" : 7,
     "name" : "HAL_COLOR_MODE_SRGB"
    },
    {
     "enum_field_value" : 8,
     "name" : "HAL_COLOR_MODE_ADOBE_RGB"
    },
    {
     "enum_field_value" : 9,
     "name" : "HAL_COLOR_MODE_DISPLAY_P3"
    }
   ],
   "linker_set_key" : "_ZTI20android_color_mode_t",
   "name" : "android_color_mode_t",
   "referenced_type" : "_ZTI20android_color_mode_t",
   "self_type" : "_ZTI20android_color_mode_t",
   "size" : 4,
   "source_file" : "/system/core/libsystem/include/system/graphics-base-v1.0.h",
   "underlying_type" : "_ZTIj"
  },
  {
   "alignment" : 4,
   "enum_fields" :
   [
    {
     "enum_field_value" : 0,
     "name" : "SYSTEM_TIME_REALTIME"
    },
    {
     "enum_field_value" : 1,
     "name" : "SYSTEM_TIME_MONOTONIC"
    },
    {
     "enum_field_value" : 2,
     "name" : "SYSTEM_TIME_PROCESS"
    },
    {
     "enum_field_value" : 3,
     "name" : "SYSTEM_TIME_THREAD"
    },
    {
     "enum_field_value" : 4,
     "name" : "SYSTEM_TIME_BOOTTIME"
    }
   ],
   "linker_set_key" : "_ZTI21$SYSTEM_TIME_BOOTTIME",
   "name" : "(anonymous enum at system/core/libutils/include/utils/Timers.h:79:1)",
   "referenced_type" : "_ZTI21$SYSTEM_TIME_BOOTTIME",
   "self_type" : "_ZTI21$SYSTEM_TIME_BOOTTIME",
   "size" : 4,
   "source_file" : "/system/core/libutils/include/utils/Timers.h",
   "underlying_type" : "_ZTIj"
  },
  {
   "alignment" : 4,
   "enum_fields" :
   [
    {
     "enum_field_value" : 1,
     "name" : "FLEX_COMPONENT_Y"
    },
    {
     "enum_field_value" : 2,
     "name" : "FLEX_COMPONENT_Cb"
    },
    {
     "enum_field_value" : 4,
     "name" : "FLEX_COMPONENT_Cr"
    },
    {
     "enum_field_value" : 1024,
     "name" : "FLEX_COMPONENT_R"
    },
    {
     "enum_field_value" : 2048,
     "name" : "FLEX_COMPONENT_G"
    },
    {
     "enum_field_value" : 4096,
     "name" : "FLEX_COMPONENT_B"
    },
    {
     "enum_field_value" : 1073741824,
     "name" : "FLEX_COMPONENT_A"
    }
   ],
   "linker_set_key" : "_ZTI22android_flex_component",
   "name" : "android_flex_component",
   "referenced_type" : "_ZTI22android_flex_component",
   "self_type" : "_ZTI22android_flex_component",
   "size" : 4,
   "source_file" : "/system/core/libsystem/include/system/graphics.h",
   "underlying_type" : "_ZTIj"
  },
  {
   "alignment" : 4,
   "enum_fields" :
   [
    {
     "enum_field_value" : 1,
     "name" : "HAL_PIXEL_FORMAT_RGBA_8888"
    },
    {
     "enum_field_value" : 2,
     "name" : "HAL_PIXEL_FORMAT_RGBX_8888"
    },
    {
     "enum_field_value" : 3,
     "name" : "HAL_PIXEL_FORMAT_RGB_888"
    },
    {
     "enum_field_value" : 4,
     "name" : "HAL_PIXEL_FORMAT_RGB_565"
    },
    {
     "enum_field_value" : 5,
     "name" : "HAL_PIXEL_FORMAT_BGRA_8888"
    },
    {
     "enum_field_value" : 16,
     "name" : "HAL_PIXEL_FORMAT_YCBCR_422_SP"
    },
    {
     "enum_field_value" : 17,
     "name" : "HAL_PIXEL_FORMAT_YCRCB_420_SP"
    },
    {
     "enum_field_value" : 20,
     "name" : "HAL_PIXEL_FORMAT_YCBCR_422_I"
    },
    {
     "enum_field_value" : 22,
     "name" : "HAL_PIXEL_FORMAT_RGBA_FP16"
    },
    {
     "enum_field_value" : 32,
     "name" : "HAL_PIXEL_FORMAT_RAW16"
    },
    {
     "enum_field_value" : 33,
     "name" : "HAL_PIXEL_FORMAT_BLOB"
    },
    {
     "enum_field_value" : 34,
     "name" : "HAL_PIXEL_FORMAT_IMPLEMENTATION_DEFINED"
    },
    {
     "enum_field_value" : 35,
     "name" : "HAL_PIXEL_FORMAT_YCBCR_420_888"
    },
    {
     "enum_field_value" : 36,
     "name" : "HAL_PIXEL_FORMAT_RAW_OPAQUE"
    },
    {
     "enum_field_value" : 37,
     "name" : "HAL_PIXEL_FORMAT_RAW10"
    },
    {
     "enum_field_value" : 38,
     "name" : "HAL_PIXEL_FORMAT_RAW12"
    },
    {
     "enum_field_value" : 43,
     "name" : "HAL_PIXEL_FORMAT_RGBA_1010102"
    },
    {
     "enum_field_value" : 538982489,
     "name" : "HAL_PIXEL_FORMAT_Y8"
    },
    {
     "enum_field_value" : 540422489,
     "name" : "HAL_PIXEL_FORMAT_Y16"
    },
    {
     "enum_field_value" : 842094169,
     "name" : "HAL_PIXEL_FORMAT_YV12"
    }
   ],
   "linker_set_key" : "_ZTI22android_pixel_format_t",
   "name" : "android_pixel_format_t",
   "referenced_type" : "_ZTI22android_pixel_format_t",
   "self_type" : "_ZTI22android_pixel_format_t",
   "size" : 4,
   "source_file" : "/system/core/libsystem/include/system/graphics-base-v1.0.h",
   "underlying_type" : "_ZTIj"
  },
  {
   "alignment" : 4,
   "enum_fields" :
   [
    {
     "enum_field_value" : 19,
     "name" : "ANDROID_PRIORITY_LOWEST"
    },
    {
     "enum_field_value" : 10,
     "name" : "ANDROID_PRIORITY_BACKGROUND"
    },
    {
     "enum_field_value" : 0,
     "name" : "ANDROID_PRIORITY_NORMAL"
    },
    {
     "enum_field_value" : -2,
     "name" : "ANDROID_PRIORITY_FOREGROUND"
    },
    {
     "enum_field_value" : -4,
     "name" : "ANDROID_PRIORITY_DISPLAY"
    },
    {
     "enum_field_value" : -8,
     "name" : "ANDROID_PRIORITY_URGENT_DISPLAY"
    },
    {
     "enum_field_value" : -10,
     "name" : "ANDROID_PRIORITY_VIDEO"
    },
    {
     "enum_field_value" : -16,
     "name" : "ANDROID_PRIORITY_AUDIO"
    },
    {
     "enum_field_value" : -19,
     "name" : "ANDROID_PRIORITY_URGENT_AUDIO"
    },
    {
     "enum_field_value" : -20,
     "name" : "ANDROID_PRIORITY_HIGHEST"
    },
    {
     "enum_field_value" : 0,
     "name" : "ANDROID_PRIORITY_DEFAULT"
    },
    {
     "enum_field_value" : -1,
     "name" : "ANDROID_PRIORITY_MORE_FAVORABLE"
    },
    {
     "enum_field_value" : 1,
     "name" : "ANDROID_PRIORITY_LESS_FAVORABLE"
    }
   ],
   "linker_set_key" : "_ZTI23$ANDROID_PRIORITY_AUDIO",
   "name" : "(anonymous enum at system/core/libsystem/include/system/thread_defs.h:26:1)",
   "referenced_type" : "_ZTI23$ANDROID_PRIORITY_AUDIO",
   "self_type" : "_ZTI23$ANDROID_PRIORITY_AUDIO",
   "size" : 4,
   "source_file" : "/system/core/libsystem/include/system/thread_defs.h",
   "underlying_type" : "_ZTIi"
  },
  {
   "alignment" : 4,
   "enum_fields" :
   [
    {
     "enum_field_value" : 281411584,
     "name" : "HAL_DATASPACE_BT2020_ITU"
    },
    {
     "enum_field_value" : 298188800,
     "name" : "HAL_DATASPACE_BT2020_ITU_PQ"
    },
    {
     "enum_field_value" : 302383104,
     "name" : "HAL_DATASPACE_BT2020_ITU_HLG"
    },
    {
     "enum_field_value" : 168165376,
     "name" : "HAL_DATASPACE_BT2020_HLG"
    }
   ],
   "linker_set_key" : "_ZTI24android_dataspace_v1_1_t",
   "name" : "android_dataspace_v1_1_t",
   "referenced_type" : "_ZTI24android_dataspace_v1_1_t",
   "self_type" : "_ZTI24android_dataspace_v1_1_t",
   "size" : 4,
   "source_file" : "/system/core/libsystem/include/system/graphics-base-v1.1.h",
   "underlying_type" : "_ZTIj"
  },
  {
   "alignment" : 4,
   "enum_fields" :
   [
    {
     "enum_field_value" : 142999552,
     "name" : "HAL_DATASPACE_DISPLAY_BT2020"
    },
    {
     "enum_field_value" : 4098,
     "name" : "HAL_DATASPACE_DYNAMIC_DEPTH"
    },
    {
     "enum_field_value" : 4099,
     "name" : "HAL_DATASPACE_JPEG_APP_SEGMENTS"
    },
    {
     "enum_field_value" : 4100,
     "name" : "HAL_DATASPACE_HEIF"
    }
   ],
   "linker_set_key" : "_ZTI24android_dataspace_v1_2_t",
   "name" : "android_dataspace_v1_2_t",
   "referenced_type" : "_ZTI24android_dataspace_v1_2_t",
   "self_type" : "_ZTI24android_dataspace_v1_2_t",
   "size" : 4,
   "source_file" : "/system/core/libsystem/include/system/graphics-base-v1.2.h",
   "underlying_type" : "_ZTIj"
  },
  {
   "alignment" : 4,
   "enum_fields" :
   [
    {
     "enum_field_value" : 10,
     "name" : "HAL_COLOR_MODE_BT2020"
    },
    {
     "enum_field_value" : 11,
     "name" : "HAL_COLOR_MODE_BT2100_PQ"
    },
    {
     "enum_field_value" : 12,
     "name" : "HAL_COLOR_MODE_BT2100_HLG"
    }
   ],
   "linker_set_key" : "_ZTI25android_color_mode_v1_1_t",
   "name" : "android_color_mode_v1_1_t",
   "referenced_type" : "_ZTI25android_color_mode_v1_1_t",
   "self_type" : "_ZTI25android_color_mode_v1_1_t",
   "size" : 4,
   "source_file" : "/system/core/libsystem/include/system/graphics-base-v1.1.h",
   "underlying_type" : "_ZTIj"
  },
  {
   "alignment" : 4,
   "enum_fields" :
   [
    {
     "enum_field_value" : 0,
     "name" : "HAL_COLOR_TRANSFORM_IDENTITY"
    },
    {
     "enum_field_value" : 1,
     "name" : "HAL_COLOR_TRANSFORM_ARBITRARY_MATRIX"
    },
    {
     "enum_field_value" : 2,
     "name" : "HAL_COLOR_TRANSFORM_VALUE_INVERSE"
    },
    {
     "enum_field_value" : 3,
     "name" : "HAL_COLOR_TRANSFORM_GRAYSCALE"
    },
    {
     "enum_field_value" : 4,
     "name" : "HAL_COLOR_TRANSFORM_CORRECT_PROTANOPIA"
    },
    {
     "enum_field_value" : 5,
     "name" : "HAL_COLOR_TRANSFORM_CORRECT_DEUTERANOPIA"
    },
    {
     "enum_field_value" : 6,
     "name" : "HAL_COLOR_TRANSFORM_CORRECT_TRITANOPIA"
    }
   ],
   "linker_set_key" : "_ZTI25android_color_transform_t",
   "name" : "android_color_transform_t",
   "referenced_type" : "_ZTI25android_color_transform_t",
   "self_type" : "_ZTI25android_color_transform_t",
   "size" : 4,
   "source_file" : "/system/core/libsystem/include/system/graphics-base-v1.0.h",
   "underlying_type" : "_ZTIj"
  },
  {
   "alignment" : 4,
   "enum_fields" :
   [
    {
     "enum_field_value" : 39,
     "name" : "HAL_PIXEL_FORMAT_YCBCR_422_888"
    },
    {
     "enum_field_value" : 40,
     "name" : "HAL_PIXEL_FORMAT_YCBCR_444_888"
    },
    {
     "enum_field_value" : 41,
     "name" : "HAL_PIXEL_FORMAT_FLEX_RGB_888"
    },
    {
     "enum_field_value" : 42,
     "name" : "HAL_PIXEL_FORMAT_FLEX_RGBA_8888"
    }
   ],
   "linker_set_key" : "_ZTI25android_pixel_format_sw_t",
   "name" : "android_pixel_format_sw_t",
   "referenced_type" : "_ZTI25android_pixel_format_sw_t",
   "self_type" : "_ZTI25android_pixel_format_sw_t",
   "size" : 4,
   "source_file" : "/system/core/libsystem/include/system/graphics-sw.h",
   "underlying_type" : "_ZTIj"
  },
  {
   "alignment" : 4,
   "enum_fields" :
   [
    {
     "enum_field_value" : 48,
     "name" : "HAL_PIXEL_FORMAT_DEPTH_16"
    },
    {
     "enum_field_value" : 49,
     "name" : "HAL_PIXEL_FORMAT_DEPTH_24"
    },
    {
     "enum_field_value" : 50,
     "name" : "HAL_PIXEL_FORMAT_DEPTH_24_STENCIL_8"
    },
    {
     "enum_field_value" : 51,
     "name" : "HAL_PIXEL_FORMAT_DEPTH_32F"
    },
    {
     "enum_field_value" : 52,
     "name" : "HAL_PIXEL_FORMAT_DEPTH_32F_STENCIL_8"
    },
    {
     "enum_field_value" : 53,
     "name" : "HAL_PIXEL_FORMAT_STENCIL_8"
    },
    {
     "enum_field_value" : 54,
     "name" : "HAL_PIXEL_FORMAT_YCBCR_P010"
    }
   ],
   "linker_set_key" : "_ZTI27android_pixel_format_v1_1_t",
   "name" : "android_pixel_format_v1_1_t",
   "referenced_type" : "_ZTI27android_pixel_format_v1_1_t",
   "self_type" : "_ZTI27android_pixel_format_v1_1_t",
   "size" : 4,
   "source_file" : "/system/core/libsystem/include/system/graphics-base-v1.1.h",
   "underlying_type" : "_ZTIj"
  },
  {
   "alignment" : 4,
   "enum_fields" :
   [
    {
     "enum_field_value" : 55,
     "name" : "HAL_PIXEL_FORMAT_HSV_888"
    }
   ],
   "linker_set_key" : "_ZTI27android_pixel_format_v1_2_t",
   "name" : "android_pixel_format_v1_2_t",
   "referenced_type" : "_ZTI27android_pixel_format_v1_2_t",
   "self_type" : "_ZTI27android_pixel_format_v1_2_t",
   "size" : 4,
   "source_file" : "/system/core/libsystem/include/system/graphics-base-v1.2.h",
   "underlying_type" : "_ZTIj"
  },
  {
   "alignment" : 4,
   "enum_fields" :
   [
    {
     "enum_field_value" : 0,
     "name" : "HAL_RENDER_INTENT_COLORIMETRIC"
    },
    {
     "enum_field_value" : 1,
     "name" : "HAL_RENDER_INTENT_ENHANCE"
    },
    {
     "enum_field_value" : 2,
     "name" : "HAL_RENDER_INTENT_TONE_MAP_COLORIMETRIC"
    },
    {
     "enum_field_value" : 3,
     "name" : "HAL_RENDER_INTENT_TONE_MAP_ENHANCE"
    }
   ],
   "linker_set_key" : "_ZTI28android_render_intent_v1_1_t",
   "name" : "android_render_intent_v1_1_t",
   "referenced_type" : "_ZTI28android_render_intent_v1_1_t",
   "self_type" : "_ZTI28android_render_intent_v1_1_t",
   "size" : 4,
   "source_file" : "/system/core/libsystem/include/system/graphics-base-v1.1.h",
   "underlying_type" : "_ZTIj"
  },
  {
   "alignment" : 4,
   "enum_fields" :
   [
    {
     "enum_field_value" : 0,
     "name" : "LOG_ID_MIN"
    },
    {
     "enum_field_value" : 0,
     "name" : "LOG_ID_MAIN"
    },
    {
     "enum_field_value" : 1,
     "name" : "LOG_ID_RADIO"
    },
    {
     "enum_field_value" : 2,
     "name" : "LOG_ID_EVENTS"
    },
    {
     "enum_field_value" : 3,
     "name" : "LOG_ID_SYSTEM"
    },
    {
     "enum_field_value" : 4,
     "name" : "LOG_ID_CRASH"
    },
    {
     "enum_field_value" : 5,
     "name" : "LOG_ID_STATS"
    },
    {
     "enum_field_value" : 6,
     "name" : "LOG_ID_SECURITY"
    },
    {
     "enum_field_value" : 7,
     "name" : "LOG_ID_KERNEL"
    },
    {
     "enum_field_value" : 8,
     "name" : "LOG_ID_MAX"
    },
    {
     "enum_field_value" : 2147483647,
     "name" : "LOG_ID_DEFAULT"
    }
   ],
   "linker_set_key" : "_ZTI6log_id",
   "name" : "log_id",
   "referenced_type" : "_ZTI6log_id",
   "self_type" : "_ZTI6log_id",
   "size" : 4,
   "source_file" : "/system/core/liblog/include/android/log.h",
   "underlying_type" : "_ZTIj"
  },
  {
   "alignment" : 4,
   "enum_fields" :
   [
    {
     "enum_field_value" : 1,
     "name" : "android::VectorImpl::HAS_TRIVIAL_CTOR"
    },
    {
     "enum_field_value" : 2,
     "name" : "android::VectorImpl::HAS_TRIVIAL_DTOR"
    },
    {
     "enum_field_value" : 4,
     "name" : "android::VectorImpl::HAS_TRIVIAL_COPY"
    }
   ],
   "linker_set_key" : "_ZTIN7android10VectorImpl17$HAS_TRIVIAL_COPYE",
   "name" : "android::VectorImpl::(anonymous enum at system/core/libutils/include/utils/VectorImpl.h:43:5)",
   "referenced_type" : "_ZTIN7android10VectorImpl17$HAS_TRIVIAL_COPYE",
   "self_type" : "_ZTIN7android10VectorImpl17$HAS_TRIVIAL_COPYE",
   "size" : 4,
   "source_file" : "/system/core/libutils/include/utils/VectorImpl.h",
   "underlying_type" : "_ZTIj"
  },
  {
   "alignment" : 4,
   "enum_fields" :
   [
    {
     "enum_field_value" : 1,
     "name" : "android::frameworks::schedulerservice::V1_0::ISchedulingPolicyService::Priority::MIN"
    },
    {
     "enum_field_value" : 99,
     "name" : "android::frameworks::schedulerservice::V1_0::ISchedulingPolicyService::Priority::MAX"
    }
   ],
   "linker_set_key" : "_ZTIN7android10frameworks16schedulerservice4V1_024ISchedulingPolicyService8PriorityE",
   "name" : "android::frameworks::schedulerservice::V1_0::ISchedulingPolicyService::Priority",
   "referenced_type" : "_ZTIN7android10frameworks16schedulerservice4V1_024ISchedulingPolicyService8PriorityE",
   "self_type" : "_ZTIN7android10frameworks16schedulerservice4V1_024ISchedulingPolicyService8PriorityE",
   "size" : 4,
   "source_file" : "/out/soong/.intermediates/frameworks/hardware/interfaces/schedulerservice/1.0/android.frameworks.schedulerservice@1.0_genc++_headers/gen/android/frameworks/schedulerservice/1.0/ISchedulingPolicyService.h",
   "underlying_type" : "_ZTIi"
  },
  {
   "alignment" : 4,
   "enum_fields" :
   [
    {
     "enum_field_value" : 0,
     "name" : "android::OK"
    },
    {
     "enum_field_value" : 0,
     "name" : "android::NO_ERROR"
    },
    {
     "enum_field_value" : -2147483648,
     "name" : "android::UNKNOWN_ERROR"
    },
    {
     "enum_field_value" : -12,
     "name" : "android::NO_MEMORY"
    },
    {
     "enum_field_value" : -38,
     "name" : "android::INVALID_OPERATION"
    },
    {
     "enum_field_value" : -22,
     "name" : "android::BAD_VALUE"
    },
    {
     "enum_field_value" : -2147483647,
     "name" : "android::BAD_TYPE"
    },
    {
     "enum_field_value" : -2,
     "name" : "android::NAME_NOT_FOUND"
    },
    {
     "enum_field_value" : -1,
     "name" : "android::PERMISSION_DENIED"
    },
    {
     "enum_field_value" : -19,
     "name" : "android::NO_INIT"
    },
    {
     "enum_field_value" : -17,
     "name" : "android::ALREADY_EXISTS"
    },
    {
     "enum_field_value" : -32,
     "name" : "android::DEAD_OBJECT"
    },
    {
     "enum_field_value" : -2147483646,
     "name" : "android::FAILED_TRANSACTION"
    },
    {
     "enum_field_value" : -75,
     "name" : "android::BAD_INDEX"
    },
    {
     "enum_field_value" : -61,
     "name" : "android::NOT_ENOUGH_DATA"
    },
    {
     "enum_field_value" : -11,
     "name" : "android::WOULD_BLOCK"
    },
    {
     "enum_field_value" : -110,
     "name" : "android::TIMED_OUT"
    },
    {
     "enum_field_value" : -74,
     "name" : "android::UNKNOWN_TRANSACTION"
    },
    {
     "enum_field_value" : -2147483641,
     "name" : "android::FDS_NOT_ALLOWED"
    },
    {
     "enum_field_value" : -2147483640,
     "name" : "android::UNEXPECTED_NULL"
    }
   ],
   "linker_set_key" : "_ZTIN7android15$ALREADY_EXISTSE",
   "name" : "android::(anonymous enum at system/core/libutils/include/utils/Errors.h:43:1)",
   "referenced_type" : "_ZTIN7android15$ALREADY_EXISTSE",
   "self_type" : "_ZTIN7android15$ALREADY_EXISTSE",
   "size" : 4,
   "source_file" : "/system/core/libutils/include/utils/Errors.h",
   "underlying_type" : "_ZTIi"
  },
  {
   "alignment" : 4,
   "enum_fields" :
   [
    {
     "enum_field_value" : 19,
     "name" : "android::PRIORITY_LOWEST"
    },
    {
     "enum_field_value" : 10,
     "name" : "android::PRIORITY_BACKGROUND"
    },
    {
     "enum_field_value" : 0,
     "name" : "android::PRIORITY_NORMAL"
    },
    {
     "enum_field_value" : -2,
     "name" : "android::PRIORITY_FOREGROUND"
    },
    {
     "enum_field_value" : -4,
     "name" : "android::PRIORITY_DISPLAY"
    },
    {
     "enum_field_value" : -8,
     "name" : "android::PRIORITY_URGENT_DISPLAY"
    },
    {
     "enum_field_value" : -16,
     "name" : "android::PRIORITY_AUDIO"
    },
    {
     "enum_field_value" : -19,
     "name" : "android::PRIORITY_URGENT_AUDIO"
    },
    {
     "enum_field_value" : -20,
     "name" : "android::PRIORITY_HIGHEST"
    },
    {
     "enum_field_value" : 0,
     "name" : "android::PRIORITY_DEFAULT"
    },
    {
     "enum_field_value" : -1,
     "name" : "android::PRIORITY_MORE_FAVORABLE"
    },
    {
     "enum_field_value" : 1,
     "name" : "android::PRIORITY_LESS_FAVORABLE"
    }
   ],
   "linker_set_key" : "_ZTIN7android15$PRIORITY_AUDIOE",
   "name" : "android::(anonymous enum at system/core/libutils/include/utils/ThreadDefs.h:53:1)",
   "referenced_type" : "_ZTIN7android15$PRIORITY_AUDIOE",
   "self_type" : "_ZTIN7android15$PRIORITY_AUDIOE",
   "size" : 4,
   "source_file" : "/system/core/libutils/include/utils/ThreadDefs.h",
   "underlying_type" : "_ZTIi"
  },
  {
   "alignment" : 4,
   "enum_fields" :
   [
    {
     "enum_field_value" : 1,
     "name" : "android::trait_trivial_copy<bool>::value"
    }
   ],
   "linker_set_key" : "_ZTIN7android18trait_trivial_copyIbE6$valueE",
   "name" : "android::trait_trivial_copy<bool>::(anonymous enum at system/core/libutils/include/utils/TypeHelpers.h:98:1)",
   "referenced_type" : "_ZTIN7android18trait_trivial_copyIbE6$valueE",
   "self_type" : "_ZTIN7android18trait_trivial_copyIbE6$valueE",
   "size" : 4,
   "source_file" : "/system/core/libutils/include/utils/TypeHelpers.h",
   "underlying_type" : "_ZTIj"
  },
  {
   "alignment" : 4,
   "enum_fields" :
   [
    {
     "enum_field_value" : 1,
     "name" : "android::trait_trivial_copy<char>::value"
    }
   ],
   "linker_set_key" : "_ZTIN7android18trait_trivial_copyIcE6$valueE",
   "name" : "android::trait_trivial_copy<char>::(anonymous enum at system/core/libutils/include/utils/TypeHelpers.h:99:1)",
   "referenced_type" : "_ZTIN7android18trait_trivial_copyIcE6$valueE",
   "self_type" : "_ZTIN7android18trait_trivial_copyIcE6$valueE",
   "size" : 4,
   "source_file" : "/system/core/libutils/include/utils/TypeHelpers.h",
   "underlying_type" : "_ZTIj"
  },
  {
   "alignment" : 4,
   "enum_fields" :
   [
    {
     "enum_field_value" : 1,
     "name" : "android::trait_trivial_copy<double>::value"
    }
   ],
   "linker_set_key" : "_ZTIN7android18trait_trivial_copyIdE6$valueE",
   "name" : "android::trait_trivial_copy<double>::(anonymous enum at system/core/libutils/include/utils/TypeHelpers.h:110:1)",
   "referenced_type" : "_ZTIN7android18trait_trivial_copyIdE6$valueE",
   "self_type" : "_ZTIN7android18trait_trivial_copyIdE6$valueE",
   "size" : 4,
   "source_file" : "/system/core/libutils/include/utils/TypeHelpers.h",
   "underlying_type" : "_ZTIj"
  },
  {
   "alignment" : 4,
   "enum_fields" :
   [
    {
     "enum_field_value" : 1,
     "name" : "android::trait_trivial_copy<float>::value"
    }
   ],
   "linker_set_key" : "_ZTIN7android18trait_trivial_copyIfE6$valueE",
   "name" : "android::trait_trivial_copy<float>::(anonymous enum at system/core/libutils/include/utils/TypeHelpers.h:109:1)",
   "referenced_type" : "_ZTIN7android18trait_trivial_copyIfE6$valueE",
   "self_type" : "_ZTIN7android18trait_trivial_copyIfE6$valueE",
   "size" : 4,
   "source_file" : "/system/core/libutils/include/utils/TypeHelpers.h",
   "underlying_type" : "_ZTIj"
  },
  {
   "alignment" : 4,
   "enum_fields" :
   [
    {
     "enum_field_value" : 1,
     "name" : "android::trait_trivial_copy<unsigned char>::value"
    }
   ],
   "linker_set_key" : "_ZTIN7android18trait_trivial_copyIhE6$valueE",
   "name" : "android::trait_trivial_copy<unsigned char>::(anonymous enum at system/core/libutils/include/utils/TypeHelpers.h:100:1)",
   "referenced_type" : "_ZTIN7android18trait_trivial_copyIhE6$valueE",
   "self_type" : "_ZTIN7android18trait_trivial_copyIhE6$valueE",
   "size" : 4,
   "source_file" : "/system/core/libutils/include/utils/TypeHelpers.h",
   "underlying_type" : "_ZTIj"
  },
  {
   "alignment" : 4,
   "enum_fields" :
   [
    {
     "enum_field_value" : 1,
     "name" : "android::trait_trivial_copy<int>::value"
    }
   ],
   "linker_set_key" : "_ZTIN7android18trait_trivial_copyIiE6$valueE",
   "name" : "android::trait_trivial_copy<int>::(anonymous enum at system/core/libutils/include/utils/TypeHelpers.h:103:1)",
   "referenced_type" : "_ZTIN7android18trait_trivial_copyIiE6$valueE",
   "self_type" : "_ZTIN7android18trait_trivial_copyIiE6$valueE",
   "size" : 4,
   "source_file" : "/system/core/libutils/include/utils/TypeHelpers.h",
   "underlying_type" : "_ZTIj"
  },
  {
   "alignment" : 4,
   "enum_fields" :
   [
    {
     "enum_field_value" : 1,
     "name" : "android::trait_trivial_copy<unsigned int>::value"
    }
   ],
   "linker_set_key" : "_ZTIN7android18trait_trivial_copyIjE6$valueE",
   "name" : "android::trait_trivial_copy<unsigned int>::(anonymous enum at system/core/libutils/include/utils/TypeHelpers.h:104:1)",
   "referenced_type" : "_ZTIN7android18trait_trivial_copyIjE6$valueE",
   "self_type" : "_ZTIN7android18trait_trivial_copyIjE6$valueE",
   "size" : 4,
   "source_file" : "/system/core/libutils/include/utils/TypeHelpers.h",
   "underlying_type" : "_ZTIj"
  },
  {
   "alignment" : 4,
   "enum_fields" :
   [
    {
     "enum_field_value" : 1,
     "name" : "android::trait_trivial_copy<long>::value"
    }
   ],
   "linker_set_key" : "_ZTIN7android18trait_trivial_copyIlE6$valueE",
   "name" : "android::trait_trivial_copy<long>::(anonymous enum at system/core/libutils/include/utils/TypeHelpers.h:105:1)",
   "referenced_type" : "_ZTIN7android18trait_trivial_copyIlE6$valueE",
   "self_type" : "_ZTIN7android18trait_trivial_copyIlE6$valueE",
   "size" : 4,
   "source_file" : "/system/core/libutils/include/utils/TypeHelpers.h",
   "underlying_type" : "_ZTIj"
  },
  {
   "alignment" : 4,
   "enum_fields" :
   [
    {
     "enum_field_value" : 1,
     "name" : "android::trait_trivial_copy<unsigned long>::value"
    }
   ],
   "linker_set_key" : "_ZTIN7android18trait_trivial_copyImE6$valueE",
   "name" : "android::trait_trivial_copy<unsigned long>::(anonymous enum at system/core/libutils/include/utils/TypeHelpers.h:106:1)",
   "referenced_type" : "_ZTIN7android18trait_trivial_copyImE6$valueE",
   "self_type" : "_ZTIN7android18trait_trivial_copyImE6$valueE",
   "size" : 4,
   "source_file" : "/system/core/libutils/include/utils/TypeHelpers.h",
   "underlying_type" : "_ZTIj"
  },
  {
   "alignment" : 4,
   "enum_fields" :
   [
    {
     "enum_field_value" : 1,
     "name" : "android::trait_trivial_copy<short>::value"
    }
   ],
   "linker_set_key" : "_ZTIN7android18trait_trivial_copyIsE6$valueE",
   "name" : "android::trait_trivial_copy<short>::(anonymous enum at system/core/libutils/include/utils/TypeHelpers.h:101:1)",
   "referenced_type" : "_ZTIN7android18trait_trivial_copyIsE6$valueE",
   "self_type" : "_ZTIN7android18trait_trivial_copyIsE6$valueE",
   "size" : 4,
   "source_file" : "/system/core/libutils/include/utils/TypeHelpers.h",
   "underlying_type" : "_ZTIj"
  },
  {
   "alignment" : 4,
   "enum_fields" :
   [
    {
     "enum_field_value" : 1,
     "name" : "android::trait_trivial_copy<unsigned short>::value"
    }
   ],
   "linker_set_key" : "_ZTIN7android18trait_trivial_copyItE6$valueE",
   "name" : "android::trait_trivial_copy<unsigned short>::(anonymous enum at system/core/libutils/include/utils/TypeHelpers.h:102:1)",
   "referenced_type" : "_ZTIN7android18trait_trivial_copyItE6$valueE",
   "self_type" : "_ZTIN7android18trait_trivial_copyItE6$valueE",
   "size" : 4,
   "source_file" : "/system/core/libutils/include/utils/TypeHelpers.h",
   "underlying_type" : "_ZTIj"
  },
  {
   "alignment" : 4,
   "enum_fields" :
   [
    {
     "enum_field_value" : 1,
     "name" : "android::trait_trivial_copy<void>::value"
    }
   ],
   "linker_set_key" : "_ZTIN7android18trait_trivial_copyIvE6$valueE",
   "name" : "android::trait_trivial_copy<void>::(anonymous enum at system/core/libutils/include/utils/TypeHelpers.h:97:1)",
   "referenced_type" : "_ZTIN7android18trait_trivial_copyIvE6$valueE",
   "self_type" : "_ZTIN7android18trait_trivial_copyIvE6$valueE",
   "size" : 4,
   "source_file" : "/system/core/libutils/include/utils/TypeHelpers.h",
   "underlying_type" : "_ZTIj"
  },
  {
   "alignment" : 4,
   "enum_fields" :
   [
    {
     "enum_field_value" : 1,
     "name" : "android::trait_trivial_copy<long long>::value"
    }
   ],
   "linker_set_key" : "_ZTIN7android18trait_trivial_copyIxE6$valueE",
   "name" : "android::trait_trivial_copy<long long>::(anonymous enum at system/core/libutils/include/utils/TypeHelpers.h:107:1)",
   "referenced_type" : "_ZTIN7android18trait_trivial_copyIxE6$valueE",
   "self_type" : "_ZTIN7android18trait_trivial_copyIxE6$valueE",
   "size" : 4,
   "source_file" : "/system/core/libutils/include/utils/TypeHelpers.h",
   "underlying_type" : "_ZTIj"
  },
  {
   "alignment" : 4,
   "enum_fields" :
   [
    {
     "enum_field_value" : 1,
     "name" : "android::trait_trivial_copy<unsigned long long>::value"
    }
   ],
   "linker_set_key" : "_ZTIN7android18trait_trivial_copyIyE6$valueE",
   "name" : "android::trait_trivial_copy<unsigned long long>::(anonymous enum at system/core/libutils/include/utils/TypeHelpers.h:108:1)",
   "referenced_type" : "_ZTIN7android18trait_trivial_copyIyE6$valueE",
   "self_type" : "_ZTIN7android18trait_trivial_copyIyE6$valueE",
   "size" : 4,
   "source_file" : "/system/core/libutils/include/utils/TypeHelpers.h",
   "underlying_type" : "_ZTIj"
  },
  {
   "alignment" : 4,
   "enum_fields" :
   [
    {
     "enum_field_value" : 1,
     "name" : "android::trait_trivial_ctor<bool>::value"
    }
   ],
   "linker_set_key" : "_ZTIN7android18trait_trivial_ctorIbE6$valueE",
   "name" : "android::trait_trivial_ctor<bool>::(anonymous enum at system/core/libutils/include/utils/TypeHelpers.h:98:1)",
   "referenced_type" : "_ZTIN7android18trait_trivial_ctorIbE6$valueE",
   "self_type" : "_ZTIN7android18trait_trivial_ctorIbE6$valueE",
   "size" : 4,
   "source_file" : "/system/core/libutils/include/utils/TypeHelpers.h",
   "underlying_type" : "_ZTIj"
  },
  {
   "alignment" : 4,
   "enum_fields" :
   [
    {
     "enum_field_value" : 1,
     "name" : "android::trait_trivial_ctor<char>::value"
    }
   ],
   "linker_set_key" : "_ZTIN7android18trait_trivial_ctorIcE6$valueE",
   "name" : "android::trait_trivial_ctor<char>::(anonymous enum at system/core/libutils/include/utils/TypeHelpers.h:99:1)",
   "referenced_type" : "_ZTIN7android18trait_trivial_ctorIcE6$valueE",
   "self_type" : "_ZTIN7android18trait_trivial_ctorIcE6$valueE",
   "size" : 4,
   "source_file" : "/system/core/libutils/include/utils/TypeHelpers.h",
   "underlying_type" : "_ZTIj"
  },
  {
   "alignment" : 4,
   "enum_fields" :
   [
    {
     "enum_field_value" : 1,
     "name" : "android::trait_trivial_ctor<double>::value"
    }
   ],
   "linker_set_key" : "_ZTIN7android18trait_trivial_ctorIdE6$valueE",
   "name" : "android::trait_trivial_ctor<double>::(anonymous enum at system/core/libutils/include/utils/TypeHelpers.h:110:1)",
   "referenced_type" : "_ZTIN7android18trait_trivial_ctorIdE6$valueE",
   "self_type" : "_ZTIN7android18trait_trivial_ctorIdE6$valueE",
   "size" : 4,
   "source_file" : "/system/core/libutils/include/utils/TypeHelpers.h",
   "underlying_type" : "_ZTIj"
  },
  {
   "alignment" : 4,
   "enum_fields" :
   [
    {
     "enum_field_value" : 1,
     "name" : "android::trait_trivial_ctor<float>::value"
    }
   ],
   "linker_set_key" : "_ZTIN7android18trait_trivial_ctorIfE6$valueE",
   "name" : "android::trait_trivial_ctor<float>::(anonymous enum at system/core/libutils/include/utils/TypeHelpers.h:109:1)",
   "referenced_type" : "_ZTIN7android18trait_trivial_ctorIfE6$valueE",
   "self_type" : "_ZTIN7android18trait_trivial_ctorIfE6$valueE",
   "size" : 4,
   "source_file" : "/system/core/libutils/include/utils/TypeHelpers.h",
   "underlying_type" : "_ZTIj"
  },
  {
   "alignment" : 4,
   "enum_fields" :
   [
    {
     "enum_field_value" : 1,
     "name" : "android::trait_trivial_ctor<unsigned char>::value"
    }
   ],
   "linker_set_key" : "_ZTIN7android18trait_trivial_ctorIhE6$valueE",
   "name" : "android::trait_trivial_ctor<unsigned char>::(anonymous enum at system/core/libutils/include/utils/TypeHelpers.h:100:1)",
   "referenced_type" : "_ZTIN7android18trait_trivial_ctorIhE6$valueE",
   "self_type" : "_ZTIN7android18trait_trivial_ctorIhE6$valueE",
   "size" : 4,
   "source_file" : "/system/core/libutils/include/utils/TypeHelpers.h",
   "underlying_type" : "_ZTIj"
  },
  {
   "alignment" : 4,
   "enum_fields" :
   [
    {
     "enum_field_value" : 1,
     "name" : "android::trait_trivial_ctor<int>::value"
    }
   ],
   "linker_set_key" : "_ZTIN7android18trait_trivial_ctorIiE6$valueE",
   "name" : "android::trait_trivial_ctor<int>::(anonymous enum at system/core/libutils/include/utils/TypeHelpers.h:103:1)",
   "referenced_type" : "_ZTIN7android18trait_trivial_ctorIiE6$valueE",
   "self_type" : "_ZTIN7android18trait_trivial_ctorIiE6$valueE",
   "size" : 4,
   "source_file" : "/system/core/libutils/include/utils/TypeHelpers.h",
   "underlying_type" : "_ZTIj"
  },
  {
   "alignment" : 4,
   "enum_fields" :
   [
    {
     "enum_field_value" : 1,
     "name" : "android::trait_trivial_ctor<unsigned int>::value"
    }
   ],
   "linker_set_key" : "_ZTIN7android18trait_trivial_ctorIjE6$valueE",
   "name" : "android::trait_trivial_ctor<unsigned int>::(anonymous enum at system/core/libutils/include/utils/TypeHelpers.h:104:1)",
   "referenced_type" : "_ZTIN7android18trait_trivial_ctorIjE6$valueE",
   "self_type" : "_ZTIN7android18trait_trivial_ctorIjE6$valueE",
   "size" : 4,
   "source_file" : "/system/core/libutils/include/utils/TypeHelpers.h",
   "underlying_type" : "_ZTIj"
  },
  {
   "alignment" : 4,
   "enum_fields" :
   [
    {
     "enum_field_value" : 1,
     "name" : "android::trait_trivial_ctor<long>::value"
    }
   ],
   "linker_set_key" : "_ZTIN7android18trait_trivial_ctorIlE6$valueE",
   "name" : "android::trait_trivial_ctor<long>::(anonymous enum at system/core/libutils/include/utils/TypeHelpers.h:105:1)",
   "referenced_type" : "_ZTIN7android18trait_trivial_ctorIlE6$valueE",
   "self_type" : "_ZTIN7android18trait_trivial_ctorIlE6$valueE",
   "size" : 4,
   "source_file" : "/system/core/libutils/include/utils/TypeHelpers.h",
   "underlying_type" : "_ZTIj"
  },
  {
   "alignment" : 4,
   "enum_fields" :
   [
    {
     "enum_field_value" : 1,
     "name" : "android::trait_trivial_ctor<unsigned long>::value"
    }
   ],
   "linker_set_key" : "_ZTIN7android18trait_trivial_ctorImE6$valueE",
   "name" : "android::trait_trivial_ctor<unsigned long>::(anonymous enum at system/core/libutils/include/utils/TypeHelpers.h:106:1)",
   "referenced_type" : "_ZTIN7android18trait_trivial_ctorImE6$valueE",
   "self_type" : "_ZTIN7android18trait_trivial_ctorImE6$valueE",
   "size" : 4,
   "source_file" : "/system/core/libutils/include/utils/TypeHelpers.h",
   "underlying_type" : "_ZTIj"
  },
  {
   "alignment" : 4,
   "enum_fields" :
   [
    {
     "enum_field_value" : 1,
     "name" : "android::trait_trivial_ctor<short>::value"
    }
   ],
   "linker_set_key" : "_ZTIN7android18trait_trivial_ctorIsE6$valueE",
   "name" : "android::trait_trivial_ctor<short>::(anonymous enum at system/core/libutils/include/utils/TypeHelpers.h:101:1)",
   "referenced_type" : "_ZTIN7android18trait_trivial_ctorIsE6$valueE",
   "self_type" : "_ZTIN7android18trait_trivial_ctorIsE6$valueE",
   "size" : 4,
   "source_file" : "/system/core/libutils/include/utils/TypeHelpers.h",
   "underlying_type" : "_ZTIj"
  },
  {
   "alignment" : 4,
   "enum_fields" :
   [
    {
     "enum_field_value" : 1,
     "name" : "android::trait_trivial_ctor<unsigned short>::value"
    }
   ],
   "linker_set_key" : "_ZTIN7android18trait_trivial_ctorItE6$valueE",
   "name" : "android::trait_trivial_ctor<unsigned short>::(anonymous enum at system/core/libutils/include/utils/TypeHelpers.h:102:1)",
   "referenced_type" : "_ZTIN7android18trait_trivial_ctorItE6$valueE",
   "self_type" : "_ZTIN7android18trait_trivial_ctorItE6$valueE",
   "size" : 4,
   "source_file" : "/system/core/libutils/include/utils/TypeHelpers.h",
   "underlying_type" : "_ZTIj"
  },
  {
   "alignment" : 4,
   "enum_fields" :
   [
    {
     "enum_field_value" : 1,
     "name" : "android::trait_trivial_ctor<void>::value"
    }
   ],
   "linker_set_key" : "_ZTIN7android18trait_trivial_ctorIvE6$valueE",
   "name" : "android::trait_trivial_ctor<void>::(anonymous enum at system/core/libutils/include/utils/TypeHelpers.h:97:1)",
   "referenced_type" : "_ZTIN7android18trait_trivial_ctorIvE6$valueE",
   "self_type" : "_ZTIN7android18trait_trivial_ctorIvE6$valueE",
   "size" : 4,
   "source_file" : "/system/core/libutils/include/utils/TypeHelpers.h",
   "underlying_type" : "_ZTIj"
  },
  {
   "alignment" : 4,
   "enum_fields" :
   [
    {
     "enum_field_value" : 1,
     "name" : "android::trait_trivial_ctor<long long>::value"
    }
   ],
   "linker_set_key" : "_ZTIN7android18trait_trivial_ctorIxE6$valueE",
   "name" : "android::trait_trivial_ctor<long long>::(anonymous enum at system/core/libutils/include/utils/TypeHelpers.h:107:1)",
   "referenced_type" : "_ZTIN7android18trait_trivial_ctorIxE6$valueE",
   "self_type" : "_ZTIN7android18trait_trivial_ctorIxE6$valueE",
   "size" : 4,
   "source_file" : "/system/core/libutils/include/utils/TypeHelpers.h",
   "underlying_type" : "_ZTIj"
  },
  {
   "alignment" : 4,
   "enum_fields" :
   [
    {
     "enum_field_value" : 1,
     "name" : "android::trait_trivial_ctor<unsigned long long>::value"
    }
   ],
   "linker_set_key" : "_ZTIN7android18trait_trivial_ctorIyE6$valueE",
   "name" : "android::trait_trivial_ctor<unsigned long long>::(anonymous enum at system/core/libutils/include/utils/TypeHelpers.h:108:1)",
   "referenced_type" : "_ZTIN7android18trait_trivial_ctorIyE6$valueE",
   "self_type" : "_ZTIN7android18trait_trivial_ctorIyE6$valueE",
   "size" : 4,
   "source_file" : "/system/core/libutils/include/utils/TypeHelpers.h",
   "underlying_type" : "_ZTIj"
  },
  {
   "alignment" : 4,
   "enum_fields" :
   [
    {
     "enum_field_value" : 1,
     "name" : "android::trait_trivial_dtor<bool>::value"
    }
   ],
   "linker_set_key" : "_ZTIN7android18trait_trivial_dtorIbE6$valueE",
   "name" : "android::trait_trivial_dtor<bool>::(anonymous enum at system/core/libutils/include/utils/TypeHelpers.h:98:1)",
   "referenced_type" : "_ZTIN7android18trait_trivial_dtorIbE6$valueE",
   "self_type" : "_ZTIN7android18trait_trivial_dtorIbE6$valueE",
   "size" : 4,
   "source_file" : "/system/core/libutils/include/utils/TypeHelpers.h",
   "underlying_type" : "_ZTIj"
  },
  {
   "alignment" : 4,
   "enum_fields" :
   [
    {
     "enum_field_value" : 1,
     "name" : "android::trait_trivial_dtor<char>::value"
    }
   ],
   "linker_set_key" : "_ZTIN7android18trait_trivial_dtorIcE6$valueE",
   "name" : "android::trait_trivial_dtor<char>::(anonymous enum at system/core/libutils/include/utils/TypeHelpers.h:99:1)",
   "referenced_type" : "_ZTIN7android18trait_trivial_dtorIcE6$valueE",
   "self_type" : "_ZTIN7android18trait_trivial_dtorIcE6$valueE",
   "size" : 4,
   "source_file" : "/system/core/libutils/include/utils/TypeHelpers.h",
   "underlying_type" : "_ZTIj"
  },
  {
   "alignment" : 4,
   "enum_fields" :
   [
    {
     "enum_field_value" : 1,
     "name" : "android::trait_trivial_dtor<double>::value"
    }
   ],
   "linker_set_key" : "_ZTIN7android18trait_trivial_dtorIdE6$valueE",
   "name" : "android::trait_trivial_dtor<double>::(anonymous enum at system/core/libutils/include/utils/TypeHelpers.h:110:1)",
   "referenced_type" : "_ZTIN7android18trait_trivial_dtorIdE6$valueE",
   "self_type" : "_ZTIN7android18trait_trivial_dtorIdE6$valueE",
   "size" : 4,
   "source_file" : "/system/core/libutils/include/utils/TypeHelpers.h",
   "underlying_type" : "_ZTIj"
  },
  {
   "alignment" : 4,
   "enum_fields" :
   [
    {
     "enum_field_value" : 1,
     "name" : "android::trait_trivial_dtor<float>::value"
    }
   ],
   "linker_set_key" : "_ZTIN7android18trait_trivial_dtorIfE6$valueE",
   "name" : "android::trait_trivial_dtor<float>::(anonymous enum at system/core/libutils/include/utils/TypeHelpers.h:109:1)",
   "referenced_type" : "_ZTIN7android18trait_trivial_dtorIfE6$valueE",
   "self_type" : "_ZTIN7android18trait_trivial_dtorIfE6$valueE",
   "size" : 4,
   "source_file" : "/system/core/libutils/include/utils/TypeHelpers.h",
   "underlying_type" : "_ZTIj"
  },
  {
   "alignment" : 4,
   "enum_fields" :
   [
    {
     "enum_field_value" : 1,
     "name" : "android::trait_trivial_dtor<unsigned char>::value"
    }
   ],
   "linker_set_key" : "_ZTIN7android18trait_trivial_dtorIhE6$valueE",
   "name" : "android::trait_trivial_dtor<unsigned char>::(anonymous enum at system/core/libutils/include/utils/TypeHelpers.h:100:1)",
   "referenced_type" : "_ZTIN7android18trait_trivial_dtorIhE6$valueE",
   "self_type" : "_ZTIN7android18trait_trivial_dtorIhE6$valueE",
   "size" : 4,
   "source_file" : "/system/core/libutils/include/utils/TypeHelpers.h",
   "underlying_type" : "_ZTIj"
  },
  {
   "alignment" : 4,
   "enum_fields" :
   [
    {
     "enum_field_value" : 1,
     "name" : "android::trait_trivial_dtor<int>::value"
    }
   ],
   "linker_set_key" : "_ZTIN7android18trait_trivial_dtorIiE6$valueE",
   "name" : "android::trait_trivial_dtor<int>::(anonymous enum at system/core/libutils/include/utils/TypeHelpers.h:103:1)",
   "referenced_type" : "_ZTIN7android18trait_trivial_dtorIiE6$valueE",
   "self_type" : "_ZTIN7android18trait_trivial_dtorIiE6$valueE",
   "size" : 4,
   "source_file" : "/system/core/libutils/include/utils/TypeHelpers.h",
   "underlying_type" : "_ZTIj"
  },
  {
   "alignment" : 4,
   "enum_fields" :
   [
    {
     "enum_field_value" : 1,
     "name" : "android::trait_trivial_dtor<unsigned int>::value"
    }
   ],
   "linker_set_key" : "_ZTIN7android18trait_trivial_dtorIjE6$valueE",
   "name" : "android::trait_trivial_dtor<unsigned int>::(anonymous enum at system/core/libutils/include/utils/TypeHelpers.h:104:1)",
   "referenced_type" : "_ZTIN7android18trait_trivial_dtorIjE6$valueE",
   "self_type" : "_ZTIN7android18trait_trivial_dtorIjE6$valueE",
   "size" : 4,
   "source_file" : "/system/core/libutils/include/utils/TypeHelpers.h",
   "underlying_type" : "_ZTIj"
  },
  {
   "alignment" : 4,
   "enum_fields" :
   [
    {
     "enum_field_value" : 1,
     "name" : "android::trait_trivial_dtor<long>::value"
    }
   ],
   "linker_set_key" : "_ZTIN7android18trait_trivial_dtorIlE6$valueE",
   "name" : "android::trait_trivial_dtor<long>::(anonymous enum at system/core/libutils/include/utils/TypeHelpers.h:105:1)",
   "referenced_type" : "_ZTIN7android18trait_trivial_dtorIlE6$valueE",
   "self_type" : "_ZTIN7android18trait_trivial_dtorIlE6$valueE",
   "size" : 4,
   "source_file" : "/system/core/libutils/include/utils/TypeHelpers.h",
   "underlying_type" : "_ZTIj"
  },
  {
   "alignment" : 4,
   "enum_fields" :
   [
    {
     "enum_field_value" : 1,
     "name" : "android::trait_trivial_dtor<unsigned long>::value"
    }
   ],
   "linker_set_key" : "_ZTIN7android18trait_trivial_dtorImE6$valueE",
   "name" : "android::trait_trivial_dtor<unsigned long>::(anonymous enum at system/core/libutils/include/utils/TypeHelpers.h:106:1)",
   "referenced_type" : "_ZTIN7android18trait_trivial_dtorImE6$valueE",
   "self_type" : "_ZTIN7android18trait_trivial_dtorImE6$valueE",
   "size" : 4,
   "source_file" : "/system/core/libutils/include/utils/TypeHelpers.h",
   "underlying_type" : "_ZTIj"
  },
  {
   "alignment" : 4,
   "enum_fields" :
   [
    {
     "enum_field_value" : 1,
     "name" : "android::trait_trivial_dtor<short>::value"
    }
   ],
   "linker_set_key" : "_ZTIN7android18trait_trivial_dtorIsE6$valueE",
   "name" : "android::trait_trivial_dtor<short>::(anonymous enum at system/core/libutils/include/utils/TypeHelpers.h:101:1)",
   "referenced_type" : "_ZTIN7android18trait_trivial_dtorIsE6$valueE",
   "self_type" : "_ZTIN7android18trait_trivial_dtorIsE6$valueE",
   "size" : 4,
   "source_file" : "/system/core/libutils/include/utils/TypeHelpers.h",
   "underlying_type" : "_ZTIj"
  },
  {
   "alignment" : 4,
   "enum_fields" :
   [
    {
     "enum_field_value" : 1,
     "name" : "android::trait_trivial_dtor<unsigned short>::value"
    }
   ],
   "linker_set_key" : "_ZTIN7android18trait_trivial_dtorItE6$valueE",
   "name" : "android::trait_trivial_dtor<unsigned short>::(anonymous enum at system/core/libutils/include/utils/TypeHelpers.h:102:1)",
   "referenced_type" : "_ZTIN7android18trait_trivial_dtorItE6$valueE",
   "self_type" : "_ZTIN7android18trait_trivial_dtorItE6$valueE",
   "size" : 4,
   "source_file" : "/system/core/libutils/include/utils/TypeHelpers.h",
   "underlying_type" : "_ZTIj"
  },
  {
   "alignment" : 4,
   "enum_fields" :
   [
    {
     "enum_field_value" : 1,
     "name" : "android::trait_trivial_dtor<void>::value"
    }
   ],
   "linker_set_key" : "_ZTIN7android18trait_trivial_dtorIvE6$valueE",
   "name" : "android::trait_trivial_dtor<void>::(anonymous enum at system/core/libutils/include/utils/TypeHelpers.h:97:1)",
   "referenced_type" : "_ZTIN7android18trait_trivial_dtorIvE6$valueE",
   "self_type" : "_ZTIN7android18trait_trivial_dtorIvE6$valueE",
   "size" : 4,
   "source_file" : "/system/core/libutils/include/utils/TypeHelpers.h",
   "underlying_type" : "_ZTIj"
  },
  {
   "alignment" : 4,
   "enum_fields" :
   [
    {
     "enum_field_value" : 1,
     "name" : "android::trait_trivial_dtor<long long>::value"
    }
   ],
   "linker_set_key" : "_ZTIN7android18trait_trivial_dtorIxE6$valueE",
   "name" : "android::trait_trivial_dtor<long long>::(anonymous enum at system/core/libutils/include/utils/TypeHelpers.h:107:1)",
   "referenced_type" : "_ZTIN7android18trait_trivial_dtorIxE6$valueE",
   "self_type" : "_ZTIN7android18trait_trivial_dtorIxE6$valueE",
   "size" : 4,
   "source_file" : "/system/core/libutils/include/utils/TypeHelpers.h",
   "underlying_type" : "_ZTIj"
  },
  {
   "alignment" : 4,
   "enum_fields" :
   [
    {
     "enum_field_value" : 1,
     "name" : "android::trait_trivial_dtor<unsigned long long>::value"
    }
   ],
   "linker_set_key" : "_ZTIN7android18trait_trivial_dtorIyE6$valueE",
   "name" : "android::trait_trivial_dtor<unsigned long long>::(anonymous enum at system/core/libutils/include/utils/TypeHelpers.h:108:1)",
   "referenced_type" : "_ZTIN7android18trait_trivial_dtorIyE6$valueE",
   "self_type" : "_ZTIN7android18trait_trivial_dtorIyE6$valueE",
   "size" : 4,
   "source_file" : "/system/core/libutils/include/utils/TypeHelpers.h",
   "underlying_type" : "_ZTIj"
  },
  {
   "alignment" : 4,
   "enum_fields" :
   [
    {
     "enum_field_value" : 1,
     "name" : "android::trait_trivial_move<android::String8>::value"
    }
   ],
   "linker_set_key" : "_ZTIN7android18trait_trivial_moveINS_7String8EE6$valueE",
   "name" : "android::trait_trivial_move<String8>::(anonymous enum at system/core/libutils/include/utils/String8.h:242:1)",
   "referenced_type" : "_ZTIN7android18trait_trivial_moveINS_7String8EE6$valueE",
   "self_type" : "_ZTIN7android18trait_trivial_moveINS_7String8EE6$valueE",
   "size" : 4,
   "source_file" : "/system/core/libutils/include/utils/String8.h",
   "underlying_type" : "_ZTIj"
  },
  {
   "alignment" : 4,
   "enum_fields" :
   [
    {
     "enum_field_value" : 1,
     "name" : "android::trait_trivial_move<android::String16>::value"
    }
   ],
   "linker_set_key" : "_ZTIN7android18trait_trivial_moveINS_8String16EE6$valueE",
   "name" : "android::trait_trivial_move<String16>::(anonymous enum at system/core/libutils/include/utils/String16.h:197:1)",
   "referenced_type" : "_ZTIN7android18trait_trivial_moveINS_8String16EE6$valueE",
   "self_type" : "_ZTIN7android18trait_trivial_moveINS_8String16EE6$valueE",
   "size" : 4,
   "source_file" : "/system/core/libutils/include/utils/String16.h",
   "underlying_type" : "_ZTIj"
  },
  {
   "alignment" : 4,
   "enum_fields" :
   [
    {
     "enum_field_value" : 1,
     "name" : "android::trait_trivial_move<bool>::value"
    }
   ],
   "linker_set_key" : "_ZTIN7android18trait_trivial_moveIbE6$valueE",
   "name" : "android::trait_trivial_move<bool>::(anonymous enum at system/core/libutils/include/utils/TypeHelpers.h:98:1)",
   "referenced_type" : "_ZTIN7android18trait_trivial_moveIbE6$valueE",
   "self_type" : "_ZTIN7android18trait_trivial_moveIbE6$valueE",
   "size" : 4,
   "source_file" : "/system/core/libutils/include/utils/TypeHelpers.h",
   "underlying_type" : "_ZTIj"
  },
  {
   "alignment" : 4,
   "enum_fields" :
   [
    {
     "enum_field_value" : 1,
     "name" : "android::trait_trivial_move<char>::value"
    }
   ],
   "linker_set_key" : "_ZTIN7android18trait_trivial_moveIcE6$valueE",
   "name" : "android::trait_trivial_move<char>::(anonymous enum at system/core/libutils/include/utils/TypeHelpers.h:99:1)",
   "referenced_type" : "_ZTIN7android18trait_trivial_moveIcE6$valueE",
   "self_type" : "_ZTIN7android18trait_trivial_moveIcE6$valueE",
   "size" : 4,
   "source_file" : "/system/core/libutils/include/utils/TypeHelpers.h",
   "underlying_type" : "_ZTIj"
  },
  {
   "alignment" : 4,
   "enum_fields" :
   [
    {
     "enum_field_value" : 1,
     "name" : "android::trait_trivial_move<double>::value"
    }
   ],
   "linker_set_key" : "_ZTIN7android18trait_trivial_moveIdE6$valueE",
   "name" : "android::trait_trivial_move<double>::(anonymous enum at system/core/libutils/include/utils/TypeHelpers.h:110:1)",
   "referenced_type" : "_ZTIN7android18trait_trivial_moveIdE6$valueE",
   "self_type" : "_ZTIN7android18trait_trivial_moveIdE6$valueE",
   "size" : 4,
   "source_file" : "/system/core/libutils/include/utils/TypeHelpers.h",
   "underlying_type" : "_ZTIj"
  },
  {
   "alignment" : 4,
   "enum_fields" :
   [
    {
     "enum_field_value" : 1,
     "name" : "android::trait_trivial_move<float>::value"
    }
   ],
   "linker_set_key" : "_ZTIN7android18trait_trivial_moveIfE6$valueE",
   "name" : "android::trait_trivial_move<float>::(anonymous enum at system/core/libutils/include/utils/TypeHelpers.h:109:1)",
   "referenced_type" : "_ZTIN7android18trait_trivial_moveIfE6$valueE",
   "self_type" : "_ZTIN7android18trait_trivial_moveIfE6$valueE",
   "size" : 4,
   "source_file" : "/system/core/libutils/include/utils/TypeHelpers.h",
   "underlying_type" : "_ZTIj"
  },
  {
   "alignment" : 4,
   "enum_fields" :
   [
    {
     "enum_field_value" : 1,
     "name" : "android::trait_trivial_move<unsigned char>::value"
    }
   ],
   "linker_set_key" : "_ZTIN7android18trait_trivial_moveIhE6$valueE",
   "name" : "android::trait_trivial_move<unsigned char>::(anonymous enum at system/core/libutils/include/utils/TypeHelpers.h:100:1)",
   "referenced_type" : "_ZTIN7android18trait_trivial_moveIhE6$valueE",
   "self_type" : "_ZTIN7android18trait_trivial_moveIhE6$valueE",
   "size" : 4,
   "source_file" : "/system/core/libutils/include/utils/TypeHelpers.h",
   "underlying_type" : "_ZTIj"
  },
  {
   "alignment" : 4,
   "enum_fields" :
   [
    {
     "enum_field_value" : 1,
     "name" : "android::trait_trivial_move<int>::value"
    }
   ],
   "linker_set_key" : "_ZTIN7android18trait_trivial_moveIiE6$valueE",
   "name" : "android::trait_trivial_move<int>::(anonymous enum at system/core/libutils/include/utils/TypeHelpers.h:103:1)",
   "referenced_type" : "_ZTIN7android18trait_trivial_moveIiE6$valueE",
   "self_type" : "_ZTIN7android18trait_trivial_moveIiE6$valueE",
   "size" : 4,
   "source_file" : "/system/core/libutils/include/utils/TypeHelpers.h",
   "underlying_type" : "_ZTIj"
  },
  {
   "alignment" : 4,
   "enum_fields" :
   [
    {
     "enum_field_value" : 1,
     "name" : "android::trait_trivial_move<unsigned int>::value"
    }
   ],
   "linker_set_key" : "_ZTIN7android18trait_trivial_moveIjE6$valueE",
   "name" : "android::trait_trivial_move<unsigned int>::(anonymous enum at system/core/libutils/include/utils/TypeHelpers.h:104:1)",
   "referenced_type" : "_ZTIN7android18trait_trivial_moveIjE6$valueE",
   "self_type" : "_ZTIN7android18trait_trivial_moveIjE6$valueE",
   "size" : 4,
   "source_file" : "/system/core/libutils/include/utils/TypeHelpers.h",
   "underlying_type" : "_ZTIj"
  },
  {
   "alignment" : 4,
   "enum_fields" :
   [
    {
     "enum_field_value" : 1,
     "name" : "android::trait_trivial_move<long>::value"
    }
   ],
   "linker_set_key" : "_ZTIN7android18trait_trivial_moveIlE6$valueE",
   "name" : "android::trait_trivial_move<long>::(anonymous enum at system/core/libutils/include/utils/TypeHelpers.h:105:1)",
   "referenced_type" : "_ZTIN7android18trait_trivial_moveIlE6$valueE",
   "self_type" : "_ZTIN7android18trait_trivial_moveIlE6$valueE",
   "size" : 4,
   "source_file" : "/system/core/libutils/include/utils/TypeHelpers.h",
   "underlying_type" : "_ZTIj"
  },
  {
   "alignment" : 4,
   "enum_fields" :
   [
    {
     "enum_field_value" : 1,
     "name" : "android::trait_trivial_move<unsigned long>::value"
    }
   ],
   "linker_set_key" : "_ZTIN7android18trait_trivial_moveImE6$valueE",
   "name" : "android::trait_trivial_move<unsigned long>::(anonymous enum at system/core/libutils/include/utils/TypeHelpers.h:106:1)",
   "referenced_type" : "_ZTIN7android18trait_trivial_moveImE6$valueE",
   "self_type" : "_ZTIN7android18trait_trivial_moveImE6$valueE",
   "size" : 4,
   "source_file" : "/system/core/libutils/include/utils/TypeHelpers.h",
   "underlying_type" : "_ZTIj"
  },
  {
   "alignment" : 4,
   "enum_fields" :
   [
    {
     "enum_field_value" : 1,
     "name" : "android::trait_trivial_move<short>::value"
    }
   ],
   "linker_set_key" : "_ZTIN7android18trait_trivial_moveIsE6$valueE",
   "name" : "android::trait_trivial_move<short>::(anonymous enum at system/core/libutils/include/utils/TypeHelpers.h:101:1)",
   "referenced_type" : "_ZTIN7android18trait_trivial_moveIsE6$valueE",
   "self_type" : "_ZTIN7android18trait_trivial_moveIsE6$valueE",
   "size" : 4,
   "source_file" : "/system/core/libutils/include/utils/TypeHelpers.h",
   "underlying_type" : "_ZTIj"
  },
  {
   "alignment" : 4,
   "enum_fields" :
   [
    {
     "enum_field_value" : 1,
     "name" : "android::trait_trivial_move<unsigned short>::value"
    }
   ],
   "linker_set_key" : "_ZTIN7android18trait_trivial_moveItE6$valueE",
   "name" : "android::trait_trivial_move<unsigned short>::(anonymous enum at system/core/libutils/include/utils/TypeHelpers.h:102:1)",
   "referenced_type" : "_ZTIN7android18trait_trivial_moveItE6$valueE",
   "self_type" : "_ZTIN7android18trait_trivial_moveItE6$valueE",
   "size" : 4,
   "source_file" : "/system/core/libutils/include/utils/TypeHelpers.h",
   "underlying_type" : "_ZTIj"
  },
  {
   "alignment" : 4,
   "enum_fields" :
   [
    {
     "enum_field_value" : 1,
     "name" : "android::trait_trivial_move<void>::value"
    }
   ],
   "linker_set_key" : "_ZTIN7android18trait_trivial_moveIvE6$valueE",
   "name" : "android::trait_trivial_move<void>::(anonymous enum at system/core/libutils/include/utils/TypeHelpers.h:97:1)",
   "referenced_type" : "_ZTIN7android18trait_trivial_moveIvE6$valueE",
   "self_type" : "_ZTIN7android18trait_trivial_moveIvE6$valueE",
   "size" : 4,
   "source_file" : "/system/core/libutils/include/utils/TypeHelpers.h",
   "underlying_type" : "_ZTIj"
  },
  {
   "alignment" : 4,
   "enum_fields" :
   [
    {
     "enum_field_value" : 1,
     "name" : "android::trait_trivial_move<long long>::value"
    }
   ],
   "linker_set_key" : "_ZTIN7android18trait_trivial_moveIxE6$valueE",
   "name" : "android::trait_trivial_move<long long>::(anonymous enum at system/core/libutils/include/utils/TypeHelpers.h:107:1)",
   "referenced_type" : "_ZTIN7android18trait_trivial_moveIxE6$valueE",
   "self_type" : "_ZTIN7android18trait_trivial_moveIxE6$valueE",
   "size" : 4,
   "source_file" : "/system/core/libutils/include/utils/TypeHelpers.h",
   "underlying_type" : "_ZTIj"
  },
  {
   "alignment" : 4,
   "enum_fields" :
   [
    {
     "enum_field_value" : 1,
     "name" : "android::trait_trivial_move<unsigned long long>::value"
    }
   ],
   "linker_set_key" : "_ZTIN7android18trait_trivial_moveIyE6$valueE",
   "name" : "android::trait_trivial_move<unsigned long long>::(anonymous enum at system/core/libutils/include/utils/TypeHelpers.h:108:1)",
   "referenced_type" : "_ZTIN7android18trait_trivial_moveIyE6$valueE",
   "self_type" : "_ZTIN7android18trait_trivial_moveIyE6$valueE",
   "size" : 4,
   "source_file" : "/system/core/libutils/include/utils/TypeHelpers.h",
   "underlying_type" : "_ZTIj"
  },
  {
   "alignment" : 4,
   "enum_fields" :
   [
    {
     "enum_field_value" : 0,
     "name" : "android::hidl::base::V1_0::DebugInfo::Architecture::UNKNOWN"
    },
    {
     "enum_field_value" : 1,
     "name" : "android::hidl::base::V1_0::DebugInfo::Architecture::IS_64BIT"
    },
    {
     "enum_field_value" : 2,
     "name" : "android::hidl::base::V1_0::DebugInfo::Architecture::IS_32BIT"
    }
   ],
   "linker_set_key" : "_ZTIN7android4hidl4base4V1_09DebugInfo12ArchitectureE",
   "name" : "android::hidl::base::V1_0::DebugInfo::Architecture",
   "referenced_type" : "_ZTIN7android4hidl4base4V1_09DebugInfo12ArchitectureE",
   "self_type" : "_ZTIN7android4hidl4base4V1_09DebugInfo12ArchitectureE",
   "size" : 4,
   "source_file" : "/out/soong/.intermediates/system/libhidl/transport/base/1.0/android.hidl.base@1.0_genc++_headers/gen/android/hidl/base/1.0/types.h",
   "underlying_type" : "_ZTIi"
  },
  {
   "alignment" : 4,
   "enum_fields" :
   [
    {
     "enum_field_value" : -1,
     "name" : "android::hidl::manager::V1_0::IServiceManager::PidConstant::NO_PID"
    }
   ],
   "linker_set_key" : "_ZTIN7android4hidl7manager4V1_015IServiceManager11PidConstantE",
   "name" : "android::hidl::manager::V1_0::IServiceManager::PidConstant",
   "referenced_type" : "_ZTIN7android4hidl7manager4V1_015IServiceManager11PidConstantE",
   "self_type" : "_ZTIN7android4hidl7manager4V1_015IServiceManager11PidConstantE",
   "size" : 4,
   "source_file" : "/out/soong/.intermediates/system/libhidl/transport/manager/1.0/android.hidl.manager@1.0_genc++_headers/gen/android/hidl/manager/1.0/IServiceManager.h",
   "underlying_type" : "_ZTIi"
  },
  {
   "alignment" : 1,
   "enum_fields" :
   [
    {
     "enum_field_value" : 0,
     "name" : "android::hidl::manager::V1_0::IServiceManager::Transport::EMPTY"
    },
    {
     "enum_field_value" : 1,
     "name" : "android::hidl::manager::V1_0::IServiceManager::Transport::HWBINDER"
    },
    {
     "enum_field_value" : 2,
     "name" : "android::hidl::manager::V1_0::IServiceManager::Transport::PASSTHROUGH"
    }
   ],
   "linker_set_key" : "_ZTIN7android4hidl7manager4V1_015IServiceManager9TransportE",
   "name" : "android::hidl::manager::V1_0::IServiceManager::Transport",
   "referenced_type" : "_ZTIN7android4hidl7manager4V1_015IServiceManager9TransportE",
   "self_type" : "_ZTIN7android4hidl7manager4V1_015IServiceManager9TransportE",
   "size" : 1,
   "source_file" : "/out/soong/.intermediates/system/libhidl/transport/manager/1.0/android.hidl.manager@1.0_genc++_headers/gen/android/hidl/manager/1.0/IServiceManager.h",
   "underlying_type" : "_ZTIh"
  },
  {
   "alignment" : 4,
   "enum_fields" :
   [
    {
     "enum_field_value" : 0,
     "name" : "android::Mutex::PRIVATE"
    },
    {
     "enum_field_value" : 1,
     "name" : "android::Mutex::SHARED"
    }
   ],
   "linker_set_key" : "_ZTIN7android5Mutex8$PRIVATEE",
   "name" : "android::Mutex::(anonymous enum at system/core/libutils/include/utils/Mutex.h:96:5)",
   "referenced_type" : "_ZTIN7android5Mutex8$PRIVATEE",
   "self_type" : "_ZTIN7android5Mutex8$PRIVATEE",
   "size" : 4,
   "source_file" : "/system/core/libutils/include/utils/Mutex.h",
   "underlying_type" : "_ZTIj"
  },
  {
   "alignment" : 4,
   "enum_fields" :
   [
    {
     "enum_field_value" : 0,
     "name" : "android::RWLock::PRIVATE"
    },
    {
     "enum_field_value" : 1,
     "name" : "android::RWLock::SHARED"
    }
   ],
   "linker_set_key" : "_ZTIN7android6RWLock8$PRIVATEE",
   "name" : "android::RWLock::(anonymous enum at system/core/libutils/include/utils/RWLock.h:44:5)",
   "referenced_type" : "_ZTIN7android6RWLock8$PRIVATEE",
   "self_type" : "_ZTIN7android6RWLock8$PRIVATEE",
   "size" : 4,
   "source_file" : "/system/core/libutils/include/utils/RWLock.h",
   "underlying_type" : "_ZTIj"
  },
  {
   "access" : "protected",
   "alignment" : 4,
   "enum_fields" :
   [
    {
     "enum_field_value" : 1,
     "name" : "android::RefBase::FIRST_INC_STRONG"
    }
   ],
   "linker_set_key" : "_ZTIN7android7RefBase17$FIRST_INC_STRONGE",
   "name" : "android::RefBase::(anonymous enum at system/core/libutils/include/utils/RefBase.h:313:5)",
   "referenced_type" : "_ZTIN7android7RefBase17$FIRST_INC_STRONGE",
   "self_type" : "_ZTIN7android7RefBase17$FIRST_INC_STRONGE",
   "size" : 4,
   "source_file" : "/system/core/libutils/include/utils/RefBase.h",
   "underlying_type" : "_ZTIj"
  },
  {
   "access" : "protected",
   "alignment" : 4,
   "enum_fields" :
   [
    {
     "enum_field_value" : 0,
     "name" : "android::RefBase::OBJECT_LIFETIME_STRONG"
    },
    {
     "enum_field_value" : 1,
     "name" : "android::RefBase::OBJECT_LIFETIME_WEAK"
    },
    {
     "enum_field_value" : 1,
     "name" : "android::RefBase::OBJECT_LIFETIME_MASK"
    }
   ],
   "linker_set_key" : "_ZTIN7android7RefBase21$OBJECT_LIFETIME_MASKE",
   "name" : "android::RefBase::(anonymous enum at system/core/libutils/include/utils/RefBase.h:304:5)",
   "referenced_type" : "_ZTIN7android7RefBase21$OBJECT_LIFETIME_MASKE",
   "self_type" : "_ZTIN7android7RefBase21$OBJECT_LIFETIME_MASKE",
   "size" : 4,
   "source_file" : "/system/core/libutils/include/utils/RefBase.h",
   "underlying_type" : "_ZTIj"
  },
  {
   "alignment" : 4,
   "enum_fields" :
   [
    {
     "enum_field_value" : 0,
     "name" : "android::String8::kEmptyString"
    }
   ],
   "linker_set_key" : "_ZTIN7android7String813StaticLinkageE",
   "name" : "android::String8::StaticLinkage",
   "referenced_type" : "_ZTIN7android7String813StaticLinkageE",
   "self_type" : "_ZTIN7android7String813StaticLinkageE",
   "size" : 4,
   "source_file" : "/system/core/libutils/include/utils/String8.h",
   "underlying_type" : "_ZTIj"
  },
  {
   "alignment" : 4,
   "enum_fields" :
   [
    {
     "enum_field_value" : 0,
     "name" : "android::String16::kEmptyString"
    }
   ],
   "linker_set_key" : "_ZTIN7android8String1613StaticLinkageE",
   "name" : "android::String16::StaticLinkage",
   "referenced_type" : "_ZTIN7android8String1613StaticLinkageE",
   "self_type" : "_ZTIN7android8String1613StaticLinkageE",
   "size" : 4,
   "source_file" : "/system/core/libutils/include/utils/String16.h",
   "underlying_type" : "_ZTIj"
  },
  {
   "alignment" : 4,
   "enum_fields" :
   [
    {
     "enum_field_value" : 0,
     "name" : "android::hardware::MQDescriptor<char, android::hardware::kSynchronizedReadWrite>::READPTRPOS"
    },
    {
     "enum_field_value" : 1,
     "name" : "android::hardware::MQDescriptor<char, android::hardware::kSynchronizedReadWrite>::WRITEPTRPOS"
    },
    {
     "enum_field_value" : 2,
     "name" : "android::hardware::MQDescriptor<char, android::hardware::kSynchronizedReadWrite>::DATAPTRPOS"
    },
    {
     "enum_field_value" : 3,
     "name" : "android::hardware::MQDescriptor<char, android::hardware::kSynchronizedReadWrite>::EVFLAGWORDPOS"
    }
   ],
   "linker_set_key" : "_ZTIN7android8hardware12MQDescriptorIcLNS0_8MQFlavorE1EE11GrantorTypeE",
   "name" : "android::hardware::MQDescriptor<char, android::hardware::kSynchronizedReadWrite>::GrantorType",
   "referenced_type" : "_ZTIN7android8hardware12MQDescriptorIcLNS0_8MQFlavorE1EE11GrantorTypeE",
   "self_type" : "_ZTIN7android8hardware12MQDescriptorIcLNS0_8MQFlavorE1EE11GrantorTypeE",
   "size" : 4,
   "source_file" : "/system/libhidl/base/include/hidl/MQDescriptor.h",
   "underlying_type" : "_ZTIi"
  },
  {
   "alignment" : 4,
   "enum_fields" :
   [
    {
     "enum_field_value" : 0,
     "name" : "android::hardware::ProcessState::CallRestriction::NONE"
    },
    {
     "enum_field_value" : 1,
     "name" : "android::hardware::ProcessState::CallRestriction::ERROR_IF_NOT_ONEWAY"
    },
    {
     "enum_field_value" : 2,
     "name" : "android::hardware::ProcessState::CallRestriction::FATAL_IF_NOT_ONEWAY"
    }
   ],
   "linker_set_key" : "_ZTIN7android8hardware12ProcessState15CallRestrictionE",
   "name" : "android::hardware::ProcessState::CallRestriction",
   "referenced_type" : "_ZTIN7android8hardware12ProcessState15CallRestrictionE",
   "self_type" : "_ZTIN7android8hardware12ProcessState15CallRestrictionE",
   "size" : 4,
   "source_file" : "/system/libhwbinder/include/hwbinder/ProcessState.h",
   "underlying_type" : "_ZTIi"
  },
  {
   "alignment" : 4,
   "enum_fields" :
   [
    {
     "enum_field_value" : 0,
     "name" : "android::hardware::HidlReturnRestriction::NONE"
    },
    {
     "enum_field_value" : 1,
     "name" : "android::hardware::HidlReturnRestriction::ERROR_IF_UNCHECKED"
    },
    {
     "enum_field_value" : 2,
     "name" : "android::hardware::HidlReturnRestriction::FATAL_IF_UNCHECKED"
    }
   ],
   "linker_set_key" : "_ZTIN7android8hardware21HidlReturnRestrictionE",
   "name" : "android::hardware::HidlReturnRestriction",
   "referenced_type" : "_ZTIN7android8hardware21HidlReturnRestrictionE",
   "self_type" : "_ZTIN7android8hardware21HidlReturnRestrictionE",
   "size" : 4,
   "source_file" : "/system/libhidl/base/include/hidl/Status.h",
   "underlying_type" : "_ZTIi"
  },
  {
   "alignment" : 4,
   "enum_fields" :
   [
    {
     "enum_field_value" : 0,
     "name" : "android::hardware::Status::EX_NONE"
    },
    {
     "enum_field_value" : -1,
     "name" : "android::hardware::Status::EX_SECURITY"
    },
    {
     "enum_field_value" : -2,
     "name" : "android::hardware::Status::EX_BAD_PARCELABLE"
    },
    {
     "enum_field_value" : -3,
     "name" : "android::hardware::Status::EX_ILLEGAL_ARGUMENT"
    },
    {
     "enum_field_value" : -4,
     "name" : "android::hardware::Status::EX_NULL_POINTER"
    },
    {
     "enum_field_value" : -5,
     "name" : "android::hardware::Status::EX_ILLEGAL_STATE"
    },
    {
     "enum_field_value" : -6,
     "name" : "android::hardware::Status::EX_NETWORK_MAIN_THREAD"
    },
    {
     "enum_field_value" : -7,
     "name" : "android::hardware::Status::EX_UNSUPPORTED_OPERATION"
    },
    {
     "enum_field_value" : -128,
     "name" : "android::hardware::Status::EX_HAS_REPLY_HEADER"
    },
    {
     "enum_field_value" : -129,
     "name" : "android::hardware::Status::EX_TRANSACTION_FAILED"
    }
   ],
   "linker_set_key" : "_ZTIN7android8hardware6Status9ExceptionE",
   "name" : "android::hardware::Status::Exception",
   "referenced_type" : "_ZTIN7android8hardware6Status9ExceptionE",
   "self_type" : "_ZTIN7android8hardware6Status9ExceptionE",
   "size" : 4,
   "source_file" : "/system/libhidl/base/include/hidl/Status.h",
   "underlying_type" : "_ZTIi"
  },
  {
   "alignment" : 4,
   "enum_fields" :
   [
    {
     "enum_field_value" : 1,
     "name" : "android::hardware::IBinder::FLAG_ONEWAY"
    }
   ],
   "linker_set_key" : "_ZTIN7android8hardware7IBinder12$FLAG_ONEWAYE",
   "name" : "android::hardware::IBinder::(anonymous enum at system/libhwbinder/include/hwbinder/IBinder.h:47:5)",
   "referenced_type" : "_ZTIN7android8hardware7IBinder12$FLAG_ONEWAYE",
   "self_type" : "_ZTIN7android8hardware7IBinder12$FLAG_ONEWAYE",
   "size" : 4,
   "source_file" : "/system/libhwbinder/include/hwbinder/IBinder.h",
   "underlying_type" : "_ZTIj"
  },
  {
   "alignment" : 4,
   "enum_fields" :
   [
    {
     "enum_field_value" : 0,
     "name" : "android::hardware::details::HidlInstrumentor::SERVER_API_ENTRY"
    },
    {
     "enum_field_value" : 1,
     "name" : "android::hardware::details::HidlInstrumentor::SERVER_API_EXIT"
    },
    {
     "enum_field_value" : 2,
     "name" : "android::hardware::details::HidlInstrumentor::CLIENT_API_ENTRY"
    },
    {
     "enum_field_value" : 3,
     "name" : "android::hardware::details::HidlInstrumentor::CLIENT_API_EXIT"
    },
    {
     "enum_field_value" : 4,
     "name" : "android::hardware::details::HidlInstrumentor::SYNC_CALLBACK_ENTRY"
    },
    {
     "enum_field_value" : 5,
     "name" : "android::hardware::details::HidlInstrumentor::SYNC_CALLBACK_EXIT"
    },
    {
     "enum_field_value" : 6,
     "name" : "android::hardware::details::HidlInstrumentor::ASYNC_CALLBACK_ENTRY"
    },
    {
     "enum_field_value" : 7,
     "name" : "android::hardware::details::HidlInstrumentor::ASYNC_CALLBACK_EXIT"
    },
    {
     "enum_field_value" : 8,
     "name" : "android::hardware::details::HidlInstrumentor::PASSTHROUGH_ENTRY"
    },
    {
     "enum_field_value" : 9,
     "name" : "android::hardware::details::HidlInstrumentor::PASSTHROUGH_EXIT"
    }
   ],
   "linker_set_key" : "_ZTIN7android8hardware7details16HidlInstrumentor20InstrumentationEventE",
   "name" : "android::hardware::details::HidlInstrumentor::InstrumentationEvent",
   "referenced_type" : "_ZTIN7android8hardware7details16HidlInstrumentor20InstrumentationEventE",
   "self_type" : "_ZTIN7android8hardware7details16HidlInstrumentor20InstrumentationEventE",
   "size" : 4,
   "source_file" : "/system/libhidl/base/include/hidl/HidlInternal.h",
   "underlying_type" : "_ZTIj"
  },
  {
   "alignment" : 4,
   "enum_fields" :
   [
    {
     "enum_field_value" : 1,
     "name" : "android::hardware::kSynchronizedReadWrite"
    },
    {
     "enum_field_value" : 2,
     "name" : "android::hardware::kUnsynchronizedWrite"
    }
   ],
   "linker_set_key" : "_ZTIN7android8hardware8MQFlavorE",
   "name" : "android::hardware::MQFlavor",
   "referenced_type" : "_ZTIN7android8hardware8MQFlavorE",
   "self_type" : "_ZTIN7android8hardware8MQFlavorE",
   "size" : 4,
   "source_file" : "/system/libhidl/base/include/hidl/MQDescriptor.h",
   "underlying_type" : "_ZTIj"
  },
  {
   "alignment" : 4,
   "enum_fields" :
   [
    {
     "enum_field_value" : 0,
     "name" : "android::Condition::WAKE_UP_ONE"
    },
    {
     "enum_field_value" : 1,
     "name" : "android::Condition::WAKE_UP_ALL"
    }
   ],
   "linker_set_key" : "_ZTIN7android9Condition10WakeUpTypeE",
   "name" : "android::Condition::WakeUpType",
   "referenced_type" : "_ZTIN7android9Condition10WakeUpTypeE",
   "self_type" : "_ZTIN7android9Condition10WakeUpTypeE",
   "size" : 4,
   "source_file" : "/system/core/libutils/include/utils/Condition.h",
   "underlying_type" : "_ZTIj"
  },
  {
   "alignment" : 4,
   "enum_fields" :
   [
    {
     "enum_field_value" : 0,
     "name" : "android::Condition::PRIVATE"
    },
    {
     "enum_field_value" : 1,
     "name" : "android::Condition::SHARED"
    }
   ],
   "linker_set_key" : "_ZTIN7android9Condition8$PRIVATEE",
   "name" : "android::Condition::(anonymous enum at system/core/libutils/include/utils/Condition.h:54:5)",
   "referenced_type" : "_ZTIN7android9Condition8$PRIVATEE",
   "self_type" : "_ZTIN7android9Condition8$PRIVATEE",
   "size" : 4,
   "source_file" : "/system/core/libutils/include/utils/Condition.h",
   "underlying_type" : "_ZTIj"
  }
 ],
 "function_types" :
 [
  {
   "alignment" : 4,
   "linker_set_key" : "_ZTIFbRKN7android8String16ERKNS_2spINS_8hardware7IBinderEEEPvE",
   "name" : "bool (const android::String16 &, const android::sp<android::hardware::IBinder> &, void *)",
   "parameters" :
   [
    {
     "referenced_type" : "_ZTIRKN7android8String16E"
    },
    {
     "referenced_type" : "_ZTIRKN7android2spINS_8hardware7IBinderEEE"
    },
    {
     "referenced_type" : "_ZTIPv"
    }
   ],
   "referenced_type" : "_ZTIFbRKN7android8String16ERKNS_2spINS_8hardware7IBinderEEEPvE",
   "return_type" : "_ZTIb",
   "self_type" : "_ZTIFbRKN7android8String16ERKNS_2spINS_8hardware7IBinderEEEPvE",
   "source_file" : "/system/libhwbinder/include/hwbinder/ProcessState.h"
  },
  {
   "alignment" : 4,
   "linker_set_key" : "_ZTIFiPvE",
   "name" : "int (void *)",
   "parameters" :
   [
    {
     "referenced_type" : "_ZTIPv"
    }
   ],
   "referenced_type" : "_ZTIFiPvE",
   "return_type" : "_ZTIi",
   "self_type" : "_ZTIFiPvE",
   "source_file" : "/system/core/libutils/include/utils/AndroidThreads.h"
  },
  {
   "alignment" : 4,
   "linker_set_key" : "_ZTIFvPN7android8hardware6ParcelEPKhjPKyjPvE",
   "name" : "void (android::hardware::Parcel *, const unsigned char *, unsigned int, const unsigned long long *, unsigned int, void *)",
   "parameters" :
   [
    {
     "referenced_type" : "_ZTIPN7android8hardware6ParcelE"
    },
    {
     "referenced_type" : "_ZTIPKh"
    },
    {
     "referenced_type" : "_ZTIj"
    },
    {
     "referenced_type" : "_ZTIPKy"
    },
    {
     "referenced_type" : "_ZTIj"
    },
    {
     "referenced_type" : "_ZTIPv"
    }
   ],
   "referenced_type" : "_ZTIFvPN7android8hardware6ParcelEPKhjPKyjPvE",
   "return_type" : "_ZTIv",
   "self_type" : "_ZTIFvPN7android8hardware6ParcelEPKhjPKyjPvE",
   "source_file" : "/system/libhwbinder/include/hwbinder/Parcel.h"
  }
 ],
 "functions" :
 [
  {
   "function_name" : "android::frameworks::schedulerservice::V1_0::ISchedulingPolicyService::getService",
   "linker_set_key" : "_ZN7android10frameworks16schedulerservice4V1_024ISchedulingPolicyService10getServiceERKNSt3__112basic_stringIcNS4_11char_traitsIcEENS4_9allocatorIcEEEEb",
   "parameters" :
   [
    {
     "default_arg" : true,
     "referenced_type" : "_ZTIRKNSt3__112basic_stringIcNS_11char_traitsIcEENS_9allocatorIcEEEE"
    },
    {
     "default_arg" : true,
     "referenced_type" : "_ZTIb"
    }
   ],
   "return_type" : "_ZTIN7android2spINS_10frameworks16schedulerservice4V1_024ISchedulingPolicyServiceEEE",
   "source_file" : "/out/soong/.intermediates/frameworks/hardware/interfaces/schedulerservice/1.0/android.frameworks.schedulerservice@1.0_genc++_headers/gen/android/frameworks/schedulerservice/1.0/ISchedulingPolicyService.h"
  },
  {
   "function_name" : "android::frameworks::schedulerservice::V1_0::ISchedulingPolicyService::linkToDeath",
   "linker_set_key" : "_ZN7android10frameworks16schedulerservice4V1_024ISchedulingPolicyService11linkToDeathERKNS_2spINS_8hardware20hidl_death_recipientEEEy",
   "parameters" :
   [
    {
     "is_this_ptr" : true,
     "referenced_type" : "_ZTIPN7android10frameworks16schedulerservice4V1_024ISchedulingPolicyServiceE"
    },
    {
     "referenced_type" : "_ZTIRKN7android2spINS_8hardware20hidl_death_recipientEEE"
    },
    {
     "referenced_type" : "_ZTIy"
    }
   ],
   "return_type" : "_ZTIN7android8hardware6ReturnIbEE",
   "source_file" : "/out/soong/.intermediates/frameworks/hardware/interfaces/schedulerservice/1.0/android.frameworks.schedulerservice@1.0_genc++_headers/gen/android/frameworks/schedulerservice/1.0/ISchedulingPolicyService.h"
  },
  {
   "function_name" : "android::frameworks::schedulerservice::V1_0::ISchedulingPolicyService::getDebugInfo",
   "linker_set_key" : "_ZN7android10frameworks16schedulerservice4V1_024ISchedulingPolicyService12getDebugInfoENSt3__18functionIFvRKNS_4hidl4base4V1_09DebugInfoEEEE",
   "parameters" :
   [
    {
     "is_this_ptr" : true,
     "referenced_type" : "_ZTIPN7android10frameworks16schedulerservice4V1_024ISchedulingPolicyServiceE"
    },
    {
     "referenced_type" : "_ZTINSt3__18functionIFvRKN7android4hidl4base4V1_09DebugInfoEEEE"
    }
   ],
   "return_type" : "_ZTIN7android8hardware6ReturnIvEE",
   "source_file" : "/out/soong/.intermediates/frameworks/hardware/interfaces/schedulerservice/1.0/android.frameworks.schedulerservice@1.0_genc++_headers/gen/android/frameworks/schedulerservice/1.0/ISchedulingPolicyService.h"
  },
  {
   "function_name" : "android::frameworks::schedulerservice::V1_0::ISchedulingPolicyService::getHashChain",
   "linker_set_key" : "_ZN7android10frameworks16schedulerservice4V1_024ISchedulingPolicyService12getHashChainENSt3__18functionIFvRKNS_8hardware8hidl_vecINS6_10hidl_arrayIhLj32EJEEEEEEEE",
   "parameters" :
   [
    {
     "is_this_ptr" : true,
     "referenced_type" : "_ZTIPN7android10frameworks16schedulerservice4V1_024ISchedulingPolicyServiceE"
    },
    {
     "referenced_type" : "_ZTINSt3__18functionIFvRKN7android8hardware8hidl_vecINS2_10hidl_arrayIhLj32EJEEEEEEEE"
    }
   ],
   "return_type" : "_ZTIN7android8hardware6ReturnIvEE",
   "source_file" : "/out/soong/.intermediates/frameworks/hardware/interfaces/schedulerservice/1.0/android.frameworks.schedulerservice@1.0_genc++_headers/gen/android/frameworks/schedulerservice/1.0/ISchedulingPolicyService.h"
  },
  {
   "function_name" : "android::frameworks::schedulerservice::V1_0::ISchedulingPolicyService::tryGetService",
   "linker_set_key" : "_ZN7android10frameworks16schedulerservice4V1_024ISchedulingPolicyService13tryGetServiceERKNSt3__112basic_stringIcNS4_11char_traitsIcEENS4_9allocatorIcEEEEb",
   "parameters" :
   [
    {
     "default_arg" : true,
     "referenced_type" : "_ZTIRKNSt3__112basic_stringIcNS_11char_traitsIcEENS_9allocatorIcEEEE"
    },
    {
     "default_arg" : true,
     "referenced_type" : "_ZTIb"
    }
   ],
   "return_type" : "_ZTIN7android2spINS_10frameworks16schedulerservice4V1_024ISchedulingPolicyServiceEEE",
   "source_file" : "/out/soong/.intermediates/frameworks/hardware/interfaces/schedulerservice/1.0/android.frameworks.schedulerservice@1.0_genc++_headers/gen/android/frameworks/schedulerservice/1.0/ISchedulingPolicyService.h"
  },
  {
   "function_name" : "android::frameworks::schedulerservice::V1_0::ISchedulingPolicyService::unlinkToDeath",
   "linker_set_key" : "_ZN7android10frameworks16schedulerservice4V1_024ISchedulingPolicyService13unlinkToDeathERKNS_2spINS_8hardware20hidl_death_recipientEEE",
   "parameters" :
   [
    {
     "is_this_ptr" : true,
     "referenced_type" : "_ZTIPN7android10frameworks16schedulerservice4V1_024ISchedulingPolicyServiceE"
    },
    {
     "referenced_type" : "_ZTIRKN7android2spINS_8hardware20hidl_death_recipientEEE"
    }
   ],
   "return_type" : "_ZTIN7android8hardware6ReturnIbEE",
   "source_file" : "/out/soong/.intermediates/frameworks/hardware/interfaces/schedulerservice/1.0/android.frameworks.schedulerservice@1.0_genc++_headers/gen/android/frameworks/schedulerservice/1.0/ISchedulingPolicyService.h"
  },
  {
   "function_name" : "android::frameworks::schedulerservice::V1_0::ISchedulingPolicyService::interfaceChain",
   "linker_set_key" : "_ZN7android10frameworks16schedulerservice4V1_024ISchedulingPolicyService14interfaceChainENSt3__18functionIFvRKNS_8hardware8hidl_vecINS6_11hidl_stringEEEEEE",
   "parameters" :
   [
    {
     "is_this_ptr" : true,
     "referenced_type" : "_ZTIPN7android10frameworks16schedulerservice4V1_024ISchedulingPolicyServiceE"
    },
    {
     "referenced_type" : "_ZTINSt3__18functionIFvRKN7android8hardware8hidl_vecINS2_11hidl_stringEEEEEE"
    }
   ],
   "return_type" : "_ZTIN7android8hardware6ReturnIvEE",
   "source_file" : "/out/soong/.intermediates/frameworks/hardware/interfaces/schedulerservice/1.0/android.frameworks.schedulerservice@1.0_genc++_headers/gen/android/frameworks/schedulerservice/1.0/ISchedulingPolicyService.h"
  },
  {
   "function_name" : "android::frameworks::schedulerservice::V1_0::ISchedulingPolicyService::registerAsService",
   "linker_set_key" : "_ZN7android10frameworks16schedulerservice4V1_024ISchedulingPolicyService17registerAsServiceERKNSt3__112basic_stringIcNS4_11char_traitsIcEENS4_9allocatorIcEEEE",
   "parameters" :
   [
    {
     "is_this_ptr" : true,
     "referenced_type" : "_ZTIPN7android10frameworks16schedulerservice4V1_024ISchedulingPolicyServiceE"
    },
    {
     "default_arg" : true,
     "referenced_type" : "_ZTIRKNSt3__112basic_stringIcNS_11char_traitsIcEENS_9allocatorIcEEEE"
    }
   ],
   "return_type" : "_ZTIi",
   "source_file" : "/out/soong/.intermediates/frameworks/hardware/interfaces/schedulerservice/1.0/android.frameworks.schedulerservice@1.0_genc++_headers/gen/android/frameworks/schedulerservice/1.0/ISchedulingPolicyService.h"
  },
  {
   "function_name" : "android::frameworks::schedulerservice::V1_0::ISchedulingPolicyService::interfaceDescriptor",
   "linker_set_key" : "_ZN7android10frameworks16schedulerservice4V1_024ISchedulingPolicyService19interfaceDescriptorENSt3__18functionIFvRKNS_8hardware11hidl_stringEEEE",
   "parameters" :
   [
    {
     "is_this_ptr" : true,
     "referenced_type" : "_ZTIPN7android10frameworks16schedulerservice4V1_024ISchedulingPolicyServiceE"
    },
    {
     "referenced_type" : "_ZTINSt3__18functionIFvRKN7android8hardware11hidl_stringEEEE"
    }
   ],
   "return_type" : "_ZTIN7android8hardware6ReturnIvEE",
   "source_file" : "/out/soong/.intermediates/frameworks/hardware/interfaces/schedulerservice/1.0/android.frameworks.schedulerservice@1.0_genc++_headers/gen/android/frameworks/schedulerservice/1.0/ISchedulingPolicyService.h"
  },
  {
   "function_name" : "android::frameworks::schedulerservice::V1_0::ISchedulingPolicyService::notifySyspropsChanged",
   "linker_set_key" : "_ZN7android10frameworks16schedulerservice4V1_024ISchedulingPolicyService21notifySyspropsChangedEv",
   "parameters" :
   [
    {
     "is_this_ptr" : true,
     "referenced_type" : "_ZTIPN7android10frameworks16schedulerservice4V1_024ISchedulingPolicyServiceE"
    }
   ],
   "return_type" : "_ZTIN7android8hardware6ReturnIvEE",
   "source_file" : "/out/soong/.intermediates/frameworks/hardware/interfaces/schedulerservice/1.0/android.frameworks.schedulerservice@1.0_genc++_headers/gen/android/frameworks/schedulerservice/1.0/ISchedulingPolicyService.h"
  },
  {
   "function_name" : "android::frameworks::schedulerservice::V1_0::ISchedulingPolicyService::setHALInstrumentation",
   "linker_set_key" : "_ZN7android10frameworks16schedulerservice4V1_024ISchedulingPolicyService21setHALInstrumentationEv",
   "parameters" :
   [
    {
     "is_this_ptr" : true,
     "referenced_type" : "_ZTIPN7android10frameworks16schedulerservice4V1_024ISchedulingPolicyServiceE"
    }
   ],
   "return_type" : "_ZTIN7android8hardware6ReturnIvEE",
   "source_file" : "/out/soong/.intermediates/frameworks/hardware/interfaces/schedulerservice/1.0/android.frameworks.schedulerservice@1.0_genc++_headers/gen/android/frameworks/schedulerservice/1.0/ISchedulingPolicyService.h"
  },
  {
   "function_name" : "android::frameworks::schedulerservice::V1_0::ISchedulingPolicyService::registerForNotifications",
   "linker_set_key" : "_ZN7android10frameworks16schedulerservice4V1_024ISchedulingPolicyService24registerForNotificationsERKNSt3__112basic_stringIcNS4_11char_traitsIcEENS4_9allocatorIcEEEERKNS_2spINS_4hidl7manager4V1_020IServiceNotificationEEE",
   "parameters" :
   [
    {
     "referenced_type" : "_ZTIRKNSt3__112basic_stringIcNS_11char_traitsIcEENS_9allocatorIcEEEE"
    },
    {
     "referenced_type" : "_ZTIRKN7android2spINS_4hidl7manager4V1_020IServiceNotificationEEE"
    }
   ],
   "return_type" : "_ZTIb",
   "source_file" : "/out/soong/.intermediates/frameworks/hardware/interfaces/schedulerservice/1.0/android.frameworks.schedulerservice@1.0_genc++_headers/gen/android/frameworks/schedulerservice/1.0/ISchedulingPolicyService.h"
  },
  {
   "function_name" : "android::frameworks::schedulerservice::V1_0::ISchedulingPolicyService::ping",
   "linker_set_key" : "_ZN7android10frameworks16schedulerservice4V1_024ISchedulingPolicyService4pingEv",
   "parameters" :
   [
    {
     "is_this_ptr" : true,
     "referenced_type" : "_ZTIPN7android10frameworks16schedulerservice4V1_024ISchedulingPolicyServiceE"
    }
   ],
   "return_type" : "_ZTIN7android8hardware6ReturnIvEE",
   "source_file" : "/out/soong/.intermediates/frameworks/hardware/interfaces/schedulerservice/1.0/android.frameworks.schedulerservice@1.0_genc++_headers/gen/android/frameworks/schedulerservice/1.0/ISchedulingPolicyService.h"
  },
  {
   "function_name" : "android::frameworks::schedulerservice::V1_0::ISchedulingPolicyService::debug",
   "linker_set_key" : "_ZN7android10frameworks16schedulerservice4V1_024ISchedulingPolicyService5debugERKNS_8hardware11hidl_handleERKNS4_8hidl_vecINS4_11hidl_stringEEE",
   "parameters" :
   [
    {
     "is_this_ptr" : true,
     "referenced_type" : "_ZTIPN7android10frameworks16schedulerservice4V1_024ISchedulingPolicyServiceE"
    },
    {
     "referenced_type" : "_ZTIRKN7android8hardware11hidl_handleE"
    },
    {
     "referenced_type" : "_ZTIRKN7android8hardware8hidl_vecINS0_11hidl_stringEEE"
    }
   ],
   "return_type" : "_ZTIN7android8hardware6ReturnIvEE",
   "source_file" : "/out/soong/.intermediates/frameworks/hardware/interfaces/schedulerservice/1.0/android.frameworks.schedulerservice@1.0_genc++_headers/gen/android/frameworks/schedulerservice/1.0/ISchedulingPolicyService.h"
  },
  {
   "function_name" : "android::frameworks::schedulerservice::V1_0::ISchedulingPolicyService::castFrom",
   "linker_set_key" : "_ZN7android10frameworks16schedulerservice4V1_024ISchedulingPolicyService8castFromERKNS_2spINS_4hidl4base4V1_05IBaseEEEb",
   "parameters" :
   [
    {
     "referenced_type" : "_ZTIRKN7android2spINS_4hidl4base4V1_05IBaseEEE"
    },
    {
     "default_arg" : true,
     "referenced_type" : "_ZTIb"
    }
   ],
   "return_type" : "_ZTIN7android8hardware6ReturnINS_2spINS_10frameworks16schedulerservice4V1_024ISchedulingPolicyServiceEEEEE",
   "source_file" : "/out/soong/.intermediates/frameworks/hardware/interfaces/schedulerservice/1.0/android.frameworks.schedulerservice@1.0_genc++_headers/gen/android/frameworks/schedulerservice/1.0/ISchedulingPolicyService.h"
  },
  {
   "function_name" : "android::frameworks::schedulerservice::V1_0::ISchedulingPolicyService::castFrom",
   "linker_set_key" : "_ZN7android10frameworks16schedulerservice4V1_024ISchedulingPolicyService8castFromERKNS_2spIS3_EEb",
   "parameters" :
   [
    {
     "referenced_type" : "_ZTIRKN7android2spINS_10frameworks16schedulerservice4V1_024ISchedulingPolicyServiceEEE"
    },
    {
     "default_arg" : true,
     "referenced_type" : "_ZTIb"
    }
   ],
   "return_type" : "_ZTIN7android8hardware6ReturnINS_2spINS_10frameworks16schedulerservice4V1_024ISchedulingPolicyServiceEEEEE",
   "source_file" : "/out/soong/.intermediates/frameworks/hardware/interfaces/schedulerservice/1.0/android.frameworks.schedulerservice@1.0_genc++_headers/gen/android/frameworks/schedulerservice/1.0/ISchedulingPolicyService.h"
  },
  {
   "access" : "private",
   "function_name" : "android::frameworks::schedulerservice::V1_0::BsSchedulingPolicyService::addOnewayTask",
   "linker_set_key" : "_ZN7android10frameworks16schedulerservice4V1_025BsSchedulingPolicyService13addOnewayTaskENSt3__18functionIFvvEEE",
   "parameters" :
   [
    {
     "is_this_ptr" : true,
     "referenced_type" : "_ZTIPN7android10frameworks16schedulerservice4V1_025BsSchedulingPolicyServiceE"
    },
    {
     "referenced_type" : "_ZTINSt3__18functionIFvvEEE"
    }
   ],
   "return_type" : "_ZTIN7android8hardware6ReturnIvEE",
   "source_file" : "/out/soong/.intermediates/frameworks/hardware/interfaces/schedulerservice/1.0/android.frameworks.schedulerservice@1.0_genc++_headers/gen/android/frameworks/schedulerservice/1.0/BsSchedulingPolicyService.h"
  },
  {
   "function_name" : "android::frameworks::schedulerservice::V1_0::BsSchedulingPolicyService::BsSchedulingPolicyService",
   "linker_set_key" : "_ZN7android10frameworks16schedulerservice4V1_025BsSchedulingPolicyServiceC1ENS_2spINS2_24ISchedulingPolicyServiceEEE",
   "parameters" :
   [
    {
     "is_this_ptr" : true,
     "referenced_type" : "_ZTIPN7android10frameworks16schedulerservice4V1_025BsSchedulingPolicyServiceE"
    },
    {
     "referenced_type" : "_ZTIKN7android2spINS_10frameworks16schedulerservice4V1_024ISchedulingPolicyServiceEEE"
    }
   ],
   "return_type" : "_ZTIv",
   "source_file" : "/out/soong/.intermediates/frameworks/hardware/interfaces/schedulerservice/1.0/android.frameworks.schedulerservice@1.0_genc++_headers/gen/android/frameworks/schedulerservice/1.0/BsSchedulingPolicyService.h"
  },
  {
   "function_name" : "android::frameworks::schedulerservice::V1_0::BsSchedulingPolicyService::BsSchedulingPolicyService",
   "linker_set_key" : "_ZN7android10frameworks16schedulerservice4V1_025BsSchedulingPolicyServiceC2ENS_2spINS2_24ISchedulingPolicyServiceEEE",
   "parameters" :
   [
    {
     "is_this_ptr" : true,
     "referenced_type" : "_ZTIPN7android10frameworks16schedulerservice4V1_025BsSchedulingPolicyServiceE"
    },
    {
     "referenced_type" : "_ZTIKN7android2spINS_10frameworks16schedulerservice4V1_024ISchedulingPolicyServiceEEE"
    }
   ],
   "return_type" : "_ZTIv",
   "source_file" : "/out/soong/.intermediates/frameworks/hardware/interfaces/schedulerservice/1.0/android.frameworks.schedulerservice@1.0_genc++_headers/gen/android/frameworks/schedulerservice/1.0/BsSchedulingPolicyService.h"
  },
  {
   "function_name" : "android::frameworks::schedulerservice::V1_0::BnHwSchedulingPolicyService::onTransact",
   "linker_set_key" : "_ZN7android10frameworks16schedulerservice4V1_027BnHwSchedulingPolicyService10onTransactEjRKNS_8hardware6ParcelEPS5_jNSt3__18functionIFvRS5_EEE",
   "parameters" :
   [
    {
     "is_this_ptr" : true,
     "referenced_type" : "_ZTIPN7android10frameworks16schedulerservice4V1_027BnHwSchedulingPolicyServiceE"
    },
    {
     "referenced_type" : "_ZTIj"
    },
    {
     "referenced_type" : "_ZTIRKN7android8hardware6ParcelE"
    },
    {
     "referenced_type" : "_ZTIPN7android8hardware6ParcelE"
    },
    {
     "default_arg" : true,
     "referenced_type" : "_ZTIj"
    },
    {
     "default_arg" : true,
     "referenced_type" : "_ZTINSt3__18functionIFvRN7android8hardware6ParcelEEEE"
    }
   ],
   "return_type" : "_ZTIi",
   "source_file" : "/out/soong/.intermediates/frameworks/hardware/interfaces/schedulerservice/1.0/android.frameworks.schedulerservice@1.0_genc++_headers/gen/android/frameworks/schedulerservice/1.0/BnHwSchedulingPolicyService.h"
  },
  {
   "access" : "private",
   "function_name" : "android::frameworks::schedulerservice::V1_0::BnHwSchedulingPolicyService::getDebugInfo",
   "linker_set_key" : "_ZN7android10frameworks16schedulerservice4V1_027BnHwSchedulingPolicyService12getDebugInfoENSt3__18functionIFvRKNS_4hidl4base4V1_09DebugInfoEEEE",
   "parameters" :
   [
    {
     "is_this_ptr" : true,
     "referenced_type" : "_ZTIPN7android10frameworks16schedulerservice4V1_027BnHwSchedulingPolicyServiceE"
    },
    {
     "referenced_type" : "_ZTINSt3__18functionIFvRKN7android4hidl4base4V1_09DebugInfoEEEE"
    }
   ],
   "return_type" : "_ZTIN7android8hardware6ReturnIvEE",
   "source_file" : "/out/soong/.intermediates/frameworks/hardware/interfaces/schedulerservice/1.0/android.frameworks.schedulerservice@1.0_genc++_headers/gen/android/frameworks/schedulerservice/1.0/BnHwSchedulingPolicyService.h"
  },
  {
   "function_name" : "android::frameworks::schedulerservice::V1_0::BnHwSchedulingPolicyService::_hidl_requestPriority",
   "linker_set_key" : "_ZN7android10frameworks16schedulerservice4V1_027BnHwSchedulingPolicyService21_hidl_requestPriorityEPNS_4hidl4base4V1_08BnHwBaseERKNS_8hardware6ParcelEPSA_NSt3__18functionIFvRSA_EEE",
   "parameters" :
   [
    {
     "referenced_type" : "_ZTIPN7android4hidl4base4V1_08BnHwBaseE"
    },
    {
     "referenced_type" : "_ZTIRKN7android8hardware6ParcelE"
    },
    {
     "referenced_type" : "_ZTIPN7android8hardware6ParcelE"
    },
    {
     "referenced_type" : "_ZTINSt3__18functionIFvRN7android8hardware6ParcelEEEE"
    }
   ],
   "return_type" : "_ZTIi",
   "source_file" : "/out/soong/.intermediates/frameworks/hardware/interfaces/schedulerservice/1.0/android.frameworks.schedulerservice@1.0_genc++_headers/gen/android/frameworks/schedulerservice/1.0/BnHwSchedulingPolicyService.h"
  },
  {
   "function_name" : "android::frameworks::schedulerservice::V1_0::BnHwSchedulingPolicyService::_hidl_getMaxAllowedPriority",
   "linker_set_key" : "_ZN7android10frameworks16schedulerservice4V1_027BnHwSchedulingPolicyService27_hidl_getMaxAllowedPriorityEPNS_4hidl4base4V1_08BnHwBaseERKNS_8hardware6ParcelEPSA_NSt3__18functionIFvRSA_EEE",
   "parameters" :
   [
    {
     "referenced_type" : "_ZTIPN7android4hidl4base4V1_08BnHwBaseE"
    },
    {
     "referenced_type" : "_ZTIRKN7android8hardware6ParcelE"
    },
    {
     "referenced_type" : "_ZTIPN7android8hardware6ParcelE"
    },
    {
     "referenced_type" : "_ZTINSt3__18functionIFvRN7android8hardware6ParcelEEEE"
    }
   ],
   "return_type" : "_ZTIi",
   "source_file" : "/out/soong/.intermediates/frameworks/hardware/interfaces/schedulerservice/1.0/android.frameworks.schedulerservice@1.0_genc++_headers/gen/android/frameworks/schedulerservice/1.0/BnHwSchedulingPolicyService.h"
  },
  {
   "access" : "private",
   "function_name" : "android::frameworks::schedulerservice::V1_0::BnHwSchedulingPolicyService::ping",
   "linker_set_key" : "_ZN7android10frameworks16schedulerservice4V1_027BnHwSchedulingPolicyService4pingEv",
   "parameters" :
   [
    {
     "is_this_ptr" : true,
     "referenced_type" : "_ZTIPN7android10frameworks16schedulerservice4V1_027BnHwSchedulingPolicyServiceE"
    }
   ],
   "return_type" : "_ZTIN7android8hardware6ReturnIvEE",
   "source_file" : "/out/soong/.intermediates/frameworks/hardware/interfaces/schedulerservice/1.0/android.frameworks.schedulerservice@1.0_genc++_headers/gen/android/frameworks/schedulerservice/1.0/BnHwSchedulingPolicyService.h"
  },
  {
   "function_name" : "android::frameworks::schedulerservice::V1_0::BnHwSchedulingPolicyService::BnHwSchedulingPolicyService",
   "linker_set_key" : "_ZN7android10frameworks16schedulerservice4V1_027BnHwSchedulingPolicyServiceC1ERKNS_2spINS2_24ISchedulingPolicyServiceEEE",
   "parameters" :
   [
    {
     "is_this_ptr" : true,
     "referenced_type" : "_ZTIPN7android10frameworks16schedulerservice4V1_027BnHwSchedulingPolicyServiceE"
    },
    {
     "referenced_type" : "_ZTIRKN7android2spINS_10frameworks16schedulerservice4V1_024ISchedulingPolicyServiceEEE"
    }
   ],
   "return_type" : "_ZTIv",
   "source_file" : "/out/soong/.intermediates/frameworks/hardware/interfaces/schedulerservice/1.0/android.frameworks.schedulerservice@1.0_genc++_headers/gen/android/frameworks/schedulerservice/1.0/BnHwSchedulingPolicyService.h"
  },
  {
   "function_name" : "android::frameworks::schedulerservice::V1_0::BnHwSchedulingPolicyService::BnHwSchedulingPolicyService",
   "linker_set_key" : "_ZN7android10frameworks16schedulerservice4V1_027BnHwSchedulingPolicyServiceC2ERKNS_2spINS2_24ISchedulingPolicyServiceEEE",
   "parameters" :
   [
    {
     "is_this_ptr" : true,
     "referenced_type" : "_ZTIPN7android10frameworks16schedulerservice4V1_027BnHwSchedulingPolicyServiceE"
    },
    {
     "referenced_type" : "_ZTIRKN7android2spINS_10frameworks16schedulerservice4V1_024ISchedulingPolicyServiceEEE"
    }
   ],
   "return_type" : "_ZTIv",
   "source_file" : "/out/soong/.intermediates/frameworks/hardware/interfaces/schedulerservice/1.0/android.frameworks.schedulerservice@1.0_genc++_headers/gen/android/frameworks/schedulerservice/1.0/BnHwSchedulingPolicyService.h"
  },
  {
   "function_name" : "android::frameworks::schedulerservice::V1_0::BnHwSchedulingPolicyService::~BnHwSchedulingPolicyService",
   "linker_set_key" : "_ZN7android10frameworks16schedulerservice4V1_027BnHwSchedulingPolicyServiceD0Ev",
   "parameters" :
   [
    {
     "is_this_ptr" : true,
     "referenced_type" : "_ZTIPN7android10frameworks16schedulerservice4V1_027BnHwSchedulingPolicyServiceE"
    }
   ],
   "return_type" : "_ZTIv",
   "source_file" : "/out/soong/.intermediates/frameworks/hardware/interfaces/schedulerservice/1.0/android.frameworks.schedulerservice@1.0_genc++_headers/gen/android/frameworks/schedulerservice/1.0/BnHwSchedulingPolicyService.h"
  },
  {
   "function_name" : "android::frameworks::schedulerservice::V1_0::BnHwSchedulingPolicyService::~BnHwSchedulingPolicyService",
   "linker_set_key" : "_ZN7android10frameworks16schedulerservice4V1_027BnHwSchedulingPolicyServiceD1Ev",
   "parameters" :
   [
    {
     "is_this_ptr" : true,
     "referenced_type" : "_ZTIPN7android10frameworks16schedulerservice4V1_027BnHwSchedulingPolicyServiceE"
    }
   ],
   "return_type" : "_ZTIv",
   "source_file" : "/out/soong/.intermediates/frameworks/hardware/interfaces/schedulerservice/1.0/android.frameworks.schedulerservice@1.0_genc++_headers/gen/android/frameworks/schedulerservice/1.0/BnHwSchedulingPolicyService.h"
  },
  {
   "function_name" : "android::frameworks::schedulerservice::V1_0::BnHwSchedulingPolicyService::~BnHwSchedulingPolicyService",
   "linker_set_key" : "_ZN7android10frameworks16schedulerservice4V1_027BnHwSchedulingPolicyServiceD2Ev",
   "parameters" :
   [
    {
     "is_this_ptr" : true,
     "referenced_type" : "_ZTIPN7android10frameworks16schedulerservice4V1_027BnHwSchedulingPolicyServiceE"
    }
   ],
   "return_type" : "_ZTIv",
   "source_file" : "/out/soong/.intermediates/frameworks/hardware/interfaces/schedulerservice/1.0/android.frameworks.schedulerservice@1.0_genc++_headers/gen/android/frameworks/schedulerservice/1.0/BnHwSchedulingPolicyService.h"
  },
  {
   "function_name" : "android::frameworks::schedulerservice::V1_0::BpHwSchedulingPolicyService::linkToDeath",
   "linker_set_key" : "_ZN7android10frameworks16schedulerservice4V1_027BpHwSchedulingPolicyService11linkToDeathERKNS_2spINS_8hardware20hidl_death_recipientEEEy",
   "parameters" :
   [
    {
     "is_this_ptr" : true,
     "referenced_type" : "_ZTIPN7android10frameworks16schedulerservice4V1_027BpHwSchedulingPolicyServiceE"
    },
    {
     "referenced_type" : "_ZTIRKN7android2spINS_8hardware20hidl_death_recipientEEE"
    },
    {
     "referenced_type" : "_ZTIy"
    }
   ],
   "return_type" : "_ZTIN7android8hardware6ReturnIbEE",
   "source_file" : "/out/soong/.intermediates/frameworks/hardware/interfaces/schedulerservice/1.0/android.frameworks.schedulerservice@1.0_genc++_headers/gen/android/frameworks/schedulerservice/1.0/BpHwSchedulingPolicyService.h"
  },
  {
   "function_name" : "android::frameworks::schedulerservice::V1_0::BpHwSchedulingPolicyService::getDebugInfo",
   "linker_set_key" : "_ZN7android10frameworks16schedulerservice4V1_027BpHwSchedulingPolicyService12getDebugInfoENSt3__18functionIFvRKNS_4hidl4base4V1_09DebugInfoEEEE",
   "parameters" :
   [
    {
     "is_this_ptr" : true,
     "referenced_type" : "_ZTIPN7android10frameworks16schedulerservice4V1_027BpHwSchedulingPolicyServiceE"
    },
    {
     "referenced_type" : "_ZTINSt3__18functionIFvRKN7android4hidl4base4V1_09DebugInfoEEEE"
    }
   ],
   "return_type" : "_ZTIN7android8hardware6ReturnIvEE",
   "source_file" : "/out/soong/.intermediates/frameworks/hardware/interfaces/schedulerservice/1.0/android.frameworks.schedulerservice@1.0_genc++_headers/gen/android/frameworks/schedulerservice/1.0/BpHwSchedulingPolicyService.h"
  },
  {
   "function_name" : "android::frameworks::schedulerservice::V1_0::BpHwSchedulingPolicyService::getHashChain",
   "linker_set_key" : "_ZN7android10frameworks16schedulerservice4V1_027BpHwSchedulingPolicyService12getHashChainENSt3__18functionIFvRKNS_8hardware8hidl_vecINS6_10hidl_arrayIhLj32EJEEEEEEEE",
   "parameters" :
   [
    {
     "is_this_ptr" : true,
     "referenced_type" : "_ZTIPN7android10frameworks16schedulerservice4V1_027BpHwSchedulingPolicyServiceE"
    },
    {
     "referenced_type" : "_ZTINSt3__18functionIFvRKN7android8hardware8hidl_vecINS2_10hidl_arrayIhLj32EJEEEEEEEE"
    }
   ],
   "return_type" : "_ZTIN7android8hardware6ReturnIvEE",
   "source_file" : "/out/soong/.intermediates/frameworks/hardware/interfaces/schedulerservice/1.0/android.frameworks.schedulerservice@1.0_genc++_headers/gen/android/frameworks/schedulerservice/1.0/BpHwSchedulingPolicyService.h"
  },
  {
   "function_name" : "android::frameworks::schedulerservice::V1_0::BpHwSchedulingPolicyService::unlinkToDeath",
   "linker_set_key" : "_ZN7android10frameworks16schedulerservice4V1_027BpHwSchedulingPolicyService13unlinkToDeathERKNS_2spINS_8hardware20hidl_death_recipientEEE",
   "parameters" :
   [
    {
     "is_this_ptr" : true,
     "referenced_type" : "_ZTIPN7android10frameworks16schedulerservice4V1_027BpHwSchedulingPolicyServiceE"
    },
    {
     "referenced_type" : "_ZTIRKN7android2spINS_8hardware20hidl_death_recipientEEE"
    }
   ],
   "return_type" : "_ZTIN7android8hardware6ReturnIbEE",
   "source_file" : "/out/soong/.intermediates/frameworks/hardware/interfaces/schedulerservice/1.0/android.frameworks.schedulerservice@1.0_genc++_headers/gen/android/frameworks/schedulerservice/1.0/BpHwSchedulingPolicyService.h"
  },
  {
   "function_name" : "android::frameworks::schedulerservice::V1_0::BpHwSchedulingPolicyService::interfaceChain",
   "linker_set_key" : "_ZN7android10frameworks16schedulerservice4V1_027BpHwSchedulingPolicyService14interfaceChainENSt3__18functionIFvRKNS_8hardware8hidl_vecINS6_11hidl_stringEEEEEE",
   "parameters" :
   [
    {
     "is_this_ptr" : true,
     "referenced_type" : "_ZTIPN7android10frameworks16schedulerservice4V1_027BpHwSchedulingPolicyServiceE"
    },
    {
     "referenced_type" : "_ZTINSt3__18functionIFvRKN7android8hardware8hidl_vecINS2_11hidl_stringEEEEEE"
    }
   ],
   "return_type" : "_ZTIN7android8hardware6ReturnIvEE",
   "source_file" : "/out/soong/.intermediates/frameworks/hardware/interfaces/schedulerservice/1.0/android.frameworks.schedulerservice@1.0_genc++_headers/gen/android/frameworks/schedulerservice/1.0/BpHwSchedulingPolicyService.h"
  },
  {
   "function_name" : "android::frameworks::schedulerservice::V1_0::BpHwSchedulingPolicyService::onLastStrongRef",
   "linker_set_key" : "_ZN7android10frameworks16schedulerservice4V1_027BpHwSchedulingPolicyService15onLastStrongRefEPKv",
   "parameters" :
   [
    {
     "is_this_ptr" : true,
     "referenced_type" : "_ZTIPN7android10frameworks16schedulerservice4V1_027BpHwSchedulingPolicyServiceE"
    },
    {
     "referenced_type" : "_ZTIPKv"
    }
   ],
   "return_type" : "_ZTIv",
   "source_file" : "/out/soong/.intermediates/frameworks/hardware/interfaces/schedulerservice/1.0/android.frameworks.schedulerservice@1.0_genc++_headers/gen/android/frameworks/schedulerservice/1.0/BpHwSchedulingPolicyService.h"
  },
  {
   "function_name" : "android::frameworks::schedulerservice::V1_0::BpHwSchedulingPolicyService::requestPriority",
   "linker_set_key" : "_ZN7android10frameworks16schedulerservice4V1_027BpHwSchedulingPolicyService15requestPriorityEiii",
   "parameters" :
   [
    {
     "is_this_ptr" : true,
     "referenced_type" : "_ZTIPN7android10frameworks16schedulerservice4V1_027BpHwSchedulingPolicyServiceE"
    },
    {
     "referenced_type" : "_ZTIi"
    },
    {
     "referenced_type" : "_ZTIi"
    },
    {
     "referenced_type" : "_ZTIi"
    }
   ],
   "return_type" : "_ZTIN7android8hardware6ReturnIbEE",
   "source_file" : "/out/soong/.intermediates/frameworks/hardware/interfaces/schedulerservice/1.0/android.frameworks.schedulerservice@1.0_genc++_headers/gen/android/frameworks/schedulerservice/1.0/BpHwSchedulingPolicyService.h"
  },
  {
   "function_name" : "android::frameworks::schedulerservice::V1_0::BpHwSchedulingPolicyService::interfaceDescriptor",
   "linker_set_key" : "_ZN7android10frameworks16schedulerservice4V1_027BpHwSchedulingPolicyService19interfaceDescriptorENSt3__18functionIFvRKNS_8hardware11hidl_stringEEEE",
   "parameters" :
   [
    {
     "is_this_ptr" : true,
     "referenced_type" : "_ZTIPN7android10frameworks16schedulerservice4V1_027BpHwSchedulingPolicyServiceE"
    },
    {
     "referenced_type" : "_ZTINSt3__18functionIFvRKN7android8hardware11hidl_stringEEEE"
    }
   ],
   "return_type" : "_ZTIN7android8hardware6ReturnIvEE",
   "source_file" : "/out/soong/.intermediates/frameworks/hardware/interfaces/schedulerservice/1.0/android.frameworks.schedulerservice@1.0_genc++_headers/gen/android/frameworks/schedulerservice/1.0/BpHwSchedulingPolicyService.h"
  },
  {
   "function_name" : "android::frameworks::schedulerservice::V1_0::BpHwSchedulingPolicyService::_hidl_requestPriority",
   "linker_set_key" : "_ZN7android10frameworks16schedulerservice4V1_027BpHwSchedulingPolicyService21_hidl_requestPriorityEPNS_8hardware10IInterfaceEPNS4_7details16HidlInstrumentorEiii",
   "parameters" :
   [
    {
     "referenced_type" : "_ZTIPN7android8hardware10IInterfaceE"
    },
    {
     "referenced_type" : "_ZTIPN7android8hardware7details16HidlInstrumentorE"
    },
    {
     "referenced_type" : "_ZTIi"
    },
    {
     "referenced_type" : "_ZTIi"
    },
    {
     "referenced_type" : "_ZTIi"
    }
   ],
   "return_type" : "_ZTIN7android8hardware6ReturnIbEE",
   "source_file" : "/out/soong/.intermediates/frameworks/hardware/interfaces/schedulerservice/1.0/android.frameworks.schedulerservice@1.0_genc++_headers/gen/android/frameworks/schedulerservice/1.0/BpHwSchedulingPolicyService.h"
  },
  {
   "function_name" : "android::frameworks::schedulerservice::V1_0::BpHwSchedulingPolicyService::getMaxAllowedPriority",
   "linker_set_key" : "_ZN7android10frameworks16schedulerservice4V1_027BpHwSchedulingPolicyService21getMaxAllowedPriorityEv",
   "parameters" :
   [
    {
     "is_this_ptr" : true,
     "referenced_type" : "_ZTIPN7android10frameworks16schedulerservice4V1_027BpHwSchedulingPolicyServiceE"
    }
   ],
   "return_type" : "_ZTIN7android8hardware6ReturnIiEE",
   "source_file" : "/out/soong/.intermediates/frameworks/hardware/interfaces/schedulerservice/1.0/android.frameworks.schedulerservice@1.0_genc++_headers/gen/android/frameworks/schedulerservice/1.0/BpHwSchedulingPolicyService.h"
  },
  {
   "function_name" : "android::frameworks::schedulerservice::V1_0::BpHwSchedulingPolicyService::notifySyspropsChanged",
   "linker_set_key" : "_ZN7android10frameworks16schedulerservice4V1_027BpHwSchedulingPolicyService21notifySyspropsChangedEv",
   "parameters" :
   [
    {
     "is_this_ptr" : true,
     "referenced_type" : "_ZTIPN7android10frameworks16schedulerservice4V1_027BpHwSchedulingPolicyServiceE"
    }
   ],
   "return_type" : "_ZTIN7android8hardware6ReturnIvEE",
   "source_file" : "/out/soong/.intermediates/frameworks/hardware/interfaces/schedulerservice/1.0/android.frameworks.schedulerservice@1.0_genc++_headers/gen/android/frameworks/schedulerservice/1.0/BpHwSchedulingPolicyService.h"
  },
  {
   "function_name" : "android::frameworks::schedulerservice::V1_0::BpHwSchedulingPolicyService::setHALInstrumentation",
   "linker_set_key" : "_ZN7android10frameworks16schedulerservice4V1_027BpHwSchedulingPolicyService21setHALInstrumentationEv",
   "parameters" :
   [
    {
     "is_this_ptr" : true,
     "referenced_type" : "_ZTIPN7android10frameworks16schedulerservice4V1_027BpHwSchedulingPolicyServiceE"
    }
   ],
   "return_type" : "_ZTIN7android8hardware6ReturnIvEE",
   "source_file" : "/out/soong/.intermediates/frameworks/hardware/interfaces/schedulerservice/1.0/android.frameworks.schedulerservice@1.0_genc++_headers/gen/android/frameworks/schedulerservice/1.0/BpHwSchedulingPolicyService.h"
  },
  {
   "function_name" : "android::frameworks::schedulerservice::V1_0::BpHwSchedulingPolicyService::_hidl_getMaxAllowedPriority",
   "linker_set_key" : "_ZN7android10frameworks16schedulerservice4V1_027BpHwSchedulingPolicyService27_hidl_getMaxAllowedPriorityEPNS_8hardware10IInterfaceEPNS4_7details16HidlInstrumentorE",
   "parameters" :
   [
    {
     "referenced_type" : "_ZTIPN7android8hardware10IInterfaceE"
    },
    {
     "referenced_type" : "_ZTIPN7android8hardware7details16HidlInstrumentorE"
    }
   ],
   "return_type" : "_ZTIN7android8hardware6ReturnIiEE",
   "source_file" : "/out/soong/.intermediates/frameworks/hardware/interfaces/schedulerservice/1.0/android.frameworks.schedulerservice@1.0_genc++_headers/gen/android/frameworks/schedulerservice/1.0/BpHwSchedulingPolicyService.h"
  },
  {
   "function_name" : "android::frameworks::schedulerservice::V1_0::BpHwSchedulingPolicyService::ping",
   "linker_set_key" : "_ZN7android10frameworks16schedulerservice4V1_027BpHwSchedulingPolicyService4pingEv",
   "parameters" :
   [
    {
     "is_this_ptr" : true,
     "referenced_type" : "_ZTIPN7android10frameworks16schedulerservice4V1_027BpHwSchedulingPolicyServiceE"
    }
   ],
   "return_type" : "_ZTIN7android8hardware6ReturnIvEE",
   "source_file" : "/out/soong/.intermediates/frameworks/hardware/interfaces/schedulerservice/1.0/android.frameworks.schedulerservice@1.0_genc++_headers/gen/android/frameworks/schedulerservice/1.0/BpHwSchedulingPolicyService.h"
  },
  {
   "function_name" : "android::frameworks::schedulerservice::V1_0::BpHwSchedulingPolicyService::debug",
   "linker_set_key" : "_ZN7android10frameworks16schedulerservice4V1_027BpHwSchedulingPolicyService5debugERKNS_8hardware11hidl_handleERKNS4_8hidl_vecINS4_11hidl_stringEEE",
   "parameters" :
   [
    {
     "is_this_ptr" : true,
     "referenced_type" : "_ZTIPN7android10frameworks16schedulerservice4V1_027BpHwSchedulingPolicyServiceE"
    },
    {
     "referenced_type" : "_ZTIRKN7android8hardware11hidl_handleE"
    },
    {
     "referenced_type" : "_ZTIRKN7android8hardware8hidl_vecINS0_11hidl_stringEEE"
    }
   ],
   "return_type" : "_ZTIN7android8hardware6ReturnIvEE",
   "source_file" : "/out/soong/.intermediates/frameworks/hardware/interfaces/schedulerservice/1.0/android.frameworks.schedulerservice@1.0_genc++_headers/gen/android/frameworks/schedulerservice/1.0/BpHwSchedulingPolicyService.h"
  },
  {
   "function_name" : "android::frameworks::schedulerservice::V1_0::BpHwSchedulingPolicyService::BpHwSchedulingPolicyService",
   "linker_set_key" : "_ZN7android10frameworks16schedulerservice4V1_027BpHwSchedulingPolicyServiceC1ERKNS_2spINS_8hardware7IBinderEEE",
   "parameters" :
   [
    {
     "is_this_ptr" : true,
     "referenced_type" : "_ZTIPN7android10frameworks16schedulerservice4V1_027BpHwSchedulingPolicyServiceE"
    },
    {
     "referenced_type" : "_ZTIRKN7android2spINS_8hardware7IBinderEEE"
    }
   ],
   "return_type" : "_ZTIv",
   "source_file" : "/out/soong/.intermediates/frameworks/hardware/interfaces/schedulerservice/1.0/android.frameworks.schedulerservice@1.0_genc++_headers/gen/android/frameworks/schedulerservice/1.0/BpHwSchedulingPolicyService.h"
  },
  {
   "function_name" : "android::frameworks::schedulerservice::V1_0::BpHwSchedulingPolicyService::BpHwSchedulingPolicyService",
   "linker_set_key" : "_ZN7android10frameworks16schedulerservice4V1_027BpHwSchedulingPolicyServiceC2ERKNS_2spINS_8hardware7IBinderEEE",
   "parameters" :
   [
    {
     "is_this_ptr" : true,
     "referenced_type" : "_ZTIPN7android10frameworks16schedulerservice4V1_027BpHwSchedulingPolicyServiceE"
    },
    {
     "referenced_type" : "_ZTIRKN7android2spINS_8hardware7IBinderEEE"
    }
   ],
   "return_type" : "_ZTIv",
   "source_file" : "/out/soong/.intermediates/frameworks/hardware/interfaces/schedulerservice/1.0/android.frameworks.schedulerservice@1.0_genc++_headers/gen/android/frameworks/schedulerservice/1.0/BpHwSchedulingPolicyService.h"
  },
  {
   "function_name" : "android::hardware::details::castInterface",
   "linker_set_key" : "_ZN7android8hardware7details13castInterfaceINS_10frameworks16schedulerservice4V1_024ISchedulingPolicyServiceENS_4hidl4base4V1_05IBaseENS5_27BpHwSchedulingPolicyServiceEEENS0_6ReturnINS_2spIT_EEEENSD_IT0_EEPKcb",
   "parameters" :
   [
    {
     "referenced_type" : "_ZTIN7android2spINS_4hidl4base4V1_05IBaseEEE"
    },
    {
     "referenced_type" : "_ZTIPKc"
    },
    {
     "referenced_type" : "_ZTIb"
    }
   ],
   "return_type" : "_ZTIN7android8hardware6ReturnINS_2spINS_10frameworks16schedulerservice4V1_024ISchedulingPolicyServiceEEEEE",
   "source_file" : "/system/libhidl/transport/include/hidl/HidlTransportSupport.h",
   "template_args" :
   [
    "_ZTIN7android10frameworks16schedulerservice4V1_024ISchedulingPolicyServiceE",
    "_ZTIN7android4hidl4base4V1_05IBaseE",
    "_ZTIN7android10frameworks16schedulerservice4V1_027BpHwSchedulingPolicyServiceE"
   ]
  },
  {
   "function_name" : "android::hardware::details::getServiceInternal",
   "linker_set_key" : "_ZN7android8hardware7details18getServiceInternalINS_10frameworks16schedulerservice4V1_027BpHwSchedulingPolicyServiceENS5_24ISchedulingPolicyServiceEvvEENS_2spIT0_EERKNSt3__112basic_stringIcNSB_11char_traitsIcEENSB_9allocatorIcEEEEbb",
   "parameters" :
   [
    {
     "referenced_type" : "_ZTIRKNSt3__112basic_stringIcNS_11char_traitsIcEENS_9allocatorIcEEEE"
    },
    {
     "referenced_type" : "_ZTIb"
    },
    {
     "referenced_type" : "_ZTIb"
    }
   ],
   "return_type" : "_ZTIN7android2spINS_10frameworks16schedulerservice4V1_024ISchedulingPolicyServiceEEE",
   "source_file" : "/system/libhidl/transport/include/hidl/HidlTransportSupport.h",
   "template_args" :
   [
    "_ZTIN7android10frameworks16schedulerservice4V1_027BpHwSchedulingPolicyServiceE",
    "_ZTIN7android10frameworks16schedulerservice4V1_024ISchedulingPolicyServiceE",
    "_ZTIv",
    "_ZTIv"
   ]
  },
  {
   "function_name" : "android::frameworks::schedulerservice::V1_0::BpHwSchedulingPolicyService::onLastStrongRef",
   "linker_set_key" : "_ZThn8_N7android10frameworks16schedulerservice4V1_027BpHwSchedulingPolicyService15onLastStrongRefEPKv",
   "parameters" :
   [
    {
     "is_this_ptr" : true,
     "referenced_type" : "_ZTIPN7android10frameworks16schedulerservice4V1_027BpHwSchedulingPolicyServiceE"
    },
    {
     "referenced_type" : "_ZTIPKv"
    }
   ],
   "return_type" : "_ZTIv",
   "source_file" : "/out/soong/.intermediates/frameworks/hardware/interfaces/schedulerservice/1.0/android.frameworks.schedulerservice@1.0_genc++_headers/gen/android/frameworks/schedulerservice/1.0/BpHwSchedulingPolicyService.h"
  },
  {
   "function_name" : "android::frameworks::schedulerservice::V1_0::BpHwSchedulingPolicyService::onLastStrongRef",
   "linker_set_key" : "_ZTv0_n20_N7android10frameworks16schedulerservice4V1_027BpHwSchedulingPolicyService15onLastStrongRefEPKv",
   "parameters" :
   [
    {
     "is_this_ptr" : true,
     "referenced_type" : "_ZTIPN7android10frameworks16schedulerservice4V1_027BpHwSchedulingPolicyServiceE"
    },
    {
     "referenced_type" : "_ZTIPKv"
    }
   ],
   "return_type" : "_ZTIv",
   "source_file" : "/out/soong/.intermediates/frameworks/hardware/interfaces/schedulerservice/1.0/android.frameworks.schedulerservice@1.0_genc++_headers/gen/android/frameworks/schedulerservice/1.0/BpHwSchedulingPolicyService.h"
  }
 ],
 "global_vars" :
 [
  {
   "linker_set_key" : "_ZN7android10frameworks16schedulerservice4V1_024ISchedulingPolicyService10descriptorE",
   "name" : "android::frameworks::schedulerservice::V1_0::ISchedulingPolicyService::descriptor",
   "referenced_type" : "_ZTIPKc",
   "source_file" : "/out/soong/.intermediates/frameworks/hardware/interfaces/schedulerservice/1.0/android.frameworks.schedulerservice@1.0_genc++_headers/gen/android/frameworks/schedulerservice/1.0/ISchedulingPolicyService.h"
  }
 ],
 "lvalue_reference_types" :
 [
  {
   "alignment" : 4,
   "linker_set_key" : "_ZTIRK7log_msg",
   "name" : "const log_msg &",
   "referenced_type" : "_ZTIK7log_msg",
   "self_type" : "_ZTIRK7log_msg",
   "size" : 4,
   "source_file" : "/system/core/liblog/include/log/log_read.h"
  },
  {
   "alignment" : 4,
   "linker_set_key" : "_ZTIRKN7android2spINS_10frameworks16schedulerservice4V1_024ISchedulingPolicyServiceEEE",
   "name" : "const android::sp<android::frameworks::schedulerservice::V1_0::ISchedulingPolicyService> &",
   "referenced_type" : "_ZTIKN7android2spINS_10frameworks16schedulerservice4V1_024ISchedulingPolicyServiceEEE",
   "self_type" : "_ZTIRKN7android2spINS_10frameworks16schedulerservice4V1_024ISchedulingPolicyServiceEEE",
   "size" : 4,
   "source_file" : "/system/core/libutils/include/utils/StrongPointer.h"
  },
  {
   "alignment" : 4,
   "linker_set_key" : "_ZTIRKN7android2spINS_4hidl4base4V1_05IBaseEEE",
   "name" : "const android::sp<android::hidl::base::V1_0::IBase> &",
   "referenced_type" : "_ZTIKN7android2spINS_4hidl4base4V1_05IBaseEEE",
   "self_type" : "_ZTIRKN7android2spINS_4hidl4base4V1_05IBaseEEE",
   "size" : 4,
   "source_file" : "/system/core/libutils/include/utils/StrongPointer.h"
  },
  {
   "alignment" : 4,
   "linker_set_key" : "_ZTIRKN7android2spINS_4hidl7manager4V1_020IServiceNotificationEEE",
   "name" : "const android::sp<android::hidl::manager::V1_0::IServiceNotification> &",
   "referenced_type" : "_ZTIKN7android2spINS_4hidl7manager4V1_020IServiceNotificationEEE",
   "self_type" : "_ZTIRKN7android2spINS_4hidl7manager4V1_020IServiceNotificationEEE",
   "size" : 4,
   "source_file" : "/out/soong/.intermediates/frameworks/hardware/interfaces/schedulerservice/1.0/android.frameworks.schedulerservice@1.0_genc++_headers/gen/android/frameworks/schedulerservice/1.0/ISchedulingPolicyService.h"
  },
  {
   "alignment" : 4,
   "linker_set_key" : "_ZTIRKN7android2spINS_8hardware20hidl_death_recipientEEE",
   "name" : "const android::sp<android::hardware::hidl_death_recipient> &",
   "referenced_type" : "_ZTIKN7android2spINS_8hardware20hidl_death_recipientEEE",
   "self_type" : "_ZTIRKN7android2spINS_8hardware20hidl_death_recipientEEE",
   "size" : 4,
   "source_file" : "/system/core/libutils/include/utils/RefBase.h"
  },
  {
   "alignment" : 4,
   "linker_set_key" : "_ZTIRKN7android2spINS_8hardware27hidl_binder_death_recipientEEE",
   "name" : "const android::sp<android::hardware::hidl_binder_death_recipient> &",
   "referenced_type" : "_ZTIKN7android2spINS_8hardware27hidl_binder_death_recipientEEE",
   "self_type" : "_ZTIRKN7android2spINS_8hardware27hidl_binder_death_recipientEEE",
   "size" : 4,
   "source_file" : "/system/core/libutils/include/utils/RefBase.h"
  },
  {
   "alignment" : 4,
   "linker_set_key" : "_ZTIRKN7android2spINS_8hardware7IBinderEEE",
   "name" : "const android::sp<android::hardware::IBinder> &",
   "referenced_type" : "_ZTIKN7android2spINS_8hardware7IBinderEEE",
   "self_type" : "_ZTIRKN7android2spINS_8hardware7IBinderEEE",
   "size" : 4,
   "source_file" : "/system/libhwbinder/include/hwbinder/IInterface.h"
  },
  {
   "alignment" : 4,
   "linker_set_key" : "_ZTIRKN7android2wpINS_8hardware9BHwBinderEEE",
   "name" : "const android::wp<android::hardware::BHwBinder> &",
   "referenced_type" : "_ZTIKN7android2wpINS_8hardware9BHwBinderEEE",
   "self_type" : "_ZTIRKN7android2wpINS_8hardware9BHwBinderEEE",
   "size" : 4,
   "source_file" : "/system/core/libutils/include/utils/RefBase.h"
  },
  {
   "alignment" : 4,
   "linker_set_key" : "_ZTIRKN7android7String8E",
   "name" : "const android::String8 &",
   "referenced_type" : "_ZTIKN7android7String8E",
   "self_type" : "_ZTIRKN7android7String8E",
   "size" : 4,
   "source_file" : "/system/core/libutils/include/utils/String8.h"
  },
  {
   "alignment" : 4,
   "linker_set_key" : "_ZTIRKN7android8String16E",
   "name" : "const android::String16 &",
   "referenced_type" : "_ZTIKN7android8String16E",
   "self_type" : "_ZTIRKN7android8String16E",
   "size" : 4,
   "source_file" : "/system/core/libutils/include/utils/String16.h"
  },
  {
   "alignment" : 4,
   "linker_set_key" : "_ZTIRKN7android8hardware10hidl_arrayIhLj32EJEEE",
   "name" : "const android::hardware::hidl_array<unsigned char, 32> &",
   "referenced_type" : "_ZTIKN7android8hardware10hidl_arrayIhLj32EJEEE",
   "self_type" : "_ZTIRKN7android8hardware10hidl_arrayIhLj32EJEEE",
   "size" : 4,
   "source_file" : "/system/libhidl/base/include/hidl/HidlSupport.h"
  },
  {
   "alignment" : 4,
   "linker_set_key" : "_ZTIRKN7android8hardware11hidl_handleE",
   "name" : "const android::hardware::hidl_handle &",
   "referenced_type" : "_ZTIKN7android8hardware11hidl_handleE",
   "self_type" : "_ZTIRKN7android8hardware11hidl_handleE",
   "size" : 4,
   "source_file" : "/system/libhidl/base/include/hidl/HidlSupport.h"
  },
  {
   "alignment" : 4,
   "linker_set_key" : "_ZTIRKN7android8hardware11hidl_memoryE",
   "name" : "const android::hardware::hidl_memory &",
   "referenced_type" : "_ZTIKN7android8hardware11hidl_memoryE",
   "self_type" : "_ZTIRKN7android8hardware11hidl_memoryE",
   "size" : 4,
   "source_file" : "/system/libhidl/base/include/hidl/HidlSupport.h"
  },
  {
   "alignment" : 4,
   "linker_set_key" : "_ZTIRKN7android8hardware11hidl_stringE",
   "name" : "const android::hardware::hidl_string &",
   "referenced_type" : "_ZTIKN7android8hardware11hidl_stringE",
   "self_type" : "_ZTIRKN7android8hardware11hidl_stringE",
   "size" : 4,
   "source_file" : "/system/libhidl/base/include/hidl/HidlSupport.h"
  },
  {
   "alignment" : 4,
   "linker_set_key" : "_ZTIRKN7android8hardware12hidl_versionE",
   "name" : "const android::hardware::hidl_version &",
   "referenced_type" : "_ZTIKN7android8hardware12hidl_versionE",
   "self_type" : "_ZTIRKN7android8hardware12hidl_versionE",
   "size" : 4,
   "source_file" : "/system/libhidl/base/include/hidl/HidlSupport.h"
  },
  {
   "alignment" : 4,
   "linker_set_key" : "_ZTIRKN7android8hardware6ParcelE",
   "name" : "const android::hardware::Parcel &",
   "referenced_type" : "_ZTIKN7android8hardware6ParcelE",
   "self_type" : "_ZTIRKN7android8hardware6ParcelE",
   "size" : 4,
   "source_file" : "/system/libhwbinder/include/hwbinder/Parcel.h"
  },
  {
   "alignment" : 4,
   "linker_set_key" : "_ZTIRKN7android8hardware6ReturnIbEE",
   "name" : "const android::hardware::Return<bool> &",
   "referenced_type" : "_ZTIKN7android8hardware6ReturnIbEE",
   "self_type" : "_ZTIRKN7android8hardware6ReturnIbEE",
   "size" : 4,
   "source_file" : "/system/libhidl/base/include/hidl/Status.h"
  },
  {
   "alignment" : 4,
   "linker_set_key" : "_ZTIRKN7android8hardware6StatusE",
   "name" : "const android::hardware::Status &",
   "referenced_type" : "_ZTIKN7android8hardware6StatusE",
   "self_type" : "_ZTIRKN7android8hardware6StatusE",
   "size" : 4,
   "source_file" : "/system/libhidl/base/include/hidl/Status.h"
  },
  {
   "linker_set_key" : "_ZTIRKN7android8hardware8hidl_vec4iterIXTL0__EEE",
   "name" : "const iter<is_const> &",
   "referenced_type" : "_ZTIKN7android8hardware8hidl_vec4iterIXTL0__EEE",
   "self_type" : "_ZTIRKN7android8hardware8hidl_vec4iterIXTL0__EEE",
   "source_file" : "/system/libhidl/base/include/hidl/HidlSupport.h"
  },
  {
   "alignment" : 4,
   "linker_set_key" : "_ZTIRKN7android8hardware8hidl_vecINS0_11hidl_stringEEE",
   "name" : "const android::hardware::hidl_vec<android::hardware::hidl_string> &",
   "referenced_type" : "_ZTIKN7android8hardware8hidl_vecINS0_11hidl_stringEEE",
   "self_type" : "_ZTIRKN7android8hardware8hidl_vecINS0_11hidl_stringEEE",
   "size" : 4,
   "source_file" : "/out/soong/.intermediates/frameworks/hardware/interfaces/schedulerservice/1.0/android.frameworks.schedulerservice@1.0_genc++_headers/gen/android/frameworks/schedulerservice/1.0/ISchedulingPolicyService.h"
  },
  {
   "alignment" : 4,
   "linker_set_key" : "_ZTIRKN7android8hardware8hidl_vecIiEE",
   "name" : "const android::hardware::hidl_vec<int> &",
   "referenced_type" : "_ZTIKN7android8hardware8hidl_vecIiEE",
   "self_type" : "_ZTIRKN7android8hardware8hidl_vecIiEE",
   "size" : 4,
   "source_file" : "/system/libhidl/base/include/hidl/HidlSupport.h"
  },
  {
   "alignment" : 4,
   "linker_set_key" : "_ZTIRKNSt3__112basic_stringIcNS_11char_traitsIcEENS_9allocatorIcEEEE",
   "name" : "const std::basic_string<char, std::char_traits<char>, std::allocator<char> > &",
   "referenced_type" : "_ZTIKNSt3__112basic_stringIcNS_11char_traitsIcEENS_9allocatorIcEEEE",
   "self_type" : "_ZTIRKNSt3__112basic_stringIcNS_11char_traitsIcEENS_9allocatorIcEEEE",
   "size" : 4,
   "source_file" : "/system/libhidl/transport/include/hidl/HidlTransportSupport.h"
  },
  {
   "alignment" : 4,
   "linker_set_key" : "_ZTIRKNSt3__16vectorINS_8functionIFvN7android8hardware7details16HidlInstrumentor20InstrumentationEventEPKcS8_S8_S8_PNS0_IPvNS_9allocatorIS9_EEEEEEENSA_ISF_EEEE",
   "name" : "const std::vector<std::function<void (InstrumentationEvent, const char *, const char *, const char *, const char *, vector<void *, allocator<void *> > *)>, std::allocator<std::function<void (InstrumentationEvent, const char *, const char *, const char *, const char *, vector<void *, allocator<void *> > *)> > > &",
   "referenced_type" : "_ZTIKNSt3__16vectorINS_8functionIFvN7android8hardware7details16HidlInstrumentor20InstrumentationEventEPKcS8_S8_S8_PNS0_IPvNS_9allocatorIS9_EEEEEEENSA_ISF_EEEE",
   "self_type" : "_ZTIRKNSt3__16vectorINS_8functionIFvN7android8hardware7details16HidlInstrumentor20InstrumentationEventEPKcS8_S8_S8_PNS0_IPvNS_9allocatorIS9_EEEEEEENSA_ISF_EEEE",
   "size" : 4,
   "source_file" : "/system/libhidl/base/include/hidl/HidlInternal.h"
  },
  {
   "alignment" : 4,
   "linker_set_key" : "_ZTIRKPKN7android4hidl4base4V1_05IBaseE",
   "name" : "const android::hidl::base::V1_0::IBase *const &",
   "referenced_type" : "_ZTIKPKN7android4hidl4base4V1_05IBaseE",
   "self_type" : "_ZTIRKPKN7android4hidl4base4V1_05IBaseE",
   "size" : 4,
   "source_file" : "/system/libhidl/transport/include/hidl/ConcurrentMap.h"
  },
  {
   "alignment" : 4,
   "linker_set_key" : "_ZTIRKa",
   "name" : "const signed char &",
   "referenced_type" : "_ZTIKa",
   "self_type" : "_ZTIRKa",
   "size" : 4,
   "source_file" : "/system/core/libutils/include/utils/TypeHelpers.h"
  },
  {
   "alignment" : 4,
   "linker_set_key" : "_ZTIRKb",
   "name" : "const bool &",
   "referenced_type" : "_ZTIKb",
   "self_type" : "_ZTIRKb",
   "size" : 4,
   "source_file" : "/system/core/libutils/include/utils/TypeHelpers.h"
  },
  {
   "alignment" : 4,
   "linker_set_key" : "_ZTIRKd",
   "name" : "const double &",
   "referenced_type" : "_ZTIKd",
   "self_type" : "_ZTIRKd",
   "size" : 4,
   "source_file" : "/system/core/libutils/include/utils/TypeHelpers.h"
  },
  {
   "alignment" : 4,
   "linker_set_key" : "_ZTIRKf",
   "name" : "const float &",
   "referenced_type" : "_ZTIKf",
   "self_type" : "_ZTIRKf",
   "size" : 4,
   "source_file" : "/system/core/libutils/include/utils/TypeHelpers.h"
  },
  {
   "alignment" : 4,
   "linker_set_key" : "_ZTIRKh",
   "name" : "const unsigned char &",
   "referenced_type" : "_ZTIKh",
   "self_type" : "_ZTIRKh",
   "size" : 4,
   "source_file" : "/system/core/libutils/include/utils/TypeHelpers.h"
  },
  {
   "alignment" : 4,
   "linker_set_key" : "_ZTIRKi",
   "name" : "const int &",
   "referenced_type" : "_ZTIKi",
   "self_type" : "_ZTIRKi",
   "size" : 4,
   "source_file" : "/system/libhidl/base/include/hidl/HidlInternal.h"
  },
  {
   "alignment" : 4,
   "linker_set_key" : "_ZTIRKj",
   "name" : "const unsigned int &",
   "referenced_type" : "_ZTIKj",
   "self_type" : "_ZTIRKj",
   "size" : 4,
   "source_file" : "/system/core/libutils/include/utils/TypeHelpers.h"
  },
  {
   "alignment" : 4,
   "linker_set_key" : "_ZTIRKs",
   "name" : "const short &",
   "referenced_type" : "_ZTIKs",
   "self_type" : "_ZTIRKs",
   "size" : 4,
   "source_file" : "/system/core/libutils/include/utils/TypeHelpers.h"
  },
  {
   "alignment" : 4,
   "linker_set_key" : "_ZTIRKt",
   "name" : "const unsigned short &",
   "referenced_type" : "_ZTIKt",
   "self_type" : "_ZTIRKt",
   "size" : 4,
   "source_file" : "/system/core/libutils/include/utils/TypeHelpers.h"
  },
  {
   "alignment" : 4,
   "linker_set_key" : "_ZTIRKx",
   "name" : "const long long &",
   "referenced_type" : "_ZTIKx",
   "self_type" : "_ZTIRKx",
   "size" : 4,
   "source_file" : "/system/core/libutils/include/utils/TypeHelpers.h"
  },
  {
   "alignment" : 4,
   "linker_set_key" : "_ZTIRKy",
   "name" : "const unsigned long long &",
   "referenced_type" : "_ZTIKy",
   "self_type" : "_ZTIRKy",
   "size" : 4,
   "source_file" : "/system/core/libutils/include/utils/TypeHelpers.h"
  },
  {
   "alignment" : 4,
   "linker_set_key" : "_ZTIRN7android2spINS_10frameworks16schedulerservice4V1_024ISchedulingPolicyServiceEEE",
   "name" : "android::sp<android::frameworks::schedulerservice::V1_0::ISchedulingPolicyService> &",
   "referenced_type" : "_ZTIN7android2spINS_10frameworks16schedulerservice4V1_024ISchedulingPolicyServiceEEE",
   "self_type" : "_ZTIRN7android2spINS_10frameworks16schedulerservice4V1_024ISchedulingPolicyServiceEEE",
   "size" : 4,
   "source_file" : "/system/core/libutils/include/utils/StrongPointer.h"
  },
  {
   "alignment" : 4,
   "linker_set_key" : "_ZTIRN7android2spINS_8hardware27hidl_binder_death_recipientEEE",
   "name" : "android::sp<android::hardware::hidl_binder_death_recipient> &",
   "referenced_type" : "_ZTIN7android2spINS_8hardware27hidl_binder_death_recipientEEE",
   "self_type" : "_ZTIRN7android2spINS_8hardware27hidl_binder_death_recipientEEE",
   "size" : 4,
   "source_file" : "/system/core/libutils/include/utils/StrongPointer.h"
  },
  {
   "alignment" : 4,
   "linker_set_key" : "_ZTIRN7android5MutexE",
   "name" : "android::Mutex &",
   "referenced_type" : "_ZTIN7android5MutexE",
   "self_type" : "_ZTIRN7android5MutexE",
   "size" : 4,
   "source_file" : "/system/core/libutils/include/utils/Mutex.h"
  },
  {
   "alignment" : 4,
   "linker_set_key" : "_ZTIRN7android6RWLockE",
   "name" : "android::RWLock &",
   "referenced_type" : "_ZTIN7android6RWLockE",
   "self_type" : "_ZTIRN7android6RWLockE",
   "size" : 4,
   "source_file" : "/system/core/libutils/include/utils/RWLock.h"
  },
  {
   "alignment" : 4,
   "linker_set_key" : "_ZTIRN7android7String8E",
   "name" : "android::String8 &",
   "referenced_type" : "_ZTIN7android7String8E",
   "self_type" : "_ZTIRN7android7String8E",
   "size" : 4,
   "source_file" : "/system/core/libutils/include/utils/String8.h"
  },
  {
   "alignment" : 4,
   "linker_set_key" : "_ZTIRN7android8String16E",
   "name" : "android::String16 &",
   "referenced_type" : "_ZTIN7android8String16E",
   "self_type" : "_ZTIRN7android8String16E",
   "size" : 4,
   "source_file" : "/system/core/libutils/include/utils/String16.h"
  },
  {
   "alignment" : 4,
   "linker_set_key" : "_ZTIRN7android8hardware10TextOutputE",
   "name" : "android::hardware::TextOutput &",
   "referenced_type" : "_ZTIN7android8hardware10TextOutputE",
   "self_type" : "_ZTIRN7android8hardware10TextOutputE",
   "size" : 4,
   "source_file" : "/system/libhwbinder/include/hwbinder/Parcel.h"
  },
  {
   "alignment" : 4,
   "linker_set_key" : "_ZTIRN7android8hardware10hidl_arrayIhLj32EJEEE",
   "name" : "android::hardware::hidl_array<unsigned char, 32> &",
   "referenced_type" : "_ZTIN7android8hardware10hidl_arrayIhLj32EJEEE",
   "self_type" : "_ZTIRN7android8hardware10hidl_arrayIhLj32EJEEE",
   "size" : 4,
   "source_file" : "/system/libhidl/base/include/hidl/HidlInternal.h"
  },
  {
   "alignment" : 4,
   "linker_set_key" : "_ZTIRN7android8hardware11hidl_memoryE",
   "name" : "android::hardware::hidl_memory &",
   "referenced_type" : "_ZTIN7android8hardware11hidl_memoryE",
   "self_type" : "_ZTIRN7android8hardware11hidl_memoryE",
   "size" : 4,
   "source_file" : "/system/libhidl/base/include/hidl/HidlSupport.h"
  },
  {
   "alignment" : 4,
   "linker_set_key" : "_ZTIRN7android8hardware11hidl_stringE",
   "name" : "android::hardware::hidl_string &",
   "referenced_type" : "_ZTIN7android8hardware11hidl_stringE",
   "self_type" : "_ZTIRN7android8hardware11hidl_stringE",
   "size" : 4,
   "source_file" : "/system/libhidl/base/include/hidl/HidlInternal.h"
  },
  {
   "alignment" : 4,
   "linker_set_key" : "_ZTIRN7android8hardware6ReturnINS_2spINS_10frameworks16schedulerservice4V1_024ISchedulingPolicyServiceEEEEE",
   "name" : "android::hardware::Return<android::sp<android::frameworks::schedulerservice::V1_0::ISchedulingPolicyService> > &",
   "referenced_type" : "_ZTIN7android8hardware6ReturnINS_2spINS_10frameworks16schedulerservice4V1_024ISchedulingPolicyServiceEEEEE",
   "self_type" : "_ZTIRN7android8hardware6ReturnINS_2spINS_10frameworks16schedulerservice4V1_024ISchedulingPolicyServiceEEEEE",
   "size" : 4,
   "source_file" : "/system/libhidl/base/include/hidl/Status.h"
  },
  {
   "alignment" : 4,
   "linker_set_key" : "_ZTIRN7android8hardware6ReturnIbEE",
   "name" : "android::hardware::Return<bool> &",
   "referenced_type" : "_ZTIN7android8hardware6ReturnIbEE",
   "self_type" : "_ZTIRN7android8hardware6ReturnIbEE",
   "size" : 4,
   "source_file" : "/system/libhidl/base/include/hidl/Status.h"
  },
  {
   "alignment" : 4,
   "linker_set_key" : "_ZTIRN7android8hardware6ReturnIiEE",
   "name" : "android::hardware::Return<int> &",
   "referenced_type" : "_ZTIN7android8hardware6ReturnIiEE",
   "self_type" : "_ZTIRN7android8hardware6ReturnIiEE",
   "size" : 4,
   "source_file" : "/system/libhidl/base/include/hidl/Status.h"
  },
  {
   "alignment" : 4,
   "linker_set_key" : "_ZTIRN7android8hardware6ReturnIvEE",
   "name" : "android::hardware::Return<void> &",
   "referenced_type" : "_ZTIN7android8hardware6ReturnIvEE",
   "self_type" : "_ZTIRN7android8hardware6ReturnIvEE",
   "size" : 4,
   "source_file" : "/system/libhidl/base/include/hidl/Status.h"
  },
  {
   "alignment" : 4,
   "linker_set_key" : "_ZTIRN7android8hardware6StatusE",
   "name" : "android::hardware::Status &",
   "referenced_type" : "_ZTIN7android8hardware6StatusE",
   "self_type" : "_ZTIRN7android8hardware6StatusE",
   "size" : 4,
   "source_file" : "/system/libhidl/base/include/hidl/Status.h"
  },
  {
   "alignment" : 4,
   "linker_set_key" : "_ZTIRN7android8hardware7details12hidl_pointerINS0_10hidl_arrayIhLj32EJEEEEE",
   "name" : "android::hardware::details::hidl_pointer<android::hardware::hidl_array<unsigned char, 32> > &",
   "referenced_type" : "_ZTIN7android8hardware7details12hidl_pointerINS0_10hidl_arrayIhLj32EJEEEEE",
   "self_type" : "_ZTIRN7android8hardware7details12hidl_pointerINS0_10hidl_arrayIhLj32EJEEEEE",
   "size" : 4,
   "source_file" : "/system/libhidl/base/include/hidl/HidlInternal.h"
  },
  {
   "alignment" : 4,
   "linker_set_key" : "_ZTIRN7android8hardware7details12hidl_pointerINS0_11hidl_stringEEE",
   "name" : "android::hardware::details::hidl_pointer<android::hardware::hidl_string> &",
   "referenced_type" : "_ZTIN7android8hardware7details12hidl_pointerINS0_11hidl_stringEEE",
   "self_type" : "_ZTIRN7android8hardware7details12hidl_pointerINS0_11hidl_stringEEE",
   "size" : 4,
   "source_file" : "/system/libhidl/base/include/hidl/HidlInternal.h"
  },
  {
   "alignment" : 4,
   "linker_set_key" : "_ZTIRN7android8hardware8hidl_vecINS0_10hidl_arrayIhLj32EJEEEEE",
   "name" : "android::hardware::hidl_vec<android::hardware::hidl_array<unsigned char, 32> > &",
   "referenced_type" : "_ZTIN7android8hardware8hidl_vecINS0_10hidl_arrayIhLj32EJEEEEE",
   "self_type" : "_ZTIRN7android8hardware8hidl_vecINS0_10hidl_arrayIhLj32EJEEEEE",
   "size" : 4,
   "source_file" : "/system/libhidl/base/include/hidl/HidlSupport.h"
  },
  {
   "alignment" : 4,
   "linker_set_key" : "_ZTIRN7android8hardware8hidl_vecINS0_11hidl_stringEEE",
   "name" : "android::hardware::hidl_vec<android::hardware::hidl_string> &",
   "referenced_type" : "_ZTIN7android8hardware8hidl_vecINS0_11hidl_stringEEE",
   "self_type" : "_ZTIRN7android8hardware8hidl_vecINS0_11hidl_stringEEE",
   "size" : 4,
   "source_file" : "/system/libhidl/base/include/hidl/HidlSupport.h"
  },
  {
   "alignment" : 4,
   "linker_set_key" : "_ZTIRh",
   "name" : "unsigned char &",
   "referenced_type" : "_ZTIh",
   "self_type" : "_ZTIRh",
   "size" : 4,
   "source_file" : "/out/soong/.intermediates/system/libhidl/transport/manager/1.0/android.hidl.manager@1.0_genc++_headers/gen/android/hidl/manager/1.0/IServiceManager.h"
  },
  {
   "alignment" : 4,
   "linker_set_key" : "_ZTIRi",
   "name" : "int &",
   "referenced_type" : "_ZTIi",
   "self_type" : "_ZTIRi",
   "size" : 4,
   "source_file" : "/out/soong/.intermediates/system/libhidl/transport/base/1.0/android.hidl.base@1.0_genc++_headers/gen/android/hidl/base/1.0/types.h"
  }
 ],
 "pointer_types" :
 [
  {
   "alignment" : 4,
   "linker_set_key" : "_ZTIP13native_handle",
   "name" : "native_handle *",
   "referenced_type" : "_ZTI13native_handle",
   "self_type" : "_ZTIP13native_handle",
   "size" : 4,
   "source_file" : "/system/libhidl/base/include/hidl/HidlInternal.h"
  },
  {
   "alignment" : 4,
   "linker_set_key" : "_ZTIP18android_flex_plane",
   "name" : "android_flex_plane *",
   "referenced_type" : "_ZTI18android_flex_plane",
   "self_type" : "_ZTIP18android_flex_plane",
   "size" : 4,
   "source_file" : "/system/core/libsystem/include/system/graphics.h"
  },
  {
   "alignment" : 4,
   "linker_set_key" : "_ZTIP7log_msg",
   "name" : "log_msg *",
   "referenced_type" : "_ZTI7log_msg",
   "self_type" : "_ZTIP7log_msg",
   "size" : 4,
   "source_file" : "/system/core/liblog/include/log/log_read.h"
  },
  {
   "alignment" : 4,
   "linker_set_key" : "_ZTIPFbRKN7android8String16ERKNS_2spINS_8hardware7IBinderEEEPvE",
   "name" : "bool (*)(const android::String16 &, const android::sp<android::hardware::IBinder> &, void *)",
   "referenced_type" : "_ZTIFbRKN7android8String16ERKNS_2spINS_8hardware7IBinderEEEPvE",
   "self_type" : "_ZTIPFbRKN7android8String16ERKNS_2spINS_8hardware7IBinderEEEPvE",
   "size" : 4,
   "source_file" : "/system/libhwbinder/include/hwbinder/ProcessState.h"
  },
  {
   "alignment" : 4,
   "linker_set_key" : "_ZTIPFiPvE",
   "name" : "int (*)(void *)",
   "referenced_type" : "_ZTIFiPvE",
   "self_type" : "_ZTIPFiPvE",
   "size" : 4,
   "source_file" : "/system/core/libutils/include/utils/AndroidThreads.h"
  },
  {
   "alignment" : 4,
   "linker_set_key" : "_ZTIPFvPN7android8hardware6ParcelEPKhjPKyjPvE",
   "name" : "void (*)(android::hardware::Parcel *, const unsigned char *, unsigned int, const unsigned long long *, unsigned int, void *)",
   "referenced_type" : "_ZTIFvPN7android8hardware6ParcelEPKhjPKyjPvE",
   "self_type" : "_ZTIPFvPN7android8hardware6ParcelEPKhjPKyjPvE",
   "size" : 4,
   "source_file" : "/system/libhwbinder/include/hwbinder/Parcel.h"
  },
  {
   "alignment" : 4,
   "linker_set_key" : "_ZTIPK13native_handle",
   "name" : "const native_handle *",
   "referenced_type" : "_ZTIK13native_handle",
   "self_type" : "_ZTIPK13native_handle",
   "size" : 4,
   "source_file" : "/system/libhidl/base/include/hidl/HidlInternal.h"
  },
  {
   "alignment" : 4,
   "linker_set_key" : "_ZTIPK7log_msg",
   "name" : "const log_msg *",
   "referenced_type" : "_ZTIK7log_msg",
   "self_type" : "_ZTIPK7log_msg",
   "size" : 4,
   "source_file" : "/system/core/liblog/include/log/log_read.h"
  },
  {
   "alignment" : 4,
   "linker_set_key" : "_ZTIPKDs",
   "name" : "const char16_t *",
   "referenced_type" : "_ZTIKDs",
   "self_type" : "_ZTIPKDs",
   "size" : 4,
   "source_file" : "/system/core/libutils/include/utils/String16.h"
  },
  {
   "alignment" : 4,
   "linker_set_key" : "_ZTIPKN7android10VectorImplE",
   "name" : "const android::VectorImpl *",
   "referenced_type" : "_ZTIKN7android10VectorImplE",
   "self_type" : "_ZTIPKN7android10VectorImplE",
   "size" : 4,
   "source_file" : "/system/core/libutils/include/utils/VectorImpl.h"
  },
  {
   "alignment" : 4,
   "linker_set_key" : "_ZTIPKN7android10frameworks16schedulerservice4V1_024ISchedulingPolicyServiceE",
   "name" : "const android::frameworks::schedulerservice::V1_0::ISchedulingPolicyService *",
   "referenced_type" : "_ZTIKN7android10frameworks16schedulerservice4V1_024ISchedulingPolicyServiceE",
   "self_type" : "_ZTIPKN7android10frameworks16schedulerservice4V1_024ISchedulingPolicyServiceE",
   "size" : 4,
   "source_file" : "/out/soong/.intermediates/frameworks/hardware/interfaces/schedulerservice/1.0/android.frameworks.schedulerservice@1.0_genc++_headers/gen/android/frameworks/schedulerservice/1.0/ISchedulingPolicyService.h"
  },
  {
   "alignment" : 4,
   "linker_set_key" : "_ZTIPKN7android10frameworks16schedulerservice4V1_027BpHwSchedulingPolicyServiceE",
   "name" : "const android::frameworks::schedulerservice::V1_0::BpHwSchedulingPolicyService *",
   "referenced_type" : "_ZTIKN7android10frameworks16schedulerservice4V1_027BpHwSchedulingPolicyServiceE",
   "self_type" : "_ZTIPKN7android10frameworks16schedulerservice4V1_027BpHwSchedulingPolicyServiceE",
   "size" : 4,
   "source_file" : "/out/soong/.intermediates/frameworks/hardware/interfaces/schedulerservice/1.0/android.frameworks.schedulerservice@1.0_genc++_headers/gen/android/frameworks/schedulerservice/1.0/BpHwSchedulingPolicyService.h"
  },
  {
   "alignment" : 4,
   "linker_set_key" : "_ZTIPKN7android12NativeHandleE",
   "name" : "const android::NativeHandle *",
   "referenced_type" : "_ZTIKN7android12NativeHandleE",
   "self_type" : "_ZTIPKN7android12NativeHandleE",
   "size" : 4,
   "source_file" : "/system/core/libutils/include/utils/NativeHandle.h"
  },
  {
   "alignment" : 4,
   "linker_set_key" : "_ZTIPKN7android2spINS_10frameworks16schedulerservice4V1_024ISchedulingPolicyServiceEEE",
   "name" : "const android::sp<android::frameworks::schedulerservice::V1_0::ISchedulingPolicyService> *",
   "referenced_type" : "_ZTIKN7android2spINS_10frameworks16schedulerservice4V1_024ISchedulingPolicyServiceEEE",
   "self_type" : "_ZTIPKN7android2spINS_10frameworks16schedulerservice4V1_024ISchedulingPolicyServiceEEE",
   "size" : 4,
   "source_file" : "/system/core/libutils/include/utils/StrongPointer.h"
  },
  {
   "alignment" : 4,
   "linker_set_key" : "_ZTIPKN7android2spINS_4hidl4base4V1_05IBaseEEE",
   "name" : "const android::sp<android::hidl::base::V1_0::IBase> *",
   "referenced_type" : "_ZTIKN7android2spINS_4hidl4base4V1_05IBaseEEE",
   "self_type" : "_ZTIPKN7android2spINS_4hidl4base4V1_05IBaseEEE",
   "size" : 4,
   "source_file" : "/system/core/libutils/include/utils/StrongPointer.h"
  },
  {
   "alignment" : 4,
   "linker_set_key" : "_ZTIPKN7android2spINS_4hidl7manager4V1_015IServiceManagerEEE",
   "name" : "const android::sp<android::hidl::manager::V1_0::IServiceManager> *",
   "referenced_type" : "_ZTIKN7android2spINS_4hidl7manager4V1_015IServiceManagerEEE",
   "self_type" : "_ZTIPKN7android2spINS_4hidl7manager4V1_015IServiceManagerEEE",
   "size" : 4,
   "source_file" : "/system/core/libutils/include/utils/StrongPointer.h"
  },
  {
   "alignment" : 4,
   "linker_set_key" : "_ZTIPKN7android2spINS_4hidl7manager4V1_020IServiceNotificationEEE",
   "name" : "const android::sp<android::hidl::manager::V1_0::IServiceNotification> *",
   "referenced_type" : "_ZTIKN7android2spINS_4hidl7manager4V1_020IServiceNotificationEEE",
   "self_type" : "_ZTIPKN7android2spINS_4hidl7manager4V1_020IServiceNotificationEEE",
   "size" : 4,
   "source_file" : "/system/core/libutils/include/utils/StrongPointer.h"
  },
  {
   "alignment" : 4,
   "linker_set_key" : "_ZTIPKN7android2spINS_8hardware12ProcessStateEEE",
   "name" : "const android::sp<android::hardware::ProcessState> *",
   "referenced_type" : "_ZTIKN7android2spINS_8hardware12ProcessStateEEE",
   "self_type" : "_ZTIPKN7android2spINS_8hardware12ProcessStateEEE",
   "size" : 4,
   "source_file" : "/system/core/libutils/include/utils/StrongPointer.h"
  },
  {
   "alignment" : 4,
   "linker_set_key" : "_ZTIPKN7android2spINS_8hardware20hidl_death_recipientEEE",
   "name" : "const android::sp<android::hardware::hidl_death_recipient> *",
   "referenced_type" : "_ZTIKN7android2spINS_8hardware20hidl_death_recipientEEE",
   "self_type" : "_ZTIPKN7android2spINS_8hardware20hidl_death_recipientEEE",
   "size" : 4,
   "source_file" : "/system/core/libutils/include/utils/StrongPointer.h"
  },
  {
   "alignment" : 4,
   "linker_set_key" : "_ZTIPKN7android2spINS_8hardware27hidl_binder_death_recipientEEE",
   "name" : "const android::sp<android::hardware::hidl_binder_death_recipient> *",
   "referenced_type" : "_ZTIKN7android2spINS_8hardware27hidl_binder_death_recipientEEE",
   "self_type" : "_ZTIPKN7android2spINS_8hardware27hidl_binder_death_recipientEEE",
   "size" : 4,
   "source_file" : "/system/core/libutils/include/utils/StrongPointer.h"
  },
  {
   "alignment" : 4,
   "linker_set_key" : "_ZTIPKN7android2spINS_8hardware7IBinderEEE",
   "name" : "const android::sp<android::hardware::IBinder> *",
   "referenced_type" : "_ZTIKN7android2spINS_8hardware7IBinderEEE",
   "self_type" : "_ZTIPKN7android2spINS_8hardware7IBinderEEE",
   "size" : 4,
   "source_file" : "/system/core/libutils/include/utils/StrongPointer.h"
  },
  {
   "alignment" : 4,
   "linker_set_key" : "_ZTIPKN7android2wpINS_8hardware20hidl_death_recipientEEE",
   "name" : "const android::wp<android::hardware::hidl_death_recipient> *",
   "referenced_type" : "_ZTIKN7android2wpINS_8hardware20hidl_death_recipientEEE",
   "self_type" : "_ZTIPKN7android2wpINS_8hardware20hidl_death_recipientEEE",
   "size" : 4,
   "source_file" : "/system/core/libutils/include/utils/RefBase.h"
  },
  {
   "alignment" : 4,
   "linker_set_key" : "_ZTIPKN7android2wpINS_8hardware9BHwBinderEEE",
   "name" : "const android::wp<android::hardware::BHwBinder> *",
   "referenced_type" : "_ZTIKN7android2wpINS_8hardware9BHwBinderEEE",
   "self_type" : "_ZTIPKN7android2wpINS_8hardware9BHwBinderEEE",
   "size" : 4,
   "source_file" : "/system/core/libutils/include/utils/RefBase.h"
  },
  {
   "alignment" : 4,
   "linker_set_key" : "_ZTIPKN7android4hidl4base4V1_05IBaseE",
   "name" : "const android::hidl::base::V1_0::IBase *",
   "referenced_type" : "_ZTIKN7android4hidl4base4V1_05IBaseE",
   "self_type" : "_ZTIPKN7android4hidl4base4V1_05IBaseE",
   "size" : 4,
   "source_file" : "/out/soong/.intermediates/system/libhidl/transport/base/1.0/android.hidl.base@1.0_genc++_headers/gen/android/hidl/base/1.0/IBase.h"
  },
  {
   "alignment" : 4,
   "linker_set_key" : "_ZTIPKN7android4hidl4base4V1_08BpHwBaseE",
   "name" : "const android::hidl::base::V1_0::BpHwBase *",
   "referenced_type" : "_ZTIKN7android4hidl4base4V1_08BpHwBaseE",
   "self_type" : "_ZTIPKN7android4hidl4base4V1_08BpHwBaseE",
   "size" : 4,
   "source_file" : "/out/soong/.intermediates/system/libhidl/transport/base/1.0/android.hidl.base@1.0_genc++_headers/gen/android/hidl/base/1.0/BpHwBase.h"
  },
  {
   "alignment" : 4,
   "linker_set_key" : "_ZTIPKN7android4hidl7manager4V1_015IServiceManagerE",
   "name" : "const android::hidl::manager::V1_0::IServiceManager *",
   "referenced_type" : "_ZTIKN7android4hidl7manager4V1_015IServiceManagerE",
   "self_type" : "_ZTIPKN7android4hidl7manager4V1_015IServiceManagerE",
   "size" : 4,
   "source_file" : "/out/soong/.intermediates/system/libhidl/transport/manager/1.0/android.hidl.manager@1.0_genc++_headers/gen/android/hidl/manager/1.0/IServiceManager.h"
  },
  {
   "alignment" : 4,
   "linker_set_key" : "_ZTIPKN7android4hidl7manager4V1_020IServiceNotificationE",
   "name" : "const android::hidl::manager::V1_0::IServiceNotification *",
   "referenced_type" : "_ZTIKN7android4hidl7manager4V1_020IServiceNotificationE",
   "self_type" : "_ZTIPKN7android4hidl7manager4V1_020IServiceNotificationE",
   "size" : 4,
   "source_file" : "/out/soong/.intermediates/system/libhidl/transport/manager/1.0/android.hidl.manager@1.0_genc++_headers/gen/android/hidl/manager/1.0/IServiceNotification.h"
  },
  {
   "alignment" : 4,
   "linker_set_key" : "_ZTIPKN7android7RefBaseE",
   "name" : "const android::RefBase *",
   "referenced_type" : "_ZTIKN7android7RefBaseE",
   "self_type" : "_ZTIPKN7android7RefBaseE",
   "size" : 4,
   "source_file" : "/system/core/libutils/include/utils/RefBase.h"
  },
  {
   "alignment" : 4,
   "linker_set_key" : "_ZTIPKN7android7String8E",
   "name" : "const android::String8 *",
   "referenced_type" : "_ZTIKN7android7String8E",
   "self_type" : "_ZTIPKN7android7String8E",
   "size" : 4,
   "source_file" : "/system/core/libutils/include/utils/String8.h"
  },
  {
   "alignment" : 4,
   "linker_set_key" : "_ZTIPKN7android8String16E",
   "name" : "const android::String16 *",
   "referenced_type" : "_ZTIKN7android8String16E",
   "self_type" : "_ZTIPKN7android8String16E",
   "size" : 4,
   "source_file" : "/system/core/libutils/include/utils/String16.h"
  },
  {
   "alignment" : 4,
   "linker_set_key" : "_ZTIPKN7android8hardware11BpHwRefBaseE",
   "name" : "const android::hardware::BpHwRefBase *",
   "referenced_type" : "_ZTIKN7android8hardware11BpHwRefBaseE",
   "self_type" : "_ZTIPKN7android8hardware11BpHwRefBaseE",
   "size" : 4,
   "source_file" : "/system/libhwbinder/include/hwbinder/Binder.h"
  },
  {
   "alignment" : 4,
   "linker_set_key" : "_ZTIPKN7android8hardware11hidl_memoryE",
   "name" : "const android::hardware::hidl_memory *",
   "referenced_type" : "_ZTIKN7android8hardware11hidl_memoryE",
   "self_type" : "_ZTIPKN7android8hardware11hidl_memoryE",
   "size" : 4,
   "source_file" : "/system/libhidl/base/include/hidl/HidlSupport.h"
  },
  {
   "alignment" : 4,
   "linker_set_key" : "_ZTIPKN7android8hardware12hidl_versionE",
   "name" : "const android::hardware::hidl_version *",
   "referenced_type" : "_ZTIKN7android8hardware12hidl_versionE",
   "self_type" : "_ZTIPKN7android8hardware12hidl_versionE",
   "size" : 4,
   "source_file" : "/system/libhidl/base/include/hidl/HidlSupport.h"
  },
  {
   "alignment" : 4,
   "linker_set_key" : "_ZTIPKN7android8hardware6ReturnINS_2spINS_10frameworks16schedulerservice4V1_024ISchedulingPolicyServiceEEEEE",
   "name" : "const android::hardware::Return<android::sp<android::frameworks::schedulerservice::V1_0::ISchedulingPolicyService> > *",
   "referenced_type" : "_ZTIKN7android8hardware6ReturnINS_2spINS_10frameworks16schedulerservice4V1_024ISchedulingPolicyServiceEEEEE",
   "self_type" : "_ZTIPKN7android8hardware6ReturnINS_2spINS_10frameworks16schedulerservice4V1_024ISchedulingPolicyServiceEEEEE",
   "size" : 4,
   "source_file" : "/system/libhidl/base/include/hidl/Status.h"
  },
  {
   "alignment" : 4,
   "linker_set_key" : "_ZTIPKN7android8hardware6ReturnIbEE",
   "name" : "const android::hardware::Return<bool> *",
   "referenced_type" : "_ZTIKN7android8hardware6ReturnIbEE",
   "self_type" : "_ZTIPKN7android8hardware6ReturnIbEE",
   "size" : 4,
   "source_file" : "/system/libhidl/base/include/hidl/Status.h"
  },
  {
   "alignment" : 4,
   "linker_set_key" : "_ZTIPKN7android8hardware6ReturnIiEE",
   "name" : "const android::hardware::Return<int> *",
   "referenced_type" : "_ZTIKN7android8hardware6ReturnIiEE",
   "self_type" : "_ZTIPKN7android8hardware6ReturnIiEE",
   "size" : 4,
   "source_file" : "/system/libhidl/base/include/hidl/Status.h"
  },
  {
   "alignment" : 4,
   "linker_set_key" : "_ZTIPKN7android8hardware6StatusE",
   "name" : "const android::hardware::Status *",
   "referenced_type" : "_ZTIKN7android8hardware6StatusE",
   "self_type" : "_ZTIPKN7android8hardware6StatusE",
   "size" : 4,
   "source_file" : "/system/libhidl/base/include/hidl/Status.h"
  },
  {
   "alignment" : 4,
   "linker_set_key" : "_ZTIPKN7android8hardware7details12hidl_pointerINS0_10hidl_arrayIhLj32EJEEEEE",
   "name" : "const android::hardware::details::hidl_pointer<android::hardware::hidl_array<unsigned char, 32> > *",
   "referenced_type" : "_ZTIKN7android8hardware7details12hidl_pointerINS0_10hidl_arrayIhLj32EJEEEEE",
   "self_type" : "_ZTIPKN7android8hardware7details12hidl_pointerINS0_10hidl_arrayIhLj32EJEEEEE",
   "size" : 4,
   "source_file" : "/system/libhidl/base/include/hidl/HidlInternal.h"
  },
  {
   "alignment" : 4,
   "linker_set_key" : "_ZTIPKN7android8hardware7details12hidl_pointerINS0_11hidl_stringEEE",
   "name" : "const android::hardware::details::hidl_pointer<android::hardware::hidl_string> *",
   "referenced_type" : "_ZTIKN7android8hardware7details12hidl_pointerINS0_11hidl_stringEEE",
   "self_type" : "_ZTIPKN7android8hardware7details12hidl_pointerINS0_11hidl_stringEEE",
   "size" : 4,
   "source_file" : "/system/libhidl/base/include/hidl/HidlInternal.h"
  },
  {
   "alignment" : 4,
   "linker_set_key" : "_ZTIPKN7android8hardware7details12hidl_pointerIiEE",
   "name" : "const android::hardware::details::hidl_pointer<int> *",
   "referenced_type" : "_ZTIKN7android8hardware7details12hidl_pointerIiEE",
   "self_type" : "_ZTIPKN7android8hardware7details12hidl_pointerIiEE",
   "size" : 4,
   "source_file" : "/system/libhidl/base/include/hidl/HidlInternal.h"
  },
  {
   "alignment" : 4,
   "linker_set_key" : "_ZTIPKN7android8hardware7details13return_statusE",
   "name" : "const android::hardware::details::return_status *",
   "referenced_type" : "_ZTIKN7android8hardware7details13return_statusE",
   "self_type" : "_ZTIPKN7android8hardware7details13return_statusE",
   "size" : 4,
   "source_file" : "/system/libhidl/base/include/hidl/Status.h"
  },
  {
   "alignment" : 4,
   "linker_set_key" : "_ZTIPKN7android8hardware8hidl_vecIiEE",
   "name" : "const android::hardware::hidl_vec<int> *",
   "referenced_type" : "_ZTIKN7android8hardware8hidl_vecIiEE",
   "self_type" : "_ZTIPKN7android8hardware8hidl_vecIiEE",
   "size" : 4,
   "source_file" : "/system/libhidl/base/include/hidl/HidlSupport.h"
  },
  {
   "alignment" : 4,
   "linker_set_key" : "_ZTIPKc",
   "name" : "const char *",
   "referenced_type" : "_ZTIKc",
   "self_type" : "_ZTIPKc",
   "size" : 4,
   "source_file" : "/system/core/liblog/include/android/log.h"
  },
  {
   "alignment" : 4,
   "linker_set_key" : "_ZTIPKh",
   "name" : "const unsigned char *",
   "referenced_type" : "_ZTIKh",
   "self_type" : "_ZTIPKh",
   "size" : 4,
   "source_file" : "/system/libhidl/base/include/hidl/HidlSupport.h"
  },
  {
   "alignment" : 4,
   "linker_set_key" : "_ZTIPKv",
   "name" : "const void *",
   "referenced_type" : "_ZTIKv",
   "self_type" : "_ZTIPKv",
   "size" : 4,
   "source_file" : "/system/core/libutils/include/utils/StrongPointer.h"
  },
  {
   "alignment" : 4,
   "linker_set_key" : "_ZTIPKy",
   "name" : "const unsigned long long *",
   "referenced_type" : "_ZTIKy",
   "self_type" : "_ZTIPKy",
   "size" : 4,
   "source_file" : "/system/libhwbinder/include/hwbinder/Parcel.h"
  },
  {
   "alignment" : 4,
   "linker_set_key" : "_ZTIPN7android10frameworks16schedulerservice4V1_024ISchedulingPolicyServiceE",
   "name" : "android::frameworks::schedulerservice::V1_0::ISchedulingPolicyService *",
   "referenced_type" : "_ZTIN7android10frameworks16schedulerservice4V1_024ISchedulingPolicyServiceE",
   "self_type" : "_ZTIPN7android10frameworks16schedulerservice4V1_024ISchedulingPolicyServiceE",
   "size" : 4,
   "source_file" : "/system/core/libutils/include/utils/StrongPointer.h"
  },
  {
   "alignment" : 4,
   "linker_set_key" : "_ZTIPN7android10frameworks16schedulerservice4V1_025BsSchedulingPolicyServiceE",
   "name" : "android::frameworks::schedulerservice::V1_0::BsSchedulingPolicyService *",
   "referenced_type" : "_ZTIN7android10frameworks16schedulerservice4V1_025BsSchedulingPolicyServiceE",
   "self_type" : "_ZTIPN7android10frameworks16schedulerservice4V1_025BsSchedulingPolicyServiceE",
   "size" : 4,
   "source_file" : "/system/core/libutils/include/utils/StrongPointer.h"
  },
  {
   "alignment" : 4,
   "linker_set_key" : "_ZTIPN7android10frameworks16schedulerservice4V1_027BnHwSchedulingPolicyServiceE",
   "name" : "android::frameworks::schedulerservice::V1_0::BnHwSchedulingPolicyService *",
   "referenced_type" : "_ZTIN7android10frameworks16schedulerservice4V1_027BnHwSchedulingPolicyServiceE",
   "self_type" : "_ZTIPN7android10frameworks16schedulerservice4V1_027BnHwSchedulingPolicyServiceE",
   "size" : 4,
   "source_file" : "/system/core/libutils/include/utils/RefBase.h"
  },
  {
   "alignment" : 4,
   "linker_set_key" : "_ZTIPN7android10frameworks16schedulerservice4V1_027BpHwSchedulingPolicyServiceE",
   "name" : "android::frameworks::schedulerservice::V1_0::BpHwSchedulingPolicyService *",
   "referenced_type" : "_ZTIN7android10frameworks16schedulerservice4V1_027BpHwSchedulingPolicyServiceE",
   "self_type" : "_ZTIPN7android10frameworks16schedulerservice4V1_027BpHwSchedulingPolicyServiceE",
   "size" : 4,
   "source_file" : "/system/core/libutils/include/utils/StrongPointer.h"
  },
  {
   "alignment" : 4,
   "linker_set_key" : "_ZTIPN7android11ScopedTraceE",
   "name" : "android::ScopedTrace *",
   "referenced_type" : "_ZTIN7android11ScopedTraceE",
   "self_type" : "_ZTIPN7android11ScopedTraceE",
   "size" : 4,
   "source_file" : "/system/core/libutils/include/utils/Trace.h"
  },
  {
   "alignment" : 4,
   "linker_set_key" : "_ZTIPN7android16ReferenceRenamerE",
   "name" : "android::ReferenceRenamer *",
   "referenced_type" : "_ZTIN7android16ReferenceRenamerE",
   "self_type" : "_ZTIPN7android16ReferenceRenamerE",
   "size" : 4,
   "source_file" : "/system/core/libutils/include/utils/RefBase.h"
  },
  {
   "alignment" : 4,
   "linker_set_key" : "_ZTIPN7android19VirtualLightRefBaseE",
   "name" : "android::VirtualLightRefBase *",
   "referenced_type" : "_ZTIN7android19VirtualLightRefBaseE",
   "self_type" : "_ZTIPN7android19VirtualLightRefBaseE",
   "size" : 4,
   "source_file" : "/system/core/libutils/include/utils/LightRefBase.h"
  },
  {
   "alignment" : 4,
   "linker_set_key" : "_ZTIPN7android2spINS_10frameworks16schedulerservice4V1_024ISchedulingPolicyServiceEEE",
   "name" : "android::sp<android::frameworks::schedulerservice::V1_0::ISchedulingPolicyService> *",
   "referenced_type" : "_ZTIN7android2spINS_10frameworks16schedulerservice4V1_024ISchedulingPolicyServiceEEE",
   "self_type" : "_ZTIPN7android2spINS_10frameworks16schedulerservice4V1_024ISchedulingPolicyServiceEEE",
   "size" : 4,
   "source_file" : "/system/core/libutils/include/utils/StrongPointer.h"
  },
  {
   "alignment" : 4,
   "linker_set_key" : "_ZTIPN7android2spINS_4hidl4base4V1_05IBaseEEE",
   "name" : "android::sp<android::hidl::base::V1_0::IBase> *",
   "referenced_type" : "_ZTIN7android2spINS_4hidl4base4V1_05IBaseEEE",
   "self_type" : "_ZTIPN7android2spINS_4hidl4base4V1_05IBaseEEE",
   "size" : 4,
   "source_file" : "/system/core/libutils/include/utils/StrongPointer.h"
  },
  {
   "alignment" : 4,
   "linker_set_key" : "_ZTIPN7android2spINS_4hidl7manager4V1_015IServiceManagerEEE",
   "name" : "android::sp<android::hidl::manager::V1_0::IServiceManager> *",
   "referenced_type" : "_ZTIN7android2spINS_4hidl7manager4V1_015IServiceManagerEEE",
   "self_type" : "_ZTIPN7android2spINS_4hidl7manager4V1_015IServiceManagerEEE",
   "size" : 4,
   "source_file" : "/system/core/libutils/include/utils/StrongPointer.h"
  },
  {
   "alignment" : 4,
   "linker_set_key" : "_ZTIPN7android2spINS_4hidl7manager4V1_020IServiceNotificationEEE",
   "name" : "android::sp<android::hidl::manager::V1_0::IServiceNotification> *",
   "referenced_type" : "_ZTIN7android2spINS_4hidl7manager4V1_020IServiceNotificationEEE",
   "self_type" : "_ZTIPN7android2spINS_4hidl7manager4V1_020IServiceNotificationEEE",
   "size" : 4,
   "source_file" : "/system/core/libutils/include/utils/StrongPointer.h"
  },
  {
   "alignment" : 4,
   "linker_set_key" : "_ZTIPN7android2spINS_8hardware12ProcessStateEEE",
   "name" : "android::sp<android::hardware::ProcessState> *",
   "referenced_type" : "_ZTIN7android2spINS_8hardware12ProcessStateEEE",
   "self_type" : "_ZTIPN7android2spINS_8hardware12ProcessStateEEE",
   "size" : 4,
   "source_file" : "/system/core/libutils/include/utils/StrongPointer.h"
  },
  {
   "alignment" : 4,
   "linker_set_key" : "_ZTIPN7android2spINS_8hardware27hidl_binder_death_recipientEEE",
   "name" : "android::sp<android::hardware::hidl_binder_death_recipient> *",
   "referenced_type" : "_ZTIN7android2spINS_8hardware27hidl_binder_death_recipientEEE",
   "self_type" : "_ZTIPN7android2spINS_8hardware27hidl_binder_death_recipientEEE",
   "size" : 4,
   "source_file" : "/system/core/libutils/include/utils/StrongPointer.h"
  },
  {
   "alignment" : 4,
   "linker_set_key" : "_ZTIPN7android2spINS_8hardware7IBinder14DeathRecipientEEE",
   "name" : "android::sp<android::hardware::IBinder::DeathRecipient> *",
   "referenced_type" : "_ZTIN7android2spINS_8hardware7IBinder14DeathRecipientEEE",
   "self_type" : "_ZTIPN7android2spINS_8hardware7IBinder14DeathRecipientEEE",
   "size" : 4,
   "source_file" : "/system/core/libutils/include/utils/StrongPointer.h"
  },
  {
   "alignment" : 4,
   "linker_set_key" : "_ZTIPN7android2spINS_8hardware7IBinderEEE",
   "name" : "android::sp<android::hardware::IBinder> *",
   "referenced_type" : "_ZTIN7android2spINS_8hardware7IBinderEEE",
   "self_type" : "_ZTIPN7android2spINS_8hardware7IBinderEEE",
   "size" : 4,
   "source_file" : "/system/core/libutils/include/utils/StrongPointer.h"
  },
  {
   "alignment" : 4,
   "linker_set_key" : "_ZTIPN7android2wpINS_8hardware20hidl_death_recipientEEE",
   "name" : "android::wp<android::hardware::hidl_death_recipient> *",
   "referenced_type" : "_ZTIN7android2wpINS_8hardware20hidl_death_recipientEEE",
   "self_type" : "_ZTIPN7android2wpINS_8hardware20hidl_death_recipientEEE",
   "size" : 4,
   "source_file" : "/system/core/libutils/include/utils/RefBase.h"
  },
  {
   "alignment" : 4,
   "linker_set_key" : "_ZTIPN7android2wpINS_8hardware7IBinder14DeathRecipientEEE",
   "name" : "android::wp<android::hardware::IBinder::DeathRecipient> *",
   "referenced_type" : "_ZTIN7android2wpINS_8hardware7IBinder14DeathRecipientEEE",
   "self_type" : "_ZTIPN7android2wpINS_8hardware7IBinder14DeathRecipientEEE",
   "size" : 4,
   "source_file" : "/system/core/libutils/include/utils/RefBase.h"
  },
  {
   "alignment" : 4,
   "linker_set_key" : "_ZTIPN7android2wpINS_8hardware9BHwBinderEEE",
   "name" : "android::wp<android::hardware::BHwBinder> *",
   "referenced_type" : "_ZTIN7android2wpINS_8hardware9BHwBinderEEE",
   "self_type" : "_ZTIPN7android2wpINS_8hardware9BHwBinderEEE",
   "size" : 4,
   "source_file" : "/system/core/libutils/include/utils/RefBase.h"
  },
  {
   "alignment" : 4,
   "linker_set_key" : "_ZTIPN7android4hidl4base4V1_05IBaseE",
   "name" : "android::hidl::base::V1_0::IBase *",
   "referenced_type" : "_ZTIN7android4hidl4base4V1_05IBaseE",
   "self_type" : "_ZTIPN7android4hidl4base4V1_05IBaseE",
   "size" : 4,
   "source_file" : "/system/core/libutils/include/utils/RefBase.h"
  },
  {
   "alignment" : 4,
   "linker_set_key" : "_ZTIPN7android4hidl4base4V1_08BnHwBaseE",
   "name" : "android::hidl::base::V1_0::BnHwBase *",
   "referenced_type" : "_ZTIN7android4hidl4base4V1_08BnHwBaseE",
   "self_type" : "_ZTIPN7android4hidl4base4V1_08BnHwBaseE",
   "size" : 4,
   "source_file" : "/out/soong/.intermediates/system/libhidl/transport/base/1.0/android.hidl.base@1.0_genc++_headers/gen/android/hidl/base/1.0/BnHwBase.h"
  },
  {
   "alignment" : 4,
   "linker_set_key" : "_ZTIPN7android4hidl7manager4V1_015IServiceManagerE",
   "name" : "android::hidl::manager::V1_0::IServiceManager *",
   "referenced_type" : "_ZTIN7android4hidl7manager4V1_015IServiceManagerE",
   "self_type" : "_ZTIPN7android4hidl7manager4V1_015IServiceManagerE",
   "size" : 4,
   "source_file" : "/system/core/libutils/include/utils/StrongPointer.h"
  },
  {
   "alignment" : 4,
   "linker_set_key" : "_ZTIPN7android4hidl7manager4V1_020IServiceNotificationE",
   "name" : "android::hidl::manager::V1_0::IServiceNotification *",
   "referenced_type" : "_ZTIN7android4hidl7manager4V1_020IServiceNotificationE",
   "self_type" : "_ZTIPN7android4hidl7manager4V1_020IServiceNotificationE",
   "size" : 4,
   "source_file" : "/system/core/libutils/include/utils/StrongPointer.h"
  },
  {
   "alignment" : 4,
   "linker_set_key" : "_ZTIPN7android5Mutex8AutolockE",
   "name" : "android::Mutex::Autolock *",
   "referenced_type" : "_ZTIN7android5Mutex8AutolockE",
   "self_type" : "_ZTIPN7android5Mutex8AutolockE",
   "size" : 4,
   "source_file" : "/system/core/libutils/include/utils/Mutex.h"
  },
  {
   "alignment" : 4,
   "linker_set_key" : "_ZTIPN7android5MutexE",
   "name" : "android::Mutex *",
   "referenced_type" : "_ZTIN7android5MutexE",
   "self_type" : "_ZTIPN7android5MutexE",
   "size" : 4,
   "source_file" : "/system/core/libutils/include/utils/Mutex.h"
  },
  {
   "alignment" : 4,
   "linker_set_key" : "_ZTIPN7android6RWLock9AutoRLockE",
   "name" : "android::RWLock::AutoRLock *",
   "referenced_type" : "_ZTIN7android6RWLock9AutoRLockE",
   "self_type" : "_ZTIPN7android6RWLock9AutoRLockE",
   "size" : 4,
   "source_file" : "/system/core/libutils/include/utils/RWLock.h"
  },
  {
   "alignment" : 4,
   "linker_set_key" : "_ZTIPN7android6RWLock9AutoWLockE",
   "name" : "android::RWLock::AutoWLock *",
   "referenced_type" : "_ZTIN7android6RWLock9AutoWLockE",
   "self_type" : "_ZTIPN7android6RWLock9AutoWLockE",
   "size" : 4,
   "source_file" : "/system/core/libutils/include/utils/RWLock.h"
  },
  {
   "alignment" : 4,
   "linker_set_key" : "_ZTIPN7android6RWLockE",
   "name" : "android::RWLock *",
   "referenced_type" : "_ZTIN7android6RWLockE",
   "self_type" : "_ZTIPN7android6RWLockE",
   "size" : 4,
   "source_file" : "/system/core/libutils/include/utils/RWLock.h"
  },
  {
   "alignment" : 4,
   "linker_set_key" : "_ZTIPN7android6ThreadE",
   "name" : "android::Thread *",
   "referenced_type" : "_ZTIN7android6ThreadE",
   "self_type" : "_ZTIPN7android6ThreadE",
   "size" : 4,
   "source_file" : "/system/core/libutils/include/utils/StrongPointer.h"
  },
  {
   "alignment" : 4,
   "linker_set_key" : "_ZTIPN7android7RefBase12weakref_implE",
   "name" : "android::RefBase::weakref_impl *",
   "referenced_type" : "_ZTIN7android7RefBase12weakref_implE",
   "self_type" : "_ZTIPN7android7RefBase12weakref_implE",
   "size" : 4,
   "source_file" : "/system/core/libutils/include/utils/RefBase.h"
  },
  {
   "alignment" : 4,
   "linker_set_key" : "_ZTIPN7android7RefBase12weakref_typeE",
   "name" : "android::RefBase::weakref_type *",
   "referenced_type" : "_ZTIN7android7RefBase12weakref_typeE",
   "self_type" : "_ZTIPN7android7RefBase12weakref_typeE",
   "size" : 4,
   "source_file" : "/system/core/libutils/include/utils/RefBase.h"
  },
  {
   "alignment" : 4,
   "linker_set_key" : "_ZTIPN7android7RefBaseE",
   "name" : "android::RefBase *",
   "referenced_type" : "_ZTIN7android7RefBaseE",
   "self_type" : "_ZTIPN7android7RefBaseE",
   "size" : 4,
   "source_file" : "/system/core/libutils/include/utils/RefBase.h"
  },
  {
   "alignment" : 4,
   "linker_set_key" : "_ZTIPN7android7String8E",
   "name" : "android::String8 *",
   "referenced_type" : "_ZTIN7android7String8E",
   "self_type" : "_ZTIPN7android7String8E",
   "size" : 4,
   "source_file" : "/system/core/libutils/include/utils/String8.h"
  },
  {
   "alignment" : 4,
   "linker_set_key" : "_ZTIPN7android8String16E",
   "name" : "android::String16 *",
   "referenced_type" : "_ZTIN7android8String16E",
   "self_type" : "_ZTIPN7android8String16E",
   "size" : 4,
   "source_file" : "/system/core/libutils/include/utils/String16.h"
  },
  {
   "alignment" : 4,
   "linker_set_key" : "_ZTIPN7android8hardware10IInterfaceE",
   "name" : "android::hardware::IInterface *",
   "referenced_type" : "_ZTIN7android8hardware10IInterfaceE",
   "self_type" : "_ZTIPN7android8hardware10IInterfaceE",
   "size" : 4,
   "source_file" : "/system/core/libutils/include/utils/StrongPointer.h"
  },
  {
   "alignment" : 4,
   "linker_set_key" : "_ZTIPN7android8hardware10hidl_arrayIhLj32EJEEE",
   "name" : "android::hardware::hidl_array<unsigned char, 32> *",
   "referenced_type" : "_ZTIN7android8hardware10hidl_arrayIhLj32EJEEE",
   "self_type" : "_ZTIPN7android8hardware10hidl_arrayIhLj32EJEEE",
   "size" : 4,
   "source_file" : "/system/libhidl/base/include/hidl/HidlInternal.h"
  },
  {
   "alignment" : 4,
   "linker_set_key" : "_ZTIPN7android8hardware11BpInterfaceINS_10frameworks16schedulerservice4V1_024ISchedulingPolicyServiceEEE",
   "name" : "android::hardware::BpInterface<android::frameworks::schedulerservice::V1_0::ISchedulingPolicyService> *",
   "referenced_type" : "_ZTIN7android8hardware11BpInterfaceINS_10frameworks16schedulerservice4V1_024ISchedulingPolicyServiceEEE",
   "self_type" : "_ZTIPN7android8hardware11BpInterfaceINS_10frameworks16schedulerservice4V1_024ISchedulingPolicyServiceEEE",
   "size" : 4,
   "source_file" : "/system/libhwbinder/include/hwbinder/IInterface.h"
  },
  {
   "alignment" : 4,
   "linker_set_key" : "_ZTIPN7android8hardware11hidl_memoryE",
   "name" : "android::hardware::hidl_memory *",
   "referenced_type" : "_ZTIN7android8hardware11hidl_memoryE",
   "self_type" : "_ZTIPN7android8hardware11hidl_memoryE",
   "size" : 4,
   "source_file" : "/system/libhidl/base/include/hidl/HidlSupport.h"
  },
  {
   "alignment" : 4,
   "linker_set_key" : "_ZTIPN7android8hardware11hidl_stringE",
   "name" : "android::hardware::hidl_string *",
   "referenced_type" : "_ZTIN7android8hardware11hidl_stringE",
   "self_type" : "_ZTIPN7android8hardware11hidl_stringE",
   "size" : 4,
   "source_file" : "/system/libhidl/base/include/hidl/HidlInternal.h"
  },
  {
   "alignment" : 4,
   "linker_set_key" : "_ZTIPN7android8hardware12ProcessStateE",
   "name" : "android::hardware::ProcessState *",
   "referenced_type" : "_ZTIN7android8hardware12ProcessStateE",
   "self_type" : "_ZTIPN7android8hardware12ProcessStateE",
   "size" : 4,
   "source_file" : "/system/core/libutils/include/utils/StrongPointer.h"
  },
  {
   "alignment" : 4,
   "linker_set_key" : "_ZTIPN7android8hardware12hidl_versionE",
   "name" : "android::hardware::hidl_version *",
   "referenced_type" : "_ZTIN7android8hardware12hidl_versionE",
   "self_type" : "_ZTIPN7android8hardware12hidl_versionE",
   "size" : 4,
   "source_file" : "/system/libhidl/base/include/hidl/HidlSupport.h"
  },
  {
   "alignment" : 4,
   "linker_set_key" : "_ZTIPN7android8hardware13ConcurrentMapINSt3__112basic_stringIcNS2_11char_traitsIcEENS2_9allocatorIcEEEENS2_8functionIFNS_2spINS0_7IBinderEEEPvEEEEE",
   "name" : "android::hardware::ConcurrentMap<std::basic_string<char, std::char_traits<char>, std::allocator<char> >, std::function<sp<IBinder> (void *)> > *",
   "referenced_type" : "_ZTIN7android8hardware13ConcurrentMapINSt3__112basic_stringIcNS2_11char_traitsIcEENS2_9allocatorIcEEEENS2_8functionIFNS_2spINS0_7IBinderEEEPvEEEEE",
   "self_type" : "_ZTIPN7android8hardware13ConcurrentMapINSt3__112basic_stringIcNS2_11char_traitsIcEENS2_9allocatorIcEEEENS2_8functionIFNS_2spINS0_7IBinderEEEPvEEEEE",
   "size" : 4,
   "source_file" : "/system/libhidl/transport/include/hidl/ConcurrentMap.h"
  },
  {
   "alignment" : 4,
   "linker_set_key" : "_ZTIPN7android8hardware13ConcurrentMapINSt3__112basic_stringIcNS2_11char_traitsIcEENS2_9allocatorIcEEEENS2_8functionIFNS_2spINS_4hidl4base4V1_05IBaseEEEPvEEEEE",
   "name" : "android::hardware::ConcurrentMap<std::basic_string<char, std::char_traits<char>, std::allocator<char> >, std::function<sp<IBase> (void *)> > *",
   "referenced_type" : "_ZTIN7android8hardware13ConcurrentMapINSt3__112basic_stringIcNS2_11char_traitsIcEENS2_9allocatorIcEEEENS2_8functionIFNS_2spINS_4hidl4base4V1_05IBaseEEEPvEEEEE",
   "self_type" : "_ZTIPN7android8hardware13ConcurrentMapINSt3__112basic_stringIcNS2_11char_traitsIcEENS2_9allocatorIcEEEENS2_8functionIFNS_2spINS_4hidl4base4V1_05IBaseEEEPvEEEEE",
   "size" : 4,
   "source_file" : "/system/libhidl/transport/include/hidl/ConcurrentMap.h"
  },
  {
   "alignment" : 4,
   "linker_set_key" : "_ZTIPN7android8hardware13ConcurrentMapIPKNS_4hidl4base4V1_05IBaseENS_2wpINS0_9BHwBinderEEEEE",
   "name" : "android::hardware::ConcurrentMap<const android::hidl::base::V1_0::IBase *, android::wp<android::hardware::BHwBinder> > *",
   "referenced_type" : "_ZTIN7android8hardware13ConcurrentMapIPKNS_4hidl4base4V1_05IBaseENS_2wpINS0_9BHwBinderEEEEE",
   "self_type" : "_ZTIPN7android8hardware13ConcurrentMapIPKNS_4hidl4base4V1_05IBaseENS_2wpINS0_9BHwBinderEEEEE",
   "size" : 4,
   "source_file" : "/system/libhidl/transport/include/hidl/ConcurrentMap.h"
  },
  {
   "alignment" : 4,
   "linker_set_key" : "_ZTIPN7android8hardware17GrantorDescriptorE",
   "name" : "android::hardware::GrantorDescriptor *",
   "referenced_type" : "_ZTIN7android8hardware17GrantorDescriptorE",
   "self_type" : "_ZTIPN7android8hardware17GrantorDescriptorE",
   "size" : 4,
   "source_file" : "/system/libhidl/base/include/hidl/HidlInternal.h"
  },
  {
   "alignment" : 4,
   "linker_set_key" : "_ZTIPN7android8hardware20hidl_death_recipientE",
   "name" : "android::hardware::hidl_death_recipient *",
   "referenced_type" : "_ZTIN7android8hardware20hidl_death_recipientE",
   "self_type" : "_ZTIPN7android8hardware20hidl_death_recipientE",
   "size" : 4,
   "source_file" : "/system/core/libutils/include/utils/RefBase.h"
  },
  {
   "alignment" : 4,
   "linker_set_key" : "_ZTIPN7android8hardware27hidl_binder_death_recipientE",
   "name" : "android::hardware::hidl_binder_death_recipient *",
   "referenced_type" : "_ZTIN7android8hardware27hidl_binder_death_recipientE",
   "self_type" : "_ZTIPN7android8hardware27hidl_binder_death_recipientE",
   "size" : 4,
   "source_file" : "/system/core/libutils/include/utils/StrongPointer.h"
  },
  {
   "alignment" : 4,
   "linker_set_key" : "_ZTIPN7android8hardware6ParcelE",
   "name" : "android::hardware::Parcel *",
   "referenced_type" : "_ZTIN7android8hardware6ParcelE",
   "self_type" : "_ZTIPN7android8hardware6ParcelE",
   "size" : 4,
   "source_file" : "/system/libhwbinder/include/hwbinder/Parcel.h"
  },
  {
   "alignment" : 4,
   "linker_set_key" : "_ZTIPN7android8hardware6ReturnINS_2spINS_10frameworks16schedulerservice4V1_024ISchedulingPolicyServiceEEEEE",
   "name" : "android::hardware::Return<android::sp<android::frameworks::schedulerservice::V1_0::ISchedulingPolicyService> > *",
   "referenced_type" : "_ZTIN7android8hardware6ReturnINS_2spINS_10frameworks16schedulerservice4V1_024ISchedulingPolicyServiceEEEEE",
   "self_type" : "_ZTIPN7android8hardware6ReturnINS_2spINS_10frameworks16schedulerservice4V1_024ISchedulingPolicyServiceEEEEE",
   "size" : 4,
   "source_file" : "/system/libhidl/base/include/hidl/Status.h"
  },
  {
   "alignment" : 4,
   "linker_set_key" : "_ZTIPN7android8hardware6ReturnIbEE",
   "name" : "android::hardware::Return<bool> *",
   "referenced_type" : "_ZTIN7android8hardware6ReturnIbEE",
   "self_type" : "_ZTIPN7android8hardware6ReturnIbEE",
   "size" : 4,
   "source_file" : "/system/libhidl/base/include/hidl/Status.h"
  },
  {
   "alignment" : 4,
   "linker_set_key" : "_ZTIPN7android8hardware6ReturnIiEE",
   "name" : "android::hardware::Return<int> *",
   "referenced_type" : "_ZTIN7android8hardware6ReturnIiEE",
   "self_type" : "_ZTIPN7android8hardware6ReturnIiEE",
   "size" : 4,
   "source_file" : "/system/libhidl/base/include/hidl/Status.h"
  },
  {
   "alignment" : 4,
   "linker_set_key" : "_ZTIPN7android8hardware6ReturnIvEE",
   "name" : "android::hardware::Return<void> *",
   "referenced_type" : "_ZTIN7android8hardware6ReturnIvEE",
   "self_type" : "_ZTIPN7android8hardware6ReturnIvEE",
   "size" : 4,
   "source_file" : "/system/libhidl/base/include/hidl/Status.h"
  },
  {
   "alignment" : 4,
   "linker_set_key" : "_ZTIPN7android8hardware6StatusE",
   "name" : "android::hardware::Status *",
   "referenced_type" : "_ZTIN7android8hardware6StatusE",
   "self_type" : "_ZTIPN7android8hardware6StatusE",
   "size" : 4,
   "source_file" : "/system/libhidl/base/include/hidl/Status.h"
  },
  {
   "alignment" : 4,
   "linker_set_key" : "_ZTIPN7android8hardware7IBinder14DeathRecipientE",
   "name" : "android::hardware::IBinder::DeathRecipient *",
   "referenced_type" : "_ZTIN7android8hardware7IBinder14DeathRecipientE",
   "self_type" : "_ZTIPN7android8hardware7IBinder14DeathRecipientE",
   "size" : 4,
   "source_file" : "/system/core/libutils/include/utils/RefBase.h"
  },
  {
   "alignment" : 4,
   "linker_set_key" : "_ZTIPN7android8hardware7IBinderE",
   "name" : "android::hardware::IBinder *",
   "referenced_type" : "_ZTIN7android8hardware7IBinderE",
   "self_type" : "_ZTIPN7android8hardware7IBinderE",
   "size" : 4,
   "source_file" : "/system/core/libutils/include/utils/StrongPointer.h"
  },
  {
   "alignment" : 4,
   "linker_set_key" : "_ZTIPN7android8hardware7details12hidl_pointerINS0_10hidl_arrayIhLj32EJEEEEE",
   "name" : "android::hardware::details::hidl_pointer<android::hardware::hidl_array<unsigned char, 32> > *",
   "referenced_type" : "_ZTIN7android8hardware7details12hidl_pointerINS0_10hidl_arrayIhLj32EJEEEEE",
   "self_type" : "_ZTIPN7android8hardware7details12hidl_pointerINS0_10hidl_arrayIhLj32EJEEEEE",
   "size" : 4,
   "source_file" : "/system/libhidl/base/include/hidl/HidlInternal.h"
  },
  {
   "alignment" : 4,
   "linker_set_key" : "_ZTIPN7android8hardware7details12hidl_pointerINS0_11hidl_stringEEE",
   "name" : "android::hardware::details::hidl_pointer<android::hardware::hidl_string> *",
   "referenced_type" : "_ZTIN7android8hardware7details12hidl_pointerINS0_11hidl_stringEEE",
   "self_type" : "_ZTIPN7android8hardware7details12hidl_pointerINS0_11hidl_stringEEE",
   "size" : 4,
   "source_file" : "/system/libhidl/base/include/hidl/HidlInternal.h"
  },
  {
   "alignment" : 4,
   "linker_set_key" : "_ZTIPN7android8hardware7details13DoNotDestructINS0_13ConcurrentMapIPKNS_4hidl4base4V1_05IBaseENS_2wpINS0_9BHwBinderEEEEEEE",
   "name" : "android::hardware::details::DoNotDestruct<android::hardware::ConcurrentMap<const android::hidl::base::V1_0::IBase *, android::wp<android::hardware::BHwBinder> > > *",
   "referenced_type" : "_ZTIN7android8hardware7details13DoNotDestructINS0_13ConcurrentMapIPKNS_4hidl4base4V1_05IBaseENS_2wpINS0_9BHwBinderEEEEEEE",
   "self_type" : "_ZTIPN7android8hardware7details13DoNotDestructINS0_13ConcurrentMapIPKNS_4hidl4base4V1_05IBaseENS_2wpINS0_9BHwBinderEEEEEEE",
   "size" : 4,
   "source_file" : "/system/libhidl/transport/include/hidl/ConcurrentMap.h"
  },
  {
   "alignment" : 4,
   "linker_set_key" : "_ZTIPN7android8hardware7details13return_statusE",
   "name" : "android::hardware::details::return_status *",
   "referenced_type" : "_ZTIN7android8hardware7details13return_statusE",
   "self_type" : "_ZTIPN7android8hardware7details13return_statusE",
   "size" : 4,
   "source_file" : "/system/libhidl/base/include/hidl/Status.h"
  },
  {
   "alignment" : 4,
   "linker_set_key" : "_ZTIPN7android8hardware7details16HidlInstrumentorE",
   "name" : "android::hardware::details::HidlInstrumentor *",
   "referenced_type" : "_ZTIN7android8hardware7details16HidlInstrumentorE",
   "self_type" : "_ZTIPN7android8hardware7details16HidlInstrumentorE",
   "size" : 4,
   "source_file" : "/system/libhidl/base/include/hidl/HidlInternal.h"
  },
  {
   "alignment" : 4,
   "linker_set_key" : "_ZTIPN7android8hardware8hidl_vecINS0_10hidl_arrayIhLj32EJEEEEE",
   "name" : "android::hardware::hidl_vec<android::hardware::hidl_array<unsigned char, 32> > *",
   "referenced_type" : "_ZTIN7android8hardware8hidl_vecINS0_10hidl_arrayIhLj32EJEEEEE",
   "self_type" : "_ZTIPN7android8hardware8hidl_vecINS0_10hidl_arrayIhLj32EJEEEEE",
   "size" : 4,
   "source_file" : "/system/libhidl/base/include/hidl/HidlSupport.h"
  },
  {
   "alignment" : 4,
   "linker_set_key" : "_ZTIPN7android8hardware8hidl_vecINS0_11hidl_stringEEE",
   "name" : "android::hardware::hidl_vec<android::hardware::hidl_string> *",
   "referenced_type" : "_ZTIN7android8hardware8hidl_vecINS0_11hidl_stringEEE",
   "self_type" : "_ZTIPN7android8hardware8hidl_vecINS0_11hidl_stringEEE",
   "size" : 4,
   "source_file" : "/system/libhidl/base/include/hidl/HidlSupport.h"
  },
  {
   "alignment" : 4,
   "linker_set_key" : "_ZTIPN7android8hardware9BHwBinderE",
   "name" : "android::hardware::BHwBinder *",
   "referenced_type" : "_ZTIN7android8hardware9BHwBinderE",
   "self_type" : "_ZTIPN7android8hardware9BHwBinderE",
   "size" : 4,
   "source_file" : "/system/core/libutils/include/utils/RefBase.h"
  },
  {
   "alignment" : 4,
   "linker_set_key" : "_ZTIPN7android9ConditionE",
   "name" : "android::Condition *",
   "referenced_type" : "_ZTIN7android9ConditionE",
   "self_type" : "_ZTIPN7android9ConditionE",
   "size" : 4,
   "source_file" : "/system/core/libutils/include/utils/Condition.h"
  },
  {
   "alignment" : 4,
   "linker_set_key" : "_ZTIPPv",
   "name" : "void **",
   "referenced_type" : "_ZTIPv",
   "self_type" : "_ZTIPPv",
   "size" : 4,
   "source_file" : "/system/core/libutils/include/utils/AndroidThreads.h"
  },
  {
   "alignment" : 4,
   "linker_set_key" : "_ZTIPc",
   "name" : "char *",
   "referenced_type" : "_ZTIc",
   "self_type" : "_ZTIPc",
   "size" : 4,
   "source_file" : "/system/core/liblog/include/log/log_read.h"
  },
  {
   "alignment" : 4,
   "linker_set_key" : "_ZTIPh",
   "name" : "unsigned char *",
   "referenced_type" : "_ZTIh",
   "self_type" : "_ZTIPh",
   "size" : 4,
   "source_file" : "/system/libhwbinder/include/hwbinder/Parcel.h"
  },
  {
   "alignment" : 4,
   "linker_set_key" : "_ZTIPi",
   "name" : "int *",
   "referenced_type" : "_ZTIi",
   "self_type" : "_ZTIPi",
   "size" : 4,
   "source_file" : "/system/libhidl/base/include/hidl/HidlInternal.h"
  },
  {
   "alignment" : 4,
   "linker_set_key" : "_ZTIPv",
   "name" : "void *",
   "referenced_type" : "_ZTIv",
   "self_type" : "_ZTIPv",
   "size" : 4,
   "source_file" : "/system/libhwbinder/include/hwbinder/Binder.h"
  },
  {
   "alignment" : 4,
   "linker_set_key" : "_ZTIPy",
   "name" : "unsigned long long *",
   "referenced_type" : "_ZTIy",
   "self_type" : "_ZTIPy",
   "size" : 4,
   "source_file" : "/system/libhwbinder/include/hwbinder/Parcel.h"
  }
 ],
 "qualified_types" :
 [
  {
   "alignment" : 4,
   "is_const" : true,
   "linker_set_key" : "_ZTIK13native_handle",
   "name" : "const native_handle",
   "referenced_type" : "_ZTI13native_handle",
   "self_type" : "_ZTIK13native_handle",
   "size" : 12,
   "source_file" : "/system/libhidl/base/include/hidl/HidlInternal.h"
  },
  {
   "alignment" : 4,
   "is_const" : true,
   "linker_set_key" : "_ZTIK7log_msg",
   "name" : "const log_msg",
   "referenced_type" : "_ZTI7log_msg",
   "self_type" : "_ZTIK7log_msg",
   "size" : 5124,
   "source_file" : "/system/core/liblog/include/log/log_read.h"
  },
  {
   "alignment" : 2,
   "is_const" : true,
   "linker_set_key" : "_ZTIKDs",
   "name" : "const char16_t",
   "referenced_type" : "_ZTIDs",
   "self_type" : "_ZTIKDs",
   "size" : 2,
   "source_file" : "/system/core/libutils/include/utils/String16.h"
  },
  {
   "alignment" : 4,
   "is_const" : true,
   "linker_set_key" : "_ZTIKN7android10VectorImplE",
   "name" : "const android::VectorImpl",
   "referenced_type" : "_ZTIN7android10VectorImplE",
   "self_type" : "_ZTIKN7android10VectorImplE",
   "size" : 20,
   "source_file" : "/system/core/libutils/include/utils/VectorImpl.h"
  },
  {
   "alignment" : 4,
   "is_const" : true,
   "linker_set_key" : "_ZTIKN7android10frameworks16schedulerservice4V1_024ISchedulingPolicyService8PriorityE",
   "name" : "const android::frameworks::schedulerservice::V1_0::ISchedulingPolicyService::Priority",
   "referenced_type" : "_ZTIN7android10frameworks16schedulerservice4V1_024ISchedulingPolicyService8PriorityE",
   "self_type" : "_ZTIKN7android10frameworks16schedulerservice4V1_024ISchedulingPolicyService8PriorityE",
   "size" : 4,
   "source_file" : "/out/soong/.intermediates/frameworks/hardware/interfaces/schedulerservice/1.0/android.frameworks.schedulerservice@1.0_genc++_headers/gen/android/frameworks/schedulerservice/1.0/ISchedulingPolicyService.h"
  },
  {
   "alignment" : 4,
   "is_const" : true,
   "linker_set_key" : "_ZTIKN7android10frameworks16schedulerservice4V1_024ISchedulingPolicyServiceE",
   "name" : "const android::frameworks::schedulerservice::V1_0::ISchedulingPolicyService",
   "referenced_type" : "_ZTIN7android10frameworks16schedulerservice4V1_024ISchedulingPolicyServiceE",
   "self_type" : "_ZTIKN7android10frameworks16schedulerservice4V1_024ISchedulingPolicyServiceE",
   "size" : 12,
   "source_file" : "/out/soong/.intermediates/frameworks/hardware/interfaces/schedulerservice/1.0/android.frameworks.schedulerservice@1.0_genc++_headers/gen/android/frameworks/schedulerservice/1.0/ISchedulingPolicyService.h"
  },
  {
   "alignment" : 4,
   "is_const" : true,
   "linker_set_key" : "_ZTIKN7android10frameworks16schedulerservice4V1_027BpHwSchedulingPolicyServiceE",
   "name" : "const android::frameworks::schedulerservice::V1_0::BpHwSchedulingPolicyService",
   "referenced_type" : "_ZTIN7android10frameworks16schedulerservice4V1_027BpHwSchedulingPolicyServiceE",
   "self_type" : "_ZTIKN7android10frameworks16schedulerservice4V1_027BpHwSchedulingPolicyServiceE",
   "size" : 92,
   "source_file" : "/out/soong/.intermediates/frameworks/hardware/interfaces/schedulerservice/1.0/android.frameworks.schedulerservice@1.0_genc++_headers/gen/android/frameworks/schedulerservice/1.0/BpHwSchedulingPolicyService.h"
  },
  {
   "alignment" : 4,
   "is_const" : true,
   "linker_set_key" : "_ZTIKN7android12NativeHandleE",
   "name" : "const android::NativeHandle",
   "referenced_type" : "_ZTIN7android12NativeHandleE",
   "self_type" : "_ZTIKN7android12NativeHandleE",
   "size" : 12,
   "source_file" : "/system/core/libutils/include/utils/NativeHandle.h"
  },
  {
   "alignment" : 4,
   "is_const" : true,
   "linker_set_key" : "_ZTIKN7android2spINS_10frameworks16schedulerservice4V1_024ISchedulingPolicyServiceEEE",
   "name" : "const android::sp<android::frameworks::schedulerservice::V1_0::ISchedulingPolicyService>",
   "referenced_type" : "_ZTIN7android2spINS_10frameworks16schedulerservice4V1_024ISchedulingPolicyServiceEEE",
   "self_type" : "_ZTIKN7android2spINS_10frameworks16schedulerservice4V1_024ISchedulingPolicyServiceEEE",
   "size" : 4,
   "source_file" : "/system/core/libutils/include/utils/StrongPointer.h"
  },
  {
   "alignment" : 4,
   "is_const" : true,
   "linker_set_key" : "_ZTIKN7android2spINS_4hidl4base4V1_05IBaseEEE",
   "name" : "const android::sp<android::hidl::base::V1_0::IBase>",
   "referenced_type" : "_ZTIN7android2spINS_4hidl4base4V1_05IBaseEEE",
   "self_type" : "_ZTIKN7android2spINS_4hidl4base4V1_05IBaseEEE",
   "size" : 4,
   "source_file" : "/system/core/libutils/include/utils/StrongPointer.h"
  },
  {
   "alignment" : 4,
   "is_const" : true,
   "linker_set_key" : "_ZTIKN7android2spINS_4hidl7manager4V1_015IServiceManagerEEE",
   "name" : "const android::sp<android::hidl::manager::V1_0::IServiceManager>",
   "referenced_type" : "_ZTIN7android2spINS_4hidl7manager4V1_015IServiceManagerEEE",
   "self_type" : "_ZTIKN7android2spINS_4hidl7manager4V1_015IServiceManagerEEE",
   "size" : 4,
   "source_file" : "/system/core/libutils/include/utils/StrongPointer.h"
  },
  {
   "alignment" : 4,
   "is_const" : true,
   "linker_set_key" : "_ZTIKN7android2spINS_4hidl7manager4V1_020IServiceNotificationEEE",
   "name" : "const android::sp<android::hidl::manager::V1_0::IServiceNotification>",
   "referenced_type" : "_ZTIN7android2spINS_4hidl7manager4V1_020IServiceNotificationEEE",
   "self_type" : "_ZTIKN7android2spINS_4hidl7manager4V1_020IServiceNotificationEEE",
   "size" : 4,
   "source_file" : "/system/core/libutils/include/utils/StrongPointer.h"
  },
  {
   "alignment" : 4,
   "is_const" : true,
   "linker_set_key" : "_ZTIKN7android2spINS_8hardware12ProcessStateEEE",
   "name" : "const android::sp<android::hardware::ProcessState>",
   "referenced_type" : "_ZTIN7android2spINS_8hardware12ProcessStateEEE",
   "self_type" : "_ZTIKN7android2spINS_8hardware12ProcessStateEEE",
   "size" : 4,
   "source_file" : "/system/core/libutils/include/utils/StrongPointer.h"
  },
  {
   "alignment" : 4,
   "is_const" : true,
   "linker_set_key" : "_ZTIKN7android2spINS_8hardware20hidl_death_recipientEEE",
   "name" : "const android::sp<android::hardware::hidl_death_recipient>",
   "referenced_type" : "_ZTIN7android2spINS_8hardware20hidl_death_recipientEEE",
   "self_type" : "_ZTIKN7android2spINS_8hardware20hidl_death_recipientEEE",
   "size" : 4,
   "source_file" : "/system/core/libutils/include/utils/RefBase.h"
  },
  {
   "alignment" : 4,
   "is_const" : true,
   "linker_set_key" : "_ZTIKN7android2spINS_8hardware27hidl_binder_death_recipientEEE",
   "name" : "const android::sp<android::hardware::hidl_binder_death_recipient>",
   "referenced_type" : "_ZTIN7android2spINS_8hardware27hidl_binder_death_recipientEEE",
   "self_type" : "_ZTIKN7android2spINS_8hardware27hidl_binder_death_recipientEEE",
   "size" : 4,
   "source_file" : "/system/core/libutils/include/utils/RefBase.h"
  },
  {
   "alignment" : 4,
   "is_const" : true,
   "linker_set_key" : "_ZTIKN7android2spINS_8hardware7IBinderEEE",
   "name" : "const android::sp<android::hardware::IBinder>",
   "referenced_type" : "_ZTIN7android2spINS_8hardware7IBinderEEE",
   "self_type" : "_ZTIKN7android2spINS_8hardware7IBinderEEE",
   "size" : 4,
   "source_file" : "/system/core/libutils/include/utils/StrongPointer.h"
  },
  {
   "alignment" : 4,
   "is_const" : true,
   "linker_set_key" : "_ZTIKN7android2wpINS_8hardware20hidl_death_recipientEEE",
   "name" : "const android::wp<android::hardware::hidl_death_recipient>",
   "referenced_type" : "_ZTIN7android2wpINS_8hardware20hidl_death_recipientEEE",
   "self_type" : "_ZTIKN7android2wpINS_8hardware20hidl_death_recipientEEE",
   "size" : 8,
   "source_file" : "/system/core/libutils/include/utils/RefBase.h"
  },
  {
   "alignment" : 4,
   "is_const" : true,
   "linker_set_key" : "_ZTIKN7android2wpINS_8hardware9BHwBinderEEE",
   "name" : "const android::wp<android::hardware::BHwBinder>",
   "referenced_type" : "_ZTIN7android2wpINS_8hardware9BHwBinderEEE",
   "self_type" : "_ZTIKN7android2wpINS_8hardware9BHwBinderEEE",
   "size" : 8,
   "source_file" : "/system/core/libutils/include/utils/RefBase.h"
  },
  {
   "alignment" : 4,
   "is_const" : true,
   "linker_set_key" : "_ZTIKN7android4hidl4base4V1_05IBaseE",
   "name" : "const android::hidl::base::V1_0::IBase",
   "referenced_type" : "_ZTIN7android4hidl4base4V1_05IBaseE",
   "self_type" : "_ZTIKN7android4hidl4base4V1_05IBaseE",
   "size" : 12,
   "source_file" : "/out/soong/.intermediates/system/libhidl/transport/base/1.0/android.hidl.base@1.0_genc++_headers/gen/android/hidl/base/1.0/IBase.h"
  },
  {
   "alignment" : 4,
   "is_const" : true,
   "linker_set_key" : "_ZTIKN7android4hidl4base4V1_08BpHwBaseE",
   "name" : "const android::hidl::base::V1_0::BpHwBase",
   "referenced_type" : "_ZTIN7android4hidl4base4V1_08BpHwBaseE",
   "self_type" : "_ZTIKN7android4hidl4base4V1_08BpHwBaseE",
   "size" : 92,
   "source_file" : "/out/soong/.intermediates/system/libhidl/transport/base/1.0/android.hidl.base@1.0_genc++_headers/gen/android/hidl/base/1.0/BpHwBase.h"
  },
  {
   "alignment" : 4,
   "is_const" : true,
   "linker_set_key" : "_ZTIKN7android4hidl4base4V1_09DebugInfo12ArchitectureE",
   "name" : "const android::hidl::base::V1_0::DebugInfo::Architecture",
   "referenced_type" : "_ZTIN7android4hidl4base4V1_09DebugInfo12ArchitectureE",
   "self_type" : "_ZTIKN7android4hidl4base4V1_09DebugInfo12ArchitectureE",
   "size" : 4,
   "source_file" : "/out/soong/.intermediates/system/libhidl/transport/base/1.0/android.hidl.base@1.0_genc++_headers/gen/android/hidl/base/1.0/types.h"
  },
  {
   "alignment" : 4,
   "is_const" : true,
   "linker_set_key" : "_ZTIKN7android4hidl7manager4V1_015IServiceManager11PidConstantE",
   "name" : "const android::hidl::manager::V1_0::IServiceManager::PidConstant",
   "referenced_type" : "_ZTIN7android4hidl7manager4V1_015IServiceManager11PidConstantE",
   "self_type" : "_ZTIKN7android4hidl7manager4V1_015IServiceManager11PidConstantE",
   "size" : 4,
   "source_file" : "/out/soong/.intermediates/system/libhidl/transport/manager/1.0/android.hidl.manager@1.0_genc++_headers/gen/android/hidl/manager/1.0/IServiceManager.h"
  },
  {
   "alignment" : 1,
   "is_const" : true,
   "linker_set_key" : "_ZTIKN7android4hidl7manager4V1_015IServiceManager9TransportE",
   "name" : "const android::hidl::manager::V1_0::IServiceManager::Transport",
   "referenced_type" : "_ZTIN7android4hidl7manager4V1_015IServiceManager9TransportE",
   "self_type" : "_ZTIKN7android4hidl7manager4V1_015IServiceManager9TransportE",
   "size" : 1,
   "source_file" : "/out/soong/.intermediates/system/libhidl/transport/manager/1.0/android.hidl.manager@1.0_genc++_headers/gen/android/hidl/manager/1.0/IServiceManager.h"
  },
  {
   "alignment" : 4,
   "is_const" : true,
   "linker_set_key" : "_ZTIKN7android4hidl7manager4V1_015IServiceManagerE",
   "name" : "const android::hidl::manager::V1_0::IServiceManager",
   "referenced_type" : "_ZTIN7android4hidl7manager4V1_015IServiceManagerE",
   "self_type" : "_ZTIKN7android4hidl7manager4V1_015IServiceManagerE",
   "size" : 12,
   "source_file" : "/out/soong/.intermediates/system/libhidl/transport/manager/1.0/android.hidl.manager@1.0_genc++_headers/gen/android/hidl/manager/1.0/IServiceManager.h"
  },
  {
   "alignment" : 4,
   "is_const" : true,
   "linker_set_key" : "_ZTIKN7android4hidl7manager4V1_020IServiceNotificationE",
   "name" : "const android::hidl::manager::V1_0::IServiceNotification",
   "referenced_type" : "_ZTIN7android4hidl7manager4V1_020IServiceNotificationE",
   "self_type" : "_ZTIKN7android4hidl7manager4V1_020IServiceNotificationE",
   "size" : 12,
   "source_file" : "/out/soong/.intermediates/system/libhidl/transport/manager/1.0/android.hidl.manager@1.0_genc++_headers/gen/android/hidl/manager/1.0/IServiceNotification.h"
  },
  {
   "alignment" : 4,
   "is_const" : true,
   "linker_set_key" : "_ZTIKN7android7RefBaseE",
   "name" : "const android::RefBase",
   "referenced_type" : "_ZTIN7android7RefBaseE",
   "self_type" : "_ZTIKN7android7RefBaseE",
   "size" : 8,
   "source_file" : "/system/core/libutils/include/utils/RefBase.h"
  },
  {
   "alignment" : 4,
   "is_const" : true,
   "linker_set_key" : "_ZTIKN7android7String8E",
   "name" : "const android::String8",
   "referenced_type" : "_ZTIN7android7String8E",
   "self_type" : "_ZTIKN7android7String8E",
   "size" : 4,
   "source_file" : "/system/core/libutils/include/utils/String8.h"
  },
  {
   "alignment" : 4,
   "is_const" : true,
   "linker_set_key" : "_ZTIKN7android8String16E",
   "name" : "const android::String16",
   "referenced_type" : "_ZTIN7android8String16E",
   "self_type" : "_ZTIKN7android8String16E",
   "size" : 4,
   "source_file" : "/system/core/libutils/include/utils/String16.h"
  },
  {
   "alignment" : 1,
   "is_const" : true,
   "linker_set_key" : "_ZTIKN7android8hardware10hidl_arrayIhLj32EJEEE",
   "name" : "const android::hardware::hidl_array<unsigned char, 32>",
   "referenced_type" : "_ZTIN7android8hardware10hidl_arrayIhLj32EJEEE",
   "self_type" : "_ZTIKN7android8hardware10hidl_arrayIhLj32EJEEE",
   "size" : 32,
   "source_file" : "/system/libhidl/base/include/hidl/HidlSupport.h"
  },
  {
   "alignment" : 4,
   "is_const" : true,
   "linker_set_key" : "_ZTIKN7android8hardware11BpHwRefBaseE",
   "name" : "const android::hardware::BpHwRefBase",
   "referenced_type" : "_ZTIN7android8hardware11BpHwRefBaseE",
   "self_type" : "_ZTIKN7android8hardware11BpHwRefBaseE",
   "size" : 24,
   "source_file" : "/system/libhwbinder/include/hwbinder/Binder.h"
  },
  {
   "alignment" : 4,
   "is_const" : true,
   "linker_set_key" : "_ZTIKN7android8hardware11hidl_handleE",
   "name" : "const android::hardware::hidl_handle",
   "referenced_type" : "_ZTIN7android8hardware11hidl_handleE",
   "self_type" : "_ZTIKN7android8hardware11hidl_handleE",
   "size" : 16,
   "source_file" : "/system/libhidl/base/include/hidl/HidlSupport.h"
  },
  {
   "alignment" : 4,
   "is_const" : true,
   "linker_set_key" : "_ZTIKN7android8hardware11hidl_memoryE",
   "name" : "const android::hardware::hidl_memory",
   "referenced_type" : "_ZTIN7android8hardware11hidl_memoryE",
   "self_type" : "_ZTIKN7android8hardware11hidl_memoryE",
   "size" : 40,
   "source_file" : "/system/libhidl/base/include/hidl/HidlSupport.h"
  },
  {
   "alignment" : 4,
   "is_const" : true,
   "linker_set_key" : "_ZTIKN7android8hardware11hidl_stringE",
   "name" : "const android::hardware::hidl_string",
   "referenced_type" : "_ZTIN7android8hardware11hidl_stringE",
   "self_type" : "_ZTIKN7android8hardware11hidl_stringE",
   "size" : 16,
   "source_file" : "/system/libhidl/base/include/hidl/HidlSupport.h"
  },
  {
   "alignment" : 2,
   "is_const" : true,
   "linker_set_key" : "_ZTIKN7android8hardware12hidl_versionE",
   "name" : "const android::hardware::hidl_version",
   "referenced_type" : "_ZTIN7android8hardware12hidl_versionE",
   "self_type" : "_ZTIKN7android8hardware12hidl_versionE",
   "size" : 4,
   "source_file" : "/system/libhidl/base/include/hidl/HidlSupport.h"
  },
  {
   "alignment" : 4,
   "is_const" : true,
   "linker_set_key" : "_ZTIKN7android8hardware6ParcelE",
   "name" : "const android::hardware::Parcel",
   "referenced_type" : "_ZTIN7android8hardware6ParcelE",
   "self_type" : "_ZTIKN7android8hardware6ParcelE",
   "size" : 68,
   "source_file" : "/system/libhwbinder/include/hwbinder/Parcel.h"
  },
  {
   "alignment" : 4,
   "is_const" : true,
   "linker_set_key" : "_ZTIKN7android8hardware6ReturnINS_2spINS_10frameworks16schedulerservice4V1_024ISchedulingPolicyServiceEEEEE",
   "name" : "const android::hardware::Return<android::sp<android::frameworks::schedulerservice::V1_0::ISchedulingPolicyService> >",
   "referenced_type" : "_ZTIN7android8hardware6ReturnINS_2spINS_10frameworks16schedulerservice4V1_024ISchedulingPolicyServiceEEEEE",
   "self_type" : "_ZTIKN7android8hardware6ReturnINS_2spINS_10frameworks16schedulerservice4V1_024ISchedulingPolicyServiceEEEEE",
   "size" : 28,
   "source_file" : "/system/libhidl/base/include/hidl/Status.h"
  },
  {
   "alignment" : 4,
   "is_const" : true,
   "linker_set_key" : "_ZTIKN7android8hardware6ReturnIbEE",
   "name" : "const android::hardware::Return<bool>",
   "referenced_type" : "_ZTIN7android8hardware6ReturnIbEE",
   "self_type" : "_ZTIKN7android8hardware6ReturnIbEE",
   "size" : 24,
   "source_file" : "/system/libhidl/base/include/hidl/Status.h"
  },
  {
   "alignment" : 4,
   "is_const" : true,
   "linker_set_key" : "_ZTIKN7android8hardware6ReturnIiEE",
   "name" : "const android::hardware::Return<int>",
   "referenced_type" : "_ZTIN7android8hardware6ReturnIiEE",
   "self_type" : "_ZTIKN7android8hardware6ReturnIiEE",
   "size" : 28,
   "source_file" : "/system/libhidl/base/include/hidl/Status.h"
  },
  {
   "alignment" : 4,
   "is_const" : true,
   "linker_set_key" : "_ZTIKN7android8hardware6StatusE",
   "name" : "const android::hardware::Status",
   "referenced_type" : "_ZTIN7android8hardware6StatusE",
   "self_type" : "_ZTIKN7android8hardware6StatusE",
   "size" : 20,
   "source_file" : "/system/libhidl/base/include/hidl/Status.h"
  },
  {
   "alignment" : 4,
   "is_const" : true,
   "linker_set_key" : "_ZTIKN7android8hardware7details12hidl_pointerINS0_10hidl_arrayIhLj32EJEEEEE",
   "name" : "const android::hardware::details::hidl_pointer<android::hardware::hidl_array<unsigned char, 32> >",
   "referenced_type" : "_ZTIN7android8hardware7details12hidl_pointerINS0_10hidl_arrayIhLj32EJEEEEE",
   "self_type" : "_ZTIKN7android8hardware7details12hidl_pointerINS0_10hidl_arrayIhLj32EJEEEEE",
   "size" : 8,
   "source_file" : "/system/libhidl/base/include/hidl/HidlInternal.h"
  },
  {
   "alignment" : 4,
   "is_const" : true,
   "linker_set_key" : "_ZTIKN7android8hardware7details12hidl_pointerINS0_11hidl_stringEEE",
   "name" : "const android::hardware::details::hidl_pointer<android::hardware::hidl_string>",
   "referenced_type" : "_ZTIN7android8hardware7details12hidl_pointerINS0_11hidl_stringEEE",
   "self_type" : "_ZTIKN7android8hardware7details12hidl_pointerINS0_11hidl_stringEEE",
   "size" : 8,
   "source_file" : "/system/libhidl/base/include/hidl/HidlInternal.h"
  },
  {
   "alignment" : 4,
   "is_const" : true,
   "linker_set_key" : "_ZTIKN7android8hardware7details12hidl_pointerIiEE",
   "name" : "const android::hardware::details::hidl_pointer<int>",
   "referenced_type" : "_ZTIN7android8hardware7details12hidl_pointerIiEE",
   "self_type" : "_ZTIKN7android8hardware7details12hidl_pointerIiEE",
   "size" : 8,
   "source_file" : "/system/libhidl/base/include/hidl/HidlInternal.h"
  },
  {
   "alignment" : 4,
   "is_const" : true,
   "linker_set_key" : "_ZTIKN7android8hardware7details13return_statusE",
   "name" : "const android::hardware::details::return_status",
   "referenced_type" : "_ZTIN7android8hardware7details13return_statusE",
   "self_type" : "_ZTIKN7android8hardware7details13return_statusE",
   "size" : 24,
   "source_file" : "/system/libhidl/base/include/hidl/Status.h"
  },
  {
   "is_const" : true,
   "linker_set_key" : "_ZTIKN7android8hardware8hidl_vec4iterIXTL0__EEE",
   "name" : "const iter<is_const>",
   "referenced_type" : "_ZTIN7android8hardware8hidl_vec4iterIXTL0__EEE",
   "self_type" : "_ZTIKN7android8hardware8hidl_vec4iterIXTL0__EEE",
   "source_file" : "/system/libhidl/base/include/hidl/HidlSupport.h"
  },
  {
   "alignment" : 4,
   "is_const" : true,
   "linker_set_key" : "_ZTIKN7android8hardware8hidl_vecINS0_11hidl_stringEEE",
   "name" : "const android::hardware::hidl_vec<android::hardware::hidl_string>",
   "referenced_type" : "_ZTIN7android8hardware8hidl_vecINS0_11hidl_stringEEE",
   "self_type" : "_ZTIKN7android8hardware8hidl_vecINS0_11hidl_stringEEE",
   "size" : 16,
   "source_file" : "/out/soong/.intermediates/frameworks/hardware/interfaces/schedulerservice/1.0/android.frameworks.schedulerservice@1.0_genc++_headers/gen/android/frameworks/schedulerservice/1.0/ISchedulingPolicyService.h"
  },
  {
   "alignment" : 4,
   "is_const" : true,
   "linker_set_key" : "_ZTIKN7android8hardware8hidl_vecIiEE",
   "name" : "const android::hardware::hidl_vec<int>",
   "referenced_type" : "_ZTIN7android8hardware8hidl_vecIiEE",
   "self_type" : "_ZTIKN7android8hardware8hidl_vecIiEE",
   "size" : 16,
   "source_file" : "/system/libhidl/base/include/hidl/HidlSupport.h"
  },
  {
   "alignment" : 4,
   "is_const" : true,
   "linker_set_key" : "_ZTIKNSt3__112basic_stringIcNS_11char_traitsIcEENS_9allocatorIcEEEE",
   "name" : "const std::basic_string<char, std::char_traits<char>, std::allocator<char> >",
   "referenced_type" : "_ZTINSt3__112basic_stringIcNS_11char_traitsIcEENS_9allocatorIcEEEE",
   "self_type" : "_ZTIKNSt3__112basic_stringIcNS_11char_traitsIcEENS_9allocatorIcEEEE",
   "size" : 12,
   "source_file" : "/system/libhidl/transport/include/hidl/HidlTransportSupport.h"
  },
  {
   "alignment" : 4,
   "is_const" : true,
   "linker_set_key" : "_ZTIKNSt3__15arrayIN7android10frameworks16schedulerservice4V1_024ISchedulingPolicyService8PriorityELj2EEE",
   "name" : "const std::array<android::frameworks::schedulerservice::V1_0::ISchedulingPolicyService::Priority, 2>",
   "referenced_type" : "_ZTINSt3__15arrayIN7android10frameworks16schedulerservice4V1_024ISchedulingPolicyService8PriorityELj2EEE",
   "self_type" : "_ZTIKNSt3__15arrayIN7android10frameworks16schedulerservice4V1_024ISchedulingPolicyService8PriorityELj2EEE",
   "size" : 8,
   "source_file" : "/out/soong/.intermediates/frameworks/hardware/interfaces/schedulerservice/1.0/android.frameworks.schedulerservice@1.0_genc++_headers/gen/android/frameworks/schedulerservice/1.0/ISchedulingPolicyService.h"
  },
  {
   "alignment" : 4,
   "is_const" : true,
   "linker_set_key" : "_ZTIKNSt3__15arrayIN7android4hidl4base4V1_09DebugInfo12ArchitectureELj3EEE",
   "name" : "const std::array<android::hidl::base::V1_0::DebugInfo::Architecture, 3>",
   "referenced_type" : "_ZTINSt3__15arrayIN7android4hidl4base4V1_09DebugInfo12ArchitectureELj3EEE",
   "self_type" : "_ZTIKNSt3__15arrayIN7android4hidl4base4V1_09DebugInfo12ArchitectureELj3EEE",
   "size" : 12,
   "source_file" : "/out/soong/.intermediates/system/libhidl/transport/base/1.0/android.hidl.base@1.0_genc++_headers/gen/android/hidl/base/1.0/types.h"
  },
  {
   "alignment" : 4,
   "is_const" : true,
   "linker_set_key" : "_ZTIKNSt3__15arrayIN7android4hidl7manager4V1_015IServiceManager11PidConstantELj1EEE",
   "name" : "const std::array<android::hidl::manager::V1_0::IServiceManager::PidConstant, 1>",
   "referenced_type" : "_ZTINSt3__15arrayIN7android4hidl7manager4V1_015IServiceManager11PidConstantELj1EEE",
   "self_type" : "_ZTIKNSt3__15arrayIN7android4hidl7manager4V1_015IServiceManager11PidConstantELj1EEE",
   "size" : 4,
   "source_file" : "/out/soong/.intermediates/system/libhidl/transport/manager/1.0/android.hidl.manager@1.0_genc++_headers/gen/android/hidl/manager/1.0/IServiceManager.h"
  },
  {
   "alignment" : 1,
   "is_const" : true,
   "linker_set_key" : "_ZTIKNSt3__15arrayIN7android4hidl7manager4V1_015IServiceManager9TransportELj3EEE",
   "name" : "const std::array<android::hidl::manager::V1_0::IServiceManager::Transport, 3>",
   "referenced_type" : "_ZTINSt3__15arrayIN7android4hidl7manager4V1_015IServiceManager9TransportELj3EEE",
   "self_type" : "_ZTIKNSt3__15arrayIN7android4hidl7manager4V1_015IServiceManager9TransportELj3EEE",
   "size" : 3,
   "source_file" : "/out/soong/.intermediates/system/libhidl/transport/manager/1.0/android.hidl.manager@1.0_genc++_headers/gen/android/hidl/manager/1.0/IServiceManager.h"
  },
  {
   "alignment" : 4,
   "is_const" : true,
   "linker_set_key" : "_ZTIKNSt3__16vectorINS_8functionIFvN7android8hardware7details16HidlInstrumentor20InstrumentationEventEPKcS8_S8_S8_PNS0_IPvNS_9allocatorIS9_EEEEEEENSA_ISF_EEEE",
   "name" : "const std::vector<std::function<void (InstrumentationEvent, const char *, const char *, const char *, const char *, vector<void *, allocator<void *> > *)>, std::allocator<std::function<void (InstrumentationEvent, const char *, const char *, const char *, const char *, vector<void *, allocator<void *> > *)> > >",
   "referenced_type" : "_ZTINSt3__16vectorINS_8functionIFvN7android8hardware7details16HidlInstrumentor20InstrumentationEventEPKcS8_S8_S8_PNS0_IPvNS_9allocatorIS9_EEEEEEENSA_ISF_EEEE",
   "self_type" : "_ZTIKNSt3__16vectorINS_8functionIFvN7android8hardware7details16HidlInstrumentor20InstrumentationEventEPKcS8_S8_S8_PNS0_IPvNS_9allocatorIS9_EEEEEEENSA_ISF_EEEE",
   "size" : 12,
   "source_file" : "/system/libhidl/base/include/hidl/HidlInternal.h"
  },
  {
   "alignment" : 4,
   "is_const" : true,
   "linker_set_key" : "_ZTIKPKN7android4hidl4base4V1_05IBaseE",
   "name" : "const android::hidl::base::V1_0::IBase *const",
   "referenced_type" : "_ZTIPKN7android4hidl4base4V1_05IBaseE",
   "self_type" : "_ZTIKPKN7android4hidl4base4V1_05IBaseE",
   "size" : 4,
   "source_file" : "/system/libhidl/transport/include/hidl/ConcurrentMap.h"
  },
  {
   "alignment" : 4,
   "is_const" : true,
   "linker_set_key" : "_ZTIKPN7android7RefBase12weakref_implE",
   "name" : "android::RefBase::weakref_impl *const",
   "referenced_type" : "_ZTIPN7android7RefBase12weakref_implE",
   "self_type" : "_ZTIKPN7android7RefBase12weakref_implE",
   "size" : 4,
   "source_file" : "/system/core/libutils/include/utils/RefBase.h"
  },
  {
   "alignment" : 4,
   "is_const" : true,
   "linker_set_key" : "_ZTIKPN7android8hardware7IBinderE",
   "name" : "android::hardware::IBinder *const",
   "referenced_type" : "_ZTIPN7android8hardware7IBinderE",
   "self_type" : "_ZTIKPN7android8hardware7IBinderE",
   "size" : 4,
   "source_file" : "/system/libhwbinder/include/hwbinder/Binder.h"
  },
  {
   "alignment" : 4,
   "is_const" : true,
   "linker_set_key" : "_ZTIKSt16initializer_listIN7android8hardware10hidl_arrayIhLj32EJEEEE",
   "name" : "const std::initializer_list<android::hardware::hidl_array<unsigned char, 32> >",
   "referenced_type" : "_ZTISt16initializer_listIN7android8hardware10hidl_arrayIhLj32EJEEEE",
   "self_type" : "_ZTIKSt16initializer_listIN7android8hardware10hidl_arrayIhLj32EJEEEE",
   "size" : 8,
   "source_file" : "/system/libhidl/base/include/hidl/HidlSupport.h"
  },
  {
   "alignment" : 4,
   "is_const" : true,
   "linker_set_key" : "_ZTIKSt16initializer_listIN7android8hardware11hidl_stringEE",
   "name" : "const std::initializer_list<android::hardware::hidl_string>",
   "referenced_type" : "_ZTISt16initializer_listIN7android8hardware11hidl_stringEE",
   "self_type" : "_ZTIKSt16initializer_listIN7android8hardware11hidl_stringEE",
   "size" : 8,
   "source_file" : "/system/libhidl/base/include/hidl/HidlSupport.h"
  },
  {
   "alignment" : 1,
   "is_const" : true,
   "linker_set_key" : "_ZTIKa",
   "name" : "const signed char",
   "referenced_type" : "_ZTIa",
   "self_type" : "_ZTIKa",
   "size" : 1,
   "source_file" : "/system/core/libutils/include/utils/TypeHelpers.h"
  },
  {
   "alignment" : 1,
   "is_const" : true,
   "linker_set_key" : "_ZTIKb",
   "name" : "const bool",
   "referenced_type" : "_ZTIb",
   "self_type" : "_ZTIKb",
   "size" : 1,
   "source_file" : "/system/core/libutils/include/utils/TypeHelpers.h"
  },
  {
   "alignment" : 1,
   "is_const" : true,
   "linker_set_key" : "_ZTIKc",
   "name" : "const char",
   "referenced_type" : "_ZTIc",
   "self_type" : "_ZTIKc",
   "size" : 1,
   "source_file" : "/system/core/liblog/include/android/log.h"
  },
  {
   "alignment" : 4,
   "is_const" : true,
   "linker_set_key" : "_ZTIKd",
   "name" : "const double",
   "referenced_type" : "_ZTId",
   "self_type" : "_ZTIKd",
   "size" : 8,
   "source_file" : "/system/core/libutils/include/utils/TypeHelpers.h"
  },
  {
   "alignment" : 4,
   "is_const" : true,
   "linker_set_key" : "_ZTIKf",
   "name" : "const float",
   "referenced_type" : "_ZTIf",
   "self_type" : "_ZTIKf",
   "size" : 4,
   "source_file" : "/system/core/libutils/include/utils/TypeHelpers.h"
  },
  {
   "alignment" : 1,
   "is_const" : true,
   "linker_set_key" : "_ZTIKh",
   "name" : "const unsigned char",
   "referenced_type" : "_ZTIh",
   "self_type" : "_ZTIKh",
   "size" : 1,
   "source_file" : "/system/core/libutils/include/utils/TypeHelpers.h"
  },
  {
   "alignment" : 4,
   "is_const" : true,
   "linker_set_key" : "_ZTIKi",
   "name" : "const int",
   "referenced_type" : "_ZTIi",
   "self_type" : "_ZTIKi",
   "size" : 4,
   "source_file" : "/system/libhidl/base/include/hidl/HidlInternal.h"
  },
  {
   "alignment" : 4,
   "is_const" : true,
   "linker_set_key" : "_ZTIKj",
   "name" : "const unsigned int",
   "referenced_type" : "_ZTIj",
   "self_type" : "_ZTIKj",
   "size" : 4,
   "source_file" : "/system/core/libutils/include/utils/StrongPointer.h"
  },
  {
   "alignment" : 2,
   "is_const" : true,
   "linker_set_key" : "_ZTIKs",
   "name" : "const short",
   "referenced_type" : "_ZTIs",
   "self_type" : "_ZTIKs",
   "size" : 2,
   "source_file" : "/system/core/libutils/include/utils/TypeHelpers.h"
  },
  {
   "alignment" : 2,
   "is_const" : true,
   "linker_set_key" : "_ZTIKt",
   "name" : "const unsigned short",
   "referenced_type" : "_ZTIt",
   "self_type" : "_ZTIKt",
   "size" : 2,
   "source_file" : "/system/core/libutils/include/utils/TypeHelpers.h"
  },
  {
   "is_const" : true,
   "linker_set_key" : "_ZTIKv",
   "name" : "const void",
   "referenced_type" : "_ZTIv",
   "self_type" : "_ZTIKv",
   "source_file" : "/system/core/libutils/include/utils/StrongPointer.h"
  },
  {
   "alignment" : 4,
   "is_const" : true,
   "linker_set_key" : "_ZTIKx",
   "name" : "const long long",
   "referenced_type" : "_ZTIx",
   "self_type" : "_ZTIKx",
   "size" : 8,
   "source_file" : "/system/core/libutils/include/utils/TypeHelpers.h"
  },
  {
   "alignment" : 4,
   "is_const" : true,
   "linker_set_key" : "_ZTIKy",
   "name" : "const unsigned long long",
   "referenced_type" : "_ZTIy",
   "self_type" : "_ZTIKy",
   "size" : 8,
   "source_file" : "/system/core/libutils/include/utils/TypeHelpers.h"
  },
  {
   "alignment" : 1,
   "is_volatile" : true,
   "linker_set_key" : "_ZTIVb",
   "name" : "volatile bool",
   "referenced_type" : "_ZTIb",
   "self_type" : "_ZTIVb",
   "size" : 1,
   "source_file" : "/system/core/libutils/include/utils/Thread.h"
  },
  {
   "alignment" : 4,
   "is_volatile" : true,
   "linker_set_key" : "_ZTIVi",
   "name" : "volatile int",
   "referenced_type" : "_ZTIi",
   "self_type" : "_ZTIVi",
   "size" : 4,
   "source_file" : "/system/libhwbinder/include/hwbinder/ProcessState.h"
  }
 ],
 "record_types" :
 [
  {
   "alignment" : 4,
   "fields" :
   [
    {
     "field_name" : "len",
     "referenced_type" : "_ZTIt"
    },
    {
     "field_name" : "hdr_size",
     "field_offset" : 16,
     "referenced_type" : "_ZTIt"
    },
    {
     "field_name" : "pid",
     "field_offset" : 32,
     "referenced_type" : "_ZTIi"
    },
    {
     "field_name" : "tid",
     "field_offset" : 64,
     "referenced_type" : "_ZTIj"
    },
    {
     "field_name" : "sec",
     "field_offset" : 96,
     "referenced_type" : "_ZTIj"
    },
    {
     "field_name" : "nsec",
     "field_offset" : 128,
     "referenced_type" : "_ZTIj"
    },
    {
     "field_name" : "lid",
     "field_offset" : 160,
     "referenced_type" : "_ZTIj"
    },
    {
     "field_name" : "uid",
     "field_offset" : 192,
     "referenced_type" : "_ZTIj"
    }
   ],
   "linker_set_key" : "_ZTI12logger_entry",
   "name" : "logger_entry",
   "referenced_type" : "_ZTI12logger_entry",
   "self_type" : "_ZTI12logger_entry",
   "size" : 28,
   "source_file" : "/system/core/liblog/include/log/log_read.h"
  },
  {
   "alignment" : 4,
   "fields" :
   [
    {
     "field_name" : "y",
     "referenced_type" : "_ZTIPv"
    },
    {
     "field_name" : "cb",
     "field_offset" : 32,
     "referenced_type" : "_ZTIPv"
    },
    {
     "field_name" : "cr",
     "field_offset" : 64,
     "referenced_type" : "_ZTIPv"
    },
    {
     "field_name" : "ystride",
     "field_offset" : 96,
     "referenced_type" : "_ZTIj"
    },
    {
     "field_name" : "cstride",
     "field_offset" : 128,
     "referenced_type" : "_ZTIj"
    },
    {
     "field_name" : "chroma_step",
     "field_offset" : 160,
     "referenced_type" : "_ZTIj"
    },
    {
     "field_name" : "reserved",
     "field_offset" : 192,
     "referenced_type" : "_ZTIA8_j"
    }
   ],
   "linker_set_key" : "_ZTI13android_ycbcr",
   "name" : "android_ycbcr",
   "referenced_type" : "_ZTI13android_ycbcr",
   "self_type" : "_ZTI13android_ycbcr",
   "size" : 56,
   "source_file" : "/system/core/libsystem/include/system/graphics.h"
  },
  {
   "alignment" : 4,
   "fields" :
   [
    {
     "field_name" : "version",
     "referenced_type" : "_ZTIi"
    },
    {
     "field_name" : "numFds",
     "field_offset" : 32,
     "referenced_type" : "_ZTIi"
    },
    {
     "field_name" : "numInts",
     "field_offset" : 64,
     "referenced_type" : "_ZTIi"
    },
    {
     "field_name" : "data",
     "field_offset" : 96,
     "referenced_type" : "_ZTIA0_i"
    }
   ],
   "linker_set_key" : "_ZTI13native_handle",
   "name" : "native_handle",
   "referenced_type" : "_ZTI13native_handle",
   "self_type" : "_ZTI13native_handle",
   "size" : 12,
   "source_file" : "/system/core/libcutils/include/cutils/native_handle.h"
  },
  {
   "alignment" : 4,
   "fields" :
   [
    {
     "field_name" : "x",
     "referenced_type" : "_ZTIf"
    },
    {
     "field_name" : "y",
     "field_offset" : 32,
     "referenced_type" : "_ZTIf"
    }
   ],
   "linker_set_key" : "_ZTI16android_xy_color",
   "name" : "android_xy_color",
   "referenced_type" : "_ZTI16android_xy_color",
   "self_type" : "_ZTI16android_xy_color",
   "size" : 8,
   "source_file" : "/system/core/libsystem/include/system/graphics.h"
  },
  {
   "alignment" : 4,
   "fields" :
   [
    {
     "field_name" : "top_left",
     "referenced_type" : "_ZTIPh"
    },
    {
     "field_name" : "component",
     "field_offset" : 32,
     "referenced_type" : "_ZTI22android_flex_component"
    },
    {
     "field_name" : "bits_per_component",
     "field_offset" : 64,
     "referenced_type" : "_ZTIi"
    },
    {
     "field_name" : "bits_used",
     "field_offset" : 96,
     "referenced_type" : "_ZTIi"
    },
    {
     "field_name" : "h_increment",
     "field_offset" : 128,
     "referenced_type" : "_ZTIi"
    },
    {
     "field_name" : "v_increment",
     "field_offset" : 160,
     "referenced_type" : "_ZTIi"
    },
    {
     "field_name" : "h_subsampling",
     "field_offset" : 192,
     "referenced_type" : "_ZTIi"
    },
    {
     "field_name" : "v_subsampling",
     "field_offset" : 224,
     "referenced_type" : "_ZTIi"
    }
   ],
   "linker_set_key" : "_ZTI18android_flex_plane",
   "name" : "android_flex_plane",
   "referenced_type" : "_ZTI18android_flex_plane",
   "self_type" : "_ZTI18android_flex_plane",
   "size" : 32,
   "source_file" : "/system/core/libsystem/include/system/graphics.h"
  },
  {
   "alignment" : 4,
   "fields" :
   [
    {
     "field_name" : "format",
     "referenced_type" : "_ZTI19android_flex_format"
    },
    {
     "field_name" : "num_planes",
     "field_offset" : 32,
     "referenced_type" : "_ZTIj"
    },
    {
     "field_name" : "planes",
     "field_offset" : 64,
     "referenced_type" : "_ZTIP18android_flex_plane"
    }
   ],
   "linker_set_key" : "_ZTI19android_flex_layout",
   "name" : "android_flex_layout",
   "referenced_type" : "_ZTI19android_flex_layout",
   "self_type" : "_ZTI19android_flex_layout",
   "size" : 12,
   "source_file" : "/system/core/libsystem/include/system/graphics.h"
  },
  {
   "alignment" : 4,
   "fields" :
   [
    {
     "field_name" : "num_points",
     "referenced_type" : "_ZTIj"
    },
    {
     "field_name" : "reserved",
     "field_offset" : 32,
     "referenced_type" : "_ZTIA8_j"
    },
    {
     "field_name" : "xyzc_points",
     "field_offset" : 288,
     "referenced_type" : "_ZTIA_f"
    }
   ],
   "linker_set_key" : "_ZTI20android_depth_points",
   "name" : "android_depth_points",
   "referenced_type" : "_ZTI20android_depth_points",
   "self_type" : "_ZTI20android_depth_points",
   "size" : 36,
   "source_file" : "/system/core/libsystem/include/system/graphics.h"
  },
  {
   "alignment" : 4,
   "fields" :
   [
    {
     "field_name" : "struct_size",
     "referenced_type" : "_ZTIj"
    },
    {
     "field_name" : "buffer_id",
     "field_offset" : 32,
     "referenced_type" : "_ZTIi"
    },
    {
     "field_name" : "priority",
     "field_offset" : 64,
     "referenced_type" : "_ZTIi"
    },
    {
     "field_name" : "tag",
     "field_offset" : 96,
     "referenced_type" : "_ZTIPKc"
    },
    {
     "field_name" : "file",
     "field_offset" : 128,
     "referenced_type" : "_ZTIPKc"
    },
    {
     "field_name" : "line",
     "field_offset" : 160,
     "referenced_type" : "_ZTIj"
    },
    {
     "field_name" : "message",
     "field_offset" : 192,
     "referenced_type" : "_ZTIPKc"
    }
   ],
   "linker_set_key" : "_ZTI21__android_log_message",
   "name" : "__android_log_message",
   "referenced_type" : "_ZTI21__android_log_message",
   "self_type" : "_ZTI21__android_log_message",
   "size" : 28,
   "source_file" : "/system/core/liblog/include/android/log.h"
  },
  {
   "alignment" : 4,
   "fields" :
   [
    {
     "field_name" : "maxContentLightLevel",
     "referenced_type" : "_ZTIf"
    },
    {
     "field_name" : "maxFrameAverageLightLevel",
     "field_offset" : 32,
     "referenced_type" : "_ZTIf"
    }
   ],
   "linker_set_key" : "_ZTI25android_cta861_3_metadata",
   "name" : "android_cta861_3_metadata",
   "referenced_type" : "_ZTI25android_cta861_3_metadata",
   "self_type" : "_ZTI25android_cta861_3_metadata",
   "size" : 8,
   "source_file" : "/system/core/libsystem/include/system/graphics.h"
  },
  {
   "alignment" : 4,
   "fields" :
   [
    {
     "field_name" : "displayPrimaryRed",
     "referenced_type" : "_ZTI16android_xy_color"
    },
    {
     "field_name" : "displayPrimaryGreen",
     "field_offset" : 64,
     "referenced_type" : "_ZTI16android_xy_color"
    },
    {
     "field_name" : "displayPrimaryBlue",
     "field_offset" : 128,
     "referenced_type" : "_ZTI16android_xy_color"
    },
    {
     "field_name" : "whitePoint",
     "field_offset" : 192,
     "referenced_type" : "_ZTI16android_xy_color"
    },
    {
     "field_name" : "maxLuminance",
     "field_offset" : 256,
     "referenced_type" : "_ZTIf"
    },
    {
     "field_name" : "minLuminance",
     "field_offset" : 288,
     "referenced_type" : "_ZTIf"
    }
   ],
   "linker_set_key" : "_ZTI26android_smpte2086_metadata",
   "name" : "android_smpte2086_metadata",
   "referenced_type" : "_ZTI26android_smpte2086_metadata",
   "self_type" : "_ZTI26android_smpte2086_metadata",
   "size" : 40,
   "source_file" : "/system/core/libsystem/include/system/graphics.h"
  },
  {
   "alignment" : 4,
   "fields" :
   [
    {
     "referenced_type" : "_ZTIN7log_msgUt_E"
    }
   ],
   "linker_set_key" : "_ZTI7log_msg",
   "name" : "log_msg",
   "referenced_type" : "_ZTI7log_msg",
   "self_type" : "_ZTI7log_msg",
   "size" : 5124,
   "source_file" : "/system/core/liblog/include/log/log_read.h"
  },
  {
   "alignment" : 1,
   "fields" :
   [
    {
     "field_name" : "tv_sec",
     "referenced_type" : "_ZTIj"
    },
    {
     "field_name" : "tv_nsec",
     "field_offset" : 32,
     "referenced_type" : "_ZTIj"
    }
   ],
   "linker_set_key" : "_ZTI8log_time",
   "name" : "log_time",
   "referenced_type" : "_ZTI8log_time",
   "self_type" : "_ZTI8log_time",
   "size" : 8,
   "source_file" : "/system/core/liblog/include_vndk/log/log_time.h"
  },
  {
   "alignment" : 4,
   "fields" :
   [
    {
     "access" : "private",
     "field_name" : "mStorage",
     "field_offset" : 32,
     "referenced_type" : "_ZTIPv"
    },
    {
     "access" : "private",
     "field_name" : "mCount",
     "field_offset" : 64,
     "referenced_type" : "_ZTIj"
    },
    {
     "access" : "private",
     "field_name" : "mFlags",
     "field_offset" : 96,
     "referenced_type" : "_ZTIKj"
    },
    {
     "access" : "private",
     "field_name" : "mItemSize",
     "field_offset" : 128,
     "referenced_type" : "_ZTIKj"
    }
   ],
   "linker_set_key" : "_ZTIN7android10VectorImplE",
   "name" : "android::VectorImpl",
   "record_kind" : "class",
   "referenced_type" : "_ZTIN7android10VectorImplE",
   "self_type" : "_ZTIN7android10VectorImplE",
   "size" : 20,
   "source_file" : "/system/core/libutils/include/utils/VectorImpl.h",
   "vtable_components" :
   [
    {
     "kind" : "offset_to_top"
    },
    {
     "kind" : "rtti",
     "mangled_component_name" : "_ZTIN7android10VectorImplE"
    },
    {
     "kind" : "complete_dtor_pointer",
     "mangled_component_name" : "_ZN7android10VectorImplD1Ev"
    },
    {
     "kind" : "deleting_dtor_pointer",
     "mangled_component_name" : "_ZN7android10VectorImplD0Ev"
    },
    {
     "is_pure" : true,
     "mangled_component_name" : "_ZNK7android10VectorImpl12do_constructEPvj"
    },
    {
     "is_pure" : true,
     "mangled_component_name" : "_ZNK7android10VectorImpl10do_destroyEPvj"
    },
    {
     "is_pure" : true,
     "mangled_component_name" : "_ZNK7android10VectorImpl7do_copyEPvPKvj"
    },
    {
     "is_pure" : true,
     "mangled_component_name" : "_ZNK7android10VectorImpl8do_splatEPvPKvj"
    },
    {
     "is_pure" : true,
     "mangled_component_name" : "_ZNK7android10VectorImpl15do_move_forwardEPvPKvj"
    },
    {
     "is_pure" : true,
     "mangled_component_name" : "_ZNK7android10VectorImpl16do_move_backwardEPvPKvj"
    }
   ]
  },
  {
   "alignment" : 4,
   "base_specifiers" :
   [
    {
     "referenced_type" : "_ZTIN7android4hidl4base4V1_05IBaseE"
    }
   ],
   "linker_set_key" : "_ZTIN7android10frameworks16schedulerservice4V1_024ISchedulingPolicyServiceE",
   "name" : "android::frameworks::schedulerservice::V1_0::ISchedulingPolicyService",
   "referenced_type" : "_ZTIN7android10frameworks16schedulerservice4V1_024ISchedulingPolicyServiceE",
   "self_type" : "_ZTIN7android10frameworks16schedulerservice4V1_024ISchedulingPolicyServiceE",
   "size" : 12,
   "source_file" : "/out/soong/.intermediates/frameworks/hardware/interfaces/schedulerservice/1.0/android.frameworks.schedulerservice@1.0_genc++_headers/gen/android/frameworks/schedulerservice/1.0/ISchedulingPolicyService.h",
   "vtable_components" :
   [
    {
     "component_value" : 4,
     "kind" : "vbase_offset"
    },
    {
     "kind" : "offset_to_top"
    },
    {
     "kind" : "rtti",
     "mangled_component_name" : "_ZTIN7android10frameworks16schedulerservice4V1_024ISchedulingPolicyServiceE"
    },
    {
     "mangled_component_name" : "_ZNK7android10frameworks16schedulerservice4V1_024ISchedulingPolicyService8isRemoteEv"
    },
    {
     "mangled_component_name" : "_ZN7android10frameworks16schedulerservice4V1_024ISchedulingPolicyService14interfaceChainENSt3__18functionIFvRKNS_8hardware8hidl_vecINS6_11hidl_stringEEEEEE"
    },
    {
     "mangled_component_name" : "_ZN7android10frameworks16schedulerservice4V1_024ISchedulingPolicyService5debugERKNS_8hardware11hidl_handleERKNS4_8hidl_vecINS4_11hidl_stringEEE"
    },
    {
     "mangled_component_name" : "_ZN7android10frameworks16schedulerservice4V1_024ISchedulingPolicyService19interfaceDescriptorENSt3__18functionIFvRKNS_8hardware11hidl_stringEEEE"
    },
    {
     "mangled_component_name" : "_ZN7android10frameworks16schedulerservice4V1_024ISchedulingPolicyService12getHashChainENSt3__18functionIFvRKNS_8hardware8hidl_vecINS6_10hidl_arrayIhLj32EJEEEEEEEE"
    },
    {
     "mangled_component_name" : "_ZN7android10frameworks16schedulerservice4V1_024ISchedulingPolicyService21setHALInstrumentationEv"
    },
    {
     "mangled_component_name" : "_ZN7android10frameworks16schedulerservice4V1_024ISchedulingPolicyService11linkToDeathERKNS_2spINS_8hardware20hidl_death_recipientEEEy"
    },
    {
     "mangled_component_name" : "_ZN7android10frameworks16schedulerservice4V1_024ISchedulingPolicyService4pingEv"
    },
    {
     "mangled_component_name" : "_ZN7android10frameworks16schedulerservice4V1_024ISchedulingPolicyService12getDebugInfoENSt3__18functionIFvRKNS_4hidl4base4V1_09DebugInfoEEEE"
    },
    {
     "mangled_component_name" : "_ZN7android10frameworks16schedulerservice4V1_024ISchedulingPolicyService21notifySyspropsChangedEv"
    },
    {
     "mangled_component_name" : "_ZN7android10frameworks16schedulerservice4V1_024ISchedulingPolicyService13unlinkToDeathERKNS_2spINS_8hardware20hidl_death_recipientEEE"
    },
    {
     "kind" : "complete_dtor_pointer",
     "mangled_component_name" : "_ZN7android10frameworks16schedulerservice4V1_024ISchedulingPolicyServiceD1Ev"
    },
    {
     "kind" : "deleting_dtor_pointer",
     "mangled_component_name" : "_ZN7android10frameworks16schedulerservice4V1_024ISchedulingPolicyServiceD0Ev"
    },
    {
     "is_pure" : true,
     "mangled_component_name" : "_ZN7android10frameworks16schedulerservice4V1_024ISchedulingPolicyService15requestPriorityEiii"
    },
    {
     "is_pure" : true,
     "mangled_component_name" : "_ZN7android10frameworks16schedulerservice4V1_024ISchedulingPolicyService21getMaxAllowedPriorityEv"
    },
    {
     "kind" : "vcall_offset"
    },
    {
     "kind" : "vcall_offset"
    },
    {
     "kind" : "vcall_offset"
    },
    {
     "kind" : "vcall_offset"
    },
    {
     "component_value" : -4,
     "kind" : "vcall_offset"
    },
    {
     "component_value" : -4,
     "kind" : "offset_to_top"
    },
    {
     "kind" : "rtti",
     "mangled_component_name" : "_ZTIN7android10frameworks16schedulerservice4V1_024ISchedulingPolicyServiceE"
    },
    {
     "kind" : "complete_dtor_pointer",
     "mangled_component_name" : "_ZTv0_n12_N7android10frameworks16schedulerservice4V1_024ISchedulingPolicyServiceD1Ev"
    },
    {
     "kind" : "deleting_dtor_pointer",
     "mangled_component_name" : "_ZTv0_n12_N7android10frameworks16schedulerservice4V1_024ISchedulingPolicyServiceD0Ev"
    },
    {
     "mangled_component_name" : "_ZN7android7RefBase10onFirstRefEv"
    },
    {
     "mangled_component_name" : "_ZN7android7RefBase15onLastStrongRefEPKv"
    },
    {
     "mangled_component_name" : "_ZN7android7RefBase20onIncStrongAttemptedEjPKv"
    },
    {
     "mangled_component_name" : "_ZN7android7RefBase13onLastWeakRefEPKv"
    }
   ]
  },
  {
   "alignment" : 4,
   "base_specifiers" :
   [
    {
     "referenced_type" : "_ZTIN7android10frameworks16schedulerservice4V1_024ISchedulingPolicyServiceE"
    },
    {
     "referenced_type" : "_ZTIN7android8hardware7details16HidlInstrumentorE"
    }
   ],
   "fields" :
   [
    {
     "access" : "private",
     "field_name" : "mImpl",
     "field_offset" : 384,
     "referenced_type" : "_ZTIKN7android2spINS_10frameworks16schedulerservice4V1_024ISchedulingPolicyServiceEEE"
    },
    {
     "access" : "private",
     "field_name" : "mOnewayQueue",
     "field_offset" : 416,
     "referenced_type" : "_ZTIN7android8hardware7details10TaskRunnerE"
    }
   ],
   "linker_set_key" : "_ZTIN7android10frameworks16schedulerservice4V1_025BsSchedulingPolicyServiceE",
   "name" : "android::frameworks::schedulerservice::V1_0::BsSchedulingPolicyService",
   "referenced_type" : "_ZTIN7android10frameworks16schedulerservice4V1_025BsSchedulingPolicyServiceE",
   "self_type" : "_ZTIN7android10frameworks16schedulerservice4V1_025BsSchedulingPolicyServiceE",
   "size" : 68,
   "source_file" : "/out/soong/.intermediates/frameworks/hardware/interfaces/schedulerservice/1.0/android.frameworks.schedulerservice@1.0_genc++_headers/gen/android/frameworks/schedulerservice/1.0/BsSchedulingPolicyService.h",
   "vtable_components" :
   [
    {
     "component_value" : 60,
     "kind" : "vbase_offset"
    },
    {
     "kind" : "offset_to_top"
    },
    {
     "kind" : "rtti",
     "mangled_component_name" : "_ZTIN7android10frameworks16schedulerservice4V1_025BsSchedulingPolicyServiceE"
    },
    {
     "mangled_component_name" : "_ZNK7android10frameworks16schedulerservice4V1_024ISchedulingPolicyService8isRemoteEv"
    },
    {
     "mangled_component_name" : "_ZN7android10frameworks16schedulerservice4V1_025BsSchedulingPolicyService14interfaceChainENSt3__18functionIFvRKNS_8hardware8hidl_vecINS6_11hidl_stringEEEEEE"
    },
    {
     "mangled_component_name" : "_ZN7android10frameworks16schedulerservice4V1_025BsSchedulingPolicyService5debugERKNS_8hardware11hidl_handleERKNS4_8hidl_vecINS4_11hidl_stringEEE"
    },
    {
     "mangled_component_name" : "_ZN7android10frameworks16schedulerservice4V1_025BsSchedulingPolicyService19interfaceDescriptorENSt3__18functionIFvRKNS_8hardware11hidl_stringEEEE"
    },
    {
     "mangled_component_name" : "_ZN7android10frameworks16schedulerservice4V1_025BsSchedulingPolicyService12getHashChainENSt3__18functionIFvRKNS_8hardware8hidl_vecINS6_10hidl_arrayIhLj32EJEEEEEEEE"
    },
    {
     "mangled_component_name" : "_ZN7android10frameworks16schedulerservice4V1_025BsSchedulingPolicyService21setHALInstrumentationEv"
    },
    {
     "mangled_component_name" : "_ZN7android10frameworks16schedulerservice4V1_025BsSchedulingPolicyService11linkToDeathERKNS_2spINS_8hardware20hidl_death_recipientEEEy"
    },
    {
     "mangled_component_name" : "_ZN7android10frameworks16schedulerservice4V1_025BsSchedulingPolicyService4pingEv"
    },
    {
     "mangled_component_name" : "_ZN7android10frameworks16schedulerservice4V1_025BsSchedulingPolicyService12getDebugInfoENSt3__18functionIFvRKNS_4hidl4base4V1_09DebugInfoEEEE"
    },
    {
     "mangled_component_name" : "_ZN7android10frameworks16schedulerservice4V1_025BsSchedulingPolicyService21notifySyspropsChangedEv"
    },
    {
     "mangled_component_name" : "_ZN7android10frameworks16schedulerservice4V1_025BsSchedulingPolicyService13unlinkToDeathERKNS_2spINS_8hardware20hidl_death_recipientEEE"
    },
    {
     "kind" : "complete_dtor_pointer",
     "mangled_component_name" : "_ZN7android10frameworks16schedulerservice4V1_025BsSchedulingPolicyServiceD1Ev"
    },
    {
     "kind" : "deleting_dtor_pointer",
     "mangled_component_name" : "_ZN7android10frameworks16schedulerservice4V1_025BsSchedulingPolicyServiceD0Ev"
    },
    {
     "mangled_component_name" : "_ZN7android10frameworks16schedulerservice4V1_025BsSchedulingPolicyService15requestPriorityEiii"
    },
    {
     "mangled_component_name" : "_ZN7android10frameworks16schedulerservice4V1_025BsSchedulingPolicyService21getMaxAllowedPriorityEv"
    },
    {
     "component_value" : -4,
     "kind" : "offset_to_top"
    },
    {
     "kind" : "rtti",
     "mangled_component_name" : "_ZTIN7android10frameworks16schedulerservice4V1_025BsSchedulingPolicyServiceE"
    },
    {
     "kind" : "complete_dtor_pointer",
     "mangled_component_name" : "_ZThn4_N7android10frameworks16schedulerservice4V1_025BsSchedulingPolicyServiceD1Ev"
    },
    {
     "kind" : "deleting_dtor_pointer",
     "mangled_component_name" : "_ZThn4_N7android10frameworks16schedulerservice4V1_025BsSchedulingPolicyServiceD0Ev"
    },
    {
     "kind" : "vcall_offset"
    },
    {
     "kind" : "vcall_offset"
    },
    {
     "kind" : "vcall_offset"
    },
    {
     "kind" : "vcall_offset"
    },
    {
     "component_value" : -60,
     "kind" : "vcall_offset"
    },
    {
     "component_value" : -60,
     "kind" : "offset_to_top"
    },
    {
     "kind" : "rtti",
     "mangled_component_name" : "_ZTIN7android10frameworks16schedulerservice4V1_025BsSchedulingPolicyServiceE"
    },
    {
     "kind" : "complete_dtor_pointer",
     "mangled_component_name" : "_ZTv0_n12_N7android10frameworks16schedulerservice4V1_025BsSchedulingPolicyServiceD1Ev"
    },
    {
     "kind" : "deleting_dtor_pointer",
     "mangled_component_name" : "_ZTv0_n12_N7android10frameworks16schedulerservice4V1_025BsSchedulingPolicyServiceD0Ev"
    },
    {
     "mangled_component_name" : "_ZN7android7RefBase10onFirstRefEv"
    },
    {
     "mangled_component_name" : "_ZN7android7RefBase15onLastStrongRefEPKv"
    },
    {
     "mangled_component_name" : "_ZN7android7RefBase20onIncStrongAttemptedEjPKv"
    },
    {
     "mangled_component_name" : "_ZN7android7RefBase13onLastWeakRefEPKv"
    }
   ]
  },
  {
   "alignment" : 4,
   "base_specifiers" :
   [
    {
     "referenced_type" : "_ZTIN7android4hidl4base4V1_08BnHwBaseE"
    }
   ],
   "fields" :
   [
    {
     "access" : "private",
     "field_name" : "_hidl_mImpl",
     "field_offset" : 544,
     "referenced_type" : "_ZTIN7android2spINS_10frameworks16schedulerservice4V1_024ISchedulingPolicyServiceEEE"
    }
   ],
   "linker_set_key" : "_ZTIN7android10frameworks16schedulerservice4V1_027BnHwSchedulingPolicyServiceE",
   "name" : "android::frameworks::schedulerservice::V1_0::BnHwSchedulingPolicyService",
   "referenced_type" : "_ZTIN7android10frameworks16schedulerservice4V1_027BnHwSchedulingPolicyServiceE",
   "self_type" : "_ZTIN7android10frameworks16schedulerservice4V1_027BnHwSchedulingPolicyServiceE",
   "size" : 80,
   "source_file" : "/out/soong/.intermediates/frameworks/hardware/interfaces/schedulerservice/1.0/android.frameworks.schedulerservice@1.0_genc++_headers/gen/android/frameworks/schedulerservice/1.0/BnHwSchedulingPolicyService.h",
   "vtable_components" :
   [
    {
     "component_value" : 72,
     "kind" : "vbase_offset"
    },
    {
     "kind" : "offset_to_top"
    },
    {
     "kind" : "rtti",
     "mangled_component_name" : "_ZTIN7android10frameworks16schedulerservice4V1_027BnHwSchedulingPolicyServiceE"
    },
    {
     "mangled_component_name" : "_ZN7android8hardware9BHwBinder8transactEjRKNS0_6ParcelEPS2_jNSt3__18functionIFvRS2_EEE"
    },
    {
     "mangled_component_name" : "_ZN7android8hardware9BHwBinder11linkToDeathERKNS_2spINS0_7IBinder14DeathRecipientEEEPvj"
    },
    {
     "mangled_component_name" : "_ZN7android8hardware9BHwBinder13unlinkToDeathERKNS_2wpINS0_7IBinder14DeathRecipientEEEPvjPS5_"
    },
    {
     "mangled_component_name" : "_ZNK7android4hidl4base4V1_08BnHwBase13checkSubclassEPKv"
    },
    {
     "mangled_component_name" : "_ZN7android8hardware9BHwBinder12attachObjectEPKvPvS4_PFvS3_S4_S4_E"
    },
    {
     "mangled_component_name" : "_ZNK7android8hardware9BHwBinder10findObjectEPKv"
    },
    {
     "mangled_component_name" : "_ZN7android8hardware9BHwBinder12detachObjectEPKv"
    },
    {
     "mangled_component_name" : "_ZN7android8hardware9BHwBinder11localBinderEv"
    },
    {
     "mangled_component_name" : "_ZN7android8hardware7IBinder12remoteBinderEv"
    },
    {
     "kind" : "complete_dtor_pointer",
     "mangled_component_name" : "_ZN7android10frameworks16schedulerservice4V1_027BnHwSchedulingPolicyServiceD1Ev"
    },
    {
     "kind" : "deleting_dtor_pointer",
     "mangled_component_name" : "_ZN7android10frameworks16schedulerservice4V1_027BnHwSchedulingPolicyServiceD0Ev"
    },
    {
     "mangled_component_name" : "_ZN7android10frameworks16schedulerservice4V1_027BnHwSchedulingPolicyService10onTransactEjRKNS_8hardware6ParcelEPS5_jNSt3__18functionIFvRS5_EEE"
    },
    {
     "component_value" : -20,
     "kind" : "offset_to_top"
    },
    {
     "kind" : "rtti",
     "mangled_component_name" : "_ZTIN7android10frameworks16schedulerservice4V1_027BnHwSchedulingPolicyServiceE"
    },
    {
     "kind" : "complete_dtor_pointer",
     "mangled_component_name" : "_ZThn20_N7android10frameworks16schedulerservice4V1_027BnHwSchedulingPolicyServiceD1Ev"
    },
    {
     "kind" : "deleting_dtor_pointer",
     "mangled_component_name" : "_ZThn20_N7android10frameworks16schedulerservice4V1_027BnHwSchedulingPolicyServiceD0Ev"
    },
    {
     "kind" : "vcall_offset"
    },
    {
     "kind" : "vcall_offset"
    },
    {
     "kind" : "vcall_offset"
    },
    {
     "kind" : "vcall_offset"
    },
    {
     "component_value" : -72,
     "kind" : "vcall_offset"
    },
    {
     "component_value" : -72,
     "kind" : "offset_to_top"
    },
    {
     "kind" : "rtti",
     "mangled_component_name" : "_ZTIN7android10frameworks16schedulerservice4V1_027BnHwSchedulingPolicyServiceE"
    },
    {
     "kind" : "complete_dtor_pointer",
     "mangled_component_name" : "_ZTv0_n12_N7android10frameworks16schedulerservice4V1_027BnHwSchedulingPolicyServiceD1Ev"
    },
    {
     "kind" : "deleting_dtor_pointer",
     "mangled_component_name" : "_ZTv0_n12_N7android10frameworks16schedulerservice4V1_027BnHwSchedulingPolicyServiceD0Ev"
    },
    {
     "mangled_component_name" : "_ZN7android7RefBase10onFirstRefEv"
    },
    {
     "mangled_component_name" : "_ZN7android7RefBase15onLastStrongRefEPKv"
    },
    {
     "mangled_component_name" : "_ZN7android7RefBase20onIncStrongAttemptedEjPKv"
    },
    {
     "mangled_component_name" : "_ZN7android7RefBase13onLastWeakRefEPKv"
    }
   ]
  },
  {
   "alignment" : 4,
   "base_specifiers" :
   [
    {
     "referenced_type" : "_ZTIN7android8hardware11BpInterfaceINS_10frameworks16schedulerservice4V1_024ISchedulingPolicyServiceEEE"
    },
    {
     "referenced_type" : "_ZTIN7android8hardware7details16HidlInstrumentorE"
    }
   ],
   "fields" :
   [
    {
     "access" : "private",
     "field_name" : "_hidl_mMutex",
     "field_offset" : 544,
     "referenced_type" : "_ZTINSt3__15mutexE"
    },
    {
     "access" : "private",
     "field_name" : "_hidl_mDeathRecipients",
     "field_offset" : 576,
     "referenced_type" : "_ZTINSt3__16vectorIN7android2spINS1_8hardware27hidl_binder_death_recipientEEENS_9allocatorIS5_EEEE"
    }
   ],
   "linker_set_key" : "_ZTIN7android10frameworks16schedulerservice4V1_027BpHwSchedulingPolicyServiceE",
   "name" : "android::frameworks::schedulerservice::V1_0::BpHwSchedulingPolicyService",
   "referenced_type" : "_ZTIN7android10frameworks16schedulerservice4V1_027BpHwSchedulingPolicyServiceE",
   "self_type" : "_ZTIN7android10frameworks16schedulerservice4V1_027BpHwSchedulingPolicyServiceE",
   "size" : 92,
   "source_file" : "/out/soong/.intermediates/frameworks/hardware/interfaces/schedulerservice/1.0/android.frameworks.schedulerservice@1.0_genc++_headers/gen/android/frameworks/schedulerservice/1.0/BpHwSchedulingPolicyService.h",
   "vtable_components" :
   [
    {
     "component_value" : 84,
     "kind" : "vbase_offset"
    },
    {
     "kind" : "offset_to_top"
    },
    {
     "kind" : "rtti",
     "mangled_component_name" : "_ZTIN7android10frameworks16schedulerservice4V1_027BpHwSchedulingPolicyServiceE"
    },
    {
     "mangled_component_name" : "_ZNK7android10frameworks16schedulerservice4V1_027BpHwSchedulingPolicyService8isRemoteEv"
    },
    {
     "mangled_component_name" : "_ZN7android10frameworks16schedulerservice4V1_027BpHwSchedulingPolicyService14interfaceChainENSt3__18functionIFvRKNS_8hardware8hidl_vecINS6_11hidl_stringEEEEEE"
    },
    {
     "mangled_component_name" : "_ZN7android10frameworks16schedulerservice4V1_027BpHwSchedulingPolicyService5debugERKNS_8hardware11hidl_handleERKNS4_8hidl_vecINS4_11hidl_stringEEE"
    },
    {
     "mangled_component_name" : "_ZN7android10frameworks16schedulerservice4V1_027BpHwSchedulingPolicyService19interfaceDescriptorENSt3__18functionIFvRKNS_8hardware11hidl_stringEEEE"
    },
    {
     "mangled_component_name" : "_ZN7android10frameworks16schedulerservice4V1_027BpHwSchedulingPolicyService12getHashChainENSt3__18functionIFvRKNS_8hardware8hidl_vecINS6_10hidl_arrayIhLj32EJEEEEEEEE"
    },
    {
     "mangled_component_name" : "_ZN7android10frameworks16schedulerservice4V1_027BpHwSchedulingPolicyService21setHALInstrumentationEv"
    },
    {
     "mangled_component_name" : "_ZN7android10frameworks16schedulerservice4V1_027BpHwSchedulingPolicyService11linkToDeathERKNS_2spINS_8hardware20hidl_death_recipientEEEy"
    },
    {
     "mangled_component_name" : "_ZN7android10frameworks16schedulerservice4V1_027BpHwSchedulingPolicyService4pingEv"
    },
    {
     "mangled_component_name" : "_ZN7android10frameworks16schedulerservice4V1_027BpHwSchedulingPolicyService12getDebugInfoENSt3__18functionIFvRKNS_4hidl4base4V1_09DebugInfoEEEE"
    },
    {
     "mangled_component_name" : "_ZN7android10frameworks16schedulerservice4V1_027BpHwSchedulingPolicyService21notifySyspropsChangedEv"
    },
    {
     "mangled_component_name" : "_ZN7android10frameworks16schedulerservice4V1_027BpHwSchedulingPolicyService13unlinkToDeathERKNS_2spINS_8hardware20hidl_death_recipientEEE"
    },
    {
     "kind" : "complete_dtor_pointer",
     "mangled_component_name" : "_ZN7android10frameworks16schedulerservice4V1_027BpHwSchedulingPolicyServiceD1Ev"
    },
    {
     "kind" : "deleting_dtor_pointer",
     "mangled_component_name" : "_ZN7android10frameworks16schedulerservice4V1_027BpHwSchedulingPolicyServiceD0Ev"
    },
    {
     "mangled_component_name" : "_ZN7android10frameworks16schedulerservice4V1_027BpHwSchedulingPolicyService15requestPriorityEiii"
    },
    {
     "mangled_component_name" : "_ZN7android10frameworks16schedulerservice4V1_027BpHwSchedulingPolicyService21getMaxAllowedPriorityEv"
    },
    {
     "mangled_component_name" : "_ZN7android8hardware11BpInterfaceINS_10frameworks16schedulerservice4V1_024ISchedulingPolicyServiceEE10onAsBinderEv"
    },
    {
     "mangled_component_name" : "_ZN7android10frameworks16schedulerservice4V1_027BpHwSchedulingPolicyService15onLastStrongRefEPKv"
    },
    {
     "component_value" : 80,
     "kind" : "vbase_offset"
    },
    {
     "component_value" : -4,
     "kind" : "offset_to_top"
    },
    {
     "kind" : "rtti",
     "mangled_component_name" : "_ZTIN7android10frameworks16schedulerservice4V1_027BpHwSchedulingPolicyServiceE"
    },
    {
     "kind" : "complete_dtor_pointer",
     "mangled_component_name" : "_ZThn4_N7android10frameworks16schedulerservice4V1_027BpHwSchedulingPolicyServiceD1Ev"
    },
    {
     "kind" : "deleting_dtor_pointer",
     "mangled_component_name" : "_ZThn4_N7android10frameworks16schedulerservice4V1_027BpHwSchedulingPolicyServiceD0Ev"
    },
    {
     "mangled_component_name" : "_ZThn4_N7android8hardware11BpInterfaceINS_10frameworks16schedulerservice4V1_024ISchedulingPolicyServiceEE10onAsBinderEv"
    },
    {
     "component_value" : 76,
     "kind" : "vbase_offset"
    },
    {
     "component_value" : -8,
     "kind" : "offset_to_top"
    },
    {
     "kind" : "rtti",
     "mangled_component_name" : "_ZTIN7android10frameworks16schedulerservice4V1_027BpHwSchedulingPolicyServiceE"
    },
    {
     "kind" : "complete_dtor_pointer",
     "mangled_component_name" : "_ZThn8_N7android10frameworks16schedulerservice4V1_027BpHwSchedulingPolicyServiceD1Ev"
    },
    {
     "kind" : "deleting_dtor_pointer",
     "mangled_component_name" : "_ZThn8_N7android10frameworks16schedulerservice4V1_027BpHwSchedulingPolicyServiceD0Ev"
    },
    {
     "mangled_component_name" : "_ZN7android8hardware11BpHwRefBase10onFirstRefEv"
    },
    {
     "mangled_component_name" : "_ZThn8_N7android10frameworks16schedulerservice4V1_027BpHwSchedulingPolicyService15onLastStrongRefEPKv"
    },
    {
     "mangled_component_name" : "_ZN7android8hardware11BpHwRefBase20onIncStrongAttemptedEjPKv"
    },
    {
     "component_value" : -24,
     "kind" : "offset_to_top"
    },
    {
     "kind" : "rtti",
     "mangled_component_name" : "_ZTIN7android10frameworks16schedulerservice4V1_027BpHwSchedulingPolicyServiceE"
    },
    {
     "kind" : "complete_dtor_pointer",
     "mangled_component_name" : "_ZThn24_N7android10frameworks16schedulerservice4V1_027BpHwSchedulingPolicyServiceD1Ev"
    },
    {
     "kind" : "deleting_dtor_pointer",
     "mangled_component_name" : "_ZThn24_N7android10frameworks16schedulerservice4V1_027BpHwSchedulingPolicyServiceD0Ev"
    },
    {
     "kind" : "vcall_offset"
    },
    {
     "component_value" : -76,
     "kind" : "vcall_offset"
    },
    {
     "component_value" : -84,
     "kind" : "vcall_offset"
    },
    {
     "component_value" : -76,
     "kind" : "vcall_offset"
    },
    {
     "component_value" : -84,
     "kind" : "vcall_offset"
    },
    {
     "component_value" : -84,
     "kind" : "offset_to_top"
    },
    {
     "kind" : "rtti",
     "mangled_component_name" : "_ZTIN7android10frameworks16schedulerservice4V1_027BpHwSchedulingPolicyServiceE"
    },
    {
     "kind" : "complete_dtor_pointer",
     "mangled_component_name" : "_ZTv0_n12_N7android10frameworks16schedulerservice4V1_027BpHwSchedulingPolicyServiceD1Ev"
    },
    {
     "kind" : "deleting_dtor_pointer",
     "mangled_component_name" : "_ZTv0_n12_N7android10frameworks16schedulerservice4V1_027BpHwSchedulingPolicyServiceD0Ev"
    },
    {
     "mangled_component_name" : "_ZTv0_n16_N7android8hardware11BpHwRefBase10onFirstRefEv"
    },
    {
     "mangled_component_name" : "_ZTv0_n20_N7android10frameworks16schedulerservice4V1_027BpHwSchedulingPolicyService15onLastStrongRefEPKv"
    },
    {
     "mangled_component_name" : "_ZTv0_n24_N7android8hardware11BpHwRefBase20onIncStrongAttemptedEjPKv"
    },
    {
     "mangled_component_name" : "_ZN7android7RefBase13onLastWeakRefEPKv"
    }
   ]
  },
  {
   "alignment" : 4,
   "fields" :
   [
    {
     "access" : "private",
     "field_name" : "mVector",
     "referenced_type" : "_ZTIN7android12SortedVectorINS_16key_value_pair_tINS_8String16ENS_2spINS_8hardware7IBinderEEEEEEE"
    }
   ],
   "linker_set_key" : "_ZTIN7android11KeyedVectorINS_8String16ENS_2spINS_8hardware7IBinderEEEEE",
   "name" : "android::KeyedVector<android::String16, android::sp<android::hardware::IBinder> >",
   "record_kind" : "class",
   "referenced_type" : "_ZTIN7android11KeyedVectorINS_8String16ENS_2spINS_8hardware7IBinderEEEEE",
   "self_type" : "_ZTIN7android11KeyedVectorINS_8String16ENS_2spINS_8hardware7IBinderEEEEE",
   "size" : 20,
   "source_file" : "/system/core/libutils/include/utils/KeyedVector.h",
   "template_args" : [ "_ZTIN7android8String16E", "_ZTIN7android2spINS_8hardware7IBinderEEE" ]
  },
  {
   "alignment" : 4,
   "fields" :
   [
    {
     "access" : "private",
     "field_name" : "mTag",
     "referenced_type" : "_ZTIy"
    }
   ],
   "linker_set_key" : "_ZTIN7android11ScopedTraceE",
   "name" : "android::ScopedTrace",
   "record_kind" : "class",
   "referenced_type" : "_ZTIN7android11ScopedTraceE",
   "self_type" : "_ZTIN7android11ScopedTraceE",
   "size" : 8,
   "source_file" : "/system/core/libutils/include/utils/Trace.h"
  },
  {
   "alignment" : 4,
   "fields" :
   [
    {
     "access" : "private",
     "field_name" : "mCount",
     "referenced_type" : "_ZTINSt3__16atomicIiEE"
    }
   ],
   "linker_set_key" : "_ZTIN7android12LightRefBaseINS_12NativeHandleEEE",
   "name" : "android::LightRefBase<android::NativeHandle>",
   "record_kind" : "class",
   "referenced_type" : "_ZTIN7android12LightRefBaseINS_12NativeHandleEEE",
   "self_type" : "_ZTIN7android12LightRefBaseINS_12NativeHandleEEE",
   "size" : 4,
   "source_file" : "/system/core/libutils/include/utils/LightRefBase.h",
   "template_args" : [ "_ZTIN7android12NativeHandleE" ]
  },
  {
   "alignment" : 4,
   "fields" :
   [
    {
     "access" : "private",
     "field_name" : "mCount",
     "referenced_type" : "_ZTINSt3__16atomicIiEE"
    }
   ],
   "linker_set_key" : "_ZTIN7android12LightRefBaseINS_19VirtualLightRefBaseEEE",
   "name" : "android::LightRefBase<android::VirtualLightRefBase>",
   "record_kind" : "class",
   "referenced_type" : "_ZTIN7android12LightRefBaseINS_19VirtualLightRefBaseEEE",
   "self_type" : "_ZTIN7android12LightRefBaseINS_19VirtualLightRefBaseEEE",
   "size" : 4,
   "source_file" : "/system/core/libutils/include/utils/LightRefBase.h",
   "template_args" : [ "_ZTIN7android19VirtualLightRefBaseE" ]
  },
  {
   "alignment" : 4,
   "base_specifiers" :
   [
    {
     "referenced_type" : "_ZTIN7android12LightRefBaseINS_12NativeHandleEEE"
    }
   ],
   "fields" :
   [
    {
     "access" : "private",
     "field_name" : "mHandle",
     "field_offset" : 32,
     "referenced_type" : "_ZTIP13native_handle"
    },
    {
     "access" : "private",
     "field_name" : "mOwnsHandle",
     "field_offset" : 64,
     "referenced_type" : "_ZTIb"
    }
   ],
   "linker_set_key" : "_ZTIN7android12NativeHandleE",
   "name" : "android::NativeHandle",
   "record_kind" : "class",
   "referenced_type" : "_ZTIN7android12NativeHandleE",
   "self_type" : "_ZTIN7android12NativeHandleE",
   "size" : 12,
   "source_file" : "/system/core/libutils/include/utils/NativeHandle.h"
  },
  {
   "alignment" : 4,
   "base_specifiers" :
   [
    {
     "access" : "private",
     "referenced_type" : "_ZTIN7android16SortedVectorImplE"
    }
   ],
   "linker_set_key" : "_ZTIN7android12SortedVectorINS_16key_value_pair_tINS_8String16ENS_2spINS_8hardware7IBinderEEEEEEE",
   "name" : "android::SortedVector<android::key_value_pair_t<android::String16, android::sp<android::hardware::IBinder> > >",
   "record_kind" : "class",
   "referenced_type" : "_ZTIN7android12SortedVectorINS_16key_value_pair_tINS_8String16ENS_2spINS_8hardware7IBinderEEEEEEE",
   "self_type" : "_ZTIN7android12SortedVectorINS_16key_value_pair_tINS_8String16ENS_2spINS_8hardware7IBinderEEEEEEE",
   "size" : 20,
   "source_file" : "/system/core/libutils/include/utils/SortedVector.h",
   "template_args" :
   [
    "_ZTIN7android16key_value_pair_tINS_8String16ENS_2spINS_8hardware7IBinderEEEEE"
   ],
   "vtable_components" :
   [
    {
     "kind" : "offset_to_top"
    },
    {
     "kind" : "rtti",
     "mangled_component_name" : "_ZTIN7android12SortedVectorINS_16key_value_pair_tINS_8String16ENS_2spINS_8hardware7IBinderEEEEEEE"
    },
    {
     "kind" : "complete_dtor_pointer",
     "mangled_component_name" : "_ZN7android12SortedVectorINS_16key_value_pair_tINS_8String16ENS_2spINS_8hardware7IBinderEEEEEED1Ev"
    },
    {
     "kind" : "deleting_dtor_pointer",
     "mangled_component_name" : "_ZN7android12SortedVectorINS_16key_value_pair_tINS_8String16ENS_2spINS_8hardware7IBinderEEEEEED0Ev"
    },
    {
     "mangled_component_name" : "_ZNK7android12SortedVectorINS_16key_value_pair_tINS_8String16ENS_2spINS_8hardware7IBinderEEEEEE12do_constructEPvj"
    },
    {
     "mangled_component_name" : "_ZNK7android12SortedVectorINS_16key_value_pair_tINS_8String16ENS_2spINS_8hardware7IBinderEEEEEE10do_destroyEPvj"
    },
    {
     "mangled_component_name" : "_ZNK7android12SortedVectorINS_16key_value_pair_tINS_8String16ENS_2spINS_8hardware7IBinderEEEEEE7do_copyEPvPKvj"
    },
    {
     "mangled_component_name" : "_ZNK7android12SortedVectorINS_16key_value_pair_tINS_8String16ENS_2spINS_8hardware7IBinderEEEEEE8do_splatEPvPKvj"
    },
    {
     "mangled_component_name" : "_ZNK7android12SortedVectorINS_16key_value_pair_tINS_8String16ENS_2spINS_8hardware7IBinderEEEEEE15do_move_forwardEPvPKvj"
    },
    {
     "mangled_component_name" : "_ZNK7android12SortedVectorINS_16key_value_pair_tINS_8String16ENS_2spINS_8hardware7IBinderEEEEEE16do_move_backwardEPvPKvj"
    },
    {
     "mangled_component_name" : "_ZNK7android12SortedVectorINS_16key_value_pair_tINS_8String16ENS_2spINS_8hardware7IBinderEEEEEE10do_compareEPKvSA_"
    }
   ]
  },
  {
   "alignment" : 1,
   "linker_set_key" : "_ZTIN7android14ReferenceMoverE",
   "name" : "android::ReferenceMover",
   "record_kind" : "class",
   "referenced_type" : "_ZTIN7android14ReferenceMoverE",
   "self_type" : "_ZTIN7android14ReferenceMoverE",
   "size" : 1,
   "source_file" : "/system/core/libutils/include/utils/RefBase.h"
  },
  {
   "alignment" : 4,
   "linker_set_key" : "_ZTIN7android16ReferenceRenamerE",
   "name" : "android::ReferenceRenamer",
   "record_kind" : "class",
   "referenced_type" : "_ZTIN7android16ReferenceRenamerE",
   "self_type" : "_ZTIN7android16ReferenceRenamerE",
   "size" : 4,
   "source_file" : "/system/core/libutils/include/utils/RefBase.h",
   "vtable_components" :
   [
    {
     "kind" : "offset_to_top"
    },
    {
     "kind" : "rtti",
     "mangled_component_name" : "_ZTIN7android16ReferenceRenamerE"
    },
    {
     "is_pure" : true,
     "mangled_component_name" : "_ZNK7android16ReferenceRenamerclEj"
    }
   ]
  },
  {
   "alignment" : 4,
   "base_specifiers" :
   [
    {
     "referenced_type" : "_ZTIN7android10VectorImplE"
    }
   ],
   "linker_set_key" : "_ZTIN7android16SortedVectorImplE",
   "name" : "android::SortedVectorImpl",
   "record_kind" : "class",
   "referenced_type" : "_ZTIN7android16SortedVectorImplE",
   "self_type" : "_ZTIN7android16SortedVectorImplE",
   "size" : 20,
   "source_file" : "/system/core/libutils/include/utils/VectorImpl.h",
   "vtable_components" :
   [
    {
     "kind" : "offset_to_top"
    },
    {
     "kind" : "rtti",
     "mangled_component_name" : "_ZTIN7android16SortedVectorImplE"
    },
    {
     "kind" : "complete_dtor_pointer",
     "mangled_component_name" : "_ZN7android16SortedVectorImplD1Ev"
    },
    {
     "kind" : "deleting_dtor_pointer",
     "mangled_component_name" : "_ZN7android16SortedVectorImplD0Ev"
    },
    {
     "is_pure" : true,
     "mangled_component_name" : "_ZNK7android10VectorImpl12do_constructEPvj"
    },
    {
     "is_pure" : true,
     "mangled_component_name" : "_ZNK7android10VectorImpl10do_destroyEPvj"
    },
    {
     "is_pure" : true,
     "mangled_component_name" : "_ZNK7android10VectorImpl7do_copyEPvPKvj"
    },
    {
     "is_pure" : true,
     "mangled_component_name" : "_ZNK7android10VectorImpl8do_splatEPvPKvj"
    },
    {
     "is_pure" : true,
     "mangled_component_name" : "_ZNK7android10VectorImpl15do_move_forwardEPvPKvj"
    },
    {
     "is_pure" : true,
     "mangled_component_name" : "_ZNK7android10VectorImpl16do_move_backwardEPvPKvj"
    },
    {
     "is_pure" : true,
     "mangled_component_name" : "_ZNK7android16SortedVectorImpl10do_compareEPKvS2_"
    }
   ]
  },
  {
   "alignment" : 1,
   "linker_set_key" : "_ZTIN7android18trait_trivial_copyIbEE",
   "name" : "android::trait_trivial_copy<bool>",
   "referenced_type" : "_ZTIN7android18trait_trivial_copyIbEE",
   "self_type" : "_ZTIN7android18trait_trivial_copyIbEE",
   "size" : 1,
   "source_file" : "/system/core/libutils/include/utils/TypeHelpers.h",
   "template_args" : [ "_ZTIb" ]
  },
  {
   "alignment" : 1,
   "linker_set_key" : "_ZTIN7android18trait_trivial_copyIcEE",
   "name" : "android::trait_trivial_copy<char>",
   "referenced_type" : "_ZTIN7android18trait_trivial_copyIcEE",
   "self_type" : "_ZTIN7android18trait_trivial_copyIcEE",
   "size" : 1,
   "source_file" : "/system/core/libutils/include/utils/TypeHelpers.h",
   "template_args" : [ "_ZTIc" ]
  },
  {
   "alignment" : 1,
   "linker_set_key" : "_ZTIN7android18trait_trivial_copyIdEE",
   "name" : "android::trait_trivial_copy<double>",
   "referenced_type" : "_ZTIN7android18trait_trivial_copyIdEE",
   "self_type" : "_ZTIN7android18trait_trivial_copyIdEE",
   "size" : 1,
   "source_file" : "/system/core/libutils/include/utils/TypeHelpers.h",
   "template_args" : [ "_ZTId" ]
  },
  {
   "alignment" : 1,
   "linker_set_key" : "_ZTIN7android18trait_trivial_copyIfEE",
   "name" : "android::trait_trivial_copy<float>",
   "referenced_type" : "_ZTIN7android18trait_trivial_copyIfEE",
   "self_type" : "_ZTIN7android18trait_trivial_copyIfEE",
   "size" : 1,
   "source_file" : "/system/core/libutils/include/utils/TypeHelpers.h",
   "template_args" : [ "_ZTIf" ]
  },
  {
   "alignment" : 1,
   "linker_set_key" : "_ZTIN7android18trait_trivial_copyIhEE",
   "name" : "android::trait_trivial_copy<unsigned char>",
   "referenced_type" : "_ZTIN7android18trait_trivial_copyIhEE",
   "self_type" : "_ZTIN7android18trait_trivial_copyIhEE",
   "size" : 1,
   "source_file" : "/system/core/libutils/include/utils/TypeHelpers.h",
   "template_args" : [ "_ZTIh" ]
  },
  {
   "alignment" : 1,
   "linker_set_key" : "_ZTIN7android18trait_trivial_copyIiEE",
   "name" : "android::trait_trivial_copy<int>",
   "referenced_type" : "_ZTIN7android18trait_trivial_copyIiEE",
   "self_type" : "_ZTIN7android18trait_trivial_copyIiEE",
   "size" : 1,
   "source_file" : "/system/core/libutils/include/utils/TypeHelpers.h",
   "template_args" : [ "_ZTIi" ]
  },
  {
   "alignment" : 1,
   "linker_set_key" : "_ZTIN7android18trait_trivial_copyIjEE",
   "name" : "android::trait_trivial_copy<unsigned int>",
   "referenced_type" : "_ZTIN7android18trait_trivial_copyIjEE",
   "self_type" : "_ZTIN7android18trait_trivial_copyIjEE",
   "size" : 1,
   "source_file" : "/system/core/libutils/include/utils/TypeHelpers.h",
   "template_args" : [ "_ZTIj" ]
  },
  {
   "alignment" : 1,
   "linker_set_key" : "_ZTIN7android18trait_trivial_copyIlEE",
   "name" : "android::trait_trivial_copy<long>",
   "referenced_type" : "_ZTIN7android18trait_trivial_copyIlEE",
   "self_type" : "_ZTIN7android18trait_trivial_copyIlEE",
   "size" : 1,
   "source_file" : "/system/core/libutils/include/utils/TypeHelpers.h",
   "template_args" : [ "_ZTIl" ]
  },
  {
   "alignment" : 1,
   "linker_set_key" : "_ZTIN7android18trait_trivial_copyImEE",
   "name" : "android::trait_trivial_copy<unsigned long>",
   "referenced_type" : "_ZTIN7android18trait_trivial_copyImEE",
   "self_type" : "_ZTIN7android18trait_trivial_copyImEE",
   "size" : 1,
   "source_file" : "/system/core/libutils/include/utils/TypeHelpers.h",
   "template_args" : [ "_ZTIm" ]
  },
  {
   "alignment" : 1,
   "linker_set_key" : "_ZTIN7android18trait_trivial_copyIsEE",
   "name" : "android::trait_trivial_copy<short>",
   "referenced_type" : "_ZTIN7android18trait_trivial_copyIsEE",
   "self_type" : "_ZTIN7android18trait_trivial_copyIsEE",
   "size" : 1,
   "source_file" : "/system/core/libutils/include/utils/TypeHelpers.h",
   "template_args" : [ "_ZTIs" ]
  },
  {
   "alignment" : 1,
   "linker_set_key" : "_ZTIN7android18trait_trivial_copyItEE",
   "name" : "android::trait_trivial_copy<unsigned short>",
   "referenced_type" : "_ZTIN7android18trait_trivial_copyItEE",
   "self_type" : "_ZTIN7android18trait_trivial_copyItEE",
   "size" : 1,
   "source_file" : "/system/core/libutils/include/utils/TypeHelpers.h",
   "template_args" : [ "_ZTIt" ]
  },
  {
   "alignment" : 1,
   "linker_set_key" : "_ZTIN7android18trait_trivial_copyIvEE",
   "name" : "android::trait_trivial_copy<void>",
   "referenced_type" : "_ZTIN7android18trait_trivial_copyIvEE",
   "self_type" : "_ZTIN7android18trait_trivial_copyIvEE",
   "size" : 1,
   "source_file" : "/system/core/libutils/include/utils/TypeHelpers.h",
   "template_args" : [ "_ZTIv" ]
  },
  {
   "alignment" : 1,
   "linker_set_key" : "_ZTIN7android18trait_trivial_copyIxEE",
   "name" : "android::trait_trivial_copy<long long>",
   "referenced_type" : "_ZTIN7android18trait_trivial_copyIxEE",
   "self_type" : "_ZTIN7android18trait_trivial_copyIxEE",
   "size" : 1,
   "source_file" : "/system/core/libutils/include/utils/TypeHelpers.h",
   "template_args" : [ "_ZTIx" ]
  },
  {
   "alignment" : 1,
   "linker_set_key" : "_ZTIN7android18trait_trivial_copyIyEE",
   "name" : "android::trait_trivial_copy<unsigned long long>",
   "referenced_type" : "_ZTIN7android18trait_trivial_copyIyEE",
   "self_type" : "_ZTIN7android18trait_trivial_copyIyEE",
   "size" : 1,
   "source_file" : "/system/core/libutils/include/utils/TypeHelpers.h",
   "template_args" : [ "_ZTIy" ]
  },
  {
   "alignment" : 1,
   "linker_set_key" : "_ZTIN7android18trait_trivial_ctorIbEE",
   "name" : "android::trait_trivial_ctor<bool>",
   "referenced_type" : "_ZTIN7android18trait_trivial_ctorIbEE",
   "self_type" : "_ZTIN7android18trait_trivial_ctorIbEE",
   "size" : 1,
   "source_file" : "/system/core/libutils/include/utils/TypeHelpers.h",
   "template_args" : [ "_ZTIb" ]
  },
  {
   "alignment" : 1,
   "linker_set_key" : "_ZTIN7android18trait_trivial_ctorIcEE",
   "name" : "android::trait_trivial_ctor<char>",
   "referenced_type" : "_ZTIN7android18trait_trivial_ctorIcEE",
   "self_type" : "_ZTIN7android18trait_trivial_ctorIcEE",
   "size" : 1,
   "source_file" : "/system/core/libutils/include/utils/TypeHelpers.h",
   "template_args" : [ "_ZTIc" ]
  },
  {
   "alignment" : 1,
   "linker_set_key" : "_ZTIN7android18trait_trivial_ctorIdEE",
   "name" : "android::trait_trivial_ctor<double>",
   "referenced_type" : "_ZTIN7android18trait_trivial_ctorIdEE",
   "self_type" : "_ZTIN7android18trait_trivial_ctorIdEE",
   "size" : 1,
   "source_file" : "/system/core/libutils/include/utils/TypeHelpers.h",
   "template_args" : [ "_ZTId" ]
  },
  {
   "alignment" : 1,
   "linker_set_key" : "_ZTIN7android18trait_trivial_ctorIfEE",
   "name" : "android::trait_trivial_ctor<float>",
   "referenced_type" : "_ZTIN7android18trait_trivial_ctorIfEE",
   "self_type" : "_ZTIN7android18trait_trivial_ctorIfEE",
   "size" : 1,
   "source_file" : "/system/core/libutils/include/utils/TypeHelpers.h",
   "template_args" : [ "_ZTIf" ]
  },
  {
   "alignment" : 1,
   "linker_set_key" : "_ZTIN7android18trait_trivial_ctorIhEE",
   "name" : "android::trait_trivial_ctor<unsigned char>",
   "referenced_type" : "_ZTIN7android18trait_trivial_ctorIhEE",
   "self_type" : "_ZTIN7android18trait_trivial_ctorIhEE",
   "size" : 1,
   "source_file" : "/system/core/libutils/include/utils/TypeHelpers.h",
   "template_args" : [ "_ZTIh" ]
  },
  {
   "alignment" : 1,
   "linker_set_key" : "_ZTIN7android18trait_trivial_ctorIiEE",
   "name" : "android::trait_trivial_ctor<int>",
   "referenced_type" : "_ZTIN7android18trait_trivial_ctorIiEE",
   "self_type" : "_ZTIN7android18trait_trivial_ctorIiEE",
   "size" : 1,
   "source_file" : "/system/core/libutils/include/utils/TypeHelpers.h",
   "template_args" : [ "_ZTIi" ]
  },
  {
   "alignment" : 1,
   "linker_set_key" : "_ZTIN7android18trait_trivial_ctorIjEE",
   "name" : "android::trait_trivial_ctor<unsigned int>",
   "referenced_type" : "_ZTIN7android18trait_trivial_ctorIjEE",
   "self_type" : "_ZTIN7android18trait_trivial_ctorIjEE",
   "size" : 1,
   "source_file" : "/system/core/libutils/include/utils/TypeHelpers.h",
   "template_args" : [ "_ZTIj" ]
  },
  {
   "alignment" : 1,
   "linker_set_key" : "_ZTIN7android18trait_trivial_ctorIlEE",
   "name" : "android::trait_trivial_ctor<long>",
   "referenced_type" : "_ZTIN7android18trait_trivial_ctorIlEE",
   "self_type" : "_ZTIN7android18trait_trivial_ctorIlEE",
   "size" : 1,
   "source_file" : "/system/core/libutils/include/utils/TypeHelpers.h",
   "template_args" : [ "_ZTIl" ]
  },
  {
   "alignment" : 1,
   "linker_set_key" : "_ZTIN7android18trait_trivial_ctorImEE",
   "name" : "android::trait_trivial_ctor<unsigned long>",
   "referenced_type" : "_ZTIN7android18trait_trivial_ctorImEE",
   "self_type" : "_ZTIN7android18trait_trivial_ctorImEE",
   "size" : 1,
   "source_file" : "/system/core/libutils/include/utils/TypeHelpers.h",
   "template_args" : [ "_ZTIm" ]
  },
  {
   "alignment" : 1,
   "linker_set_key" : "_ZTIN7android18trait_trivial_ctorIsEE",
   "name" : "android::trait_trivial_ctor<short>",
   "referenced_type" : "_ZTIN7android18trait_trivial_ctorIsEE",
   "self_type" : "_ZTIN7android18trait_trivial_ctorIsEE",
   "size" : 1,
   "source_file" : "/system/core/libutils/include/utils/TypeHelpers.h",
   "template_args" : [ "_ZTIs" ]
  },
  {
   "alignment" : 1,
   "linker_set_key" : "_ZTIN7android18trait_trivial_ctorItEE",
   "name" : "android::trait_trivial_ctor<unsigned short>",
   "referenced_type" : "_ZTIN7android18trait_trivial_ctorItEE",
   "self_type" : "_ZTIN7android18trait_trivial_ctorItEE",
   "size" : 1,
   "source_file" : "/system/core/libutils/include/utils/TypeHelpers.h",
   "template_args" : [ "_ZTIt" ]
  },
  {
   "alignment" : 1,
   "linker_set_key" : "_ZTIN7android18trait_trivial_ctorIvEE",
   "name" : "android::trait_trivial_ctor<void>",
   "referenced_type" : "_ZTIN7android18trait_trivial_ctorIvEE",
   "self_type" : "_ZTIN7android18trait_trivial_ctorIvEE",
   "size" : 1,
   "source_file" : "/system/core/libutils/include/utils/TypeHelpers.h",
   "template_args" : [ "_ZTIv" ]
  },
  {
   "alignment" : 1,
   "linker_set_key" : "_ZTIN7android18trait_trivial_ctorIxEE",
   "name" : "android::trait_trivial_ctor<long long>",
   "referenced_type" : "_ZTIN7android18trait_trivial_ctorIxEE",
   "self_type" : "_ZTIN7android18trait_trivial_ctorIxEE",
   "size" : 1,
   "source_file" : "/system/core/libutils/include/utils/TypeHelpers.h",
   "template_args" : [ "_ZTIx" ]
  },
  {
   "alignment" : 1,
   "linker_set_key" : "_ZTIN7android18trait_trivial_ctorIyEE",
   "name" : "android::trait_trivial_ctor<unsigned long long>",
   "referenced_type" : "_ZTIN7android18trait_trivial_ctorIyEE",
   "self_type" : "_ZTIN7android18trait_trivial_ctorIyEE",
   "size" : 1,
   "source_file" : "/system/core/libutils/include/utils/TypeHelpers.h",
   "template_args" : [ "_ZTIy" ]
  },
  {
   "alignment" : 1,
   "linker_set_key" : "_ZTIN7android18trait_trivial_dtorIbEE",
   "name" : "android::trait_trivial_dtor<bool>",
   "referenced_type" : "_ZTIN7android18trait_trivial_dtorIbEE",
   "self_type" : "_ZTIN7android18trait_trivial_dtorIbEE",
   "size" : 1,
   "source_file" : "/system/core/libutils/include/utils/TypeHelpers.h",
   "template_args" : [ "_ZTIb" ]
  },
  {
   "alignment" : 1,
   "linker_set_key" : "_ZTIN7android18trait_trivial_dtorIcEE",
   "name" : "android::trait_trivial_dtor<char>",
   "referenced_type" : "_ZTIN7android18trait_trivial_dtorIcEE",
   "self_type" : "_ZTIN7android18trait_trivial_dtorIcEE",
   "size" : 1,
   "source_file" : "/system/core/libutils/include/utils/TypeHelpers.h",
   "template_args" : [ "_ZTIc" ]
  },
  {
   "alignment" : 1,
   "linker_set_key" : "_ZTIN7android18trait_trivial_dtorIdEE",
   "name" : "android::trait_trivial_dtor<double>",
   "referenced_type" : "_ZTIN7android18trait_trivial_dtorIdEE",
   "self_type" : "_ZTIN7android18trait_trivial_dtorIdEE",
   "size" : 1,
   "source_file" : "/system/core/libutils/include/utils/TypeHelpers.h",
   "template_args" : [ "_ZTId" ]
  },
  {
   "alignment" : 1,
   "linker_set_key" : "_ZTIN7android18trait_trivial_dtorIfEE",
   "name" : "android::trait_trivial_dtor<float>",
   "referenced_type" : "_ZTIN7android18trait_trivial_dtorIfEE",
   "self_type" : "_ZTIN7android18trait_trivial_dtorIfEE",
   "size" : 1,
   "source_file" : "/system/core/libutils/include/utils/TypeHelpers.h",
   "template_args" : [ "_ZTIf" ]
  },
  {
   "alignment" : 1,
   "linker_set_key" : "_ZTIN7android18trait_trivial_dtorIhEE",
   "name" : "android::trait_trivial_dtor<unsigned char>",
   "referenced_type" : "_ZTIN7android18trait_trivial_dtorIhEE",
   "self_type" : "_ZTIN7android18trait_trivial_dtorIhEE",
   "size" : 1,
   "source_file" : "/system/core/libutils/include/utils/TypeHelpers.h",
   "template_args" : [ "_ZTIh" ]
  },
  {
   "alignment" : 1,
   "linker_set_key" : "_ZTIN7android18trait_trivial_dtorIiEE",
   "name" : "android::trait_trivial_dtor<int>",
   "referenced_type" : "_ZTIN7android18trait_trivial_dtorIiEE",
   "self_type" : "_ZTIN7android18trait_trivial_dtorIiEE",
   "size" : 1,
   "source_file" : "/system/core/libutils/include/utils/TypeHelpers.h",
   "template_args" : [ "_ZTIi" ]
  },
  {
   "alignment" : 1,
   "linker_set_key" : "_ZTIN7android18trait_trivial_dtorIjEE",
   "name" : "android::trait_trivial_dtor<unsigned int>",
   "referenced_type" : "_ZTIN7android18trait_trivial_dtorIjEE",
   "self_type" : "_ZTIN7android18trait_trivial_dtorIjEE",
   "size" : 1,
   "source_file" : "/system/core/libutils/include/utils/TypeHelpers.h",
   "template_args" : [ "_ZTIj" ]
  },
  {
   "alignment" : 1,
   "linker_set_key" : "_ZTIN7android18trait_trivial_dtorIlEE",
   "name" : "android::trait_trivial_dtor<long>",
   "referenced_type" : "_ZTIN7android18trait_trivial_dtorIlEE",
   "self_type" : "_ZTIN7android18trait_trivial_dtorIlEE",
   "size" : 1,
   "source_file" : "/system/core/libutils/include/utils/TypeHelpers.h",
   "template_args" : [ "_ZTIl" ]
  },
  {
   "alignment" : 1,
   "linker_set_key" : "_ZTIN7android18trait_trivial_dtorImEE",
   "name" : "android::trait_trivial_dtor<unsigned long>",
   "referenced_type" : "_ZTIN7android18trait_trivial_dtorImEE",
   "self_type" : "_ZTIN7android18trait_trivial_dtorImEE",
   "size" : 1,
   "source_file" : "/system/core/libutils/include/utils/TypeHelpers.h",
   "template_args" : [ "_ZTIm" ]
  },
  {
   "alignment" : 1,
   "linker_set_key" : "_ZTIN7android18trait_trivial_dtorIsEE",
   "name" : "android::trait_trivial_dtor<short>",
   "referenced_type" : "_ZTIN7android18trait_trivial_dtorIsEE",
   "self_type" : "_ZTIN7android18trait_trivial_dtorIsEE",
   "size" : 1,
   "source_file" : "/system/core/libutils/include/utils/TypeHelpers.h",
   "template_args" : [ "_ZTIs" ]
  },
  {
   "alignment" : 1,
   "linker_set_key" : "_ZTIN7android18trait_trivial_dtorItEE",
   "name" : "android::trait_trivial_dtor<unsigned short>",
   "referenced_type" : "_ZTIN7android18trait_trivial_dtorItEE",
   "self_type" : "_ZTIN7android18trait_trivial_dtorItEE",
   "size" : 1,
   "source_file" : "/system/core/libutils/include/utils/TypeHelpers.h",
   "template_args" : [ "_ZTIt" ]
  },
  {
   "alignment" : 1,
   "linker_set_key" : "_ZTIN7android18trait_trivial_dtorIvEE",
   "name" : "android::trait_trivial_dtor<void>",
   "referenced_type" : "_ZTIN7android18trait_trivial_dtorIvEE",
   "self_type" : "_ZTIN7android18trait_trivial_dtorIvEE",
   "size" : 1,
   "source_file" : "/system/core/libutils/include/utils/TypeHelpers.h",
   "template_args" : [ "_ZTIv" ]
  },
  {
   "alignment" : 1,
   "linker_set_key" : "_ZTIN7android18trait_trivial_dtorIxEE",
   "name" : "android::trait_trivial_dtor<long long>",
   "referenced_type" : "_ZTIN7android18trait_trivial_dtorIxEE",
   "self_type" : "_ZTIN7android18trait_trivial_dtorIxEE",
   "size" : 1,
   "source_file" : "/system/core/libutils/include/utils/TypeHelpers.h",
   "template_args" : [ "_ZTIx" ]
  },
  {
   "alignment" : 1,
   "linker_set_key" : "_ZTIN7android18trait_trivial_dtorIyEE",
   "name" : "android::trait_trivial_dtor<unsigned long long>",
   "referenced_type" : "_ZTIN7android18trait_trivial_dtorIyEE",
   "self_type" : "_ZTIN7android18trait_trivial_dtorIyEE",
   "size" : 1,
   "source_file" : "/system/core/libutils/include/utils/TypeHelpers.h",
   "template_args" : [ "_ZTIy" ]
  },
  {
   "alignment" : 1,
   "linker_set_key" : "_ZTIN7android18trait_trivial_moveINS_7String8EEE",
   "name" : "android::trait_trivial_move<android::String8>",
   "referenced_type" : "_ZTIN7android18trait_trivial_moveINS_7String8EEE",
   "self_type" : "_ZTIN7android18trait_trivial_moveINS_7String8EEE",
   "size" : 1,
   "source_file" : "/system/core/libutils/include/utils/String8.h",
   "template_args" : [ "_ZTIN7android7String8E" ]
  },
  {
   "alignment" : 1,
   "linker_set_key" : "_ZTIN7android18trait_trivial_moveINS_8String16EEE",
   "name" : "android::trait_trivial_move<android::String16>",
   "referenced_type" : "_ZTIN7android18trait_trivial_moveINS_8String16EEE",
   "self_type" : "_ZTIN7android18trait_trivial_moveINS_8String16EEE",
   "size" : 1,
   "source_file" : "/system/core/libutils/include/utils/String16.h",
   "template_args" : [ "_ZTIN7android8String16E" ]
  },
  {
   "alignment" : 1,
   "linker_set_key" : "_ZTIN7android18trait_trivial_moveIbEE",
   "name" : "android::trait_trivial_move<bool>",
   "referenced_type" : "_ZTIN7android18trait_trivial_moveIbEE",
   "self_type" : "_ZTIN7android18trait_trivial_moveIbEE",
   "size" : 1,
   "source_file" : "/system/core/libutils/include/utils/TypeHelpers.h",
   "template_args" : [ "_ZTIb" ]
  },
  {
   "alignment" : 1,
   "linker_set_key" : "_ZTIN7android18trait_trivial_moveIcEE",
   "name" : "android::trait_trivial_move<char>",
   "referenced_type" : "_ZTIN7android18trait_trivial_moveIcEE",
   "self_type" : "_ZTIN7android18trait_trivial_moveIcEE",
   "size" : 1,
   "source_file" : "/system/core/libutils/include/utils/TypeHelpers.h",
   "template_args" : [ "_ZTIc" ]
  },
  {
   "alignment" : 1,
   "linker_set_key" : "_ZTIN7android18trait_trivial_moveIdEE",
   "name" : "android::trait_trivial_move<double>",
   "referenced_type" : "_ZTIN7android18trait_trivial_moveIdEE",
   "self_type" : "_ZTIN7android18trait_trivial_moveIdEE",
   "size" : 1,
   "source_file" : "/system/core/libutils/include/utils/TypeHelpers.h",
   "template_args" : [ "_ZTId" ]
  },
  {
   "alignment" : 1,
   "linker_set_key" : "_ZTIN7android18trait_trivial_moveIfEE",
   "name" : "android::trait_trivial_move<float>",
   "referenced_type" : "_ZTIN7android18trait_trivial_moveIfEE",
   "self_type" : "_ZTIN7android18trait_trivial_moveIfEE",
   "size" : 1,
   "source_file" : "/system/core/libutils/include/utils/TypeHelpers.h",
   "template_args" : [ "_ZTIf" ]
  },
  {
   "alignment" : 1,
   "linker_set_key" : "_ZTIN7android18trait_trivial_moveIhEE",
   "name" : "android::trait_trivial_move<unsigned char>",
   "referenced_type" : "_ZTIN7android18trait_trivial_moveIhEE",
   "self_type" : "_ZTIN7android18trait_trivial_moveIhEE",
   "size" : 1,
   "source_file" : "/system/core/libutils/include/utils/TypeHelpers.h",
   "template_args" : [ "_ZTIh" ]
  },
  {
   "alignment" : 1,
   "linker_set_key" : "_ZTIN7android18trait_trivial_moveIiEE",
   "name" : "android::trait_trivial_move<int>",
   "referenced_type" : "_ZTIN7android18trait_trivial_moveIiEE",
   "self_type" : "_ZTIN7android18trait_trivial_moveIiEE",
   "size" : 1,
   "source_file" : "/system/core/libutils/include/utils/TypeHelpers.h",
   "template_args" : [ "_ZTIi" ]
  },
  {
   "alignment" : 1,
   "linker_set_key" : "_ZTIN7android18trait_trivial_moveIjEE",
   "name" : "android::trait_trivial_move<unsigned int>",
   "referenced_type" : "_ZTIN7android18trait_trivial_moveIjEE",
   "self_type" : "_ZTIN7android18trait_trivial_moveIjEE",
   "size" : 1,
   "source_file" : "/system/core/libutils/include/utils/TypeHelpers.h",
   "template_args" : [ "_ZTIj" ]
  },
  {
   "alignment" : 1,
   "linker_set_key" : "_ZTIN7android18trait_trivial_moveIlEE",
   "name" : "android::trait_trivial_move<long>",
   "referenced_type" : "_ZTIN7android18trait_trivial_moveIlEE",
   "self_type" : "_ZTIN7android18trait_trivial_moveIlEE",
   "size" : 1,
   "source_file" : "/system/core/libutils/include/utils/TypeHelpers.h",
   "template_args" : [ "_ZTIl" ]
  },
  {
   "alignment" : 1,
   "linker_set_key" : "_ZTIN7android18trait_trivial_moveImEE",
   "name" : "android::trait_trivial_move<unsigned long>",
   "referenced_type" : "_ZTIN7android18trait_trivial_moveImEE",
   "self_type" : "_ZTIN7android18trait_trivial_moveImEE",
   "size" : 1,
   "source_file" : "/system/core/libutils/include/utils/TypeHelpers.h",
   "template_args" : [ "_ZTIm" ]
  },
  {
   "alignment" : 1,
   "linker_set_key" : "_ZTIN7android18trait_trivial_moveIsEE",
   "name" : "android::trait_trivial_move<short>",
   "referenced_type" : "_ZTIN7android18trait_trivial_moveIsEE",
   "self_type" : "_ZTIN7android18trait_trivial_moveIsEE",
   "size" : 1,
   "source_file" : "/system/core/libutils/include/utils/TypeHelpers.h",
   "template_args" : [ "_ZTIs" ]
  },
  {
   "alignment" : 1,
   "linker_set_key" : "_ZTIN7android18trait_trivial_moveItEE",
   "name" : "android::trait_trivial_move<unsigned short>",
   "referenced_type" : "_ZTIN7android18trait_trivial_moveItEE",
   "self_type" : "_ZTIN7android18trait_trivial_moveItEE",
   "size" : 1,
   "source_file" : "/system/core/libutils/include/utils/TypeHelpers.h",
   "template_args" : [ "_ZTIt" ]
  },
  {
   "alignment" : 1,
   "linker_set_key" : "_ZTIN7android18trait_trivial_moveIvEE",
   "name" : "android::trait_trivial_move<void>",
   "referenced_type" : "_ZTIN7android18trait_trivial_moveIvEE",
   "self_type" : "_ZTIN7android18trait_trivial_moveIvEE",
   "size" : 1,
   "source_file" : "/system/core/libutils/include/utils/TypeHelpers.h",
   "template_args" : [ "_ZTIv" ]
  },
  {
   "alignment" : 1,
   "linker_set_key" : "_ZTIN7android18trait_trivial_moveIxEE",
   "name" : "android::trait_trivial_move<long long>",
   "referenced_type" : "_ZTIN7android18trait_trivial_moveIxEE",
   "self_type" : "_ZTIN7android18trait_trivial_moveIxEE",
   "size" : 1,
   "source_file" : "/system/core/libutils/include/utils/TypeHelpers.h",
   "template_args" : [ "_ZTIx" ]
  },
  {
   "alignment" : 1,
   "linker_set_key" : "_ZTIN7android18trait_trivial_moveIyEE",
   "name" : "android::trait_trivial_move<unsigned long long>",
   "referenced_type" : "_ZTIN7android18trait_trivial_moveIyEE",
   "self_type" : "_ZTIN7android18trait_trivial_moveIyEE",
   "size" : 1,
   "source_file" : "/system/core/libutils/include/utils/TypeHelpers.h",
   "template_args" : [ "_ZTIy" ]
  },
  {
   "alignment" : 4,
   "base_specifiers" :
   [
    {
     "referenced_type" : "_ZTIN7android12LightRefBaseINS_19VirtualLightRefBaseEEE"
    }
   ],
   "linker_set_key" : "_ZTIN7android19VirtualLightRefBaseE",
   "name" : "android::VirtualLightRefBase",
   "record_kind" : "class",
   "referenced_type" : "_ZTIN7android19VirtualLightRefBaseE",
   "self_type" : "_ZTIN7android19VirtualLightRefBaseE",
   "size" : 8,
   "source_file" : "/system/core/libutils/include/utils/LightRefBase.h",
   "vtable_components" :
   [
    {
     "kind" : "offset_to_top"
    },
    {
     "kind" : "rtti",
     "mangled_component_name" : "_ZTIN7android19VirtualLightRefBaseE"
    },
    {
     "kind" : "complete_dtor_pointer",
     "mangled_component_name" : "_ZN7android19VirtualLightRefBaseD1Ev"
    },
    {
     "kind" : "deleting_dtor_pointer",
     "mangled_component_name" : "_ZN7android19VirtualLightRefBaseD0Ev"
    }
   ]
  },
  {
   "alignment" : 4,
   "fields" :
   [
    {
     "access" : "private",
     "field_name" : "m_ptr",
     "referenced_type" : "_ZTIPN7android10frameworks16schedulerservice4V1_024ISchedulingPolicyServiceE"
    }
   ],
   "linker_set_key" : "_ZTIN7android2spINS_10frameworks16schedulerservice4V1_024ISchedulingPolicyServiceEEE",
   "name" : "android::sp<android::frameworks::schedulerservice::V1_0::ISchedulingPolicyService>",
   "record_kind" : "class",
   "referenced_type" : "_ZTIN7android2spINS_10frameworks16schedulerservice4V1_024ISchedulingPolicyServiceEEE",
   "self_type" : "_ZTIN7android2spINS_10frameworks16schedulerservice4V1_024ISchedulingPolicyServiceEEE",
   "size" : 4,
   "source_file" : "/system/core/libutils/include/utils/StrongPointer.h",
   "template_args" :
   [
    "_ZTIN7android10frameworks16schedulerservice4V1_024ISchedulingPolicyServiceE"
   ]
  },
  {
   "alignment" : 4,
   "fields" :
   [
    {
     "access" : "private",
     "field_name" : "m_ptr",
     "referenced_type" : "_ZTIPN7android4hidl4base4V1_05IBaseE"
    }
   ],
   "linker_set_key" : "_ZTIN7android2spINS_4hidl4base4V1_05IBaseEEE",
   "name" : "android::sp<android::hidl::base::V1_0::IBase>",
   "record_kind" : "class",
   "referenced_type" : "_ZTIN7android2spINS_4hidl4base4V1_05IBaseEEE",
   "self_type" : "_ZTIN7android2spINS_4hidl4base4V1_05IBaseEEE",
   "size" : 4,
   "source_file" : "/system/core/libutils/include/utils/StrongPointer.h",
   "template_args" : [ "_ZTIN7android4hidl4base4V1_05IBaseE" ]
  },
  {
   "alignment" : 4,
   "fields" :
   [
    {
     "access" : "private",
     "field_name" : "m_ptr",
     "referenced_type" : "_ZTIPN7android4hidl7manager4V1_015IServiceManagerE"
    }
   ],
   "linker_set_key" : "_ZTIN7android2spINS_4hidl7manager4V1_015IServiceManagerEEE",
   "name" : "android::sp<android::hidl::manager::V1_0::IServiceManager>",
   "record_kind" : "class",
   "referenced_type" : "_ZTIN7android2spINS_4hidl7manager4V1_015IServiceManagerEEE",
   "self_type" : "_ZTIN7android2spINS_4hidl7manager4V1_015IServiceManagerEEE",
   "size" : 4,
   "source_file" : "/system/core/libutils/include/utils/StrongPointer.h",
   "template_args" : [ "_ZTIN7android4hidl7manager4V1_015IServiceManagerE" ]
  },
  {
   "alignment" : 4,
   "fields" :
   [
    {
     "access" : "private",
     "field_name" : "m_ptr",
     "referenced_type" : "_ZTIPN7android4hidl7manager4V1_020IServiceNotificationE"
    }
   ],
   "linker_set_key" : "_ZTIN7android2spINS_4hidl7manager4V1_020IServiceNotificationEEE",
   "name" : "android::sp<android::hidl::manager::V1_0::IServiceNotification>",
   "record_kind" : "class",
   "referenced_type" : "_ZTIN7android2spINS_4hidl7manager4V1_020IServiceNotificationEEE",
   "self_type" : "_ZTIN7android2spINS_4hidl7manager4V1_020IServiceNotificationEEE",
   "size" : 4,
   "source_file" : "/system/core/libutils/include/utils/StrongPointer.h",
   "template_args" : [ "_ZTIN7android4hidl7manager4V1_020IServiceNotificationE" ]
  },
  {
   "alignment" : 4,
   "fields" :
   [
    {
     "access" : "private",
     "field_name" : "m_ptr",
     "referenced_type" : "_ZTIPN7android6ThreadE"
    }
   ],
   "linker_set_key" : "_ZTIN7android2spINS_6ThreadEEE",
   "name" : "android::sp<android::Thread>",
   "record_kind" : "class",
   "referenced_type" : "_ZTIN7android2spINS_6ThreadEEE",
   "self_type" : "_ZTIN7android2spINS_6ThreadEEE",
   "size" : 4,
   "source_file" : "/system/core/libutils/include/utils/StrongPointer.h",
   "template_args" : [ "_ZTIN7android6ThreadE" ]
  },
  {
   "alignment" : 4,
   "fields" :
   [
    {
     "access" : "private",
     "field_name" : "m_ptr",
     "referenced_type" : "_ZTIPN7android8hardware10IInterfaceE"
    }
   ],
   "linker_set_key" : "_ZTIN7android2spINS_8hardware10IInterfaceEEE",
   "name" : "android::sp<android::hardware::IInterface>",
   "record_kind" : "class",
   "referenced_type" : "_ZTIN7android2spINS_8hardware10IInterfaceEEE",
   "self_type" : "_ZTIN7android2spINS_8hardware10IInterfaceEEE",
   "size" : 4,
   "source_file" : "/system/core/libutils/include/utils/StrongPointer.h",
   "template_args" : [ "_ZTIN7android8hardware10IInterfaceE" ]
  },
  {
   "alignment" : 4,
   "fields" :
   [
    {
     "access" : "private",
     "field_name" : "m_ptr",
     "referenced_type" : "_ZTIPN7android8hardware12ProcessStateE"
    }
   ],
   "linker_set_key" : "_ZTIN7android2spINS_8hardware12ProcessStateEEE",
   "name" : "android::sp<android::hardware::ProcessState>",
   "record_kind" : "class",
   "referenced_type" : "_ZTIN7android2spINS_8hardware12ProcessStateEEE",
   "self_type" : "_ZTIN7android2spINS_8hardware12ProcessStateEEE",
   "size" : 4,
   "source_file" : "/system/core/libutils/include/utils/StrongPointer.h",
   "template_args" : [ "_ZTIN7android8hardware12ProcessStateE" ]
  },
  {
   "alignment" : 4,
   "fields" :
   [
    {
     "access" : "private",
     "field_name" : "m_ptr",
     "referenced_type" : "_ZTIPN7android8hardware20hidl_death_recipientE"
    }
   ],
   "linker_set_key" : "_ZTIN7android2spINS_8hardware20hidl_death_recipientEEE",
   "name" : "android::sp<android::hardware::hidl_death_recipient>",
   "record_kind" : "class",
   "referenced_type" : "_ZTIN7android2spINS_8hardware20hidl_death_recipientEEE",
   "self_type" : "_ZTIN7android2spINS_8hardware20hidl_death_recipientEEE",
   "size" : 4,
   "source_file" : "/system/core/libutils/include/utils/StrongPointer.h",
   "template_args" : [ "_ZTIN7android8hardware20hidl_death_recipientE" ]
  },
  {
   "alignment" : 4,
   "fields" :
   [
    {
     "access" : "private",
     "field_name" : "m_ptr",
     "referenced_type" : "_ZTIPN7android8hardware27hidl_binder_death_recipientE"
    }
   ],
   "linker_set_key" : "_ZTIN7android2spINS_8hardware27hidl_binder_death_recipientEEE",
   "name" : "android::sp<android::hardware::hidl_binder_death_recipient>",
   "record_kind" : "class",
   "referenced_type" : "_ZTIN7android2spINS_8hardware27hidl_binder_death_recipientEEE",
   "self_type" : "_ZTIN7android2spINS_8hardware27hidl_binder_death_recipientEEE",
   "size" : 4,
   "source_file" : "/system/core/libutils/include/utils/StrongPointer.h",
   "template_args" : [ "_ZTIN7android8hardware27hidl_binder_death_recipientE" ]
  },
  {
   "alignment" : 4,
   "fields" :
   [
    {
     "access" : "private",
     "field_name" : "m_ptr",
     "referenced_type" : "_ZTIPN7android8hardware7IBinder14DeathRecipientE"
    }
   ],
   "linker_set_key" : "_ZTIN7android2spINS_8hardware7IBinder14DeathRecipientEEE",
   "name" : "android::sp<android::hardware::IBinder::DeathRecipient>",
   "record_kind" : "class",
   "referenced_type" : "_ZTIN7android2spINS_8hardware7IBinder14DeathRecipientEEE",
   "self_type" : "_ZTIN7android2spINS_8hardware7IBinder14DeathRecipientEEE",
   "size" : 4,
   "source_file" : "/system/core/libutils/include/utils/StrongPointer.h",
   "template_args" : [ "_ZTIN7android8hardware7IBinder14DeathRecipientE" ]
  },
  {
   "alignment" : 4,
   "fields" :
   [
    {
     "access" : "private",
     "field_name" : "m_ptr",
     "referenced_type" : "_ZTIPN7android8hardware7IBinderE"
    }
   ],
   "linker_set_key" : "_ZTIN7android2spINS_8hardware7IBinderEEE",
   "name" : "android::sp<android::hardware::IBinder>",
   "record_kind" : "class",
   "referenced_type" : "_ZTIN7android2spINS_8hardware7IBinderEEE",
   "self_type" : "_ZTIN7android2spINS_8hardware7IBinderEEE",
   "size" : 4,
   "source_file" : "/system/core/libutils/include/utils/StrongPointer.h",
   "template_args" : [ "_ZTIN7android8hardware7IBinderE" ]
  },
  {
   "alignment" : 4,
   "fields" :
   [
    {
     "access" : "private",
     "field_name" : "m_ptr",
     "referenced_type" : "_ZTIPN7android8hardware9BHwBinderE"
    }
   ],
   "linker_set_key" : "_ZTIN7android2spINS_8hardware9BHwBinderEEE",
   "name" : "android::sp<android::hardware::BHwBinder>",
   "record_kind" : "class",
   "referenced_type" : "_ZTIN7android2spINS_8hardware9BHwBinderEEE",
   "self_type" : "_ZTIN7android2spINS_8hardware9BHwBinderEEE",
   "size" : 4,
   "source_file" : "/system/core/libutils/include/utils/StrongPointer.h",
   "template_args" : [ "_ZTIN7android8hardware9BHwBinderE" ]
  },
  {
   "alignment" : 4,
   "fields" :
   [
    {
     "access" : "private",
     "field_name" : "m_ptr",
     "referenced_type" : "_ZTIPN7android4hidl4base4V1_05IBaseE"
    },
    {
     "access" : "private",
     "field_name" : "m_refs",
     "field_offset" : 32,
     "referenced_type" : "_ZTIPN7android7RefBase12weakref_typeE"
    }
   ],
   "linker_set_key" : "_ZTIN7android2wpINS_4hidl4base4V1_05IBaseEEE",
   "name" : "android::wp<android::hidl::base::V1_0::IBase>",
   "record_kind" : "class",
   "referenced_type" : "_ZTIN7android2wpINS_4hidl4base4V1_05IBaseEEE",
   "self_type" : "_ZTIN7android2wpINS_4hidl4base4V1_05IBaseEEE",
   "size" : 8,
   "source_file" : "/system/core/libutils/include/utils/RefBase.h",
   "template_args" : [ "_ZTIN7android4hidl4base4V1_05IBaseE" ]
  },
  {
   "alignment" : 4,
   "fields" :
   [
    {
     "access" : "private",
     "field_name" : "m_ptr",
     "referenced_type" : "_ZTIPN7android8hardware20hidl_death_recipientE"
    },
    {
     "access" : "private",
     "field_name" : "m_refs",
     "field_offset" : 32,
     "referenced_type" : "_ZTIPN7android7RefBase12weakref_typeE"
    }
   ],
   "linker_set_key" : "_ZTIN7android2wpINS_8hardware20hidl_death_recipientEEE",
   "name" : "android::wp<android::hardware::hidl_death_recipient>",
   "record_kind" : "class",
   "referenced_type" : "_ZTIN7android2wpINS_8hardware20hidl_death_recipientEEE",
   "self_type" : "_ZTIN7android2wpINS_8hardware20hidl_death_recipientEEE",
   "size" : 8,
   "source_file" : "/system/core/libutils/include/utils/RefBase.h",
   "template_args" : [ "_ZTIN7android8hardware20hidl_death_recipientE" ]
  },
  {
   "alignment" : 4,
   "fields" :
   [
    {
     "access" : "private",
     "field_name" : "m_ptr",
     "referenced_type" : "_ZTIPN7android8hardware7IBinder14DeathRecipientE"
    },
    {
     "access" : "private",
     "field_name" : "m_refs",
     "field_offset" : 32,
     "referenced_type" : "_ZTIPN7android7RefBase12weakref_typeE"
    }
   ],
   "linker_set_key" : "_ZTIN7android2wpINS_8hardware7IBinder14DeathRecipientEEE",
   "name" : "android::wp<android::hardware::IBinder::DeathRecipient>",
   "record_kind" : "class",
   "referenced_type" : "_ZTIN7android2wpINS_8hardware7IBinder14DeathRecipientEEE",
   "self_type" : "_ZTIN7android2wpINS_8hardware7IBinder14DeathRecipientEEE",
   "size" : 8,
   "source_file" : "/system/core/libutils/include/utils/RefBase.h",
   "template_args" : [ "_ZTIN7android8hardware7IBinder14DeathRecipientE" ]
  },
  {
   "alignment" : 4,
   "fields" :
   [
    {
     "access" : "private",
     "field_name" : "m_ptr",
     "referenced_type" : "_ZTIPN7android8hardware9BHwBinderE"
    },
    {
     "access" : "private",
     "field_name" : "m_refs",
     "field_offset" : 32,
     "referenced_type" : "_ZTIPN7android7RefBase12weakref_typeE"
    }
   ],
   "linker_set_key" : "_ZTIN7android2wpINS_8hardware9BHwBinderEEE",
   "name" : "android::wp<android::hardware::BHwBinder>",
   "record_kind" : "class",
   "referenced_type" : "_ZTIN7android2wpINS_8hardware9BHwBinderEEE",
   "self_type" : "_ZTIN7android2wpINS_8hardware9BHwBinderEEE",
   "size" : 8,
   "source_file" : "/system/core/libutils/include/utils/RefBase.h",
   "template_args" : [ "_ZTIN7android8hardware9BHwBinderE" ]
  },
  {
   "alignment" : 4,
   "base_specifiers" :
   [
    {
     "is_virtual" : true,
     "referenced_type" : "_ZTIN7android7RefBaseE"
    }
   ],
   "linker_set_key" : "_ZTIN7android4hidl4base4V1_05IBaseE",
   "name" : "android::hidl::base::V1_0::IBase",
   "referenced_type" : "_ZTIN7android4hidl4base4V1_05IBaseE",
   "self_type" : "_ZTIN7android4hidl4base4V1_05IBaseE",
   "size" : 12,
   "source_file" : "/out/soong/.intermediates/system/libhidl/transport/base/1.0/android.hidl.base@1.0_genc++_headers/gen/android/hidl/base/1.0/IBase.h",
   "vtable_components" :
   [
    {
     "component_value" : 4,
     "kind" : "vbase_offset"
    },
    {
     "kind" : "offset_to_top"
    },
    {
     "kind" : "rtti",
     "mangled_component_name" : "_ZTIN7android4hidl4base4V1_05IBaseE"
    },
    {
     "mangled_component_name" : "_ZNK7android4hidl4base4V1_05IBase8isRemoteEv"
    },
    {
     "mangled_component_name" : "_ZN7android4hidl4base4V1_05IBase14interfaceChainENSt3__18functionIFvRKNS_8hardware8hidl_vecINS6_11hidl_stringEEEEEE"
    },
    {
     "mangled_component_name" : "_ZN7android4hidl4base4V1_05IBase5debugERKNS_8hardware11hidl_handleERKNS4_8hidl_vecINS4_11hidl_stringEEE"
    },
    {
     "mangled_component_name" : "_ZN7android4hidl4base4V1_05IBase19interfaceDescriptorENSt3__18functionIFvRKNS_8hardware11hidl_stringEEEE"
    },
    {
     "mangled_component_name" : "_ZN7android4hidl4base4V1_05IBase12getHashChainENSt3__18functionIFvRKNS_8hardware8hidl_vecINS6_10hidl_arrayIhLj32EJEEEEEEEE"
    },
    {
     "mangled_component_name" : "_ZN7android4hidl4base4V1_05IBase21setHALInstrumentationEv"
    },
    {
     "mangled_component_name" : "_ZN7android4hidl4base4V1_05IBase11linkToDeathERKNS_2spINS_8hardware20hidl_death_recipientEEEy"
    },
    {
     "mangled_component_name" : "_ZN7android4hidl4base4V1_05IBase4pingEv"
    },
    {
     "mangled_component_name" : "_ZN7android4hidl4base4V1_05IBase12getDebugInfoENSt3__18functionIFvRKNS2_9DebugInfoEEEE"
    },
    {
     "mangled_component_name" : "_ZN7android4hidl4base4V1_05IBase21notifySyspropsChangedEv"
    },
    {
     "mangled_component_name" : "_ZN7android4hidl4base4V1_05IBase13unlinkToDeathERKNS_2spINS_8hardware20hidl_death_recipientEEE"
    },
    {
     "kind" : "complete_dtor_pointer",
     "mangled_component_name" : "_ZN7android4hidl4base4V1_05IBaseD1Ev"
    },
    {
     "kind" : "deleting_dtor_pointer",
     "mangled_component_name" : "_ZN7android4hidl4base4V1_05IBaseD0Ev"
    },
    {
     "kind" : "vcall_offset"
    },
    {
     "kind" : "vcall_offset"
    },
    {
     "kind" : "vcall_offset"
    },
    {
     "kind" : "vcall_offset"
    },
    {
     "component_value" : -4,
     "kind" : "vcall_offset"
    },
    {
     "component_value" : -4,
     "kind" : "offset_to_top"
    },
    {
     "kind" : "rtti",
     "mangled_component_name" : "_ZTIN7android4hidl4base4V1_05IBaseE"
    },
    {
     "kind" : "complete_dtor_pointer",
     "mangled_component_name" : "_ZTv0_n12_N7android4hidl4base4V1_05IBaseD1Ev"
    },
    {
     "kind" : "deleting_dtor_pointer",
     "mangled_component_name" : "_ZTv0_n12_N7android4hidl4base4V1_05IBaseD0Ev"
    },
    {
     "mangled_component_name" : "_ZN7android7RefBase10onFirstRefEv"
    },
    {
     "mangled_component_name" : "_ZN7android7RefBase15onLastStrongRefEPKv"
    },
    {
     "mangled_component_name" : "_ZN7android7RefBase20onIncStrongAttemptedEjPKv"
    },
    {
     "mangled_component_name" : "_ZN7android7RefBase13onLastWeakRefEPKv"
    }
   ]
  },
  {
   "alignment" : 4,
   "base_specifiers" :
   [
    {
     "referenced_type" : "_ZTIN7android8hardware9BHwBinderE"
    },
    {
     "referenced_type" : "_ZTIN7android8hardware7details16HidlInstrumentorE"
    }
   ],
   "fields" :
   [
    {
     "access" : "private",
     "field_name" : "_hidl_mImpl",
     "field_offset" : 512,
     "referenced_type" : "_ZTIN7android2spINS_4hidl4base4V1_05IBaseEEE"
    }
   ],
   "linker_set_key" : "_ZTIN7android4hidl4base4V1_08BnHwBaseE",
   "name" : "android::hidl::base::V1_0::BnHwBase",
   "referenced_type" : "_ZTIN7android4hidl4base4V1_08BnHwBaseE",
   "self_type" : "_ZTIN7android4hidl4base4V1_08BnHwBaseE",
   "size" : 76,
   "source_file" : "/out/soong/.intermediates/system/libhidl/transport/base/1.0/android.hidl.base@1.0_genc++_headers/gen/android/hidl/base/1.0/BnHwBase.h",
   "vtable_components" :
   [
    {
     "component_value" : 68,
     "kind" : "vbase_offset"
    },
    {
     "kind" : "offset_to_top"
    },
    {
     "kind" : "rtti",
     "mangled_component_name" : "_ZTIN7android4hidl4base4V1_08BnHwBaseE"
    },
    {
     "mangled_component_name" : "_ZN7android8hardware9BHwBinder8transactEjRKNS0_6ParcelEPS2_jNSt3__18functionIFvRS2_EEE"
    },
    {
     "mangled_component_name" : "_ZN7android8hardware9BHwBinder11linkToDeathERKNS_2spINS0_7IBinder14DeathRecipientEEEPvj"
    },
    {
     "mangled_component_name" : "_ZN7android8hardware9BHwBinder13unlinkToDeathERKNS_2wpINS0_7IBinder14DeathRecipientEEEPvjPS5_"
    },
    {
     "mangled_component_name" : "_ZNK7android4hidl4base4V1_08BnHwBase13checkSubclassEPKv"
    },
    {
     "mangled_component_name" : "_ZN7android8hardware9BHwBinder12attachObjectEPKvPvS4_PFvS3_S4_S4_E"
    },
    {
     "mangled_component_name" : "_ZNK7android8hardware9BHwBinder10findObjectEPKv"
    },
    {
     "mangled_component_name" : "_ZN7android8hardware9BHwBinder12detachObjectEPKv"
    },
    {
     "mangled_component_name" : "_ZN7android8hardware9BHwBinder11localBinderEv"
    },
    {
     "mangled_component_name" : "_ZN7android8hardware7IBinder12remoteBinderEv"
    },
    {
     "kind" : "complete_dtor_pointer",
     "mangled_component_name" : "_ZN7android4hidl4base4V1_08BnHwBaseD1Ev"
    },
    {
     "kind" : "deleting_dtor_pointer",
     "mangled_component_name" : "_ZN7android4hidl4base4V1_08BnHwBaseD0Ev"
    },
    {
     "mangled_component_name" : "_ZN7android4hidl4base4V1_08BnHwBase10onTransactEjRKNS_8hardware6ParcelEPS5_jNSt3__18functionIFvRS5_EEE"
    },
    {
     "component_value" : -20,
     "kind" : "offset_to_top"
    },
    {
     "kind" : "rtti",
     "mangled_component_name" : "_ZTIN7android4hidl4base4V1_08BnHwBaseE"
    },
    {
     "kind" : "complete_dtor_pointer",
     "mangled_component_name" : "_ZThn20_N7android4hidl4base4V1_08BnHwBaseD1Ev"
    },
    {
     "kind" : "deleting_dtor_pointer",
     "mangled_component_name" : "_ZThn20_N7android4hidl4base4V1_08BnHwBaseD0Ev"
    },
    {
     "kind" : "vcall_offset"
    },
    {
     "kind" : "vcall_offset"
    },
    {
     "kind" : "vcall_offset"
    },
    {
     "kind" : "vcall_offset"
    },
    {
     "component_value" : -68,
     "kind" : "vcall_offset"
    },
    {
     "component_value" : -68,
     "kind" : "offset_to_top"
    },
    {
     "kind" : "rtti",
     "mangled_component_name" : "_ZTIN7android4hidl4base4V1_08BnHwBaseE"
    },
    {
     "kind" : "complete_dtor_pointer",
     "mangled_component_name" : "_ZTv0_n12_N7android4hidl4base4V1_08BnHwBaseD1Ev"
    },
    {
     "kind" : "deleting_dtor_pointer",
     "mangled_component_name" : "_ZTv0_n12_N7android4hidl4base4V1_08BnHwBaseD0Ev"
    },
    {
     "mangled_component_name" : "_ZN7android7RefBase10onFirstRefEv"
    },
    {
     "mangled_component_name" : "_ZN7android7RefBase15onLastStrongRefEPKv"
    },
    {
     "mangled_component_name" : "_ZN7android7RefBase20onIncStrongAttemptedEjPKv"
    },
    {
     "mangled_component_name" : "_ZN7android7RefBase13onLastWeakRefEPKv"
    }
   ]
  },
  {
   "alignment" : 4,
   "base_specifiers" :
   [
    {
     "referenced_type" : "_ZTIN7android8hardware11BpInterfaceINS_4hidl4base4V1_05IBaseEEE"
    },
    {
     "referenced_type" : "_ZTIN7android8hardware7details16HidlInstrumentorE"
    }
   ],
   "fields" :
   [
    {
     "access" : "private",
     "field_name" : "_hidl_mMutex",
     "field_offset" : 544,
     "referenced_type" : "_ZTINSt3__15mutexE"
    },
    {
     "access" : "private",
     "field_name" : "_hidl_mDeathRecipients",
     "field_offset" : 576,
     "referenced_type" : "_ZTINSt3__16vectorIN7android2spINS1_8hardware27hidl_binder_death_recipientEEENS_9allocatorIS5_EEEE"
    }
   ],
   "linker_set_key" : "_ZTIN7android4hidl4base4V1_08BpHwBaseE",
   "name" : "android::hidl::base::V1_0::BpHwBase",
   "referenced_type" : "_ZTIN7android4hidl4base4V1_08BpHwBaseE",
   "self_type" : "_ZTIN7android4hidl4base4V1_08BpHwBaseE",
   "size" : 92,
   "source_file" : "/out/soong/.intermediates/system/libhidl/transport/base/1.0/android.hidl.base@1.0_genc++_headers/gen/android/hidl/base/1.0/BpHwBase.h",
   "vtable_components" :
   [
    {
     "component_value" : 84,
     "kind" : "vbase_offset"
    },
    {
     "kind" : "offset_to_top"
    },
    {
     "kind" : "rtti",
     "mangled_component_name" : "_ZTIN7android4hidl4base4V1_08BpHwBaseE"
    },
    {
     "mangled_component_name" : "_ZNK7android4hidl4base4V1_08BpHwBase8isRemoteEv"
    },
    {
     "mangled_component_name" : "_ZN7android4hidl4base4V1_08BpHwBase14interfaceChainENSt3__18functionIFvRKNS_8hardware8hidl_vecINS6_11hidl_stringEEEEEE"
    },
    {
     "mangled_component_name" : "_ZN7android4hidl4base4V1_08BpHwBase5debugERKNS_8hardware11hidl_handleERKNS4_8hidl_vecINS4_11hidl_stringEEE"
    },
    {
     "mangled_component_name" : "_ZN7android4hidl4base4V1_08BpHwBase19interfaceDescriptorENSt3__18functionIFvRKNS_8hardware11hidl_stringEEEE"
    },
    {
     "mangled_component_name" : "_ZN7android4hidl4base4V1_08BpHwBase12getHashChainENSt3__18functionIFvRKNS_8hardware8hidl_vecINS6_10hidl_arrayIhLj32EJEEEEEEEE"
    },
    {
     "mangled_component_name" : "_ZN7android4hidl4base4V1_08BpHwBase21setHALInstrumentationEv"
    },
    {
     "mangled_component_name" : "_ZN7android4hidl4base4V1_08BpHwBase11linkToDeathERKNS_2spINS_8hardware20hidl_death_recipientEEEy"
    },
    {
     "mangled_component_name" : "_ZN7android4hidl4base4V1_08BpHwBase4pingEv"
    },
    {
     "mangled_component_name" : "_ZN7android4hidl4base4V1_08BpHwBase12getDebugInfoENSt3__18functionIFvRKNS2_9DebugInfoEEEE"
    },
    {
     "mangled_component_name" : "_ZN7android4hidl4base4V1_08BpHwBase21notifySyspropsChangedEv"
    },
    {
     "mangled_component_name" : "_ZN7android4hidl4base4V1_08BpHwBase13unlinkToDeathERKNS_2spINS_8hardware20hidl_death_recipientEEE"
    },
    {
     "kind" : "complete_dtor_pointer",
     "mangled_component_name" : "_ZN7android4hidl4base4V1_08BpHwBaseD1Ev"
    },
    {
     "kind" : "deleting_dtor_pointer",
     "mangled_component_name" : "_ZN7android4hidl4base4V1_08BpHwBaseD0Ev"
    },
    {
     "mangled_component_name" : "_ZN7android8hardware11BpInterfaceINS_4hidl4base4V1_05IBaseEE10onAsBinderEv"
    },
    {
     "mangled_component_name" : "_ZN7android4hidl4base4V1_08BpHwBase15onLastStrongRefEPKv"
    },
    {
     "component_value" : 80,
     "kind" : "vbase_offset"
    },
    {
     "component_value" : -4,
     "kind" : "offset_to_top"
    },
    {
     "kind" : "rtti",
     "mangled_component_name" : "_ZTIN7android4hidl4base4V1_08BpHwBaseE"
    },
    {
     "kind" : "complete_dtor_pointer",
     "mangled_component_name" : "_ZThn4_N7android4hidl4base4V1_08BpHwBaseD1Ev"
    },
    {
     "kind" : "deleting_dtor_pointer",
     "mangled_component_name" : "_ZThn4_N7android4hidl4base4V1_08BpHwBaseD0Ev"
    },
    {
     "mangled_component_name" : "_ZThn4_N7android8hardware11BpInterfaceINS_4hidl4base4V1_05IBaseEE10onAsBinderEv"
    },
    {
     "component_value" : 76,
     "kind" : "vbase_offset"
    },
    {
     "component_value" : -8,
     "kind" : "offset_to_top"
    },
    {
     "kind" : "rtti",
     "mangled_component_name" : "_ZTIN7android4hidl4base4V1_08BpHwBaseE"
    },
    {
     "kind" : "complete_dtor_pointer",
     "mangled_component_name" : "_ZThn8_N7android4hidl4base4V1_08BpHwBaseD1Ev"
    },
    {
     "kind" : "deleting_dtor_pointer",
     "mangled_component_name" : "_ZThn8_N7android4hidl4base4V1_08BpHwBaseD0Ev"
    },
    {
     "mangled_component_name" : "_ZN7android8hardware11BpHwRefBase10onFirstRefEv"
    },
    {
     "mangled_component_name" : "_ZThn8_N7android4hidl4base4V1_08BpHwBase15onLastStrongRefEPKv"
    },
    {
     "mangled_component_name" : "_ZN7android8hardware11BpHwRefBase20onIncStrongAttemptedEjPKv"
    },
    {
     "component_value" : -24,
     "kind" : "offset_to_top"
    },
    {
     "kind" : "rtti",
     "mangled_component_name" : "_ZTIN7android4hidl4base4V1_08BpHwBaseE"
    },
    {
     "kind" : "complete_dtor_pointer",
     "mangled_component_name" : "_ZThn24_N7android4hidl4base4V1_08BpHwBaseD1Ev"
    },
    {
     "kind" : "deleting_dtor_pointer",
     "mangled_component_name" : "_ZThn24_N7android4hidl4base4V1_08BpHwBaseD0Ev"
    },
    {
     "kind" : "vcall_offset"
    },
    {
     "component_value" : -76,
     "kind" : "vcall_offset"
    },
    {
     "component_value" : -84,
     "kind" : "vcall_offset"
    },
    {
     "component_value" : -76,
     "kind" : "vcall_offset"
    },
    {
     "component_value" : -84,
     "kind" : "vcall_offset"
    },
    {
     "component_value" : -84,
     "kind" : "offset_to_top"
    },
    {
     "kind" : "rtti",
     "mangled_component_name" : "_ZTIN7android4hidl4base4V1_08BpHwBaseE"
    },
    {
     "kind" : "complete_dtor_pointer",
     "mangled_component_name" : "_ZTv0_n12_N7android4hidl4base4V1_08BpHwBaseD1Ev"
    },
    {
     "kind" : "deleting_dtor_pointer",
     "mangled_component_name" : "_ZTv0_n12_N7android4hidl4base4V1_08BpHwBaseD0Ev"
    },
    {
     "mangled_component_name" : "_ZTv0_n16_N7android8hardware11BpHwRefBase10onFirstRefEv"
    },
    {
     "mangled_component_name" : "_ZTv0_n20_N7android4hidl4base4V1_08BpHwBase15onLastStrongRefEPKv"
    },
    {
     "mangled_component_name" : "_ZTv0_n24_N7android8hardware11BpHwRefBase20onIncStrongAttemptedEjPKv"
    },
    {
     "mangled_component_name" : "_ZN7android7RefBase13onLastWeakRefEPKv"
    }
   ]
  },
  {
   "alignment" : 8,
   "fields" :
   [
    {
     "field_name" : "pid",
     "referenced_type" : "_ZTIi"
    },
    {
     "field_name" : "ptr",
     "field_offset" : 64,
     "referenced_type" : "_ZTIy"
    },
    {
     "field_name" : "arch",
     "field_offset" : 128,
     "referenced_type" : "_ZTIN7android4hidl4base4V1_09DebugInfo12ArchitectureE"
    }
   ],
   "linker_set_key" : "_ZTIN7android4hidl4base4V1_09DebugInfoE",
   "name" : "android::hidl::base::V1_0::DebugInfo",
   "referenced_type" : "_ZTIN7android4hidl4base4V1_09DebugInfoE",
   "self_type" : "_ZTIN7android4hidl4base4V1_09DebugInfoE",
   "size" : 24,
   "source_file" : "/out/soong/.intermediates/system/libhidl/transport/base/1.0/android.hidl.base@1.0_genc++_headers/gen/android/hidl/base/1.0/types.h"
  },
  {
   "alignment" : 8,
   "fields" :
   [
    {
     "field_name" : "interfaceName",
     "referenced_type" : "_ZTIN7android8hardware11hidl_stringE"
    },
    {
     "field_name" : "instanceName",
     "field_offset" : 128,
     "referenced_type" : "_ZTIN7android8hardware11hidl_stringE"
    },
    {
     "field_name" : "pid",
     "field_offset" : 256,
     "referenced_type" : "_ZTIi"
    },
    {
     "field_name" : "clientPids",
     "field_offset" : 320,
     "referenced_type" : "_ZTIN7android8hardware8hidl_vecIiEE"
    },
    {
     "field_name" : "arch",
     "field_offset" : 448,
     "referenced_type" : "_ZTIN7android4hidl4base4V1_09DebugInfo12ArchitectureE"
    }
   ],
   "linker_set_key" : "_ZTIN7android4hidl7manager4V1_015IServiceManager17InstanceDebugInfoE",
   "name" : "android::hidl::manager::V1_0::IServiceManager::InstanceDebugInfo",
   "referenced_type" : "_ZTIN7android4hidl7manager4V1_015IServiceManager17InstanceDebugInfoE",
   "self_type" : "_ZTIN7android4hidl7manager4V1_015IServiceManager17InstanceDebugInfoE",
   "size" : 64,
   "source_file" : "/out/soong/.intermediates/system/libhidl/transport/manager/1.0/android.hidl.manager@1.0_genc++_headers/gen/android/hidl/manager/1.0/IServiceManager.h"
  },
  {
   "alignment" : 4,
   "base_specifiers" :
   [
    {
     "referenced_type" : "_ZTIN7android4hidl4base4V1_05IBaseE"
    }
   ],
   "linker_set_key" : "_ZTIN7android4hidl7manager4V1_015IServiceManagerE",
   "name" : "android::hidl::manager::V1_0::IServiceManager",
   "referenced_type" : "_ZTIN7android4hidl7manager4V1_015IServiceManagerE",
   "self_type" : "_ZTIN7android4hidl7manager4V1_015IServiceManagerE",
   "size" : 12,
   "source_file" : "/out/soong/.intermediates/system/libhidl/transport/manager/1.0/android.hidl.manager@1.0_genc++_headers/gen/android/hidl/manager/1.0/IServiceManager.h",
   "vtable_components" :
   [
    {
     "component_value" : 4,
     "kind" : "vbase_offset"
    },
    {
     "kind" : "offset_to_top"
    },
    {
     "kind" : "rtti",
     "mangled_component_name" : "_ZTIN7android4hidl7manager4V1_015IServiceManagerE"
    },
    {
     "mangled_component_name" : "_ZNK7android4hidl7manager4V1_015IServiceManager8isRemoteEv"
    },
    {
     "mangled_component_name" : "_ZN7android4hidl7manager4V1_015IServiceManager14interfaceChainENSt3__18functionIFvRKNS_8hardware8hidl_vecINS6_11hidl_stringEEEEEE"
    },
    {
     "mangled_component_name" : "_ZN7android4hidl7manager4V1_015IServiceManager5debugERKNS_8hardware11hidl_handleERKNS4_8hidl_vecINS4_11hidl_stringEEE"
    },
    {
     "mangled_component_name" : "_ZN7android4hidl7manager4V1_015IServiceManager19interfaceDescriptorENSt3__18functionIFvRKNS_8hardware11hidl_stringEEEE"
    },
    {
     "mangled_component_name" : "_ZN7android4hidl7manager4V1_015IServiceManager12getHashChainENSt3__18functionIFvRKNS_8hardware8hidl_vecINS6_10hidl_arrayIhLj32EJEEEEEEEE"
    },
    {
     "mangled_component_name" : "_ZN7android4hidl7manager4V1_015IServiceManager21setHALInstrumentationEv"
    },
    {
     "mangled_component_name" : "_ZN7android4hidl7manager4V1_015IServiceManager11linkToDeathERKNS_2spINS_8hardware20hidl_death_recipientEEEy"
    },
    {
     "mangled_component_name" : "_ZN7android4hidl7manager4V1_015IServiceManager4pingEv"
    },
    {
     "mangled_component_name" : "_ZN7android4hidl7manager4V1_015IServiceManager12getDebugInfoENSt3__18functionIFvRKNS0_4base4V1_09DebugInfoEEEE"
    },
    {
     "mangled_component_name" : "_ZN7android4hidl7manager4V1_015IServiceManager21notifySyspropsChangedEv"
    },
    {
     "mangled_component_name" : "_ZN7android4hidl7manager4V1_015IServiceManager13unlinkToDeathERKNS_2spINS_8hardware20hidl_death_recipientEEE"
    },
    {
     "kind" : "complete_dtor_pointer",
     "mangled_component_name" : "_ZN7android4hidl7manager4V1_015IServiceManagerD1Ev"
    },
    {
     "kind" : "deleting_dtor_pointer",
     "mangled_component_name" : "_ZN7android4hidl7manager4V1_015IServiceManagerD0Ev"
    },
    {
     "is_pure" : true,
     "mangled_component_name" : "_ZN7android4hidl7manager4V1_015IServiceManager3getERKNS_8hardware11hidl_stringES7_"
    },
    {
     "is_pure" : true,
     "mangled_component_name" : "_ZN7android4hidl7manager4V1_015IServiceManager3addERKNS_8hardware11hidl_stringERKNS_2spINS0_4base4V1_05IBaseEEE"
    },
    {
     "is_pure" : true,
     "mangled_component_name" : "_ZN7android4hidl7manager4V1_015IServiceManager12getTransportERKNS_8hardware11hidl_stringES7_"
    },
    {
     "is_pure" : true,
     "mangled_component_name" : "_ZN7android4hidl7manager4V1_015IServiceManager4listENSt3__18functionIFvRKNS_8hardware8hidl_vecINS6_11hidl_stringEEEEEE"
    },
    {
     "is_pure" : true,
     "mangled_component_name" : "_ZN7android4hidl7manager4V1_015IServiceManager15listByInterfaceERKNS_8hardware11hidl_stringENSt3__18functionIFvRKNS4_8hidl_vecIS5_EEEEE"
    },
    {
     "is_pure" : true,
     "mangled_component_name" : "_ZN7android4hidl7manager4V1_015IServiceManager24registerForNotificationsERKNS_8hardware11hidl_stringES7_RKNS_2spINS2_20IServiceNotificationEEE"
    },
    {
     "is_pure" : true,
     "mangled_component_name" : "_ZN7android4hidl7manager4V1_015IServiceManager9debugDumpENSt3__18functionIFvRKNS_8hardware8hidl_vecINS3_17InstanceDebugInfoEEEEEE"
    },
    {
     "is_pure" : true,
     "mangled_component_name" : "_ZN7android4hidl7manager4V1_015IServiceManager25registerPassthroughClientERKNS_8hardware11hidl_stringES7_"
    },
    {
     "kind" : "vcall_offset"
    },
    {
     "kind" : "vcall_offset"
    },
    {
     "kind" : "vcall_offset"
    },
    {
     "kind" : "vcall_offset"
    },
    {
     "component_value" : -4,
     "kind" : "vcall_offset"
    },
    {
     "component_value" : -4,
     "kind" : "offset_to_top"
    },
    {
     "kind" : "rtti",
     "mangled_component_name" : "_ZTIN7android4hidl7manager4V1_015IServiceManagerE"
    },
    {
     "kind" : "complete_dtor_pointer",
     "mangled_component_name" : "_ZTv0_n12_N7android4hidl7manager4V1_015IServiceManagerD1Ev"
    },
    {
     "kind" : "deleting_dtor_pointer",
     "mangled_component_name" : "_ZTv0_n12_N7android4hidl7manager4V1_015IServiceManagerD0Ev"
    },
    {
     "mangled_component_name" : "_ZN7android7RefBase10onFirstRefEv"
    },
    {
     "mangled_component_name" : "_ZN7android7RefBase15onLastStrongRefEPKv"
    },
    {
     "mangled_component_name" : "_ZN7android7RefBase20onIncStrongAttemptedEjPKv"
    },
    {
     "mangled_component_name" : "_ZN7android7RefBase13onLastWeakRefEPKv"
    }
   ]
  },
  {
   "alignment" : 4,
   "base_specifiers" :
   [
    {
     "referenced_type" : "_ZTIN7android4hidl4base4V1_05IBaseE"
    }
   ],
   "linker_set_key" : "_ZTIN7android4hidl7manager4V1_020IServiceNotificationE",
   "name" : "android::hidl::manager::V1_0::IServiceNotification",
   "referenced_type" : "_ZTIN7android4hidl7manager4V1_020IServiceNotificationE",
   "self_type" : "_ZTIN7android4hidl7manager4V1_020IServiceNotificationE",
   "size" : 12,
   "source_file" : "/out/soong/.intermediates/system/libhidl/transport/manager/1.0/android.hidl.manager@1.0_genc++_headers/gen/android/hidl/manager/1.0/IServiceNotification.h",
   "vtable_components" :
   [
    {
     "component_value" : 4,
     "kind" : "vbase_offset"
    },
    {
     "kind" : "offset_to_top"
    },
    {
     "kind" : "rtti",
     "mangled_component_name" : "_ZTIN7android4hidl7manager4V1_020IServiceNotificationE"
    },
    {
     "mangled_component_name" : "_ZNK7android4hidl7manager4V1_020IServiceNotification8isRemoteEv"
    },
    {
     "mangled_component_name" : "_ZN7android4hidl7manager4V1_020IServiceNotification14interfaceChainENSt3__18functionIFvRKNS_8hardware8hidl_vecINS6_11hidl_stringEEEEEE"
    },
    {
     "mangled_component_name" : "_ZN7android4hidl7manager4V1_020IServiceNotification5debugERKNS_8hardware11hidl_handleERKNS4_8hidl_vecINS4_11hidl_stringEEE"
    },
    {
     "mangled_component_name" : "_ZN7android4hidl7manager4V1_020IServiceNotification19interfaceDescriptorENSt3__18functionIFvRKNS_8hardware11hidl_stringEEEE"
    },
    {
     "mangled_component_name" : "_ZN7android4hidl7manager4V1_020IServiceNotification12getHashChainENSt3__18functionIFvRKNS_8hardware8hidl_vecINS6_10hidl_arrayIhLj32EJEEEEEEEE"
    },
    {
     "mangled_component_name" : "_ZN7android4hidl7manager4V1_020IServiceNotification21setHALInstrumentationEv"
    },
    {
     "mangled_component_name" : "_ZN7android4hidl7manager4V1_020IServiceNotification11linkToDeathERKNS_2spINS_8hardware20hidl_death_recipientEEEy"
    },
    {
     "mangled_component_name" : "_ZN7android4hidl7manager4V1_020IServiceNotification4pingEv"
    },
    {
     "mangled_component_name" : "_ZN7android4hidl7manager4V1_020IServiceNotification12getDebugInfoENSt3__18functionIFvRKNS0_4base4V1_09DebugInfoEEEE"
    },
    {
     "mangled_component_name" : "_ZN7android4hidl7manager4V1_020IServiceNotification21notifySyspropsChangedEv"
    },
    {
     "mangled_component_name" : "_ZN7android4hidl7manager4V1_020IServiceNotification13unlinkToDeathERKNS_2spINS_8hardware20hidl_death_recipientEEE"
    },
    {
     "kind" : "complete_dtor_pointer",
     "mangled_component_name" : "_ZN7android4hidl7manager4V1_020IServiceNotificationD1Ev"
    },
    {
     "kind" : "deleting_dtor_pointer",
     "mangled_component_name" : "_ZN7android4hidl7manager4V1_020IServiceNotificationD0Ev"
    },
    {
     "is_pure" : true,
     "mangled_component_name" : "_ZN7android4hidl7manager4V1_020IServiceNotification14onRegistrationERKNS_8hardware11hidl_stringES7_b"
    },
    {
     "kind" : "vcall_offset"
    },
    {
     "kind" : "vcall_offset"
    },
    {
     "kind" : "vcall_offset"
    },
    {
     "kind" : "vcall_offset"
    },
    {
     "component_value" : -4,
     "kind" : "vcall_offset"
    },
    {
     "component_value" : -4,
     "kind" : "offset_to_top"
    },
    {
     "kind" : "rtti",
     "mangled_component_name" : "_ZTIN7android4hidl7manager4V1_020IServiceNotificationE"
    },
    {
     "kind" : "complete_dtor_pointer",
     "mangled_component_name" : "_ZTv0_n12_N7android4hidl7manager4V1_020IServiceNotificationD1Ev"
    },
    {
     "kind" : "deleting_dtor_pointer",
     "mangled_component_name" : "_ZTv0_n12_N7android4hidl7manager4V1_020IServiceNotificationD0Ev"
    },
    {
     "mangled_component_name" : "_ZN7android7RefBase10onFirstRefEv"
    },
    {
     "mangled_component_name" : "_ZN7android7RefBase15onLastStrongRefEPKv"
    },
    {
     "mangled_component_name" : "_ZN7android7RefBase20onIncStrongAttemptedEjPKv"
    },
    {
     "mangled_component_name" : "_ZN7android7RefBase13onLastWeakRefEPKv"
    }
   ]
  },
  {
   "alignment" : 4,
   "fields" :
   [
    {
     "access" : "private",
     "field_name" : "mLock",
     "referenced_type" : "_ZTIRN7android5MutexE"
    }
   ],
   "linker_set_key" : "_ZTIN7android5Mutex8AutolockE",
   "name" : "android::Mutex::Autolock",
   "record_kind" : "class",
   "referenced_type" : "_ZTIN7android5Mutex8AutolockE",
   "self_type" : "_ZTIN7android5Mutex8AutolockE",
   "size" : 4,
   "source_file" : "/system/core/libutils/include/utils/Mutex.h"
  },
  {
   "alignment" : 4,
   "fields" :
   [
    {
     "access" : "private",
     "field_name" : "mMutex",
     "referenced_type" : "_ZTI15pthread_mutex_t"
    }
   ],
   "linker_set_key" : "_ZTIN7android5MutexE",
   "name" : "android::Mutex",
   "record_kind" : "class",
   "referenced_type" : "_ZTIN7android5MutexE",
   "self_type" : "_ZTIN7android5MutexE",
   "size" : 4,
   "source_file" : "/system/core/libutils/include/utils/Mutex.h"
  },
  {
   "alignment" : 4,
   "fields" :
   [
    {
     "access" : "private",
     "field_name" : "mLock",
     "referenced_type" : "_ZTIRN7android6RWLockE"
    }
   ],
   "linker_set_key" : "_ZTIN7android6RWLock9AutoRLockE",
   "name" : "android::RWLock::AutoRLock",
   "record_kind" : "class",
   "referenced_type" : "_ZTIN7android6RWLock9AutoRLockE",
   "self_type" : "_ZTIN7android6RWLock9AutoRLockE",
   "size" : 4,
   "source_file" : "/system/core/libutils/include/utils/RWLock.h"
  },
  {
   "alignment" : 4,
   "fields" :
   [
    {
     "access" : "private",
     "field_name" : "mLock",
     "referenced_type" : "_ZTIRN7android6RWLockE"
    }
   ],
   "linker_set_key" : "_ZTIN7android6RWLock9AutoWLockE",
   "name" : "android::RWLock::AutoWLock",
   "record_kind" : "class",
   "referenced_type" : "_ZTIN7android6RWLock9AutoWLockE",
   "self_type" : "_ZTIN7android6RWLock9AutoWLockE",
   "size" : 4,
   "source_file" : "/system/core/libutils/include/utils/RWLock.h"
  },
  {
   "alignment" : 4,
   "fields" :
   [
    {
     "access" : "private",
     "field_name" : "mRWLock",
     "referenced_type" : "_ZTI16pthread_rwlock_t"
    }
   ],
   "linker_set_key" : "_ZTIN7android6RWLockE",
   "name" : "android::RWLock",
   "record_kind" : "class",
   "referenced_type" : "_ZTIN7android6RWLockE",
   "self_type" : "_ZTIN7android6RWLockE",
   "size" : 40,
   "source_file" : "/system/core/libutils/include/utils/RWLock.h"
  },
  {
   "alignment" : 4,
   "base_specifiers" :
   [
    {
     "is_virtual" : true,
     "referenced_type" : "_ZTIN7android7RefBaseE"
    }
   ],
   "fields" :
   [
    {
     "access" : "private",
     "field_name" : "mCanCallJava",
     "field_offset" : 32,
     "referenced_type" : "_ZTIKb"
    },
    {
     "access" : "private",
     "field_name" : "mThread",
     "field_offset" : 64,
     "referenced_type" : "_ZTIPv"
    },
    {
     "access" : "private",
     "field_name" : "mLock",
     "field_offset" : 96,
     "referenced_type" : "_ZTIN7android5MutexE"
    },
    {
     "access" : "private",
     "field_name" : "mThreadExitedCondition",
     "field_offset" : 128,
     "referenced_type" : "_ZTIN7android9ConditionE"
    },
    {
     "access" : "private",
     "field_name" : "mStatus",
     "field_offset" : 160,
     "referenced_type" : "_ZTIi"
    },
    {
     "access" : "private",
     "field_name" : "mExitPending",
     "field_offset" : 192,
     "referenced_type" : "_ZTIVb"
    },
    {
     "access" : "private",
     "field_name" : "mRunning",
     "field_offset" : 200,
     "referenced_type" : "_ZTIVb"
    },
    {
     "access" : "private",
     "field_name" : "mHoldSelf",
     "field_offset" : 224,
     "referenced_type" : "_ZTIN7android2spINS_6ThreadEEE"
    },
    {
     "access" : "private",
     "field_name" : "mTid",
     "field_offset" : 256,
     "referenced_type" : "_ZTIi"
    }
   ],
   "linker_set_key" : "_ZTIN7android6ThreadE",
   "name" : "android::Thread",
   "record_kind" : "class",
   "referenced_type" : "_ZTIN7android6ThreadE",
   "self_type" : "_ZTIN7android6ThreadE",
   "size" : 44,
   "source_file" : "/system/core/libutils/include/utils/Thread.h",
   "vtable_components" :
   [
    {
     "component_value" : 36,
     "kind" : "vbase_offset"
    },
    {
     "kind" : "offset_to_top"
    },
    {
     "kind" : "rtti",
     "mangled_component_name" : "_ZTIN7android6ThreadE"
    },
    {
     "kind" : "complete_dtor_pointer",
     "mangled_component_name" : "_ZN7android6ThreadD1Ev"
    },
    {
     "kind" : "deleting_dtor_pointer",
     "mangled_component_name" : "_ZN7android6ThreadD0Ev"
    },
    {
     "mangled_component_name" : "_ZN7android6Thread3runEPKcij"
    },
    {
     "mangled_component_name" : "_ZN7android6Thread11requestExitEv"
    },
    {
     "mangled_component_name" : "_ZN7android6Thread10readyToRunEv"
    },
    {
     "is_pure" : true,
     "mangled_component_name" : "_ZN7android6Thread10threadLoopEv"
    },
    {
     "kind" : "vcall_offset"
    },
    {
     "kind" : "vcall_offset"
    },
    {
     "kind" : "vcall_offset"
    },
    {
     "kind" : "vcall_offset"
    },
    {
     "component_value" : -36,
     "kind" : "vcall_offset"
    },
    {
     "component_value" : -36,
     "kind" : "offset_to_top"
    },
    {
     "kind" : "rtti",
     "mangled_component_name" : "_ZTIN7android6ThreadE"
    },
    {
     "kind" : "complete_dtor_pointer",
     "mangled_component_name" : "_ZTv0_n12_N7android6ThreadD1Ev"
    },
    {
     "kind" : "deleting_dtor_pointer",
     "mangled_component_name" : "_ZTv0_n12_N7android6ThreadD0Ev"
    },
    {
     "mangled_component_name" : "_ZN7android7RefBase10onFirstRefEv"
    },
    {
     "mangled_component_name" : "_ZN7android7RefBase15onLastStrongRefEPKv"
    },
    {
     "mangled_component_name" : "_ZN7android7RefBase20onIncStrongAttemptedEjPKv"
    },
    {
     "mangled_component_name" : "_ZN7android7RefBase13onLastWeakRefEPKv"
    }
   ]
  },
  {
   "alignment" : 4,
   "base_specifiers" :
   [
    {
     "access" : "private",
     "referenced_type" : "_ZTIN7android10VectorImplE"
    }
   ],
   "linker_set_key" : "_ZTIN7android6VectorINS_8hardware12ProcessState12handle_entryEEE",
   "name" : "android::Vector<android::hardware::ProcessState::handle_entry>",
   "record_kind" : "class",
   "referenced_type" : "_ZTIN7android6VectorINS_8hardware12ProcessState12handle_entryEEE",
   "self_type" : "_ZTIN7android6VectorINS_8hardware12ProcessState12handle_entryEEE",
   "size" : 20,
   "source_file" : "/system/core/libutils/include/utils/Vector.h",
   "template_args" : [ "_ZTIN7android8hardware12ProcessState12handle_entryE" ],
   "vtable_components" :
   [
    {
     "kind" : "offset_to_top"
    },
    {
     "kind" : "rtti",
     "mangled_component_name" : "_ZTIN7android6VectorINS_8hardware12ProcessState12handle_entryEEE"
    },
    {
     "kind" : "complete_dtor_pointer",
     "mangled_component_name" : "_ZN7android6VectorINS_8hardware12ProcessState12handle_entryEED1Ev"
    },
    {
     "kind" : "deleting_dtor_pointer",
     "mangled_component_name" : "_ZN7android6VectorINS_8hardware12ProcessState12handle_entryEED0Ev"
    },
    {
     "mangled_component_name" : "_ZNK7android6VectorINS_8hardware12ProcessState12handle_entryEE12do_constructEPvj"
    },
    {
     "mangled_component_name" : "_ZNK7android6VectorINS_8hardware12ProcessState12handle_entryEE10do_destroyEPvj"
    },
    {
     "mangled_component_name" : "_ZNK7android6VectorINS_8hardware12ProcessState12handle_entryEE7do_copyEPvPKvj"
    },
    {
     "mangled_component_name" : "_ZNK7android6VectorINS_8hardware12ProcessState12handle_entryEE8do_splatEPvPKvj"
    },
    {
     "mangled_component_name" : "_ZNK7android6VectorINS_8hardware12ProcessState12handle_entryEE15do_move_forwardEPvPKvj"
    },
    {
     "mangled_component_name" : "_ZNK7android6VectorINS_8hardware12ProcessState12handle_entryEE16do_move_backwardEPvPKvj"
    }
   ]
  },
  {
   "alignment" : 1,
   "linker_set_key" : "_ZTIN7android7RefBase12weakref_typeE",
   "name" : "android::RefBase::weakref_type",
   "record_kind" : "class",
   "referenced_type" : "_ZTIN7android7RefBase12weakref_typeE",
   "self_type" : "_ZTIN7android7RefBase12weakref_typeE",
   "size" : 1,
   "source_file" : "/system/core/libutils/include/utils/RefBase.h"
  },
  {
   "alignment" : 4,
   "fields" :
   [
    {
     "access" : "private",
     "field_name" : "mRefs",
     "field_offset" : 32,
     "referenced_type" : "_ZTIKPN7android7RefBase12weakref_implE"
    }
   ],
   "linker_set_key" : "_ZTIN7android7RefBaseE",
   "name" : "android::RefBase",
   "record_kind" : "class",
   "referenced_type" : "_ZTIN7android7RefBaseE",
   "self_type" : "_ZTIN7android7RefBaseE",
   "size" : 8,
   "source_file" : "/system/core/libutils/include/utils/RefBase.h",
   "vtable_components" :
   [
    {
     "kind" : "offset_to_top"
    },
    {
     "kind" : "rtti",
     "mangled_component_name" : "_ZTIN7android7RefBaseE"
    },
    {
     "kind" : "complete_dtor_pointer",
     "mangled_component_name" : "_ZN7android7RefBaseD1Ev"
    },
    {
     "kind" : "deleting_dtor_pointer",
     "mangled_component_name" : "_ZN7android7RefBaseD0Ev"
    },
    {
     "mangled_component_name" : "_ZN7android7RefBase10onFirstRefEv"
    },
    {
     "mangled_component_name" : "_ZN7android7RefBase15onLastStrongRefEPKv"
    },
    {
     "mangled_component_name" : "_ZN7android7RefBase20onIncStrongAttemptedEjPKv"
    },
    {
     "mangled_component_name" : "_ZN7android7RefBase13onLastWeakRefEPKv"
    }
   ]
  },
  {
   "alignment" : 4,
   "fields" :
   [
    {
     "access" : "private",
     "field_name" : "mString",
     "referenced_type" : "_ZTIPKc"
    }
   ],
   "linker_set_key" : "_ZTIN7android7String8E",
   "name" : "android::String8",
   "record_kind" : "class",
   "referenced_type" : "_ZTIN7android7String8E",
   "self_type" : "_ZTIN7android7String8E",
   "size" : 4,
   "source_file" : "/system/core/libutils/include/utils/String8.h"
  },
  {
   "alignment" : 4,
   "fields" :
   [
    {
     "access" : "private",
     "field_name" : "mString",
     "referenced_type" : "_ZTIPKDs"
    }
   ],
   "linker_set_key" : "_ZTIN7android8String16E",
   "name" : "android::String16",
   "record_kind" : "class",
   "referenced_type" : "_ZTIN7android8String16E",
   "self_type" : "_ZTIN7android8String16E",
   "size" : 4,
   "source_file" : "/system/core/libutils/include/utils/String16.h"
  },
  {
   "alignment" : 4,
   "base_specifiers" :
   [
    {
     "is_virtual" : true,
     "referenced_type" : "_ZTIN7android8hardware11hidl_memoryE"
    },
    {
     "is_virtual" : true,
     "referenced_type" : "_ZTIN7android7RefBaseE"
    }
   ],
   "linker_set_key" : "_ZTIN7android8hardware10HidlMemoryE",
   "name" : "android::hardware::HidlMemory",
   "record_kind" : "class",
   "referenced_type" : "_ZTIN7android8hardware10HidlMemoryE",
   "self_type" : "_ZTIN7android8hardware10HidlMemoryE",
   "size" : 52,
   "source_file" : "/system/libhidl/base/include/hidl/HidlSupport.h",
   "vtable_components" :
   [
    {
     "component_value" : 44,
     "kind" : "vbase_offset"
    },
    {
     "component_value" : 4,
     "kind" : "vbase_offset"
    },
    {
     "kind" : "offset_to_top"
    },
    {
     "kind" : "rtti",
     "mangled_component_name" : "_ZTIN7android8hardware10HidlMemoryE"
    },
    {
     "kind" : "complete_dtor_pointer",
     "mangled_component_name" : "_ZN7android8hardware10HidlMemoryD1Ev"
    },
    {
     "kind" : "deleting_dtor_pointer",
     "mangled_component_name" : "_ZN7android8hardware10HidlMemoryD0Ev"
    },
    {
     "kind" : "vcall_offset"
    },
    {
     "kind" : "vcall_offset"
    },
    {
     "kind" : "vcall_offset"
    },
    {
     "kind" : "vcall_offset"
    },
    {
     "component_value" : -44,
     "kind" : "vcall_offset"
    },
    {
     "component_value" : -44,
     "kind" : "offset_to_top"
    },
    {
     "kind" : "rtti",
     "mangled_component_name" : "_ZTIN7android8hardware10HidlMemoryE"
    },
    {
     "kind" : "complete_dtor_pointer",
     "mangled_component_name" : "_ZTv0_n12_N7android8hardware10HidlMemoryD1Ev"
    },
    {
     "kind" : "deleting_dtor_pointer",
     "mangled_component_name" : "_ZTv0_n12_N7android8hardware10HidlMemoryD0Ev"
    },
    {
     "mangled_component_name" : "_ZN7android7RefBase10onFirstRefEv"
    },
    {
     "mangled_component_name" : "_ZN7android7RefBase15onLastStrongRefEPKv"
    },
    {
     "mangled_component_name" : "_ZN7android7RefBase20onIncStrongAttemptedEjPKv"
    },
    {
     "mangled_component_name" : "_ZN7android7RefBase13onLastWeakRefEPKv"
    }
   ]
  },
  {
   "alignment" : 4,
   "base_specifiers" :
   [
    {
     "is_virtual" : true,
     "referenced_type" : "_ZTIN7android7RefBaseE"
    }
   ],
   "linker_set_key" : "_ZTIN7android8hardware10IInterfaceE",
   "name" : "android::hardware::IInterface",
   "record_kind" : "class",
   "referenced_type" : "_ZTIN7android8hardware10IInterfaceE",
   "self_type" : "_ZTIN7android8hardware10IInterfaceE",
   "size" : 12,
   "source_file" : "/system/libhwbinder/include/hwbinder/IInterface.h",
   "vtable_components" :
   [
    {
     "component_value" : 4,
     "kind" : "vbase_offset"
    },
    {
     "kind" : "offset_to_top"
    },
    {
     "kind" : "rtti",
     "mangled_component_name" : "_ZTIN7android8hardware10IInterfaceE"
    },
    {
     "kind" : "complete_dtor_pointer",
     "mangled_component_name" : "_ZN7android8hardware10IInterfaceD1Ev"
    },
    {
     "kind" : "deleting_dtor_pointer",
     "mangled_component_name" : "_ZN7android8hardware10IInterfaceD0Ev"
    },
    {
     "is_pure" : true,
     "mangled_component_name" : "_ZN7android8hardware10IInterface10onAsBinderEv"
    },
    {
     "kind" : "vcall_offset"
    },
    {
     "kind" : "vcall_offset"
    },
    {
     "kind" : "vcall_offset"
    },
    {
     "kind" : "vcall_offset"
    },
    {
     "component_value" : -4,
     "kind" : "vcall_offset"
    },
    {
     "component_value" : -4,
     "kind" : "offset_to_top"
    },
    {
     "kind" : "rtti",
     "mangled_component_name" : "_ZTIN7android8hardware10IInterfaceE"
    },
    {
     "kind" : "complete_dtor_pointer",
     "mangled_component_name" : "_ZTv0_n12_N7android8hardware10IInterfaceD1Ev"
    },
    {
     "kind" : "deleting_dtor_pointer",
     "mangled_component_name" : "_ZTv0_n12_N7android8hardware10IInterfaceD0Ev"
    },
    {
     "mangled_component_name" : "_ZN7android7RefBase10onFirstRefEv"
    },
    {
     "mangled_component_name" : "_ZN7android7RefBase15onLastStrongRefEPKv"
    },
    {
     "mangled_component_name" : "_ZN7android7RefBase20onIncStrongAttemptedEjPKv"
    },
    {
     "mangled_component_name" : "_ZN7android7RefBase13onLastWeakRefEPKv"
    }
   ]
  },
  {
   "alignment" : 1,
   "fields" :
   [
    {
     "access" : "private",
     "field_name" : "mBuffer",
     "referenced_type" : "_ZTIA32_h"
    }
   ],
   "linker_set_key" : "_ZTIN7android8hardware10hidl_arrayIhLj32EJEEE",
   "name" : "android::hardware::hidl_array<unsigned char, 32>",
   "referenced_type" : "_ZTIN7android8hardware10hidl_arrayIhLj32EJEEE",
   "self_type" : "_ZTIN7android8hardware10hidl_arrayIhLj32EJEEE",
   "size" : 32,
   "source_file" : "/system/libhidl/base/include/hidl/HidlSupport.h",
   "template_args" : [ "_ZTIh" ]
  },
  {
   "alignment" : 4,
   "base_specifiers" :
   [
    {
     "is_virtual" : true,
     "referenced_type" : "_ZTIN7android7RefBaseE"
    }
   ],
   "fields" :
   [
    {
     "access" : "private",
     "field_name" : "mRemote",
     "field_offset" : 32,
     "referenced_type" : "_ZTIKPN7android8hardware7IBinderE"
    },
    {
     "access" : "private",
     "field_name" : "mRefs",
     "field_offset" : 64,
     "referenced_type" : "_ZTIPN7android7RefBase12weakref_typeE"
    },
    {
     "access" : "private",
     "field_name" : "mState",
     "field_offset" : 96,
     "referenced_type" : "_ZTINSt3__16atomicIiEE"
    }
   ],
   "linker_set_key" : "_ZTIN7android8hardware11BpHwRefBaseE",
   "name" : "android::hardware::BpHwRefBase",
   "record_kind" : "class",
   "referenced_type" : "_ZTIN7android8hardware11BpHwRefBaseE",
   "self_type" : "_ZTIN7android8hardware11BpHwRefBaseE",
   "size" : 24,
   "source_file" : "/system/libhwbinder/include/hwbinder/Binder.h",
   "vtable_components" :
   [
    {
     "component_value" : 16,
     "kind" : "vbase_offset"
    },
    {
     "kind" : "offset_to_top"
    },
    {
     "kind" : "rtti",
     "mangled_component_name" : "_ZTIN7android8hardware11BpHwRefBaseE"
    },
    {
     "kind" : "complete_dtor_pointer",
     "mangled_component_name" : "_ZN7android8hardware11BpHwRefBaseD1Ev"
    },
    {
     "kind" : "deleting_dtor_pointer",
     "mangled_component_name" : "_ZN7android8hardware11BpHwRefBaseD0Ev"
    },
    {
     "mangled_component_name" : "_ZN7android8hardware11BpHwRefBase10onFirstRefEv"
    },
    {
     "mangled_component_name" : "_ZN7android8hardware11BpHwRefBase15onLastStrongRefEPKv"
    },
    {
     "mangled_component_name" : "_ZN7android8hardware11BpHwRefBase20onIncStrongAttemptedEjPKv"
    },
    {
     "kind" : "vcall_offset"
    },
    {
     "component_value" : -16,
     "kind" : "vcall_offset"
    },
    {
     "component_value" : -16,
     "kind" : "vcall_offset"
    },
    {
     "component_value" : -16,
     "kind" : "vcall_offset"
    },
    {
     "component_value" : -16,
     "kind" : "vcall_offset"
    },
    {
     "component_value" : -16,
     "kind" : "offset_to_top"
    },
    {
     "kind" : "rtti",
     "mangled_component_name" : "_ZTIN7android8hardware11BpHwRefBaseE"
    },
    {
     "kind" : "complete_dtor_pointer",
     "mangled_component_name" : "_ZTv0_n12_N7android8hardware11BpHwRefBaseD1Ev"
    },
    {
     "kind" : "deleting_dtor_pointer",
     "mangled_component_name" : "_ZTv0_n12_N7android8hardware11BpHwRefBaseD0Ev"
    },
    {
     "mangled_component_name" : "_ZTv0_n16_N7android8hardware11BpHwRefBase10onFirstRefEv"
    },
    {
     "mangled_component_name" : "_ZTv0_n20_N7android8hardware11BpHwRefBase15onLastStrongRefEPKv"
    },
    {
     "mangled_component_name" : "_ZTv0_n24_N7android8hardware11BpHwRefBase20onIncStrongAttemptedEjPKv"
    },
    {
     "mangled_component_name" : "_ZN7android7RefBase13onLastWeakRefEPKv"
    }
   ]
  },
  {
   "alignment" : 4,
   "base_specifiers" :
   [
    {
     "referenced_type" : "_ZTIN7android10frameworks16schedulerservice4V1_024ISchedulingPolicyServiceE"
    },
    {
     "referenced_type" : "_ZTIN7android8hardware10IInterfaceE"
    },
    {
     "referenced_type" : "_ZTIN7android8hardware11BpHwRefBaseE"
    }
   ],
   "linker_set_key" : "_ZTIN7android8hardware11BpInterfaceINS_10frameworks16schedulerservice4V1_024ISchedulingPolicyServiceEEE",
   "name" : "android::hardware::BpInterface<android::frameworks::schedulerservice::V1_0::ISchedulingPolicyService>",
   "record_kind" : "class",
   "referenced_type" : "_ZTIN7android8hardware11BpInterfaceINS_10frameworks16schedulerservice4V1_024ISchedulingPolicyServiceEEE",
   "self_type" : "_ZTIN7android8hardware11BpInterfaceINS_10frameworks16schedulerservice4V1_024ISchedulingPolicyServiceEEE",
   "size" : 32,
   "source_file" : "/system/libhwbinder/include/hwbinder/IInterface.h",
   "template_args" :
   [
    "_ZTIN7android10frameworks16schedulerservice4V1_024ISchedulingPolicyServiceE"
   ],
   "vtable_components" :
   [
    {
     "component_value" : 24,
     "kind" : "vbase_offset"
    },
    {
     "kind" : "offset_to_top"
    },
    {
     "kind" : "rtti",
     "mangled_component_name" : "_ZTIN7android8hardware11BpInterfaceINS_10frameworks16schedulerservice4V1_024ISchedulingPolicyServiceEEE"
    },
    {
     "mangled_component_name" : "_ZNK7android10frameworks16schedulerservice4V1_024ISchedulingPolicyService8isRemoteEv"
    },
    {
     "mangled_component_name" : "_ZN7android10frameworks16schedulerservice4V1_024ISchedulingPolicyService14interfaceChainENSt3__18functionIFvRKNS_8hardware8hidl_vecINS6_11hidl_stringEEEEEE"
    },
    {
     "mangled_component_name" : "_ZN7android10frameworks16schedulerservice4V1_024ISchedulingPolicyService5debugERKNS_8hardware11hidl_handleERKNS4_8hidl_vecINS4_11hidl_stringEEE"
    },
    {
     "mangled_component_name" : "_ZN7android10frameworks16schedulerservice4V1_024ISchedulingPolicyService19interfaceDescriptorENSt3__18functionIFvRKNS_8hardware11hidl_stringEEEE"
    },
    {
     "mangled_component_name" : "_ZN7android10frameworks16schedulerservice4V1_024ISchedulingPolicyService12getHashChainENSt3__18functionIFvRKNS_8hardware8hidl_vecINS6_10hidl_arrayIhLj32EJEEEEEEEE"
    },
    {
     "mangled_component_name" : "_ZN7android10frameworks16schedulerservice4V1_024ISchedulingPolicyService21setHALInstrumentationEv"
    },
    {
     "mangled_component_name" : "_ZN7android10frameworks16schedulerservice4V1_024ISchedulingPolicyService11linkToDeathERKNS_2spINS_8hardware20hidl_death_recipientEEEy"
    },
    {
     "mangled_component_name" : "_ZN7android10frameworks16schedulerservice4V1_024ISchedulingPolicyService4pingEv"
    },
    {
     "mangled_component_name" : "_ZN7android10frameworks16schedulerservice4V1_024ISchedulingPolicyService12getDebugInfoENSt3__18functionIFvRKNS_4hidl4base4V1_09DebugInfoEEEE"
    },
    {
     "mangled_component_name" : "_ZN7android10frameworks16schedulerservice4V1_024ISchedulingPolicyService21notifySyspropsChangedEv"
    },
    {
     "mangled_component_name" : "_ZN7android10frameworks16schedulerservice4V1_024ISchedulingPolicyService13unlinkToDeathERKNS_2spINS_8hardware20hidl_death_recipientEEE"
    },
    {
     "kind" : "complete_dtor_pointer",
     "mangled_component_name" : "_ZN7android8hardware11BpInterfaceINS_10frameworks16schedulerservice4V1_024ISchedulingPolicyServiceEED1Ev"
    },
    {
     "kind" : "deleting_dtor_pointer",
     "mangled_component_name" : "_ZN7android8hardware11BpInterfaceINS_10frameworks16schedulerservice4V1_024ISchedulingPolicyServiceEED0Ev"
    },
    {
     "is_pure" : true,
     "mangled_component_name" : "_ZN7android10frameworks16schedulerservice4V1_024ISchedulingPolicyService15requestPriorityEiii"
    },
    {
     "is_pure" : true,
     "mangled_component_name" : "_ZN7android10frameworks16schedulerservice4V1_024ISchedulingPolicyService21getMaxAllowedPriorityEv"
    },
    {
     "mangled_component_name" : "_ZN7android8hardware11BpInterfaceINS_10frameworks16schedulerservice4V1_024ISchedulingPolicyServiceEE10onAsBinderEv"
    },
    {
     "component_value" : 20,
     "kind" : "vbase_offset"
    },
    {
     "component_value" : -4,
     "kind" : "offset_to_top"
    },
    {
     "kind" : "rtti",
     "mangled_component_name" : "_ZTIN7android8hardware11BpInterfaceINS_10frameworks16schedulerservice4V1_024ISchedulingPolicyServiceEEE"
    },
    {
     "kind" : "complete_dtor_pointer",
     "mangled_component_name" : "_ZThn4_N7android8hardware11BpInterfaceINS_10frameworks16schedulerservice4V1_024ISchedulingPolicyServiceEED1Ev"
    },
    {
     "kind" : "deleting_dtor_pointer",
     "mangled_component_name" : "_ZThn4_N7android8hardware11BpInterfaceINS_10frameworks16schedulerservice4V1_024ISchedulingPolicyServiceEED0Ev"
    },
    {
     "mangled_component_name" : "_ZThn4_N7android8hardware11BpInterfaceINS_10frameworks16schedulerservice4V1_024ISchedulingPolicyServiceEE10onAsBinderEv"
    },
    {
     "component_value" : 16,
     "kind" : "vbase_offset"
    },
    {
     "component_value" : -8,
     "kind" : "offset_to_top"
    },
    {
     "kind" : "rtti",
     "mangled_component_name" : "_ZTIN7android8hardware11BpInterfaceINS_10frameworks16schedulerservice4V1_024ISchedulingPolicyServiceEEE"
    },
    {
     "kind" : "complete_dtor_pointer",
     "mangled_component_name" : "_ZThn8_N7android8hardware11BpInterfaceINS_10frameworks16schedulerservice4V1_024ISchedulingPolicyServiceEED1Ev"
    },
    {
     "kind" : "deleting_dtor_pointer",
     "mangled_component_name" : "_ZThn8_N7android8hardware11BpInterfaceINS_10frameworks16schedulerservice4V1_024ISchedulingPolicyServiceEED0Ev"
    },
    {
     "mangled_component_name" : "_ZN7android8hardware11BpHwRefBase10onFirstRefEv"
    },
    {
     "mangled_component_name" : "_ZN7android8hardware11BpHwRefBase15onLastStrongRefEPKv"
    },
    {
     "mangled_component_name" : "_ZN7android8hardware11BpHwRefBase20onIncStrongAttemptedEjPKv"
    },
    {
     "kind" : "vcall_offset"
    },
    {
     "component_value" : -16,
     "kind" : "vcall_offset"
    },
    {
     "component_value" : -16,
     "kind" : "vcall_offset"
    },
    {
     "component_value" : -16,
     "kind" : "vcall_offset"
    },
    {
     "component_value" : -24,
     "kind" : "vcall_offset"
    },
    {
     "component_value" : -24,
     "kind" : "offset_to_top"
    },
    {
     "kind" : "rtti",
     "mangled_component_name" : "_ZTIN7android8hardware11BpInterfaceINS_10frameworks16schedulerservice4V1_024ISchedulingPolicyServiceEEE"
    },
    {
     "kind" : "complete_dtor_pointer",
     "mangled_component_name" : "_ZTv0_n12_N7android8hardware11BpInterfaceINS_10frameworks16schedulerservice4V1_024ISchedulingPolicyServiceEED1Ev"
    },
    {
     "kind" : "deleting_dtor_pointer",
     "mangled_component_name" : "_ZTv0_n12_N7android8hardware11BpInterfaceINS_10frameworks16schedulerservice4V1_024ISchedulingPolicyServiceEED0Ev"
    },
    {
     "mangled_component_name" : "_ZTv0_n16_N7android8hardware11BpHwRefBase10onFirstRefEv"
    },
    {
     "mangled_component_name" : "_ZTv0_n20_N7android8hardware11BpHwRefBase15onLastStrongRefEPKv"
    },
    {
     "mangled_component_name" : "_ZTv0_n24_N7android8hardware11BpHwRefBase20onIncStrongAttemptedEjPKv"
    },
    {
     "mangled_component_name" : "_ZN7android7RefBase13onLastWeakRefEPKv"
    }
   ]
  },
  {
   "alignment" : 4,
   "base_specifiers" :
   [
    {
     "referenced_type" : "_ZTIN7android4hidl4base4V1_05IBaseE"
    },
    {
     "referenced_type" : "_ZTIN7android8hardware10IInterfaceE"
    },
    {
     "referenced_type" : "_ZTIN7android8hardware11BpHwRefBaseE"
    }
   ],
   "linker_set_key" : "_ZTIN7android8hardware11BpInterfaceINS_4hidl4base4V1_05IBaseEEE",
   "name" : "android::hardware::BpInterface<android::hidl::base::V1_0::IBase>",
   "record_kind" : "class",
   "referenced_type" : "_ZTIN7android8hardware11BpInterfaceINS_4hidl4base4V1_05IBaseEEE",
   "self_type" : "_ZTIN7android8hardware11BpInterfaceINS_4hidl4base4V1_05IBaseEEE",
   "size" : 32,
   "source_file" : "/system/libhwbinder/include/hwbinder/IInterface.h",
   "template_args" : [ "_ZTIN7android4hidl4base4V1_05IBaseE" ],
   "vtable_components" :
   [
    {
     "component_value" : 24,
     "kind" : "vbase_offset"
    },
    {
     "kind" : "offset_to_top"
    },
    {
     "kind" : "rtti",
     "mangled_component_name" : "_ZTIN7android8hardware11BpInterfaceINS_4hidl4base4V1_05IBaseEEE"
    },
    {
     "mangled_component_name" : "_ZNK7android4hidl4base4V1_05IBase8isRemoteEv"
    },
    {
     "mangled_component_name" : "_ZN7android4hidl4base4V1_05IBase14interfaceChainENSt3__18functionIFvRKNS_8hardware8hidl_vecINS6_11hidl_stringEEEEEE"
    },
    {
     "mangled_component_name" : "_ZN7android4hidl4base4V1_05IBase5debugERKNS_8hardware11hidl_handleERKNS4_8hidl_vecINS4_11hidl_stringEEE"
    },
    {
     "mangled_component_name" : "_ZN7android4hidl4base4V1_05IBase19interfaceDescriptorENSt3__18functionIFvRKNS_8hardware11hidl_stringEEEE"
    },
    {
     "mangled_component_name" : "_ZN7android4hidl4base4V1_05IBase12getHashChainENSt3__18functionIFvRKNS_8hardware8hidl_vecINS6_10hidl_arrayIhLj32EJEEEEEEEE"
    },
    {
     "mangled_component_name" : "_ZN7android4hidl4base4V1_05IBase21setHALInstrumentationEv"
    },
    {
     "mangled_component_name" : "_ZN7android4hidl4base4V1_05IBase11linkToDeathERKNS_2spINS_8hardware20hidl_death_recipientEEEy"
    },
    {
     "mangled_component_name" : "_ZN7android4hidl4base4V1_05IBase4pingEv"
    },
    {
     "mangled_component_name" : "_ZN7android4hidl4base4V1_05IBase12getDebugInfoENSt3__18functionIFvRKNS2_9DebugInfoEEEE"
    },
    {
     "mangled_component_name" : "_ZN7android4hidl4base4V1_05IBase21notifySyspropsChangedEv"
    },
    {
     "mangled_component_name" : "_ZN7android4hidl4base4V1_05IBase13unlinkToDeathERKNS_2spINS_8hardware20hidl_death_recipientEEE"
    },
    {
     "kind" : "complete_dtor_pointer",
     "mangled_component_name" : "_ZN7android8hardware11BpInterfaceINS_4hidl4base4V1_05IBaseEED1Ev"
    },
    {
     "kind" : "deleting_dtor_pointer",
     "mangled_component_name" : "_ZN7android8hardware11BpInterfaceINS_4hidl4base4V1_05IBaseEED0Ev"
    },
    {
     "mangled_component_name" : "_ZN7android8hardware11BpInterfaceINS_4hidl4base4V1_05IBaseEE10onAsBinderEv"
    },
    {
     "component_value" : 20,
     "kind" : "vbase_offset"
    },
    {
     "component_value" : -4,
     "kind" : "offset_to_top"
    },
    {
     "kind" : "rtti",
     "mangled_component_name" : "_ZTIN7android8hardware11BpInterfaceINS_4hidl4base4V1_05IBaseEEE"
    },
    {
     "kind" : "complete_dtor_pointer",
     "mangled_component_name" : "_ZThn4_N7android8hardware11BpInterfaceINS_4hidl4base4V1_05IBaseEED1Ev"
    },
    {
     "kind" : "deleting_dtor_pointer",
     "mangled_component_name" : "_ZThn4_N7android8hardware11BpInterfaceINS_4hidl4base4V1_05IBaseEED0Ev"
    },
    {
     "mangled_component_name" : "_ZThn4_N7android8hardware11BpInterfaceINS_4hidl4base4V1_05IBaseEE10onAsBinderEv"
    },
    {
     "component_value" : 16,
     "kind" : "vbase_offset"
    },
    {
     "component_value" : -8,
     "kind" : "offset_to_top"
    },
    {
     "kind" : "rtti",
     "mangled_component_name" : "_ZTIN7android8hardware11BpInterfaceINS_4hidl4base4V1_05IBaseEEE"
    },
    {
     "kind" : "complete_dtor_pointer",
     "mangled_component_name" : "_ZThn8_N7android8hardware11BpInterfaceINS_4hidl4base4V1_05IBaseEED1Ev"
    },
    {
     "kind" : "deleting_dtor_pointer",
     "mangled_component_name" : "_ZThn8_N7android8hardware11BpInterfaceINS_4hidl4base4V1_05IBaseEED0Ev"
    },
    {
     "mangled_component_name" : "_ZN7android8hardware11BpHwRefBase10onFirstRefEv"
    },
    {
     "mangled_component_name" : "_ZN7android8hardware11BpHwRefBase15onLastStrongRefEPKv"
    },
    {
     "mangled_component_name" : "_ZN7android8hardware11BpHwRefBase20onIncStrongAttemptedEjPKv"
    },
    {
     "kind" : "vcall_offset"
    },
    {
     "component_value" : -16,
     "kind" : "vcall_offset"
    },
    {
     "component_value" : -16,
     "kind" : "vcall_offset"
    },
    {
     "component_value" : -16,
     "kind" : "vcall_offset"
    },
    {
     "component_value" : -24,
     "kind" : "vcall_offset"
    },
    {
     "component_value" : -24,
     "kind" : "offset_to_top"
    },
    {
     "kind" : "rtti",
     "mangled_component_name" : "_ZTIN7android8hardware11BpInterfaceINS_4hidl4base4V1_05IBaseEEE"
    },
    {
     "kind" : "complete_dtor_pointer",
     "mangled_component_name" : "_ZTv0_n12_N7android8hardware11BpInterfaceINS_4hidl4base4V1_05IBaseEED1Ev"
    },
    {
     "kind" : "deleting_dtor_pointer",
     "mangled_component_name" : "_ZTv0_n12_N7android8hardware11BpInterfaceINS_4hidl4base4V1_05IBaseEED0Ev"
    },
    {
     "mangled_component_name" : "_ZTv0_n16_N7android8hardware11BpHwRefBase10onFirstRefEv"
    },
    {
     "mangled_component_name" : "_ZTv0_n20_N7android8hardware11BpHwRefBase15onLastStrongRefEPKv"
    },
    {
     "mangled_component_name" : "_ZTv0_n24_N7android8hardware11BpHwRefBase20onIncStrongAttemptedEjPKv"
    },
    {
     "mangled_component_name" : "_ZN7android7RefBase13onLastWeakRefEPKv"
    }
   ]
  },
  {
   "alignment" : 4,
   "fields" :
   [
    {
     "access" : "private",
     "field_name" : "mHandle",
     "referenced_type" : "_ZTIN7android8hardware7details12hidl_pointerIK13native_handleEE"
    },
    {
     "access" : "private",
     "field_name" : "mOwnsHandle",
     "field_offset" : 64,
     "referenced_type" : "_ZTIb"
    },
    {
     "access" : "private",
     "field_name" : "mPad",
     "field_offset" : 72,
     "referenced_type" : "_ZTIA7_h"
    }
   ],
   "linker_set_key" : "_ZTIN7android8hardware11hidl_handleE",
   "name" : "android::hardware::hidl_handle",
   "referenced_type" : "_ZTIN7android8hardware11hidl_handleE",
   "self_type" : "_ZTIN7android8hardware11hidl_handleE",
   "size" : 16,
   "source_file" : "/system/libhidl/base/include/hidl/HidlSupport.h"
  },
  {
   "alignment" : 4,
   "fields" :
   [
    {
     "access" : "private",
     "field_name" : "mHandle",
     "referenced_type" : "_ZTIN7android8hardware11hidl_handleE"
    },
    {
     "access" : "private",
     "field_name" : "mSize",
     "field_offset" : 128,
     "referenced_type" : "_ZTIy"
    },
    {
     "access" : "private",
     "field_name" : "mName",
     "field_offset" : 192,
     "referenced_type" : "_ZTIN7android8hardware11hidl_stringE"
    }
   ],
   "linker_set_key" : "_ZTIN7android8hardware11hidl_memoryE",
   "name" : "android::hardware::hidl_memory",
   "referenced_type" : "_ZTIN7android8hardware11hidl_memoryE",
   "self_type" : "_ZTIN7android8hardware11hidl_memoryE",
   "size" : 40,
   "source_file" : "/system/libhidl/base/include/hidl/HidlSupport.h"
  },
  {
   "alignment" : 4,
   "fields" :
   [
    {
     "access" : "private",
     "field_name" : "mBuffer",
     "referenced_type" : "_ZTIN7android8hardware7details12hidl_pointerIKcEE"
    },
    {
     "access" : "private",
     "field_name" : "mSize",
     "field_offset" : 64,
     "referenced_type" : "_ZTIj"
    },
    {
     "access" : "private",
     "field_name" : "mOwnsBuffer",
     "field_offset" : 96,
     "referenced_type" : "_ZTIb"
    },
    {
     "access" : "private",
     "field_name" : "mPad",
     "field_offset" : 104,
     "referenced_type" : "_ZTIA3_h"
    }
   ],
   "linker_set_key" : "_ZTIN7android8hardware11hidl_stringE",
   "name" : "android::hardware::hidl_string",
   "referenced_type" : "_ZTIN7android8hardware11hidl_stringE",
   "self_type" : "_ZTIN7android8hardware11hidl_stringE",
   "size" : 16,
   "source_file" : "/system/libhidl/base/include/hidl/HidlSupport.h"
  },
  {
   "alignment" : 4,
   "fields" :
   [
    {
     "access" : "private",
     "field_name" : "mGrantors",
     "referenced_type" : "_ZTIN7android8hardware8hidl_vecINS0_17GrantorDescriptorEEE"
    },
    {
     "access" : "private",
     "field_name" : "mHandle",
     "field_offset" : 128,
     "referenced_type" : "_ZTIN7android8hardware7details12hidl_pointerI13native_handleEE"
    },
    {
     "access" : "private",
     "field_name" : "mQuantum",
     "field_offset" : 192,
     "referenced_type" : "_ZTIj"
    },
    {
     "access" : "private",
     "field_name" : "mFlags",
     "field_offset" : 224,
     "referenced_type" : "_ZTIj"
    }
   ],
   "linker_set_key" : "_ZTIN7android8hardware12MQDescriptorIcLNS0_8MQFlavorE1EEE",
   "name" : "android::hardware::MQDescriptor<char, android::hardware::kSynchronizedReadWrite>",
   "referenced_type" : "_ZTIN7android8hardware12MQDescriptorIcLNS0_8MQFlavorE1EEE",
   "self_type" : "_ZTIN7android8hardware12MQDescriptorIcLNS0_8MQFlavorE1EEE",
   "size" : 32,
   "source_file" : "/system/libhidl/base/include/hidl/MQDescriptor.h",
   "template_args" : [ "_ZTIc" ]
  },
  {
   "access" : "private",
   "alignment" : 4,
   "fields" :
   [
    {
     "field_name" : "binder",
     "referenced_type" : "_ZTIPN7android8hardware7IBinderE"
    },
    {
     "field_name" : "refs",
     "field_offset" : 32,
     "referenced_type" : "_ZTIPN7android7RefBase12weakref_typeE"
    }
   ],
   "linker_set_key" : "_ZTIN7android8hardware12ProcessState12handle_entryE",
   "name" : "android::hardware::ProcessState::handle_entry",
   "referenced_type" : "_ZTIN7android8hardware12ProcessState12handle_entryE",
   "self_type" : "_ZTIN7android8hardware12ProcessState12handle_entryE",
   "size" : 8,
   "source_file" : "/system/libhwbinder/include/hwbinder/ProcessState.h"
  },
  {
   "alignment" : 4,
   "base_specifiers" :
   [
    {
     "is_virtual" : true,
     "referenced_type" : "_ZTIN7android7RefBaseE"
    }
   ],
   "fields" :
   [
    {
     "access" : "private",
     "field_name" : "mDriverFD",
     "field_offset" : 32,
     "referenced_type" : "_ZTIi"
    },
    {
     "access" : "private",
     "field_name" : "mVMStart",
     "field_offset" : 64,
     "referenced_type" : "_ZTIPv"
    },
    {
     "access" : "private",
     "field_name" : "mThreadCountLock",
     "field_offset" : 96,
     "referenced_type" : "_ZTI15pthread_mutex_t"
    },
    {
     "access" : "private",
     "field_name" : "mThreadCountDecrement",
     "field_offset" : 128,
     "referenced_type" : "_ZTI14pthread_cond_t"
    },
    {
     "access" : "private",
     "field_name" : "mExecutingThreadsCount",
     "field_offset" : 160,
     "referenced_type" : "_ZTIj"
    },
    {
     "access" : "private",
     "field_name" : "mMaxThreads",
     "field_offset" : 192,
     "referenced_type" : "_ZTIj"
    },
    {
     "access" : "private",
     "field_name" : "mStarvationStartTimeMs",
     "field_offset" : 224,
     "referenced_type" : "_ZTIx"
    },
    {
     "access" : "private",
     "field_name" : "mLock",
     "field_offset" : 288,
     "referenced_type" : "_ZTIN7android5MutexE"
    },
    {
     "access" : "private",
     "field_name" : "mHandleToObject",
     "field_offset" : 320,
     "referenced_type" : "_ZTIN7android6VectorINS_8hardware12ProcessState12handle_entryEEE"
    },
    {
     "access" : "private",
     "field_name" : "mManagesContexts",
     "field_offset" : 480,
     "referenced_type" : "_ZTIb"
    },
    {
     "access" : "private",
     "field_name" : "mBinderContextCheckFunc",
     "field_offset" : 512,
     "referenced_type" : "_ZTIPFbRKN7android8String16ERKNS_2spINS_8hardware7IBinderEEEPvE"
    },
    {
     "access" : "private",
     "field_name" : "mBinderContextUserData",
     "field_offset" : 544,
     "referenced_type" : "_ZTIPv"
    },
    {
     "access" : "private",
     "field_name" : "mContexts",
     "field_offset" : 576,
     "referenced_type" : "_ZTIN7android11KeyedVectorINS_8String16ENS_2spINS_8hardware7IBinderEEEEE"
    },
    {
     "access" : "private",
     "field_name" : "mRootDir",
     "field_offset" : 736,
     "referenced_type" : "_ZTIN7android7String8E"
    },
    {
     "access" : "private",
     "field_name" : "mThreadPoolStarted",
     "field_offset" : 768,
     "referenced_type" : "_ZTIb"
    },
    {
     "access" : "private",
     "field_name" : "mSpawnThreadOnStart",
     "field_offset" : 776,
     "referenced_type" : "_ZTIb"
    },
    {
     "access" : "private",
     "field_name" : "mThreadPoolSeq",
     "field_offset" : 800,
     "referenced_type" : "_ZTIVi"
    },
    {
     "access" : "private",
     "field_name" : "mMmapSize",
     "field_offset" : 832,
     "referenced_type" : "_ZTIKj"
    },
    {
     "access" : "private",
     "field_name" : "mCallRestriction",
     "field_offset" : 864,
     "referenced_type" : "_ZTIN7android8hardware12ProcessState15CallRestrictionE"
    }
   ],
   "linker_set_key" : "_ZTIN7android8hardware12ProcessStateE",
   "name" : "android::hardware::ProcessState",
   "record_kind" : "class",
   "referenced_type" : "_ZTIN7android8hardware12ProcessStateE",
   "self_type" : "_ZTIN7android8hardware12ProcessStateE",
   "size" : 120,
   "source_file" : "/system/libhwbinder/include/hwbinder/ProcessState.h",
   "vtable_components" :
   [
    {
     "component_value" : 112,
     "kind" : "vbase_offset"
    },
    {
     "kind" : "offset_to_top"
    },
    {
     "kind" : "rtti",
     "mangled_component_name" : "_ZTIN7android8hardware12ProcessStateE"
    },
    {
     "kind" : "complete_dtor_pointer",
     "mangled_component_name" : "_ZN7android8hardware12ProcessStateD1Ev"
    },
    {
     "kind" : "deleting_dtor_pointer",
     "mangled_component_name" : "_ZN7android8hardware12ProcessStateD0Ev"
    },
    {
     "kind" : "vcall_offset"
    },
    {
     "kind" : "vcall_offset"
    },
    {
     "kind" : "vcall_offset"
    },
    {
     "kind" : "vcall_offset"
    },
    {
     "component_value" : -112,
     "kind" : "vcall_offset"
    },
    {
     "component_value" : -112,
     "kind" : "offset_to_top"
    },
    {
     "kind" : "rtti",
     "mangled_component_name" : "_ZTIN7android8hardware12ProcessStateE"
    },
    {
     "kind" : "complete_dtor_pointer",
     "mangled_component_name" : "_ZTv0_n12_N7android8hardware12ProcessStateD1Ev"
    },
    {
     "kind" : "deleting_dtor_pointer",
     "mangled_component_name" : "_ZTv0_n12_N7android8hardware12ProcessStateD0Ev"
    },
    {
     "mangled_component_name" : "_ZN7android7RefBase10onFirstRefEv"
    },
    {
     "mangled_component_name" : "_ZN7android7RefBase15onLastStrongRefEPKv"
    },
    {
     "mangled_component_name" : "_ZN7android7RefBase20onIncStrongAttemptedEjPKv"
    },
    {
     "mangled_component_name" : "_ZN7android7RefBase13onLastWeakRefEPKv"
    }
   ]
  },
  {
   "alignment" : 2,
   "fields" :
   [
    {
     "access" : "private",
     "field_name" : "mMajor",
     "referenced_type" : "_ZTIt"
    },
    {
     "access" : "private",
     "field_name" : "mMinor",
     "field_offset" : 16,
     "referenced_type" : "_ZTIt"
    }
   ],
   "linker_set_key" : "_ZTIN7android8hardware12hidl_versionE",
   "name" : "android::hardware::hidl_version",
   "referenced_type" : "_ZTIN7android8hardware12hidl_versionE",
   "self_type" : "_ZTIN7android8hardware12hidl_versionE",
   "size" : 4,
   "source_file" : "/system/libhidl/base/include/hidl/HidlSupport.h"
  },
  {
   "alignment" : 4,
   "fields" :
   [
    {
     "access" : "private",
     "field_name" : "mMutex",
     "referenced_type" : "_ZTINSt3__15mutexE"
    },
    {
     "access" : "private",
     "field_name" : "mMap",
     "field_offset" : 32,
     "referenced_type" : "_ZTINSt3__13mapINS_12basic_stringIcNS_11char_traitsIcEENS_9allocatorIcEEEENS_8functionIFN7android2spINS8_8hardware7IBinderEEEPvEEENS_4lessIS6_EENS4_INS_4pairIKS6_SF_EEEEEE"
    }
   ],
   "linker_set_key" : "_ZTIN7android8hardware13ConcurrentMapINSt3__112basic_stringIcNS2_11char_traitsIcEENS2_9allocatorIcEEEENS2_8functionIFNS_2spINS0_7IBinderEEEPvEEEEE",
   "name" : "android::hardware::ConcurrentMap<std::basic_string<char, std::char_traits<char>, std::allocator<char> >, std::function<sp<IBinder> (void *)> >",
   "record_kind" : "class",
   "referenced_type" : "_ZTIN7android8hardware13ConcurrentMapINSt3__112basic_stringIcNS2_11char_traitsIcEENS2_9allocatorIcEEEENS2_8functionIFNS_2spINS0_7IBinderEEEPvEEEEE",
   "self_type" : "_ZTIN7android8hardware13ConcurrentMapINSt3__112basic_stringIcNS2_11char_traitsIcEENS2_9allocatorIcEEEENS2_8functionIFNS_2spINS0_7IBinderEEEPvEEEEE",
   "size" : 16,
   "source_file" : "/system/libhidl/transport/include/hidl/ConcurrentMap.h",
   "template_args" :
   [
    "_ZTINSt3__112basic_stringIcNS_11char_traitsIcEENS_9allocatorIcEEEE",
    "_ZTINSt3__18functionIFN7android2spINS1_8hardware7IBinderEEEPvEEE"
   ]
  },
  {
   "alignment" : 4,
   "fields" :
   [
    {
     "access" : "private",
     "field_name" : "mMutex",
     "referenced_type" : "_ZTINSt3__15mutexE"
    },
    {
     "access" : "private",
     "field_name" : "mMap",
     "field_offset" : 32,
     "referenced_type" : "_ZTINSt3__13mapINS_12basic_stringIcNS_11char_traitsIcEENS_9allocatorIcEEEENS_8functionIFN7android2spINS8_4hidl4base4V1_05IBaseEEEPvEEENS_4lessIS6_EENS4_INS_4pairIKS6_SH_EEEEEE"
    }
   ],
   "linker_set_key" : "_ZTIN7android8hardware13ConcurrentMapINSt3__112basic_stringIcNS2_11char_traitsIcEENS2_9allocatorIcEEEENS2_8functionIFNS_2spINS_4hidl4base4V1_05IBaseEEEPvEEEEE",
   "name" : "android::hardware::ConcurrentMap<std::basic_string<char, std::char_traits<char>, std::allocator<char> >, std::function<sp<IBase> (void *)> >",
   "record_kind" : "class",
   "referenced_type" : "_ZTIN7android8hardware13ConcurrentMapINSt3__112basic_stringIcNS2_11char_traitsIcEENS2_9allocatorIcEEEENS2_8functionIFNS_2spINS_4hidl4base4V1_05IBaseEEEPvEEEEE",
   "self_type" : "_ZTIN7android8hardware13ConcurrentMapINSt3__112basic_stringIcNS2_11char_traitsIcEENS2_9allocatorIcEEEENS2_8functionIFNS_2spINS_4hidl4base4V1_05IBaseEEEPvEEEEE",
   "size" : 16,
   "source_file" : "/system/libhidl/transport/include/hidl/ConcurrentMap.h",
   "template_args" :
   [
    "_ZTINSt3__112basic_stringIcNS_11char_traitsIcEENS_9allocatorIcEEEE",
    "_ZTINSt3__18functionIFN7android2spINS1_4hidl4base4V1_05IBaseEEEPvEEE"
   ]
  },
  {
   "alignment" : 4,
   "fields" :
   [
    {
     "access" : "private",
     "field_name" : "mMutex",
     "referenced_type" : "_ZTINSt3__15mutexE"
    },
    {
     "access" : "private",
     "field_name" : "mMap",
     "field_offset" : 32,
     "referenced_type" : "_ZTINSt3__13mapIPKN7android4hidl4base4V1_05IBaseENS1_2wpINS1_8hardware9BHwBinderEEENS_4lessIS7_EENS_9allocatorINS_4pairIKS7_SB_EEEEEE"
    }
   ],
   "linker_set_key" : "_ZTIN7android8hardware13ConcurrentMapIPKNS_4hidl4base4V1_05IBaseENS_2wpINS0_9BHwBinderEEEEE",
   "name" : "android::hardware::ConcurrentMap<const android::hidl::base::V1_0::IBase *, android::wp<android::hardware::BHwBinder> >",
   "record_kind" : "class",
   "referenced_type" : "_ZTIN7android8hardware13ConcurrentMapIPKNS_4hidl4base4V1_05IBaseENS_2wpINS0_9BHwBinderEEEEE",
   "self_type" : "_ZTIN7android8hardware13ConcurrentMapIPKNS_4hidl4base4V1_05IBaseENS_2wpINS0_9BHwBinderEEEEE",
   "size" : 16,
   "source_file" : "/system/libhidl/transport/include/hidl/ConcurrentMap.h",
   "template_args" :
   [
    "_ZTIPKN7android4hidl4base4V1_05IBaseE",
    "_ZTIN7android2wpINS_8hardware9BHwBinderEEE"
   ]
  },
  {
   "alignment" : 8,
   "fields" :
   [
    {
     "field_name" : "flags",
     "referenced_type" : "_ZTIj"
    },
    {
     "field_name" : "fdIndex",
     "field_offset" : 32,
     "referenced_type" : "_ZTIj"
    },
    {
     "field_name" : "offset",
     "field_offset" : 64,
     "referenced_type" : "_ZTIj"
    },
    {
     "field_name" : "extent",
     "field_offset" : 128,
     "referenced_type" : "_ZTIy"
    }
   ],
   "linker_set_key" : "_ZTIN7android8hardware17GrantorDescriptorE",
   "name" : "android::hardware::GrantorDescriptor",
   "referenced_type" : "_ZTIN7android8hardware17GrantorDescriptorE",
   "self_type" : "_ZTIN7android8hardware17GrantorDescriptorE",
   "size" : 24,
   "source_file" : "/system/libhidl/base/include/hidl/MQDescriptor.h"
  },
  {
   "alignment" : 4,
   "base_specifiers" :
   [
    {
     "is_virtual" : true,
     "referenced_type" : "_ZTIN7android7RefBaseE"
    }
   ],
   "linker_set_key" : "_ZTIN7android8hardware20hidl_death_recipientE",
   "name" : "android::hardware::hidl_death_recipient",
   "referenced_type" : "_ZTIN7android8hardware20hidl_death_recipientE",
   "self_type" : "_ZTIN7android8hardware20hidl_death_recipientE",
   "size" : 12,
   "source_file" : "/system/libhidl/base/include/hidl/HidlSupport.h",
   "vtable_components" :
   [
    {
     "component_value" : 4,
     "kind" : "vbase_offset"
    },
    {
     "kind" : "offset_to_top"
    },
    {
     "kind" : "rtti",
     "mangled_component_name" : "_ZTIN7android8hardware20hidl_death_recipientE"
    },
    {
     "is_pure" : true,
     "mangled_component_name" : "_ZN7android8hardware20hidl_death_recipient11serviceDiedEyRKNS_2wpINS_4hidl4base4V1_05IBaseEEE"
    },
    {
     "kind" : "complete_dtor_pointer",
     "mangled_component_name" : "_ZN7android8hardware20hidl_death_recipientD1Ev"
    },
    {
     "kind" : "deleting_dtor_pointer",
     "mangled_component_name" : "_ZN7android8hardware20hidl_death_recipientD0Ev"
    },
    {
     "kind" : "vcall_offset"
    },
    {
     "kind" : "vcall_offset"
    },
    {
     "kind" : "vcall_offset"
    },
    {
     "kind" : "vcall_offset"
    },
    {
     "component_value" : -4,
     "kind" : "vcall_offset"
    },
    {
     "component_value" : -4,
     "kind" : "offset_to_top"
    },
    {
     "kind" : "rtti",
     "mangled_component_name" : "_ZTIN7android8hardware20hidl_death_recipientE"
    },
    {
     "kind" : "complete_dtor_pointer",
     "mangled_component_name" : "_ZTv0_n12_N7android8hardware20hidl_death_recipientD1Ev"
    },
    {
     "kind" : "deleting_dtor_pointer",
     "mangled_component_name" : "_ZTv0_n12_N7android8hardware20hidl_death_recipientD0Ev"
    },
    {
     "mangled_component_name" : "_ZN7android7RefBase10onFirstRefEv"
    },
    {
     "mangled_component_name" : "_ZN7android7RefBase15onLastStrongRefEPKv"
    },
    {
     "mangled_component_name" : "_ZN7android7RefBase20onIncStrongAttemptedEjPKv"
    },
    {
     "mangled_component_name" : "_ZN7android7RefBase13onLastWeakRefEPKv"
    }
   ]
  },
  {
   "alignment" : 4,
   "base_specifiers" :
   [
    {
     "referenced_type" : "_ZTIN7android8hardware7IBinder14DeathRecipientE"
    }
   ],
   "fields" :
   [
    {
     "access" : "private",
     "field_name" : "mRecipient",
     "field_offset" : 32,
     "referenced_type" : "_ZTIN7android2wpINS_8hardware20hidl_death_recipientEEE"
    },
    {
     "access" : "private",
     "field_name" : "mCookie",
     "field_offset" : 96,
     "referenced_type" : "_ZTIy"
    },
    {
     "access" : "private",
     "field_name" : "mBase",
     "field_offset" : 160,
     "referenced_type" : "_ZTIN7android2wpINS_4hidl4base4V1_05IBaseEEE"
    }
   ],
   "linker_set_key" : "_ZTIN7android8hardware27hidl_binder_death_recipientE",
   "name" : "android::hardware::hidl_binder_death_recipient",
   "referenced_type" : "_ZTIN7android8hardware27hidl_binder_death_recipientE",
   "self_type" : "_ZTIN7android8hardware27hidl_binder_death_recipientE",
   "size" : 36,
   "source_file" : "/system/libhidl/transport/include/hidl/HidlBinderSupport.h",
   "vtable_components" :
   [
    {
     "component_value" : 28,
     "kind" : "vbase_offset"
    },
    {
     "kind" : "offset_to_top"
    },
    {
     "kind" : "rtti",
     "mangled_component_name" : "_ZTIN7android8hardware27hidl_binder_death_recipientE"
    },
    {
     "mangled_component_name" : "_ZN7android8hardware27hidl_binder_death_recipient10binderDiedERKNS_2wpINS0_7IBinderEEE"
    },
    {
     "kind" : "complete_dtor_pointer",
     "mangled_component_name" : "_ZN7android8hardware27hidl_binder_death_recipientD1Ev"
    },
    {
     "kind" : "deleting_dtor_pointer",
     "mangled_component_name" : "_ZN7android8hardware27hidl_binder_death_recipientD0Ev"
    },
    {
     "kind" : "vcall_offset"
    },
    {
     "kind" : "vcall_offset"
    },
    {
     "kind" : "vcall_offset"
    },
    {
     "kind" : "vcall_offset"
    },
    {
     "component_value" : -28,
     "kind" : "vcall_offset"
    },
    {
     "component_value" : -28,
     "kind" : "offset_to_top"
    },
    {
     "kind" : "rtti",
     "mangled_component_name" : "_ZTIN7android8hardware27hidl_binder_death_recipientE"
    },
    {
     "kind" : "complete_dtor_pointer",
     "mangled_component_name" : "_ZTv0_n12_N7android8hardware27hidl_binder_death_recipientD1Ev"
    },
    {
     "kind" : "deleting_dtor_pointer",
     "mangled_component_name" : "_ZTv0_n12_N7android8hardware27hidl_binder_death_recipientD0Ev"
    },
    {
     "mangled_component_name" : "_ZN7android7RefBase10onFirstRefEv"
    },
    {
     "mangled_component_name" : "_ZN7android7RefBase15onLastStrongRefEPKv"
    },
    {
     "mangled_component_name" : "_ZN7android7RefBase20onIncStrongAttemptedEjPKv"
    },
    {
     "mangled_component_name" : "_ZN7android7RefBase13onLastWeakRefEPKv"
    }
   ]
  },
  {
   "access" : "private",
   "alignment" : 4,
   "fields" :
   [
    {
     "field_name" : "index",
     "referenced_type" : "_ZTIj"
    },
    {
     "field_name" : "buffer",
     "field_offset" : 32,
     "referenced_type" : "_ZTIy"
    },
    {
     "field_name" : "bufend",
     "field_offset" : 96,
     "referenced_type" : "_ZTIy"
    }
   ],
   "linker_set_key" : "_ZTIN7android8hardware6Parcel10BufferInfoE",
   "name" : "android::hardware::Parcel::BufferInfo",
   "referenced_type" : "_ZTIN7android8hardware6Parcel10BufferInfoE",
   "self_type" : "_ZTIN7android8hardware6Parcel10BufferInfoE",
   "size" : 20,
   "source_file" : "/system/libhwbinder/include/hwbinder/Parcel.h"
  },
  {
   "alignment" : 4,
   "fields" :
   [
    {
     "access" : "private",
     "field_name" : "mBufCachePos",
     "referenced_type" : "_ZTIj"
    },
    {
     "access" : "private",
     "field_name" : "mBufCache",
     "field_offset" : 32,
     "referenced_type" : "_ZTINSt3__16vectorIN7android8hardware6Parcel10BufferInfoENS_9allocatorIS4_EEEE"
    },
    {
     "access" : "private",
     "field_name" : "mError",
     "field_offset" : 128,
     "referenced_type" : "_ZTIi"
    },
    {
     "access" : "private",
     "field_name" : "mData",
     "field_offset" : 160,
     "referenced_type" : "_ZTIPh"
    },
    {
     "access" : "private",
     "field_name" : "mDataSize",
     "field_offset" : 192,
     "referenced_type" : "_ZTIj"
    },
    {
     "access" : "private",
     "field_name" : "mDataCapacity",
     "field_offset" : 224,
     "referenced_type" : "_ZTIj"
    },
    {
     "access" : "private",
     "field_name" : "mDataPos",
     "field_offset" : 256,
     "referenced_type" : "_ZTIj"
    },
    {
     "access" : "private",
     "field_name" : "mObjects",
     "field_offset" : 288,
     "referenced_type" : "_ZTIPy"
    },
    {
     "access" : "private",
     "field_name" : "mObjectsSize",
     "field_offset" : 320,
     "referenced_type" : "_ZTIj"
    },
    {
     "access" : "private",
     "field_name" : "mObjectsCapacity",
     "field_offset" : 352,
     "referenced_type" : "_ZTIj"
    },
    {
     "access" : "private",
     "field_name" : "mNextObjectHint",
     "field_offset" : 384,
     "referenced_type" : "_ZTIj"
    },
    {
     "access" : "private",
     "field_name" : "mNumRef",
     "field_offset" : 416,
     "referenced_type" : "_ZTIj"
    },
    {
     "access" : "private",
     "field_name" : "mFdsKnown",
     "field_offset" : 448,
     "referenced_type" : "_ZTIb"
    },
    {
     "access" : "private",
     "field_name" : "mHasFds",
     "field_offset" : 456,
     "referenced_type" : "_ZTIb"
    },
    {
     "access" : "private",
     "field_name" : "mAllowFds",
     "field_offset" : 464,
     "referenced_type" : "_ZTIb"
    },
    {
     "access" : "private",
     "field_name" : "mOwner",
     "field_offset" : 480,
     "referenced_type" : "_ZTIPFvPN7android8hardware6ParcelEPKhjPKyjPvE"
    },
    {
     "access" : "private",
     "field_name" : "mOwnerCookie",
     "field_offset" : 512,
     "referenced_type" : "_ZTIPv"
    }
   ],
   "linker_set_key" : "_ZTIN7android8hardware6ParcelE",
   "name" : "android::hardware::Parcel",
   "record_kind" : "class",
   "referenced_type" : "_ZTIN7android8hardware6ParcelE",
   "self_type" : "_ZTIN7android8hardware6ParcelE",
   "size" : 68,
   "source_file" : "/system/libhwbinder/include/hwbinder/Parcel.h"
  },
  {
   "alignment" : 4,
   "base_specifiers" :
   [
    {
     "referenced_type" : "_ZTIN7android8hardware7details13return_statusE"
    }
   ],
   "fields" :
   [
    {
     "access" : "private",
     "field_name" : "mVal",
     "field_offset" : 192,
     "referenced_type" : "_ZTIN7android2spINS_10frameworks16schedulerservice4V1_024ISchedulingPolicyServiceEEE"
    }
   ],
   "linker_set_key" : "_ZTIN7android8hardware6ReturnINS_2spINS_10frameworks16schedulerservice4V1_024ISchedulingPolicyServiceEEEEE",
   "name" : "android::hardware::Return<android::sp<android::frameworks::schedulerservice::V1_0::ISchedulingPolicyService> >",
   "record_kind" : "class",
   "referenced_type" : "_ZTIN7android8hardware6ReturnINS_2spINS_10frameworks16schedulerservice4V1_024ISchedulingPolicyServiceEEEEE",
   "self_type" : "_ZTIN7android8hardware6ReturnINS_2spINS_10frameworks16schedulerservice4V1_024ISchedulingPolicyServiceEEEEE",
   "size" : 28,
   "source_file" : "/system/libhidl/base/include/hidl/Status.h",
   "template_args" :
   [
    "_ZTIN7android2spINS_10frameworks16schedulerservice4V1_024ISchedulingPolicyServiceEEE"
   ]
  },
  {
   "alignment" : 4,
   "base_specifiers" :
   [
    {
     "referenced_type" : "_ZTIN7android8hardware7details13return_statusE"
    }
   ],
   "fields" :
   [
    {
     "access" : "private",
     "field_name" : "mVal",
     "field_offset" : 168,
     "referenced_type" : "_ZTIb"
    }
   ],
   "linker_set_key" : "_ZTIN7android8hardware6ReturnIbEE",
   "name" : "android::hardware::Return<bool>",
   "record_kind" : "class",
   "referenced_type" : "_ZTIN7android8hardware6ReturnIbEE",
   "self_type" : "_ZTIN7android8hardware6ReturnIbEE",
   "size" : 24,
   "source_file" : "/system/libhidl/base/include/hidl/Status.h",
   "template_args" : [ "_ZTIb" ]
  },
  {
   "alignment" : 4,
   "base_specifiers" :
   [
    {
     "referenced_type" : "_ZTIN7android8hardware7details13return_statusE"
    }
   ],
   "fields" :
   [
    {
     "access" : "private",
     "field_name" : "mVal",
     "field_offset" : 192,
     "referenced_type" : "_ZTIi"
    }
   ],
   "linker_set_key" : "_ZTIN7android8hardware6ReturnIiEE",
   "name" : "android::hardware::Return<int>",
   "record_kind" : "class",
   "referenced_type" : "_ZTIN7android8hardware6ReturnIiEE",
   "self_type" : "_ZTIN7android8hardware6ReturnIiEE",
   "size" : 28,
   "source_file" : "/system/libhidl/base/include/hidl/Status.h",
   "template_args" : [ "_ZTIi" ]
  },
  {
   "alignment" : 4,
   "base_specifiers" :
   [
    {
     "referenced_type" : "_ZTIN7android8hardware7details13return_statusE"
    }
   ],
   "linker_set_key" : "_ZTIN7android8hardware6ReturnIvEE",
   "name" : "android::hardware::Return<void>",
   "record_kind" : "class",
   "referenced_type" : "_ZTIN7android8hardware6ReturnIvEE",
   "self_type" : "_ZTIN7android8hardware6ReturnIvEE",
   "size" : 24,
   "source_file" : "/system/libhidl/base/include/hidl/Status.h",
   "template_args" : [ "_ZTIv" ]
  },
  {
   "alignment" : 4,
   "fields" :
   [
    {
     "access" : "private",
     "field_name" : "mException",
     "referenced_type" : "_ZTIi"
    },
    {
     "access" : "private",
     "field_name" : "mErrorCode",
     "field_offset" : 32,
     "referenced_type" : "_ZTIi"
    },
    {
     "access" : "private",
     "field_name" : "mMessage",
     "field_offset" : 64,
     "referenced_type" : "_ZTINSt3__112basic_stringIcNS_11char_traitsIcEENS_9allocatorIcEEEE"
    }
   ],
   "linker_set_key" : "_ZTIN7android8hardware6StatusE",
   "name" : "android::hardware::Status",
   "record_kind" : "class",
   "referenced_type" : "_ZTIN7android8hardware6StatusE",
   "self_type" : "_ZTIN7android8hardware6StatusE",
   "size" : 20,
   "source_file" : "/system/libhidl/base/include/hidl/Status.h"
  },
  {
   "alignment" : 4,
   "base_specifiers" :
   [
    {
     "is_virtual" : true,
     "referenced_type" : "_ZTIN7android7RefBaseE"
    }
   ],
   "linker_set_key" : "_ZTIN7android8hardware7IBinder14DeathRecipientE",
   "name" : "android::hardware::IBinder::DeathRecipient",
   "record_kind" : "class",
   "referenced_type" : "_ZTIN7android8hardware7IBinder14DeathRecipientE",
   "self_type" : "_ZTIN7android8hardware7IBinder14DeathRecipientE",
   "size" : 12,
   "source_file" : "/system/libhwbinder/include/hwbinder/IBinder.h",
   "vtable_components" :
   [
    {
     "component_value" : 4,
     "kind" : "vbase_offset"
    },
    {
     "kind" : "offset_to_top"
    },
    {
     "kind" : "rtti",
     "mangled_component_name" : "_ZTIN7android8hardware7IBinder14DeathRecipientE"
    },
    {
     "is_pure" : true,
     "mangled_component_name" : "_ZN7android8hardware7IBinder14DeathRecipient10binderDiedERKNS_2wpIS1_EE"
    },
    {
     "kind" : "complete_dtor_pointer",
     "mangled_component_name" : "_ZN7android8hardware7IBinder14DeathRecipientD1Ev"
    },
    {
     "kind" : "deleting_dtor_pointer",
     "mangled_component_name" : "_ZN7android8hardware7IBinder14DeathRecipientD0Ev"
    },
    {
     "kind" : "vcall_offset"
    },
    {
     "kind" : "vcall_offset"
    },
    {
     "kind" : "vcall_offset"
    },
    {
     "kind" : "vcall_offset"
    },
    {
     "component_value" : -4,
     "kind" : "vcall_offset"
    },
    {
     "component_value" : -4,
     "kind" : "offset_to_top"
    },
    {
     "kind" : "rtti",
     "mangled_component_name" : "_ZTIN7android8hardware7IBinder14DeathRecipientE"
    },
    {
     "kind" : "complete_dtor_pointer",
     "mangled_component_name" : "_ZTv0_n12_N7android8hardware7IBinder14DeathRecipientD1Ev"
    },
    {
     "kind" : "deleting_dtor_pointer",
     "mangled_component_name" : "_ZTv0_n12_N7android8hardware7IBinder14DeathRecipientD0Ev"
    },
    {
     "mangled_component_name" : "_ZN7android7RefBase10onFirstRefEv"
    },
    {
     "mangled_component_name" : "_ZN7android7RefBase15onLastStrongRefEPKv"
    },
    {
     "mangled_component_name" : "_ZN7android7RefBase20onIncStrongAttemptedEjPKv"
    },
    {
     "mangled_component_name" : "_ZN7android7RefBase13onLastWeakRefEPKv"
    }
   ]
  },
  {
   "alignment" : 4,
   "base_specifiers" :
   [
    {
     "is_virtual" : true,
     "referenced_type" : "_ZTIN7android7RefBaseE"
    }
   ],
   "linker_set_key" : "_ZTIN7android8hardware7IBinderE",
   "name" : "android::hardware::IBinder",
   "record_kind" : "class",
   "referenced_type" : "_ZTIN7android8hardware7IBinderE",
   "self_type" : "_ZTIN7android8hardware7IBinderE",
   "size" : 12,
   "source_file" : "/system/libhwbinder/include/hwbinder/IBinder.h",
   "vtable_components" :
   [
    {
     "component_value" : 4,
     "kind" : "vbase_offset"
    },
    {
     "kind" : "offset_to_top"
    },
    {
     "kind" : "rtti",
     "mangled_component_name" : "_ZTIN7android8hardware7IBinderE"
    },
    {
     "is_pure" : true,
     "mangled_component_name" : "_ZN7android8hardware7IBinder8transactEjRKNS0_6ParcelEPS2_jNSt3__18functionIFvRS2_EEE"
    },
    {
     "is_pure" : true,
     "mangled_component_name" : "_ZN7android8hardware7IBinder11linkToDeathERKNS_2spINS1_14DeathRecipientEEEPvj"
    },
    {
     "is_pure" : true,
     "mangled_component_name" : "_ZN7android8hardware7IBinder13unlinkToDeathERKNS_2wpINS1_14DeathRecipientEEEPvjPS4_"
    },
    {
     "mangled_component_name" : "_ZNK7android8hardware7IBinder13checkSubclassEPKv"
    },
    {
     "is_pure" : true,
     "mangled_component_name" : "_ZN7android8hardware7IBinder12attachObjectEPKvPvS4_PFvS3_S4_S4_E"
    },
    {
     "is_pure" : true,
     "mangled_component_name" : "_ZNK7android8hardware7IBinder10findObjectEPKv"
    },
    {
     "is_pure" : true,
     "mangled_component_name" : "_ZN7android8hardware7IBinder12detachObjectEPKv"
    },
    {
     "mangled_component_name" : "_ZN7android8hardware7IBinder11localBinderEv"
    },
    {
     "mangled_component_name" : "_ZN7android8hardware7IBinder12remoteBinderEv"
    },
    {
     "kind" : "complete_dtor_pointer",
     "mangled_component_name" : "_ZN7android8hardware7IBinderD1Ev"
    },
    {
     "kind" : "deleting_dtor_pointer",
     "mangled_component_name" : "_ZN7android8hardware7IBinderD0Ev"
    },
    {
     "kind" : "vcall_offset"
    },
    {
     "kind" : "vcall_offset"
    },
    {
     "kind" : "vcall_offset"
    },
    {
     "kind" : "vcall_offset"
    },
    {
     "component_value" : -4,
     "kind" : "vcall_offset"
    },
    {
     "component_value" : -4,
     "kind" : "offset_to_top"
    },
    {
     "kind" : "rtti",
     "mangled_component_name" : "_ZTIN7android8hardware7IBinderE"
    },
    {
     "kind" : "complete_dtor_pointer",
     "mangled_component_name" : "_ZTv0_n12_N7android8hardware7IBinderD1Ev"
    },
    {
     "kind" : "deleting_dtor_pointer",
     "mangled_component_name" : "_ZTv0_n12_N7android8hardware7IBinderD0Ev"
    },
    {
     "mangled_component_name" : "_ZN7android7RefBase10onFirstRefEv"
    },
    {
     "mangled_component_name" : "_ZN7android7RefBase15onLastStrongRefEPKv"
    },
    {
     "mangled_component_name" : "_ZN7android7RefBase20onIncStrongAttemptedEjPKv"
    },
    {
     "mangled_component_name" : "_ZN7android7RefBase13onLastWeakRefEPKv"
    }
   ]
  },
  {
   "alignment" : 4,
   "fields" :
   [
    {
     "access" : "private",
     "field_name" : "mQueue",
     "referenced_type" : "_ZTINSt3__110shared_ptrIN7android8hardware7details17SynchronizedQueueINS_8functionIFvvEEEEEEE"
    }
   ],
   "linker_set_key" : "_ZTIN7android8hardware7details10TaskRunnerE",
   "name" : "android::hardware::details::TaskRunner",
   "record_kind" : "class",
   "referenced_type" : "_ZTIN7android8hardware7details10TaskRunnerE",
   "self_type" : "_ZTIN7android8hardware7details10TaskRunnerE",
   "size" : 8,
   "source_file" : "/system/libhidl/base/include/hidl/TaskRunner.h"
  },
  {
   "alignment" : 4,
   "fields" :
   [
    {
     "access" : "private",
     "referenced_type" : "_ZTIN7android8hardware7details12hidl_pointerI13native_handleEUt_E"
    }
   ],
   "linker_set_key" : "_ZTIN7android8hardware7details12hidl_pointerI13native_handleEE",
   "name" : "android::hardware::details::hidl_pointer<native_handle>",
   "referenced_type" : "_ZTIN7android8hardware7details12hidl_pointerI13native_handleEE",
   "self_type" : "_ZTIN7android8hardware7details12hidl_pointerI13native_handleEE",
   "size" : 8,
   "source_file" : "/system/libhidl/base/include/hidl/HidlInternal.h",
   "template_args" : [ "_ZTI13native_handle" ]
  },
  {
   "access" : "private",
   "alignment" : 4,
   "fields" :
   [
    {
     "field_name" : "mPointer",
     "referenced_type" : "_ZTIP13native_handle"
    },
    {
     "field_name" : "_pad",
     "referenced_type" : "_ZTIy"
    }
   ],
   "is_anonymous" : true,
   "linker_set_key" : "_ZTIN7android8hardware7details12hidl_pointerI13native_handleEUt_E",
   "name" : "android::hardware::details::hidl_pointer<native_handle>::(anonymous union at system/libhidl/base/include/hidl/HidlInternal.h:110:5)",
   "record_kind" : "union",
   "referenced_type" : "_ZTIN7android8hardware7details12hidl_pointerI13native_handleEUt_E",
   "self_type" : "_ZTIN7android8hardware7details12hidl_pointerI13native_handleEUt_E",
   "size" : 8,
   "source_file" : "/system/libhidl/base/include/hidl/HidlInternal.h"
  },
  {
   "alignment" : 4,
   "fields" :
   [
    {
     "access" : "private",
     "referenced_type" : "_ZTIN7android8hardware7details12hidl_pointerIK13native_handleEUt_E"
    }
   ],
   "linker_set_key" : "_ZTIN7android8hardware7details12hidl_pointerIK13native_handleEE",
   "name" : "android::hardware::details::hidl_pointer<const native_handle>",
   "referenced_type" : "_ZTIN7android8hardware7details12hidl_pointerIK13native_handleEE",
   "self_type" : "_ZTIN7android8hardware7details12hidl_pointerIK13native_handleEE",
   "size" : 8,
   "source_file" : "/system/libhidl/base/include/hidl/HidlInternal.h",
   "template_args" : [ "_ZTIK13native_handle" ]
  },
  {
   "access" : "private",
   "alignment" : 4,
   "fields" :
   [
    {
     "field_name" : "mPointer",
     "referenced_type" : "_ZTIPK13native_handle"
    },
    {
     "field_name" : "_pad",
     "referenced_type" : "_ZTIy"
    }
   ],
   "is_anonymous" : true,
   "linker_set_key" : "_ZTIN7android8hardware7details12hidl_pointerIK13native_handleEUt_E",
   "name" : "android::hardware::details::hidl_pointer<const native_handle>::(anonymous union at system/libhidl/base/include/hidl/HidlInternal.h:110:5)",
   "record_kind" : "union",
   "referenced_type" : "_ZTIN7android8hardware7details12hidl_pointerIK13native_handleEUt_E",
   "self_type" : "_ZTIN7android8hardware7details12hidl_pointerIK13native_handleEUt_E",
   "size" : 8,
   "source_file" : "/system/libhidl/base/include/hidl/HidlInternal.h"
  },
  {
   "alignment" : 4,
   "fields" :
   [
    {
     "access" : "private",
     "referenced_type" : "_ZTIN7android8hardware7details12hidl_pointerIKcEUt_E"
    }
   ],
   "linker_set_key" : "_ZTIN7android8hardware7details12hidl_pointerIKcEE",
   "name" : "android::hardware::details::hidl_pointer<const char>",
   "referenced_type" : "_ZTIN7android8hardware7details12hidl_pointerIKcEE",
   "self_type" : "_ZTIN7android8hardware7details12hidl_pointerIKcEE",
   "size" : 8,
   "source_file" : "/system/libhidl/base/include/hidl/HidlInternal.h",
   "template_args" : [ "_ZTIKc" ]
  },
  {
   "access" : "private",
   "alignment" : 4,
   "fields" :
   [
    {
     "field_name" : "mPointer",
     "referenced_type" : "_ZTIPKc"
    },
    {
     "field_name" : "_pad",
     "referenced_type" : "_ZTIy"
    }
   ],
   "is_anonymous" : true,
   "linker_set_key" : "_ZTIN7android8hardware7details12hidl_pointerIKcEUt_E",
   "name" : "android::hardware::details::hidl_pointer<const char>::(anonymous union at system/libhidl/base/include/hidl/HidlInternal.h:110:5)",
   "record_kind" : "union",
   "referenced_type" : "_ZTIN7android8hardware7details12hidl_pointerIKcEUt_E",
   "self_type" : "_ZTIN7android8hardware7details12hidl_pointerIKcEUt_E",
   "size" : 8,
   "source_file" : "/system/libhidl/base/include/hidl/HidlInternal.h"
  },
  {
   "alignment" : 4,
   "fields" :
   [
    {
     "access" : "private",
     "referenced_type" : "_ZTIN7android8hardware7details12hidl_pointerINS0_10hidl_arrayIhLj32EJEEEEUt_E"
    }
   ],
   "linker_set_key" : "_ZTIN7android8hardware7details12hidl_pointerINS0_10hidl_arrayIhLj32EJEEEEE",
   "name" : "android::hardware::details::hidl_pointer<android::hardware::hidl_array<unsigned char, 32> >",
   "referenced_type" : "_ZTIN7android8hardware7details12hidl_pointerINS0_10hidl_arrayIhLj32EJEEEEE",
   "self_type" : "_ZTIN7android8hardware7details12hidl_pointerINS0_10hidl_arrayIhLj32EJEEEEE",
   "size" : 8,
   "source_file" : "/system/libhidl/base/include/hidl/HidlInternal.h",
   "template_args" : [ "_ZTIN7android8hardware10hidl_arrayIhLj32EJEEE" ]
  },
  {
   "access" : "private",
   "alignment" : 4,
   "fields" :
   [
    {
     "field_name" : "mPointer",
     "referenced_type" : "_ZTIPN7android8hardware10hidl_arrayIhLj32EJEEE"
    },
    {
     "field_name" : "_pad",
     "referenced_type" : "_ZTIy"
    }
   ],
   "is_anonymous" : true,
   "linker_set_key" : "_ZTIN7android8hardware7details12hidl_pointerINS0_10hidl_arrayIhLj32EJEEEEUt_E",
   "name" : "android::hardware::details::hidl_pointer<hidl_array<unsigned char, 32> >::(anonymous union at system/libhidl/base/include/hidl/HidlInternal.h:110:5)",
   "record_kind" : "union",
   "referenced_type" : "_ZTIN7android8hardware7details12hidl_pointerINS0_10hidl_arrayIhLj32EJEEEEUt_E",
   "self_type" : "_ZTIN7android8hardware7details12hidl_pointerINS0_10hidl_arrayIhLj32EJEEEEUt_E",
   "size" : 8,
   "source_file" : "/system/libhidl/base/include/hidl/HidlInternal.h"
  },
  {
   "alignment" : 4,
   "fields" :
   [
    {
     "access" : "private",
     "referenced_type" : "_ZTIN7android8hardware7details12hidl_pointerINS0_11hidl_stringEEUt_E"
    }
   ],
   "linker_set_key" : "_ZTIN7android8hardware7details12hidl_pointerINS0_11hidl_stringEEE",
   "name" : "android::hardware::details::hidl_pointer<android::hardware::hidl_string>",
   "referenced_type" : "_ZTIN7android8hardware7details12hidl_pointerINS0_11hidl_stringEEE",
   "self_type" : "_ZTIN7android8hardware7details12hidl_pointerINS0_11hidl_stringEEE",
   "size" : 8,
   "source_file" : "/system/libhidl/base/include/hidl/HidlInternal.h",
   "template_args" : [ "_ZTIN7android8hardware11hidl_stringE" ]
  },
  {
   "access" : "private",
   "alignment" : 4,
   "fields" :
   [
    {
     "field_name" : "mPointer",
     "referenced_type" : "_ZTIPN7android8hardware11hidl_stringE"
    },
    {
     "field_name" : "_pad",
     "referenced_type" : "_ZTIy"
    }
   ],
   "is_anonymous" : true,
   "linker_set_key" : "_ZTIN7android8hardware7details12hidl_pointerINS0_11hidl_stringEEUt_E",
   "name" : "android::hardware::details::hidl_pointer<hidl_string>::(anonymous union at system/libhidl/base/include/hidl/HidlInternal.h:110:5)",
   "record_kind" : "union",
   "referenced_type" : "_ZTIN7android8hardware7details12hidl_pointerINS0_11hidl_stringEEUt_E",
   "self_type" : "_ZTIN7android8hardware7details12hidl_pointerINS0_11hidl_stringEEUt_E",
   "size" : 8,
   "source_file" : "/system/libhidl/base/include/hidl/HidlInternal.h"
  },
  {
   "alignment" : 4,
   "fields" :
   [
    {
     "access" : "private",
     "referenced_type" : "_ZTIN7android8hardware7details12hidl_pointerINS0_17GrantorDescriptorEEUt_E"
    }
   ],
   "linker_set_key" : "_ZTIN7android8hardware7details12hidl_pointerINS0_17GrantorDescriptorEEE",
   "name" : "android::hardware::details::hidl_pointer<android::hardware::GrantorDescriptor>",
   "referenced_type" : "_ZTIN7android8hardware7details12hidl_pointerINS0_17GrantorDescriptorEEE",
   "self_type" : "_ZTIN7android8hardware7details12hidl_pointerINS0_17GrantorDescriptorEEE",
   "size" : 8,
   "source_file" : "/system/libhidl/base/include/hidl/HidlInternal.h",
   "template_args" : [ "_ZTIN7android8hardware17GrantorDescriptorE" ]
  },
  {
   "access" : "private",
   "alignment" : 4,
   "fields" :
   [
    {
     "field_name" : "mPointer",
     "referenced_type" : "_ZTIPN7android8hardware17GrantorDescriptorE"
    },
    {
     "field_name" : "_pad",
     "referenced_type" : "_ZTIy"
    }
   ],
   "is_anonymous" : true,
   "linker_set_key" : "_ZTIN7android8hardware7details12hidl_pointerINS0_17GrantorDescriptorEEUt_E",
   "name" : "android::hardware::details::hidl_pointer<GrantorDescriptor>::(anonymous union at system/libhidl/base/include/hidl/HidlInternal.h:110:5)",
   "record_kind" : "union",
   "referenced_type" : "_ZTIN7android8hardware7details12hidl_pointerINS0_17GrantorDescriptorEEUt_E",
   "self_type" : "_ZTIN7android8hardware7details12hidl_pointerINS0_17GrantorDescriptorEEUt_E",
   "size" : 8,
   "source_file" : "/system/libhidl/base/include/hidl/HidlInternal.h"
  },
  {
   "alignment" : 4,
   "fields" :
   [
    {
     "access" : "private",
     "referenced_type" : "_ZTIN7android8hardware7details12hidl_pointerIcEUt_E"
    }
   ],
   "linker_set_key" : "_ZTIN7android8hardware7details12hidl_pointerIcEE",
   "name" : "android::hardware::details::hidl_pointer<char>",
   "referenced_type" : "_ZTIN7android8hardware7details12hidl_pointerIcEE",
   "self_type" : "_ZTIN7android8hardware7details12hidl_pointerIcEE",
   "size" : 8,
   "source_file" : "/system/libhidl/base/include/hidl/HidlInternal.h",
   "template_args" : [ "_ZTIc" ]
  },
  {
   "access" : "private",
   "alignment" : 4,
   "fields" :
   [
    {
     "field_name" : "mPointer",
     "referenced_type" : "_ZTIPc"
    },
    {
     "field_name" : "_pad",
     "referenced_type" : "_ZTIy"
    }
   ],
   "is_anonymous" : true,
   "linker_set_key" : "_ZTIN7android8hardware7details12hidl_pointerIcEUt_E",
   "name" : "android::hardware::details::hidl_pointer<char>::(anonymous union at system/libhidl/base/include/hidl/HidlInternal.h:110:5)",
   "record_kind" : "union",
   "referenced_type" : "_ZTIN7android8hardware7details12hidl_pointerIcEUt_E",
   "self_type" : "_ZTIN7android8hardware7details12hidl_pointerIcEUt_E",
   "size" : 8,
   "source_file" : "/system/libhidl/base/include/hidl/HidlInternal.h"
  },
  {
   "alignment" : 4,
   "fields" :
   [
    {
     "access" : "private",
     "referenced_type" : "_ZTIN7android8hardware7details12hidl_pointerIiEUt_E"
    }
   ],
   "linker_set_key" : "_ZTIN7android8hardware7details12hidl_pointerIiEE",
   "name" : "android::hardware::details::hidl_pointer<int>",
   "referenced_type" : "_ZTIN7android8hardware7details12hidl_pointerIiEE",
   "self_type" : "_ZTIN7android8hardware7details12hidl_pointerIiEE",
   "size" : 8,
   "source_file" : "/system/libhidl/base/include/hidl/HidlInternal.h",
   "template_args" : [ "_ZTIi" ]
  },
  {
   "access" : "private",
   "alignment" : 4,
   "fields" :
   [
    {
     "field_name" : "mPointer",
     "referenced_type" : "_ZTIPi"
    },
    {
     "field_name" : "_pad",
     "referenced_type" : "_ZTIy"
    }
   ],
   "is_anonymous" : true,
   "linker_set_key" : "_ZTIN7android8hardware7details12hidl_pointerIiEUt_E",
   "name" : "android::hardware::details::hidl_pointer<int>::(anonymous union at system/libhidl/base/include/hidl/HidlInternal.h:110:5)",
   "record_kind" : "union",
   "referenced_type" : "_ZTIN7android8hardware7details12hidl_pointerIiEUt_E",
   "self_type" : "_ZTIN7android8hardware7details12hidl_pointerIiEUt_E",
   "size" : 8,
   "source_file" : "/system/libhidl/base/include/hidl/HidlInternal.h"
  },
  {
   "alignment" : 4,
   "fields" :
   [
    {
     "access" : "private",
     "field_name" : "buffer",
     "referenced_type" : "_ZTIA16_c"
    }
   ],
   "linker_set_key" : "_ZTIN7android8hardware7details13DoNotDestructINS0_13ConcurrentMapIPKNS_4hidl4base4V1_05IBaseENS_2wpINS0_9BHwBinderEEEEEEE",
   "name" : "android::hardware::details::DoNotDestruct<android::hardware::ConcurrentMap<const android::hidl::base::V1_0::IBase *, android::wp<android::hardware::BHwBinder> > >",
   "record_kind" : "class",
   "referenced_type" : "_ZTIN7android8hardware7details13DoNotDestructINS0_13ConcurrentMapIPKNS_4hidl4base4V1_05IBaseENS_2wpINS0_9BHwBinderEEEEEEE",
   "self_type" : "_ZTIN7android8hardware7details13DoNotDestructINS0_13ConcurrentMapIPKNS_4hidl4base4V1_05IBaseENS_2wpINS0_9BHwBinderEEEEEEE",
   "size" : 16,
   "source_file" : "/system/libhidl/transport/include/hidl/ConcurrentMap.h",
   "template_args" :
   [
    "_ZTIN7android8hardware13ConcurrentMapIPKNS_4hidl4base4V1_05IBaseENS_2wpINS0_9BHwBinderEEEEE"
   ]
  },
  {
   "alignment" : 4,
   "fields" :
   [
    {
     "access" : "private",
     "field_name" : "mStatus",
     "referenced_type" : "_ZTIN7android8hardware6StatusE"
    },
    {
     "access" : "private",
     "field_name" : "mCheckedStatus",
     "field_offset" : 160,
     "referenced_type" : "_ZTIb"
    }
   ],
   "linker_set_key" : "_ZTIN7android8hardware7details13return_statusE",
   "name" : "android::hardware::details::return_status",
   "record_kind" : "class",
   "referenced_type" : "_ZTIN7android8hardware7details13return_statusE",
   "self_type" : "_ZTIN7android8hardware7details13return_statusE",
   "size" : 24,
   "source_file" : "/system/libhidl/base/include/hidl/Status.h"
  },
  {
   "alignment" : 4,
   "fields" :
   [
    {
     "access" : "protected",
     "field_name" : "mInstrumentationCallbacks",
     "field_offset" : 32,
     "referenced_type" : "_ZTINSt3__16vectorINS_8functionIFvN7android8hardware7details16HidlInstrumentor20InstrumentationEventEPKcS8_S8_S8_PNS0_IPvNS_9allocatorIS9_EEEEEEENSA_ISF_EEEE"
    },
    {
     "access" : "protected",
     "field_name" : "mEnableInstrumentation",
     "field_offset" : 128,
     "referenced_type" : "_ZTIb"
    },
    {
     "access" : "protected",
     "field_name" : "mInstrumentationLibPackage",
     "field_offset" : 160,
     "referenced_type" : "_ZTINSt3__112basic_stringIcNS_11char_traitsIcEENS_9allocatorIcEEEE"
    },
    {
     "access" : "protected",
     "field_name" : "mInterfaceName",
     "field_offset" : 256,
     "referenced_type" : "_ZTINSt3__112basic_stringIcNS_11char_traitsIcEENS_9allocatorIcEEEE"
    }
   ],
   "linker_set_key" : "_ZTIN7android8hardware7details16HidlInstrumentorE",
   "name" : "android::hardware::details::HidlInstrumentor",
   "referenced_type" : "_ZTIN7android8hardware7details16HidlInstrumentorE",
   "self_type" : "_ZTIN7android8hardware7details16HidlInstrumentorE",
   "size" : 44,
   "source_file" : "/system/libhidl/base/include/hidl/HidlInternal.h",
   "vtable_components" :
   [
    {
     "kind" : "offset_to_top"
    },
    {
     "kind" : "rtti",
     "mangled_component_name" : "_ZTIN7android8hardware7details16HidlInstrumentorE"
    },
    {
     "kind" : "complete_dtor_pointer",
     "mangled_component_name" : "_ZN7android8hardware7details16HidlInstrumentorD1Ev"
    },
    {
     "kind" : "deleting_dtor_pointer",
     "mangled_component_name" : "_ZN7android8hardware7details16HidlInstrumentorD0Ev"
    }
   ]
  },
  {
   "alignment" : 1,
   "linker_set_key" : "_ZTIN7android8hardware7details5i_tagE",
   "name" : "android::hardware::details::i_tag",
   "referenced_type" : "_ZTIN7android8hardware7details5i_tagE",
   "self_type" : "_ZTIN7android8hardware7details5i_tagE",
   "size" : 1,
   "source_file" : "/system/libhidl/base/include/hidl/HidlInternal.h"
  },
  {
   "alignment" : 1,
   "linker_set_key" : "_ZTIN7android8hardware7details6bs_tagE",
   "name" : "android::hardware::details::bs_tag",
   "referenced_type" : "_ZTIN7android8hardware7details6bs_tagE",
   "self_type" : "_ZTIN7android8hardware7details6bs_tagE",
   "size" : 1,
   "source_file" : "/system/libhidl/base/include/hidl/HidlInternal.h"
  },
  {
   "alignment" : 1,
   "linker_set_key" : "_ZTIN7android8hardware7details8bnhw_tagE",
   "name" : "android::hardware::details::bnhw_tag",
   "referenced_type" : "_ZTIN7android8hardware7details8bnhw_tagE",
   "self_type" : "_ZTIN7android8hardware7details8bnhw_tagE",
   "size" : 1,
   "source_file" : "/system/libhidl/base/include/hidl/HidlInternal.h"
  },
  {
   "alignment" : 1,
   "linker_set_key" : "_ZTIN7android8hardware7details8bphw_tagE",
   "name" : "android::hardware::details::bphw_tag",
   "referenced_type" : "_ZTIN7android8hardware7details8bphw_tagE",
   "self_type" : "_ZTIN7android8hardware7details8bphw_tagE",
   "size" : 1,
   "source_file" : "/system/libhidl/base/include/hidl/HidlInternal.h"
  },
  {
   "alignment" : 1,
   "linker_set_key" : "_ZTIN7android8hardware7details9std_arrayIhLj32EJEEE",
   "name" : "android::hardware::details::std_array<unsigned char, 32>",
   "referenced_type" : "_ZTIN7android8hardware7details9std_arrayIhLj32EJEEE",
   "self_type" : "_ZTIN7android8hardware7details9std_arrayIhLj32EJEEE",
   "size" : 1,
   "source_file" : "/system/libhidl/base/include/hidl/HidlSupport.h",
   "template_args" : [ "_ZTIh" ]
  },
  {
   "alignment" : 4,
   "fields" :
   [
    {
     "access" : "private",
     "field_name" : "mBuffer",
     "referenced_type" : "_ZTIN7android8hardware7details12hidl_pointerINS0_10hidl_arrayIhLj32EJEEEEE"
    },
    {
     "access" : "private",
     "field_name" : "mSize",
     "field_offset" : 64,
     "referenced_type" : "_ZTIj"
    },
    {
     "access" : "private",
     "field_name" : "mOwnsBuffer",
     "field_offset" : 96,
     "referenced_type" : "_ZTIb"
    },
    {
     "access" : "private",
     "field_name" : "mPad",
     "field_offset" : 104,
     "referenced_type" : "_ZTIA3_h"
    }
   ],
   "linker_set_key" : "_ZTIN7android8hardware8hidl_vecINS0_10hidl_arrayIhLj32EJEEEEE",
   "name" : "android::hardware::hidl_vec<android::hardware::hidl_array<unsigned char, 32> >",
   "referenced_type" : "_ZTIN7android8hardware8hidl_vecINS0_10hidl_arrayIhLj32EJEEEEE",
   "self_type" : "_ZTIN7android8hardware8hidl_vecINS0_10hidl_arrayIhLj32EJEEEEE",
   "size" : 16,
   "source_file" : "/system/libhidl/base/include/hidl/HidlSupport.h",
   "template_args" : [ "_ZTIN7android8hardware10hidl_arrayIhLj32EJEEE" ]
  },
  {
   "alignment" : 4,
   "fields" :
   [
    {
     "access" : "private",
     "field_name" : "mBuffer",
     "referenced_type" : "_ZTIN7android8hardware7details12hidl_pointerINS0_11hidl_stringEEE"
    },
    {
     "access" : "private",
     "field_name" : "mSize",
     "field_offset" : 64,
     "referenced_type" : "_ZTIj"
    },
    {
     "access" : "private",
     "field_name" : "mOwnsBuffer",
     "field_offset" : 96,
     "referenced_type" : "_ZTIb"
    },
    {
     "access" : "private",
     "field_name" : "mPad",
     "field_offset" : 104,
     "referenced_type" : "_ZTIA3_h"
    }
   ],
   "linker_set_key" : "_ZTIN7android8hardware8hidl_vecINS0_11hidl_stringEEE",
   "name" : "android::hardware::hidl_vec<android::hardware::hidl_string>",
   "referenced_type" : "_ZTIN7android8hardware8hidl_vecINS0_11hidl_stringEEE",
   "self_type" : "_ZTIN7android8hardware8hidl_vecINS0_11hidl_stringEEE",
   "size" : 16,
   "source_file" : "/system/libhidl/base/include/hidl/HidlSupport.h",
   "template_args" : [ "_ZTIN7android8hardware11hidl_stringE" ]
  },
  {
   "alignment" : 4,
   "fields" :
   [
    {
     "access" : "private",
     "field_name" : "mBuffer",
     "referenced_type" : "_ZTIN7android8hardware7details12hidl_pointerINS0_17GrantorDescriptorEEE"
    },
    {
     "access" : "private",
     "field_name" : "mSize",
     "field_offset" : 64,
     "referenced_type" : "_ZTIj"
    },
    {
     "access" : "private",
     "field_name" : "mOwnsBuffer",
     "field_offset" : 96,
     "referenced_type" : "_ZTIb"
    },
    {
     "access" : "private",
     "field_name" : "mPad",
     "field_offset" : 104,
     "referenced_type" : "_ZTIA3_h"
    }
   ],
   "linker_set_key" : "_ZTIN7android8hardware8hidl_vecINS0_17GrantorDescriptorEEE",
   "name" : "android::hardware::hidl_vec<android::hardware::GrantorDescriptor>",
   "referenced_type" : "_ZTIN7android8hardware8hidl_vecINS0_17GrantorDescriptorEEE",
   "self_type" : "_ZTIN7android8hardware8hidl_vecINS0_17GrantorDescriptorEEE",
   "size" : 16,
   "source_file" : "/system/libhidl/base/include/hidl/HidlSupport.h",
   "template_args" : [ "_ZTIN7android8hardware17GrantorDescriptorE" ]
  },
  {
   "alignment" : 4,
   "fields" :
   [
    {
     "access" : "private",
     "field_name" : "mBuffer",
     "referenced_type" : "_ZTIN7android8hardware7details12hidl_pointerIcEE"
    },
    {
     "access" : "private",
     "field_name" : "mSize",
     "field_offset" : 64,
     "referenced_type" : "_ZTIj"
    },
    {
     "access" : "private",
     "field_name" : "mOwnsBuffer",
     "field_offset" : 96,
     "referenced_type" : "_ZTIb"
    },
    {
     "access" : "private",
     "field_name" : "mPad",
     "field_offset" : 104,
     "referenced_type" : "_ZTIA3_h"
    }
   ],
   "linker_set_key" : "_ZTIN7android8hardware8hidl_vecIcEE",
   "name" : "android::hardware::hidl_vec<char>",
   "referenced_type" : "_ZTIN7android8hardware8hidl_vecIcEE",
   "self_type" : "_ZTIN7android8hardware8hidl_vecIcEE",
   "size" : 16,
   "source_file" : "/system/libhidl/base/include/hidl/HidlSupport.h",
   "template_args" : [ "_ZTIc" ]
  },
  {
   "alignment" : 4,
   "fields" :
   [
    {
     "access" : "private",
     "field_name" : "mBuffer",
     "referenced_type" : "_ZTIN7android8hardware7details12hidl_pointerIiEE"
    },
    {
     "access" : "private",
     "field_name" : "mSize",
     "field_offset" : 64,
     "referenced_type" : "_ZTIj"
    },
    {
     "access" : "private",
     "field_name" : "mOwnsBuffer",
     "field_offset" : 96,
     "referenced_type" : "_ZTIb"
    },
    {
     "access" : "private",
     "field_name" : "mPad",
     "field_offset" : 104,
     "referenced_type" : "_ZTIA3_h"
    }
   ],
   "linker_set_key" : "_ZTIN7android8hardware8hidl_vecIiEE",
   "name" : "android::hardware::hidl_vec<int>",
   "referenced_type" : "_ZTIN7android8hardware8hidl_vecIiEE",
   "self_type" : "_ZTIN7android8hardware8hidl_vecIiEE",
   "size" : 16,
   "source_file" : "/system/libhidl/base/include/hidl/HidlSupport.h",
   "template_args" : [ "_ZTIi" ]
  },
  {
   "alignment" : 4,
   "base_specifiers" :
   [
    {
     "referenced_type" : "_ZTIN7android8hardware7IBinderE"
    }
   ],
   "fields" :
   [
    {
     "access" : "protected",
     "field_name" : "mSchedPolicy",
     "field_offset" : 32,
     "referenced_type" : "_ZTIi"
    },
    {
     "access" : "protected",
     "field_name" : "mSchedPriority",
     "field_offset" : 64,
     "referenced_type" : "_ZTIi"
    },
    {
     "access" : "private",
     "field_name" : "mExtras",
     "field_offset" : 96,
     "referenced_type" : "_ZTINSt3__16atomicIPN7android8hardware9BHwBinder6ExtrasEEE"
    },
    {
     "access" : "private",
     "field_name" : "mReserved0",
     "field_offset" : 128,
     "referenced_type" : "_ZTIPv"
    }
   ],
   "linker_set_key" : "_ZTIN7android8hardware9BHwBinderE",
   "name" : "android::hardware::BHwBinder",
   "record_kind" : "class",
   "referenced_type" : "_ZTIN7android8hardware9BHwBinderE",
   "self_type" : "_ZTIN7android8hardware9BHwBinderE",
   "size" : 28,
   "source_file" : "/system/libhwbinder/include/hwbinder/Binder.h",
   "vtable_components" :
   [
    {
     "component_value" : 20,
     "kind" : "vbase_offset"
    },
    {
     "kind" : "offset_to_top"
    },
    {
     "kind" : "rtti",
     "mangled_component_name" : "_ZTIN7android8hardware9BHwBinderE"
    },
    {
     "mangled_component_name" : "_ZN7android8hardware9BHwBinder8transactEjRKNS0_6ParcelEPS2_jNSt3__18functionIFvRS2_EEE"
    },
    {
     "mangled_component_name" : "_ZN7android8hardware9BHwBinder11linkToDeathERKNS_2spINS0_7IBinder14DeathRecipientEEEPvj"
    },
    {
     "mangled_component_name" : "_ZN7android8hardware9BHwBinder13unlinkToDeathERKNS_2wpINS0_7IBinder14DeathRecipientEEEPvjPS5_"
    },
    {
     "mangled_component_name" : "_ZNK7android8hardware7IBinder13checkSubclassEPKv"
    },
    {
     "mangled_component_name" : "_ZN7android8hardware9BHwBinder12attachObjectEPKvPvS4_PFvS3_S4_S4_E"
    },
    {
     "mangled_component_name" : "_ZNK7android8hardware9BHwBinder10findObjectEPKv"
    },
    {
     "mangled_component_name" : "_ZN7android8hardware9BHwBinder12detachObjectEPKv"
    },
    {
     "mangled_component_name" : "_ZN7android8hardware9BHwBinder11localBinderEv"
    },
    {
     "mangled_component_name" : "_ZN7android8hardware7IBinder12remoteBinderEv"
    },
    {
     "kind" : "complete_dtor_pointer",
     "mangled_component_name" : "_ZN7android8hardware9BHwBinderD1Ev"
    },
    {
     "kind" : "deleting_dtor_pointer",
     "mangled_component_name" : "_ZN7android8hardware9BHwBinderD0Ev"
    },
    {
     "mangled_component_name" : "_ZN7android8hardware9BHwBinder10onTransactEjRKNS0_6ParcelEPS2_jNSt3__18functionIFvRS2_EEE"
    },
    {
     "kind" : "vcall_offset"
    },
    {
     "kind" : "vcall_offset"
    },
    {
     "kind" : "vcall_offset"
    },
    {
     "kind" : "vcall_offset"
    },
    {
     "component_value" : -20,
     "kind" : "vcall_offset"
    },
    {
     "component_value" : -20,
     "kind" : "offset_to_top"
    },
    {
     "kind" : "rtti",
     "mangled_component_name" : "_ZTIN7android8hardware9BHwBinderE"
    },
    {
     "kind" : "complete_dtor_pointer",
     "mangled_component_name" : "_ZTv0_n12_N7android8hardware9BHwBinderD1Ev"
    },
    {
     "kind" : "deleting_dtor_pointer",
     "mangled_component_name" : "_ZTv0_n12_N7android8hardware9BHwBinderD0Ev"
    },
    {
     "mangled_component_name" : "_ZN7android7RefBase10onFirstRefEv"
    },
    {
     "mangled_component_name" : "_ZN7android7RefBase15onLastStrongRefEPKv"
    },
    {
     "mangled_component_name" : "_ZN7android7RefBase20onIncStrongAttemptedEjPKv"
    },
    {
     "mangled_component_name" : "_ZN7android7RefBase13onLastWeakRefEPKv"
    }
   ]
  },
  {
   "alignment" : 4,
   "fields" :
   [
    {
     "field_name" : "sched_policy",
     "referenced_type" : "_ZTIi"
    },
    {
     "field_name" : "prio",
     "field_offset" : 32,
     "referenced_type" : "_ZTIi"
    }
   ],
   "linker_set_key" : "_ZTIN7android8hardware9SchedPrioE",
   "name" : "android::hardware::SchedPrio",
   "referenced_type" : "_ZTIN7android8hardware9SchedPrioE",
   "self_type" : "_ZTIN7android8hardware9SchedPrioE",
   "size" : 8,
   "source_file" : "/system/libhidl/transport/include/hidl/HidlTransportSupport.h"
  },
  {
   "alignment" : 4,
   "fields" :
   [
    {
     "access" : "private",
     "field_name" : "mCond",
     "referenced_type" : "_ZTI14pthread_cond_t"
    }
   ],
   "linker_set_key" : "_ZTIN7android9ConditionE",
   "name" : "android::Condition",
   "record_kind" : "class",
   "referenced_type" : "_ZTIN7android9ConditionE",
   "self_type" : "_ZTIN7android9ConditionE",
   "size" : 4,
   "source_file" : "/system/core/libutils/include/utils/Condition.h"
  },
  {
   "alignment" : 4,
   "fields" :
   [
    {
     "field_name" : "buf",
     "referenced_type" : "_ZTIA5121_h"
    },
    {
     "field_name" : "entry",
     "referenced_type" : "_ZTI12logger_entry"
    }
   ],
   "is_anonymous" : true,
   "linker_set_key" : "_ZTIN7log_msgUt_E",
   "name" : "log_msg::(anonymous union at system/core/liblog/include_vndk/log/log_read.h:77:3)",
   "record_kind" : "union",
   "referenced_type" : "_ZTIN7log_msgUt_E",
   "self_type" : "_ZTIN7log_msgUt_E",
   "size" : 5124,
   "source_file" : "/system/core/liblog/include/log/log_read.h"
  }
 ],
 "rvalue_reference_types" :
 [
  {
   "alignment" : 4,
   "linker_set_key" : "_ZTION7android2spINS_10frameworks16schedulerservice4V1_024ISchedulingPolicyServiceEEE",
   "name" : "android::sp<android::frameworks::schedulerservice::V1_0::ISchedulingPolicyService> &&",
   "referenced_type" : "_ZTIN7android2spINS_10frameworks16schedulerservice4V1_024ISchedulingPolicyServiceEEE",
   "self_type" : "_ZTION7android2spINS_10frameworks16schedulerservice4V1_024ISchedulingPolicyServiceEEE",
   "size" : 4,
   "source_file" : "/system/core/libutils/include/utils/StrongPointer.h"
  },
  {
   "alignment" : 4,
   "linker_set_key" : "_ZTION7android2spINS_8hardware27hidl_binder_death_recipientEEE",
   "name" : "android::sp<android::hardware::hidl_binder_death_recipient> &&",
   "referenced_type" : "_ZTIN7android2spINS_8hardware27hidl_binder_death_recipientEEE",
   "self_type" : "_ZTION7android2spINS_8hardware27hidl_binder_death_recipientEEE",
   "size" : 4,
   "source_file" : "/system/core/libutils/include/utils/StrongPointer.h"
  },
  {
   "alignment" : 4,
   "linker_set_key" : "_ZTION7android8hardware10hidl_arrayIhLj32EJEEE",
   "name" : "android::hardware::hidl_array<unsigned char, 32> &&",
   "referenced_type" : "_ZTIN7android8hardware10hidl_arrayIhLj32EJEEE",
   "self_type" : "_ZTION7android8hardware10hidl_arrayIhLj32EJEEE",
   "size" : 4,
   "source_file" : "/system/libhidl/base/include/hidl/HidlSupport.h"
  },
  {
   "alignment" : 4,
   "linker_set_key" : "_ZTION7android8hardware11hidl_handleE",
   "name" : "android::hardware::hidl_handle &&",
   "referenced_type" : "_ZTIN7android8hardware11hidl_handleE",
   "self_type" : "_ZTION7android8hardware11hidl_handleE",
   "size" : 4,
   "source_file" : "/system/libhidl/base/include/hidl/HidlSupport.h"
  },
  {
   "alignment" : 4,
   "linker_set_key" : "_ZTION7android8hardware11hidl_memoryE",
   "name" : "android::hardware::hidl_memory &&",
   "referenced_type" : "_ZTIN7android8hardware11hidl_memoryE",
   "self_type" : "_ZTION7android8hardware11hidl_memoryE",
   "size" : 4,
   "source_file" : "/system/libhidl/base/include/hidl/HidlSupport.h"
  },
  {
   "alignment" : 4,
   "linker_set_key" : "_ZTION7android8hardware6ReturnINS_2spINS_10frameworks16schedulerservice4V1_024ISchedulingPolicyServiceEEEEE",
   "name" : "android::hardware::Return<android::sp<android::frameworks::schedulerservice::V1_0::ISchedulingPolicyService> > &&",
   "referenced_type" : "_ZTIN7android8hardware6ReturnINS_2spINS_10frameworks16schedulerservice4V1_024ISchedulingPolicyServiceEEEEE",
   "self_type" : "_ZTION7android8hardware6ReturnINS_2spINS_10frameworks16schedulerservice4V1_024ISchedulingPolicyServiceEEEEE",
   "size" : 4,
   "source_file" : "/system/libhidl/base/include/hidl/Status.h"
  },
  {
   "alignment" : 4,
   "linker_set_key" : "_ZTION7android8hardware6ReturnIbEE",
   "name" : "android::hardware::Return<bool> &&",
   "referenced_type" : "_ZTIN7android8hardware6ReturnIbEE",
   "self_type" : "_ZTION7android8hardware6ReturnIbEE",
   "size" : 4,
   "source_file" : "/system/libhidl/base/include/hidl/Status.h"
  },
  {
   "alignment" : 4,
   "linker_set_key" : "_ZTION7android8hardware6ReturnIiEE",
   "name" : "android::hardware::Return<int> &&",
   "referenced_type" : "_ZTIN7android8hardware6ReturnIiEE",
   "self_type" : "_ZTION7android8hardware6ReturnIiEE",
   "size" : 4,
   "source_file" : "/system/libhidl/base/include/hidl/Status.h"
  },
  {
   "alignment" : 4,
   "linker_set_key" : "_ZTION7android8hardware6ReturnIvEE",
   "name" : "android::hardware::Return<void> &&",
   "referenced_type" : "_ZTIN7android8hardware6ReturnIvEE",
   "self_type" : "_ZTION7android8hardware6ReturnIvEE",
   "size" : 4,
   "source_file" : "/system/libhidl/base/include/hidl/Status.h"
  },
  {
   "alignment" : 4,
   "linker_set_key" : "_ZTION7android8hardware6StatusE",
   "name" : "android::hardware::Status &&",
   "referenced_type" : "_ZTIN7android8hardware6StatusE",
   "self_type" : "_ZTION7android8hardware6StatusE",
   "size" : 4,
   "source_file" : "/system/libhidl/base/include/hidl/Status.h"
  },
  {
   "alignment" : 4,
   "linker_set_key" : "_ZTION7android8hardware7details13return_statusE",
   "name" : "android::hardware::details::return_status &&",
   "referenced_type" : "_ZTIN7android8hardware7details13return_statusE",
   "self_type" : "_ZTION7android8hardware7details13return_statusE",
   "size" : 4,
   "source_file" : "/system/libhidl/base/include/hidl/Status.h"
  },
  {
   "alignment" : 4,
   "linker_set_key" : "_ZTIONSt3__112basic_stringIcNS_11char_traitsIcEENS_9allocatorIcEEEE",
   "name" : "std::basic_string<char, std::char_traits<char>, std::allocator<char> > &&",
   "referenced_type" : "_ZTINSt3__112basic_stringIcNS_11char_traitsIcEENS_9allocatorIcEEEE",
   "self_type" : "_ZTIONSt3__112basic_stringIcNS_11char_traitsIcEENS_9allocatorIcEEEE",
   "size" : 4,
   "source_file" : "/system/libhidl/transport/include/hidl/ConcurrentMap.h"
  },
  {
   "alignment" : 4,
   "linker_set_key" : "_ZTIONSt3__18functionIFN7android2spINS1_4hidl4base4V1_05IBaseEEEPvEEE",
   "name" : "std::function<sp<IBase> (void *)> &&",
   "referenced_type" : "_ZTINSt3__18functionIFN7android2spINS1_4hidl4base4V1_05IBaseEEEPvEEE",
   "self_type" : "_ZTIONSt3__18functionIFN7android2spINS1_4hidl4base4V1_05IBaseEEEPvEEE",
   "size" : 4,
   "source_file" : "/system/libhidl/transport/include/hidl/ConcurrentMap.h"
  },
  {
   "alignment" : 4,
   "linker_set_key" : "_ZTIONSt3__18functionIFN7android2spINS1_8hardware7IBinderEEEPvEEE",
   "name" : "std::function<sp<IBinder> (void *)> &&",
   "referenced_type" : "_ZTINSt3__18functionIFN7android2spINS1_8hardware7IBinderEEEPvEEE",
   "self_type" : "_ZTIONSt3__18functionIFN7android2spINS1_8hardware7IBinderEEEPvEEE",
   "size" : 4,
   "source_file" : "/system/libhidl/transport/include/hidl/ConcurrentMap.h"
  }
 ]
}
