{
 "array_types" :
 [
  {
   "alignment" : 4,
   "linker_set_key" : "_ZTIA0_i",
   "name" : "int [0]",
   "referenced_type" : "_ZTIi",
   "self_type" : "_ZTIA0_i",
   "source_file" : "/system/core/libcutils/include/cutils/native_handle.h"
  },
  {
   "alignment" : 4,
   "linker_set_key" : "_ZTIA10_j",
   "name" : "unsigned int [10]",
   "referenced_type" : "_ZTIj",
   "self_type" : "_ZTIA10_j",
   "size" : 40,
   "source_file" : "/system/libhidl/base/include/hidl/HidlSupport.h"
  },
  {
   "alignment" : 1,
   "linker_set_key" : "_ZTIA3_h",
   "name" : "unsigned char [3]",
   "referenced_type" : "_ZTIh",
   "self_type" : "_ZTIA3_h",
   "size" : 3,
   "source_file" : "/system/libhidl/base/include/hidl/HidlSupport.h"
  },
  {
   "alignment" : 1,
   "linker_set_key" : "_ZTIA5121_h",
   "name" : "unsigned char [5121]",
   "referenced_type" : "_ZTIh",
   "self_type" : "_ZTIA5121_h",
   "size" : 5121,
   "source_file" : "/system/core/liblog/include/log/log_read.h"
  },
  {
   "alignment" : 1,
   "linker_set_key" : "_ZTIA7_h",
   "name" : "unsigned char [7]",
   "referenced_type" : "_ZTIh",
   "self_type" : "_ZTIA7_h",
   "size" : 7,
   "source_file" : "/system/libhidl/base/include/hidl/HidlSupport.h"
  }
 ],
 "builtin_types" :
 [
  {
   "alignment" : 4,
   "linker_set_key" : "_ZTIDn",
   "name" : "nullptr_t",
   "referenced_type" : "_ZTIDn",
   "self_type" : "_ZTIDn",
   "size" : 4
  },
  {
   "alignment" : 1,
   "is_integral" : true,
   "linker_set_key" : "_ZTIa",
   "name" : "signed char",
   "referenced_type" : "_ZTIa",
   "self_type" : "_ZTIa",
   "size" : 1
  },
  {
   "alignment" : 1,
   "is_integral" : true,
   "is_unsigned" : true,
   "linker_set_key" : "_ZTIb",
   "name" : "bool",
   "referenced_type" : "_ZTIb",
   "self_type" : "_ZTIb",
   "size" : 1
  },
  {
   "alignment" : 1,
   "is_integral" : true,
   "linker_set_key" : "_ZTIc",
   "name" : "char",
   "referenced_type" : "_ZTIc",
   "self_type" : "_ZTIc",
   "size" : 1
  },
  {
   "alignment" : 4,
   "linker_set_key" : "_ZTId",
   "name" : "double",
   "referenced_type" : "_ZTId",
   "self_type" : "_ZTId",
   "size" : 8
  },
  {
   "alignment" : 4,
   "linker_set_key" : "_ZTIf",
   "name" : "float",
   "referenced_type" : "_ZTIf",
   "self_type" : "_ZTIf",
   "size" : 4
  },
  {
   "alignment" : 1,
   "is_integral" : true,
   "is_unsigned" : true,
   "linker_set_key" : "_ZTIh",
   "name" : "unsigned char",
   "referenced_type" : "_ZTIh",
   "self_type" : "_ZTIh",
   "size" : 1
  },
  {
   "alignment" : 4,
   "is_integral" : true,
   "linker_set_key" : "_ZTIi",
   "name" : "int",
   "referenced_type" : "_ZTIi",
   "self_type" : "_ZTIi",
   "size" : 4
  },
  {
   "alignment" : 4,
   "is_integral" : true,
   "is_unsigned" : true,
   "linker_set_key" : "_ZTIj",
   "name" : "unsigned int",
   "referenced_type" : "_ZTIj",
   "self_type" : "_ZTIj",
   "size" : 4
  },
  {
   "alignment" : 4,
   "is_integral" : true,
   "linker_set_key" : "_ZTIl",
   "name" : "long",
   "referenced_type" : "_ZTIl",
   "self_type" : "_ZTIl",
   "size" : 4
  },
  {
   "alignment" : 4,
   "is_integral" : true,
   "is_unsigned" : true,
   "linker_set_key" : "_ZTIm",
   "name" : "unsigned long",
   "referenced_type" : "_ZTIm",
   "self_type" : "_ZTIm",
   "size" : 4
  },
  {
   "alignment" : 2,
   "is_integral" : true,
   "linker_set_key" : "_ZTIs",
   "name" : "short",
   "referenced_type" : "_ZTIs",
   "self_type" : "_ZTIs",
   "size" : 2
  },
  {
   "alignment" : 2,
   "is_integral" : true,
   "is_unsigned" : true,
   "linker_set_key" : "_ZTIt",
   "name" : "unsigned short",
   "referenced_type" : "_ZTIt",
   "self_type" : "_ZTIt",
   "size" : 2
  },
  {
   "linker_set_key" : "_ZTIv",
   "name" : "void",
   "referenced_type" : "_ZTIv",
   "self_type" : "_ZTIv"
  },
  {
   "alignment" : 4,
   "is_integral" : true,
   "linker_set_key" : "_ZTIx",
   "name" : "long long",
   "referenced_type" : "_ZTIx",
   "self_type" : "_ZTIx",
   "size" : 8
  },
  {
   "alignment" : 4,
   "is_integral" : true,
   "is_unsigned" : true,
   "linker_set_key" : "_ZTIy",
   "name" : "unsigned long long",
   "referenced_type" : "_ZTIy",
   "self_type" : "_ZTIy",
   "size" : 8
  }
 ],
 "elf_functions" :
 [
  {
   "name" : "_ZN7android8gralloc410decodeCropERKNS_8hardware8hidl_vecIhEEPNSt3__16vectorIN4aidl7android8hardware8graphics6common4RectENS6_9allocatorISD_EEEE"
  },
  {
   "name" : "_ZN7android8gralloc410decodeNameERKNS_8hardware8hidl_vecIhEEPNSt3__112basic_stringIcNS6_11char_traitsIcEENS6_9allocatorIcEEEE"
  },
  {
   "name" : "_ZN7android8gralloc410decodeRectEPNS0_12InputHidlVecEPN4aidl7android8hardware8graphics6common4RectE"
  },
  {
   "name" : "_ZN7android8gralloc410encodeCropERKNSt3__16vectorIN4aidl7android8hardware8graphics6common4RectENS1_9allocatorIS8_EEEEPNS_8hardware8hidl_vecIhEE"
  },
  {
   "name" : "_ZN7android8gralloc410encodeNameERKNSt3__112basic_stringIcNS1_11char_traitsIcEENS1_9allocatorIcEEEEPNS_8hardware8hidl_vecIhEE"
  },
  {
   "name" : "_ZN7android8gralloc410encodeRectERKN4aidl7android8hardware8graphics6common4RectEPNS0_13OutputHidlVecE"
  },
  {
   "name" : "_ZN7android8gralloc411decodeFloatERKNS_8hardware8graphics6mapper4V4_07IMapper12MetadataTypeERKNS1_8hidl_vecIhEEPf"
  },
  {
   "name" : "_ZN7android8gralloc411decodeInt32ERKNS_8hardware8graphics6mapper4V4_07IMapper12MetadataTypeERKNS1_8hidl_vecIhEEPi"
  },
  {
   "name" : "_ZN7android8gralloc411decodeInt64ERKNS_8hardware8graphics6mapper4V4_07IMapper12MetadataTypeERKNS1_8hidl_vecIhEEPx"
  },
  {
   "name" : "_ZN7android8gralloc411decodeUsageERKNS_8hardware8hidl_vecIhEEPy"
  },
  {
   "name" : "_ZN7android8gralloc411decodeWidthERKNS_8hardware8hidl_vecIhEEPy"
  },
  {
   "name" : "_ZN7android8gralloc411encodeFloatERKNS_8hardware8graphics6mapper4V4_07IMapper12MetadataTypeEfPNS1_8hidl_vecIhEE"
  },
  {
   "name" : "_ZN7android8gralloc411encodeInt32ERKNS_8hardware8graphics6mapper4V4_07IMapper12MetadataTypeEiPNS1_8hidl_vecIhEE"
  },
  {
   "name" : "_ZN7android8gralloc411encodeInt64ERKNS_8hardware8graphics6mapper4V4_07IMapper12MetadataTypeExPNS1_8hidl_vecIhEE"
  },
  {
   "name" : "_ZN7android8gralloc411encodeUsageEyPNS_8hardware8hidl_vecIhEE"
  },
  {
   "name" : "_ZN7android8gralloc411encodeWidthEyPNS_8hardware8hidl_vecIhEE"
  },
  {
   "name" : "_ZN7android8gralloc412clearXyColorEPN4aidl7android8hardware8graphics6common7XyColorE"
  },
  {
   "name" : "_ZN7android8gralloc412decodeDoubleERKNS_8hardware8graphics6mapper4V4_07IMapper12MetadataTypeERKNS1_8hidl_vecIhEEPd"
  },
  {
   "name" : "_ZN7android8gralloc412decodeHeightERKNS_8hardware8hidl_vecIhEEPy"
  },
  {
   "name" : "_ZN7android8gralloc412decodeStringEPNS0_12InputHidlVecEPNSt3__112basic_stringIcNS3_11char_traitsIcEENS3_9allocatorIcEEEE"
  },
  {
   "name" : "_ZN7android8gralloc412decodeStringERKNS_8hardware8graphics6mapper4V4_07IMapper12MetadataTypeERKNS1_8hidl_vecIhEEPNSt3__112basic_stringIcNSD_11char_traitsIcEENSD_9allocatorIcEEEE"
  },
  {
   "name" : "_ZN7android8gralloc412decodeUint32ERKNS_8hardware8graphics6mapper4V4_07IMapper12MetadataTypeERKNS1_8hidl_vecIhEEPj"
  },
  {
   "name" : "_ZN7android8gralloc412decodeUint64ERKNS_8hardware8graphics6mapper4V4_07IMapper12MetadataTypeERKNS1_8hidl_vecIhEEPy"
  },
  {
   "name" : "_ZN7android8gralloc412encodeDoubleERKNS_8hardware8graphics6mapper4V4_07IMapper12MetadataTypeEdPNS1_8hidl_vecIhEE"
  },
  {
   "name" : "_ZN7android8gralloc412encodeHeightEyPNS_8hardware8hidl_vecIhEE"
  },
  {
   "name" : "_ZN7android8gralloc412encodeStringERKNS_8hardware8graphics6mapper4V4_07IMapper12MetadataTypeERKNSt3__112basic_stringIcNS9_11char_traitsIcEENS9_9allocatorIcEEEEPNS1_8hidl_vecIhEE"
  },
  {
   "name" : "_ZN7android8gralloc412encodeStringERKNSt3__112basic_stringIcNS1_11char_traitsIcEENS1_9allocatorIcEEEEPNS0_13OutputHidlVecE"
  },
  {
   "name" : "_ZN7android8gralloc412encodeUint32ERKNS_8hardware8graphics6mapper4V4_07IMapper12MetadataTypeEjPNS1_8hidl_vecIhEE"
  },
  {
   "name" : "_ZN7android8gralloc412encodeUint64ERKNS_8hardware8graphics6mapper4V4_07IMapper12MetadataTypeEyPNS1_8hidl_vecIhEE"
  },
  {
   "name" : "_ZN7android8gralloc413decodeXyColorEPNS0_12InputHidlVecEPN4aidl7android8hardware8graphics6common7XyColorE"
  },
  {
   "name" : "_ZN7android8gralloc413encodeXyColorERKN4aidl7android8hardware8graphics6common7XyColorEPNS0_13OutputHidlVecE"
  },
  {
   "name" : "_ZN7android8gralloc414decodeBufferIdERKNS_8hardware8hidl_vecIhEEPy"
  },
  {
   "name" : "_ZN7android8gralloc414decodeCta861_3ERKNS_8hardware8hidl_vecIhEEPNSt3__18optionalIN4aidl7android8hardware8graphics6common8Cta861_3EEE"
  },
  {
   "name" : "_ZN7android8gralloc414encodeBufferIdEyPNS_8hardware8hidl_vecIhEE"
  },
  {
   "name" : "_ZN7android8gralloc414encodeCta861_3ERKNSt3__18optionalIN4aidl7android8hardware8graphics6common8Cta861_3EEEPNS_8hardware8hidl_vecIhEE"
  },
  {
   "binding" : "weak",
   "name" : "_ZN7android8gralloc414encodeMetadataIN4aidl7android8hardware8graphics6common14ExtendableTypeEEEiRKNS_8hardware8graphics6mapper4V4_07IMapper12MetadataTypeERKT_PNS8_8hidl_vecIhEEPFiSI_PNS0_13OutputHidlVecEE"
  },
  {
   "binding" : "weak",
   "name" : "_ZN7android8gralloc414encodeMetadataIN4aidl7android8hardware8graphics6common8Cta861_3EEEiRKNS_8hardware8graphics6mapper4V4_07IMapper12MetadataTypeERKT_PNS8_8hidl_vecIhEEPFiSI_PNS0_13OutputHidlVecEE"
  },
  {
   "binding" : "weak",
   "name" : "_ZN7android8gralloc414encodeMetadataIN4aidl7android8hardware8graphics6common9Smpte2086EEEiRKNS_8hardware8graphics6mapper4V4_07IMapper12MetadataTypeERKT_PNS8_8hidl_vecIhEEPFiSI_PNS0_13OutputHidlVecEE"
  },
  {
   "binding" : "weak",
   "name" : "_ZN7android8gralloc414encodeMetadataINSt3__112basic_stringIcNS2_11char_traitsIcEENS2_9allocatorIcEEEEEEiRKNS_8hardware8graphics6mapper4V4_07IMapper12MetadataTypeERKT_PNS9_8hidl_vecIhEEPFiSJ_PNS0_13OutputHidlVecEE"
  },
  {
   "binding" : "weak",
   "name" : "_ZN7android8gralloc414encodeMetadataINSt3__16vectorIN4aidl7android8hardware8graphics6common11PlaneLayoutENS2_9allocatorIS9_EEEEEEiRKNS_8hardware8graphics6mapper4V4_07IMapper12MetadataTypeERKT_PNSD_8hidl_vecIhEEPFiSN_PNS0_13OutputHidlVecEE"
  },
  {
   "binding" : "weak",
   "name" : "_ZN7android8gralloc414encodeMetadataINSt3__16vectorIN4aidl7android8hardware8graphics6common4RectENS2_9allocatorIS9_EEEEEEiRKNS_8hardware8graphics6mapper4V4_07IMapper12MetadataTypeERKT_PNSD_8hidl_vecIhEEPFiSN_PNS0_13OutputHidlVecEE"
  },
  {
   "binding" : "weak",
   "name" : "_ZN7android8gralloc414encodeMetadataINSt3__16vectorIhNS2_9allocatorIhEEEEEEiRKNS_8hardware8graphics6mapper4V4_07IMapper12MetadataTypeERKT_PNS7_8hidl_vecIhEEPFiSH_PNS0_13OutputHidlVecEE"
  },
  {
   "name" : "_ZN7android8gralloc415decodeBlendModeERKNS_8hardware8hidl_vecIhEEPN4aidl7android8hardware8graphics6common9BlendModeE"
  },
  {
   "name" : "_ZN7android8gralloc415decodeDataspaceERKNS_8hardware8hidl_vecIhEEPN4aidl7android8hardware8graphics6common9DataspaceE"
  },
  {
   "name" : "_ZN7android8gralloc415decodeSmpte2086ERKNS_8hardware8hidl_vecIhEEPNSt3__18optionalIN4aidl7android8hardware8graphics6common9Smpte2086EEE"
  },
  {
   "name" : "_ZN7android8gralloc415encodeBlendModeERKN4aidl7android8hardware8graphics6common9BlendModeEPNS_8hardware8hidl_vecIhEE"
  },
  {
   "name" : "_ZN7android8gralloc415encodeDataspaceERKN4aidl7android8hardware8graphics6common9DataspaceEPNS_8hardware8hidl_vecIhEE"
  },
  {
   "name" : "_ZN7android8gralloc415encodeSmpte2086ERKNSt3__18optionalIN4aidl7android8hardware8graphics6common9Smpte2086EEEPNS_8hardware8hidl_vecIhEE"
  },
  {
   "name" : "_ZN7android8gralloc416decodeByteVectorEPNS0_12InputHidlVecEPNSt3__16vectorIhNS3_9allocatorIhEEEE"
  },
  {
   "name" : "_ZN7android8gralloc416decodeCropHelperEPNS0_12InputHidlVecEPNSt3__16vectorIN4aidl7android8hardware8graphics6common4RectENS3_9allocatorISA_EEEE"
  },
  {
   "name" : "_ZN7android8gralloc416decodeInterlacedERKNS_8hardware8hidl_vecIhEEPN4aidl7android8hardware8graphics6common14ExtendableTypeE"
  },
  {
   "name" : "_ZN7android8gralloc416decodeLayerCountERKNS_8hardware8hidl_vecIhEEPy"
  },
  {
   "name" : "_ZN7android8gralloc416encodeByteVectorERKNSt3__16vectorIhNS1_9allocatorIhEEEEPNS0_13OutputHidlVecE"
  },
  {
   "name" : "_ZN7android8gralloc416encodeCropHelperERKNSt3__16vectorIN4aidl7android8hardware8graphics6common4RectENS1_9allocatorIS8_EEEEPNS0_13OutputHidlVecE"
  },
  {
   "name" : "_ZN7android8gralloc416encodeInterlacedERKN4aidl7android8hardware8graphics6common14ExtendableTypeEPNS_8hardware8hidl_vecIhEE"
  },
  {
   "name" : "_ZN7android8gralloc416encodeLayerCountEyPNS_8hardware8hidl_vecIhEE"
  },
  {
   "name" : "_ZN7android8gralloc417clearPlaneLayoutsEPNSt3__16vectorIN4aidl7android8hardware8graphics6common11PlaneLayoutENS1_9allocatorIS8_EEEE"
  },
  {
   "name" : "_ZN7android8gralloc417decodeCompressionERKNS_8hardware8hidl_vecIhEEPN4aidl7android8hardware8graphics6common14ExtendableTypeE"
  },
  {
   "name" : "_ZN7android8gralloc417decodePlaneLayoutEPNS0_12InputHidlVecEPN4aidl7android8hardware8graphics6common11PlaneLayoutE"
  },
  {
   "name" : "_ZN7android8gralloc417encodeCompressionERKN4aidl7android8hardware8graphics6common14ExtendableTypeEPNS_8hardware8hidl_vecIhEE"
  },
  {
   "name" : "_ZN7android8gralloc417encodePlaneLayoutERKN4aidl7android8hardware8graphics6common11PlaneLayoutEPNS0_13OutputHidlVecE"
  },
  {
   "name" : "_ZN7android8gralloc417getInterlacedNameERKN4aidl7android8hardware8graphics6common14ExtendableTypeE"
  },
  {
   "name" : "_ZN7android8gralloc418decodeChromaSitingERKNS_8hardware8hidl_vecIhEEPN4aidl7android8hardware8graphics6common14ExtendableTypeE"
  },
  {
   "name" : "_ZN7android8gralloc418decodeMetadataTypeEPNS0_12InputHidlVecEPNS_8hardware8graphics6mapper4V4_07IMapper12MetadataTypeE"
  },
  {
   "name" : "_ZN7android8gralloc418decodePlaneLayoutsERKNS_8hardware8hidl_vecIhEEPNSt3__16vectorIN4aidl7android8hardware8graphics6common11PlaneLayoutENS6_9allocatorISD_EEEE"
  },
  {
   "name" : "_ZN7android8gralloc418decodeSmpte2094_40ERKNS_8hardware8hidl_vecIhEEPNSt3__18optionalINS6_6vectorIhNS6_9allocatorIhEEEEEE"
  },
  {
   "name" : "_ZN7android8gralloc418encodeChromaSitingERKN4aidl7android8hardware8graphics6common14ExtendableTypeEPNS_8hardware8hidl_vecIhEE"
  },
  {
   "name" : "_ZN7android8gralloc418encodeMetadataTypeERKNS_8hardware8graphics6mapper4V4_07IMapper12MetadataTypeEPNS0_13OutputHidlVecE"
  },
  {
   "name" : "_ZN7android8gralloc418encodePlaneLayoutsERKNSt3__16vectorIN4aidl7android8hardware8graphics6common11PlaneLayoutENS1_9allocatorIS8_EEEEPNS_8hardware8hidl_vecIhEE"
  },
  {
   "name" : "_ZN7android8gralloc418encodeSmpte2094_40ERKNSt3__18optionalINS1_6vectorIhNS1_9allocatorIhEEEEEEPNS_8hardware8hidl_vecIhEE"
  },
  {
   "name" : "_ZN7android8gralloc418getCompressionNameERKN4aidl7android8hardware8graphics6common14ExtendableTypeE"
  },
  {
   "name" : "_ZN7android8gralloc419clearExtendableTypeEPN4aidl7android8hardware8graphics6common14ExtendableTypeE"
  },
  {
   "name" : "_ZN7android8gralloc419getChromaSitingNameERKN4aidl7android8hardware8graphics6common14ExtendableTypeE"
  },
  {
   "name" : "_ZN7android8gralloc420decodeAllocationSizeERKNS_8hardware8hidl_vecIhEEPy"
  },
  {
   "name" : "_ZN7android8gralloc420decodeCta861_3HelperEPNS0_12InputHidlVecEPN4aidl7android8hardware8graphics6common8Cta861_3E"
  },
  {
   "name" : "_ZN7android8gralloc420decodeExtendableTypeEPNS0_12InputHidlVecEPN4aidl7android8hardware8graphics6common14ExtendableTypeE"
  },
  {
   "name" : "_ZN7android8gralloc420encodeAllocationSizeEyPNS_8hardware8hidl_vecIhEE"
  },
  {
   "name" : "_ZN7android8gralloc420encodeCta861_3HelperERKN4aidl7android8hardware8graphics6common8Cta861_3EPNS0_13OutputHidlVecE"
  },
  {
   "name" : "_ZN7android8gralloc420encodeExtendableTypeERKN4aidl7android8hardware8graphics6common14ExtendableTypeEPNS0_13OutputHidlVecE"
  },
  {
   "name" : "_ZN7android8gralloc420isStandardInterlacedERKN4aidl7android8hardware8graphics6common14ExtendableTypeE"
  },
  {
   "name" : "_ZN7android8gralloc420validateMetadataTypeEPNS0_12InputHidlVecERKNS_8hardware8graphics6mapper4V4_07IMapper12MetadataTypeE"
  },
  {
   "name" : "_ZN7android8gralloc421decodeSmpte2086HelperEPNS0_12InputHidlVecEPN4aidl7android8hardware8graphics6common9Smpte2086E"
  },
  {
   "name" : "_ZN7android8gralloc421encodeSmpte2086HelperERKN4aidl7android8hardware8graphics6common9Smpte2086EPNS0_13OutputHidlVecE"
  },
  {
   "name" : "_ZN7android8gralloc421isStandardCompressionERKN4aidl7android8hardware8graphics6common14ExtendableTypeE"
  },
  {
   "binding" : "weak",
   "name" : "_ZN7android8gralloc422decodeOptionalMetadataINSt3__16vectorIhNS2_9allocatorIhEEEEEEiRKNS_8hardware8graphics6mapper4V4_07IMapper12MetadataTypeERKNS7_8hidl_vecIhEEPNS2_8optionalIT_EEPFiPNS0_12InputHidlVecEPSK_E"
  },
  {
   "name" : "_ZN7android8gralloc422decodeProtectedContentERKNS_8hardware8hidl_vecIhEEPy"
  },
  {
   "name" : "_ZN7android8gralloc422encodeProtectedContentEyPNS_8hardware8hidl_vecIhEE"
  },
  {
   "name" : "_ZN7android8gralloc422isStandardChromaSitingERKN4aidl7android8hardware8graphics6common14ExtendableTypeE"
  },
  {
   "name" : "_ZN7android8gralloc422isStandardMetadataTypeERKNS_8hardware8graphics6mapper4V4_07IMapper12MetadataTypeE"
  },
  {
   "name" : "_ZN7android8gralloc423decodePixelFormatFourCCERKNS_8hardware8hidl_vecIhEEPj"
  },
  {
   "name" : "_ZN7android8gralloc423encodePixelFormatFourCCEjPNS_8hardware8hidl_vecIhEE"
  },
  {
   "name" : "_ZN7android8gralloc424decodePlaneLayoutsHelperEPNS0_12InputHidlVecEPNSt3__16vectorIN4aidl7android8hardware8graphics6common11PlaneLayoutENS3_9allocatorISA_EEEE"
  },
  {
   "name" : "_ZN7android8gralloc424encodePlaneLayoutsHelperERKNSt3__16vectorIN4aidl7android8hardware8graphics6common11PlaneLayoutENS1_9allocatorIS8_EEEEPNS0_13OutputHidlVecE"
  },
  {
   "name" : "_ZN7android8gralloc425decodePixelFormatModifierERKNS_8hardware8hidl_vecIhEEPy"
  },
  {
   "name" : "_ZN7android8gralloc425encodePixelFormatModifierEyPNS_8hardware8hidl_vecIhEE"
  },
  {
   "name" : "_ZN7android8gralloc426decodeBufferDescriptorInfoERKNS_8hardware8hidl_vecIhEEPNS1_8graphics6mapper4V4_07IMapper20BufferDescriptorInfoE"
  },
  {
   "name" : "_ZN7android8gralloc426decodePixelFormatRequestedERKNS_8hardware8hidl_vecIhEEPNS1_8graphics6common4V1_211PixelFormatE"
  },
  {
   "name" : "_ZN7android8gralloc426decodePlaneLayoutComponentEPNS0_12InputHidlVecEPN4aidl7android8hardware8graphics6common20PlaneLayoutComponentE"
  },
  {
   "name" : "_ZN7android8gralloc426encodeBufferDescriptorInfoERKNS_8hardware8graphics6mapper4V4_07IMapper20BufferDescriptorInfoEPNS1_8hidl_vecIhEE"
  },
  {
   "name" : "_ZN7android8gralloc426encodePixelFormatRequestedERKNS_8hardware8graphics6common4V1_211PixelFormatEPNS1_8hidl_vecIhEE"
  },
  {
   "name" : "_ZN7android8gralloc426encodePlaneLayoutComponentERKN4aidl7android8hardware8graphics6common20PlaneLayoutComponentEPNS0_13OutputHidlVecE"
  },
  {
   "name" : "_ZN7android8gralloc426getStandardInterlacedValueERKN4aidl7android8hardware8graphics6common14ExtendableTypeE"
  },
  {
   "name" : "_ZN7android8gralloc427decodePlaneLayoutComponentsEPNS0_12InputHidlVecEPNSt3__16vectorIN4aidl7android8hardware8graphics6common20PlaneLayoutComponentENS3_9allocatorISA_EEEE"
  },
  {
   "name" : "_ZN7android8gralloc427encodePlaneLayoutComponentsERKNSt3__16vectorIN4aidl7android8hardware8graphics6common20PlaneLayoutComponentENS1_9allocatorIS8_EEEEPNS0_13OutputHidlVecE"
  },
  {
   "name" : "_ZN7android8gralloc427getStandardCompressionValueERKN4aidl7android8hardware8graphics6common14ExtendableTypeE"
  },
  {
   "name" : "_ZN7android8gralloc428getStandardChromaSitingValueERKN4aidl7android8hardware8graphics6common14ExtendableTypeE"
  },
  {
   "name" : "_ZN7android8gralloc428getStandardMetadataTypeValueERKNS_8hardware8graphics6mapper4V4_07IMapper12MetadataTypeE"
  },
  {
   "name" : "_ZN7android8gralloc431getPlaneLayoutComponentTypeNameERKN4aidl7android8hardware8graphics6common14ExtendableTypeE"
  },
  {
   "name" : "_ZN7android8gralloc432decodeBufferDescriptorInfoHelperEPNS0_12InputHidlVecEPNS_8hardware8graphics6mapper4V4_07IMapper20BufferDescriptorInfoE"
  },
  {
   "name" : "_ZN7android8gralloc432encodeBufferDescriptorInfoHelperERKNS_8hardware8graphics6mapper4V4_07IMapper20BufferDescriptorInfoEPNS0_13OutputHidlVecE"
  },
  {
   "name" : "_ZN7android8gralloc434isStandardPlaneLayoutComponentTypeERKN4aidl7android8hardware8graphics6common14ExtendableTypeE"
  },
  {
   "name" : "_ZN7android8gralloc440getStandardPlaneLayoutComponentTypeValueERKN4aidl7android8hardware8graphics6common14ExtendableTypeE"
  },
  {
   "name" : "_ZN7android8gralloc49clearCropEPNSt3__16vectorIN4aidl7android8hardware8graphics6common4RectENS1_9allocatorIS8_EEEE"
  },
  {
   "binding" : "weak",
   "name" : "_ZNKSt3__115basic_stringbufIcNS_11char_traitsIcEENS_9allocatorIcEEE3strEv"
  },
  {
   "binding" : "weak",
   "name" : "_ZNSt3__115basic_stringbufIcNS_11char_traitsIcEENS_9allocatorIcEEE7seekoffExNS_8ios_base7seekdirEj"
  },
  {
   "binding" : "weak",
   "name" : "_ZNSt3__115basic_stringbufIcNS_11char_traitsIcEENS_9allocatorIcEEE8overflowEi"
  },
  {
   "binding" : "weak",
   "name" : "_ZNSt3__115basic_stringbufIcNS_11char_traitsIcEENS_9allocatorIcEEE9pbackfailEi"
  },
  {
   "binding" : "weak",
   "name" : "_ZNSt3__115basic_stringbufIcNS_11char_traitsIcEENS_9allocatorIcEEE9underflowEv"
  },
  {
   "binding" : "weak",
   "name" : "_ZNSt3__124__put_character_sequenceIcNS_11char_traitsIcEEEERNS_13basic_ostreamIT_T0_EES7_PKS4_j"
  },
  {
   "binding" : "weak",
   "name" : "_ZNSt3__16vectorIN4aidl7android8hardware8graphics6common11PlaneLayoutENS_9allocatorIS6_EEE24__emplace_back_slow_pathIJEEEvDpOT_"
  },
  {
   "binding" : "weak",
   "name" : "_ZNSt3__16vectorIN4aidl7android8hardware8graphics6common20PlaneLayoutComponentENS_9allocatorIS6_EEE8__appendEj"
  },
  {
   "binding" : "weak",
   "name" : "_ZNSt3__16vectorIN4aidl7android8hardware8graphics6common4RectENS_9allocatorIS6_EEE24__emplace_back_slow_pathIJEEEvDpOT_"
  },
  {
   "binding" : "weak",
   "name" : "_ZNSt3__16vectorIhNS_9allocatorIhEEE6assignIPhEENS_9enable_ifIXaasr21__is_forward_iteratorIT_EE5valuesr16is_constructibleIhNS_15iterator_traitsIS7_E9referenceEEE5valueEvE4typeES7_S7_"
  },
  {
   "binding" : "weak",
   "name" : "_ZNSt3__16vectorIhNS_9allocatorIhEEE8__appendEj"
  }
 ],
 "elf_objects" :
 [
  {
   "binding" : "weak",
   "name" : "_ZTCNSt3__119basic_ostringstreamIcNS_11char_traitsIcEENS_9allocatorIcEEEE0_NS_13basic_ostreamIcS2_EE"
  },
  {
   "binding" : "weak",
   "name" : "_ZTTNSt3__119basic_ostringstreamIcNS_11char_traitsIcEENS_9allocatorIcEEEE"
  },
  {
   "binding" : "weak",
   "name" : "_ZTVNSt3__115basic_stringbufIcNS_11char_traitsIcEENS_9allocatorIcEEEE"
  },
  {
   "binding" : "weak",
   "name" : "_ZTVNSt3__119basic_ostringstreamIcNS_11char_traitsIcEENS_9allocatorIcEEEE"
  }
 ],
 "enum_types" :
 [
  {
   "alignment" : 4,
   "enum_fields" :
   [
    {
     "enum_field_value" : 1,
     "name" : "FLAG_ONEWAY"
    }
   ],
   "linker_set_key" : "_ZTI12$FLAG_ONEWAY",
   "name" : "(anonymous enum at frameworks/native/libs/binder/ndk/include_ndk/android/binder_ibinder.h:47:1)",
   "referenced_type" : "_ZTI12$FLAG_ONEWAY",
   "self_type" : "_ZTI12$FLAG_ONEWAY",
   "size" : 4,
   "source_file" : "/frameworks/native/libs/binder/ndk/include_ndk/android/binder_ibinder.h",
   "underlying_type" : "_ZTIj"
  },
  {
   "alignment" : 4,
   "enum_fields" :
   [
    {
     "enum_field_value" : 0,
     "name" : "EX_NONE"
    },
    {
     "enum_field_value" : -1,
     "name" : "EX_SECURITY"
    },
    {
     "enum_field_value" : -2,
     "name" : "EX_BAD_PARCELABLE"
    },
    {
     "enum_field_value" : -3,
     "name" : "EX_ILLEGAL_ARGUMENT"
    },
    {
     "enum_field_value" : -4,
     "name" : "EX_NULL_POINTER"
    },
    {
     "enum_field_value" : -5,
     "name" : "EX_ILLEGAL_STATE"
    },
    {
     "enum_field_value" : -6,
     "name" : "EX_NETWORK_MAIN_THREAD"
    },
    {
     "enum_field_value" : -7,
     "name" : "EX_UNSUPPORTED_OPERATION"
    },
    {
     "enum_field_value" : -8,
     "name" : "EX_SERVICE_SPECIFIC"
    },
    {
     "enum_field_value" : -9,
     "name" : "EX_PARCELABLE"
    },
    {
     "enum_field_value" : -129,
     "name" : "EX_TRANSACTION_FAILED"
    }
   ],
   "linker_set_key" : "_ZTI18$EX_BAD_PARCELABLE",
   "name" : "(anonymous enum at frameworks/native/libs/binder/ndk/include_ndk/android/binder_status.h:65:1)",
   "referenced_type" : "_ZTI18$EX_BAD_PARCELABLE",
   "self_type" : "_ZTI18$EX_BAD_PARCELABLE",
   "size" : 4,
   "source_file" : "/frameworks/native/libs/binder/ndk/include_ndk/android/binder_status.h",
   "underlying_type" : "_ZTIi"
  },
  {
   "alignment" : 4,
   "enum_fields" :
   [
    {
     "enum_field_value" : 0,
     "name" : "ANDROID_LOG_UNKNOWN"
    },
    {
     "enum_field_value" : 1,
     "name" : "ANDROID_LOG_DEFAULT"
    },
    {
     "enum_field_value" : 2,
     "name" : "ANDROID_LOG_VERBOSE"
    },
    {
     "enum_field_value" : 3,
     "name" : "ANDROID_LOG_DEBUG"
    },
    {
     "enum_field_value" : 4,
     "name" : "ANDROID_LOG_INFO"
    },
    {
     "enum_field_value" : 5,
     "name" : "ANDROID_LOG_WARN"
    },
    {
     "enum_field_value" : 6,
     "name" : "ANDROID_LOG_ERROR"
    },
    {
     "enum_field_value" : 7,
     "name" : "ANDROID_LOG_FATAL"
    },
    {
     "enum_field_value" : 8,
     "name" : "ANDROID_LOG_SILENT"
    }
   ],
   "linker_set_key" : "_ZTI19android_LogPriority",
   "name" : "android_LogPriority",
   "referenced_type" : "_ZTI19android_LogPriority",
   "self_type" : "_ZTI19android_LogPriority",
   "size" : 4,
   "source_file" : "/system/core/liblog/include/android/log.h",
   "underlying_type" : "_ZTIj"
  },
  {
   "alignment" : 4,
   "enum_fields" :
   [
    {
     "enum_field_value" : 0,
     "name" : "STATUS_OK"
    },
    {
     "enum_field_value" : -2147483648,
     "name" : "STATUS_UNKNOWN_ERROR"
    },
    {
     "enum_field_value" : -12,
     "name" : "STATUS_NO_MEMORY"
    },
    {
     "enum_field_value" : -38,
     "name" : "STATUS_INVALID_OPERATION"
    },
    {
     "enum_field_value" : -22,
     "name" : "STATUS_BAD_VALUE"
    },
    {
     "enum_field_value" : -2147483647,
     "name" : "STATUS_BAD_TYPE"
    },
    {
     "enum_field_value" : -2,
     "name" : "STATUS_NAME_NOT_FOUND"
    },
    {
     "enum_field_value" : -1,
     "name" : "STATUS_PERMISSION_DENIED"
    },
    {
     "enum_field_value" : -19,
     "name" : "STATUS_NO_INIT"
    },
    {
     "enum_field_value" : -17,
     "name" : "STATUS_ALREADY_EXISTS"
    },
    {
     "enum_field_value" : -32,
     "name" : "STATUS_DEAD_OBJECT"
    },
    {
     "enum_field_value" : -2147483646,
     "name" : "STATUS_FAILED_TRANSACTION"
    },
    {
     "enum_field_value" : -75,
     "name" : "STATUS_BAD_INDEX"
    },
    {
     "enum_field_value" : -61,
     "name" : "STATUS_NOT_ENOUGH_DATA"
    },
    {
     "enum_field_value" : -11,
     "name" : "STATUS_WOULD_BLOCK"
    },
    {
     "enum_field_value" : -110,
     "name" : "STATUS_TIMED_OUT"
    },
    {
     "enum_field_value" : -74,
     "name" : "STATUS_UNKNOWN_TRANSACTION"
    },
    {
     "enum_field_value" : -2147483641,
     "name" : "STATUS_FDS_NOT_ALLOWED"
    },
    {
     "enum_field_value" : -2147483640,
     "name" : "STATUS_UNEXPECTED_NULL"
    }
   ],
   "linker_set_key" : "_ZTI22$STATUS_ALREADY_EXISTS",
   "name" : "(anonymous enum at frameworks/native/libs/binder/ndk/include_ndk/android/binder_status.h:35:1)",
   "referenced_type" : "_ZTI22$STATUS_ALREADY_EXISTS",
   "self_type" : "_ZTI22$STATUS_ALREADY_EXISTS",
   "size" : 4,
   "source_file" : "/frameworks/native/libs/binder/ndk/include_ndk/android/binder_status.h",
   "underlying_type" : "_ZTIi"
  },
  {
   "alignment" : 4,
   "enum_fields" :
   [
    {
     "enum_field_value" : 1,
     "name" : "FIRST_CALL_TRANSACTION"
    },
    {
     "enum_field_value" : 16777215,
     "name" : "LAST_CALL_TRANSACTION"
    }
   ],
   "linker_set_key" : "_ZTI23$FIRST_CALL_TRANSACTION",
   "name" : "(anonymous enum at frameworks/native/libs/binder/ndk/include_ndk/android/binder_ibinder.h:59:1)",
   "referenced_type" : "_ZTI23$FIRST_CALL_TRANSACTION",
   "self_type" : "_ZTI23$FIRST_CALL_TRANSACTION",
   "size" : 4,
   "source_file" : "/frameworks/native/libs/binder/ndk/include_ndk/android/binder_ibinder.h",
   "underlying_type" : "_ZTIj"
  },
  {
   "alignment" : 4,
   "enum_fields" :
   [
    {
     "enum_field_value" : 0,
     "name" : "LOG_ID_MIN"
    },
    {
     "enum_field_value" : 0,
     "name" : "LOG_ID_MAIN"
    },
    {
     "enum_field_value" : 1,
     "name" : "LOG_ID_RADIO"
    },
    {
     "enum_field_value" : 2,
     "name" : "LOG_ID_EVENTS"
    },
    {
     "enum_field_value" : 3,
     "name" : "LOG_ID_SYSTEM"
    },
    {
     "enum_field_value" : 4,
     "name" : "LOG_ID_CRASH"
    },
    {
     "enum_field_value" : 5,
     "name" : "LOG_ID_STATS"
    },
    {
     "enum_field_value" : 6,
     "name" : "LOG_ID_SECURITY"
    },
    {
     "enum_field_value" : 7,
     "name" : "LOG_ID_KERNEL"
    },
    {
     "enum_field_value" : 8,
     "name" : "LOG_ID_MAX"
    },
    {
     "enum_field_value" : 2147483647,
     "name" : "LOG_ID_DEFAULT"
    }
   ],
   "linker_set_key" : "_ZTI6log_id",
   "name" : "log_id",
   "referenced_type" : "_ZTI6log_id",
   "self_type" : "_ZTI6log_id",
   "size" : 4,
   "source_file" : "/system/core/liblog/include/android/log.h",
   "underlying_type" : "_ZTIj"
  },
  {
   "alignment" : 4,
   "enum_fields" :
   [
    {
     "enum_field_value" : 0,
     "name" : "aidl::android::hardware::graphics::common::Interlaced::NONE"
    },
    {
     "enum_field_value" : 1,
     "name" : "aidl::android::hardware::graphics::common::Interlaced::TOP_BOTTOM"
    },
    {
     "enum_field_value" : 2,
     "name" : "aidl::android::hardware::graphics::common::Interlaced::RIGHT_LEFT"
    }
   ],
   "linker_set_key" : "_ZTIN4aidl7android8hardware8graphics6common10InterlacedE",
   "name" : "aidl::android::hardware::graphics::common::Interlaced",
   "referenced_type" : "_ZTIN4aidl7android8hardware8graphics6common10InterlacedE",
   "self_type" : "_ZTIN4aidl7android8hardware8graphics6common10InterlacedE",
   "size" : 8,
   "source_file" : "/out/soong/.intermediates/hardware/interfaces/graphics/common/aidl/android.hardware.graphics.common-ndk_platform-source/gen/include/aidl/android/hardware/graphics/common/Interlaced.h",
   "underlying_type" : "_ZTIx"
  },
  {
   "alignment" : 4,
   "enum_fields" :
   [
    {
     "enum_field_value" : 0,
     "name" : "aidl::android::hardware::graphics::common::Compression::NONE"
    },
    {
     "enum_field_value" : 1,
     "name" : "aidl::android::hardware::graphics::common::Compression::DISPLAY_STREAM_COMPRESSION"
    }
   ],
   "linker_set_key" : "_ZTIN4aidl7android8hardware8graphics6common11CompressionE",
   "name" : "aidl::android::hardware::graphics::common::Compression",
   "referenced_type" : "_ZTIN4aidl7android8hardware8graphics6common11CompressionE",
   "self_type" : "_ZTIN4aidl7android8hardware8graphics6common11CompressionE",
   "size" : 8,
   "source_file" : "/out/soong/.intermediates/hardware/interfaces/graphics/common/aidl/android.hardware.graphics.common-ndk_platform-source/gen/include/aidl/android/hardware/graphics/common/Compression.h",
   "underlying_type" : "_ZTIx"
  },
  {
   "alignment" : 4,
   "enum_fields" :
   [
    {
     "enum_field_value" : 0,
     "name" : "aidl::android::hardware::graphics::common::ChromaSiting::NONE"
    },
    {
     "enum_field_value" : 1,
     "name" : "aidl::android::hardware::graphics::common::ChromaSiting::UNKNOWN"
    },
    {
     "enum_field_value" : 2,
     "name" : "aidl::android::hardware::graphics::common::ChromaSiting::SITED_INTERSTITIAL"
    },
    {
     "enum_field_value" : 3,
     "name" : "aidl::android::hardware::graphics::common::ChromaSiting::COSITED_HORIZONTAL"
    }
   ],
   "linker_set_key" : "_ZTIN4aidl7android8hardware8graphics6common12ChromaSitingE",
   "name" : "aidl::android::hardware::graphics::common::ChromaSiting",
   "referenced_type" : "_ZTIN4aidl7android8hardware8graphics6common12ChromaSitingE",
   "self_type" : "_ZTIN4aidl7android8hardware8graphics6common12ChromaSitingE",
   "size" : 8,
   "source_file" : "/out/soong/.intermediates/hardware/interfaces/graphics/common/aidl/android.hardware.graphics.common-ndk_platform-source/gen/include/aidl/android/hardware/graphics/common/ChromaSiting.h",
   "underlying_type" : "_ZTIx"
  },
  {
   "alignment" : 4,
   "enum_fields" :
   [
    {
     "enum_field_value" : 0,
     "name" : "aidl::android::hardware::graphics::common::StandardMetadataType::INVALID"
    },
    {
     "enum_field_value" : 1,
     "name" : "aidl::android::hardware::graphics::common::StandardMetadataType::BUFFER_ID"
    },
    {
     "enum_field_value" : 2,
     "name" : "aidl::android::hardware::graphics::common::StandardMetadataType::NAME"
    },
    {
     "enum_field_value" : 3,
     "name" : "aidl::android::hardware::graphics::common::StandardMetadataType::WIDTH"
    },
    {
     "enum_field_value" : 4,
     "name" : "aidl::android::hardware::graphics::common::StandardMetadataType::HEIGHT"
    },
    {
     "enum_field_value" : 5,
     "name" : "aidl::android::hardware::graphics::common::StandardMetadataType::LAYER_COUNT"
    },
    {
     "enum_field_value" : 6,
     "name" : "aidl::android::hardware::graphics::common::StandardMetadataType::PIXEL_FORMAT_REQUESTED"
    },
    {
     "enum_field_value" : 7,
     "name" : "aidl::android::hardware::graphics::common::StandardMetadataType::PIXEL_FORMAT_FOURCC"
    },
    {
     "enum_field_value" : 8,
     "name" : "aidl::android::hardware::graphics::common::StandardMetadataType::PIXEL_FORMAT_MODIFIER"
    },
    {
     "enum_field_value" : 9,
     "name" : "aidl::android::hardware::graphics::common::StandardMetadataType::USAGE"
    },
    {
     "enum_field_value" : 10,
     "name" : "aidl::android::hardware::graphics::common::StandardMetadataType::ALLOCATION_SIZE"
    },
    {
     "enum_field_value" : 11,
     "name" : "aidl::android::hardware::graphics::common::StandardMetadataType::PROTECTED_CONTENT"
    },
    {
     "enum_field_value" : 12,
     "name" : "aidl::android::hardware::graphics::common::StandardMetadataType::COMPRESSION"
    },
    {
     "enum_field_value" : 13,
     "name" : "aidl::android::hardware::graphics::common::StandardMetadataType::INTERLACED"
    },
    {
     "enum_field_value" : 14,
     "name" : "aidl::android::hardware::graphics::common::StandardMetadataType::CHROMA_SITING"
    },
    {
     "enum_field_value" : 15,
     "name" : "aidl::android::hardware::graphics::common::StandardMetadataType::PLANE_LAYOUTS"
    },
    {
     "enum_field_value" : 16,
     "name" : "aidl::android::hardware::graphics::common::StandardMetadataType::CROP"
    },
    {
     "enum_field_value" : 17,
     "name" : "aidl::android::hardware::graphics::common::StandardMetadataType::DATASPACE"
    },
    {
     "enum_field_value" : 18,
     "name" : "aidl::android::hardware::graphics::common::StandardMetadataType::BLEND_MODE"
    },
    {
     "enum_field_value" : 19,
     "name" : "aidl::android::hardware::graphics::common::StandardMetadataType::SMPTE2086"
    },
    {
     "enum_field_value" : 20,
     "name" : "aidl::android::hardware::graphics::common::StandardMetadataType::CTA861_3"
    },
    {
     "enum_field_value" : 21,
     "name" : "aidl::android::hardware::graphics::common::StandardMetadataType::SMPTE2094_40"
    }
   ],
   "linker_set_key" : "_ZTIN4aidl7android8hardware8graphics6common20StandardMetadataTypeE",
   "name" : "aidl::android::hardware::graphics::common::StandardMetadataType",
   "referenced_type" : "_ZTIN4aidl7android8hardware8graphics6common20StandardMetadataTypeE",
   "self_type" : "_ZTIN4aidl7android8hardware8graphics6common20StandardMetadataTypeE",
   "size" : 8,
   "source_file" : "/out/soong/.intermediates/hardware/interfaces/graphics/common/aidl/android.hardware.graphics.common-ndk_platform-source/gen/include/aidl/android/hardware/graphics/common/StandardMetadataType.h",
   "underlying_type" : "_ZTIx"
  },
  {
   "alignment" : 4,
   "enum_fields" :
   [
    {
     "enum_field_value" : 1,
     "name" : "aidl::android::hardware::graphics::common::PlaneLayoutComponentType::Y"
    },
    {
     "enum_field_value" : 2,
     "name" : "aidl::android::hardware::graphics::common::PlaneLayoutComponentType::CB"
    },
    {
     "enum_field_value" : 4,
     "name" : "aidl::android::hardware::graphics::common::PlaneLayoutComponentType::CR"
    },
    {
     "enum_field_value" : 1024,
     "name" : "aidl::android::hardware::graphics::common::PlaneLayoutComponentType::R"
    },
    {
     "enum_field_value" : 2048,
     "name" : "aidl::android::hardware::graphics::common::PlaneLayoutComponentType::G"
    },
    {
     "enum_field_value" : 4096,
     "name" : "aidl::android::hardware::graphics::common::PlaneLayoutComponentType::B"
    },
    {
     "enum_field_value" : 1048576,
     "name" : "aidl::android::hardware::graphics::common::PlaneLayoutComponentType::RAW"
    },
    {
     "enum_field_value" : 1073741824,
     "name" : "aidl::android::hardware::graphics::common::PlaneLayoutComponentType::A"
    }
   ],
   "linker_set_key" : "_ZTIN4aidl7android8hardware8graphics6common24PlaneLayoutComponentTypeE",
   "name" : "aidl::android::hardware::graphics::common::PlaneLayoutComponentType",
   "referenced_type" : "_ZTIN4aidl7android8hardware8graphics6common24PlaneLayoutComponentTypeE",
   "self_type" : "_ZTIN4aidl7android8hardware8graphics6common24PlaneLayoutComponentTypeE",
   "size" : 8,
   "source_file" : "/out/soong/.intermediates/hardware/interfaces/graphics/common/aidl/android.hardware.graphics.common-ndk_platform-source/gen/include/aidl/android/hardware/graphics/common/PlaneLayoutComponentType.h",
   "underlying_type" : "_ZTIx"
  },
  {
   "alignment" : 4,
   "enum_fields" :
   [
    {
     "enum_field_value" : 0,
     "name" : "aidl::android::hardware::graphics::common::BlendMode::INVALID"
    },
    {
     "enum_field_value" : 1,
     "name" : "aidl::android::hardware::graphics::common::BlendMode::NONE"
    },
    {
     "enum_field_value" : 2,
     "name" : "aidl::android::hardware::graphics::common::BlendMode::PREMULTIPLIED"
    },
    {
     "enum_field_value" : 3,
     "name" : "aidl::android::hardware::graphics::common::BlendMode::COVERAGE"
    }
   ],
   "linker_set_key" : "_ZTIN4aidl7android8hardware8graphics6common9BlendModeE",
   "name" : "aidl::android::hardware::graphics::common::BlendMode",
   "referenced_type" : "_ZTIN4aidl7android8hardware8graphics6common9BlendModeE",
   "self_type" : "_ZTIN4aidl7android8hardware8graphics6common9BlendModeE",
   "size" : 4,
   "source_file" : "/out/soong/.intermediates/hardware/interfaces/graphics/common/aidl/android.hardware.graphics.common-ndk_platform-source/gen/include/aidl/android/hardware/graphics/common/BlendMode.h",
   "underlying_type" : "_ZTIi"
  },
  {
   "alignment" : 4,
   "enum_fields" :
   [
    {
     "enum_field_value" : 0,
     "name" : "aidl::android::hardware::graphics::common::Dataspace::UNKNOWN"
    },
    {
     "enum_field_value" : 1,
     "name" : "aidl::android::hardware::graphics::common::Dataspace::ARBITRARY"
    },
    {
     "enum_field_value" : 16,
     "name" : "aidl::android::hardware::graphics::common::Dataspace::STANDARD_SHIFT"
    },
    {
     "enum_field_value" : 4128768,
     "name" : "aidl::android::hardware::graphics::common::Dataspace::STANDARD_MASK"
    },
    {
     "enum_field_value" : 0,
     "name" : "aidl::android::hardware::graphics::common::Dataspace::STANDARD_UNSPECIFIED"
    },
    {
     "enum_field_value" : 65536,
     "name" : "aidl::android::hardware::graphics::common::Dataspace::STANDARD_BT709"
    },
    {
     "enum_field_value" : 131072,
     "name" : "aidl::android::hardware::graphics::common::Dataspace::STANDARD_BT601_625"
    },
    {
     "enum_field_value" : 196608,
     "name" : "aidl::android::hardware::graphics::common::Dataspace::STANDARD_BT601_625_UNADJUSTED"
    },
    {
     "enum_field_value" : 262144,
     "name" : "aidl::android::hardware::graphics::common::Dataspace::STANDARD_BT601_525"
    },
    {
     "enum_field_value" : 327680,
     "name" : "aidl::android::hardware::graphics::common::Dataspace::STANDARD_BT601_525_UNADJUSTED"
    },
    {
     "enum_field_value" : 393216,
     "name" : "aidl::android::hardware::graphics::common::Dataspace::STANDARD_BT2020"
    },
    {
     "enum_field_value" : 458752,
     "name" : "aidl::android::hardware::graphics::common::Dataspace::STANDARD_BT2020_CONSTANT_LUMINANCE"
    },
    {
     "enum_field_value" : 524288,
     "name" : "aidl::android::hardware::graphics::common::Dataspace::STANDARD_BT470M"
    },
    {
     "enum_field_value" : 589824,
     "name" : "aidl::android::hardware::graphics::common::Dataspace::STANDARD_FILM"
    },
    {
     "enum_field_value" : 655360,
     "name" : "aidl::android::hardware::graphics::common::Dataspace::STANDARD_DCI_P3"
    },
    {
     "enum_field_value" : 720896,
     "name" : "aidl::android::hardware::graphics::common::Dataspace::STANDARD_ADOBE_RGB"
    },
    {
     "enum_field_value" : 22,
     "name" : "aidl::android::hardware::graphics::common::Dataspace::TRANSFER_SHIFT"
    },
    {
     "enum_field_value" : 130023424,
     "name" : "aidl::android::hardware::graphics::common::Dataspace::TRANSFER_MASK"
    },
    {
     "enum_field_value" : 0,
     "name" : "aidl::android::hardware::graphics::common::Dataspace::TRANSFER_UNSPECIFIED"
    },
    {
     "enum_field_value" : 4194304,
     "name" : "aidl::android::hardware::graphics::common::Dataspace::TRANSFER_LINEAR"
    },
    {
     "enum_field_value" : 8388608,
     "name" : "aidl::android::hardware::graphics::common::Dataspace::TRANSFER_SRGB"
    },
    {
     "enum_field_value" : 12582912,
     "name" : "aidl::android::hardware::graphics::common::Dataspace::TRANSFER_SMPTE_170M"
    },
    {
     "enum_field_value" : 16777216,
     "name" : "aidl::android::hardware::graphics::common::Dataspace::TRANSFER_GAMMA2_2"
    },
    {
     "enum_field_value" : 20971520,
     "name" : "aidl::android::hardware::graphics::common::Dataspace::TRANSFER_GAMMA2_6"
    },
    {
     "enum_field_value" : 25165824,
     "name" : "aidl::android::hardware::graphics::common::Dataspace::TRANSFER_GAMMA2_8"
    },
    {
     "enum_field_value" : 29360128,
     "name" : "aidl::android::hardware::graphics::common::Dataspace::TRANSFER_ST2084"
    },
    {
     "enum_field_value" : 33554432,
     "name" : "aidl::android::hardware::graphics::common::Dataspace::TRANSFER_HLG"
    },
    {
     "enum_field_value" : 27,
     "name" : "aidl::android::hardware::graphics::common::Dataspace::RANGE_SHIFT"
    },
    {
     "enum_field_value" : 939524096,
     "name" : "aidl::android::hardware::graphics::common::Dataspace::RANGE_MASK"
    },
    {
     "enum_field_value" : 0,
     "name" : "aidl::android::hardware::graphics::common::Dataspace::RANGE_UNSPECIFIED"
    },
    {
     "enum_field_value" : 134217728,
     "name" : "aidl::android::hardware::graphics::common::Dataspace::RANGE_FULL"
    },
    {
     "enum_field_value" : 268435456,
     "name" : "aidl::android::hardware::graphics::common::Dataspace::RANGE_LIMITED"
    },
    {
     "enum_field_value" : 402653184,
     "name" : "aidl::android::hardware::graphics::common::Dataspace::RANGE_EXTENDED"
    },
    {
     "enum_field_value" : 138477568,
     "name" : "aidl::android::hardware::graphics::common::Dataspace::SRGB_LINEAR"
    },
    {
     "enum_field_value" : 406913024,
     "name" : "aidl::android::hardware::graphics::common::Dataspace::SCRGB_LINEAR"
    },
    {
     "enum_field_value" : 142671872,
     "name" : "aidl::android::hardware::graphics::common::Dataspace::SRGB"
    },
    {
     "enum_field_value" : 411107328,
     "name" : "aidl::android::hardware::graphics::common::Dataspace::SCRGB"
    },
    {
     "enum_field_value" : 146931712,
     "name" : "aidl::android::hardware::graphics::common::Dataspace::JFIF"
    },
    {
     "enum_field_value" : 281149440,
     "name" : "aidl::android::hardware::graphics::common::Dataspace::BT601_625"
    },
    {
     "enum_field_value" : 281280512,
     "name" : "aidl::android::hardware::graphics::common::Dataspace::BT601_525"
    },
    {
     "enum_field_value" : 281083904,
     "name" : "aidl::android::hardware::graphics::common::Dataspace::BT709"
    },
    {
     "enum_field_value" : 139067392,
     "name" : "aidl::android::hardware::graphics::common::Dataspace::DCI_P3_LINEAR"
    },
    {
     "enum_field_value" : 155844608,
     "name" : "aidl::android::hardware::graphics::common::Dataspace::DCI_P3"
    },
    {
     "enum_field_value" : 139067392,
     "name" : "aidl::android::hardware::graphics::common::Dataspace::DISPLAY_P3_LINEAR"
    },
    {
     "enum_field_value" : 143261696,
     "name" : "aidl::android::hardware::graphics::common::Dataspace::DISPLAY_P3"
    },
    {
     "enum_field_value" : 151715840,
     "name" : "aidl::android::hardware::graphics::common::Dataspace::ADOBE_RGB"
    },
    {
     "enum_field_value" : 138805248,
     "name" : "aidl::android::hardware::graphics::common::Dataspace::BT2020_LINEAR"
    },
    {
     "enum_field_value" : 147193856,
     "name" : "aidl::android::hardware::graphics::common::Dataspace::BT2020"
    },
    {
     "enum_field_value" : 163971072,
     "name" : "aidl::android::hardware::graphics::common::Dataspace::BT2020_PQ"
    },
    {
     "enum_field_value" : 4096,
     "name" : "aidl::android::hardware::graphics::common::Dataspace::DEPTH"
    },
    {
     "enum_field_value" : 4097,
     "name" : "aidl::android::hardware::graphics::common::Dataspace::SENSOR"
    },
    {
     "enum_field_value" : 281411584,
     "name" : "aidl::android::hardware::graphics::common::Dataspace::BT2020_ITU"
    },
    {
     "enum_field_value" : 298188800,
     "name" : "aidl::android::hardware::graphics::common::Dataspace::BT2020_ITU_PQ"
    },
    {
     "enum_field_value" : 302383104,
     "name" : "aidl::android::hardware::graphics::common::Dataspace::BT2020_ITU_HLG"
    },
    {
     "enum_field_value" : 168165376,
     "name" : "aidl::android::hardware::graphics::common::Dataspace::BT2020_HLG"
    },
    {
     "enum_field_value" : 142999552,
     "name" : "aidl::android::hardware::graphics::common::Dataspace::DISPLAY_BT2020"
    },
    {
     "enum_field_value" : 4098,
     "name" : "aidl::android::hardware::graphics::common::Dataspace::DYNAMIC_DEPTH"
    },
    {
     "enum_field_value" : 4099,
     "name" : "aidl::android::hardware::graphics::common::Dataspace::JPEG_APP_SEGMENTS"
    },
    {
     "enum_field_value" : 4100,
     "name" : "aidl::android::hardware::graphics::common::Dataspace::HEIF"
    },
    {
     "enum_field_value" : 146866176,
     "name" : "aidl::android::hardware::graphics::common::Dataspace::BT709_FULL_RANGE"
    }
   ],
   "linker_set_key" : "_ZTIN4aidl7android8hardware8graphics6common9DataspaceE",
   "name" : "aidl::android::hardware::graphics::common::Dataspace",
   "referenced_type" : "_ZTIN4aidl7android8hardware8graphics6common9DataspaceE",
   "self_type" : "_ZTIN4aidl7android8hardware8graphics6common9DataspaceE",
   "size" : 4,
   "source_file" : "/out/soong/.intermediates/hardware/interfaces/graphics/common/aidl/android.hardware.graphics.common-ndk_platform-source/gen/include/aidl/android/hardware/graphics/common/Dataspace.h",
   "underlying_type" : "_ZTIi"
  },
  {
   "alignment" : 4,
   "enum_fields" :
   [
    {
     "enum_field_value" : 0,
     "name" : "android::OK"
    },
    {
     "enum_field_value" : 0,
     "name" : "android::NO_ERROR"
    },
    {
     "enum_field_value" : -2147483648,
     "name" : "android::UNKNOWN_ERROR"
    },
    {
     "enum_field_value" : -12,
     "name" : "android::NO_MEMORY"
    },
    {
     "enum_field_value" : -38,
     "name" : "android::INVALID_OPERATION"
    },
    {
     "enum_field_value" : -22,
     "name" : "android::BAD_VALUE"
    },
    {
     "enum_field_value" : -2147483647,
     "name" : "android::BAD_TYPE"
    },
    {
     "enum_field_value" : -2,
     "name" : "android::NAME_NOT_FOUND"
    },
    {
     "enum_field_value" : -1,
     "name" : "android::PERMISSION_DENIED"
    },
    {
     "enum_field_value" : -19,
     "name" : "android::NO_INIT"
    },
    {
     "enum_field_value" : -17,
     "name" : "android::ALREADY_EXISTS"
    },
    {
     "enum_field_value" : -32,
     "name" : "android::DEAD_OBJECT"
    },
    {
     "enum_field_value" : -2147483646,
     "name" : "android::FAILED_TRANSACTION"
    },
    {
     "enum_field_value" : -75,
     "name" : "android::BAD_INDEX"
    },
    {
     "enum_field_value" : -61,
     "name" : "android::NOT_ENOUGH_DATA"
    },
    {
     "enum_field_value" : -11,
     "name" : "android::WOULD_BLOCK"
    },
    {
     "enum_field_value" : -110,
     "name" : "android::TIMED_OUT"
    },
    {
     "enum_field_value" : -74,
     "name" : "android::UNKNOWN_TRANSACTION"
    },
    {
     "enum_field_value" : -2147483641,
     "name" : "android::FDS_NOT_ALLOWED"
    },
    {
     "enum_field_value" : -2147483640,
     "name" : "android::UNEXPECTED_NULL"
    }
   ],
   "linker_set_key" : "_ZTIN7android15$ALREADY_EXISTSE",
   "name" : "android::(anonymous enum at system/core/libutils/include/utils/Errors.h:43:1)",
   "referenced_type" : "_ZTIN7android15$ALREADY_EXISTSE",
   "self_type" : "_ZTIN7android15$ALREADY_EXISTSE",
   "size" : 4,
   "source_file" : "/system/core/libutils/include/utils/Errors.h",
   "underlying_type" : "_ZTIi"
  },
  {
   "alignment" : 4,
   "enum_fields" :
   [
    {
     "enum_field_value" : 1,
     "name" : "android::trait_trivial_copy<bool>::value"
    }
   ],
   "linker_set_key" : "_ZTIN7android18trait_trivial_copyIbE6$valueE",
   "name" : "android::trait_trivial_copy<bool>::(anonymous enum at system/core/libutils/include/utils/TypeHelpers.h:98:1)",
   "referenced_type" : "_ZTIN7android18trait_trivial_copyIbE6$valueE",
   "self_type" : "_ZTIN7android18trait_trivial_copyIbE6$valueE",
   "size" : 4,
   "source_file" : "/system/core/libutils/include/utils/TypeHelpers.h",
   "underlying_type" : "_ZTIj"
  },
  {
   "alignment" : 4,
   "enum_fields" :
   [
    {
     "enum_field_value" : 1,
     "name" : "android::trait_trivial_copy<char>::value"
    }
   ],
   "linker_set_key" : "_ZTIN7android18trait_trivial_copyIcE6$valueE",
   "name" : "android::trait_trivial_copy<char>::(anonymous enum at system/core/libutils/include/utils/TypeHelpers.h:99:1)",
   "referenced_type" : "_ZTIN7android18trait_trivial_copyIcE6$valueE",
   "self_type" : "_ZTIN7android18trait_trivial_copyIcE6$valueE",
   "size" : 4,
   "source_file" : "/system/core/libutils/include/utils/TypeHelpers.h",
   "underlying_type" : "_ZTIj"
  },
  {
   "alignment" : 4,
   "enum_fields" :
   [
    {
     "enum_field_value" : 1,
     "name" : "android::trait_trivial_copy<double>::value"
    }
   ],
   "linker_set_key" : "_ZTIN7android18trait_trivial_copyIdE6$valueE",
   "name" : "android::trait_trivial_copy<double>::(anonymous enum at system/core/libutils/include/utils/TypeHelpers.h:110:1)",
   "referenced_type" : "_ZTIN7android18trait_trivial_copyIdE6$valueE",
   "self_type" : "_ZTIN7android18trait_trivial_copyIdE6$valueE",
   "size" : 4,
   "source_file" : "/system/core/libutils/include/utils/TypeHelpers.h",
   "underlying_type" : "_ZTIj"
  },
  {
   "alignment" : 4,
   "enum_fields" :
   [
    {
     "enum_field_value" : 1,
     "name" : "android::trait_trivial_copy<float>::value"
    }
   ],
   "linker_set_key" : "_ZTIN7android18trait_trivial_copyIfE6$valueE",
   "name" : "android::trait_trivial_copy<float>::(anonymous enum at system/core/libutils/include/utils/TypeHelpers.h:109:1)",
   "referenced_type" : "_ZTIN7android18trait_trivial_copyIfE6$valueE",
   "self_type" : "_ZTIN7android18trait_trivial_copyIfE6$valueE",
   "size" : 4,
   "source_file" : "/system/core/libutils/include/utils/TypeHelpers.h",
   "underlying_type" : "_ZTIj"
  },
  {
   "alignment" : 4,
   "enum_fields" :
   [
    {
     "enum_field_value" : 1,
     "name" : "android::trait_trivial_copy<unsigned char>::value"
    }
   ],
   "linker_set_key" : "_ZTIN7android18trait_trivial_copyIhE6$valueE",
   "name" : "android::trait_trivial_copy<unsigned char>::(anonymous enum at system/core/libutils/include/utils/TypeHelpers.h:100:1)",
   "referenced_type" : "_ZTIN7android18trait_trivial_copyIhE6$valueE",
   "self_type" : "_ZTIN7android18trait_trivial_copyIhE6$valueE",
   "size" : 4,
   "source_file" : "/system/core/libutils/include/utils/TypeHelpers.h",
   "underlying_type" : "_ZTIj"
  },
  {
   "alignment" : 4,
   "enum_fields" :
   [
    {
     "enum_field_value" : 1,
     "name" : "android::trait_trivial_copy<int>::value"
    }
   ],
   "linker_set_key" : "_ZTIN7android18trait_trivial_copyIiE6$valueE",
   "name" : "android::trait_trivial_copy<int>::(anonymous enum at system/core/libutils/include/utils/TypeHelpers.h:103:1)",
   "referenced_type" : "_ZTIN7android18trait_trivial_copyIiE6$valueE",
   "self_type" : "_ZTIN7android18trait_trivial_copyIiE6$valueE",
   "size" : 4,
   "source_file" : "/system/core/libutils/include/utils/TypeHelpers.h",
   "underlying_type" : "_ZTIj"
  },
  {
   "alignment" : 4,
   "enum_fields" :
   [
    {
     "enum_field_value" : 1,
     "name" : "android::trait_trivial_copy<unsigned int>::value"
    }
   ],
   "linker_set_key" : "_ZTIN7android18trait_trivial_copyIjE6$valueE",
   "name" : "android::trait_trivial_copy<unsigned int>::(anonymous enum at system/core/libutils/include/utils/TypeHelpers.h:104:1)",
   "referenced_type" : "_ZTIN7android18trait_trivial_copyIjE6$valueE",
   "self_type" : "_ZTIN7android18trait_trivial_copyIjE6$valueE",
   "size" : 4,
   "source_file" : "/system/core/libutils/include/utils/TypeHelpers.h",
   "underlying_type" : "_ZTIj"
  },
  {
   "alignment" : 4,
   "enum_fields" :
   [
    {
     "enum_field_value" : 1,
     "name" : "android::trait_trivial_copy<long>::value"
    }
   ],
   "linker_set_key" : "_ZTIN7android18trait_trivial_copyIlE6$valueE",
   "name" : "android::trait_trivial_copy<long>::(anonymous enum at system/core/libutils/include/utils/TypeHelpers.h:105:1)",
   "referenced_type" : "_ZTIN7android18trait_trivial_copyIlE6$valueE",
   "self_type" : "_ZTIN7android18trait_trivial_copyIlE6$valueE",
   "size" : 4,
   "source_file" : "/system/core/libutils/include/utils/TypeHelpers.h",
   "underlying_type" : "_ZTIj"
  },
  {
   "alignment" : 4,
   "enum_fields" :
   [
    {
     "enum_field_value" : 1,
     "name" : "android::trait_trivial_copy<unsigned long>::value"
    }
   ],
   "linker_set_key" : "_ZTIN7android18trait_trivial_copyImE6$valueE",
   "name" : "android::trait_trivial_copy<unsigned long>::(anonymous enum at system/core/libutils/include/utils/TypeHelpers.h:106:1)",
   "referenced_type" : "_ZTIN7android18trait_trivial_copyImE6$valueE",
   "self_type" : "_ZTIN7android18trait_trivial_copyImE6$valueE",
   "size" : 4,
   "source_file" : "/system/core/libutils/include/utils/TypeHelpers.h",
   "underlying_type" : "_ZTIj"
  },
  {
   "alignment" : 4,
   "enum_fields" :
   [
    {
     "enum_field_value" : 1,
     "name" : "android::trait_trivial_copy<short>::value"
    }
   ],
   "linker_set_key" : "_ZTIN7android18trait_trivial_copyIsE6$valueE",
   "name" : "android::trait_trivial_copy<short>::(anonymous enum at system/core/libutils/include/utils/TypeHelpers.h:101:1)",
   "referenced_type" : "_ZTIN7android18trait_trivial_copyIsE6$valueE",
   "self_type" : "_ZTIN7android18trait_trivial_copyIsE6$valueE",
   "size" : 4,
   "source_file" : "/system/core/libutils/include/utils/TypeHelpers.h",
   "underlying_type" : "_ZTIj"
  },
  {
   "alignment" : 4,
   "enum_fields" :
   [
    {
     "enum_field_value" : 1,
     "name" : "android::trait_trivial_copy<unsigned short>::value"
    }
   ],
   "linker_set_key" : "_ZTIN7android18trait_trivial_copyItE6$valueE",
   "name" : "android::trait_trivial_copy<unsigned short>::(anonymous enum at system/core/libutils/include/utils/TypeHelpers.h:102:1)",
   "referenced_type" : "_ZTIN7android18trait_trivial_copyItE6$valueE",
   "self_type" : "_ZTIN7android18trait_trivial_copyItE6$valueE",
   "size" : 4,
   "source_file" : "/system/core/libutils/include/utils/TypeHelpers.h",
   "underlying_type" : "_ZTIj"
  },
  {
   "alignment" : 4,
   "enum_fields" :
   [
    {
     "enum_field_value" : 1,
     "name" : "android::trait_trivial_copy<void>::value"
    }
   ],
   "linker_set_key" : "_ZTIN7android18trait_trivial_copyIvE6$valueE",
   "name" : "android::trait_trivial_copy<void>::(anonymous enum at system/core/libutils/include/utils/TypeHelpers.h:97:1)",
   "referenced_type" : "_ZTIN7android18trait_trivial_copyIvE6$valueE",
   "self_type" : "_ZTIN7android18trait_trivial_copyIvE6$valueE",
   "size" : 4,
   "source_file" : "/system/core/libutils/include/utils/TypeHelpers.h",
   "underlying_type" : "_ZTIj"
  },
  {
   "alignment" : 4,
   "enum_fields" :
   [
    {
     "enum_field_value" : 1,
     "name" : "android::trait_trivial_copy<long long>::value"
    }
   ],
   "linker_set_key" : "_ZTIN7android18trait_trivial_copyIxE6$valueE",
   "name" : "android::trait_trivial_copy<long long>::(anonymous enum at system/core/libutils/include/utils/TypeHelpers.h:107:1)",
   "referenced_type" : "_ZTIN7android18trait_trivial_copyIxE6$valueE",
   "self_type" : "_ZTIN7android18trait_trivial_copyIxE6$valueE",
   "size" : 4,
   "source_file" : "/system/core/libutils/include/utils/TypeHelpers.h",
   "underlying_type" : "_ZTIj"
  },
  {
   "alignment" : 4,
   "enum_fields" :
   [
    {
     "enum_field_value" : 1,
     "name" : "android::trait_trivial_copy<unsigned long long>::value"
    }
   ],
   "linker_set_key" : "_ZTIN7android18trait_trivial_copyIyE6$valueE",
   "name" : "android::trait_trivial_copy<unsigned long long>::(anonymous enum at system/core/libutils/include/utils/TypeHelpers.h:108:1)",
   "referenced_type" : "_ZTIN7android18trait_trivial_copyIyE6$valueE",
   "self_type" : "_ZTIN7android18trait_trivial_copyIyE6$valueE",
   "size" : 4,
   "source_file" : "/system/core/libutils/include/utils/TypeHelpers.h",
   "underlying_type" : "_ZTIj"
  },
  {
   "alignment" : 4,
   "enum_fields" :
   [
    {
     "enum_field_value" : 1,
     "name" : "android::trait_trivial_ctor<bool>::value"
    }
   ],
   "linker_set_key" : "_ZTIN7android18trait_trivial_ctorIbE6$valueE",
   "name" : "android::trait_trivial_ctor<bool>::(anonymous enum at system/core/libutils/include/utils/TypeHelpers.h:98:1)",
   "referenced_type" : "_ZTIN7android18trait_trivial_ctorIbE6$valueE",
   "self_type" : "_ZTIN7android18trait_trivial_ctorIbE6$valueE",
   "size" : 4,
   "source_file" : "/system/core/libutils/include/utils/TypeHelpers.h",
   "underlying_type" : "_ZTIj"
  },
  {
   "alignment" : 4,
   "enum_fields" :
   [
    {
     "enum_field_value" : 1,
     "name" : "android::trait_trivial_ctor<char>::value"
    }
   ],
   "linker_set_key" : "_ZTIN7android18trait_trivial_ctorIcE6$valueE",
   "name" : "android::trait_trivial_ctor<char>::(anonymous enum at system/core/libutils/include/utils/TypeHelpers.h:99:1)",
   "referenced_type" : "_ZTIN7android18trait_trivial_ctorIcE6$valueE",
   "self_type" : "_ZTIN7android18trait_trivial_ctorIcE6$valueE",
   "size" : 4,
   "source_file" : "/system/core/libutils/include/utils/TypeHelpers.h",
   "underlying_type" : "_ZTIj"
  },
  {
   "alignment" : 4,
   "enum_fields" :
   [
    {
     "enum_field_value" : 1,
     "name" : "android::trait_trivial_ctor<double>::value"
    }
   ],
   "linker_set_key" : "_ZTIN7android18trait_trivial_ctorIdE6$valueE",
   "name" : "android::trait_trivial_ctor<double>::(anonymous enum at system/core/libutils/include/utils/TypeHelpers.h:110:1)",
   "referenced_type" : "_ZTIN7android18trait_trivial_ctorIdE6$valueE",
   "self_type" : "_ZTIN7android18trait_trivial_ctorIdE6$valueE",
   "size" : 4,
   "source_file" : "/system/core/libutils/include/utils/TypeHelpers.h",
   "underlying_type" : "_ZTIj"
  },
  {
   "alignment" : 4,
   "enum_fields" :
   [
    {
     "enum_field_value" : 1,
     "name" : "android::trait_trivial_ctor<float>::value"
    }
   ],
   "linker_set_key" : "_ZTIN7android18trait_trivial_ctorIfE6$valueE",
   "name" : "android::trait_trivial_ctor<float>::(anonymous enum at system/core/libutils/include/utils/TypeHelpers.h:109:1)",
   "referenced_type" : "_ZTIN7android18trait_trivial_ctorIfE6$valueE",
   "self_type" : "_ZTIN7android18trait_trivial_ctorIfE6$valueE",
   "size" : 4,
   "source_file" : "/system/core/libutils/include/utils/TypeHelpers.h",
   "underlying_type" : "_ZTIj"
  },
  {
   "alignment" : 4,
   "enum_fields" :
   [
    {
     "enum_field_value" : 1,
     "name" : "android::trait_trivial_ctor<unsigned char>::value"
    }
   ],
   "linker_set_key" : "_ZTIN7android18trait_trivial_ctorIhE6$valueE",
   "name" : "android::trait_trivial_ctor<unsigned char>::(anonymous enum at system/core/libutils/include/utils/TypeHelpers.h:100:1)",
   "referenced_type" : "_ZTIN7android18trait_trivial_ctorIhE6$valueE",
   "self_type" : "_ZTIN7android18trait_trivial_ctorIhE6$valueE",
   "size" : 4,
   "source_file" : "/system/core/libutils/include/utils/TypeHelpers.h",
   "underlying_type" : "_ZTIj"
  },
  {
   "alignment" : 4,
   "enum_fields" :
   [
    {
     "enum_field_value" : 1,
     "name" : "android::trait_trivial_ctor<int>::value"
    }
   ],
   "linker_set_key" : "_ZTIN7android18trait_trivial_ctorIiE6$valueE",
   "name" : "android::trait_trivial_ctor<int>::(anonymous enum at system/core/libutils/include/utils/TypeHelpers.h:103:1)",
   "referenced_type" : "_ZTIN7android18trait_trivial_ctorIiE6$valueE",
   "self_type" : "_ZTIN7android18trait_trivial_ctorIiE6$valueE",
   "size" : 4,
   "source_file" : "/system/core/libutils/include/utils/TypeHelpers.h",
   "underlying_type" : "_ZTIj"
  },
  {
   "alignment" : 4,
   "enum_fields" :
   [
    {
     "enum_field_value" : 1,
     "name" : "android::trait_trivial_ctor<unsigned int>::value"
    }
   ],
   "linker_set_key" : "_ZTIN7android18trait_trivial_ctorIjE6$valueE",
   "name" : "android::trait_trivial_ctor<unsigned int>::(anonymous enum at system/core/libutils/include/utils/TypeHelpers.h:104:1)",
   "referenced_type" : "_ZTIN7android18trait_trivial_ctorIjE6$valueE",
   "self_type" : "_ZTIN7android18trait_trivial_ctorIjE6$valueE",
   "size" : 4,
   "source_file" : "/system/core/libutils/include/utils/TypeHelpers.h",
   "underlying_type" : "_ZTIj"
  },
  {
   "alignment" : 4,
   "enum_fields" :
   [
    {
     "enum_field_value" : 1,
     "name" : "android::trait_trivial_ctor<long>::value"
    }
   ],
   "linker_set_key" : "_ZTIN7android18trait_trivial_ctorIlE6$valueE",
   "name" : "android::trait_trivial_ctor<long>::(anonymous enum at system/core/libutils/include/utils/TypeHelpers.h:105:1)",
   "referenced_type" : "_ZTIN7android18trait_trivial_ctorIlE6$valueE",
   "self_type" : "_ZTIN7android18trait_trivial_ctorIlE6$valueE",
   "size" : 4,
   "source_file" : "/system/core/libutils/include/utils/TypeHelpers.h",
   "underlying_type" : "_ZTIj"
  },
  {
   "alignment" : 4,
   "enum_fields" :
   [
    {
     "enum_field_value" : 1,
     "name" : "android::trait_trivial_ctor<unsigned long>::value"
    }
   ],
   "linker_set_key" : "_ZTIN7android18trait_trivial_ctorImE6$valueE",
   "name" : "android::trait_trivial_ctor<unsigned long>::(anonymous enum at system/core/libutils/include/utils/TypeHelpers.h:106:1)",
   "referenced_type" : "_ZTIN7android18trait_trivial_ctorImE6$valueE",
   "self_type" : "_ZTIN7android18trait_trivial_ctorImE6$valueE",
   "size" : 4,
   "source_file" : "/system/core/libutils/include/utils/TypeHelpers.h",
   "underlying_type" : "_ZTIj"
  },
  {
   "alignment" : 4,
   "enum_fields" :
   [
    {
     "enum_field_value" : 1,
     "name" : "android::trait_trivial_ctor<short>::value"
    }
   ],
   "linker_set_key" : "_ZTIN7android18trait_trivial_ctorIsE6$valueE",
   "name" : "android::trait_trivial_ctor<short>::(anonymous enum at system/core/libutils/include/utils/TypeHelpers.h:101:1)",
   "referenced_type" : "_ZTIN7android18trait_trivial_ctorIsE6$valueE",
   "self_type" : "_ZTIN7android18trait_trivial_ctorIsE6$valueE",
   "size" : 4,
   "source_file" : "/system/core/libutils/include/utils/TypeHelpers.h",
   "underlying_type" : "_ZTIj"
  },
  {
   "alignment" : 4,
   "enum_fields" :
   [
    {
     "enum_field_value" : 1,
     "name" : "android::trait_trivial_ctor<unsigned short>::value"
    }
   ],
   "linker_set_key" : "_ZTIN7android18trait_trivial_ctorItE6$valueE",
   "name" : "android::trait_trivial_ctor<unsigned short>::(anonymous enum at system/core/libutils/include/utils/TypeHelpers.h:102:1)",
   "referenced_type" : "_ZTIN7android18trait_trivial_ctorItE6$valueE",
   "self_type" : "_ZTIN7android18trait_trivial_ctorItE6$valueE",
   "size" : 4,
   "source_file" : "/system/core/libutils/include/utils/TypeHelpers.h",
   "underlying_type" : "_ZTIj"
  },
  {
   "alignment" : 4,
   "enum_fields" :
   [
    {
     "enum_field_value" : 1,
     "name" : "android::trait_trivial_ctor<void>::value"
    }
   ],
   "linker_set_key" : "_ZTIN7android18trait_trivial_ctorIvE6$valueE",
   "name" : "android::trait_trivial_ctor<void>::(anonymous enum at system/core/libutils/include/utils/TypeHelpers.h:97:1)",
   "referenced_type" : "_ZTIN7android18trait_trivial_ctorIvE6$valueE",
   "self_type" : "_ZTIN7android18trait_trivial_ctorIvE6$valueE",
   "size" : 4,
   "source_file" : "/system/core/libutils/include/utils/TypeHelpers.h",
   "underlying_type" : "_ZTIj"
  },
  {
   "alignment" : 4,
   "enum_fields" :
   [
    {
     "enum_field_value" : 1,
     "name" : "android::trait_trivial_ctor<long long>::value"
    }
   ],
   "linker_set_key" : "_ZTIN7android18trait_trivial_ctorIxE6$valueE",
   "name" : "android::trait_trivial_ctor<long long>::(anonymous enum at system/core/libutils/include/utils/TypeHelpers.h:107:1)",
   "referenced_type" : "_ZTIN7android18trait_trivial_ctorIxE6$valueE",
   "self_type" : "_ZTIN7android18trait_trivial_ctorIxE6$valueE",
   "size" : 4,
   "source_file" : "/system/core/libutils/include/utils/TypeHelpers.h",
   "underlying_type" : "_ZTIj"
  },
  {
   "alignment" : 4,
   "enum_fields" :
   [
    {
     "enum_field_value" : 1,
     "name" : "android::trait_trivial_ctor<unsigned long long>::value"
    }
   ],
   "linker_set_key" : "_ZTIN7android18trait_trivial_ctorIyE6$valueE",
   "name" : "android::trait_trivial_ctor<unsigned long long>::(anonymous enum at system/core/libutils/include/utils/TypeHelpers.h:108:1)",
   "referenced_type" : "_ZTIN7android18trait_trivial_ctorIyE6$valueE",
   "self_type" : "_ZTIN7android18trait_trivial_ctorIyE6$valueE",
   "size" : 4,
   "source_file" : "/system/core/libutils/include/utils/TypeHelpers.h",
   "underlying_type" : "_ZTIj"
  },
  {
   "alignment" : 4,
   "enum_fields" :
   [
    {
     "enum_field_value" : 1,
     "name" : "android::trait_trivial_dtor<bool>::value"
    }
   ],
   "linker_set_key" : "_ZTIN7android18trait_trivial_dtorIbE6$valueE",
   "name" : "android::trait_trivial_dtor<bool>::(anonymous enum at system/core/libutils/include/utils/TypeHelpers.h:98:1)",
   "referenced_type" : "_ZTIN7android18trait_trivial_dtorIbE6$valueE",
   "self_type" : "_ZTIN7android18trait_trivial_dtorIbE6$valueE",
   "size" : 4,
   "source_file" : "/system/core/libutils/include/utils/TypeHelpers.h",
   "underlying_type" : "_ZTIj"
  },
  {
   "alignment" : 4,
   "enum_fields" :
   [
    {
     "enum_field_value" : 1,
     "name" : "android::trait_trivial_dtor<char>::value"
    }
   ],
   "linker_set_key" : "_ZTIN7android18trait_trivial_dtorIcE6$valueE",
   "name" : "android::trait_trivial_dtor<char>::(anonymous enum at system/core/libutils/include/utils/TypeHelpers.h:99:1)",
   "referenced_type" : "_ZTIN7android18trait_trivial_dtorIcE6$valueE",
   "self_type" : "_ZTIN7android18trait_trivial_dtorIcE6$valueE",
   "size" : 4,
   "source_file" : "/system/core/libutils/include/utils/TypeHelpers.h",
   "underlying_type" : "_ZTIj"
  },
  {
   "alignment" : 4,
   "enum_fields" :
   [
    {
     "enum_field_value" : 1,
     "name" : "android::trait_trivial_dtor<double>::value"
    }
   ],
   "linker_set_key" : "_ZTIN7android18trait_trivial_dtorIdE6$valueE",
   "name" : "android::trait_trivial_dtor<double>::(anonymous enum at system/core/libutils/include/utils/TypeHelpers.h:110:1)",
   "referenced_type" : "_ZTIN7android18trait_trivial_dtorIdE6$valueE",
   "self_type" : "_ZTIN7android18trait_trivial_dtorIdE6$valueE",
   "size" : 4,
   "source_file" : "/system/core/libutils/include/utils/TypeHelpers.h",
   "underlying_type" : "_ZTIj"
  },
  {
   "alignment" : 4,
   "enum_fields" :
   [
    {
     "enum_field_value" : 1,
     "name" : "android::trait_trivial_dtor<float>::value"
    }
   ],
   "linker_set_key" : "_ZTIN7android18trait_trivial_dtorIfE6$valueE",
   "name" : "android::trait_trivial_dtor<float>::(anonymous enum at system/core/libutils/include/utils/TypeHelpers.h:109:1)",
   "referenced_type" : "_ZTIN7android18trait_trivial_dtorIfE6$valueE",
   "self_type" : "_ZTIN7android18trait_trivial_dtorIfE6$valueE",
   "size" : 4,
   "source_file" : "/system/core/libutils/include/utils/TypeHelpers.h",
   "underlying_type" : "_ZTIj"
  },
  {
   "alignment" : 4,
   "enum_fields" :
   [
    {
     "enum_field_value" : 1,
     "name" : "android::trait_trivial_dtor<unsigned char>::value"
    }
   ],
   "linker_set_key" : "_ZTIN7android18trait_trivial_dtorIhE6$valueE",
   "name" : "android::trait_trivial_dtor<unsigned char>::(anonymous enum at system/core/libutils/include/utils/TypeHelpers.h:100:1)",
   "referenced_type" : "_ZTIN7android18trait_trivial_dtorIhE6$valueE",
   "self_type" : "_ZTIN7android18trait_trivial_dtorIhE6$valueE",
   "size" : 4,
   "source_file" : "/system/core/libutils/include/utils/TypeHelpers.h",
   "underlying_type" : "_ZTIj"
  },
  {
   "alignment" : 4,
   "enum_fields" :
   [
    {
     "enum_field_value" : 1,
     "name" : "android::trait_trivial_dtor<int>::value"
    }
   ],
   "linker_set_key" : "_ZTIN7android18trait_trivial_dtorIiE6$valueE",
   "name" : "android::trait_trivial_dtor<int>::(anonymous enum at system/core/libutils/include/utils/TypeHelpers.h:103:1)",
   "referenced_type" : "_ZTIN7android18trait_trivial_dtorIiE6$valueE",
   "self_type" : "_ZTIN7android18trait_trivial_dtorIiE6$valueE",
   "size" : 4,
   "source_file" : "/system/core/libutils/include/utils/TypeHelpers.h",
   "underlying_type" : "_ZTIj"
  },
  {
   "alignment" : 4,
   "enum_fields" :
   [
    {
     "enum_field_value" : 1,
     "name" : "android::trait_trivial_dtor<unsigned int>::value"
    }
   ],
   "linker_set_key" : "_ZTIN7android18trait_trivial_dtorIjE6$valueE",
   "name" : "android::trait_trivial_dtor<unsigned int>::(anonymous enum at system/core/libutils/include/utils/TypeHelpers.h:104:1)",
   "referenced_type" : "_ZTIN7android18trait_trivial_dtorIjE6$valueE",
   "self_type" : "_ZTIN7android18trait_trivial_dtorIjE6$valueE",
   "size" : 4,
   "source_file" : "/system/core/libutils/include/utils/TypeHelpers.h",
   "underlying_type" : "_ZTIj"
  },
  {
   "alignment" : 4,
   "enum_fields" :
   [
    {
     "enum_field_value" : 1,
     "name" : "android::trait_trivial_dtor<long>::value"
    }
   ],
   "linker_set_key" : "_ZTIN7android18trait_trivial_dtorIlE6$valueE",
   "name" : "android::trait_trivial_dtor<long>::(anonymous enum at system/core/libutils/include/utils/TypeHelpers.h:105:1)",
   "referenced_type" : "_ZTIN7android18trait_trivial_dtorIlE6$valueE",
   "self_type" : "_ZTIN7android18trait_trivial_dtorIlE6$valueE",
   "size" : 4,
   "source_file" : "/system/core/libutils/include/utils/TypeHelpers.h",
   "underlying_type" : "_ZTIj"
  },
  {
   "alignment" : 4,
   "enum_fields" :
   [
    {
     "enum_field_value" : 1,
     "name" : "android::trait_trivial_dtor<unsigned long>::value"
    }
   ],
   "linker_set_key" : "_ZTIN7android18trait_trivial_dtorImE6$valueE",
   "name" : "android::trait_trivial_dtor<unsigned long>::(anonymous enum at system/core/libutils/include/utils/TypeHelpers.h:106:1)",
   "referenced_type" : "_ZTIN7android18trait_trivial_dtorImE6$valueE",
   "self_type" : "_ZTIN7android18trait_trivial_dtorImE6$valueE",
   "size" : 4,
   "source_file" : "/system/core/libutils/include/utils/TypeHelpers.h",
   "underlying_type" : "_ZTIj"
  },
  {
   "alignment" : 4,
   "enum_fields" :
   [
    {
     "enum_field_value" : 1,
     "name" : "android::trait_trivial_dtor<short>::value"
    }
   ],
   "linker_set_key" : "_ZTIN7android18trait_trivial_dtorIsE6$valueE",
   "name" : "android::trait_trivial_dtor<short>::(anonymous enum at system/core/libutils/include/utils/TypeHelpers.h:101:1)",
   "referenced_type" : "_ZTIN7android18trait_trivial_dtorIsE6$valueE",
   "self_type" : "_ZTIN7android18trait_trivial_dtorIsE6$valueE",
   "size" : 4,
   "source_file" : "/system/core/libutils/include/utils/TypeHelpers.h",
   "underlying_type" : "_ZTIj"
  },
  {
   "alignment" : 4,
   "enum_fields" :
   [
    {
     "enum_field_value" : 1,
     "name" : "android::trait_trivial_dtor<unsigned short>::value"
    }
   ],
   "linker_set_key" : "_ZTIN7android18trait_trivial_dtorItE6$valueE",
   "name" : "android::trait_trivial_dtor<unsigned short>::(anonymous enum at system/core/libutils/include/utils/TypeHelpers.h:102:1)",
   "referenced_type" : "_ZTIN7android18trait_trivial_dtorItE6$valueE",
   "self_type" : "_ZTIN7android18trait_trivial_dtorItE6$valueE",
   "size" : 4,
   "source_file" : "/system/core/libutils/include/utils/TypeHelpers.h",
   "underlying_type" : "_ZTIj"
  },
  {
   "alignment" : 4,
   "enum_fields" :
   [
    {
     "enum_field_value" : 1,
     "name" : "android::trait_trivial_dtor<void>::value"
    }
   ],
   "linker_set_key" : "_ZTIN7android18trait_trivial_dtorIvE6$valueE",
   "name" : "android::trait_trivial_dtor<void>::(anonymous enum at system/core/libutils/include/utils/TypeHelpers.h:97:1)",
   "referenced_type" : "_ZTIN7android18trait_trivial_dtorIvE6$valueE",
   "self_type" : "_ZTIN7android18trait_trivial_dtorIvE6$valueE",
   "size" : 4,
   "source_file" : "/system/core/libutils/include/utils/TypeHelpers.h",
   "underlying_type" : "_ZTIj"
  },
  {
   "alignment" : 4,
   "enum_fields" :
   [
    {
     "enum_field_value" : 1,
     "name" : "android::trait_trivial_dtor<long long>::value"
    }
   ],
   "linker_set_key" : "_ZTIN7android18trait_trivial_dtorIxE6$valueE",
   "name" : "android::trait_trivial_dtor<long long>::(anonymous enum at system/core/libutils/include/utils/TypeHelpers.h:107:1)",
   "referenced_type" : "_ZTIN7android18trait_trivial_dtorIxE6$valueE",
   "self_type" : "_ZTIN7android18trait_trivial_dtorIxE6$valueE",
   "size" : 4,
   "source_file" : "/system/core/libutils/include/utils/TypeHelpers.h",
   "underlying_type" : "_ZTIj"
  },
  {
   "alignment" : 4,
   "enum_fields" :
   [
    {
     "enum_field_value" : 1,
     "name" : "android::trait_trivial_dtor<unsigned long long>::value"
    }
   ],
   "linker_set_key" : "_ZTIN7android18trait_trivial_dtorIyE6$valueE",
   "name" : "android::trait_trivial_dtor<unsigned long long>::(anonymous enum at system/core/libutils/include/utils/TypeHelpers.h:108:1)",
   "referenced_type" : "_ZTIN7android18trait_trivial_dtorIyE6$valueE",
   "self_type" : "_ZTIN7android18trait_trivial_dtorIyE6$valueE",
   "size" : 4,
   "source_file" : "/system/core/libutils/include/utils/TypeHelpers.h",
   "underlying_type" : "_ZTIj"
  },
  {
   "alignment" : 4,
   "enum_fields" :
   [
    {
     "enum_field_value" : 1,
     "name" : "android::trait_trivial_move<bool>::value"
    }
   ],
   "linker_set_key" : "_ZTIN7android18trait_trivial_moveIbE6$valueE",
   "name" : "android::trait_trivial_move<bool>::(anonymous enum at system/core/libutils/include/utils/TypeHelpers.h:98:1)",
   "referenced_type" : "_ZTIN7android18trait_trivial_moveIbE6$valueE",
   "self_type" : "_ZTIN7android18trait_trivial_moveIbE6$valueE",
   "size" : 4,
   "source_file" : "/system/core/libutils/include/utils/TypeHelpers.h",
   "underlying_type" : "_ZTIj"
  },
  {
   "alignment" : 4,
   "enum_fields" :
   [
    {
     "enum_field_value" : 1,
     "name" : "android::trait_trivial_move<char>::value"
    }
   ],
   "linker_set_key" : "_ZTIN7android18trait_trivial_moveIcE6$valueE",
   "name" : "android::trait_trivial_move<char>::(anonymous enum at system/core/libutils/include/utils/TypeHelpers.h:99:1)",
   "referenced_type" : "_ZTIN7android18trait_trivial_moveIcE6$valueE",
   "self_type" : "_ZTIN7android18trait_trivial_moveIcE6$valueE",
   "size" : 4,
   "source_file" : "/system/core/libutils/include/utils/TypeHelpers.h",
   "underlying_type" : "_ZTIj"
  },
  {
   "alignment" : 4,
   "enum_fields" :
   [
    {
     "enum_field_value" : 1,
     "name" : "android::trait_trivial_move<double>::value"
    }
   ],
   "linker_set_key" : "_ZTIN7android18trait_trivial_moveIdE6$valueE",
   "name" : "android::trait_trivial_move<double>::(anonymous enum at system/core/libutils/include/utils/TypeHelpers.h:110:1)",
   "referenced_type" : "_ZTIN7android18trait_trivial_moveIdE6$valueE",
   "self_type" : "_ZTIN7android18trait_trivial_moveIdE6$valueE",
   "size" : 4,
   "source_file" : "/system/core/libutils/include/utils/TypeHelpers.h",
   "underlying_type" : "_ZTIj"
  },
  {
   "alignment" : 4,
   "enum_fields" :
   [
    {
     "enum_field_value" : 1,
     "name" : "android::trait_trivial_move<float>::value"
    }
   ],
   "linker_set_key" : "_ZTIN7android18trait_trivial_moveIfE6$valueE",
   "name" : "android::trait_trivial_move<float>::(anonymous enum at system/core/libutils/include/utils/TypeHelpers.h:109:1)",
   "referenced_type" : "_ZTIN7android18trait_trivial_moveIfE6$valueE",
   "self_type" : "_ZTIN7android18trait_trivial_moveIfE6$valueE",
   "size" : 4,
   "source_file" : "/system/core/libutils/include/utils/TypeHelpers.h",
   "underlying_type" : "_ZTIj"
  },
  {
   "alignment" : 4,
   "enum_fields" :
   [
    {
     "enum_field_value" : 1,
     "name" : "android::trait_trivial_move<unsigned char>::value"
    }
   ],
   "linker_set_key" : "_ZTIN7android18trait_trivial_moveIhE6$valueE",
   "name" : "android::trait_trivial_move<unsigned char>::(anonymous enum at system/core/libutils/include/utils/TypeHelpers.h:100:1)",
   "referenced_type" : "_ZTIN7android18trait_trivial_moveIhE6$valueE",
   "self_type" : "_ZTIN7android18trait_trivial_moveIhE6$valueE",
   "size" : 4,
   "source_file" : "/system/core/libutils/include/utils/TypeHelpers.h",
   "underlying_type" : "_ZTIj"
  },
  {
   "alignment" : 4,
   "enum_fields" :
   [
    {
     "enum_field_value" : 1,
     "name" : "android::trait_trivial_move<int>::value"
    }
   ],
   "linker_set_key" : "_ZTIN7android18trait_trivial_moveIiE6$valueE",
   "name" : "android::trait_trivial_move<int>::(anonymous enum at system/core/libutils/include/utils/TypeHelpers.h:103:1)",
   "referenced_type" : "_ZTIN7android18trait_trivial_moveIiE6$valueE",
   "self_type" : "_ZTIN7android18trait_trivial_moveIiE6$valueE",
   "size" : 4,
   "source_file" : "/system/core/libutils/include/utils/TypeHelpers.h",
   "underlying_type" : "_ZTIj"
  },
  {
   "alignment" : 4,
   "enum_fields" :
   [
    {
     "enum_field_value" : 1,
     "name" : "android::trait_trivial_move<unsigned int>::value"
    }
   ],
   "linker_set_key" : "_ZTIN7android18trait_trivial_moveIjE6$valueE",
   "name" : "android::trait_trivial_move<unsigned int>::(anonymous enum at system/core/libutils/include/utils/TypeHelpers.h:104:1)",
   "referenced_type" : "_ZTIN7android18trait_trivial_moveIjE6$valueE",
   "self_type" : "_ZTIN7android18trait_trivial_moveIjE6$valueE",
   "size" : 4,
   "source_file" : "/system/core/libutils/include/utils/TypeHelpers.h",
   "underlying_type" : "_ZTIj"
  },
  {
   "alignment" : 4,
   "enum_fields" :
   [
    {
     "enum_field_value" : 1,
     "name" : "android::trait_trivial_move<long>::value"
    }
   ],
   "linker_set_key" : "_ZTIN7android18trait_trivial_moveIlE6$valueE",
   "name" : "android::trait_trivial_move<long>::(anonymous enum at system/core/libutils/include/utils/TypeHelpers.h:105:1)",
   "referenced_type" : "_ZTIN7android18trait_trivial_moveIlE6$valueE",
   "self_type" : "_ZTIN7android18trait_trivial_moveIlE6$valueE",
   "size" : 4,
   "source_file" : "/system/core/libutils/include/utils/TypeHelpers.h",
   "underlying_type" : "_ZTIj"
  },
  {
   "alignment" : 4,
   "enum_fields" :
   [
    {
     "enum_field_value" : 1,
     "name" : "android::trait_trivial_move<unsigned long>::value"
    }
   ],
   "linker_set_key" : "_ZTIN7android18trait_trivial_moveImE6$valueE",
   "name" : "android::trait_trivial_move<unsigned long>::(anonymous enum at system/core/libutils/include/utils/TypeHelpers.h:106:1)",
   "referenced_type" : "_ZTIN7android18trait_trivial_moveImE6$valueE",
   "self_type" : "_ZTIN7android18trait_trivial_moveImE6$valueE",
   "size" : 4,
   "source_file" : "/system/core/libutils/include/utils/TypeHelpers.h",
   "underlying_type" : "_ZTIj"
  },
  {
   "alignment" : 4,
   "enum_fields" :
   [
    {
     "enum_field_value" : 1,
     "name" : "android::trait_trivial_move<short>::value"
    }
   ],
   "linker_set_key" : "_ZTIN7android18trait_trivial_moveIsE6$valueE",
   "name" : "android::trait_trivial_move<short>::(anonymous enum at system/core/libutils/include/utils/TypeHelpers.h:101:1)",
   "referenced_type" : "_ZTIN7android18trait_trivial_moveIsE6$valueE",
   "self_type" : "_ZTIN7android18trait_trivial_moveIsE6$valueE",
   "size" : 4,
   "source_file" : "/system/core/libutils/include/utils/TypeHelpers.h",
   "underlying_type" : "_ZTIj"
  },
  {
   "alignment" : 4,
   "enum_fields" :
   [
    {
     "enum_field_value" : 1,
     "name" : "android::trait_trivial_move<unsigned short>::value"
    }
   ],
   "linker_set_key" : "_ZTIN7android18trait_trivial_moveItE6$valueE",
   "name" : "android::trait_trivial_move<unsigned short>::(anonymous enum at system/core/libutils/include/utils/TypeHelpers.h:102:1)",
   "referenced_type" : "_ZTIN7android18trait_trivial_moveItE6$valueE",
   "self_type" : "_ZTIN7android18trait_trivial_moveItE6$valueE",
   "size" : 4,
   "source_file" : "/system/core/libutils/include/utils/TypeHelpers.h",
   "underlying_type" : "_ZTIj"
  },
  {
   "alignment" : 4,
   "enum_fields" :
   [
    {
     "enum_field_value" : 1,
     "name" : "android::trait_trivial_move<void>::value"
    }
   ],
   "linker_set_key" : "_ZTIN7android18trait_trivial_moveIvE6$valueE",
   "name" : "android::trait_trivial_move<void>::(anonymous enum at system/core/libutils/include/utils/TypeHelpers.h:97:1)",
   "referenced_type" : "_ZTIN7android18trait_trivial_moveIvE6$valueE",
   "self_type" : "_ZTIN7android18trait_trivial_moveIvE6$valueE",
   "size" : 4,
   "source_file" : "/system/core/libutils/include/utils/TypeHelpers.h",
   "underlying_type" : "_ZTIj"
  },
  {
   "alignment" : 4,
   "enum_fields" :
   [
    {
     "enum_field_value" : 1,
     "name" : "android::trait_trivial_move<long long>::value"
    }
   ],
   "linker_set_key" : "_ZTIN7android18trait_trivial_moveIxE6$valueE",
   "name" : "android::trait_trivial_move<long long>::(anonymous enum at system/core/libutils/include/utils/TypeHelpers.h:107:1)",
   "referenced_type" : "_ZTIN7android18trait_trivial_moveIxE6$valueE",
   "self_type" : "_ZTIN7android18trait_trivial_moveIxE6$valueE",
   "size" : 4,
   "source_file" : "/system/core/libutils/include/utils/TypeHelpers.h",
   "underlying_type" : "_ZTIj"
  },
  {
   "alignment" : 4,
   "enum_fields" :
   [
    {
     "enum_field_value" : 1,
     "name" : "android::trait_trivial_move<unsigned long long>::value"
    }
   ],
   "linker_set_key" : "_ZTIN7android18trait_trivial_moveIyE6$valueE",
   "name" : "android::trait_trivial_move<unsigned long long>::(anonymous enum at system/core/libutils/include/utils/TypeHelpers.h:108:1)",
   "referenced_type" : "_ZTIN7android18trait_trivial_moveIyE6$valueE",
   "self_type" : "_ZTIN7android18trait_trivial_moveIyE6$valueE",
   "size" : 4,
   "source_file" : "/system/core/libutils/include/utils/TypeHelpers.h",
   "underlying_type" : "_ZTIj"
  },
  {
   "alignment" : 4,
   "enum_fields" :
   [
    {
     "enum_field_value" : 0,
     "name" : "android::hidl::base::V1_0::DebugInfo::Architecture::UNKNOWN"
    },
    {
     "enum_field_value" : 1,
     "name" : "android::hidl::base::V1_0::DebugInfo::Architecture::IS_64BIT"
    },
    {
     "enum_field_value" : 2,
     "name" : "android::hidl::base::V1_0::DebugInfo::Architecture::IS_32BIT"
    }
   ],
   "linker_set_key" : "_ZTIN7android4hidl4base4V1_09DebugInfo12ArchitectureE",
   "name" : "android::hidl::base::V1_0::DebugInfo::Architecture",
   "referenced_type" : "_ZTIN7android4hidl4base4V1_09DebugInfo12ArchitectureE",
   "self_type" : "_ZTIN7android4hidl4base4V1_09DebugInfo12ArchitectureE",
   "size" : 4,
   "source_file" : "/out/soong/.intermediates/system/libhidl/transport/base/1.0/android.hidl.base@1.0_genc++_headers/gen/android/hidl/base/1.0/types.h",
   "underlying_type" : "_ZTIi"
  },
  {
   "access" : "protected",
   "alignment" : 4,
   "enum_fields" :
   [
    {
     "enum_field_value" : 1,
     "name" : "android::RefBase::FIRST_INC_STRONG"
    }
   ],
   "linker_set_key" : "_ZTIN7android7RefBase17$FIRST_INC_STRONGE",
   "name" : "android::RefBase::(anonymous enum at system/core/libutils/include/utils/RefBase.h:313:5)",
   "referenced_type" : "_ZTIN7android7RefBase17$FIRST_INC_STRONGE",
   "self_type" : "_ZTIN7android7RefBase17$FIRST_INC_STRONGE",
   "size" : 4,
   "source_file" : "/system/core/libutils/include/utils/RefBase.h",
   "underlying_type" : "_ZTIj"
  },
  {
   "access" : "protected",
   "alignment" : 4,
   "enum_fields" :
   [
    {
     "enum_field_value" : 0,
     "name" : "android::RefBase::OBJECT_LIFETIME_STRONG"
    },
    {
     "enum_field_value" : 1,
     "name" : "android::RefBase::OBJECT_LIFETIME_WEAK"
    },
    {
     "enum_field_value" : 1,
     "name" : "android::RefBase::OBJECT_LIFETIME_MASK"
    }
   ],
   "linker_set_key" : "_ZTIN7android7RefBase21$OBJECT_LIFETIME_MASKE",
   "name" : "android::RefBase::(anonymous enum at system/core/libutils/include/utils/RefBase.h:304:5)",
   "referenced_type" : "_ZTIN7android7RefBase21$OBJECT_LIFETIME_MASKE",
   "self_type" : "_ZTIN7android7RefBase21$OBJECT_LIFETIME_MASKE",
   "size" : 4,
   "source_file" : "/system/core/libutils/include/utils/RefBase.h",
   "underlying_type" : "_ZTIj"
  },
  {
   "alignment" : 4,
   "enum_fields" :
   [
    {
     "enum_field_value" : 0,
     "name" : "android::hardware::HidlReturnRestriction::NONE"
    },
    {
     "enum_field_value" : 1,
     "name" : "android::hardware::HidlReturnRestriction::ERROR_IF_UNCHECKED"
    },
    {
     "enum_field_value" : 2,
     "name" : "android::hardware::HidlReturnRestriction::FATAL_IF_UNCHECKED"
    }
   ],
   "linker_set_key" : "_ZTIN7android8hardware21HidlReturnRestrictionE",
   "name" : "android::hardware::HidlReturnRestriction",
   "referenced_type" : "_ZTIN7android8hardware21HidlReturnRestrictionE",
   "self_type" : "_ZTIN7android8hardware21HidlReturnRestrictionE",
   "size" : 4,
   "source_file" : "/system/libhidl/base/include/hidl/Status.h",
   "underlying_type" : "_ZTIi"
  },
  {
   "alignment" : 4,
   "enum_fields" :
   [
    {
     "enum_field_value" : 0,
     "name" : "android::hardware::Status::EX_NONE"
    },
    {
     "enum_field_value" : -1,
     "name" : "android::hardware::Status::EX_SECURITY"
    },
    {
     "enum_field_value" : -2,
     "name" : "android::hardware::Status::EX_BAD_PARCELABLE"
    },
    {
     "enum_field_value" : -3,
     "name" : "android::hardware::Status::EX_ILLEGAL_ARGUMENT"
    },
    {
     "enum_field_value" : -4,
     "name" : "android::hardware::Status::EX_NULL_POINTER"
    },
    {
     "enum_field_value" : -5,
     "name" : "android::hardware::Status::EX_ILLEGAL_STATE"
    },
    {
     "enum_field_value" : -6,
     "name" : "android::hardware::Status::EX_NETWORK_MAIN_THREAD"
    },
    {
     "enum_field_value" : -7,
     "name" : "android::hardware::Status::EX_UNSUPPORTED_OPERATION"
    },
    {
     "enum_field_value" : -128,
     "name" : "android::hardware::Status::EX_HAS_REPLY_HEADER"
    },
    {
     "enum_field_value" : -129,
     "name" : "android::hardware::Status::EX_TRANSACTION_FAILED"
    }
   ],
   "linker_set_key" : "_ZTIN7android8hardware6Status9ExceptionE",
   "name" : "android::hardware::Status::Exception",
   "referenced_type" : "_ZTIN7android8hardware6Status9ExceptionE",
   "self_type" : "_ZTIN7android8hardware6Status9ExceptionE",
   "size" : 4,
   "source_file" : "/system/libhidl/base/include/hidl/Status.h",
   "underlying_type" : "_ZTIi"
  },
  {
   "alignment" : 4,
   "enum_fields" :
   [
    {
     "enum_field_value" : 0,
     "name" : "android::hardware::details::HidlInstrumentor::SERVER_API_ENTRY"
    },
    {
     "enum_field_value" : 1,
     "name" : "android::hardware::details::HidlInstrumentor::SERVER_API_EXIT"
    },
    {
     "enum_field_value" : 2,
     "name" : "android::hardware::details::HidlInstrumentor::CLIENT_API_ENTRY"
    },
    {
     "enum_field_value" : 3,
     "name" : "android::hardware::details::HidlInstrumentor::CLIENT_API_EXIT"
    },
    {
     "enum_field_value" : 4,
     "name" : "android::hardware::details::HidlInstrumentor::SYNC_CALLBACK_ENTRY"
    },
    {
     "enum_field_value" : 5,
     "name" : "android::hardware::details::HidlInstrumentor::SYNC_CALLBACK_EXIT"
    },
    {
     "enum_field_value" : 6,
     "name" : "android::hardware::details::HidlInstrumentor::ASYNC_CALLBACK_ENTRY"
    },
    {
     "enum_field_value" : 7,
     "name" : "android::hardware::details::HidlInstrumentor::ASYNC_CALLBACK_EXIT"
    },
    {
     "enum_field_value" : 8,
     "name" : "android::hardware::details::HidlInstrumentor::PASSTHROUGH_ENTRY"
    },
    {
     "enum_field_value" : 9,
     "name" : "android::hardware::details::HidlInstrumentor::PASSTHROUGH_EXIT"
    }
   ],
   "linker_set_key" : "_ZTIN7android8hardware7details16HidlInstrumentor20InstrumentationEventE",
   "name" : "android::hardware::details::HidlInstrumentor::InstrumentationEvent",
   "referenced_type" : "_ZTIN7android8hardware7details16HidlInstrumentor20InstrumentationEventE",
   "self_type" : "_ZTIN7android8hardware7details16HidlInstrumentor20InstrumentationEventE",
   "size" : 4,
   "source_file" : "/system/libhidl/base/include/hidl/HidlInternal.h",
   "underlying_type" : "_ZTIj"
  },
  {
   "alignment" : 4,
   "enum_fields" :
   [
    {
     "enum_field_value" : 1,
     "name" : "android::hardware::kSynchronizedReadWrite"
    },
    {
     "enum_field_value" : 2,
     "name" : "android::hardware::kUnsynchronizedWrite"
    }
   ],
   "linker_set_key" : "_ZTIN7android8hardware8MQFlavorE",
   "name" : "android::hardware::MQFlavor",
   "referenced_type" : "_ZTIN7android8hardware8MQFlavorE",
   "self_type" : "_ZTIN7android8hardware8MQFlavorE",
   "size" : 4,
   "source_file" : "/system/libhidl/base/include/hidl/MQDescriptor.h",
   "underlying_type" : "_ZTIj"
  },
  {
   "alignment" : 4,
   "enum_fields" :
   [
    {
     "enum_field_value" : 15,
     "name" : "android::hardware::graphics::common::V1_0::BufferUsage::CPU_READ_MASK"
    },
    {
     "enum_field_value" : 0,
     "name" : "android::hardware::graphics::common::V1_0::BufferUsage::CPU_READ_NEVER"
    },
    {
     "enum_field_value" : 2,
     "name" : "android::hardware::graphics::common::V1_0::BufferUsage::CPU_READ_RARELY"
    },
    {
     "enum_field_value" : 3,
     "name" : "android::hardware::graphics::common::V1_0::BufferUsage::CPU_READ_OFTEN"
    },
    {
     "enum_field_value" : 240,
     "name" : "android::hardware::graphics::common::V1_0::BufferUsage::CPU_WRITE_MASK"
    },
    {
     "enum_field_value" : 0,
     "name" : "android::hardware::graphics::common::V1_0::BufferUsage::CPU_WRITE_NEVER"
    },
    {
     "enum_field_value" : 32,
     "name" : "android::hardware::graphics::common::V1_0::BufferUsage::CPU_WRITE_RARELY"
    },
    {
     "enum_field_value" : 48,
     "name" : "android::hardware::graphics::common::V1_0::BufferUsage::CPU_WRITE_OFTEN"
    },
    {
     "enum_field_value" : 256,
     "name" : "android::hardware::graphics::common::V1_0::BufferUsage::GPU_TEXTURE"
    },
    {
     "enum_field_value" : 512,
     "name" : "android::hardware::graphics::common::V1_0::BufferUsage::GPU_RENDER_TARGET"
    },
    {
     "enum_field_value" : 2048,
     "name" : "android::hardware::graphics::common::V1_0::BufferUsage::COMPOSER_OVERLAY"
    },
    {
     "enum_field_value" : 4096,
     "name" : "android::hardware::graphics::common::V1_0::BufferUsage::COMPOSER_CLIENT_TARGET"
    },
    {
     "enum_field_value" : 16384,
     "name" : "android::hardware::graphics::common::V1_0::BufferUsage::PROTECTED"
    },
    {
     "enum_field_value" : 32768,
     "name" : "android::hardware::graphics::common::V1_0::BufferUsage::COMPOSER_CURSOR"
    },
    {
     "enum_field_value" : 65536,
     "name" : "android::hardware::graphics::common::V1_0::BufferUsage::VIDEO_ENCODER"
    },
    {
     "enum_field_value" : 131072,
     "name" : "android::hardware::graphics::common::V1_0::BufferUsage::CAMERA_OUTPUT"
    },
    {
     "enum_field_value" : 262144,
     "name" : "android::hardware::graphics::common::V1_0::BufferUsage::CAMERA_INPUT"
    },
    {
     "enum_field_value" : 1048576,
     "name" : "android::hardware::graphics::common::V1_0::BufferUsage::RENDERSCRIPT"
    },
    {
     "enum_field_value" : 4194304,
     "name" : "android::hardware::graphics::common::V1_0::BufferUsage::VIDEO_DECODER"
    },
    {
     "enum_field_value" : 8388608,
     "name" : "android::hardware::graphics::common::V1_0::BufferUsage::SENSOR_DIRECT_DATA"
    },
    {
     "enum_field_value" : 16777216,
     "name" : "android::hardware::graphics::common::V1_0::BufferUsage::GPU_DATA_BUFFER"
    },
    {
     "enum_field_value" : -268435456,
     "name" : "android::hardware::graphics::common::V1_0::BufferUsage::VENDOR_MASK"
    },
    {
     "enum_field_value" : 0,
     "name" : "android::hardware::graphics::common::V1_0::BufferUsage::VENDOR_MASK_HI"
    }
   ],
   "linker_set_key" : "_ZTIN7android8hardware8graphics6common4V1_011BufferUsageE",
   "name" : "android::hardware::graphics::common::V1_0::BufferUsage",
   "referenced_type" : "_ZTIN7android8hardware8graphics6common4V1_011BufferUsageE",
   "self_type" : "_ZTIN7android8hardware8graphics6common4V1_011BufferUsageE",
   "size" : 8,
   "source_file" : "/out/soong/.intermediates/hardware/interfaces/graphics/common/1.0/android.hardware.graphics.common@1.0_genc++_headers/gen/android/hardware/graphics/common/1.0/types.h",
   "underlying_type" : "_ZTIy"
  },
  {
   "alignment" : 4,
   "enum_fields" :
   [
    {
     "enum_field_value" : 1,
     "name" : "android::hardware::graphics::common::V1_0::PixelFormat::RGBA_8888"
    },
    {
     "enum_field_value" : 2,
     "name" : "android::hardware::graphics::common::V1_0::PixelFormat::RGBX_8888"
    },
    {
     "enum_field_value" : 3,
     "name" : "android::hardware::graphics::common::V1_0::PixelFormat::RGB_888"
    },
    {
     "enum_field_value" : 4,
     "name" : "android::hardware::graphics::common::V1_0::PixelFormat::RGB_565"
    },
    {
     "enum_field_value" : 5,
     "name" : "android::hardware::graphics::common::V1_0::PixelFormat::BGRA_8888"
    },
    {
     "enum_field_value" : 16,
     "name" : "android::hardware::graphics::common::V1_0::PixelFormat::YCBCR_422_SP"
    },
    {
     "enum_field_value" : 17,
     "name" : "android::hardware::graphics::common::V1_0::PixelFormat::YCRCB_420_SP"
    },
    {
     "enum_field_value" : 20,
     "name" : "android::hardware::graphics::common::V1_0::PixelFormat::YCBCR_422_I"
    },
    {
     "enum_field_value" : 22,
     "name" : "android::hardware::graphics::common::V1_0::PixelFormat::RGBA_FP16"
    },
    {
     "enum_field_value" : 32,
     "name" : "android::hardware::graphics::common::V1_0::PixelFormat::RAW16"
    },
    {
     "enum_field_value" : 33,
     "name" : "android::hardware::graphics::common::V1_0::PixelFormat::BLOB"
    },
    {
     "enum_field_value" : 34,
     "name" : "android::hardware::graphics::common::V1_0::PixelFormat::IMPLEMENTATION_DEFINED"
    },
    {
     "enum_field_value" : 35,
     "name" : "android::hardware::graphics::common::V1_0::PixelFormat::YCBCR_420_888"
    },
    {
     "enum_field_value" : 36,
     "name" : "android::hardware::graphics::common::V1_0::PixelFormat::RAW_OPAQUE"
    },
    {
     "enum_field_value" : 37,
     "name" : "android::hardware::graphics::common::V1_0::PixelFormat::RAW10"
    },
    {
     "enum_field_value" : 38,
     "name" : "android::hardware::graphics::common::V1_0::PixelFormat::RAW12"
    },
    {
     "enum_field_value" : 43,
     "name" : "android::hardware::graphics::common::V1_0::PixelFormat::RGBA_1010102"
    },
    {
     "enum_field_value" : 538982489,
     "name" : "android::hardware::graphics::common::V1_0::PixelFormat::Y8"
    },
    {
     "enum_field_value" : 540422489,
     "name" : "android::hardware::graphics::common::V1_0::PixelFormat::Y16"
    },
    {
     "enum_field_value" : 842094169,
     "name" : "android::hardware::graphics::common::V1_0::PixelFormat::YV12"
    }
   ],
   "linker_set_key" : "_ZTIN7android8hardware8graphics6common4V1_011PixelFormatE",
   "name" : "android::hardware::graphics::common::V1_0::PixelFormat",
   "referenced_type" : "_ZTIN7android8hardware8graphics6common4V1_011PixelFormatE",
   "self_type" : "_ZTIN7android8hardware8graphics6common4V1_011PixelFormatE",
   "size" : 4,
   "source_file" : "/out/soong/.intermediates/hardware/interfaces/graphics/common/1.0/android.hardware.graphics.common@1.0_genc++_headers/gen/android/hardware/graphics/common/1.0/types.h",
   "underlying_type" : "_ZTIi"
  },
  {
   "alignment" : 4,
   "enum_fields" :
   [
    {
     "enum_field_value" : 0,
     "name" : "android::hardware::graphics::common::V1_0::ColorTransform::IDENTITY"
    },
    {
     "enum_field_value" : 1,
     "name" : "android::hardware::graphics::common::V1_0::ColorTransform::ARBITRARY_MATRIX"
    },
    {
     "enum_field_value" : 2,
     "name" : "android::hardware::graphics::common::V1_0::ColorTransform::VALUE_INVERSE"
    },
    {
     "enum_field_value" : 3,
     "name" : "android::hardware::graphics::common::V1_0::ColorTransform::GRAYSCALE"
    },
    {
     "enum_field_value" : 4,
     "name" : "android::hardware::graphics::common::V1_0::ColorTransform::CORRECT_PROTANOPIA"
    },
    {
     "enum_field_value" : 5,
     "name" : "android::hardware::graphics::common::V1_0::ColorTransform::CORRECT_DEUTERANOPIA"
    },
    {
     "enum_field_value" : 6,
     "name" : "android::hardware::graphics::common::V1_0::ColorTransform::CORRECT_TRITANOPIA"
    }
   ],
   "linker_set_key" : "_ZTIN7android8hardware8graphics6common4V1_014ColorTransformE",
   "name" : "android::hardware::graphics::common::V1_0::ColorTransform",
   "referenced_type" : "_ZTIN7android8hardware8graphics6common4V1_014ColorTransformE",
   "self_type" : "_ZTIN7android8hardware8graphics6common4V1_014ColorTransformE",
   "size" : 4,
   "source_file" : "/out/soong/.intermediates/hardware/interfaces/graphics/common/1.0/android.hardware.graphics.common@1.0_genc++_headers/gen/android/hardware/graphics/common/1.0/types.h",
   "underlying_type" : "_ZTIi"
  },
  {
   "alignment" : 4,
   "enum_fields" :
   [
    {
     "enum_field_value" : 1,
     "name" : "android::hardware::graphics::common::V1_0::Hdr::DOLBY_VISION"
    },
    {
     "enum_field_value" : 2,
     "name" : "android::hardware::graphics::common::V1_0::Hdr::HDR10"
    },
    {
     "enum_field_value" : 3,
     "name" : "android::hardware::graphics::common::V1_0::Hdr::HLG"
    }
   ],
   "linker_set_key" : "_ZTIN7android8hardware8graphics6common4V1_03HdrE",
   "name" : "android::hardware::graphics::common::V1_0::Hdr",
   "referenced_type" : "_ZTIN7android8hardware8graphics6common4V1_03HdrE",
   "self_type" : "_ZTIN7android8hardware8graphics6common4V1_03HdrE",
   "size" : 4,
   "source_file" : "/out/soong/.intermediates/hardware/interfaces/graphics/common/1.0/android.hardware.graphics.common@1.0_genc++_headers/gen/android/hardware/graphics/common/1.0/types.h",
   "underlying_type" : "_ZTIi"
  },
  {
   "alignment" : 4,
   "enum_fields" :
   [
    {
     "enum_field_value" : 0,
     "name" : "android::hardware::graphics::common::V1_0::ColorMode::NATIVE"
    },
    {
     "enum_field_value" : 1,
     "name" : "android::hardware::graphics::common::V1_0::ColorMode::STANDARD_BT601_625"
    },
    {
     "enum_field_value" : 2,
     "name" : "android::hardware::graphics::common::V1_0::ColorMode::STANDARD_BT601_625_UNADJUSTED"
    },
    {
     "enum_field_value" : 3,
     "name" : "android::hardware::graphics::common::V1_0::ColorMode::STANDARD_BT601_525"
    },
    {
     "enum_field_value" : 4,
     "name" : "android::hardware::graphics::common::V1_0::ColorMode::STANDARD_BT601_525_UNADJUSTED"
    },
    {
     "enum_field_value" : 5,
     "name" : "android::hardware::graphics::common::V1_0::ColorMode::STANDARD_BT709"
    },
    {
     "enum_field_value" : 6,
     "name" : "android::hardware::graphics::common::V1_0::ColorMode::DCI_P3"
    },
    {
     "enum_field_value" : 7,
     "name" : "android::hardware::graphics::common::V1_0::ColorMode::SRGB"
    },
    {
     "enum_field_value" : 8,
     "name" : "android::hardware::graphics::common::V1_0::ColorMode::ADOBE_RGB"
    },
    {
     "enum_field_value" : 9,
     "name" : "android::hardware::graphics::common::V1_0::ColorMode::DISPLAY_P3"
    }
   ],
   "linker_set_key" : "_ZTIN7android8hardware8graphics6common4V1_09ColorModeE",
   "name" : "android::hardware::graphics::common::V1_0::ColorMode",
   "referenced_type" : "_ZTIN7android8hardware8graphics6common4V1_09ColorModeE",
   "self_type" : "_ZTIN7android8hardware8graphics6common4V1_09ColorModeE",
   "size" : 4,
   "source_file" : "/out/soong/.intermediates/hardware/interfaces/graphics/common/1.0/android.hardware.graphics.common@1.0_genc++_headers/gen/android/hardware/graphics/common/1.0/types.h",
   "underlying_type" : "_ZTIi"
  },
  {
   "alignment" : 4,
   "enum_fields" :
   [
    {
     "enum_field_value" : 0,
     "name" : "android::hardware::graphics::common::V1_0::Dataspace::UNKNOWN"
    },
    {
     "enum_field_value" : 1,
     "name" : "android::hardware::graphics::common::V1_0::Dataspace::ARBITRARY"
    },
    {
     "enum_field_value" : 16,
     "name" : "android::hardware::graphics::common::V1_0::Dataspace::STANDARD_SHIFT"
    },
    {
     "enum_field_value" : 4128768,
     "name" : "android::hardware::graphics::common::V1_0::Dataspace::STANDARD_MASK"
    },
    {
     "enum_field_value" : 0,
     "name" : "android::hardware::graphics::common::V1_0::Dataspace::STANDARD_UNSPECIFIED"
    },
    {
     "enum_field_value" : 65536,
     "name" : "android::hardware::graphics::common::V1_0::Dataspace::STANDARD_BT709"
    },
    {
     "enum_field_value" : 131072,
     "name" : "android::hardware::graphics::common::V1_0::Dataspace::STANDARD_BT601_625"
    },
    {
     "enum_field_value" : 196608,
     "name" : "android::hardware::graphics::common::V1_0::Dataspace::STANDARD_BT601_625_UNADJUSTED"
    },
    {
     "enum_field_value" : 262144,
     "name" : "android::hardware::graphics::common::V1_0::Dataspace::STANDARD_BT601_525"
    },
    {
     "enum_field_value" : 327680,
     "name" : "android::hardware::graphics::common::V1_0::Dataspace::STANDARD_BT601_525_UNADJUSTED"
    },
    {
     "enum_field_value" : 393216,
     "name" : "android::hardware::graphics::common::V1_0::Dataspace::STANDARD_BT2020"
    },
    {
     "enum_field_value" : 458752,
     "name" : "android::hardware::graphics::common::V1_0::Dataspace::STANDARD_BT2020_CONSTANT_LUMINANCE"
    },
    {
     "enum_field_value" : 524288,
     "name" : "android::hardware::graphics::common::V1_0::Dataspace::STANDARD_BT470M"
    },
    {
     "enum_field_value" : 589824,
     "name" : "android::hardware::graphics::common::V1_0::Dataspace::STANDARD_FILM"
    },
    {
     "enum_field_value" : 655360,
     "name" : "android::hardware::graphics::common::V1_0::Dataspace::STANDARD_DCI_P3"
    },
    {
     "enum_field_value" : 720896,
     "name" : "android::hardware::graphics::common::V1_0::Dataspace::STANDARD_ADOBE_RGB"
    },
    {
     "enum_field_value" : 22,
     "name" : "android::hardware::graphics::common::V1_0::Dataspace::TRANSFER_SHIFT"
    },
    {
     "enum_field_value" : 130023424,
     "name" : "android::hardware::graphics::common::V1_0::Dataspace::TRANSFER_MASK"
    },
    {
     "enum_field_value" : 0,
     "name" : "android::hardware::graphics::common::V1_0::Dataspace::TRANSFER_UNSPECIFIED"
    },
    {
     "enum_field_value" : 4194304,
     "name" : "android::hardware::graphics::common::V1_0::Dataspace::TRANSFER_LINEAR"
    },
    {
     "enum_field_value" : 8388608,
     "name" : "android::hardware::graphics::common::V1_0::Dataspace::TRANSFER_SRGB"
    },
    {
     "enum_field_value" : 12582912,
     "name" : "android::hardware::graphics::common::V1_0::Dataspace::TRANSFER_SMPTE_170M"
    },
    {
     "enum_field_value" : 16777216,
     "name" : "android::hardware::graphics::common::V1_0::Dataspace::TRANSFER_GAMMA2_2"
    },
    {
     "enum_field_value" : 20971520,
     "name" : "android::hardware::graphics::common::V1_0::Dataspace::TRANSFER_GAMMA2_6"
    },
    {
     "enum_field_value" : 25165824,
     "name" : "android::hardware::graphics::common::V1_0::Dataspace::TRANSFER_GAMMA2_8"
    },
    {
     "enum_field_value" : 29360128,
     "name" : "android::hardware::graphics::common::V1_0::Dataspace::TRANSFER_ST2084"
    },
    {
     "enum_field_value" : 33554432,
     "name" : "android::hardware::graphics::common::V1_0::Dataspace::TRANSFER_HLG"
    },
    {
     "enum_field_value" : 27,
     "name" : "android::hardware::graphics::common::V1_0::Dataspace::RANGE_SHIFT"
    },
    {
     "enum_field_value" : 939524096,
     "name" : "android::hardware::graphics::common::V1_0::Dataspace::RANGE_MASK"
    },
    {
     "enum_field_value" : 0,
     "name" : "android::hardware::graphics::common::V1_0::Dataspace::RANGE_UNSPECIFIED"
    },
    {
     "enum_field_value" : 134217728,
     "name" : "android::hardware::graphics::common::V1_0::Dataspace::RANGE_FULL"
    },
    {
     "enum_field_value" : 268435456,
     "name" : "android::hardware::graphics::common::V1_0::Dataspace::RANGE_LIMITED"
    },
    {
     "enum_field_value" : 402653184,
     "name" : "android::hardware::graphics::common::V1_0::Dataspace::RANGE_EXTENDED"
    },
    {
     "enum_field_value" : 512,
     "name" : "android::hardware::graphics::common::V1_0::Dataspace::SRGB_LINEAR"
    },
    {
     "enum_field_value" : 138477568,
     "name" : "android::hardware::graphics::common::V1_0::Dataspace::V0_SRGB_LINEAR"
    },
    {
     "enum_field_value" : 406913024,
     "name" : "android::hardware::graphics::common::V1_0::Dataspace::V0_SCRGB_LINEAR"
    },
    {
     "enum_field_value" : 513,
     "name" : "android::hardware::graphics::common::V1_0::Dataspace::SRGB"
    },
    {
     "enum_field_value" : 142671872,
     "name" : "android::hardware::graphics::common::V1_0::Dataspace::V0_SRGB"
    },
    {
     "enum_field_value" : 411107328,
     "name" : "android::hardware::graphics::common::V1_0::Dataspace::V0_SCRGB"
    },
    {
     "enum_field_value" : 257,
     "name" : "android::hardware::graphics::common::V1_0::Dataspace::JFIF"
    },
    {
     "enum_field_value" : 146931712,
     "name" : "android::hardware::graphics::common::V1_0::Dataspace::V0_JFIF"
    },
    {
     "enum_field_value" : 258,
     "name" : "android::hardware::graphics::common::V1_0::Dataspace::BT601_625"
    },
    {
     "enum_field_value" : 281149440,
     "name" : "android::hardware::graphics::common::V1_0::Dataspace::V0_BT601_625"
    },
    {
     "enum_field_value" : 259,
     "name" : "android::hardware::graphics::common::V1_0::Dataspace::BT601_525"
    },
    {
     "enum_field_value" : 281280512,
     "name" : "android::hardware::graphics::common::V1_0::Dataspace::V0_BT601_525"
    },
    {
     "enum_field_value" : 260,
     "name" : "android::hardware::graphics::common::V1_0::Dataspace::BT709"
    },
    {
     "enum_field_value" : 281083904,
     "name" : "android::hardware::graphics::common::V1_0::Dataspace::V0_BT709"
    },
    {
     "enum_field_value" : 139067392,
     "name" : "android::hardware::graphics::common::V1_0::Dataspace::DCI_P3_LINEAR"
    },
    {
     "enum_field_value" : 155844608,
     "name" : "android::hardware::graphics::common::V1_0::Dataspace::DCI_P3"
    },
    {
     "enum_field_value" : 139067392,
     "name" : "android::hardware::graphics::common::V1_0::Dataspace::DISPLAY_P3_LINEAR"
    },
    {
     "enum_field_value" : 143261696,
     "name" : "android::hardware::graphics::common::V1_0::Dataspace::DISPLAY_P3"
    },
    {
     "enum_field_value" : 151715840,
     "name" : "android::hardware::graphics::common::V1_0::Dataspace::ADOBE_RGB"
    },
    {
     "enum_field_value" : 138805248,
     "name" : "android::hardware::graphics::common::V1_0::Dataspace::BT2020_LINEAR"
    },
    {
     "enum_field_value" : 147193856,
     "name" : "android::hardware::graphics::common::V1_0::Dataspace::BT2020"
    },
    {
     "enum_field_value" : 163971072,
     "name" : "android::hardware::graphics::common::V1_0::Dataspace::BT2020_PQ"
    },
    {
     "enum_field_value" : 4096,
     "name" : "android::hardware::graphics::common::V1_0::Dataspace::DEPTH"
    },
    {
     "enum_field_value" : 4097,
     "name" : "android::hardware::graphics::common::V1_0::Dataspace::SENSOR"
    }
   ],
   "linker_set_key" : "_ZTIN7android8hardware8graphics6common4V1_09DataspaceE",
   "name" : "android::hardware::graphics::common::V1_0::Dataspace",
   "referenced_type" : "_ZTIN7android8hardware8graphics6common4V1_09DataspaceE",
   "self_type" : "_ZTIN7android8hardware8graphics6common4V1_09DataspaceE",
   "size" : 4,
   "source_file" : "/out/soong/.intermediates/hardware/interfaces/graphics/common/1.0/android.hardware.graphics.common@1.0_genc++_headers/gen/android/hardware/graphics/common/1.0/types.h",
   "underlying_type" : "_ZTIi"
  },
  {
   "alignment" : 4,
   "enum_fields" :
   [
    {
     "enum_field_value" : 1,
     "name" : "android::hardware::graphics::common::V1_0::Transform::FLIP_H"
    },
    {
     "enum_field_value" : 2,
     "name" : "android::hardware::graphics::common::V1_0::Transform::FLIP_V"
    },
    {
     "enum_field_value" : 4,
     "name" : "android::hardware::graphics::common::V1_0::Transform::ROT_90"
    },
    {
     "enum_field_value" : 3,
     "name" : "android::hardware::graphics::common::V1_0::Transform::ROT_180"
    },
    {
     "enum_field_value" : 7,
     "name" : "android::hardware::graphics::common::V1_0::Transform::ROT_270"
    }
   ],
   "linker_set_key" : "_ZTIN7android8hardware8graphics6common4V1_09TransformE",
   "name" : "android::hardware::graphics::common::V1_0::Transform",
   "referenced_type" : "_ZTIN7android8hardware8graphics6common4V1_09TransformE",
   "self_type" : "_ZTIN7android8hardware8graphics6common4V1_09TransformE",
   "size" : 4,
   "source_file" : "/out/soong/.intermediates/hardware/interfaces/graphics/common/1.0/android.hardware.graphics.common@1.0_genc++_headers/gen/android/hardware/graphics/common/1.0/types.h",
   "underlying_type" : "_ZTIi"
  },
  {
   "alignment" : 4,
   "enum_fields" :
   [
    {
     "enum_field_value" : 15,
     "name" : "android::hardware::graphics::common::V1_1::BufferUsage::CPU_READ_MASK"
    },
    {
     "enum_field_value" : 0,
     "name" : "android::hardware::graphics::common::V1_1::BufferUsage::CPU_READ_NEVER"
    },
    {
     "enum_field_value" : 2,
     "name" : "android::hardware::graphics::common::V1_1::BufferUsage::CPU_READ_RARELY"
    },
    {
     "enum_field_value" : 3,
     "name" : "android::hardware::graphics::common::V1_1::BufferUsage::CPU_READ_OFTEN"
    },
    {
     "enum_field_value" : 240,
     "name" : "android::hardware::graphics::common::V1_1::BufferUsage::CPU_WRITE_MASK"
    },
    {
     "enum_field_value" : 0,
     "name" : "android::hardware::graphics::common::V1_1::BufferUsage::CPU_WRITE_NEVER"
    },
    {
     "enum_field_value" : 32,
     "name" : "android::hardware::graphics::common::V1_1::BufferUsage::CPU_WRITE_RARELY"
    },
    {
     "enum_field_value" : 48,
     "name" : "android::hardware::graphics::common::V1_1::BufferUsage::CPU_WRITE_OFTEN"
    },
    {
     "enum_field_value" : 256,
     "name" : "android::hardware::graphics::common::V1_1::BufferUsage::GPU_TEXTURE"
    },
    {
     "enum_field_value" : 512,
     "name" : "android::hardware::graphics::common::V1_1::BufferUsage::GPU_RENDER_TARGET"
    },
    {
     "enum_field_value" : 2048,
     "name" : "android::hardware::graphics::common::V1_1::BufferUsage::COMPOSER_OVERLAY"
    },
    {
     "enum_field_value" : 4096,
     "name" : "android::hardware::graphics::common::V1_1::BufferUsage::COMPOSER_CLIENT_TARGET"
    },
    {
     "enum_field_value" : 16384,
     "name" : "android::hardware::graphics::common::V1_1::BufferUsage::PROTECTED"
    },
    {
     "enum_field_value" : 32768,
     "name" : "android::hardware::graphics::common::V1_1::BufferUsage::COMPOSER_CURSOR"
    },
    {
     "enum_field_value" : 65536,
     "name" : "android::hardware::graphics::common::V1_1::BufferUsage::VIDEO_ENCODER"
    },
    {
     "enum_field_value" : 131072,
     "name" : "android::hardware::graphics::common::V1_1::BufferUsage::CAMERA_OUTPUT"
    },
    {
     "enum_field_value" : 262144,
     "name" : "android::hardware::graphics::common::V1_1::BufferUsage::CAMERA_INPUT"
    },
    {
     "enum_field_value" : 1048576,
     "name" : "android::hardware::graphics::common::V1_1::BufferUsage::RENDERSCRIPT"
    },
    {
     "enum_field_value" : 4194304,
     "name" : "android::hardware::graphics::common::V1_1::BufferUsage::VIDEO_DECODER"
    },
    {
     "enum_field_value" : 8388608,
     "name" : "android::hardware::graphics::common::V1_1::BufferUsage::SENSOR_DIRECT_DATA"
    },
    {
     "enum_field_value" : 16777216,
     "name" : "android::hardware::graphics::common::V1_1::BufferUsage::GPU_DATA_BUFFER"
    },
    {
     "enum_field_value" : -268435456,
     "name" : "android::hardware::graphics::common::V1_1::BufferUsage::VENDOR_MASK"
    },
    {
     "enum_field_value" : 0,
     "name" : "android::hardware::graphics::common::V1_1::BufferUsage::VENDOR_MASK_HI"
    },
    {
     "enum_field_value" : 33554432,
     "name" : "android::hardware::graphics::common::V1_1::BufferUsage::GPU_CUBE_MAP"
    },
    {
     "enum_field_value" : 67108864,
     "name" : "android::hardware::graphics::common::V1_1::BufferUsage::GPU_MIPMAP_COMPLETE"
    }
   ],
   "linker_set_key" : "_ZTIN7android8hardware8graphics6common4V1_111BufferUsageE",
   "name" : "android::hardware::graphics::common::V1_1::BufferUsage",
   "referenced_type" : "_ZTIN7android8hardware8graphics6common4V1_111BufferUsageE",
   "self_type" : "_ZTIN7android8hardware8graphics6common4V1_111BufferUsageE",
   "size" : 8,
   "source_file" : "/out/soong/.intermediates/hardware/interfaces/graphics/common/1.1/android.hardware.graphics.common@1.1_genc++_headers/gen/android/hardware/graphics/common/1.1/types.h",
   "underlying_type" : "_ZTIy"
  },
  {
   "alignment" : 4,
   "enum_fields" :
   [
    {
     "enum_field_value" : 1,
     "name" : "android::hardware::graphics::common::V1_1::PixelFormat::RGBA_8888"
    },
    {
     "enum_field_value" : 2,
     "name" : "android::hardware::graphics::common::V1_1::PixelFormat::RGBX_8888"
    },
    {
     "enum_field_value" : 3,
     "name" : "android::hardware::graphics::common::V1_1::PixelFormat::RGB_888"
    },
    {
     "enum_field_value" : 4,
     "name" : "android::hardware::graphics::common::V1_1::PixelFormat::RGB_565"
    },
    {
     "enum_field_value" : 5,
     "name" : "android::hardware::graphics::common::V1_1::PixelFormat::BGRA_8888"
    },
    {
     "enum_field_value" : 16,
     "name" : "android::hardware::graphics::common::V1_1::PixelFormat::YCBCR_422_SP"
    },
    {
     "enum_field_value" : 17,
     "name" : "android::hardware::graphics::common::V1_1::PixelFormat::YCRCB_420_SP"
    },
    {
     "enum_field_value" : 20,
     "name" : "android::hardware::graphics::common::V1_1::PixelFormat::YCBCR_422_I"
    },
    {
     "enum_field_value" : 22,
     "name" : "android::hardware::graphics::common::V1_1::PixelFormat::RGBA_FP16"
    },
    {
     "enum_field_value" : 32,
     "name" : "android::hardware::graphics::common::V1_1::PixelFormat::RAW16"
    },
    {
     "enum_field_value" : 33,
     "name" : "android::hardware::graphics::common::V1_1::PixelFormat::BLOB"
    },
    {
     "enum_field_value" : 34,
     "name" : "android::hardware::graphics::common::V1_1::PixelFormat::IMPLEMENTATION_DEFINED"
    },
    {
     "enum_field_value" : 35,
     "name" : "android::hardware::graphics::common::V1_1::PixelFormat::YCBCR_420_888"
    },
    {
     "enum_field_value" : 36,
     "name" : "android::hardware::graphics::common::V1_1::PixelFormat::RAW_OPAQUE"
    },
    {
     "enum_field_value" : 37,
     "name" : "android::hardware::graphics::common::V1_1::PixelFormat::RAW10"
    },
    {
     "enum_field_value" : 38,
     "name" : "android::hardware::graphics::common::V1_1::PixelFormat::RAW12"
    },
    {
     "enum_field_value" : 43,
     "name" : "android::hardware::graphics::common::V1_1::PixelFormat::RGBA_1010102"
    },
    {
     "enum_field_value" : 538982489,
     "name" : "android::hardware::graphics::common::V1_1::PixelFormat::Y8"
    },
    {
     "enum_field_value" : 540422489,
     "name" : "android::hardware::graphics::common::V1_1::PixelFormat::Y16"
    },
    {
     "enum_field_value" : 842094169,
     "name" : "android::hardware::graphics::common::V1_1::PixelFormat::YV12"
    },
    {
     "enum_field_value" : 48,
     "name" : "android::hardware::graphics::common::V1_1::PixelFormat::DEPTH_16"
    },
    {
     "enum_field_value" : 49,
     "name" : "android::hardware::graphics::common::V1_1::PixelFormat::DEPTH_24"
    },
    {
     "enum_field_value" : 50,
     "name" : "android::hardware::graphics::common::V1_1::PixelFormat::DEPTH_24_STENCIL_8"
    },
    {
     "enum_field_value" : 51,
     "name" : "android::hardware::graphics::common::V1_1::PixelFormat::DEPTH_32F"
    },
    {
     "enum_field_value" : 52,
     "name" : "android::hardware::graphics::common::V1_1::PixelFormat::DEPTH_32F_STENCIL_8"
    },
    {
     "enum_field_value" : 53,
     "name" : "android::hardware::graphics::common::V1_1::PixelFormat::STENCIL_8"
    },
    {
     "enum_field_value" : 54,
     "name" : "android::hardware::graphics::common::V1_1::PixelFormat::YCBCR_P010"
    }
   ],
   "linker_set_key" : "_ZTIN7android8hardware8graphics6common4V1_111PixelFormatE",
   "name" : "android::hardware::graphics::common::V1_1::PixelFormat",
   "referenced_type" : "_ZTIN7android8hardware8graphics6common4V1_111PixelFormatE",
   "self_type" : "_ZTIN7android8hardware8graphics6common4V1_111PixelFormatE",
   "size" : 4,
   "source_file" : "/out/soong/.intermediates/hardware/interfaces/graphics/common/1.1/android.hardware.graphics.common@1.1_genc++_headers/gen/android/hardware/graphics/common/1.1/types.h",
   "underlying_type" : "_ZTIi"
  },
  {
   "alignment" : 4,
   "enum_fields" :
   [
    {
     "enum_field_value" : 0,
     "name" : "android::hardware::graphics::common::V1_1::RenderIntent::COLORIMETRIC"
    },
    {
     "enum_field_value" : 1,
     "name" : "android::hardware::graphics::common::V1_1::RenderIntent::ENHANCE"
    },
    {
     "enum_field_value" : 2,
     "name" : "android::hardware::graphics::common::V1_1::RenderIntent::TONE_MAP_COLORIMETRIC"
    },
    {
     "enum_field_value" : 3,
     "name" : "android::hardware::graphics::common::V1_1::RenderIntent::TONE_MAP_ENHANCE"
    }
   ],
   "linker_set_key" : "_ZTIN7android8hardware8graphics6common4V1_112RenderIntentE",
   "name" : "android::hardware::graphics::common::V1_1::RenderIntent",
   "referenced_type" : "_ZTIN7android8hardware8graphics6common4V1_112RenderIntentE",
   "self_type" : "_ZTIN7android8hardware8graphics6common4V1_112RenderIntentE",
   "size" : 4,
   "source_file" : "/out/soong/.intermediates/hardware/interfaces/graphics/common/1.1/android.hardware.graphics.common@1.1_genc++_headers/gen/android/hardware/graphics/common/1.1/types.h",
   "underlying_type" : "_ZTIi"
  },
  {
   "alignment" : 4,
   "enum_fields" :
   [
    {
     "enum_field_value" : 0,
     "name" : "android::hardware::graphics::common::V1_1::ColorMode::NATIVE"
    },
    {
     "enum_field_value" : 1,
     "name" : "android::hardware::graphics::common::V1_1::ColorMode::STANDARD_BT601_625"
    },
    {
     "enum_field_value" : 2,
     "name" : "android::hardware::graphics::common::V1_1::ColorMode::STANDARD_BT601_625_UNADJUSTED"
    },
    {
     "enum_field_value" : 3,
     "name" : "android::hardware::graphics::common::V1_1::ColorMode::STANDARD_BT601_525"
    },
    {
     "enum_field_value" : 4,
     "name" : "android::hardware::graphics::common::V1_1::ColorMode::STANDARD_BT601_525_UNADJUSTED"
    },
    {
     "enum_field_value" : 5,
     "name" : "android::hardware::graphics::common::V1_1::ColorMode::STANDARD_BT709"
    },
    {
     "enum_field_value" : 6,
     "name" : "android::hardware::graphics::common::V1_1::ColorMode::DCI_P3"
    },
    {
     "enum_field_value" : 7,
     "name" : "android::hardware::graphics::common::V1_1::ColorMode::SRGB"
    },
    {
     "enum_field_value" : 8,
     "name" : "android::hardware::graphics::common::V1_1::ColorMode::ADOBE_RGB"
    },
    {
     "enum_field_value" : 9,
     "name" : "android::hardware::graphics::common::V1_1::ColorMode::DISPLAY_P3"
    },
    {
     "enum_field_value" : 10,
     "name" : "android::hardware::graphics::common::V1_1::ColorMode::BT2020"
    },
    {
     "enum_field_value" : 11,
     "name" : "android::hardware::graphics::common::V1_1::ColorMode::BT2100_PQ"
    },
    {
     "enum_field_value" : 12,
     "name" : "android::hardware::graphics::common::V1_1::ColorMode::BT2100_HLG"
    }
   ],
   "linker_set_key" : "_ZTIN7android8hardware8graphics6common4V1_19ColorModeE",
   "name" : "android::hardware::graphics::common::V1_1::ColorMode",
   "referenced_type" : "_ZTIN7android8hardware8graphics6common4V1_19ColorModeE",
   "self_type" : "_ZTIN7android8hardware8graphics6common4V1_19ColorModeE",
   "size" : 4,
   "source_file" : "/out/soong/.intermediates/hardware/interfaces/graphics/common/1.1/android.hardware.graphics.common@1.1_genc++_headers/gen/android/hardware/graphics/common/1.1/types.h",
   "underlying_type" : "_ZTIi"
  },
  {
   "alignment" : 4,
   "enum_fields" :
   [
    {
     "enum_field_value" : 0,
     "name" : "android::hardware::graphics::common::V1_1::Dataspace::UNKNOWN"
    },
    {
     "enum_field_value" : 1,
     "name" : "android::hardware::graphics::common::V1_1::Dataspace::ARBITRARY"
    },
    {
     "enum_field_value" : 16,
     "name" : "android::hardware::graphics::common::V1_1::Dataspace::STANDARD_SHIFT"
    },
    {
     "enum_field_value" : 4128768,
     "name" : "android::hardware::graphics::common::V1_1::Dataspace::STANDARD_MASK"
    },
    {
     "enum_field_value" : 0,
     "name" : "android::hardware::graphics::common::V1_1::Dataspace::STANDARD_UNSPECIFIED"
    },
    {
     "enum_field_value" : 65536,
     "name" : "android::hardware::graphics::common::V1_1::Dataspace::STANDARD_BT709"
    },
    {
     "enum_field_value" : 131072,
     "name" : "android::hardware::graphics::common::V1_1::Dataspace::STANDARD_BT601_625"
    },
    {
     "enum_field_value" : 196608,
     "name" : "android::hardware::graphics::common::V1_1::Dataspace::STANDARD_BT601_625_UNADJUSTED"
    },
    {
     "enum_field_value" : 262144,
     "name" : "android::hardware::graphics::common::V1_1::Dataspace::STANDARD_BT601_525"
    },
    {
     "enum_field_value" : 327680,
     "name" : "android::hardware::graphics::common::V1_1::Dataspace::STANDARD_BT601_525_UNADJUSTED"
    },
    {
     "enum_field_value" : 393216,
     "name" : "android::hardware::graphics::common::V1_1::Dataspace::STANDARD_BT2020"
    },
    {
     "enum_field_value" : 458752,
     "name" : "android::hardware::graphics::common::V1_1::Dataspace::STANDARD_BT2020_CONSTANT_LUMINANCE"
    },
    {
     "enum_field_value" : 524288,
     "name" : "android::hardware::graphics::common::V1_1::Dataspace::STANDARD_BT470M"
    },
    {
     "enum_field_value" : 589824,
     "name" : "android::hardware::graphics::common::V1_1::Dataspace::STANDARD_FILM"
    },
    {
     "enum_field_value" : 655360,
     "name" : "android::hardware::graphics::common::V1_1::Dataspace::STANDARD_DCI_P3"
    },
    {
     "enum_field_value" : 720896,
     "name" : "android::hardware::graphics::common::V1_1::Dataspace::STANDARD_ADOBE_RGB"
    },
    {
     "enum_field_value" : 22,
     "name" : "android::hardware::graphics::common::V1_1::Dataspace::TRANSFER_SHIFT"
    },
    {
     "enum_field_value" : 130023424,
     "name" : "android::hardware::graphics::common::V1_1::Dataspace::TRANSFER_MASK"
    },
    {
     "enum_field_value" : 0,
     "name" : "android::hardware::graphics::common::V1_1::Dataspace::TRANSFER_UNSPECIFIED"
    },
    {
     "enum_field_value" : 4194304,
     "name" : "android::hardware::graphics::common::V1_1::Dataspace::TRANSFER_LINEAR"
    },
    {
     "enum_field_value" : 8388608,
     "name" : "android::hardware::graphics::common::V1_1::Dataspace::TRANSFER_SRGB"
    },
    {
     "enum_field_value" : 12582912,
     "name" : "android::hardware::graphics::common::V1_1::Dataspace::TRANSFER_SMPTE_170M"
    },
    {
     "enum_field_value" : 16777216,
     "name" : "android::hardware::graphics::common::V1_1::Dataspace::TRANSFER_GAMMA2_2"
    },
    {
     "enum_field_value" : 20971520,
     "name" : "android::hardware::graphics::common::V1_1::Dataspace::TRANSFER_GAMMA2_6"
    },
    {
     "enum_field_value" : 25165824,
     "name" : "android::hardware::graphics::common::V1_1::Dataspace::TRANSFER_GAMMA2_8"
    },
    {
     "enum_field_value" : 29360128,
     "name" : "android::hardware::graphics::common::V1_1::Dataspace::TRANSFER_ST2084"
    },
    {
     "enum_field_value" : 33554432,
     "name" : "android::hardware::graphics::common::V1_1::Dataspace::TRANSFER_HLG"
    },
    {
     "enum_field_value" : 27,
     "name" : "android::hardware::graphics::common::V1_1::Dataspace::RANGE_SHIFT"
    },
    {
     "enum_field_value" : 939524096,
     "name" : "android::hardware::graphics::common::V1_1::Dataspace::RANGE_MASK"
    },
    {
     "enum_field_value" : 0,
     "name" : "android::hardware::graphics::common::V1_1::Dataspace::RANGE_UNSPECIFIED"
    },
    {
     "enum_field_value" : 134217728,
     "name" : "android::hardware::graphics::common::V1_1::Dataspace::RANGE_FULL"
    },
    {
     "enum_field_value" : 268435456,
     "name" : "android::hardware::graphics::common::V1_1::Dataspace::RANGE_LIMITED"
    },
    {
     "enum_field_value" : 402653184,
     "name" : "android::hardware::graphics::common::V1_1::Dataspace::RANGE_EXTENDED"
    },
    {
     "enum_field_value" : 512,
     "name" : "android::hardware::graphics::common::V1_1::Dataspace::SRGB_LINEAR"
    },
    {
     "enum_field_value" : 138477568,
     "name" : "android::hardware::graphics::common::V1_1::Dataspace::V0_SRGB_LINEAR"
    },
    {
     "enum_field_value" : 406913024,
     "name" : "android::hardware::graphics::common::V1_1::Dataspace::V0_SCRGB_LINEAR"
    },
    {
     "enum_field_value" : 513,
     "name" : "android::hardware::graphics::common::V1_1::Dataspace::SRGB"
    },
    {
     "enum_field_value" : 142671872,
     "name" : "android::hardware::graphics::common::V1_1::Dataspace::V0_SRGB"
    },
    {
     "enum_field_value" : 411107328,
     "name" : "android::hardware::graphics::common::V1_1::Dataspace::V0_SCRGB"
    },
    {
     "enum_field_value" : 257,
     "name" : "android::hardware::graphics::common::V1_1::Dataspace::JFIF"
    },
    {
     "enum_field_value" : 146931712,
     "name" : "android::hardware::graphics::common::V1_1::Dataspace::V0_JFIF"
    },
    {
     "enum_field_value" : 258,
     "name" : "android::hardware::graphics::common::V1_1::Dataspace::BT601_625"
    },
    {
     "enum_field_value" : 281149440,
     "name" : "android::hardware::graphics::common::V1_1::Dataspace::V0_BT601_625"
    },
    {
     "enum_field_value" : 259,
     "name" : "android::hardware::graphics::common::V1_1::Dataspace::BT601_525"
    },
    {
     "enum_field_value" : 281280512,
     "name" : "android::hardware::graphics::common::V1_1::Dataspace::V0_BT601_525"
    },
    {
     "enum_field_value" : 260,
     "name" : "android::hardware::graphics::common::V1_1::Dataspace::BT709"
    },
    {
     "enum_field_value" : 281083904,
     "name" : "android::hardware::graphics::common::V1_1::Dataspace::V0_BT709"
    },
    {
     "enum_field_value" : 139067392,
     "name" : "android::hardware::graphics::common::V1_1::Dataspace::DCI_P3_LINEAR"
    },
    {
     "enum_field_value" : 155844608,
     "name" : "android::hardware::graphics::common::V1_1::Dataspace::DCI_P3"
    },
    {
     "enum_field_value" : 139067392,
     "name" : "android::hardware::graphics::common::V1_1::Dataspace::DISPLAY_P3_LINEAR"
    },
    {
     "enum_field_value" : 143261696,
     "name" : "android::hardware::graphics::common::V1_1::Dataspace::DISPLAY_P3"
    },
    {
     "enum_field_value" : 151715840,
     "name" : "android::hardware::graphics::common::V1_1::Dataspace::ADOBE_RGB"
    },
    {
     "enum_field_value" : 138805248,
     "name" : "android::hardware::graphics::common::V1_1::Dataspace::BT2020_LINEAR"
    },
    {
     "enum_field_value" : 147193856,
     "name" : "android::hardware::graphics::common::V1_1::Dataspace::BT2020"
    },
    {
     "enum_field_value" : 163971072,
     "name" : "android::hardware::graphics::common::V1_1::Dataspace::BT2020_PQ"
    },
    {
     "enum_field_value" : 4096,
     "name" : "android::hardware::graphics::common::V1_1::Dataspace::DEPTH"
    },
    {
     "enum_field_value" : 4097,
     "name" : "android::hardware::graphics::common::V1_1::Dataspace::SENSOR"
    },
    {
     "enum_field_value" : 281411584,
     "name" : "android::hardware::graphics::common::V1_1::Dataspace::BT2020_ITU"
    },
    {
     "enum_field_value" : 298188800,
     "name" : "android::hardware::graphics::common::V1_1::Dataspace::BT2020_ITU_PQ"
    },
    {
     "enum_field_value" : 302383104,
     "name" : "android::hardware::graphics::common::V1_1::Dataspace::BT2020_ITU_HLG"
    },
    {
     "enum_field_value" : 168165376,
     "name" : "android::hardware::graphics::common::V1_1::Dataspace::BT2020_HLG"
    }
   ],
   "linker_set_key" : "_ZTIN7android8hardware8graphics6common4V1_19DataspaceE",
   "name" : "android::hardware::graphics::common::V1_1::Dataspace",
   "referenced_type" : "_ZTIN7android8hardware8graphics6common4V1_19DataspaceE",
   "self_type" : "_ZTIN7android8hardware8graphics6common4V1_19DataspaceE",
   "size" : 4,
   "source_file" : "/out/soong/.intermediates/hardware/interfaces/graphics/common/1.1/android.hardware.graphics.common@1.1_genc++_headers/gen/android/hardware/graphics/common/1.1/types.h",
   "underlying_type" : "_ZTIi"
  },
  {
   "alignment" : 4,
   "enum_fields" :
   [
    {
     "enum_field_value" : 15,
     "name" : "android::hardware::graphics::common::V1_2::BufferUsage::CPU_READ_MASK"
    },
    {
     "enum_field_value" : 0,
     "name" : "android::hardware::graphics::common::V1_2::BufferUsage::CPU_READ_NEVER"
    },
    {
     "enum_field_value" : 2,
     "name" : "android::hardware::graphics::common::V1_2::BufferUsage::CPU_READ_RARELY"
    },
    {
     "enum_field_value" : 3,
     "name" : "android::hardware::graphics::common::V1_2::BufferUsage::CPU_READ_OFTEN"
    },
    {
     "enum_field_value" : 240,
     "name" : "android::hardware::graphics::common::V1_2::BufferUsage::CPU_WRITE_MASK"
    },
    {
     "enum_field_value" : 0,
     "name" : "android::hardware::graphics::common::V1_2::BufferUsage::CPU_WRITE_NEVER"
    },
    {
     "enum_field_value" : 32,
     "name" : "android::hardware::graphics::common::V1_2::BufferUsage::CPU_WRITE_RARELY"
    },
    {
     "enum_field_value" : 48,
     "name" : "android::hardware::graphics::common::V1_2::BufferUsage::CPU_WRITE_OFTEN"
    },
    {
     "enum_field_value" : 256,
     "name" : "android::hardware::graphics::common::V1_2::BufferUsage::GPU_TEXTURE"
    },
    {
     "enum_field_value" : 512,
     "name" : "android::hardware::graphics::common::V1_2::BufferUsage::GPU_RENDER_TARGET"
    },
    {
     "enum_field_value" : 2048,
     "name" : "android::hardware::graphics::common::V1_2::BufferUsage::COMPOSER_OVERLAY"
    },
    {
     "enum_field_value" : 4096,
     "name" : "android::hardware::graphics::common::V1_2::BufferUsage::COMPOSER_CLIENT_TARGET"
    },
    {
     "enum_field_value" : 16384,
     "name" : "android::hardware::graphics::common::V1_2::BufferUsage::PROTECTED"
    },
    {
     "enum_field_value" : 32768,
     "name" : "android::hardware::graphics::common::V1_2::BufferUsage::COMPOSER_CURSOR"
    },
    {
     "enum_field_value" : 65536,
     "name" : "android::hardware::graphics::common::V1_2::BufferUsage::VIDEO_ENCODER"
    },
    {
     "enum_field_value" : 131072,
     "name" : "android::hardware::graphics::common::V1_2::BufferUsage::CAMERA_OUTPUT"
    },
    {
     "enum_field_value" : 262144,
     "name" : "android::hardware::graphics::common::V1_2::BufferUsage::CAMERA_INPUT"
    },
    {
     "enum_field_value" : 1048576,
     "name" : "android::hardware::graphics::common::V1_2::BufferUsage::RENDERSCRIPT"
    },
    {
     "enum_field_value" : 4194304,
     "name" : "android::hardware::graphics::common::V1_2::BufferUsage::VIDEO_DECODER"
    },
    {
     "enum_field_value" : 8388608,
     "name" : "android::hardware::graphics::common::V1_2::BufferUsage::SENSOR_DIRECT_DATA"
    },
    {
     "enum_field_value" : 16777216,
     "name" : "android::hardware::graphics::common::V1_2::BufferUsage::GPU_DATA_BUFFER"
    },
    {
     "enum_field_value" : -268435456,
     "name" : "android::hardware::graphics::common::V1_2::BufferUsage::VENDOR_MASK"
    },
    {
     "enum_field_value" : 0,
     "name" : "android::hardware::graphics::common::V1_2::BufferUsage::VENDOR_MASK_HI"
    },
    {
     "enum_field_value" : 33554432,
     "name" : "android::hardware::graphics::common::V1_2::BufferUsage::GPU_CUBE_MAP"
    },
    {
     "enum_field_value" : 67108864,
     "name" : "android::hardware::graphics::common::V1_2::BufferUsage::GPU_MIPMAP_COMPLETE"
    },
    {
     "enum_field_value" : 134217728,
     "name" : "android::hardware::graphics::common::V1_2::BufferUsage::HW_IMAGE_ENCODER"
    }
   ],
   "linker_set_key" : "_ZTIN7android8hardware8graphics6common4V1_211BufferUsageE",
   "name" : "android::hardware::graphics::common::V1_2::BufferUsage",
   "referenced_type" : "_ZTIN7android8hardware8graphics6common4V1_211BufferUsageE",
   "self_type" : "_ZTIN7android8hardware8graphics6common4V1_211BufferUsageE",
   "size" : 8,
   "source_file" : "/out/soong/.intermediates/hardware/interfaces/graphics/common/1.2/android.hardware.graphics.common@1.2_genc++_headers/gen/android/hardware/graphics/common/1.2/types.h",
   "underlying_type" : "_ZTIy"
  },
  {
   "alignment" : 4,
   "enum_fields" :
   [
    {
     "enum_field_value" : 1,
     "name" : "android::hardware::graphics::common::V1_2::PixelFormat::RGBA_8888"
    },
    {
     "enum_field_value" : 2,
     "name" : "android::hardware::graphics::common::V1_2::PixelFormat::RGBX_8888"
    },
    {
     "enum_field_value" : 3,
     "name" : "android::hardware::graphics::common::V1_2::PixelFormat::RGB_888"
    },
    {
     "enum_field_value" : 4,
     "name" : "android::hardware::graphics::common::V1_2::PixelFormat::RGB_565"
    },
    {
     "enum_field_value" : 5,
     "name" : "android::hardware::graphics::common::V1_2::PixelFormat::BGRA_8888"
    },
    {
     "enum_field_value" : 16,
     "name" : "android::hardware::graphics::common::V1_2::PixelFormat::YCBCR_422_SP"
    },
    {
     "enum_field_value" : 17,
     "name" : "android::hardware::graphics::common::V1_2::PixelFormat::YCRCB_420_SP"
    },
    {
     "enum_field_value" : 20,
     "name" : "android::hardware::graphics::common::V1_2::PixelFormat::YCBCR_422_I"
    },
    {
     "enum_field_value" : 22,
     "name" : "android::hardware::graphics::common::V1_2::PixelFormat::RGBA_FP16"
    },
    {
     "enum_field_value" : 32,
     "name" : "android::hardware::graphics::common::V1_2::PixelFormat::RAW16"
    },
    {
     "enum_field_value" : 33,
     "name" : "android::hardware::graphics::common::V1_2::PixelFormat::BLOB"
    },
    {
     "enum_field_value" : 34,
     "name" : "android::hardware::graphics::common::V1_2::PixelFormat::IMPLEMENTATION_DEFINED"
    },
    {
     "enum_field_value" : 35,
     "name" : "android::hardware::graphics::common::V1_2::PixelFormat::YCBCR_420_888"
    },
    {
     "enum_field_value" : 36,
     "name" : "android::hardware::graphics::common::V1_2::PixelFormat::RAW_OPAQUE"
    },
    {
     "enum_field_value" : 37,
     "name" : "android::hardware::graphics::common::V1_2::PixelFormat::RAW10"
    },
    {
     "enum_field_value" : 38,
     "name" : "android::hardware::graphics::common::V1_2::PixelFormat::RAW12"
    },
    {
     "enum_field_value" : 43,
     "name" : "android::hardware::graphics::common::V1_2::PixelFormat::RGBA_1010102"
    },
    {
     "enum_field_value" : 538982489,
     "name" : "android::hardware::graphics::common::V1_2::PixelFormat::Y8"
    },
    {
     "enum_field_value" : 540422489,
     "name" : "android::hardware::graphics::common::V1_2::PixelFormat::Y16"
    },
    {
     "enum_field_value" : 842094169,
     "name" : "android::hardware::graphics::common::V1_2::PixelFormat::YV12"
    },
    {
     "enum_field_value" : 48,
     "name" : "android::hardware::graphics::common::V1_2::PixelFormat::DEPTH_16"
    },
    {
     "enum_field_value" : 49,
     "name" : "android::hardware::graphics::common::V1_2::PixelFormat::DEPTH_24"
    },
    {
     "enum_field_value" : 50,
     "name" : "android::hardware::graphics::common::V1_2::PixelFormat::DEPTH_24_STENCIL_8"
    },
    {
     "enum_field_value" : 51,
     "name" : "android::hardware::graphics::common::V1_2::PixelFormat::DEPTH_32F"
    },
    {
     "enum_field_value" : 52,
     "name" : "android::hardware::graphics::common::V1_2::PixelFormat::DEPTH_32F_STENCIL_8"
    },
    {
     "enum_field_value" : 53,
     "name" : "android::hardware::graphics::common::V1_2::PixelFormat::STENCIL_8"
    },
    {
     "enum_field_value" : 54,
     "name" : "android::hardware::graphics::common::V1_2::PixelFormat::YCBCR_P010"
    },
    {
     "enum_field_value" : 55,
     "name" : "android::hardware::graphics::common::V1_2::PixelFormat::HSV_888"
    }
   ],
   "linker_set_key" : "_ZTIN7android8hardware8graphics6common4V1_211PixelFormatE",
   "name" : "android::hardware::graphics::common::V1_2::PixelFormat",
   "referenced_type" : "_ZTIN7android8hardware8graphics6common4V1_211PixelFormatE",
   "self_type" : "_ZTIN7android8hardware8graphics6common4V1_211PixelFormatE",
   "size" : 4,
   "source_file" : "/out/soong/.intermediates/hardware/interfaces/graphics/common/1.2/android.hardware.graphics.common@1.2_genc++_headers/gen/android/hardware/graphics/common/1.2/types.h",
   "underlying_type" : "_ZTIi"
  },
  {
   "alignment" : 4,
   "enum_fields" :
   [
    {
     "enum_field_value" : 1,
     "name" : "android::hardware::graphics::common::V1_2::Hdr::DOLBY_VISION"
    },
    {
     "enum_field_value" : 2,
     "name" : "android::hardware::graphics::common::V1_2::Hdr::HDR10"
    },
    {
     "enum_field_value" : 3,
     "name" : "android::hardware::graphics::common::V1_2::Hdr::HLG"
    },
    {
     "enum_field_value" : 4,
     "name" : "android::hardware::graphics::common::V1_2::Hdr::HDR10_PLUS"
    }
   ],
   "linker_set_key" : "_ZTIN7android8hardware8graphics6common4V1_23HdrE",
   "name" : "android::hardware::graphics::common::V1_2::Hdr",
   "referenced_type" : "_ZTIN7android8hardware8graphics6common4V1_23HdrE",
   "self_type" : "_ZTIN7android8hardware8graphics6common4V1_23HdrE",
   "size" : 4,
   "source_file" : "/out/soong/.intermediates/hardware/interfaces/graphics/common/1.2/android.hardware.graphics.common@1.2_genc++_headers/gen/android/hardware/graphics/common/1.2/types.h",
   "underlying_type" : "_ZTIi"
  },
  {
   "alignment" : 4,
   "enum_fields" :
   [
    {
     "enum_field_value" : 0,
     "name" : "android::hardware::graphics::common::V1_2::ColorMode::NATIVE"
    },
    {
     "enum_field_value" : 1,
     "name" : "android::hardware::graphics::common::V1_2::ColorMode::STANDARD_BT601_625"
    },
    {
     "enum_field_value" : 2,
     "name" : "android::hardware::graphics::common::V1_2::ColorMode::STANDARD_BT601_625_UNADJUSTED"
    },
    {
     "enum_field_value" : 3,
     "name" : "android::hardware::graphics::common::V1_2::ColorMode::STANDARD_BT601_525"
    },
    {
     "enum_field_value" : 4,
     "name" : "android::hardware::graphics::common::V1_2::ColorMode::STANDARD_BT601_525_UNADJUSTED"
    },
    {
     "enum_field_value" : 5,
     "name" : "android::hardware::graphics::common::V1_2::ColorMode::STANDARD_BT709"
    },
    {
     "enum_field_value" : 6,
     "name" : "android::hardware::graphics::common::V1_2::ColorMode::DCI_P3"
    },
    {
     "enum_field_value" : 7,
     "name" : "android::hardware::graphics::common::V1_2::ColorMode::SRGB"
    },
    {
     "enum_field_value" : 8,
     "name" : "android::hardware::graphics::common::V1_2::ColorMode::ADOBE_RGB"
    },
    {
     "enum_field_value" : 9,
     "name" : "android::hardware::graphics::common::V1_2::ColorMode::DISPLAY_P3"
    },
    {
     "enum_field_value" : 10,
     "name" : "android::hardware::graphics::common::V1_2::ColorMode::BT2020"
    },
    {
     "enum_field_value" : 11,
     "name" : "android::hardware::graphics::common::V1_2::ColorMode::BT2100_PQ"
    },
    {
     "enum_field_value" : 12,
     "name" : "android::hardware::graphics::common::V1_2::ColorMode::BT2100_HLG"
    },
    {
     "enum_field_value" : 13,
     "name" : "android::hardware::graphics::common::V1_2::ColorMode::DISPLAY_BT2020"
    }
   ],
   "linker_set_key" : "_ZTIN7android8hardware8graphics6common4V1_29ColorModeE",
   "name" : "android::hardware::graphics::common::V1_2::ColorMode",
   "referenced_type" : "_ZTIN7android8hardware8graphics6common4V1_29ColorModeE",
   "self_type" : "_ZTIN7android8hardware8graphics6common4V1_29ColorModeE",
   "size" : 4,
   "source_file" : "/out/soong/.intermediates/hardware/interfaces/graphics/common/1.2/android.hardware.graphics.common@1.2_genc++_headers/gen/android/hardware/graphics/common/1.2/types.h",
   "underlying_type" : "_ZTIi"
  },
  {
   "alignment" : 4,
   "enum_fields" :
   [
    {
     "enum_field_value" : 0,
     "name" : "android::hardware::graphics::common::V1_2::Dataspace::UNKNOWN"
    },
    {
     "enum_field_value" : 1,
     "name" : "android::hardware::graphics::common::V1_2::Dataspace::ARBITRARY"
    },
    {
     "enum_field_value" : 16,
     "name" : "android::hardware::graphics::common::V1_2::Dataspace::STANDARD_SHIFT"
    },
    {
     "enum_field_value" : 4128768,
     "name" : "android::hardware::graphics::common::V1_2::Dataspace::STANDARD_MASK"
    },
    {
     "enum_field_value" : 0,
     "name" : "android::hardware::graphics::common::V1_2::Dataspace::STANDARD_UNSPECIFIED"
    },
    {
     "enum_field_value" : 65536,
     "name" : "android::hardware::graphics::common::V1_2::Dataspace::STANDARD_BT709"
    },
    {
     "enum_field_value" : 131072,
     "name" : "android::hardware::graphics::common::V1_2::Dataspace::STANDARD_BT601_625"
    },
    {
     "enum_field_value" : 196608,
     "name" : "android::hardware::graphics::common::V1_2::Dataspace::STANDARD_BT601_625_UNADJUSTED"
    },
    {
     "enum_field_value" : 262144,
     "name" : "android::hardware::graphics::common::V1_2::Dataspace::STANDARD_BT601_525"
    },
    {
     "enum_field_value" : 327680,
     "name" : "android::hardware::graphics::common::V1_2::Dataspace::STANDARD_BT601_525_UNADJUSTED"
    },
    {
     "enum_field_value" : 393216,
     "name" : "android::hardware::graphics::common::V1_2::Dataspace::STANDARD_BT2020"
    },
    {
     "enum_field_value" : 458752,
     "name" : "android::hardware::graphics::common::V1_2::Dataspace::STANDARD_BT2020_CONSTANT_LUMINANCE"
    },
    {
     "enum_field_value" : 524288,
     "name" : "android::hardware::graphics::common::V1_2::Dataspace::STANDARD_BT470M"
    },
    {
     "enum_field_value" : 589824,
     "name" : "android::hardware::graphics::common::V1_2::Dataspace::STANDARD_FILM"
    },
    {
     "enum_field_value" : 655360,
     "name" : "android::hardware::graphics::common::V1_2::Dataspace::STANDARD_DCI_P3"
    },
    {
     "enum_field_value" : 720896,
     "name" : "android::hardware::graphics::common::V1_2::Dataspace::STANDARD_ADOBE_RGB"
    },
    {
     "enum_field_value" : 22,
     "name" : "android::hardware::graphics::common::V1_2::Dataspace::TRANSFER_SHIFT"
    },
    {
     "enum_field_value" : 130023424,
     "name" : "android::hardware::graphics::common::V1_2::Dataspace::TRANSFER_MASK"
    },
    {
     "enum_field_value" : 0,
     "name" : "android::hardware::graphics::common::V1_2::Dataspace::TRANSFER_UNSPECIFIED"
    },
    {
     "enum_field_value" : 4194304,
     "name" : "android::hardware::graphics::common::V1_2::Dataspace::TRANSFER_LINEAR"
    },
    {
     "enum_field_value" : 8388608,
     "name" : "android::hardware::graphics::common::V1_2::Dataspace::TRANSFER_SRGB"
    },
    {
     "enum_field_value" : 12582912,
     "name" : "android::hardware::graphics::common::V1_2::Dataspace::TRANSFER_SMPTE_170M"
    },
    {
     "enum_field_value" : 16777216,
     "name" : "android::hardware::graphics::common::V1_2::Dataspace::TRANSFER_GAMMA2_2"
    },
    {
     "enum_field_value" : 20971520,
     "name" : "android::hardware::graphics::common::V1_2::Dataspace::TRANSFER_GAMMA2_6"
    },
    {
     "enum_field_value" : 25165824,
     "name" : "android::hardware::graphics::common::V1_2::Dataspace::TRANSFER_GAMMA2_8"
    },
    {
     "enum_field_value" : 29360128,
     "name" : "android::hardware::graphics::common::V1_2::Dataspace::TRANSFER_ST2084"
    },
    {
     "enum_field_value" : 33554432,
     "name" : "android::hardware::graphics::common::V1_2::Dataspace::TRANSFER_HLG"
    },
    {
     "enum_field_value" : 27,
     "name" : "android::hardware::graphics::common::V1_2::Dataspace::RANGE_SHIFT"
    },
    {
     "enum_field_value" : 939524096,
     "name" : "android::hardware::graphics::common::V1_2::Dataspace::RANGE_MASK"
    },
    {
     "enum_field_value" : 0,
     "name" : "android::hardware::graphics::common::V1_2::Dataspace::RANGE_UNSPECIFIED"
    },
    {
     "enum_field_value" : 134217728,
     "name" : "android::hardware::graphics::common::V1_2::Dataspace::RANGE_FULL"
    },
    {
     "enum_field_value" : 268435456,
     "name" : "android::hardware::graphics::common::V1_2::Dataspace::RANGE_LIMITED"
    },
    {
     "enum_field_value" : 402653184,
     "name" : "android::hardware::graphics::common::V1_2::Dataspace::RANGE_EXTENDED"
    },
    {
     "enum_field_value" : 512,
     "name" : "android::hardware::graphics::common::V1_2::Dataspace::SRGB_LINEAR"
    },
    {
     "enum_field_value" : 138477568,
     "name" : "android::hardware::graphics::common::V1_2::Dataspace::V0_SRGB_LINEAR"
    },
    {
     "enum_field_value" : 406913024,
     "name" : "android::hardware::graphics::common::V1_2::Dataspace::V0_SCRGB_LINEAR"
    },
    {
     "enum_field_value" : 513,
     "name" : "android::hardware::graphics::common::V1_2::Dataspace::SRGB"
    },
    {
     "enum_field_value" : 142671872,
     "name" : "android::hardware::graphics::common::V1_2::Dataspace::V0_SRGB"
    },
    {
     "enum_field_value" : 411107328,
     "name" : "android::hardware::graphics::common::V1_2::Dataspace::V0_SCRGB"
    },
    {
     "enum_field_value" : 257,
     "name" : "android::hardware::graphics::common::V1_2::Dataspace::JFIF"
    },
    {
     "enum_field_value" : 146931712,
     "name" : "android::hardware::graphics::common::V1_2::Dataspace::V0_JFIF"
    },
    {
     "enum_field_value" : 258,
     "name" : "android::hardware::graphics::common::V1_2::Dataspace::BT601_625"
    },
    {
     "enum_field_value" : 281149440,
     "name" : "android::hardware::graphics::common::V1_2::Dataspace::V0_BT601_625"
    },
    {
     "enum_field_value" : 259,
     "name" : "android::hardware::graphics::common::V1_2::Dataspace::BT601_525"
    },
    {
     "enum_field_value" : 281280512,
     "name" : "android::hardware::graphics::common::V1_2::Dataspace::V0_BT601_525"
    },
    {
     "enum_field_value" : 260,
     "name" : "android::hardware::graphics::common::V1_2::Dataspace::BT709"
    },
    {
     "enum_field_value" : 281083904,
     "name" : "android::hardware::graphics::common::V1_2::Dataspace::V0_BT709"
    },
    {
     "enum_field_value" : 139067392,
     "name" : "android::hardware::graphics::common::V1_2::Dataspace::DCI_P3_LINEAR"
    },
    {
     "enum_field_value" : 155844608,
     "name" : "android::hardware::graphics::common::V1_2::Dataspace::DCI_P3"
    },
    {
     "enum_field_value" : 139067392,
     "name" : "android::hardware::graphics::common::V1_2::Dataspace::DISPLAY_P3_LINEAR"
    },
    {
     "enum_field_value" : 143261696,
     "name" : "android::hardware::graphics::common::V1_2::Dataspace::DISPLAY_P3"
    },
    {
     "enum_field_value" : 151715840,
     "name" : "android::hardware::graphics::common::V1_2::Dataspace::ADOBE_RGB"
    },
    {
     "enum_field_value" : 138805248,
     "name" : "android::hardware::graphics::common::V1_2::Dataspace::BT2020_LINEAR"
    },
    {
     "enum_field_value" : 147193856,
     "name" : "android::hardware::graphics::common::V1_2::Dataspace::BT2020"
    },
    {
     "enum_field_value" : 163971072,
     "name" : "android::hardware::graphics::common::V1_2::Dataspace::BT2020_PQ"
    },
    {
     "enum_field_value" : 4096,
     "name" : "android::hardware::graphics::common::V1_2::Dataspace::DEPTH"
    },
    {
     "enum_field_value" : 4097,
     "name" : "android::hardware::graphics::common::V1_2::Dataspace::SENSOR"
    },
    {
     "enum_field_value" : 281411584,
     "name" : "android::hardware::graphics::common::V1_2::Dataspace::BT2020_ITU"
    },
    {
     "enum_field_value" : 298188800,
     "name" : "android::hardware::graphics::common::V1_2::Dataspace::BT2020_ITU_PQ"
    },
    {
     "enum_field_value" : 302383104,
     "name" : "android::hardware::graphics::common::V1_2::Dataspace::BT2020_ITU_HLG"
    },
    {
     "enum_field_value" : 168165376,
     "name" : "android::hardware::graphics::common::V1_2::Dataspace::BT2020_HLG"
    },
    {
     "enum_field_value" : 142999552,
     "name" : "android::hardware::graphics::common::V1_2::Dataspace::DISPLAY_BT2020"
    },
    {
     "enum_field_value" : 4098,
     "name" : "android::hardware::graphics::common::V1_2::Dataspace::DYNAMIC_DEPTH"
    },
    {
     "enum_field_value" : 4099,
     "name" : "android::hardware::graphics::common::V1_2::Dataspace::JPEG_APP_SEGMENTS"
    },
    {
     "enum_field_value" : 4100,
     "name" : "android::hardware::graphics::common::V1_2::Dataspace::HEIF"
    }
   ],
   "linker_set_key" : "_ZTIN7android8hardware8graphics6common4V1_29DataspaceE",
   "name" : "android::hardware::graphics::common::V1_2::Dataspace",
   "referenced_type" : "_ZTIN7android8hardware8graphics6common4V1_29DataspaceE",
   "self_type" : "_ZTIN7android8hardware8graphics6common4V1_29DataspaceE",
   "size" : 4,
   "source_file" : "/out/soong/.intermediates/hardware/interfaces/graphics/common/1.2/android.hardware.graphics.common@1.2_genc++_headers/gen/android/hardware/graphics/common/1.2/types.h",
   "underlying_type" : "_ZTIi"
  },
  {
   "alignment" : 4,
   "enum_fields" :
   [
    {
     "enum_field_value" : 0,
     "name" : "android::hardware::graphics::mapper::V4_0::Error::NONE"
    },
    {
     "enum_field_value" : 1,
     "name" : "android::hardware::graphics::mapper::V4_0::Error::BAD_DESCRIPTOR"
    },
    {
     "enum_field_value" : 2,
     "name" : "android::hardware::graphics::mapper::V4_0::Error::BAD_BUFFER"
    },
    {
     "enum_field_value" : 3,
     "name" : "android::hardware::graphics::mapper::V4_0::Error::BAD_VALUE"
    },
    {
     "enum_field_value" : 5,
     "name" : "android::hardware::graphics::mapper::V4_0::Error::NO_RESOURCES"
    },
    {
     "enum_field_value" : 7,
     "name" : "android::hardware::graphics::mapper::V4_0::Error::UNSUPPORTED"
    }
   ],
   "linker_set_key" : "_ZTIN7android8hardware8graphics6mapper4V4_05ErrorE",
   "name" : "android::hardware::graphics::mapper::V4_0::Error",
   "referenced_type" : "_ZTIN7android8hardware8graphics6mapper4V4_05ErrorE",
   "self_type" : "_ZTIN7android8hardware8graphics6mapper4V4_05ErrorE",
   "size" : 4,
   "source_file" : "/out/soong/.intermediates/hardware/interfaces/graphics/mapper/4.0/android.hardware.graphics.mapper@4.0_genc++_headers/gen/android/hardware/graphics/mapper/4.0/types.h",
   "underlying_type" : "_ZTIi"
  }
 ],
 "function_types" :
 [
  {
   "alignment" : 4,
   "linker_set_key" : "_ZTIFiP8AIBinderjPK7AParcelPS1_E",
   "name" : "int (AIBinder *, unsigned int, const AParcel *, AParcel *)",
   "parameters" :
   [
    {
     "referenced_type" : "_ZTIP8AIBinder"
    },
    {
     "referenced_type" : "_ZTIj"
    },
    {
     "referenced_type" : "_ZTIPK7AParcel"
    },
    {
     "referenced_type" : "_ZTIP7AParcel"
    }
   ],
   "referenced_type" : "_ZTIFiP8AIBinderjPK7AParcelPS1_E",
   "return_type" : "_ZTIi",
   "self_type" : "_ZTIFiP8AIBinderjPK7AParcelPS1_E",
   "source_file" : "/frameworks/native/libs/binder/ndk/include_ndk/android/binder_interface_utils.h"
  }
 ],
 "functions" :
 [
  {
   "function_name" : "android::gralloc4::decodeCrop",
   "linker_set_key" : "_ZN7android8gralloc410decodeCropERKNS_8hardware8hidl_vecIhEEPNSt3__16vectorIN4aidl7android8hardware8graphics6common4RectENS6_9allocatorISD_EEEE",
   "parameters" :
   [
    {
     "referenced_type" : "_ZTIRKN7android8hardware8hidl_vecIhEE"
    },
    {
     "referenced_type" : "_ZTIPNSt3__16vectorIN4aidl7android8hardware8graphics6common4RectENS_9allocatorIS6_EEEE"
    }
   ],
   "return_type" : "_ZTIi",
   "source_file" : "/frameworks/native/libs/gralloc/types/include/gralloctypes/Gralloc4.h"
  },
  {
   "function_name" : "android::gralloc4::decodeName",
   "linker_set_key" : "_ZN7android8gralloc410decodeNameERKNS_8hardware8hidl_vecIhEEPNSt3__112basic_stringIcNS6_11char_traitsIcEENS6_9allocatorIcEEEE",
   "parameters" :
   [
    {
     "referenced_type" : "_ZTIRKN7android8hardware8hidl_vecIhEE"
    },
    {
     "referenced_type" : "_ZTIPNSt3__112basic_stringIcNS_11char_traitsIcEENS_9allocatorIcEEEE"
    }
   ],
   "return_type" : "_ZTIi",
   "source_file" : "/frameworks/native/libs/gralloc/types/include/gralloctypes/Gralloc4.h"
  },
  {
   "function_name" : "android::gralloc4::encodeCrop",
   "linker_set_key" : "_ZN7android8gralloc410encodeCropERKNSt3__16vectorIN4aidl7android8hardware8graphics6common4RectENS1_9allocatorIS8_EEEEPNS_8hardware8hidl_vecIhEE",
   "parameters" :
   [
    {
     "referenced_type" : "_ZTIRKNSt3__16vectorIN4aidl7android8hardware8graphics6common4RectENS_9allocatorIS6_EEEE"
    },
    {
     "referenced_type" : "_ZTIPN7android8hardware8hidl_vecIhEE"
    }
   ],
   "return_type" : "_ZTIi",
   "source_file" : "/frameworks/native/libs/gralloc/types/include/gralloctypes/Gralloc4.h"
  },
  {
   "function_name" : "android::gralloc4::encodeName",
   "linker_set_key" : "_ZN7android8gralloc410encodeNameERKNSt3__112basic_stringIcNS1_11char_traitsIcEENS1_9allocatorIcEEEEPNS_8hardware8hidl_vecIhEE",
   "parameters" :
   [
    {
     "referenced_type" : "_ZTIRKNSt3__112basic_stringIcNS_11char_traitsIcEENS_9allocatorIcEEEE"
    },
    {
     "referenced_type" : "_ZTIPN7android8hardware8hidl_vecIhEE"
    }
   ],
   "return_type" : "_ZTIi",
   "source_file" : "/frameworks/native/libs/gralloc/types/include/gralloctypes/Gralloc4.h"
  },
  {
   "function_name" : "android::gralloc4::decodeFloat",
   "linker_set_key" : "_ZN7android8gralloc411decodeFloatERKNS_8hardware8graphics6mapper4V4_07IMapper12MetadataTypeERKNS1_8hidl_vecIhEEPf",
   "parameters" :
   [
    {
     "referenced_type" : "_ZTIRKN7android8hardware8graphics6mapper4V4_07IMapper12MetadataTypeE"
    },
    {
     "referenced_type" : "_ZTIRKN7android8hardware8hidl_vecIhEE"
    },
    {
     "referenced_type" : "_ZTIPf"
    }
   ],
   "return_type" : "_ZTIi",
   "source_file" : "/frameworks/native/libs/gralloc/types/include/gralloctypes/Gralloc4.h"
  },
  {
   "function_name" : "android::gralloc4::decodeInt32",
   "linker_set_key" : "_ZN7android8gralloc411decodeInt32ERKNS_8hardware8graphics6mapper4V4_07IMapper12MetadataTypeERKNS1_8hidl_vecIhEEPi",
   "parameters" :
   [
    {
     "referenced_type" : "_ZTIRKN7android8hardware8graphics6mapper4V4_07IMapper12MetadataTypeE"
    },
    {
     "referenced_type" : "_ZTIRKN7android8hardware8hidl_vecIhEE"
    },
    {
     "referenced_type" : "_ZTIPi"
    }
   ],
   "return_type" : "_ZTIi",
   "source_file" : "/frameworks/native/libs/gralloc/types/include/gralloctypes/Gralloc4.h"
  },
  {
   "function_name" : "android::gralloc4::decodeInt64",
   "linker_set_key" : "_ZN7android8gralloc411decodeInt64ERKNS_8hardware8graphics6mapper4V4_07IMapper12MetadataTypeERKNS1_8hidl_vecIhEEPx",
   "parameters" :
   [
    {
     "referenced_type" : "_ZTIRKN7android8hardware8graphics6mapper4V4_07IMapper12MetadataTypeE"
    },
    {
     "referenced_type" : "_ZTIRKN7android8hardware8hidl_vecIhEE"
    },
    {
     "referenced_type" : "_ZTIPx"
    }
   ],
   "return_type" : "_ZTIi",
   "source_file" : "/frameworks/native/libs/gralloc/types/include/gralloctypes/Gralloc4.h"
  },
  {
   "function_name" : "android::gralloc4::decodeUsage",
   "linker_set_key" : "_ZN7android8gralloc411decodeUsageERKNS_8hardware8hidl_vecIhEEPy",
   "parameters" :
   [
    {
     "referenced_type" : "_ZTIRKN7android8hardware8hidl_vecIhEE"
    },
    {
     "referenced_type" : "_ZTIPy"
    }
   ],
   "return_type" : "_ZTIi",
   "source_file" : "/frameworks/native/libs/gralloc/types/include/gralloctypes/Gralloc4.h"
  },
  {
   "function_name" : "android::gralloc4::decodeWidth",
   "linker_set_key" : "_ZN7android8gralloc411decodeWidthERKNS_8hardware8hidl_vecIhEEPy",
   "parameters" :
   [
    {
     "referenced_type" : "_ZTIRKN7android8hardware8hidl_vecIhEE"
    },
    {
     "referenced_type" : "_ZTIPy"
    }
   ],
   "return_type" : "_ZTIi",
   "source_file" : "/frameworks/native/libs/gralloc/types/include/gralloctypes/Gralloc4.h"
  },
  {
   "function_name" : "android::gralloc4::encodeFloat",
   "linker_set_key" : "_ZN7android8gralloc411encodeFloatERKNS_8hardware8graphics6mapper4V4_07IMapper12MetadataTypeEfPNS1_8hidl_vecIhEE",
   "parameters" :
   [
    {
     "referenced_type" : "_ZTIRKN7android8hardware8graphics6mapper4V4_07IMapper12MetadataTypeE"
    },
    {
     "referenced_type" : "_ZTIf"
    },
    {
     "referenced_type" : "_ZTIPN7android8hardware8hidl_vecIhEE"
    }
   ],
   "return_type" : "_ZTIi",
   "source_file" : "/frameworks/native/libs/gralloc/types/include/gralloctypes/Gralloc4.h"
  },
  {
   "function_name" : "android::gralloc4::encodeInt32",
   "linker_set_key" : "_ZN7android8gralloc411encodeInt32ERKNS_8hardware8graphics6mapper4V4_07IMapper12MetadataTypeEiPNS1_8hidl_vecIhEE",
   "parameters" :
   [
    {
     "referenced_type" : "_ZTIRKN7android8hardware8graphics6mapper4V4_07IMapper12MetadataTypeE"
    },
    {
     "referenced_type" : "_ZTIi"
    },
    {
     "referenced_type" : "_ZTIPN7android8hardware8hidl_vecIhEE"
    }
   ],
   "return_type" : "_ZTIi",
   "source_file" : "/frameworks/native/libs/gralloc/types/include/gralloctypes/Gralloc4.h"
  },
  {
   "function_name" : "android::gralloc4::encodeInt64",
   "linker_set_key" : "_ZN7android8gralloc411encodeInt64ERKNS_8hardware8graphics6mapper4V4_07IMapper12MetadataTypeExPNS1_8hidl_vecIhEE",
   "parameters" :
   [
    {
     "referenced_type" : "_ZTIRKN7android8hardware8graphics6mapper4V4_07IMapper12MetadataTypeE"
    },
    {
     "referenced_type" : "_ZTIx"
    },
    {
     "referenced_type" : "_ZTIPN7android8hardware8hidl_vecIhEE"
    }
   ],
   "return_type" : "_ZTIi",
   "source_file" : "/frameworks/native/libs/gralloc/types/include/gralloctypes/Gralloc4.h"
  },
  {
   "function_name" : "android::gralloc4::encodeUsage",
   "linker_set_key" : "_ZN7android8gralloc411encodeUsageEyPNS_8hardware8hidl_vecIhEE",
   "parameters" :
   [
    {
     "referenced_type" : "_ZTIy"
    },
    {
     "referenced_type" : "_ZTIPN7android8hardware8hidl_vecIhEE"
    }
   ],
   "return_type" : "_ZTIi",
   "source_file" : "/frameworks/native/libs/gralloc/types/include/gralloctypes/Gralloc4.h"
  },
  {
   "function_name" : "android::gralloc4::encodeWidth",
   "linker_set_key" : "_ZN7android8gralloc411encodeWidthEyPNS_8hardware8hidl_vecIhEE",
   "parameters" :
   [
    {
     "referenced_type" : "_ZTIy"
    },
    {
     "referenced_type" : "_ZTIPN7android8hardware8hidl_vecIhEE"
    }
   ],
   "return_type" : "_ZTIi",
   "source_file" : "/frameworks/native/libs/gralloc/types/include/gralloctypes/Gralloc4.h"
  },
  {
   "function_name" : "android::gralloc4::decodeDouble",
   "linker_set_key" : "_ZN7android8gralloc412decodeDoubleERKNS_8hardware8graphics6mapper4V4_07IMapper12MetadataTypeERKNS1_8hidl_vecIhEEPd",
   "parameters" :
   [
    {
     "referenced_type" : "_ZTIRKN7android8hardware8graphics6mapper4V4_07IMapper12MetadataTypeE"
    },
    {
     "referenced_type" : "_ZTIRKN7android8hardware8hidl_vecIhEE"
    },
    {
     "referenced_type" : "_ZTIPd"
    }
   ],
   "return_type" : "_ZTIi",
   "source_file" : "/frameworks/native/libs/gralloc/types/include/gralloctypes/Gralloc4.h"
  },
  {
   "function_name" : "android::gralloc4::decodeHeight",
   "linker_set_key" : "_ZN7android8gralloc412decodeHeightERKNS_8hardware8hidl_vecIhEEPy",
   "parameters" :
   [
    {
     "referenced_type" : "_ZTIRKN7android8hardware8hidl_vecIhEE"
    },
    {
     "referenced_type" : "_ZTIPy"
    }
   ],
   "return_type" : "_ZTIi",
   "source_file" : "/frameworks/native/libs/gralloc/types/include/gralloctypes/Gralloc4.h"
  },
  {
   "function_name" : "android::gralloc4::decodeString",
   "linker_set_key" : "_ZN7android8gralloc412decodeStringERKNS_8hardware8graphics6mapper4V4_07IMapper12MetadataTypeERKNS1_8hidl_vecIhEEPNSt3__112basic_stringIcNSD_11char_traitsIcEENSD_9allocatorIcEEEE",
   "parameters" :
   [
    {
     "referenced_type" : "_ZTIRKN7android8hardware8graphics6mapper4V4_07IMapper12MetadataTypeE"
    },
    {
     "referenced_type" : "_ZTIRKN7android8hardware8hidl_vecIhEE"
    },
    {
     "referenced_type" : "_ZTIPNSt3__112basic_stringIcNS_11char_traitsIcEENS_9allocatorIcEEEE"
    }
   ],
   "return_type" : "_ZTIi",
   "source_file" : "/frameworks/native/libs/gralloc/types/include/gralloctypes/Gralloc4.h"
  },
  {
   "function_name" : "android::gralloc4::decodeUint32",
   "linker_set_key" : "_ZN7android8gralloc412decodeUint32ERKNS_8hardware8graphics6mapper4V4_07IMapper12MetadataTypeERKNS1_8hidl_vecIhEEPj",
   "parameters" :
   [
    {
     "referenced_type" : "_ZTIRKN7android8hardware8graphics6mapper4V4_07IMapper12MetadataTypeE"
    },
    {
     "referenced_type" : "_ZTIRKN7android8hardware8hidl_vecIhEE"
    },
    {
     "referenced_type" : "_ZTIPj"
    }
   ],
   "return_type" : "_ZTIi",
   "source_file" : "/frameworks/native/libs/gralloc/types/include/gralloctypes/Gralloc4.h"
  },
  {
   "function_name" : "android::gralloc4::decodeUint64",
   "linker_set_key" : "_ZN7android8gralloc412decodeUint64ERKNS_8hardware8graphics6mapper4V4_07IMapper12MetadataTypeERKNS1_8hidl_vecIhEEPy",
   "parameters" :
   [
    {
     "referenced_type" : "_ZTIRKN7android8hardware8graphics6mapper4V4_07IMapper12MetadataTypeE"
    },
    {
     "referenced_type" : "_ZTIRKN7android8hardware8hidl_vecIhEE"
    },
    {
     "referenced_type" : "_ZTIPy"
    }
   ],
   "return_type" : "_ZTIi",
   "source_file" : "/frameworks/native/libs/gralloc/types/include/gralloctypes/Gralloc4.h"
  },
  {
   "function_name" : "android::gralloc4::encodeDouble",
   "linker_set_key" : "_ZN7android8gralloc412encodeDoubleERKNS_8hardware8graphics6mapper4V4_07IMapper12MetadataTypeEdPNS1_8hidl_vecIhEE",
   "parameters" :
   [
    {
     "referenced_type" : "_ZTIRKN7android8hardware8graphics6mapper4V4_07IMapper12MetadataTypeE"
    },
    {
     "referenced_type" : "_ZTId"
    },
    {
     "referenced_type" : "_ZTIPN7android8hardware8hidl_vecIhEE"
    }
   ],
   "return_type" : "_ZTIi",
   "source_file" : "/frameworks/native/libs/gralloc/types/include/gralloctypes/Gralloc4.h"
  },
  {
   "function_name" : "android::gralloc4::encodeHeight",
   "linker_set_key" : "_ZN7android8gralloc412encodeHeightEyPNS_8hardware8hidl_vecIhEE",
   "parameters" :
   [
    {
     "referenced_type" : "_ZTIy"
    },
    {
     "referenced_type" : "_ZTIPN7android8hardware8hidl_vecIhEE"
    }
   ],
   "return_type" : "_ZTIi",
   "source_file" : "/frameworks/native/libs/gralloc/types/include/gralloctypes/Gralloc4.h"
  },
  {
   "function_name" : "android::gralloc4::encodeString",
   "linker_set_key" : "_ZN7android8gralloc412encodeStringERKNS_8hardware8graphics6mapper4V4_07IMapper12MetadataTypeERKNSt3__112basic_stringIcNS9_11char_traitsIcEENS9_9allocatorIcEEEEPNS1_8hidl_vecIhEE",
   "parameters" :
   [
    {
     "referenced_type" : "_ZTIRKN7android8hardware8graphics6mapper4V4_07IMapper12MetadataTypeE"
    },
    {
     "referenced_type" : "_ZTIRKNSt3__112basic_stringIcNS_11char_traitsIcEENS_9allocatorIcEEEE"
    },
    {
     "referenced_type" : "_ZTIPN7android8hardware8hidl_vecIhEE"
    }
   ],
   "return_type" : "_ZTIi",
   "source_file" : "/frameworks/native/libs/gralloc/types/include/gralloctypes/Gralloc4.h"
  },
  {
   "function_name" : "android::gralloc4::encodeUint32",
   "linker_set_key" : "_ZN7android8gralloc412encodeUint32ERKNS_8hardware8graphics6mapper4V4_07IMapper12MetadataTypeEjPNS1_8hidl_vecIhEE",
   "parameters" :
   [
    {
     "referenced_type" : "_ZTIRKN7android8hardware8graphics6mapper4V4_07IMapper12MetadataTypeE"
    },
    {
     "referenced_type" : "_ZTIj"
    },
    {
     "referenced_type" : "_ZTIPN7android8hardware8hidl_vecIhEE"
    }
   ],
   "return_type" : "_ZTIi",
   "source_file" : "/frameworks/native/libs/gralloc/types/include/gralloctypes/Gralloc4.h"
  },
  {
   "function_name" : "android::gralloc4::encodeUint64",
   "linker_set_key" : "_ZN7android8gralloc412encodeUint64ERKNS_8hardware8graphics6mapper4V4_07IMapper12MetadataTypeEyPNS1_8hidl_vecIhEE",
   "parameters" :
   [
    {
     "referenced_type" : "_ZTIRKN7android8hardware8graphics6mapper4V4_07IMapper12MetadataTypeE"
    },
    {
     "referenced_type" : "_ZTIy"
    },
    {
     "referenced_type" : "_ZTIPN7android8hardware8hidl_vecIhEE"
    }
   ],
   "return_type" : "_ZTIi",
   "source_file" : "/frameworks/native/libs/gralloc/types/include/gralloctypes/Gralloc4.h"
  },
  {
   "function_name" : "android::gralloc4::decodeBufferId",
   "linker_set_key" : "_ZN7android8gralloc414decodeBufferIdERKNS_8hardware8hidl_vecIhEEPy",
   "parameters" :
   [
    {
     "referenced_type" : "_ZTIRKN7android8hardware8hidl_vecIhEE"
    },
    {
     "referenced_type" : "_ZTIPy"
    }
   ],
   "return_type" : "_ZTIi",
   "source_file" : "/frameworks/native/libs/gralloc/types/include/gralloctypes/Gralloc4.h"
  },
  {
   "function_name" : "android::gralloc4::decodeCta861_3",
   "linker_set_key" : "_ZN7android8gralloc414decodeCta861_3ERKNS_8hardware8hidl_vecIhEEPNSt3__18optionalIN4aidl7android8hardware8graphics6common8Cta861_3EEE",
   "parameters" :
   [
    {
     "referenced_type" : "_ZTIRKN7android8hardware8hidl_vecIhEE"
    },
    {
     "referenced_type" : "_ZTIPNSt3__18optionalIN4aidl7android8hardware8graphics6common8Cta861_3EEE"
    }
   ],
   "return_type" : "_ZTIi",
   "source_file" : "/frameworks/native/libs/gralloc/types/include/gralloctypes/Gralloc4.h"
  },
  {
   "function_name" : "android::gralloc4::encodeBufferId",
   "linker_set_key" : "_ZN7android8gralloc414encodeBufferIdEyPNS_8hardware8hidl_vecIhEE",
   "parameters" :
   [
    {
     "referenced_type" : "_ZTIy"
    },
    {
     "referenced_type" : "_ZTIPN7android8hardware8hidl_vecIhEE"
    }
   ],
   "return_type" : "_ZTIi",
   "source_file" : "/frameworks/native/libs/gralloc/types/include/gralloctypes/Gralloc4.h"
  },
  {
   "function_name" : "android::gralloc4::encodeCta861_3",
   "linker_set_key" : "_ZN7android8gralloc414encodeCta861_3ERKNSt3__18optionalIN4aidl7android8hardware8graphics6common8Cta861_3EEEPNS_8hardware8hidl_vecIhEE",
   "parameters" :
   [
    {
     "referenced_type" : "_ZTIRKNSt3__18optionalIN4aidl7android8hardware8graphics6common8Cta861_3EEE"
    },
    {
     "referenced_type" : "_ZTIPN7android8hardware8hidl_vecIhEE"
    }
   ],
   "return_type" : "_ZTIi",
   "source_file" : "/frameworks/native/libs/gralloc/types/include/gralloctypes/Gralloc4.h"
  },
  {
   "function_name" : "android::gralloc4::decodeBlendMode",
   "linker_set_key" : "_ZN7android8gralloc415decodeBlendModeERKNS_8hardware8hidl_vecIhEEPN4aidl7android8hardware8graphics6common9BlendModeE",
   "parameters" :
   [
    {
     "referenced_type" : "_ZTIRKN7android8hardware8hidl_vecIhEE"
    },
    {
     "referenced_type" : "_ZTIPN4aidl7android8hardware8graphics6common9BlendModeE"
    }
   ],
   "return_type" : "_ZTIi",
   "source_file" : "/frameworks/native/libs/gralloc/types/include/gralloctypes/Gralloc4.h"
  },
  {
   "function_name" : "android::gralloc4::decodeDataspace",
   "linker_set_key" : "_ZN7android8gralloc415decodeDataspaceERKNS_8hardware8hidl_vecIhEEPN4aidl7android8hardware8graphics6common9DataspaceE",
   "parameters" :
   [
    {
     "referenced_type" : "_ZTIRKN7android8hardware8hidl_vecIhEE"
    },
    {
     "referenced_type" : "_ZTIPN4aidl7android8hardware8graphics6common9DataspaceE"
    }
   ],
   "return_type" : "_ZTIi",
   "source_file" : "/frameworks/native/libs/gralloc/types/include/gralloctypes/Gralloc4.h"
  },
  {
   "function_name" : "android::gralloc4::decodeSmpte2086",
   "linker_set_key" : "_ZN7android8gralloc415decodeSmpte2086ERKNS_8hardware8hidl_vecIhEEPNSt3__18optionalIN4aidl7android8hardware8graphics6common9Smpte2086EEE",
   "parameters" :
   [
    {
     "referenced_type" : "_ZTIRKN7android8hardware8hidl_vecIhEE"
    },
    {
     "referenced_type" : "_ZTIPNSt3__18optionalIN4aidl7android8hardware8graphics6common9Smpte2086EEE"
    }
   ],
   "return_type" : "_ZTIi",
   "source_file" : "/frameworks/native/libs/gralloc/types/include/gralloctypes/Gralloc4.h"
  },
  {
   "function_name" : "android::gralloc4::encodeBlendMode",
   "linker_set_key" : "_ZN7android8gralloc415encodeBlendModeERKN4aidl7android8hardware8graphics6common9BlendModeEPNS_8hardware8hidl_vecIhEE",
   "parameters" :
   [
    {
     "referenced_type" : "_ZTIRKN4aidl7android8hardware8graphics6common9BlendModeE"
    },
    {
     "referenced_type" : "_ZTIPN7android8hardware8hidl_vecIhEE"
    }
   ],
   "return_type" : "_ZTIi",
   "source_file" : "/frameworks/native/libs/gralloc/types/include/gralloctypes/Gralloc4.h"
  },
  {
   "function_name" : "android::gralloc4::encodeDataspace",
   "linker_set_key" : "_ZN7android8gralloc415encodeDataspaceERKN4aidl7android8hardware8graphics6common9DataspaceEPNS_8hardware8hidl_vecIhEE",
   "parameters" :
   [
    {
     "referenced_type" : "_ZTIRKN4aidl7android8hardware8graphics6common9DataspaceE"
    },
    {
     "referenced_type" : "_ZTIPN7android8hardware8hidl_vecIhEE"
    }
   ],
   "return_type" : "_ZTIi",
   "source_file" : "/frameworks/native/libs/gralloc/types/include/gralloctypes/Gralloc4.h"
  },
  {
   "function_name" : "android::gralloc4::encodeSmpte2086",
   "linker_set_key" : "_ZN7android8gralloc415encodeSmpte2086ERKNSt3__18optionalIN4aidl7android8hardware8graphics6common9Smpte2086EEEPNS_8hardware8hidl_vecIhEE",
   "parameters" :
   [
    {
     "referenced_type" : "_ZTIRKNSt3__18optionalIN4aidl7android8hardware8graphics6common9Smpte2086EEE"
    },
    {
     "referenced_type" : "_ZTIPN7android8hardware8hidl_vecIhEE"
    }
   ],
   "return_type" : "_ZTIi",
   "source_file" : "/frameworks/native/libs/gralloc/types/include/gralloctypes/Gralloc4.h"
  },
  {
   "function_name" : "android::gralloc4::decodeInterlaced",
   "linker_set_key" : "_ZN7android8gralloc416decodeInterlacedERKNS_8hardware8hidl_vecIhEEPN4aidl7android8hardware8graphics6common14ExtendableTypeE",
   "parameters" :
   [
    {
     "referenced_type" : "_ZTIRKN7android8hardware8hidl_vecIhEE"
    },
    {
     "referenced_type" : "_ZTIPN4aidl7android8hardware8graphics6common14ExtendableTypeE"
    }
   ],
   "return_type" : "_ZTIi",
   "source_file" : "/frameworks/native/libs/gralloc/types/include/gralloctypes/Gralloc4.h"
  },
  {
   "function_name" : "android::gralloc4::decodeLayerCount",
   "linker_set_key" : "_ZN7android8gralloc416decodeLayerCountERKNS_8hardware8hidl_vecIhEEPy",
   "parameters" :
   [
    {
     "referenced_type" : "_ZTIRKN7android8hardware8hidl_vecIhEE"
    },
    {
     "referenced_type" : "_ZTIPy"
    }
   ],
   "return_type" : "_ZTIi",
   "source_file" : "/frameworks/native/libs/gralloc/types/include/gralloctypes/Gralloc4.h"
  },
  {
   "function_name" : "android::gralloc4::encodeInterlaced",
   "linker_set_key" : "_ZN7android8gralloc416encodeInterlacedERKN4aidl7android8hardware8graphics6common14ExtendableTypeEPNS_8hardware8hidl_vecIhEE",
   "parameters" :
   [
    {
     "referenced_type" : "_ZTIRKN4aidl7android8hardware8graphics6common14ExtendableTypeE"
    },
    {
     "referenced_type" : "_ZTIPN7android8hardware8hidl_vecIhEE"
    }
   ],
   "return_type" : "_ZTIi",
   "source_file" : "/frameworks/native/libs/gralloc/types/include/gralloctypes/Gralloc4.h"
  },
  {
   "function_name" : "android::gralloc4::encodeLayerCount",
   "linker_set_key" : "_ZN7android8gralloc416encodeLayerCountEyPNS_8hardware8hidl_vecIhEE",
   "parameters" :
   [
    {
     "referenced_type" : "_ZTIy"
    },
    {
     "referenced_type" : "_ZTIPN7android8hardware8hidl_vecIhEE"
    }
   ],
   "return_type" : "_ZTIi",
   "source_file" : "/frameworks/native/libs/gralloc/types/include/gralloctypes/Gralloc4.h"
  },
  {
   "function_name" : "android::gralloc4::decodeCompression",
   "linker_set_key" : "_ZN7android8gralloc417decodeCompressionERKNS_8hardware8hidl_vecIhEEPN4aidl7android8hardware8graphics6common14ExtendableTypeE",
   "parameters" :
   [
    {
     "referenced_type" : "_ZTIRKN7android8hardware8hidl_vecIhEE"
    },
    {
     "referenced_type" : "_ZTIPN4aidl7android8hardware8graphics6common14ExtendableTypeE"
    }
   ],
   "return_type" : "_ZTIi",
   "source_file" : "/frameworks/native/libs/gralloc/types/include/gralloctypes/Gralloc4.h"
  },
  {
   "function_name" : "android::gralloc4::encodeCompression",
   "linker_set_key" : "_ZN7android8gralloc417encodeCompressionERKN4aidl7android8hardware8graphics6common14ExtendableTypeEPNS_8hardware8hidl_vecIhEE",
   "parameters" :
   [
    {
     "referenced_type" : "_ZTIRKN4aidl7android8hardware8graphics6common14ExtendableTypeE"
    },
    {
     "referenced_type" : "_ZTIPN7android8hardware8hidl_vecIhEE"
    }
   ],
   "return_type" : "_ZTIi",
   "source_file" : "/frameworks/native/libs/gralloc/types/include/gralloctypes/Gralloc4.h"
  },
  {
   "function_name" : "android::gralloc4::getInterlacedName",
   "linker_set_key" : "_ZN7android8gralloc417getInterlacedNameERKN4aidl7android8hardware8graphics6common14ExtendableTypeE",
   "parameters" :
   [
    {
     "referenced_type" : "_ZTIRKN4aidl7android8hardware8graphics6common14ExtendableTypeE"
    }
   ],
   "return_type" : "_ZTINSt3__112basic_stringIcNS_11char_traitsIcEENS_9allocatorIcEEEE",
   "source_file" : "/frameworks/native/libs/gralloc/types/include/gralloctypes/Gralloc4.h"
  },
  {
   "function_name" : "android::gralloc4::decodeChromaSiting",
   "linker_set_key" : "_ZN7android8gralloc418decodeChromaSitingERKNS_8hardware8hidl_vecIhEEPN4aidl7android8hardware8graphics6common14ExtendableTypeE",
   "parameters" :
   [
    {
     "referenced_type" : "_ZTIRKN7android8hardware8hidl_vecIhEE"
    },
    {
     "referenced_type" : "_ZTIPN4aidl7android8hardware8graphics6common14ExtendableTypeE"
    }
   ],
   "return_type" : "_ZTIi",
   "source_file" : "/frameworks/native/libs/gralloc/types/include/gralloctypes/Gralloc4.h"
  },
  {
   "function_name" : "android::gralloc4::decodePlaneLayouts",
   "linker_set_key" : "_ZN7android8gralloc418decodePlaneLayoutsERKNS_8hardware8hidl_vecIhEEPNSt3__16vectorIN4aidl7android8hardware8graphics6common11PlaneLayoutENS6_9allocatorISD_EEEE",
   "parameters" :
   [
    {
     "referenced_type" : "_ZTIRKN7android8hardware8hidl_vecIhEE"
    },
    {
     "referenced_type" : "_ZTIPNSt3__16vectorIN4aidl7android8hardware8graphics6common11PlaneLayoutENS_9allocatorIS6_EEEE"
    }
   ],
   "return_type" : "_ZTIi",
   "source_file" : "/frameworks/native/libs/gralloc/types/include/gralloctypes/Gralloc4.h"
  },
  {
   "function_name" : "android::gralloc4::decodeSmpte2094_40",
   "linker_set_key" : "_ZN7android8gralloc418decodeSmpte2094_40ERKNS_8hardware8hidl_vecIhEEPNSt3__18optionalINS6_6vectorIhNS6_9allocatorIhEEEEEE",
   "parameters" :
   [
    {
     "referenced_type" : "_ZTIRKN7android8hardware8hidl_vecIhEE"
    },
    {
     "referenced_type" : "_ZTIPNSt3__18optionalINS_6vectorIhNS_9allocatorIhEEEEEE"
    }
   ],
   "return_type" : "_ZTIi",
   "source_file" : "/frameworks/native/libs/gralloc/types/include/gralloctypes/Gralloc4.h"
  },
  {
   "function_name" : "android::gralloc4::encodeChromaSiting",
   "linker_set_key" : "_ZN7android8gralloc418encodeChromaSitingERKN4aidl7android8hardware8graphics6common14ExtendableTypeEPNS_8hardware8hidl_vecIhEE",
   "parameters" :
   [
    {
     "referenced_type" : "_ZTIRKN4aidl7android8hardware8graphics6common14ExtendableTypeE"
    },
    {
     "referenced_type" : "_ZTIPN7android8hardware8hidl_vecIhEE"
    }
   ],
   "return_type" : "_ZTIi",
   "source_file" : "/frameworks/native/libs/gralloc/types/include/gralloctypes/Gralloc4.h"
  },
  {
   "function_name" : "android::gralloc4::encodePlaneLayouts",
   "linker_set_key" : "_ZN7android8gralloc418encodePlaneLayoutsERKNSt3__16vectorIN4aidl7android8hardware8graphics6common11PlaneLayoutENS1_9allocatorIS8_EEEEPNS_8hardware8hidl_vecIhEE",
   "parameters" :
   [
    {
     "referenced_type" : "_ZTIRKNSt3__16vectorIN4aidl7android8hardware8graphics6common11PlaneLayoutENS_9allocatorIS6_EEEE"
    },
    {
     "referenced_type" : "_ZTIPN7android8hardware8hidl_vecIhEE"
    }
   ],
   "return_type" : "_ZTIi",
   "source_file" : "/frameworks/native/libs/gralloc/types/include/gralloctypes/Gralloc4.h"
  },
  {
   "function_name" : "android::gralloc4::encodeSmpte2094_40",
   "linker_set_key" : "_ZN7android8gralloc418encodeSmpte2094_40ERKNSt3__18optionalINS1_6vectorIhNS1_9allocatorIhEEEEEEPNS_8hardware8hidl_vecIhEE",
   "parameters" :
   [
    {
     "referenced_type" : "_ZTIRKNSt3__18optionalINS_6vectorIhNS_9allocatorIhEEEEEE"
    },
    {
     "referenced_type" : "_ZTIPN7android8hardware8hidl_vecIhEE"
    }
   ],
   "return_type" : "_ZTIi",
   "source_file" : "/frameworks/native/libs/gralloc/types/include/gralloctypes/Gralloc4.h"
  },
  {
   "function_name" : "android::gralloc4::getCompressionName",
   "linker_set_key" : "_ZN7android8gralloc418getCompressionNameERKN4aidl7android8hardware8graphics6common14ExtendableTypeE",
   "parameters" :
   [
    {
     "referenced_type" : "_ZTIRKN4aidl7android8hardware8graphics6common14ExtendableTypeE"
    }
   ],
   "return_type" : "_ZTINSt3__112basic_stringIcNS_11char_traitsIcEENS_9allocatorIcEEEE",
   "source_file" : "/frameworks/native/libs/gralloc/types/include/gralloctypes/Gralloc4.h"
  },
  {
   "function_name" : "android::gralloc4::getChromaSitingName",
   "linker_set_key" : "_ZN7android8gralloc419getChromaSitingNameERKN4aidl7android8hardware8graphics6common14ExtendableTypeE",
   "parameters" :
   [
    {
     "referenced_type" : "_ZTIRKN4aidl7android8hardware8graphics6common14ExtendableTypeE"
    }
   ],
   "return_type" : "_ZTINSt3__112basic_stringIcNS_11char_traitsIcEENS_9allocatorIcEEEE",
   "source_file" : "/frameworks/native/libs/gralloc/types/include/gralloctypes/Gralloc4.h"
  },
  {
   "function_name" : "android::gralloc4::decodeAllocationSize",
   "linker_set_key" : "_ZN7android8gralloc420decodeAllocationSizeERKNS_8hardware8hidl_vecIhEEPy",
   "parameters" :
   [
    {
     "referenced_type" : "_ZTIRKN7android8hardware8hidl_vecIhEE"
    },
    {
     "referenced_type" : "_ZTIPy"
    }
   ],
   "return_type" : "_ZTIi",
   "source_file" : "/frameworks/native/libs/gralloc/types/include/gralloctypes/Gralloc4.h"
  },
  {
   "function_name" : "android::gralloc4::encodeAllocationSize",
   "linker_set_key" : "_ZN7android8gralloc420encodeAllocationSizeEyPNS_8hardware8hidl_vecIhEE",
   "parameters" :
   [
    {
     "referenced_type" : "_ZTIy"
    },
    {
     "referenced_type" : "_ZTIPN7android8hardware8hidl_vecIhEE"
    }
   ],
   "return_type" : "_ZTIi",
   "source_file" : "/frameworks/native/libs/gralloc/types/include/gralloctypes/Gralloc4.h"
  },
  {
   "function_name" : "android::gralloc4::isStandardInterlaced",
   "linker_set_key" : "_ZN7android8gralloc420isStandardInterlacedERKN4aidl7android8hardware8graphics6common14ExtendableTypeE",
   "parameters" :
   [
    {
     "referenced_type" : "_ZTIRKN4aidl7android8hardware8graphics6common14ExtendableTypeE"
    }
   ],
   "return_type" : "_ZTIb",
   "source_file" : "/frameworks/native/libs/gralloc/types/include/gralloctypes/Gralloc4.h"
  },
  {
   "function_name" : "android::gralloc4::isStandardCompression",
   "linker_set_key" : "_ZN7android8gralloc421isStandardCompressionERKN4aidl7android8hardware8graphics6common14ExtendableTypeE",
   "parameters" :
   [
    {
     "referenced_type" : "_ZTIRKN4aidl7android8hardware8graphics6common14ExtendableTypeE"
    }
   ],
   "return_type" : "_ZTIb",
   "source_file" : "/frameworks/native/libs/gralloc/types/include/gralloctypes/Gralloc4.h"
  },
  {
   "function_name" : "android::gralloc4::decodeProtectedContent",
   "linker_set_key" : "_ZN7android8gralloc422decodeProtectedContentERKNS_8hardware8hidl_vecIhEEPy",
   "parameters" :
   [
    {
     "referenced_type" : "_ZTIRKN7android8hardware8hidl_vecIhEE"
    },
    {
     "referenced_type" : "_ZTIPy"
    }
   ],
   "return_type" : "_ZTIi",
   "source_file" : "/frameworks/native/libs/gralloc/types/include/gralloctypes/Gralloc4.h"
  },
  {
   "function_name" : "android::gralloc4::encodeProtectedContent",
   "linker_set_key" : "_ZN7android8gralloc422encodeProtectedContentEyPNS_8hardware8hidl_vecIhEE",
   "parameters" :
   [
    {
     "referenced_type" : "_ZTIy"
    },
    {
     "referenced_type" : "_ZTIPN7android8hardware8hidl_vecIhEE"
    }
   ],
   "return_type" : "_ZTIi",
   "source_file" : "/frameworks/native/libs/gralloc/types/include/gralloctypes/Gralloc4.h"
  },
  {
   "function_name" : "android::gralloc4::isStandardChromaSiting",
   "linker_set_key" : "_ZN7android8gralloc422isStandardChromaSitingERKN4aidl7android8hardware8graphics6common14ExtendableTypeE",
   "parameters" :
   [
    {
     "referenced_type" : "_ZTIRKN4aidl7android8hardware8graphics6common14ExtendableTypeE"
    }
   ],
   "return_type" : "_ZTIb",
   "source_file" : "/frameworks/native/libs/gralloc/types/include/gralloctypes/Gralloc4.h"
  },
  {
   "function_name" : "android::gralloc4::isStandardMetadataType",
   "linker_set_key" : "_ZN7android8gralloc422isStandardMetadataTypeERKNS_8hardware8graphics6mapper4V4_07IMapper12MetadataTypeE",
   "parameters" :
   [
    {
     "referenced_type" : "_ZTIRKN7android8hardware8graphics6mapper4V4_07IMapper12MetadataTypeE"
    }
   ],
   "return_type" : "_ZTIb",
   "source_file" : "/frameworks/native/libs/gralloc/types/include/gralloctypes/Gralloc4.h"
  },
  {
   "function_name" : "android::gralloc4::decodePixelFormatFourCC",
   "linker_set_key" : "_ZN7android8gralloc423decodePixelFormatFourCCERKNS_8hardware8hidl_vecIhEEPj",
   "parameters" :
   [
    {
     "referenced_type" : "_ZTIRKN7android8hardware8hidl_vecIhEE"
    },
    {
     "referenced_type" : "_ZTIPj"
    }
   ],
   "return_type" : "_ZTIi",
   "source_file" : "/frameworks/native/libs/gralloc/types/include/gralloctypes/Gralloc4.h"
  },
  {
   "function_name" : "android::gralloc4::encodePixelFormatFourCC",
   "linker_set_key" : "_ZN7android8gralloc423encodePixelFormatFourCCEjPNS_8hardware8hidl_vecIhEE",
   "parameters" :
   [
    {
     "referenced_type" : "_ZTIj"
    },
    {
     "referenced_type" : "_ZTIPN7android8hardware8hidl_vecIhEE"
    }
   ],
   "return_type" : "_ZTIi",
   "source_file" : "/frameworks/native/libs/gralloc/types/include/gralloctypes/Gralloc4.h"
  },
  {
   "function_name" : "android::gralloc4::decodePixelFormatModifier",
   "linker_set_key" : "_ZN7android8gralloc425decodePixelFormatModifierERKNS_8hardware8hidl_vecIhEEPy",
   "parameters" :
   [
    {
     "referenced_type" : "_ZTIRKN7android8hardware8hidl_vecIhEE"
    },
    {
     "referenced_type" : "_ZTIPy"
    }
   ],
   "return_type" : "_ZTIi",
   "source_file" : "/frameworks/native/libs/gralloc/types/include/gralloctypes/Gralloc4.h"
  },
  {
   "function_name" : "android::gralloc4::encodePixelFormatModifier",
   "linker_set_key" : "_ZN7android8gralloc425encodePixelFormatModifierEyPNS_8hardware8hidl_vecIhEE",
   "parameters" :
   [
    {
     "referenced_type" : "_ZTIy"
    },
    {
     "referenced_type" : "_ZTIPN7android8hardware8hidl_vecIhEE"
    }
   ],
   "return_type" : "_ZTIi",
   "source_file" : "/frameworks/native/libs/gralloc/types/include/gralloctypes/Gralloc4.h"
  },
  {
   "function_name" : "android::gralloc4::decodeBufferDescriptorInfo",
   "linker_set_key" : "_ZN7android8gralloc426decodeBufferDescriptorInfoERKNS_8hardware8hidl_vecIhEEPNS1_8graphics6mapper4V4_07IMapper20BufferDescriptorInfoE",
   "parameters" :
   [
    {
     "referenced_type" : "_ZTIRKN7android8hardware8hidl_vecIhEE"
    },
    {
     "referenced_type" : "_ZTIPN7android8hardware8graphics6mapper4V4_07IMapper20BufferDescriptorInfoE"
    }
   ],
   "return_type" : "_ZTIi",
   "source_file" : "/frameworks/native/libs/gralloc/types/include/gralloctypes/Gralloc4.h"
  },
  {
   "function_name" : "android::gralloc4::decodePixelFormatRequested",
   "linker_set_key" : "_ZN7android8gralloc426decodePixelFormatRequestedERKNS_8hardware8hidl_vecIhEEPNS1_8graphics6common4V1_211PixelFormatE",
   "parameters" :
   [
    {
     "referenced_type" : "_ZTIRKN7android8hardware8hidl_vecIhEE"
    },
    {
     "referenced_type" : "_ZTIPN7android8hardware8graphics6common4V1_211PixelFormatE"
    }
   ],
   "return_type" : "_ZTIi",
   "source_file" : "/frameworks/native/libs/gralloc/types/include/gralloctypes/Gralloc4.h"
  },
  {
   "function_name" : "android::gralloc4::encodeBufferDescriptorInfo",
   "linker_set_key" : "_ZN7android8gralloc426encodeBufferDescriptorInfoERKNS_8hardware8graphics6mapper4V4_07IMapper20BufferDescriptorInfoEPNS1_8hidl_vecIhEE",
   "parameters" :
   [
    {
     "referenced_type" : "_ZTIRKN7android8hardware8graphics6mapper4V4_07IMapper20BufferDescriptorInfoE"
    },
    {
     "referenced_type" : "_ZTIPN7android8hardware8hidl_vecIhEE"
    }
   ],
   "return_type" : "_ZTIi",
   "source_file" : "/frameworks/native/libs/gralloc/types/include/gralloctypes/Gralloc4.h"
  },
  {
   "function_name" : "android::gralloc4::encodePixelFormatRequested",
   "linker_set_key" : "_ZN7android8gralloc426encodePixelFormatRequestedERKNS_8hardware8graphics6common4V1_211PixelFormatEPNS1_8hidl_vecIhEE",
   "parameters" :
   [
    {
     "referenced_type" : "_ZTIRKN7android8hardware8graphics6common4V1_211PixelFormatE"
    },
    {
     "referenced_type" : "_ZTIPN7android8hardware8hidl_vecIhEE"
    }
   ],
   "return_type" : "_ZTIi",
   "source_file" : "/frameworks/native/libs/gralloc/types/include/gralloctypes/Gralloc4.h"
  },
  {
   "function_name" : "android::gralloc4::getStandardInterlacedValue",
   "linker_set_key" : "_ZN7android8gralloc426getStandardInterlacedValueERKN4aidl7android8hardware8graphics6common14ExtendableTypeE",
   "parameters" :
   [
    {
     "referenced_type" : "_ZTIRKN4aidl7android8hardware8graphics6common14ExtendableTypeE"
    }
   ],
   "return_type" : "_ZTIN4aidl7android8hardware8graphics6common10InterlacedE",
   "source_file" : "/frameworks/native/libs/gralloc/types/include/gralloctypes/Gralloc4.h"
  },
  {
   "function_name" : "android::gralloc4::getStandardCompressionValue",
   "linker_set_key" : "_ZN7android8gralloc427getStandardCompressionValueERKN4aidl7android8hardware8graphics6common14ExtendableTypeE",
   "parameters" :
   [
    {
     "referenced_type" : "_ZTIRKN4aidl7android8hardware8graphics6common14ExtendableTypeE"
    }
   ],
   "return_type" : "_ZTIN4aidl7android8hardware8graphics6common11CompressionE",
   "source_file" : "/frameworks/native/libs/gralloc/types/include/gralloctypes/Gralloc4.h"
  },
  {
   "function_name" : "android::gralloc4::getStandardChromaSitingValue",
   "linker_set_key" : "_ZN7android8gralloc428getStandardChromaSitingValueERKN4aidl7android8hardware8graphics6common14ExtendableTypeE",
   "parameters" :
   [
    {
     "referenced_type" : "_ZTIRKN4aidl7android8hardware8graphics6common14ExtendableTypeE"
    }
   ],
   "return_type" : "_ZTIN4aidl7android8hardware8graphics6common12ChromaSitingE",
   "source_file" : "/frameworks/native/libs/gralloc/types/include/gralloctypes/Gralloc4.h"
  },
  {
   "function_name" : "android::gralloc4::getStandardMetadataTypeValue",
   "linker_set_key" : "_ZN7android8gralloc428getStandardMetadataTypeValueERKNS_8hardware8graphics6mapper4V4_07IMapper12MetadataTypeE",
   "parameters" :
   [
    {
     "referenced_type" : "_ZTIRKN7android8hardware8graphics6mapper4V4_07IMapper12MetadataTypeE"
    }
   ],
   "return_type" : "_ZTIN4aidl7android8hardware8graphics6common20StandardMetadataTypeE",
   "source_file" : "/frameworks/native/libs/gralloc/types/include/gralloctypes/Gralloc4.h"
  },
  {
   "function_name" : "android::gralloc4::getPlaneLayoutComponentTypeName",
   "linker_set_key" : "_ZN7android8gralloc431getPlaneLayoutComponentTypeNameERKN4aidl7android8hardware8graphics6common14ExtendableTypeE",
   "parameters" :
   [
    {
     "referenced_type" : "_ZTIRKN4aidl7android8hardware8graphics6common14ExtendableTypeE"
    }
   ],
   "return_type" : "_ZTINSt3__112basic_stringIcNS_11char_traitsIcEENS_9allocatorIcEEEE",
   "source_file" : "/frameworks/native/libs/gralloc/types/include/gralloctypes/Gralloc4.h"
  },
  {
   "function_name" : "android::gralloc4::isStandardPlaneLayoutComponentType",
   "linker_set_key" : "_ZN7android8gralloc434isStandardPlaneLayoutComponentTypeERKN4aidl7android8hardware8graphics6common14ExtendableTypeE",
   "parameters" :
   [
    {
     "referenced_type" : "_ZTIRKN4aidl7android8hardware8graphics6common14ExtendableTypeE"
    }
   ],
   "return_type" : "_ZTIb",
   "source_file" : "/frameworks/native/libs/gralloc/types/include/gralloctypes/Gralloc4.h"
  },
  {
   "function_name" : "android::gralloc4::getStandardPlaneLayoutComponentTypeValue",
   "linker_set_key" : "_ZN7android8gralloc440getStandardPlaneLayoutComponentTypeValueERKN4aidl7android8hardware8graphics6common14ExtendableTypeE",
   "parameters" :
   [
    {
     "referenced_type" : "_ZTIRKN4aidl7android8hardware8graphics6common14ExtendableTypeE"
    }
   ],
   "return_type" : "_ZTIN4aidl7android8hardware8graphics6common24PlaneLayoutComponentTypeE",
   "source_file" : "/frameworks/native/libs/gralloc/types/include/gralloctypes/Gralloc4.h"
  }
 ],
 "global_vars" : [],
 "lvalue_reference_types" :
 [
  {
   "alignment" : 4,
   "linker_set_key" : "_ZTIRK7log_msg",
   "name" : "const log_msg &",
   "referenced_type" : "_ZTIK7log_msg",
   "self_type" : "_ZTIRK7log_msg",
   "size" : 4,
   "source_file" : "/system/core/liblog/include/log/log_read.h"
  },
  {
   "alignment" : 4,
   "linker_set_key" : "_ZTIRKN3ndk10SpAIBinderE",
   "name" : "const ndk::SpAIBinder &",
   "referenced_type" : "_ZTIKN3ndk10SpAIBinderE",
   "self_type" : "_ZTIRKN3ndk10SpAIBinderE",
   "size" : 4,
   "source_file" : "/frameworks/native/libs/binder/ndk/include_ndk/android/binder_auto_utils.h"
  },
  {
   "alignment" : 4,
   "linker_set_key" : "_ZTIRKN4aidl7android8hardware8graphics6common11PlaneLayoutE",
   "name" : "const aidl::android::hardware::graphics::common::PlaneLayout &",
   "referenced_type" : "_ZTIKN4aidl7android8hardware8graphics6common11PlaneLayoutE",
   "self_type" : "_ZTIRKN4aidl7android8hardware8graphics6common11PlaneLayoutE",
   "size" : 4,
   "source_file" : "/frameworks/native/libs/gralloc/types/include/gralloctypes/Gralloc4.h"
  },
  {
   "alignment" : 4,
   "linker_set_key" : "_ZTIRKN4aidl7android8hardware8graphics6common14ExtendableTypeE",
   "name" : "const aidl::android::hardware::graphics::common::ExtendableType &",
   "referenced_type" : "_ZTIKN4aidl7android8hardware8graphics6common14ExtendableTypeE",
   "self_type" : "_ZTIRKN4aidl7android8hardware8graphics6common14ExtendableTypeE",
   "size" : 4,
   "source_file" : "/frameworks/native/libs/gralloc/types/include/gralloctypes/Gralloc4.h"
  },
  {
   "alignment" : 4,
   "linker_set_key" : "_ZTIRKN4aidl7android8hardware8graphics6common20PlaneLayoutComponentE",
   "name" : "const aidl::android::hardware::graphics::common::PlaneLayoutComponent &",
   "referenced_type" : "_ZTIKN4aidl7android8hardware8graphics6common20PlaneLayoutComponentE",
   "self_type" : "_ZTIRKN4aidl7android8hardware8graphics6common20PlaneLayoutComponentE",
   "size" : 4,
   "source_file" : "/frameworks/native/libs/gralloc/types/include/gralloctypes/Gralloc4.h"
  },
  {
   "alignment" : 4,
   "linker_set_key" : "_ZTIRKN4aidl7android8hardware8graphics6common4RectE",
   "name" : "const aidl::android::hardware::graphics::common::Rect &",
   "referenced_type" : "_ZTIKN4aidl7android8hardware8graphics6common4RectE",
   "self_type" : "_ZTIRKN4aidl7android8hardware8graphics6common4RectE",
   "size" : 4,
   "source_file" : "/frameworks/native/libs/gralloc/types/include/gralloctypes/Gralloc4.h"
  },
  {
   "alignment" : 4,
   "linker_set_key" : "_ZTIRKN4aidl7android8hardware8graphics6common7XyColorE",
   "name" : "const aidl::android::hardware::graphics::common::XyColor &",
   "referenced_type" : "_ZTIKN4aidl7android8hardware8graphics6common7XyColorE",
   "self_type" : "_ZTIRKN4aidl7android8hardware8graphics6common7XyColorE",
   "size" : 4,
   "source_file" : "/frameworks/native/libs/gralloc/types/include/gralloctypes/Gralloc4.h"
  },
  {
   "alignment" : 4,
   "linker_set_key" : "_ZTIRKN4aidl7android8hardware8graphics6common8Cta861_3E",
   "name" : "const aidl::android::hardware::graphics::common::Cta861_3 &",
   "referenced_type" : "_ZTIKN4aidl7android8hardware8graphics6common8Cta861_3E",
   "self_type" : "_ZTIRKN4aidl7android8hardware8graphics6common8Cta861_3E",
   "size" : 4,
   "source_file" : "/frameworks/native/libs/gralloc/types/include/gralloctypes/Gralloc4.h"
  },
  {
   "alignment" : 4,
   "linker_set_key" : "_ZTIRKN4aidl7android8hardware8graphics6common9BlendModeE",
   "name" : "const aidl::android::hardware::graphics::common::BlendMode &",
   "referenced_type" : "_ZTIKN4aidl7android8hardware8graphics6common9BlendModeE",
   "self_type" : "_ZTIRKN4aidl7android8hardware8graphics6common9BlendModeE",
   "size" : 4,
   "source_file" : "/frameworks/native/libs/gralloc/types/include/gralloctypes/Gralloc4.h"
  },
  {
   "alignment" : 4,
   "linker_set_key" : "_ZTIRKN4aidl7android8hardware8graphics6common9DataspaceE",
   "name" : "const aidl::android::hardware::graphics::common::Dataspace &",
   "referenced_type" : "_ZTIKN4aidl7android8hardware8graphics6common9DataspaceE",
   "self_type" : "_ZTIRKN4aidl7android8hardware8graphics6common9DataspaceE",
   "size" : 4,
   "source_file" : "/frameworks/native/libs/gralloc/types/include/gralloctypes/Gralloc4.h"
  },
  {
   "alignment" : 4,
   "linker_set_key" : "_ZTIRKN4aidl7android8hardware8graphics6common9Smpte2086E",
   "name" : "const aidl::android::hardware::graphics::common::Smpte2086 &",
   "referenced_type" : "_ZTIKN4aidl7android8hardware8graphics6common9Smpte2086E",
   "self_type" : "_ZTIRKN4aidl7android8hardware8graphics6common9Smpte2086E",
   "size" : 4,
   "source_file" : "/frameworks/native/libs/gralloc/types/include/gralloctypes/Gralloc4.h"
  },
  {
   "alignment" : 4,
   "linker_set_key" : "_ZTIRKN7android2spINS_8hardware20hidl_death_recipientEEE",
   "name" : "const android::sp<android::hardware::hidl_death_recipient> &",
   "referenced_type" : "_ZTIKN7android2spINS_8hardware20hidl_death_recipientEEE",
   "self_type" : "_ZTIRKN7android2spINS_8hardware20hidl_death_recipientEEE",
   "size" : 4,
   "source_file" : "/system/libhidl/base/include/hidl/HidlSupport.h"
  },
  {
   "alignment" : 4,
   "linker_set_key" : "_ZTIRKN7android8hardware10hidl_arrayIjLj10EJEEE",
   "name" : "const android::hardware::hidl_array<unsigned int, 10> &",
   "referenced_type" : "_ZTIKN7android8hardware10hidl_arrayIjLj10EJEEE",
   "self_type" : "_ZTIRKN7android8hardware10hidl_arrayIjLj10EJEEE",
   "size" : 4,
   "source_file" : "/system/libhidl/base/include/hidl/HidlSupport.h"
  },
  {
   "alignment" : 4,
   "linker_set_key" : "_ZTIRKN7android8hardware11hidl_handleE",
   "name" : "const android::hardware::hidl_handle &",
   "referenced_type" : "_ZTIKN7android8hardware11hidl_handleE",
   "self_type" : "_ZTIRKN7android8hardware11hidl_handleE",
   "size" : 4,
   "source_file" : "/system/libhidl/base/include/hidl/HidlSupport.h"
  },
  {
   "alignment" : 4,
   "linker_set_key" : "_ZTIRKN7android8hardware11hidl_memoryE",
   "name" : "const android::hardware::hidl_memory &",
   "referenced_type" : "_ZTIKN7android8hardware11hidl_memoryE",
   "self_type" : "_ZTIRKN7android8hardware11hidl_memoryE",
   "size" : 4,
   "source_file" : "/system/libhidl/base/include/hidl/HidlSupport.h"
  },
  {
   "alignment" : 4,
   "linker_set_key" : "_ZTIRKN7android8hardware11hidl_stringE",
   "name" : "const android::hardware::hidl_string &",
   "referenced_type" : "_ZTIKN7android8hardware11hidl_stringE",
   "self_type" : "_ZTIRKN7android8hardware11hidl_stringE",
   "size" : 4,
   "source_file" : "/system/libhidl/base/include/hidl/HidlSupport.h"
  },
  {
   "alignment" : 4,
   "linker_set_key" : "_ZTIRKN7android8hardware12hidl_versionE",
   "name" : "const android::hardware::hidl_version &",
   "referenced_type" : "_ZTIKN7android8hardware12hidl_versionE",
   "self_type" : "_ZTIRKN7android8hardware12hidl_versionE",
   "size" : 4,
   "source_file" : "/system/libhidl/base/include/hidl/HidlSupport.h"
  },
  {
   "alignment" : 4,
   "linker_set_key" : "_ZTIRKN7android8hardware6StatusE",
   "name" : "const android::hardware::Status &",
   "referenced_type" : "_ZTIKN7android8hardware6StatusE",
   "self_type" : "_ZTIRKN7android8hardware6StatusE",
   "size" : 4,
   "source_file" : "/system/libhidl/base/include/hidl/Status.h"
  },
  {
   "alignment" : 4,
   "linker_set_key" : "_ZTIRKN7android8hardware7details14const_accessorIjLj10EJEEE",
   "name" : "const android::hardware::details::const_accessor<unsigned int, 10> &",
   "referenced_type" : "_ZTIKN7android8hardware7details14const_accessorIjLj10EJEEE",
   "self_type" : "_ZTIRKN7android8hardware7details14const_accessorIjLj10EJEEE",
   "size" : 4,
   "source_file" : "/system/libhidl/base/include/hidl/HidlSupport.h"
  },
  {
   "alignment" : 4,
   "linker_set_key" : "_ZTIRKN7android8hardware8graphics6common4V1_211PixelFormatE",
   "name" : "const android::hardware::graphics::common::V1_2::PixelFormat &",
   "referenced_type" : "_ZTIKN7android8hardware8graphics6common4V1_211PixelFormatE",
   "self_type" : "_ZTIRKN7android8hardware8graphics6common4V1_211PixelFormatE",
   "size" : 4,
   "source_file" : "/frameworks/native/libs/gralloc/types/include/gralloctypes/Gralloc4.h"
  },
  {
   "alignment" : 4,
   "linker_set_key" : "_ZTIRKN7android8hardware8graphics6mapper4V4_07IMapper12MetadataDumpE",
   "name" : "const android::hardware::graphics::mapper::V4_0::IMapper::MetadataDump &",
   "referenced_type" : "_ZTIKN7android8hardware8graphics6mapper4V4_07IMapper12MetadataDumpE",
   "self_type" : "_ZTIRKN7android8hardware8graphics6mapper4V4_07IMapper12MetadataDumpE",
   "size" : 4,
   "source_file" : "/system/libhidl/base/include/hidl/HidlInternal.h"
  },
  {
   "alignment" : 4,
   "linker_set_key" : "_ZTIRKN7android8hardware8graphics6mapper4V4_07IMapper12MetadataTypeE",
   "name" : "const android::hardware::graphics::mapper::V4_0::IMapper::MetadataType &",
   "referenced_type" : "_ZTIKN7android8hardware8graphics6mapper4V4_07IMapper12MetadataTypeE",
   "self_type" : "_ZTIRKN7android8hardware8graphics6mapper4V4_07IMapper12MetadataTypeE",
   "size" : 4,
   "source_file" : "/frameworks/native/libs/gralloc/types/include/gralloctypes/Gralloc4.h"
  },
  {
   "alignment" : 4,
   "linker_set_key" : "_ZTIRKN7android8hardware8graphics6mapper4V4_07IMapper20BufferDescriptorInfoE",
   "name" : "const android::hardware::graphics::mapper::V4_0::IMapper::BufferDescriptorInfo &",
   "referenced_type" : "_ZTIKN7android8hardware8graphics6mapper4V4_07IMapper20BufferDescriptorInfoE",
   "self_type" : "_ZTIRKN7android8hardware8graphics6mapper4V4_07IMapper20BufferDescriptorInfoE",
   "size" : 4,
   "source_file" : "/frameworks/native/libs/gralloc/types/include/gralloctypes/Gralloc4.h"
  },
  {
   "linker_set_key" : "_ZTIRKN7android8hardware8hidl_vec4iterIXTL0__EEE",
   "name" : "const iter<is_const> &",
   "referenced_type" : "_ZTIKN7android8hardware8hidl_vec4iterIXTL0__EEE",
   "self_type" : "_ZTIRKN7android8hardware8hidl_vec4iterIXTL0__EEE",
   "source_file" : "/system/libhidl/base/include/hidl/HidlSupport.h"
  },
  {
   "alignment" : 4,
   "linker_set_key" : "_ZTIRKN7android8hardware8hidl_vecINS0_8graphics6mapper4V4_07IMapper12MetadataDumpEEE",
   "name" : "const android::hardware::hidl_vec<android::hardware::graphics::mapper::V4_0::IMapper::MetadataDump> &",
   "referenced_type" : "_ZTIKN7android8hardware8hidl_vecINS0_8graphics6mapper4V4_07IMapper12MetadataDumpEEE",
   "self_type" : "_ZTIRKN7android8hardware8hidl_vecINS0_8graphics6mapper4V4_07IMapper12MetadataDumpEEE",
   "size" : 4,
   "source_file" : "/system/libhidl/base/include/hidl/HidlSupport.h"
  },
  {
   "alignment" : 4,
   "linker_set_key" : "_ZTIRKN7android8hardware8hidl_vecIhEE",
   "name" : "const android::hardware::hidl_vec<unsigned char> &",
   "referenced_type" : "_ZTIKN7android8hardware8hidl_vecIhEE",
   "self_type" : "_ZTIRKN7android8hardware8hidl_vecIhEE",
   "size" : 4,
   "source_file" : "/system/libhidl/base/include/hidl/HidlSupport.h"
  },
  {
   "alignment" : 4,
   "linker_set_key" : "_ZTIRKNSt3__112basic_stringIcNS_11char_traitsIcEENS_9allocatorIcEEEE",
   "name" : "const std::basic_string<char, std::char_traits<char>, std::allocator<char> > &",
   "referenced_type" : "_ZTIKNSt3__112basic_stringIcNS_11char_traitsIcEENS_9allocatorIcEEEE",
   "self_type" : "_ZTIRKNSt3__112basic_stringIcNS_11char_traitsIcEENS_9allocatorIcEEEE",
   "size" : 4,
   "source_file" : "/frameworks/native/libs/gralloc/types/include/gralloctypes/Gralloc4.h"
  },
  {
   "alignment" : 4,
   "linker_set_key" : "_ZTIRKNSt3__16vectorIN4aidl7android8hardware8graphics6common11PlaneLayoutENS_9allocatorIS6_EEEE",
   "name" : "const std::vector<aidl::android::hardware::graphics::common::PlaneLayout, std::allocator<aidl::android::hardware::graphics::common::PlaneLayout> > &",
   "referenced_type" : "_ZTIKNSt3__16vectorIN4aidl7android8hardware8graphics6common11PlaneLayoutENS_9allocatorIS6_EEEE",
   "self_type" : "_ZTIRKNSt3__16vectorIN4aidl7android8hardware8graphics6common11PlaneLayoutENS_9allocatorIS6_EEEE",
   "size" : 4,
   "source_file" : "/frameworks/native/libs/gralloc/types/include/gralloctypes/Gralloc4.h"
  },
  {
   "alignment" : 4,
   "linker_set_key" : "_ZTIRKNSt3__16vectorIN4aidl7android8hardware8graphics6common4RectENS_9allocatorIS6_EEEE",
   "name" : "const std::vector<aidl::android::hardware::graphics::common::Rect, std::allocator<aidl::android::hardware::graphics::common::Rect> > &",
   "referenced_type" : "_ZTIKNSt3__16vectorIN4aidl7android8hardware8graphics6common4RectENS_9allocatorIS6_EEEE",
   "self_type" : "_ZTIRKNSt3__16vectorIN4aidl7android8hardware8graphics6common4RectENS_9allocatorIS6_EEEE",
   "size" : 4,
   "source_file" : "/frameworks/native/libs/gralloc/types/include/gralloctypes/Gralloc4.h"
  },
  {
   "alignment" : 4,
   "linker_set_key" : "_ZTIRKNSt3__16vectorINS_8functionIFvN7android8hardware7details16HidlInstrumentor20InstrumentationEventEPKcS8_S8_S8_PNS0_IPvNS_9allocatorIS9_EEEEEEENSA_ISF_EEEE",
   "name" : "const std::vector<std::function<void (InstrumentationEvent, const char *, const char *, const char *, const char *, vector<void *, allocator<void *> > *)>, std::allocator<std::function<void (InstrumentationEvent, const char *, const char *, const char *, const char *, vector<void *, allocator<void *> > *)> > > &",
   "referenced_type" : "_ZTIKNSt3__16vectorINS_8functionIFvN7android8hardware7details16HidlInstrumentor20InstrumentationEventEPKcS8_S8_S8_PNS0_IPvNS_9allocatorIS9_EEEEEEENSA_ISF_EEEE",
   "self_type" : "_ZTIRKNSt3__16vectorINS_8functionIFvN7android8hardware7details16HidlInstrumentor20InstrumentationEventEPKcS8_S8_S8_PNS0_IPvNS_9allocatorIS9_EEEEEEENSA_ISF_EEEE",
   "size" : 4,
   "source_file" : "/system/libhidl/base/include/hidl/HidlInternal.h"
  },
  {
   "alignment" : 4,
   "linker_set_key" : "_ZTIRKNSt3__18optionalIN4aidl7android8hardware8graphics6common8Cta861_3EEE",
   "name" : "const std::optional<aidl::android::hardware::graphics::common::Cta861_3> &",
   "referenced_type" : "_ZTIKNSt3__18optionalIN4aidl7android8hardware8graphics6common8Cta861_3EEE",
   "self_type" : "_ZTIRKNSt3__18optionalIN4aidl7android8hardware8graphics6common8Cta861_3EEE",
   "size" : 4,
   "source_file" : "/frameworks/native/libs/gralloc/types/include/gralloctypes/Gralloc4.h"
  },
  {
   "alignment" : 4,
   "linker_set_key" : "_ZTIRKNSt3__18optionalIN4aidl7android8hardware8graphics6common9Smpte2086EEE",
   "name" : "const std::optional<aidl::android::hardware::graphics::common::Smpte2086> &",
   "referenced_type" : "_ZTIKNSt3__18optionalIN4aidl7android8hardware8graphics6common9Smpte2086EEE",
   "self_type" : "_ZTIRKNSt3__18optionalIN4aidl7android8hardware8graphics6common9Smpte2086EEE",
   "size" : 4,
   "source_file" : "/frameworks/native/libs/gralloc/types/include/gralloctypes/Gralloc4.h"
  },
  {
   "alignment" : 4,
   "linker_set_key" : "_ZTIRKNSt3__18optionalINS_6vectorIhNS_9allocatorIhEEEEEE",
   "name" : "const std::optional<std::vector<unsigned char, std::allocator<unsigned char> > > &",
   "referenced_type" : "_ZTIKNSt3__18optionalINS_6vectorIhNS_9allocatorIhEEEEEE",
   "self_type" : "_ZTIRKNSt3__18optionalINS_6vectorIhNS_9allocatorIhEEEEEE",
   "size" : 4,
   "source_file" : "/frameworks/native/libs/gralloc/types/include/gralloctypes/Gralloc4.h"
  },
  {
   "alignment" : 4,
   "linker_set_key" : "_ZTIRKa",
   "name" : "const signed char &",
   "referenced_type" : "_ZTIKa",
   "self_type" : "_ZTIRKa",
   "size" : 4,
   "source_file" : "/system/core/libutils/include/utils/TypeHelpers.h"
  },
  {
   "alignment" : 4,
   "linker_set_key" : "_ZTIRKb",
   "name" : "const bool &",
   "referenced_type" : "_ZTIKb",
   "self_type" : "_ZTIRKb",
   "size" : 4,
   "source_file" : "/system/core/libutils/include/utils/TypeHelpers.h"
  },
  {
   "alignment" : 4,
   "linker_set_key" : "_ZTIRKd",
   "name" : "const double &",
   "referenced_type" : "_ZTIKd",
   "self_type" : "_ZTIRKd",
   "size" : 4,
   "source_file" : "/system/core/libutils/include/utils/TypeHelpers.h"
  },
  {
   "alignment" : 4,
   "linker_set_key" : "_ZTIRKf",
   "name" : "const float &",
   "referenced_type" : "_ZTIKf",
   "self_type" : "_ZTIRKf",
   "size" : 4,
   "source_file" : "/system/core/libutils/include/utils/TypeHelpers.h"
  },
  {
   "alignment" : 4,
   "linker_set_key" : "_ZTIRKh",
   "name" : "const unsigned char &",
   "referenced_type" : "_ZTIKh",
   "self_type" : "_ZTIRKh",
   "size" : 4,
   "source_file" : "/system/libhidl/base/include/hidl/HidlInternal.h"
  },
  {
   "alignment" : 4,
   "linker_set_key" : "_ZTIRKi",
   "name" : "const int &",
   "referenced_type" : "_ZTIKi",
   "self_type" : "_ZTIRKi",
   "size" : 4,
   "source_file" : "/system/core/libutils/include/utils/TypeHelpers.h"
  },
  {
   "alignment" : 4,
   "linker_set_key" : "_ZTIRKj",
   "name" : "const unsigned int &",
   "referenced_type" : "_ZTIKj",
   "self_type" : "_ZTIRKj",
   "size" : 4,
   "source_file" : "/system/core/libutils/include/utils/TypeHelpers.h"
  },
  {
   "alignment" : 4,
   "linker_set_key" : "_ZTIRKs",
   "name" : "const short &",
   "referenced_type" : "_ZTIKs",
   "self_type" : "_ZTIRKs",
   "size" : 4,
   "source_file" : "/system/core/libutils/include/utils/TypeHelpers.h"
  },
  {
   "alignment" : 4,
   "linker_set_key" : "_ZTIRKt",
   "name" : "const unsigned short &",
   "referenced_type" : "_ZTIKt",
   "self_type" : "_ZTIRKt",
   "size" : 4,
   "source_file" : "/system/core/libutils/include/utils/TypeHelpers.h"
  },
  {
   "alignment" : 4,
   "linker_set_key" : "_ZTIRKx",
   "name" : "const long long &",
   "referenced_type" : "_ZTIKx",
   "self_type" : "_ZTIRKx",
   "size" : 4,
   "source_file" : "/system/core/libutils/include/utils/TypeHelpers.h"
  },
  {
   "alignment" : 4,
   "linker_set_key" : "_ZTIRKy",
   "name" : "const unsigned long long &",
   "referenced_type" : "_ZTIKy",
   "self_type" : "_ZTIRKy",
   "size" : 4,
   "source_file" : "/system/core/libutils/include/utils/TypeHelpers.h"
  },
  {
   "alignment" : 4,
   "linker_set_key" : "_ZTIRN3ndk10SpAIBinderE",
   "name" : "ndk::SpAIBinder &",
   "referenced_type" : "_ZTIN3ndk10SpAIBinderE",
   "self_type" : "_ZTIRN3ndk10SpAIBinderE",
   "size" : 4,
   "source_file" : "/frameworks/native/libs/binder/ndk/include_ndk/android/binder_auto_utils.h"
  },
  {
   "alignment" : 4,
   "linker_set_key" : "_ZTIRN3ndk13ScopedAStatusE",
   "name" : "ndk::ScopedAStatus &",
   "referenced_type" : "_ZTIN3ndk13ScopedAStatusE",
   "self_type" : "_ZTIRN3ndk13ScopedAStatusE",
   "size" : 4,
   "source_file" : "/frameworks/native/libs/binder/ndk/include_ndk/android/binder_auto_utils.h"
  },
  {
   "alignment" : 4,
   "linker_set_key" : "_ZTIRN7android8hardware10hidl_arrayIjLj10EJEEE",
   "name" : "android::hardware::hidl_array<unsigned int, 10> &",
   "referenced_type" : "_ZTIN7android8hardware10hidl_arrayIjLj10EJEEE",
   "self_type" : "_ZTIRN7android8hardware10hidl_arrayIjLj10EJEEE",
   "size" : 4,
   "source_file" : "/system/libhidl/base/include/hidl/HidlSupport.h"
  },
  {
   "alignment" : 4,
   "linker_set_key" : "_ZTIRN7android8hardware11hidl_memoryE",
   "name" : "android::hardware::hidl_memory &",
   "referenced_type" : "_ZTIN7android8hardware11hidl_memoryE",
   "self_type" : "_ZTIRN7android8hardware11hidl_memoryE",
   "size" : 4,
   "source_file" : "/system/libhidl/base/include/hidl/HidlSupport.h"
  },
  {
   "alignment" : 4,
   "linker_set_key" : "_ZTIRN7android8hardware6ReturnIvEE",
   "name" : "android::hardware::Return<void> &",
   "referenced_type" : "_ZTIN7android8hardware6ReturnIvEE",
   "self_type" : "_ZTIRN7android8hardware6ReturnIvEE",
   "size" : 4,
   "source_file" : "/system/libhidl/base/include/hidl/Status.h"
  },
  {
   "alignment" : 4,
   "linker_set_key" : "_ZTIRN7android8hardware6StatusE",
   "name" : "android::hardware::Status &",
   "referenced_type" : "_ZTIN7android8hardware6StatusE",
   "self_type" : "_ZTIRN7android8hardware6StatusE",
   "size" : 4,
   "source_file" : "/system/libhidl/base/include/hidl/Status.h"
  },
  {
   "alignment" : 4,
   "linker_set_key" : "_ZTIRN7android8hardware7details12hidl_pointerIhEE",
   "name" : "android::hardware::details::hidl_pointer<unsigned char> &",
   "referenced_type" : "_ZTIN7android8hardware7details12hidl_pointerIhEE",
   "self_type" : "_ZTIRN7android8hardware7details12hidl_pointerIhEE",
   "size" : 4,
   "source_file" : "/system/libhidl/base/include/hidl/HidlInternal.h"
  },
  {
   "alignment" : 4,
   "linker_set_key" : "_ZTIRh",
   "name" : "unsigned char &",
   "referenced_type" : "_ZTIh",
   "self_type" : "_ZTIRh",
   "size" : 4,
   "source_file" : "/system/libhidl/base/include/hidl/HidlInternal.h"
  },
  {
   "alignment" : 4,
   "linker_set_key" : "_ZTIRi",
   "name" : "int &",
   "referenced_type" : "_ZTIi",
   "self_type" : "_ZTIRi",
   "size" : 4,
   "source_file" : "/out/soong/.intermediates/hardware/interfaces/graphics/common/1.0/android.hardware.graphics.common@1.0_genc++_headers/gen/android/hardware/graphics/common/1.0/types.h"
  },
  {
   "alignment" : 4,
   "linker_set_key" : "_ZTIRy",
   "name" : "unsigned long long &",
   "referenced_type" : "_ZTIy",
   "self_type" : "_ZTIRy",
   "size" : 4,
   "source_file" : "/out/soong/.intermediates/hardware/interfaces/graphics/common/1.0/android.hardware.graphics.common@1.0_genc++_headers/gen/android/hardware/graphics/common/1.0/types.h"
  }
 ],
 "pointer_types" :
 [
  {
   "alignment" : 4,
   "linker_set_key" : "_ZTIP13AIBinder_Weak",
   "name" : "AIBinder_Weak *",
   "referenced_type" : "_ZTI13AIBinder_Weak",
   "self_type" : "_ZTIP13AIBinder_Weak",
   "size" : 4,
   "source_file" : "/frameworks/native/libs/binder/ndk/include_ndk/android/binder_auto_utils.h"
  },
  {
   "alignment" : 4,
   "linker_set_key" : "_ZTIP13native_handle",
   "name" : "native_handle *",
   "referenced_type" : "_ZTI13native_handle",
   "self_type" : "_ZTIP13native_handle",
   "size" : 4,
   "source_file" : "/system/libhidl/base/include/hidl/HidlInternal.h"
  },
  {
   "alignment" : 4,
   "linker_set_key" : "_ZTIP14AIBinder_Class",
   "name" : "AIBinder_Class *",
   "referenced_type" : "_ZTI14AIBinder_Class",
   "self_type" : "_ZTIP14AIBinder_Class",
   "size" : 4,
   "source_file" : "/frameworks/native/libs/binder/ndk/include_ndk/android/binder_interface_utils.h"
  },
  {
   "alignment" : 4,
   "linker_set_key" : "_ZTIP23AIBinder_DeathRecipient",
   "name" : "AIBinder_DeathRecipient *",
   "referenced_type" : "_ZTI23AIBinder_DeathRecipient",
   "self_type" : "_ZTIP23AIBinder_DeathRecipient",
   "size" : 4,
   "source_file" : "/frameworks/native/libs/binder/ndk/include_ndk/android/binder_auto_utils.h"
  },
  {
   "alignment" : 4,
   "linker_set_key" : "_ZTIP7AParcel",
   "name" : "AParcel *",
   "referenced_type" : "_ZTI7AParcel",
   "self_type" : "_ZTIP7AParcel",
   "size" : 4,
   "source_file" : "/frameworks/native/libs/binder/ndk/include_ndk/android/binder_auto_utils.h"
  },
  {
   "alignment" : 4,
   "linker_set_key" : "_ZTIP7AStatus",
   "name" : "AStatus *",
   "referenced_type" : "_ZTI7AStatus",
   "self_type" : "_ZTIP7AStatus",
   "size" : 4,
   "source_file" : "/frameworks/native/libs/binder/ndk/include_ndk/android/binder_auto_utils.h"
  },
  {
   "alignment" : 4,
   "linker_set_key" : "_ZTIP7log_msg",
   "name" : "log_msg *",
   "referenced_type" : "_ZTI7log_msg",
   "self_type" : "_ZTIP7log_msg",
   "size" : 4,
   "source_file" : "/system/core/liblog/include/log/log_read.h"
  },
  {
   "alignment" : 4,
   "linker_set_key" : "_ZTIP8AIBinder",
   "name" : "AIBinder *",
   "referenced_type" : "_ZTI8AIBinder",
   "self_type" : "_ZTIP8AIBinder",
   "size" : 4,
   "source_file" : "/frameworks/native/libs/binder/ndk/include_ndk/android/binder_auto_utils.h"
  },
  {
   "alignment" : 4,
   "linker_set_key" : "_ZTIPFiP8AIBinderjPK7AParcelPS1_E",
   "name" : "int (*)(AIBinder *, unsigned int, const AParcel *, AParcel *)",
   "referenced_type" : "_ZTIFiP8AIBinderjPK7AParcelPS1_E",
   "self_type" : "_ZTIPFiP8AIBinderjPK7AParcelPS1_E",
   "size" : 4,
   "source_file" : "/frameworks/native/libs/binder/ndk/include_ndk/android/binder_interface_utils.h"
  },
  {
   "alignment" : 4,
   "linker_set_key" : "_ZTIPK13native_handle",
   "name" : "const native_handle *",
   "referenced_type" : "_ZTIK13native_handle",
   "self_type" : "_ZTIPK13native_handle",
   "size" : 4,
   "source_file" : "/system/libhidl/base/include/hidl/HidlInternal.h"
  },
  {
   "alignment" : 4,
   "linker_set_key" : "_ZTIPK7AParcel",
   "name" : "const AParcel *",
   "referenced_type" : "_ZTIK7AParcel",
   "self_type" : "_ZTIPK7AParcel",
   "size" : 4,
   "source_file" : "/frameworks/native/libs/binder/ndk/include_ndk/android/binder_interface_utils.h"
  },
  {
   "alignment" : 4,
   "linker_set_key" : "_ZTIPK7log_msg",
   "name" : "const log_msg *",
   "referenced_type" : "_ZTIK7log_msg",
   "self_type" : "_ZTIPK7log_msg",
   "size" : 4,
   "source_file" : "/system/core/liblog/include/log/log_read.h"
  },
  {
   "alignment" : 4,
   "linker_set_key" : "_ZTIPKN3ndk10SpAIBinderE",
   "name" : "const ndk::SpAIBinder *",
   "referenced_type" : "_ZTIKN3ndk10SpAIBinderE",
   "self_type" : "_ZTIPKN3ndk10SpAIBinderE",
   "size" : 4,
   "source_file" : "/frameworks/native/libs/binder/ndk/include_ndk/android/binder_auto_utils.h"
  },
  {
   "alignment" : 4,
   "linker_set_key" : "_ZTIPKN3ndk13ScopedAStatusE",
   "name" : "const ndk::ScopedAStatus *",
   "referenced_type" : "_ZTIKN3ndk13ScopedAStatusE",
   "self_type" : "_ZTIPKN3ndk13ScopedAStatusE",
   "size" : 4,
   "source_file" : "/frameworks/native/libs/binder/ndk/include_ndk/android/binder_auto_utils.h"
  },
  {
   "alignment" : 4,
   "linker_set_key" : "_ZTIPKN3ndk4impl15ScopedAResourceIP7AStatusvXadL_Z14AStatus_deleteEELS3_0EEE",
   "name" : "const ndk::impl::ScopedAResource<AStatus *, void, &AStatus_delete, nullptr> *",
   "referenced_type" : "_ZTIKN3ndk4impl15ScopedAResourceIP7AStatusvXadL_Z14AStatus_deleteEELS3_0EEE",
   "self_type" : "_ZTIPKN3ndk4impl15ScopedAResourceIP7AStatusvXadL_Z14AStatus_deleteEELS3_0EEE",
   "size" : 4,
   "source_file" : "/frameworks/native/libs/binder/ndk/include_ndk/android/binder_auto_utils.h"
  },
  {
   "alignment" : 4,
   "linker_set_key" : "_ZTIPKN7android12NativeHandleE",
   "name" : "const android::NativeHandle *",
   "referenced_type" : "_ZTIKN7android12NativeHandleE",
   "self_type" : "_ZTIPKN7android12NativeHandleE",
   "size" : 4,
   "source_file" : "/system/core/libutils/include/utils/NativeHandle.h"
  },
  {
   "alignment" : 4,
   "linker_set_key" : "_ZTIPKN7android2spINS_4hidl4base4V1_05IBaseEEE",
   "name" : "const android::sp<android::hidl::base::V1_0::IBase> *",
   "referenced_type" : "_ZTIKN7android2spINS_4hidl4base4V1_05IBaseEEE",
   "self_type" : "_ZTIPKN7android2spINS_4hidl4base4V1_05IBaseEEE",
   "size" : 4,
   "source_file" : "/system/core/libutils/include/utils/StrongPointer.h"
  },
  {
   "alignment" : 4,
   "linker_set_key" : "_ZTIPKN7android2spINS_4hidl7manager4V1_020IServiceNotificationEEE",
   "name" : "const android::sp<android::hidl::manager::V1_0::IServiceNotification> *",
   "referenced_type" : "_ZTIKN7android2spINS_4hidl7manager4V1_020IServiceNotificationEEE",
   "self_type" : "_ZTIPKN7android2spINS_4hidl7manager4V1_020IServiceNotificationEEE",
   "size" : 4,
   "source_file" : "/system/core/libutils/include/utils/StrongPointer.h"
  },
  {
   "alignment" : 4,
   "linker_set_key" : "_ZTIPKN7android2spINS_8hardware20hidl_death_recipientEEE",
   "name" : "const android::sp<android::hardware::hidl_death_recipient> *",
   "referenced_type" : "_ZTIKN7android2spINS_8hardware20hidl_death_recipientEEE",
   "self_type" : "_ZTIPKN7android2spINS_8hardware20hidl_death_recipientEEE",
   "size" : 4,
   "source_file" : "/system/core/libutils/include/utils/StrongPointer.h"
  },
  {
   "alignment" : 4,
   "linker_set_key" : "_ZTIPKN7android2spINS_8hardware8graphics6mapper4V4_07IMapperEEE",
   "name" : "const android::sp<android::hardware::graphics::mapper::V4_0::IMapper> *",
   "referenced_type" : "_ZTIKN7android2spINS_8hardware8graphics6mapper4V4_07IMapperEEE",
   "self_type" : "_ZTIPKN7android2spINS_8hardware8graphics6mapper4V4_07IMapperEEE",
   "size" : 4,
   "source_file" : "/system/core/libutils/include/utils/StrongPointer.h"
  },
  {
   "alignment" : 4,
   "linker_set_key" : "_ZTIPKN7android4hidl4base4V1_05IBaseE",
   "name" : "const android::hidl::base::V1_0::IBase *",
   "referenced_type" : "_ZTIKN7android4hidl4base4V1_05IBaseE",
   "self_type" : "_ZTIPKN7android4hidl4base4V1_05IBaseE",
   "size" : 4,
   "source_file" : "/out/soong/.intermediates/system/libhidl/transport/base/1.0/android.hidl.base@1.0_genc++_headers/gen/android/hidl/base/1.0/IBase.h"
  },
  {
   "alignment" : 4,
   "linker_set_key" : "_ZTIPKN7android4hidl7manager4V1_020IServiceNotificationE",
   "name" : "const android::hidl::manager::V1_0::IServiceNotification *",
   "referenced_type" : "_ZTIKN7android4hidl7manager4V1_020IServiceNotificationE",
   "self_type" : "_ZTIPKN7android4hidl7manager4V1_020IServiceNotificationE",
   "size" : 4,
   "source_file" : "/out/soong/.intermediates/system/libhidl/transport/manager/1.0/android.hidl.manager@1.0_genc++_headers/gen/android/hidl/manager/1.0/IServiceNotification.h"
  },
  {
   "alignment" : 4,
   "linker_set_key" : "_ZTIPKN7android7RefBaseE",
   "name" : "const android::RefBase *",
   "referenced_type" : "_ZTIKN7android7RefBaseE",
   "self_type" : "_ZTIPKN7android7RefBaseE",
   "size" : 4,
   "source_file" : "/system/core/libutils/include/utils/RefBase.h"
  },
  {
   "alignment" : 4,
   "linker_set_key" : "_ZTIPKN7android8hardware10hidl_arrayIjLj10EJEEE",
   "name" : "const android::hardware::hidl_array<unsigned int, 10> *",
   "referenced_type" : "_ZTIKN7android8hardware10hidl_arrayIjLj10EJEEE",
   "self_type" : "_ZTIPKN7android8hardware10hidl_arrayIjLj10EJEEE",
   "size" : 4,
   "source_file" : "/system/libhidl/base/include/hidl/HidlSupport.h"
  },
  {
   "alignment" : 4,
   "linker_set_key" : "_ZTIPKN7android8hardware11hidl_memoryE",
   "name" : "const android::hardware::hidl_memory *",
   "referenced_type" : "_ZTIKN7android8hardware11hidl_memoryE",
   "self_type" : "_ZTIPKN7android8hardware11hidl_memoryE",
   "size" : 4,
   "source_file" : "/system/libhidl/base/include/hidl/HidlSupport.h"
  },
  {
   "alignment" : 4,
   "linker_set_key" : "_ZTIPKN7android8hardware12hidl_versionE",
   "name" : "const android::hardware::hidl_version *",
   "referenced_type" : "_ZTIKN7android8hardware12hidl_versionE",
   "self_type" : "_ZTIPKN7android8hardware12hidl_versionE",
   "size" : 4,
   "source_file" : "/system/libhidl/base/include/hidl/HidlSupport.h"
  },
  {
   "alignment" : 4,
   "linker_set_key" : "_ZTIPKN7android8hardware6StatusE",
   "name" : "const android::hardware::Status *",
   "referenced_type" : "_ZTIKN7android8hardware6StatusE",
   "self_type" : "_ZTIPKN7android8hardware6StatusE",
   "size" : 4,
   "source_file" : "/system/libhidl/base/include/hidl/Status.h"
  },
  {
   "alignment" : 4,
   "linker_set_key" : "_ZTIPKN7android8hardware7details12hidl_pointerINS0_8graphics6mapper4V4_07IMapper12MetadataDumpEEE",
   "name" : "const android::hardware::details::hidl_pointer<android::hardware::graphics::mapper::V4_0::IMapper::MetadataDump> *",
   "referenced_type" : "_ZTIKN7android8hardware7details12hidl_pointerINS0_8graphics6mapper4V4_07IMapper12MetadataDumpEEE",
   "self_type" : "_ZTIPKN7android8hardware7details12hidl_pointerINS0_8graphics6mapper4V4_07IMapper12MetadataDumpEEE",
   "size" : 4,
   "source_file" : "/system/libhidl/base/include/hidl/HidlInternal.h"
  },
  {
   "alignment" : 4,
   "linker_set_key" : "_ZTIPKN7android8hardware7details12hidl_pointerIhEE",
   "name" : "const android::hardware::details::hidl_pointer<unsigned char> *",
   "referenced_type" : "_ZTIKN7android8hardware7details12hidl_pointerIhEE",
   "self_type" : "_ZTIPKN7android8hardware7details12hidl_pointerIhEE",
   "size" : 4,
   "source_file" : "/system/libhidl/base/include/hidl/HidlInternal.h"
  },
  {
   "alignment" : 4,
   "linker_set_key" : "_ZTIPKN7android8hardware7details13return_statusE",
   "name" : "const android::hardware::details::return_status *",
   "referenced_type" : "_ZTIKN7android8hardware7details13return_statusE",
   "self_type" : "_ZTIPKN7android8hardware7details13return_statusE",
   "size" : 4,
   "source_file" : "/system/libhidl/base/include/hidl/Status.h"
  },
  {
   "alignment" : 4,
   "linker_set_key" : "_ZTIPKN7android8hardware7details14const_accessorIjLj10EJEEE",
   "name" : "const android::hardware::details::const_accessor<unsigned int, 10> *",
   "referenced_type" : "_ZTIKN7android8hardware7details14const_accessorIjLj10EJEEE",
   "self_type" : "_ZTIPKN7android8hardware7details14const_accessorIjLj10EJEEE",
   "size" : 4,
   "source_file" : "/system/libhidl/base/include/hidl/HidlSupport.h"
  },
  {
   "alignment" : 4,
   "linker_set_key" : "_ZTIPKN7android8hardware8graphics6mapper4V4_07IMapperE",
   "name" : "const android::hardware::graphics::mapper::V4_0::IMapper *",
   "referenced_type" : "_ZTIKN7android8hardware8graphics6mapper4V4_07IMapperE",
   "self_type" : "_ZTIPKN7android8hardware8graphics6mapper4V4_07IMapperE",
   "size" : 4,
   "source_file" : "/out/soong/.intermediates/hardware/interfaces/graphics/mapper/4.0/android.hardware.graphics.mapper@4.0_genc++_headers/gen/android/hardware/graphics/mapper/4.0/IMapper.h"
  },
  {
   "alignment" : 4,
   "linker_set_key" : "_ZTIPKN7android8hardware8hidl_vecINS0_8graphics6mapper4V4_07IMapper12MetadataDumpEEE",
   "name" : "const android::hardware::hidl_vec<android::hardware::graphics::mapper::V4_0::IMapper::MetadataDump> *",
   "referenced_type" : "_ZTIKN7android8hardware8hidl_vecINS0_8graphics6mapper4V4_07IMapper12MetadataDumpEEE",
   "self_type" : "_ZTIPKN7android8hardware8hidl_vecINS0_8graphics6mapper4V4_07IMapper12MetadataDumpEEE",
   "size" : 4,
   "source_file" : "/system/libhidl/base/include/hidl/HidlSupport.h"
  },
  {
   "alignment" : 4,
   "linker_set_key" : "_ZTIPKN7android8hardware8hidl_vecIhEE",
   "name" : "const android::hardware::hidl_vec<unsigned char> *",
   "referenced_type" : "_ZTIKN7android8hardware8hidl_vecIhEE",
   "self_type" : "_ZTIPKN7android8hardware8hidl_vecIhEE",
   "size" : 4,
   "source_file" : "/system/libhidl/base/include/hidl/HidlSupport.h"
  },
  {
   "alignment" : 4,
   "linker_set_key" : "_ZTIPKc",
   "name" : "const char *",
   "referenced_type" : "_ZTIKc",
   "self_type" : "_ZTIPKc",
   "size" : 4,
   "source_file" : "/system/libhidl/base/include/hidl/HidlInternal.h"
  },
  {
   "alignment" : 4,
   "linker_set_key" : "_ZTIPKh",
   "name" : "const unsigned char *",
   "referenced_type" : "_ZTIKh",
   "self_type" : "_ZTIPKh",
   "size" : 4,
   "source_file" : "/system/libhidl/base/include/hidl/HidlSupport.h"
  },
  {
   "alignment" : 4,
   "linker_set_key" : "_ZTIPKj",
   "name" : "const unsigned int *",
   "referenced_type" : "_ZTIKj",
   "self_type" : "_ZTIPKj",
   "size" : 4,
   "source_file" : "/system/libhidl/base/include/hidl/HidlSupport.h"
  },
  {
   "alignment" : 4,
   "linker_set_key" : "_ZTIPKv",
   "name" : "const void *",
   "referenced_type" : "_ZTIKv",
   "self_type" : "_ZTIPKv",
   "size" : 4,
   "source_file" : "/system/libhidl/base/include/hidl/HidlSupport.h"
  },
  {
   "alignment" : 4,
   "linker_set_key" : "_ZTIPN3ndk10SpAIBinderE",
   "name" : "ndk::SpAIBinder *",
   "referenced_type" : "_ZTIN3ndk10SpAIBinderE",
   "self_type" : "_ZTIPN3ndk10SpAIBinderE",
   "size" : 4,
   "source_file" : "/frameworks/native/libs/binder/ndk/include_ndk/android/binder_auto_utils.h"
  },
  {
   "alignment" : 4,
   "linker_set_key" : "_ZTIPN3ndk11ICInterfaceE",
   "name" : "ndk::ICInterface *",
   "referenced_type" : "_ZTIN3ndk11ICInterfaceE",
   "self_type" : "_ZTIPN3ndk11ICInterfaceE",
   "size" : 4,
   "source_file" : "/frameworks/native/libs/binder/ndk/include_ndk/android/binder_interface_utils.h"
  },
  {
   "alignment" : 4,
   "linker_set_key" : "_ZTIPN3ndk13ScopedAParcelE",
   "name" : "ndk::ScopedAParcel *",
   "referenced_type" : "_ZTIN3ndk13ScopedAParcelE",
   "self_type" : "_ZTIPN3ndk13ScopedAParcelE",
   "size" : 4,
   "source_file" : "/frameworks/native/libs/binder/ndk/include_ndk/android/binder_auto_utils.h"
  },
  {
   "alignment" : 4,
   "linker_set_key" : "_ZTIPN3ndk13ScopedAStatusE",
   "name" : "ndk::ScopedAStatus *",
   "referenced_type" : "_ZTIN3ndk13ScopedAStatusE",
   "self_type" : "_ZTIPN3ndk13ScopedAStatusE",
   "size" : 4,
   "source_file" : "/frameworks/native/libs/binder/ndk/include_ndk/android/binder_auto_utils.h"
  },
  {
   "alignment" : 4,
   "linker_set_key" : "_ZTIPN3ndk13SharedRefBaseE",
   "name" : "ndk::SharedRefBase *",
   "referenced_type" : "_ZTIN3ndk13SharedRefBaseE",
   "self_type" : "_ZTIPN3ndk13SharedRefBaseE",
   "size" : 4,
   "source_file" : "/frameworks/native/libs/binder/ndk/include_ndk/android/binder_interface_utils.h"
  },
  {
   "alignment" : 4,
   "linker_set_key" : "_ZTIPN3ndk19ScopedAIBinder_WeakE",
   "name" : "ndk::ScopedAIBinder_Weak *",
   "referenced_type" : "_ZTIN3ndk19ScopedAIBinder_WeakE",
   "self_type" : "_ZTIPN3ndk19ScopedAIBinder_WeakE",
   "size" : 4,
   "source_file" : "/frameworks/native/libs/binder/ndk/include_ndk/android/binder_auto_utils.h"
  },
  {
   "alignment" : 4,
   "linker_set_key" : "_ZTIPN3ndk20ScopedFileDescriptorE",
   "name" : "ndk::ScopedFileDescriptor *",
   "referenced_type" : "_ZTIN3ndk20ScopedFileDescriptorE",
   "self_type" : "_ZTIPN3ndk20ScopedFileDescriptorE",
   "size" : 4,
   "source_file" : "/frameworks/native/libs/binder/ndk/include_ndk/android/binder_auto_utils.h"
  },
  {
   "alignment" : 4,
   "linker_set_key" : "_ZTIPN3ndk29ScopedAIBinder_DeathRecipientE",
   "name" : "ndk::ScopedAIBinder_DeathRecipient *",
   "referenced_type" : "_ZTIN3ndk29ScopedAIBinder_DeathRecipientE",
   "self_type" : "_ZTIPN3ndk29ScopedAIBinder_DeathRecipientE",
   "size" : 4,
   "source_file" : "/frameworks/native/libs/binder/ndk/include_ndk/android/binder_auto_utils.h"
  },
  {
   "alignment" : 4,
   "linker_set_key" : "_ZTIPN3ndk4impl15ScopedAResourceIP13AIBinder_WeakvXadL_Z20AIBinder_Weak_deleteEELS3_0EEE",
   "name" : "ndk::impl::ScopedAResource<AIBinder_Weak *, void, &AIBinder_Weak_delete, nullptr> *",
   "referenced_type" : "_ZTIN3ndk4impl15ScopedAResourceIP13AIBinder_WeakvXadL_Z20AIBinder_Weak_deleteEELS3_0EEE",
   "self_type" : "_ZTIPN3ndk4impl15ScopedAResourceIP13AIBinder_WeakvXadL_Z20AIBinder_Weak_deleteEELS3_0EEE",
   "size" : 4,
   "source_file" : "/frameworks/native/libs/binder/ndk/include_ndk/android/binder_auto_utils.h"
  },
  {
   "alignment" : 4,
   "linker_set_key" : "_ZTIPN3ndk4impl15ScopedAResourceIP23AIBinder_DeathRecipientvXadL_Z30AIBinder_DeathRecipient_deleteEELS3_0EEE",
   "name" : "ndk::impl::ScopedAResource<AIBinder_DeathRecipient *, void, &AIBinder_DeathRecipient_delete, nullptr> *",
   "referenced_type" : "_ZTIN3ndk4impl15ScopedAResourceIP23AIBinder_DeathRecipientvXadL_Z30AIBinder_DeathRecipient_deleteEELS3_0EEE",
   "self_type" : "_ZTIPN3ndk4impl15ScopedAResourceIP23AIBinder_DeathRecipientvXadL_Z30AIBinder_DeathRecipient_deleteEELS3_0EEE",
   "size" : 4,
   "source_file" : "/frameworks/native/libs/binder/ndk/include_ndk/android/binder_auto_utils.h"
  },
  {
   "alignment" : 4,
   "linker_set_key" : "_ZTIPN3ndk4impl15ScopedAResourceIP7AParcelvXadL_Z14AParcel_deleteEELS3_0EEE",
   "name" : "ndk::impl::ScopedAResource<AParcel *, void, &AParcel_delete, nullptr> *",
   "referenced_type" : "_ZTIN3ndk4impl15ScopedAResourceIP7AParcelvXadL_Z14AParcel_deleteEELS3_0EEE",
   "self_type" : "_ZTIPN3ndk4impl15ScopedAResourceIP7AParcelvXadL_Z14AParcel_deleteEELS3_0EEE",
   "size" : 4,
   "source_file" : "/frameworks/native/libs/binder/ndk/include_ndk/android/binder_auto_utils.h"
  },
  {
   "alignment" : 4,
   "linker_set_key" : "_ZTIPN3ndk4impl15ScopedAResourceIP7AStatusvXadL_Z14AStatus_deleteEELS3_0EEE",
   "name" : "ndk::impl::ScopedAResource<AStatus *, void, &AStatus_delete, nullptr> *",
   "referenced_type" : "_ZTIN3ndk4impl15ScopedAResourceIP7AStatusvXadL_Z14AStatus_deleteEELS3_0EEE",
   "self_type" : "_ZTIPN3ndk4impl15ScopedAResourceIP7AStatusvXadL_Z14AStatus_deleteEELS3_0EEE",
   "size" : 4,
   "source_file" : "/frameworks/native/libs/binder/ndk/include_ndk/android/binder_auto_utils.h"
  },
  {
   "alignment" : 4,
   "linker_set_key" : "_ZTIPN3ndk4impl15ScopedAResourceIiiXadL_Z5closeEELin1EEE",
   "name" : "ndk::impl::ScopedAResource<int, int, &close, -1> *",
   "referenced_type" : "_ZTIN3ndk4impl15ScopedAResourceIiiXadL_Z5closeEELin1EEE",
   "self_type" : "_ZTIPN3ndk4impl15ScopedAResourceIiiXadL_Z5closeEELin1EEE",
   "size" : 4,
   "source_file" : "/frameworks/native/libs/binder/ndk/include_ndk/android/binder_auto_utils.h"
  },
  {
   "alignment" : 4,
   "linker_set_key" : "_ZTIPN4aidl7android8hardware8graphics6common14ExtendableTypeE",
   "name" : "aidl::android::hardware::graphics::common::ExtendableType *",
   "referenced_type" : "_ZTIN4aidl7android8hardware8graphics6common14ExtendableTypeE",
   "self_type" : "_ZTIPN4aidl7android8hardware8graphics6common14ExtendableTypeE",
   "size" : 4,
   "source_file" : "/frameworks/native/libs/gralloc/types/include/gralloctypes/Gralloc4.h"
  },
  {
   "alignment" : 4,
   "linker_set_key" : "_ZTIPN4aidl7android8hardware8graphics6common9BlendModeE",
   "name" : "aidl::android::hardware::graphics::common::BlendMode *",
   "referenced_type" : "_ZTIN4aidl7android8hardware8graphics6common9BlendModeE",
   "self_type" : "_ZTIPN4aidl7android8hardware8graphics6common9BlendModeE",
   "size" : 4,
   "source_file" : "/frameworks/native/libs/gralloc/types/include/gralloctypes/Gralloc4.h"
  },
  {
   "alignment" : 4,
   "linker_set_key" : "_ZTIPN4aidl7android8hardware8graphics6common9DataspaceE",
   "name" : "aidl::android::hardware::graphics::common::Dataspace *",
   "referenced_type" : "_ZTIN4aidl7android8hardware8graphics6common9DataspaceE",
   "self_type" : "_ZTIPN4aidl7android8hardware8graphics6common9DataspaceE",
   "size" : 4,
   "source_file" : "/frameworks/native/libs/gralloc/types/include/gralloctypes/Gralloc4.h"
  },
  {
   "alignment" : 4,
   "linker_set_key" : "_ZTIPN7android16ReferenceRenamerE",
   "name" : "android::ReferenceRenamer *",
   "referenced_type" : "_ZTIN7android16ReferenceRenamerE",
   "self_type" : "_ZTIPN7android16ReferenceRenamerE",
   "size" : 4,
   "source_file" : "/system/core/libutils/include/utils/RefBase.h"
  },
  {
   "alignment" : 4,
   "linker_set_key" : "_ZTIPN7android19VirtualLightRefBaseE",
   "name" : "android::VirtualLightRefBase *",
   "referenced_type" : "_ZTIN7android19VirtualLightRefBaseE",
   "self_type" : "_ZTIPN7android19VirtualLightRefBaseE",
   "size" : 4,
   "source_file" : "/system/core/libutils/include/utils/LightRefBase.h"
  },
  {
   "alignment" : 4,
   "linker_set_key" : "_ZTIPN7android2spINS_4hidl7manager4V1_020IServiceNotificationEEE",
   "name" : "android::sp<android::hidl::manager::V1_0::IServiceNotification> *",
   "referenced_type" : "_ZTIN7android2spINS_4hidl7manager4V1_020IServiceNotificationEEE",
   "self_type" : "_ZTIPN7android2spINS_4hidl7manager4V1_020IServiceNotificationEEE",
   "size" : 4,
   "source_file" : "/system/core/libutils/include/utils/StrongPointer.h"
  },
  {
   "alignment" : 4,
   "linker_set_key" : "_ZTIPN7android2spINS_8hardware8graphics6mapper4V4_07IMapperEEE",
   "name" : "android::sp<android::hardware::graphics::mapper::V4_0::IMapper> *",
   "referenced_type" : "_ZTIN7android2spINS_8hardware8graphics6mapper4V4_07IMapperEEE",
   "self_type" : "_ZTIPN7android2spINS_8hardware8graphics6mapper4V4_07IMapperEEE",
   "size" : 4,
   "source_file" : "/system/core/libutils/include/utils/StrongPointer.h"
  },
  {
   "alignment" : 4,
   "linker_set_key" : "_ZTIPN7android4hidl4base4V1_05IBaseE",
   "name" : "android::hidl::base::V1_0::IBase *",
   "referenced_type" : "_ZTIN7android4hidl4base4V1_05IBaseE",
   "self_type" : "_ZTIPN7android4hidl4base4V1_05IBaseE",
   "size" : 4,
   "source_file" : "/system/core/libutils/include/utils/StrongPointer.h"
  },
  {
   "alignment" : 4,
   "linker_set_key" : "_ZTIPN7android4hidl7manager4V1_020IServiceNotificationE",
   "name" : "android::hidl::manager::V1_0::IServiceNotification *",
   "referenced_type" : "_ZTIN7android4hidl7manager4V1_020IServiceNotificationE",
   "self_type" : "_ZTIPN7android4hidl7manager4V1_020IServiceNotificationE",
   "size" : 4,
   "source_file" : "/system/core/libutils/include/utils/StrongPointer.h"
  },
  {
   "alignment" : 4,
   "linker_set_key" : "_ZTIPN7android7RefBase12weakref_implE",
   "name" : "android::RefBase::weakref_impl *",
   "referenced_type" : "_ZTIN7android7RefBase12weakref_implE",
   "self_type" : "_ZTIPN7android7RefBase12weakref_implE",
   "size" : 4,
   "source_file" : "/system/core/libutils/include/utils/RefBase.h"
  },
  {
   "alignment" : 4,
   "linker_set_key" : "_ZTIPN7android7RefBaseE",
   "name" : "android::RefBase *",
   "referenced_type" : "_ZTIN7android7RefBaseE",
   "self_type" : "_ZTIPN7android7RefBaseE",
   "size" : 4,
   "source_file" : "/system/core/libutils/include/utils/RefBase.h"
  },
  {
   "alignment" : 4,
   "linker_set_key" : "_ZTIPN7android8hardware10hidl_arrayIjLj10EJEEE",
   "name" : "android::hardware::hidl_array<unsigned int, 10> *",
   "referenced_type" : "_ZTIN7android8hardware10hidl_arrayIjLj10EJEEE",
   "self_type" : "_ZTIPN7android8hardware10hidl_arrayIjLj10EJEEE",
   "size" : 4,
   "source_file" : "/system/libhidl/base/include/hidl/HidlSupport.h"
  },
  {
   "alignment" : 4,
   "linker_set_key" : "_ZTIPN7android8hardware11hidl_memoryE",
   "name" : "android::hardware::hidl_memory *",
   "referenced_type" : "_ZTIN7android8hardware11hidl_memoryE",
   "self_type" : "_ZTIPN7android8hardware11hidl_memoryE",
   "size" : 4,
   "source_file" : "/system/libhidl/base/include/hidl/HidlSupport.h"
  },
  {
   "alignment" : 4,
   "linker_set_key" : "_ZTIPN7android8hardware12hidl_versionE",
   "name" : "android::hardware::hidl_version *",
   "referenced_type" : "_ZTIN7android8hardware12hidl_versionE",
   "self_type" : "_ZTIPN7android8hardware12hidl_versionE",
   "size" : 4,
   "source_file" : "/system/libhidl/base/include/hidl/HidlSupport.h"
  },
  {
   "alignment" : 4,
   "linker_set_key" : "_ZTIPN7android8hardware17GrantorDescriptorE",
   "name" : "android::hardware::GrantorDescriptor *",
   "referenced_type" : "_ZTIN7android8hardware17GrantorDescriptorE",
   "self_type" : "_ZTIPN7android8hardware17GrantorDescriptorE",
   "size" : 4,
   "source_file" : "/system/libhidl/base/include/hidl/HidlInternal.h"
  },
  {
   "alignment" : 4,
   "linker_set_key" : "_ZTIPN7android8hardware20hidl_death_recipientE",
   "name" : "android::hardware::hidl_death_recipient *",
   "referenced_type" : "_ZTIN7android8hardware20hidl_death_recipientE",
   "self_type" : "_ZTIPN7android8hardware20hidl_death_recipientE",
   "size" : 4,
   "source_file" : "/system/core/libutils/include/utils/StrongPointer.h"
  },
  {
   "alignment" : 4,
   "linker_set_key" : "_ZTIPN7android8hardware6ReturnIvEE",
   "name" : "android::hardware::Return<void> *",
   "referenced_type" : "_ZTIN7android8hardware6ReturnIvEE",
   "self_type" : "_ZTIPN7android8hardware6ReturnIvEE",
   "size" : 4,
   "source_file" : "/system/libhidl/base/include/hidl/Status.h"
  },
  {
   "alignment" : 4,
   "linker_set_key" : "_ZTIPN7android8hardware6StatusE",
   "name" : "android::hardware::Status *",
   "referenced_type" : "_ZTIN7android8hardware6StatusE",
   "self_type" : "_ZTIPN7android8hardware6StatusE",
   "size" : 4,
   "source_file" : "/system/libhidl/base/include/hidl/Status.h"
  },
  {
   "alignment" : 4,
   "linker_set_key" : "_ZTIPN7android8hardware7details12hidl_pointerIhEE",
   "name" : "android::hardware::details::hidl_pointer<unsigned char> *",
   "referenced_type" : "_ZTIN7android8hardware7details12hidl_pointerIhEE",
   "self_type" : "_ZTIPN7android8hardware7details12hidl_pointerIhEE",
   "size" : 4,
   "source_file" : "/system/libhidl/base/include/hidl/HidlInternal.h"
  },
  {
   "alignment" : 4,
   "linker_set_key" : "_ZTIPN7android8hardware7details13return_statusE",
   "name" : "android::hardware::details::return_status *",
   "referenced_type" : "_ZTIN7android8hardware7details13return_statusE",
   "self_type" : "_ZTIPN7android8hardware7details13return_statusE",
   "size" : 4,
   "source_file" : "/system/libhidl/base/include/hidl/Status.h"
  },
  {
   "alignment" : 4,
   "linker_set_key" : "_ZTIPN7android8hardware7details14const_accessorIjLj10EJEEE",
   "name" : "android::hardware::details::const_accessor<unsigned int, 10> *",
   "referenced_type" : "_ZTIN7android8hardware7details14const_accessorIjLj10EJEEE",
   "self_type" : "_ZTIPN7android8hardware7details14const_accessorIjLj10EJEEE",
   "size" : 4,
   "source_file" : "/system/libhidl/base/include/hidl/HidlSupport.h"
  },
  {
   "alignment" : 4,
   "linker_set_key" : "_ZTIPN7android8hardware7details16HidlInstrumentorE",
   "name" : "android::hardware::details::HidlInstrumentor *",
   "referenced_type" : "_ZTIN7android8hardware7details16HidlInstrumentorE",
   "self_type" : "_ZTIPN7android8hardware7details16HidlInstrumentorE",
   "size" : 4,
   "source_file" : "/system/libhidl/base/include/hidl/HidlInternal.h"
  },
  {
   "alignment" : 4,
   "linker_set_key" : "_ZTIPN7android8hardware8graphics6common4V1_211PixelFormatE",
   "name" : "android::hardware::graphics::common::V1_2::PixelFormat *",
   "referenced_type" : "_ZTIN7android8hardware8graphics6common4V1_211PixelFormatE",
   "self_type" : "_ZTIPN7android8hardware8graphics6common4V1_211PixelFormatE",
   "size" : 4,
   "source_file" : "/frameworks/native/libs/gralloc/types/include/gralloctypes/Gralloc4.h"
  },
  {
   "alignment" : 4,
   "linker_set_key" : "_ZTIPN7android8hardware8graphics6mapper4V4_07IMapper12MetadataDumpE",
   "name" : "android::hardware::graphics::mapper::V4_0::IMapper::MetadataDump *",
   "referenced_type" : "_ZTIN7android8hardware8graphics6mapper4V4_07IMapper12MetadataDumpE",
   "self_type" : "_ZTIPN7android8hardware8graphics6mapper4V4_07IMapper12MetadataDumpE",
   "size" : 4,
   "source_file" : "/system/libhidl/base/include/hidl/HidlInternal.h"
  },
  {
   "alignment" : 4,
   "linker_set_key" : "_ZTIPN7android8hardware8graphics6mapper4V4_07IMapper20BufferDescriptorInfoE",
   "name" : "android::hardware::graphics::mapper::V4_0::IMapper::BufferDescriptorInfo *",
   "referenced_type" : "_ZTIN7android8hardware8graphics6mapper4V4_07IMapper20BufferDescriptorInfoE",
   "self_type" : "_ZTIPN7android8hardware8graphics6mapper4V4_07IMapper20BufferDescriptorInfoE",
   "size" : 4,
   "source_file" : "/frameworks/native/libs/gralloc/types/include/gralloctypes/Gralloc4.h"
  },
  {
   "alignment" : 4,
   "linker_set_key" : "_ZTIPN7android8hardware8graphics6mapper4V4_07IMapperE",
   "name" : "android::hardware::graphics::mapper::V4_0::IMapper *",
   "referenced_type" : "_ZTIN7android8hardware8graphics6mapper4V4_07IMapperE",
   "self_type" : "_ZTIPN7android8hardware8graphics6mapper4V4_07IMapperE",
   "size" : 4,
   "source_file" : "/system/core/libutils/include/utils/StrongPointer.h"
  },
  {
   "alignment" : 4,
   "linker_set_key" : "_ZTIPN7android8hardware8hidl_vecIhEE",
   "name" : "android::hardware::hidl_vec<unsigned char> *",
   "referenced_type" : "_ZTIN7android8hardware8hidl_vecIhEE",
   "self_type" : "_ZTIPN7android8hardware8hidl_vecIhEE",
   "size" : 4,
   "source_file" : "/system/libhidl/base/include/hidl/HidlSupport.h"
  },
  {
   "alignment" : 4,
   "linker_set_key" : "_ZTIPNSt3__112basic_stringIcNS_11char_traitsIcEENS_9allocatorIcEEEE",
   "name" : "std::basic_string<char, std::char_traits<char>, std::allocator<char> > *",
   "referenced_type" : "_ZTINSt3__112basic_stringIcNS_11char_traitsIcEENS_9allocatorIcEEEE",
   "self_type" : "_ZTIPNSt3__112basic_stringIcNS_11char_traitsIcEENS_9allocatorIcEEEE",
   "size" : 4,
   "source_file" : "/frameworks/native/libs/gralloc/types/include/gralloctypes/Gralloc4.h"
  },
  {
   "alignment" : 4,
   "linker_set_key" : "_ZTIPNSt3__16vectorIN4aidl7android8hardware8graphics6common11PlaneLayoutENS_9allocatorIS6_EEEE",
   "name" : "std::vector<aidl::android::hardware::graphics::common::PlaneLayout, std::allocator<aidl::android::hardware::graphics::common::PlaneLayout> > *",
   "referenced_type" : "_ZTINSt3__16vectorIN4aidl7android8hardware8graphics6common11PlaneLayoutENS_9allocatorIS6_EEEE",
   "self_type" : "_ZTIPNSt3__16vectorIN4aidl7android8hardware8graphics6common11PlaneLayoutENS_9allocatorIS6_EEEE",
   "size" : 4,
   "source_file" : "/frameworks/native/libs/gralloc/types/include/gralloctypes/Gralloc4.h"
  },
  {
   "alignment" : 4,
   "linker_set_key" : "_ZTIPNSt3__16vectorIN4aidl7android8hardware8graphics6common4RectENS_9allocatorIS6_EEEE",
   "name" : "std::vector<aidl::android::hardware::graphics::common::Rect, std::allocator<aidl::android::hardware::graphics::common::Rect> > *",
   "referenced_type" : "_ZTINSt3__16vectorIN4aidl7android8hardware8graphics6common4RectENS_9allocatorIS6_EEEE",
   "self_type" : "_ZTIPNSt3__16vectorIN4aidl7android8hardware8graphics6common4RectENS_9allocatorIS6_EEEE",
   "size" : 4,
   "source_file" : "/frameworks/native/libs/gralloc/types/include/gralloctypes/Gralloc4.h"
  },
  {
   "alignment" : 4,
   "linker_set_key" : "_ZTIPNSt3__18optionalIN4aidl7android8hardware8graphics6common8Cta861_3EEE",
   "name" : "std::optional<aidl::android::hardware::graphics::common::Cta861_3> *",
   "referenced_type" : "_ZTINSt3__18optionalIN4aidl7android8hardware8graphics6common8Cta861_3EEE",
   "self_type" : "_ZTIPNSt3__18optionalIN4aidl7android8hardware8graphics6common8Cta861_3EEE",
   "size" : 4,
   "source_file" : "/frameworks/native/libs/gralloc/types/include/gralloctypes/Gralloc4.h"
  },
  {
   "alignment" : 4,
   "linker_set_key" : "_ZTIPNSt3__18optionalIN4aidl7android8hardware8graphics6common9Smpte2086EEE",
   "name" : "std::optional<aidl::android::hardware::graphics::common::Smpte2086> *",
   "referenced_type" : "_ZTINSt3__18optionalIN4aidl7android8hardware8graphics6common9Smpte2086EEE",
   "self_type" : "_ZTIPNSt3__18optionalIN4aidl7android8hardware8graphics6common9Smpte2086EEE",
   "size" : 4,
   "source_file" : "/frameworks/native/libs/gralloc/types/include/gralloctypes/Gralloc4.h"
  },
  {
   "alignment" : 4,
   "linker_set_key" : "_ZTIPNSt3__18optionalINS_6vectorIhNS_9allocatorIhEEEEEE",
   "name" : "std::optional<std::vector<unsigned char, std::allocator<unsigned char> > > *",
   "referenced_type" : "_ZTINSt3__18optionalINS_6vectorIhNS_9allocatorIhEEEEEE",
   "self_type" : "_ZTIPNSt3__18optionalINS_6vectorIhNS_9allocatorIhEEEEEE",
   "size" : 4,
   "source_file" : "/frameworks/native/libs/gralloc/types/include/gralloctypes/Gralloc4.h"
  },
  {
   "alignment" : 4,
   "linker_set_key" : "_ZTIPP8AIBinder",
   "name" : "AIBinder **",
   "referenced_type" : "_ZTIP8AIBinder",
   "self_type" : "_ZTIPP8AIBinder",
   "size" : 4,
   "source_file" : "/frameworks/native/libs/binder/ndk/include_ndk/android/binder_auto_utils.h"
  },
  {
   "alignment" : 4,
   "linker_set_key" : "_ZTIPPKc",
   "name" : "const char **",
   "referenced_type" : "_ZTIPKc",
   "self_type" : "_ZTIPPKc",
   "size" : 4,
   "source_file" : "/frameworks/native/libs/binder/ndk/include_ndk/android/binder_interface_utils.h"
  },
  {
   "alignment" : 4,
   "linker_set_key" : "_ZTIPc",
   "name" : "char *",
   "referenced_type" : "_ZTIc",
   "self_type" : "_ZTIPc",
   "size" : 4,
   "source_file" : "/system/core/liblog/include/log/log_read.h"
  },
  {
   "alignment" : 4,
   "linker_set_key" : "_ZTIPd",
   "name" : "double *",
   "referenced_type" : "_ZTId",
   "self_type" : "_ZTIPd",
   "size" : 4,
   "source_file" : "/frameworks/native/libs/gralloc/types/include/gralloctypes/Gralloc4.h"
  },
  {
   "alignment" : 4,
   "linker_set_key" : "_ZTIPf",
   "name" : "float *",
   "referenced_type" : "_ZTIf",
   "self_type" : "_ZTIPf",
   "size" : 4,
   "source_file" : "/frameworks/native/libs/gralloc/types/include/gralloctypes/Gralloc4.h"
  },
  {
   "alignment" : 4,
   "linker_set_key" : "_ZTIPh",
   "name" : "unsigned char *",
   "referenced_type" : "_ZTIh",
   "self_type" : "_ZTIPh",
   "size" : 4,
   "source_file" : "/system/libhidl/base/include/hidl/HidlInternal.h"
  },
  {
   "alignment" : 4,
   "linker_set_key" : "_ZTIPi",
   "name" : "int *",
   "referenced_type" : "_ZTIi",
   "self_type" : "_ZTIPi",
   "size" : 4,
   "source_file" : "/frameworks/native/libs/gralloc/types/include/gralloctypes/Gralloc4.h"
  },
  {
   "alignment" : 4,
   "linker_set_key" : "_ZTIPj",
   "name" : "unsigned int *",
   "referenced_type" : "_ZTIj",
   "self_type" : "_ZTIPj",
   "size" : 4,
   "source_file" : "/frameworks/native/libs/gralloc/types/include/gralloctypes/Gralloc4.h"
  },
  {
   "alignment" : 4,
   "linker_set_key" : "_ZTIPv",
   "name" : "void *",
   "referenced_type" : "_ZTIv",
   "self_type" : "_ZTIPv",
   "size" : 4,
   "source_file" : "/frameworks/native/libs/binder/ndk/include_ndk/android/binder_interface_utils.h"
  },
  {
   "alignment" : 4,
   "linker_set_key" : "_ZTIPx",
   "name" : "long long *",
   "referenced_type" : "_ZTIx",
   "self_type" : "_ZTIPx",
   "size" : 4,
   "source_file" : "/frameworks/native/libs/gralloc/types/include/gralloctypes/Gralloc4.h"
  },
  {
   "alignment" : 4,
   "linker_set_key" : "_ZTIPy",
   "name" : "unsigned long long *",
   "referenced_type" : "_ZTIy",
   "self_type" : "_ZTIPy",
   "size" : 4,
   "source_file" : "/frameworks/native/libs/gralloc/types/include/gralloctypes/Gralloc4.h"
  }
 ],
 "qualified_types" :
 [
  {
   "alignment" : 4,
   "is_const" : true,
   "linker_set_key" : "_ZTIK13native_handle",
   "name" : "const native_handle",
   "referenced_type" : "_ZTI13native_handle",
   "self_type" : "_ZTIK13native_handle",
   "size" : 12,
   "source_file" : "/system/libhidl/base/include/hidl/HidlInternal.h"
  },
  {
   "is_const" : true,
   "linker_set_key" : "_ZTIK7AParcel",
   "name" : "const AParcel",
   "referenced_type" : "_ZTI7AParcel",
   "self_type" : "_ZTIK7AParcel",
   "source_file" : "/frameworks/native/libs/binder/ndk/include_ndk/android/binder_interface_utils.h"
  },
  {
   "alignment" : 4,
   "is_const" : true,
   "linker_set_key" : "_ZTIK7log_msg",
   "name" : "const log_msg",
   "referenced_type" : "_ZTI7log_msg",
   "self_type" : "_ZTIK7log_msg",
   "size" : 5124,
   "source_file" : "/system/core/liblog/include/log/log_read.h"
  },
  {
   "alignment" : 4,
   "is_const" : true,
   "linker_set_key" : "_ZTIKN3ndk10SpAIBinderE",
   "name" : "const ndk::SpAIBinder",
   "referenced_type" : "_ZTIN3ndk10SpAIBinderE",
   "self_type" : "_ZTIKN3ndk10SpAIBinderE",
   "size" : 4,
   "source_file" : "/frameworks/native/libs/binder/ndk/include_ndk/android/binder_auto_utils.h"
  },
  {
   "alignment" : 4,
   "is_const" : true,
   "linker_set_key" : "_ZTIKN3ndk13ScopedAStatusE",
   "name" : "const ndk::ScopedAStatus",
   "referenced_type" : "_ZTIN3ndk13ScopedAStatusE",
   "self_type" : "_ZTIKN3ndk13ScopedAStatusE",
   "size" : 4,
   "source_file" : "/frameworks/native/libs/binder/ndk/include_ndk/android/binder_auto_utils.h"
  },
  {
   "alignment" : 4,
   "is_const" : true,
   "linker_set_key" : "_ZTIKN3ndk4impl15ScopedAResourceIP7AStatusvXadL_Z14AStatus_deleteEELS3_0EEE",
   "name" : "const ndk::impl::ScopedAResource<AStatus *, void, &AStatus_delete, nullptr>",
   "referenced_type" : "_ZTIN3ndk4impl15ScopedAResourceIP7AStatusvXadL_Z14AStatus_deleteEELS3_0EEE",
   "self_type" : "_ZTIKN3ndk4impl15ScopedAResourceIP7AStatusvXadL_Z14AStatus_deleteEELS3_0EEE",
   "size" : 4,
   "source_file" : "/frameworks/native/libs/binder/ndk/include_ndk/android/binder_auto_utils.h"
  },
  {
   "alignment" : 4,
   "is_const" : true,
   "linker_set_key" : "_ZTIKN4aidl7android8hardware8graphics6common11PlaneLayoutE",
   "name" : "const aidl::android::hardware::graphics::common::PlaneLayout",
   "referenced_type" : "_ZTIN4aidl7android8hardware8graphics6common11PlaneLayoutE",
   "self_type" : "_ZTIKN4aidl7android8hardware8graphics6common11PlaneLayoutE",
   "size" : 76,
   "source_file" : "/frameworks/native/libs/gralloc/types/include/gralloctypes/Gralloc4.h"
  },
  {
   "alignment" : 4,
   "is_const" : true,
   "linker_set_key" : "_ZTIKN4aidl7android8hardware8graphics6common14ExtendableTypeE",
   "name" : "const aidl::android::hardware::graphics::common::ExtendableType",
   "referenced_type" : "_ZTIN4aidl7android8hardware8graphics6common14ExtendableTypeE",
   "self_type" : "_ZTIKN4aidl7android8hardware8graphics6common14ExtendableTypeE",
   "size" : 20,
   "source_file" : "/frameworks/native/libs/gralloc/types/include/gralloctypes/Gralloc4.h"
  },
  {
   "alignment" : 4,
   "is_const" : true,
   "linker_set_key" : "_ZTIKN4aidl7android8hardware8graphics6common20PlaneLayoutComponentE",
   "name" : "const aidl::android::hardware::graphics::common::PlaneLayoutComponent",
   "referenced_type" : "_ZTIN4aidl7android8hardware8graphics6common20PlaneLayoutComponentE",
   "self_type" : "_ZTIKN4aidl7android8hardware8graphics6common20PlaneLayoutComponentE",
   "size" : 36,
   "source_file" : "/frameworks/native/libs/gralloc/types/include/gralloctypes/Gralloc4.h"
  },
  {
   "alignment" : 4,
   "is_const" : true,
   "linker_set_key" : "_ZTIKN4aidl7android8hardware8graphics6common4RectE",
   "name" : "const aidl::android::hardware::graphics::common::Rect",
   "referenced_type" : "_ZTIN4aidl7android8hardware8graphics6common4RectE",
   "self_type" : "_ZTIKN4aidl7android8hardware8graphics6common4RectE",
   "size" : 16,
   "source_file" : "/frameworks/native/libs/gralloc/types/include/gralloctypes/Gralloc4.h"
  },
  {
   "alignment" : 4,
   "is_const" : true,
   "linker_set_key" : "_ZTIKN4aidl7android8hardware8graphics6common7XyColorE",
   "name" : "const aidl::android::hardware::graphics::common::XyColor",
   "referenced_type" : "_ZTIN4aidl7android8hardware8graphics6common7XyColorE",
   "self_type" : "_ZTIKN4aidl7android8hardware8graphics6common7XyColorE",
   "size" : 8,
   "source_file" : "/frameworks/native/libs/gralloc/types/include/gralloctypes/Gralloc4.h"
  },
  {
   "alignment" : 4,
   "is_const" : true,
   "linker_set_key" : "_ZTIKN4aidl7android8hardware8graphics6common8Cta861_3E",
   "name" : "const aidl::android::hardware::graphics::common::Cta861_3",
   "referenced_type" : "_ZTIN4aidl7android8hardware8graphics6common8Cta861_3E",
   "self_type" : "_ZTIKN4aidl7android8hardware8graphics6common8Cta861_3E",
   "size" : 8,
   "source_file" : "/frameworks/native/libs/gralloc/types/include/gralloctypes/Gralloc4.h"
  },
  {
   "alignment" : 4,
   "is_const" : true,
   "linker_set_key" : "_ZTIKN4aidl7android8hardware8graphics6common9BlendModeE",
   "name" : "const aidl::android::hardware::graphics::common::BlendMode",
   "referenced_type" : "_ZTIN4aidl7android8hardware8graphics6common9BlendModeE",
   "self_type" : "_ZTIKN4aidl7android8hardware8graphics6common9BlendModeE",
   "size" : 4,
   "source_file" : "/frameworks/native/libs/gralloc/types/include/gralloctypes/Gralloc4.h"
  },
  {
   "alignment" : 4,
   "is_const" : true,
   "linker_set_key" : "_ZTIKN4aidl7android8hardware8graphics6common9DataspaceE",
   "name" : "const aidl::android::hardware::graphics::common::Dataspace",
   "referenced_type" : "_ZTIN4aidl7android8hardware8graphics6common9DataspaceE",
   "self_type" : "_ZTIKN4aidl7android8hardware8graphics6common9DataspaceE",
   "size" : 4,
   "source_file" : "/frameworks/native/libs/gralloc/types/include/gralloctypes/Gralloc4.h"
  },
  {
   "alignment" : 4,
   "is_const" : true,
   "linker_set_key" : "_ZTIKN4aidl7android8hardware8graphics6common9Smpte2086E",
   "name" : "const aidl::android::hardware::graphics::common::Smpte2086",
   "referenced_type" : "_ZTIN4aidl7android8hardware8graphics6common9Smpte2086E",
   "self_type" : "_ZTIKN4aidl7android8hardware8graphics6common9Smpte2086E",
   "size" : 40,
   "source_file" : "/frameworks/native/libs/gralloc/types/include/gralloctypes/Gralloc4.h"
  },
  {
   "alignment" : 4,
   "is_const" : true,
   "linker_set_key" : "_ZTIKN7android12NativeHandleE",
   "name" : "const android::NativeHandle",
   "referenced_type" : "_ZTIN7android12NativeHandleE",
   "self_type" : "_ZTIKN7android12NativeHandleE",
   "size" : 12,
   "source_file" : "/system/core/libutils/include/utils/NativeHandle.h"
  },
  {
   "alignment" : 4,
   "is_const" : true,
   "linker_set_key" : "_ZTIKN7android2spINS_4hidl4base4V1_05IBaseEEE",
   "name" : "const android::sp<android::hidl::base::V1_0::IBase>",
   "referenced_type" : "_ZTIN7android2spINS_4hidl4base4V1_05IBaseEEE",
   "self_type" : "_ZTIKN7android2spINS_4hidl4base4V1_05IBaseEEE",
   "size" : 4,
   "source_file" : "/system/core/libutils/include/utils/StrongPointer.h"
  },
  {
   "alignment" : 4,
   "is_const" : true,
   "linker_set_key" : "_ZTIKN7android2spINS_4hidl7manager4V1_020IServiceNotificationEEE",
   "name" : "const android::sp<android::hidl::manager::V1_0::IServiceNotification>",
   "referenced_type" : "_ZTIN7android2spINS_4hidl7manager4V1_020IServiceNotificationEEE",
   "self_type" : "_ZTIKN7android2spINS_4hidl7manager4V1_020IServiceNotificationEEE",
   "size" : 4,
   "source_file" : "/system/core/libutils/include/utils/StrongPointer.h"
  },
  {
   "alignment" : 4,
   "is_const" : true,
   "linker_set_key" : "_ZTIKN7android2spINS_8hardware20hidl_death_recipientEEE",
   "name" : "const android::sp<android::hardware::hidl_death_recipient>",
   "referenced_type" : "_ZTIN7android2spINS_8hardware20hidl_death_recipientEEE",
   "self_type" : "_ZTIKN7android2spINS_8hardware20hidl_death_recipientEEE",
   "size" : 4,
   "source_file" : "/system/core/libutils/include/utils/StrongPointer.h"
  },
  {
   "alignment" : 4,
   "is_const" : true,
   "linker_set_key" : "_ZTIKN7android2spINS_8hardware8graphics6mapper4V4_07IMapperEEE",
   "name" : "const android::sp<android::hardware::graphics::mapper::V4_0::IMapper>",
   "referenced_type" : "_ZTIN7android2spINS_8hardware8graphics6mapper4V4_07IMapperEEE",
   "self_type" : "_ZTIKN7android2spINS_8hardware8graphics6mapper4V4_07IMapperEEE",
   "size" : 4,
   "source_file" : "/system/core/libutils/include/utils/StrongPointer.h"
  },
  {
   "alignment" : 4,
   "is_const" : true,
   "linker_set_key" : "_ZTIKN7android4hidl4base4V1_05IBaseE",
   "name" : "const android::hidl::base::V1_0::IBase",
   "referenced_type" : "_ZTIN7android4hidl4base4V1_05IBaseE",
   "self_type" : "_ZTIKN7android4hidl4base4V1_05IBaseE",
   "size" : 12,
   "source_file" : "/out/soong/.intermediates/system/libhidl/transport/base/1.0/android.hidl.base@1.0_genc++_headers/gen/android/hidl/base/1.0/IBase.h"
  },
  {
   "alignment" : 4,
   "is_const" : true,
   "linker_set_key" : "_ZTIKN7android4hidl4base4V1_09DebugInfo12ArchitectureE",
   "name" : "const android::hidl::base::V1_0::DebugInfo::Architecture",
   "referenced_type" : "_ZTIN7android4hidl4base4V1_09DebugInfo12ArchitectureE",
   "self_type" : "_ZTIKN7android4hidl4base4V1_09DebugInfo12ArchitectureE",
   "size" : 4,
   "source_file" : "/out/soong/.intermediates/system/libhidl/transport/base/1.0/android.hidl.base@1.0_genc++_headers/gen/android/hidl/base/1.0/types.h"
  },
  {
   "alignment" : 4,
   "is_const" : true,
   "linker_set_key" : "_ZTIKN7android4hidl7manager4V1_020IServiceNotificationE",
   "name" : "const android::hidl::manager::V1_0::IServiceNotification",
   "referenced_type" : "_ZTIN7android4hidl7manager4V1_020IServiceNotificationE",
   "self_type" : "_ZTIKN7android4hidl7manager4V1_020IServiceNotificationE",
   "size" : 12,
   "source_file" : "/out/soong/.intermediates/system/libhidl/transport/manager/1.0/android.hidl.manager@1.0_genc++_headers/gen/android/hidl/manager/1.0/IServiceNotification.h"
  },
  {
   "alignment" : 4,
   "is_const" : true,
   "linker_set_key" : "_ZTIKN7android7RefBaseE",
   "name" : "const android::RefBase",
   "referenced_type" : "_ZTIN7android7RefBaseE",
   "self_type" : "_ZTIKN7android7RefBaseE",
   "size" : 8,
   "source_file" : "/system/core/libutils/include/utils/RefBase.h"
  },
  {
   "alignment" : 4,
   "is_const" : true,
   "linker_set_key" : "_ZTIKN7android8hardware10hidl_arrayIjLj10EJEEE",
   "name" : "const android::hardware::hidl_array<unsigned int, 10>",
   "referenced_type" : "_ZTIN7android8hardware10hidl_arrayIjLj10EJEEE",
   "self_type" : "_ZTIKN7android8hardware10hidl_arrayIjLj10EJEEE",
   "size" : 40,
   "source_file" : "/system/libhidl/base/include/hidl/HidlSupport.h"
  },
  {
   "alignment" : 4,
   "is_const" : true,
   "linker_set_key" : "_ZTIKN7android8hardware11hidl_handleE",
   "name" : "const android::hardware::hidl_handle",
   "referenced_type" : "_ZTIN7android8hardware11hidl_handleE",
   "self_type" : "_ZTIKN7android8hardware11hidl_handleE",
   "size" : 16,
   "source_file" : "/system/libhidl/base/include/hidl/HidlSupport.h"
  },
  {
   "alignment" : 4,
   "is_const" : true,
   "linker_set_key" : "_ZTIKN7android8hardware11hidl_memoryE",
   "name" : "const android::hardware::hidl_memory",
   "referenced_type" : "_ZTIN7android8hardware11hidl_memoryE",
   "self_type" : "_ZTIKN7android8hardware11hidl_memoryE",
   "size" : 40,
   "source_file" : "/system/libhidl/base/include/hidl/HidlSupport.h"
  },
  {
   "alignment" : 4,
   "is_const" : true,
   "linker_set_key" : "_ZTIKN7android8hardware11hidl_stringE",
   "name" : "const android::hardware::hidl_string",
   "referenced_type" : "_ZTIN7android8hardware11hidl_stringE",
   "self_type" : "_ZTIKN7android8hardware11hidl_stringE",
   "size" : 16,
   "source_file" : "/system/libhidl/base/include/hidl/HidlSupport.h"
  },
  {
   "alignment" : 2,
   "is_const" : true,
   "linker_set_key" : "_ZTIKN7android8hardware12hidl_versionE",
   "name" : "const android::hardware::hidl_version",
   "referenced_type" : "_ZTIN7android8hardware12hidl_versionE",
   "self_type" : "_ZTIKN7android8hardware12hidl_versionE",
   "size" : 4,
   "source_file" : "/system/libhidl/base/include/hidl/HidlSupport.h"
  },
  {
   "alignment" : 4,
   "is_const" : true,
   "linker_set_key" : "_ZTIKN7android8hardware6StatusE",
   "name" : "const android::hardware::Status",
   "referenced_type" : "_ZTIN7android8hardware6StatusE",
   "self_type" : "_ZTIKN7android8hardware6StatusE",
   "size" : 20,
   "source_file" : "/system/libhidl/base/include/hidl/Status.h"
  },
  {
   "alignment" : 4,
   "is_const" : true,
   "linker_set_key" : "_ZTIKN7android8hardware7details12hidl_pointerINS0_8graphics6mapper4V4_07IMapper12MetadataDumpEEE",
   "name" : "const android::hardware::details::hidl_pointer<android::hardware::graphics::mapper::V4_0::IMapper::MetadataDump>",
   "referenced_type" : "_ZTIN7android8hardware7details12hidl_pointerINS0_8graphics6mapper4V4_07IMapper12MetadataDumpEEE",
   "self_type" : "_ZTIKN7android8hardware7details12hidl_pointerINS0_8graphics6mapper4V4_07IMapper12MetadataDumpEEE",
   "size" : 8,
   "source_file" : "/system/libhidl/base/include/hidl/HidlInternal.h"
  },
  {
   "alignment" : 4,
   "is_const" : true,
   "linker_set_key" : "_ZTIKN7android8hardware7details12hidl_pointerIhEE",
   "name" : "const android::hardware::details::hidl_pointer<unsigned char>",
   "referenced_type" : "_ZTIN7android8hardware7details12hidl_pointerIhEE",
   "self_type" : "_ZTIKN7android8hardware7details12hidl_pointerIhEE",
   "size" : 8,
   "source_file" : "/system/libhidl/base/include/hidl/HidlInternal.h"
  },
  {
   "alignment" : 4,
   "is_const" : true,
   "linker_set_key" : "_ZTIKN7android8hardware7details13return_statusE",
   "name" : "const android::hardware::details::return_status",
   "referenced_type" : "_ZTIN7android8hardware7details13return_statusE",
   "self_type" : "_ZTIKN7android8hardware7details13return_statusE",
   "size" : 24,
   "source_file" : "/system/libhidl/base/include/hidl/Status.h"
  },
  {
   "alignment" : 4,
   "is_const" : true,
   "linker_set_key" : "_ZTIKN7android8hardware7details14const_accessorIjLj10EJEEE",
   "name" : "const android::hardware::details::const_accessor<unsigned int, 10>",
   "referenced_type" : "_ZTIN7android8hardware7details14const_accessorIjLj10EJEEE",
   "self_type" : "_ZTIKN7android8hardware7details14const_accessorIjLj10EJEEE",
   "size" : 4,
   "source_file" : "/system/libhidl/base/include/hidl/HidlSupport.h"
  },
  {
   "alignment" : 4,
   "is_const" : true,
   "linker_set_key" : "_ZTIKN7android8hardware8graphics6common4V1_011BufferUsageE",
   "name" : "const android::hardware::graphics::common::V1_0::BufferUsage",
   "referenced_type" : "_ZTIN7android8hardware8graphics6common4V1_011BufferUsageE",
   "self_type" : "_ZTIKN7android8hardware8graphics6common4V1_011BufferUsageE",
   "size" : 8,
   "source_file" : "/out/soong/.intermediates/hardware/interfaces/graphics/common/1.0/android.hardware.graphics.common@1.0_genc++_headers/gen/android/hardware/graphics/common/1.0/types.h"
  },
  {
   "alignment" : 4,
   "is_const" : true,
   "linker_set_key" : "_ZTIKN7android8hardware8graphics6common4V1_011PixelFormatE",
   "name" : "const android::hardware::graphics::common::V1_0::PixelFormat",
   "referenced_type" : "_ZTIN7android8hardware8graphics6common4V1_011PixelFormatE",
   "self_type" : "_ZTIKN7android8hardware8graphics6common4V1_011PixelFormatE",
   "size" : 4,
   "source_file" : "/out/soong/.intermediates/hardware/interfaces/graphics/common/1.0/android.hardware.graphics.common@1.0_genc++_headers/gen/android/hardware/graphics/common/1.0/types.h"
  },
  {
   "alignment" : 4,
   "is_const" : true,
   "linker_set_key" : "_ZTIKN7android8hardware8graphics6common4V1_014ColorTransformE",
   "name" : "const android::hardware::graphics::common::V1_0::ColorTransform",
   "referenced_type" : "_ZTIN7android8hardware8graphics6common4V1_014ColorTransformE",
   "self_type" : "_ZTIKN7android8hardware8graphics6common4V1_014ColorTransformE",
   "size" : 4,
   "source_file" : "/out/soong/.intermediates/hardware/interfaces/graphics/common/1.0/android.hardware.graphics.common@1.0_genc++_headers/gen/android/hardware/graphics/common/1.0/types.h"
  },
  {
   "alignment" : 4,
   "is_const" : true,
   "linker_set_key" : "_ZTIKN7android8hardware8graphics6common4V1_03HdrE",
   "name" : "const android::hardware::graphics::common::V1_0::Hdr",
   "referenced_type" : "_ZTIN7android8hardware8graphics6common4V1_03HdrE",
   "self_type" : "_ZTIKN7android8hardware8graphics6common4V1_03HdrE",
   "size" : 4,
   "source_file" : "/out/soong/.intermediates/hardware/interfaces/graphics/common/1.0/android.hardware.graphics.common@1.0_genc++_headers/gen/android/hardware/graphics/common/1.0/types.h"
  },
  {
   "alignment" : 4,
   "is_const" : true,
   "linker_set_key" : "_ZTIKN7android8hardware8graphics6common4V1_09ColorModeE",
   "name" : "const android::hardware::graphics::common::V1_0::ColorMode",
   "referenced_type" : "_ZTIN7android8hardware8graphics6common4V1_09ColorModeE",
   "self_type" : "_ZTIKN7android8hardware8graphics6common4V1_09ColorModeE",
   "size" : 4,
   "source_file" : "/out/soong/.intermediates/hardware/interfaces/graphics/common/1.0/android.hardware.graphics.common@1.0_genc++_headers/gen/android/hardware/graphics/common/1.0/types.h"
  },
  {
   "alignment" : 4,
   "is_const" : true,
   "linker_set_key" : "_ZTIKN7android8hardware8graphics6common4V1_09DataspaceE",
   "name" : "const android::hardware::graphics::common::V1_0::Dataspace",
   "referenced_type" : "_ZTIN7android8hardware8graphics6common4V1_09DataspaceE",
   "self_type" : "_ZTIKN7android8hardware8graphics6common4V1_09DataspaceE",
   "size" : 4,
   "source_file" : "/out/soong/.intermediates/hardware/interfaces/graphics/common/1.0/android.hardware.graphics.common@1.0_genc++_headers/gen/android/hardware/graphics/common/1.0/types.h"
  },
  {
   "alignment" : 4,
   "is_const" : true,
   "linker_set_key" : "_ZTIKN7android8hardware8graphics6common4V1_09TransformE",
   "name" : "const android::hardware::graphics::common::V1_0::Transform",
   "referenced_type" : "_ZTIN7android8hardware8graphics6common4V1_09TransformE",
   "self_type" : "_ZTIKN7android8hardware8graphics6common4V1_09TransformE",
   "size" : 4,
   "source_file" : "/out/soong/.intermediates/hardware/interfaces/graphics/common/1.0/android.hardware.graphics.common@1.0_genc++_headers/gen/android/hardware/graphics/common/1.0/types.h"
  },
  {
   "alignment" : 4,
   "is_const" : true,
   "linker_set_key" : "_ZTIKN7android8hardware8graphics6common4V1_111BufferUsageE",
   "name" : "const android::hardware::graphics::common::V1_1::BufferUsage",
   "referenced_type" : "_ZTIN7android8hardware8graphics6common4V1_111BufferUsageE",
   "self_type" : "_ZTIKN7android8hardware8graphics6common4V1_111BufferUsageE",
   "size" : 8,
   "source_file" : "/out/soong/.intermediates/hardware/interfaces/graphics/common/1.1/android.hardware.graphics.common@1.1_genc++_headers/gen/android/hardware/graphics/common/1.1/types.h"
  },
  {
   "alignment" : 4,
   "is_const" : true,
   "linker_set_key" : "_ZTIKN7android8hardware8graphics6common4V1_111PixelFormatE",
   "name" : "const android::hardware::graphics::common::V1_1::PixelFormat",
   "referenced_type" : "_ZTIN7android8hardware8graphics6common4V1_111PixelFormatE",
   "self_type" : "_ZTIKN7android8hardware8graphics6common4V1_111PixelFormatE",
   "size" : 4,
   "source_file" : "/out/soong/.intermediates/hardware/interfaces/graphics/common/1.1/android.hardware.graphics.common@1.1_genc++_headers/gen/android/hardware/graphics/common/1.1/types.h"
  },
  {
   "alignment" : 4,
   "is_const" : true,
   "linker_set_key" : "_ZTIKN7android8hardware8graphics6common4V1_112RenderIntentE",
   "name" : "const android::hardware::graphics::common::V1_1::RenderIntent",
   "referenced_type" : "_ZTIN7android8hardware8graphics6common4V1_112RenderIntentE",
   "self_type" : "_ZTIKN7android8hardware8graphics6common4V1_112RenderIntentE",
   "size" : 4,
   "source_file" : "/out/soong/.intermediates/hardware/interfaces/graphics/common/1.1/android.hardware.graphics.common@1.1_genc++_headers/gen/android/hardware/graphics/common/1.1/types.h"
  },
  {
   "alignment" : 4,
   "is_const" : true,
   "linker_set_key" : "_ZTIKN7android8hardware8graphics6common4V1_19ColorModeE",
   "name" : "const android::hardware::graphics::common::V1_1::ColorMode",
   "referenced_type" : "_ZTIN7android8hardware8graphics6common4V1_19ColorModeE",
   "self_type" : "_ZTIKN7android8hardware8graphics6common4V1_19ColorModeE",
   "size" : 4,
   "source_file" : "/out/soong/.intermediates/hardware/interfaces/graphics/common/1.1/android.hardware.graphics.common@1.1_genc++_headers/gen/android/hardware/graphics/common/1.1/types.h"
  },
  {
   "alignment" : 4,
   "is_const" : true,
   "linker_set_key" : "_ZTIKN7android8hardware8graphics6common4V1_19DataspaceE",
   "name" : "const android::hardware::graphics::common::V1_1::Dataspace",
   "referenced_type" : "_ZTIN7android8hardware8graphics6common4V1_19DataspaceE",
   "self_type" : "_ZTIKN7android8hardware8graphics6common4V1_19DataspaceE",
   "size" : 4,
   "source_file" : "/out/soong/.intermediates/hardware/interfaces/graphics/common/1.1/android.hardware.graphics.common@1.1_genc++_headers/gen/android/hardware/graphics/common/1.1/types.h"
  },
  {
   "alignment" : 4,
   "is_const" : true,
   "linker_set_key" : "_ZTIKN7android8hardware8graphics6common4V1_211BufferUsageE",
   "name" : "const android::hardware::graphics::common::V1_2::BufferUsage",
   "referenced_type" : "_ZTIN7android8hardware8graphics6common4V1_211BufferUsageE",
   "self_type" : "_ZTIKN7android8hardware8graphics6common4V1_211BufferUsageE",
   "size" : 8,
   "source_file" : "/out/soong/.intermediates/hardware/interfaces/graphics/common/1.2/android.hardware.graphics.common@1.2_genc++_headers/gen/android/hardware/graphics/common/1.2/types.h"
  },
  {
   "alignment" : 4,
   "is_const" : true,
   "linker_set_key" : "_ZTIKN7android8hardware8graphics6common4V1_211PixelFormatE",
   "name" : "const android::hardware::graphics::common::V1_2::PixelFormat",
   "referenced_type" : "_ZTIN7android8hardware8graphics6common4V1_211PixelFormatE",
   "self_type" : "_ZTIKN7android8hardware8graphics6common4V1_211PixelFormatE",
   "size" : 4,
   "source_file" : "/out/soong/.intermediates/hardware/interfaces/graphics/common/1.2/android.hardware.graphics.common@1.2_genc++_headers/gen/android/hardware/graphics/common/1.2/types.h"
  },
  {
   "alignment" : 4,
   "is_const" : true,
   "linker_set_key" : "_ZTIKN7android8hardware8graphics6common4V1_23HdrE",
   "name" : "const android::hardware::graphics::common::V1_2::Hdr",
   "referenced_type" : "_ZTIN7android8hardware8graphics6common4V1_23HdrE",
   "self_type" : "_ZTIKN7android8hardware8graphics6common4V1_23HdrE",
   "size" : 4,
   "source_file" : "/out/soong/.intermediates/hardware/interfaces/graphics/common/1.2/android.hardware.graphics.common@1.2_genc++_headers/gen/android/hardware/graphics/common/1.2/types.h"
  },
  {
   "alignment" : 4,
   "is_const" : true,
   "linker_set_key" : "_ZTIKN7android8hardware8graphics6common4V1_29ColorModeE",
   "name" : "const android::hardware::graphics::common::V1_2::ColorMode",
   "referenced_type" : "_ZTIN7android8hardware8graphics6common4V1_29ColorModeE",
   "self_type" : "_ZTIKN7android8hardware8graphics6common4V1_29ColorModeE",
   "size" : 4,
   "source_file" : "/out/soong/.intermediates/hardware/interfaces/graphics/common/1.2/android.hardware.graphics.common@1.2_genc++_headers/gen/android/hardware/graphics/common/1.2/types.h"
  },
  {
   "alignment" : 4,
   "is_const" : true,
   "linker_set_key" : "_ZTIKN7android8hardware8graphics6common4V1_29DataspaceE",
   "name" : "const android::hardware::graphics::common::V1_2::Dataspace",
   "referenced_type" : "_ZTIN7android8hardware8graphics6common4V1_29DataspaceE",
   "self_type" : "_ZTIKN7android8hardware8graphics6common4V1_29DataspaceE",
   "size" : 4,
   "source_file" : "/out/soong/.intermediates/hardware/interfaces/graphics/common/1.2/android.hardware.graphics.common@1.2_genc++_headers/gen/android/hardware/graphics/common/1.2/types.h"
  },
  {
   "alignment" : 4,
   "is_const" : true,
   "linker_set_key" : "_ZTIKN7android8hardware8graphics6mapper4V4_05ErrorE",
   "name" : "const android::hardware::graphics::mapper::V4_0::Error",
   "referenced_type" : "_ZTIN7android8hardware8graphics6mapper4V4_05ErrorE",
   "self_type" : "_ZTIKN7android8hardware8graphics6mapper4V4_05ErrorE",
   "size" : 4,
   "source_file" : "/out/soong/.intermediates/hardware/interfaces/graphics/mapper/4.0/android.hardware.graphics.mapper@4.0_genc++_headers/gen/android/hardware/graphics/mapper/4.0/types.h"
  },
  {
   "alignment" : 8,
   "is_const" : true,
   "linker_set_key" : "_ZTIKN7android8hardware8graphics6mapper4V4_07IMapper12MetadataDumpE",
   "name" : "const android::hardware::graphics::mapper::V4_0::IMapper::MetadataDump",
   "referenced_type" : "_ZTIN7android8hardware8graphics6mapper4V4_07IMapper12MetadataDumpE",
   "self_type" : "_ZTIKN7android8hardware8graphics6mapper4V4_07IMapper12MetadataDumpE",
   "size" : 40,
   "source_file" : "/system/libhidl/base/include/hidl/HidlInternal.h"
  },
  {
   "alignment" : 8,
   "is_const" : true,
   "linker_set_key" : "_ZTIKN7android8hardware8graphics6mapper4V4_07IMapper12MetadataTypeE",
   "name" : "const android::hardware::graphics::mapper::V4_0::IMapper::MetadataType",
   "referenced_type" : "_ZTIN7android8hardware8graphics6mapper4V4_07IMapper12MetadataTypeE",
   "self_type" : "_ZTIKN7android8hardware8graphics6mapper4V4_07IMapper12MetadataTypeE",
   "size" : 24,
   "source_file" : "/frameworks/native/libs/gralloc/types/include/gralloctypes/Gralloc4.h"
  },
  {
   "alignment" : 8,
   "is_const" : true,
   "linker_set_key" : "_ZTIKN7android8hardware8graphics6mapper4V4_07IMapper20BufferDescriptorInfoE",
   "name" : "const android::hardware::graphics::mapper::V4_0::IMapper::BufferDescriptorInfo",
   "referenced_type" : "_ZTIN7android8hardware8graphics6mapper4V4_07IMapper20BufferDescriptorInfoE",
   "self_type" : "_ZTIKN7android8hardware8graphics6mapper4V4_07IMapper20BufferDescriptorInfoE",
   "size" : 48,
   "source_file" : "/frameworks/native/libs/gralloc/types/include/gralloctypes/Gralloc4.h"
  },
  {
   "alignment" : 4,
   "is_const" : true,
   "linker_set_key" : "_ZTIKN7android8hardware8graphics6mapper4V4_07IMapperE",
   "name" : "const android::hardware::graphics::mapper::V4_0::IMapper",
   "referenced_type" : "_ZTIN7android8hardware8graphics6mapper4V4_07IMapperE",
   "self_type" : "_ZTIKN7android8hardware8graphics6mapper4V4_07IMapperE",
   "size" : 12,
   "source_file" : "/out/soong/.intermediates/hardware/interfaces/graphics/mapper/4.0/android.hardware.graphics.mapper@4.0_genc++_headers/gen/android/hardware/graphics/mapper/4.0/IMapper.h"
  },
  {
   "is_const" : true,
   "linker_set_key" : "_ZTIKN7android8hardware8hidl_vec4iterIXTL0__EEE",
   "name" : "const iter<is_const>",
   "referenced_type" : "_ZTIN7android8hardware8hidl_vec4iterIXTL0__EEE",
   "self_type" : "_ZTIKN7android8hardware8hidl_vec4iterIXTL0__EEE",
   "source_file" : "/system/libhidl/base/include/hidl/HidlSupport.h"
  },
  {
   "alignment" : 4,
   "is_const" : true,
   "linker_set_key" : "_ZTIKN7android8hardware8hidl_vecINS0_8graphics6mapper4V4_07IMapper12MetadataDumpEEE",
   "name" : "const android::hardware::hidl_vec<android::hardware::graphics::mapper::V4_0::IMapper::MetadataDump>",
   "referenced_type" : "_ZTIN7android8hardware8hidl_vecINS0_8graphics6mapper4V4_07IMapper12MetadataDumpEEE",
   "self_type" : "_ZTIKN7android8hardware8hidl_vecINS0_8graphics6mapper4V4_07IMapper12MetadataDumpEEE",
   "size" : 16,
   "source_file" : "/system/libhidl/base/include/hidl/HidlSupport.h"
  },
  {
   "alignment" : 4,
   "is_const" : true,
   "linker_set_key" : "_ZTIKN7android8hardware8hidl_vecIhEE",
   "name" : "const android::hardware::hidl_vec<unsigned char>",
   "referenced_type" : "_ZTIN7android8hardware8hidl_vecIhEE",
   "self_type" : "_ZTIKN7android8hardware8hidl_vecIhEE",
   "size" : 16,
   "source_file" : "/system/libhidl/base/include/hidl/HidlSupport.h"
  },
  {
   "alignment" : 4,
   "is_const" : true,
   "linker_set_key" : "_ZTIKNSt3__112basic_stringIcNS_11char_traitsIcEENS_9allocatorIcEEEE",
   "name" : "const std::basic_string<char, std::char_traits<char>, std::allocator<char> >",
   "referenced_type" : "_ZTINSt3__112basic_stringIcNS_11char_traitsIcEENS_9allocatorIcEEEE",
   "self_type" : "_ZTIKNSt3__112basic_stringIcNS_11char_traitsIcEENS_9allocatorIcEEEE",
   "size" : 12,
   "source_file" : "/frameworks/native/libs/gralloc/types/include/gralloctypes/Gralloc4.h"
  },
  {
   "alignment" : 4,
   "is_const" : true,
   "linker_set_key" : "_ZTIKNSt3__15arrayIN4aidl7android8hardware8graphics6common10InterlacedELj3EEE",
   "name" : "const std::array<aidl::android::hardware::graphics::common::Interlaced, 3>",
   "referenced_type" : "_ZTINSt3__15arrayIN4aidl7android8hardware8graphics6common10InterlacedELj3EEE",
   "self_type" : "_ZTIKNSt3__15arrayIN4aidl7android8hardware8graphics6common10InterlacedELj3EEE",
   "size" : 24,
   "source_file" : "/out/soong/.intermediates/hardware/interfaces/graphics/common/aidl/android.hardware.graphics.common-ndk_platform-source/gen/include/aidl/android/hardware/graphics/common/Interlaced.h"
  },
  {
   "alignment" : 4,
   "is_const" : true,
   "linker_set_key" : "_ZTIKNSt3__15arrayIN4aidl7android8hardware8graphics6common11CompressionELj2EEE",
   "name" : "const std::array<aidl::android::hardware::graphics::common::Compression, 2>",
   "referenced_type" : "_ZTINSt3__15arrayIN4aidl7android8hardware8graphics6common11CompressionELj2EEE",
   "self_type" : "_ZTIKNSt3__15arrayIN4aidl7android8hardware8graphics6common11CompressionELj2EEE",
   "size" : 16,
   "source_file" : "/out/soong/.intermediates/hardware/interfaces/graphics/common/aidl/android.hardware.graphics.common-ndk_platform-source/gen/include/aidl/android/hardware/graphics/common/Compression.h"
  },
  {
   "alignment" : 4,
   "is_const" : true,
   "linker_set_key" : "_ZTIKNSt3__15arrayIN4aidl7android8hardware8graphics6common12ChromaSitingELj4EEE",
   "name" : "const std::array<aidl::android::hardware::graphics::common::ChromaSiting, 4>",
   "referenced_type" : "_ZTINSt3__15arrayIN4aidl7android8hardware8graphics6common12ChromaSitingELj4EEE",
   "self_type" : "_ZTIKNSt3__15arrayIN4aidl7android8hardware8graphics6common12ChromaSitingELj4EEE",
   "size" : 32,
   "source_file" : "/out/soong/.intermediates/hardware/interfaces/graphics/common/aidl/android.hardware.graphics.common-ndk_platform-source/gen/include/aidl/android/hardware/graphics/common/ChromaSiting.h"
  },
  {
   "alignment" : 4,
   "is_const" : true,
   "linker_set_key" : "_ZTIKNSt3__15arrayIN4aidl7android8hardware8graphics6common20StandardMetadataTypeELj22EEE",
   "name" : "const std::array<aidl::android::hardware::graphics::common::StandardMetadataType, 22>",
   "referenced_type" : "_ZTINSt3__15arrayIN4aidl7android8hardware8graphics6common20StandardMetadataTypeELj22EEE",
   "self_type" : "_ZTIKNSt3__15arrayIN4aidl7android8hardware8graphics6common20StandardMetadataTypeELj22EEE",
   "size" : 176,
   "source_file" : "/out/soong/.intermediates/hardware/interfaces/graphics/common/aidl/android.hardware.graphics.common-ndk_platform-source/gen/include/aidl/android/hardware/graphics/common/StandardMetadataType.h"
  },
  {
   "alignment" : 4,
   "is_const" : true,
   "linker_set_key" : "_ZTIKNSt3__15arrayIN4aidl7android8hardware8graphics6common24PlaneLayoutComponentTypeELj8EEE",
   "name" : "const std::array<aidl::android::hardware::graphics::common::PlaneLayoutComponentType, 8>",
   "referenced_type" : "_ZTINSt3__15arrayIN4aidl7android8hardware8graphics6common24PlaneLayoutComponentTypeELj8EEE",
   "self_type" : "_ZTIKNSt3__15arrayIN4aidl7android8hardware8graphics6common24PlaneLayoutComponentTypeELj8EEE",
   "size" : 64,
   "source_file" : "/out/soong/.intermediates/hardware/interfaces/graphics/common/aidl/android.hardware.graphics.common-ndk_platform-source/gen/include/aidl/android/hardware/graphics/common/PlaneLayoutComponentType.h"
  },
  {
   "alignment" : 4,
   "is_const" : true,
   "linker_set_key" : "_ZTIKNSt3__15arrayIN4aidl7android8hardware8graphics6common9BlendModeELj4EEE",
   "name" : "const std::array<aidl::android::hardware::graphics::common::BlendMode, 4>",
   "referenced_type" : "_ZTINSt3__15arrayIN4aidl7android8hardware8graphics6common9BlendModeELj4EEE",
   "self_type" : "_ZTIKNSt3__15arrayIN4aidl7android8hardware8graphics6common9BlendModeELj4EEE",
   "size" : 16,
   "source_file" : "/out/soong/.intermediates/hardware/interfaces/graphics/common/aidl/android.hardware.graphics.common-ndk_platform-source/gen/include/aidl/android/hardware/graphics/common/BlendMode.h"
  },
  {
   "alignment" : 4,
   "is_const" : true,
   "linker_set_key" : "_ZTIKNSt3__15arrayIN4aidl7android8hardware8graphics6common9DataspaceELj60EEE",
   "name" : "const std::array<aidl::android::hardware::graphics::common::Dataspace, 60>",
   "referenced_type" : "_ZTINSt3__15arrayIN4aidl7android8hardware8graphics6common9DataspaceELj60EEE",
   "self_type" : "_ZTIKNSt3__15arrayIN4aidl7android8hardware8graphics6common9DataspaceELj60EEE",
   "size" : 240,
   "source_file" : "/out/soong/.intermediates/hardware/interfaces/graphics/common/aidl/android.hardware.graphics.common-ndk_platform-source/gen/include/aidl/android/hardware/graphics/common/Dataspace.h"
  },
  {
   "alignment" : 4,
   "is_const" : true,
   "linker_set_key" : "_ZTIKNSt3__15arrayIN7android4hidl4base4V1_09DebugInfo12ArchitectureELj3EEE",
   "name" : "const std::array<android::hidl::base::V1_0::DebugInfo::Architecture, 3>",
   "referenced_type" : "_ZTINSt3__15arrayIN7android4hidl4base4V1_09DebugInfo12ArchitectureELj3EEE",
   "self_type" : "_ZTIKNSt3__15arrayIN7android4hidl4base4V1_09DebugInfo12ArchitectureELj3EEE",
   "size" : 12,
   "source_file" : "/out/soong/.intermediates/system/libhidl/transport/base/1.0/android.hidl.base@1.0_genc++_headers/gen/android/hidl/base/1.0/types.h"
  },
  {
   "alignment" : 4,
   "is_const" : true,
   "linker_set_key" : "_ZTIKNSt3__15arrayIN7android8hardware8graphics6common4V1_011BufferUsageELj23EEE",
   "name" : "const std::array<android::hardware::graphics::common::V1_0::BufferUsage, 23>",
   "referenced_type" : "_ZTINSt3__15arrayIN7android8hardware8graphics6common4V1_011BufferUsageELj23EEE",
   "self_type" : "_ZTIKNSt3__15arrayIN7android8hardware8graphics6common4V1_011BufferUsageELj23EEE",
   "size" : 184,
   "source_file" : "/out/soong/.intermediates/hardware/interfaces/graphics/common/1.0/android.hardware.graphics.common@1.0_genc++_headers/gen/android/hardware/graphics/common/1.0/types.h"
  },
  {
   "alignment" : 4,
   "is_const" : true,
   "linker_set_key" : "_ZTIKNSt3__15arrayIN7android8hardware8graphics6common4V1_011PixelFormatELj20EEE",
   "name" : "const std::array<android::hardware::graphics::common::V1_0::PixelFormat, 20>",
   "referenced_type" : "_ZTINSt3__15arrayIN7android8hardware8graphics6common4V1_011PixelFormatELj20EEE",
   "self_type" : "_ZTIKNSt3__15arrayIN7android8hardware8graphics6common4V1_011PixelFormatELj20EEE",
   "size" : 80,
   "source_file" : "/out/soong/.intermediates/hardware/interfaces/graphics/common/1.0/android.hardware.graphics.common@1.0_genc++_headers/gen/android/hardware/graphics/common/1.0/types.h"
  },
  {
   "alignment" : 4,
   "is_const" : true,
   "linker_set_key" : "_ZTIKNSt3__15arrayIN7android8hardware8graphics6common4V1_014ColorTransformELj7EEE",
   "name" : "const std::array<android::hardware::graphics::common::V1_0::ColorTransform, 7>",
   "referenced_type" : "_ZTINSt3__15arrayIN7android8hardware8graphics6common4V1_014ColorTransformELj7EEE",
   "self_type" : "_ZTIKNSt3__15arrayIN7android8hardware8graphics6common4V1_014ColorTransformELj7EEE",
   "size" : 28,
   "source_file" : "/out/soong/.intermediates/hardware/interfaces/graphics/common/1.0/android.hardware.graphics.common@1.0_genc++_headers/gen/android/hardware/graphics/common/1.0/types.h"
  },
  {
   "alignment" : 4,
   "is_const" : true,
   "linker_set_key" : "_ZTIKNSt3__15arrayIN7android8hardware8graphics6common4V1_03HdrELj3EEE",
   "name" : "const std::array<android::hardware::graphics::common::V1_0::Hdr, 3>",
   "referenced_type" : "_ZTINSt3__15arrayIN7android8hardware8graphics6common4V1_03HdrELj3EEE",
   "self_type" : "_ZTIKNSt3__15arrayIN7android8hardware8graphics6common4V1_03HdrELj3EEE",
   "size" : 12,
   "source_file" : "/out/soong/.intermediates/hardware/interfaces/graphics/common/1.0/android.hardware.graphics.common@1.0_genc++_headers/gen/android/hardware/graphics/common/1.0/types.h"
  },
  {
   "alignment" : 4,
   "is_const" : true,
   "linker_set_key" : "_ZTIKNSt3__15arrayIN7android8hardware8graphics6common4V1_09ColorModeELj10EEE",
   "name" : "const std::array<android::hardware::graphics::common::V1_0::ColorMode, 10>",
   "referenced_type" : "_ZTINSt3__15arrayIN7android8hardware8graphics6common4V1_09ColorModeELj10EEE",
   "self_type" : "_ZTIKNSt3__15arrayIN7android8hardware8graphics6common4V1_09ColorModeELj10EEE",
   "size" : 40,
   "source_file" : "/out/soong/.intermediates/hardware/interfaces/graphics/common/1.0/android.hardware.graphics.common@1.0_genc++_headers/gen/android/hardware/graphics/common/1.0/types.h"
  },
  {
   "alignment" : 4,
   "is_const" : true,
   "linker_set_key" : "_ZTIKNSt3__15arrayIN7android8hardware8graphics6common4V1_09DataspaceELj57EEE",
   "name" : "const std::array<android::hardware::graphics::common::V1_0::Dataspace, 57>",
   "referenced_type" : "_ZTINSt3__15arrayIN7android8hardware8graphics6common4V1_09DataspaceELj57EEE",
   "self_type" : "_ZTIKNSt3__15arrayIN7android8hardware8graphics6common4V1_09DataspaceELj57EEE",
   "size" : 228,
   "source_file" : "/out/soong/.intermediates/hardware/interfaces/graphics/common/1.0/android.hardware.graphics.common@1.0_genc++_headers/gen/android/hardware/graphics/common/1.0/types.h"
  },
  {
   "alignment" : 4,
   "is_const" : true,
   "linker_set_key" : "_ZTIKNSt3__15arrayIN7android8hardware8graphics6common4V1_09TransformELj5EEE",
   "name" : "const std::array<android::hardware::graphics::common::V1_0::Transform, 5>",
   "referenced_type" : "_ZTINSt3__15arrayIN7android8hardware8graphics6common4V1_09TransformELj5EEE",
   "self_type" : "_ZTIKNSt3__15arrayIN7android8hardware8graphics6common4V1_09TransformELj5EEE",
   "size" : 20,
   "source_file" : "/out/soong/.intermediates/hardware/interfaces/graphics/common/1.0/android.hardware.graphics.common@1.0_genc++_headers/gen/android/hardware/graphics/common/1.0/types.h"
  },
  {
   "alignment" : 4,
   "is_const" : true,
   "linker_set_key" : "_ZTIKNSt3__15arrayIN7android8hardware8graphics6common4V1_111BufferUsageELj25EEE",
   "name" : "const std::array<android::hardware::graphics::common::V1_1::BufferUsage, 25>",
   "referenced_type" : "_ZTINSt3__15arrayIN7android8hardware8graphics6common4V1_111BufferUsageELj25EEE",
   "self_type" : "_ZTIKNSt3__15arrayIN7android8hardware8graphics6common4V1_111BufferUsageELj25EEE",
   "size" : 200,
   "source_file" : "/out/soong/.intermediates/hardware/interfaces/graphics/common/1.1/android.hardware.graphics.common@1.1_genc++_headers/gen/android/hardware/graphics/common/1.1/types.h"
  },
  {
   "alignment" : 4,
   "is_const" : true,
   "linker_set_key" : "_ZTIKNSt3__15arrayIN7android8hardware8graphics6common4V1_111PixelFormatELj27EEE",
   "name" : "const std::array<android::hardware::graphics::common::V1_1::PixelFormat, 27>",
   "referenced_type" : "_ZTINSt3__15arrayIN7android8hardware8graphics6common4V1_111PixelFormatELj27EEE",
   "self_type" : "_ZTIKNSt3__15arrayIN7android8hardware8graphics6common4V1_111PixelFormatELj27EEE",
   "size" : 108,
   "source_file" : "/out/soong/.intermediates/hardware/interfaces/graphics/common/1.1/android.hardware.graphics.common@1.1_genc++_headers/gen/android/hardware/graphics/common/1.1/types.h"
  },
  {
   "alignment" : 4,
   "is_const" : true,
   "linker_set_key" : "_ZTIKNSt3__15arrayIN7android8hardware8graphics6common4V1_112RenderIntentELj4EEE",
   "name" : "const std::array<android::hardware::graphics::common::V1_1::RenderIntent, 4>",
   "referenced_type" : "_ZTINSt3__15arrayIN7android8hardware8graphics6common4V1_112RenderIntentELj4EEE",
   "self_type" : "_ZTIKNSt3__15arrayIN7android8hardware8graphics6common4V1_112RenderIntentELj4EEE",
   "size" : 16,
   "source_file" : "/out/soong/.intermediates/hardware/interfaces/graphics/common/1.1/android.hardware.graphics.common@1.1_genc++_headers/gen/android/hardware/graphics/common/1.1/types.h"
  },
  {
   "alignment" : 4,
   "is_const" : true,
   "linker_set_key" : "_ZTIKNSt3__15arrayIN7android8hardware8graphics6common4V1_19ColorModeELj13EEE",
   "name" : "const std::array<android::hardware::graphics::common::V1_1::ColorMode, 13>",
   "referenced_type" : "_ZTINSt3__15arrayIN7android8hardware8graphics6common4V1_19ColorModeELj13EEE",
   "self_type" : "_ZTIKNSt3__15arrayIN7android8hardware8graphics6common4V1_19ColorModeELj13EEE",
   "size" : 52,
   "source_file" : "/out/soong/.intermediates/hardware/interfaces/graphics/common/1.1/android.hardware.graphics.common@1.1_genc++_headers/gen/android/hardware/graphics/common/1.1/types.h"
  },
  {
   "alignment" : 4,
   "is_const" : true,
   "linker_set_key" : "_ZTIKNSt3__15arrayIN7android8hardware8graphics6common4V1_19DataspaceELj61EEE",
   "name" : "const std::array<android::hardware::graphics::common::V1_1::Dataspace, 61>",
   "referenced_type" : "_ZTINSt3__15arrayIN7android8hardware8graphics6common4V1_19DataspaceELj61EEE",
   "self_type" : "_ZTIKNSt3__15arrayIN7android8hardware8graphics6common4V1_19DataspaceELj61EEE",
   "size" : 244,
   "source_file" : "/out/soong/.intermediates/hardware/interfaces/graphics/common/1.1/android.hardware.graphics.common@1.1_genc++_headers/gen/android/hardware/graphics/common/1.1/types.h"
  },
  {
   "alignment" : 4,
   "is_const" : true,
   "linker_set_key" : "_ZTIKNSt3__15arrayIN7android8hardware8graphics6common4V1_211BufferUsageELj26EEE",
   "name" : "const std::array<android::hardware::graphics::common::V1_2::BufferUsage, 26>",
   "referenced_type" : "_ZTINSt3__15arrayIN7android8hardware8graphics6common4V1_211BufferUsageELj26EEE",
   "self_type" : "_ZTIKNSt3__15arrayIN7android8hardware8graphics6common4V1_211BufferUsageELj26EEE",
   "size" : 208,
   "source_file" : "/out/soong/.intermediates/hardware/interfaces/graphics/common/1.2/android.hardware.graphics.common@1.2_genc++_headers/gen/android/hardware/graphics/common/1.2/types.h"
  },
  {
   "alignment" : 4,
   "is_const" : true,
   "linker_set_key" : "_ZTIKNSt3__15arrayIN7android8hardware8graphics6common4V1_211PixelFormatELj28EEE",
   "name" : "const std::array<android::hardware::graphics::common::V1_2::PixelFormat, 28>",
   "referenced_type" : "_ZTINSt3__15arrayIN7android8hardware8graphics6common4V1_211PixelFormatELj28EEE",
   "self_type" : "_ZTIKNSt3__15arrayIN7android8hardware8graphics6common4V1_211PixelFormatELj28EEE",
   "size" : 112,
   "source_file" : "/out/soong/.intermediates/hardware/interfaces/graphics/common/1.2/android.hardware.graphics.common@1.2_genc++_headers/gen/android/hardware/graphics/common/1.2/types.h"
  },
  {
   "alignment" : 4,
   "is_const" : true,
   "linker_set_key" : "_ZTIKNSt3__15arrayIN7android8hardware8graphics6common4V1_23HdrELj4EEE",
   "name" : "const std::array<android::hardware::graphics::common::V1_2::Hdr, 4>",
   "referenced_type" : "_ZTINSt3__15arrayIN7android8hardware8graphics6common4V1_23HdrELj4EEE",
   "self_type" : "_ZTIKNSt3__15arrayIN7android8hardware8graphics6common4V1_23HdrELj4EEE",
   "size" : 16,
   "source_file" : "/out/soong/.intermediates/hardware/interfaces/graphics/common/1.2/android.hardware.graphics.common@1.2_genc++_headers/gen/android/hardware/graphics/common/1.2/types.h"
  },
  {
   "alignment" : 4,
   "is_const" : true,
   "linker_set_key" : "_ZTIKNSt3__15arrayIN7android8hardware8graphics6common4V1_29ColorModeELj14EEE",
   "name" : "const std::array<android::hardware::graphics::common::V1_2::ColorMode, 14>",
   "referenced_type" : "_ZTINSt3__15arrayIN7android8hardware8graphics6common4V1_29ColorModeELj14EEE",
   "self_type" : "_ZTIKNSt3__15arrayIN7android8hardware8graphics6common4V1_29ColorModeELj14EEE",
   "size" : 56,
   "source_file" : "/out/soong/.intermediates/hardware/interfaces/graphics/common/1.2/android.hardware.graphics.common@1.2_genc++_headers/gen/android/hardware/graphics/common/1.2/types.h"
  },
  {
   "alignment" : 4,
   "is_const" : true,
   "linker_set_key" : "_ZTIKNSt3__15arrayIN7android8hardware8graphics6common4V1_29DataspaceELj65EEE",
   "name" : "const std::array<android::hardware::graphics::common::V1_2::Dataspace, 65>",
   "referenced_type" : "_ZTINSt3__15arrayIN7android8hardware8graphics6common4V1_29DataspaceELj65EEE",
   "self_type" : "_ZTIKNSt3__15arrayIN7android8hardware8graphics6common4V1_29DataspaceELj65EEE",
   "size" : 260,
   "source_file" : "/out/soong/.intermediates/hardware/interfaces/graphics/common/1.2/android.hardware.graphics.common@1.2_genc++_headers/gen/android/hardware/graphics/common/1.2/types.h"
  },
  {
   "alignment" : 4,
   "is_const" : true,
   "linker_set_key" : "_ZTIKNSt3__15arrayIN7android8hardware8graphics6mapper4V4_05ErrorELj6EEE",
   "name" : "const std::array<android::hardware::graphics::mapper::V4_0::Error, 6>",
   "referenced_type" : "_ZTINSt3__15arrayIN7android8hardware8graphics6mapper4V4_05ErrorELj6EEE",
   "self_type" : "_ZTIKNSt3__15arrayIN7android8hardware8graphics6mapper4V4_05ErrorELj6EEE",
   "size" : 24,
   "source_file" : "/out/soong/.intermediates/hardware/interfaces/graphics/mapper/4.0/android.hardware.graphics.mapper@4.0_genc++_headers/gen/android/hardware/graphics/mapper/4.0/types.h"
  },
  {
   "alignment" : 4,
   "is_const" : true,
   "linker_set_key" : "_ZTIKNSt3__16vectorIN4aidl7android8hardware8graphics6common11PlaneLayoutENS_9allocatorIS6_EEEE",
   "name" : "const std::vector<aidl::android::hardware::graphics::common::PlaneLayout, std::allocator<aidl::android::hardware::graphics::common::PlaneLayout> >",
   "referenced_type" : "_ZTINSt3__16vectorIN4aidl7android8hardware8graphics6common11PlaneLayoutENS_9allocatorIS6_EEEE",
   "self_type" : "_ZTIKNSt3__16vectorIN4aidl7android8hardware8graphics6common11PlaneLayoutENS_9allocatorIS6_EEEE",
   "size" : 12,
   "source_file" : "/frameworks/native/libs/gralloc/types/include/gralloctypes/Gralloc4.h"
  },
  {
   "alignment" : 4,
   "is_const" : true,
   "linker_set_key" : "_ZTIKNSt3__16vectorIN4aidl7android8hardware8graphics6common4RectENS_9allocatorIS6_EEEE",
   "name" : "const std::vector<aidl::android::hardware::graphics::common::Rect, std::allocator<aidl::android::hardware::graphics::common::Rect> >",
   "referenced_type" : "_ZTINSt3__16vectorIN4aidl7android8hardware8graphics6common4RectENS_9allocatorIS6_EEEE",
   "self_type" : "_ZTIKNSt3__16vectorIN4aidl7android8hardware8graphics6common4RectENS_9allocatorIS6_EEEE",
   "size" : 12,
   "source_file" : "/frameworks/native/libs/gralloc/types/include/gralloctypes/Gralloc4.h"
  },
  {
   "alignment" : 4,
   "is_const" : true,
   "linker_set_key" : "_ZTIKNSt3__16vectorINS_8functionIFvN7android8hardware7details16HidlInstrumentor20InstrumentationEventEPKcS8_S8_S8_PNS0_IPvNS_9allocatorIS9_EEEEEEENSA_ISF_EEEE",
   "name" : "const std::vector<std::function<void (InstrumentationEvent, const char *, const char *, const char *, const char *, vector<void *, allocator<void *> > *)>, std::allocator<std::function<void (InstrumentationEvent, const char *, const char *, const char *, const char *, vector<void *, allocator<void *> > *)> > >",
   "referenced_type" : "_ZTINSt3__16vectorINS_8functionIFvN7android8hardware7details16HidlInstrumentor20InstrumentationEventEPKcS8_S8_S8_PNS0_IPvNS_9allocatorIS9_EEEEEEENSA_ISF_EEEE",
   "self_type" : "_ZTIKNSt3__16vectorINS_8functionIFvN7android8hardware7details16HidlInstrumentor20InstrumentationEventEPKcS8_S8_S8_PNS0_IPvNS_9allocatorIS9_EEEEEEENSA_ISF_EEEE",
   "size" : 12,
   "source_file" : "/system/libhidl/base/include/hidl/HidlInternal.h"
  },
  {
   "alignment" : 4,
   "is_const" : true,
   "linker_set_key" : "_ZTIKNSt3__18optionalIN4aidl7android8hardware8graphics6common8Cta861_3EEE",
   "name" : "const std::optional<aidl::android::hardware::graphics::common::Cta861_3>",
   "referenced_type" : "_ZTINSt3__18optionalIN4aidl7android8hardware8graphics6common8Cta861_3EEE",
   "self_type" : "_ZTIKNSt3__18optionalIN4aidl7android8hardware8graphics6common8Cta861_3EEE",
   "size" : 12,
   "source_file" : "/frameworks/native/libs/gralloc/types/include/gralloctypes/Gralloc4.h"
  },
  {
   "alignment" : 4,
   "is_const" : true,
   "linker_set_key" : "_ZTIKNSt3__18optionalIN4aidl7android8hardware8graphics6common9Smpte2086EEE",
   "name" : "const std::optional<aidl::android::hardware::graphics::common::Smpte2086>",
   "referenced_type" : "_ZTINSt3__18optionalIN4aidl7android8hardware8graphics6common9Smpte2086EEE",
   "self_type" : "_ZTIKNSt3__18optionalIN4aidl7android8hardware8graphics6common9Smpte2086EEE",
   "size" : 44,
   "source_file" : "/frameworks/native/libs/gralloc/types/include/gralloctypes/Gralloc4.h"
  },
  {
   "alignment" : 4,
   "is_const" : true,
   "linker_set_key" : "_ZTIKNSt3__18optionalINS_6vectorIhNS_9allocatorIhEEEEEE",
   "name" : "const std::optional<std::vector<unsigned char, std::allocator<unsigned char> > >",
   "referenced_type" : "_ZTINSt3__18optionalINS_6vectorIhNS_9allocatorIhEEEEEE",
   "self_type" : "_ZTIKNSt3__18optionalINS_6vectorIhNS_9allocatorIhEEEEEE",
   "size" : 16,
   "source_file" : "/frameworks/native/libs/gralloc/types/include/gralloctypes/Gralloc4.h"
  },
  {
   "alignment" : 4,
   "is_const" : true,
   "linker_set_key" : "_ZTIKP7AStatus",
   "name" : "AStatus *const",
   "referenced_type" : "_ZTIP7AStatus",
   "self_type" : "_ZTIKP7AStatus",
   "size" : 4,
   "source_file" : "/frameworks/native/libs/binder/ndk/include_ndk/android/binder_auto_utils.h"
  },
  {
   "alignment" : 4,
   "is_const" : true,
   "linker_set_key" : "_ZTIKPN7android7RefBase12weakref_implE",
   "name" : "android::RefBase::weakref_impl *const",
   "referenced_type" : "_ZTIPN7android7RefBase12weakref_implE",
   "self_type" : "_ZTIKPN7android7RefBase12weakref_implE",
   "size" : 4,
   "source_file" : "/system/core/libutils/include/utils/RefBase.h"
  },
  {
   "alignment" : 1,
   "is_const" : true,
   "linker_set_key" : "_ZTIKa",
   "name" : "const signed char",
   "referenced_type" : "_ZTIa",
   "self_type" : "_ZTIKa",
   "size" : 1,
   "source_file" : "/system/core/libutils/include/utils/TypeHelpers.h"
  },
  {
   "alignment" : 1,
   "is_const" : true,
   "linker_set_key" : "_ZTIKb",
   "name" : "const bool",
   "referenced_type" : "_ZTIb",
   "self_type" : "_ZTIKb",
   "size" : 1,
   "source_file" : "/system/core/libutils/include/utils/TypeHelpers.h"
  },
  {
   "alignment" : 1,
   "is_const" : true,
   "linker_set_key" : "_ZTIKc",
   "name" : "const char",
   "referenced_type" : "_ZTIc",
   "self_type" : "_ZTIKc",
   "size" : 1,
   "source_file" : "/system/libhidl/base/include/hidl/HidlInternal.h"
  },
  {
   "alignment" : 4,
   "is_const" : true,
   "linker_set_key" : "_ZTIKd",
   "name" : "const double",
   "referenced_type" : "_ZTId",
   "self_type" : "_ZTIKd",
   "size" : 8,
   "source_file" : "/system/core/libutils/include/utils/TypeHelpers.h"
  },
  {
   "alignment" : 4,
   "is_const" : true,
   "linker_set_key" : "_ZTIKf",
   "name" : "const float",
   "referenced_type" : "_ZTIf",
   "self_type" : "_ZTIKf",
   "size" : 4,
   "source_file" : "/system/core/libutils/include/utils/TypeHelpers.h"
  },
  {
   "alignment" : 1,
   "is_const" : true,
   "linker_set_key" : "_ZTIKh",
   "name" : "const unsigned char",
   "referenced_type" : "_ZTIh",
   "self_type" : "_ZTIKh",
   "size" : 1,
   "source_file" : "/system/libhidl/base/include/hidl/HidlInternal.h"
  },
  {
   "alignment" : 4,
   "is_const" : true,
   "linker_set_key" : "_ZTIKi",
   "name" : "const int",
   "referenced_type" : "_ZTIi",
   "self_type" : "_ZTIKi",
   "size" : 4,
   "source_file" : "/system/core/libutils/include/utils/StrongPointer.h"
  },
  {
   "alignment" : 4,
   "is_const" : true,
   "linker_set_key" : "_ZTIKj",
   "name" : "const unsigned int",
   "referenced_type" : "_ZTIj",
   "self_type" : "_ZTIKj",
   "size" : 4,
   "source_file" : "/system/core/libutils/include/utils/StrongPointer.h"
  },
  {
   "alignment" : 2,
   "is_const" : true,
   "linker_set_key" : "_ZTIKs",
   "name" : "const short",
   "referenced_type" : "_ZTIs",
   "self_type" : "_ZTIKs",
   "size" : 2,
   "source_file" : "/system/core/libutils/include/utils/TypeHelpers.h"
  },
  {
   "alignment" : 2,
   "is_const" : true,
   "linker_set_key" : "_ZTIKt",
   "name" : "const unsigned short",
   "referenced_type" : "_ZTIt",
   "self_type" : "_ZTIKt",
   "size" : 2,
   "source_file" : "/system/core/libutils/include/utils/TypeHelpers.h"
  },
  {
   "is_const" : true,
   "linker_set_key" : "_ZTIKv",
   "name" : "const void",
   "referenced_type" : "_ZTIv",
   "self_type" : "_ZTIKv",
   "source_file" : "/system/libhidl/base/include/hidl/HidlSupport.h"
  },
  {
   "alignment" : 4,
   "is_const" : true,
   "linker_set_key" : "_ZTIKx",
   "name" : "const long long",
   "referenced_type" : "_ZTIx",
   "self_type" : "_ZTIKx",
   "size" : 8,
   "source_file" : "/system/core/libutils/include/utils/TypeHelpers.h"
  },
  {
   "alignment" : 4,
   "is_const" : true,
   "linker_set_key" : "_ZTIKy",
   "name" : "const unsigned long long",
   "referenced_type" : "_ZTIy",
   "self_type" : "_ZTIKy",
   "size" : 8,
   "source_file" : "/system/core/libutils/include/utils/TypeHelpers.h"
  }
 ],
 "record_types" :
 [
  {
   "alignment" : 4,
   "fields" :
   [
    {
     "field_name" : "len",
     "referenced_type" : "_ZTIt"
    },
    {
     "field_name" : "hdr_size",
     "field_offset" : 16,
     "referenced_type" : "_ZTIt"
    },
    {
     "field_name" : "pid",
     "field_offset" : 32,
     "referenced_type" : "_ZTIi"
    },
    {
     "field_name" : "tid",
     "field_offset" : 64,
     "referenced_type" : "_ZTIj"
    },
    {
     "field_name" : "sec",
     "field_offset" : 96,
     "referenced_type" : "_ZTIj"
    },
    {
     "field_name" : "nsec",
     "field_offset" : 128,
     "referenced_type" : "_ZTIj"
    },
    {
     "field_name" : "lid",
     "field_offset" : 160,
     "referenced_type" : "_ZTIj"
    },
    {
     "field_name" : "uid",
     "field_offset" : 192,
     "referenced_type" : "_ZTIj"
    }
   ],
   "linker_set_key" : "_ZTI12logger_entry",
   "name" : "logger_entry",
   "referenced_type" : "_ZTI12logger_entry",
   "self_type" : "_ZTI12logger_entry",
   "size" : 28,
   "source_file" : "/system/core/liblog/include/log/log_read.h"
  },
  {
   "alignment" : 4,
   "fields" :
   [
    {
     "field_name" : "version",
     "referenced_type" : "_ZTIi"
    },
    {
     "field_name" : "numFds",
     "field_offset" : 32,
     "referenced_type" : "_ZTIi"
    },
    {
     "field_name" : "numInts",
     "field_offset" : 64,
     "referenced_type" : "_ZTIi"
    },
    {
     "field_name" : "data",
     "field_offset" : 96,
     "referenced_type" : "_ZTIA0_i"
    }
   ],
   "linker_set_key" : "_ZTI13native_handle",
   "name" : "native_handle",
   "referenced_type" : "_ZTI13native_handle",
   "self_type" : "_ZTI13native_handle",
   "size" : 12,
   "source_file" : "/system/core/libcutils/include/cutils/native_handle.h"
  },
  {
   "alignment" : 4,
   "fields" :
   [
    {
     "field_name" : "struct_size",
     "referenced_type" : "_ZTIj"
    },
    {
     "field_name" : "buffer_id",
     "field_offset" : 32,
     "referenced_type" : "_ZTIi"
    },
    {
     "field_name" : "priority",
     "field_offset" : 64,
     "referenced_type" : "_ZTIi"
    },
    {
     "field_name" : "tag",
     "field_offset" : 96,
     "referenced_type" : "_ZTIPKc"
    },
    {
     "field_name" : "file",
     "field_offset" : 128,
     "referenced_type" : "_ZTIPKc"
    },
    {
     "field_name" : "line",
     "field_offset" : 160,
     "referenced_type" : "_ZTIj"
    },
    {
     "field_name" : "message",
     "field_offset" : 192,
     "referenced_type" : "_ZTIPKc"
    }
   ],
   "linker_set_key" : "_ZTI21__android_log_message",
   "name" : "__android_log_message",
   "referenced_type" : "_ZTI21__android_log_message",
   "self_type" : "_ZTI21__android_log_message",
   "size" : 28,
   "source_file" : "/system/core/liblog/include/android/log.h"
  },
  {
   "alignment" : 4,
   "fields" :
   [
    {
     "referenced_type" : "_ZTIN7log_msgUt_E"
    }
   ],
   "linker_set_key" : "_ZTI7log_msg",
   "name" : "log_msg",
   "referenced_type" : "_ZTI7log_msg",
   "self_type" : "_ZTI7log_msg",
   "size" : 5124,
   "source_file" : "/system/core/liblog/include/log/log_read.h"
  },
  {
   "alignment" : 1,
   "fields" :
   [
    {
     "field_name" : "tv_sec",
     "referenced_type" : "_ZTIj"
    },
    {
     "field_name" : "tv_nsec",
     "field_offset" : 32,
     "referenced_type" : "_ZTIj"
    }
   ],
   "linker_set_key" : "_ZTI8log_time",
   "name" : "log_time",
   "referenced_type" : "_ZTI8log_time",
   "self_type" : "_ZTI8log_time",
   "size" : 8,
   "source_file" : "/system/core/liblog/include_vndk/log/log_time.h"
  },
  {
   "alignment" : 4,
   "fields" :
   [
    {
     "access" : "private",
     "field_name" : "mBinder",
     "referenced_type" : "_ZTIP8AIBinder"
    }
   ],
   "linker_set_key" : "_ZTIN3ndk10SpAIBinderE",
   "name" : "ndk::SpAIBinder",
   "record_kind" : "class",
   "referenced_type" : "_ZTIN3ndk10SpAIBinderE",
   "self_type" : "_ZTIN3ndk10SpAIBinderE",
   "size" : 4,
   "source_file" : "/frameworks/native/libs/binder/ndk/include_ndk/android/binder_auto_utils.h"
  },
  {
   "access" : "private",
   "alignment" : 4,
   "fields" :
   [
    {
     "field_name" : "interface",
     "referenced_type" : "_ZTINSt3__110shared_ptrIN3ndk11ICInterfaceEEE"
    }
   ],
   "linker_set_key" : "_ZTIN3ndk11ICInterface15ICInterfaceDataE",
   "name" : "ndk::ICInterface::ICInterfaceData",
   "record_kind" : "class",
   "referenced_type" : "_ZTIN3ndk11ICInterface15ICInterfaceDataE",
   "self_type" : "_ZTIN3ndk11ICInterface15ICInterfaceDataE",
   "size" : 8,
   "source_file" : "/frameworks/native/libs/binder/ndk/include_ndk/android/binder_interface_utils.h"
  },
  {
   "alignment" : 4,
   "base_specifiers" :
   [
    {
     "referenced_type" : "_ZTIN3ndk13SharedRefBaseE"
    }
   ],
   "linker_set_key" : "_ZTIN3ndk11ICInterfaceE",
   "name" : "ndk::ICInterface",
   "record_kind" : "class",
   "referenced_type" : "_ZTIN3ndk11ICInterfaceE",
   "self_type" : "_ZTIN3ndk11ICInterfaceE",
   "size" : 16,
   "source_file" : "/frameworks/native/libs/binder/ndk/include_ndk/android/binder_interface_utils.h",
   "vtable_components" :
   [
    {
     "kind" : "offset_to_top"
    },
    {
     "kind" : "rtti",
     "mangled_component_name" : "_ZTIN3ndk11ICInterfaceE"
    },
    {
     "kind" : "complete_dtor_pointer",
     "mangled_component_name" : "_ZN3ndk11ICInterfaceD1Ev"
    },
    {
     "kind" : "deleting_dtor_pointer",
     "mangled_component_name" : "_ZN3ndk11ICInterfaceD0Ev"
    },
    {
     "is_pure" : true,
     "mangled_component_name" : "_ZN3ndk11ICInterface8asBinderEv"
    },
    {
     "is_pure" : true,
     "mangled_component_name" : "_ZN3ndk11ICInterface8isRemoteEv"
    },
    {
     "mangled_component_name" : "_ZN3ndk11ICInterface4dumpEiPPKcj"
    },
    {
     "mangled_component_name" : "_ZN3ndk11ICInterface18handleShellCommandEiiiPPKcj"
    }
   ]
  },
  {
   "alignment" : 4,
   "base_specifiers" :
   [
    {
     "referenced_type" : "_ZTIN3ndk4impl15ScopedAResourceIP7AParcelvXadL_Z14AParcel_deleteEELS3_0EEE"
    }
   ],
   "linker_set_key" : "_ZTIN3ndk13ScopedAParcelE",
   "name" : "ndk::ScopedAParcel",
   "record_kind" : "class",
   "referenced_type" : "_ZTIN3ndk13ScopedAParcelE",
   "self_type" : "_ZTIN3ndk13ScopedAParcelE",
   "size" : 4,
   "source_file" : "/frameworks/native/libs/binder/ndk/include_ndk/android/binder_auto_utils.h"
  },
  {
   "alignment" : 4,
   "base_specifiers" :
   [
    {
     "referenced_type" : "_ZTIN3ndk4impl15ScopedAResourceIP7AStatusvXadL_Z14AStatus_deleteEELS3_0EEE"
    }
   ],
   "linker_set_key" : "_ZTIN3ndk13ScopedAStatusE",
   "name" : "ndk::ScopedAStatus",
   "record_kind" : "class",
   "referenced_type" : "_ZTIN3ndk13ScopedAStatusE",
   "self_type" : "_ZTIN3ndk13ScopedAStatusE",
   "size" : 4,
   "source_file" : "/frameworks/native/libs/binder/ndk/include_ndk/android/binder_auto_utils.h"
  },
  {
   "alignment" : 4,
   "fields" :
   [
    {
     "access" : "private",
     "field_name" : "mFlagThis",
     "field_offset" : 32,
     "referenced_type" : "_ZTINSt3__19once_flagE"
    },
    {
     "access" : "private",
     "field_name" : "mThis",
     "field_offset" : 64,
     "referenced_type" : "_ZTINSt3__18weak_ptrIN3ndk13SharedRefBaseEEE"
    }
   ],
   "linker_set_key" : "_ZTIN3ndk13SharedRefBaseE",
   "name" : "ndk::SharedRefBase",
   "record_kind" : "class",
   "referenced_type" : "_ZTIN3ndk13SharedRefBaseE",
   "self_type" : "_ZTIN3ndk13SharedRefBaseE",
   "size" : 16,
   "source_file" : "/frameworks/native/libs/binder/ndk/include_ndk/android/binder_interface_utils.h",
   "vtable_components" :
   [
    {
     "kind" : "offset_to_top"
    },
    {
     "kind" : "rtti",
     "mangled_component_name" : "_ZTIN3ndk13SharedRefBaseE"
    },
    {
     "kind" : "complete_dtor_pointer",
     "mangled_component_name" : "_ZN3ndk13SharedRefBaseD1Ev"
    },
    {
     "kind" : "deleting_dtor_pointer",
     "mangled_component_name" : "_ZN3ndk13SharedRefBaseD0Ev"
    }
   ]
  },
  {
   "alignment" : 4,
   "base_specifiers" :
   [
    {
     "referenced_type" : "_ZTIN3ndk4impl15ScopedAResourceIP13AIBinder_WeakvXadL_Z20AIBinder_Weak_deleteEELS3_0EEE"
    }
   ],
   "linker_set_key" : "_ZTIN3ndk19ScopedAIBinder_WeakE",
   "name" : "ndk::ScopedAIBinder_Weak",
   "record_kind" : "class",
   "referenced_type" : "_ZTIN3ndk19ScopedAIBinder_WeakE",
   "self_type" : "_ZTIN3ndk19ScopedAIBinder_WeakE",
   "size" : 4,
   "source_file" : "/frameworks/native/libs/binder/ndk/include_ndk/android/binder_auto_utils.h"
  },
  {
   "alignment" : 4,
   "base_specifiers" :
   [
    {
     "referenced_type" : "_ZTIN3ndk4impl15ScopedAResourceIiiXadL_Z5closeEELin1EEE"
    }
   ],
   "linker_set_key" : "_ZTIN3ndk20ScopedFileDescriptorE",
   "name" : "ndk::ScopedFileDescriptor",
   "record_kind" : "class",
   "referenced_type" : "_ZTIN3ndk20ScopedFileDescriptorE",
   "self_type" : "_ZTIN3ndk20ScopedFileDescriptorE",
   "size" : 4,
   "source_file" : "/frameworks/native/libs/binder/ndk/include_ndk/android/binder_auto_utils.h"
  },
  {
   "alignment" : 4,
   "base_specifiers" :
   [
    {
     "referenced_type" : "_ZTIN3ndk4impl15ScopedAResourceIP23AIBinder_DeathRecipientvXadL_Z30AIBinder_DeathRecipient_deleteEELS3_0EEE"
    }
   ],
   "linker_set_key" : "_ZTIN3ndk29ScopedAIBinder_DeathRecipientE",
   "name" : "ndk::ScopedAIBinder_DeathRecipient",
   "record_kind" : "class",
   "referenced_type" : "_ZTIN3ndk29ScopedAIBinder_DeathRecipientE",
   "self_type" : "_ZTIN3ndk29ScopedAIBinder_DeathRecipientE",
   "size" : 4,
   "source_file" : "/frameworks/native/libs/binder/ndk/include_ndk/android/binder_auto_utils.h"
  },
  {
   "alignment" : 4,
   "fields" :
   [
    {
     "access" : "private",
     "field_name" : "mT",
     "referenced_type" : "_ZTIP13AIBinder_Weak"
    }
   ],
   "linker_set_key" : "_ZTIN3ndk4impl15ScopedAResourceIP13AIBinder_WeakvXadL_Z20AIBinder_Weak_deleteEELS3_0EEE",
   "name" : "ndk::impl::ScopedAResource<AIBinder_Weak *, void, &AIBinder_Weak_delete, nullptr>",
   "record_kind" : "class",
   "referenced_type" : "_ZTIN3ndk4impl15ScopedAResourceIP13AIBinder_WeakvXadL_Z20AIBinder_Weak_deleteEELS3_0EEE",
   "self_type" : "_ZTIN3ndk4impl15ScopedAResourceIP13AIBinder_WeakvXadL_Z20AIBinder_Weak_deleteEELS3_0EEE",
   "size" : 4,
   "source_file" : "/frameworks/native/libs/binder/ndk/include_ndk/android/binder_auto_utils.h",
   "template_args" : [ "_ZTIP13AIBinder_Weak", "_ZTIv" ]
  },
  {
   "alignment" : 4,
   "fields" :
   [
    {
     "access" : "private",
     "field_name" : "mT",
     "referenced_type" : "_ZTIP23AIBinder_DeathRecipient"
    }
   ],
   "linker_set_key" : "_ZTIN3ndk4impl15ScopedAResourceIP23AIBinder_DeathRecipientvXadL_Z30AIBinder_DeathRecipient_deleteEELS3_0EEE",
   "name" : "ndk::impl::ScopedAResource<AIBinder_DeathRecipient *, void, &AIBinder_DeathRecipient_delete, nullptr>",
   "record_kind" : "class",
   "referenced_type" : "_ZTIN3ndk4impl15ScopedAResourceIP23AIBinder_DeathRecipientvXadL_Z30AIBinder_DeathRecipient_deleteEELS3_0EEE",
   "self_type" : "_ZTIN3ndk4impl15ScopedAResourceIP23AIBinder_DeathRecipientvXadL_Z30AIBinder_DeathRecipient_deleteEELS3_0EEE",
   "size" : 4,
   "source_file" : "/frameworks/native/libs/binder/ndk/include_ndk/android/binder_auto_utils.h",
   "template_args" : [ "_ZTIP23AIBinder_DeathRecipient", "_ZTIv" ]
  },
  {
   "alignment" : 4,
   "fields" :
   [
    {
     "access" : "private",
     "field_name" : "mT",
     "referenced_type" : "_ZTIP7AParcel"
    }
   ],
   "linker_set_key" : "_ZTIN3ndk4impl15ScopedAResourceIP7AParcelvXadL_Z14AParcel_deleteEELS3_0EEE",
   "name" : "ndk::impl::ScopedAResource<AParcel *, void, &AParcel_delete, nullptr>",
   "record_kind" : "class",
   "referenced_type" : "_ZTIN3ndk4impl15ScopedAResourceIP7AParcelvXadL_Z14AParcel_deleteEELS3_0EEE",
   "self_type" : "_ZTIN3ndk4impl15ScopedAResourceIP7AParcelvXadL_Z14AParcel_deleteEELS3_0EEE",
   "size" : 4,
   "source_file" : "/frameworks/native/libs/binder/ndk/include_ndk/android/binder_auto_utils.h",
   "template_args" : [ "_ZTIP7AParcel", "_ZTIv" ]
  },
  {
   "alignment" : 4,
   "fields" :
   [
    {
     "access" : "private",
     "field_name" : "mT",
     "referenced_type" : "_ZTIP7AStatus"
    }
   ],
   "linker_set_key" : "_ZTIN3ndk4impl15ScopedAResourceIP7AStatusvXadL_Z14AStatus_deleteEELS3_0EEE",
   "name" : "ndk::impl::ScopedAResource<AStatus *, void, &AStatus_delete, nullptr>",
   "record_kind" : "class",
   "referenced_type" : "_ZTIN3ndk4impl15ScopedAResourceIP7AStatusvXadL_Z14AStatus_deleteEELS3_0EEE",
   "self_type" : "_ZTIN3ndk4impl15ScopedAResourceIP7AStatusvXadL_Z14AStatus_deleteEELS3_0EEE",
   "size" : 4,
   "source_file" : "/frameworks/native/libs/binder/ndk/include_ndk/android/binder_auto_utils.h",
   "template_args" : [ "_ZTIP7AStatus", "_ZTIv" ]
  },
  {
   "alignment" : 4,
   "fields" :
   [
    {
     "access" : "private",
     "field_name" : "mT",
     "referenced_type" : "_ZTIi"
    }
   ],
   "linker_set_key" : "_ZTIN3ndk4impl15ScopedAResourceIiiXadL_Z5closeEELin1EEE",
   "name" : "ndk::impl::ScopedAResource<int, int, &close, -1>",
   "record_kind" : "class",
   "referenced_type" : "_ZTIN3ndk4impl15ScopedAResourceIiiXadL_Z5closeEELin1EEE",
   "self_type" : "_ZTIN3ndk4impl15ScopedAResourceIiiXadL_Z5closeEELin1EEE",
   "size" : 4,
   "source_file" : "/frameworks/native/libs/binder/ndk/include_ndk/android/binder_auto_utils.h",
   "template_args" : [ "_ZTIi", "_ZTIi" ]
  },
  {
   "alignment" : 4,
   "fields" :
   [
    {
     "field_name" : "components",
     "referenced_type" : "_ZTINSt3__16vectorIN4aidl7android8hardware8graphics6common20PlaneLayoutComponentENS_9allocatorIS6_EEEE"
    },
    {
     "field_name" : "offsetInBytes",
     "field_offset" : 96,
     "referenced_type" : "_ZTIx"
    },
    {
     "field_name" : "sampleIncrementInBits",
     "field_offset" : 160,
     "referenced_type" : "_ZTIx"
    },
    {
     "field_name" : "strideInBytes",
     "field_offset" : 224,
     "referenced_type" : "_ZTIx"
    },
    {
     "field_name" : "widthInSamples",
     "field_offset" : 288,
     "referenced_type" : "_ZTIx"
    },
    {
     "field_name" : "heightInSamples",
     "field_offset" : 352,
     "referenced_type" : "_ZTIx"
    },
    {
     "field_name" : "totalSizeInBytes",
     "field_offset" : 416,
     "referenced_type" : "_ZTIx"
    },
    {
     "field_name" : "horizontalSubsampling",
     "field_offset" : 480,
     "referenced_type" : "_ZTIx"
    },
    {
     "field_name" : "verticalSubsampling",
     "field_offset" : 544,
     "referenced_type" : "_ZTIx"
    }
   ],
   "linker_set_key" : "_ZTIN4aidl7android8hardware8graphics6common11PlaneLayoutE",
   "name" : "aidl::android::hardware::graphics::common::PlaneLayout",
   "record_kind" : "class",
   "referenced_type" : "_ZTIN4aidl7android8hardware8graphics6common11PlaneLayoutE",
   "self_type" : "_ZTIN4aidl7android8hardware8graphics6common11PlaneLayoutE",
   "size" : 76,
   "source_file" : "/out/soong/.intermediates/hardware/interfaces/graphics/common/aidl/android.hardware.graphics.common-ndk_platform-source/gen/include/aidl/android/hardware/graphics/common/PlaneLayout.h"
  },
  {
   "alignment" : 4,
   "fields" :
   [
    {
     "field_name" : "name",
     "referenced_type" : "_ZTINSt3__112basic_stringIcNS_11char_traitsIcEENS_9allocatorIcEEEE"
    },
    {
     "field_name" : "value",
     "field_offset" : 96,
     "referenced_type" : "_ZTIx"
    }
   ],
   "linker_set_key" : "_ZTIN4aidl7android8hardware8graphics6common14ExtendableTypeE",
   "name" : "aidl::android::hardware::graphics::common::ExtendableType",
   "record_kind" : "class",
   "referenced_type" : "_ZTIN4aidl7android8hardware8graphics6common14ExtendableTypeE",
   "self_type" : "_ZTIN4aidl7android8hardware8graphics6common14ExtendableTypeE",
   "size" : 20,
   "source_file" : "/out/soong/.intermediates/hardware/interfaces/graphics/common/aidl/android.hardware.graphics.common-ndk_platform-source/gen/include/aidl/android/hardware/graphics/common/ExtendableType.h"
  },
  {
   "alignment" : 4,
   "fields" :
   [
    {
     "field_name" : "type",
     "referenced_type" : "_ZTIN4aidl7android8hardware8graphics6common14ExtendableTypeE"
    },
    {
     "field_name" : "offsetInBits",
     "field_offset" : 160,
     "referenced_type" : "_ZTIx"
    },
    {
     "field_name" : "sizeInBits",
     "field_offset" : 224,
     "referenced_type" : "_ZTIx"
    }
   ],
   "linker_set_key" : "_ZTIN4aidl7android8hardware8graphics6common20PlaneLayoutComponentE",
   "name" : "aidl::android::hardware::graphics::common::PlaneLayoutComponent",
   "record_kind" : "class",
   "referenced_type" : "_ZTIN4aidl7android8hardware8graphics6common20PlaneLayoutComponentE",
   "self_type" : "_ZTIN4aidl7android8hardware8graphics6common20PlaneLayoutComponentE",
   "size" : 36,
   "source_file" : "/out/soong/.intermediates/hardware/interfaces/graphics/common/aidl/android.hardware.graphics.common-ndk_platform-source/gen/include/aidl/android/hardware/graphics/common/PlaneLayoutComponent.h"
  },
  {
   "alignment" : 4,
   "fields" :
   [
    {
     "field_name" : "left",
     "referenced_type" : "_ZTIi"
    },
    {
     "field_name" : "top",
     "field_offset" : 32,
     "referenced_type" : "_ZTIi"
    },
    {
     "field_name" : "right",
     "field_offset" : 64,
     "referenced_type" : "_ZTIi"
    },
    {
     "field_name" : "bottom",
     "field_offset" : 96,
     "referenced_type" : "_ZTIi"
    }
   ],
   "linker_set_key" : "_ZTIN4aidl7android8hardware8graphics6common4RectE",
   "name" : "aidl::android::hardware::graphics::common::Rect",
   "record_kind" : "class",
   "referenced_type" : "_ZTIN4aidl7android8hardware8graphics6common4RectE",
   "self_type" : "_ZTIN4aidl7android8hardware8graphics6common4RectE",
   "size" : 16,
   "source_file" : "/out/soong/.intermediates/hardware/interfaces/graphics/common/aidl/android.hardware.graphics.common-ndk_platform-source/gen/include/aidl/android/hardware/graphics/common/Rect.h"
  },
  {
   "alignment" : 4,
   "fields" :
   [
    {
     "field_name" : "x",
     "referenced_type" : "_ZTIf"
    },
    {
     "field_name" : "y",
     "field_offset" : 32,
     "referenced_type" : "_ZTIf"
    }
   ],
   "linker_set_key" : "_ZTIN4aidl7android8hardware8graphics6common7XyColorE",
   "name" : "aidl::android::hardware::graphics::common::XyColor",
   "record_kind" : "class",
   "referenced_type" : "_ZTIN4aidl7android8hardware8graphics6common7XyColorE",
   "self_type" : "_ZTIN4aidl7android8hardware8graphics6common7XyColorE",
   "size" : 8,
   "source_file" : "/out/soong/.intermediates/hardware/interfaces/graphics/common/aidl/android.hardware.graphics.common-ndk_platform-source/gen/include/aidl/android/hardware/graphics/common/XyColor.h"
  },
  {
   "alignment" : 4,
   "fields" :
   [
    {
     "field_name" : "maxContentLightLevel",
     "referenced_type" : "_ZTIf"
    },
    {
     "field_name" : "maxFrameAverageLightLevel",
     "field_offset" : 32,
     "referenced_type" : "_ZTIf"
    }
   ],
   "linker_set_key" : "_ZTIN4aidl7android8hardware8graphics6common8Cta861_3E",
   "name" : "aidl::android::hardware::graphics::common::Cta861_3",
   "record_kind" : "class",
   "referenced_type" : "_ZTIN4aidl7android8hardware8graphics6common8Cta861_3E",
   "self_type" : "_ZTIN4aidl7android8hardware8graphics6common8Cta861_3E",
   "size" : 8,
   "source_file" : "/out/soong/.intermediates/hardware/interfaces/graphics/common/aidl/android.hardware.graphics.common-ndk_platform-source/gen/include/aidl/android/hardware/graphics/common/Cta861_3.h"
  },
  {
   "alignment" : 4,
   "fields" :
   [
    {
     "field_name" : "primaryRed",
     "referenced_type" : "_ZTIN4aidl7android8hardware8graphics6common7XyColorE"
    },
    {
     "field_name" : "primaryGreen",
     "field_offset" : 64,
     "referenced_type" : "_ZTIN4aidl7android8hardware8graphics6common7XyColorE"
    },
    {
     "field_name" : "primaryBlue",
     "field_offset" : 128,
     "referenced_type" : "_ZTIN4aidl7android8hardware8graphics6common7XyColorE"
    },
    {
     "field_name" : "whitePoint",
     "field_offset" : 192,
     "referenced_type" : "_ZTIN4aidl7android8hardware8graphics6common7XyColorE"
    },
    {
     "field_name" : "maxLuminance",
     "field_offset" : 256,
     "referenced_type" : "_ZTIf"
    },
    {
     "field_name" : "minLuminance",
     "field_offset" : 288,
     "referenced_type" : "_ZTIf"
    }
   ],
   "linker_set_key" : "_ZTIN4aidl7android8hardware8graphics6common9Smpte2086E",
   "name" : "aidl::android::hardware::graphics::common::Smpte2086",
   "record_kind" : "class",
   "referenced_type" : "_ZTIN4aidl7android8hardware8graphics6common9Smpte2086E",
   "self_type" : "_ZTIN4aidl7android8hardware8graphics6common9Smpte2086E",
   "size" : 40,
   "source_file" : "/out/soong/.intermediates/hardware/interfaces/graphics/common/aidl/android.hardware.graphics.common-ndk_platform-source/gen/include/aidl/android/hardware/graphics/common/Smpte2086.h"
  },
  {
   "alignment" : 4,
   "fields" :
   [
    {
     "access" : "private",
     "field_name" : "mCount",
     "referenced_type" : "_ZTINSt3__16atomicIiEE"
    }
   ],
   "linker_set_key" : "_ZTIN7android12LightRefBaseINS_12NativeHandleEEE",
   "name" : "android::LightRefBase<android::NativeHandle>",
   "record_kind" : "class",
   "referenced_type" : "_ZTIN7android12LightRefBaseINS_12NativeHandleEEE",
   "self_type" : "_ZTIN7android12LightRefBaseINS_12NativeHandleEEE",
   "size" : 4,
   "source_file" : "/system/core/libutils/include/utils/LightRefBase.h",
   "template_args" : [ "_ZTIN7android12NativeHandleE" ]
  },
  {
   "alignment" : 4,
   "fields" :
   [
    {
     "access" : "private",
     "field_name" : "mCount",
     "referenced_type" : "_ZTINSt3__16atomicIiEE"
    }
   ],
   "linker_set_key" : "_ZTIN7android12LightRefBaseINS_19VirtualLightRefBaseEEE",
   "name" : "android::LightRefBase<android::VirtualLightRefBase>",
   "record_kind" : "class",
   "referenced_type" : "_ZTIN7android12LightRefBaseINS_19VirtualLightRefBaseEEE",
   "self_type" : "_ZTIN7android12LightRefBaseINS_19VirtualLightRefBaseEEE",
   "size" : 4,
   "source_file" : "/system/core/libutils/include/utils/LightRefBase.h",
   "template_args" : [ "_ZTIN7android19VirtualLightRefBaseE" ]
  },
  {
   "alignment" : 4,
   "base_specifiers" :
   [
    {
     "referenced_type" : "_ZTIN7android12LightRefBaseINS_12NativeHandleEEE"
    }
   ],
   "fields" :
   [
    {
     "access" : "private",
     "field_name" : "mHandle",
     "field_offset" : 32,
     "referenced_type" : "_ZTIP13native_handle"
    },
    {
     "access" : "private",
     "field_name" : "mOwnsHandle",
     "field_offset" : 64,
     "referenced_type" : "_ZTIb"
    }
   ],
   "linker_set_key" : "_ZTIN7android12NativeHandleE",
   "name" : "android::NativeHandle",
   "record_kind" : "class",
   "referenced_type" : "_ZTIN7android12NativeHandleE",
   "self_type" : "_ZTIN7android12NativeHandleE",
   "size" : 12,
   "source_file" : "/system/core/libutils/include/utils/NativeHandle.h"
  },
  {
   "alignment" : 1,
   "linker_set_key" : "_ZTIN7android14ReferenceMoverE",
   "name" : "android::ReferenceMover",
   "record_kind" : "class",
   "referenced_type" : "_ZTIN7android14ReferenceMoverE",
   "self_type" : "_ZTIN7android14ReferenceMoverE",
   "size" : 1,
   "source_file" : "/system/core/libutils/include/utils/RefBase.h"
  },
  {
   "alignment" : 4,
   "linker_set_key" : "_ZTIN7android16ReferenceRenamerE",
   "name" : "android::ReferenceRenamer",
   "record_kind" : "class",
   "referenced_type" : "_ZTIN7android16ReferenceRenamerE",
   "self_type" : "_ZTIN7android16ReferenceRenamerE",
   "size" : 4,
   "source_file" : "/system/core/libutils/include/utils/RefBase.h",
   "vtable_components" :
   [
    {
     "kind" : "offset_to_top"
    },
    {
     "kind" : "rtti",
     "mangled_component_name" : "_ZTIN7android16ReferenceRenamerE"
    },
    {
     "is_pure" : true,
     "mangled_component_name" : "_ZNK7android16ReferenceRenamerclEj"
    }
   ]
  },
  {
   "alignment" : 1,
   "linker_set_key" : "_ZTIN7android18trait_trivial_copyIbEE",
   "name" : "android::trait_trivial_copy<bool>",
   "referenced_type" : "_ZTIN7android18trait_trivial_copyIbEE",
   "self_type" : "_ZTIN7android18trait_trivial_copyIbEE",
   "size" : 1,
   "source_file" : "/system/core/libutils/include/utils/TypeHelpers.h",
   "template_args" : [ "_ZTIb" ]
  },
  {
   "alignment" : 1,
   "linker_set_key" : "_ZTIN7android18trait_trivial_copyIcEE",
   "name" : "android::trait_trivial_copy<char>",
   "referenced_type" : "_ZTIN7android18trait_trivial_copyIcEE",
   "self_type" : "_ZTIN7android18trait_trivial_copyIcEE",
   "size" : 1,
   "source_file" : "/system/core/libutils/include/utils/TypeHelpers.h",
   "template_args" : [ "_ZTIc" ]
  },
  {
   "alignment" : 1,
   "linker_set_key" : "_ZTIN7android18trait_trivial_copyIdEE",
   "name" : "android::trait_trivial_copy<double>",
   "referenced_type" : "_ZTIN7android18trait_trivial_copyIdEE",
   "self_type" : "_ZTIN7android18trait_trivial_copyIdEE",
   "size" : 1,
   "source_file" : "/system/core/libutils/include/utils/TypeHelpers.h",
   "template_args" : [ "_ZTId" ]
  },
  {
   "alignment" : 1,
   "linker_set_key" : "_ZTIN7android18trait_trivial_copyIfEE",
   "name" : "android::trait_trivial_copy<float>",
   "referenced_type" : "_ZTIN7android18trait_trivial_copyIfEE",
   "self_type" : "_ZTIN7android18trait_trivial_copyIfEE",
   "size" : 1,
   "source_file" : "/system/core/libutils/include/utils/TypeHelpers.h",
   "template_args" : [ "_ZTIf" ]
  },
  {
   "alignment" : 1,
   "linker_set_key" : "_ZTIN7android18trait_trivial_copyIhEE",
   "name" : "android::trait_trivial_copy<unsigned char>",
   "referenced_type" : "_ZTIN7android18trait_trivial_copyIhEE",
   "self_type" : "_ZTIN7android18trait_trivial_copyIhEE",
   "size" : 1,
   "source_file" : "/system/core/libutils/include/utils/TypeHelpers.h",
   "template_args" : [ "_ZTIh" ]
  },
  {
   "alignment" : 1,
   "linker_set_key" : "_ZTIN7android18trait_trivial_copyIiEE",
   "name" : "android::trait_trivial_copy<int>",
   "referenced_type" : "_ZTIN7android18trait_trivial_copyIiEE",
   "self_type" : "_ZTIN7android18trait_trivial_copyIiEE",
   "size" : 1,
   "source_file" : "/system/core/libutils/include/utils/TypeHelpers.h",
   "template_args" : [ "_ZTIi" ]
  },
  {
   "alignment" : 1,
   "linker_set_key" : "_ZTIN7android18trait_trivial_copyIjEE",
   "name" : "android::trait_trivial_copy<unsigned int>",
   "referenced_type" : "_ZTIN7android18trait_trivial_copyIjEE",
   "self_type" : "_ZTIN7android18trait_trivial_copyIjEE",
   "size" : 1,
   "source_file" : "/system/core/libutils/include/utils/TypeHelpers.h",
   "template_args" : [ "_ZTIj" ]
  },
  {
   "alignment" : 1,
   "linker_set_key" : "_ZTIN7android18trait_trivial_copyIlEE",
   "name" : "android::trait_trivial_copy<long>",
   "referenced_type" : "_ZTIN7android18trait_trivial_copyIlEE",
   "self_type" : "_ZTIN7android18trait_trivial_copyIlEE",
   "size" : 1,
   "source_file" : "/system/core/libutils/include/utils/TypeHelpers.h",
   "template_args" : [ "_ZTIl" ]
  },
  {
   "alignment" : 1,
   "linker_set_key" : "_ZTIN7android18trait_trivial_copyImEE",
   "name" : "android::trait_trivial_copy<unsigned long>",
   "referenced_type" : "_ZTIN7android18trait_trivial_copyImEE",
   "self_type" : "_ZTIN7android18trait_trivial_copyImEE",
   "size" : 1,
   "source_file" : "/system/core/libutils/include/utils/TypeHelpers.h",
   "template_args" : [ "_ZTIm" ]
  },
  {
   "alignment" : 1,
   "linker_set_key" : "_ZTIN7android18trait_trivial_copyIsEE",
   "name" : "android::trait_trivial_copy<short>",
   "referenced_type" : "_ZTIN7android18trait_trivial_copyIsEE",
   "self_type" : "_ZTIN7android18trait_trivial_copyIsEE",
   "size" : 1,
   "source_file" : "/system/core/libutils/include/utils/TypeHelpers.h",
   "template_args" : [ "_ZTIs" ]
  },
  {
   "alignment" : 1,
   "linker_set_key" : "_ZTIN7android18trait_trivial_copyItEE",
   "name" : "android::trait_trivial_copy<unsigned short>",
   "referenced_type" : "_ZTIN7android18trait_trivial_copyItEE",
   "self_type" : "_ZTIN7android18trait_trivial_copyItEE",
   "size" : 1,
   "source_file" : "/system/core/libutils/include/utils/TypeHelpers.h",
   "template_args" : [ "_ZTIt" ]
  },
  {
   "alignment" : 1,
   "linker_set_key" : "_ZTIN7android18trait_trivial_copyIvEE",
   "name" : "android::trait_trivial_copy<void>",
   "referenced_type" : "_ZTIN7android18trait_trivial_copyIvEE",
   "self_type" : "_ZTIN7android18trait_trivial_copyIvEE",
   "size" : 1,
   "source_file" : "/system/core/libutils/include/utils/TypeHelpers.h",
   "template_args" : [ "_ZTIv" ]
  },
  {
   "alignment" : 1,
   "linker_set_key" : "_ZTIN7android18trait_trivial_copyIxEE",
   "name" : "android::trait_trivial_copy<long long>",
   "referenced_type" : "_ZTIN7android18trait_trivial_copyIxEE",
   "self_type" : "_ZTIN7android18trait_trivial_copyIxEE",
   "size" : 1,
   "source_file" : "/system/core/libutils/include/utils/TypeHelpers.h",
   "template_args" : [ "_ZTIx" ]
  },
  {
   "alignment" : 1,
   "linker_set_key" : "_ZTIN7android18trait_trivial_copyIyEE",
   "name" : "android::trait_trivial_copy<unsigned long long>",
   "referenced_type" : "_ZTIN7android18trait_trivial_copyIyEE",
   "self_type" : "_ZTIN7android18trait_trivial_copyIyEE",
   "size" : 1,
   "source_file" : "/system/core/libutils/include/utils/TypeHelpers.h",
   "template_args" : [ "_ZTIy" ]
  },
  {
   "alignment" : 1,
   "linker_set_key" : "_ZTIN7android18trait_trivial_ctorIbEE",
   "name" : "android::trait_trivial_ctor<bool>",
   "referenced_type" : "_ZTIN7android18trait_trivial_ctorIbEE",
   "self_type" : "_ZTIN7android18trait_trivial_ctorIbEE",
   "size" : 1,
   "source_file" : "/system/core/libutils/include/utils/TypeHelpers.h",
   "template_args" : [ "_ZTIb" ]
  },
  {
   "alignment" : 1,
   "linker_set_key" : "_ZTIN7android18trait_trivial_ctorIcEE",
   "name" : "android::trait_trivial_ctor<char>",
   "referenced_type" : "_ZTIN7android18trait_trivial_ctorIcEE",
   "self_type" : "_ZTIN7android18trait_trivial_ctorIcEE",
   "size" : 1,
   "source_file" : "/system/core/libutils/include/utils/TypeHelpers.h",
   "template_args" : [ "_ZTIc" ]
  },
  {
   "alignment" : 1,
   "linker_set_key" : "_ZTIN7android18trait_trivial_ctorIdEE",
   "name" : "android::trait_trivial_ctor<double>",
   "referenced_type" : "_ZTIN7android18trait_trivial_ctorIdEE",
   "self_type" : "_ZTIN7android18trait_trivial_ctorIdEE",
   "size" : 1,
   "source_file" : "/system/core/libutils/include/utils/TypeHelpers.h",
   "template_args" : [ "_ZTId" ]
  },
  {
   "alignment" : 1,
   "linker_set_key" : "_ZTIN7android18trait_trivial_ctorIfEE",
   "name" : "android::trait_trivial_ctor<float>",
   "referenced_type" : "_ZTIN7android18trait_trivial_ctorIfEE",
   "self_type" : "_ZTIN7android18trait_trivial_ctorIfEE",
   "size" : 1,
   "source_file" : "/system/core/libutils/include/utils/TypeHelpers.h",
   "template_args" : [ "_ZTIf" ]
  },
  {
   "alignment" : 1,
   "linker_set_key" : "_ZTIN7android18trait_trivial_ctorIhEE",
   "name" : "android::trait_trivial_ctor<unsigned char>",
   "referenced_type" : "_ZTIN7android18trait_trivial_ctorIhEE",
   "self_type" : "_ZTIN7android18trait_trivial_ctorIhEE",
   "size" : 1,
   "source_file" : "/system/core/libutils/include/utils/TypeHelpers.h",
   "template_args" : [ "_ZTIh" ]
  },
  {
   "alignment" : 1,
   "linker_set_key" : "_ZTIN7android18trait_trivial_ctorIiEE",
   "name" : "android::trait_trivial_ctor<int>",
   "referenced_type" : "_ZTIN7android18trait_trivial_ctorIiEE",
   "self_type" : "_ZTIN7android18trait_trivial_ctorIiEE",
   "size" : 1,
   "source_file" : "/system/core/libutils/include/utils/TypeHelpers.h",
   "template_args" : [ "_ZTIi" ]
  },
  {
   "alignment" : 1,
   "linker_set_key" : "_ZTIN7android18trait_trivial_ctorIjEE",
   "name" : "android::trait_trivial_ctor<unsigned int>",
   "referenced_type" : "_ZTIN7android18trait_trivial_ctorIjEE",
   "self_type" : "_ZTIN7android18trait_trivial_ctorIjEE",
   "size" : 1,
   "source_file" : "/system/core/libutils/include/utils/TypeHelpers.h",
   "template_args" : [ "_ZTIj" ]
  },
  {
   "alignment" : 1,
   "linker_set_key" : "_ZTIN7android18trait_trivial_ctorIlEE",
   "name" : "android::trait_trivial_ctor<long>",
   "referenced_type" : "_ZTIN7android18trait_trivial_ctorIlEE",
   "self_type" : "_ZTIN7android18trait_trivial_ctorIlEE",
   "size" : 1,
   "source_file" : "/system/core/libutils/include/utils/TypeHelpers.h",
   "template_args" : [ "_ZTIl" ]
  },
  {
   "alignment" : 1,
   "linker_set_key" : "_ZTIN7android18trait_trivial_ctorImEE",
   "name" : "android::trait_trivial_ctor<unsigned long>",
   "referenced_type" : "_ZTIN7android18trait_trivial_ctorImEE",
   "self_type" : "_ZTIN7android18trait_trivial_ctorImEE",
   "size" : 1,
   "source_file" : "/system/core/libutils/include/utils/TypeHelpers.h",
   "template_args" : [ "_ZTIm" ]
  },
  {
   "alignment" : 1,
   "linker_set_key" : "_ZTIN7android18trait_trivial_ctorIsEE",
   "name" : "android::trait_trivial_ctor<short>",
   "referenced_type" : "_ZTIN7android18trait_trivial_ctorIsEE",
   "self_type" : "_ZTIN7android18trait_trivial_ctorIsEE",
   "size" : 1,
   "source_file" : "/system/core/libutils/include/utils/TypeHelpers.h",
   "template_args" : [ "_ZTIs" ]
  },
  {
   "alignment" : 1,
   "linker_set_key" : "_ZTIN7android18trait_trivial_ctorItEE",
   "name" : "android::trait_trivial_ctor<unsigned short>",
   "referenced_type" : "_ZTIN7android18trait_trivial_ctorItEE",
   "self_type" : "_ZTIN7android18trait_trivial_ctorItEE",
   "size" : 1,
   "source_file" : "/system/core/libutils/include/utils/TypeHelpers.h",
   "template_args" : [ "_ZTIt" ]
  },
  {
   "alignment" : 1,
   "linker_set_key" : "_ZTIN7android18trait_trivial_ctorIvEE",
   "name" : "android::trait_trivial_ctor<void>",
   "referenced_type" : "_ZTIN7android18trait_trivial_ctorIvEE",
   "self_type" : "_ZTIN7android18trait_trivial_ctorIvEE",
   "size" : 1,
   "source_file" : "/system/core/libutils/include/utils/TypeHelpers.h",
   "template_args" : [ "_ZTIv" ]
  },
  {
   "alignment" : 1,
   "linker_set_key" : "_ZTIN7android18trait_trivial_ctorIxEE",
   "name" : "android::trait_trivial_ctor<long long>",
   "referenced_type" : "_ZTIN7android18trait_trivial_ctorIxEE",
   "self_type" : "_ZTIN7android18trait_trivial_ctorIxEE",
   "size" : 1,
   "source_file" : "/system/core/libutils/include/utils/TypeHelpers.h",
   "template_args" : [ "_ZTIx" ]
  },
  {
   "alignment" : 1,
   "linker_set_key" : "_ZTIN7android18trait_trivial_ctorIyEE",
   "name" : "android::trait_trivial_ctor<unsigned long long>",
   "referenced_type" : "_ZTIN7android18trait_trivial_ctorIyEE",
   "self_type" : "_ZTIN7android18trait_trivial_ctorIyEE",
   "size" : 1,
   "source_file" : "/system/core/libutils/include/utils/TypeHelpers.h",
   "template_args" : [ "_ZTIy" ]
  },
  {
   "alignment" : 1,
   "linker_set_key" : "_ZTIN7android18trait_trivial_dtorIbEE",
   "name" : "android::trait_trivial_dtor<bool>",
   "referenced_type" : "_ZTIN7android18trait_trivial_dtorIbEE",
   "self_type" : "_ZTIN7android18trait_trivial_dtorIbEE",
   "size" : 1,
   "source_file" : "/system/core/libutils/include/utils/TypeHelpers.h",
   "template_args" : [ "_ZTIb" ]
  },
  {
   "alignment" : 1,
   "linker_set_key" : "_ZTIN7android18trait_trivial_dtorIcEE",
   "name" : "android::trait_trivial_dtor<char>",
   "referenced_type" : "_ZTIN7android18trait_trivial_dtorIcEE",
   "self_type" : "_ZTIN7android18trait_trivial_dtorIcEE",
   "size" : 1,
   "source_file" : "/system/core/libutils/include/utils/TypeHelpers.h",
   "template_args" : [ "_ZTIc" ]
  },
  {
   "alignment" : 1,
   "linker_set_key" : "_ZTIN7android18trait_trivial_dtorIdEE",
   "name" : "android::trait_trivial_dtor<double>",
   "referenced_type" : "_ZTIN7android18trait_trivial_dtorIdEE",
   "self_type" : "_ZTIN7android18trait_trivial_dtorIdEE",
   "size" : 1,
   "source_file" : "/system/core/libutils/include/utils/TypeHelpers.h",
   "template_args" : [ "_ZTId" ]
  },
  {
   "alignment" : 1,
   "linker_set_key" : "_ZTIN7android18trait_trivial_dtorIfEE",
   "name" : "android::trait_trivial_dtor<float>",
   "referenced_type" : "_ZTIN7android18trait_trivial_dtorIfEE",
   "self_type" : "_ZTIN7android18trait_trivial_dtorIfEE",
   "size" : 1,
   "source_file" : "/system/core/libutils/include/utils/TypeHelpers.h",
   "template_args" : [ "_ZTIf" ]
  },
  {
   "alignment" : 1,
   "linker_set_key" : "_ZTIN7android18trait_trivial_dtorIhEE",
   "name" : "android::trait_trivial_dtor<unsigned char>",
   "referenced_type" : "_ZTIN7android18trait_trivial_dtorIhEE",
   "self_type" : "_ZTIN7android18trait_trivial_dtorIhEE",
   "size" : 1,
   "source_file" : "/system/core/libutils/include/utils/TypeHelpers.h",
   "template_args" : [ "_ZTIh" ]
  },
  {
   "alignment" : 1,
   "linker_set_key" : "_ZTIN7android18trait_trivial_dtorIiEE",
   "name" : "android::trait_trivial_dtor<int>",
   "referenced_type" : "_ZTIN7android18trait_trivial_dtorIiEE",
   "self_type" : "_ZTIN7android18trait_trivial_dtorIiEE",
   "size" : 1,
   "source_file" : "/system/core/libutils/include/utils/TypeHelpers.h",
   "template_args" : [ "_ZTIi" ]
  },
  {
   "alignment" : 1,
   "linker_set_key" : "_ZTIN7android18trait_trivial_dtorIjEE",
   "name" : "android::trait_trivial_dtor<unsigned int>",
   "referenced_type" : "_ZTIN7android18trait_trivial_dtorIjEE",
   "self_type" : "_ZTIN7android18trait_trivial_dtorIjEE",
   "size" : 1,
   "source_file" : "/system/core/libutils/include/utils/TypeHelpers.h",
   "template_args" : [ "_ZTIj" ]
  },
  {
   "alignment" : 1,
   "linker_set_key" : "_ZTIN7android18trait_trivial_dtorIlEE",
   "name" : "android::trait_trivial_dtor<long>",
   "referenced_type" : "_ZTIN7android18trait_trivial_dtorIlEE",
   "self_type" : "_ZTIN7android18trait_trivial_dtorIlEE",
   "size" : 1,
   "source_file" : "/system/core/libutils/include/utils/TypeHelpers.h",
   "template_args" : [ "_ZTIl" ]
  },
  {
   "alignment" : 1,
   "linker_set_key" : "_ZTIN7android18trait_trivial_dtorImEE",
   "name" : "android::trait_trivial_dtor<unsigned long>",
   "referenced_type" : "_ZTIN7android18trait_trivial_dtorImEE",
   "self_type" : "_ZTIN7android18trait_trivial_dtorImEE",
   "size" : 1,
   "source_file" : "/system/core/libutils/include/utils/TypeHelpers.h",
   "template_args" : [ "_ZTIm" ]
  },
  {
   "alignment" : 1,
   "linker_set_key" : "_ZTIN7android18trait_trivial_dtorIsEE",
   "name" : "android::trait_trivial_dtor<short>",
   "referenced_type" : "_ZTIN7android18trait_trivial_dtorIsEE",
   "self_type" : "_ZTIN7android18trait_trivial_dtorIsEE",
   "size" : 1,
   "source_file" : "/system/core/libutils/include/utils/TypeHelpers.h",
   "template_args" : [ "_ZTIs" ]
  },
  {
   "alignment" : 1,
   "linker_set_key" : "_ZTIN7android18trait_trivial_dtorItEE",
   "name" : "android::trait_trivial_dtor<unsigned short>",
   "referenced_type" : "_ZTIN7android18trait_trivial_dtorItEE",
   "self_type" : "_ZTIN7android18trait_trivial_dtorItEE",
   "size" : 1,
   "source_file" : "/system/core/libutils/include/utils/TypeHelpers.h",
   "template_args" : [ "_ZTIt" ]
  },
  {
   "alignment" : 1,
   "linker_set_key" : "_ZTIN7android18trait_trivial_dtorIvEE",
   "name" : "android::trait_trivial_dtor<void>",
   "referenced_type" : "_ZTIN7android18trait_trivial_dtorIvEE",
   "self_type" : "_ZTIN7android18trait_trivial_dtorIvEE",
   "size" : 1,
   "source_file" : "/system/core/libutils/include/utils/TypeHelpers.h",
   "template_args" : [ "_ZTIv" ]
  },
  {
   "alignment" : 1,
   "linker_set_key" : "_ZTIN7android18trait_trivial_dtorIxEE",
   "name" : "android::trait_trivial_dtor<long long>",
   "referenced_type" : "_ZTIN7android18trait_trivial_dtorIxEE",
   "self_type" : "_ZTIN7android18trait_trivial_dtorIxEE",
   "size" : 1,
   "source_file" : "/system/core/libutils/include/utils/TypeHelpers.h",
   "template_args" : [ "_ZTIx" ]
  },
  {
   "alignment" : 1,
   "linker_set_key" : "_ZTIN7android18trait_trivial_dtorIyEE",
   "name" : "android::trait_trivial_dtor<unsigned long long>",
   "referenced_type" : "_ZTIN7android18trait_trivial_dtorIyEE",
   "self_type" : "_ZTIN7android18trait_trivial_dtorIyEE",
   "size" : 1,
   "source_file" : "/system/core/libutils/include/utils/TypeHelpers.h",
   "template_args" : [ "_ZTIy" ]
  },
  {
   "alignment" : 1,
   "linker_set_key" : "_ZTIN7android18trait_trivial_moveIbEE",
   "name" : "android::trait_trivial_move<bool>",
   "referenced_type" : "_ZTIN7android18trait_trivial_moveIbEE",
   "self_type" : "_ZTIN7android18trait_trivial_moveIbEE",
   "size" : 1,
   "source_file" : "/system/core/libutils/include/utils/TypeHelpers.h",
   "template_args" : [ "_ZTIb" ]
  },
  {
   "alignment" : 1,
   "linker_set_key" : "_ZTIN7android18trait_trivial_moveIcEE",
   "name" : "android::trait_trivial_move<char>",
   "referenced_type" : "_ZTIN7android18trait_trivial_moveIcEE",
   "self_type" : "_ZTIN7android18trait_trivial_moveIcEE",
   "size" : 1,
   "source_file" : "/system/core/libutils/include/utils/TypeHelpers.h",
   "template_args" : [ "_ZTIc" ]
  },
  {
   "alignment" : 1,
   "linker_set_key" : "_ZTIN7android18trait_trivial_moveIdEE",
   "name" : "android::trait_trivial_move<double>",
   "referenced_type" : "_ZTIN7android18trait_trivial_moveIdEE",
   "self_type" : "_ZTIN7android18trait_trivial_moveIdEE",
   "size" : 1,
   "source_file" : "/system/core/libutils/include/utils/TypeHelpers.h",
   "template_args" : [ "_ZTId" ]
  },
  {
   "alignment" : 1,
   "linker_set_key" : "_ZTIN7android18trait_trivial_moveIfEE",
   "name" : "android::trait_trivial_move<float>",
   "referenced_type" : "_ZTIN7android18trait_trivial_moveIfEE",
   "self_type" : "_ZTIN7android18trait_trivial_moveIfEE",
   "size" : 1,
   "source_file" : "/system/core/libutils/include/utils/TypeHelpers.h",
   "template_args" : [ "_ZTIf" ]
  },
  {
   "alignment" : 1,
   "linker_set_key" : "_ZTIN7android18trait_trivial_moveIhEE",
   "name" : "android::trait_trivial_move<unsigned char>",
   "referenced_type" : "_ZTIN7android18trait_trivial_moveIhEE",
   "self_type" : "_ZTIN7android18trait_trivial_moveIhEE",
   "size" : 1,
   "source_file" : "/system/core/libutils/include/utils/TypeHelpers.h",
   "template_args" : [ "_ZTIh" ]
  },
  {
   "alignment" : 1,
   "linker_set_key" : "_ZTIN7android18trait_trivial_moveIiEE",
   "name" : "android::trait_trivial_move<int>",
   "referenced_type" : "_ZTIN7android18trait_trivial_moveIiEE",
   "self_type" : "_ZTIN7android18trait_trivial_moveIiEE",
   "size" : 1,
   "source_file" : "/system/core/libutils/include/utils/TypeHelpers.h",
   "template_args" : [ "_ZTIi" ]
  },
  {
   "alignment" : 1,
   "linker_set_key" : "_ZTIN7android18trait_trivial_moveIjEE",
   "name" : "android::trait_trivial_move<unsigned int>",
   "referenced_type" : "_ZTIN7android18trait_trivial_moveIjEE",
   "self_type" : "_ZTIN7android18trait_trivial_moveIjEE",
   "size" : 1,
   "source_file" : "/system/core/libutils/include/utils/TypeHelpers.h",
   "template_args" : [ "_ZTIj" ]
  },
  {
   "alignment" : 1,
   "linker_set_key" : "_ZTIN7android18trait_trivial_moveIlEE",
   "name" : "android::trait_trivial_move<long>",
   "referenced_type" : "_ZTIN7android18trait_trivial_moveIlEE",
   "self_type" : "_ZTIN7android18trait_trivial_moveIlEE",
   "size" : 1,
   "source_file" : "/system/core/libutils/include/utils/TypeHelpers.h",
   "template_args" : [ "_ZTIl" ]
  },
  {
   "alignment" : 1,
   "linker_set_key" : "_ZTIN7android18trait_trivial_moveImEE",
   "name" : "android::trait_trivial_move<unsigned long>",
   "referenced_type" : "_ZTIN7android18trait_trivial_moveImEE",
   "self_type" : "_ZTIN7android18trait_trivial_moveImEE",
   "size" : 1,
   "source_file" : "/system/core/libutils/include/utils/TypeHelpers.h",
   "template_args" : [ "_ZTIm" ]
  },
  {
   "alignment" : 1,
   "linker_set_key" : "_ZTIN7android18trait_trivial_moveIsEE",
   "name" : "android::trait_trivial_move<short>",
   "referenced_type" : "_ZTIN7android18trait_trivial_moveIsEE",
   "self_type" : "_ZTIN7android18trait_trivial_moveIsEE",
   "size" : 1,
   "source_file" : "/system/core/libutils/include/utils/TypeHelpers.h",
   "template_args" : [ "_ZTIs" ]
  },
  {
   "alignment" : 1,
   "linker_set_key" : "_ZTIN7android18trait_trivial_moveItEE",
   "name" : "android::trait_trivial_move<unsigned short>",
   "referenced_type" : "_ZTIN7android18trait_trivial_moveItEE",
   "self_type" : "_ZTIN7android18trait_trivial_moveItEE",
   "size" : 1,
   "source_file" : "/system/core/libutils/include/utils/TypeHelpers.h",
   "template_args" : [ "_ZTIt" ]
  },
  {
   "alignment" : 1,
   "linker_set_key" : "_ZTIN7android18trait_trivial_moveIvEE",
   "name" : "android::trait_trivial_move<void>",
   "referenced_type" : "_ZTIN7android18trait_trivial_moveIvEE",
   "self_type" : "_ZTIN7android18trait_trivial_moveIvEE",
   "size" : 1,
   "source_file" : "/system/core/libutils/include/utils/TypeHelpers.h",
   "template_args" : [ "_ZTIv" ]
  },
  {
   "alignment" : 1,
   "linker_set_key" : "_ZTIN7android18trait_trivial_moveIxEE",
   "name" : "android::trait_trivial_move<long long>",
   "referenced_type" : "_ZTIN7android18trait_trivial_moveIxEE",
   "self_type" : "_ZTIN7android18trait_trivial_moveIxEE",
   "size" : 1,
   "source_file" : "/system/core/libutils/include/utils/TypeHelpers.h",
   "template_args" : [ "_ZTIx" ]
  },
  {
   "alignment" : 1,
   "linker_set_key" : "_ZTIN7android18trait_trivial_moveIyEE",
   "name" : "android::trait_trivial_move<unsigned long long>",
   "referenced_type" : "_ZTIN7android18trait_trivial_moveIyEE",
   "self_type" : "_ZTIN7android18trait_trivial_moveIyEE",
   "size" : 1,
   "source_file" : "/system/core/libutils/include/utils/TypeHelpers.h",
   "template_args" : [ "_ZTIy" ]
  },
  {
   "alignment" : 4,
   "base_specifiers" :
   [
    {
     "referenced_type" : "_ZTIN7android12LightRefBaseINS_19VirtualLightRefBaseEEE"
    }
   ],
   "linker_set_key" : "_ZTIN7android19VirtualLightRefBaseE",
   "name" : "android::VirtualLightRefBase",
   "record_kind" : "class",
   "referenced_type" : "_ZTIN7android19VirtualLightRefBaseE",
   "self_type" : "_ZTIN7android19VirtualLightRefBaseE",
   "size" : 8,
   "source_file" : "/system/core/libutils/include/utils/LightRefBase.h",
   "vtable_components" :
   [
    {
     "kind" : "offset_to_top"
    },
    {
     "kind" : "rtti",
     "mangled_component_name" : "_ZTIN7android19VirtualLightRefBaseE"
    },
    {
     "kind" : "complete_dtor_pointer",
     "mangled_component_name" : "_ZN7android19VirtualLightRefBaseD1Ev"
    },
    {
     "kind" : "deleting_dtor_pointer",
     "mangled_component_name" : "_ZN7android19VirtualLightRefBaseD0Ev"
    }
   ]
  },
  {
   "alignment" : 4,
   "fields" :
   [
    {
     "access" : "private",
     "field_name" : "m_ptr",
     "referenced_type" : "_ZTIPN7android4hidl4base4V1_05IBaseE"
    }
   ],
   "linker_set_key" : "_ZTIN7android2spINS_4hidl4base4V1_05IBaseEEE",
   "name" : "android::sp<android::hidl::base::V1_0::IBase>",
   "record_kind" : "class",
   "referenced_type" : "_ZTIN7android2spINS_4hidl4base4V1_05IBaseEEE",
   "self_type" : "_ZTIN7android2spINS_4hidl4base4V1_05IBaseEEE",
   "size" : 4,
   "source_file" : "/system/core/libutils/include/utils/StrongPointer.h",
   "template_args" : [ "_ZTIN7android4hidl4base4V1_05IBaseE" ]
  },
  {
   "alignment" : 4,
   "fields" :
   [
    {
     "access" : "private",
     "field_name" : "m_ptr",
     "referenced_type" : "_ZTIPN7android4hidl7manager4V1_020IServiceNotificationE"
    }
   ],
   "linker_set_key" : "_ZTIN7android2spINS_4hidl7manager4V1_020IServiceNotificationEEE",
   "name" : "android::sp<android::hidl::manager::V1_0::IServiceNotification>",
   "record_kind" : "class",
   "referenced_type" : "_ZTIN7android2spINS_4hidl7manager4V1_020IServiceNotificationEEE",
   "self_type" : "_ZTIN7android2spINS_4hidl7manager4V1_020IServiceNotificationEEE",
   "size" : 4,
   "source_file" : "/system/core/libutils/include/utils/StrongPointer.h",
   "template_args" : [ "_ZTIN7android4hidl7manager4V1_020IServiceNotificationE" ]
  },
  {
   "alignment" : 4,
   "fields" :
   [
    {
     "access" : "private",
     "field_name" : "m_ptr",
     "referenced_type" : "_ZTIPN7android8hardware20hidl_death_recipientE"
    }
   ],
   "linker_set_key" : "_ZTIN7android2spINS_8hardware20hidl_death_recipientEEE",
   "name" : "android::sp<android::hardware::hidl_death_recipient>",
   "record_kind" : "class",
   "referenced_type" : "_ZTIN7android2spINS_8hardware20hidl_death_recipientEEE",
   "self_type" : "_ZTIN7android2spINS_8hardware20hidl_death_recipientEEE",
   "size" : 4,
   "source_file" : "/system/core/libutils/include/utils/StrongPointer.h",
   "template_args" : [ "_ZTIN7android8hardware20hidl_death_recipientE" ]
  },
  {
   "alignment" : 4,
   "fields" :
   [
    {
     "access" : "private",
     "field_name" : "m_ptr",
     "referenced_type" : "_ZTIPN7android8hardware8graphics6mapper4V4_07IMapperE"
    }
   ],
   "linker_set_key" : "_ZTIN7android2spINS_8hardware8graphics6mapper4V4_07IMapperEEE",
   "name" : "android::sp<android::hardware::graphics::mapper::V4_0::IMapper>",
   "record_kind" : "class",
   "referenced_type" : "_ZTIN7android2spINS_8hardware8graphics6mapper4V4_07IMapperEEE",
   "self_type" : "_ZTIN7android2spINS_8hardware8graphics6mapper4V4_07IMapperEEE",
   "size" : 4,
   "source_file" : "/system/core/libutils/include/utils/StrongPointer.h",
   "template_args" : [ "_ZTIN7android8hardware8graphics6mapper4V4_07IMapperE" ]
  },
  {
   "alignment" : 4,
   "base_specifiers" :
   [
    {
     "is_virtual" : true,
     "referenced_type" : "_ZTIN7android7RefBaseE"
    }
   ],
   "linker_set_key" : "_ZTIN7android4hidl4base4V1_05IBaseE",
   "name" : "android::hidl::base::V1_0::IBase",
   "referenced_type" : "_ZTIN7android4hidl4base4V1_05IBaseE",
   "self_type" : "_ZTIN7android4hidl4base4V1_05IBaseE",
   "size" : 12,
   "source_file" : "/out/soong/.intermediates/system/libhidl/transport/base/1.0/android.hidl.base@1.0_genc++_headers/gen/android/hidl/base/1.0/IBase.h",
   "vtable_components" :
   [
    {
     "component_value" : 4,
     "kind" : "vbase_offset"
    },
    {
     "kind" : "offset_to_top"
    },
    {
     "kind" : "rtti",
     "mangled_component_name" : "_ZTIN7android4hidl4base4V1_05IBaseE"
    },
    {
     "mangled_component_name" : "_ZNK7android4hidl4base4V1_05IBase8isRemoteEv"
    },
    {
     "mangled_component_name" : "_ZN7android4hidl4base4V1_05IBase14interfaceChainENSt3__18functionIFvRKNS_8hardware8hidl_vecINS6_11hidl_stringEEEEEE"
    },
    {
     "mangled_component_name" : "_ZN7android4hidl4base4V1_05IBase5debugERKNS_8hardware11hidl_handleERKNS4_8hidl_vecINS4_11hidl_stringEEE"
    },
    {
     "mangled_component_name" : "_ZN7android4hidl4base4V1_05IBase19interfaceDescriptorENSt3__18functionIFvRKNS_8hardware11hidl_stringEEEE"
    },
    {
     "mangled_component_name" : "_ZN7android4hidl4base4V1_05IBase12getHashChainENSt3__18functionIFvRKNS_8hardware8hidl_vecINS6_10hidl_arrayIhLj32EJEEEEEEEE"
    },
    {
     "mangled_component_name" : "_ZN7android4hidl4base4V1_05IBase21setHALInstrumentationEv"
    },
    {
     "mangled_component_name" : "_ZN7android4hidl4base4V1_05IBase11linkToDeathERKNS_2spINS_8hardware20hidl_death_recipientEEEy"
    },
    {
     "mangled_component_name" : "_ZN7android4hidl4base4V1_05IBase4pingEv"
    },
    {
     "mangled_component_name" : "_ZN7android4hidl4base4V1_05IBase12getDebugInfoENSt3__18functionIFvRKNS2_9DebugInfoEEEE"
    },
    {
     "mangled_component_name" : "_ZN7android4hidl4base4V1_05IBase21notifySyspropsChangedEv"
    },
    {
     "mangled_component_name" : "_ZN7android4hidl4base4V1_05IBase13unlinkToDeathERKNS_2spINS_8hardware20hidl_death_recipientEEE"
    },
    {
     "kind" : "complete_dtor_pointer",
     "mangled_component_name" : "_ZN7android4hidl4base4V1_05IBaseD1Ev"
    },
    {
     "kind" : "deleting_dtor_pointer",
     "mangled_component_name" : "_ZN7android4hidl4base4V1_05IBaseD0Ev"
    },
    {
     "kind" : "vcall_offset"
    },
    {
     "kind" : "vcall_offset"
    },
    {
     "kind" : "vcall_offset"
    },
    {
     "kind" : "vcall_offset"
    },
    {
     "component_value" : -4,
     "kind" : "vcall_offset"
    },
    {
     "component_value" : -4,
     "kind" : "offset_to_top"
    },
    {
     "kind" : "rtti",
     "mangled_component_name" : "_ZTIN7android4hidl4base4V1_05IBaseE"
    },
    {
     "kind" : "complete_dtor_pointer",
     "mangled_component_name" : "_ZTv0_n12_N7android4hidl4base4V1_05IBaseD1Ev"
    },
    {
     "kind" : "deleting_dtor_pointer",
     "mangled_component_name" : "_ZTv0_n12_N7android4hidl4base4V1_05IBaseD0Ev"
    },
    {
     "mangled_component_name" : "_ZN7android7RefBase10onFirstRefEv"
    },
    {
     "mangled_component_name" : "_ZN7android7RefBase15onLastStrongRefEPKv"
    },
    {
     "mangled_component_name" : "_ZN7android7RefBase20onIncStrongAttemptedEjPKv"
    },
    {
     "mangled_component_name" : "_ZN7android7RefBase13onLastWeakRefEPKv"
    }
   ]
  },
  {
   "alignment" : 8,
   "fields" :
   [
    {
     "field_name" : "pid",
     "referenced_type" : "_ZTIi"
    },
    {
     "field_name" : "ptr",
     "field_offset" : 64,
     "referenced_type" : "_ZTIy"
    },
    {
     "field_name" : "arch",
     "field_offset" : 128,
     "referenced_type" : "_ZTIN7android4hidl4base4V1_09DebugInfo12ArchitectureE"
    }
   ],
   "linker_set_key" : "_ZTIN7android4hidl4base4V1_09DebugInfoE",
   "name" : "android::hidl::base::V1_0::DebugInfo",
   "referenced_type" : "_ZTIN7android4hidl4base4V1_09DebugInfoE",
   "self_type" : "_ZTIN7android4hidl4base4V1_09DebugInfoE",
   "size" : 24,
   "source_file" : "/out/soong/.intermediates/system/libhidl/transport/base/1.0/android.hidl.base@1.0_genc++_headers/gen/android/hidl/base/1.0/types.h"
  },
  {
   "alignment" : 4,
   "base_specifiers" :
   [
    {
     "referenced_type" : "_ZTIN7android4hidl4base4V1_05IBaseE"
    }
   ],
   "linker_set_key" : "_ZTIN7android4hidl7manager4V1_020IServiceNotificationE",
   "name" : "android::hidl::manager::V1_0::IServiceNotification",
   "referenced_type" : "_ZTIN7android4hidl7manager4V1_020IServiceNotificationE",
   "self_type" : "_ZTIN7android4hidl7manager4V1_020IServiceNotificationE",
   "size" : 12,
   "source_file" : "/out/soong/.intermediates/system/libhidl/transport/manager/1.0/android.hidl.manager@1.0_genc++_headers/gen/android/hidl/manager/1.0/IServiceNotification.h",
   "vtable_components" :
   [
    {
     "component_value" : 4,
     "kind" : "vbase_offset"
    },
    {
     "kind" : "offset_to_top"
    },
    {
     "kind" : "rtti",
     "mangled_component_name" : "_ZTIN7android4hidl7manager4V1_020IServiceNotificationE"
    },
    {
     "mangled_component_name" : "_ZNK7android4hidl7manager4V1_020IServiceNotification8isRemoteEv"
    },
    {
     "mangled_component_name" : "_ZN7android4hidl7manager4V1_020IServiceNotification14interfaceChainENSt3__18functionIFvRKNS_8hardware8hidl_vecINS6_11hidl_stringEEEEEE"
    },
    {
     "mangled_component_name" : "_ZN7android4hidl7manager4V1_020IServiceNotification5debugERKNS_8hardware11hidl_handleERKNS4_8hidl_vecINS4_11hidl_stringEEE"
    },
    {
     "mangled_component_name" : "_ZN7android4hidl7manager4V1_020IServiceNotification19interfaceDescriptorENSt3__18functionIFvRKNS_8hardware11hidl_stringEEEE"
    },
    {
     "mangled_component_name" : "_ZN7android4hidl7manager4V1_020IServiceNotification12getHashChainENSt3__18functionIFvRKNS_8hardware8hidl_vecINS6_10hidl_arrayIhLj32EJEEEEEEEE"
    },
    {
     "mangled_component_name" : "_ZN7android4hidl7manager4V1_020IServiceNotification21setHALInstrumentationEv"
    },
    {
     "mangled_component_name" : "_ZN7android4hidl7manager4V1_020IServiceNotification11linkToDeathERKNS_2spINS_8hardware20hidl_death_recipientEEEy"
    },
    {
     "mangled_component_name" : "_ZN7android4hidl7manager4V1_020IServiceNotification4pingEv"
    },
    {
     "mangled_component_name" : "_ZN7android4hidl7manager4V1_020IServiceNotification12getDebugInfoENSt3__18functionIFvRKNS0_4base4V1_09DebugInfoEEEE"
    },
    {
     "mangled_component_name" : "_ZN7android4hidl7manager4V1_020IServiceNotification21notifySyspropsChangedEv"
    },
    {
     "mangled_component_name" : "_ZN7android4hidl7manager4V1_020IServiceNotification13unlinkToDeathERKNS_2spINS_8hardware20hidl_death_recipientEEE"
    },
    {
     "kind" : "complete_dtor_pointer",
     "mangled_component_name" : "_ZN7android4hidl7manager4V1_020IServiceNotificationD1Ev"
    },
    {
     "kind" : "deleting_dtor_pointer",
     "mangled_component_name" : "_ZN7android4hidl7manager4V1_020IServiceNotificationD0Ev"
    },
    {
     "is_pure" : true,
     "mangled_component_name" : "_ZN7android4hidl7manager4V1_020IServiceNotification14onRegistrationERKNS_8hardware11hidl_stringES7_b"
    },
    {
     "kind" : "vcall_offset"
    },
    {
     "kind" : "vcall_offset"
    },
    {
     "kind" : "vcall_offset"
    },
    {
     "kind" : "vcall_offset"
    },
    {
     "component_value" : -4,
     "kind" : "vcall_offset"
    },
    {
     "component_value" : -4,
     "kind" : "offset_to_top"
    },
    {
     "kind" : "rtti",
     "mangled_component_name" : "_ZTIN7android4hidl7manager4V1_020IServiceNotificationE"
    },
    {
     "kind" : "complete_dtor_pointer",
     "mangled_component_name" : "_ZTv0_n12_N7android4hidl7manager4V1_020IServiceNotificationD1Ev"
    },
    {
     "kind" : "deleting_dtor_pointer",
     "mangled_component_name" : "_ZTv0_n12_N7android4hidl7manager4V1_020IServiceNotificationD0Ev"
    },
    {
     "mangled_component_name" : "_ZN7android7RefBase10onFirstRefEv"
    },
    {
     "mangled_component_name" : "_ZN7android7RefBase15onLastStrongRefEPKv"
    },
    {
     "mangled_component_name" : "_ZN7android7RefBase20onIncStrongAttemptedEjPKv"
    },
    {
     "mangled_component_name" : "_ZN7android7RefBase13onLastWeakRefEPKv"
    }
   ]
  },
  {
   "alignment" : 1,
   "linker_set_key" : "_ZTIN7android7RefBase12weakref_typeE",
   "name" : "android::RefBase::weakref_type",
   "record_kind" : "class",
   "referenced_type" : "_ZTIN7android7RefBase12weakref_typeE",
   "self_type" : "_ZTIN7android7RefBase12weakref_typeE",
   "size" : 1,
   "source_file" : "/system/core/libutils/include/utils/RefBase.h"
  },
  {
   "alignment" : 4,
   "fields" :
   [
    {
     "access" : "private",
     "field_name" : "mRefs",
     "field_offset" : 32,
     "referenced_type" : "_ZTIKPN7android7RefBase12weakref_implE"
    }
   ],
   "linker_set_key" : "_ZTIN7android7RefBaseE",
   "name" : "android::RefBase",
   "record_kind" : "class",
   "referenced_type" : "_ZTIN7android7RefBaseE",
   "self_type" : "_ZTIN7android7RefBaseE",
   "size" : 8,
   "source_file" : "/system/core/libutils/include/utils/RefBase.h",
   "vtable_components" :
   [
    {
     "kind" : "offset_to_top"
    },
    {
     "kind" : "rtti",
     "mangled_component_name" : "_ZTIN7android7RefBaseE"
    },
    {
     "kind" : "complete_dtor_pointer",
     "mangled_component_name" : "_ZN7android7RefBaseD1Ev"
    },
    {
     "kind" : "deleting_dtor_pointer",
     "mangled_component_name" : "_ZN7android7RefBaseD0Ev"
    },
    {
     "mangled_component_name" : "_ZN7android7RefBase10onFirstRefEv"
    },
    {
     "mangled_component_name" : "_ZN7android7RefBase15onLastStrongRefEPKv"
    },
    {
     "mangled_component_name" : "_ZN7android7RefBase20onIncStrongAttemptedEjPKv"
    },
    {
     "mangled_component_name" : "_ZN7android7RefBase13onLastWeakRefEPKv"
    }
   ]
  },
  {
   "alignment" : 4,
   "base_specifiers" :
   [
    {
     "is_virtual" : true,
     "referenced_type" : "_ZTIN7android8hardware11hidl_memoryE"
    },
    {
     "is_virtual" : true,
     "referenced_type" : "_ZTIN7android7RefBaseE"
    }
   ],
   "linker_set_key" : "_ZTIN7android8hardware10HidlMemoryE",
   "name" : "android::hardware::HidlMemory",
   "record_kind" : "class",
   "referenced_type" : "_ZTIN7android8hardware10HidlMemoryE",
   "self_type" : "_ZTIN7android8hardware10HidlMemoryE",
   "size" : 52,
   "source_file" : "/system/libhidl/base/include/hidl/HidlSupport.h",
   "vtable_components" :
   [
    {
     "component_value" : 44,
     "kind" : "vbase_offset"
    },
    {
     "component_value" : 4,
     "kind" : "vbase_offset"
    },
    {
     "kind" : "offset_to_top"
    },
    {
     "kind" : "rtti",
     "mangled_component_name" : "_ZTIN7android8hardware10HidlMemoryE"
    },
    {
     "kind" : "complete_dtor_pointer",
     "mangled_component_name" : "_ZN7android8hardware10HidlMemoryD1Ev"
    },
    {
     "kind" : "deleting_dtor_pointer",
     "mangled_component_name" : "_ZN7android8hardware10HidlMemoryD0Ev"
    },
    {
     "kind" : "vcall_offset"
    },
    {
     "kind" : "vcall_offset"
    },
    {
     "kind" : "vcall_offset"
    },
    {
     "kind" : "vcall_offset"
    },
    {
     "component_value" : -44,
     "kind" : "vcall_offset"
    },
    {
     "component_value" : -44,
     "kind" : "offset_to_top"
    },
    {
     "kind" : "rtti",
     "mangled_component_name" : "_ZTIN7android8hardware10HidlMemoryE"
    },
    {
     "kind" : "complete_dtor_pointer",
     "mangled_component_name" : "_ZTv0_n12_N7android8hardware10HidlMemoryD1Ev"
    },
    {
     "kind" : "deleting_dtor_pointer",
     "mangled_component_name" : "_ZTv0_n12_N7android8hardware10HidlMemoryD0Ev"
    },
    {
     "mangled_component_name" : "_ZN7android7RefBase10onFirstRefEv"
    },
    {
     "mangled_component_name" : "_ZN7android7RefBase15onLastStrongRefEPKv"
    },
    {
     "mangled_component_name" : "_ZN7android7RefBase20onIncStrongAttemptedEjPKv"
    },
    {
     "mangled_component_name" : "_ZN7android7RefBase13onLastWeakRefEPKv"
    }
   ]
  },
  {
   "alignment" : 4,
   "fields" :
   [
    {
     "access" : "private",
     "field_name" : "mBuffer",
     "referenced_type" : "_ZTIA10_j"
    }
   ],
   "linker_set_key" : "_ZTIN7android8hardware10hidl_arrayIjLj10EJEEE",
   "name" : "android::hardware::hidl_array<unsigned int, 10>",
   "referenced_type" : "_ZTIN7android8hardware10hidl_arrayIjLj10EJEEE",
   "self_type" : "_ZTIN7android8hardware10hidl_arrayIjLj10EJEEE",
   "size" : 40,
   "source_file" : "/system/libhidl/base/include/hidl/HidlSupport.h",
   "template_args" : [ "_ZTIj" ]
  },
  {
   "alignment" : 4,
   "fields" :
   [
    {
     "access" : "private",
     "field_name" : "mHandle",
     "referenced_type" : "_ZTIN7android8hardware7details12hidl_pointerIK13native_handleEE"
    },
    {
     "access" : "private",
     "field_name" : "mOwnsHandle",
     "field_offset" : 64,
     "referenced_type" : "_ZTIb"
    },
    {
     "access" : "private",
     "field_name" : "mPad",
     "field_offset" : 72,
     "referenced_type" : "_ZTIA7_h"
    }
   ],
   "linker_set_key" : "_ZTIN7android8hardware11hidl_handleE",
   "name" : "android::hardware::hidl_handle",
   "referenced_type" : "_ZTIN7android8hardware11hidl_handleE",
   "self_type" : "_ZTIN7android8hardware11hidl_handleE",
   "size" : 16,
   "source_file" : "/system/libhidl/base/include/hidl/HidlSupport.h"
  },
  {
   "alignment" : 4,
   "fields" :
   [
    {
     "access" : "private",
     "field_name" : "mHandle",
     "referenced_type" : "_ZTIN7android8hardware11hidl_handleE"
    },
    {
     "access" : "private",
     "field_name" : "mSize",
     "field_offset" : 128,
     "referenced_type" : "_ZTIy"
    },
    {
     "access" : "private",
     "field_name" : "mName",
     "field_offset" : 192,
     "referenced_type" : "_ZTIN7android8hardware11hidl_stringE"
    }
   ],
   "linker_set_key" : "_ZTIN7android8hardware11hidl_memoryE",
   "name" : "android::hardware::hidl_memory",
   "referenced_type" : "_ZTIN7android8hardware11hidl_memoryE",
   "self_type" : "_ZTIN7android8hardware11hidl_memoryE",
   "size" : 40,
   "source_file" : "/system/libhidl/base/include/hidl/HidlSupport.h"
  },
  {
   "alignment" : 4,
   "fields" :
   [
    {
     "access" : "private",
     "field_name" : "mBuffer",
     "referenced_type" : "_ZTIN7android8hardware7details12hidl_pointerIKcEE"
    },
    {
     "access" : "private",
     "field_name" : "mSize",
     "field_offset" : 64,
     "referenced_type" : "_ZTIj"
    },
    {
     "access" : "private",
     "field_name" : "mOwnsBuffer",
     "field_offset" : 96,
     "referenced_type" : "_ZTIb"
    },
    {
     "access" : "private",
     "field_name" : "mPad",
     "field_offset" : 104,
     "referenced_type" : "_ZTIA3_h"
    }
   ],
   "linker_set_key" : "_ZTIN7android8hardware11hidl_stringE",
   "name" : "android::hardware::hidl_string",
   "referenced_type" : "_ZTIN7android8hardware11hidl_stringE",
   "self_type" : "_ZTIN7android8hardware11hidl_stringE",
   "size" : 16,
   "source_file" : "/system/libhidl/base/include/hidl/HidlSupport.h"
  },
  {
   "alignment" : 2,
   "fields" :
   [
    {
     "access" : "private",
     "field_name" : "mMajor",
     "referenced_type" : "_ZTIt"
    },
    {
     "access" : "private",
     "field_name" : "mMinor",
     "field_offset" : 16,
     "referenced_type" : "_ZTIt"
    }
   ],
   "linker_set_key" : "_ZTIN7android8hardware12hidl_versionE",
   "name" : "android::hardware::hidl_version",
   "referenced_type" : "_ZTIN7android8hardware12hidl_versionE",
   "self_type" : "_ZTIN7android8hardware12hidl_versionE",
   "size" : 4,
   "source_file" : "/system/libhidl/base/include/hidl/HidlSupport.h"
  },
  {
   "alignment" : 8,
   "fields" :
   [
    {
     "field_name" : "flags",
     "referenced_type" : "_ZTIj"
    },
    {
     "field_name" : "fdIndex",
     "field_offset" : 32,
     "referenced_type" : "_ZTIj"
    },
    {
     "field_name" : "offset",
     "field_offset" : 64,
     "referenced_type" : "_ZTIj"
    },
    {
     "field_name" : "extent",
     "field_offset" : 128,
     "referenced_type" : "_ZTIy"
    }
   ],
   "linker_set_key" : "_ZTIN7android8hardware17GrantorDescriptorE",
   "name" : "android::hardware::GrantorDescriptor",
   "referenced_type" : "_ZTIN7android8hardware17GrantorDescriptorE",
   "self_type" : "_ZTIN7android8hardware17GrantorDescriptorE",
   "size" : 24,
   "source_file" : "/system/libhidl/base/include/hidl/MQDescriptor.h"
  },
  {
   "alignment" : 4,
   "base_specifiers" :
   [
    {
     "is_virtual" : true,
     "referenced_type" : "_ZTIN7android7RefBaseE"
    }
   ],
   "linker_set_key" : "_ZTIN7android8hardware20hidl_death_recipientE",
   "name" : "android::hardware::hidl_death_recipient",
   "referenced_type" : "_ZTIN7android8hardware20hidl_death_recipientE",
   "self_type" : "_ZTIN7android8hardware20hidl_death_recipientE",
   "size" : 12,
   "source_file" : "/system/libhidl/base/include/hidl/HidlSupport.h",
   "vtable_components" :
   [
    {
     "component_value" : 4,
     "kind" : "vbase_offset"
    },
    {
     "kind" : "offset_to_top"
    },
    {
     "kind" : "rtti",
     "mangled_component_name" : "_ZTIN7android8hardware20hidl_death_recipientE"
    },
    {
     "is_pure" : true,
     "mangled_component_name" : "_ZN7android8hardware20hidl_death_recipient11serviceDiedEyRKNS_2wpINS_4hidl4base4V1_05IBaseEEE"
    },
    {
     "kind" : "complete_dtor_pointer",
     "mangled_component_name" : "_ZN7android8hardware20hidl_death_recipientD1Ev"
    },
    {
     "kind" : "deleting_dtor_pointer",
     "mangled_component_name" : "_ZN7android8hardware20hidl_death_recipientD0Ev"
    },
    {
     "kind" : "vcall_offset"
    },
    {
     "kind" : "vcall_offset"
    },
    {
     "kind" : "vcall_offset"
    },
    {
     "kind" : "vcall_offset"
    },
    {
     "component_value" : -4,
     "kind" : "vcall_offset"
    },
    {
     "component_value" : -4,
     "kind" : "offset_to_top"
    },
    {
     "kind" : "rtti",
     "mangled_component_name" : "_ZTIN7android8hardware20hidl_death_recipientE"
    },
    {
     "kind" : "complete_dtor_pointer",
     "mangled_component_name" : "_ZTv0_n12_N7android8hardware20hidl_death_recipientD1Ev"
    },
    {
     "kind" : "deleting_dtor_pointer",
     "mangled_component_name" : "_ZTv0_n12_N7android8hardware20hidl_death_recipientD0Ev"
    },
    {
     "mangled_component_name" : "_ZN7android7RefBase10onFirstRefEv"
    },
    {
     "mangled_component_name" : "_ZN7android7RefBase15onLastStrongRefEPKv"
    },
    {
     "mangled_component_name" : "_ZN7android7RefBase20onIncStrongAttemptedEjPKv"
    },
    {
     "mangled_component_name" : "_ZN7android7RefBase13onLastWeakRefEPKv"
    }
   ]
  },
  {
   "alignment" : 4,
   "base_specifiers" :
   [
    {
     "referenced_type" : "_ZTIN7android8hardware7details13return_statusE"
    }
   ],
   "linker_set_key" : "_ZTIN7android8hardware6ReturnIvEE",
   "name" : "android::hardware::Return<void>",
   "record_kind" : "class",
   "referenced_type" : "_ZTIN7android8hardware6ReturnIvEE",
   "self_type" : "_ZTIN7android8hardware6ReturnIvEE",
   "size" : 24,
   "source_file" : "/system/libhidl/base/include/hidl/Status.h",
   "template_args" : [ "_ZTIv" ]
  },
  {
   "alignment" : 4,
   "fields" :
   [
    {
     "access" : "private",
     "field_name" : "mException",
     "referenced_type" : "_ZTIi"
    },
    {
     "access" : "private",
     "field_name" : "mErrorCode",
     "field_offset" : 32,
     "referenced_type" : "_ZTIi"
    },
    {
     "access" : "private",
     "field_name" : "mMessage",
     "field_offset" : 64,
     "referenced_type" : "_ZTINSt3__112basic_stringIcNS_11char_traitsIcEENS_9allocatorIcEEEE"
    }
   ],
   "linker_set_key" : "_ZTIN7android8hardware6StatusE",
   "name" : "android::hardware::Status",
   "record_kind" : "class",
   "referenced_type" : "_ZTIN7android8hardware6StatusE",
   "self_type" : "_ZTIN7android8hardware6StatusE",
   "size" : 20,
   "source_file" : "/system/libhidl/base/include/hidl/Status.h"
  },
  {
   "alignment" : 4,
   "fields" :
   [
    {
     "access" : "private",
     "referenced_type" : "_ZTIN7android8hardware7details12hidl_pointerI13native_handleEUt_E"
    }
   ],
   "linker_set_key" : "_ZTIN7android8hardware7details12hidl_pointerI13native_handleEE",
   "name" : "android::hardware::details::hidl_pointer<native_handle>",
   "referenced_type" : "_ZTIN7android8hardware7details12hidl_pointerI13native_handleEE",
   "self_type" : "_ZTIN7android8hardware7details12hidl_pointerI13native_handleEE",
   "size" : 8,
   "source_file" : "/system/libhidl/base/include/hidl/HidlInternal.h",
   "template_args" : [ "_ZTI13native_handle" ]
  },
  {
   "access" : "private",
   "alignment" : 4,
   "fields" :
   [
    {
     "field_name" : "mPointer",
     "referenced_type" : "_ZTIP13native_handle"
    },
    {
     "field_name" : "_pad",
     "referenced_type" : "_ZTIy"
    }
   ],
   "is_anonymous" : true,
   "linker_set_key" : "_ZTIN7android8hardware7details12hidl_pointerI13native_handleEUt_E",
   "name" : "android::hardware::details::hidl_pointer<native_handle>::(anonymous union at system/libhidl/base/include/hidl/HidlInternal.h:110:5)",
   "record_kind" : "union",
   "referenced_type" : "_ZTIN7android8hardware7details12hidl_pointerI13native_handleEUt_E",
   "self_type" : "_ZTIN7android8hardware7details12hidl_pointerI13native_handleEUt_E",
   "size" : 8,
   "source_file" : "/system/libhidl/base/include/hidl/HidlInternal.h"
  },
  {
   "alignment" : 4,
   "fields" :
   [
    {
     "access" : "private",
     "referenced_type" : "_ZTIN7android8hardware7details12hidl_pointerIK13native_handleEUt_E"
    }
   ],
   "linker_set_key" : "_ZTIN7android8hardware7details12hidl_pointerIK13native_handleEE",
   "name" : "android::hardware::details::hidl_pointer<const native_handle>",
   "referenced_type" : "_ZTIN7android8hardware7details12hidl_pointerIK13native_handleEE",
   "self_type" : "_ZTIN7android8hardware7details12hidl_pointerIK13native_handleEE",
   "size" : 8,
   "source_file" : "/system/libhidl/base/include/hidl/HidlInternal.h",
   "template_args" : [ "_ZTIK13native_handle" ]
  },
  {
   "access" : "private",
   "alignment" : 4,
   "fields" :
   [
    {
     "field_name" : "mPointer",
     "referenced_type" : "_ZTIPK13native_handle"
    },
    {
     "field_name" : "_pad",
     "referenced_type" : "_ZTIy"
    }
   ],
   "is_anonymous" : true,
   "linker_set_key" : "_ZTIN7android8hardware7details12hidl_pointerIK13native_handleEUt_E",
   "name" : "android::hardware::details::hidl_pointer<const native_handle>::(anonymous union at system/libhidl/base/include/hidl/HidlInternal.h:110:5)",
   "record_kind" : "union",
   "referenced_type" : "_ZTIN7android8hardware7details12hidl_pointerIK13native_handleEUt_E",
   "self_type" : "_ZTIN7android8hardware7details12hidl_pointerIK13native_handleEUt_E",
   "size" : 8,
   "source_file" : "/system/libhidl/base/include/hidl/HidlInternal.h"
  },
  {
   "alignment" : 4,
   "fields" :
   [
    {
     "access" : "private",
     "referenced_type" : "_ZTIN7android8hardware7details12hidl_pointerIKcEUt_E"
    }
   ],
   "linker_set_key" : "_ZTIN7android8hardware7details12hidl_pointerIKcEE",
   "name" : "android::hardware::details::hidl_pointer<const char>",
   "referenced_type" : "_ZTIN7android8hardware7details12hidl_pointerIKcEE",
   "self_type" : "_ZTIN7android8hardware7details12hidl_pointerIKcEE",
   "size" : 8,
   "source_file" : "/system/libhidl/base/include/hidl/HidlInternal.h",
   "template_args" : [ "_ZTIKc" ]
  },
  {
   "access" : "private",
   "alignment" : 4,
   "fields" :
   [
    {
     "field_name" : "mPointer",
     "referenced_type" : "_ZTIPKc"
    },
    {
     "field_name" : "_pad",
     "referenced_type" : "_ZTIy"
    }
   ],
   "is_anonymous" : true,
   "linker_set_key" : "_ZTIN7android8hardware7details12hidl_pointerIKcEUt_E",
   "name" : "android::hardware::details::hidl_pointer<const char>::(anonymous union at system/libhidl/base/include/hidl/HidlInternal.h:110:5)",
   "record_kind" : "union",
   "referenced_type" : "_ZTIN7android8hardware7details12hidl_pointerIKcEUt_E",
   "self_type" : "_ZTIN7android8hardware7details12hidl_pointerIKcEUt_E",
   "size" : 8,
   "source_file" : "/system/libhidl/base/include/hidl/HidlInternal.h"
  },
  {
   "alignment" : 4,
   "fields" :
   [
    {
     "access" : "private",
     "referenced_type" : "_ZTIN7android8hardware7details12hidl_pointerINS0_17GrantorDescriptorEEUt_E"
    }
   ],
   "linker_set_key" : "_ZTIN7android8hardware7details12hidl_pointerINS0_17GrantorDescriptorEEE",
   "name" : "android::hardware::details::hidl_pointer<android::hardware::GrantorDescriptor>",
   "referenced_type" : "_ZTIN7android8hardware7details12hidl_pointerINS0_17GrantorDescriptorEEE",
   "self_type" : "_ZTIN7android8hardware7details12hidl_pointerINS0_17GrantorDescriptorEEE",
   "size" : 8,
   "source_file" : "/system/libhidl/base/include/hidl/HidlInternal.h",
   "template_args" : [ "_ZTIN7android8hardware17GrantorDescriptorE" ]
  },
  {
   "access" : "private",
   "alignment" : 4,
   "fields" :
   [
    {
     "field_name" : "mPointer",
     "referenced_type" : "_ZTIPN7android8hardware17GrantorDescriptorE"
    },
    {
     "field_name" : "_pad",
     "referenced_type" : "_ZTIy"
    }
   ],
   "is_anonymous" : true,
   "linker_set_key" : "_ZTIN7android8hardware7details12hidl_pointerINS0_17GrantorDescriptorEEUt_E",
   "name" : "android::hardware::details::hidl_pointer<GrantorDescriptor>::(anonymous union at system/libhidl/base/include/hidl/HidlInternal.h:110:5)",
   "record_kind" : "union",
   "referenced_type" : "_ZTIN7android8hardware7details12hidl_pointerINS0_17GrantorDescriptorEEUt_E",
   "self_type" : "_ZTIN7android8hardware7details12hidl_pointerINS0_17GrantorDescriptorEEUt_E",
   "size" : 8,
   "source_file" : "/system/libhidl/base/include/hidl/HidlInternal.h"
  },
  {
   "alignment" : 4,
   "fields" :
   [
    {
     "access" : "private",
     "referenced_type" : "_ZTIN7android8hardware7details12hidl_pointerINS0_8graphics6mapper4V4_07IMapper12MetadataDumpEEUt_E"
    }
   ],
   "linker_set_key" : "_ZTIN7android8hardware7details12hidl_pointerINS0_8graphics6mapper4V4_07IMapper12MetadataDumpEEE",
   "name" : "android::hardware::details::hidl_pointer<android::hardware::graphics::mapper::V4_0::IMapper::MetadataDump>",
   "referenced_type" : "_ZTIN7android8hardware7details12hidl_pointerINS0_8graphics6mapper4V4_07IMapper12MetadataDumpEEE",
   "self_type" : "_ZTIN7android8hardware7details12hidl_pointerINS0_8graphics6mapper4V4_07IMapper12MetadataDumpEEE",
   "size" : 8,
   "source_file" : "/system/libhidl/base/include/hidl/HidlInternal.h",
   "template_args" : [ "_ZTIN7android8hardware8graphics6mapper4V4_07IMapper12MetadataDumpE" ]
  },
  {
   "access" : "private",
   "alignment" : 4,
   "fields" :
   [
    {
     "field_name" : "mPointer",
     "referenced_type" : "_ZTIPN7android8hardware8graphics6mapper4V4_07IMapper12MetadataDumpE"
    },
    {
     "field_name" : "_pad",
     "referenced_type" : "_ZTIy"
    }
   ],
   "is_anonymous" : true,
   "linker_set_key" : "_ZTIN7android8hardware7details12hidl_pointerINS0_8graphics6mapper4V4_07IMapper12MetadataDumpEEUt_E",
   "name" : "android::hardware::details::hidl_pointer<MetadataDump>::(anonymous union at system/libhidl/base/include/hidl/HidlInternal.h:110:5)",
   "record_kind" : "union",
   "referenced_type" : "_ZTIN7android8hardware7details12hidl_pointerINS0_8graphics6mapper4V4_07IMapper12MetadataDumpEEUt_E",
   "self_type" : "_ZTIN7android8hardware7details12hidl_pointerINS0_8graphics6mapper4V4_07IMapper12MetadataDumpEEUt_E",
   "size" : 8,
   "source_file" : "/system/libhidl/base/include/hidl/HidlInternal.h"
  },
  {
   "alignment" : 4,
   "fields" :
   [
    {
     "access" : "private",
     "referenced_type" : "_ZTIN7android8hardware7details12hidl_pointerIhEUt_E"
    }
   ],
   "linker_set_key" : "_ZTIN7android8hardware7details12hidl_pointerIhEE",
   "name" : "android::hardware::details::hidl_pointer<unsigned char>",
   "referenced_type" : "_ZTIN7android8hardware7details12hidl_pointerIhEE",
   "self_type" : "_ZTIN7android8hardware7details12hidl_pointerIhEE",
   "size" : 8,
   "source_file" : "/system/libhidl/base/include/hidl/HidlInternal.h",
   "template_args" : [ "_ZTIh" ]
  },
  {
   "access" : "private",
   "alignment" : 4,
   "fields" :
   [
    {
     "field_name" : "mPointer",
     "referenced_type" : "_ZTIPh"
    },
    {
     "field_name" : "_pad",
     "referenced_type" : "_ZTIy"
    }
   ],
   "is_anonymous" : true,
   "linker_set_key" : "_ZTIN7android8hardware7details12hidl_pointerIhEUt_E",
   "name" : "android::hardware::details::hidl_pointer<unsigned char>::(anonymous union at system/libhidl/base/include/hidl/HidlInternal.h:110:5)",
   "record_kind" : "union",
   "referenced_type" : "_ZTIN7android8hardware7details12hidl_pointerIhEUt_E",
   "self_type" : "_ZTIN7android8hardware7details12hidl_pointerIhEUt_E",
   "size" : 8,
   "source_file" : "/system/libhidl/base/include/hidl/HidlInternal.h"
  },
  {
   "alignment" : 4,
   "fields" :
   [
    {
     "access" : "private",
     "field_name" : "mStatus",
     "referenced_type" : "_ZTIN7android8hardware6StatusE"
    },
    {
     "access" : "private",
     "field_name" : "mCheckedStatus",
     "field_offset" : 160,
     "referenced_type" : "_ZTIb"
    }
   ],
   "linker_set_key" : "_ZTIN7android8hardware7details13return_statusE",
   "name" : "android::hardware::details::return_status",
   "record_kind" : "class",
   "referenced_type" : "_ZTIN7android8hardware7details13return_statusE",
   "self_type" : "_ZTIN7android8hardware7details13return_statusE",
   "size" : 24,
   "source_file" : "/system/libhidl/base/include/hidl/Status.h"
  },
  {
   "alignment" : 4,
   "fields" :
   [
    {
     "access" : "private",
     "field_name" : "mBase",
     "referenced_type" : "_ZTIPKj"
    }
   ],
   "linker_set_key" : "_ZTIN7android8hardware7details14const_accessorIjLj10EJEEE",
   "name" : "android::hardware::details::const_accessor<unsigned int, 10>",
   "referenced_type" : "_ZTIN7android8hardware7details14const_accessorIjLj10EJEEE",
   "self_type" : "_ZTIN7android8hardware7details14const_accessorIjLj10EJEEE",
   "size" : 4,
   "source_file" : "/system/libhidl/base/include/hidl/HidlSupport.h",
   "template_args" : [ "_ZTIj" ]
  },
  {
   "alignment" : 4,
   "fields" :
   [
    {
     "access" : "protected",
     "field_name" : "mInstrumentationCallbacks",
     "field_offset" : 32,
     "referenced_type" : "_ZTINSt3__16vectorINS_8functionIFvN7android8hardware7details16HidlInstrumentor20InstrumentationEventEPKcS8_S8_S8_PNS0_IPvNS_9allocatorIS9_EEEEEEENSA_ISF_EEEE"
    },
    {
     "access" : "protected",
     "field_name" : "mEnableInstrumentation",
     "field_offset" : 128,
     "referenced_type" : "_ZTIb"
    },
    {
     "access" : "protected",
     "field_name" : "mInstrumentationLibPackage",
     "field_offset" : 160,
     "referenced_type" : "_ZTINSt3__112basic_stringIcNS_11char_traitsIcEENS_9allocatorIcEEEE"
    },
    {
     "access" : "protected",
     "field_name" : "mInterfaceName",
     "field_offset" : 256,
     "referenced_type" : "_ZTINSt3__112basic_stringIcNS_11char_traitsIcEENS_9allocatorIcEEEE"
    }
   ],
   "linker_set_key" : "_ZTIN7android8hardware7details16HidlInstrumentorE",
   "name" : "android::hardware::details::HidlInstrumentor",
   "referenced_type" : "_ZTIN7android8hardware7details16HidlInstrumentorE",
   "self_type" : "_ZTIN7android8hardware7details16HidlInstrumentorE",
   "size" : 44,
   "source_file" : "/system/libhidl/base/include/hidl/HidlInternal.h",
   "vtable_components" :
   [
    {
     "kind" : "offset_to_top"
    },
    {
     "kind" : "rtti",
     "mangled_component_name" : "_ZTIN7android8hardware7details16HidlInstrumentorE"
    },
    {
     "kind" : "complete_dtor_pointer",
     "mangled_component_name" : "_ZN7android8hardware7details16HidlInstrumentorD1Ev"
    },
    {
     "kind" : "deleting_dtor_pointer",
     "mangled_component_name" : "_ZN7android8hardware7details16HidlInstrumentorD0Ev"
    }
   ]
  },
  {
   "alignment" : 1,
   "linker_set_key" : "_ZTIN7android8hardware7details5i_tagE",
   "name" : "android::hardware::details::i_tag",
   "referenced_type" : "_ZTIN7android8hardware7details5i_tagE",
   "self_type" : "_ZTIN7android8hardware7details5i_tagE",
   "size" : 1,
   "source_file" : "/system/libhidl/base/include/hidl/HidlInternal.h"
  },
  {
   "alignment" : 1,
   "linker_set_key" : "_ZTIN7android8hardware7details6bs_tagE",
   "name" : "android::hardware::details::bs_tag",
   "referenced_type" : "_ZTIN7android8hardware7details6bs_tagE",
   "self_type" : "_ZTIN7android8hardware7details6bs_tagE",
   "size" : 1,
   "source_file" : "/system/libhidl/base/include/hidl/HidlInternal.h"
  },
  {
   "alignment" : 1,
   "linker_set_key" : "_ZTIN7android8hardware7details8bnhw_tagE",
   "name" : "android::hardware::details::bnhw_tag",
   "referenced_type" : "_ZTIN7android8hardware7details8bnhw_tagE",
   "self_type" : "_ZTIN7android8hardware7details8bnhw_tagE",
   "size" : 1,
   "source_file" : "/system/libhidl/base/include/hidl/HidlInternal.h"
  },
  {
   "alignment" : 1,
   "linker_set_key" : "_ZTIN7android8hardware7details8bphw_tagE",
   "name" : "android::hardware::details::bphw_tag",
   "referenced_type" : "_ZTIN7android8hardware7details8bphw_tagE",
   "self_type" : "_ZTIN7android8hardware7details8bphw_tagE",
   "size" : 1,
   "source_file" : "/system/libhidl/base/include/hidl/HidlInternal.h"
  },
  {
   "alignment" : 1,
   "linker_set_key" : "_ZTIN7android8hardware7details9std_arrayIjLj10EJEEE",
   "name" : "android::hardware::details::std_array<unsigned int, 10>",
   "referenced_type" : "_ZTIN7android8hardware7details9std_arrayIjLj10EJEEE",
   "self_type" : "_ZTIN7android8hardware7details9std_arrayIjLj10EJEEE",
   "size" : 1,
   "source_file" : "/system/libhidl/base/include/hidl/HidlSupport.h",
   "template_args" : [ "_ZTIj" ]
  },
  {
   "alignment" : 8,
   "fields" :
   [
    {
     "field_name" : "description",
     "referenced_type" : "_ZTIN7android8hardware10hidl_arrayIjLj10EJEEE"
    },
    {
     "field_name" : "nativeHandle",
     "field_offset" : 320,
     "referenced_type" : "_ZTIN7android8hardware11hidl_handleE"
    }
   ],
   "linker_set_key" : "_ZTIN7android8hardware8graphics6common4V1_214HardwareBufferE",
   "name" : "android::hardware::graphics::common::V1_2::HardwareBuffer",
   "referenced_type" : "_ZTIN7android8hardware8graphics6common4V1_214HardwareBufferE",
   "self_type" : "_ZTIN7android8hardware8graphics6common4V1_214HardwareBufferE",
   "size" : 56,
   "source_file" : "/out/soong/.intermediates/hardware/interfaces/graphics/common/1.2/android.hardware.graphics.common@1.2_genc++_headers/gen/android/hardware/graphics/common/1.2/types.h"
  },
  {
   "alignment" : 8,
   "fields" :
   [
    {
     "field_name" : "metadataDump",
     "referenced_type" : "_ZTIN7android8hardware8hidl_vecINS0_8graphics6mapper4V4_07IMapper12MetadataDumpEEE"
    }
   ],
   "linker_set_key" : "_ZTIN7android8hardware8graphics6mapper4V4_07IMapper10BufferDumpE",
   "name" : "android::hardware::graphics::mapper::V4_0::IMapper::BufferDump",
   "referenced_type" : "_ZTIN7android8hardware8graphics6mapper4V4_07IMapper10BufferDumpE",
   "self_type" : "_ZTIN7android8hardware8graphics6mapper4V4_07IMapper10BufferDumpE",
   "size" : 16,
   "source_file" : "/out/soong/.intermediates/hardware/interfaces/graphics/mapper/4.0/android.hardware.graphics.mapper@4.0_genc++_headers/gen/android/hardware/graphics/mapper/4.0/IMapper.h"
  },
  {
   "alignment" : 8,
   "fields" :
   [
    {
     "field_name" : "metadataType",
     "referenced_type" : "_ZTIN7android8hardware8graphics6mapper4V4_07IMapper12MetadataTypeE"
    },
    {
     "field_name" : "metadata",
     "field_offset" : 192,
     "referenced_type" : "_ZTIN7android8hardware8hidl_vecIhEE"
    }
   ],
   "linker_set_key" : "_ZTIN7android8hardware8graphics6mapper4V4_07IMapper12MetadataDumpE",
   "name" : "android::hardware::graphics::mapper::V4_0::IMapper::MetadataDump",
   "referenced_type" : "_ZTIN7android8hardware8graphics6mapper4V4_07IMapper12MetadataDumpE",
   "self_type" : "_ZTIN7android8hardware8graphics6mapper4V4_07IMapper12MetadataDumpE",
   "size" : 40,
   "source_file" : "/out/soong/.intermediates/hardware/interfaces/graphics/mapper/4.0/android.hardware.graphics.mapper@4.0_genc++_headers/gen/android/hardware/graphics/mapper/4.0/IMapper.h"
  },
  {
   "alignment" : 8,
   "fields" :
   [
    {
     "field_name" : "name",
     "referenced_type" : "_ZTIN7android8hardware11hidl_stringE"
    },
    {
     "field_name" : "value",
     "field_offset" : 128,
     "referenced_type" : "_ZTIx"
    }
   ],
   "linker_set_key" : "_ZTIN7android8hardware8graphics6mapper4V4_07IMapper12MetadataTypeE",
   "name" : "android::hardware::graphics::mapper::V4_0::IMapper::MetadataType",
   "referenced_type" : "_ZTIN7android8hardware8graphics6mapper4V4_07IMapper12MetadataTypeE",
   "self_type" : "_ZTIN7android8hardware8graphics6mapper4V4_07IMapper12MetadataTypeE",
   "size" : 24,
   "source_file" : "/out/soong/.intermediates/hardware/interfaces/graphics/mapper/4.0/android.hardware.graphics.mapper@4.0_genc++_headers/gen/android/hardware/graphics/mapper/4.0/IMapper.h"
  },
  {
   "alignment" : 8,
   "fields" :
   [
    {
     "field_name" : "name",
     "referenced_type" : "_ZTIN7android8hardware11hidl_stringE"
    },
    {
     "field_name" : "width",
     "field_offset" : 128,
     "referenced_type" : "_ZTIj"
    },
    {
     "field_name" : "height",
     "field_offset" : 160,
     "referenced_type" : "_ZTIj"
    },
    {
     "field_name" : "layerCount",
     "field_offset" : 192,
     "referenced_type" : "_ZTIj"
    },
    {
     "field_name" : "format",
     "field_offset" : 224,
     "referenced_type" : "_ZTIN7android8hardware8graphics6common4V1_211PixelFormatE"
    },
    {
     "field_name" : "usage",
     "field_offset" : 256,
     "referenced_type" : "_ZTIy"
    },
    {
     "field_name" : "reservedSize",
     "field_offset" : 320,
     "referenced_type" : "_ZTIy"
    }
   ],
   "linker_set_key" : "_ZTIN7android8hardware8graphics6mapper4V4_07IMapper20BufferDescriptorInfoE",
   "name" : "android::hardware::graphics::mapper::V4_0::IMapper::BufferDescriptorInfo",
   "referenced_type" : "_ZTIN7android8hardware8graphics6mapper4V4_07IMapper20BufferDescriptorInfoE",
   "self_type" : "_ZTIN7android8hardware8graphics6mapper4V4_07IMapper20BufferDescriptorInfoE",
   "size" : 48,
   "source_file" : "/out/soong/.intermediates/hardware/interfaces/graphics/mapper/4.0/android.hardware.graphics.mapper@4.0_genc++_headers/gen/android/hardware/graphics/mapper/4.0/IMapper.h"
  },
  {
   "alignment" : 8,
   "fields" :
   [
    {
     "field_name" : "metadataType",
     "referenced_type" : "_ZTIN7android8hardware8graphics6mapper4V4_07IMapper12MetadataTypeE"
    },
    {
     "field_name" : "description",
     "field_offset" : 192,
     "referenced_type" : "_ZTIN7android8hardware11hidl_stringE"
    },
    {
     "field_name" : "isGettable",
     "field_offset" : 320,
     "referenced_type" : "_ZTIb"
    },
    {
     "field_name" : "isSettable",
     "field_offset" : 328,
     "referenced_type" : "_ZTIb"
    }
   ],
   "linker_set_key" : "_ZTIN7android8hardware8graphics6mapper4V4_07IMapper23MetadataTypeDescriptionE",
   "name" : "android::hardware::graphics::mapper::V4_0::IMapper::MetadataTypeDescription",
   "referenced_type" : "_ZTIN7android8hardware8graphics6mapper4V4_07IMapper23MetadataTypeDescriptionE",
   "self_type" : "_ZTIN7android8hardware8graphics6mapper4V4_07IMapper23MetadataTypeDescriptionE",
   "size" : 48,
   "source_file" : "/out/soong/.intermediates/hardware/interfaces/graphics/mapper/4.0/android.hardware.graphics.mapper@4.0_genc++_headers/gen/android/hardware/graphics/mapper/4.0/IMapper.h"
  },
  {
   "alignment" : 4,
   "fields" :
   [
    {
     "field_name" : "left",
     "referenced_type" : "_ZTIi"
    },
    {
     "field_name" : "top",
     "field_offset" : 32,
     "referenced_type" : "_ZTIi"
    },
    {
     "field_name" : "width",
     "field_offset" : 64,
     "referenced_type" : "_ZTIi"
    },
    {
     "field_name" : "height",
     "field_offset" : 96,
     "referenced_type" : "_ZTIi"
    }
   ],
   "linker_set_key" : "_ZTIN7android8hardware8graphics6mapper4V4_07IMapper4RectE",
   "name" : "android::hardware::graphics::mapper::V4_0::IMapper::Rect",
   "referenced_type" : "_ZTIN7android8hardware8graphics6mapper4V4_07IMapper4RectE",
   "self_type" : "_ZTIN7android8hardware8graphics6mapper4V4_07IMapper4RectE",
   "size" : 16,
   "source_file" : "/out/soong/.intermediates/hardware/interfaces/graphics/mapper/4.0/android.hardware.graphics.mapper@4.0_genc++_headers/gen/android/hardware/graphics/mapper/4.0/IMapper.h"
  },
  {
   "alignment" : 4,
   "base_specifiers" :
   [
    {
     "referenced_type" : "_ZTIN7android4hidl4base4V1_05IBaseE"
    }
   ],
   "linker_set_key" : "_ZTIN7android8hardware8graphics6mapper4V4_07IMapperE",
   "name" : "android::hardware::graphics::mapper::V4_0::IMapper",
   "referenced_type" : "_ZTIN7android8hardware8graphics6mapper4V4_07IMapperE",
   "self_type" : "_ZTIN7android8hardware8graphics6mapper4V4_07IMapperE",
   "size" : 12,
   "source_file" : "/out/soong/.intermediates/hardware/interfaces/graphics/mapper/4.0/android.hardware.graphics.mapper@4.0_genc++_headers/gen/android/hardware/graphics/mapper/4.0/IMapper.h",
   "vtable_components" :
   [
    {
     "component_value" : 4,
     "kind" : "vbase_offset"
    },
    {
     "kind" : "offset_to_top"
    },
    {
     "kind" : "rtti",
     "mangled_component_name" : "_ZTIN7android8hardware8graphics6mapper4V4_07IMapperE"
    },
    {
     "mangled_component_name" : "_ZNK7android8hardware8graphics6mapper4V4_07IMapper8isRemoteEv"
    },
    {
     "mangled_component_name" : "_ZN7android8hardware8graphics6mapper4V4_07IMapper14interfaceChainENSt3__18functionIFvRKNS0_8hidl_vecINS0_11hidl_stringEEEEEE"
    },
    {
     "mangled_component_name" : "_ZN7android8hardware8graphics6mapper4V4_07IMapper5debugERKNS0_11hidl_handleERKNS0_8hidl_vecINS0_11hidl_stringEEE"
    },
    {
     "mangled_component_name" : "_ZN7android8hardware8graphics6mapper4V4_07IMapper19interfaceDescriptorENSt3__18functionIFvRKNS0_11hidl_stringEEEE"
    },
    {
     "mangled_component_name" : "_ZN7android8hardware8graphics6mapper4V4_07IMapper12getHashChainENSt3__18functionIFvRKNS0_8hidl_vecINS0_10hidl_arrayIhLj32EJEEEEEEEE"
    },
    {
     "mangled_component_name" : "_ZN7android8hardware8graphics6mapper4V4_07IMapper21setHALInstrumentationEv"
    },
    {
     "mangled_component_name" : "_ZN7android8hardware8graphics6mapper4V4_07IMapper11linkToDeathERKNS_2spINS0_20hidl_death_recipientEEEy"
    },
    {
     "mangled_component_name" : "_ZN7android8hardware8graphics6mapper4V4_07IMapper4pingEv"
    },
    {
     "mangled_component_name" : "_ZN7android8hardware8graphics6mapper4V4_07IMapper12getDebugInfoENSt3__18functionIFvRKNS_4hidl4base4V1_09DebugInfoEEEE"
    },
    {
     "mangled_component_name" : "_ZN7android8hardware8graphics6mapper4V4_07IMapper21notifySyspropsChangedEv"
    },
    {
     "mangled_component_name" : "_ZN7android8hardware8graphics6mapper4V4_07IMapper13unlinkToDeathERKNS_2spINS0_20hidl_death_recipientEEE"
    },
    {
     "kind" : "complete_dtor_pointer",
     "mangled_component_name" : "_ZN7android8hardware8graphics6mapper4V4_07IMapperD1Ev"
    },
    {
     "kind" : "deleting_dtor_pointer",
     "mangled_component_name" : "_ZN7android8hardware8graphics6mapper4V4_07IMapperD0Ev"
    },
    {
     "is_pure" : true,
     "mangled_component_name" : "_ZN7android8hardware8graphics6mapper4V4_07IMapper16createDescriptorERKNS4_20BufferDescriptorInfoENSt3__18functionIFvNS3_5ErrorERKNS0_8hidl_vecIhEEEEE"
    },
    {
     "is_pure" : true,
     "mangled_component_name" : "_ZN7android8hardware8graphics6mapper4V4_07IMapper12importBufferERKNS0_11hidl_handleENSt3__18functionIFvNS3_5ErrorEPvEEE"
    },
    {
     "is_pure" : true,
     "mangled_component_name" : "_ZN7android8hardware8graphics6mapper4V4_07IMapper10freeBufferEPv"
    },
    {
     "is_pure" : true,
     "mangled_component_name" : "_ZN7android8hardware8graphics6mapper4V4_07IMapper18validateBufferSizeEPvRKNS4_20BufferDescriptorInfoEj"
    },
    {
     "is_pure" : true,
     "mangled_component_name" : "_ZN7android8hardware8graphics6mapper4V4_07IMapper16getTransportSizeEPvNSt3__18functionIFvNS3_5ErrorEjjEEE"
    },
    {
     "is_pure" : true,
     "mangled_component_name" : "_ZN7android8hardware8graphics6mapper4V4_07IMapper4lockEPvyRKNS4_4RectERKNS0_11hidl_handleENSt3__18functionIFvNS3_5ErrorES5_EEE"
    },
    {
     "is_pure" : true,
     "mangled_component_name" : "_ZN7android8hardware8graphics6mapper4V4_07IMapper6unlockEPvNSt3__18functionIFvNS3_5ErrorERKNS0_11hidl_handleEEEE"
    },
    {
     "is_pure" : true,
     "mangled_component_name" : "_ZN7android8hardware8graphics6mapper4V4_07IMapper17flushLockedBufferEPvNSt3__18functionIFvNS3_5ErrorERKNS0_11hidl_handleEEEE"
    },
    {
     "is_pure" : true,
     "mangled_component_name" : "_ZN7android8hardware8graphics6mapper4V4_07IMapper18rereadLockedBufferEPv"
    },
    {
     "is_pure" : true,
     "mangled_component_name" : "_ZN7android8hardware8graphics6mapper4V4_07IMapper11isSupportedERKNS4_20BufferDescriptorInfoENSt3__18functionIFvNS3_5ErrorEbEEE"
    },
    {
     "is_pure" : true,
     "mangled_component_name" : "_ZN7android8hardware8graphics6mapper4V4_07IMapper3getEPvRKNS4_12MetadataTypeENSt3__18functionIFvNS3_5ErrorERKNS0_8hidl_vecIhEEEEE"
    },
    {
     "is_pure" : true,
     "mangled_component_name" : "_ZN7android8hardware8graphics6mapper4V4_07IMapper3setEPvRKNS4_12MetadataTypeERKNS0_8hidl_vecIhEE"
    },
    {
     "is_pure" : true,
     "mangled_component_name" : "_ZN7android8hardware8graphics6mapper4V4_07IMapper27getFromBufferDescriptorInfoERKNS4_20BufferDescriptorInfoERKNS4_12MetadataTypeENSt3__18functionIFvNS3_5ErrorERKNS0_8hidl_vecIhEEEEE"
    },
    {
     "is_pure" : true,
     "mangled_component_name" : "_ZN7android8hardware8graphics6mapper4V4_07IMapper26listSupportedMetadataTypesENSt3__18functionIFvNS3_5ErrorERKNS0_8hidl_vecINS4_23MetadataTypeDescriptionEEEEEE"
    },
    {
     "is_pure" : true,
     "mangled_component_name" : "_ZN7android8hardware8graphics6mapper4V4_07IMapper10dumpBufferEPvNSt3__18functionIFvNS3_5ErrorERKNS4_10BufferDumpEEEE"
    },
    {
     "is_pure" : true,
     "mangled_component_name" : "_ZN7android8hardware8graphics6mapper4V4_07IMapper11dumpBuffersENSt3__18functionIFvNS3_5ErrorERKNS0_8hidl_vecINS4_10BufferDumpEEEEEE"
    },
    {
     "is_pure" : true,
     "mangled_component_name" : "_ZN7android8hardware8graphics6mapper4V4_07IMapper17getReservedRegionEPvNSt3__18functionIFvNS3_5ErrorES5_yEEE"
    },
    {
     "kind" : "vcall_offset"
    },
    {
     "kind" : "vcall_offset"
    },
    {
     "kind" : "vcall_offset"
    },
    {
     "kind" : "vcall_offset"
    },
    {
     "component_value" : -4,
     "kind" : "vcall_offset"
    },
    {
     "component_value" : -4,
     "kind" : "offset_to_top"
    },
    {
     "kind" : "rtti",
     "mangled_component_name" : "_ZTIN7android8hardware8graphics6mapper4V4_07IMapperE"
    },
    {
     "kind" : "complete_dtor_pointer",
     "mangled_component_name" : "_ZTv0_n12_N7android8hardware8graphics6mapper4V4_07IMapperD1Ev"
    },
    {
     "kind" : "deleting_dtor_pointer",
     "mangled_component_name" : "_ZTv0_n12_N7android8hardware8graphics6mapper4V4_07IMapperD0Ev"
    },
    {
     "mangled_component_name" : "_ZN7android7RefBase10onFirstRefEv"
    },
    {
     "mangled_component_name" : "_ZN7android7RefBase15onLastStrongRefEPKv"
    },
    {
     "mangled_component_name" : "_ZN7android7RefBase20onIncStrongAttemptedEjPKv"
    },
    {
     "mangled_component_name" : "_ZN7android7RefBase13onLastWeakRefEPKv"
    }
   ]
  },
  {
   "alignment" : 4,
   "fields" :
   [
    {
     "access" : "private",
     "field_name" : "mBuffer",
     "referenced_type" : "_ZTIN7android8hardware7details12hidl_pointerINS0_17GrantorDescriptorEEE"
    },
    {
     "access" : "private",
     "field_name" : "mSize",
     "field_offset" : 64,
     "referenced_type" : "_ZTIj"
    },
    {
     "access" : "private",
     "field_name" : "mOwnsBuffer",
     "field_offset" : 96,
     "referenced_type" : "_ZTIb"
    },
    {
     "access" : "private",
     "field_name" : "mPad",
     "field_offset" : 104,
     "referenced_type" : "_ZTIA3_h"
    }
   ],
   "linker_set_key" : "_ZTIN7android8hardware8hidl_vecINS0_17GrantorDescriptorEEE",
   "name" : "android::hardware::hidl_vec<android::hardware::GrantorDescriptor>",
   "referenced_type" : "_ZTIN7android8hardware8hidl_vecINS0_17GrantorDescriptorEEE",
   "self_type" : "_ZTIN7android8hardware8hidl_vecINS0_17GrantorDescriptorEEE",
   "size" : 16,
   "source_file" : "/system/libhidl/base/include/hidl/HidlSupport.h",
   "template_args" : [ "_ZTIN7android8hardware17GrantorDescriptorE" ]
  },
  {
   "alignment" : 4,
   "fields" :
   [
    {
     "access" : "private",
     "field_name" : "mBuffer",
     "referenced_type" : "_ZTIN7android8hardware7details12hidl_pointerINS0_8graphics6mapper4V4_07IMapper12MetadataDumpEEE"
    },
    {
     "access" : "private",
     "field_name" : "mSize",
     "field_offset" : 64,
     "referenced_type" : "_ZTIj"
    },
    {
     "access" : "private",
     "field_name" : "mOwnsBuffer",
     "field_offset" : 96,
     "referenced_type" : "_ZTIb"
    },
    {
     "access" : "private",
     "field_name" : "mPad",
     "field_offset" : 104,
     "referenced_type" : "_ZTIA3_h"
    }
   ],
   "linker_set_key" : "_ZTIN7android8hardware8hidl_vecINS0_8graphics6mapper4V4_07IMapper12MetadataDumpEEE",
   "name" : "android::hardware::hidl_vec<android::hardware::graphics::mapper::V4_0::IMapper::MetadataDump>",
   "referenced_type" : "_ZTIN7android8hardware8hidl_vecINS0_8graphics6mapper4V4_07IMapper12MetadataDumpEEE",
   "self_type" : "_ZTIN7android8hardware8hidl_vecINS0_8graphics6mapper4V4_07IMapper12MetadataDumpEEE",
   "size" : 16,
   "source_file" : "/system/libhidl/base/include/hidl/HidlSupport.h",
   "template_args" : [ "_ZTIN7android8hardware8graphics6mapper4V4_07IMapper12MetadataDumpE" ]
  },
  {
   "alignment" : 4,
   "fields" :
   [
    {
     "access" : "private",
     "field_name" : "mBuffer",
     "referenced_type" : "_ZTIN7android8hardware7details12hidl_pointerIhEE"
    },
    {
     "access" : "private",
     "field_name" : "mSize",
     "field_offset" : 64,
     "referenced_type" : "_ZTIj"
    },
    {
     "access" : "private",
     "field_name" : "mOwnsBuffer",
     "field_offset" : 96,
     "referenced_type" : "_ZTIb"
    },
    {
     "access" : "private",
     "field_name" : "mPad",
     "field_offset" : 104,
     "referenced_type" : "_ZTIA3_h"
    }
   ],
   "linker_set_key" : "_ZTIN7android8hardware8hidl_vecIhEE",
   "name" : "android::hardware::hidl_vec<unsigned char>",
   "referenced_type" : "_ZTIN7android8hardware8hidl_vecIhEE",
   "self_type" : "_ZTIN7android8hardware8hidl_vecIhEE",
   "size" : 16,
   "source_file" : "/system/libhidl/base/include/hidl/HidlSupport.h",
   "template_args" : [ "_ZTIh" ]
  },
  {
   "alignment" : 4,
   "fields" :
   [
    {
     "field_name" : "buf",
     "referenced_type" : "_ZTIA5121_h"
    },
    {
     "field_name" : "entry",
     "referenced_type" : "_ZTI12logger_entry"
    }
   ],
   "is_anonymous" : true,
   "linker_set_key" : "_ZTIN7log_msgUt_E",
   "name" : "log_msg::(anonymous union at system/core/liblog/include_vndk/log/log_read.h:77:3)",
   "record_kind" : "union",
   "referenced_type" : "_ZTIN7log_msgUt_E",
   "self_type" : "_ZTIN7log_msgUt_E",
   "size" : 5124,
   "source_file" : "/system/core/liblog/include/log/log_read.h"
  }
 ],
 "rvalue_reference_types" :
 [
  {
   "alignment" : 4,
   "linker_set_key" : "_ZTION3ndk13ScopedAParcelE",
   "name" : "ndk::ScopedAParcel &&",
   "referenced_type" : "_ZTIN3ndk13ScopedAParcelE",
   "self_type" : "_ZTION3ndk13ScopedAParcelE",
   "size" : 4,
   "source_file" : "/frameworks/native/libs/binder/ndk/include_ndk/android/binder_auto_utils.h"
  },
  {
   "alignment" : 4,
   "linker_set_key" : "_ZTION3ndk13ScopedAStatusE",
   "name" : "ndk::ScopedAStatus &&",
   "referenced_type" : "_ZTIN3ndk13ScopedAStatusE",
   "self_type" : "_ZTION3ndk13ScopedAStatusE",
   "size" : 4,
   "source_file" : "/frameworks/native/libs/binder/ndk/include_ndk/android/binder_auto_utils.h"
  },
  {
   "alignment" : 4,
   "linker_set_key" : "_ZTION3ndk19ScopedAIBinder_WeakE",
   "name" : "ndk::ScopedAIBinder_Weak &&",
   "referenced_type" : "_ZTIN3ndk19ScopedAIBinder_WeakE",
   "self_type" : "_ZTION3ndk19ScopedAIBinder_WeakE",
   "size" : 4,
   "source_file" : "/frameworks/native/libs/binder/ndk/include_ndk/android/binder_auto_utils.h"
  },
  {
   "alignment" : 4,
   "linker_set_key" : "_ZTION3ndk20ScopedFileDescriptorE",
   "name" : "ndk::ScopedFileDescriptor &&",
   "referenced_type" : "_ZTIN3ndk20ScopedFileDescriptorE",
   "self_type" : "_ZTION3ndk20ScopedFileDescriptorE",
   "size" : 4,
   "source_file" : "/frameworks/native/libs/binder/ndk/include_ndk/android/binder_auto_utils.h"
  },
  {
   "alignment" : 4,
   "linker_set_key" : "_ZTION3ndk29ScopedAIBinder_DeathRecipientE",
   "name" : "ndk::ScopedAIBinder_DeathRecipient &&",
   "referenced_type" : "_ZTIN3ndk29ScopedAIBinder_DeathRecipientE",
   "self_type" : "_ZTION3ndk29ScopedAIBinder_DeathRecipientE",
   "size" : 4,
   "source_file" : "/frameworks/native/libs/binder/ndk/include_ndk/android/binder_auto_utils.h"
  },
  {
   "alignment" : 4,
   "linker_set_key" : "_ZTION7android8hardware10hidl_arrayIjLj10EJEEE",
   "name" : "android::hardware::hidl_array<unsigned int, 10> &&",
   "referenced_type" : "_ZTIN7android8hardware10hidl_arrayIjLj10EJEEE",
   "self_type" : "_ZTION7android8hardware10hidl_arrayIjLj10EJEEE",
   "size" : 4,
   "source_file" : "/system/libhidl/base/include/hidl/HidlSupport.h"
  },
  {
   "alignment" : 4,
   "linker_set_key" : "_ZTION7android8hardware11hidl_handleE",
   "name" : "android::hardware::hidl_handle &&",
   "referenced_type" : "_ZTIN7android8hardware11hidl_handleE",
   "self_type" : "_ZTION7android8hardware11hidl_handleE",
   "size" : 4,
   "source_file" : "/system/libhidl/base/include/hidl/HidlSupport.h"
  },
  {
   "alignment" : 4,
   "linker_set_key" : "_ZTION7android8hardware11hidl_memoryE",
   "name" : "android::hardware::hidl_memory &&",
   "referenced_type" : "_ZTIN7android8hardware11hidl_memoryE",
   "self_type" : "_ZTION7android8hardware11hidl_memoryE",
   "size" : 4,
   "source_file" : "/system/libhidl/base/include/hidl/HidlSupport.h"
  },
  {
   "alignment" : 4,
   "linker_set_key" : "_ZTION7android8hardware6ReturnIvEE",
   "name" : "android::hardware::Return<void> &&",
   "referenced_type" : "_ZTIN7android8hardware6ReturnIvEE",
   "self_type" : "_ZTION7android8hardware6ReturnIvEE",
   "size" : 4,
   "source_file" : "/system/libhidl/base/include/hidl/Status.h"
  },
  {
   "alignment" : 4,
   "linker_set_key" : "_ZTION7android8hardware6StatusE",
   "name" : "android::hardware::Status &&",
   "referenced_type" : "_ZTIN7android8hardware6StatusE",
   "self_type" : "_ZTION7android8hardware6StatusE",
   "size" : 4,
   "source_file" : "/system/libhidl/base/include/hidl/Status.h"
  },
  {
   "alignment" : 4,
   "linker_set_key" : "_ZTION7android8hardware7details13return_statusE",
   "name" : "android::hardware::details::return_status &&",
   "referenced_type" : "_ZTIN7android8hardware7details13return_statusE",
   "self_type" : "_ZTION7android8hardware7details13return_statusE",
   "size" : 4,
   "source_file" : "/system/libhidl/base/include/hidl/Status.h"
  }
 ]
}
