{
 "array_types" :
 [
  {
   "alignment" : 1,
   "linker_set_key" : "_ZTIA1_c",
   "name" : "char [1]",
   "referenced_type" : "_ZTIc",
   "self_type" : "_ZTIA1_c",
   "size" : 1,
   "source_file" : "/external/libevent/include/event2/dns_struct.h"
  }
 ],
 "builtin_types" :
 [
  {
   "alignment" : 1,
   "is_integral" : true,
   "is_unsigned" : true,
   "linker_set_key" : "_ZTIc",
   "name" : "char",
   "referenced_type" : "_ZTIc",
   "self_type" : "_ZTIc",
   "size" : 1
  },
  {
   "alignment" : 1,
   "is_integral" : true,
   "is_unsigned" : true,
   "linker_set_key" : "_ZTIh",
   "name" : "unsigned char",
   "referenced_type" : "_ZTIh",
   "self_type" : "_ZTIh",
   "size" : 1
  },
  {
   "alignment" : 4,
   "is_integral" : true,
   "linker_set_key" : "_ZTIi",
   "name" : "int",
   "referenced_type" : "_ZTIi",
   "self_type" : "_ZTIi",
   "size" : 4
  },
  {
   "alignment" : 4,
   "is_integral" : true,
   "is_unsigned" : true,
   "linker_set_key" : "_ZTIj",
   "name" : "unsigned int",
   "referenced_type" : "_ZTIj",
   "self_type" : "_ZTIj",
   "size" : 4
  },
  {
   "alignment" : 4,
   "is_integral" : true,
   "linker_set_key" : "_ZTIl",
   "name" : "long",
   "referenced_type" : "_ZTIl",
   "self_type" : "_ZTIl",
   "size" : 4
  },
  {
   "alignment" : 4,
   "is_integral" : true,
   "is_unsigned" : true,
   "linker_set_key" : "_ZTIm",
   "name" : "unsigned long",
   "referenced_type" : "_ZTIm",
   "self_type" : "_ZTIm",
   "size" : 4
  },
  {
   "alignment" : 2,
   "is_integral" : true,
   "linker_set_key" : "_ZTIs",
   "name" : "short",
   "referenced_type" : "_ZTIs",
   "self_type" : "_ZTIs",
   "size" : 2
  },
  {
   "alignment" : 2,
   "is_integral" : true,
   "is_unsigned" : true,
   "linker_set_key" : "_ZTIt",
   "name" : "unsigned short",
   "referenced_type" : "_ZTIt",
   "self_type" : "_ZTIt",
   "size" : 2
  },
  {
   "linker_set_key" : "_ZTIv",
   "name" : "void",
   "referenced_type" : "_ZTIv",
   "self_type" : "_ZTIv"
  },
  {
   "alignment" : 8,
   "is_integral" : true,
   "linker_set_key" : "_ZTIx",
   "name" : "long long",
   "referenced_type" : "_ZTIx",
   "self_type" : "_ZTIx",
   "size" : 8
  },
  {
   "alignment" : 8,
   "is_integral" : true,
   "is_unsigned" : true,
   "linker_set_key" : "_ZTIy",
   "name" : "unsigned long long",
   "referenced_type" : "_ZTIy",
   "self_type" : "_ZTIy",
   "size" : 8
  }
 ],
 "elf_functions" :
 [
  {
   "name" : "EVUTIL_ISALNUM_"
  },
  {
   "name" : "EVUTIL_ISALPHA_"
  },
  {
   "name" : "EVUTIL_ISDIGIT_"
  },
  {
   "name" : "EVUTIL_ISLOWER_"
  },
  {
   "name" : "EVUTIL_ISPRINT_"
  },
  {
   "name" : "EVUTIL_ISSPACE_"
  },
  {
   "name" : "EVUTIL_ISUPPER_"
  },
  {
   "name" : "EVUTIL_ISXDIGIT_"
  },
  {
   "name" : "EVUTIL_TOLOWER_"
  },
  {
   "name" : "EVUTIL_TOUPPER_"
  },
  {
   "name" : "bufferevent_add_event_"
  },
  {
   "name" : "bufferevent_add_to_rate_limit_group"
  },
  {
   "name" : "bufferevent_base_set"
  },
  {
   "name" : "bufferevent_decref"
  },
  {
   "name" : "bufferevent_decref_and_unlock_"
  },
  {
   "name" : "bufferevent_decrement_read_buckets_"
  },
  {
   "name" : "bufferevent_decrement_read_limit"
  },
  {
   "name" : "bufferevent_decrement_write_buckets_"
  },
  {
   "name" : "bufferevent_decrement_write_limit"
  },
  {
   "name" : "bufferevent_disable"
  },
  {
   "name" : "bufferevent_disable_hard_"
  },
  {
   "name" : "bufferevent_enable"
  },
  {
   "name" : "bufferevent_enable_locking_"
  },
  {
   "name" : "bufferevent_filter_new"
  },
  {
   "name" : "bufferevent_flush"
  },
  {
   "name" : "bufferevent_free"
  },
  {
   "name" : "bufferevent_generic_adj_existing_timeouts_"
  },
  {
   "name" : "bufferevent_generic_adj_timeouts_"
  },
  {
   "name" : "bufferevent_get_base"
  },
  {
   "name" : "bufferevent_get_enabled"
  },
  {
   "name" : "bufferevent_get_input"
  },
  {
   "name" : "bufferevent_get_max_single_read"
  },
  {
   "name" : "bufferevent_get_max_single_write"
  },
  {
   "name" : "bufferevent_get_max_to_read"
  },
  {
   "name" : "bufferevent_get_max_to_write"
  },
  {
   "name" : "bufferevent_get_options_"
  },
  {
   "name" : "bufferevent_get_output"
  },
  {
   "name" : "bufferevent_get_priority"
  },
  {
   "name" : "bufferevent_get_read_limit"
  },
  {
   "name" : "bufferevent_get_read_max_"
  },
  {
   "name" : "bufferevent_get_token_bucket_cfg"
  },
  {
   "name" : "bufferevent_get_underlying"
  },
  {
   "name" : "bufferevent_get_write_limit"
  },
  {
   "name" : "bufferevent_get_write_max_"
  },
  {
   "name" : "bufferevent_getcb"
  },
  {
   "name" : "bufferevent_getfd"
  },
  {
   "name" : "bufferevent_getwatermark"
  },
  {
   "name" : "bufferevent_incref"
  },
  {
   "name" : "bufferevent_incref_and_lock_"
  },
  {
   "name" : "bufferevent_init_common_"
  },
  {
   "name" : "bufferevent_init_generic_timeout_cbs_"
  },
  {
   "name" : "bufferevent_lock"
  },
  {
   "name" : "bufferevent_new"
  },
  {
   "name" : "bufferevent_pair_get_partner"
  },
  {
   "name" : "bufferevent_pair_new"
  },
  {
   "name" : "bufferevent_priority_set"
  },
  {
   "name" : "bufferevent_rate_limit_group_decrement_read"
  },
  {
   "name" : "bufferevent_rate_limit_group_decrement_write"
  },
  {
   "name" : "bufferevent_rate_limit_group_free"
  },
  {
   "name" : "bufferevent_rate_limit_group_get_read_limit"
  },
  {
   "name" : "bufferevent_rate_limit_group_get_totals"
  },
  {
   "name" : "bufferevent_rate_limit_group_get_write_limit"
  },
  {
   "name" : "bufferevent_rate_limit_group_new"
  },
  {
   "name" : "bufferevent_rate_limit_group_reset_totals"
  },
  {
   "name" : "bufferevent_rate_limit_group_set_cfg"
  },
  {
   "name" : "bufferevent_rate_limit_group_set_min_share"
  },
  {
   "name" : "bufferevent_ratelim_init_"
  },
  {
   "name" : "bufferevent_read"
  },
  {
   "name" : "bufferevent_read_buffer"
  },
  {
   "name" : "bufferevent_remove_from_rate_limit_group"
  },
  {
   "name" : "bufferevent_remove_from_rate_limit_group_internal_"
  },
  {
   "name" : "bufferevent_run_eventcb_"
  },
  {
   "name" : "bufferevent_run_readcb_"
  },
  {
   "name" : "bufferevent_run_writecb_"
  },
  {
   "name" : "bufferevent_set_max_single_read"
  },
  {
   "name" : "bufferevent_set_max_single_write"
  },
  {
   "name" : "bufferevent_set_rate_limit"
  },
  {
   "name" : "bufferevent_set_timeouts"
  },
  {
   "name" : "bufferevent_setcb"
  },
  {
   "name" : "bufferevent_setfd"
  },
  {
   "name" : "bufferevent_settimeout"
  },
  {
   "name" : "bufferevent_setwatermark"
  },
  {
   "name" : "bufferevent_socket_connect"
  },
  {
   "name" : "bufferevent_socket_connect_hostname"
  },
  {
   "name" : "bufferevent_socket_get_conn_address_"
  },
  {
   "name" : "bufferevent_socket_get_dns_error"
  },
  {
   "name" : "bufferevent_socket_new"
  },
  {
   "name" : "bufferevent_socket_set_conn_address_"
  },
  {
   "name" : "bufferevent_socket_set_conn_address_fd_"
  },
  {
   "name" : "bufferevent_suspend_read_"
  },
  {
   "name" : "bufferevent_suspend_write_"
  },
  {
   "name" : "bufferevent_trigger"
  },
  {
   "name" : "bufferevent_trigger_event"
  },
  {
   "name" : "bufferevent_unlock"
  },
  {
   "name" : "bufferevent_unsuspend_read_"
  },
  {
   "name" : "bufferevent_unsuspend_write_"
  },
  {
   "name" : "bufferevent_write"
  },
  {
   "name" : "bufferevent_write_buffer"
  },
  {
   "name" : "ev_token_bucket_cfg_free"
  },
  {
   "name" : "ev_token_bucket_cfg_new"
  },
  {
   "name" : "ev_token_bucket_get_tick_"
  },
  {
   "name" : "ev_token_bucket_init_"
  },
  {
   "name" : "ev_token_bucket_update_"
  },
  {
   "name" : "evbuffer_add"
  },
  {
   "name" : "evbuffer_add_buffer"
  },
  {
   "name" : "evbuffer_add_buffer_reference"
  },
  {
   "name" : "evbuffer_add_cb"
  },
  {
   "name" : "evbuffer_add_file"
  },
  {
   "name" : "evbuffer_add_file_segment"
  },
  {
   "name" : "evbuffer_add_iovec"
  },
  {
   "name" : "evbuffer_add_printf"
  },
  {
   "name" : "evbuffer_add_reference"
  },
  {
   "name" : "evbuffer_add_vprintf"
  },
  {
   "name" : "evbuffer_cb_clear_flags"
  },
  {
   "name" : "evbuffer_cb_set_flags"
  },
  {
   "name" : "evbuffer_chain_pin_"
  },
  {
   "name" : "evbuffer_chain_unpin_"
  },
  {
   "name" : "evbuffer_clear_flags"
  },
  {
   "name" : "evbuffer_commit_space"
  },
  {
   "name" : "evbuffer_copyout"
  },
  {
   "name" : "evbuffer_copyout_from"
  },
  {
   "name" : "evbuffer_decref_and_unlock_"
  },
  {
   "name" : "evbuffer_defer_callbacks"
  },
  {
   "name" : "evbuffer_drain"
  },
  {
   "name" : "evbuffer_enable_locking"
  },
  {
   "name" : "evbuffer_expand"
  },
  {
   "name" : "evbuffer_expand_fast_"
  },
  {
   "name" : "evbuffer_file_segment_add_cleanup_cb"
  },
  {
   "name" : "evbuffer_file_segment_free"
  },
  {
   "name" : "evbuffer_file_segment_new"
  },
  {
   "name" : "evbuffer_find"
  },
  {
   "name" : "evbuffer_free"
  },
  {
   "name" : "evbuffer_freeze"
  },
  {
   "name" : "evbuffer_get_callbacks_"
  },
  {
   "name" : "evbuffer_get_contiguous_space"
  },
  {
   "name" : "evbuffer_get_length"
  },
  {
   "name" : "evbuffer_incref_"
  },
  {
   "name" : "evbuffer_incref_and_lock_"
  },
  {
   "name" : "evbuffer_invoke_callbacks_"
  },
  {
   "name" : "evbuffer_lock"
  },
  {
   "name" : "evbuffer_new"
  },
  {
   "name" : "evbuffer_peek"
  },
  {
   "name" : "evbuffer_prepend"
  },
  {
   "name" : "evbuffer_prepend_buffer"
  },
  {
   "name" : "evbuffer_ptr_set"
  },
  {
   "name" : "evbuffer_pullup"
  },
  {
   "name" : "evbuffer_read"
  },
  {
   "name" : "evbuffer_read_setup_vecs_"
  },
  {
   "name" : "evbuffer_readline"
  },
  {
   "name" : "evbuffer_readln"
  },
  {
   "name" : "evbuffer_remove"
  },
  {
   "name" : "evbuffer_remove_buffer"
  },
  {
   "name" : "evbuffer_remove_cb"
  },
  {
   "name" : "evbuffer_remove_cb_entry"
  },
  {
   "name" : "evbuffer_reserve_space"
  },
  {
   "name" : "evbuffer_search"
  },
  {
   "name" : "evbuffer_search_eol"
  },
  {
   "name" : "evbuffer_search_range"
  },
  {
   "name" : "evbuffer_set_flags"
  },
  {
   "name" : "evbuffer_set_parent_"
  },
  {
   "name" : "evbuffer_setcb"
  },
  {
   "name" : "evbuffer_unfreeze"
  },
  {
   "name" : "evbuffer_unlock"
  },
  {
   "name" : "evbuffer_write"
  },
  {
   "name" : "evbuffer_write_atmost"
  },
  {
   "name" : "evconnlistener_disable"
  },
  {
   "name" : "evconnlistener_enable"
  },
  {
   "name" : "evconnlistener_free"
  },
  {
   "name" : "evconnlistener_get_base"
  },
  {
   "name" : "evconnlistener_get_fd"
  },
  {
   "name" : "evconnlistener_new"
  },
  {
   "name" : "evconnlistener_new_bind"
  },
  {
   "name" : "evconnlistener_set_cb"
  },
  {
   "name" : "evconnlistener_set_error_cb"
  },
  {
   "name" : "evdns_add_server_port"
  },
  {
   "name" : "evdns_add_server_port_with_base"
  },
  {
   "name" : "evdns_base_clear_host_addresses"
  },
  {
   "name" : "evdns_base_clear_nameservers_and_suspend"
  },
  {
   "name" : "evdns_base_count_nameservers"
  },
  {
   "name" : "evdns_base_free"
  },
  {
   "name" : "evdns_base_get_nameserver_addr"
  },
  {
   "name" : "evdns_base_load_hosts"
  },
  {
   "name" : "evdns_base_nameserver_add"
  },
  {
   "name" : "evdns_base_nameserver_ip_add"
  },
  {
   "name" : "evdns_base_nameserver_sockaddr_add"
  },
  {
   "name" : "evdns_base_new"
  },
  {
   "name" : "evdns_base_resolv_conf_parse"
  },
  {
   "name" : "evdns_base_resolve_ipv4"
  },
  {
   "name" : "evdns_base_resolve_ipv6"
  },
  {
   "name" : "evdns_base_resolve_reverse"
  },
  {
   "name" : "evdns_base_resolve_reverse_ipv6"
  },
  {
   "name" : "evdns_base_resume"
  },
  {
   "name" : "evdns_base_search_add"
  },
  {
   "name" : "evdns_base_search_clear"
  },
  {
   "name" : "evdns_base_search_ndots_set"
  },
  {
   "name" : "evdns_base_set_option"
  },
  {
   "name" : "evdns_cancel_request"
  },
  {
   "name" : "evdns_clear_nameservers_and_suspend"
  },
  {
   "name" : "evdns_close_server_port"
  },
  {
   "name" : "evdns_count_nameservers"
  },
  {
   "name" : "evdns_err_to_string"
  },
  {
   "name" : "evdns_get_global_base"
  },
  {
   "name" : "evdns_getaddrinfo"
  },
  {
   "name" : "evdns_getaddrinfo_cancel"
  },
  {
   "name" : "evdns_init"
  },
  {
   "name" : "evdns_nameserver_add"
  },
  {
   "name" : "evdns_nameserver_ip_add"
  },
  {
   "name" : "evdns_resolv_conf_parse"
  },
  {
   "name" : "evdns_resolve_ipv4"
  },
  {
   "name" : "evdns_resolve_ipv6"
  },
  {
   "name" : "evdns_resolve_reverse"
  },
  {
   "name" : "evdns_resolve_reverse_ipv6"
  },
  {
   "name" : "evdns_resume"
  },
  {
   "name" : "evdns_search_add"
  },
  {
   "name" : "evdns_search_clear"
  },
  {
   "name" : "evdns_search_ndots_set"
  },
  {
   "name" : "evdns_server_request_add_a_reply"
  },
  {
   "name" : "evdns_server_request_add_aaaa_reply"
  },
  {
   "name" : "evdns_server_request_add_cname_reply"
  },
  {
   "name" : "evdns_server_request_add_ptr_reply"
  },
  {
   "name" : "evdns_server_request_add_reply"
  },
  {
   "name" : "evdns_server_request_drop"
  },
  {
   "name" : "evdns_server_request_get_requesting_addr"
  },
  {
   "name" : "evdns_server_request_respond"
  },
  {
   "name" : "evdns_server_request_set_flags"
  },
  {
   "name" : "evdns_set_log_fn"
  },
  {
   "name" : "evdns_set_option"
  },
  {
   "name" : "evdns_set_random_bytes_fn"
  },
  {
   "name" : "evdns_set_transaction_id_fn"
  },
  {
   "name" : "evdns_shutdown"
  },
  {
   "name" : "event_active"
  },
  {
   "name" : "event_active_later_"
  },
  {
   "name" : "event_active_later_nolock_"
  },
  {
   "name" : "event_active_nolock_"
  },
  {
   "name" : "event_add"
  },
  {
   "name" : "event_add_nolock_"
  },
  {
   "name" : "event_assign"
  },
  {
   "name" : "event_base_active_by_fd"
  },
  {
   "name" : "event_base_active_by_signal"
  },
  {
   "name" : "event_base_add_virtual_"
  },
  {
   "name" : "event_base_assert_ok_"
  },
  {
   "name" : "event_base_assert_ok_nolock_"
  },
  {
   "name" : "event_base_del_virtual_"
  },
  {
   "name" : "event_base_dispatch"
  },
  {
   "name" : "event_base_dump_events"
  },
  {
   "name" : "event_base_foreach_event"
  },
  {
   "name" : "event_base_foreach_event_nolock_"
  },
  {
   "name" : "event_base_free"
  },
  {
   "name" : "event_base_free_nofinalize"
  },
  {
   "name" : "event_base_get_features"
  },
  {
   "name" : "event_base_get_max_events"
  },
  {
   "name" : "event_base_get_method"
  },
  {
   "name" : "event_base_get_npriorities"
  },
  {
   "name" : "event_base_get_num_events"
  },
  {
   "name" : "event_base_get_running_event"
  },
  {
   "name" : "event_base_gettimeofday_cached"
  },
  {
   "name" : "event_base_got_break"
  },
  {
   "name" : "event_base_got_exit"
  },
  {
   "name" : "event_base_init_common_timeout"
  },
  {
   "name" : "event_base_loop"
  },
  {
   "name" : "event_base_loopbreak"
  },
  {
   "name" : "event_base_loopcontinue"
  },
  {
   "name" : "event_base_loopexit"
  },
  {
   "name" : "event_base_new"
  },
  {
   "name" : "event_base_new_with_config"
  },
  {
   "name" : "event_base_once"
  },
  {
   "name" : "event_base_priority_init"
  },
  {
   "name" : "event_base_set"
  },
  {
   "name" : "event_base_start_iocp_"
  },
  {
   "name" : "event_base_stop_iocp_"
  },
  {
   "name" : "event_base_update_cache_time"
  },
  {
   "name" : "event_callback_activate_"
  },
  {
   "name" : "event_callback_activate_later_nolock_"
  },
  {
   "name" : "event_callback_activate_nolock_"
  },
  {
   "name" : "event_callback_cancel_"
  },
  {
   "name" : "event_callback_cancel_nolock_"
  },
  {
   "name" : "event_callback_finalize_"
  },
  {
   "name" : "event_callback_finalize_many_"
  },
  {
   "name" : "event_callback_finalize_nolock_"
  },
  {
   "name" : "event_callback_init_"
  },
  {
   "name" : "event_changelist_add_"
  },
  {
   "name" : "event_changelist_del_"
  },
  {
   "name" : "event_changelist_freemem_"
  },
  {
   "name" : "event_changelist_init_"
  },
  {
   "name" : "event_changelist_remove_all_"
  },
  {
   "name" : "event_config_avoid_method"
  },
  {
   "name" : "event_config_free"
  },
  {
   "name" : "event_config_new"
  },
  {
   "name" : "event_config_require_features"
  },
  {
   "name" : "event_config_set_flag"
  },
  {
   "name" : "event_config_set_max_dispatch_interval"
  },
  {
   "name" : "event_config_set_num_cpus_hint"
  },
  {
   "name" : "event_debug_map_HT_CLEAR"
  },
  {
   "name" : "event_debug_map_HT_GROW"
  },
  {
   "name" : "event_debug_map_HT_REP_IS_BAD_"
  },
  {
   "name" : "event_debug_unassign"
  },
  {
   "name" : "event_debugx_"
  },
  {
   "name" : "event_deferred_cb_cancel_"
  },
  {
   "name" : "event_deferred_cb_init_"
  },
  {
   "name" : "event_deferred_cb_schedule_"
  },
  {
   "name" : "event_deferred_cb_set_priority_"
  },
  {
   "name" : "event_del"
  },
  {
   "name" : "event_del_block"
  },
  {
   "name" : "event_del_noblock"
  },
  {
   "name" : "event_del_nolock_"
  },
  {
   "name" : "event_disable_debug_mode"
  },
  {
   "name" : "event_dispatch"
  },
  {
   "name" : "event_enable_debug_logging"
  },
  {
   "name" : "event_enable_debug_mode"
  },
  {
   "name" : "event_err"
  },
  {
   "name" : "event_errx"
  },
  {
   "name" : "event_finalize"
  },
  {
   "name" : "event_free"
  },
  {
   "name" : "event_free_finalize"
  },
  {
   "name" : "event_get_assignment"
  },
  {
   "name" : "event_get_base"
  },
  {
   "name" : "event_get_callback"
  },
  {
   "name" : "event_get_callback_arg"
  },
  {
   "name" : "event_get_events"
  },
  {
   "name" : "event_get_fd"
  },
  {
   "name" : "event_get_method"
  },
  {
   "name" : "event_get_priority"
  },
  {
   "name" : "event_get_struct_event_size"
  },
  {
   "name" : "event_get_supported_methods"
  },
  {
   "name" : "event_get_version"
  },
  {
   "name" : "event_get_version_number"
  },
  {
   "name" : "event_gettime_monotonic"
  },
  {
   "name" : "event_global_setup_locks_"
  },
  {
   "name" : "event_init"
  },
  {
   "name" : "event_initialized"
  },
  {
   "name" : "event_logv_"
  },
  {
   "name" : "event_loop"
  },
  {
   "name" : "event_loopbreak"
  },
  {
   "name" : "event_loopexit"
  },
  {
   "name" : "event_mm_calloc_"
  },
  {
   "name" : "event_mm_free_"
  },
  {
   "name" : "event_mm_malloc_"
  },
  {
   "name" : "event_mm_realloc_"
  },
  {
   "name" : "event_mm_strdup_"
  },
  {
   "name" : "event_msgx"
  },
  {
   "name" : "event_new"
  },
  {
   "name" : "event_once"
  },
  {
   "name" : "event_pending"
  },
  {
   "name" : "event_priority_init"
  },
  {
   "name" : "event_priority_set"
  },
  {
   "name" : "event_reinit"
  },
  {
   "name" : "event_remove_timer"
  },
  {
   "name" : "event_remove_timer_nolock_"
  },
  {
   "name" : "event_self_cbarg"
  },
  {
   "name" : "event_set"
  },
  {
   "name" : "event_set_fatal_callback"
  },
  {
   "name" : "event_set_log_callback"
  },
  {
   "name" : "event_set_mem_functions"
  },
  {
   "name" : "event_sock_err"
  },
  {
   "name" : "event_sock_warn"
  },
  {
   "name" : "event_warn"
  },
  {
   "name" : "event_warnx"
  },
  {
   "name" : "evhttp_accept_socket"
  },
  {
   "name" : "evhttp_accept_socket_with_handle"
  },
  {
   "name" : "evhttp_add_header"
  },
  {
   "name" : "evhttp_add_server_alias"
  },
  {
   "name" : "evhttp_add_virtual_host"
  },
  {
   "name" : "evhttp_bind_listener"
  },
  {
   "name" : "evhttp_bind_socket"
  },
  {
   "name" : "evhttp_bind_socket_with_handle"
  },
  {
   "name" : "evhttp_bound_socket_get_fd"
  },
  {
   "name" : "evhttp_bound_socket_get_listener"
  },
  {
   "name" : "evhttp_cancel_request"
  },
  {
   "name" : "evhttp_clear_headers"
  },
  {
   "name" : "evhttp_connection_base_bufferevent_new"
  },
  {
   "name" : "evhttp_connection_base_new"
  },
  {
   "name" : "evhttp_connection_connect_"
  },
  {
   "name" : "evhttp_connection_fail_"
  },
  {
   "name" : "evhttp_connection_free"
  },
  {
   "name" : "evhttp_connection_free_on_completion"
  },
  {
   "name" : "evhttp_connection_get_addr"
  },
  {
   "name" : "evhttp_connection_get_base"
  },
  {
   "name" : "evhttp_connection_get_bufferevent"
  },
  {
   "name" : "evhttp_connection_get_peer"
  },
  {
   "name" : "evhttp_connection_get_server"
  },
  {
   "name" : "evhttp_connection_new"
  },
  {
   "name" : "evhttp_connection_reset_"
  },
  {
   "name" : "evhttp_connection_set_base"
  },
  {
   "name" : "evhttp_connection_set_closecb"
  },
  {
   "name" : "evhttp_connection_set_family"
  },
  {
   "name" : "evhttp_connection_set_flags"
  },
  {
   "name" : "evhttp_connection_set_initial_retry_tv"
  },
  {
   "name" : "evhttp_connection_set_local_address"
  },
  {
   "name" : "evhttp_connection_set_local_port"
  },
  {
   "name" : "evhttp_connection_set_max_body_size"
  },
  {
   "name" : "evhttp_connection_set_max_headers_size"
  },
  {
   "name" : "evhttp_connection_set_retries"
  },
  {
   "name" : "evhttp_connection_set_timeout"
  },
  {
   "name" : "evhttp_connection_set_timeout_tv"
  },
  {
   "name" : "evhttp_decode_uri"
  },
  {
   "name" : "evhttp_decode_uri_internal"
  },
  {
   "name" : "evhttp_del_accept_socket"
  },
  {
   "name" : "evhttp_del_cb"
  },
  {
   "name" : "evhttp_encode_uri"
  },
  {
   "name" : "evhttp_find_header"
  },
  {
   "name" : "evhttp_foreach_bound_socket"
  },
  {
   "name" : "evhttp_free"
  },
  {
   "name" : "evhttp_htmlescape"
  },
  {
   "name" : "evhttp_make_request"
  },
  {
   "name" : "evhttp_new"
  },
  {
   "name" : "evhttp_parse_firstline_"
  },
  {
   "name" : "evhttp_parse_headers_"
  },
  {
   "name" : "evhttp_parse_query"
  },
  {
   "name" : "evhttp_parse_query_str"
  },
  {
   "name" : "evhttp_remove_header"
  },
  {
   "name" : "evhttp_remove_server_alias"
  },
  {
   "name" : "evhttp_remove_virtual_host"
  },
  {
   "name" : "evhttp_request_free"
  },
  {
   "name" : "evhttp_request_get_command"
  },
  {
   "name" : "evhttp_request_get_connection"
  },
  {
   "name" : "evhttp_request_get_evhttp_uri"
  },
  {
   "name" : "evhttp_request_get_host"
  },
  {
   "name" : "evhttp_request_get_input_buffer"
  },
  {
   "name" : "evhttp_request_get_input_headers"
  },
  {
   "name" : "evhttp_request_get_output_buffer"
  },
  {
   "name" : "evhttp_request_get_output_headers"
  },
  {
   "name" : "evhttp_request_get_response_code"
  },
  {
   "name" : "evhttp_request_get_response_code_line"
  },
  {
   "name" : "evhttp_request_get_uri"
  },
  {
   "name" : "evhttp_request_is_owned"
  },
  {
   "name" : "evhttp_request_new"
  },
  {
   "name" : "evhttp_request_own"
  },
  {
   "name" : "evhttp_request_set_chunked_cb"
  },
  {
   "name" : "evhttp_request_set_error_cb"
  },
  {
   "name" : "evhttp_request_set_header_cb"
  },
  {
   "name" : "evhttp_request_set_on_complete_cb"
  },
  {
   "name" : "evhttp_response_code_"
  },
  {
   "name" : "evhttp_send_error"
  },
  {
   "name" : "evhttp_send_page_"
  },
  {
   "name" : "evhttp_send_reply"
  },
  {
   "name" : "evhttp_send_reply_chunk"
  },
  {
   "name" : "evhttp_send_reply_chunk_with_cb"
  },
  {
   "name" : "evhttp_send_reply_end"
  },
  {
   "name" : "evhttp_send_reply_start"
  },
  {
   "name" : "evhttp_set_allowed_methods"
  },
  {
   "name" : "evhttp_set_bevcb"
  },
  {
   "name" : "evhttp_set_cb"
  },
  {
   "name" : "evhttp_set_default_content_type"
  },
  {
   "name" : "evhttp_set_flags"
  },
  {
   "name" : "evhttp_set_gencb"
  },
  {
   "name" : "evhttp_set_max_body_size"
  },
  {
   "name" : "evhttp_set_max_headers_size"
  },
  {
   "name" : "evhttp_set_timeout"
  },
  {
   "name" : "evhttp_set_timeout_tv"
  },
  {
   "name" : "evhttp_start"
  },
  {
   "name" : "evhttp_start_read_"
  },
  {
   "name" : "evhttp_start_write_"
  },
  {
   "name" : "evhttp_uri_free"
  },
  {
   "name" : "evhttp_uri_get_fragment"
  },
  {
   "name" : "evhttp_uri_get_host"
  },
  {
   "name" : "evhttp_uri_get_path"
  },
  {
   "name" : "evhttp_uri_get_port"
  },
  {
   "name" : "evhttp_uri_get_query"
  },
  {
   "name" : "evhttp_uri_get_scheme"
  },
  {
   "name" : "evhttp_uri_get_userinfo"
  },
  {
   "name" : "evhttp_uri_join"
  },
  {
   "name" : "evhttp_uri_new"
  },
  {
   "name" : "evhttp_uri_parse"
  },
  {
   "name" : "evhttp_uri_parse_with_flags"
  },
  {
   "name" : "evhttp_uri_set_flags"
  },
  {
   "name" : "evhttp_uri_set_fragment"
  },
  {
   "name" : "evhttp_uri_set_host"
  },
  {
   "name" : "evhttp_uri_set_path"
  },
  {
   "name" : "evhttp_uri_set_port"
  },
  {
   "name" : "evhttp_uri_set_query"
  },
  {
   "name" : "evhttp_uri_set_scheme"
  },
  {
   "name" : "evhttp_uri_set_userinfo"
  },
  {
   "name" : "evhttp_uridecode"
  },
  {
   "name" : "evhttp_uriencode"
  },
  {
   "name" : "evmap_check_integrity_"
  },
  {
   "name" : "evmap_delete_all_"
  },
  {
   "name" : "evmap_foreach_event_"
  },
  {
   "name" : "evmap_io_active_"
  },
  {
   "name" : "evmap_io_add_"
  },
  {
   "name" : "evmap_io_clear_"
  },
  {
   "name" : "evmap_io_del_"
  },
  {
   "name" : "evmap_io_get_fdinfo_"
  },
  {
   "name" : "evmap_io_initmap_"
  },
  {
   "name" : "evmap_reinit_"
  },
  {
   "name" : "evmap_signal_active_"
  },
  {
   "name" : "evmap_signal_add_"
  },
  {
   "name" : "evmap_signal_clear_"
  },
  {
   "name" : "evmap_signal_del_"
  },
  {
   "name" : "evmap_signal_initmap_"
  },
  {
   "name" : "evrpc_add_hook"
  },
  {
   "name" : "evrpc_free"
  },
  {
   "name" : "evrpc_get_reply"
  },
  {
   "name" : "evrpc_get_request"
  },
  {
   "name" : "evrpc_hook_add_meta"
  },
  {
   "name" : "evrpc_hook_find_meta"
  },
  {
   "name" : "evrpc_hook_get_connection"
  },
  {
   "name" : "evrpc_init"
  },
  {
   "name" : "evrpc_make_request"
  },
  {
   "name" : "evrpc_make_request_ctx"
  },
  {
   "name" : "evrpc_pool_add_connection"
  },
  {
   "name" : "evrpc_pool_free"
  },
  {
   "name" : "evrpc_pool_new"
  },
  {
   "name" : "evrpc_pool_remove_connection"
  },
  {
   "name" : "evrpc_pool_set_timeout"
  },
  {
   "name" : "evrpc_register_generic"
  },
  {
   "name" : "evrpc_register_rpc"
  },
  {
   "name" : "evrpc_remove_hook"
  },
  {
   "name" : "evrpc_reqstate_free_"
  },
  {
   "name" : "evrpc_request_done"
  },
  {
   "name" : "evrpc_request_get_pool"
  },
  {
   "name" : "evrpc_request_set_cb"
  },
  {
   "name" : "evrpc_request_set_pool"
  },
  {
   "name" : "evrpc_resume_request"
  },
  {
   "name" : "evrpc_send_request_generic"
  },
  {
   "name" : "evrpc_unregister_rpc"
  },
  {
   "name" : "evsig_dealloc_"
  },
  {
   "name" : "evsig_free_globals_"
  },
  {
   "name" : "evsig_global_setup_locks_"
  },
  {
   "name" : "evsig_init_"
  },
  {
   "name" : "evsig_restore_handler_"
  },
  {
   "name" : "evsig_set_base_"
  },
  {
   "name" : "evsig_set_handler_"
  },
  {
   "name" : "evtag_consume"
  },
  {
   "name" : "evtag_decode_int"
  },
  {
   "name" : "evtag_decode_int64"
  },
  {
   "name" : "evtag_decode_tag"
  },
  {
   "name" : "evtag_encode_int"
  },
  {
   "name" : "evtag_encode_int64"
  },
  {
   "name" : "evtag_encode_tag"
  },
  {
   "name" : "evtag_init"
  },
  {
   "name" : "evtag_marshal"
  },
  {
   "name" : "evtag_marshal_buffer"
  },
  {
   "name" : "evtag_marshal_int"
  },
  {
   "name" : "evtag_marshal_int64"
  },
  {
   "name" : "evtag_marshal_string"
  },
  {
   "name" : "evtag_marshal_timeval"
  },
  {
   "name" : "evtag_payload_length"
  },
  {
   "name" : "evtag_peek"
  },
  {
   "name" : "evtag_peek_length"
  },
  {
   "name" : "evtag_unmarshal"
  },
  {
   "name" : "evtag_unmarshal_fixed"
  },
  {
   "name" : "evtag_unmarshal_header"
  },
  {
   "name" : "evtag_unmarshal_int"
  },
  {
   "name" : "evtag_unmarshal_int64"
  },
  {
   "name" : "evtag_unmarshal_string"
  },
  {
   "name" : "evtag_unmarshal_timeval"
  },
  {
   "name" : "evthread_debug_get_real_lock_"
  },
  {
   "name" : "evthread_enable_lock_debugging"
  },
  {
   "name" : "evthread_enable_lock_debuging"
  },
  {
   "name" : "evthread_get_condition_callbacks"
  },
  {
   "name" : "evthread_get_lock_callbacks"
  },
  {
   "name" : "evthread_is_debug_lock_held_"
  },
  {
   "name" : "evthread_make_base_notifiable"
  },
  {
   "name" : "evthread_set_condition_callbacks"
  },
  {
   "name" : "evthread_set_id_callback"
  },
  {
   "name" : "evthread_set_lock_callbacks"
  },
  {
   "name" : "evthread_setup_global_lock_"
  },
  {
   "name" : "evthreadimpl_disable_lock_debugging_"
  },
  {
   "name" : "evutil_accept4_"
  },
  {
   "name" : "evutil_addrinfo_append_"
  },
  {
   "name" : "evutil_adjust_hints_for_addrconfig_"
  },
  {
   "name" : "evutil_ascii_strcasecmp"
  },
  {
   "name" : "evutil_ascii_strncasecmp"
  },
  {
   "name" : "evutil_closesocket"
  },
  {
   "name" : "evutil_configure_monotonic_time"
  },
  {
   "name" : "evutil_configure_monotonic_time_"
  },
  {
   "name" : "evutil_date_rfc1123"
  },
  {
   "name" : "evutil_ersatz_socketpair_"
  },
  {
   "name" : "evutil_eventfd_"
  },
  {
   "name" : "evutil_format_sockaddr_port_"
  },
  {
   "name" : "evutil_free_globals_"
  },
  {
   "name" : "evutil_free_secure_rng_globals_"
  },
  {
   "name" : "evutil_freeaddrinfo"
  },
  {
   "name" : "evutil_gai_strerror"
  },
  {
   "name" : "evutil_getaddrinfo"
  },
  {
   "name" : "evutil_getaddrinfo_async_"
  },
  {
   "name" : "evutil_getaddrinfo_cancel_async_"
  },
  {
   "name" : "evutil_getaddrinfo_common_"
  },
  {
   "name" : "evutil_getenv_"
  },
  {
   "name" : "evutil_gettime_monotonic"
  },
  {
   "name" : "evutil_gettime_monotonic_"
  },
  {
   "name" : "evutil_global_setup_locks_"
  },
  {
   "name" : "evutil_hex_char_to_int_"
  },
  {
   "name" : "evutil_inet_ntop"
  },
  {
   "name" : "evutil_inet_pton"
  },
  {
   "name" : "evutil_make_internal_pipe_"
  },
  {
   "name" : "evutil_make_listen_socket_ipv6only"
  },
  {
   "name" : "evutil_make_listen_socket_reuseable"
  },
  {
   "name" : "evutil_make_listen_socket_reuseable_port"
  },
  {
   "name" : "evutil_make_socket_closeonexec"
  },
  {
   "name" : "evutil_make_socket_nonblocking"
  },
  {
   "name" : "evutil_make_tcp_listen_socket_deferred"
  },
  {
   "name" : "evutil_memclear_"
  },
  {
   "name" : "evutil_monotonic_timer_free"
  },
  {
   "name" : "evutil_monotonic_timer_new"
  },
  {
   "name" : "evutil_new_addrinfo_"
  },
  {
   "name" : "evutil_open_closeonexec_"
  },
  {
   "name" : "evutil_parse_sockaddr_port"
  },
  {
   "name" : "evutil_read_file_"
  },
  {
   "name" : "evutil_rtrim_lws_"
  },
  {
   "name" : "evutil_secure_rng_get_bytes"
  },
  {
   "name" : "evutil_secure_rng_global_setup_locks_"
  },
  {
   "name" : "evutil_secure_rng_init"
  },
  {
   "name" : "evutil_secure_rng_set_urandom_device_file"
  },
  {
   "name" : "evutil_set_evdns_getaddrinfo_cancel_fn_"
  },
  {
   "name" : "evutil_set_evdns_getaddrinfo_fn_"
  },
  {
   "name" : "evutil_snprintf"
  },
  {
   "name" : "evutil_sockaddr_cmp"
  },
  {
   "name" : "evutil_sockaddr_is_loopback_"
  },
  {
   "name" : "evutil_socket_"
  },
  {
   "name" : "evutil_socket_connect_"
  },
  {
   "name" : "evutil_socket_finished_connecting_"
  },
  {
   "name" : "evutil_socketpair"
  },
  {
   "name" : "evutil_strtoll"
  },
  {
   "name" : "evutil_tv_to_msec_"
  },
  {
   "name" : "evutil_usleep_"
  },
  {
   "name" : "evutil_v4addr_is_local_"
  },
  {
   "name" : "evutil_v6addr_is_local_"
  },
  {
   "name" : "evutil_vsnprintf"
  },
  {
   "name" : "evutil_weakrand_"
  },
  {
   "name" : "evutil_weakrand_range_"
  },
  {
   "name" : "evutil_weakrand_seed_"
  },
  {
   "name" : "libevent_global_shutdown"
  }
 ],
 "elf_objects" :
 [
  {
   "name" : "bufferevent_ops_filter"
  },
  {
   "name" : "bufferevent_ops_pair"
  },
  {
   "name" : "bufferevent_ops_socket"
  },
  {
   "name" : "epollops"
  },
  {
   "name" : "event_debug_created_threadable_ctx_"
  },
  {
   "name" : "event_debug_logging_mask_"
  },
  {
   "name" : "event_debug_mode_on_"
  },
  {
   "name" : "event_global_current_base_"
  },
  {
   "name" : "evthread_cond_fns_"
  },
  {
   "name" : "evthread_id_fn_"
  },
  {
   "name" : "evthread_lock_debugging_enabled_"
  },
  {
   "name" : "evthread_lock_fns_"
  },
  {
   "name" : "evutil_memset_volatile_"
  },
  {
   "name" : "nil_eventop"
  },
  {
   "name" : "pollops"
  },
  {
   "name" : "selectops"
  }
 ],
 "enum_types" :
 [
  {
   "alignment" : 4,
   "enum_fields" :
   [
    {
     "enum_field_value" : 0,
     "name" : "EVRPC_INPUT"
    },
    {
     "enum_field_value" : 1,
     "name" : "EVRPC_OUTPUT"
    }
   ],
   "linker_set_key" : "_ZTI15EVRPC_HOOK_TYPE",
   "name" : "EVRPC_HOOK_TYPE",
   "referenced_type" : "_ZTI15EVRPC_HOOK_TYPE",
   "self_type" : "_ZTI15EVRPC_HOOK_TYPE",
   "size" : 4,
   "source_file" : "/external/libevent/include/event2/rpc.h",
   "underlying_type" : "_ZTIj"
  },
  {
   "alignment" : 4,
   "enum_fields" :
   [
    {
     "enum_field_value" : 1,
     "name" : "EVHTTP_REQ_GET"
    },
    {
     "enum_field_value" : 2,
     "name" : "EVHTTP_REQ_POST"
    },
    {
     "enum_field_value" : 4,
     "name" : "EVHTTP_REQ_HEAD"
    },
    {
     "enum_field_value" : 8,
     "name" : "EVHTTP_REQ_PUT"
    },
    {
     "enum_field_value" : 16,
     "name" : "EVHTTP_REQ_DELETE"
    },
    {
     "enum_field_value" : 32,
     "name" : "EVHTTP_REQ_OPTIONS"
    },
    {
     "enum_field_value" : 64,
     "name" : "EVHTTP_REQ_TRACE"
    },
    {
     "enum_field_value" : 128,
     "name" : "EVHTTP_REQ_CONNECT"
    },
    {
     "enum_field_value" : 256,
     "name" : "EVHTTP_REQ_PATCH"
    }
   ],
   "linker_set_key" : "_ZTI15evhttp_cmd_type",
   "name" : "evhttp_cmd_type",
   "referenced_type" : "_ZTI15evhttp_cmd_type",
   "self_type" : "_ZTI15evhttp_cmd_type",
   "size" : 4,
   "source_file" : "/external/libevent/include/event2/http.h",
   "underlying_type" : "_ZTIj"
  },
  {
   "alignment" : 4,
   "enum_fields" :
   [
    {
     "enum_field_value" : 0,
     "name" : "EVBUFFER_PTR_SET"
    },
    {
     "enum_field_value" : 1,
     "name" : "EVBUFFER_PTR_ADD"
    }
   ],
   "linker_set_key" : "_ZTI16evbuffer_ptr_how",
   "name" : "evbuffer_ptr_how",
   "referenced_type" : "_ZTI16evbuffer_ptr_how",
   "self_type" : "_ZTI16evbuffer_ptr_how",
   "size" : 4,
   "source_file" : "/external/libevent/include/event2/buffer.h",
   "underlying_type" : "_ZTIj"
  },
  {
   "alignment" : 4,
   "enum_fields" :
   [
    {
     "enum_field_value" : -1,
     "name" : "EVRPC_TERMINATE"
    },
    {
     "enum_field_value" : 0,
     "name" : "EVRPC_CONTINUE"
    },
    {
     "enum_field_value" : 1,
     "name" : "EVRPC_PAUSE"
    }
   ],
   "linker_set_key" : "_ZTI17EVRPC_HOOK_RESULT",
   "name" : "EVRPC_HOOK_RESULT",
   "referenced_type" : "_ZTI17EVRPC_HOOK_RESULT",
   "self_type" : "_ZTI17EVRPC_HOOK_RESULT",
   "size" : 4,
   "source_file" : "/external/libevent/include/event2/rpc.h",
   "underlying_type" : "_ZTIi"
  },
  {
   "alignment" : 4,
   "enum_fields" :
   [
    {
     "enum_field_value" : 0,
     "name" : "EVBUFFER_EOL_ANY"
    },
    {
     "enum_field_value" : 1,
     "name" : "EVBUFFER_EOL_CRLF"
    },
    {
     "enum_field_value" : 2,
     "name" : "EVBUFFER_EOL_CRLF_STRICT"
    },
    {
     "enum_field_value" : 3,
     "name" : "EVBUFFER_EOL_LF"
    },
    {
     "enum_field_value" : 4,
     "name" : "EVBUFFER_EOL_NUL"
    }
   ],
   "linker_set_key" : "_ZTI18evbuffer_eol_style",
   "name" : "evbuffer_eol_style",
   "referenced_type" : "_ZTI18evbuffer_eol_style",
   "self_type" : "_ZTI18evbuffer_eol_style",
   "size" : 4,
   "source_file" : "/external/libevent/include/event2/buffer.h",
   "underlying_type" : "_ZTIj"
  },
  {
   "alignment" : 4,
   "enum_fields" :
   [
    {
     "enum_field_value" : 1,
     "name" : "BEV_OPT_CLOSE_ON_FREE"
    },
    {
     "enum_field_value" : 2,
     "name" : "BEV_OPT_THREADSAFE"
    },
    {
     "enum_field_value" : 4,
     "name" : "BEV_OPT_DEFER_CALLBACKS"
    },
    {
     "enum_field_value" : 8,
     "name" : "BEV_OPT_UNLOCK_CALLBACKS"
    }
   ],
   "linker_set_key" : "_ZTI19bufferevent_options",
   "name" : "bufferevent_options",
   "referenced_type" : "_ZTI19bufferevent_options",
   "self_type" : "_ZTI19bufferevent_options",
   "size" : 4,
   "source_file" : "/external/libevent/include/event2/bufferevent.h",
   "underlying_type" : "_ZTIj"
  },
  {
   "alignment" : 4,
   "enum_fields" :
   [
    {
     "enum_field_value" : 0,
     "name" : "EVHTTP_REQUEST"
    },
    {
     "enum_field_value" : 1,
     "name" : "EVHTTP_RESPONSE"
    }
   ],
   "linker_set_key" : "_ZTI19evhttp_request_kind",
   "name" : "evhttp_request_kind",
   "referenced_type" : "_ZTI19evhttp_request_kind",
   "self_type" : "_ZTI19evhttp_request_kind",
   "size" : 4,
   "source_file" : "/external/libevent/include/event2/http.h",
   "underlying_type" : "_ZTIj"
  },
  {
   "alignment" : 4,
   "enum_fields" :
   [
    {
     "enum_field_value" : 1,
     "name" : "EV_FEATURE_ET"
    },
    {
     "enum_field_value" : 2,
     "name" : "EV_FEATURE_O1"
    },
    {
     "enum_field_value" : 4,
     "name" : "EV_FEATURE_FDS"
    },
    {
     "enum_field_value" : 8,
     "name" : "EV_FEATURE_EARLY_CLOSE"
    }
   ],
   "linker_set_key" : "_ZTI20event_method_feature",
   "name" : "event_method_feature",
   "referenced_type" : "_ZTI20event_method_feature",
   "self_type" : "_ZTI20event_method_feature",
   "size" : 4,
   "source_file" : "/external/libevent/include/event2/event.h",
   "underlying_type" : "_ZTIj"
  },
  {
   "alignment" : 4,
   "enum_fields" :
   [
    {
     "enum_field_value" : 0,
     "name" : "EVREQ_HTTP_TIMEOUT"
    },
    {
     "enum_field_value" : 1,
     "name" : "EVREQ_HTTP_EOF"
    },
    {
     "enum_field_value" : 2,
     "name" : "EVREQ_HTTP_INVALID_HEADER"
    },
    {
     "enum_field_value" : 3,
     "name" : "EVREQ_HTTP_BUFFER_ERROR"
    },
    {
     "enum_field_value" : 4,
     "name" : "EVREQ_HTTP_REQUEST_CANCEL"
    },
    {
     "enum_field_value" : 5,
     "name" : "EVREQ_HTTP_DATA_TOO_LONG"
    }
   ],
   "linker_set_key" : "_ZTI20evhttp_request_error",
   "name" : "evhttp_request_error",
   "referenced_type" : "_ZTI20evhttp_request_error",
   "self_type" : "_ZTI20evhttp_request_error",
   "size" : 4,
   "source_file" : "/external/libevent/include/event2/http.h",
   "underlying_type" : "_ZTIj"
  },
  {
   "alignment" : 4,
   "enum_fields" :
   [
    {
     "enum_field_value" : 0,
     "name" : "BEV_NORMAL"
    },
    {
     "enum_field_value" : 1,
     "name" : "BEV_FLUSH"
    },
    {
     "enum_field_value" : 2,
     "name" : "BEV_FINISHED"
    }
   ],
   "linker_set_key" : "_ZTI22bufferevent_flush_mode",
   "name" : "bufferevent_flush_mode",
   "referenced_type" : "_ZTI22bufferevent_flush_mode",
   "self_type" : "_ZTI22bufferevent_flush_mode",
   "size" : 4,
   "source_file" : "/external/libevent/include/event2/bufferevent.h",
   "underlying_type" : "_ZTIj"
  },
  {
   "alignment" : 4,
   "enum_fields" :
   [
    {
     "enum_field_value" : 1,
     "name" : "EVENT_BASE_FLAG_NOLOCK"
    },
    {
     "enum_field_value" : 2,
     "name" : "EVENT_BASE_FLAG_IGNORE_ENV"
    },
    {
     "enum_field_value" : 4,
     "name" : "EVENT_BASE_FLAG_STARTUP_IOCP"
    },
    {
     "enum_field_value" : 8,
     "name" : "EVENT_BASE_FLAG_NO_CACHE_TIME"
    },
    {
     "enum_field_value" : 16,
     "name" : "EVENT_BASE_FLAG_EPOLL_USE_CHANGELIST"
    },
    {
     "enum_field_value" : 32,
     "name" : "EVENT_BASE_FLAG_PRECISE_TIMER"
    }
   ],
   "linker_set_key" : "_ZTI22event_base_config_flag",
   "name" : "event_base_config_flag",
   "referenced_type" : "_ZTI22event_base_config_flag",
   "self_type" : "_ZTI22event_base_config_flag",
   "size" : 4,
   "source_file" : "/external/libevent/include/event2/event.h",
   "underlying_type" : "_ZTIj"
  },
  {
   "alignment" : 4,
   "enum_fields" :
   [
    {
     "enum_field_value" : 0,
     "name" : "BEV_OK"
    },
    {
     "enum_field_value" : 1,
     "name" : "BEV_NEED_MORE"
    },
    {
     "enum_field_value" : 2,
     "name" : "BEV_ERROR"
    }
   ],
   "linker_set_key" : "_ZTI25bufferevent_filter_result",
   "name" : "bufferevent_filter_result",
   "referenced_type" : "_ZTI25bufferevent_filter_result",
   "self_type" : "_ZTI25bufferevent_filter_result",
   "size" : 4,
   "source_file" : "/external/libevent/include/event2/bufferevent.h",
   "underlying_type" : "_ZTIj"
  },
  {
   "alignment" : 4,
   "enum_fields" :
   [
    {
     "enum_field_value" : 65536,
     "name" : "BEV_TRIG_IGNORE_WATERMARKS"
    },
    {
     "enum_field_value" : 4,
     "name" : "BEV_TRIG_DEFER_CALLBACKS"
    }
   ],
   "linker_set_key" : "_ZTI27bufferevent_trigger_options",
   "name" : "bufferevent_trigger_options",
   "referenced_type" : "_ZTI27bufferevent_trigger_options",
   "self_type" : "_ZTI27bufferevent_trigger_options",
   "size" : 4,
   "source_file" : "/external/libevent/include/event2/bufferevent.h",
   "underlying_type" : "_ZTIj"
  }
 ],
 "function_types" :
 [
  {
   "alignment" : 4,
   "linker_set_key" : "_ZTIF25bufferevent_filter_resultP8evbufferS1_i22bufferevent_flush_modePvE",
   "name" : "bufferevent_filter_result (evbuffer *, evbuffer *, int, bufferevent_flush_mode, void *)",
   "parameters" :
   [
    {
     "referenced_type" : "_ZTIP8evbuffer"
    },
    {
     "referenced_type" : "_ZTIP8evbuffer"
    },
    {
     "referenced_type" : "_ZTIi"
    },
    {
     "referenced_type" : "_ZTI22bufferevent_flush_mode"
    },
    {
     "referenced_type" : "_ZTIPv"
    }
   ],
   "referenced_type" : "_ZTIF25bufferevent_filter_resultP8evbufferS1_i22bufferevent_flush_modePvE",
   "return_type" : "_ZTI25bufferevent_filter_result",
   "self_type" : "_ZTIF25bufferevent_filter_resultP8evbufferS1_i22bufferevent_flush_modePvE",
   "source_file" : "/external/libevent/include/event2/bufferevent.h"
  },
  {
   "alignment" : 4,
   "linker_set_key" : "_ZTIFP11buffereventP10event_basePvE",
   "name" : "bufferevent *(event_base *, void *)",
   "parameters" :
   [
    {
     "referenced_type" : "_ZTIP10event_base"
    },
    {
     "referenced_type" : "_ZTIPv"
    }
   ],
   "referenced_type" : "_ZTIFP11buffereventP10event_basePvE",
   "return_type" : "_ZTIP11bufferevent",
   "self_type" : "_ZTIFP11buffereventP10event_basePvE",
   "source_file" : "/external/libevent/include/event2/http.h"
  },
  {
   "alignment" : 4,
   "linker_set_key" : "_ZTIFPvS_E",
   "name" : "void *(void *)",
   "parameters" :
   [
    {
     "referenced_type" : "_ZTIPv"
    }
   ],
   "referenced_type" : "_ZTIFPvS_E",
   "return_type" : "_ZTIPv",
   "self_type" : "_ZTIFPvS_E",
   "source_file" : "/external/libevent/include/event2/rpc.h"
  },
  {
   "alignment" : 4,
   "linker_set_key" : "_ZTIFPvS_jE",
   "name" : "void *(void *, unsigned int)",
   "parameters" :
   [
    {
     "referenced_type" : "_ZTIPv"
    },
    {
     "referenced_type" : "_ZTIj"
    }
   ],
   "referenced_type" : "_ZTIFPvS_jE",
   "return_type" : "_ZTIPv",
   "self_type" : "_ZTIFPvS_jE",
   "source_file" : "/external/libevent/include/event2/event.h"
  },
  {
   "alignment" : 4,
   "linker_set_key" : "_ZTIFPvjE",
   "name" : "void *(unsigned int)",
   "parameters" :
   [
    {
     "referenced_type" : "_ZTIj"
    }
   ],
   "referenced_type" : "_ZTIFPvjE",
   "return_type" : "_ZTIPv",
   "self_type" : "_ZTIFPvjE",
   "source_file" : "/external/libevent/include/event2/thread.h"
  },
  {
   "alignment" : 4,
   "linker_set_key" : "_ZTIFiP14evhttp_requestPvE",
   "name" : "int (evhttp_request *, void *)",
   "parameters" :
   [
    {
     "referenced_type" : "_ZTIP14evhttp_request"
    },
    {
     "referenced_type" : "_ZTIPv"
    }
   ],
   "referenced_type" : "_ZTIFiP14evhttp_requestPvE",
   "return_type" : "_ZTIi",
   "self_type" : "_ZTIFiP14evhttp_requestPvE",
   "source_file" : "/external/libevent/include/event2/http_struct.h"
  },
  {
   "alignment" : 4,
   "linker_set_key" : "_ZTIFiPK10event_basePK5eventPvE",
   "name" : "int (const event_base *, const event *, void *)",
   "parameters" :
   [
    {
     "referenced_type" : "_ZTIPK10event_base"
    },
    {
     "referenced_type" : "_ZTIPK5event"
    },
    {
     "referenced_type" : "_ZTIPv"
    }
   ],
   "referenced_type" : "_ZTIFiPK10event_basePK5eventPvE",
   "return_type" : "_ZTIi",
   "self_type" : "_ZTIFiPK10event_basePK5eventPvE",
   "source_file" : "/external/libevent/include/event2/event.h"
  },
  {
   "alignment" : 4,
   "linker_set_key" : "_ZTIFiPvE",
   "name" : "int (void *)",
   "parameters" :
   [
    {
     "referenced_type" : "_ZTIPv"
    }
   ],
   "referenced_type" : "_ZTIFiPvE",
   "return_type" : "_ZTIi",
   "self_type" : "_ZTIFiPvE",
   "source_file" : "/external/libevent/include/event2/rpc.h"
  },
  {
   "alignment" : 4,
   "linker_set_key" : "_ZTIFiPvP14evhttp_requestP8evbufferS_E",
   "name" : "int (void *, evhttp_request *, evbuffer *, void *)",
   "parameters" :
   [
    {
     "referenced_type" : "_ZTIPv"
    },
    {
     "referenced_type" : "_ZTIP14evhttp_request"
    },
    {
     "referenced_type" : "_ZTIP8evbuffer"
    },
    {
     "referenced_type" : "_ZTIPv"
    }
   ],
   "referenced_type" : "_ZTIFiPvP14evhttp_requestP8evbufferS_E",
   "return_type" : "_ZTIi",
   "self_type" : "_ZTIFiPvP14evhttp_requestP8evbufferS_E",
   "source_file" : "/external/libevent/include/event2/rpc.h"
  },
  {
   "alignment" : 4,
   "linker_set_key" : "_ZTIFiPvP8evbufferE",
   "name" : "int (void *, evbuffer *)",
   "parameters" :
   [
    {
     "referenced_type" : "_ZTIPv"
    },
    {
     "referenced_type" : "_ZTIP8evbuffer"
    }
   ],
   "referenced_type" : "_ZTIFiPvP8evbufferE",
   "return_type" : "_ZTIi",
   "self_type" : "_ZTIFiPvP8evbufferE",
   "source_file" : "/external/libevent/include/event2/rpc.h"
  },
  {
   "alignment" : 4,
   "linker_set_key" : "_ZTIFiPvS_PK7timevalE",
   "name" : "int (void *, void *, const timeval *)",
   "parameters" :
   [
    {
     "referenced_type" : "_ZTIPv"
    },
    {
     "referenced_type" : "_ZTIPv"
    },
    {
     "referenced_type" : "_ZTIPK7timeval"
    }
   ],
   "referenced_type" : "_ZTIFiPvS_PK7timevalE",
   "return_type" : "_ZTIi",
   "self_type" : "_ZTIFiPvS_PK7timevalE",
   "source_file" : "/external/libevent/include/event2/thread.h"
  },
  {
   "alignment" : 4,
   "linker_set_key" : "_ZTIFiPviE",
   "name" : "int (void *, int)",
   "parameters" :
   [
    {
     "referenced_type" : "_ZTIPv"
    },
    {
     "referenced_type" : "_ZTIi"
    }
   ],
   "referenced_type" : "_ZTIFiPviE",
   "return_type" : "_ZTIi",
   "self_type" : "_ZTIFiPviE",
   "source_file" : "/external/libevent/include/event2/thread.h"
  },
  {
   "alignment" : 4,
   "linker_set_key" : "_ZTIFijPvE",
   "name" : "int (unsigned int, void *)",
   "parameters" :
   [
    {
     "referenced_type" : "_ZTIj"
    },
    {
     "referenced_type" : "_ZTIPv"
    }
   ],
   "referenced_type" : "_ZTIFijPvE",
   "return_type" : "_ZTIi",
   "self_type" : "_ZTIFijPvE",
   "source_file" : "/external/libevent/include/event2/thread.h"
  },
  {
   "alignment" : 4,
   "linker_set_key" : "_ZTIFmvE",
   "name" : "unsigned long (void)",
   "referenced_type" : "_ZTIFmvE",
   "return_type" : "_ZTIm",
   "self_type" : "_ZTIFmvE",
   "source_file" : "/external/libevent/include/event2/thread.h"
  },
  {
   "alignment" : 4,
   "linker_set_key" : "_ZTIFtvE",
   "name" : "unsigned short (void)",
   "referenced_type" : "_ZTIFtvE",
   "return_type" : "_ZTIt",
   "self_type" : "_ZTIFtvE",
   "source_file" : "/external/libevent/include/event2/dns.h"
  },
  {
   "alignment" : 4,
   "linker_set_key" : "_ZTIFv20evhttp_request_errorPvE",
   "name" : "void (evhttp_request_error, void *)",
   "parameters" :
   [
    {
     "referenced_type" : "_ZTI20evhttp_request_error"
    },
    {
     "referenced_type" : "_ZTIPv"
    }
   ],
   "referenced_type" : "_ZTIFv20evhttp_request_errorPvE",
   "return_type" : "_ZTIv",
   "self_type" : "_ZTIFv20evhttp_request_errorPvE",
   "source_file" : "/external/libevent/include/event2/http_struct.h"
  },
  {
   "alignment" : 4,
   "linker_set_key" : "_ZTIFvP11buffereventPvE",
   "name" : "void (bufferevent *, void *)",
   "parameters" :
   [
    {
     "referenced_type" : "_ZTIP11bufferevent"
    },
    {
     "referenced_type" : "_ZTIPv"
    }
   ],
   "referenced_type" : "_ZTIFvP11buffereventPvE",
   "return_type" : "_ZTIv",
   "self_type" : "_ZTIFvP11buffereventPvE",
   "source_file" : "/external/libevent/include/event2/bufferevent_struct.h"
  },
  {
   "alignment" : 4,
   "linker_set_key" : "_ZTIFvP11buffereventsPvE",
   "name" : "void (bufferevent *, short, void *)",
   "parameters" :
   [
    {
     "referenced_type" : "_ZTIP11bufferevent"
    },
    {
     "referenced_type" : "_ZTIs"
    },
    {
     "referenced_type" : "_ZTIPv"
    }
   ],
   "referenced_type" : "_ZTIFvP11buffereventsPvE",
   "return_type" : "_ZTIv",
   "self_type" : "_ZTIFvP11buffereventsPvE",
   "source_file" : "/external/libevent/include/event2/bufferevent_struct.h"
  },
  {
   "alignment" : 4,
   "linker_set_key" : "_ZTIFvP12evrpc_statusPvS1_S1_E",
   "name" : "void (evrpc_status *, void *, void *, void *)",
   "parameters" :
   [
    {
     "referenced_type" : "_ZTIP12evrpc_status"
    },
    {
     "referenced_type" : "_ZTIPv"
    },
    {
     "referenced_type" : "_ZTIPv"
    },
    {
     "referenced_type" : "_ZTIPv"
    }
   ],
   "referenced_type" : "_ZTIFvP12evrpc_statusPvS1_S1_E",
   "return_type" : "_ZTIv",
   "self_type" : "_ZTIFvP12evrpc_statusPvS1_S1_E",
   "source_file" : "/external/libevent/include/event2/rpc.h"
  },
  {
   "alignment" : 4,
   "linker_set_key" : "_ZTIFvP14evconnlistenerPvE",
   "name" : "void (evconnlistener *, void *)",
   "parameters" :
   [
    {
     "referenced_type" : "_ZTIP14evconnlistener"
    },
    {
     "referenced_type" : "_ZTIPv"
    }
   ],
   "referenced_type" : "_ZTIFvP14evconnlistenerPvE",
   "return_type" : "_ZTIv",
   "self_type" : "_ZTIFvP14evconnlistenerPvE",
   "source_file" : "/external/libevent/include/event2/listener.h"
  },
  {
   "alignment" : 4,
   "linker_set_key" : "_ZTIFvP14evconnlisteneriP8sockaddriPvE",
   "name" : "void (evconnlistener *, int, sockaddr *, int, void *)",
   "parameters" :
   [
    {
     "referenced_type" : "_ZTIP14evconnlistener"
    },
    {
     "referenced_type" : "_ZTIi"
    },
    {
     "referenced_type" : "_ZTIP8sockaddr"
    },
    {
     "referenced_type" : "_ZTIi"
    },
    {
     "referenced_type" : "_ZTIPv"
    }
   ],
   "referenced_type" : "_ZTIFvP14evconnlisteneriP8sockaddriPvE",
   "return_type" : "_ZTIv",
   "self_type" : "_ZTIFvP14evconnlisteneriP8sockaddriPvE",
   "source_file" : "/external/libevent/include/event2/listener.h"
  },
  {
   "alignment" : 4,
   "linker_set_key" : "_ZTIFvP14event_callbackPvE",
   "name" : "void (event_callback *, void *)",
   "parameters" :
   [
    {
     "referenced_type" : "_ZTIP14event_callback"
    },
    {
     "referenced_type" : "_ZTIPv"
    }
   ],
   "referenced_type" : "_ZTIFvP14event_callbackPvE",
   "return_type" : "_ZTIv",
   "self_type" : "_ZTIFvP14event_callbackPvE",
   "source_file" : "/external/libevent/include/event2/event_struct.h"
  },
  {
   "alignment" : 4,
   "linker_set_key" : "_ZTIFvP14evhttp_requestPvE",
   "name" : "void (evhttp_request *, void *)",
   "parameters" :
   [
    {
     "referenced_type" : "_ZTIP14evhttp_request"
    },
    {
     "referenced_type" : "_ZTIPv"
    }
   ],
   "referenced_type" : "_ZTIFvP14evhttp_requestPvE",
   "return_type" : "_ZTIv",
   "self_type" : "_ZTIFvP14evhttp_requestPvE",
   "source_file" : "/external/libevent/include/event2/http_struct.h"
  },
  {
   "alignment" : 4,
   "linker_set_key" : "_ZTIFvP17evhttp_connectionPvE",
   "name" : "void (evhttp_connection *, void *)",
   "parameters" :
   [
    {
     "referenced_type" : "_ZTIP17evhttp_connection"
    },
    {
     "referenced_type" : "_ZTIPv"
    }
   ],
   "referenced_type" : "_ZTIFvP17evhttp_connectionPvE",
   "return_type" : "_ZTIv",
   "self_type" : "_ZTIFvP17evhttp_connectionPvE",
   "source_file" : "/external/libevent/include/event2/http.h"
  },
  {
   "alignment" : 4,
   "linker_set_key" : "_ZTIFvP17evrpc_req_genericPvE",
   "name" : "void (evrpc_req_generic *, void *)",
   "parameters" :
   [
    {
     "referenced_type" : "_ZTIP17evrpc_req_generic"
    },
    {
     "referenced_type" : "_ZTIPv"
    }
   ],
   "referenced_type" : "_ZTIFvP17evrpc_req_genericPvE",
   "return_type" : "_ZTIv",
   "self_type" : "_ZTIFvP17evrpc_req_genericPvE",
   "source_file" : "/external/libevent/include/event2/rpc.h"
  },
  {
   "alignment" : 4,
   "linker_set_key" : "_ZTIFvP19evhttp_bound_socketPvE",
   "name" : "void (evhttp_bound_socket *, void *)",
   "parameters" :
   [
    {
     "referenced_type" : "_ZTIP19evhttp_bound_socket"
    },
    {
     "referenced_type" : "_ZTIPv"
    }
   ],
   "referenced_type" : "_ZTIFvP19evhttp_bound_socketPvE",
   "return_type" : "_ZTIv",
   "self_type" : "_ZTIFvP19evhttp_bound_socketPvE",
   "source_file" : "/external/libevent/include/event2/http.h"
  },
  {
   "alignment" : 4,
   "linker_set_key" : "_ZTIFvP20evdns_server_requestPvE",
   "name" : "void (evdns_server_request *, void *)",
   "parameters" :
   [
    {
     "referenced_type" : "_ZTIP20evdns_server_request"
    },
    {
     "referenced_type" : "_ZTIPv"
    }
   ],
   "referenced_type" : "_ZTIFvP20evdns_server_requestPvE",
   "return_type" : "_ZTIv",
   "self_type" : "_ZTIFvP20evdns_server_requestPvE",
   "source_file" : "/external/libevent/include/event2/dns.h"
  },
  {
   "alignment" : 4,
   "linker_set_key" : "_ZTIFvP5eventPvE",
   "name" : "void (event *, void *)",
   "parameters" :
   [
    {
     "referenced_type" : "_ZTIP5event"
    },
    {
     "referenced_type" : "_ZTIPv"
    }
   ],
   "referenced_type" : "_ZTIFvP5eventPvE",
   "return_type" : "_ZTIv",
   "self_type" : "_ZTIFvP5eventPvE",
   "source_file" : "/external/libevent/include/event2/event_struct.h"
  },
  {
   "alignment" : 4,
   "linker_set_key" : "_ZTIFvP8evbufferPK16evbuffer_cb_infoPvE",
   "name" : "void (evbuffer *, const evbuffer_cb_info *, void *)",
   "parameters" :
   [
    {
     "referenced_type" : "_ZTIP8evbuffer"
    },
    {
     "referenced_type" : "_ZTIPK16evbuffer_cb_info"
    },
    {
     "referenced_type" : "_ZTIPv"
    }
   ],
   "referenced_type" : "_ZTIFvP8evbufferPK16evbuffer_cb_infoPvE",
   "return_type" : "_ZTIv",
   "self_type" : "_ZTIFvP8evbufferPK16evbuffer_cb_infoPvE",
   "source_file" : "/external/libevent/include/event2/buffer.h"
  },
  {
   "alignment" : 4,
   "linker_set_key" : "_ZTIFvP8evbufferPvE",
   "name" : "void (evbuffer *, void *)",
   "parameters" :
   [
    {
     "referenced_type" : "_ZTIP8evbuffer"
    },
    {
     "referenced_type" : "_ZTIPv"
    }
   ],
   "referenced_type" : "_ZTIFvP8evbufferPvE",
   "return_type" : "_ZTIv",
   "self_type" : "_ZTIFvP8evbufferPvE",
   "source_file" : "/external/libevent/include/event2/rpc.h"
  },
  {
   "alignment" : 4,
   "linker_set_key" : "_ZTIFvP8evbufferjjPvE",
   "name" : "void (evbuffer *, unsigned int, unsigned int, void *)",
   "parameters" :
   [
    {
     "referenced_type" : "_ZTIP8evbuffer"
    },
    {
     "referenced_type" : "_ZTIj"
    },
    {
     "referenced_type" : "_ZTIj"
    },
    {
     "referenced_type" : "_ZTIPv"
    }
   ],
   "referenced_type" : "_ZTIFvP8evbufferjjPvE",
   "return_type" : "_ZTIv",
   "self_type" : "_ZTIFvP8evbufferjjPvE",
   "source_file" : "/external/libevent/include/event2/buffer_compat.h"
  },
  {
   "alignment" : 4,
   "linker_set_key" : "_ZTIFvPK21evbuffer_file_segmentiPvE",
   "name" : "void (const evbuffer_file_segment *, int, void *)",
   "parameters" :
   [
    {
     "referenced_type" : "_ZTIPK21evbuffer_file_segment"
    },
    {
     "referenced_type" : "_ZTIi"
    },
    {
     "referenced_type" : "_ZTIPv"
    }
   ],
   "referenced_type" : "_ZTIFvPK21evbuffer_file_segmentiPvE",
   "return_type" : "_ZTIv",
   "self_type" : "_ZTIFvPK21evbuffer_file_segmentiPvE",
   "source_file" : "/external/libevent/include/event2/buffer.h"
  },
  {
   "alignment" : 4,
   "linker_set_key" : "_ZTIFvPKvjPvE",
   "name" : "void (const void *, unsigned int, void *)",
   "parameters" :
   [
    {
     "referenced_type" : "_ZTIPKv"
    },
    {
     "referenced_type" : "_ZTIj"
    },
    {
     "referenced_type" : "_ZTIPv"
    }
   ],
   "referenced_type" : "_ZTIFvPKvjPvE",
   "return_type" : "_ZTIv",
   "self_type" : "_ZTIFvPKvjPvE",
   "source_file" : "/external/libevent/include/event2/buffer.h"
  },
  {
   "alignment" : 4,
   "linker_set_key" : "_ZTIFvPcjE",
   "name" : "void (char *, unsigned int)",
   "parameters" :
   [
    {
     "referenced_type" : "_ZTIPc"
    },
    {
     "referenced_type" : "_ZTIj"
    }
   ],
   "referenced_type" : "_ZTIFvPcjE",
   "return_type" : "_ZTIv",
   "self_type" : "_ZTIFvPcjE",
   "source_file" : "/external/libevent/include/event2/dns.h"
  },
  {
   "alignment" : 4,
   "linker_set_key" : "_ZTIFvPvE",
   "name" : "void (void *)",
   "parameters" :
   [
    {
     "referenced_type" : "_ZTIPv"
    }
   ],
   "referenced_type" : "_ZTIFvPvE",
   "return_type" : "_ZTIv",
   "self_type" : "_ZTIFvPvE",
   "source_file" : "/external/libevent/include/event2/thread.h"
  },
  {
   "alignment" : 4,
   "linker_set_key" : "_ZTIFvPvjE",
   "name" : "void (void *, unsigned int)",
   "parameters" :
   [
    {
     "referenced_type" : "_ZTIPv"
    },
    {
     "referenced_type" : "_ZTIj"
    }
   ],
   "referenced_type" : "_ZTIFvPvjE",
   "return_type" : "_ZTIv",
   "self_type" : "_ZTIFvPvjE",
   "source_file" : "/external/libevent/include/event2/thread.h"
  },
  {
   "alignment" : 4,
   "linker_set_key" : "_ZTIFviE",
   "name" : "void (int)",
   "parameters" :
   [
    {
     "referenced_type" : "_ZTIi"
    }
   ],
   "referenced_type" : "_ZTIFviE",
   "return_type" : "_ZTIv",
   "self_type" : "_ZTIFviE",
   "source_file" : "/external/libevent/include/event2/event.h"
  },
  {
   "alignment" : 4,
   "linker_set_key" : "_ZTIFviP8addrinfoPvE",
   "name" : "void (int, addrinfo *, void *)",
   "parameters" :
   [
    {
     "referenced_type" : "_ZTIi"
    },
    {
     "referenced_type" : "_ZTIP8addrinfo"
    },
    {
     "referenced_type" : "_ZTIPv"
    }
   ],
   "referenced_type" : "_ZTIFviP8addrinfoPvE",
   "return_type" : "_ZTIv",
   "self_type" : "_ZTIFviP8addrinfoPvE",
   "source_file" : "/external/libevent/include/event2/dns.h"
  },
  {
   "alignment" : 4,
   "linker_set_key" : "_ZTIFviPKcE",
   "name" : "void (int, const char *)",
   "parameters" :
   [
    {
     "referenced_type" : "_ZTIi"
    },
    {
     "referenced_type" : "_ZTIPKc"
    }
   ],
   "referenced_type" : "_ZTIFviPKcE",
   "return_type" : "_ZTIv",
   "self_type" : "_ZTIFviPKcE",
   "source_file" : "/external/libevent/include/event2/event.h"
  },
  {
   "alignment" : 4,
   "linker_set_key" : "_ZTIFviciiPvS_E",
   "name" : "void (int, char, int, int, void *, void *)",
   "parameters" :
   [
    {
     "referenced_type" : "_ZTIi"
    },
    {
     "referenced_type" : "_ZTIc"
    },
    {
     "referenced_type" : "_ZTIi"
    },
    {
     "referenced_type" : "_ZTIi"
    },
    {
     "referenced_type" : "_ZTIPv"
    },
    {
     "referenced_type" : "_ZTIPv"
    }
   ],
   "referenced_type" : "_ZTIFviciiPvS_E",
   "return_type" : "_ZTIv",
   "self_type" : "_ZTIFviciiPvS_E",
   "source_file" : "/external/libevent/include/event2/dns.h"
  },
  {
   "alignment" : 4,
   "linker_set_key" : "_ZTIFvisPvE",
   "name" : "void (int, short, void *)",
   "parameters" :
   [
    {
     "referenced_type" : "_ZTIi"
    },
    {
     "referenced_type" : "_ZTIs"
    },
    {
     "referenced_type" : "_ZTIPv"
    }
   ],
   "referenced_type" : "_ZTIFvisPvE",
   "return_type" : "_ZTIv",
   "self_type" : "_ZTIFvisPvE",
   "source_file" : "/external/libevent/include/event2/event_struct.h"
  }
 ],
 "functions" :
 [
  {
   "function_name" : "bufferevent_add_to_rate_limit_group",
   "linker_set_key" : "bufferevent_add_to_rate_limit_group",
   "parameters" :
   [
    {
     "referenced_type" : "_ZTIP11bufferevent"
    },
    {
     "referenced_type" : "_ZTIP28bufferevent_rate_limit_group"
    }
   ],
   "return_type" : "_ZTIi",
   "source_file" : "/external/libevent/include/event2/bufferevent.h"
  },
  {
   "function_name" : "bufferevent_base_set",
   "linker_set_key" : "bufferevent_base_set",
   "parameters" :
   [
    {
     "referenced_type" : "_ZTIP10event_base"
    },
    {
     "referenced_type" : "_ZTIP11bufferevent"
    }
   ],
   "return_type" : "_ZTIi",
   "source_file" : "/external/libevent/include/event2/bufferevent.h"
  },
  {
   "function_name" : "bufferevent_decref",
   "linker_set_key" : "bufferevent_decref",
   "parameters" :
   [
    {
     "referenced_type" : "_ZTIP11bufferevent"
    }
   ],
   "return_type" : "_ZTIi",
   "source_file" : "/external/libevent/include/event2/bufferevent.h"
  },
  {
   "function_name" : "bufferevent_decrement_read_limit",
   "linker_set_key" : "bufferevent_decrement_read_limit",
   "parameters" :
   [
    {
     "referenced_type" : "_ZTIP11bufferevent"
    },
    {
     "referenced_type" : "_ZTIi"
    }
   ],
   "return_type" : "_ZTIi",
   "source_file" : "/external/libevent/include/event2/bufferevent.h"
  },
  {
   "function_name" : "bufferevent_decrement_write_limit",
   "linker_set_key" : "bufferevent_decrement_write_limit",
   "parameters" :
   [
    {
     "referenced_type" : "_ZTIP11bufferevent"
    },
    {
     "referenced_type" : "_ZTIi"
    }
   ],
   "return_type" : "_ZTIi",
   "source_file" : "/external/libevent/include/event2/bufferevent.h"
  },
  {
   "function_name" : "bufferevent_disable",
   "linker_set_key" : "bufferevent_disable",
   "parameters" :
   [
    {
     "referenced_type" : "_ZTIP11bufferevent"
    },
    {
     "referenced_type" : "_ZTIs"
    }
   ],
   "return_type" : "_ZTIi",
   "source_file" : "/external/libevent/include/event2/bufferevent.h"
  },
  {
   "function_name" : "bufferevent_enable",
   "linker_set_key" : "bufferevent_enable",
   "parameters" :
   [
    {
     "referenced_type" : "_ZTIP11bufferevent"
    },
    {
     "referenced_type" : "_ZTIs"
    }
   ],
   "return_type" : "_ZTIi",
   "source_file" : "/external/libevent/include/event2/bufferevent.h"
  },
  {
   "function_name" : "bufferevent_filter_new",
   "linker_set_key" : "bufferevent_filter_new",
   "parameters" :
   [
    {
     "referenced_type" : "_ZTIP11bufferevent"
    },
    {
     "referenced_type" : "_ZTIPF25bufferevent_filter_resultP8evbufferS1_i22bufferevent_flush_modePvE"
    },
    {
     "referenced_type" : "_ZTIPF25bufferevent_filter_resultP8evbufferS1_i22bufferevent_flush_modePvE"
    },
    {
     "referenced_type" : "_ZTIi"
    },
    {
     "referenced_type" : "_ZTIPFvPvE"
    },
    {
     "referenced_type" : "_ZTIPv"
    }
   ],
   "return_type" : "_ZTIP11bufferevent",
   "source_file" : "/external/libevent/include/event2/bufferevent.h"
  },
  {
   "function_name" : "bufferevent_flush",
   "linker_set_key" : "bufferevent_flush",
   "parameters" :
   [
    {
     "referenced_type" : "_ZTIP11bufferevent"
    },
    {
     "referenced_type" : "_ZTIs"
    },
    {
     "referenced_type" : "_ZTI22bufferevent_flush_mode"
    }
   ],
   "return_type" : "_ZTIi",
   "source_file" : "/external/libevent/include/event2/bufferevent.h"
  },
  {
   "function_name" : "bufferevent_free",
   "linker_set_key" : "bufferevent_free",
   "parameters" :
   [
    {
     "referenced_type" : "_ZTIP11bufferevent"
    }
   ],
   "return_type" : "_ZTIv",
   "source_file" : "/external/libevent/include/event2/bufferevent.h"
  },
  {
   "function_name" : "bufferevent_get_base",
   "linker_set_key" : "bufferevent_get_base",
   "parameters" :
   [
    {
     "referenced_type" : "_ZTIP11bufferevent"
    }
   ],
   "return_type" : "_ZTIP10event_base",
   "source_file" : "/external/libevent/include/event2/bufferevent.h"
  },
  {
   "function_name" : "bufferevent_get_enabled",
   "linker_set_key" : "bufferevent_get_enabled",
   "parameters" :
   [
    {
     "referenced_type" : "_ZTIP11bufferevent"
    }
   ],
   "return_type" : "_ZTIs",
   "source_file" : "/external/libevent/include/event2/bufferevent.h"
  },
  {
   "function_name" : "bufferevent_get_input",
   "linker_set_key" : "bufferevent_get_input",
   "parameters" :
   [
    {
     "referenced_type" : "_ZTIP11bufferevent"
    }
   ],
   "return_type" : "_ZTIP8evbuffer",
   "source_file" : "/external/libevent/include/event2/bufferevent.h"
  },
  {
   "function_name" : "bufferevent_get_max_single_read",
   "linker_set_key" : "bufferevent_get_max_single_read",
   "parameters" :
   [
    {
     "referenced_type" : "_ZTIP11bufferevent"
    }
   ],
   "return_type" : "_ZTIi",
   "source_file" : "/external/libevent/include/event2/bufferevent.h"
  },
  {
   "function_name" : "bufferevent_get_max_single_write",
   "linker_set_key" : "bufferevent_get_max_single_write",
   "parameters" :
   [
    {
     "referenced_type" : "_ZTIP11bufferevent"
    }
   ],
   "return_type" : "_ZTIi",
   "source_file" : "/external/libevent/include/event2/bufferevent.h"
  },
  {
   "function_name" : "bufferevent_get_max_to_read",
   "linker_set_key" : "bufferevent_get_max_to_read",
   "parameters" :
   [
    {
     "referenced_type" : "_ZTIP11bufferevent"
    }
   ],
   "return_type" : "_ZTIi",
   "source_file" : "/external/libevent/include/event2/bufferevent.h"
  },
  {
   "function_name" : "bufferevent_get_max_to_write",
   "linker_set_key" : "bufferevent_get_max_to_write",
   "parameters" :
   [
    {
     "referenced_type" : "_ZTIP11bufferevent"
    }
   ],
   "return_type" : "_ZTIi",
   "source_file" : "/external/libevent/include/event2/bufferevent.h"
  },
  {
   "function_name" : "bufferevent_get_output",
   "linker_set_key" : "bufferevent_get_output",
   "parameters" :
   [
    {
     "referenced_type" : "_ZTIP11bufferevent"
    }
   ],
   "return_type" : "_ZTIP8evbuffer",
   "source_file" : "/external/libevent/include/event2/bufferevent.h"
  },
  {
   "function_name" : "bufferevent_get_priority",
   "linker_set_key" : "bufferevent_get_priority",
   "parameters" :
   [
    {
     "referenced_type" : "_ZTIPK11bufferevent"
    }
   ],
   "return_type" : "_ZTIi",
   "source_file" : "/external/libevent/include/event2/bufferevent.h"
  },
  {
   "function_name" : "bufferevent_get_read_limit",
   "linker_set_key" : "bufferevent_get_read_limit",
   "parameters" :
   [
    {
     "referenced_type" : "_ZTIP11bufferevent"
    }
   ],
   "return_type" : "_ZTIi",
   "source_file" : "/external/libevent/include/event2/bufferevent.h"
  },
  {
   "function_name" : "bufferevent_get_token_bucket_cfg",
   "linker_set_key" : "bufferevent_get_token_bucket_cfg",
   "parameters" :
   [
    {
     "referenced_type" : "_ZTIPK11bufferevent"
    }
   ],
   "return_type" : "_ZTIPK19ev_token_bucket_cfg",
   "source_file" : "/external/libevent/include/event2/bufferevent.h"
  },
  {
   "function_name" : "bufferevent_get_underlying",
   "linker_set_key" : "bufferevent_get_underlying",
   "parameters" :
   [
    {
     "referenced_type" : "_ZTIP11bufferevent"
    }
   ],
   "return_type" : "_ZTIP11bufferevent",
   "source_file" : "/external/libevent/include/event2/bufferevent.h"
  },
  {
   "function_name" : "bufferevent_get_write_limit",
   "linker_set_key" : "bufferevent_get_write_limit",
   "parameters" :
   [
    {
     "referenced_type" : "_ZTIP11bufferevent"
    }
   ],
   "return_type" : "_ZTIi",
   "source_file" : "/external/libevent/include/event2/bufferevent.h"
  },
  {
   "function_name" : "bufferevent_getcb",
   "linker_set_key" : "bufferevent_getcb",
   "parameters" :
   [
    {
     "referenced_type" : "_ZTIP11bufferevent"
    },
    {
     "referenced_type" : "_ZTIPPFvP11buffereventPvE"
    },
    {
     "referenced_type" : "_ZTIPPFvP11buffereventPvE"
    },
    {
     "referenced_type" : "_ZTIPPFvP11buffereventsPvE"
    },
    {
     "referenced_type" : "_ZTIPPv"
    }
   ],
   "return_type" : "_ZTIv",
   "source_file" : "/external/libevent/include/event2/bufferevent.h"
  },
  {
   "function_name" : "bufferevent_getfd",
   "linker_set_key" : "bufferevent_getfd",
   "parameters" :
   [
    {
     "referenced_type" : "_ZTIP11bufferevent"
    }
   ],
   "return_type" : "_ZTIi",
   "source_file" : "/external/libevent/include/event2/bufferevent.h"
  },
  {
   "function_name" : "bufferevent_getwatermark",
   "linker_set_key" : "bufferevent_getwatermark",
   "parameters" :
   [
    {
     "referenced_type" : "_ZTIP11bufferevent"
    },
    {
     "referenced_type" : "_ZTIs"
    },
    {
     "referenced_type" : "_ZTIPj"
    },
    {
     "referenced_type" : "_ZTIPj"
    }
   ],
   "return_type" : "_ZTIi",
   "source_file" : "/external/libevent/include/event2/bufferevent.h"
  },
  {
   "function_name" : "bufferevent_incref",
   "linker_set_key" : "bufferevent_incref",
   "parameters" :
   [
    {
     "referenced_type" : "_ZTIP11bufferevent"
    }
   ],
   "return_type" : "_ZTIv",
   "source_file" : "/external/libevent/include/event2/bufferevent.h"
  },
  {
   "function_name" : "bufferevent_lock",
   "linker_set_key" : "bufferevent_lock",
   "parameters" :
   [
    {
     "referenced_type" : "_ZTIP11bufferevent"
    }
   ],
   "return_type" : "_ZTIv",
   "source_file" : "/external/libevent/include/event2/bufferevent.h"
  },
  {
   "function_name" : "bufferevent_new",
   "linker_set_key" : "bufferevent_new",
   "parameters" :
   [
    {
     "referenced_type" : "_ZTIi"
    },
    {
     "referenced_type" : "_ZTIPFvP11buffereventPvE"
    },
    {
     "referenced_type" : "_ZTIPFvP11buffereventPvE"
    },
    {
     "referenced_type" : "_ZTIPFvP11buffereventsPvE"
    },
    {
     "referenced_type" : "_ZTIPv"
    }
   ],
   "return_type" : "_ZTIP11bufferevent",
   "source_file" : "/external/libevent/include/event2/bufferevent_compat.h"
  },
  {
   "function_name" : "bufferevent_pair_get_partner",
   "linker_set_key" : "bufferevent_pair_get_partner",
   "parameters" :
   [
    {
     "referenced_type" : "_ZTIP11bufferevent"
    }
   ],
   "return_type" : "_ZTIP11bufferevent",
   "source_file" : "/external/libevent/include/event2/bufferevent.h"
  },
  {
   "function_name" : "bufferevent_pair_new",
   "linker_set_key" : "bufferevent_pair_new",
   "parameters" :
   [
    {
     "referenced_type" : "_ZTIP10event_base"
    },
    {
     "referenced_type" : "_ZTIi"
    },
    {
     "referenced_type" : "_ZTIPP11bufferevent"
    }
   ],
   "return_type" : "_ZTIi",
   "source_file" : "/external/libevent/include/event2/bufferevent.h"
  },
  {
   "function_name" : "bufferevent_priority_set",
   "linker_set_key" : "bufferevent_priority_set",
   "parameters" :
   [
    {
     "referenced_type" : "_ZTIP11bufferevent"
    },
    {
     "referenced_type" : "_ZTIi"
    }
   ],
   "return_type" : "_ZTIi",
   "source_file" : "/external/libevent/include/event2/bufferevent.h"
  },
  {
   "function_name" : "bufferevent_rate_limit_group_decrement_read",
   "linker_set_key" : "bufferevent_rate_limit_group_decrement_read",
   "parameters" :
   [
    {
     "referenced_type" : "_ZTIP28bufferevent_rate_limit_group"
    },
    {
     "referenced_type" : "_ZTIi"
    }
   ],
   "return_type" : "_ZTIi",
   "source_file" : "/external/libevent/include/event2/bufferevent.h"
  },
  {
   "function_name" : "bufferevent_rate_limit_group_decrement_write",
   "linker_set_key" : "bufferevent_rate_limit_group_decrement_write",
   "parameters" :
   [
    {
     "referenced_type" : "_ZTIP28bufferevent_rate_limit_group"
    },
    {
     "referenced_type" : "_ZTIi"
    }
   ],
   "return_type" : "_ZTIi",
   "source_file" : "/external/libevent/include/event2/bufferevent.h"
  },
  {
   "function_name" : "bufferevent_rate_limit_group_free",
   "linker_set_key" : "bufferevent_rate_limit_group_free",
   "parameters" :
   [
    {
     "referenced_type" : "_ZTIP28bufferevent_rate_limit_group"
    }
   ],
   "return_type" : "_ZTIv",
   "source_file" : "/external/libevent/include/event2/bufferevent.h"
  },
  {
   "function_name" : "bufferevent_rate_limit_group_get_read_limit",
   "linker_set_key" : "bufferevent_rate_limit_group_get_read_limit",
   "parameters" :
   [
    {
     "referenced_type" : "_ZTIP28bufferevent_rate_limit_group"
    }
   ],
   "return_type" : "_ZTIi",
   "source_file" : "/external/libevent/include/event2/bufferevent.h"
  },
  {
   "function_name" : "bufferevent_rate_limit_group_get_totals",
   "linker_set_key" : "bufferevent_rate_limit_group_get_totals",
   "parameters" :
   [
    {
     "referenced_type" : "_ZTIP28bufferevent_rate_limit_group"
    },
    {
     "referenced_type" : "_ZTIPy"
    },
    {
     "referenced_type" : "_ZTIPy"
    }
   ],
   "return_type" : "_ZTIv",
   "source_file" : "/external/libevent/include/event2/bufferevent.h"
  },
  {
   "function_name" : "bufferevent_rate_limit_group_get_write_limit",
   "linker_set_key" : "bufferevent_rate_limit_group_get_write_limit",
   "parameters" :
   [
    {
     "referenced_type" : "_ZTIP28bufferevent_rate_limit_group"
    }
   ],
   "return_type" : "_ZTIi",
   "source_file" : "/external/libevent/include/event2/bufferevent.h"
  },
  {
   "function_name" : "bufferevent_rate_limit_group_new",
   "linker_set_key" : "bufferevent_rate_limit_group_new",
   "parameters" :
   [
    {
     "referenced_type" : "_ZTIP10event_base"
    },
    {
     "referenced_type" : "_ZTIPK19ev_token_bucket_cfg"
    }
   ],
   "return_type" : "_ZTIP28bufferevent_rate_limit_group",
   "source_file" : "/external/libevent/include/event2/bufferevent.h"
  },
  {
   "function_name" : "bufferevent_rate_limit_group_reset_totals",
   "linker_set_key" : "bufferevent_rate_limit_group_reset_totals",
   "parameters" :
   [
    {
     "referenced_type" : "_ZTIP28bufferevent_rate_limit_group"
    }
   ],
   "return_type" : "_ZTIv",
   "source_file" : "/external/libevent/include/event2/bufferevent.h"
  },
  {
   "function_name" : "bufferevent_rate_limit_group_set_cfg",
   "linker_set_key" : "bufferevent_rate_limit_group_set_cfg",
   "parameters" :
   [
    {
     "referenced_type" : "_ZTIP28bufferevent_rate_limit_group"
    },
    {
     "referenced_type" : "_ZTIPK19ev_token_bucket_cfg"
    }
   ],
   "return_type" : "_ZTIi",
   "source_file" : "/external/libevent/include/event2/bufferevent.h"
  },
  {
   "function_name" : "bufferevent_rate_limit_group_set_min_share",
   "linker_set_key" : "bufferevent_rate_limit_group_set_min_share",
   "parameters" :
   [
    {
     "referenced_type" : "_ZTIP28bufferevent_rate_limit_group"
    },
    {
     "referenced_type" : "_ZTIj"
    }
   ],
   "return_type" : "_ZTIi",
   "source_file" : "/external/libevent/include/event2/bufferevent.h"
  },
  {
   "function_name" : "bufferevent_read",
   "linker_set_key" : "bufferevent_read",
   "parameters" :
   [
    {
     "referenced_type" : "_ZTIP11bufferevent"
    },
    {
     "referenced_type" : "_ZTIPv"
    },
    {
     "referenced_type" : "_ZTIj"
    }
   ],
   "return_type" : "_ZTIj",
   "source_file" : "/external/libevent/include/event2/bufferevent.h"
  },
  {
   "function_name" : "bufferevent_read_buffer",
   "linker_set_key" : "bufferevent_read_buffer",
   "parameters" :
   [
    {
     "referenced_type" : "_ZTIP11bufferevent"
    },
    {
     "referenced_type" : "_ZTIP8evbuffer"
    }
   ],
   "return_type" : "_ZTIi",
   "source_file" : "/external/libevent/include/event2/bufferevent.h"
  },
  {
   "function_name" : "bufferevent_remove_from_rate_limit_group",
   "linker_set_key" : "bufferevent_remove_from_rate_limit_group",
   "parameters" :
   [
    {
     "referenced_type" : "_ZTIP11bufferevent"
    }
   ],
   "return_type" : "_ZTIi",
   "source_file" : "/external/libevent/include/event2/bufferevent.h"
  },
  {
   "function_name" : "bufferevent_set_max_single_read",
   "linker_set_key" : "bufferevent_set_max_single_read",
   "parameters" :
   [
    {
     "referenced_type" : "_ZTIP11bufferevent"
    },
    {
     "referenced_type" : "_ZTIj"
    }
   ],
   "return_type" : "_ZTIi",
   "source_file" : "/external/libevent/include/event2/bufferevent.h"
  },
  {
   "function_name" : "bufferevent_set_max_single_write",
   "linker_set_key" : "bufferevent_set_max_single_write",
   "parameters" :
   [
    {
     "referenced_type" : "_ZTIP11bufferevent"
    },
    {
     "referenced_type" : "_ZTIj"
    }
   ],
   "return_type" : "_ZTIi",
   "source_file" : "/external/libevent/include/event2/bufferevent.h"
  },
  {
   "function_name" : "bufferevent_set_rate_limit",
   "linker_set_key" : "bufferevent_set_rate_limit",
   "parameters" :
   [
    {
     "referenced_type" : "_ZTIP11bufferevent"
    },
    {
     "referenced_type" : "_ZTIP19ev_token_bucket_cfg"
    }
   ],
   "return_type" : "_ZTIi",
   "source_file" : "/external/libevent/include/event2/bufferevent.h"
  },
  {
   "function_name" : "bufferevent_set_timeouts",
   "linker_set_key" : "bufferevent_set_timeouts",
   "parameters" :
   [
    {
     "referenced_type" : "_ZTIP11bufferevent"
    },
    {
     "referenced_type" : "_ZTIPK7timeval"
    },
    {
     "referenced_type" : "_ZTIPK7timeval"
    }
   ],
   "return_type" : "_ZTIi",
   "source_file" : "/external/libevent/include/event2/bufferevent.h"
  },
  {
   "function_name" : "bufferevent_setcb",
   "linker_set_key" : "bufferevent_setcb",
   "parameters" :
   [
    {
     "referenced_type" : "_ZTIP11bufferevent"
    },
    {
     "referenced_type" : "_ZTIPFvP11buffereventPvE"
    },
    {
     "referenced_type" : "_ZTIPFvP11buffereventPvE"
    },
    {
     "referenced_type" : "_ZTIPFvP11buffereventsPvE"
    },
    {
     "referenced_type" : "_ZTIPv"
    }
   ],
   "return_type" : "_ZTIv",
   "source_file" : "/external/libevent/include/event2/bufferevent.h"
  },
  {
   "function_name" : "bufferevent_setfd",
   "linker_set_key" : "bufferevent_setfd",
   "parameters" :
   [
    {
     "referenced_type" : "_ZTIP11bufferevent"
    },
    {
     "referenced_type" : "_ZTIi"
    }
   ],
   "return_type" : "_ZTIi",
   "source_file" : "/external/libevent/include/event2/bufferevent.h"
  },
  {
   "function_name" : "bufferevent_settimeout",
   "linker_set_key" : "bufferevent_settimeout",
   "parameters" :
   [
    {
     "referenced_type" : "_ZTIP11bufferevent"
    },
    {
     "referenced_type" : "_ZTIi"
    },
    {
     "referenced_type" : "_ZTIi"
    }
   ],
   "return_type" : "_ZTIv",
   "source_file" : "/external/libevent/include/event2/bufferevent_compat.h"
  },
  {
   "function_name" : "bufferevent_setwatermark",
   "linker_set_key" : "bufferevent_setwatermark",
   "parameters" :
   [
    {
     "referenced_type" : "_ZTIP11bufferevent"
    },
    {
     "referenced_type" : "_ZTIs"
    },
    {
     "referenced_type" : "_ZTIj"
    },
    {
     "referenced_type" : "_ZTIj"
    }
   ],
   "return_type" : "_ZTIv",
   "source_file" : "/external/libevent/include/event2/bufferevent.h"
  },
  {
   "function_name" : "bufferevent_socket_connect",
   "linker_set_key" : "bufferevent_socket_connect",
   "parameters" :
   [
    {
     "referenced_type" : "_ZTIP11bufferevent"
    },
    {
     "referenced_type" : "_ZTIPK8sockaddr"
    },
    {
     "referenced_type" : "_ZTIi"
    }
   ],
   "return_type" : "_ZTIi",
   "source_file" : "/external/libevent/include/event2/bufferevent.h"
  },
  {
   "function_name" : "bufferevent_socket_connect_hostname",
   "linker_set_key" : "bufferevent_socket_connect_hostname",
   "parameters" :
   [
    {
     "referenced_type" : "_ZTIP11bufferevent"
    },
    {
     "referenced_type" : "_ZTIP10evdns_base"
    },
    {
     "referenced_type" : "_ZTIi"
    },
    {
     "referenced_type" : "_ZTIPKc"
    },
    {
     "referenced_type" : "_ZTIi"
    }
   ],
   "return_type" : "_ZTIi",
   "source_file" : "/external/libevent/include/event2/bufferevent.h"
  },
  {
   "function_name" : "bufferevent_socket_get_dns_error",
   "linker_set_key" : "bufferevent_socket_get_dns_error",
   "parameters" :
   [
    {
     "referenced_type" : "_ZTIP11bufferevent"
    }
   ],
   "return_type" : "_ZTIi",
   "source_file" : "/external/libevent/include/event2/bufferevent.h"
  },
  {
   "function_name" : "bufferevent_socket_new",
   "linker_set_key" : "bufferevent_socket_new",
   "parameters" :
   [
    {
     "referenced_type" : "_ZTIP10event_base"
    },
    {
     "referenced_type" : "_ZTIi"
    },
    {
     "referenced_type" : "_ZTIi"
    }
   ],
   "return_type" : "_ZTIP11bufferevent",
   "source_file" : "/external/libevent/include/event2/bufferevent.h"
  },
  {
   "function_name" : "bufferevent_trigger",
   "linker_set_key" : "bufferevent_trigger",
   "parameters" :
   [
    {
     "referenced_type" : "_ZTIP11bufferevent"
    },
    {
     "referenced_type" : "_ZTIs"
    },
    {
     "referenced_type" : "_ZTIi"
    }
   ],
   "return_type" : "_ZTIv",
   "source_file" : "/external/libevent/include/event2/bufferevent.h"
  },
  {
   "function_name" : "bufferevent_trigger_event",
   "linker_set_key" : "bufferevent_trigger_event",
   "parameters" :
   [
    {
     "referenced_type" : "_ZTIP11bufferevent"
    },
    {
     "referenced_type" : "_ZTIs"
    },
    {
     "referenced_type" : "_ZTIi"
    }
   ],
   "return_type" : "_ZTIv",
   "source_file" : "/external/libevent/include/event2/bufferevent.h"
  },
  {
   "function_name" : "bufferevent_unlock",
   "linker_set_key" : "bufferevent_unlock",
   "parameters" :
   [
    {
     "referenced_type" : "_ZTIP11bufferevent"
    }
   ],
   "return_type" : "_ZTIv",
   "source_file" : "/external/libevent/include/event2/bufferevent.h"
  },
  {
   "function_name" : "bufferevent_write",
   "linker_set_key" : "bufferevent_write",
   "parameters" :
   [
    {
     "referenced_type" : "_ZTIP11bufferevent"
    },
    {
     "referenced_type" : "_ZTIPKv"
    },
    {
     "referenced_type" : "_ZTIj"
    }
   ],
   "return_type" : "_ZTIi",
   "source_file" : "/external/libevent/include/event2/bufferevent.h"
  },
  {
   "function_name" : "bufferevent_write_buffer",
   "linker_set_key" : "bufferevent_write_buffer",
   "parameters" :
   [
    {
     "referenced_type" : "_ZTIP11bufferevent"
    },
    {
     "referenced_type" : "_ZTIP8evbuffer"
    }
   ],
   "return_type" : "_ZTIi",
   "source_file" : "/external/libevent/include/event2/bufferevent.h"
  },
  {
   "function_name" : "ev_token_bucket_cfg_free",
   "linker_set_key" : "ev_token_bucket_cfg_free",
   "parameters" :
   [
    {
     "referenced_type" : "_ZTIP19ev_token_bucket_cfg"
    }
   ],
   "return_type" : "_ZTIv",
   "source_file" : "/external/libevent/include/event2/bufferevent.h"
  },
  {
   "function_name" : "ev_token_bucket_cfg_new",
   "linker_set_key" : "ev_token_bucket_cfg_new",
   "parameters" :
   [
    {
     "referenced_type" : "_ZTIj"
    },
    {
     "referenced_type" : "_ZTIj"
    },
    {
     "referenced_type" : "_ZTIj"
    },
    {
     "referenced_type" : "_ZTIj"
    },
    {
     "referenced_type" : "_ZTIPK7timeval"
    }
   ],
   "return_type" : "_ZTIP19ev_token_bucket_cfg",
   "source_file" : "/external/libevent/include/event2/bufferevent.h"
  },
  {
   "function_name" : "evbuffer_add",
   "linker_set_key" : "evbuffer_add",
   "parameters" :
   [
    {
     "referenced_type" : "_ZTIP8evbuffer"
    },
    {
     "referenced_type" : "_ZTIPKv"
    },
    {
     "referenced_type" : "_ZTIj"
    }
   ],
   "return_type" : "_ZTIi",
   "source_file" : "/external/libevent/include/event2/buffer.h"
  },
  {
   "function_name" : "evbuffer_add_buffer",
   "linker_set_key" : "evbuffer_add_buffer",
   "parameters" :
   [
    {
     "referenced_type" : "_ZTIP8evbuffer"
    },
    {
     "referenced_type" : "_ZTIP8evbuffer"
    }
   ],
   "return_type" : "_ZTIi",
   "source_file" : "/external/libevent/include/event2/buffer.h"
  },
  {
   "function_name" : "evbuffer_add_buffer_reference",
   "linker_set_key" : "evbuffer_add_buffer_reference",
   "parameters" :
   [
    {
     "referenced_type" : "_ZTIP8evbuffer"
    },
    {
     "referenced_type" : "_ZTIP8evbuffer"
    }
   ],
   "return_type" : "_ZTIi",
   "source_file" : "/external/libevent/include/event2/buffer.h"
  },
  {
   "function_name" : "evbuffer_add_cb",
   "linker_set_key" : "evbuffer_add_cb",
   "parameters" :
   [
    {
     "referenced_type" : "_ZTIP8evbuffer"
    },
    {
     "referenced_type" : "_ZTIPFvP8evbufferPK16evbuffer_cb_infoPvE"
    },
    {
     "referenced_type" : "_ZTIPv"
    }
   ],
   "return_type" : "_ZTIP17evbuffer_cb_entry",
   "source_file" : "/external/libevent/include/event2/buffer.h"
  },
  {
   "function_name" : "evbuffer_add_file",
   "linker_set_key" : "evbuffer_add_file",
   "parameters" :
   [
    {
     "referenced_type" : "_ZTIP8evbuffer"
    },
    {
     "referenced_type" : "_ZTIi"
    },
    {
     "referenced_type" : "_ZTIl"
    },
    {
     "referenced_type" : "_ZTIl"
    }
   ],
   "return_type" : "_ZTIi",
   "source_file" : "/external/libevent/include/event2/buffer.h"
  },
  {
   "function_name" : "evbuffer_add_file_segment",
   "linker_set_key" : "evbuffer_add_file_segment",
   "parameters" :
   [
    {
     "referenced_type" : "_ZTIP8evbuffer"
    },
    {
     "referenced_type" : "_ZTIP21evbuffer_file_segment"
    },
    {
     "referenced_type" : "_ZTIl"
    },
    {
     "referenced_type" : "_ZTIl"
    }
   ],
   "return_type" : "_ZTIi",
   "source_file" : "/external/libevent/include/event2/buffer.h"
  },
  {
   "function_name" : "evbuffer_add_iovec",
   "linker_set_key" : "evbuffer_add_iovec",
   "parameters" :
   [
    {
     "referenced_type" : "_ZTIP8evbuffer"
    },
    {
     "referenced_type" : "_ZTIP5iovec"
    },
    {
     "referenced_type" : "_ZTIi"
    }
   ],
   "return_type" : "_ZTIj",
   "source_file" : "/external/libevent/include/event2/buffer.h"
  },
  {
   "function_name" : "evbuffer_add_printf",
   "linker_set_key" : "evbuffer_add_printf",
   "parameters" :
   [
    {
     "referenced_type" : "_ZTIP8evbuffer"
    },
    {
     "referenced_type" : "_ZTIPKc"
    }
   ],
   "return_type" : "_ZTIi",
   "source_file" : "/external/libevent/include/event2/buffer.h"
  },
  {
   "function_name" : "evbuffer_add_reference",
   "linker_set_key" : "evbuffer_add_reference",
   "parameters" :
   [
    {
     "referenced_type" : "_ZTIP8evbuffer"
    },
    {
     "referenced_type" : "_ZTIPKv"
    },
    {
     "referenced_type" : "_ZTIj"
    },
    {
     "referenced_type" : "_ZTIPFvPKvjPvE"
    },
    {
     "referenced_type" : "_ZTIPv"
    }
   ],
   "return_type" : "_ZTIi",
   "source_file" : "/external/libevent/include/event2/buffer.h"
  },
  {
   "function_name" : "evbuffer_add_vprintf",
   "linker_set_key" : "evbuffer_add_vprintf",
   "parameters" :
   [
    {
     "referenced_type" : "_ZTIP8evbuffer"
    },
    {
     "referenced_type" : "_ZTIPKc"
    },
    {
     "referenced_type" : "_ZTI9__va_list"
    }
   ],
   "return_type" : "_ZTIi",
   "source_file" : "/external/libevent/include/event2/buffer.h"
  },
  {
   "function_name" : "evbuffer_cb_clear_flags",
   "linker_set_key" : "evbuffer_cb_clear_flags",
   "parameters" :
   [
    {
     "referenced_type" : "_ZTIP8evbuffer"
    },
    {
     "referenced_type" : "_ZTIP17evbuffer_cb_entry"
    },
    {
     "referenced_type" : "_ZTIj"
    }
   ],
   "return_type" : "_ZTIi",
   "source_file" : "/external/libevent/include/event2/buffer.h"
  },
  {
   "function_name" : "evbuffer_cb_set_flags",
   "linker_set_key" : "evbuffer_cb_set_flags",
   "parameters" :
   [
    {
     "referenced_type" : "_ZTIP8evbuffer"
    },
    {
     "referenced_type" : "_ZTIP17evbuffer_cb_entry"
    },
    {
     "referenced_type" : "_ZTIj"
    }
   ],
   "return_type" : "_ZTIi",
   "source_file" : "/external/libevent/include/event2/buffer.h"
  },
  {
   "function_name" : "evbuffer_clear_flags",
   "linker_set_key" : "evbuffer_clear_flags",
   "parameters" :
   [
    {
     "referenced_type" : "_ZTIP8evbuffer"
    },
    {
     "referenced_type" : "_ZTIy"
    }
   ],
   "return_type" : "_ZTIi",
   "source_file" : "/external/libevent/include/event2/buffer.h"
  },
  {
   "function_name" : "evbuffer_commit_space",
   "linker_set_key" : "evbuffer_commit_space",
   "parameters" :
   [
    {
     "referenced_type" : "_ZTIP8evbuffer"
    },
    {
     "referenced_type" : "_ZTIP5iovec"
    },
    {
     "referenced_type" : "_ZTIi"
    }
   ],
   "return_type" : "_ZTIi",
   "source_file" : "/external/libevent/include/event2/buffer.h"
  },
  {
   "function_name" : "evbuffer_copyout",
   "linker_set_key" : "evbuffer_copyout",
   "parameters" :
   [
    {
     "referenced_type" : "_ZTIP8evbuffer"
    },
    {
     "referenced_type" : "_ZTIPv"
    },
    {
     "referenced_type" : "_ZTIj"
    }
   ],
   "return_type" : "_ZTIi",
   "source_file" : "/external/libevent/include/event2/buffer.h"
  },
  {
   "function_name" : "evbuffer_copyout_from",
   "linker_set_key" : "evbuffer_copyout_from",
   "parameters" :
   [
    {
     "referenced_type" : "_ZTIP8evbuffer"
    },
    {
     "referenced_type" : "_ZTIPK12evbuffer_ptr"
    },
    {
     "referenced_type" : "_ZTIPv"
    },
    {
     "referenced_type" : "_ZTIj"
    }
   ],
   "return_type" : "_ZTIi",
   "source_file" : "/external/libevent/include/event2/buffer.h"
  },
  {
   "function_name" : "evbuffer_defer_callbacks",
   "linker_set_key" : "evbuffer_defer_callbacks",
   "parameters" :
   [
    {
     "referenced_type" : "_ZTIP8evbuffer"
    },
    {
     "referenced_type" : "_ZTIP10event_base"
    }
   ],
   "return_type" : "_ZTIi",
   "source_file" : "/external/libevent/include/event2/buffer.h"
  },
  {
   "function_name" : "evbuffer_drain",
   "linker_set_key" : "evbuffer_drain",
   "parameters" :
   [
    {
     "referenced_type" : "_ZTIP8evbuffer"
    },
    {
     "referenced_type" : "_ZTIj"
    }
   ],
   "return_type" : "_ZTIi",
   "source_file" : "/external/libevent/include/event2/buffer.h"
  },
  {
   "function_name" : "evbuffer_enable_locking",
   "linker_set_key" : "evbuffer_enable_locking",
   "parameters" :
   [
    {
     "referenced_type" : "_ZTIP8evbuffer"
    },
    {
     "referenced_type" : "_ZTIPv"
    }
   ],
   "return_type" : "_ZTIi",
   "source_file" : "/external/libevent/include/event2/buffer.h"
  },
  {
   "function_name" : "evbuffer_expand",
   "linker_set_key" : "evbuffer_expand",
   "parameters" :
   [
    {
     "referenced_type" : "_ZTIP8evbuffer"
    },
    {
     "referenced_type" : "_ZTIj"
    }
   ],
   "return_type" : "_ZTIi",
   "source_file" : "/external/libevent/include/event2/buffer.h"
  },
  {
   "function_name" : "evbuffer_file_segment_add_cleanup_cb",
   "linker_set_key" : "evbuffer_file_segment_add_cleanup_cb",
   "parameters" :
   [
    {
     "referenced_type" : "_ZTIP21evbuffer_file_segment"
    },
    {
     "referenced_type" : "_ZTIPFvPK21evbuffer_file_segmentiPvE"
    },
    {
     "referenced_type" : "_ZTIPv"
    }
   ],
   "return_type" : "_ZTIv",
   "source_file" : "/external/libevent/include/event2/buffer.h"
  },
  {
   "function_name" : "evbuffer_file_segment_free",
   "linker_set_key" : "evbuffer_file_segment_free",
   "parameters" :
   [
    {
     "referenced_type" : "_ZTIP21evbuffer_file_segment"
    }
   ],
   "return_type" : "_ZTIv",
   "source_file" : "/external/libevent/include/event2/buffer.h"
  },
  {
   "function_name" : "evbuffer_file_segment_new",
   "linker_set_key" : "evbuffer_file_segment_new",
   "parameters" :
   [
    {
     "referenced_type" : "_ZTIi"
    },
    {
     "referenced_type" : "_ZTIl"
    },
    {
     "referenced_type" : "_ZTIl"
    },
    {
     "referenced_type" : "_ZTIj"
    }
   ],
   "return_type" : "_ZTIP21evbuffer_file_segment",
   "source_file" : "/external/libevent/include/event2/buffer.h"
  },
  {
   "function_name" : "evbuffer_find",
   "linker_set_key" : "evbuffer_find",
   "parameters" :
   [
    {
     "referenced_type" : "_ZTIP8evbuffer"
    },
    {
     "referenced_type" : "_ZTIPKh"
    },
    {
     "referenced_type" : "_ZTIj"
    }
   ],
   "return_type" : "_ZTIPh",
   "source_file" : "/external/libevent/include/event2/buffer_compat.h"
  },
  {
   "function_name" : "evbuffer_free",
   "linker_set_key" : "evbuffer_free",
   "parameters" :
   [
    {
     "referenced_type" : "_ZTIP8evbuffer"
    }
   ],
   "return_type" : "_ZTIv",
   "source_file" : "/external/libevent/include/event2/buffer.h"
  },
  {
   "function_name" : "evbuffer_freeze",
   "linker_set_key" : "evbuffer_freeze",
   "parameters" :
   [
    {
     "referenced_type" : "_ZTIP8evbuffer"
    },
    {
     "referenced_type" : "_ZTIi"
    }
   ],
   "return_type" : "_ZTIi",
   "source_file" : "/external/libevent/include/event2/buffer.h"
  },
  {
   "function_name" : "evbuffer_get_contiguous_space",
   "linker_set_key" : "evbuffer_get_contiguous_space",
   "parameters" :
   [
    {
     "referenced_type" : "_ZTIPK8evbuffer"
    }
   ],
   "return_type" : "_ZTIj",
   "source_file" : "/external/libevent/include/event2/buffer.h"
  },
  {
   "function_name" : "evbuffer_get_length",
   "linker_set_key" : "evbuffer_get_length",
   "parameters" :
   [
    {
     "referenced_type" : "_ZTIPK8evbuffer"
    }
   ],
   "return_type" : "_ZTIj",
   "source_file" : "/external/libevent/include/event2/buffer.h"
  },
  {
   "function_name" : "evbuffer_lock",
   "linker_set_key" : "evbuffer_lock",
   "parameters" :
   [
    {
     "referenced_type" : "_ZTIP8evbuffer"
    }
   ],
   "return_type" : "_ZTIv",
   "source_file" : "/external/libevent/include/event2/buffer.h"
  },
  {
   "function_name" : "evbuffer_new",
   "linker_set_key" : "evbuffer_new",
   "return_type" : "_ZTIP8evbuffer",
   "source_file" : "/external/libevent/include/event2/buffer.h"
  },
  {
   "function_name" : "evbuffer_peek",
   "linker_set_key" : "evbuffer_peek",
   "parameters" :
   [
    {
     "referenced_type" : "_ZTIP8evbuffer"
    },
    {
     "referenced_type" : "_ZTIi"
    },
    {
     "referenced_type" : "_ZTIP12evbuffer_ptr"
    },
    {
     "referenced_type" : "_ZTIP5iovec"
    },
    {
     "referenced_type" : "_ZTIi"
    }
   ],
   "return_type" : "_ZTIi",
   "source_file" : "/external/libevent/include/event2/buffer.h"
  },
  {
   "function_name" : "evbuffer_prepend",
   "linker_set_key" : "evbuffer_prepend",
   "parameters" :
   [
    {
     "referenced_type" : "_ZTIP8evbuffer"
    },
    {
     "referenced_type" : "_ZTIPKv"
    },
    {
     "referenced_type" : "_ZTIj"
    }
   ],
   "return_type" : "_ZTIi",
   "source_file" : "/external/libevent/include/event2/buffer.h"
  },
  {
   "function_name" : "evbuffer_prepend_buffer",
   "linker_set_key" : "evbuffer_prepend_buffer",
   "parameters" :
   [
    {
     "referenced_type" : "_ZTIP8evbuffer"
    },
    {
     "referenced_type" : "_ZTIP8evbuffer"
    }
   ],
   "return_type" : "_ZTIi",
   "source_file" : "/external/libevent/include/event2/buffer.h"
  },
  {
   "function_name" : "evbuffer_ptr_set",
   "linker_set_key" : "evbuffer_ptr_set",
   "parameters" :
   [
    {
     "referenced_type" : "_ZTIP8evbuffer"
    },
    {
     "referenced_type" : "_ZTIP12evbuffer_ptr"
    },
    {
     "referenced_type" : "_ZTIj"
    },
    {
     "referenced_type" : "_ZTI16evbuffer_ptr_how"
    }
   ],
   "return_type" : "_ZTIi",
   "source_file" : "/external/libevent/include/event2/buffer.h"
  },
  {
   "function_name" : "evbuffer_pullup",
   "linker_set_key" : "evbuffer_pullup",
   "parameters" :
   [
    {
     "referenced_type" : "_ZTIP8evbuffer"
    },
    {
     "referenced_type" : "_ZTIi"
    }
   ],
   "return_type" : "_ZTIPh",
   "source_file" : "/external/libevent/include/event2/buffer.h"
  },
  {
   "function_name" : "evbuffer_read",
   "linker_set_key" : "evbuffer_read",
   "parameters" :
   [
    {
     "referenced_type" : "_ZTIP8evbuffer"
    },
    {
     "referenced_type" : "_ZTIi"
    },
    {
     "referenced_type" : "_ZTIi"
    }
   ],
   "return_type" : "_ZTIi",
   "source_file" : "/external/libevent/include/event2/buffer.h"
  },
  {
   "function_name" : "evbuffer_readline",
   "linker_set_key" : "evbuffer_readline",
   "parameters" :
   [
    {
     "referenced_type" : "_ZTIP8evbuffer"
    }
   ],
   "return_type" : "_ZTIPc",
   "source_file" : "/external/libevent/include/event2/buffer_compat.h"
  },
  {
   "function_name" : "evbuffer_readln",
   "linker_set_key" : "evbuffer_readln",
   "parameters" :
   [
    {
     "referenced_type" : "_ZTIP8evbuffer"
    },
    {
     "referenced_type" : "_ZTIPj"
    },
    {
     "referenced_type" : "_ZTI18evbuffer_eol_style"
    }
   ],
   "return_type" : "_ZTIPc",
   "source_file" : "/external/libevent/include/event2/buffer.h"
  },
  {
   "function_name" : "evbuffer_remove",
   "linker_set_key" : "evbuffer_remove",
   "parameters" :
   [
    {
     "referenced_type" : "_ZTIP8evbuffer"
    },
    {
     "referenced_type" : "_ZTIPv"
    },
    {
     "referenced_type" : "_ZTIj"
    }
   ],
   "return_type" : "_ZTIi",
   "source_file" : "/external/libevent/include/event2/buffer.h"
  },
  {
   "function_name" : "evbuffer_remove_buffer",
   "linker_set_key" : "evbuffer_remove_buffer",
   "parameters" :
   [
    {
     "referenced_type" : "_ZTIP8evbuffer"
    },
    {
     "referenced_type" : "_ZTIP8evbuffer"
    },
    {
     "referenced_type" : "_ZTIj"
    }
   ],
   "return_type" : "_ZTIi",
   "source_file" : "/external/libevent/include/event2/buffer.h"
  },
  {
   "function_name" : "evbuffer_remove_cb",
   "linker_set_key" : "evbuffer_remove_cb",
   "parameters" :
   [
    {
     "referenced_type" : "_ZTIP8evbuffer"
    },
    {
     "referenced_type" : "_ZTIPFvP8evbufferPK16evbuffer_cb_infoPvE"
    },
    {
     "referenced_type" : "_ZTIPv"
    }
   ],
   "return_type" : "_ZTIi",
   "source_file" : "/external/libevent/include/event2/buffer.h"
  },
  {
   "function_name" : "evbuffer_remove_cb_entry",
   "linker_set_key" : "evbuffer_remove_cb_entry",
   "parameters" :
   [
    {
     "referenced_type" : "_ZTIP8evbuffer"
    },
    {
     "referenced_type" : "_ZTIP17evbuffer_cb_entry"
    }
   ],
   "return_type" : "_ZTIi",
   "source_file" : "/external/libevent/include/event2/buffer.h"
  },
  {
   "function_name" : "evbuffer_reserve_space",
   "linker_set_key" : "evbuffer_reserve_space",
   "parameters" :
   [
    {
     "referenced_type" : "_ZTIP8evbuffer"
    },
    {
     "referenced_type" : "_ZTIi"
    },
    {
     "referenced_type" : "_ZTIP5iovec"
    },
    {
     "referenced_type" : "_ZTIi"
    }
   ],
   "return_type" : "_ZTIi",
   "source_file" : "/external/libevent/include/event2/buffer.h"
  },
  {
   "function_name" : "evbuffer_search",
   "linker_set_key" : "evbuffer_search",
   "parameters" :
   [
    {
     "referenced_type" : "_ZTIP8evbuffer"
    },
    {
     "referenced_type" : "_ZTIPKc"
    },
    {
     "referenced_type" : "_ZTIj"
    },
    {
     "referenced_type" : "_ZTIPK12evbuffer_ptr"
    }
   ],
   "return_type" : "_ZTI12evbuffer_ptr",
   "source_file" : "/external/libevent/include/event2/buffer.h"
  },
  {
   "function_name" : "evbuffer_search_eol",
   "linker_set_key" : "evbuffer_search_eol",
   "parameters" :
   [
    {
     "referenced_type" : "_ZTIP8evbuffer"
    },
    {
     "referenced_type" : "_ZTIP12evbuffer_ptr"
    },
    {
     "referenced_type" : "_ZTIPj"
    },
    {
     "referenced_type" : "_ZTI18evbuffer_eol_style"
    }
   ],
   "return_type" : "_ZTI12evbuffer_ptr",
   "source_file" : "/external/libevent/include/event2/buffer.h"
  },
  {
   "function_name" : "evbuffer_search_range",
   "linker_set_key" : "evbuffer_search_range",
   "parameters" :
   [
    {
     "referenced_type" : "_ZTIP8evbuffer"
    },
    {
     "referenced_type" : "_ZTIPKc"
    },
    {
     "referenced_type" : "_ZTIj"
    },
    {
     "referenced_type" : "_ZTIPK12evbuffer_ptr"
    },
    {
     "referenced_type" : "_ZTIPK12evbuffer_ptr"
    }
   ],
   "return_type" : "_ZTI12evbuffer_ptr",
   "source_file" : "/external/libevent/include/event2/buffer.h"
  },
  {
   "function_name" : "evbuffer_set_flags",
   "linker_set_key" : "evbuffer_set_flags",
   "parameters" :
   [
    {
     "referenced_type" : "_ZTIP8evbuffer"
    },
    {
     "referenced_type" : "_ZTIy"
    }
   ],
   "return_type" : "_ZTIi",
   "source_file" : "/external/libevent/include/event2/buffer.h"
  },
  {
   "function_name" : "evbuffer_setcb",
   "linker_set_key" : "evbuffer_setcb",
   "parameters" :
   [
    {
     "referenced_type" : "_ZTIP8evbuffer"
    },
    {
     "referenced_type" : "_ZTIPFvP8evbufferjjPvE"
    },
    {
     "referenced_type" : "_ZTIPv"
    }
   ],
   "return_type" : "_ZTIi",
   "source_file" : "/external/libevent/include/event2/buffer_compat.h"
  },
  {
   "function_name" : "evbuffer_unfreeze",
   "linker_set_key" : "evbuffer_unfreeze",
   "parameters" :
   [
    {
     "referenced_type" : "_ZTIP8evbuffer"
    },
    {
     "referenced_type" : "_ZTIi"
    }
   ],
   "return_type" : "_ZTIi",
   "source_file" : "/external/libevent/include/event2/buffer.h"
  },
  {
   "function_name" : "evbuffer_unlock",
   "linker_set_key" : "evbuffer_unlock",
   "parameters" :
   [
    {
     "referenced_type" : "_ZTIP8evbuffer"
    }
   ],
   "return_type" : "_ZTIv",
   "source_file" : "/external/libevent/include/event2/buffer.h"
  },
  {
   "function_name" : "evbuffer_write",
   "linker_set_key" : "evbuffer_write",
   "parameters" :
   [
    {
     "referenced_type" : "_ZTIP8evbuffer"
    },
    {
     "referenced_type" : "_ZTIi"
    }
   ],
   "return_type" : "_ZTIi",
   "source_file" : "/external/libevent/include/event2/buffer.h"
  },
  {
   "function_name" : "evbuffer_write_atmost",
   "linker_set_key" : "evbuffer_write_atmost",
   "parameters" :
   [
    {
     "referenced_type" : "_ZTIP8evbuffer"
    },
    {
     "referenced_type" : "_ZTIi"
    },
    {
     "referenced_type" : "_ZTIi"
    }
   ],
   "return_type" : "_ZTIi",
   "source_file" : "/external/libevent/include/event2/buffer.h"
  },
  {
   "function_name" : "evconnlistener_disable",
   "linker_set_key" : "evconnlistener_disable",
   "parameters" :
   [
    {
     "referenced_type" : "_ZTIP14evconnlistener"
    }
   ],
   "return_type" : "_ZTIi",
   "source_file" : "/external/libevent/include/event2/listener.h"
  },
  {
   "function_name" : "evconnlistener_enable",
   "linker_set_key" : "evconnlistener_enable",
   "parameters" :
   [
    {
     "referenced_type" : "_ZTIP14evconnlistener"
    }
   ],
   "return_type" : "_ZTIi",
   "source_file" : "/external/libevent/include/event2/listener.h"
  },
  {
   "function_name" : "evconnlistener_free",
   "linker_set_key" : "evconnlistener_free",
   "parameters" :
   [
    {
     "referenced_type" : "_ZTIP14evconnlistener"
    }
   ],
   "return_type" : "_ZTIv",
   "source_file" : "/external/libevent/include/event2/listener.h"
  },
  {
   "function_name" : "evconnlistener_get_base",
   "linker_set_key" : "evconnlistener_get_base",
   "parameters" :
   [
    {
     "referenced_type" : "_ZTIP14evconnlistener"
    }
   ],
   "return_type" : "_ZTIP10event_base",
   "source_file" : "/external/libevent/include/event2/listener.h"
  },
  {
   "function_name" : "evconnlistener_get_fd",
   "linker_set_key" : "evconnlistener_get_fd",
   "parameters" :
   [
    {
     "referenced_type" : "_ZTIP14evconnlistener"
    }
   ],
   "return_type" : "_ZTIi",
   "source_file" : "/external/libevent/include/event2/listener.h"
  },
  {
   "function_name" : "evconnlistener_new",
   "linker_set_key" : "evconnlistener_new",
   "parameters" :
   [
    {
     "referenced_type" : "_ZTIP10event_base"
    },
    {
     "referenced_type" : "_ZTIPFvP14evconnlisteneriP8sockaddriPvE"
    },
    {
     "referenced_type" : "_ZTIPv"
    },
    {
     "referenced_type" : "_ZTIj"
    },
    {
     "referenced_type" : "_ZTIi"
    },
    {
     "referenced_type" : "_ZTIi"
    }
   ],
   "return_type" : "_ZTIP14evconnlistener",
   "source_file" : "/external/libevent/include/event2/listener.h"
  },
  {
   "function_name" : "evconnlistener_new_bind",
   "linker_set_key" : "evconnlistener_new_bind",
   "parameters" :
   [
    {
     "referenced_type" : "_ZTIP10event_base"
    },
    {
     "referenced_type" : "_ZTIPFvP14evconnlisteneriP8sockaddriPvE"
    },
    {
     "referenced_type" : "_ZTIPv"
    },
    {
     "referenced_type" : "_ZTIj"
    },
    {
     "referenced_type" : "_ZTIi"
    },
    {
     "referenced_type" : "_ZTIPK8sockaddr"
    },
    {
     "referenced_type" : "_ZTIi"
    }
   ],
   "return_type" : "_ZTIP14evconnlistener",
   "source_file" : "/external/libevent/include/event2/listener.h"
  },
  {
   "function_name" : "evconnlistener_set_cb",
   "linker_set_key" : "evconnlistener_set_cb",
   "parameters" :
   [
    {
     "referenced_type" : "_ZTIP14evconnlistener"
    },
    {
     "referenced_type" : "_ZTIPFvP14evconnlisteneriP8sockaddriPvE"
    },
    {
     "referenced_type" : "_ZTIPv"
    }
   ],
   "return_type" : "_ZTIv",
   "source_file" : "/external/libevent/include/event2/listener.h"
  },
  {
   "function_name" : "evconnlistener_set_error_cb",
   "linker_set_key" : "evconnlistener_set_error_cb",
   "parameters" :
   [
    {
     "referenced_type" : "_ZTIP14evconnlistener"
    },
    {
     "referenced_type" : "_ZTIPFvP14evconnlistenerPvE"
    }
   ],
   "return_type" : "_ZTIv",
   "source_file" : "/external/libevent/include/event2/listener.h"
  },
  {
   "function_name" : "evdns_add_server_port",
   "linker_set_key" : "evdns_add_server_port",
   "parameters" :
   [
    {
     "referenced_type" : "_ZTIi"
    },
    {
     "referenced_type" : "_ZTIi"
    },
    {
     "referenced_type" : "_ZTIPFvP20evdns_server_requestPvE"
    },
    {
     "referenced_type" : "_ZTIPv"
    }
   ],
   "return_type" : "_ZTIP17evdns_server_port",
   "source_file" : "/external/libevent/include/event2/dns_compat.h"
  },
  {
   "function_name" : "evdns_add_server_port_with_base",
   "linker_set_key" : "evdns_add_server_port_with_base",
   "parameters" :
   [
    {
     "referenced_type" : "_ZTIP10event_base"
    },
    {
     "referenced_type" : "_ZTIi"
    },
    {
     "referenced_type" : "_ZTIi"
    },
    {
     "referenced_type" : "_ZTIPFvP20evdns_server_requestPvE"
    },
    {
     "referenced_type" : "_ZTIPv"
    }
   ],
   "return_type" : "_ZTIP17evdns_server_port",
   "source_file" : "/external/libevent/include/event2/dns.h"
  },
  {
   "function_name" : "evdns_base_clear_host_addresses",
   "linker_set_key" : "evdns_base_clear_host_addresses",
   "parameters" :
   [
    {
     "referenced_type" : "_ZTIP10evdns_base"
    }
   ],
   "return_type" : "_ZTIv",
   "source_file" : "/external/libevent/include/event2/dns.h"
  },
  {
   "function_name" : "evdns_base_clear_nameservers_and_suspend",
   "linker_set_key" : "evdns_base_clear_nameservers_and_suspend",
   "parameters" :
   [
    {
     "referenced_type" : "_ZTIP10evdns_base"
    }
   ],
   "return_type" : "_ZTIi",
   "source_file" : "/external/libevent/include/event2/dns.h"
  },
  {
   "function_name" : "evdns_base_count_nameservers",
   "linker_set_key" : "evdns_base_count_nameservers",
   "parameters" :
   [
    {
     "referenced_type" : "_ZTIP10evdns_base"
    }
   ],
   "return_type" : "_ZTIi",
   "source_file" : "/external/libevent/include/event2/dns.h"
  },
  {
   "function_name" : "evdns_base_free",
   "linker_set_key" : "evdns_base_free",
   "parameters" :
   [
    {
     "referenced_type" : "_ZTIP10evdns_base"
    },
    {
     "referenced_type" : "_ZTIi"
    }
   ],
   "return_type" : "_ZTIv",
   "source_file" : "/external/libevent/include/event2/dns.h"
  },
  {
   "function_name" : "evdns_base_get_nameserver_addr",
   "linker_set_key" : "evdns_base_get_nameserver_addr",
   "parameters" :
   [
    {
     "referenced_type" : "_ZTIP10evdns_base"
    },
    {
     "referenced_type" : "_ZTIi"
    },
    {
     "referenced_type" : "_ZTIP8sockaddr"
    },
    {
     "referenced_type" : "_ZTIi"
    }
   ],
   "return_type" : "_ZTIi",
   "source_file" : "/external/libevent/include/event2/dns.h"
  },
  {
   "function_name" : "evdns_base_load_hosts",
   "linker_set_key" : "evdns_base_load_hosts",
   "parameters" :
   [
    {
     "referenced_type" : "_ZTIP10evdns_base"
    },
    {
     "referenced_type" : "_ZTIPKc"
    }
   ],
   "return_type" : "_ZTIi",
   "source_file" : "/external/libevent/include/event2/dns.h"
  },
  {
   "function_name" : "evdns_base_nameserver_add",
   "linker_set_key" : "evdns_base_nameserver_add",
   "parameters" :
   [
    {
     "referenced_type" : "_ZTIP10evdns_base"
    },
    {
     "referenced_type" : "_ZTIm"
    }
   ],
   "return_type" : "_ZTIi",
   "source_file" : "/external/libevent/include/event2/dns.h"
  },
  {
   "function_name" : "evdns_base_nameserver_ip_add",
   "linker_set_key" : "evdns_base_nameserver_ip_add",
   "parameters" :
   [
    {
     "referenced_type" : "_ZTIP10evdns_base"
    },
    {
     "referenced_type" : "_ZTIPKc"
    }
   ],
   "return_type" : "_ZTIi",
   "source_file" : "/external/libevent/include/event2/dns.h"
  },
  {
   "function_name" : "evdns_base_nameserver_sockaddr_add",
   "linker_set_key" : "evdns_base_nameserver_sockaddr_add",
   "parameters" :
   [
    {
     "referenced_type" : "_ZTIP10evdns_base"
    },
    {
     "referenced_type" : "_ZTIPK8sockaddr"
    },
    {
     "referenced_type" : "_ZTIi"
    },
    {
     "referenced_type" : "_ZTIj"
    }
   ],
   "return_type" : "_ZTIi",
   "source_file" : "/external/libevent/include/event2/dns.h"
  },
  {
   "function_name" : "evdns_base_new",
   "linker_set_key" : "evdns_base_new",
   "parameters" :
   [
    {
     "referenced_type" : "_ZTIP10event_base"
    },
    {
     "referenced_type" : "_ZTIi"
    }
   ],
   "return_type" : "_ZTIP10evdns_base",
   "source_file" : "/external/libevent/include/event2/dns.h"
  },
  {
   "function_name" : "evdns_base_resolv_conf_parse",
   "linker_set_key" : "evdns_base_resolv_conf_parse",
   "parameters" :
   [
    {
     "referenced_type" : "_ZTIP10evdns_base"
    },
    {
     "referenced_type" : "_ZTIi"
    },
    {
     "referenced_type" : "_ZTIKPKc"
    }
   ],
   "return_type" : "_ZTIi",
   "source_file" : "/external/libevent/include/event2/dns.h"
  },
  {
   "function_name" : "evdns_base_resolve_ipv4",
   "linker_set_key" : "evdns_base_resolve_ipv4",
   "parameters" :
   [
    {
     "referenced_type" : "_ZTIP10evdns_base"
    },
    {
     "referenced_type" : "_ZTIPKc"
    },
    {
     "referenced_type" : "_ZTIi"
    },
    {
     "referenced_type" : "_ZTIPFviciiPvS_E"
    },
    {
     "referenced_type" : "_ZTIPv"
    }
   ],
   "return_type" : "_ZTIP13evdns_request",
   "source_file" : "/external/libevent/include/event2/dns.h"
  },
  {
   "function_name" : "evdns_base_resolve_ipv6",
   "linker_set_key" : "evdns_base_resolve_ipv6",
   "parameters" :
   [
    {
     "referenced_type" : "_ZTIP10evdns_base"
    },
    {
     "referenced_type" : "_ZTIPKc"
    },
    {
     "referenced_type" : "_ZTIi"
    },
    {
     "referenced_type" : "_ZTIPFviciiPvS_E"
    },
    {
     "referenced_type" : "_ZTIPv"
    }
   ],
   "return_type" : "_ZTIP13evdns_request",
   "source_file" : "/external/libevent/include/event2/dns.h"
  },
  {
   "function_name" : "evdns_base_resolve_reverse",
   "linker_set_key" : "evdns_base_resolve_reverse",
   "parameters" :
   [
    {
     "referenced_type" : "_ZTIP10evdns_base"
    },
    {
     "referenced_type" : "_ZTIPK7in_addr"
    },
    {
     "referenced_type" : "_ZTIi"
    },
    {
     "referenced_type" : "_ZTIPFviciiPvS_E"
    },
    {
     "referenced_type" : "_ZTIPv"
    }
   ],
   "return_type" : "_ZTIP13evdns_request",
   "source_file" : "/external/libevent/include/event2/dns.h"
  },
  {
   "function_name" : "evdns_base_resolve_reverse_ipv6",
   "linker_set_key" : "evdns_base_resolve_reverse_ipv6",
   "parameters" :
   [
    {
     "referenced_type" : "_ZTIP10evdns_base"
    },
    {
     "referenced_type" : "_ZTIPK8in6_addr"
    },
    {
     "referenced_type" : "_ZTIi"
    },
    {
     "referenced_type" : "_ZTIPFviciiPvS_E"
    },
    {
     "referenced_type" : "_ZTIPv"
    }
   ],
   "return_type" : "_ZTIP13evdns_request",
   "source_file" : "/external/libevent/include/event2/dns.h"
  },
  {
   "function_name" : "evdns_base_resume",
   "linker_set_key" : "evdns_base_resume",
   "parameters" :
   [
    {
     "referenced_type" : "_ZTIP10evdns_base"
    }
   ],
   "return_type" : "_ZTIi",
   "source_file" : "/external/libevent/include/event2/dns.h"
  },
  {
   "function_name" : "evdns_base_search_add",
   "linker_set_key" : "evdns_base_search_add",
   "parameters" :
   [
    {
     "referenced_type" : "_ZTIP10evdns_base"
    },
    {
     "referenced_type" : "_ZTIPKc"
    }
   ],
   "return_type" : "_ZTIv",
   "source_file" : "/external/libevent/include/event2/dns.h"
  },
  {
   "function_name" : "evdns_base_search_clear",
   "linker_set_key" : "evdns_base_search_clear",
   "parameters" :
   [
    {
     "referenced_type" : "_ZTIP10evdns_base"
    }
   ],
   "return_type" : "_ZTIv",
   "source_file" : "/external/libevent/include/event2/dns.h"
  },
  {
   "function_name" : "evdns_base_search_ndots_set",
   "linker_set_key" : "evdns_base_search_ndots_set",
   "parameters" :
   [
    {
     "referenced_type" : "_ZTIP10evdns_base"
    },
    {
     "referenced_type" : "_ZTIKi"
    }
   ],
   "return_type" : "_ZTIv",
   "source_file" : "/external/libevent/include/event2/dns.h"
  },
  {
   "function_name" : "evdns_base_set_option",
   "linker_set_key" : "evdns_base_set_option",
   "parameters" :
   [
    {
     "referenced_type" : "_ZTIP10evdns_base"
    },
    {
     "referenced_type" : "_ZTIPKc"
    },
    {
     "referenced_type" : "_ZTIPKc"
    }
   ],
   "return_type" : "_ZTIi",
   "source_file" : "/external/libevent/include/event2/dns.h"
  },
  {
   "function_name" : "evdns_cancel_request",
   "linker_set_key" : "evdns_cancel_request",
   "parameters" :
   [
    {
     "referenced_type" : "_ZTIP10evdns_base"
    },
    {
     "referenced_type" : "_ZTIP13evdns_request"
    }
   ],
   "return_type" : "_ZTIv",
   "source_file" : "/external/libevent/include/event2/dns.h"
  },
  {
   "function_name" : "evdns_clear_nameservers_and_suspend",
   "linker_set_key" : "evdns_clear_nameservers_and_suspend",
   "return_type" : "_ZTIi",
   "source_file" : "/external/libevent/include/event2/dns_compat.h"
  },
  {
   "function_name" : "evdns_close_server_port",
   "linker_set_key" : "evdns_close_server_port",
   "parameters" :
   [
    {
     "referenced_type" : "_ZTIP17evdns_server_port"
    }
   ],
   "return_type" : "_ZTIv",
   "source_file" : "/external/libevent/include/event2/dns.h"
  },
  {
   "function_name" : "evdns_count_nameservers",
   "linker_set_key" : "evdns_count_nameservers",
   "return_type" : "_ZTIi",
   "source_file" : "/external/libevent/include/event2/dns_compat.h"
  },
  {
   "function_name" : "evdns_err_to_string",
   "linker_set_key" : "evdns_err_to_string",
   "parameters" :
   [
    {
     "referenced_type" : "_ZTIi"
    }
   ],
   "return_type" : "_ZTIPKc",
   "source_file" : "/external/libevent/include/event2/dns.h"
  },
  {
   "function_name" : "evdns_get_global_base",
   "linker_set_key" : "evdns_get_global_base",
   "return_type" : "_ZTIP10evdns_base",
   "source_file" : "/external/libevent/include/event2/dns_compat.h"
  },
  {
   "function_name" : "evdns_getaddrinfo",
   "linker_set_key" : "evdns_getaddrinfo",
   "parameters" :
   [
    {
     "referenced_type" : "_ZTIP10evdns_base"
    },
    {
     "referenced_type" : "_ZTIPKc"
    },
    {
     "referenced_type" : "_ZTIPKc"
    },
    {
     "referenced_type" : "_ZTIPK8addrinfo"
    },
    {
     "referenced_type" : "_ZTIPFviP8addrinfoPvE"
    },
    {
     "referenced_type" : "_ZTIPv"
    }
   ],
   "return_type" : "_ZTIP25evdns_getaddrinfo_request",
   "source_file" : "/external/libevent/include/event2/dns.h"
  },
  {
   "function_name" : "evdns_getaddrinfo_cancel",
   "linker_set_key" : "evdns_getaddrinfo_cancel",
   "parameters" :
   [
    {
     "referenced_type" : "_ZTIP25evdns_getaddrinfo_request"
    }
   ],
   "return_type" : "_ZTIv",
   "source_file" : "/external/libevent/include/event2/dns.h"
  },
  {
   "function_name" : "evdns_init",
   "linker_set_key" : "evdns_init",
   "return_type" : "_ZTIi",
   "source_file" : "/external/libevent/include/event2/dns_compat.h"
  },
  {
   "function_name" : "evdns_nameserver_add",
   "linker_set_key" : "evdns_nameserver_add",
   "parameters" :
   [
    {
     "referenced_type" : "_ZTIm"
    }
   ],
   "return_type" : "_ZTIi",
   "source_file" : "/external/libevent/include/event2/dns_compat.h"
  },
  {
   "function_name" : "evdns_nameserver_ip_add",
   "linker_set_key" : "evdns_nameserver_ip_add",
   "parameters" :
   [
    {
     "referenced_type" : "_ZTIPKc"
    }
   ],
   "return_type" : "_ZTIi",
   "source_file" : "/external/libevent/include/event2/dns_compat.h"
  },
  {
   "function_name" : "evdns_resolv_conf_parse",
   "linker_set_key" : "evdns_resolv_conf_parse",
   "parameters" :
   [
    {
     "referenced_type" : "_ZTIi"
    },
    {
     "referenced_type" : "_ZTIKPKc"
    }
   ],
   "return_type" : "_ZTIi",
   "source_file" : "/external/libevent/include/event2/dns_compat.h"
  },
  {
   "function_name" : "evdns_resolve_ipv4",
   "linker_set_key" : "evdns_resolve_ipv4",
   "parameters" :
   [
    {
     "referenced_type" : "_ZTIPKc"
    },
    {
     "referenced_type" : "_ZTIi"
    },
    {
     "referenced_type" : "_ZTIPFviciiPvS_E"
    },
    {
     "referenced_type" : "_ZTIPv"
    }
   ],
   "return_type" : "_ZTIi",
   "source_file" : "/external/libevent/include/event2/dns_compat.h"
  },
  {
   "function_name" : "evdns_resolve_ipv6",
   "linker_set_key" : "evdns_resolve_ipv6",
   "parameters" :
   [
    {
     "referenced_type" : "_ZTIPKc"
    },
    {
     "referenced_type" : "_ZTIi"
    },
    {
     "referenced_type" : "_ZTIPFviciiPvS_E"
    },
    {
     "referenced_type" : "_ZTIPv"
    }
   ],
   "return_type" : "_ZTIi",
   "source_file" : "/external/libevent/include/event2/dns_compat.h"
  },
  {
   "function_name" : "evdns_resolve_reverse",
   "linker_set_key" : "evdns_resolve_reverse",
   "parameters" :
   [
    {
     "referenced_type" : "_ZTIPK7in_addr"
    },
    {
     "referenced_type" : "_ZTIi"
    },
    {
     "referenced_type" : "_ZTIPFviciiPvS_E"
    },
    {
     "referenced_type" : "_ZTIPv"
    }
   ],
   "return_type" : "_ZTIi",
   "source_file" : "/external/libevent/include/event2/dns_compat.h"
  },
  {
   "function_name" : "evdns_resolve_reverse_ipv6",
   "linker_set_key" : "evdns_resolve_reverse_ipv6",
   "parameters" :
   [
    {
     "referenced_type" : "_ZTIPK8in6_addr"
    },
    {
     "referenced_type" : "_ZTIi"
    },
    {
     "referenced_type" : "_ZTIPFviciiPvS_E"
    },
    {
     "referenced_type" : "_ZTIPv"
    }
   ],
   "return_type" : "_ZTIi",
   "source_file" : "/external/libevent/include/event2/dns_compat.h"
  },
  {
   "function_name" : "evdns_resume",
   "linker_set_key" : "evdns_resume",
   "return_type" : "_ZTIi",
   "source_file" : "/external/libevent/include/event2/dns_compat.h"
  },
  {
   "function_name" : "evdns_search_add",
   "linker_set_key" : "evdns_search_add",
   "parameters" :
   [
    {
     "referenced_type" : "_ZTIPKc"
    }
   ],
   "return_type" : "_ZTIv",
   "source_file" : "/external/libevent/include/event2/dns_compat.h"
  },
  {
   "function_name" : "evdns_search_clear",
   "linker_set_key" : "evdns_search_clear",
   "return_type" : "_ZTIv",
   "source_file" : "/external/libevent/include/event2/dns_compat.h"
  },
  {
   "function_name" : "evdns_search_ndots_set",
   "linker_set_key" : "evdns_search_ndots_set",
   "parameters" :
   [
    {
     "referenced_type" : "_ZTIKi"
    }
   ],
   "return_type" : "_ZTIv",
   "source_file" : "/external/libevent/include/event2/dns_compat.h"
  },
  {
   "function_name" : "evdns_server_request_add_a_reply",
   "linker_set_key" : "evdns_server_request_add_a_reply",
   "parameters" :
   [
    {
     "referenced_type" : "_ZTIP20evdns_server_request"
    },
    {
     "referenced_type" : "_ZTIPKc"
    },
    {
     "referenced_type" : "_ZTIi"
    },
    {
     "referenced_type" : "_ZTIPKv"
    },
    {
     "referenced_type" : "_ZTIi"
    }
   ],
   "return_type" : "_ZTIi",
   "source_file" : "/external/libevent/include/event2/dns.h"
  },
  {
   "function_name" : "evdns_server_request_add_aaaa_reply",
   "linker_set_key" : "evdns_server_request_add_aaaa_reply",
   "parameters" :
   [
    {
     "referenced_type" : "_ZTIP20evdns_server_request"
    },
    {
     "referenced_type" : "_ZTIPKc"
    },
    {
     "referenced_type" : "_ZTIi"
    },
    {
     "referenced_type" : "_ZTIPKv"
    },
    {
     "referenced_type" : "_ZTIi"
    }
   ],
   "return_type" : "_ZTIi",
   "source_file" : "/external/libevent/include/event2/dns.h"
  },
  {
   "function_name" : "evdns_server_request_add_cname_reply",
   "linker_set_key" : "evdns_server_request_add_cname_reply",
   "parameters" :
   [
    {
     "referenced_type" : "_ZTIP20evdns_server_request"
    },
    {
     "referenced_type" : "_ZTIPKc"
    },
    {
     "referenced_type" : "_ZTIPKc"
    },
    {
     "referenced_type" : "_ZTIi"
    }
   ],
   "return_type" : "_ZTIi",
   "source_file" : "/external/libevent/include/event2/dns.h"
  },
  {
   "function_name" : "evdns_server_request_add_ptr_reply",
   "linker_set_key" : "evdns_server_request_add_ptr_reply",
   "parameters" :
   [
    {
     "referenced_type" : "_ZTIP20evdns_server_request"
    },
    {
     "referenced_type" : "_ZTIP7in_addr"
    },
    {
     "referenced_type" : "_ZTIPKc"
    },
    {
     "referenced_type" : "_ZTIPKc"
    },
    {
     "referenced_type" : "_ZTIi"
    }
   ],
   "return_type" : "_ZTIi",
   "source_file" : "/external/libevent/include/event2/dns.h"
  },
  {
   "function_name" : "evdns_server_request_add_reply",
   "linker_set_key" : "evdns_server_request_add_reply",
   "parameters" :
   [
    {
     "referenced_type" : "_ZTIP20evdns_server_request"
    },
    {
     "referenced_type" : "_ZTIi"
    },
    {
     "referenced_type" : "_ZTIPKc"
    },
    {
     "referenced_type" : "_ZTIi"
    },
    {
     "referenced_type" : "_ZTIi"
    },
    {
     "referenced_type" : "_ZTIi"
    },
    {
     "referenced_type" : "_ZTIi"
    },
    {
     "referenced_type" : "_ZTIi"
    },
    {
     "referenced_type" : "_ZTIPKc"
    }
   ],
   "return_type" : "_ZTIi",
   "source_file" : "/external/libevent/include/event2/dns.h"
  },
  {
   "function_name" : "evdns_server_request_drop",
   "linker_set_key" : "evdns_server_request_drop",
   "parameters" :
   [
    {
     "referenced_type" : "_ZTIP20evdns_server_request"
    }
   ],
   "return_type" : "_ZTIi",
   "source_file" : "/external/libevent/include/event2/dns.h"
  },
  {
   "function_name" : "evdns_server_request_get_requesting_addr",
   "linker_set_key" : "evdns_server_request_get_requesting_addr",
   "parameters" :
   [
    {
     "referenced_type" : "_ZTIP20evdns_server_request"
    },
    {
     "referenced_type" : "_ZTIP8sockaddr"
    },
    {
     "referenced_type" : "_ZTIi"
    }
   ],
   "return_type" : "_ZTIi",
   "source_file" : "/external/libevent/include/event2/dns.h"
  },
  {
   "function_name" : "evdns_server_request_respond",
   "linker_set_key" : "evdns_server_request_respond",
   "parameters" :
   [
    {
     "referenced_type" : "_ZTIP20evdns_server_request"
    },
    {
     "referenced_type" : "_ZTIi"
    }
   ],
   "return_type" : "_ZTIi",
   "source_file" : "/external/libevent/include/event2/dns.h"
  },
  {
   "function_name" : "evdns_server_request_set_flags",
   "linker_set_key" : "evdns_server_request_set_flags",
   "parameters" :
   [
    {
     "referenced_type" : "_ZTIP20evdns_server_request"
    },
    {
     "referenced_type" : "_ZTIi"
    }
   ],
   "return_type" : "_ZTIv",
   "source_file" : "/external/libevent/include/event2/dns.h"
  },
  {
   "function_name" : "evdns_set_log_fn",
   "linker_set_key" : "evdns_set_log_fn",
   "parameters" :
   [
    {
     "referenced_type" : "_ZTIPFviPKcE"
    }
   ],
   "return_type" : "_ZTIv",
   "source_file" : "/external/libevent/include/event2/dns.h"
  },
  {
   "function_name" : "evdns_set_option",
   "linker_set_key" : "evdns_set_option",
   "parameters" :
   [
    {
     "referenced_type" : "_ZTIPKc"
    },
    {
     "referenced_type" : "_ZTIPKc"
    },
    {
     "referenced_type" : "_ZTIi"
    }
   ],
   "return_type" : "_ZTIi",
   "source_file" : "/external/libevent/include/event2/dns_compat.h"
  },
  {
   "function_name" : "evdns_set_random_bytes_fn",
   "linker_set_key" : "evdns_set_random_bytes_fn",
   "parameters" :
   [
    {
     "referenced_type" : "_ZTIPFvPcjE"
    }
   ],
   "return_type" : "_ZTIv",
   "source_file" : "/external/libevent/include/event2/dns.h"
  },
  {
   "function_name" : "evdns_set_transaction_id_fn",
   "linker_set_key" : "evdns_set_transaction_id_fn",
   "parameters" :
   [
    {
     "referenced_type" : "_ZTIPFtvE"
    }
   ],
   "return_type" : "_ZTIv",
   "source_file" : "/external/libevent/include/event2/dns.h"
  },
  {
   "function_name" : "evdns_shutdown",
   "linker_set_key" : "evdns_shutdown",
   "parameters" :
   [
    {
     "referenced_type" : "_ZTIi"
    }
   ],
   "return_type" : "_ZTIv",
   "source_file" : "/external/libevent/include/event2/dns_compat.h"
  },
  {
   "function_name" : "event_active",
   "linker_set_key" : "event_active",
   "parameters" :
   [
    {
     "referenced_type" : "_ZTIP5event"
    },
    {
     "referenced_type" : "_ZTIi"
    },
    {
     "referenced_type" : "_ZTIs"
    }
   ],
   "return_type" : "_ZTIv",
   "source_file" : "/external/libevent/include/event2/event.h"
  },
  {
   "function_name" : "event_add",
   "linker_set_key" : "event_add",
   "parameters" :
   [
    {
     "referenced_type" : "_ZTIP5event"
    },
    {
     "referenced_type" : "_ZTIPK7timeval"
    }
   ],
   "return_type" : "_ZTIi",
   "source_file" : "/external/libevent/include/event2/event.h"
  },
  {
   "function_name" : "event_assign",
   "linker_set_key" : "event_assign",
   "parameters" :
   [
    {
     "referenced_type" : "_ZTIP5event"
    },
    {
     "referenced_type" : "_ZTIP10event_base"
    },
    {
     "referenced_type" : "_ZTIi"
    },
    {
     "referenced_type" : "_ZTIs"
    },
    {
     "referenced_type" : "_ZTIPFvisPvE"
    },
    {
     "referenced_type" : "_ZTIPv"
    }
   ],
   "return_type" : "_ZTIi",
   "source_file" : "/external/libevent/include/event2/event.h"
  },
  {
   "function_name" : "event_base_active_by_fd",
   "linker_set_key" : "event_base_active_by_fd",
   "parameters" :
   [
    {
     "referenced_type" : "_ZTIP10event_base"
    },
    {
     "referenced_type" : "_ZTIi"
    },
    {
     "referenced_type" : "_ZTIs"
    }
   ],
   "return_type" : "_ZTIv",
   "source_file" : "/external/libevent/include/event2/event.h"
  },
  {
   "function_name" : "event_base_active_by_signal",
   "linker_set_key" : "event_base_active_by_signal",
   "parameters" :
   [
    {
     "referenced_type" : "_ZTIP10event_base"
    },
    {
     "referenced_type" : "_ZTIi"
    }
   ],
   "return_type" : "_ZTIv",
   "source_file" : "/external/libevent/include/event2/event.h"
  },
  {
   "function_name" : "event_base_dispatch",
   "linker_set_key" : "event_base_dispatch",
   "parameters" :
   [
    {
     "referenced_type" : "_ZTIP10event_base"
    }
   ],
   "return_type" : "_ZTIi",
   "source_file" : "/external/libevent/include/event2/event.h"
  },
  {
   "function_name" : "event_base_dump_events",
   "linker_set_key" : "event_base_dump_events",
   "parameters" :
   [
    {
     "referenced_type" : "_ZTIP10event_base"
    },
    {
     "referenced_type" : "_ZTIP7__sFILE"
    }
   ],
   "return_type" : "_ZTIv",
   "source_file" : "/external/libevent/include/event2/event.h"
  },
  {
   "function_name" : "event_base_foreach_event",
   "linker_set_key" : "event_base_foreach_event",
   "parameters" :
   [
    {
     "referenced_type" : "_ZTIP10event_base"
    },
    {
     "referenced_type" : "_ZTIPFiPK10event_basePK5eventPvE"
    },
    {
     "referenced_type" : "_ZTIPv"
    }
   ],
   "return_type" : "_ZTIi",
   "source_file" : "/external/libevent/include/event2/event.h"
  },
  {
   "function_name" : "event_base_free",
   "linker_set_key" : "event_base_free",
   "parameters" :
   [
    {
     "referenced_type" : "_ZTIP10event_base"
    }
   ],
   "return_type" : "_ZTIv",
   "source_file" : "/external/libevent/include/event2/event.h"
  },
  {
   "function_name" : "event_base_free_nofinalize",
   "linker_set_key" : "event_base_free_nofinalize",
   "parameters" :
   [
    {
     "referenced_type" : "_ZTIP10event_base"
    }
   ],
   "return_type" : "_ZTIv",
   "source_file" : "/external/libevent/include/event2/event.h"
  },
  {
   "function_name" : "event_base_get_features",
   "linker_set_key" : "event_base_get_features",
   "parameters" :
   [
    {
     "referenced_type" : "_ZTIPK10event_base"
    }
   ],
   "return_type" : "_ZTIi",
   "source_file" : "/external/libevent/include/event2/event.h"
  },
  {
   "function_name" : "event_base_get_max_events",
   "linker_set_key" : "event_base_get_max_events",
   "parameters" :
   [
    {
     "referenced_type" : "_ZTIP10event_base"
    },
    {
     "referenced_type" : "_ZTIj"
    },
    {
     "referenced_type" : "_ZTIi"
    }
   ],
   "return_type" : "_ZTIi",
   "source_file" : "/external/libevent/include/event2/event.h"
  },
  {
   "function_name" : "event_base_get_method",
   "linker_set_key" : "event_base_get_method",
   "parameters" :
   [
    {
     "referenced_type" : "_ZTIPK10event_base"
    }
   ],
   "return_type" : "_ZTIPKc",
   "source_file" : "/external/libevent/include/event2/event.h"
  },
  {
   "function_name" : "event_base_get_npriorities",
   "linker_set_key" : "event_base_get_npriorities",
   "parameters" :
   [
    {
     "referenced_type" : "_ZTIP10event_base"
    }
   ],
   "return_type" : "_ZTIi",
   "source_file" : "/external/libevent/include/event2/event.h"
  },
  {
   "function_name" : "event_base_get_num_events",
   "linker_set_key" : "event_base_get_num_events",
   "parameters" :
   [
    {
     "referenced_type" : "_ZTIP10event_base"
    },
    {
     "referenced_type" : "_ZTIj"
    }
   ],
   "return_type" : "_ZTIi",
   "source_file" : "/external/libevent/include/event2/event.h"
  },
  {
   "function_name" : "event_base_get_running_event",
   "linker_set_key" : "event_base_get_running_event",
   "parameters" :
   [
    {
     "referenced_type" : "_ZTIP10event_base"
    }
   ],
   "return_type" : "_ZTIP5event",
   "source_file" : "/external/libevent/include/event2/event.h"
  },
  {
   "function_name" : "event_base_gettimeofday_cached",
   "linker_set_key" : "event_base_gettimeofday_cached",
   "parameters" :
   [
    {
     "referenced_type" : "_ZTIP10event_base"
    },
    {
     "referenced_type" : "_ZTIP7timeval"
    }
   ],
   "return_type" : "_ZTIi",
   "source_file" : "/external/libevent/include/event2/event.h"
  },
  {
   "function_name" : "event_base_got_break",
   "linker_set_key" : "event_base_got_break",
   "parameters" :
   [
    {
     "referenced_type" : "_ZTIP10event_base"
    }
   ],
   "return_type" : "_ZTIi",
   "source_file" : "/external/libevent/include/event2/event.h"
  },
  {
   "function_name" : "event_base_got_exit",
   "linker_set_key" : "event_base_got_exit",
   "parameters" :
   [
    {
     "referenced_type" : "_ZTIP10event_base"
    }
   ],
   "return_type" : "_ZTIi",
   "source_file" : "/external/libevent/include/event2/event.h"
  },
  {
   "function_name" : "event_base_init_common_timeout",
   "linker_set_key" : "event_base_init_common_timeout",
   "parameters" :
   [
    {
     "referenced_type" : "_ZTIP10event_base"
    },
    {
     "referenced_type" : "_ZTIPK7timeval"
    }
   ],
   "return_type" : "_ZTIPK7timeval",
   "source_file" : "/external/libevent/include/event2/event.h"
  },
  {
   "function_name" : "event_base_loop",
   "linker_set_key" : "event_base_loop",
   "parameters" :
   [
    {
     "referenced_type" : "_ZTIP10event_base"
    },
    {
     "referenced_type" : "_ZTIi"
    }
   ],
   "return_type" : "_ZTIi",
   "source_file" : "/external/libevent/include/event2/event.h"
  },
  {
   "function_name" : "event_base_loopbreak",
   "linker_set_key" : "event_base_loopbreak",
   "parameters" :
   [
    {
     "referenced_type" : "_ZTIP10event_base"
    }
   ],
   "return_type" : "_ZTIi",
   "source_file" : "/external/libevent/include/event2/event.h"
  },
  {
   "function_name" : "event_base_loopcontinue",
   "linker_set_key" : "event_base_loopcontinue",
   "parameters" :
   [
    {
     "referenced_type" : "_ZTIP10event_base"
    }
   ],
   "return_type" : "_ZTIi",
   "source_file" : "/external/libevent/include/event2/event.h"
  },
  {
   "function_name" : "event_base_loopexit",
   "linker_set_key" : "event_base_loopexit",
   "parameters" :
   [
    {
     "referenced_type" : "_ZTIP10event_base"
    },
    {
     "referenced_type" : "_ZTIPK7timeval"
    }
   ],
   "return_type" : "_ZTIi",
   "source_file" : "/external/libevent/include/event2/event.h"
  },
  {
   "function_name" : "event_base_new",
   "linker_set_key" : "event_base_new",
   "return_type" : "_ZTIP10event_base",
   "source_file" : "/external/libevent/include/event2/event.h"
  },
  {
   "function_name" : "event_base_new_with_config",
   "linker_set_key" : "event_base_new_with_config",
   "parameters" :
   [
    {
     "referenced_type" : "_ZTIPK12event_config"
    }
   ],
   "return_type" : "_ZTIP10event_base",
   "source_file" : "/external/libevent/include/event2/event.h"
  },
  {
   "function_name" : "event_base_once",
   "linker_set_key" : "event_base_once",
   "parameters" :
   [
    {
     "referenced_type" : "_ZTIP10event_base"
    },
    {
     "referenced_type" : "_ZTIi"
    },
    {
     "referenced_type" : "_ZTIs"
    },
    {
     "referenced_type" : "_ZTIPFvisPvE"
    },
    {
     "referenced_type" : "_ZTIPv"
    },
    {
     "referenced_type" : "_ZTIPK7timeval"
    }
   ],
   "return_type" : "_ZTIi",
   "source_file" : "/external/libevent/include/event2/event.h"
  },
  {
   "function_name" : "event_base_priority_init",
   "linker_set_key" : "event_base_priority_init",
   "parameters" :
   [
    {
     "referenced_type" : "_ZTIP10event_base"
    },
    {
     "referenced_type" : "_ZTIi"
    }
   ],
   "return_type" : "_ZTIi",
   "source_file" : "/external/libevent/include/event2/event.h"
  },
  {
   "function_name" : "event_base_set",
   "linker_set_key" : "event_base_set",
   "parameters" :
   [
    {
     "referenced_type" : "_ZTIP10event_base"
    },
    {
     "referenced_type" : "_ZTIP5event"
    }
   ],
   "return_type" : "_ZTIi",
   "source_file" : "/external/libevent/include/event2/event.h"
  },
  {
   "function_name" : "event_base_update_cache_time",
   "linker_set_key" : "event_base_update_cache_time",
   "parameters" :
   [
    {
     "referenced_type" : "_ZTIP10event_base"
    }
   ],
   "return_type" : "_ZTIi",
   "source_file" : "/external/libevent/include/event2/event.h"
  },
  {
   "function_name" : "event_config_avoid_method",
   "linker_set_key" : "event_config_avoid_method",
   "parameters" :
   [
    {
     "referenced_type" : "_ZTIP12event_config"
    },
    {
     "referenced_type" : "_ZTIPKc"
    }
   ],
   "return_type" : "_ZTIi",
   "source_file" : "/external/libevent/include/event2/event.h"
  },
  {
   "function_name" : "event_config_free",
   "linker_set_key" : "event_config_free",
   "parameters" :
   [
    {
     "referenced_type" : "_ZTIP12event_config"
    }
   ],
   "return_type" : "_ZTIv",
   "source_file" : "/external/libevent/include/event2/event.h"
  },
  {
   "function_name" : "event_config_new",
   "linker_set_key" : "event_config_new",
   "return_type" : "_ZTIP12event_config",
   "source_file" : "/external/libevent/include/event2/event.h"
  },
  {
   "function_name" : "event_config_require_features",
   "linker_set_key" : "event_config_require_features",
   "parameters" :
   [
    {
     "referenced_type" : "_ZTIP12event_config"
    },
    {
     "referenced_type" : "_ZTIi"
    }
   ],
   "return_type" : "_ZTIi",
   "source_file" : "/external/libevent/include/event2/event.h"
  },
  {
   "function_name" : "event_config_set_flag",
   "linker_set_key" : "event_config_set_flag",
   "parameters" :
   [
    {
     "referenced_type" : "_ZTIP12event_config"
    },
    {
     "referenced_type" : "_ZTIi"
    }
   ],
   "return_type" : "_ZTIi",
   "source_file" : "/external/libevent/include/event2/event.h"
  },
  {
   "function_name" : "event_config_set_max_dispatch_interval",
   "linker_set_key" : "event_config_set_max_dispatch_interval",
   "parameters" :
   [
    {
     "referenced_type" : "_ZTIP12event_config"
    },
    {
     "referenced_type" : "_ZTIPK7timeval"
    },
    {
     "referenced_type" : "_ZTIi"
    },
    {
     "referenced_type" : "_ZTIi"
    }
   ],
   "return_type" : "_ZTIi",
   "source_file" : "/external/libevent/include/event2/event.h"
  },
  {
   "function_name" : "event_config_set_num_cpus_hint",
   "linker_set_key" : "event_config_set_num_cpus_hint",
   "parameters" :
   [
    {
     "referenced_type" : "_ZTIP12event_config"
    },
    {
     "referenced_type" : "_ZTIi"
    }
   ],
   "return_type" : "_ZTIi",
   "source_file" : "/external/libevent/include/event2/event.h"
  },
  {
   "function_name" : "event_debug_unassign",
   "linker_set_key" : "event_debug_unassign",
   "parameters" :
   [
    {
     "referenced_type" : "_ZTIP5event"
    }
   ],
   "return_type" : "_ZTIv",
   "source_file" : "/external/libevent/include/event2/event.h"
  },
  {
   "function_name" : "event_del",
   "linker_set_key" : "event_del",
   "parameters" :
   [
    {
     "referenced_type" : "_ZTIP5event"
    }
   ],
   "return_type" : "_ZTIi",
   "source_file" : "/external/libevent/include/event2/event.h"
  },
  {
   "function_name" : "event_del_block",
   "linker_set_key" : "event_del_block",
   "parameters" :
   [
    {
     "referenced_type" : "_ZTIP5event"
    }
   ],
   "return_type" : "_ZTIi",
   "source_file" : "/external/libevent/include/event2/event.h"
  },
  {
   "function_name" : "event_del_noblock",
   "linker_set_key" : "event_del_noblock",
   "parameters" :
   [
    {
     "referenced_type" : "_ZTIP5event"
    }
   ],
   "return_type" : "_ZTIi",
   "source_file" : "/external/libevent/include/event2/event.h"
  },
  {
   "function_name" : "event_dispatch",
   "linker_set_key" : "event_dispatch",
   "return_type" : "_ZTIi",
   "source_file" : "/external/libevent/include/event2/event_compat.h"
  },
  {
   "function_name" : "event_enable_debug_logging",
   "linker_set_key" : "event_enable_debug_logging",
   "parameters" :
   [
    {
     "referenced_type" : "_ZTIj"
    }
   ],
   "return_type" : "_ZTIv",
   "source_file" : "/external/libevent/include/event2/event.h"
  },
  {
   "function_name" : "event_enable_debug_mode",
   "linker_set_key" : "event_enable_debug_mode",
   "return_type" : "_ZTIv",
   "source_file" : "/external/libevent/include/event2/event.h"
  },
  {
   "function_name" : "event_finalize",
   "linker_set_key" : "event_finalize",
   "parameters" :
   [
    {
     "referenced_type" : "_ZTIj"
    },
    {
     "referenced_type" : "_ZTIP5event"
    },
    {
     "referenced_type" : "_ZTIPFvP5eventPvE"
    }
   ],
   "return_type" : "_ZTIi",
   "source_file" : "/external/libevent/include/event2/event.h"
  },
  {
   "function_name" : "event_free",
   "linker_set_key" : "event_free",
   "parameters" :
   [
    {
     "referenced_type" : "_ZTIP5event"
    }
   ],
   "return_type" : "_ZTIv",
   "source_file" : "/external/libevent/include/event2/event.h"
  },
  {
   "function_name" : "event_free_finalize",
   "linker_set_key" : "event_free_finalize",
   "parameters" :
   [
    {
     "referenced_type" : "_ZTIj"
    },
    {
     "referenced_type" : "_ZTIP5event"
    },
    {
     "referenced_type" : "_ZTIPFvP5eventPvE"
    }
   ],
   "return_type" : "_ZTIi",
   "source_file" : "/external/libevent/include/event2/event.h"
  },
  {
   "function_name" : "event_get_assignment",
   "linker_set_key" : "event_get_assignment",
   "parameters" :
   [
    {
     "referenced_type" : "_ZTIPK5event"
    },
    {
     "referenced_type" : "_ZTIPP10event_base"
    },
    {
     "referenced_type" : "_ZTIPi"
    },
    {
     "referenced_type" : "_ZTIPs"
    },
    {
     "referenced_type" : "_ZTIPPFvisPvE"
    },
    {
     "referenced_type" : "_ZTIPPv"
    }
   ],
   "return_type" : "_ZTIv",
   "source_file" : "/external/libevent/include/event2/event.h"
  },
  {
   "function_name" : "event_get_base",
   "linker_set_key" : "event_get_base",
   "parameters" :
   [
    {
     "referenced_type" : "_ZTIPK5event"
    }
   ],
   "return_type" : "_ZTIP10event_base",
   "source_file" : "/external/libevent/include/event2/event.h"
  },
  {
   "function_name" : "event_get_callback",
   "linker_set_key" : "event_get_callback",
   "parameters" :
   [
    {
     "referenced_type" : "_ZTIPK5event"
    }
   ],
   "return_type" : "_ZTIPFvisPvE",
   "source_file" : "/external/libevent/include/event2/event.h"
  },
  {
   "function_name" : "event_get_callback_arg",
   "linker_set_key" : "event_get_callback_arg",
   "parameters" :
   [
    {
     "referenced_type" : "_ZTIPK5event"
    }
   ],
   "return_type" : "_ZTIPv",
   "source_file" : "/external/libevent/include/event2/event.h"
  },
  {
   "function_name" : "event_get_events",
   "linker_set_key" : "event_get_events",
   "parameters" :
   [
    {
     "referenced_type" : "_ZTIPK5event"
    }
   ],
   "return_type" : "_ZTIs",
   "source_file" : "/external/libevent/include/event2/event.h"
  },
  {
   "function_name" : "event_get_fd",
   "linker_set_key" : "event_get_fd",
   "parameters" :
   [
    {
     "referenced_type" : "_ZTIPK5event"
    }
   ],
   "return_type" : "_ZTIi",
   "source_file" : "/external/libevent/include/event2/event.h"
  },
  {
   "function_name" : "event_get_method",
   "linker_set_key" : "event_get_method",
   "return_type" : "_ZTIPKc",
   "source_file" : "/external/libevent/include/event2/event_compat.h"
  },
  {
   "function_name" : "event_get_priority",
   "linker_set_key" : "event_get_priority",
   "parameters" :
   [
    {
     "referenced_type" : "_ZTIPK5event"
    }
   ],
   "return_type" : "_ZTIi",
   "source_file" : "/external/libevent/include/event2/event.h"
  },
  {
   "function_name" : "event_get_struct_event_size",
   "linker_set_key" : "event_get_struct_event_size",
   "return_type" : "_ZTIj",
   "source_file" : "/external/libevent/include/event2/event.h"
  },
  {
   "function_name" : "event_get_supported_methods",
   "linker_set_key" : "event_get_supported_methods",
   "return_type" : "_ZTIPPKc",
   "source_file" : "/external/libevent/include/event2/event.h"
  },
  {
   "function_name" : "event_get_version",
   "linker_set_key" : "event_get_version",
   "return_type" : "_ZTIPKc",
   "source_file" : "/external/libevent/include/event2/event.h"
  },
  {
   "function_name" : "event_get_version_number",
   "linker_set_key" : "event_get_version_number",
   "return_type" : "_ZTIj",
   "source_file" : "/external/libevent/include/event2/event.h"
  },
  {
   "function_name" : "event_gettime_monotonic",
   "linker_set_key" : "event_gettime_monotonic",
   "parameters" :
   [
    {
     "referenced_type" : "_ZTIP10event_base"
    },
    {
     "referenced_type" : "_ZTIP7timeval"
    }
   ],
   "return_type" : "_ZTIi",
   "source_file" : "/external/libevent/include/event2/event.h"
  },
  {
   "function_name" : "event_init",
   "linker_set_key" : "event_init",
   "return_type" : "_ZTIP10event_base",
   "source_file" : "/external/libevent/include/event2/event_compat.h"
  },
  {
   "function_name" : "event_initialized",
   "linker_set_key" : "event_initialized",
   "parameters" :
   [
    {
     "referenced_type" : "_ZTIPK5event"
    }
   ],
   "return_type" : "_ZTIi",
   "source_file" : "/external/libevent/include/event2/event.h"
  },
  {
   "function_name" : "event_loop",
   "linker_set_key" : "event_loop",
   "parameters" :
   [
    {
     "referenced_type" : "_ZTIi"
    }
   ],
   "return_type" : "_ZTIi",
   "source_file" : "/external/libevent/include/event2/event_compat.h"
  },
  {
   "function_name" : "event_loopbreak",
   "linker_set_key" : "event_loopbreak",
   "return_type" : "_ZTIi",
   "source_file" : "/external/libevent/include/event2/event_compat.h"
  },
  {
   "function_name" : "event_loopexit",
   "linker_set_key" : "event_loopexit",
   "parameters" :
   [
    {
     "referenced_type" : "_ZTIPK7timeval"
    }
   ],
   "return_type" : "_ZTIi",
   "source_file" : "/external/libevent/include/event2/event_compat.h"
  },
  {
   "function_name" : "event_new",
   "linker_set_key" : "event_new",
   "parameters" :
   [
    {
     "referenced_type" : "_ZTIP10event_base"
    },
    {
     "referenced_type" : "_ZTIi"
    },
    {
     "referenced_type" : "_ZTIs"
    },
    {
     "referenced_type" : "_ZTIPFvisPvE"
    },
    {
     "referenced_type" : "_ZTIPv"
    }
   ],
   "return_type" : "_ZTIP5event",
   "source_file" : "/external/libevent/include/event2/event.h"
  },
  {
   "function_name" : "event_once",
   "linker_set_key" : "event_once",
   "parameters" :
   [
    {
     "referenced_type" : "_ZTIi"
    },
    {
     "referenced_type" : "_ZTIs"
    },
    {
     "referenced_type" : "_ZTIPFvisPvE"
    },
    {
     "referenced_type" : "_ZTIPv"
    },
    {
     "referenced_type" : "_ZTIPK7timeval"
    }
   ],
   "return_type" : "_ZTIi",
   "source_file" : "/external/libevent/include/event2/event_compat.h"
  },
  {
   "function_name" : "event_pending",
   "linker_set_key" : "event_pending",
   "parameters" :
   [
    {
     "referenced_type" : "_ZTIPK5event"
    },
    {
     "referenced_type" : "_ZTIs"
    },
    {
     "referenced_type" : "_ZTIP7timeval"
    }
   ],
   "return_type" : "_ZTIi",
   "source_file" : "/external/libevent/include/event2/event.h"
  },
  {
   "function_name" : "event_priority_init",
   "linker_set_key" : "event_priority_init",
   "parameters" :
   [
    {
     "referenced_type" : "_ZTIi"
    }
   ],
   "return_type" : "_ZTIi",
   "source_file" : "/external/libevent/include/event2/event_compat.h"
  },
  {
   "function_name" : "event_priority_set",
   "linker_set_key" : "event_priority_set",
   "parameters" :
   [
    {
     "referenced_type" : "_ZTIP5event"
    },
    {
     "referenced_type" : "_ZTIi"
    }
   ],
   "return_type" : "_ZTIi",
   "source_file" : "/external/libevent/include/event2/event.h"
  },
  {
   "function_name" : "event_reinit",
   "linker_set_key" : "event_reinit",
   "parameters" :
   [
    {
     "referenced_type" : "_ZTIP10event_base"
    }
   ],
   "return_type" : "_ZTIi",
   "source_file" : "/external/libevent/include/event2/event.h"
  },
  {
   "function_name" : "event_remove_timer",
   "linker_set_key" : "event_remove_timer",
   "parameters" :
   [
    {
     "referenced_type" : "_ZTIP5event"
    }
   ],
   "return_type" : "_ZTIi",
   "source_file" : "/external/libevent/include/event2/event.h"
  },
  {
   "function_name" : "event_self_cbarg",
   "linker_set_key" : "event_self_cbarg",
   "return_type" : "_ZTIPv",
   "source_file" : "/external/libevent/include/event2/event.h"
  },
  {
   "function_name" : "event_set",
   "linker_set_key" : "event_set",
   "parameters" :
   [
    {
     "referenced_type" : "_ZTIP5event"
    },
    {
     "referenced_type" : "_ZTIi"
    },
    {
     "referenced_type" : "_ZTIs"
    },
    {
     "referenced_type" : "_ZTIPFvisPvE"
    },
    {
     "referenced_type" : "_ZTIPv"
    }
   ],
   "return_type" : "_ZTIv",
   "source_file" : "/external/libevent/include/event2/event_compat.h"
  },
  {
   "function_name" : "event_set_fatal_callback",
   "linker_set_key" : "event_set_fatal_callback",
   "parameters" :
   [
    {
     "referenced_type" : "_ZTIPFviE"
    }
   ],
   "return_type" : "_ZTIv",
   "source_file" : "/external/libevent/include/event2/event.h"
  },
  {
   "function_name" : "event_set_log_callback",
   "linker_set_key" : "event_set_log_callback",
   "parameters" :
   [
    {
     "referenced_type" : "_ZTIPFviPKcE"
    }
   ],
   "return_type" : "_ZTIv",
   "source_file" : "/external/libevent/include/event2/event.h"
  },
  {
   "function_name" : "event_set_mem_functions",
   "linker_set_key" : "event_set_mem_functions",
   "parameters" :
   [
    {
     "referenced_type" : "_ZTIPFPvjE"
    },
    {
     "referenced_type" : "_ZTIPFPvS_jE"
    },
    {
     "referenced_type" : "_ZTIPFvPvE"
    }
   ],
   "return_type" : "_ZTIv",
   "source_file" : "/external/libevent/include/event2/event.h"
  },
  {
   "function_name" : "evhttp_accept_socket",
   "linker_set_key" : "evhttp_accept_socket",
   "parameters" :
   [
    {
     "referenced_type" : "_ZTIP6evhttp"
    },
    {
     "referenced_type" : "_ZTIi"
    }
   ],
   "return_type" : "_ZTIi",
   "source_file" : "/external/libevent/include/event2/http.h"
  },
  {
   "function_name" : "evhttp_accept_socket_with_handle",
   "linker_set_key" : "evhttp_accept_socket_with_handle",
   "parameters" :
   [
    {
     "referenced_type" : "_ZTIP6evhttp"
    },
    {
     "referenced_type" : "_ZTIi"
    }
   ],
   "return_type" : "_ZTIP19evhttp_bound_socket",
   "source_file" : "/external/libevent/include/event2/http.h"
  },
  {
   "function_name" : "evhttp_add_header",
   "linker_set_key" : "evhttp_add_header",
   "parameters" :
   [
    {
     "referenced_type" : "_ZTIP9evkeyvalq"
    },
    {
     "referenced_type" : "_ZTIPKc"
    },
    {
     "referenced_type" : "_ZTIPKc"
    }
   ],
   "return_type" : "_ZTIi",
   "source_file" : "/external/libevent/include/event2/http.h"
  },
  {
   "function_name" : "evhttp_add_server_alias",
   "linker_set_key" : "evhttp_add_server_alias",
   "parameters" :
   [
    {
     "referenced_type" : "_ZTIP6evhttp"
    },
    {
     "referenced_type" : "_ZTIPKc"
    }
   ],
   "return_type" : "_ZTIi",
   "source_file" : "/external/libevent/include/event2/http.h"
  },
  {
   "function_name" : "evhttp_add_virtual_host",
   "linker_set_key" : "evhttp_add_virtual_host",
   "parameters" :
   [
    {
     "referenced_type" : "_ZTIP6evhttp"
    },
    {
     "referenced_type" : "_ZTIPKc"
    },
    {
     "referenced_type" : "_ZTIP6evhttp"
    }
   ],
   "return_type" : "_ZTIi",
   "source_file" : "/external/libevent/include/event2/http.h"
  },
  {
   "function_name" : "evhttp_bind_listener",
   "linker_set_key" : "evhttp_bind_listener",
   "parameters" :
   [
    {
     "referenced_type" : "_ZTIP6evhttp"
    },
    {
     "referenced_type" : "_ZTIP14evconnlistener"
    }
   ],
   "return_type" : "_ZTIP19evhttp_bound_socket",
   "source_file" : "/external/libevent/include/event2/http.h"
  },
  {
   "function_name" : "evhttp_bind_socket",
   "linker_set_key" : "evhttp_bind_socket",
   "parameters" :
   [
    {
     "referenced_type" : "_ZTIP6evhttp"
    },
    {
     "referenced_type" : "_ZTIPKc"
    },
    {
     "referenced_type" : "_ZTIt"
    }
   ],
   "return_type" : "_ZTIi",
   "source_file" : "/external/libevent/include/event2/http.h"
  },
  {
   "function_name" : "evhttp_bind_socket_with_handle",
   "linker_set_key" : "evhttp_bind_socket_with_handle",
   "parameters" :
   [
    {
     "referenced_type" : "_ZTIP6evhttp"
    },
    {
     "referenced_type" : "_ZTIPKc"
    },
    {
     "referenced_type" : "_ZTIt"
    }
   ],
   "return_type" : "_ZTIP19evhttp_bound_socket",
   "source_file" : "/external/libevent/include/event2/http.h"
  },
  {
   "function_name" : "evhttp_bound_socket_get_fd",
   "linker_set_key" : "evhttp_bound_socket_get_fd",
   "parameters" :
   [
    {
     "referenced_type" : "_ZTIP19evhttp_bound_socket"
    }
   ],
   "return_type" : "_ZTIi",
   "source_file" : "/external/libevent/include/event2/http.h"
  },
  {
   "function_name" : "evhttp_bound_socket_get_listener",
   "linker_set_key" : "evhttp_bound_socket_get_listener",
   "parameters" :
   [
    {
     "referenced_type" : "_ZTIP19evhttp_bound_socket"
    }
   ],
   "return_type" : "_ZTIP14evconnlistener",
   "source_file" : "/external/libevent/include/event2/http.h"
  },
  {
   "function_name" : "evhttp_cancel_request",
   "linker_set_key" : "evhttp_cancel_request",
   "parameters" :
   [
    {
     "referenced_type" : "_ZTIP14evhttp_request"
    }
   ],
   "return_type" : "_ZTIv",
   "source_file" : "/external/libevent/include/event2/http.h"
  },
  {
   "function_name" : "evhttp_clear_headers",
   "linker_set_key" : "evhttp_clear_headers",
   "parameters" :
   [
    {
     "referenced_type" : "_ZTIP9evkeyvalq"
    }
   ],
   "return_type" : "_ZTIv",
   "source_file" : "/external/libevent/include/event2/http.h"
  },
  {
   "function_name" : "evhttp_connection_base_bufferevent_new",
   "linker_set_key" : "evhttp_connection_base_bufferevent_new",
   "parameters" :
   [
    {
     "referenced_type" : "_ZTIP10event_base"
    },
    {
     "referenced_type" : "_ZTIP10evdns_base"
    },
    {
     "referenced_type" : "_ZTIP11bufferevent"
    },
    {
     "referenced_type" : "_ZTIPKc"
    },
    {
     "referenced_type" : "_ZTIt"
    }
   ],
   "return_type" : "_ZTIP17evhttp_connection",
   "source_file" : "/external/libevent/include/event2/http.h"
  },
  {
   "function_name" : "evhttp_connection_base_new",
   "linker_set_key" : "evhttp_connection_base_new",
   "parameters" :
   [
    {
     "referenced_type" : "_ZTIP10event_base"
    },
    {
     "referenced_type" : "_ZTIP10evdns_base"
    },
    {
     "referenced_type" : "_ZTIPKc"
    },
    {
     "referenced_type" : "_ZTIt"
    }
   ],
   "return_type" : "_ZTIP17evhttp_connection",
   "source_file" : "/external/libevent/include/event2/http.h"
  },
  {
   "function_name" : "evhttp_connection_free",
   "linker_set_key" : "evhttp_connection_free",
   "parameters" :
   [
    {
     "referenced_type" : "_ZTIP17evhttp_connection"
    }
   ],
   "return_type" : "_ZTIv",
   "source_file" : "/external/libevent/include/event2/http.h"
  },
  {
   "function_name" : "evhttp_connection_free_on_completion",
   "linker_set_key" : "evhttp_connection_free_on_completion",
   "parameters" :
   [
    {
     "referenced_type" : "_ZTIP17evhttp_connection"
    }
   ],
   "return_type" : "_ZTIv",
   "source_file" : "/external/libevent/include/event2/http.h"
  },
  {
   "function_name" : "evhttp_connection_get_addr",
   "linker_set_key" : "evhttp_connection_get_addr",
   "parameters" :
   [
    {
     "referenced_type" : "_ZTIP17evhttp_connection"
    }
   ],
   "return_type" : "_ZTIPK8sockaddr",
   "source_file" : "/external/libevent/include/event2/http.h"
  },
  {
   "function_name" : "evhttp_connection_get_base",
   "linker_set_key" : "evhttp_connection_get_base",
   "parameters" :
   [
    {
     "referenced_type" : "_ZTIP17evhttp_connection"
    }
   ],
   "return_type" : "_ZTIP10event_base",
   "source_file" : "/external/libevent/include/event2/http.h"
  },
  {
   "function_name" : "evhttp_connection_get_bufferevent",
   "linker_set_key" : "evhttp_connection_get_bufferevent",
   "parameters" :
   [
    {
     "referenced_type" : "_ZTIP17evhttp_connection"
    }
   ],
   "return_type" : "_ZTIP11bufferevent",
   "source_file" : "/external/libevent/include/event2/http.h"
  },
  {
   "function_name" : "evhttp_connection_get_peer",
   "linker_set_key" : "evhttp_connection_get_peer",
   "parameters" :
   [
    {
     "referenced_type" : "_ZTIP17evhttp_connection"
    },
    {
     "referenced_type" : "_ZTIPPc"
    },
    {
     "referenced_type" : "_ZTIPt"
    }
   ],
   "return_type" : "_ZTIv",
   "source_file" : "/external/libevent/include/event2/http.h"
  },
  {
   "function_name" : "evhttp_connection_get_server",
   "linker_set_key" : "evhttp_connection_get_server",
   "parameters" :
   [
    {
     "referenced_type" : "_ZTIP17evhttp_connection"
    }
   ],
   "return_type" : "_ZTIP6evhttp",
   "source_file" : "/external/libevent/include/event2/http.h"
  },
  {
   "function_name" : "evhttp_connection_new",
   "linker_set_key" : "evhttp_connection_new",
   "parameters" :
   [
    {
     "referenced_type" : "_ZTIPKc"
    },
    {
     "referenced_type" : "_ZTIt"
    }
   ],
   "return_type" : "_ZTIP17evhttp_connection",
   "source_file" : "/external/libevent/include/event2/http_compat.h"
  },
  {
   "function_name" : "evhttp_connection_set_base",
   "linker_set_key" : "evhttp_connection_set_base",
   "parameters" :
   [
    {
     "referenced_type" : "_ZTIP17evhttp_connection"
    },
    {
     "referenced_type" : "_ZTIP10event_base"
    }
   ],
   "return_type" : "_ZTIv",
   "source_file" : "/external/libevent/include/event2/http_compat.h"
  },
  {
   "function_name" : "evhttp_connection_set_closecb",
   "linker_set_key" : "evhttp_connection_set_closecb",
   "parameters" :
   [
    {
     "referenced_type" : "_ZTIP17evhttp_connection"
    },
    {
     "referenced_type" : "_ZTIPFvP17evhttp_connectionPvE"
    },
    {
     "referenced_type" : "_ZTIPv"
    }
   ],
   "return_type" : "_ZTIv",
   "source_file" : "/external/libevent/include/event2/http.h"
  },
  {
   "function_name" : "evhttp_connection_set_family",
   "linker_set_key" : "evhttp_connection_set_family",
   "parameters" :
   [
    {
     "referenced_type" : "_ZTIP17evhttp_connection"
    },
    {
     "referenced_type" : "_ZTIi"
    }
   ],
   "return_type" : "_ZTIv",
   "source_file" : "/external/libevent/include/event2/http.h"
  },
  {
   "function_name" : "evhttp_connection_set_flags",
   "linker_set_key" : "evhttp_connection_set_flags",
   "parameters" :
   [
    {
     "referenced_type" : "_ZTIP17evhttp_connection"
    },
    {
     "referenced_type" : "_ZTIi"
    }
   ],
   "return_type" : "_ZTIi",
   "source_file" : "/external/libevent/include/event2/http.h"
  },
  {
   "function_name" : "evhttp_connection_set_initial_retry_tv",
   "linker_set_key" : "evhttp_connection_set_initial_retry_tv",
   "parameters" :
   [
    {
     "referenced_type" : "_ZTIP17evhttp_connection"
    },
    {
     "referenced_type" : "_ZTIPK7timeval"
    }
   ],
   "return_type" : "_ZTIv",
   "source_file" : "/external/libevent/include/event2/http.h"
  },
  {
   "function_name" : "evhttp_connection_set_local_address",
   "linker_set_key" : "evhttp_connection_set_local_address",
   "parameters" :
   [
    {
     "referenced_type" : "_ZTIP17evhttp_connection"
    },
    {
     "referenced_type" : "_ZTIPKc"
    }
   ],
   "return_type" : "_ZTIv",
   "source_file" : "/external/libevent/include/event2/http.h"
  },
  {
   "function_name" : "evhttp_connection_set_local_port",
   "linker_set_key" : "evhttp_connection_set_local_port",
   "parameters" :
   [
    {
     "referenced_type" : "_ZTIP17evhttp_connection"
    },
    {
     "referenced_type" : "_ZTIt"
    }
   ],
   "return_type" : "_ZTIv",
   "source_file" : "/external/libevent/include/event2/http.h"
  },
  {
   "function_name" : "evhttp_connection_set_max_body_size",
   "linker_set_key" : "evhttp_connection_set_max_body_size",
   "parameters" :
   [
    {
     "referenced_type" : "_ZTIP17evhttp_connection"
    },
    {
     "referenced_type" : "_ZTIi"
    }
   ],
   "return_type" : "_ZTIv",
   "source_file" : "/external/libevent/include/event2/http.h"
  },
  {
   "function_name" : "evhttp_connection_set_max_headers_size",
   "linker_set_key" : "evhttp_connection_set_max_headers_size",
   "parameters" :
   [
    {
     "referenced_type" : "_ZTIP17evhttp_connection"
    },
    {
     "referenced_type" : "_ZTIi"
    }
   ],
   "return_type" : "_ZTIv",
   "source_file" : "/external/libevent/include/event2/http.h"
  },
  {
   "function_name" : "evhttp_connection_set_retries",
   "linker_set_key" : "evhttp_connection_set_retries",
   "parameters" :
   [
    {
     "referenced_type" : "_ZTIP17evhttp_connection"
    },
    {
     "referenced_type" : "_ZTIi"
    }
   ],
   "return_type" : "_ZTIv",
   "source_file" : "/external/libevent/include/event2/http.h"
  },
  {
   "function_name" : "evhttp_connection_set_timeout",
   "linker_set_key" : "evhttp_connection_set_timeout",
   "parameters" :
   [
    {
     "referenced_type" : "_ZTIP17evhttp_connection"
    },
    {
     "referenced_type" : "_ZTIi"
    }
   ],
   "return_type" : "_ZTIv",
   "source_file" : "/external/libevent/include/event2/http.h"
  },
  {
   "function_name" : "evhttp_connection_set_timeout_tv",
   "linker_set_key" : "evhttp_connection_set_timeout_tv",
   "parameters" :
   [
    {
     "referenced_type" : "_ZTIP17evhttp_connection"
    },
    {
     "referenced_type" : "_ZTIPK7timeval"
    }
   ],
   "return_type" : "_ZTIv",
   "source_file" : "/external/libevent/include/event2/http.h"
  },
  {
   "function_name" : "evhttp_decode_uri",
   "linker_set_key" : "evhttp_decode_uri",
   "parameters" :
   [
    {
     "referenced_type" : "_ZTIPKc"
    }
   ],
   "return_type" : "_ZTIPc",
   "source_file" : "/external/libevent/include/event2/http.h"
  },
  {
   "function_name" : "evhttp_del_accept_socket",
   "linker_set_key" : "evhttp_del_accept_socket",
   "parameters" :
   [
    {
     "referenced_type" : "_ZTIP6evhttp"
    },
    {
     "referenced_type" : "_ZTIP19evhttp_bound_socket"
    }
   ],
   "return_type" : "_ZTIv",
   "source_file" : "/external/libevent/include/event2/http.h"
  },
  {
   "function_name" : "evhttp_del_cb",
   "linker_set_key" : "evhttp_del_cb",
   "parameters" :
   [
    {
     "referenced_type" : "_ZTIP6evhttp"
    },
    {
     "referenced_type" : "_ZTIPKc"
    }
   ],
   "return_type" : "_ZTIi",
   "source_file" : "/external/libevent/include/event2/http.h"
  },
  {
   "function_name" : "evhttp_encode_uri",
   "linker_set_key" : "evhttp_encode_uri",
   "parameters" :
   [
    {
     "referenced_type" : "_ZTIPKc"
    }
   ],
   "return_type" : "_ZTIPc",
   "source_file" : "/external/libevent/include/event2/http.h"
  },
  {
   "function_name" : "evhttp_find_header",
   "linker_set_key" : "evhttp_find_header",
   "parameters" :
   [
    {
     "referenced_type" : "_ZTIPK9evkeyvalq"
    },
    {
     "referenced_type" : "_ZTIPKc"
    }
   ],
   "return_type" : "_ZTIPKc",
   "source_file" : "/external/libevent/include/event2/http.h"
  },
  {
   "function_name" : "evhttp_foreach_bound_socket",
   "linker_set_key" : "evhttp_foreach_bound_socket",
   "parameters" :
   [
    {
     "referenced_type" : "_ZTIP6evhttp"
    },
    {
     "referenced_type" : "_ZTIPFvP19evhttp_bound_socketPvE"
    },
    {
     "referenced_type" : "_ZTIPv"
    }
   ],
   "return_type" : "_ZTIv",
   "source_file" : "/external/libevent/include/event2/http.h"
  },
  {
   "function_name" : "evhttp_free",
   "linker_set_key" : "evhttp_free",
   "parameters" :
   [
    {
     "referenced_type" : "_ZTIP6evhttp"
    }
   ],
   "return_type" : "_ZTIv",
   "source_file" : "/external/libevent/include/event2/http.h"
  },
  {
   "function_name" : "evhttp_htmlescape",
   "linker_set_key" : "evhttp_htmlescape",
   "parameters" :
   [
    {
     "referenced_type" : "_ZTIPKc"
    }
   ],
   "return_type" : "_ZTIPc",
   "source_file" : "/external/libevent/include/event2/http.h"
  },
  {
   "function_name" : "evhttp_make_request",
   "linker_set_key" : "evhttp_make_request",
   "parameters" :
   [
    {
     "referenced_type" : "_ZTIP17evhttp_connection"
    },
    {
     "referenced_type" : "_ZTIP14evhttp_request"
    },
    {
     "referenced_type" : "_ZTI15evhttp_cmd_type"
    },
    {
     "referenced_type" : "_ZTIPKc"
    }
   ],
   "return_type" : "_ZTIi",
   "source_file" : "/external/libevent/include/event2/http.h"
  },
  {
   "function_name" : "evhttp_new",
   "linker_set_key" : "evhttp_new",
   "parameters" :
   [
    {
     "referenced_type" : "_ZTIP10event_base"
    }
   ],
   "return_type" : "_ZTIP6evhttp",
   "source_file" : "/external/libevent/include/event2/http.h"
  },
  {
   "function_name" : "evhttp_parse_query",
   "linker_set_key" : "evhttp_parse_query",
   "parameters" :
   [
    {
     "referenced_type" : "_ZTIPKc"
    },
    {
     "referenced_type" : "_ZTIP9evkeyvalq"
    }
   ],
   "return_type" : "_ZTIi",
   "source_file" : "/external/libevent/include/event2/http.h"
  },
  {
   "function_name" : "evhttp_parse_query_str",
   "linker_set_key" : "evhttp_parse_query_str",
   "parameters" :
   [
    {
     "referenced_type" : "_ZTIPKc"
    },
    {
     "referenced_type" : "_ZTIP9evkeyvalq"
    }
   ],
   "return_type" : "_ZTIi",
   "source_file" : "/external/libevent/include/event2/http.h"
  },
  {
   "function_name" : "evhttp_remove_header",
   "linker_set_key" : "evhttp_remove_header",
   "parameters" :
   [
    {
     "referenced_type" : "_ZTIP9evkeyvalq"
    },
    {
     "referenced_type" : "_ZTIPKc"
    }
   ],
   "return_type" : "_ZTIi",
   "source_file" : "/external/libevent/include/event2/http.h"
  },
  {
   "function_name" : "evhttp_remove_server_alias",
   "linker_set_key" : "evhttp_remove_server_alias",
   "parameters" :
   [
    {
     "referenced_type" : "_ZTIP6evhttp"
    },
    {
     "referenced_type" : "_ZTIPKc"
    }
   ],
   "return_type" : "_ZTIi",
   "source_file" : "/external/libevent/include/event2/http.h"
  },
  {
   "function_name" : "evhttp_remove_virtual_host",
   "linker_set_key" : "evhttp_remove_virtual_host",
   "parameters" :
   [
    {
     "referenced_type" : "_ZTIP6evhttp"
    },
    {
     "referenced_type" : "_ZTIP6evhttp"
    }
   ],
   "return_type" : "_ZTIi",
   "source_file" : "/external/libevent/include/event2/http.h"
  },
  {
   "function_name" : "evhttp_request_free",
   "linker_set_key" : "evhttp_request_free",
   "parameters" :
   [
    {
     "referenced_type" : "_ZTIP14evhttp_request"
    }
   ],
   "return_type" : "_ZTIv",
   "source_file" : "/external/libevent/include/event2/http.h"
  },
  {
   "function_name" : "evhttp_request_get_command",
   "linker_set_key" : "evhttp_request_get_command",
   "parameters" :
   [
    {
     "referenced_type" : "_ZTIPK14evhttp_request"
    }
   ],
   "return_type" : "_ZTI15evhttp_cmd_type",
   "source_file" : "/external/libevent/include/event2/http.h"
  },
  {
   "function_name" : "evhttp_request_get_connection",
   "linker_set_key" : "evhttp_request_get_connection",
   "parameters" :
   [
    {
     "referenced_type" : "_ZTIP14evhttp_request"
    }
   ],
   "return_type" : "_ZTIP17evhttp_connection",
   "source_file" : "/external/libevent/include/event2/http.h"
  },
  {
   "function_name" : "evhttp_request_get_evhttp_uri",
   "linker_set_key" : "evhttp_request_get_evhttp_uri",
   "parameters" :
   [
    {
     "referenced_type" : "_ZTIPK14evhttp_request"
    }
   ],
   "return_type" : "_ZTIPK10evhttp_uri",
   "source_file" : "/external/libevent/include/event2/http.h"
  },
  {
   "function_name" : "evhttp_request_get_host",
   "linker_set_key" : "evhttp_request_get_host",
   "parameters" :
   [
    {
     "referenced_type" : "_ZTIP14evhttp_request"
    }
   ],
   "return_type" : "_ZTIPKc",
   "source_file" : "/external/libevent/include/event2/http.h"
  },
  {
   "function_name" : "evhttp_request_get_input_buffer",
   "linker_set_key" : "evhttp_request_get_input_buffer",
   "parameters" :
   [
    {
     "referenced_type" : "_ZTIP14evhttp_request"
    }
   ],
   "return_type" : "_ZTIP8evbuffer",
   "source_file" : "/external/libevent/include/event2/http.h"
  },
  {
   "function_name" : "evhttp_request_get_input_headers",
   "linker_set_key" : "evhttp_request_get_input_headers",
   "parameters" :
   [
    {
     "referenced_type" : "_ZTIP14evhttp_request"
    }
   ],
   "return_type" : "_ZTIP9evkeyvalq",
   "source_file" : "/external/libevent/include/event2/http.h"
  },
  {
   "function_name" : "evhttp_request_get_output_buffer",
   "linker_set_key" : "evhttp_request_get_output_buffer",
   "parameters" :
   [
    {
     "referenced_type" : "_ZTIP14evhttp_request"
    }
   ],
   "return_type" : "_ZTIP8evbuffer",
   "source_file" : "/external/libevent/include/event2/http.h"
  },
  {
   "function_name" : "evhttp_request_get_output_headers",
   "linker_set_key" : "evhttp_request_get_output_headers",
   "parameters" :
   [
    {
     "referenced_type" : "_ZTIP14evhttp_request"
    }
   ],
   "return_type" : "_ZTIP9evkeyvalq",
   "source_file" : "/external/libevent/include/event2/http.h"
  },
  {
   "function_name" : "evhttp_request_get_response_code",
   "linker_set_key" : "evhttp_request_get_response_code",
   "parameters" :
   [
    {
     "referenced_type" : "_ZTIPK14evhttp_request"
    }
   ],
   "return_type" : "_ZTIi",
   "source_file" : "/external/libevent/include/event2/http.h"
  },
  {
   "function_name" : "evhttp_request_get_response_code_line",
   "linker_set_key" : "evhttp_request_get_response_code_line",
   "parameters" :
   [
    {
     "referenced_type" : "_ZTIPK14evhttp_request"
    }
   ],
   "return_type" : "_ZTIPKc",
   "source_file" : "/external/libevent/include/event2/http.h"
  },
  {
   "function_name" : "evhttp_request_get_uri",
   "linker_set_key" : "evhttp_request_get_uri",
   "parameters" :
   [
    {
     "referenced_type" : "_ZTIPK14evhttp_request"
    }
   ],
   "return_type" : "_ZTIPKc",
   "source_file" : "/external/libevent/include/event2/http.h"
  },
  {
   "function_name" : "evhttp_request_is_owned",
   "linker_set_key" : "evhttp_request_is_owned",
   "parameters" :
   [
    {
     "referenced_type" : "_ZTIP14evhttp_request"
    }
   ],
   "return_type" : "_ZTIi",
   "source_file" : "/external/libevent/include/event2/http.h"
  },
  {
   "function_name" : "evhttp_request_new",
   "linker_set_key" : "evhttp_request_new",
   "parameters" :
   [
    {
     "referenced_type" : "_ZTIPFvP14evhttp_requestPvE"
    },
    {
     "referenced_type" : "_ZTIPv"
    }
   ],
   "return_type" : "_ZTIP14evhttp_request",
   "source_file" : "/external/libevent/include/event2/http.h"
  },
  {
   "function_name" : "evhttp_request_own",
   "linker_set_key" : "evhttp_request_own",
   "parameters" :
   [
    {
     "referenced_type" : "_ZTIP14evhttp_request"
    }
   ],
   "return_type" : "_ZTIv",
   "source_file" : "/external/libevent/include/event2/http.h"
  },
  {
   "function_name" : "evhttp_request_set_chunked_cb",
   "linker_set_key" : "evhttp_request_set_chunked_cb",
   "parameters" :
   [
    {
     "referenced_type" : "_ZTIP14evhttp_request"
    },
    {
     "referenced_type" : "_ZTIPFvP14evhttp_requestPvE"
    }
   ],
   "return_type" : "_ZTIv",
   "source_file" : "/external/libevent/include/event2/http.h"
  },
  {
   "function_name" : "evhttp_request_set_error_cb",
   "linker_set_key" : "evhttp_request_set_error_cb",
   "parameters" :
   [
    {
     "referenced_type" : "_ZTIP14evhttp_request"
    },
    {
     "referenced_type" : "_ZTIPFv20evhttp_request_errorPvE"
    }
   ],
   "return_type" : "_ZTIv",
   "source_file" : "/external/libevent/include/event2/http.h"
  },
  {
   "function_name" : "evhttp_request_set_header_cb",
   "linker_set_key" : "evhttp_request_set_header_cb",
   "parameters" :
   [
    {
     "referenced_type" : "_ZTIP14evhttp_request"
    },
    {
     "referenced_type" : "_ZTIPFiP14evhttp_requestPvE"
    }
   ],
   "return_type" : "_ZTIv",
   "source_file" : "/external/libevent/include/event2/http.h"
  },
  {
   "function_name" : "evhttp_request_set_on_complete_cb",
   "linker_set_key" : "evhttp_request_set_on_complete_cb",
   "parameters" :
   [
    {
     "referenced_type" : "_ZTIP14evhttp_request"
    },
    {
     "referenced_type" : "_ZTIPFvP14evhttp_requestPvE"
    },
    {
     "referenced_type" : "_ZTIPv"
    }
   ],
   "return_type" : "_ZTIv",
   "source_file" : "/external/libevent/include/event2/http.h"
  },
  {
   "function_name" : "evhttp_send_error",
   "linker_set_key" : "evhttp_send_error",
   "parameters" :
   [
    {
     "referenced_type" : "_ZTIP14evhttp_request"
    },
    {
     "referenced_type" : "_ZTIi"
    },
    {
     "referenced_type" : "_ZTIPKc"
    }
   ],
   "return_type" : "_ZTIv",
   "source_file" : "/external/libevent/include/event2/http.h"
  },
  {
   "function_name" : "evhttp_send_reply",
   "linker_set_key" : "evhttp_send_reply",
   "parameters" :
   [
    {
     "referenced_type" : "_ZTIP14evhttp_request"
    },
    {
     "referenced_type" : "_ZTIi"
    },
    {
     "referenced_type" : "_ZTIPKc"
    },
    {
     "referenced_type" : "_ZTIP8evbuffer"
    }
   ],
   "return_type" : "_ZTIv",
   "source_file" : "/external/libevent/include/event2/http.h"
  },
  {
   "function_name" : "evhttp_send_reply_chunk",
   "linker_set_key" : "evhttp_send_reply_chunk",
   "parameters" :
   [
    {
     "referenced_type" : "_ZTIP14evhttp_request"
    },
    {
     "referenced_type" : "_ZTIP8evbuffer"
    }
   ],
   "return_type" : "_ZTIv",
   "source_file" : "/external/libevent/include/event2/http.h"
  },
  {
   "function_name" : "evhttp_send_reply_chunk_with_cb",
   "linker_set_key" : "evhttp_send_reply_chunk_with_cb",
   "parameters" :
   [
    {
     "referenced_type" : "_ZTIP14evhttp_request"
    },
    {
     "referenced_type" : "_ZTIP8evbuffer"
    },
    {
     "referenced_type" : "_ZTIPFvP17evhttp_connectionPvE"
    },
    {
     "referenced_type" : "_ZTIPv"
    }
   ],
   "return_type" : "_ZTIv",
   "source_file" : "/external/libevent/include/event2/http.h"
  },
  {
   "function_name" : "evhttp_send_reply_end",
   "linker_set_key" : "evhttp_send_reply_end",
   "parameters" :
   [
    {
     "referenced_type" : "_ZTIP14evhttp_request"
    }
   ],
   "return_type" : "_ZTIv",
   "source_file" : "/external/libevent/include/event2/http.h"
  },
  {
   "function_name" : "evhttp_send_reply_start",
   "linker_set_key" : "evhttp_send_reply_start",
   "parameters" :
   [
    {
     "referenced_type" : "_ZTIP14evhttp_request"
    },
    {
     "referenced_type" : "_ZTIi"
    },
    {
     "referenced_type" : "_ZTIPKc"
    }
   ],
   "return_type" : "_ZTIv",
   "source_file" : "/external/libevent/include/event2/http.h"
  },
  {
   "function_name" : "evhttp_set_allowed_methods",
   "linker_set_key" : "evhttp_set_allowed_methods",
   "parameters" :
   [
    {
     "referenced_type" : "_ZTIP6evhttp"
    },
    {
     "referenced_type" : "_ZTIt"
    }
   ],
   "return_type" : "_ZTIv",
   "source_file" : "/external/libevent/include/event2/http.h"
  },
  {
   "function_name" : "evhttp_set_bevcb",
   "linker_set_key" : "evhttp_set_bevcb",
   "parameters" :
   [
    {
     "referenced_type" : "_ZTIP6evhttp"
    },
    {
     "referenced_type" : "_ZTIPFP11buffereventP10event_basePvE"
    },
    {
     "referenced_type" : "_ZTIPv"
    }
   ],
   "return_type" : "_ZTIv",
   "source_file" : "/external/libevent/include/event2/http.h"
  },
  {
   "function_name" : "evhttp_set_cb",
   "linker_set_key" : "evhttp_set_cb",
   "parameters" :
   [
    {
     "referenced_type" : "_ZTIP6evhttp"
    },
    {
     "referenced_type" : "_ZTIPKc"
    },
    {
     "referenced_type" : "_ZTIPFvP14evhttp_requestPvE"
    },
    {
     "referenced_type" : "_ZTIPv"
    }
   ],
   "return_type" : "_ZTIi",
   "source_file" : "/external/libevent/include/event2/http.h"
  },
  {
   "function_name" : "evhttp_set_default_content_type",
   "linker_set_key" : "evhttp_set_default_content_type",
   "parameters" :
   [
    {
     "referenced_type" : "_ZTIP6evhttp"
    },
    {
     "referenced_type" : "_ZTIPKc"
    }
   ],
   "return_type" : "_ZTIv",
   "source_file" : "/external/libevent/include/event2/http.h"
  },
  {
   "function_name" : "evhttp_set_flags",
   "linker_set_key" : "evhttp_set_flags",
   "parameters" :
   [
    {
     "referenced_type" : "_ZTIP6evhttp"
    },
    {
     "referenced_type" : "_ZTIi"
    }
   ],
   "return_type" : "_ZTIi",
   "source_file" : "/external/libevent/include/event2/http.h"
  },
  {
   "function_name" : "evhttp_set_gencb",
   "linker_set_key" : "evhttp_set_gencb",
   "parameters" :
   [
    {
     "referenced_type" : "_ZTIP6evhttp"
    },
    {
     "referenced_type" : "_ZTIPFvP14evhttp_requestPvE"
    },
    {
     "referenced_type" : "_ZTIPv"
    }
   ],
   "return_type" : "_ZTIv",
   "source_file" : "/external/libevent/include/event2/http.h"
  },
  {
   "function_name" : "evhttp_set_max_body_size",
   "linker_set_key" : "evhttp_set_max_body_size",
   "parameters" :
   [
    {
     "referenced_type" : "_ZTIP6evhttp"
    },
    {
     "referenced_type" : "_ZTIi"
    }
   ],
   "return_type" : "_ZTIv",
   "source_file" : "/external/libevent/include/event2/http.h"
  },
  {
   "function_name" : "evhttp_set_max_headers_size",
   "linker_set_key" : "evhttp_set_max_headers_size",
   "parameters" :
   [
    {
     "referenced_type" : "_ZTIP6evhttp"
    },
    {
     "referenced_type" : "_ZTIi"
    }
   ],
   "return_type" : "_ZTIv",
   "source_file" : "/external/libevent/include/event2/http.h"
  },
  {
   "function_name" : "evhttp_set_timeout",
   "linker_set_key" : "evhttp_set_timeout",
   "parameters" :
   [
    {
     "referenced_type" : "_ZTIP6evhttp"
    },
    {
     "referenced_type" : "_ZTIi"
    }
   ],
   "return_type" : "_ZTIv",
   "source_file" : "/external/libevent/include/event2/http.h"
  },
  {
   "function_name" : "evhttp_set_timeout_tv",
   "linker_set_key" : "evhttp_set_timeout_tv",
   "parameters" :
   [
    {
     "referenced_type" : "_ZTIP6evhttp"
    },
    {
     "referenced_type" : "_ZTIPK7timeval"
    }
   ],
   "return_type" : "_ZTIv",
   "source_file" : "/external/libevent/include/event2/http.h"
  },
  {
   "function_name" : "evhttp_start",
   "linker_set_key" : "evhttp_start",
   "parameters" :
   [
    {
     "referenced_type" : "_ZTIPKc"
    },
    {
     "referenced_type" : "_ZTIt"
    }
   ],
   "return_type" : "_ZTIP6evhttp",
   "source_file" : "/external/libevent/include/event2/http_compat.h"
  },
  {
   "function_name" : "evhttp_uri_free",
   "linker_set_key" : "evhttp_uri_free",
   "parameters" :
   [
    {
     "referenced_type" : "_ZTIP10evhttp_uri"
    }
   ],
   "return_type" : "_ZTIv",
   "source_file" : "/external/libevent/include/event2/http.h"
  },
  {
   "function_name" : "evhttp_uri_get_fragment",
   "linker_set_key" : "evhttp_uri_get_fragment",
   "parameters" :
   [
    {
     "referenced_type" : "_ZTIPK10evhttp_uri"
    }
   ],
   "return_type" : "_ZTIPKc",
   "source_file" : "/external/libevent/include/event2/http.h"
  },
  {
   "function_name" : "evhttp_uri_get_host",
   "linker_set_key" : "evhttp_uri_get_host",
   "parameters" :
   [
    {
     "referenced_type" : "_ZTIPK10evhttp_uri"
    }
   ],
   "return_type" : "_ZTIPKc",
   "source_file" : "/external/libevent/include/event2/http.h"
  },
  {
   "function_name" : "evhttp_uri_get_path",
   "linker_set_key" : "evhttp_uri_get_path",
   "parameters" :
   [
    {
     "referenced_type" : "_ZTIPK10evhttp_uri"
    }
   ],
   "return_type" : "_ZTIPKc",
   "source_file" : "/external/libevent/include/event2/http.h"
  },
  {
   "function_name" : "evhttp_uri_get_port",
   "linker_set_key" : "evhttp_uri_get_port",
   "parameters" :
   [
    {
     "referenced_type" : "_ZTIPK10evhttp_uri"
    }
   ],
   "return_type" : "_ZTIi",
   "source_file" : "/external/libevent/include/event2/http.h"
  },
  {
   "function_name" : "evhttp_uri_get_query",
   "linker_set_key" : "evhttp_uri_get_query",
   "parameters" :
   [
    {
     "referenced_type" : "_ZTIPK10evhttp_uri"
    }
   ],
   "return_type" : "_ZTIPKc",
   "source_file" : "/external/libevent/include/event2/http.h"
  },
  {
   "function_name" : "evhttp_uri_get_scheme",
   "linker_set_key" : "evhttp_uri_get_scheme",
   "parameters" :
   [
    {
     "referenced_type" : "_ZTIPK10evhttp_uri"
    }
   ],
   "return_type" : "_ZTIPKc",
   "source_file" : "/external/libevent/include/event2/http.h"
  },
  {
   "function_name" : "evhttp_uri_get_userinfo",
   "linker_set_key" : "evhttp_uri_get_userinfo",
   "parameters" :
   [
    {
     "referenced_type" : "_ZTIPK10evhttp_uri"
    }
   ],
   "return_type" : "_ZTIPKc",
   "source_file" : "/external/libevent/include/event2/http.h"
  },
  {
   "function_name" : "evhttp_uri_join",
   "linker_set_key" : "evhttp_uri_join",
   "parameters" :
   [
    {
     "referenced_type" : "_ZTIP10evhttp_uri"
    },
    {
     "referenced_type" : "_ZTIPc"
    },
    {
     "referenced_type" : "_ZTIj"
    }
   ],
   "return_type" : "_ZTIPc",
   "source_file" : "/external/libevent/include/event2/http.h"
  },
  {
   "function_name" : "evhttp_uri_new",
   "linker_set_key" : "evhttp_uri_new",
   "return_type" : "_ZTIP10evhttp_uri",
   "source_file" : "/external/libevent/include/event2/http.h"
  },
  {
   "function_name" : "evhttp_uri_parse",
   "linker_set_key" : "evhttp_uri_parse",
   "parameters" :
   [
    {
     "referenced_type" : "_ZTIPKc"
    }
   ],
   "return_type" : "_ZTIP10evhttp_uri",
   "source_file" : "/external/libevent/include/event2/http.h"
  },
  {
   "function_name" : "evhttp_uri_parse_with_flags",
   "linker_set_key" : "evhttp_uri_parse_with_flags",
   "parameters" :
   [
    {
     "referenced_type" : "_ZTIPKc"
    },
    {
     "referenced_type" : "_ZTIj"
    }
   ],
   "return_type" : "_ZTIP10evhttp_uri",
   "source_file" : "/external/libevent/include/event2/http.h"
  },
  {
   "function_name" : "evhttp_uri_set_flags",
   "linker_set_key" : "evhttp_uri_set_flags",
   "parameters" :
   [
    {
     "referenced_type" : "_ZTIP10evhttp_uri"
    },
    {
     "referenced_type" : "_ZTIj"
    }
   ],
   "return_type" : "_ZTIv",
   "source_file" : "/external/libevent/include/event2/http.h"
  },
  {
   "function_name" : "evhttp_uri_set_fragment",
   "linker_set_key" : "evhttp_uri_set_fragment",
   "parameters" :
   [
    {
     "referenced_type" : "_ZTIP10evhttp_uri"
    },
    {
     "referenced_type" : "_ZTIPKc"
    }
   ],
   "return_type" : "_ZTIi",
   "source_file" : "/external/libevent/include/event2/http.h"
  },
  {
   "function_name" : "evhttp_uri_set_host",
   "linker_set_key" : "evhttp_uri_set_host",
   "parameters" :
   [
    {
     "referenced_type" : "_ZTIP10evhttp_uri"
    },
    {
     "referenced_type" : "_ZTIPKc"
    }
   ],
   "return_type" : "_ZTIi",
   "source_file" : "/external/libevent/include/event2/http.h"
  },
  {
   "function_name" : "evhttp_uri_set_path",
   "linker_set_key" : "evhttp_uri_set_path",
   "parameters" :
   [
    {
     "referenced_type" : "_ZTIP10evhttp_uri"
    },
    {
     "referenced_type" : "_ZTIPKc"
    }
   ],
   "return_type" : "_ZTIi",
   "source_file" : "/external/libevent/include/event2/http.h"
  },
  {
   "function_name" : "evhttp_uri_set_port",
   "linker_set_key" : "evhttp_uri_set_port",
   "parameters" :
   [
    {
     "referenced_type" : "_ZTIP10evhttp_uri"
    },
    {
     "referenced_type" : "_ZTIi"
    }
   ],
   "return_type" : "_ZTIi",
   "source_file" : "/external/libevent/include/event2/http.h"
  },
  {
   "function_name" : "evhttp_uri_set_query",
   "linker_set_key" : "evhttp_uri_set_query",
   "parameters" :
   [
    {
     "referenced_type" : "_ZTIP10evhttp_uri"
    },
    {
     "referenced_type" : "_ZTIPKc"
    }
   ],
   "return_type" : "_ZTIi",
   "source_file" : "/external/libevent/include/event2/http.h"
  },
  {
   "function_name" : "evhttp_uri_set_scheme",
   "linker_set_key" : "evhttp_uri_set_scheme",
   "parameters" :
   [
    {
     "referenced_type" : "_ZTIP10evhttp_uri"
    },
    {
     "referenced_type" : "_ZTIPKc"
    }
   ],
   "return_type" : "_ZTIi",
   "source_file" : "/external/libevent/include/event2/http.h"
  },
  {
   "function_name" : "evhttp_uri_set_userinfo",
   "linker_set_key" : "evhttp_uri_set_userinfo",
   "parameters" :
   [
    {
     "referenced_type" : "_ZTIP10evhttp_uri"
    },
    {
     "referenced_type" : "_ZTIPKc"
    }
   ],
   "return_type" : "_ZTIi",
   "source_file" : "/external/libevent/include/event2/http.h"
  },
  {
   "function_name" : "evhttp_uridecode",
   "linker_set_key" : "evhttp_uridecode",
   "parameters" :
   [
    {
     "referenced_type" : "_ZTIPKc"
    },
    {
     "referenced_type" : "_ZTIi"
    },
    {
     "referenced_type" : "_ZTIPj"
    }
   ],
   "return_type" : "_ZTIPc",
   "source_file" : "/external/libevent/include/event2/http.h"
  },
  {
   "function_name" : "evhttp_uriencode",
   "linker_set_key" : "evhttp_uriencode",
   "parameters" :
   [
    {
     "referenced_type" : "_ZTIPKc"
    },
    {
     "referenced_type" : "_ZTIi"
    },
    {
     "referenced_type" : "_ZTIi"
    }
   ],
   "return_type" : "_ZTIPc",
   "source_file" : "/external/libevent/include/event2/http.h"
  },
  {
   "function_name" : "evrpc_add_hook",
   "linker_set_key" : "evrpc_add_hook",
   "parameters" :
   [
    {
     "referenced_type" : "_ZTIPv"
    },
    {
     "referenced_type" : "_ZTI15EVRPC_HOOK_TYPE"
    },
    {
     "referenced_type" : "_ZTIPFiPvP14evhttp_requestP8evbufferS_E"
    },
    {
     "referenced_type" : "_ZTIPv"
    }
   ],
   "return_type" : "_ZTIPv",
   "source_file" : "/external/libevent/include/event2/rpc.h"
  },
  {
   "function_name" : "evrpc_free",
   "linker_set_key" : "evrpc_free",
   "parameters" :
   [
    {
     "referenced_type" : "_ZTIP10evrpc_base"
    }
   ],
   "return_type" : "_ZTIv",
   "source_file" : "/external/libevent/include/event2/rpc.h"
  },
  {
   "function_name" : "evrpc_get_reply",
   "linker_set_key" : "evrpc_get_reply",
   "parameters" :
   [
    {
     "referenced_type" : "_ZTIP17evrpc_req_generic"
    }
   ],
   "return_type" : "_ZTIPv",
   "source_file" : "/external/libevent/include/event2/rpc.h"
  },
  {
   "function_name" : "evrpc_get_request",
   "linker_set_key" : "evrpc_get_request",
   "parameters" :
   [
    {
     "referenced_type" : "_ZTIP17evrpc_req_generic"
    }
   ],
   "return_type" : "_ZTIPv",
   "source_file" : "/external/libevent/include/event2/rpc.h"
  },
  {
   "function_name" : "evrpc_hook_add_meta",
   "linker_set_key" : "evrpc_hook_add_meta",
   "parameters" :
   [
    {
     "referenced_type" : "_ZTIPv"
    },
    {
     "referenced_type" : "_ZTIPKc"
    },
    {
     "referenced_type" : "_ZTIPKv"
    },
    {
     "referenced_type" : "_ZTIj"
    }
   ],
   "return_type" : "_ZTIv",
   "source_file" : "/external/libevent/include/event2/rpc.h"
  },
  {
   "function_name" : "evrpc_hook_find_meta",
   "linker_set_key" : "evrpc_hook_find_meta",
   "parameters" :
   [
    {
     "referenced_type" : "_ZTIPv"
    },
    {
     "referenced_type" : "_ZTIPKc"
    },
    {
     "referenced_type" : "_ZTIPPv"
    },
    {
     "referenced_type" : "_ZTIPj"
    }
   ],
   "return_type" : "_ZTIi",
   "source_file" : "/external/libevent/include/event2/rpc.h"
  },
  {
   "function_name" : "evrpc_hook_get_connection",
   "linker_set_key" : "evrpc_hook_get_connection",
   "parameters" :
   [
    {
     "referenced_type" : "_ZTIPv"
    }
   ],
   "return_type" : "_ZTIP17evhttp_connection",
   "source_file" : "/external/libevent/include/event2/rpc.h"
  },
  {
   "function_name" : "evrpc_init",
   "linker_set_key" : "evrpc_init",
   "parameters" :
   [
    {
     "referenced_type" : "_ZTIP6evhttp"
    }
   ],
   "return_type" : "_ZTIP10evrpc_base",
   "source_file" : "/external/libevent/include/event2/rpc.h"
  },
  {
   "function_name" : "evrpc_make_request",
   "linker_set_key" : "evrpc_make_request",
   "parameters" :
   [
    {
     "referenced_type" : "_ZTIP21evrpc_request_wrapper"
    }
   ],
   "return_type" : "_ZTIi",
   "source_file" : "/external/libevent/include/event2/rpc.h"
  },
  {
   "function_name" : "evrpc_make_request_ctx",
   "linker_set_key" : "evrpc_make_request_ctx",
   "parameters" :
   [
    {
     "referenced_type" : "_ZTIP10evrpc_pool"
    },
    {
     "referenced_type" : "_ZTIPv"
    },
    {
     "referenced_type" : "_ZTIPv"
    },
    {
     "referenced_type" : "_ZTIPKc"
    },
    {
     "referenced_type" : "_ZTIPFvP8evbufferPvE"
    },
    {
     "referenced_type" : "_ZTIPFvPvE"
    },
    {
     "referenced_type" : "_ZTIPFiPvP8evbufferE"
    },
    {
     "referenced_type" : "_ZTIPFvP12evrpc_statusPvS1_S1_E"
    },
    {
     "referenced_type" : "_ZTIPv"
    }
   ],
   "return_type" : "_ZTIP21evrpc_request_wrapper",
   "source_file" : "/external/libevent/include/event2/rpc.h"
  },
  {
   "function_name" : "evrpc_pool_add_connection",
   "linker_set_key" : "evrpc_pool_add_connection",
   "parameters" :
   [
    {
     "referenced_type" : "_ZTIP10evrpc_pool"
    },
    {
     "referenced_type" : "_ZTIP17evhttp_connection"
    }
   ],
   "return_type" : "_ZTIv",
   "source_file" : "/external/libevent/include/event2/rpc.h"
  },
  {
   "function_name" : "evrpc_pool_free",
   "linker_set_key" : "evrpc_pool_free",
   "parameters" :
   [
    {
     "referenced_type" : "_ZTIP10evrpc_pool"
    }
   ],
   "return_type" : "_ZTIv",
   "source_file" : "/external/libevent/include/event2/rpc.h"
  },
  {
   "function_name" : "evrpc_pool_new",
   "linker_set_key" : "evrpc_pool_new",
   "parameters" :
   [
    {
     "referenced_type" : "_ZTIP10event_base"
    }
   ],
   "return_type" : "_ZTIP10evrpc_pool",
   "source_file" : "/external/libevent/include/event2/rpc.h"
  },
  {
   "function_name" : "evrpc_pool_remove_connection",
   "linker_set_key" : "evrpc_pool_remove_connection",
   "parameters" :
   [
    {
     "referenced_type" : "_ZTIP10evrpc_pool"
    },
    {
     "referenced_type" : "_ZTIP17evhttp_connection"
    }
   ],
   "return_type" : "_ZTIv",
   "source_file" : "/external/libevent/include/event2/rpc.h"
  },
  {
   "function_name" : "evrpc_pool_set_timeout",
   "linker_set_key" : "evrpc_pool_set_timeout",
   "parameters" :
   [
    {
     "referenced_type" : "_ZTIP10evrpc_pool"
    },
    {
     "referenced_type" : "_ZTIi"
    }
   ],
   "return_type" : "_ZTIv",
   "source_file" : "/external/libevent/include/event2/rpc.h"
  },
  {
   "function_name" : "evrpc_register_generic",
   "linker_set_key" : "evrpc_register_generic",
   "parameters" :
   [
    {
     "referenced_type" : "_ZTIP10evrpc_base"
    },
    {
     "referenced_type" : "_ZTIPKc"
    },
    {
     "referenced_type" : "_ZTIPFvP17evrpc_req_genericPvE"
    },
    {
     "referenced_type" : "_ZTIPv"
    },
    {
     "referenced_type" : "_ZTIPFPvS_E"
    },
    {
     "referenced_type" : "_ZTIPv"
    },
    {
     "referenced_type" : "_ZTIPFvPvE"
    },
    {
     "referenced_type" : "_ZTIPFiPvP8evbufferE"
    },
    {
     "referenced_type" : "_ZTIPFPvS_E"
    },
    {
     "referenced_type" : "_ZTIPv"
    },
    {
     "referenced_type" : "_ZTIPFvPvE"
    },
    {
     "referenced_type" : "_ZTIPFiPvE"
    },
    {
     "referenced_type" : "_ZTIPFvP8evbufferPvE"
    }
   ],
   "return_type" : "_ZTIi",
   "source_file" : "/external/libevent/include/event2/rpc.h"
  },
  {
   "function_name" : "evrpc_register_rpc",
   "linker_set_key" : "evrpc_register_rpc",
   "parameters" :
   [
    {
     "referenced_type" : "_ZTIP10evrpc_base"
    },
    {
     "referenced_type" : "_ZTIP5evrpc"
    },
    {
     "referenced_type" : "_ZTIPFvP17evrpc_req_genericPvE"
    },
    {
     "referenced_type" : "_ZTIPv"
    }
   ],
   "return_type" : "_ZTIi",
   "source_file" : "/external/libevent/include/event2/rpc.h"
  },
  {
   "function_name" : "evrpc_remove_hook",
   "linker_set_key" : "evrpc_remove_hook",
   "parameters" :
   [
    {
     "referenced_type" : "_ZTIPv"
    },
    {
     "referenced_type" : "_ZTI15EVRPC_HOOK_TYPE"
    },
    {
     "referenced_type" : "_ZTIPv"
    }
   ],
   "return_type" : "_ZTIi",
   "source_file" : "/external/libevent/include/event2/rpc.h"
  },
  {
   "function_name" : "evrpc_request_done",
   "linker_set_key" : "evrpc_request_done",
   "parameters" :
   [
    {
     "referenced_type" : "_ZTIP17evrpc_req_generic"
    }
   ],
   "return_type" : "_ZTIv",
   "source_file" : "/external/libevent/include/event2/rpc.h"
  },
  {
   "function_name" : "evrpc_request_get_pool",
   "linker_set_key" : "evrpc_request_get_pool",
   "parameters" :
   [
    {
     "referenced_type" : "_ZTIP21evrpc_request_wrapper"
    }
   ],
   "return_type" : "_ZTIP10evrpc_pool",
   "source_file" : "/external/libevent/include/event2/rpc.h"
  },
  {
   "function_name" : "evrpc_request_set_cb",
   "linker_set_key" : "evrpc_request_set_cb",
   "parameters" :
   [
    {
     "referenced_type" : "_ZTIP21evrpc_request_wrapper"
    },
    {
     "referenced_type" : "_ZTIPFvP12evrpc_statusPvS1_S1_E"
    },
    {
     "referenced_type" : "_ZTIPv"
    }
   ],
   "return_type" : "_ZTIv",
   "source_file" : "/external/libevent/include/event2/rpc.h"
  },
  {
   "function_name" : "evrpc_request_set_pool",
   "linker_set_key" : "evrpc_request_set_pool",
   "parameters" :
   [
    {
     "referenced_type" : "_ZTIP21evrpc_request_wrapper"
    },
    {
     "referenced_type" : "_ZTIP10evrpc_pool"
    }
   ],
   "return_type" : "_ZTIv",
   "source_file" : "/external/libevent/include/event2/rpc.h"
  },
  {
   "function_name" : "evrpc_resume_request",
   "linker_set_key" : "evrpc_resume_request",
   "parameters" :
   [
    {
     "referenced_type" : "_ZTIPv"
    },
    {
     "referenced_type" : "_ZTIPv"
    },
    {
     "referenced_type" : "_ZTI17EVRPC_HOOK_RESULT"
    }
   ],
   "return_type" : "_ZTIi",
   "source_file" : "/external/libevent/include/event2/rpc.h"
  },
  {
   "function_name" : "evrpc_send_request_generic",
   "linker_set_key" : "evrpc_send_request_generic",
   "parameters" :
   [
    {
     "referenced_type" : "_ZTIP10evrpc_pool"
    },
    {
     "referenced_type" : "_ZTIPv"
    },
    {
     "referenced_type" : "_ZTIPv"
    },
    {
     "referenced_type" : "_ZTIPFvP12evrpc_statusPvS1_S1_E"
    },
    {
     "referenced_type" : "_ZTIPv"
    },
    {
     "referenced_type" : "_ZTIPKc"
    },
    {
     "referenced_type" : "_ZTIPFvP8evbufferPvE"
    },
    {
     "referenced_type" : "_ZTIPFvPvE"
    },
    {
     "referenced_type" : "_ZTIPFiPvP8evbufferE"
    }
   ],
   "return_type" : "_ZTIi",
   "source_file" : "/external/libevent/include/event2/rpc.h"
  },
  {
   "function_name" : "evrpc_unregister_rpc",
   "linker_set_key" : "evrpc_unregister_rpc",
   "parameters" :
   [
    {
     "referenced_type" : "_ZTIP10evrpc_base"
    },
    {
     "referenced_type" : "_ZTIPKc"
    }
   ],
   "return_type" : "_ZTIi",
   "source_file" : "/external/libevent/include/event2/rpc.h"
  },
  {
   "function_name" : "evtag_consume",
   "linker_set_key" : "evtag_consume",
   "parameters" :
   [
    {
     "referenced_type" : "_ZTIP8evbuffer"
    }
   ],
   "return_type" : "_ZTIi",
   "source_file" : "/external/libevent/include/event2/tag.h"
  },
  {
   "function_name" : "evtag_encode_int",
   "linker_set_key" : "evtag_encode_int",
   "parameters" :
   [
    {
     "referenced_type" : "_ZTIP8evbuffer"
    },
    {
     "referenced_type" : "_ZTIj"
    }
   ],
   "return_type" : "_ZTIv",
   "source_file" : "/external/libevent/include/event2/tag.h"
  },
  {
   "function_name" : "evtag_encode_int64",
   "linker_set_key" : "evtag_encode_int64",
   "parameters" :
   [
    {
     "referenced_type" : "_ZTIP8evbuffer"
    },
    {
     "referenced_type" : "_ZTIy"
    }
   ],
   "return_type" : "_ZTIv",
   "source_file" : "/external/libevent/include/event2/tag.h"
  },
  {
   "function_name" : "evtag_init",
   "linker_set_key" : "evtag_init",
   "return_type" : "_ZTIv",
   "source_file" : "/external/libevent/include/event2/tag.h"
  },
  {
   "function_name" : "evtag_marshal",
   "linker_set_key" : "evtag_marshal",
   "parameters" :
   [
    {
     "referenced_type" : "_ZTIP8evbuffer"
    },
    {
     "referenced_type" : "_ZTIj"
    },
    {
     "referenced_type" : "_ZTIPKv"
    },
    {
     "referenced_type" : "_ZTIj"
    }
   ],
   "return_type" : "_ZTIv",
   "source_file" : "/external/libevent/include/event2/tag.h"
  },
  {
   "function_name" : "evtag_marshal_buffer",
   "linker_set_key" : "evtag_marshal_buffer",
   "parameters" :
   [
    {
     "referenced_type" : "_ZTIP8evbuffer"
    },
    {
     "referenced_type" : "_ZTIj"
    },
    {
     "referenced_type" : "_ZTIP8evbuffer"
    }
   ],
   "return_type" : "_ZTIv",
   "source_file" : "/external/libevent/include/event2/tag.h"
  },
  {
   "function_name" : "evtag_marshal_int",
   "linker_set_key" : "evtag_marshal_int",
   "parameters" :
   [
    {
     "referenced_type" : "_ZTIP8evbuffer"
    },
    {
     "referenced_type" : "_ZTIj"
    },
    {
     "referenced_type" : "_ZTIj"
    }
   ],
   "return_type" : "_ZTIv",
   "source_file" : "/external/libevent/include/event2/tag.h"
  },
  {
   "function_name" : "evtag_marshal_int64",
   "linker_set_key" : "evtag_marshal_int64",
   "parameters" :
   [
    {
     "referenced_type" : "_ZTIP8evbuffer"
    },
    {
     "referenced_type" : "_ZTIj"
    },
    {
     "referenced_type" : "_ZTIy"
    }
   ],
   "return_type" : "_ZTIv",
   "source_file" : "/external/libevent/include/event2/tag.h"
  },
  {
   "function_name" : "evtag_marshal_string",
   "linker_set_key" : "evtag_marshal_string",
   "parameters" :
   [
    {
     "referenced_type" : "_ZTIP8evbuffer"
    },
    {
     "referenced_type" : "_ZTIj"
    },
    {
     "referenced_type" : "_ZTIPKc"
    }
   ],
   "return_type" : "_ZTIv",
   "source_file" : "/external/libevent/include/event2/tag.h"
  },
  {
   "function_name" : "evtag_marshal_timeval",
   "linker_set_key" : "evtag_marshal_timeval",
   "parameters" :
   [
    {
     "referenced_type" : "_ZTIP8evbuffer"
    },
    {
     "referenced_type" : "_ZTIj"
    },
    {
     "referenced_type" : "_ZTIP7timeval"
    }
   ],
   "return_type" : "_ZTIv",
   "source_file" : "/external/libevent/include/event2/tag.h"
  },
  {
   "function_name" : "evtag_payload_length",
   "linker_set_key" : "evtag_payload_length",
   "parameters" :
   [
    {
     "referenced_type" : "_ZTIP8evbuffer"
    },
    {
     "referenced_type" : "_ZTIPj"
    }
   ],
   "return_type" : "_ZTIi",
   "source_file" : "/external/libevent/include/event2/tag.h"
  },
  {
   "function_name" : "evtag_peek",
   "linker_set_key" : "evtag_peek",
   "parameters" :
   [
    {
     "referenced_type" : "_ZTIP8evbuffer"
    },
    {
     "referenced_type" : "_ZTIPj"
    }
   ],
   "return_type" : "_ZTIi",
   "source_file" : "/external/libevent/include/event2/tag.h"
  },
  {
   "function_name" : "evtag_peek_length",
   "linker_set_key" : "evtag_peek_length",
   "parameters" :
   [
    {
     "referenced_type" : "_ZTIP8evbuffer"
    },
    {
     "referenced_type" : "_ZTIPj"
    }
   ],
   "return_type" : "_ZTIi",
   "source_file" : "/external/libevent/include/event2/tag.h"
  },
  {
   "function_name" : "evtag_unmarshal",
   "linker_set_key" : "evtag_unmarshal",
   "parameters" :
   [
    {
     "referenced_type" : "_ZTIP8evbuffer"
    },
    {
     "referenced_type" : "_ZTIPj"
    },
    {
     "referenced_type" : "_ZTIP8evbuffer"
    }
   ],
   "return_type" : "_ZTIi",
   "source_file" : "/external/libevent/include/event2/tag.h"
  },
  {
   "function_name" : "evtag_unmarshal_fixed",
   "linker_set_key" : "evtag_unmarshal_fixed",
   "parameters" :
   [
    {
     "referenced_type" : "_ZTIP8evbuffer"
    },
    {
     "referenced_type" : "_ZTIj"
    },
    {
     "referenced_type" : "_ZTIPv"
    },
    {
     "referenced_type" : "_ZTIj"
    }
   ],
   "return_type" : "_ZTIi",
   "source_file" : "/external/libevent/include/event2/tag.h"
  },
  {
   "function_name" : "evtag_unmarshal_header",
   "linker_set_key" : "evtag_unmarshal_header",
   "parameters" :
   [
    {
     "referenced_type" : "_ZTIP8evbuffer"
    },
    {
     "referenced_type" : "_ZTIPj"
    }
   ],
   "return_type" : "_ZTIi",
   "source_file" : "/external/libevent/include/event2/tag.h"
  },
  {
   "function_name" : "evtag_unmarshal_int",
   "linker_set_key" : "evtag_unmarshal_int",
   "parameters" :
   [
    {
     "referenced_type" : "_ZTIP8evbuffer"
    },
    {
     "referenced_type" : "_ZTIj"
    },
    {
     "referenced_type" : "_ZTIPj"
    }
   ],
   "return_type" : "_ZTIi",
   "source_file" : "/external/libevent/include/event2/tag.h"
  },
  {
   "function_name" : "evtag_unmarshal_int64",
   "linker_set_key" : "evtag_unmarshal_int64",
   "parameters" :
   [
    {
     "referenced_type" : "_ZTIP8evbuffer"
    },
    {
     "referenced_type" : "_ZTIj"
    },
    {
     "referenced_type" : "_ZTIPy"
    }
   ],
   "return_type" : "_ZTIi",
   "source_file" : "/external/libevent/include/event2/tag.h"
  },
  {
   "function_name" : "evtag_unmarshal_string",
   "linker_set_key" : "evtag_unmarshal_string",
   "parameters" :
   [
    {
     "referenced_type" : "_ZTIP8evbuffer"
    },
    {
     "referenced_type" : "_ZTIj"
    },
    {
     "referenced_type" : "_ZTIPPc"
    }
   ],
   "return_type" : "_ZTIi",
   "source_file" : "/external/libevent/include/event2/tag.h"
  },
  {
   "function_name" : "evtag_unmarshal_timeval",
   "linker_set_key" : "evtag_unmarshal_timeval",
   "parameters" :
   [
    {
     "referenced_type" : "_ZTIP8evbuffer"
    },
    {
     "referenced_type" : "_ZTIj"
    },
    {
     "referenced_type" : "_ZTIP7timeval"
    }
   ],
   "return_type" : "_ZTIi",
   "source_file" : "/external/libevent/include/event2/tag.h"
  },
  {
   "function_name" : "evthread_enable_lock_debugging",
   "linker_set_key" : "evthread_enable_lock_debugging",
   "return_type" : "_ZTIv",
   "source_file" : "/external/libevent/include/event2/thread.h"
  },
  {
   "function_name" : "evthread_enable_lock_debuging",
   "linker_set_key" : "evthread_enable_lock_debuging",
   "return_type" : "_ZTIv",
   "source_file" : "/external/libevent/include/event2/thread.h"
  },
  {
   "function_name" : "evthread_make_base_notifiable",
   "linker_set_key" : "evthread_make_base_notifiable",
   "parameters" :
   [
    {
     "referenced_type" : "_ZTIP10event_base"
    }
   ],
   "return_type" : "_ZTIi",
   "source_file" : "/external/libevent/include/event2/thread.h"
  },
  {
   "function_name" : "evthread_set_condition_callbacks",
   "linker_set_key" : "evthread_set_condition_callbacks",
   "parameters" :
   [
    {
     "referenced_type" : "_ZTIPK28evthread_condition_callbacks"
    }
   ],
   "return_type" : "_ZTIi",
   "source_file" : "/external/libevent/include/event2/thread.h"
  },
  {
   "function_name" : "evthread_set_id_callback",
   "linker_set_key" : "evthread_set_id_callback",
   "parameters" :
   [
    {
     "referenced_type" : "_ZTIPFmvE"
    }
   ],
   "return_type" : "_ZTIv",
   "source_file" : "/external/libevent/include/event2/thread.h"
  },
  {
   "function_name" : "evthread_set_lock_callbacks",
   "linker_set_key" : "evthread_set_lock_callbacks",
   "parameters" :
   [
    {
     "referenced_type" : "_ZTIPK23evthread_lock_callbacks"
    }
   ],
   "return_type" : "_ZTIi",
   "source_file" : "/external/libevent/include/event2/thread.h"
  },
  {
   "function_name" : "evutil_ascii_strcasecmp",
   "linker_set_key" : "evutil_ascii_strcasecmp",
   "parameters" :
   [
    {
     "referenced_type" : "_ZTIPKc"
    },
    {
     "referenced_type" : "_ZTIPKc"
    }
   ],
   "return_type" : "_ZTIi",
   "source_file" : "/external/libevent/include/event2/util.h"
  },
  {
   "function_name" : "evutil_ascii_strncasecmp",
   "linker_set_key" : "evutil_ascii_strncasecmp",
   "parameters" :
   [
    {
     "referenced_type" : "_ZTIPKc"
    },
    {
     "referenced_type" : "_ZTIPKc"
    },
    {
     "referenced_type" : "_ZTIj"
    }
   ],
   "return_type" : "_ZTIi",
   "source_file" : "/external/libevent/include/event2/util.h"
  },
  {
   "function_name" : "evutil_closesocket",
   "linker_set_key" : "evutil_closesocket",
   "parameters" :
   [
    {
     "referenced_type" : "_ZTIi"
    }
   ],
   "return_type" : "_ZTIi",
   "source_file" : "/external/libevent/include/event2/util.h"
  },
  {
   "function_name" : "evutil_configure_monotonic_time",
   "linker_set_key" : "evutil_configure_monotonic_time",
   "parameters" :
   [
    {
     "referenced_type" : "_ZTIP22evutil_monotonic_timer"
    },
    {
     "referenced_type" : "_ZTIi"
    }
   ],
   "return_type" : "_ZTIi",
   "source_file" : "/external/libevent/include/event2/util.h"
  },
  {
   "function_name" : "evutil_date_rfc1123",
   "linker_set_key" : "evutil_date_rfc1123",
   "parameters" :
   [
    {
     "referenced_type" : "_ZTIPc"
    },
    {
     "referenced_type" : "_ZTIKj"
    },
    {
     "referenced_type" : "_ZTIPK2tm"
    }
   ],
   "return_type" : "_ZTIi",
   "source_file" : "/external/libevent/include/event2/util.h"
  },
  {
   "function_name" : "evutil_freeaddrinfo",
   "linker_set_key" : "evutil_freeaddrinfo",
   "parameters" :
   [
    {
     "referenced_type" : "_ZTIP8addrinfo"
    }
   ],
   "return_type" : "_ZTIv",
   "source_file" : "/external/libevent/include/event2/util.h"
  },
  {
   "function_name" : "evutil_gai_strerror",
   "linker_set_key" : "evutil_gai_strerror",
   "parameters" :
   [
    {
     "referenced_type" : "_ZTIi"
    }
   ],
   "return_type" : "_ZTIPKc",
   "source_file" : "/external/libevent/include/event2/util.h"
  },
  {
   "function_name" : "evutil_getaddrinfo",
   "linker_set_key" : "evutil_getaddrinfo",
   "parameters" :
   [
    {
     "referenced_type" : "_ZTIPKc"
    },
    {
     "referenced_type" : "_ZTIPKc"
    },
    {
     "referenced_type" : "_ZTIPK8addrinfo"
    },
    {
     "referenced_type" : "_ZTIPP8addrinfo"
    }
   ],
   "return_type" : "_ZTIi",
   "source_file" : "/external/libevent/include/event2/util.h"
  },
  {
   "function_name" : "evutil_gettime_monotonic",
   "linker_set_key" : "evutil_gettime_monotonic",
   "parameters" :
   [
    {
     "referenced_type" : "_ZTIP22evutil_monotonic_timer"
    },
    {
     "referenced_type" : "_ZTIP7timeval"
    }
   ],
   "return_type" : "_ZTIi",
   "source_file" : "/external/libevent/include/event2/util.h"
  },
  {
   "function_name" : "evutil_inet_ntop",
   "linker_set_key" : "evutil_inet_ntop",
   "parameters" :
   [
    {
     "referenced_type" : "_ZTIi"
    },
    {
     "referenced_type" : "_ZTIPKv"
    },
    {
     "referenced_type" : "_ZTIPc"
    },
    {
     "referenced_type" : "_ZTIj"
    }
   ],
   "return_type" : "_ZTIPKc",
   "source_file" : "/external/libevent/include/event2/util.h"
  },
  {
   "function_name" : "evutil_inet_pton",
   "linker_set_key" : "evutil_inet_pton",
   "parameters" :
   [
    {
     "referenced_type" : "_ZTIi"
    },
    {
     "referenced_type" : "_ZTIPKc"
    },
    {
     "referenced_type" : "_ZTIPv"
    }
   ],
   "return_type" : "_ZTIi",
   "source_file" : "/external/libevent/include/event2/util.h"
  },
  {
   "function_name" : "evutil_make_listen_socket_ipv6only",
   "linker_set_key" : "evutil_make_listen_socket_ipv6only",
   "parameters" :
   [
    {
     "referenced_type" : "_ZTIi"
    }
   ],
   "return_type" : "_ZTIi",
   "source_file" : "/external/libevent/include/event2/util.h"
  },
  {
   "function_name" : "evutil_make_listen_socket_reuseable",
   "linker_set_key" : "evutil_make_listen_socket_reuseable",
   "parameters" :
   [
    {
     "referenced_type" : "_ZTIi"
    }
   ],
   "return_type" : "_ZTIi",
   "source_file" : "/external/libevent/include/event2/util.h"
  },
  {
   "function_name" : "evutil_make_listen_socket_reuseable_port",
   "linker_set_key" : "evutil_make_listen_socket_reuseable_port",
   "parameters" :
   [
    {
     "referenced_type" : "_ZTIi"
    }
   ],
   "return_type" : "_ZTIi",
   "source_file" : "/external/libevent/include/event2/util.h"
  },
  {
   "function_name" : "evutil_make_socket_closeonexec",
   "linker_set_key" : "evutil_make_socket_closeonexec",
   "parameters" :
   [
    {
     "referenced_type" : "_ZTIi"
    }
   ],
   "return_type" : "_ZTIi",
   "source_file" : "/external/libevent/include/event2/util.h"
  },
  {
   "function_name" : "evutil_make_socket_nonblocking",
   "linker_set_key" : "evutil_make_socket_nonblocking",
   "parameters" :
   [
    {
     "referenced_type" : "_ZTIi"
    }
   ],
   "return_type" : "_ZTIi",
   "source_file" : "/external/libevent/include/event2/util.h"
  },
  {
   "function_name" : "evutil_make_tcp_listen_socket_deferred",
   "linker_set_key" : "evutil_make_tcp_listen_socket_deferred",
   "parameters" :
   [
    {
     "referenced_type" : "_ZTIi"
    }
   ],
   "return_type" : "_ZTIi",
   "source_file" : "/external/libevent/include/event2/util.h"
  },
  {
   "function_name" : "evutil_monotonic_timer_free",
   "linker_set_key" : "evutil_monotonic_timer_free",
   "parameters" :
   [
    {
     "referenced_type" : "_ZTIP22evutil_monotonic_timer"
    }
   ],
   "return_type" : "_ZTIv",
   "source_file" : "/external/libevent/include/event2/util.h"
  },
  {
   "function_name" : "evutil_monotonic_timer_new",
   "linker_set_key" : "evutil_monotonic_timer_new",
   "return_type" : "_ZTIP22evutil_monotonic_timer",
   "source_file" : "/external/libevent/include/event2/util.h"
  },
  {
   "function_name" : "evutil_parse_sockaddr_port",
   "linker_set_key" : "evutil_parse_sockaddr_port",
   "parameters" :
   [
    {
     "referenced_type" : "_ZTIPKc"
    },
    {
     "referenced_type" : "_ZTIP8sockaddr"
    },
    {
     "referenced_type" : "_ZTIPi"
    }
   ],
   "return_type" : "_ZTIi",
   "source_file" : "/external/libevent/include/event2/util.h"
  },
  {
   "function_name" : "evutil_secure_rng_get_bytes",
   "linker_set_key" : "evutil_secure_rng_get_bytes",
   "parameters" :
   [
    {
     "referenced_type" : "_ZTIPv"
    },
    {
     "referenced_type" : "_ZTIj"
    }
   ],
   "return_type" : "_ZTIv",
   "source_file" : "/external/libevent/include/event2/util.h"
  },
  {
   "function_name" : "evutil_secure_rng_init",
   "linker_set_key" : "evutil_secure_rng_init",
   "return_type" : "_ZTIi",
   "source_file" : "/external/libevent/include/event2/util.h"
  },
  {
   "function_name" : "evutil_secure_rng_set_urandom_device_file",
   "linker_set_key" : "evutil_secure_rng_set_urandom_device_file",
   "parameters" :
   [
    {
     "referenced_type" : "_ZTIPc"
    }
   ],
   "return_type" : "_ZTIi",
   "source_file" : "/external/libevent/include/event2/util.h"
  },
  {
   "function_name" : "evutil_snprintf",
   "linker_set_key" : "evutil_snprintf",
   "parameters" :
   [
    {
     "referenced_type" : "_ZTIPc"
    },
    {
     "referenced_type" : "_ZTIj"
    },
    {
     "referenced_type" : "_ZTIPKc"
    }
   ],
   "return_type" : "_ZTIi",
   "source_file" : "/external/libevent/include/event2/util.h"
  },
  {
   "function_name" : "evutil_sockaddr_cmp",
   "linker_set_key" : "evutil_sockaddr_cmp",
   "parameters" :
   [
    {
     "referenced_type" : "_ZTIPK8sockaddr"
    },
    {
     "referenced_type" : "_ZTIPK8sockaddr"
    },
    {
     "referenced_type" : "_ZTIi"
    }
   ],
   "return_type" : "_ZTIi",
   "source_file" : "/external/libevent/include/event2/util.h"
  },
  {
   "function_name" : "evutil_socketpair",
   "linker_set_key" : "evutil_socketpair",
   "parameters" :
   [
    {
     "referenced_type" : "_ZTIi"
    },
    {
     "referenced_type" : "_ZTIi"
    },
    {
     "referenced_type" : "_ZTIi"
    },
    {
     "referenced_type" : "_ZTIPi"
    }
   ],
   "return_type" : "_ZTIi",
   "source_file" : "/external/libevent/include/event2/util.h"
  },
  {
   "function_name" : "evutil_strtoll",
   "linker_set_key" : "evutil_strtoll",
   "parameters" :
   [
    {
     "referenced_type" : "_ZTIPKc"
    },
    {
     "referenced_type" : "_ZTIPPc"
    },
    {
     "referenced_type" : "_ZTIi"
    }
   ],
   "return_type" : "_ZTIx",
   "source_file" : "/external/libevent/include/event2/util.h"
  },
  {
   "function_name" : "evutil_vsnprintf",
   "linker_set_key" : "evutil_vsnprintf",
   "parameters" :
   [
    {
     "referenced_type" : "_ZTIPc"
    },
    {
     "referenced_type" : "_ZTIj"
    },
    {
     "referenced_type" : "_ZTIPKc"
    },
    {
     "referenced_type" : "_ZTI9__va_list"
    }
   ],
   "return_type" : "_ZTIi",
   "source_file" : "/external/libevent/include/event2/util.h"
  },
  {
   "function_name" : "libevent_global_shutdown",
   "linker_set_key" : "libevent_global_shutdown",
   "return_type" : "_ZTIv",
   "source_file" : "/external/libevent/include/event2/event.h"
  }
 ],
 "global_vars" : [],
 "lvalue_reference_types" : [],
 "pointer_types" :
 [
  {
   "alignment" : 4,
   "linker_set_key" : "_ZTIP10evdns_base",
   "name" : "evdns_base *",
   "referenced_type" : "_ZTI10evdns_base",
   "self_type" : "_ZTIP10evdns_base",
   "size" : 4,
   "source_file" : "/external/libevent/include/event2/bufferevent.h"
  },
  {
   "alignment" : 4,
   "linker_set_key" : "_ZTIP10event_base",
   "name" : "event_base *",
   "referenced_type" : "_ZTI10event_base",
   "self_type" : "_ZTIP10event_base",
   "size" : 4,
   "source_file" : "/external/libevent/include/event2/event_struct.h"
  },
  {
   "alignment" : 4,
   "linker_set_key" : "_ZTIP10evhttp_uri",
   "name" : "evhttp_uri *",
   "referenced_type" : "_ZTI10evhttp_uri",
   "self_type" : "_ZTIP10evhttp_uri",
   "size" : 4,
   "source_file" : "/external/libevent/include/event2/http_struct.h"
  },
  {
   "alignment" : 4,
   "linker_set_key" : "_ZTIP10evrpc_base",
   "name" : "evrpc_base *",
   "referenced_type" : "_ZTI10evrpc_base",
   "self_type" : "_ZTIP10evrpc_base",
   "size" : 4,
   "source_file" : "/external/libevent/include/event2/rpc.h"
  },
  {
   "alignment" : 4,
   "linker_set_key" : "_ZTIP10evrpc_pool",
   "name" : "evrpc_pool *",
   "referenced_type" : "_ZTI10evrpc_pool",
   "self_type" : "_ZTIP10evrpc_pool",
   "size" : 4,
   "source_file" : "/external/libevent/include/event2/rpc.h"
  },
  {
   "alignment" : 4,
   "linker_set_key" : "_ZTIP11bufferevent",
   "name" : "bufferevent *",
   "referenced_type" : "_ZTI11bufferevent",
   "self_type" : "_ZTIP11bufferevent",
   "size" : 4,
   "source_file" : "/external/libevent/include/event2/bufferevent_struct.h"
  },
  {
   "alignment" : 4,
   "linker_set_key" : "_ZTIP12evbuffer_ptr",
   "name" : "evbuffer_ptr *",
   "referenced_type" : "_ZTI12evbuffer_ptr",
   "self_type" : "_ZTIP12evbuffer_ptr",
   "size" : 4,
   "source_file" : "/external/libevent/include/event2/buffer.h"
  },
  {
   "alignment" : 4,
   "linker_set_key" : "_ZTIP12event_config",
   "name" : "event_config *",
   "referenced_type" : "_ZTI12event_config",
   "self_type" : "_ZTIP12event_config",
   "size" : 4,
   "source_file" : "/external/libevent/include/event2/event.h"
  },
  {
   "alignment" : 4,
   "linker_set_key" : "_ZTIP12evrpc_status",
   "name" : "evrpc_status *",
   "referenced_type" : "_ZTI12evrpc_status",
   "self_type" : "_ZTIP12evrpc_status",
   "size" : 4,
   "source_file" : "/external/libevent/include/event2/rpc.h"
  },
  {
   "alignment" : 4,
   "linker_set_key" : "_ZTIP13evdns_request",
   "name" : "evdns_request *",
   "referenced_type" : "_ZTI13evdns_request",
   "self_type" : "_ZTIP13evdns_request",
   "size" : 4,
   "source_file" : "/external/libevent/include/event2/dns.h"
  },
  {
   "alignment" : 4,
   "linker_set_key" : "_ZTIP14evconnlistener",
   "name" : "evconnlistener *",
   "referenced_type" : "_ZTI14evconnlistener",
   "self_type" : "_ZTIP14evconnlistener",
   "size" : 4,
   "source_file" : "/external/libevent/include/event2/listener.h"
  },
  {
   "alignment" : 4,
   "linker_set_key" : "_ZTIP14event_callback",
   "name" : "event_callback *",
   "referenced_type" : "_ZTI14event_callback",
   "self_type" : "_ZTIP14event_callback",
   "size" : 4,
   "source_file" : "/external/libevent/include/event2/event_struct.h"
  },
  {
   "alignment" : 4,
   "linker_set_key" : "_ZTIP14evhttp_request",
   "name" : "evhttp_request *",
   "referenced_type" : "_ZTI14evhttp_request",
   "self_type" : "_ZTIP14evhttp_request",
   "size" : 4,
   "source_file" : "/external/libevent/include/event2/rpc.h"
  },
  {
   "alignment" : 4,
   "linker_set_key" : "_ZTIP17evbuffer_cb_entry",
   "name" : "evbuffer_cb_entry *",
   "referenced_type" : "_ZTI17evbuffer_cb_entry",
   "self_type" : "_ZTIP17evbuffer_cb_entry",
   "size" : 4,
   "source_file" : "/external/libevent/include/event2/buffer.h"
  },
  {
   "alignment" : 4,
   "linker_set_key" : "_ZTIP17evdns_server_port",
   "name" : "evdns_server_port *",
   "referenced_type" : "_ZTI17evdns_server_port",
   "self_type" : "_ZTIP17evdns_server_port",
   "size" : 4,
   "source_file" : "/external/libevent/include/event2/dns.h"
  },
  {
   "alignment" : 4,
   "linker_set_key" : "_ZTIP17evhttp_connection",
   "name" : "evhttp_connection *",
   "referenced_type" : "_ZTI17evhttp_connection",
   "self_type" : "_ZTIP17evhttp_connection",
   "size" : 4,
   "source_file" : "/external/libevent/include/event2/rpc.h"
  },
  {
   "alignment" : 4,
   "linker_set_key" : "_ZTIP17evrpc_req_generic",
   "name" : "evrpc_req_generic *",
   "referenced_type" : "_ZTI17evrpc_req_generic",
   "self_type" : "_ZTIP17evrpc_req_generic",
   "size" : 4,
   "source_file" : "/external/libevent/include/event2/rpc.h"
  },
  {
   "alignment" : 4,
   "linker_set_key" : "_ZTIP19ev_token_bucket_cfg",
   "name" : "ev_token_bucket_cfg *",
   "referenced_type" : "_ZTI19ev_token_bucket_cfg",
   "self_type" : "_ZTIP19ev_token_bucket_cfg",
   "size" : 4,
   "source_file" : "/external/libevent/include/event2/bufferevent.h"
  },
  {
   "alignment" : 4,
   "linker_set_key" : "_ZTIP19evhttp_bound_socket",
   "name" : "evhttp_bound_socket *",
   "referenced_type" : "_ZTI19evhttp_bound_socket",
   "self_type" : "_ZTIP19evhttp_bound_socket",
   "size" : 4,
   "source_file" : "/external/libevent/include/event2/http.h"
  },
  {
   "alignment" : 4,
   "linker_set_key" : "_ZTIP20evdns_server_request",
   "name" : "evdns_server_request *",
   "referenced_type" : "_ZTI20evdns_server_request",
   "self_type" : "_ZTIP20evdns_server_request",
   "size" : 4,
   "source_file" : "/external/libevent/include/event2/dns.h"
  },
  {
   "alignment" : 4,
   "linker_set_key" : "_ZTIP21evbuffer_file_segment",
   "name" : "evbuffer_file_segment *",
   "referenced_type" : "_ZTI21evbuffer_file_segment",
   "self_type" : "_ZTIP21evbuffer_file_segment",
   "size" : 4,
   "source_file" : "/external/libevent/include/event2/buffer.h"
  },
  {
   "alignment" : 4,
   "linker_set_key" : "_ZTIP21evdns_server_question",
   "name" : "evdns_server_question *",
   "referenced_type" : "_ZTI21evdns_server_question",
   "self_type" : "_ZTIP21evdns_server_question",
   "size" : 4,
   "source_file" : "/external/libevent/include/event2/dns_struct.h"
  },
  {
   "alignment" : 4,
   "linker_set_key" : "_ZTIP21evrpc_request_wrapper",
   "name" : "evrpc_request_wrapper *",
   "referenced_type" : "_ZTI21evrpc_request_wrapper",
   "self_type" : "_ZTIP21evrpc_request_wrapper",
   "size" : 4,
   "source_file" : "/external/libevent/include/event2/rpc.h"
  },
  {
   "alignment" : 4,
   "linker_set_key" : "_ZTIP22evutil_monotonic_timer",
   "name" : "evutil_monotonic_timer *",
   "referenced_type" : "_ZTI22evutil_monotonic_timer",
   "self_type" : "_ZTIP22evutil_monotonic_timer",
   "size" : 4,
   "source_file" : "/external/libevent/include/event2/util.h"
  },
  {
   "alignment" : 4,
   "linker_set_key" : "_ZTIP25evdns_getaddrinfo_request",
   "name" : "evdns_getaddrinfo_request *",
   "referenced_type" : "_ZTI25evdns_getaddrinfo_request",
   "self_type" : "_ZTIP25evdns_getaddrinfo_request",
   "size" : 4,
   "source_file" : "/external/libevent/include/event2/dns.h"
  },
  {
   "alignment" : 4,
   "linker_set_key" : "_ZTIP28bufferevent_rate_limit_group",
   "name" : "bufferevent_rate_limit_group *",
   "referenced_type" : "_ZTI28bufferevent_rate_limit_group",
   "self_type" : "_ZTIP28bufferevent_rate_limit_group",
   "size" : 4,
   "source_file" : "/external/libevent/include/event2/bufferevent.h"
  },
  {
   "alignment" : 4,
   "linker_set_key" : "_ZTIP5event",
   "name" : "event *",
   "referenced_type" : "_ZTI5event",
   "self_type" : "_ZTIP5event",
   "size" : 4,
   "source_file" : "/external/libevent/include/event2/event_struct.h"
  },
  {
   "alignment" : 4,
   "linker_set_key" : "_ZTIP5evrpc",
   "name" : "evrpc *",
   "referenced_type" : "_ZTI5evrpc",
   "self_type" : "_ZTIP5evrpc",
   "size" : 4,
   "source_file" : "/external/libevent/include/event2/rpc.h"
  },
  {
   "alignment" : 4,
   "linker_set_key" : "_ZTIP5iovec",
   "name" : "iovec *",
   "referenced_type" : "_ZTI5iovec",
   "self_type" : "_ZTIP5iovec",
   "size" : 4,
   "source_file" : "/external/libevent/include/event2/buffer.h"
  },
  {
   "alignment" : 4,
   "linker_set_key" : "_ZTIP6evhttp",
   "name" : "evhttp *",
   "referenced_type" : "_ZTI6evhttp",
   "self_type" : "_ZTIP6evhttp",
   "size" : 4,
   "source_file" : "/external/libevent/include/event2/rpc.h"
  },
  {
   "alignment" : 4,
   "linker_set_key" : "_ZTIP7__sFILE",
   "name" : "__sFILE *",
   "referenced_type" : "_ZTI7__sFILE",
   "self_type" : "_ZTIP7__sFILE",
   "size" : 4,
   "source_file" : "/external/libevent/include/event2/event.h"
  },
  {
   "alignment" : 4,
   "linker_set_key" : "_ZTIP7in_addr",
   "name" : "in_addr *",
   "referenced_type" : "_ZTI7in_addr",
   "self_type" : "_ZTIP7in_addr",
   "size" : 4,
   "source_file" : "/external/libevent/include/event2/dns.h"
  },
  {
   "alignment" : 4,
   "linker_set_key" : "_ZTIP7timeval",
   "name" : "timeval *",
   "referenced_type" : "_ZTI7timeval",
   "self_type" : "_ZTIP7timeval",
   "size" : 4,
   "source_file" : "/external/libevent/include/event2/util.h"
  },
  {
   "alignment" : 4,
   "linker_set_key" : "_ZTIP8addrinfo",
   "name" : "addrinfo *",
   "referenced_type" : "_ZTI8addrinfo",
   "self_type" : "_ZTIP8addrinfo",
   "size" : 4,
   "source_file" : "/external/libevent/include/event2/util.h"
  },
  {
   "alignment" : 4,
   "linker_set_key" : "_ZTIP8evbuffer",
   "name" : "evbuffer *",
   "referenced_type" : "_ZTI8evbuffer",
   "self_type" : "_ZTIP8evbuffer",
   "size" : 4,
   "source_file" : "/external/libevent/include/event2/buffer.h"
  },
  {
   "alignment" : 4,
   "linker_set_key" : "_ZTIP8evkeyval",
   "name" : "evkeyval *",
   "referenced_type" : "_ZTI8evkeyval",
   "self_type" : "_ZTIP8evkeyval",
   "size" : 4,
   "source_file" : "/external/libevent/include/event2/keyvalq_struct.h"
  },
  {
   "alignment" : 4,
   "linker_set_key" : "_ZTIP8sockaddr",
   "name" : "sockaddr *",
   "referenced_type" : "_ZTI8sockaddr",
   "self_type" : "_ZTIP8sockaddr",
   "size" : 4,
   "source_file" : "/external/libevent/include/event2/util.h"
  },
  {
   "alignment" : 4,
   "linker_set_key" : "_ZTIP9evkeyvalq",
   "name" : "evkeyvalq *",
   "referenced_type" : "_ZTI9evkeyvalq",
   "self_type" : "_ZTIP9evkeyvalq",
   "size" : 4,
   "source_file" : "/external/libevent/include/event2/http_struct.h"
  },
  {
   "alignment" : 4,
   "linker_set_key" : "_ZTIPF25bufferevent_filter_resultP8evbufferS1_i22bufferevent_flush_modePvE",
   "name" : "bufferevent_filter_result (*)(evbuffer *, evbuffer *, int, bufferevent_flush_mode, void *)",
   "referenced_type" : "_ZTIF25bufferevent_filter_resultP8evbufferS1_i22bufferevent_flush_modePvE",
   "self_type" : "_ZTIPF25bufferevent_filter_resultP8evbufferS1_i22bufferevent_flush_modePvE",
   "size" : 4,
   "source_file" : "/external/libevent/include/event2/bufferevent.h"
  },
  {
   "alignment" : 4,
   "linker_set_key" : "_ZTIPFP11buffereventP10event_basePvE",
   "name" : "bufferevent *(*)(event_base *, void *)",
   "referenced_type" : "_ZTIFP11buffereventP10event_basePvE",
   "self_type" : "_ZTIPFP11buffereventP10event_basePvE",
   "size" : 4,
   "source_file" : "/external/libevent/include/event2/http.h"
  },
  {
   "alignment" : 4,
   "linker_set_key" : "_ZTIPFPvS_E",
   "name" : "void *(*)(void *)",
   "referenced_type" : "_ZTIFPvS_E",
   "self_type" : "_ZTIPFPvS_E",
   "size" : 4,
   "source_file" : "/external/libevent/include/event2/rpc.h"
  },
  {
   "alignment" : 4,
   "linker_set_key" : "_ZTIPFPvS_jE",
   "name" : "void *(*)(void *, unsigned int)",
   "referenced_type" : "_ZTIFPvS_jE",
   "self_type" : "_ZTIPFPvS_jE",
   "size" : 4,
   "source_file" : "/external/libevent/include/event2/event.h"
  },
  {
   "alignment" : 4,
   "linker_set_key" : "_ZTIPFPvjE",
   "name" : "void *(*)(unsigned int)",
   "referenced_type" : "_ZTIFPvjE",
   "self_type" : "_ZTIPFPvjE",
   "size" : 4,
   "source_file" : "/external/libevent/include/event2/thread.h"
  },
  {
   "alignment" : 4,
   "linker_set_key" : "_ZTIPFiP14evhttp_requestPvE",
   "name" : "int (*)(evhttp_request *, void *)",
   "referenced_type" : "_ZTIFiP14evhttp_requestPvE",
   "self_type" : "_ZTIPFiP14evhttp_requestPvE",
   "size" : 4,
   "source_file" : "/external/libevent/include/event2/http_struct.h"
  },
  {
   "alignment" : 4,
   "linker_set_key" : "_ZTIPFiPK10event_basePK5eventPvE",
   "name" : "int (*)(const event_base *, const event *, void *)",
   "referenced_type" : "_ZTIFiPK10event_basePK5eventPvE",
   "self_type" : "_ZTIPFiPK10event_basePK5eventPvE",
   "size" : 4,
   "source_file" : "/external/libevent/include/event2/event.h"
  },
  {
   "alignment" : 4,
   "linker_set_key" : "_ZTIPFiPvE",
   "name" : "int (*)(void *)",
   "referenced_type" : "_ZTIFiPvE",
   "self_type" : "_ZTIPFiPvE",
   "size" : 4,
   "source_file" : "/external/libevent/include/event2/rpc.h"
  },
  {
   "alignment" : 4,
   "linker_set_key" : "_ZTIPFiPvP14evhttp_requestP8evbufferS_E",
   "name" : "int (*)(void *, evhttp_request *, evbuffer *, void *)",
   "referenced_type" : "_ZTIFiPvP14evhttp_requestP8evbufferS_E",
   "self_type" : "_ZTIPFiPvP14evhttp_requestP8evbufferS_E",
   "size" : 4,
   "source_file" : "/external/libevent/include/event2/rpc.h"
  },
  {
   "alignment" : 4,
   "linker_set_key" : "_ZTIPFiPvP8evbufferE",
   "name" : "int (*)(void *, evbuffer *)",
   "referenced_type" : "_ZTIFiPvP8evbufferE",
   "self_type" : "_ZTIPFiPvP8evbufferE",
   "size" : 4,
   "source_file" : "/external/libevent/include/event2/rpc.h"
  },
  {
   "alignment" : 4,
   "linker_set_key" : "_ZTIPFiPvS_PK7timevalE",
   "name" : "int (*)(void *, void *, const timeval *)",
   "referenced_type" : "_ZTIFiPvS_PK7timevalE",
   "self_type" : "_ZTIPFiPvS_PK7timevalE",
   "size" : 4,
   "source_file" : "/external/libevent/include/event2/thread.h"
  },
  {
   "alignment" : 4,
   "linker_set_key" : "_ZTIPFiPviE",
   "name" : "int (*)(void *, int)",
   "referenced_type" : "_ZTIFiPviE",
   "self_type" : "_ZTIPFiPviE",
   "size" : 4,
   "source_file" : "/external/libevent/include/event2/thread.h"
  },
  {
   "alignment" : 4,
   "linker_set_key" : "_ZTIPFijPvE",
   "name" : "int (*)(unsigned int, void *)",
   "referenced_type" : "_ZTIFijPvE",
   "self_type" : "_ZTIPFijPvE",
   "size" : 4,
   "source_file" : "/external/libevent/include/event2/thread.h"
  },
  {
   "alignment" : 4,
   "linker_set_key" : "_ZTIPFmvE",
   "name" : "unsigned long (*)(void)",
   "referenced_type" : "_ZTIFmvE",
   "self_type" : "_ZTIPFmvE",
   "size" : 4,
   "source_file" : "/external/libevent/include/event2/thread.h"
  },
  {
   "alignment" : 4,
   "linker_set_key" : "_ZTIPFtvE",
   "name" : "unsigned short (*)(void)",
   "referenced_type" : "_ZTIFtvE",
   "self_type" : "_ZTIPFtvE",
   "size" : 4,
   "source_file" : "/external/libevent/include/event2/dns.h"
  },
  {
   "alignment" : 4,
   "linker_set_key" : "_ZTIPFv20evhttp_request_errorPvE",
   "name" : "void (*)(evhttp_request_error, void *)",
   "referenced_type" : "_ZTIFv20evhttp_request_errorPvE",
   "self_type" : "_ZTIPFv20evhttp_request_errorPvE",
   "size" : 4,
   "source_file" : "/external/libevent/include/event2/http_struct.h"
  },
  {
   "alignment" : 4,
   "linker_set_key" : "_ZTIPFvP11buffereventPvE",
   "name" : "void (*)(bufferevent *, void *)",
   "referenced_type" : "_ZTIFvP11buffereventPvE",
   "self_type" : "_ZTIPFvP11buffereventPvE",
   "size" : 4,
   "source_file" : "/external/libevent/include/event2/bufferevent_struct.h"
  },
  {
   "alignment" : 4,
   "linker_set_key" : "_ZTIPFvP11buffereventsPvE",
   "name" : "void (*)(bufferevent *, short, void *)",
   "referenced_type" : "_ZTIFvP11buffereventsPvE",
   "self_type" : "_ZTIPFvP11buffereventsPvE",
   "size" : 4,
   "source_file" : "/external/libevent/include/event2/bufferevent_struct.h"
  },
  {
   "alignment" : 4,
   "linker_set_key" : "_ZTIPFvP12evrpc_statusPvS1_S1_E",
   "name" : "void (*)(evrpc_status *, void *, void *, void *)",
   "referenced_type" : "_ZTIFvP12evrpc_statusPvS1_S1_E",
   "self_type" : "_ZTIPFvP12evrpc_statusPvS1_S1_E",
   "size" : 4,
   "source_file" : "/external/libevent/include/event2/rpc.h"
  },
  {
   "alignment" : 4,
   "linker_set_key" : "_ZTIPFvP14evconnlistenerPvE",
   "name" : "void (*)(evconnlistener *, void *)",
   "referenced_type" : "_ZTIFvP14evconnlistenerPvE",
   "self_type" : "_ZTIPFvP14evconnlistenerPvE",
   "size" : 4,
   "source_file" : "/external/libevent/include/event2/listener.h"
  },
  {
   "alignment" : 4,
   "linker_set_key" : "_ZTIPFvP14evconnlisteneriP8sockaddriPvE",
   "name" : "void (*)(evconnlistener *, int, sockaddr *, int, void *)",
   "referenced_type" : "_ZTIFvP14evconnlisteneriP8sockaddriPvE",
   "self_type" : "_ZTIPFvP14evconnlisteneriP8sockaddriPvE",
   "size" : 4,
   "source_file" : "/external/libevent/include/event2/listener.h"
  },
  {
   "alignment" : 4,
   "linker_set_key" : "_ZTIPFvP14event_callbackPvE",
   "name" : "void (*)(event_callback *, void *)",
   "referenced_type" : "_ZTIFvP14event_callbackPvE",
   "self_type" : "_ZTIPFvP14event_callbackPvE",
   "size" : 4,
   "source_file" : "/external/libevent/include/event2/event_struct.h"
  },
  {
   "alignment" : 4,
   "linker_set_key" : "_ZTIPFvP14evhttp_requestPvE",
   "name" : "void (*)(evhttp_request *, void *)",
   "referenced_type" : "_ZTIFvP14evhttp_requestPvE",
   "self_type" : "_ZTIPFvP14evhttp_requestPvE",
   "size" : 4,
   "source_file" : "/external/libevent/include/event2/http_struct.h"
  },
  {
   "alignment" : 4,
   "linker_set_key" : "_ZTIPFvP17evhttp_connectionPvE",
   "name" : "void (*)(evhttp_connection *, void *)",
   "referenced_type" : "_ZTIFvP17evhttp_connectionPvE",
   "self_type" : "_ZTIPFvP17evhttp_connectionPvE",
   "size" : 4,
   "source_file" : "/external/libevent/include/event2/http.h"
  },
  {
   "alignment" : 4,
   "linker_set_key" : "_ZTIPFvP17evrpc_req_genericPvE",
   "name" : "void (*)(evrpc_req_generic *, void *)",
   "referenced_type" : "_ZTIFvP17evrpc_req_genericPvE",
   "self_type" : "_ZTIPFvP17evrpc_req_genericPvE",
   "size" : 4,
   "source_file" : "/external/libevent/include/event2/rpc.h"
  },
  {
   "alignment" : 4,
   "linker_set_key" : "_ZTIPFvP19evhttp_bound_socketPvE",
   "name" : "void (*)(evhttp_bound_socket *, void *)",
   "referenced_type" : "_ZTIFvP19evhttp_bound_socketPvE",
   "self_type" : "_ZTIPFvP19evhttp_bound_socketPvE",
   "size" : 4,
   "source_file" : "/external/libevent/include/event2/http.h"
  },
  {
   "alignment" : 4,
   "linker_set_key" : "_ZTIPFvP20evdns_server_requestPvE",
   "name" : "void (*)(evdns_server_request *, void *)",
   "referenced_type" : "_ZTIFvP20evdns_server_requestPvE",
   "self_type" : "_ZTIPFvP20evdns_server_requestPvE",
   "size" : 4,
   "source_file" : "/external/libevent/include/event2/dns.h"
  },
  {
   "alignment" : 4,
   "linker_set_key" : "_ZTIPFvP5eventPvE",
   "name" : "void (*)(event *, void *)",
   "referenced_type" : "_ZTIFvP5eventPvE",
   "self_type" : "_ZTIPFvP5eventPvE",
   "size" : 4,
   "source_file" : "/external/libevent/include/event2/event_struct.h"
  },
  {
   "alignment" : 4,
   "linker_set_key" : "_ZTIPFvP8evbufferPK16evbuffer_cb_infoPvE",
   "name" : "void (*)(evbuffer *, const evbuffer_cb_info *, void *)",
   "referenced_type" : "_ZTIFvP8evbufferPK16evbuffer_cb_infoPvE",
   "self_type" : "_ZTIPFvP8evbufferPK16evbuffer_cb_infoPvE",
   "size" : 4,
   "source_file" : "/external/libevent/include/event2/buffer.h"
  },
  {
   "alignment" : 4,
   "linker_set_key" : "_ZTIPFvP8evbufferPvE",
   "name" : "void (*)(evbuffer *, void *)",
   "referenced_type" : "_ZTIFvP8evbufferPvE",
   "self_type" : "_ZTIPFvP8evbufferPvE",
   "size" : 4,
   "source_file" : "/external/libevent/include/event2/rpc.h"
  },
  {
   "alignment" : 4,
   "linker_set_key" : "_ZTIPFvP8evbufferjjPvE",
   "name" : "void (*)(evbuffer *, unsigned int, unsigned int, void *)",
   "referenced_type" : "_ZTIFvP8evbufferjjPvE",
   "self_type" : "_ZTIPFvP8evbufferjjPvE",
   "size" : 4,
   "source_file" : "/external/libevent/include/event2/buffer_compat.h"
  },
  {
   "alignment" : 4,
   "linker_set_key" : "_ZTIPFvPK21evbuffer_file_segmentiPvE",
   "name" : "void (*)(const evbuffer_file_segment *, int, void *)",
   "referenced_type" : "_ZTIFvPK21evbuffer_file_segmentiPvE",
   "self_type" : "_ZTIPFvPK21evbuffer_file_segmentiPvE",
   "size" : 4,
   "source_file" : "/external/libevent/include/event2/buffer.h"
  },
  {
   "alignment" : 4,
   "linker_set_key" : "_ZTIPFvPKvjPvE",
   "name" : "void (*)(const void *, unsigned int, void *)",
   "referenced_type" : "_ZTIFvPKvjPvE",
   "self_type" : "_ZTIPFvPKvjPvE",
   "size" : 4,
   "source_file" : "/external/libevent/include/event2/buffer.h"
  },
  {
   "alignment" : 4,
   "linker_set_key" : "_ZTIPFvPcjE",
   "name" : "void (*)(char *, unsigned int)",
   "referenced_type" : "_ZTIFvPcjE",
   "self_type" : "_ZTIPFvPcjE",
   "size" : 4,
   "source_file" : "/external/libevent/include/event2/dns.h"
  },
  {
   "alignment" : 4,
   "linker_set_key" : "_ZTIPFvPvE",
   "name" : "void (*)(void *)",
   "referenced_type" : "_ZTIFvPvE",
   "self_type" : "_ZTIPFvPvE",
   "size" : 4,
   "source_file" : "/external/libevent/include/event2/thread.h"
  },
  {
   "alignment" : 4,
   "linker_set_key" : "_ZTIPFvPvjE",
   "name" : "void (*)(void *, unsigned int)",
   "referenced_type" : "_ZTIFvPvjE",
   "self_type" : "_ZTIPFvPvjE",
   "size" : 4,
   "source_file" : "/external/libevent/include/event2/thread.h"
  },
  {
   "alignment" : 4,
   "linker_set_key" : "_ZTIPFviE",
   "name" : "void (*)(int)",
   "referenced_type" : "_ZTIFviE",
   "self_type" : "_ZTIPFviE",
   "size" : 4,
   "source_file" : "/external/libevent/include/event2/event.h"
  },
  {
   "alignment" : 4,
   "linker_set_key" : "_ZTIPFviP8addrinfoPvE",
   "name" : "void (*)(int, addrinfo *, void *)",
   "referenced_type" : "_ZTIFviP8addrinfoPvE",
   "self_type" : "_ZTIPFviP8addrinfoPvE",
   "size" : 4,
   "source_file" : "/external/libevent/include/event2/dns.h"
  },
  {
   "alignment" : 4,
   "linker_set_key" : "_ZTIPFviPKcE",
   "name" : "void (*)(int, const char *)",
   "referenced_type" : "_ZTIFviPKcE",
   "self_type" : "_ZTIPFviPKcE",
   "size" : 4,
   "source_file" : "/external/libevent/include/event2/event.h"
  },
  {
   "alignment" : 4,
   "linker_set_key" : "_ZTIPFviciiPvS_E",
   "name" : "void (*)(int, char, int, int, void *, void *)",
   "referenced_type" : "_ZTIFviciiPvS_E",
   "self_type" : "_ZTIPFviciiPvS_E",
   "size" : 4,
   "source_file" : "/external/libevent/include/event2/dns.h"
  },
  {
   "alignment" : 4,
   "linker_set_key" : "_ZTIPFvisPvE",
   "name" : "void (*)(int, short, void *)",
   "referenced_type" : "_ZTIFvisPvE",
   "self_type" : "_ZTIPFvisPvE",
   "size" : 4,
   "source_file" : "/external/libevent/include/event2/event_struct.h"
  },
  {
   "alignment" : 4,
   "linker_set_key" : "_ZTIPK10event_base",
   "name" : "const event_base *",
   "referenced_type" : "_ZTIK10event_base",
   "self_type" : "_ZTIPK10event_base",
   "size" : 4,
   "source_file" : "/external/libevent/include/event2/event.h"
  },
  {
   "alignment" : 4,
   "linker_set_key" : "_ZTIPK10evhttp_uri",
   "name" : "const evhttp_uri *",
   "referenced_type" : "_ZTIK10evhttp_uri",
   "self_type" : "_ZTIPK10evhttp_uri",
   "size" : 4,
   "source_file" : "/external/libevent/include/event2/http.h"
  },
  {
   "alignment" : 4,
   "linker_set_key" : "_ZTIPK11bufferevent",
   "name" : "const bufferevent *",
   "referenced_type" : "_ZTIK11bufferevent",
   "self_type" : "_ZTIPK11bufferevent",
   "size" : 4,
   "source_file" : "/external/libevent/include/event2/bufferevent.h"
  },
  {
   "alignment" : 4,
   "linker_set_key" : "_ZTIPK12evbuffer_ptr",
   "name" : "const evbuffer_ptr *",
   "referenced_type" : "_ZTIK12evbuffer_ptr",
   "self_type" : "_ZTIPK12evbuffer_ptr",
   "size" : 4,
   "source_file" : "/external/libevent/include/event2/buffer.h"
  },
  {
   "alignment" : 4,
   "linker_set_key" : "_ZTIPK12event_config",
   "name" : "const event_config *",
   "referenced_type" : "_ZTIK12event_config",
   "self_type" : "_ZTIPK12event_config",
   "size" : 4,
   "source_file" : "/external/libevent/include/event2/event.h"
  },
  {
   "alignment" : 4,
   "linker_set_key" : "_ZTIPK14evhttp_request",
   "name" : "const evhttp_request *",
   "referenced_type" : "_ZTIK14evhttp_request",
   "self_type" : "_ZTIPK14evhttp_request",
   "size" : 4,
   "source_file" : "/external/libevent/include/event2/http.h"
  },
  {
   "alignment" : 4,
   "linker_set_key" : "_ZTIPK15bufferevent_ops",
   "name" : "const bufferevent_ops *",
   "referenced_type" : "_ZTIK15bufferevent_ops",
   "self_type" : "_ZTIPK15bufferevent_ops",
   "size" : 4,
   "source_file" : "/external/libevent/include/event2/bufferevent_struct.h"
  },
  {
   "alignment" : 4,
   "linker_set_key" : "_ZTIPK16evbuffer_cb_info",
   "name" : "const evbuffer_cb_info *",
   "referenced_type" : "_ZTIK16evbuffer_cb_info",
   "self_type" : "_ZTIPK16evbuffer_cb_info",
   "size" : 4,
   "source_file" : "/external/libevent/include/event2/buffer.h"
  },
  {
   "alignment" : 4,
   "linker_set_key" : "_ZTIPK19ev_token_bucket_cfg",
   "name" : "const ev_token_bucket_cfg *",
   "referenced_type" : "_ZTIK19ev_token_bucket_cfg",
   "self_type" : "_ZTIPK19ev_token_bucket_cfg",
   "size" : 4,
   "source_file" : "/external/libevent/include/event2/bufferevent.h"
  },
  {
   "alignment" : 4,
   "linker_set_key" : "_ZTIPK21evbuffer_file_segment",
   "name" : "const evbuffer_file_segment *",
   "referenced_type" : "_ZTIK21evbuffer_file_segment",
   "self_type" : "_ZTIPK21evbuffer_file_segment",
   "size" : 4,
   "source_file" : "/external/libevent/include/event2/buffer.h"
  },
  {
   "alignment" : 4,
   "linker_set_key" : "_ZTIPK23evthread_lock_callbacks",
   "name" : "const evthread_lock_callbacks *",
   "referenced_type" : "_ZTIK23evthread_lock_callbacks",
   "self_type" : "_ZTIPK23evthread_lock_callbacks",
   "size" : 4,
   "source_file" : "/external/libevent/include/event2/thread.h"
  },
  {
   "alignment" : 4,
   "linker_set_key" : "_ZTIPK28evthread_condition_callbacks",
   "name" : "const evthread_condition_callbacks *",
   "referenced_type" : "_ZTIK28evthread_condition_callbacks",
   "self_type" : "_ZTIPK28evthread_condition_callbacks",
   "size" : 4,
   "source_file" : "/external/libevent/include/event2/thread.h"
  },
  {
   "alignment" : 4,
   "linker_set_key" : "_ZTIPK2tm",
   "name" : "const tm *",
   "referenced_type" : "_ZTIK2tm",
   "self_type" : "_ZTIPK2tm",
   "size" : 4,
   "source_file" : "/external/libevent/include/event2/util.h"
  },
  {
   "alignment" : 4,
   "linker_set_key" : "_ZTIPK5event",
   "name" : "const event *",
   "referenced_type" : "_ZTIK5event",
   "self_type" : "_ZTIPK5event",
   "size" : 4,
   "source_file" : "/external/libevent/include/event2/event.h"
  },
  {
   "alignment" : 4,
   "linker_set_key" : "_ZTIPK7in_addr",
   "name" : "const in_addr *",
   "referenced_type" : "_ZTIK7in_addr",
   "self_type" : "_ZTIPK7in_addr",
   "size" : 4,
   "source_file" : "/external/libevent/include/event2/dns.h"
  },
  {
   "alignment" : 4,
   "linker_set_key" : "_ZTIPK7timeval",
   "name" : "const timeval *",
   "referenced_type" : "_ZTIK7timeval",
   "self_type" : "_ZTIPK7timeval",
   "size" : 4,
   "source_file" : "/external/libevent/include/event2/thread.h"
  },
  {
   "alignment" : 4,
   "linker_set_key" : "_ZTIPK8addrinfo",
   "name" : "const addrinfo *",
   "referenced_type" : "_ZTIK8addrinfo",
   "self_type" : "_ZTIPK8addrinfo",
   "size" : 4,
   "source_file" : "/external/libevent/include/event2/util.h"
  },
  {
   "alignment" : 4,
   "linker_set_key" : "_ZTIPK8evbuffer",
   "name" : "const evbuffer *",
   "referenced_type" : "_ZTIK8evbuffer",
   "self_type" : "_ZTIPK8evbuffer",
   "size" : 4,
   "source_file" : "/external/libevent/include/event2/buffer.h"
  },
  {
   "alignment" : 4,
   "linker_set_key" : "_ZTIPK8in6_addr",
   "name" : "const in6_addr *",
   "referenced_type" : "_ZTIK8in6_addr",
   "self_type" : "_ZTIPK8in6_addr",
   "size" : 4,
   "source_file" : "/external/libevent/include/event2/dns.h"
  },
  {
   "alignment" : 4,
   "linker_set_key" : "_ZTIPK8sockaddr",
   "name" : "const sockaddr *",
   "referenced_type" : "_ZTIK8sockaddr",
   "self_type" : "_ZTIPK8sockaddr",
   "size" : 4,
   "source_file" : "/external/libevent/include/event2/util.h"
  },
  {
   "alignment" : 4,
   "linker_set_key" : "_ZTIPK9evkeyvalq",
   "name" : "const evkeyvalq *",
   "referenced_type" : "_ZTIK9evkeyvalq",
   "self_type" : "_ZTIPK9evkeyvalq",
   "size" : 4,
   "source_file" : "/external/libevent/include/event2/http.h"
  },
  {
   "alignment" : 4,
   "linker_set_key" : "_ZTIPKc",
   "name" : "const char *",
   "referenced_type" : "_ZTIKc",
   "self_type" : "_ZTIPKc",
   "size" : 4,
   "source_file" : "/external/libevent/include/event2/util.h"
  },
  {
   "alignment" : 4,
   "linker_set_key" : "_ZTIPKh",
   "name" : "const unsigned char *",
   "referenced_type" : "_ZTIKh",
   "self_type" : "_ZTIPKh",
   "size" : 4,
   "source_file" : "/external/libevent/include/event2/buffer_compat.h"
  },
  {
   "alignment" : 4,
   "linker_set_key" : "_ZTIPKv",
   "name" : "const void *",
   "referenced_type" : "_ZTIKv",
   "self_type" : "_ZTIPKv",
   "size" : 4,
   "source_file" : "/external/libevent/include/event2/util.h"
  },
  {
   "alignment" : 4,
   "linker_set_key" : "_ZTIPP10event_base",
   "name" : "event_base **",
   "referenced_type" : "_ZTIP10event_base",
   "self_type" : "_ZTIPP10event_base",
   "size" : 4,
   "source_file" : "/external/libevent/include/event2/event.h"
  },
  {
   "alignment" : 4,
   "linker_set_key" : "_ZTIPP11bufferevent",
   "name" : "bufferevent **",
   "referenced_type" : "_ZTIP11bufferevent",
   "self_type" : "_ZTIPP11bufferevent",
   "size" : 4,
   "source_file" : "/external/libevent/include/event2/bufferevent.h"
  },
  {
   "alignment" : 4,
   "linker_set_key" : "_ZTIPP14event_callback",
   "name" : "event_callback **",
   "referenced_type" : "_ZTIP14event_callback",
   "self_type" : "_ZTIPP14event_callback",
   "size" : 4,
   "source_file" : "/external/libevent/include/event2/event_struct.h"
  },
  {
   "alignment" : 4,
   "linker_set_key" : "_ZTIPP14evhttp_request",
   "name" : "evhttp_request **",
   "referenced_type" : "_ZTIP14evhttp_request",
   "self_type" : "_ZTIPP14evhttp_request",
   "size" : 4,
   "source_file" : "/external/libevent/include/event2/http_struct.h"
  },
  {
   "alignment" : 4,
   "linker_set_key" : "_ZTIPP21evdns_server_question",
   "name" : "evdns_server_question **",
   "referenced_type" : "_ZTIP21evdns_server_question",
   "self_type" : "_ZTIPP21evdns_server_question",
   "size" : 4,
   "source_file" : "/external/libevent/include/event2/dns_struct.h"
  },
  {
   "alignment" : 4,
   "linker_set_key" : "_ZTIPP5event",
   "name" : "event **",
   "referenced_type" : "_ZTIP5event",
   "self_type" : "_ZTIPP5event",
   "size" : 4,
   "source_file" : "/external/libevent/include/event2/event_struct.h"
  },
  {
   "alignment" : 4,
   "linker_set_key" : "_ZTIPP5evrpc",
   "name" : "evrpc **",
   "referenced_type" : "_ZTIP5evrpc",
   "self_type" : "_ZTIPP5evrpc",
   "size" : 4,
   "source_file" : "/external/libevent/include/event2/rpc_struct.h"
  },
  {
   "alignment" : 4,
   "linker_set_key" : "_ZTIPP8addrinfo",
   "name" : "addrinfo **",
   "referenced_type" : "_ZTIP8addrinfo",
   "self_type" : "_ZTIPP8addrinfo",
   "size" : 4,
   "source_file" : "/external/libevent/include/event2/util.h"
  },
  {
   "alignment" : 4,
   "linker_set_key" : "_ZTIPP8evkeyval",
   "name" : "evkeyval **",
   "referenced_type" : "_ZTIP8evkeyval",
   "self_type" : "_ZTIPP8evkeyval",
   "size" : 4,
   "source_file" : "/external/libevent/include/event2/keyvalq_struct.h"
  },
  {
   "alignment" : 4,
   "linker_set_key" : "_ZTIPPFvP11buffereventPvE",
   "name" : "void (**)(bufferevent *, void *)",
   "referenced_type" : "_ZTIPFvP11buffereventPvE",
   "self_type" : "_ZTIPPFvP11buffereventPvE",
   "size" : 4,
   "source_file" : "/external/libevent/include/event2/bufferevent.h"
  },
  {
   "alignment" : 4,
   "linker_set_key" : "_ZTIPPFvP11buffereventsPvE",
   "name" : "void (**)(bufferevent *, short, void *)",
   "referenced_type" : "_ZTIPFvP11buffereventsPvE",
   "self_type" : "_ZTIPPFvP11buffereventsPvE",
   "size" : 4,
   "source_file" : "/external/libevent/include/event2/bufferevent.h"
  },
  {
   "alignment" : 4,
   "linker_set_key" : "_ZTIPPFvisPvE",
   "name" : "void (**)(int, short, void *)",
   "referenced_type" : "_ZTIPFvisPvE",
   "self_type" : "_ZTIPPFvisPvE",
   "size" : 4,
   "source_file" : "/external/libevent/include/event2/event.h"
  },
  {
   "alignment" : 4,
   "linker_set_key" : "_ZTIPPKc",
   "name" : "const char **",
   "referenced_type" : "_ZTIPKc",
   "self_type" : "_ZTIPPKc",
   "size" : 4,
   "source_file" : "/external/libevent/include/event2/event.h"
  },
  {
   "alignment" : 4,
   "linker_set_key" : "_ZTIPPc",
   "name" : "char **",
   "referenced_type" : "_ZTIPc",
   "self_type" : "_ZTIPPc",
   "size" : 4,
   "source_file" : "/external/libevent/include/event2/util.h"
  },
  {
   "alignment" : 4,
   "linker_set_key" : "_ZTIPPv",
   "name" : "void **",
   "referenced_type" : "_ZTIPv",
   "self_type" : "_ZTIPPv",
   "size" : 4,
   "source_file" : "/external/libevent/include/event2/bufferevent.h"
  },
  {
   "alignment" : 4,
   "linker_set_key" : "_ZTIPc",
   "name" : "char *",
   "referenced_type" : "_ZTIc",
   "self_type" : "_ZTIPc",
   "size" : 4,
   "source_file" : "/external/libevent/include/event2/keyvalq_struct.h"
  },
  {
   "alignment" : 4,
   "linker_set_key" : "_ZTIPh",
   "name" : "unsigned char *",
   "referenced_type" : "_ZTIh",
   "self_type" : "_ZTIPh",
   "size" : 4,
   "source_file" : "/external/libevent/include/event2/buffer.h"
  },
  {
   "alignment" : 4,
   "linker_set_key" : "_ZTIPi",
   "name" : "int *",
   "referenced_type" : "_ZTIi",
   "self_type" : "_ZTIPi",
   "size" : 4,
   "source_file" : "/external/libevent/include/event2/util.h"
  },
  {
   "alignment" : 4,
   "linker_set_key" : "_ZTIPj",
   "name" : "unsigned int *",
   "referenced_type" : "_ZTIj",
   "self_type" : "_ZTIPj",
   "size" : 4,
   "source_file" : "/external/libevent/include/event2/buffer.h"
  },
  {
   "alignment" : 4,
   "linker_set_key" : "_ZTIPs",
   "name" : "short *",
   "referenced_type" : "_ZTIs",
   "self_type" : "_ZTIPs",
   "size" : 4,
   "source_file" : "/external/libevent/include/event2/event_struct.h"
  },
  {
   "alignment" : 4,
   "linker_set_key" : "_ZTIPt",
   "name" : "unsigned short *",
   "referenced_type" : "_ZTIt",
   "self_type" : "_ZTIPt",
   "size" : 4,
   "source_file" : "/external/libevent/include/event2/http.h"
  },
  {
   "alignment" : 4,
   "linker_set_key" : "_ZTIPv",
   "name" : "void *",
   "referenced_type" : "_ZTIv",
   "self_type" : "_ZTIPv",
   "size" : 4,
   "source_file" : "/external/libevent/include/event2/event_struct.h"
  },
  {
   "alignment" : 4,
   "linker_set_key" : "_ZTIPy",
   "name" : "unsigned long long *",
   "referenced_type" : "_ZTIy",
   "self_type" : "_ZTIPy",
   "size" : 4,
   "source_file" : "/external/libevent/include/event2/bufferevent.h"
  }
 ],
 "qualified_types" :
 [
  {
   "alignment" : 4,
   "is_const" : true,
   "linker_set_key" : "_ZTIK10event_base",
   "name" : "const event_base",
   "referenced_type" : "_ZTI10event_base",
   "self_type" : "_ZTIK10event_base",
   "size" : 384,
   "source_file" : "/external/libevent/include/event2/event.h"
  },
  {
   "alignment" : 4,
   "is_const" : true,
   "linker_set_key" : "_ZTIK10evhttp_uri",
   "name" : "const evhttp_uri",
   "referenced_type" : "_ZTI10evhttp_uri",
   "self_type" : "_ZTIK10evhttp_uri",
   "size" : 32,
   "source_file" : "/external/libevent/include/event2/http.h"
  },
  {
   "alignment" : 4,
   "is_const" : true,
   "linker_set_key" : "_ZTIK11bufferevent",
   "name" : "const bufferevent",
   "referenced_type" : "_ZTI11bufferevent",
   "self_type" : "_ZTIK11bufferevent",
   "size" : 196,
   "source_file" : "/external/libevent/include/event2/bufferevent.h"
  },
  {
   "alignment" : 4,
   "is_const" : true,
   "linker_set_key" : "_ZTIK12evbuffer_ptr",
   "name" : "const evbuffer_ptr",
   "referenced_type" : "_ZTI12evbuffer_ptr",
   "self_type" : "_ZTIK12evbuffer_ptr",
   "size" : 12,
   "source_file" : "/external/libevent/include/event2/buffer.h"
  },
  {
   "alignment" : 4,
   "is_const" : true,
   "linker_set_key" : "_ZTIK12event_config",
   "name" : "const event_config",
   "referenced_type" : "_ZTI12event_config",
   "self_type" : "_ZTIK12event_config",
   "size" : 36,
   "source_file" : "/external/libevent/include/event2/event.h"
  },
  {
   "alignment" : 8,
   "is_const" : true,
   "linker_set_key" : "_ZTIK14evhttp_request",
   "name" : "const evhttp_request",
   "referenced_type" : "_ZTI14evhttp_request",
   "self_type" : "_ZTIK14evhttp_request",
   "size" : 128,
   "source_file" : "/external/libevent/include/event2/http.h"
  },
  {
   "alignment" : 4,
   "is_const" : true,
   "linker_set_key" : "_ZTIK15bufferevent_ops",
   "name" : "const bufferevent_ops",
   "referenced_type" : "_ZTI15bufferevent_ops",
   "self_type" : "_ZTIK15bufferevent_ops",
   "size" : 36,
   "source_file" : "/external/libevent/include/event2/bufferevent_struct.h"
  },
  {
   "alignment" : 4,
   "is_const" : true,
   "linker_set_key" : "_ZTIK16evbuffer_cb_info",
   "name" : "const evbuffer_cb_info",
   "referenced_type" : "_ZTI16evbuffer_cb_info",
   "self_type" : "_ZTIK16evbuffer_cb_info",
   "size" : 12,
   "source_file" : "/external/libevent/include/event2/buffer.h"
  },
  {
   "alignment" : 4,
   "is_const" : true,
   "linker_set_key" : "_ZTIK19ev_token_bucket_cfg",
   "name" : "const ev_token_bucket_cfg",
   "referenced_type" : "_ZTI19ev_token_bucket_cfg",
   "self_type" : "_ZTIK19ev_token_bucket_cfg",
   "size" : 28,
   "source_file" : "/external/libevent/include/event2/bufferevent.h"
  },
  {
   "alignment" : 4,
   "is_const" : true,
   "linker_set_key" : "_ZTIK21evbuffer_file_segment",
   "name" : "const evbuffer_file_segment",
   "referenced_type" : "_ZTI21evbuffer_file_segment",
   "self_type" : "_ZTIK21evbuffer_file_segment",
   "size" : 48,
   "source_file" : "/external/libevent/include/event2/buffer.h"
  },
  {
   "alignment" : 4,
   "is_const" : true,
   "linker_set_key" : "_ZTIK23evthread_lock_callbacks",
   "name" : "const evthread_lock_callbacks",
   "referenced_type" : "_ZTI23evthread_lock_callbacks",
   "self_type" : "_ZTIK23evthread_lock_callbacks",
   "size" : 24,
   "source_file" : "/external/libevent/include/event2/thread.h"
  },
  {
   "alignment" : 4,
   "is_const" : true,
   "linker_set_key" : "_ZTIK28evthread_condition_callbacks",
   "name" : "const evthread_condition_callbacks",
   "referenced_type" : "_ZTI28evthread_condition_callbacks",
   "self_type" : "_ZTIK28evthread_condition_callbacks",
   "size" : 20,
   "source_file" : "/external/libevent/include/event2/thread.h"
  },
  {
   "alignment" : 4,
   "is_const" : true,
   "linker_set_key" : "_ZTIK2tm",
   "name" : "const tm",
   "referenced_type" : "_ZTI2tm",
   "self_type" : "_ZTIK2tm",
   "size" : 44,
   "source_file" : "/external/libevent/include/event2/util.h"
  },
  {
   "alignment" : 4,
   "is_const" : true,
   "linker_set_key" : "_ZTIK5event",
   "name" : "const event",
   "referenced_type" : "_ZTI5event",
   "self_type" : "_ZTIK5event",
   "size" : 64,
   "source_file" : "/external/libevent/include/event2/event.h"
  },
  {
   "alignment" : 4,
   "is_const" : true,
   "linker_set_key" : "_ZTIK7in_addr",
   "name" : "const in_addr",
   "referenced_type" : "_ZTI7in_addr",
   "self_type" : "_ZTIK7in_addr",
   "size" : 4,
   "source_file" : "/external/libevent/include/event2/dns.h"
  },
  {
   "alignment" : 4,
   "is_const" : true,
   "linker_set_key" : "_ZTIK7timeval",
   "name" : "const timeval",
   "referenced_type" : "_ZTI7timeval",
   "self_type" : "_ZTIK7timeval",
   "size" : 8,
   "source_file" : "/external/libevent/include/event2/thread.h"
  },
  {
   "alignment" : 4,
   "is_const" : true,
   "linker_set_key" : "_ZTIK8addrinfo",
   "name" : "const addrinfo",
   "referenced_type" : "_ZTI8addrinfo",
   "self_type" : "_ZTIK8addrinfo",
   "size" : 32,
   "source_file" : "/external/libevent/include/event2/util.h"
  },
  {
   "alignment" : 4,
   "is_const" : true,
   "linker_set_key" : "_ZTIK8evbuffer",
   "name" : "const evbuffer",
   "referenced_type" : "_ZTI8evbuffer",
   "self_type" : "_ZTIK8evbuffer",
   "size" : 72,
   "source_file" : "/external/libevent/include/event2/buffer.h"
  },
  {
   "alignment" : 4,
   "is_const" : true,
   "linker_set_key" : "_ZTIK8in6_addr",
   "name" : "const in6_addr",
   "referenced_type" : "_ZTI8in6_addr",
   "self_type" : "_ZTIK8in6_addr",
   "size" : 16,
   "source_file" : "/external/libevent/include/event2/dns.h"
  },
  {
   "alignment" : 2,
   "is_const" : true,
   "linker_set_key" : "_ZTIK8sockaddr",
   "name" : "const sockaddr",
   "referenced_type" : "_ZTI8sockaddr",
   "self_type" : "_ZTIK8sockaddr",
   "size" : 16,
   "source_file" : "/external/libevent/include/event2/util.h"
  },
  {
   "alignment" : 4,
   "is_const" : true,
   "linker_set_key" : "_ZTIK9evkeyvalq",
   "name" : "const evkeyvalq",
   "referenced_type" : "_ZTI9evkeyvalq",
   "self_type" : "_ZTIK9evkeyvalq",
   "size" : 8,
   "source_file" : "/external/libevent/include/event2/http.h"
  },
  {
   "alignment" : 4,
   "is_const" : true,
   "linker_set_key" : "_ZTIKPKc",
   "name" : "const char *const",
   "referenced_type" : "_ZTIPKc",
   "self_type" : "_ZTIKPKc",
   "size" : 4,
   "source_file" : "/external/libevent/include/event2/dns.h"
  },
  {
   "alignment" : 1,
   "is_const" : true,
   "linker_set_key" : "_ZTIKc",
   "name" : "const char",
   "referenced_type" : "_ZTIc",
   "self_type" : "_ZTIKc",
   "size" : 1,
   "source_file" : "/external/libevent/include/event2/util.h"
  },
  {
   "alignment" : 1,
   "is_const" : true,
   "linker_set_key" : "_ZTIKh",
   "name" : "const unsigned char",
   "referenced_type" : "_ZTIh",
   "self_type" : "_ZTIKh",
   "size" : 1,
   "source_file" : "/external/libevent/include/event2/buffer_compat.h"
  },
  {
   "alignment" : 4,
   "is_const" : true,
   "linker_set_key" : "_ZTIKi",
   "name" : "const int",
   "referenced_type" : "_ZTIi",
   "self_type" : "_ZTIKi",
   "size" : 4,
   "source_file" : "/external/libevent/include/event2/dns.h"
  },
  {
   "alignment" : 4,
   "is_const" : true,
   "linker_set_key" : "_ZTIKj",
   "name" : "const unsigned int",
   "referenced_type" : "_ZTIj",
   "self_type" : "_ZTIKj",
   "size" : 4,
   "source_file" : "/external/libevent/include/event2/util.h"
  },
  {
   "is_const" : true,
   "linker_set_key" : "_ZTIKv",
   "name" : "const void",
   "referenced_type" : "_ZTIv",
   "self_type" : "_ZTIKv",
   "source_file" : "/external/libevent/include/event2/util.h"
  }
 ],
 "record_types" :
 [
  {
   "alignment" : 4,
   "fields" :
   [
    {
     "field_name" : "tqh_first",
     "referenced_type" : "_ZTIP5event"
    },
    {
     "field_name" : "tqh_last",
     "field_offset" : 32,
     "referenced_type" : "_ZTIPP5event"
    }
   ],
   "linker_set_key" : "_ZTI10event_list",
   "name" : "event_list",
   "referenced_type" : "_ZTI10event_list",
   "self_type" : "_ZTI10event_list",
   "size" : 8,
   "source_file" : "/external/libevent/include/event2/event_struct.h"
  },
  {
   "alignment" : 4,
   "fields" :
   [
    {
     "field_name" : "ev_base",
     "referenced_type" : "_ZTIP10event_base"
    },
    {
     "field_name" : "be_ops",
     "field_offset" : 32,
     "referenced_type" : "_ZTIPK15bufferevent_ops"
    },
    {
     "field_name" : "ev_read",
     "field_offset" : 64,
     "referenced_type" : "_ZTI5event"
    },
    {
     "field_name" : "ev_write",
     "field_offset" : 576,
     "referenced_type" : "_ZTI5event"
    },
    {
     "field_name" : "input",
     "field_offset" : 1088,
     "referenced_type" : "_ZTIP8evbuffer"
    },
    {
     "field_name" : "output",
     "field_offset" : 1120,
     "referenced_type" : "_ZTIP8evbuffer"
    },
    {
     "field_name" : "wm_read",
     "field_offset" : 1152,
     "referenced_type" : "_ZTI15event_watermark"
    },
    {
     "field_name" : "wm_write",
     "field_offset" : 1216,
     "referenced_type" : "_ZTI15event_watermark"
    },
    {
     "field_name" : "readcb",
     "field_offset" : 1280,
     "referenced_type" : "_ZTIPFvP11buffereventPvE"
    },
    {
     "field_name" : "writecb",
     "field_offset" : 1312,
     "referenced_type" : "_ZTIPFvP11buffereventPvE"
    },
    {
     "field_name" : "errorcb",
     "field_offset" : 1344,
     "referenced_type" : "_ZTIPFvP11buffereventsPvE"
    },
    {
     "field_name" : "cbarg",
     "field_offset" : 1376,
     "referenced_type" : "_ZTIPv"
    },
    {
     "field_name" : "timeout_read",
     "field_offset" : 1408,
     "referenced_type" : "_ZTI7timeval"
    },
    {
     "field_name" : "timeout_write",
     "field_offset" : 1472,
     "referenced_type" : "_ZTI7timeval"
    },
    {
     "field_name" : "enabled",
     "field_offset" : 1536,
     "referenced_type" : "_ZTIs"
    }
   ],
   "linker_set_key" : "_ZTI11bufferevent",
   "name" : "bufferevent",
   "referenced_type" : "_ZTI11bufferevent",
   "self_type" : "_ZTI11bufferevent",
   "size" : 196,
   "source_file" : "/external/libevent/include/event2/bufferevent_struct.h"
  },
  {
   "alignment" : 4,
   "fields" :
   [
    {
     "field_name" : "lh_first",
     "referenced_type" : "_ZTIP5event"
    }
   ],
   "linker_set_key" : "_ZTI11event_dlist",
   "name" : "event_dlist",
   "referenced_type" : "_ZTI11event_dlist",
   "self_type" : "_ZTI11event_dlist",
   "size" : 4,
   "source_file" : "/external/libevent/include/event2/event_struct.h"
  },
  {
   "alignment" : 4,
   "fields" :
   [
    {
     "field_name" : "pos",
     "referenced_type" : "_ZTIi"
    },
    {
     "field_name" : "internal_",
     "field_offset" : 32,
     "referenced_type" : "_ZTIN12evbuffer_ptrUt_E"
    }
   ],
   "linker_set_key" : "_ZTI12evbuffer_ptr",
   "name" : "evbuffer_ptr",
   "referenced_type" : "_ZTI12evbuffer_ptr",
   "self_type" : "_ZTI12evbuffer_ptr",
   "size" : 12,
   "source_file" : "/external/libevent/include/event2/buffer.h"
  },
  {
   "alignment" : 4,
   "fields" :
   [
    {
     "field_name" : "error",
     "referenced_type" : "_ZTIi"
    },
    {
     "field_name" : "http_req",
     "field_offset" : 32,
     "referenced_type" : "_ZTIP14evhttp_request"
    }
   ],
   "linker_set_key" : "_ZTI12evrpc_status",
   "name" : "evrpc_status",
   "referenced_type" : "_ZTI12evrpc_status",
   "self_type" : "_ZTI12evrpc_status",
   "size" : 8,
   "source_file" : "/external/libevent/include/event2/rpc_struct.h"
  },
  {
   "alignment" : 4,
   "fields" :
   [
    {
     "field_name" : "evcb_active_next",
     "referenced_type" : "_ZTIN14event_callbackUt_E"
    },
    {
     "field_name" : "evcb_flags",
     "field_offset" : 64,
     "referenced_type" : "_ZTIs"
    },
    {
     "field_name" : "evcb_pri",
     "field_offset" : 80,
     "referenced_type" : "_ZTIh"
    },
    {
     "field_name" : "evcb_closure",
     "field_offset" : 88,
     "referenced_type" : "_ZTIh"
    },
    {
     "field_name" : "evcb_cb_union",
     "field_offset" : 96,
     "referenced_type" : "_ZTIN14event_callbackUt_E"
    },
    {
     "field_name" : "evcb_arg",
     "field_offset" : 128,
     "referenced_type" : "_ZTIPv"
    }
   ],
   "linker_set_key" : "_ZTI14event_callback",
   "name" : "event_callback",
   "referenced_type" : "_ZTI14event_callback",
   "self_type" : "_ZTI14event_callback",
   "size" : 20,
   "source_file" : "/external/libevent/include/event2/event_struct.h"
  },
  {
   "alignment" : 8,
   "fields" :
   [
    {
     "field_name" : "next",
     "referenced_type" : "_ZTIN14evhttp_requestUt_E"
    },
    {
     "field_name" : "evcon",
     "field_offset" : 64,
     "referenced_type" : "_ZTIP17evhttp_connection"
    },
    {
     "field_name" : "flags",
     "field_offset" : 96,
     "referenced_type" : "_ZTIi"
    },
    {
     "field_name" : "input_headers",
     "field_offset" : 128,
     "referenced_type" : "_ZTIP9evkeyvalq"
    },
    {
     "field_name" : "output_headers",
     "field_offset" : 160,
     "referenced_type" : "_ZTIP9evkeyvalq"
    },
    {
     "field_name" : "remote_host",
     "field_offset" : 192,
     "referenced_type" : "_ZTIPc"
    },
    {
     "field_name" : "remote_port",
     "field_offset" : 224,
     "referenced_type" : "_ZTIt"
    },
    {
     "field_name" : "host_cache",
     "field_offset" : 256,
     "referenced_type" : "_ZTIPc"
    },
    {
     "field_name" : "kind",
     "field_offset" : 288,
     "referenced_type" : "_ZTI19evhttp_request_kind"
    },
    {
     "field_name" : "type",
     "field_offset" : 320,
     "referenced_type" : "_ZTI15evhttp_cmd_type"
    },
    {
     "field_name" : "headers_size",
     "field_offset" : 352,
     "referenced_type" : "_ZTIj"
    },
    {
     "field_name" : "body_size",
     "field_offset" : 384,
     "referenced_type" : "_ZTIj"
    },
    {
     "field_name" : "uri",
     "field_offset" : 416,
     "referenced_type" : "_ZTIPc"
    },
    {
     "field_name" : "uri_elems",
     "field_offset" : 448,
     "referenced_type" : "_ZTIP10evhttp_uri"
    },
    {
     "field_name" : "major",
     "field_offset" : 480,
     "referenced_type" : "_ZTIc"
    },
    {
     "field_name" : "minor",
     "field_offset" : 488,
     "referenced_type" : "_ZTIc"
    },
    {
     "field_name" : "response_code",
     "field_offset" : 512,
     "referenced_type" : "_ZTIi"
    },
    {
     "field_name" : "response_code_line",
     "field_offset" : 544,
     "referenced_type" : "_ZTIPc"
    },
    {
     "field_name" : "input_buffer",
     "field_offset" : 576,
     "referenced_type" : "_ZTIP8evbuffer"
    },
    {
     "field_name" : "ntoread",
     "field_offset" : 640,
     "referenced_type" : "_ZTIx"
    },
    {
     "field_name" : "chunked",
     "field_offset" : 704,
     "referenced_type" : "_ZTIj"
    },
    {
     "field_name" : "userdone",
     "field_offset" : 705,
     "referenced_type" : "_ZTIj"
    },
    {
     "field_name" : "output_buffer",
     "field_offset" : 736,
     "referenced_type" : "_ZTIP8evbuffer"
    },
    {
     "field_name" : "cb",
     "field_offset" : 768,
     "referenced_type" : "_ZTIPFvP14evhttp_requestPvE"
    },
    {
     "field_name" : "cb_arg",
     "field_offset" : 800,
     "referenced_type" : "_ZTIPv"
    },
    {
     "field_name" : "chunk_cb",
     "field_offset" : 832,
     "referenced_type" : "_ZTIPFvP14evhttp_requestPvE"
    },
    {
     "field_name" : "header_cb",
     "field_offset" : 864,
     "referenced_type" : "_ZTIPFiP14evhttp_requestPvE"
    },
    {
     "field_name" : "error_cb",
     "field_offset" : 896,
     "referenced_type" : "_ZTIPFv20evhttp_request_errorPvE"
    },
    {
     "field_name" : "on_complete_cb",
     "field_offset" : 928,
     "referenced_type" : "_ZTIPFvP14evhttp_requestPvE"
    },
    {
     "field_name" : "on_complete_cb_arg",
     "field_offset" : 960,
     "referenced_type" : "_ZTIPv"
    }
   ],
   "linker_set_key" : "_ZTI14evhttp_request",
   "name" : "evhttp_request",
   "referenced_type" : "_ZTI14evhttp_request",
   "self_type" : "_ZTI14evhttp_request",
   "size" : 128,
   "source_file" : "/external/libevent/include/event2/http_struct.h"
  },
  {
   "alignment" : 4,
   "fields" :
   [
    {
     "field_name" : "low",
     "referenced_type" : "_ZTIj"
    },
    {
     "field_name" : "high",
     "field_offset" : 32,
     "referenced_type" : "_ZTIj"
    }
   ],
   "linker_set_key" : "_ZTI15event_watermark",
   "name" : "event_watermark",
   "referenced_type" : "_ZTI15event_watermark",
   "self_type" : "_ZTI15event_watermark",
   "size" : 8,
   "source_file" : "/external/libevent/include/event2/bufferevent_struct.h"
  },
  {
   "alignment" : 4,
   "fields" :
   [
    {
     "field_name" : "orig_size",
     "referenced_type" : "_ZTIj"
    },
    {
     "field_name" : "n_added",
     "field_offset" : 32,
     "referenced_type" : "_ZTIj"
    },
    {
     "field_name" : "n_deleted",
     "field_offset" : 64,
     "referenced_type" : "_ZTIj"
    }
   ],
   "linker_set_key" : "_ZTI16evbuffer_cb_info",
   "name" : "evbuffer_cb_info",
   "referenced_type" : "_ZTI16evbuffer_cb_info",
   "self_type" : "_ZTI16evbuffer_cb_info",
   "size" : 12,
   "source_file" : "/external/libevent/include/event2/buffer.h"
  },
  {
   "alignment" : 4,
   "fields" :
   [
    {
     "field_name" : "flags",
     "referenced_type" : "_ZTIi"
    },
    {
     "field_name" : "nquestions",
     "field_offset" : 32,
     "referenced_type" : "_ZTIi"
    },
    {
     "field_name" : "questions",
     "field_offset" : 64,
     "referenced_type" : "_ZTIPP21evdns_server_question"
    }
   ],
   "linker_set_key" : "_ZTI20evdns_server_request",
   "name" : "evdns_server_request",
   "referenced_type" : "_ZTI20evdns_server_request",
   "self_type" : "_ZTI20evdns_server_request",
   "size" : 12,
   "source_file" : "/external/libevent/include/event2/dns_struct.h"
  },
  {
   "alignment" : 4,
   "fields" :
   [
    {
     "field_name" : "type",
     "referenced_type" : "_ZTIi"
    },
    {
     "field_name" : "class",
     "field_offset" : 32,
     "referenced_type" : "_ZTIi"
    },
    {
     "field_name" : "name",
     "field_offset" : 64,
     "referenced_type" : "_ZTIA1_c"
    }
   ],
   "linker_set_key" : "_ZTI21evdns_server_question",
   "name" : "evdns_server_question",
   "referenced_type" : "_ZTI21evdns_server_question",
   "self_type" : "_ZTI21evdns_server_question",
   "size" : 12,
   "source_file" : "/external/libevent/include/event2/dns_struct.h"
  },
  {
   "alignment" : 4,
   "fields" :
   [
    {
     "field_name" : "lock_api_version",
     "referenced_type" : "_ZTIi"
    },
    {
     "field_name" : "supported_locktypes",
     "field_offset" : 32,
     "referenced_type" : "_ZTIj"
    },
    {
     "field_name" : "alloc",
     "field_offset" : 64,
     "referenced_type" : "_ZTIPFPvjE"
    },
    {
     "field_name" : "free",
     "field_offset" : 96,
     "referenced_type" : "_ZTIPFvPvjE"
    },
    {
     "field_name" : "lock",
     "field_offset" : 128,
     "referenced_type" : "_ZTIPFijPvE"
    },
    {
     "field_name" : "unlock",
     "field_offset" : 160,
     "referenced_type" : "_ZTIPFijPvE"
    }
   ],
   "linker_set_key" : "_ZTI23evthread_lock_callbacks",
   "name" : "evthread_lock_callbacks",
   "referenced_type" : "_ZTI23evthread_lock_callbacks",
   "self_type" : "_ZTI23evthread_lock_callbacks",
   "size" : 24,
   "source_file" : "/external/libevent/include/event2/thread.h"
  },
  {
   "alignment" : 4,
   "fields" :
   [
    {
     "field_name" : "condition_api_version",
     "referenced_type" : "_ZTIi"
    },
    {
     "field_name" : "alloc_condition",
     "field_offset" : 32,
     "referenced_type" : "_ZTIPFPvjE"
    },
    {
     "field_name" : "free_condition",
     "field_offset" : 64,
     "referenced_type" : "_ZTIPFvPvE"
    },
    {
     "field_name" : "signal_condition",
     "field_offset" : 96,
     "referenced_type" : "_ZTIPFiPviE"
    },
    {
     "field_name" : "wait_condition",
     "field_offset" : 128,
     "referenced_type" : "_ZTIPFiPvS_PK7timevalE"
    }
   ],
   "linker_set_key" : "_ZTI28evthread_condition_callbacks",
   "name" : "evthread_condition_callbacks",
   "referenced_type" : "_ZTI28evthread_condition_callbacks",
   "self_type" : "_ZTI28evthread_condition_callbacks",
   "size" : 20,
   "source_file" : "/external/libevent/include/event2/thread.h"
  },
  {
   "alignment" : 4,
   "fields" :
   [
    {
     "field_name" : "ev_evcallback",
     "referenced_type" : "_ZTI14event_callback"
    },
    {
     "field_name" : "ev_timeout_pos",
     "field_offset" : 160,
     "referenced_type" : "_ZTIN5eventUt_E"
    },
    {
     "field_name" : "ev_fd",
     "field_offset" : 224,
     "referenced_type" : "_ZTIi"
    },
    {
     "field_name" : "ev_base",
     "field_offset" : 256,
     "referenced_type" : "_ZTIP10event_base"
    },
    {
     "field_name" : "ev_",
     "field_offset" : 288,
     "referenced_type" : "_ZTIN5eventUt_E"
    },
    {
     "field_name" : "ev_events",
     "field_offset" : 416,
     "referenced_type" : "_ZTIs"
    },
    {
     "field_name" : "ev_res",
     "field_offset" : 432,
     "referenced_type" : "_ZTIs"
    },
    {
     "field_name" : "ev_timeout",
     "field_offset" : 448,
     "referenced_type" : "_ZTI7timeval"
    }
   ],
   "linker_set_key" : "_ZTI5event",
   "name" : "event",
   "referenced_type" : "_ZTI5event",
   "self_type" : "_ZTI5event",
   "size" : 64,
   "source_file" : "/external/libevent/include/event2/event_struct.h"
  },
  {
   "alignment" : 4,
   "fields" :
   [
    {
     "field_name" : "next",
     "referenced_type" : "_ZTIN5evrpcUt_E"
    },
    {
     "field_name" : "uri",
     "field_offset" : 64,
     "referenced_type" : "_ZTIPKc"
    },
    {
     "field_name" : "request_new",
     "field_offset" : 96,
     "referenced_type" : "_ZTIPFPvS_E"
    },
    {
     "field_name" : "request_new_arg",
     "field_offset" : 128,
     "referenced_type" : "_ZTIPv"
    },
    {
     "field_name" : "request_free",
     "field_offset" : 160,
     "referenced_type" : "_ZTIPFvPvE"
    },
    {
     "field_name" : "request_unmarshal",
     "field_offset" : 192,
     "referenced_type" : "_ZTIPFiPvP8evbufferE"
    },
    {
     "field_name" : "reply_new",
     "field_offset" : 224,
     "referenced_type" : "_ZTIPFPvS_E"
    },
    {
     "field_name" : "reply_new_arg",
     "field_offset" : 256,
     "referenced_type" : "_ZTIPv"
    },
    {
     "field_name" : "reply_free",
     "field_offset" : 288,
     "referenced_type" : "_ZTIPFvPvE"
    },
    {
     "field_name" : "reply_complete",
     "field_offset" : 320,
     "referenced_type" : "_ZTIPFiPvE"
    },
    {
     "field_name" : "reply_marshal",
     "field_offset" : 352,
     "referenced_type" : "_ZTIPFvP8evbufferPvE"
    },
    {
     "field_name" : "cb",
     "field_offset" : 384,
     "referenced_type" : "_ZTIPFvP17evrpc_req_genericPvE"
    },
    {
     "field_name" : "cb_arg",
     "field_offset" : 416,
     "referenced_type" : "_ZTIPv"
    },
    {
     "field_name" : "base",
     "field_offset" : 448,
     "referenced_type" : "_ZTIP10evrpc_base"
    }
   ],
   "linker_set_key" : "_ZTI5evrpc",
   "name" : "evrpc",
   "referenced_type" : "_ZTI5evrpc",
   "self_type" : "_ZTI5evrpc",
   "size" : 60,
   "source_file" : "/external/libevent/include/event2/rpc_struct.h"
  },
  {
   "alignment" : 4,
   "fields" :
   [
    {
     "field_name" : "next",
     "referenced_type" : "_ZTIN8evkeyvalUt_E"
    },
    {
     "field_name" : "key",
     "field_offset" : 64,
     "referenced_type" : "_ZTIPc"
    },
    {
     "field_name" : "value",
     "field_offset" : 96,
     "referenced_type" : "_ZTIPc"
    }
   ],
   "linker_set_key" : "_ZTI8evkeyval",
   "name" : "evkeyval",
   "referenced_type" : "_ZTI8evkeyval",
   "self_type" : "_ZTI8evkeyval",
   "size" : 16,
   "source_file" : "/external/libevent/include/event2/keyvalq_struct.h"
  },
  {
   "alignment" : 4,
   "fields" :
   [
    {
     "field_name" : "tqh_first",
     "referenced_type" : "_ZTIP8evkeyval"
    },
    {
     "field_name" : "tqh_last",
     "field_offset" : 32,
     "referenced_type" : "_ZTIPP8evkeyval"
    }
   ],
   "linker_set_key" : "_ZTI9evkeyvalq",
   "name" : "evkeyvalq",
   "referenced_type" : "_ZTI9evkeyvalq",
   "self_type" : "_ZTI9evkeyvalq",
   "size" : 8,
   "source_file" : "/external/libevent/include/event2/keyvalq_struct.h"
  },
  {
   "alignment" : 4,
   "fields" :
   [
    {
     "field_name" : "chain",
     "referenced_type" : "_ZTIPv"
    },
    {
     "field_name" : "pos_in_chain",
     "field_offset" : 32,
     "referenced_type" : "_ZTIj"
    }
   ],
   "is_anonymous" : true,
   "linker_set_key" : "_ZTIN12evbuffer_ptrUt_E",
   "name" : "evbuffer_ptr::(anonymous struct at external/libevent/include/event2/buffer.h:121:2)",
   "referenced_type" : "_ZTIN12evbuffer_ptrUt_E",
   "self_type" : "_ZTIN12evbuffer_ptrUt_E",
   "size" : 8,
   "source_file" : "/external/libevent/include/event2/buffer.h"
  },
  {
   "alignment" : 4,
   "fields" :
   [
    {
     "field_name" : "tqe_next",
     "referenced_type" : "_ZTIP14event_callback"
    },
    {
     "field_name" : "tqe_prev",
     "field_offset" : 32,
     "referenced_type" : "_ZTIPP14event_callback"
    }
   ],
   "is_anonymous" : true,
   "linker_set_key" : "_ZTIN14event_callbackUt_E",
   "name" : "event_callback::(anonymous struct at external/libevent/include/event2/event_struct.h:108:2)",
   "referenced_type" : "_ZTIN14event_callbackUt_E",
   "self_type" : "_ZTIN14event_callbackUt_E",
   "size" : 8,
   "source_file" : "/external/libevent/include/event2/event_struct.h"
  },
  {
   "alignment" : 4,
   "fields" :
   [
    {
     "field_name" : "tqe_next",
     "referenced_type" : "_ZTIP14evhttp_request"
    },
    {
     "field_name" : "tqe_prev",
     "field_offset" : 32,
     "referenced_type" : "_ZTIPP14evhttp_request"
    }
   ],
   "is_anonymous" : true,
   "linker_set_key" : "_ZTIN14evhttp_requestUt_E",
   "name" : "evhttp_request::(anonymous struct at external/libevent/include/event2/http_struct.h:59:2)",
   "referenced_type" : "_ZTIN14evhttp_requestUt_E",
   "self_type" : "_ZTIN14evhttp_requestUt_E",
   "size" : 8,
   "source_file" : "/external/libevent/include/event2/http_struct.h"
  },
  {
   "alignment" : 4,
   "fields" :
   [
    {
     "field_name" : "ev_next_with_common_timeout",
     "referenced_type" : "_ZTIN5eventUt_Ut_E"
    },
    {
     "field_name" : "min_heap_idx",
     "referenced_type" : "_ZTIi"
    }
   ],
   "is_anonymous" : true,
   "linker_set_key" : "_ZTIN5eventUt_E",
   "name" : "event::(anonymous union at external/libevent/include/event2/event_struct.h:127:2)",
   "record_kind" : "union",
   "referenced_type" : "_ZTIN5eventUt_E",
   "self_type" : "_ZTIN5eventUt_E",
   "size" : 8,
   "source_file" : "/external/libevent/include/event2/event_struct.h"
  },
  {
   "alignment" : 4,
   "fields" :
   [
    {
     "field_name" : "tqe_next",
     "referenced_type" : "_ZTIP5event"
    },
    {
     "field_name" : "tqe_prev",
     "field_offset" : 32,
     "referenced_type" : "_ZTIPP5event"
    }
   ],
   "is_anonymous" : true,
   "linker_set_key" : "_ZTIN5eventUt_Ut_E",
   "name" : "event::(anonymous union at external/libevent/include/event2/event_struct.h:127:2)::(anonymous struct at external/libevent/include/event2/event_struct.h:128:3)",
   "referenced_type" : "_ZTIN5eventUt_Ut_E",
   "self_type" : "_ZTIN5eventUt_Ut_E",
   "size" : 8,
   "source_file" : "/external/libevent/include/event2/event_struct.h"
  },
  {
   "alignment" : 4,
   "fields" :
   [
    {
     "field_name" : "le_next",
     "referenced_type" : "_ZTIP5event"
    },
    {
     "field_name" : "le_prev",
     "field_offset" : 32,
     "referenced_type" : "_ZTIPP5event"
    }
   ],
   "is_anonymous" : true,
   "linker_set_key" : "_ZTIN5eventUt_Ut_Ut_E",
   "name" : "event::(anonymous union at external/libevent/include/event2/event_struct.h:135:2)::(anonymous struct at external/libevent/include/event2/event_struct.h:137:3)::(anonymous struct at external/libevent/include/event2/event_struct.h:138:4)",
   "referenced_type" : "_ZTIN5eventUt_Ut_Ut_E",
   "self_type" : "_ZTIN5eventUt_Ut_Ut_E",
   "size" : 8,
   "source_file" : "/external/libevent/include/event2/event_struct.h"
  },
  {
   "alignment" : 4,
   "fields" :
   [
    {
     "field_name" : "tqe_next",
     "referenced_type" : "_ZTIP5evrpc"
    },
    {
     "field_name" : "tqe_prev",
     "field_offset" : 32,
     "referenced_type" : "_ZTIPP5evrpc"
    }
   ],
   "is_anonymous" : true,
   "linker_set_key" : "_ZTIN5evrpcUt_E",
   "name" : "evrpc::(anonymous struct at external/libevent/include/event2/rpc_struct.h:70:2)",
   "referenced_type" : "_ZTIN5evrpcUt_E",
   "self_type" : "_ZTIN5evrpcUt_E",
   "size" : 8,
   "source_file" : "/external/libevent/include/event2/rpc_struct.h"
  },
  {
   "alignment" : 4,
   "fields" :
   [
    {
     "field_name" : "tqe_next",
     "referenced_type" : "_ZTIP8evkeyval"
    },
    {
     "field_name" : "tqe_prev",
     "field_offset" : 32,
     "referenced_type" : "_ZTIPP8evkeyval"
    }
   ],
   "is_anonymous" : true,
   "linker_set_key" : "_ZTIN8evkeyvalUt_E",
   "name" : "evkeyval::(anonymous struct at external/libevent/include/event2/keyvalq_struct.h:59:2)",
   "referenced_type" : "_ZTIN8evkeyvalUt_E",
   "self_type" : "_ZTIN8evkeyvalUt_E",
   "size" : 8,
   "source_file" : "/external/libevent/include/event2/keyvalq_struct.h"
  }
 ],
 "rvalue_reference_types" : []
}
