{
 "array_types" :
 [
  {
   "alignment" : 4,
   "linker_set_key" : "_ZTIA0_i",
   "name" : "int [0]",
   "referenced_type" : "_ZTIi",
   "self_type" : "_ZTIA0_i",
   "source_file" : "/system/core/libcutils/include/cutils/native_handle.h"
  },
  {
   "alignment" : 4,
   "linker_set_key" : "_ZTIA1_PKc",
   "name" : "const char *[1]",
   "referenced_type" : "_ZTIPKc",
   "self_type" : "_ZTIA1_PKc",
   "size" : 4,
   "source_file" : "/frameworks/native/libs/binder/include/binder/IInterface.h"
  },
  {
   "alignment" : 1,
   "linker_set_key" : "_ZTIA3_h",
   "name" : "unsigned char [3]",
   "referenced_type" : "_ZTIh",
   "self_type" : "_ZTIA3_h",
   "size" : 3,
   "source_file" : "/system/libhidl/base/include/hidl/HidlSupport.h"
  },
  {
   "alignment" : 1,
   "linker_set_key" : "_ZTIA5121_h",
   "name" : "unsigned char [5121]",
   "referenced_type" : "_ZTIh",
   "self_type" : "_ZTIA5121_h",
   "size" : 5121,
   "source_file" : "/system/core/liblog/include/log/log_read.h"
  },
  {
   "alignment" : 1,
   "linker_set_key" : "_ZTIA7_h",
   "name" : "unsigned char [7]",
   "referenced_type" : "_ZTIh",
   "self_type" : "_ZTIA7_h",
   "size" : 7,
   "source_file" : "/system/libhidl/base/include/hidl/HidlSupport.h"
  },
  {
   "alignment" : 4,
   "linker_set_key" : "_ZTIA89_PKc",
   "name" : "const char *[89]",
   "referenced_type" : "_ZTIPKc",
   "self_type" : "_ZTIA89_PKc",
   "size" : 356,
   "source_file" : "/frameworks/native/libs/binder/include/binder/IInterface.h"
  }
 ],
 "builtin_types" :
 [
  {
   "alignment" : 2,
   "is_integral" : true,
   "is_unsigned" : true,
   "linker_set_key" : "_ZTIDs",
   "name" : "char16_t",
   "referenced_type" : "_ZTIDs",
   "self_type" : "_ZTIDs",
   "size" : 2
  },
  {
   "alignment" : 1,
   "is_integral" : true,
   "linker_set_key" : "_ZTIa",
   "name" : "signed char",
   "referenced_type" : "_ZTIa",
   "self_type" : "_ZTIa",
   "size" : 1
  },
  {
   "alignment" : 1,
   "is_integral" : true,
   "is_unsigned" : true,
   "linker_set_key" : "_ZTIb",
   "name" : "bool",
   "referenced_type" : "_ZTIb",
   "self_type" : "_ZTIb",
   "size" : 1
  },
  {
   "alignment" : 1,
   "is_integral" : true,
   "is_unsigned" : true,
   "linker_set_key" : "_ZTIc",
   "name" : "char",
   "referenced_type" : "_ZTIc",
   "self_type" : "_ZTIc",
   "size" : 1
  },
  {
   "alignment" : 8,
   "linker_set_key" : "_ZTId",
   "name" : "double",
   "referenced_type" : "_ZTId",
   "self_type" : "_ZTId",
   "size" : 8
  },
  {
   "alignment" : 4,
   "linker_set_key" : "_ZTIf",
   "name" : "float",
   "referenced_type" : "_ZTIf",
   "self_type" : "_ZTIf",
   "size" : 4
  },
  {
   "alignment" : 1,
   "is_integral" : true,
   "is_unsigned" : true,
   "linker_set_key" : "_ZTIh",
   "name" : "unsigned char",
   "referenced_type" : "_ZTIh",
   "self_type" : "_ZTIh",
   "size" : 1
  },
  {
   "alignment" : 4,
   "is_integral" : true,
   "linker_set_key" : "_ZTIi",
   "name" : "int",
   "referenced_type" : "_ZTIi",
   "self_type" : "_ZTIi",
   "size" : 4
  },
  {
   "alignment" : 4,
   "is_integral" : true,
   "is_unsigned" : true,
   "linker_set_key" : "_ZTIj",
   "name" : "unsigned int",
   "referenced_type" : "_ZTIj",
   "self_type" : "_ZTIj",
   "size" : 4
  },
  {
   "alignment" : 4,
   "is_integral" : true,
   "linker_set_key" : "_ZTIl",
   "name" : "long",
   "referenced_type" : "_ZTIl",
   "self_type" : "_ZTIl",
   "size" : 4
  },
  {
   "alignment" : 4,
   "is_integral" : true,
   "is_unsigned" : true,
   "linker_set_key" : "_ZTIm",
   "name" : "unsigned long",
   "referenced_type" : "_ZTIm",
   "self_type" : "_ZTIm",
   "size" : 4
  },
  {
   "alignment" : 2,
   "is_integral" : true,
   "linker_set_key" : "_ZTIs",
   "name" : "short",
   "referenced_type" : "_ZTIs",
   "self_type" : "_ZTIs",
   "size" : 2
  },
  {
   "alignment" : 2,
   "is_integral" : true,
   "is_unsigned" : true,
   "linker_set_key" : "_ZTIt",
   "name" : "unsigned short",
   "referenced_type" : "_ZTIt",
   "self_type" : "_ZTIt",
   "size" : 2
  },
  {
   "linker_set_key" : "_ZTIv",
   "name" : "void",
   "referenced_type" : "_ZTIv",
   "self_type" : "_ZTIv"
  },
  {
   "alignment" : 8,
   "is_integral" : true,
   "linker_set_key" : "_ZTIx",
   "name" : "long long",
   "referenced_type" : "_ZTIx",
   "self_type" : "_ZTIx",
   "size" : 8
  },
  {
   "alignment" : 8,
   "is_integral" : true,
   "is_unsigned" : true,
   "linker_set_key" : "_ZTIy",
   "name" : "unsigned long long",
   "referenced_type" : "_ZTIy",
   "self_type" : "_ZTIy",
   "size" : 8
  }
 ],
 "elf_functions" :
 [
  {
   "name" : "_ZN7android8hardware8fromHeapERKNS_2spINS_11IMemoryHeapEEE"
  }
 ],
 "elf_objects" : [],
 "enum_types" :
 [
  {
   "alignment" : 4,
   "enum_fields" :
   [
    {
     "enum_field_value" : 0,
     "name" : "ANDROID_LOG_UNKNOWN"
    },
    {
     "enum_field_value" : 1,
     "name" : "ANDROID_LOG_DEFAULT"
    },
    {
     "enum_field_value" : 2,
     "name" : "ANDROID_LOG_VERBOSE"
    },
    {
     "enum_field_value" : 3,
     "name" : "ANDROID_LOG_DEBUG"
    },
    {
     "enum_field_value" : 4,
     "name" : "ANDROID_LOG_INFO"
    },
    {
     "enum_field_value" : 5,
     "name" : "ANDROID_LOG_WARN"
    },
    {
     "enum_field_value" : 6,
     "name" : "ANDROID_LOG_ERROR"
    },
    {
     "enum_field_value" : 7,
     "name" : "ANDROID_LOG_FATAL"
    },
    {
     "enum_field_value" : 8,
     "name" : "ANDROID_LOG_SILENT"
    }
   ],
   "linker_set_key" : "_ZTI19android_LogPriority",
   "name" : "android_LogPriority",
   "referenced_type" : "_ZTI19android_LogPriority",
   "self_type" : "_ZTI19android_LogPriority",
   "size" : 4,
   "source_file" : "/system/core/liblog/include/android/log.h",
   "underlying_type" : "_ZTIj"
  },
  {
   "alignment" : 4,
   "enum_fields" :
   [
    {
     "enum_field_value" : 0,
     "name" : "LOG_ID_MIN"
    },
    {
     "enum_field_value" : 0,
     "name" : "LOG_ID_MAIN"
    },
    {
     "enum_field_value" : 1,
     "name" : "LOG_ID_RADIO"
    },
    {
     "enum_field_value" : 2,
     "name" : "LOG_ID_EVENTS"
    },
    {
     "enum_field_value" : 3,
     "name" : "LOG_ID_SYSTEM"
    },
    {
     "enum_field_value" : 4,
     "name" : "LOG_ID_CRASH"
    },
    {
     "enum_field_value" : 5,
     "name" : "LOG_ID_STATS"
    },
    {
     "enum_field_value" : 6,
     "name" : "LOG_ID_SECURITY"
    },
    {
     "enum_field_value" : 7,
     "name" : "LOG_ID_KERNEL"
    },
    {
     "enum_field_value" : 8,
     "name" : "LOG_ID_MAX"
    },
    {
     "enum_field_value" : 2147483647,
     "name" : "LOG_ID_DEFAULT"
    }
   ],
   "linker_set_key" : "_ZTI6log_id",
   "name" : "log_id",
   "referenced_type" : "_ZTI6log_id",
   "self_type" : "_ZTI6log_id",
   "size" : 4,
   "source_file" : "/system/core/liblog/include/android/log.h",
   "underlying_type" : "_ZTIj"
  },
  {
   "alignment" : 4,
   "enum_fields" :
   [
    {
     "enum_field_value" : 1,
     "name" : "android::VectorImpl::HAS_TRIVIAL_CTOR"
    },
    {
     "enum_field_value" : 2,
     "name" : "android::VectorImpl::HAS_TRIVIAL_DTOR"
    },
    {
     "enum_field_value" : 4,
     "name" : "android::VectorImpl::HAS_TRIVIAL_COPY"
    }
   ],
   "linker_set_key" : "_ZTIN7android10VectorImpl17$HAS_TRIVIAL_COPYE",
   "name" : "android::VectorImpl::(anonymous enum at system/core/libutils/include/utils/VectorImpl.h:43:5)",
   "referenced_type" : "_ZTIN7android10VectorImpl17$HAS_TRIVIAL_COPYE",
   "self_type" : "_ZTIN7android10VectorImpl17$HAS_TRIVIAL_COPYE",
   "size" : 4,
   "source_file" : "/system/core/libutils/include/utils/VectorImpl.h",
   "underlying_type" : "_ZTIj"
  },
  {
   "alignment" : 4,
   "enum_fields" :
   [
    {
     "enum_field_value" : 1,
     "name" : "android::IMemoryHeap::READ_ONLY"
    }
   ],
   "linker_set_key" : "_ZTIN7android11IMemoryHeap10$READ_ONLYE",
   "name" : "android::IMemoryHeap::(anonymous enum at frameworks/native/libs/binder/include/binder/IMemory.h:38:5)",
   "referenced_type" : "_ZTIN7android11IMemoryHeap10$READ_ONLYE",
   "self_type" : "_ZTIN7android11IMemoryHeap10$READ_ONLYE",
   "size" : 4,
   "source_file" : "/frameworks/native/libs/binder/include/binder/IMemory.h",
   "underlying_type" : "_ZTIj"
  },
  {
   "alignment" : 4,
   "enum_fields" :
   [
    {
     "enum_field_value" : 0,
     "name" : "android::OK"
    },
    {
     "enum_field_value" : 0,
     "name" : "android::NO_ERROR"
    },
    {
     "enum_field_value" : -2147483648,
     "name" : "android::UNKNOWN_ERROR"
    },
    {
     "enum_field_value" : -12,
     "name" : "android::NO_MEMORY"
    },
    {
     "enum_field_value" : -38,
     "name" : "android::INVALID_OPERATION"
    },
    {
     "enum_field_value" : -22,
     "name" : "android::BAD_VALUE"
    },
    {
     "enum_field_value" : -2147483647,
     "name" : "android::BAD_TYPE"
    },
    {
     "enum_field_value" : -2,
     "name" : "android::NAME_NOT_FOUND"
    },
    {
     "enum_field_value" : -1,
     "name" : "android::PERMISSION_DENIED"
    },
    {
     "enum_field_value" : -19,
     "name" : "android::NO_INIT"
    },
    {
     "enum_field_value" : -17,
     "name" : "android::ALREADY_EXISTS"
    },
    {
     "enum_field_value" : -32,
     "name" : "android::DEAD_OBJECT"
    },
    {
     "enum_field_value" : -2147483646,
     "name" : "android::FAILED_TRANSACTION"
    },
    {
     "enum_field_value" : -75,
     "name" : "android::BAD_INDEX"
    },
    {
     "enum_field_value" : -61,
     "name" : "android::NOT_ENOUGH_DATA"
    },
    {
     "enum_field_value" : -11,
     "name" : "android::WOULD_BLOCK"
    },
    {
     "enum_field_value" : -110,
     "name" : "android::TIMED_OUT"
    },
    {
     "enum_field_value" : -74,
     "name" : "android::UNKNOWN_TRANSACTION"
    },
    {
     "enum_field_value" : -2147483641,
     "name" : "android::FDS_NOT_ALLOWED"
    },
    {
     "enum_field_value" : -2147483640,
     "name" : "android::UNEXPECTED_NULL"
    }
   ],
   "linker_set_key" : "_ZTIN7android15$ALREADY_EXISTSE",
   "name" : "android::(anonymous enum at system/core/libutils/include/utils/Errors.h:43:1)",
   "referenced_type" : "_ZTIN7android15$ALREADY_EXISTSE",
   "self_type" : "_ZTIN7android15$ALREADY_EXISTSE",
   "size" : 4,
   "source_file" : "/system/core/libutils/include/utils/Errors.h",
   "underlying_type" : "_ZTIi"
  },
  {
   "alignment" : 4,
   "enum_fields" :
   [
    {
     "enum_field_value" : 1,
     "name" : "android::trait_trivial_copy<bool>::value"
    }
   ],
   "linker_set_key" : "_ZTIN7android18trait_trivial_copyIbE6$valueE",
   "name" : "android::trait_trivial_copy<bool>::(anonymous enum at system/core/libutils/include/utils/TypeHelpers.h:98:1)",
   "referenced_type" : "_ZTIN7android18trait_trivial_copyIbE6$valueE",
   "self_type" : "_ZTIN7android18trait_trivial_copyIbE6$valueE",
   "size" : 4,
   "source_file" : "/system/core/libutils/include/utils/TypeHelpers.h",
   "underlying_type" : "_ZTIj"
  },
  {
   "alignment" : 4,
   "enum_fields" :
   [
    {
     "enum_field_value" : 1,
     "name" : "android::trait_trivial_copy<char>::value"
    }
   ],
   "linker_set_key" : "_ZTIN7android18trait_trivial_copyIcE6$valueE",
   "name" : "android::trait_trivial_copy<char>::(anonymous enum at system/core/libutils/include/utils/TypeHelpers.h:99:1)",
   "referenced_type" : "_ZTIN7android18trait_trivial_copyIcE6$valueE",
   "self_type" : "_ZTIN7android18trait_trivial_copyIcE6$valueE",
   "size" : 4,
   "source_file" : "/system/core/libutils/include/utils/TypeHelpers.h",
   "underlying_type" : "_ZTIj"
  },
  {
   "alignment" : 4,
   "enum_fields" :
   [
    {
     "enum_field_value" : 1,
     "name" : "android::trait_trivial_copy<double>::value"
    }
   ],
   "linker_set_key" : "_ZTIN7android18trait_trivial_copyIdE6$valueE",
   "name" : "android::trait_trivial_copy<double>::(anonymous enum at system/core/libutils/include/utils/TypeHelpers.h:110:1)",
   "referenced_type" : "_ZTIN7android18trait_trivial_copyIdE6$valueE",
   "self_type" : "_ZTIN7android18trait_trivial_copyIdE6$valueE",
   "size" : 4,
   "source_file" : "/system/core/libutils/include/utils/TypeHelpers.h",
   "underlying_type" : "_ZTIj"
  },
  {
   "alignment" : 4,
   "enum_fields" :
   [
    {
     "enum_field_value" : 1,
     "name" : "android::trait_trivial_copy<float>::value"
    }
   ],
   "linker_set_key" : "_ZTIN7android18trait_trivial_copyIfE6$valueE",
   "name" : "android::trait_trivial_copy<float>::(anonymous enum at system/core/libutils/include/utils/TypeHelpers.h:109:1)",
   "referenced_type" : "_ZTIN7android18trait_trivial_copyIfE6$valueE",
   "self_type" : "_ZTIN7android18trait_trivial_copyIfE6$valueE",
   "size" : 4,
   "source_file" : "/system/core/libutils/include/utils/TypeHelpers.h",
   "underlying_type" : "_ZTIj"
  },
  {
   "alignment" : 4,
   "enum_fields" :
   [
    {
     "enum_field_value" : 1,
     "name" : "android::trait_trivial_copy<unsigned char>::value"
    }
   ],
   "linker_set_key" : "_ZTIN7android18trait_trivial_copyIhE6$valueE",
   "name" : "android::trait_trivial_copy<unsigned char>::(anonymous enum at system/core/libutils/include/utils/TypeHelpers.h:100:1)",
   "referenced_type" : "_ZTIN7android18trait_trivial_copyIhE6$valueE",
   "self_type" : "_ZTIN7android18trait_trivial_copyIhE6$valueE",
   "size" : 4,
   "source_file" : "/system/core/libutils/include/utils/TypeHelpers.h",
   "underlying_type" : "_ZTIj"
  },
  {
   "alignment" : 4,
   "enum_fields" :
   [
    {
     "enum_field_value" : 1,
     "name" : "android::trait_trivial_copy<int>::value"
    }
   ],
   "linker_set_key" : "_ZTIN7android18trait_trivial_copyIiE6$valueE",
   "name" : "android::trait_trivial_copy<int>::(anonymous enum at system/core/libutils/include/utils/TypeHelpers.h:103:1)",
   "referenced_type" : "_ZTIN7android18trait_trivial_copyIiE6$valueE",
   "self_type" : "_ZTIN7android18trait_trivial_copyIiE6$valueE",
   "size" : 4,
   "source_file" : "/system/core/libutils/include/utils/TypeHelpers.h",
   "underlying_type" : "_ZTIj"
  },
  {
   "alignment" : 4,
   "enum_fields" :
   [
    {
     "enum_field_value" : 1,
     "name" : "android::trait_trivial_copy<unsigned int>::value"
    }
   ],
   "linker_set_key" : "_ZTIN7android18trait_trivial_copyIjE6$valueE",
   "name" : "android::trait_trivial_copy<unsigned int>::(anonymous enum at system/core/libutils/include/utils/TypeHelpers.h:104:1)",
   "referenced_type" : "_ZTIN7android18trait_trivial_copyIjE6$valueE",
   "self_type" : "_ZTIN7android18trait_trivial_copyIjE6$valueE",
   "size" : 4,
   "source_file" : "/system/core/libutils/include/utils/TypeHelpers.h",
   "underlying_type" : "_ZTIj"
  },
  {
   "alignment" : 4,
   "enum_fields" :
   [
    {
     "enum_field_value" : 1,
     "name" : "android::trait_trivial_copy<long>::value"
    }
   ],
   "linker_set_key" : "_ZTIN7android18trait_trivial_copyIlE6$valueE",
   "name" : "android::trait_trivial_copy<long>::(anonymous enum at system/core/libutils/include/utils/TypeHelpers.h:105:1)",
   "referenced_type" : "_ZTIN7android18trait_trivial_copyIlE6$valueE",
   "self_type" : "_ZTIN7android18trait_trivial_copyIlE6$valueE",
   "size" : 4,
   "source_file" : "/system/core/libutils/include/utils/TypeHelpers.h",
   "underlying_type" : "_ZTIj"
  },
  {
   "alignment" : 4,
   "enum_fields" :
   [
    {
     "enum_field_value" : 1,
     "name" : "android::trait_trivial_copy<unsigned long>::value"
    }
   ],
   "linker_set_key" : "_ZTIN7android18trait_trivial_copyImE6$valueE",
   "name" : "android::trait_trivial_copy<unsigned long>::(anonymous enum at system/core/libutils/include/utils/TypeHelpers.h:106:1)",
   "referenced_type" : "_ZTIN7android18trait_trivial_copyImE6$valueE",
   "self_type" : "_ZTIN7android18trait_trivial_copyImE6$valueE",
   "size" : 4,
   "source_file" : "/system/core/libutils/include/utils/TypeHelpers.h",
   "underlying_type" : "_ZTIj"
  },
  {
   "alignment" : 4,
   "enum_fields" :
   [
    {
     "enum_field_value" : 1,
     "name" : "android::trait_trivial_copy<short>::value"
    }
   ],
   "linker_set_key" : "_ZTIN7android18trait_trivial_copyIsE6$valueE",
   "name" : "android::trait_trivial_copy<short>::(anonymous enum at system/core/libutils/include/utils/TypeHelpers.h:101:1)",
   "referenced_type" : "_ZTIN7android18trait_trivial_copyIsE6$valueE",
   "self_type" : "_ZTIN7android18trait_trivial_copyIsE6$valueE",
   "size" : 4,
   "source_file" : "/system/core/libutils/include/utils/TypeHelpers.h",
   "underlying_type" : "_ZTIj"
  },
  {
   "alignment" : 4,
   "enum_fields" :
   [
    {
     "enum_field_value" : 1,
     "name" : "android::trait_trivial_copy<unsigned short>::value"
    }
   ],
   "linker_set_key" : "_ZTIN7android18trait_trivial_copyItE6$valueE",
   "name" : "android::trait_trivial_copy<unsigned short>::(anonymous enum at system/core/libutils/include/utils/TypeHelpers.h:102:1)",
   "referenced_type" : "_ZTIN7android18trait_trivial_copyItE6$valueE",
   "self_type" : "_ZTIN7android18trait_trivial_copyItE6$valueE",
   "size" : 4,
   "source_file" : "/system/core/libutils/include/utils/TypeHelpers.h",
   "underlying_type" : "_ZTIj"
  },
  {
   "alignment" : 4,
   "enum_fields" :
   [
    {
     "enum_field_value" : 1,
     "name" : "android::trait_trivial_copy<void>::value"
    }
   ],
   "linker_set_key" : "_ZTIN7android18trait_trivial_copyIvE6$valueE",
   "name" : "android::trait_trivial_copy<void>::(anonymous enum at system/core/libutils/include/utils/TypeHelpers.h:97:1)",
   "referenced_type" : "_ZTIN7android18trait_trivial_copyIvE6$valueE",
   "self_type" : "_ZTIN7android18trait_trivial_copyIvE6$valueE",
   "size" : 4,
   "source_file" : "/system/core/libutils/include/utils/TypeHelpers.h",
   "underlying_type" : "_ZTIj"
  },
  {
   "alignment" : 4,
   "enum_fields" :
   [
    {
     "enum_field_value" : 1,
     "name" : "android::trait_trivial_copy<long long>::value"
    }
   ],
   "linker_set_key" : "_ZTIN7android18trait_trivial_copyIxE6$valueE",
   "name" : "android::trait_trivial_copy<long long>::(anonymous enum at system/core/libutils/include/utils/TypeHelpers.h:107:1)",
   "referenced_type" : "_ZTIN7android18trait_trivial_copyIxE6$valueE",
   "self_type" : "_ZTIN7android18trait_trivial_copyIxE6$valueE",
   "size" : 4,
   "source_file" : "/system/core/libutils/include/utils/TypeHelpers.h",
   "underlying_type" : "_ZTIj"
  },
  {
   "alignment" : 4,
   "enum_fields" :
   [
    {
     "enum_field_value" : 1,
     "name" : "android::trait_trivial_copy<unsigned long long>::value"
    }
   ],
   "linker_set_key" : "_ZTIN7android18trait_trivial_copyIyE6$valueE",
   "name" : "android::trait_trivial_copy<unsigned long long>::(anonymous enum at system/core/libutils/include/utils/TypeHelpers.h:108:1)",
   "referenced_type" : "_ZTIN7android18trait_trivial_copyIyE6$valueE",
   "self_type" : "_ZTIN7android18trait_trivial_copyIyE6$valueE",
   "size" : 4,
   "source_file" : "/system/core/libutils/include/utils/TypeHelpers.h",
   "underlying_type" : "_ZTIj"
  },
  {
   "alignment" : 4,
   "enum_fields" :
   [
    {
     "enum_field_value" : 1,
     "name" : "android::trait_trivial_ctor<bool>::value"
    }
   ],
   "linker_set_key" : "_ZTIN7android18trait_trivial_ctorIbE6$valueE",
   "name" : "android::trait_trivial_ctor<bool>::(anonymous enum at system/core/libutils/include/utils/TypeHelpers.h:98:1)",
   "referenced_type" : "_ZTIN7android18trait_trivial_ctorIbE6$valueE",
   "self_type" : "_ZTIN7android18trait_trivial_ctorIbE6$valueE",
   "size" : 4,
   "source_file" : "/system/core/libutils/include/utils/TypeHelpers.h",
   "underlying_type" : "_ZTIj"
  },
  {
   "alignment" : 4,
   "enum_fields" :
   [
    {
     "enum_field_value" : 1,
     "name" : "android::trait_trivial_ctor<char>::value"
    }
   ],
   "linker_set_key" : "_ZTIN7android18trait_trivial_ctorIcE6$valueE",
   "name" : "android::trait_trivial_ctor<char>::(anonymous enum at system/core/libutils/include/utils/TypeHelpers.h:99:1)",
   "referenced_type" : "_ZTIN7android18trait_trivial_ctorIcE6$valueE",
   "self_type" : "_ZTIN7android18trait_trivial_ctorIcE6$valueE",
   "size" : 4,
   "source_file" : "/system/core/libutils/include/utils/TypeHelpers.h",
   "underlying_type" : "_ZTIj"
  },
  {
   "alignment" : 4,
   "enum_fields" :
   [
    {
     "enum_field_value" : 1,
     "name" : "android::trait_trivial_ctor<double>::value"
    }
   ],
   "linker_set_key" : "_ZTIN7android18trait_trivial_ctorIdE6$valueE",
   "name" : "android::trait_trivial_ctor<double>::(anonymous enum at system/core/libutils/include/utils/TypeHelpers.h:110:1)",
   "referenced_type" : "_ZTIN7android18trait_trivial_ctorIdE6$valueE",
   "self_type" : "_ZTIN7android18trait_trivial_ctorIdE6$valueE",
   "size" : 4,
   "source_file" : "/system/core/libutils/include/utils/TypeHelpers.h",
   "underlying_type" : "_ZTIj"
  },
  {
   "alignment" : 4,
   "enum_fields" :
   [
    {
     "enum_field_value" : 1,
     "name" : "android::trait_trivial_ctor<float>::value"
    }
   ],
   "linker_set_key" : "_ZTIN7android18trait_trivial_ctorIfE6$valueE",
   "name" : "android::trait_trivial_ctor<float>::(anonymous enum at system/core/libutils/include/utils/TypeHelpers.h:109:1)",
   "referenced_type" : "_ZTIN7android18trait_trivial_ctorIfE6$valueE",
   "self_type" : "_ZTIN7android18trait_trivial_ctorIfE6$valueE",
   "size" : 4,
   "source_file" : "/system/core/libutils/include/utils/TypeHelpers.h",
   "underlying_type" : "_ZTIj"
  },
  {
   "alignment" : 4,
   "enum_fields" :
   [
    {
     "enum_field_value" : 1,
     "name" : "android::trait_trivial_ctor<unsigned char>::value"
    }
   ],
   "linker_set_key" : "_ZTIN7android18trait_trivial_ctorIhE6$valueE",
   "name" : "android::trait_trivial_ctor<unsigned char>::(anonymous enum at system/core/libutils/include/utils/TypeHelpers.h:100:1)",
   "referenced_type" : "_ZTIN7android18trait_trivial_ctorIhE6$valueE",
   "self_type" : "_ZTIN7android18trait_trivial_ctorIhE6$valueE",
   "size" : 4,
   "source_file" : "/system/core/libutils/include/utils/TypeHelpers.h",
   "underlying_type" : "_ZTIj"
  },
  {
   "alignment" : 4,
   "enum_fields" :
   [
    {
     "enum_field_value" : 1,
     "name" : "android::trait_trivial_ctor<int>::value"
    }
   ],
   "linker_set_key" : "_ZTIN7android18trait_trivial_ctorIiE6$valueE",
   "name" : "android::trait_trivial_ctor<int>::(anonymous enum at system/core/libutils/include/utils/TypeHelpers.h:103:1)",
   "referenced_type" : "_ZTIN7android18trait_trivial_ctorIiE6$valueE",
   "self_type" : "_ZTIN7android18trait_trivial_ctorIiE6$valueE",
   "size" : 4,
   "source_file" : "/system/core/libutils/include/utils/TypeHelpers.h",
   "underlying_type" : "_ZTIj"
  },
  {
   "alignment" : 4,
   "enum_fields" :
   [
    {
     "enum_field_value" : 1,
     "name" : "android::trait_trivial_ctor<unsigned int>::value"
    }
   ],
   "linker_set_key" : "_ZTIN7android18trait_trivial_ctorIjE6$valueE",
   "name" : "android::trait_trivial_ctor<unsigned int>::(anonymous enum at system/core/libutils/include/utils/TypeHelpers.h:104:1)",
   "referenced_type" : "_ZTIN7android18trait_trivial_ctorIjE6$valueE",
   "self_type" : "_ZTIN7android18trait_trivial_ctorIjE6$valueE",
   "size" : 4,
   "source_file" : "/system/core/libutils/include/utils/TypeHelpers.h",
   "underlying_type" : "_ZTIj"
  },
  {
   "alignment" : 4,
   "enum_fields" :
   [
    {
     "enum_field_value" : 1,
     "name" : "android::trait_trivial_ctor<long>::value"
    }
   ],
   "linker_set_key" : "_ZTIN7android18trait_trivial_ctorIlE6$valueE",
   "name" : "android::trait_trivial_ctor<long>::(anonymous enum at system/core/libutils/include/utils/TypeHelpers.h:105:1)",
   "referenced_type" : "_ZTIN7android18trait_trivial_ctorIlE6$valueE",
   "self_type" : "_ZTIN7android18trait_trivial_ctorIlE6$valueE",
   "size" : 4,
   "source_file" : "/system/core/libutils/include/utils/TypeHelpers.h",
   "underlying_type" : "_ZTIj"
  },
  {
   "alignment" : 4,
   "enum_fields" :
   [
    {
     "enum_field_value" : 1,
     "name" : "android::trait_trivial_ctor<unsigned long>::value"
    }
   ],
   "linker_set_key" : "_ZTIN7android18trait_trivial_ctorImE6$valueE",
   "name" : "android::trait_trivial_ctor<unsigned long>::(anonymous enum at system/core/libutils/include/utils/TypeHelpers.h:106:1)",
   "referenced_type" : "_ZTIN7android18trait_trivial_ctorImE6$valueE",
   "self_type" : "_ZTIN7android18trait_trivial_ctorImE6$valueE",
   "size" : 4,
   "source_file" : "/system/core/libutils/include/utils/TypeHelpers.h",
   "underlying_type" : "_ZTIj"
  },
  {
   "alignment" : 4,
   "enum_fields" :
   [
    {
     "enum_field_value" : 1,
     "name" : "android::trait_trivial_ctor<short>::value"
    }
   ],
   "linker_set_key" : "_ZTIN7android18trait_trivial_ctorIsE6$valueE",
   "name" : "android::trait_trivial_ctor<short>::(anonymous enum at system/core/libutils/include/utils/TypeHelpers.h:101:1)",
   "referenced_type" : "_ZTIN7android18trait_trivial_ctorIsE6$valueE",
   "self_type" : "_ZTIN7android18trait_trivial_ctorIsE6$valueE",
   "size" : 4,
   "source_file" : "/system/core/libutils/include/utils/TypeHelpers.h",
   "underlying_type" : "_ZTIj"
  },
  {
   "alignment" : 4,
   "enum_fields" :
   [
    {
     "enum_field_value" : 1,
     "name" : "android::trait_trivial_ctor<unsigned short>::value"
    }
   ],
   "linker_set_key" : "_ZTIN7android18trait_trivial_ctorItE6$valueE",
   "name" : "android::trait_trivial_ctor<unsigned short>::(anonymous enum at system/core/libutils/include/utils/TypeHelpers.h:102:1)",
   "referenced_type" : "_ZTIN7android18trait_trivial_ctorItE6$valueE",
   "self_type" : "_ZTIN7android18trait_trivial_ctorItE6$valueE",
   "size" : 4,
   "source_file" : "/system/core/libutils/include/utils/TypeHelpers.h",
   "underlying_type" : "_ZTIj"
  },
  {
   "alignment" : 4,
   "enum_fields" :
   [
    {
     "enum_field_value" : 1,
     "name" : "android::trait_trivial_ctor<void>::value"
    }
   ],
   "linker_set_key" : "_ZTIN7android18trait_trivial_ctorIvE6$valueE",
   "name" : "android::trait_trivial_ctor<void>::(anonymous enum at system/core/libutils/include/utils/TypeHelpers.h:97:1)",
   "referenced_type" : "_ZTIN7android18trait_trivial_ctorIvE6$valueE",
   "self_type" : "_ZTIN7android18trait_trivial_ctorIvE6$valueE",
   "size" : 4,
   "source_file" : "/system/core/libutils/include/utils/TypeHelpers.h",
   "underlying_type" : "_ZTIj"
  },
  {
   "alignment" : 4,
   "enum_fields" :
   [
    {
     "enum_field_value" : 1,
     "name" : "android::trait_trivial_ctor<long long>::value"
    }
   ],
   "linker_set_key" : "_ZTIN7android18trait_trivial_ctorIxE6$valueE",
   "name" : "android::trait_trivial_ctor<long long>::(anonymous enum at system/core/libutils/include/utils/TypeHelpers.h:107:1)",
   "referenced_type" : "_ZTIN7android18trait_trivial_ctorIxE6$valueE",
   "self_type" : "_ZTIN7android18trait_trivial_ctorIxE6$valueE",
   "size" : 4,
   "source_file" : "/system/core/libutils/include/utils/TypeHelpers.h",
   "underlying_type" : "_ZTIj"
  },
  {
   "alignment" : 4,
   "enum_fields" :
   [
    {
     "enum_field_value" : 1,
     "name" : "android::trait_trivial_ctor<unsigned long long>::value"
    }
   ],
   "linker_set_key" : "_ZTIN7android18trait_trivial_ctorIyE6$valueE",
   "name" : "android::trait_trivial_ctor<unsigned long long>::(anonymous enum at system/core/libutils/include/utils/TypeHelpers.h:108:1)",
   "referenced_type" : "_ZTIN7android18trait_trivial_ctorIyE6$valueE",
   "self_type" : "_ZTIN7android18trait_trivial_ctorIyE6$valueE",
   "size" : 4,
   "source_file" : "/system/core/libutils/include/utils/TypeHelpers.h",
   "underlying_type" : "_ZTIj"
  },
  {
   "alignment" : 4,
   "enum_fields" :
   [
    {
     "enum_field_value" : 1,
     "name" : "android::trait_trivial_dtor<bool>::value"
    }
   ],
   "linker_set_key" : "_ZTIN7android18trait_trivial_dtorIbE6$valueE",
   "name" : "android::trait_trivial_dtor<bool>::(anonymous enum at system/core/libutils/include/utils/TypeHelpers.h:98:1)",
   "referenced_type" : "_ZTIN7android18trait_trivial_dtorIbE6$valueE",
   "self_type" : "_ZTIN7android18trait_trivial_dtorIbE6$valueE",
   "size" : 4,
   "source_file" : "/system/core/libutils/include/utils/TypeHelpers.h",
   "underlying_type" : "_ZTIj"
  },
  {
   "alignment" : 4,
   "enum_fields" :
   [
    {
     "enum_field_value" : 1,
     "name" : "android::trait_trivial_dtor<char>::value"
    }
   ],
   "linker_set_key" : "_ZTIN7android18trait_trivial_dtorIcE6$valueE",
   "name" : "android::trait_trivial_dtor<char>::(anonymous enum at system/core/libutils/include/utils/TypeHelpers.h:99:1)",
   "referenced_type" : "_ZTIN7android18trait_trivial_dtorIcE6$valueE",
   "self_type" : "_ZTIN7android18trait_trivial_dtorIcE6$valueE",
   "size" : 4,
   "source_file" : "/system/core/libutils/include/utils/TypeHelpers.h",
   "underlying_type" : "_ZTIj"
  },
  {
   "alignment" : 4,
   "enum_fields" :
   [
    {
     "enum_field_value" : 1,
     "name" : "android::trait_trivial_dtor<double>::value"
    }
   ],
   "linker_set_key" : "_ZTIN7android18trait_trivial_dtorIdE6$valueE",
   "name" : "android::trait_trivial_dtor<double>::(anonymous enum at system/core/libutils/include/utils/TypeHelpers.h:110:1)",
   "referenced_type" : "_ZTIN7android18trait_trivial_dtorIdE6$valueE",
   "self_type" : "_ZTIN7android18trait_trivial_dtorIdE6$valueE",
   "size" : 4,
   "source_file" : "/system/core/libutils/include/utils/TypeHelpers.h",
   "underlying_type" : "_ZTIj"
  },
  {
   "alignment" : 4,
   "enum_fields" :
   [
    {
     "enum_field_value" : 1,
     "name" : "android::trait_trivial_dtor<float>::value"
    }
   ],
   "linker_set_key" : "_ZTIN7android18trait_trivial_dtorIfE6$valueE",
   "name" : "android::trait_trivial_dtor<float>::(anonymous enum at system/core/libutils/include/utils/TypeHelpers.h:109:1)",
   "referenced_type" : "_ZTIN7android18trait_trivial_dtorIfE6$valueE",
   "self_type" : "_ZTIN7android18trait_trivial_dtorIfE6$valueE",
   "size" : 4,
   "source_file" : "/system/core/libutils/include/utils/TypeHelpers.h",
   "underlying_type" : "_ZTIj"
  },
  {
   "alignment" : 4,
   "enum_fields" :
   [
    {
     "enum_field_value" : 1,
     "name" : "android::trait_trivial_dtor<unsigned char>::value"
    }
   ],
   "linker_set_key" : "_ZTIN7android18trait_trivial_dtorIhE6$valueE",
   "name" : "android::trait_trivial_dtor<unsigned char>::(anonymous enum at system/core/libutils/include/utils/TypeHelpers.h:100:1)",
   "referenced_type" : "_ZTIN7android18trait_trivial_dtorIhE6$valueE",
   "self_type" : "_ZTIN7android18trait_trivial_dtorIhE6$valueE",
   "size" : 4,
   "source_file" : "/system/core/libutils/include/utils/TypeHelpers.h",
   "underlying_type" : "_ZTIj"
  },
  {
   "alignment" : 4,
   "enum_fields" :
   [
    {
     "enum_field_value" : 1,
     "name" : "android::trait_trivial_dtor<int>::value"
    }
   ],
   "linker_set_key" : "_ZTIN7android18trait_trivial_dtorIiE6$valueE",
   "name" : "android::trait_trivial_dtor<int>::(anonymous enum at system/core/libutils/include/utils/TypeHelpers.h:103:1)",
   "referenced_type" : "_ZTIN7android18trait_trivial_dtorIiE6$valueE",
   "self_type" : "_ZTIN7android18trait_trivial_dtorIiE6$valueE",
   "size" : 4,
   "source_file" : "/system/core/libutils/include/utils/TypeHelpers.h",
   "underlying_type" : "_ZTIj"
  },
  {
   "alignment" : 4,
   "enum_fields" :
   [
    {
     "enum_field_value" : 1,
     "name" : "android::trait_trivial_dtor<unsigned int>::value"
    }
   ],
   "linker_set_key" : "_ZTIN7android18trait_trivial_dtorIjE6$valueE",
   "name" : "android::trait_trivial_dtor<unsigned int>::(anonymous enum at system/core/libutils/include/utils/TypeHelpers.h:104:1)",
   "referenced_type" : "_ZTIN7android18trait_trivial_dtorIjE6$valueE",
   "self_type" : "_ZTIN7android18trait_trivial_dtorIjE6$valueE",
   "size" : 4,
   "source_file" : "/system/core/libutils/include/utils/TypeHelpers.h",
   "underlying_type" : "_ZTIj"
  },
  {
   "alignment" : 4,
   "enum_fields" :
   [
    {
     "enum_field_value" : 1,
     "name" : "android::trait_trivial_dtor<long>::value"
    }
   ],
   "linker_set_key" : "_ZTIN7android18trait_trivial_dtorIlE6$valueE",
   "name" : "android::trait_trivial_dtor<long>::(anonymous enum at system/core/libutils/include/utils/TypeHelpers.h:105:1)",
   "referenced_type" : "_ZTIN7android18trait_trivial_dtorIlE6$valueE",
   "self_type" : "_ZTIN7android18trait_trivial_dtorIlE6$valueE",
   "size" : 4,
   "source_file" : "/system/core/libutils/include/utils/TypeHelpers.h",
   "underlying_type" : "_ZTIj"
  },
  {
   "alignment" : 4,
   "enum_fields" :
   [
    {
     "enum_field_value" : 1,
     "name" : "android::trait_trivial_dtor<unsigned long>::value"
    }
   ],
   "linker_set_key" : "_ZTIN7android18trait_trivial_dtorImE6$valueE",
   "name" : "android::trait_trivial_dtor<unsigned long>::(anonymous enum at system/core/libutils/include/utils/TypeHelpers.h:106:1)",
   "referenced_type" : "_ZTIN7android18trait_trivial_dtorImE6$valueE",
   "self_type" : "_ZTIN7android18trait_trivial_dtorImE6$valueE",
   "size" : 4,
   "source_file" : "/system/core/libutils/include/utils/TypeHelpers.h",
   "underlying_type" : "_ZTIj"
  },
  {
   "alignment" : 4,
   "enum_fields" :
   [
    {
     "enum_field_value" : 1,
     "name" : "android::trait_trivial_dtor<short>::value"
    }
   ],
   "linker_set_key" : "_ZTIN7android18trait_trivial_dtorIsE6$valueE",
   "name" : "android::trait_trivial_dtor<short>::(anonymous enum at system/core/libutils/include/utils/TypeHelpers.h:101:1)",
   "referenced_type" : "_ZTIN7android18trait_trivial_dtorIsE6$valueE",
   "self_type" : "_ZTIN7android18trait_trivial_dtorIsE6$valueE",
   "size" : 4,
   "source_file" : "/system/core/libutils/include/utils/TypeHelpers.h",
   "underlying_type" : "_ZTIj"
  },
  {
   "alignment" : 4,
   "enum_fields" :
   [
    {
     "enum_field_value" : 1,
     "name" : "android::trait_trivial_dtor<unsigned short>::value"
    }
   ],
   "linker_set_key" : "_ZTIN7android18trait_trivial_dtorItE6$valueE",
   "name" : "android::trait_trivial_dtor<unsigned short>::(anonymous enum at system/core/libutils/include/utils/TypeHelpers.h:102:1)",
   "referenced_type" : "_ZTIN7android18trait_trivial_dtorItE6$valueE",
   "self_type" : "_ZTIN7android18trait_trivial_dtorItE6$valueE",
   "size" : 4,
   "source_file" : "/system/core/libutils/include/utils/TypeHelpers.h",
   "underlying_type" : "_ZTIj"
  },
  {
   "alignment" : 4,
   "enum_fields" :
   [
    {
     "enum_field_value" : 1,
     "name" : "android::trait_trivial_dtor<void>::value"
    }
   ],
   "linker_set_key" : "_ZTIN7android18trait_trivial_dtorIvE6$valueE",
   "name" : "android::trait_trivial_dtor<void>::(anonymous enum at system/core/libutils/include/utils/TypeHelpers.h:97:1)",
   "referenced_type" : "_ZTIN7android18trait_trivial_dtorIvE6$valueE",
   "self_type" : "_ZTIN7android18trait_trivial_dtorIvE6$valueE",
   "size" : 4,
   "source_file" : "/system/core/libutils/include/utils/TypeHelpers.h",
   "underlying_type" : "_ZTIj"
  },
  {
   "alignment" : 4,
   "enum_fields" :
   [
    {
     "enum_field_value" : 1,
     "name" : "android::trait_trivial_dtor<long long>::value"
    }
   ],
   "linker_set_key" : "_ZTIN7android18trait_trivial_dtorIxE6$valueE",
   "name" : "android::trait_trivial_dtor<long long>::(anonymous enum at system/core/libutils/include/utils/TypeHelpers.h:107:1)",
   "referenced_type" : "_ZTIN7android18trait_trivial_dtorIxE6$valueE",
   "self_type" : "_ZTIN7android18trait_trivial_dtorIxE6$valueE",
   "size" : 4,
   "source_file" : "/system/core/libutils/include/utils/TypeHelpers.h",
   "underlying_type" : "_ZTIj"
  },
  {
   "alignment" : 4,
   "enum_fields" :
   [
    {
     "enum_field_value" : 1,
     "name" : "android::trait_trivial_dtor<unsigned long long>::value"
    }
   ],
   "linker_set_key" : "_ZTIN7android18trait_trivial_dtorIyE6$valueE",
   "name" : "android::trait_trivial_dtor<unsigned long long>::(anonymous enum at system/core/libutils/include/utils/TypeHelpers.h:108:1)",
   "referenced_type" : "_ZTIN7android18trait_trivial_dtorIyE6$valueE",
   "self_type" : "_ZTIN7android18trait_trivial_dtorIyE6$valueE",
   "size" : 4,
   "source_file" : "/system/core/libutils/include/utils/TypeHelpers.h",
   "underlying_type" : "_ZTIj"
  },
  {
   "alignment" : 4,
   "enum_fields" :
   [
    {
     "enum_field_value" : 1,
     "name" : "android::trait_trivial_move<android::String8>::value"
    }
   ],
   "linker_set_key" : "_ZTIN7android18trait_trivial_moveINS_7String8EE6$valueE",
   "name" : "android::trait_trivial_move<String8>::(anonymous enum at system/core/libutils/include/utils/String8.h:242:1)",
   "referenced_type" : "_ZTIN7android18trait_trivial_moveINS_7String8EE6$valueE",
   "self_type" : "_ZTIN7android18trait_trivial_moveINS_7String8EE6$valueE",
   "size" : 4,
   "source_file" : "/system/core/libutils/include/utils/String8.h",
   "underlying_type" : "_ZTIj"
  },
  {
   "alignment" : 4,
   "enum_fields" :
   [
    {
     "enum_field_value" : 1,
     "name" : "android::trait_trivial_move<android::String16>::value"
    }
   ],
   "linker_set_key" : "_ZTIN7android18trait_trivial_moveINS_8String16EE6$valueE",
   "name" : "android::trait_trivial_move<String16>::(anonymous enum at system/core/libutils/include/utils/String16.h:197:1)",
   "referenced_type" : "_ZTIN7android18trait_trivial_moveINS_8String16EE6$valueE",
   "self_type" : "_ZTIN7android18trait_trivial_moveINS_8String16EE6$valueE",
   "size" : 4,
   "source_file" : "/system/core/libutils/include/utils/String16.h",
   "underlying_type" : "_ZTIj"
  },
  {
   "alignment" : 4,
   "enum_fields" :
   [
    {
     "enum_field_value" : 1,
     "name" : "android::trait_trivial_move<bool>::value"
    }
   ],
   "linker_set_key" : "_ZTIN7android18trait_trivial_moveIbE6$valueE",
   "name" : "android::trait_trivial_move<bool>::(anonymous enum at system/core/libutils/include/utils/TypeHelpers.h:98:1)",
   "referenced_type" : "_ZTIN7android18trait_trivial_moveIbE6$valueE",
   "self_type" : "_ZTIN7android18trait_trivial_moveIbE6$valueE",
   "size" : 4,
   "source_file" : "/system/core/libutils/include/utils/TypeHelpers.h",
   "underlying_type" : "_ZTIj"
  },
  {
   "alignment" : 4,
   "enum_fields" :
   [
    {
     "enum_field_value" : 1,
     "name" : "android::trait_trivial_move<char>::value"
    }
   ],
   "linker_set_key" : "_ZTIN7android18trait_trivial_moveIcE6$valueE",
   "name" : "android::trait_trivial_move<char>::(anonymous enum at system/core/libutils/include/utils/TypeHelpers.h:99:1)",
   "referenced_type" : "_ZTIN7android18trait_trivial_moveIcE6$valueE",
   "self_type" : "_ZTIN7android18trait_trivial_moveIcE6$valueE",
   "size" : 4,
   "source_file" : "/system/core/libutils/include/utils/TypeHelpers.h",
   "underlying_type" : "_ZTIj"
  },
  {
   "alignment" : 4,
   "enum_fields" :
   [
    {
     "enum_field_value" : 1,
     "name" : "android::trait_trivial_move<double>::value"
    }
   ],
   "linker_set_key" : "_ZTIN7android18trait_trivial_moveIdE6$valueE",
   "name" : "android::trait_trivial_move<double>::(anonymous enum at system/core/libutils/include/utils/TypeHelpers.h:110:1)",
   "referenced_type" : "_ZTIN7android18trait_trivial_moveIdE6$valueE",
   "self_type" : "_ZTIN7android18trait_trivial_moveIdE6$valueE",
   "size" : 4,
   "source_file" : "/system/core/libutils/include/utils/TypeHelpers.h",
   "underlying_type" : "_ZTIj"
  },
  {
   "alignment" : 4,
   "enum_fields" :
   [
    {
     "enum_field_value" : 1,
     "name" : "android::trait_trivial_move<float>::value"
    }
   ],
   "linker_set_key" : "_ZTIN7android18trait_trivial_moveIfE6$valueE",
   "name" : "android::trait_trivial_move<float>::(anonymous enum at system/core/libutils/include/utils/TypeHelpers.h:109:1)",
   "referenced_type" : "_ZTIN7android18trait_trivial_moveIfE6$valueE",
   "self_type" : "_ZTIN7android18trait_trivial_moveIfE6$valueE",
   "size" : 4,
   "source_file" : "/system/core/libutils/include/utils/TypeHelpers.h",
   "underlying_type" : "_ZTIj"
  },
  {
   "alignment" : 4,
   "enum_fields" :
   [
    {
     "enum_field_value" : 1,
     "name" : "android::trait_trivial_move<unsigned char>::value"
    }
   ],
   "linker_set_key" : "_ZTIN7android18trait_trivial_moveIhE6$valueE",
   "name" : "android::trait_trivial_move<unsigned char>::(anonymous enum at system/core/libutils/include/utils/TypeHelpers.h:100:1)",
   "referenced_type" : "_ZTIN7android18trait_trivial_moveIhE6$valueE",
   "self_type" : "_ZTIN7android18trait_trivial_moveIhE6$valueE",
   "size" : 4,
   "source_file" : "/system/core/libutils/include/utils/TypeHelpers.h",
   "underlying_type" : "_ZTIj"
  },
  {
   "alignment" : 4,
   "enum_fields" :
   [
    {
     "enum_field_value" : 1,
     "name" : "android::trait_trivial_move<int>::value"
    }
   ],
   "linker_set_key" : "_ZTIN7android18trait_trivial_moveIiE6$valueE",
   "name" : "android::trait_trivial_move<int>::(anonymous enum at system/core/libutils/include/utils/TypeHelpers.h:103:1)",
   "referenced_type" : "_ZTIN7android18trait_trivial_moveIiE6$valueE",
   "self_type" : "_ZTIN7android18trait_trivial_moveIiE6$valueE",
   "size" : 4,
   "source_file" : "/system/core/libutils/include/utils/TypeHelpers.h",
   "underlying_type" : "_ZTIj"
  },
  {
   "alignment" : 4,
   "enum_fields" :
   [
    {
     "enum_field_value" : 1,
     "name" : "android::trait_trivial_move<unsigned int>::value"
    }
   ],
   "linker_set_key" : "_ZTIN7android18trait_trivial_moveIjE6$valueE",
   "name" : "android::trait_trivial_move<unsigned int>::(anonymous enum at system/core/libutils/include/utils/TypeHelpers.h:104:1)",
   "referenced_type" : "_ZTIN7android18trait_trivial_moveIjE6$valueE",
   "self_type" : "_ZTIN7android18trait_trivial_moveIjE6$valueE",
   "size" : 4,
   "source_file" : "/system/core/libutils/include/utils/TypeHelpers.h",
   "underlying_type" : "_ZTIj"
  },
  {
   "alignment" : 4,
   "enum_fields" :
   [
    {
     "enum_field_value" : 1,
     "name" : "android::trait_trivial_move<long>::value"
    }
   ],
   "linker_set_key" : "_ZTIN7android18trait_trivial_moveIlE6$valueE",
   "name" : "android::trait_trivial_move<long>::(anonymous enum at system/core/libutils/include/utils/TypeHelpers.h:105:1)",
   "referenced_type" : "_ZTIN7android18trait_trivial_moveIlE6$valueE",
   "self_type" : "_ZTIN7android18trait_trivial_moveIlE6$valueE",
   "size" : 4,
   "source_file" : "/system/core/libutils/include/utils/TypeHelpers.h",
   "underlying_type" : "_ZTIj"
  },
  {
   "alignment" : 4,
   "enum_fields" :
   [
    {
     "enum_field_value" : 1,
     "name" : "android::trait_trivial_move<unsigned long>::value"
    }
   ],
   "linker_set_key" : "_ZTIN7android18trait_trivial_moveImE6$valueE",
   "name" : "android::trait_trivial_move<unsigned long>::(anonymous enum at system/core/libutils/include/utils/TypeHelpers.h:106:1)",
   "referenced_type" : "_ZTIN7android18trait_trivial_moveImE6$valueE",
   "self_type" : "_ZTIN7android18trait_trivial_moveImE6$valueE",
   "size" : 4,
   "source_file" : "/system/core/libutils/include/utils/TypeHelpers.h",
   "underlying_type" : "_ZTIj"
  },
  {
   "alignment" : 4,
   "enum_fields" :
   [
    {
     "enum_field_value" : 1,
     "name" : "android::trait_trivial_move<short>::value"
    }
   ],
   "linker_set_key" : "_ZTIN7android18trait_trivial_moveIsE6$valueE",
   "name" : "android::trait_trivial_move<short>::(anonymous enum at system/core/libutils/include/utils/TypeHelpers.h:101:1)",
   "referenced_type" : "_ZTIN7android18trait_trivial_moveIsE6$valueE",
   "self_type" : "_ZTIN7android18trait_trivial_moveIsE6$valueE",
   "size" : 4,
   "source_file" : "/system/core/libutils/include/utils/TypeHelpers.h",
   "underlying_type" : "_ZTIj"
  },
  {
   "alignment" : 4,
   "enum_fields" :
   [
    {
     "enum_field_value" : 1,
     "name" : "android::trait_trivial_move<unsigned short>::value"
    }
   ],
   "linker_set_key" : "_ZTIN7android18trait_trivial_moveItE6$valueE",
   "name" : "android::trait_trivial_move<unsigned short>::(anonymous enum at system/core/libutils/include/utils/TypeHelpers.h:102:1)",
   "referenced_type" : "_ZTIN7android18trait_trivial_moveItE6$valueE",
   "self_type" : "_ZTIN7android18trait_trivial_moveItE6$valueE",
   "size" : 4,
   "source_file" : "/system/core/libutils/include/utils/TypeHelpers.h",
   "underlying_type" : "_ZTIj"
  },
  {
   "alignment" : 4,
   "enum_fields" :
   [
    {
     "enum_field_value" : 1,
     "name" : "android::trait_trivial_move<void>::value"
    }
   ],
   "linker_set_key" : "_ZTIN7android18trait_trivial_moveIvE6$valueE",
   "name" : "android::trait_trivial_move<void>::(anonymous enum at system/core/libutils/include/utils/TypeHelpers.h:97:1)",
   "referenced_type" : "_ZTIN7android18trait_trivial_moveIvE6$valueE",
   "self_type" : "_ZTIN7android18trait_trivial_moveIvE6$valueE",
   "size" : 4,
   "source_file" : "/system/core/libutils/include/utils/TypeHelpers.h",
   "underlying_type" : "_ZTIj"
  },
  {
   "alignment" : 4,
   "enum_fields" :
   [
    {
     "enum_field_value" : 1,
     "name" : "android::trait_trivial_move<long long>::value"
    }
   ],
   "linker_set_key" : "_ZTIN7android18trait_trivial_moveIxE6$valueE",
   "name" : "android::trait_trivial_move<long long>::(anonymous enum at system/core/libutils/include/utils/TypeHelpers.h:107:1)",
   "referenced_type" : "_ZTIN7android18trait_trivial_moveIxE6$valueE",
   "self_type" : "_ZTIN7android18trait_trivial_moveIxE6$valueE",
   "size" : 4,
   "source_file" : "/system/core/libutils/include/utils/TypeHelpers.h",
   "underlying_type" : "_ZTIj"
  },
  {
   "alignment" : 4,
   "enum_fields" :
   [
    {
     "enum_field_value" : 1,
     "name" : "android::trait_trivial_move<unsigned long long>::value"
    }
   ],
   "linker_set_key" : "_ZTIN7android18trait_trivial_moveIyE6$valueE",
   "name" : "android::trait_trivial_move<unsigned long long>::(anonymous enum at system/core/libutils/include/utils/TypeHelpers.h:108:1)",
   "referenced_type" : "_ZTIN7android18trait_trivial_moveIyE6$valueE",
   "self_type" : "_ZTIN7android18trait_trivial_moveIyE6$valueE",
   "size" : 4,
   "source_file" : "/system/core/libutils/include/utils/TypeHelpers.h",
   "underlying_type" : "_ZTIj"
  },
  {
   "alignment" : 4,
   "enum_fields" :
   [
    {
     "enum_field_value" : 1,
     "name" : "android::IBinder::FIRST_CALL_TRANSACTION"
    },
    {
     "enum_field_value" : 16777215,
     "name" : "android::IBinder::LAST_CALL_TRANSACTION"
    },
    {
     "enum_field_value" : 1599098439,
     "name" : "android::IBinder::PING_TRANSACTION"
    },
    {
     "enum_field_value" : 1598311760,
     "name" : "android::IBinder::DUMP_TRANSACTION"
    },
    {
     "enum_field_value" : 1598246212,
     "name" : "android::IBinder::SHELL_COMMAND_TRANSACTION"
    },
    {
     "enum_field_value" : 1598968902,
     "name" : "android::IBinder::INTERFACE_TRANSACTION"
    },
    {
     "enum_field_value" : 1599295570,
     "name" : "android::IBinder::SYSPROPS_TRANSACTION"
    },
    {
     "enum_field_value" : 1598380116,
     "name" : "android::IBinder::EXTENSION_TRANSACTION"
    },
    {
     "enum_field_value" : 1599097156,
     "name" : "android::IBinder::DEBUG_PID_TRANSACTION"
    },
    {
     "enum_field_value" : 1,
     "name" : "android::IBinder::FLAG_ONEWAY"
    },
    {
     "enum_field_value" : 268435456,
     "name" : "android::IBinder::FLAG_PRIVATE_VENDOR"
    }
   ],
   "linker_set_key" : "_ZTIN7android7IBinder22$DEBUG_PID_TRANSACTIONE",
   "name" : "android::IBinder::(anonymous enum at frameworks/native/libs/binder/include/binder/IBinder.h:52:5)",
   "referenced_type" : "_ZTIN7android7IBinder22$DEBUG_PID_TRANSACTIONE",
   "self_type" : "_ZTIN7android7IBinder22$DEBUG_PID_TRANSACTIONE",
   "size" : 4,
   "source_file" : "/frameworks/native/libs/binder/include/binder/IBinder.h",
   "underlying_type" : "_ZTIj"
  },
  {
   "access" : "protected",
   "alignment" : 4,
   "enum_fields" :
   [
    {
     "enum_field_value" : 1,
     "name" : "android::RefBase::FIRST_INC_STRONG"
    }
   ],
   "linker_set_key" : "_ZTIN7android7RefBase17$FIRST_INC_STRONGE",
   "name" : "android::RefBase::(anonymous enum at system/core/libutils/include/utils/RefBase.h:313:5)",
   "referenced_type" : "_ZTIN7android7RefBase17$FIRST_INC_STRONGE",
   "self_type" : "_ZTIN7android7RefBase17$FIRST_INC_STRONGE",
   "size" : 4,
   "source_file" : "/system/core/libutils/include/utils/RefBase.h",
   "underlying_type" : "_ZTIj"
  },
  {
   "access" : "protected",
   "alignment" : 4,
   "enum_fields" :
   [
    {
     "enum_field_value" : 0,
     "name" : "android::RefBase::OBJECT_LIFETIME_STRONG"
    },
    {
     "enum_field_value" : 1,
     "name" : "android::RefBase::OBJECT_LIFETIME_WEAK"
    },
    {
     "enum_field_value" : 1,
     "name" : "android::RefBase::OBJECT_LIFETIME_MASK"
    }
   ],
   "linker_set_key" : "_ZTIN7android7RefBase21$OBJECT_LIFETIME_MASKE",
   "name" : "android::RefBase::(anonymous enum at system/core/libutils/include/utils/RefBase.h:304:5)",
   "referenced_type" : "_ZTIN7android7RefBase21$OBJECT_LIFETIME_MASKE",
   "self_type" : "_ZTIN7android7RefBase21$OBJECT_LIFETIME_MASKE",
   "size" : 4,
   "source_file" : "/system/core/libutils/include/utils/RefBase.h",
   "underlying_type" : "_ZTIj"
  },
  {
   "alignment" : 4,
   "enum_fields" :
   [
    {
     "enum_field_value" : 0,
     "name" : "android::String8::kEmptyString"
    }
   ],
   "linker_set_key" : "_ZTIN7android7String813StaticLinkageE",
   "name" : "android::String8::StaticLinkage",
   "referenced_type" : "_ZTIN7android7String813StaticLinkageE",
   "self_type" : "_ZTIN7android7String813StaticLinkageE",
   "size" : 4,
   "source_file" : "/system/core/libutils/include/utils/String8.h",
   "underlying_type" : "_ZTIj"
  },
  {
   "alignment" : 4,
   "enum_fields" :
   [
    {
     "enum_field_value" : 0,
     "name" : "android::String16::kEmptyString"
    }
   ],
   "linker_set_key" : "_ZTIN7android8String1613StaticLinkageE",
   "name" : "android::String16::StaticLinkage",
   "referenced_type" : "_ZTIN7android8String1613StaticLinkageE",
   "self_type" : "_ZTIN7android8String1613StaticLinkageE",
   "size" : 4,
   "source_file" : "/system/core/libutils/include/utils/String16.h",
   "underlying_type" : "_ZTIj"
  },
  {
   "alignment" : 4,
   "enum_fields" :
   [
    {
     "enum_field_value" : 0,
     "name" : "android::hardware::HidlReturnRestriction::NONE"
    },
    {
     "enum_field_value" : 1,
     "name" : "android::hardware::HidlReturnRestriction::ERROR_IF_UNCHECKED"
    },
    {
     "enum_field_value" : 2,
     "name" : "android::hardware::HidlReturnRestriction::FATAL_IF_UNCHECKED"
    }
   ],
   "linker_set_key" : "_ZTIN7android8hardware21HidlReturnRestrictionE",
   "name" : "android::hardware::HidlReturnRestriction",
   "referenced_type" : "_ZTIN7android8hardware21HidlReturnRestrictionE",
   "self_type" : "_ZTIN7android8hardware21HidlReturnRestrictionE",
   "size" : 4,
   "source_file" : "/system/libhidl/base/include/hidl/Status.h",
   "underlying_type" : "_ZTIi"
  },
  {
   "alignment" : 4,
   "enum_fields" :
   [
    {
     "enum_field_value" : 0,
     "name" : "android::hardware::Status::EX_NONE"
    },
    {
     "enum_field_value" : -1,
     "name" : "android::hardware::Status::EX_SECURITY"
    },
    {
     "enum_field_value" : -2,
     "name" : "android::hardware::Status::EX_BAD_PARCELABLE"
    },
    {
     "enum_field_value" : -3,
     "name" : "android::hardware::Status::EX_ILLEGAL_ARGUMENT"
    },
    {
     "enum_field_value" : -4,
     "name" : "android::hardware::Status::EX_NULL_POINTER"
    },
    {
     "enum_field_value" : -5,
     "name" : "android::hardware::Status::EX_ILLEGAL_STATE"
    },
    {
     "enum_field_value" : -6,
     "name" : "android::hardware::Status::EX_NETWORK_MAIN_THREAD"
    },
    {
     "enum_field_value" : -7,
     "name" : "android::hardware::Status::EX_UNSUPPORTED_OPERATION"
    },
    {
     "enum_field_value" : -128,
     "name" : "android::hardware::Status::EX_HAS_REPLY_HEADER"
    },
    {
     "enum_field_value" : -129,
     "name" : "android::hardware::Status::EX_TRANSACTION_FAILED"
    }
   ],
   "linker_set_key" : "_ZTIN7android8hardware6Status9ExceptionE",
   "name" : "android::hardware::Status::Exception",
   "referenced_type" : "_ZTIN7android8hardware6Status9ExceptionE",
   "self_type" : "_ZTIN7android8hardware6Status9ExceptionE",
   "size" : 4,
   "source_file" : "/system/libhidl/base/include/hidl/Status.h",
   "underlying_type" : "_ZTIi"
  },
  {
   "alignment" : 4,
   "enum_fields" :
   [
    {
     "enum_field_value" : 0,
     "name" : "android::hardware::details::HidlInstrumentor::SERVER_API_ENTRY"
    },
    {
     "enum_field_value" : 1,
     "name" : "android::hardware::details::HidlInstrumentor::SERVER_API_EXIT"
    },
    {
     "enum_field_value" : 2,
     "name" : "android::hardware::details::HidlInstrumentor::CLIENT_API_ENTRY"
    },
    {
     "enum_field_value" : 3,
     "name" : "android::hardware::details::HidlInstrumentor::CLIENT_API_EXIT"
    },
    {
     "enum_field_value" : 4,
     "name" : "android::hardware::details::HidlInstrumentor::SYNC_CALLBACK_ENTRY"
    },
    {
     "enum_field_value" : 5,
     "name" : "android::hardware::details::HidlInstrumentor::SYNC_CALLBACK_EXIT"
    },
    {
     "enum_field_value" : 6,
     "name" : "android::hardware::details::HidlInstrumentor::ASYNC_CALLBACK_ENTRY"
    },
    {
     "enum_field_value" : 7,
     "name" : "android::hardware::details::HidlInstrumentor::ASYNC_CALLBACK_EXIT"
    },
    {
     "enum_field_value" : 8,
     "name" : "android::hardware::details::HidlInstrumentor::PASSTHROUGH_ENTRY"
    },
    {
     "enum_field_value" : 9,
     "name" : "android::hardware::details::HidlInstrumentor::PASSTHROUGH_EXIT"
    }
   ],
   "linker_set_key" : "_ZTIN7android8hardware7details16HidlInstrumentor20InstrumentationEventE",
   "name" : "android::hardware::details::HidlInstrumentor::InstrumentationEvent",
   "referenced_type" : "_ZTIN7android8hardware7details16HidlInstrumentor20InstrumentationEventE",
   "self_type" : "_ZTIN7android8hardware7details16HidlInstrumentor20InstrumentationEventE",
   "size" : 4,
   "source_file" : "/system/libhidl/base/include/hidl/HidlInternal.h",
   "underlying_type" : "_ZTIj"
  }
 ],
 "function_types" : [],
 "functions" :
 [
  {
   "function_name" : "android::hardware::fromHeap",
   "linker_set_key" : "_ZN7android8hardware8fromHeapERKNS_2spINS_11IMemoryHeapEEE",
   "parameters" :
   [
    {
     "referenced_type" : "_ZTIRKN7android2spINS_11IMemoryHeapEEE"
    }
   ],
   "return_type" : "_ZTIN7android2spINS_8hardware10HidlMemoryEEE",
   "source_file" : "/system/libhidl/transport/allocator/1.0/utils/include/hidlmemory/FrameworkUtils.h"
  }
 ],
 "global_vars" : [],
 "lvalue_reference_types" :
 [
  {
   "alignment" : 4,
   "linker_set_key" : "_ZTIRK7log_msg",
   "name" : "const log_msg &",
   "referenced_type" : "_ZTIK7log_msg",
   "self_type" : "_ZTIRK7log_msg",
   "size" : 4,
   "source_file" : "/system/core/liblog/include/log/log_read.h"
  },
  {
   "alignment" : 4,
   "linker_set_key" : "_ZTIRKN7android2spINS_11IMemoryHeapEEE",
   "name" : "const android::sp<android::IMemoryHeap> &",
   "referenced_type" : "_ZTIKN7android2spINS_11IMemoryHeapEEE",
   "self_type" : "_ZTIRKN7android2spINS_11IMemoryHeapEEE",
   "size" : 4,
   "source_file" : "/system/libhidl/transport/allocator/1.0/utils/include/hidlmemory/FrameworkUtils.h"
  },
  {
   "alignment" : 4,
   "linker_set_key" : "_ZTIRKN7android2spINS_8hardware20hidl_death_recipientEEE",
   "name" : "const android::sp<android::hardware::hidl_death_recipient> &",
   "referenced_type" : "_ZTIKN7android2spINS_8hardware20hidl_death_recipientEEE",
   "self_type" : "_ZTIRKN7android2spINS_8hardware20hidl_death_recipientEEE",
   "size" : 4,
   "source_file" : "/system/libhidl/base/include/hidl/HidlSupport.h"
  },
  {
   "alignment" : 4,
   "linker_set_key" : "_ZTIRKN7android7String8E",
   "name" : "const android::String8 &",
   "referenced_type" : "_ZTIKN7android7String8E",
   "self_type" : "_ZTIRKN7android7String8E",
   "size" : 4,
   "source_file" : "/system/core/libutils/include/utils/String8.h"
  },
  {
   "alignment" : 4,
   "linker_set_key" : "_ZTIRKN7android8String16E",
   "name" : "const android::String16 &",
   "referenced_type" : "_ZTIKN7android8String16E",
   "self_type" : "_ZTIRKN7android8String16E",
   "size" : 4,
   "source_file" : "/system/core/libutils/include/utils/String16.h"
  },
  {
   "alignment" : 4,
   "linker_set_key" : "_ZTIRKN7android8hardware11hidl_handleE",
   "name" : "const android::hardware::hidl_handle &",
   "referenced_type" : "_ZTIKN7android8hardware11hidl_handleE",
   "self_type" : "_ZTIRKN7android8hardware11hidl_handleE",
   "size" : 4,
   "source_file" : "/system/libhidl/base/include/hidl/HidlSupport.h"
  },
  {
   "alignment" : 4,
   "linker_set_key" : "_ZTIRKN7android8hardware11hidl_memoryE",
   "name" : "const android::hardware::hidl_memory &",
   "referenced_type" : "_ZTIKN7android8hardware11hidl_memoryE",
   "self_type" : "_ZTIRKN7android8hardware11hidl_memoryE",
   "size" : 4,
   "source_file" : "/system/libhidl/base/include/hidl/HidlSupport.h"
  },
  {
   "alignment" : 4,
   "linker_set_key" : "_ZTIRKN7android8hardware11hidl_stringE",
   "name" : "const android::hardware::hidl_string &",
   "referenced_type" : "_ZTIKN7android8hardware11hidl_stringE",
   "self_type" : "_ZTIRKN7android8hardware11hidl_stringE",
   "size" : 4,
   "source_file" : "/system/libhidl/base/include/hidl/HidlSupport.h"
  },
  {
   "alignment" : 4,
   "linker_set_key" : "_ZTIRKN7android8hardware12hidl_versionE",
   "name" : "const android::hardware::hidl_version &",
   "referenced_type" : "_ZTIKN7android8hardware12hidl_versionE",
   "self_type" : "_ZTIRKN7android8hardware12hidl_versionE",
   "size" : 4,
   "source_file" : "/system/libhidl/base/include/hidl/HidlSupport.h"
  },
  {
   "alignment" : 4,
   "linker_set_key" : "_ZTIRKN7android8hardware6StatusE",
   "name" : "const android::hardware::Status &",
   "referenced_type" : "_ZTIKN7android8hardware6StatusE",
   "self_type" : "_ZTIRKN7android8hardware6StatusE",
   "size" : 4,
   "source_file" : "/system/libhidl/base/include/hidl/Status.h"
  },
  {
   "linker_set_key" : "_ZTIRKN7android8hardware8hidl_vec4iterIXTL0__EEE",
   "name" : "const iter<is_const> &",
   "referenced_type" : "_ZTIKN7android8hardware8hidl_vec4iterIXTL0__EEE",
   "self_type" : "_ZTIRKN7android8hardware8hidl_vec4iterIXTL0__EEE",
   "source_file" : "/system/libhidl/base/include/hidl/HidlSupport.h"
  },
  {
   "alignment" : 4,
   "linker_set_key" : "_ZTIRKNSt3__16vectorINS_8functionIFvN7android8hardware7details16HidlInstrumentor20InstrumentationEventEPKcS8_S8_S8_PNS0_IPvNS_9allocatorIS9_EEEEEEENSA_ISF_EEEE",
   "name" : "const std::vector<std::function<void (InstrumentationEvent, const char *, const char *, const char *, const char *, vector<void *, allocator<void *> > *)>, std::allocator<std::function<void (InstrumentationEvent, const char *, const char *, const char *, const char *, vector<void *, allocator<void *> > *)> > > &",
   "referenced_type" : "_ZTIKNSt3__16vectorINS_8functionIFvN7android8hardware7details16HidlInstrumentor20InstrumentationEventEPKcS8_S8_S8_PNS0_IPvNS_9allocatorIS9_EEEEEEENSA_ISF_EEEE",
   "self_type" : "_ZTIRKNSt3__16vectorINS_8functionIFvN7android8hardware7details16HidlInstrumentor20InstrumentationEventEPKcS8_S8_S8_PNS0_IPvNS_9allocatorIS9_EEEEEEENSA_ISF_EEEE",
   "size" : 4,
   "source_file" : "/system/libhidl/base/include/hidl/HidlInternal.h"
  },
  {
   "alignment" : 4,
   "linker_set_key" : "_ZTIRKa",
   "name" : "const signed char &",
   "referenced_type" : "_ZTIKa",
   "self_type" : "_ZTIRKa",
   "size" : 4,
   "source_file" : "/system/core/libutils/include/utils/TypeHelpers.h"
  },
  {
   "alignment" : 4,
   "linker_set_key" : "_ZTIRKb",
   "name" : "const bool &",
   "referenced_type" : "_ZTIKb",
   "self_type" : "_ZTIRKb",
   "size" : 4,
   "source_file" : "/system/core/libutils/include/utils/TypeHelpers.h"
  },
  {
   "alignment" : 4,
   "linker_set_key" : "_ZTIRKd",
   "name" : "const double &",
   "referenced_type" : "_ZTIKd",
   "self_type" : "_ZTIRKd",
   "size" : 4,
   "source_file" : "/system/core/libutils/include/utils/TypeHelpers.h"
  },
  {
   "alignment" : 4,
   "linker_set_key" : "_ZTIRKf",
   "name" : "const float &",
   "referenced_type" : "_ZTIKf",
   "self_type" : "_ZTIRKf",
   "size" : 4,
   "source_file" : "/system/core/libutils/include/utils/TypeHelpers.h"
  },
  {
   "alignment" : 4,
   "linker_set_key" : "_ZTIRKh",
   "name" : "const unsigned char &",
   "referenced_type" : "_ZTIKh",
   "self_type" : "_ZTIRKh",
   "size" : 4,
   "source_file" : "/system/core/libutils/include/utils/TypeHelpers.h"
  },
  {
   "alignment" : 4,
   "linker_set_key" : "_ZTIRKi",
   "name" : "const int &",
   "referenced_type" : "_ZTIKi",
   "self_type" : "_ZTIRKi",
   "size" : 4,
   "source_file" : "/system/core/libutils/include/utils/TypeHelpers.h"
  },
  {
   "alignment" : 4,
   "linker_set_key" : "_ZTIRKj",
   "name" : "const unsigned int &",
   "referenced_type" : "_ZTIKj",
   "self_type" : "_ZTIRKj",
   "size" : 4,
   "source_file" : "/system/core/libutils/include/utils/TypeHelpers.h"
  },
  {
   "alignment" : 4,
   "linker_set_key" : "_ZTIRKs",
   "name" : "const short &",
   "referenced_type" : "_ZTIKs",
   "self_type" : "_ZTIRKs",
   "size" : 4,
   "source_file" : "/system/core/libutils/include/utils/TypeHelpers.h"
  },
  {
   "alignment" : 4,
   "linker_set_key" : "_ZTIRKt",
   "name" : "const unsigned short &",
   "referenced_type" : "_ZTIKt",
   "self_type" : "_ZTIRKt",
   "size" : 4,
   "source_file" : "/system/core/libutils/include/utils/TypeHelpers.h"
  },
  {
   "alignment" : 4,
   "linker_set_key" : "_ZTIRKx",
   "name" : "const long long &",
   "referenced_type" : "_ZTIKx",
   "self_type" : "_ZTIRKx",
   "size" : 4,
   "source_file" : "/system/core/libutils/include/utils/TypeHelpers.h"
  },
  {
   "alignment" : 4,
   "linker_set_key" : "_ZTIRKy",
   "name" : "const unsigned long long &",
   "referenced_type" : "_ZTIKy",
   "self_type" : "_ZTIRKy",
   "size" : 4,
   "source_file" : "/system/core/libutils/include/utils/TypeHelpers.h"
  },
  {
   "alignment" : 4,
   "linker_set_key" : "_ZTIRN7android7String8E",
   "name" : "android::String8 &",
   "referenced_type" : "_ZTIN7android7String8E",
   "self_type" : "_ZTIRN7android7String8E",
   "size" : 4,
   "source_file" : "/system/core/libutils/include/utils/String8.h"
  },
  {
   "alignment" : 4,
   "linker_set_key" : "_ZTIRN7android8String16E",
   "name" : "android::String16 &",
   "referenced_type" : "_ZTIN7android8String16E",
   "self_type" : "_ZTIRN7android8String16E",
   "size" : 4,
   "source_file" : "/system/core/libutils/include/utils/String16.h"
  },
  {
   "alignment" : 4,
   "linker_set_key" : "_ZTIRN7android8hardware11hidl_memoryE",
   "name" : "android::hardware::hidl_memory &",
   "referenced_type" : "_ZTIN7android8hardware11hidl_memoryE",
   "self_type" : "_ZTIRN7android8hardware11hidl_memoryE",
   "size" : 4,
   "source_file" : "/system/libhidl/base/include/hidl/HidlSupport.h"
  },
  {
   "alignment" : 4,
   "linker_set_key" : "_ZTIRN7android8hardware6ReturnIvEE",
   "name" : "android::hardware::Return<void> &",
   "referenced_type" : "_ZTIN7android8hardware6ReturnIvEE",
   "self_type" : "_ZTIRN7android8hardware6ReturnIvEE",
   "size" : 4,
   "source_file" : "/system/libhidl/base/include/hidl/Status.h"
  },
  {
   "alignment" : 4,
   "linker_set_key" : "_ZTIRN7android8hardware6StatusE",
   "name" : "android::hardware::Status &",
   "referenced_type" : "_ZTIN7android8hardware6StatusE",
   "self_type" : "_ZTIRN7android8hardware6StatusE",
   "size" : 4,
   "source_file" : "/system/libhidl/base/include/hidl/Status.h"
  }
 ],
 "pointer_types" :
 [
  {
   "alignment" : 4,
   "linker_set_key" : "_ZTIP7log_msg",
   "name" : "log_msg *",
   "referenced_type" : "_ZTI7log_msg",
   "self_type" : "_ZTIP7log_msg",
   "size" : 4,
   "source_file" : "/system/core/liblog/include/log/log_read.h"
  },
  {
   "alignment" : 4,
   "linker_set_key" : "_ZTIPK13native_handle",
   "name" : "const native_handle *",
   "referenced_type" : "_ZTIK13native_handle",
   "self_type" : "_ZTIPK13native_handle",
   "size" : 4,
   "source_file" : "/system/libhidl/base/include/hidl/HidlInternal.h"
  },
  {
   "alignment" : 4,
   "linker_set_key" : "_ZTIPK7log_msg",
   "name" : "const log_msg *",
   "referenced_type" : "_ZTIK7log_msg",
   "self_type" : "_ZTIPK7log_msg",
   "size" : 4,
   "source_file" : "/system/core/liblog/include/log/log_read.h"
  },
  {
   "alignment" : 4,
   "linker_set_key" : "_ZTIPKDs",
   "name" : "const char16_t *",
   "referenced_type" : "_ZTIKDs",
   "self_type" : "_ZTIPKDs",
   "size" : 4,
   "source_file" : "/system/core/libutils/include/utils/String16.h"
  },
  {
   "alignment" : 4,
   "linker_set_key" : "_ZTIPKN7android10VectorImplE",
   "name" : "const android::VectorImpl *",
   "referenced_type" : "_ZTIKN7android10VectorImplE",
   "self_type" : "_ZTIPKN7android10VectorImplE",
   "size" : 4,
   "source_file" : "/system/core/libutils/include/utils/VectorImpl.h"
  },
  {
   "alignment" : 4,
   "linker_set_key" : "_ZTIPKN7android11IMemoryHeapE",
   "name" : "const android::IMemoryHeap *",
   "referenced_type" : "_ZTIKN7android11IMemoryHeapE",
   "self_type" : "_ZTIPKN7android11IMemoryHeapE",
   "size" : 4,
   "source_file" : "/frameworks/native/libs/binder/include/binder/IMemory.h"
  },
  {
   "alignment" : 4,
   "linker_set_key" : "_ZTIPKN7android2spINS_11IMemoryHeapEEE",
   "name" : "const android::sp<android::IMemoryHeap> *",
   "referenced_type" : "_ZTIKN7android2spINS_11IMemoryHeapEEE",
   "self_type" : "_ZTIPKN7android2spINS_11IMemoryHeapEEE",
   "size" : 4,
   "source_file" : "/system/core/libutils/include/utils/StrongPointer.h"
  },
  {
   "alignment" : 4,
   "linker_set_key" : "_ZTIPKN7android2spINS_8hardware20hidl_death_recipientEEE",
   "name" : "const android::sp<android::hardware::hidl_death_recipient> *",
   "referenced_type" : "_ZTIKN7android2spINS_8hardware20hidl_death_recipientEEE",
   "self_type" : "_ZTIPKN7android2spINS_8hardware20hidl_death_recipientEEE",
   "size" : 4,
   "source_file" : "/system/core/libutils/include/utils/StrongPointer.h"
  },
  {
   "alignment" : 4,
   "linker_set_key" : "_ZTIPKN7android7RefBaseE",
   "name" : "const android::RefBase *",
   "referenced_type" : "_ZTIKN7android7RefBaseE",
   "self_type" : "_ZTIPKN7android7RefBaseE",
   "size" : 4,
   "source_file" : "/system/core/libutils/include/utils/RefBase.h"
  },
  {
   "alignment" : 4,
   "linker_set_key" : "_ZTIPKN7android7String8E",
   "name" : "const android::String8 *",
   "referenced_type" : "_ZTIKN7android7String8E",
   "self_type" : "_ZTIPKN7android7String8E",
   "size" : 4,
   "source_file" : "/system/core/libutils/include/utils/String8.h"
  },
  {
   "alignment" : 4,
   "linker_set_key" : "_ZTIPKN7android8String16E",
   "name" : "const android::String16 *",
   "referenced_type" : "_ZTIKN7android8String16E",
   "self_type" : "_ZTIPKN7android8String16E",
   "size" : 4,
   "source_file" : "/system/core/libutils/include/utils/String16.h"
  },
  {
   "alignment" : 4,
   "linker_set_key" : "_ZTIPKN7android8hardware11hidl_memoryE",
   "name" : "const android::hardware::hidl_memory *",
   "referenced_type" : "_ZTIKN7android8hardware11hidl_memoryE",
   "self_type" : "_ZTIPKN7android8hardware11hidl_memoryE",
   "size" : 4,
   "source_file" : "/system/libhidl/base/include/hidl/HidlSupport.h"
  },
  {
   "alignment" : 4,
   "linker_set_key" : "_ZTIPKN7android8hardware12hidl_versionE",
   "name" : "const android::hardware::hidl_version *",
   "referenced_type" : "_ZTIKN7android8hardware12hidl_versionE",
   "self_type" : "_ZTIPKN7android8hardware12hidl_versionE",
   "size" : 4,
   "source_file" : "/system/libhidl/base/include/hidl/HidlSupport.h"
  },
  {
   "alignment" : 4,
   "linker_set_key" : "_ZTIPKN7android8hardware6StatusE",
   "name" : "const android::hardware::Status *",
   "referenced_type" : "_ZTIKN7android8hardware6StatusE",
   "self_type" : "_ZTIPKN7android8hardware6StatusE",
   "size" : 4,
   "source_file" : "/system/libhidl/base/include/hidl/Status.h"
  },
  {
   "alignment" : 4,
   "linker_set_key" : "_ZTIPKN7android8hardware7details13return_statusE",
   "name" : "const android::hardware::details::return_status *",
   "referenced_type" : "_ZTIKN7android8hardware7details13return_statusE",
   "self_type" : "_ZTIPKN7android8hardware7details13return_statusE",
   "size" : 4,
   "source_file" : "/system/libhidl/base/include/hidl/Status.h"
  },
  {
   "alignment" : 4,
   "linker_set_key" : "_ZTIPKN7android9BpRefBaseE",
   "name" : "const android::BpRefBase *",
   "referenced_type" : "_ZTIKN7android9BpRefBaseE",
   "self_type" : "_ZTIPKN7android9BpRefBaseE",
   "size" : 4,
   "source_file" : "/frameworks/native/libs/binder/include/binder/Binder.h"
  },
  {
   "alignment" : 4,
   "linker_set_key" : "_ZTIPKPKc",
   "name" : "const char *const *",
   "referenced_type" : "_ZTIKPKc",
   "self_type" : "_ZTIPKPKc",
   "size" : 4,
   "source_file" : "/frameworks/native/libs/binder/include/binder/IInterface.h"
  },
  {
   "alignment" : 4,
   "linker_set_key" : "_ZTIPKc",
   "name" : "const char *",
   "referenced_type" : "_ZTIKc",
   "self_type" : "_ZTIPKc",
   "size" : 4,
   "source_file" : "/system/core/libutils/include/utils/String8.h"
  },
  {
   "alignment" : 4,
   "linker_set_key" : "_ZTIPKv",
   "name" : "const void *",
   "referenced_type" : "_ZTIKv",
   "self_type" : "_ZTIPKv",
   "size" : 4,
   "source_file" : "/system/core/libutils/include/utils/VectorImpl.h"
  },
  {
   "alignment" : 4,
   "linker_set_key" : "_ZTIPN7android10IInterfaceE",
   "name" : "android::IInterface *",
   "referenced_type" : "_ZTIN7android10IInterfaceE",
   "self_type" : "_ZTIPN7android10IInterfaceE",
   "size" : 4,
   "source_file" : "/system/core/libutils/include/utils/StrongPointer.h"
  },
  {
   "alignment" : 4,
   "linker_set_key" : "_ZTIPN7android11IMemoryHeapE",
   "name" : "android::IMemoryHeap *",
   "referenced_type" : "_ZTIN7android11IMemoryHeapE",
   "self_type" : "_ZTIPN7android11IMemoryHeapE",
   "size" : 4,
   "source_file" : "/system/core/libutils/include/utils/StrongPointer.h"
  },
  {
   "alignment" : 4,
   "linker_set_key" : "_ZTIPN7android16ReferenceRenamerE",
   "name" : "android::ReferenceRenamer *",
   "referenced_type" : "_ZTIN7android16ReferenceRenamerE",
   "self_type" : "_ZTIPN7android16ReferenceRenamerE",
   "size" : 4,
   "source_file" : "/system/core/libutils/include/utils/RefBase.h"
  },
  {
   "alignment" : 4,
   "linker_set_key" : "_ZTIPN7android19VirtualLightRefBaseE",
   "name" : "android::VirtualLightRefBase *",
   "referenced_type" : "_ZTIN7android19VirtualLightRefBaseE",
   "self_type" : "_ZTIPN7android19VirtualLightRefBaseE",
   "size" : 4,
   "source_file" : "/system/core/libutils/include/utils/LightRefBase.h"
  },
  {
   "alignment" : 4,
   "linker_set_key" : "_ZTIPN7android2spINS_8hardware10HidlMemoryEEE",
   "name" : "android::sp<android::hardware::HidlMemory> *",
   "referenced_type" : "_ZTIN7android2spINS_8hardware10HidlMemoryEEE",
   "self_type" : "_ZTIPN7android2spINS_8hardware10HidlMemoryEEE",
   "size" : 4,
   "source_file" : "/system/core/libutils/include/utils/StrongPointer.h"
  },
  {
   "alignment" : 4,
   "linker_set_key" : "_ZTIPN7android7IBinderE",
   "name" : "android::IBinder *",
   "referenced_type" : "_ZTIN7android7IBinderE",
   "self_type" : "_ZTIPN7android7IBinderE",
   "size" : 4,
   "source_file" : "/system/core/libutils/include/utils/StrongPointer.h"
  },
  {
   "alignment" : 4,
   "linker_set_key" : "_ZTIPN7android7RefBase12weakref_implE",
   "name" : "android::RefBase::weakref_impl *",
   "referenced_type" : "_ZTIN7android7RefBase12weakref_implE",
   "self_type" : "_ZTIPN7android7RefBase12weakref_implE",
   "size" : 4,
   "source_file" : "/system/core/libutils/include/utils/RefBase.h"
  },
  {
   "alignment" : 4,
   "linker_set_key" : "_ZTIPN7android7RefBase12weakref_typeE",
   "name" : "android::RefBase::weakref_type *",
   "referenced_type" : "_ZTIN7android7RefBase12weakref_typeE",
   "self_type" : "_ZTIPN7android7RefBase12weakref_typeE",
   "size" : 4,
   "source_file" : "/frameworks/native/libs/binder/include/binder/Binder.h"
  },
  {
   "alignment" : 4,
   "linker_set_key" : "_ZTIPN7android7RefBaseE",
   "name" : "android::RefBase *",
   "referenced_type" : "_ZTIN7android7RefBaseE",
   "self_type" : "_ZTIPN7android7RefBaseE",
   "size" : 4,
   "source_file" : "/system/core/libutils/include/utils/RefBase.h"
  },
  {
   "alignment" : 4,
   "linker_set_key" : "_ZTIPN7android7String8E",
   "name" : "android::String8 *",
   "referenced_type" : "_ZTIN7android7String8E",
   "self_type" : "_ZTIPN7android7String8E",
   "size" : 4,
   "source_file" : "/system/core/libutils/include/utils/String8.h"
  },
  {
   "alignment" : 4,
   "linker_set_key" : "_ZTIPN7android8String16E",
   "name" : "android::String16 *",
   "referenced_type" : "_ZTIN7android8String16E",
   "self_type" : "_ZTIPN7android8String16E",
   "size" : 4,
   "source_file" : "/system/core/libutils/include/utils/String16.h"
  },
  {
   "alignment" : 4,
   "linker_set_key" : "_ZTIPN7android8hardware10HidlMemoryE",
   "name" : "android::hardware::HidlMemory *",
   "referenced_type" : "_ZTIN7android8hardware10HidlMemoryE",
   "self_type" : "_ZTIPN7android8hardware10HidlMemoryE",
   "size" : 4,
   "source_file" : "/system/core/libutils/include/utils/StrongPointer.h"
  },
  {
   "alignment" : 4,
   "linker_set_key" : "_ZTIPN7android8hardware11hidl_memoryE",
   "name" : "android::hardware::hidl_memory *",
   "referenced_type" : "_ZTIN7android8hardware11hidl_memoryE",
   "self_type" : "_ZTIPN7android8hardware11hidl_memoryE",
   "size" : 4,
   "source_file" : "/system/libhidl/base/include/hidl/HidlSupport.h"
  },
  {
   "alignment" : 4,
   "linker_set_key" : "_ZTIPN7android8hardware12hidl_versionE",
   "name" : "android::hardware::hidl_version *",
   "referenced_type" : "_ZTIN7android8hardware12hidl_versionE",
   "self_type" : "_ZTIPN7android8hardware12hidl_versionE",
   "size" : 4,
   "source_file" : "/system/libhidl/base/include/hidl/HidlSupport.h"
  },
  {
   "alignment" : 4,
   "linker_set_key" : "_ZTIPN7android8hardware20hidl_death_recipientE",
   "name" : "android::hardware::hidl_death_recipient *",
   "referenced_type" : "_ZTIN7android8hardware20hidl_death_recipientE",
   "self_type" : "_ZTIPN7android8hardware20hidl_death_recipientE",
   "size" : 4,
   "source_file" : "/system/core/libutils/include/utils/StrongPointer.h"
  },
  {
   "alignment" : 4,
   "linker_set_key" : "_ZTIPN7android8hardware6ReturnIvEE",
   "name" : "android::hardware::Return<void> *",
   "referenced_type" : "_ZTIN7android8hardware6ReturnIvEE",
   "self_type" : "_ZTIPN7android8hardware6ReturnIvEE",
   "size" : 4,
   "source_file" : "/system/libhidl/base/include/hidl/Status.h"
  },
  {
   "alignment" : 4,
   "linker_set_key" : "_ZTIPN7android8hardware6StatusE",
   "name" : "android::hardware::Status *",
   "referenced_type" : "_ZTIN7android8hardware6StatusE",
   "self_type" : "_ZTIPN7android8hardware6StatusE",
   "size" : 4,
   "source_file" : "/system/libhidl/base/include/hidl/Status.h"
  },
  {
   "alignment" : 4,
   "linker_set_key" : "_ZTIPN7android8hardware7details13return_statusE",
   "name" : "android::hardware::details::return_status *",
   "referenced_type" : "_ZTIN7android8hardware7details13return_statusE",
   "self_type" : "_ZTIPN7android8hardware7details13return_statusE",
   "size" : 4,
   "source_file" : "/system/libhidl/base/include/hidl/Status.h"
  },
  {
   "alignment" : 4,
   "linker_set_key" : "_ZTIPN7android8hardware7details16HidlInstrumentorE",
   "name" : "android::hardware::details::HidlInstrumentor *",
   "referenced_type" : "_ZTIN7android8hardware7details16HidlInstrumentorE",
   "self_type" : "_ZTIPN7android8hardware7details16HidlInstrumentorE",
   "size" : 4,
   "source_file" : "/system/libhidl/base/include/hidl/HidlInternal.h"
  },
  {
   "alignment" : 4,
   "linker_set_key" : "_ZTIPN7android9BpRefBaseE",
   "name" : "android::BpRefBase *",
   "referenced_type" : "_ZTIN7android9BpRefBaseE",
   "self_type" : "_ZTIPN7android9BpRefBaseE",
   "size" : 4,
   "source_file" : "/frameworks/native/libs/binder/include/binder/Binder.h"
  },
  {
   "alignment" : 4,
   "linker_set_key" : "_ZTIPc",
   "name" : "char *",
   "referenced_type" : "_ZTIc",
   "self_type" : "_ZTIPc",
   "size" : 4,
   "source_file" : "/system/core/liblog/include/log/log_read.h"
  },
  {
   "alignment" : 4,
   "linker_set_key" : "_ZTIPv",
   "name" : "void *",
   "referenced_type" : "_ZTIv",
   "self_type" : "_ZTIPv",
   "size" : 4,
   "source_file" : "/system/core/libutils/include/utils/VectorImpl.h"
  }
 ],
 "qualified_types" :
 [
  {
   "alignment" : 4,
   "is_const" : true,
   "linker_set_key" : "_ZTIA1_KPKc",
   "name" : "const char *const[1]",
   "referenced_type" : "_ZTIA1_PKc",
   "self_type" : "_ZTIA1_KPKc",
   "size" : 4,
   "source_file" : "/frameworks/native/libs/binder/include/binder/IInterface.h"
  },
  {
   "alignment" : 4,
   "is_const" : true,
   "linker_set_key" : "_ZTIA89_KPKc",
   "name" : "const char *const[89]",
   "referenced_type" : "_ZTIA89_PKc",
   "self_type" : "_ZTIA89_KPKc",
   "size" : 356,
   "source_file" : "/frameworks/native/libs/binder/include/binder/IInterface.h"
  },
  {
   "alignment" : 4,
   "is_const" : true,
   "linker_set_key" : "_ZTIK13native_handle",
   "name" : "const native_handle",
   "referenced_type" : "_ZTI13native_handle",
   "self_type" : "_ZTIK13native_handle",
   "size" : 12,
   "source_file" : "/system/libhidl/base/include/hidl/HidlInternal.h"
  },
  {
   "alignment" : 4,
   "is_const" : true,
   "linker_set_key" : "_ZTIK7log_msg",
   "name" : "const log_msg",
   "referenced_type" : "_ZTI7log_msg",
   "self_type" : "_ZTIK7log_msg",
   "size" : 5124,
   "source_file" : "/system/core/liblog/include/log/log_read.h"
  },
  {
   "alignment" : 2,
   "is_const" : true,
   "linker_set_key" : "_ZTIKDs",
   "name" : "const char16_t",
   "referenced_type" : "_ZTIDs",
   "self_type" : "_ZTIKDs",
   "size" : 2,
   "source_file" : "/system/core/libutils/include/utils/String16.h"
  },
  {
   "alignment" : 4,
   "is_const" : true,
   "linker_set_key" : "_ZTIKN7android10VectorImplE",
   "name" : "const android::VectorImpl",
   "referenced_type" : "_ZTIN7android10VectorImplE",
   "self_type" : "_ZTIKN7android10VectorImplE",
   "size" : 20,
   "source_file" : "/system/core/libutils/include/utils/VectorImpl.h"
  },
  {
   "alignment" : 4,
   "is_const" : true,
   "linker_set_key" : "_ZTIKN7android11IMemoryHeapE",
   "name" : "const android::IMemoryHeap",
   "referenced_type" : "_ZTIN7android11IMemoryHeapE",
   "self_type" : "_ZTIKN7android11IMemoryHeapE",
   "size" : 12,
   "source_file" : "/frameworks/native/libs/binder/include/binder/IMemory.h"
  },
  {
   "alignment" : 4,
   "is_const" : true,
   "linker_set_key" : "_ZTIKN7android2spINS_11IMemoryHeapEEE",
   "name" : "const android::sp<android::IMemoryHeap>",
   "referenced_type" : "_ZTIN7android2spINS_11IMemoryHeapEEE",
   "self_type" : "_ZTIKN7android2spINS_11IMemoryHeapEEE",
   "size" : 4,
   "source_file" : "/system/core/libutils/include/utils/StrongPointer.h"
  },
  {
   "alignment" : 4,
   "is_const" : true,
   "linker_set_key" : "_ZTIKN7android2spINS_8hardware20hidl_death_recipientEEE",
   "name" : "const android::sp<android::hardware::hidl_death_recipient>",
   "referenced_type" : "_ZTIN7android2spINS_8hardware20hidl_death_recipientEEE",
   "self_type" : "_ZTIKN7android2spINS_8hardware20hidl_death_recipientEEE",
   "size" : 4,
   "source_file" : "/system/core/libutils/include/utils/StrongPointer.h"
  },
  {
   "alignment" : 4,
   "is_const" : true,
   "linker_set_key" : "_ZTIKN7android7RefBaseE",
   "name" : "const android::RefBase",
   "referenced_type" : "_ZTIN7android7RefBaseE",
   "self_type" : "_ZTIKN7android7RefBaseE",
   "size" : 8,
   "source_file" : "/system/core/libutils/include/utils/RefBase.h"
  },
  {
   "alignment" : 4,
   "is_const" : true,
   "linker_set_key" : "_ZTIKN7android7String8E",
   "name" : "const android::String8",
   "referenced_type" : "_ZTIN7android7String8E",
   "self_type" : "_ZTIKN7android7String8E",
   "size" : 4,
   "source_file" : "/system/core/libutils/include/utils/String8.h"
  },
  {
   "alignment" : 4,
   "is_const" : true,
   "linker_set_key" : "_ZTIKN7android8String16E",
   "name" : "const android::String16",
   "referenced_type" : "_ZTIN7android8String16E",
   "self_type" : "_ZTIKN7android8String16E",
   "size" : 4,
   "source_file" : "/system/core/libutils/include/utils/String16.h"
  },
  {
   "alignment" : 8,
   "is_const" : true,
   "linker_set_key" : "_ZTIKN7android8hardware11hidl_handleE",
   "name" : "const android::hardware::hidl_handle",
   "referenced_type" : "_ZTIN7android8hardware11hidl_handleE",
   "self_type" : "_ZTIKN7android8hardware11hidl_handleE",
   "size" : 16,
   "source_file" : "/system/libhidl/base/include/hidl/HidlSupport.h"
  },
  {
   "alignment" : 8,
   "is_const" : true,
   "linker_set_key" : "_ZTIKN7android8hardware11hidl_memoryE",
   "name" : "const android::hardware::hidl_memory",
   "referenced_type" : "_ZTIN7android8hardware11hidl_memoryE",
   "self_type" : "_ZTIKN7android8hardware11hidl_memoryE",
   "size" : 40,
   "source_file" : "/system/libhidl/base/include/hidl/HidlSupport.h"
  },
  {
   "alignment" : 8,
   "is_const" : true,
   "linker_set_key" : "_ZTIKN7android8hardware11hidl_stringE",
   "name" : "const android::hardware::hidl_string",
   "referenced_type" : "_ZTIN7android8hardware11hidl_stringE",
   "self_type" : "_ZTIKN7android8hardware11hidl_stringE",
   "size" : 16,
   "source_file" : "/system/libhidl/base/include/hidl/HidlSupport.h"
  },
  {
   "alignment" : 2,
   "is_const" : true,
   "linker_set_key" : "_ZTIKN7android8hardware12hidl_versionE",
   "name" : "const android::hardware::hidl_version",
   "referenced_type" : "_ZTIN7android8hardware12hidl_versionE",
   "self_type" : "_ZTIKN7android8hardware12hidl_versionE",
   "size" : 4,
   "source_file" : "/system/libhidl/base/include/hidl/HidlSupport.h"
  },
  {
   "alignment" : 4,
   "is_const" : true,
   "linker_set_key" : "_ZTIKN7android8hardware6StatusE",
   "name" : "const android::hardware::Status",
   "referenced_type" : "_ZTIN7android8hardware6StatusE",
   "self_type" : "_ZTIKN7android8hardware6StatusE",
   "size" : 20,
   "source_file" : "/system/libhidl/base/include/hidl/Status.h"
  },
  {
   "alignment" : 4,
   "is_const" : true,
   "linker_set_key" : "_ZTIKN7android8hardware7details13return_statusE",
   "name" : "const android::hardware::details::return_status",
   "referenced_type" : "_ZTIN7android8hardware7details13return_statusE",
   "self_type" : "_ZTIKN7android8hardware7details13return_statusE",
   "size" : 24,
   "source_file" : "/system/libhidl/base/include/hidl/Status.h"
  },
  {
   "is_const" : true,
   "linker_set_key" : "_ZTIKN7android8hardware8hidl_vec4iterIXTL0__EEE",
   "name" : "const iter<is_const>",
   "referenced_type" : "_ZTIN7android8hardware8hidl_vec4iterIXTL0__EEE",
   "self_type" : "_ZTIKN7android8hardware8hidl_vec4iterIXTL0__EEE",
   "source_file" : "/system/libhidl/base/include/hidl/HidlSupport.h"
  },
  {
   "alignment" : 4,
   "is_const" : true,
   "linker_set_key" : "_ZTIKN7android9BpRefBaseE",
   "name" : "const android::BpRefBase",
   "referenced_type" : "_ZTIN7android9BpRefBaseE",
   "self_type" : "_ZTIKN7android9BpRefBaseE",
   "size" : 24,
   "source_file" : "/frameworks/native/libs/binder/include/binder/Binder.h"
  },
  {
   "alignment" : 4,
   "is_const" : true,
   "linker_set_key" : "_ZTIKNSt3__16vectorINS_8functionIFvN7android8hardware7details16HidlInstrumentor20InstrumentationEventEPKcS8_S8_S8_PNS0_IPvNS_9allocatorIS9_EEEEEEENSA_ISF_EEEE",
   "name" : "const std::vector<std::function<void (InstrumentationEvent, const char *, const char *, const char *, const char *, vector<void *, allocator<void *> > *)>, std::allocator<std::function<void (InstrumentationEvent, const char *, const char *, const char *, const char *, vector<void *, allocator<void *> > *)> > >",
   "referenced_type" : "_ZTINSt3__16vectorINS_8functionIFvN7android8hardware7details16HidlInstrumentor20InstrumentationEventEPKcS8_S8_S8_PNS0_IPvNS_9allocatorIS9_EEEEEEENSA_ISF_EEEE",
   "self_type" : "_ZTIKNSt3__16vectorINS_8functionIFvN7android8hardware7details16HidlInstrumentor20InstrumentationEventEPKcS8_S8_S8_PNS0_IPvNS_9allocatorIS9_EEEEEEENSA_ISF_EEEE",
   "size" : 12,
   "source_file" : "/system/libhidl/base/include/hidl/HidlInternal.h"
  },
  {
   "alignment" : 4,
   "is_const" : true,
   "linker_set_key" : "_ZTIKPKc",
   "name" : "const char *const",
   "referenced_type" : "_ZTIPKc",
   "self_type" : "_ZTIKPKc",
   "size" : 4,
   "source_file" : "/frameworks/native/libs/binder/include/binder/IInterface.h"
  },
  {
   "alignment" : 4,
   "is_const" : true,
   "linker_set_key" : "_ZTIKPN7android7IBinderE",
   "name" : "android::IBinder *const",
   "referenced_type" : "_ZTIPN7android7IBinderE",
   "self_type" : "_ZTIKPN7android7IBinderE",
   "size" : 4,
   "source_file" : "/frameworks/native/libs/binder/include/binder/Binder.h"
  },
  {
   "alignment" : 4,
   "is_const" : true,
   "linker_set_key" : "_ZTIKPN7android7RefBase12weakref_implE",
   "name" : "android::RefBase::weakref_impl *const",
   "referenced_type" : "_ZTIPN7android7RefBase12weakref_implE",
   "self_type" : "_ZTIKPN7android7RefBase12weakref_implE",
   "size" : 4,
   "source_file" : "/system/core/libutils/include/utils/RefBase.h"
  },
  {
   "alignment" : 1,
   "is_const" : true,
   "linker_set_key" : "_ZTIKa",
   "name" : "const signed char",
   "referenced_type" : "_ZTIa",
   "self_type" : "_ZTIKa",
   "size" : 1,
   "source_file" : "/system/core/libutils/include/utils/TypeHelpers.h"
  },
  {
   "alignment" : 1,
   "is_const" : true,
   "linker_set_key" : "_ZTIKb",
   "name" : "const bool",
   "referenced_type" : "_ZTIb",
   "self_type" : "_ZTIKb",
   "size" : 1,
   "source_file" : "/system/core/libutils/include/utils/TypeHelpers.h"
  },
  {
   "alignment" : 1,
   "is_const" : true,
   "linker_set_key" : "_ZTIKc",
   "name" : "const char",
   "referenced_type" : "_ZTIc",
   "self_type" : "_ZTIKc",
   "size" : 1,
   "source_file" : "/system/core/libutils/include/utils/String8.h"
  },
  {
   "alignment" : 8,
   "is_const" : true,
   "linker_set_key" : "_ZTIKd",
   "name" : "const double",
   "referenced_type" : "_ZTId",
   "self_type" : "_ZTIKd",
   "size" : 8,
   "source_file" : "/system/core/libutils/include/utils/TypeHelpers.h"
  },
  {
   "alignment" : 4,
   "is_const" : true,
   "linker_set_key" : "_ZTIKf",
   "name" : "const float",
   "referenced_type" : "_ZTIf",
   "self_type" : "_ZTIKf",
   "size" : 4,
   "source_file" : "/system/core/libutils/include/utils/TypeHelpers.h"
  },
  {
   "alignment" : 1,
   "is_const" : true,
   "linker_set_key" : "_ZTIKh",
   "name" : "const unsigned char",
   "referenced_type" : "_ZTIh",
   "self_type" : "_ZTIKh",
   "size" : 1,
   "source_file" : "/system/core/libutils/include/utils/TypeHelpers.h"
  },
  {
   "alignment" : 4,
   "is_const" : true,
   "linker_set_key" : "_ZTIKi",
   "name" : "const int",
   "referenced_type" : "_ZTIi",
   "self_type" : "_ZTIKi",
   "size" : 4,
   "source_file" : "/system/core/libutils/include/utils/StrongPointer.h"
  },
  {
   "alignment" : 4,
   "is_const" : true,
   "linker_set_key" : "_ZTIKj",
   "name" : "const unsigned int",
   "referenced_type" : "_ZTIj",
   "self_type" : "_ZTIKj",
   "size" : 4,
   "source_file" : "/system/core/libutils/include/utils/StrongPointer.h"
  },
  {
   "alignment" : 2,
   "is_const" : true,
   "linker_set_key" : "_ZTIKs",
   "name" : "const short",
   "referenced_type" : "_ZTIs",
   "self_type" : "_ZTIKs",
   "size" : 2,
   "source_file" : "/system/core/libutils/include/utils/TypeHelpers.h"
  },
  {
   "alignment" : 2,
   "is_const" : true,
   "linker_set_key" : "_ZTIKt",
   "name" : "const unsigned short",
   "referenced_type" : "_ZTIt",
   "self_type" : "_ZTIKt",
   "size" : 2,
   "source_file" : "/system/core/libutils/include/utils/TypeHelpers.h"
  },
  {
   "is_const" : true,
   "linker_set_key" : "_ZTIKv",
   "name" : "const void",
   "referenced_type" : "_ZTIv",
   "self_type" : "_ZTIKv",
   "source_file" : "/system/core/libutils/include/utils/VectorImpl.h"
  },
  {
   "alignment" : 8,
   "is_const" : true,
   "linker_set_key" : "_ZTIKx",
   "name" : "const long long",
   "referenced_type" : "_ZTIx",
   "self_type" : "_ZTIKx",
   "size" : 8,
   "source_file" : "/system/core/libutils/include/utils/TypeHelpers.h"
  },
  {
   "alignment" : 8,
   "is_const" : true,
   "linker_set_key" : "_ZTIKy",
   "name" : "const unsigned long long",
   "referenced_type" : "_ZTIy",
   "self_type" : "_ZTIKy",
   "size" : 8,
   "source_file" : "/system/core/libutils/include/utils/TypeHelpers.h"
  }
 ],
 "record_types" :
 [
  {
   "alignment" : 4,
   "fields" :
   [
    {
     "field_name" : "len",
     "referenced_type" : "_ZTIt"
    },
    {
     "field_name" : "hdr_size",
     "field_offset" : 16,
     "referenced_type" : "_ZTIt"
    },
    {
     "field_name" : "pid",
     "field_offset" : 32,
     "referenced_type" : "_ZTIi"
    },
    {
     "field_name" : "tid",
     "field_offset" : 64,
     "referenced_type" : "_ZTIj"
    },
    {
     "field_name" : "sec",
     "field_offset" : 96,
     "referenced_type" : "_ZTIj"
    },
    {
     "field_name" : "nsec",
     "field_offset" : 128,
     "referenced_type" : "_ZTIj"
    },
    {
     "field_name" : "lid",
     "field_offset" : 160,
     "referenced_type" : "_ZTIj"
    },
    {
     "field_name" : "uid",
     "field_offset" : 192,
     "referenced_type" : "_ZTIj"
    }
   ],
   "linker_set_key" : "_ZTI12logger_entry",
   "name" : "logger_entry",
   "referenced_type" : "_ZTI12logger_entry",
   "self_type" : "_ZTI12logger_entry",
   "size" : 28,
   "source_file" : "/system/core/liblog/include/log/log_read.h"
  },
  {
   "alignment" : 4,
   "fields" :
   [
    {
     "field_name" : "version",
     "referenced_type" : "_ZTIi"
    },
    {
     "field_name" : "numFds",
     "field_offset" : 32,
     "referenced_type" : "_ZTIi"
    },
    {
     "field_name" : "numInts",
     "field_offset" : 64,
     "referenced_type" : "_ZTIi"
    },
    {
     "field_name" : "data",
     "field_offset" : 96,
     "referenced_type" : "_ZTIA0_i"
    }
   ],
   "linker_set_key" : "_ZTI13native_handle",
   "name" : "native_handle",
   "referenced_type" : "_ZTI13native_handle",
   "self_type" : "_ZTI13native_handle",
   "size" : 12,
   "source_file" : "/system/core/libcutils/include/cutils/native_handle.h"
  },
  {
   "alignment" : 4,
   "fields" :
   [
    {
     "field_name" : "struct_size",
     "referenced_type" : "_ZTIj"
    },
    {
     "field_name" : "buffer_id",
     "field_offset" : 32,
     "referenced_type" : "_ZTIi"
    },
    {
     "field_name" : "priority",
     "field_offset" : 64,
     "referenced_type" : "_ZTIi"
    },
    {
     "field_name" : "tag",
     "field_offset" : 96,
     "referenced_type" : "_ZTIPKc"
    },
    {
     "field_name" : "file",
     "field_offset" : 128,
     "referenced_type" : "_ZTIPKc"
    },
    {
     "field_name" : "line",
     "field_offset" : 160,
     "referenced_type" : "_ZTIj"
    },
    {
     "field_name" : "message",
     "field_offset" : 192,
     "referenced_type" : "_ZTIPKc"
    }
   ],
   "linker_set_key" : "_ZTI21__android_log_message",
   "name" : "__android_log_message",
   "referenced_type" : "_ZTI21__android_log_message",
   "self_type" : "_ZTI21__android_log_message",
   "size" : 28,
   "source_file" : "/system/core/liblog/include/android/log.h"
  },
  {
   "alignment" : 4,
   "fields" :
   [
    {
     "referenced_type" : "_ZTIN7log_msgUt_E"
    }
   ],
   "linker_set_key" : "_ZTI7log_msg",
   "name" : "log_msg",
   "referenced_type" : "_ZTI7log_msg",
   "self_type" : "_ZTI7log_msg",
   "size" : 5124,
   "source_file" : "/system/core/liblog/include/log/log_read.h"
  },
  {
   "alignment" : 1,
   "fields" :
   [
    {
     "field_name" : "tv_sec",
     "referenced_type" : "_ZTIj"
    },
    {
     "field_name" : "tv_nsec",
     "field_offset" : 32,
     "referenced_type" : "_ZTIj"
    }
   ],
   "linker_set_key" : "_ZTI8log_time",
   "name" : "log_time",
   "referenced_type" : "_ZTI8log_time",
   "self_type" : "_ZTI8log_time",
   "size" : 8,
   "source_file" : "/system/core/liblog/include_vndk/log/log_time.h"
  },
  {
   "alignment" : 4,
   "base_specifiers" :
   [
    {
     "is_virtual" : true,
     "referenced_type" : "_ZTIN7android7RefBaseE"
    }
   ],
   "linker_set_key" : "_ZTIN7android10IInterfaceE",
   "name" : "android::IInterface",
   "record_kind" : "class",
   "referenced_type" : "_ZTIN7android10IInterfaceE",
   "self_type" : "_ZTIN7android10IInterfaceE",
   "size" : 12,
   "source_file" : "/frameworks/native/libs/binder/include/binder/IInterface.h",
   "vtable_components" :
   [
    {
     "component_value" : 4,
     "kind" : "vbase_offset"
    },
    {
     "kind" : "offset_to_top"
    },
    {
     "kind" : "rtti",
     "mangled_component_name" : "_ZTIN7android10IInterfaceE"
    },
    {
     "kind" : "complete_dtor_pointer",
     "mangled_component_name" : "_ZN7android10IInterfaceD1Ev"
    },
    {
     "kind" : "deleting_dtor_pointer",
     "mangled_component_name" : "_ZN7android10IInterfaceD0Ev"
    },
    {
     "is_pure" : true,
     "mangled_component_name" : "_ZN7android10IInterface10onAsBinderEv"
    },
    {
     "kind" : "vcall_offset"
    },
    {
     "kind" : "vcall_offset"
    },
    {
     "kind" : "vcall_offset"
    },
    {
     "kind" : "vcall_offset"
    },
    {
     "component_value" : -4,
     "kind" : "vcall_offset"
    },
    {
     "component_value" : -4,
     "kind" : "offset_to_top"
    },
    {
     "kind" : "rtti",
     "mangled_component_name" : "_ZTIN7android10IInterfaceE"
    },
    {
     "kind" : "complete_dtor_pointer",
     "mangled_component_name" : "_ZTv0_n12_N7android10IInterfaceD1Ev"
    },
    {
     "kind" : "deleting_dtor_pointer",
     "mangled_component_name" : "_ZTv0_n12_N7android10IInterfaceD0Ev"
    },
    {
     "mangled_component_name" : "_ZN7android7RefBase10onFirstRefEv"
    },
    {
     "mangled_component_name" : "_ZN7android7RefBase15onLastStrongRefEPKv"
    },
    {
     "mangled_component_name" : "_ZN7android7RefBase20onIncStrongAttemptedEjPKv"
    },
    {
     "mangled_component_name" : "_ZN7android7RefBase13onLastWeakRefEPKv"
    }
   ]
  },
  {
   "alignment" : 4,
   "fields" :
   [
    {
     "access" : "private",
     "field_name" : "mStorage",
     "field_offset" : 32,
     "referenced_type" : "_ZTIPv"
    },
    {
     "access" : "private",
     "field_name" : "mCount",
     "field_offset" : 64,
     "referenced_type" : "_ZTIj"
    },
    {
     "access" : "private",
     "field_name" : "mFlags",
     "field_offset" : 96,
     "referenced_type" : "_ZTIKj"
    },
    {
     "access" : "private",
     "field_name" : "mItemSize",
     "field_offset" : 128,
     "referenced_type" : "_ZTIKj"
    }
   ],
   "linker_set_key" : "_ZTIN7android10VectorImplE",
   "name" : "android::VectorImpl",
   "record_kind" : "class",
   "referenced_type" : "_ZTIN7android10VectorImplE",
   "self_type" : "_ZTIN7android10VectorImplE",
   "size" : 20,
   "source_file" : "/system/core/libutils/include/utils/VectorImpl.h",
   "vtable_components" :
   [
    {
     "kind" : "offset_to_top"
    },
    {
     "kind" : "rtti",
     "mangled_component_name" : "_ZTIN7android10VectorImplE"
    },
    {
     "kind" : "complete_dtor_pointer",
     "mangled_component_name" : "_ZN7android10VectorImplD1Ev"
    },
    {
     "kind" : "deleting_dtor_pointer",
     "mangled_component_name" : "_ZN7android10VectorImplD0Ev"
    },
    {
     "is_pure" : true,
     "mangled_component_name" : "_ZNK7android10VectorImpl12do_constructEPvj"
    },
    {
     "is_pure" : true,
     "mangled_component_name" : "_ZNK7android10VectorImpl10do_destroyEPvj"
    },
    {
     "is_pure" : true,
     "mangled_component_name" : "_ZNK7android10VectorImpl7do_copyEPvPKvj"
    },
    {
     "is_pure" : true,
     "mangled_component_name" : "_ZNK7android10VectorImpl8do_splatEPvPKvj"
    },
    {
     "is_pure" : true,
     "mangled_component_name" : "_ZNK7android10VectorImpl15do_move_forwardEPvPKvj"
    },
    {
     "is_pure" : true,
     "mangled_component_name" : "_ZNK7android10VectorImpl16do_move_backwardEPvPKvj"
    }
   ]
  },
  {
   "alignment" : 4,
   "base_specifiers" :
   [
    {
     "referenced_type" : "_ZTIN7android11IMemoryHeapE"
    },
    {
     "referenced_type" : "_ZTIN7android7BBinderE"
    }
   ],
   "linker_set_key" : "_ZTIN7android11BnInterfaceINS_11IMemoryHeapEEE",
   "name" : "android::BnInterface<android::IMemoryHeap>",
   "record_kind" : "class",
   "referenced_type" : "_ZTIN7android11BnInterfaceINS_11IMemoryHeapEEE",
   "self_type" : "_ZTIN7android11BnInterfaceINS_11IMemoryHeapEEE",
   "size" : 24,
   "source_file" : "/frameworks/native/libs/binder/include/binder/IInterface.h",
   "template_args" : [ "_ZTIN7android11IMemoryHeapE" ],
   "vtable_components" :
   [
    {
     "component_value" : 16,
     "kind" : "vbase_offset"
    },
    {
     "kind" : "offset_to_top"
    },
    {
     "kind" : "rtti",
     "mangled_component_name" : "_ZTIN7android11BnInterfaceINS_11IMemoryHeapEEE"
    },
    {
     "kind" : "complete_dtor_pointer",
     "mangled_component_name" : "_ZN7android11BnInterfaceINS_11IMemoryHeapEED1Ev"
    },
    {
     "kind" : "deleting_dtor_pointer",
     "mangled_component_name" : "_ZN7android11BnInterfaceINS_11IMemoryHeapEED0Ev"
    },
    {
     "mangled_component_name" : "_ZN7android11BnInterfaceINS_11IMemoryHeapEE10onAsBinderEv"
    },
    {
     "mangled_component_name" : "_ZNK7android11BnInterfaceINS_11IMemoryHeapEE22getInterfaceDescriptorEv"
    },
    {
     "is_pure" : true,
     "mangled_component_name" : "_ZNK7android11IMemoryHeap9getHeapIDEv"
    },
    {
     "is_pure" : true,
     "mangled_component_name" : "_ZNK7android11IMemoryHeap7getBaseEv"
    },
    {
     "is_pure" : true,
     "mangled_component_name" : "_ZNK7android11IMemoryHeap7getSizeEv"
    },
    {
     "is_pure" : true,
     "mangled_component_name" : "_ZNK7android11IMemoryHeap8getFlagsEv"
    },
    {
     "is_pure" : true,
     "mangled_component_name" : "_ZNK7android11IMemoryHeap9getOffsetEv"
    },
    {
     "mangled_component_name" : "_ZN7android11BnInterfaceINS_11IMemoryHeapEE19queryLocalInterfaceERKNS_8String16E"
    },
    {
     "component_value" : 12,
     "kind" : "vbase_offset"
    },
    {
     "component_value" : -4,
     "kind" : "offset_to_top"
    },
    {
     "kind" : "rtti",
     "mangled_component_name" : "_ZTIN7android11BnInterfaceINS_11IMemoryHeapEEE"
    },
    {
     "mangled_component_name" : "_ZThn4_N7android11BnInterfaceINS_11IMemoryHeapEE19queryLocalInterfaceERKNS_8String16E"
    },
    {
     "mangled_component_name" : "_ZThn4_NK7android11BnInterfaceINS_11IMemoryHeapEE22getInterfaceDescriptorEv"
    },
    {
     "mangled_component_name" : "_ZNK7android7BBinder13isBinderAliveEv"
    },
    {
     "mangled_component_name" : "_ZN7android7BBinder10pingBinderEv"
    },
    {
     "mangled_component_name" : "_ZN7android7BBinder4dumpEiRKNS_6VectorINS_8String16EEE"
    },
    {
     "mangled_component_name" : "_ZN7android7BBinder8transactEjRKNS_6ParcelEPS1_j"
    },
    {
     "mangled_component_name" : "_ZN7android7BBinder11linkToDeathERKNS_2spINS_7IBinder14DeathRecipientEEEPvj"
    },
    {
     "mangled_component_name" : "_ZN7android7BBinder13unlinkToDeathERKNS_2wpINS_7IBinder14DeathRecipientEEEPvjPS4_"
    },
    {
     "mangled_component_name" : "_ZNK7android7IBinder13checkSubclassEPKv"
    },
    {
     "mangled_component_name" : "_ZN7android7BBinder12attachObjectEPKvPvS3_PFvS2_S3_S3_E"
    },
    {
     "mangled_component_name" : "_ZNK7android7BBinder10findObjectEPKv"
    },
    {
     "mangled_component_name" : "_ZN7android7BBinder12detachObjectEPKv"
    },
    {
     "mangled_component_name" : "_ZN7android7BBinder11localBinderEv"
    },
    {
     "mangled_component_name" : "_ZN7android7IBinder12remoteBinderEv"
    },
    {
     "kind" : "complete_dtor_pointer",
     "mangled_component_name" : "_ZThn4_N7android11BnInterfaceINS_11IMemoryHeapEED1Ev"
    },
    {
     "kind" : "deleting_dtor_pointer",
     "mangled_component_name" : "_ZThn4_N7android11BnInterfaceINS_11IMemoryHeapEED0Ev"
    },
    {
     "mangled_component_name" : "_ZN7android7BBinder10onTransactEjRKNS_6ParcelEPS1_j"
    },
    {
     "kind" : "vcall_offset"
    },
    {
     "kind" : "vcall_offset"
    },
    {
     "kind" : "vcall_offset"
    },
    {
     "kind" : "vcall_offset"
    },
    {
     "component_value" : -16,
     "kind" : "vcall_offset"
    },
    {
     "component_value" : -16,
     "kind" : "offset_to_top"
    },
    {
     "kind" : "rtti",
     "mangled_component_name" : "_ZTIN7android11BnInterfaceINS_11IMemoryHeapEEE"
    },
    {
     "kind" : "complete_dtor_pointer",
     "mangled_component_name" : "_ZTv0_n12_N7android11BnInterfaceINS_11IMemoryHeapEED1Ev"
    },
    {
     "kind" : "deleting_dtor_pointer",
     "mangled_component_name" : "_ZTv0_n12_N7android11BnInterfaceINS_11IMemoryHeapEED0Ev"
    },
    {
     "mangled_component_name" : "_ZN7android7RefBase10onFirstRefEv"
    },
    {
     "mangled_component_name" : "_ZN7android7RefBase15onLastStrongRefEPKv"
    },
    {
     "mangled_component_name" : "_ZN7android7RefBase20onIncStrongAttemptedEjPKv"
    },
    {
     "mangled_component_name" : "_ZN7android7RefBase13onLastWeakRefEPKv"
    }
   ]
  },
  {
   "alignment" : 4,
   "base_specifiers" :
   [
    {
     "referenced_type" : "_ZTIN7android7IMemoryE"
    },
    {
     "referenced_type" : "_ZTIN7android7BBinderE"
    }
   ],
   "linker_set_key" : "_ZTIN7android11BnInterfaceINS_7IMemoryEEE",
   "name" : "android::BnInterface<android::IMemory>",
   "record_kind" : "class",
   "referenced_type" : "_ZTIN7android11BnInterfaceINS_7IMemoryEEE",
   "self_type" : "_ZTIN7android11BnInterfaceINS_7IMemoryEEE",
   "size" : 24,
   "source_file" : "/frameworks/native/libs/binder/include/binder/IInterface.h",
   "template_args" : [ "_ZTIN7android7IMemoryE" ],
   "vtable_components" :
   [
    {
     "component_value" : 16,
     "kind" : "vbase_offset"
    },
    {
     "kind" : "offset_to_top"
    },
    {
     "kind" : "rtti",
     "mangled_component_name" : "_ZTIN7android11BnInterfaceINS_7IMemoryEEE"
    },
    {
     "kind" : "complete_dtor_pointer",
     "mangled_component_name" : "_ZN7android11BnInterfaceINS_7IMemoryEED1Ev"
    },
    {
     "kind" : "deleting_dtor_pointer",
     "mangled_component_name" : "_ZN7android11BnInterfaceINS_7IMemoryEED0Ev"
    },
    {
     "mangled_component_name" : "_ZN7android11BnInterfaceINS_7IMemoryEE10onAsBinderEv"
    },
    {
     "mangled_component_name" : "_ZNK7android11BnInterfaceINS_7IMemoryEE22getInterfaceDescriptorEv"
    },
    {
     "is_pure" : true,
     "mangled_component_name" : "_ZNK7android7IMemory9getMemoryEPiPj"
    },
    {
     "mangled_component_name" : "_ZN7android11BnInterfaceINS_7IMemoryEE19queryLocalInterfaceERKNS_8String16E"
    },
    {
     "component_value" : 12,
     "kind" : "vbase_offset"
    },
    {
     "component_value" : -4,
     "kind" : "offset_to_top"
    },
    {
     "kind" : "rtti",
     "mangled_component_name" : "_ZTIN7android11BnInterfaceINS_7IMemoryEEE"
    },
    {
     "mangled_component_name" : "_ZThn4_N7android11BnInterfaceINS_7IMemoryEE19queryLocalInterfaceERKNS_8String16E"
    },
    {
     "mangled_component_name" : "_ZThn4_NK7android11BnInterfaceINS_7IMemoryEE22getInterfaceDescriptorEv"
    },
    {
     "mangled_component_name" : "_ZNK7android7BBinder13isBinderAliveEv"
    },
    {
     "mangled_component_name" : "_ZN7android7BBinder10pingBinderEv"
    },
    {
     "mangled_component_name" : "_ZN7android7BBinder4dumpEiRKNS_6VectorINS_8String16EEE"
    },
    {
     "mangled_component_name" : "_ZN7android7BBinder8transactEjRKNS_6ParcelEPS1_j"
    },
    {
     "mangled_component_name" : "_ZN7android7BBinder11linkToDeathERKNS_2spINS_7IBinder14DeathRecipientEEEPvj"
    },
    {
     "mangled_component_name" : "_ZN7android7BBinder13unlinkToDeathERKNS_2wpINS_7IBinder14DeathRecipientEEEPvjPS4_"
    },
    {
     "mangled_component_name" : "_ZNK7android7IBinder13checkSubclassEPKv"
    },
    {
     "mangled_component_name" : "_ZN7android7BBinder12attachObjectEPKvPvS3_PFvS2_S3_S3_E"
    },
    {
     "mangled_component_name" : "_ZNK7android7BBinder10findObjectEPKv"
    },
    {
     "mangled_component_name" : "_ZN7android7BBinder12detachObjectEPKv"
    },
    {
     "mangled_component_name" : "_ZN7android7BBinder11localBinderEv"
    },
    {
     "mangled_component_name" : "_ZN7android7IBinder12remoteBinderEv"
    },
    {
     "kind" : "complete_dtor_pointer",
     "mangled_component_name" : "_ZThn4_N7android11BnInterfaceINS_7IMemoryEED1Ev"
    },
    {
     "kind" : "deleting_dtor_pointer",
     "mangled_component_name" : "_ZThn4_N7android11BnInterfaceINS_7IMemoryEED0Ev"
    },
    {
     "mangled_component_name" : "_ZN7android7BBinder10onTransactEjRKNS_6ParcelEPS1_j"
    },
    {
     "kind" : "vcall_offset"
    },
    {
     "kind" : "vcall_offset"
    },
    {
     "kind" : "vcall_offset"
    },
    {
     "kind" : "vcall_offset"
    },
    {
     "component_value" : -16,
     "kind" : "vcall_offset"
    },
    {
     "component_value" : -16,
     "kind" : "offset_to_top"
    },
    {
     "kind" : "rtti",
     "mangled_component_name" : "_ZTIN7android11BnInterfaceINS_7IMemoryEEE"
    },
    {
     "kind" : "complete_dtor_pointer",
     "mangled_component_name" : "_ZTv0_n12_N7android11BnInterfaceINS_7IMemoryEED1Ev"
    },
    {
     "kind" : "deleting_dtor_pointer",
     "mangled_component_name" : "_ZTv0_n12_N7android11BnInterfaceINS_7IMemoryEED0Ev"
    },
    {
     "mangled_component_name" : "_ZN7android7RefBase10onFirstRefEv"
    },
    {
     "mangled_component_name" : "_ZN7android7RefBase15onLastStrongRefEPKv"
    },
    {
     "mangled_component_name" : "_ZN7android7RefBase20onIncStrongAttemptedEjPKv"
    },
    {
     "mangled_component_name" : "_ZN7android7RefBase13onLastWeakRefEPKv"
    }
   ]
  },
  {
   "alignment" : 4,
   "base_specifiers" :
   [
    {
     "referenced_type" : "_ZTIN7android10IInterfaceE"
    }
   ],
   "linker_set_key" : "_ZTIN7android11IMemoryHeapE",
   "name" : "android::IMemoryHeap",
   "record_kind" : "class",
   "referenced_type" : "_ZTIN7android11IMemoryHeapE",
   "self_type" : "_ZTIN7android11IMemoryHeapE",
   "size" : 12,
   "source_file" : "/frameworks/native/libs/binder/include/binder/IMemory.h",
   "vtable_components" :
   [
    {
     "component_value" : 4,
     "kind" : "vbase_offset"
    },
    {
     "kind" : "offset_to_top"
    },
    {
     "kind" : "rtti",
     "mangled_component_name" : "_ZTIN7android11IMemoryHeapE"
    },
    {
     "kind" : "complete_dtor_pointer",
     "mangled_component_name" : "_ZN7android11IMemoryHeapD1Ev"
    },
    {
     "kind" : "deleting_dtor_pointer",
     "mangled_component_name" : "_ZN7android11IMemoryHeapD0Ev"
    },
    {
     "is_pure" : true,
     "mangled_component_name" : "_ZN7android10IInterface10onAsBinderEv"
    },
    {
     "mangled_component_name" : "_ZNK7android11IMemoryHeap22getInterfaceDescriptorEv"
    },
    {
     "is_pure" : true,
     "mangled_component_name" : "_ZNK7android11IMemoryHeap9getHeapIDEv"
    },
    {
     "is_pure" : true,
     "mangled_component_name" : "_ZNK7android11IMemoryHeap7getBaseEv"
    },
    {
     "is_pure" : true,
     "mangled_component_name" : "_ZNK7android11IMemoryHeap7getSizeEv"
    },
    {
     "is_pure" : true,
     "mangled_component_name" : "_ZNK7android11IMemoryHeap8getFlagsEv"
    },
    {
     "is_pure" : true,
     "mangled_component_name" : "_ZNK7android11IMemoryHeap9getOffsetEv"
    },
    {
     "kind" : "vcall_offset"
    },
    {
     "kind" : "vcall_offset"
    },
    {
     "kind" : "vcall_offset"
    },
    {
     "kind" : "vcall_offset"
    },
    {
     "component_value" : -4,
     "kind" : "vcall_offset"
    },
    {
     "component_value" : -4,
     "kind" : "offset_to_top"
    },
    {
     "kind" : "rtti",
     "mangled_component_name" : "_ZTIN7android11IMemoryHeapE"
    },
    {
     "kind" : "complete_dtor_pointer",
     "mangled_component_name" : "_ZTv0_n12_N7android11IMemoryHeapD1Ev"
    },
    {
     "kind" : "deleting_dtor_pointer",
     "mangled_component_name" : "_ZTv0_n12_N7android11IMemoryHeapD0Ev"
    },
    {
     "mangled_component_name" : "_ZN7android7RefBase10onFirstRefEv"
    },
    {
     "mangled_component_name" : "_ZN7android7RefBase15onLastStrongRefEPKv"
    },
    {
     "mangled_component_name" : "_ZN7android7RefBase20onIncStrongAttemptedEjPKv"
    },
    {
     "mangled_component_name" : "_ZN7android7RefBase13onLastWeakRefEPKv"
    }
   ]
  },
  {
   "alignment" : 4,
   "base_specifiers" :
   [
    {
     "referenced_type" : "_ZTIN7android11BnInterfaceINS_11IMemoryHeapEEE"
    }
   ],
   "linker_set_key" : "_ZTIN7android12BnMemoryHeapE",
   "name" : "android::BnMemoryHeap",
   "record_kind" : "class",
   "referenced_type" : "_ZTIN7android12BnMemoryHeapE",
   "self_type" : "_ZTIN7android12BnMemoryHeapE",
   "size" : 24,
   "source_file" : "/frameworks/native/libs/binder/include/binder/IMemory.h",
   "vtable_components" :
   [
    {
     "component_value" : 16,
     "kind" : "vbase_offset"
    },
    {
     "kind" : "offset_to_top"
    },
    {
     "kind" : "rtti",
     "mangled_component_name" : "_ZTIN7android12BnMemoryHeapE"
    },
    {
     "kind" : "complete_dtor_pointer",
     "mangled_component_name" : "_ZN7android12BnMemoryHeapD1Ev"
    },
    {
     "kind" : "deleting_dtor_pointer",
     "mangled_component_name" : "_ZN7android12BnMemoryHeapD0Ev"
    },
    {
     "mangled_component_name" : "_ZN7android11BnInterfaceINS_11IMemoryHeapEE10onAsBinderEv"
    },
    {
     "mangled_component_name" : "_ZNK7android11BnInterfaceINS_11IMemoryHeapEE22getInterfaceDescriptorEv"
    },
    {
     "is_pure" : true,
     "mangled_component_name" : "_ZNK7android11IMemoryHeap9getHeapIDEv"
    },
    {
     "is_pure" : true,
     "mangled_component_name" : "_ZNK7android11IMemoryHeap7getBaseEv"
    },
    {
     "is_pure" : true,
     "mangled_component_name" : "_ZNK7android11IMemoryHeap7getSizeEv"
    },
    {
     "is_pure" : true,
     "mangled_component_name" : "_ZNK7android11IMemoryHeap8getFlagsEv"
    },
    {
     "is_pure" : true,
     "mangled_component_name" : "_ZNK7android11IMemoryHeap9getOffsetEv"
    },
    {
     "mangled_component_name" : "_ZN7android11BnInterfaceINS_11IMemoryHeapEE19queryLocalInterfaceERKNS_8String16E"
    },
    {
     "mangled_component_name" : "_ZN7android12BnMemoryHeap10onTransactEjRKNS_6ParcelEPS1_j"
    },
    {
     "component_value" : 12,
     "kind" : "vbase_offset"
    },
    {
     "component_value" : -4,
     "kind" : "offset_to_top"
    },
    {
     "kind" : "rtti",
     "mangled_component_name" : "_ZTIN7android12BnMemoryHeapE"
    },
    {
     "mangled_component_name" : "_ZThn4_N7android11BnInterfaceINS_11IMemoryHeapEE19queryLocalInterfaceERKNS_8String16E"
    },
    {
     "mangled_component_name" : "_ZThn4_NK7android11BnInterfaceINS_11IMemoryHeapEE22getInterfaceDescriptorEv"
    },
    {
     "mangled_component_name" : "_ZNK7android7BBinder13isBinderAliveEv"
    },
    {
     "mangled_component_name" : "_ZN7android7BBinder10pingBinderEv"
    },
    {
     "mangled_component_name" : "_ZN7android7BBinder4dumpEiRKNS_6VectorINS_8String16EEE"
    },
    {
     "mangled_component_name" : "_ZN7android7BBinder8transactEjRKNS_6ParcelEPS1_j"
    },
    {
     "mangled_component_name" : "_ZN7android7BBinder11linkToDeathERKNS_2spINS_7IBinder14DeathRecipientEEEPvj"
    },
    {
     "mangled_component_name" : "_ZN7android7BBinder13unlinkToDeathERKNS_2wpINS_7IBinder14DeathRecipientEEEPvjPS4_"
    },
    {
     "mangled_component_name" : "_ZNK7android7IBinder13checkSubclassEPKv"
    },
    {
     "mangled_component_name" : "_ZN7android7BBinder12attachObjectEPKvPvS3_PFvS2_S3_S3_E"
    },
    {
     "mangled_component_name" : "_ZNK7android7BBinder10findObjectEPKv"
    },
    {
     "mangled_component_name" : "_ZN7android7BBinder12detachObjectEPKv"
    },
    {
     "mangled_component_name" : "_ZN7android7BBinder11localBinderEv"
    },
    {
     "mangled_component_name" : "_ZN7android7IBinder12remoteBinderEv"
    },
    {
     "kind" : "complete_dtor_pointer",
     "mangled_component_name" : "_ZThn4_N7android12BnMemoryHeapD1Ev"
    },
    {
     "kind" : "deleting_dtor_pointer",
     "mangled_component_name" : "_ZThn4_N7android12BnMemoryHeapD0Ev"
    },
    {
     "mangled_component_name" : "_ZThn4_N7android12BnMemoryHeap10onTransactEjRKNS_6ParcelEPS1_j"
    },
    {
     "kind" : "vcall_offset"
    },
    {
     "kind" : "vcall_offset"
    },
    {
     "kind" : "vcall_offset"
    },
    {
     "kind" : "vcall_offset"
    },
    {
     "component_value" : -16,
     "kind" : "vcall_offset"
    },
    {
     "component_value" : -16,
     "kind" : "offset_to_top"
    },
    {
     "kind" : "rtti",
     "mangled_component_name" : "_ZTIN7android12BnMemoryHeapE"
    },
    {
     "kind" : "complete_dtor_pointer",
     "mangled_component_name" : "_ZTv0_n12_N7android12BnMemoryHeapD1Ev"
    },
    {
     "kind" : "deleting_dtor_pointer",
     "mangled_component_name" : "_ZTv0_n12_N7android12BnMemoryHeapD0Ev"
    },
    {
     "mangled_component_name" : "_ZN7android7RefBase10onFirstRefEv"
    },
    {
     "mangled_component_name" : "_ZN7android7RefBase15onLastStrongRefEPKv"
    },
    {
     "mangled_component_name" : "_ZN7android7RefBase20onIncStrongAttemptedEjPKv"
    },
    {
     "mangled_component_name" : "_ZN7android7RefBase13onLastWeakRefEPKv"
    }
   ]
  },
  {
   "alignment" : 4,
   "fields" :
   [
    {
     "access" : "private",
     "field_name" : "mCount",
     "referenced_type" : "_ZTINSt3__16atomicIiEE"
    }
   ],
   "linker_set_key" : "_ZTIN7android12LightRefBaseINS_19VirtualLightRefBaseEEE",
   "name" : "android::LightRefBase<android::VirtualLightRefBase>",
   "record_kind" : "class",
   "referenced_type" : "_ZTIN7android12LightRefBaseINS_19VirtualLightRefBaseEEE",
   "self_type" : "_ZTIN7android12LightRefBaseINS_19VirtualLightRefBaseEEE",
   "size" : 4,
   "source_file" : "/system/core/libutils/include/utils/LightRefBase.h",
   "template_args" : [ "_ZTIN7android19VirtualLightRefBaseE" ]
  },
  {
   "alignment" : 1,
   "linker_set_key" : "_ZTIN7android14ReferenceMoverE",
   "name" : "android::ReferenceMover",
   "record_kind" : "class",
   "referenced_type" : "_ZTIN7android14ReferenceMoverE",
   "self_type" : "_ZTIN7android14ReferenceMoverE",
   "size" : 1,
   "source_file" : "/system/core/libutils/include/utils/RefBase.h"
  },
  {
   "alignment" : 4,
   "linker_set_key" : "_ZTIN7android16ReferenceRenamerE",
   "name" : "android::ReferenceRenamer",
   "record_kind" : "class",
   "referenced_type" : "_ZTIN7android16ReferenceRenamerE",
   "self_type" : "_ZTIN7android16ReferenceRenamerE",
   "size" : 4,
   "source_file" : "/system/core/libutils/include/utils/RefBase.h",
   "vtable_components" :
   [
    {
     "kind" : "offset_to_top"
    },
    {
     "kind" : "rtti",
     "mangled_component_name" : "_ZTIN7android16ReferenceRenamerE"
    },
    {
     "is_pure" : true,
     "mangled_component_name" : "_ZNK7android16ReferenceRenamerclEj"
    }
   ]
  },
  {
   "alignment" : 4,
   "base_specifiers" :
   [
    {
     "referenced_type" : "_ZTIN7android10VectorImplE"
    }
   ],
   "linker_set_key" : "_ZTIN7android16SortedVectorImplE",
   "name" : "android::SortedVectorImpl",
   "record_kind" : "class",
   "referenced_type" : "_ZTIN7android16SortedVectorImplE",
   "self_type" : "_ZTIN7android16SortedVectorImplE",
   "size" : 20,
   "source_file" : "/system/core/libutils/include/utils/VectorImpl.h",
   "vtable_components" :
   [
    {
     "kind" : "offset_to_top"
    },
    {
     "kind" : "rtti",
     "mangled_component_name" : "_ZTIN7android16SortedVectorImplE"
    },
    {
     "kind" : "complete_dtor_pointer",
     "mangled_component_name" : "_ZN7android16SortedVectorImplD1Ev"
    },
    {
     "kind" : "deleting_dtor_pointer",
     "mangled_component_name" : "_ZN7android16SortedVectorImplD0Ev"
    },
    {
     "is_pure" : true,
     "mangled_component_name" : "_ZNK7android10VectorImpl12do_constructEPvj"
    },
    {
     "is_pure" : true,
     "mangled_component_name" : "_ZNK7android10VectorImpl10do_destroyEPvj"
    },
    {
     "is_pure" : true,
     "mangled_component_name" : "_ZNK7android10VectorImpl7do_copyEPvPKvj"
    },
    {
     "is_pure" : true,
     "mangled_component_name" : "_ZNK7android10VectorImpl8do_splatEPvPKvj"
    },
    {
     "is_pure" : true,
     "mangled_component_name" : "_ZNK7android10VectorImpl15do_move_forwardEPvPKvj"
    },
    {
     "is_pure" : true,
     "mangled_component_name" : "_ZNK7android10VectorImpl16do_move_backwardEPvPKvj"
    },
    {
     "is_pure" : true,
     "mangled_component_name" : "_ZNK7android16SortedVectorImpl10do_compareEPKvS2_"
    }
   ]
  },
  {
   "alignment" : 1,
   "linker_set_key" : "_ZTIN7android18trait_trivial_copyIbEE",
   "name" : "android::trait_trivial_copy<bool>",
   "referenced_type" : "_ZTIN7android18trait_trivial_copyIbEE",
   "self_type" : "_ZTIN7android18trait_trivial_copyIbEE",
   "size" : 1,
   "source_file" : "/system/core/libutils/include/utils/TypeHelpers.h",
   "template_args" : [ "_ZTIb" ]
  },
  {
   "alignment" : 1,
   "linker_set_key" : "_ZTIN7android18trait_trivial_copyIcEE",
   "name" : "android::trait_trivial_copy<char>",
   "referenced_type" : "_ZTIN7android18trait_trivial_copyIcEE",
   "self_type" : "_ZTIN7android18trait_trivial_copyIcEE",
   "size" : 1,
   "source_file" : "/system/core/libutils/include/utils/TypeHelpers.h",
   "template_args" : [ "_ZTIc" ]
  },
  {
   "alignment" : 1,
   "linker_set_key" : "_ZTIN7android18trait_trivial_copyIdEE",
   "name" : "android::trait_trivial_copy<double>",
   "referenced_type" : "_ZTIN7android18trait_trivial_copyIdEE",
   "self_type" : "_ZTIN7android18trait_trivial_copyIdEE",
   "size" : 1,
   "source_file" : "/system/core/libutils/include/utils/TypeHelpers.h",
   "template_args" : [ "_ZTId" ]
  },
  {
   "alignment" : 1,
   "linker_set_key" : "_ZTIN7android18trait_trivial_copyIfEE",
   "name" : "android::trait_trivial_copy<float>",
   "referenced_type" : "_ZTIN7android18trait_trivial_copyIfEE",
   "self_type" : "_ZTIN7android18trait_trivial_copyIfEE",
   "size" : 1,
   "source_file" : "/system/core/libutils/include/utils/TypeHelpers.h",
   "template_args" : [ "_ZTIf" ]
  },
  {
   "alignment" : 1,
   "linker_set_key" : "_ZTIN7android18trait_trivial_copyIhEE",
   "name" : "android::trait_trivial_copy<unsigned char>",
   "referenced_type" : "_ZTIN7android18trait_trivial_copyIhEE",
   "self_type" : "_ZTIN7android18trait_trivial_copyIhEE",
   "size" : 1,
   "source_file" : "/system/core/libutils/include/utils/TypeHelpers.h",
   "template_args" : [ "_ZTIh" ]
  },
  {
   "alignment" : 1,
   "linker_set_key" : "_ZTIN7android18trait_trivial_copyIiEE",
   "name" : "android::trait_trivial_copy<int>",
   "referenced_type" : "_ZTIN7android18trait_trivial_copyIiEE",
   "self_type" : "_ZTIN7android18trait_trivial_copyIiEE",
   "size" : 1,
   "source_file" : "/system/core/libutils/include/utils/TypeHelpers.h",
   "template_args" : [ "_ZTIi" ]
  },
  {
   "alignment" : 1,
   "linker_set_key" : "_ZTIN7android18trait_trivial_copyIjEE",
   "name" : "android::trait_trivial_copy<unsigned int>",
   "referenced_type" : "_ZTIN7android18trait_trivial_copyIjEE",
   "self_type" : "_ZTIN7android18trait_trivial_copyIjEE",
   "size" : 1,
   "source_file" : "/system/core/libutils/include/utils/TypeHelpers.h",
   "template_args" : [ "_ZTIj" ]
  },
  {
   "alignment" : 1,
   "linker_set_key" : "_ZTIN7android18trait_trivial_copyIlEE",
   "name" : "android::trait_trivial_copy<long>",
   "referenced_type" : "_ZTIN7android18trait_trivial_copyIlEE",
   "self_type" : "_ZTIN7android18trait_trivial_copyIlEE",
   "size" : 1,
   "source_file" : "/system/core/libutils/include/utils/TypeHelpers.h",
   "template_args" : [ "_ZTIl" ]
  },
  {
   "alignment" : 1,
   "linker_set_key" : "_ZTIN7android18trait_trivial_copyImEE",
   "name" : "android::trait_trivial_copy<unsigned long>",
   "referenced_type" : "_ZTIN7android18trait_trivial_copyImEE",
   "self_type" : "_ZTIN7android18trait_trivial_copyImEE",
   "size" : 1,
   "source_file" : "/system/core/libutils/include/utils/TypeHelpers.h",
   "template_args" : [ "_ZTIm" ]
  },
  {
   "alignment" : 1,
   "linker_set_key" : "_ZTIN7android18trait_trivial_copyIsEE",
   "name" : "android::trait_trivial_copy<short>",
   "referenced_type" : "_ZTIN7android18trait_trivial_copyIsEE",
   "self_type" : "_ZTIN7android18trait_trivial_copyIsEE",
   "size" : 1,
   "source_file" : "/system/core/libutils/include/utils/TypeHelpers.h",
   "template_args" : [ "_ZTIs" ]
  },
  {
   "alignment" : 1,
   "linker_set_key" : "_ZTIN7android18trait_trivial_copyItEE",
   "name" : "android::trait_trivial_copy<unsigned short>",
   "referenced_type" : "_ZTIN7android18trait_trivial_copyItEE",
   "self_type" : "_ZTIN7android18trait_trivial_copyItEE",
   "size" : 1,
   "source_file" : "/system/core/libutils/include/utils/TypeHelpers.h",
   "template_args" : [ "_ZTIt" ]
  },
  {
   "alignment" : 1,
   "linker_set_key" : "_ZTIN7android18trait_trivial_copyIvEE",
   "name" : "android::trait_trivial_copy<void>",
   "referenced_type" : "_ZTIN7android18trait_trivial_copyIvEE",
   "self_type" : "_ZTIN7android18trait_trivial_copyIvEE",
   "size" : 1,
   "source_file" : "/system/core/libutils/include/utils/TypeHelpers.h",
   "template_args" : [ "_ZTIv" ]
  },
  {
   "alignment" : 1,
   "linker_set_key" : "_ZTIN7android18trait_trivial_copyIxEE",
   "name" : "android::trait_trivial_copy<long long>",
   "referenced_type" : "_ZTIN7android18trait_trivial_copyIxEE",
   "self_type" : "_ZTIN7android18trait_trivial_copyIxEE",
   "size" : 1,
   "source_file" : "/system/core/libutils/include/utils/TypeHelpers.h",
   "template_args" : [ "_ZTIx" ]
  },
  {
   "alignment" : 1,
   "linker_set_key" : "_ZTIN7android18trait_trivial_copyIyEE",
   "name" : "android::trait_trivial_copy<unsigned long long>",
   "referenced_type" : "_ZTIN7android18trait_trivial_copyIyEE",
   "self_type" : "_ZTIN7android18trait_trivial_copyIyEE",
   "size" : 1,
   "source_file" : "/system/core/libutils/include/utils/TypeHelpers.h",
   "template_args" : [ "_ZTIy" ]
  },
  {
   "alignment" : 1,
   "linker_set_key" : "_ZTIN7android18trait_trivial_ctorIbEE",
   "name" : "android::trait_trivial_ctor<bool>",
   "referenced_type" : "_ZTIN7android18trait_trivial_ctorIbEE",
   "self_type" : "_ZTIN7android18trait_trivial_ctorIbEE",
   "size" : 1,
   "source_file" : "/system/core/libutils/include/utils/TypeHelpers.h",
   "template_args" : [ "_ZTIb" ]
  },
  {
   "alignment" : 1,
   "linker_set_key" : "_ZTIN7android18trait_trivial_ctorIcEE",
   "name" : "android::trait_trivial_ctor<char>",
   "referenced_type" : "_ZTIN7android18trait_trivial_ctorIcEE",
   "self_type" : "_ZTIN7android18trait_trivial_ctorIcEE",
   "size" : 1,
   "source_file" : "/system/core/libutils/include/utils/TypeHelpers.h",
   "template_args" : [ "_ZTIc" ]
  },
  {
   "alignment" : 1,
   "linker_set_key" : "_ZTIN7android18trait_trivial_ctorIdEE",
   "name" : "android::trait_trivial_ctor<double>",
   "referenced_type" : "_ZTIN7android18trait_trivial_ctorIdEE",
   "self_type" : "_ZTIN7android18trait_trivial_ctorIdEE",
   "size" : 1,
   "source_file" : "/system/core/libutils/include/utils/TypeHelpers.h",
   "template_args" : [ "_ZTId" ]
  },
  {
   "alignment" : 1,
   "linker_set_key" : "_ZTIN7android18trait_trivial_ctorIfEE",
   "name" : "android::trait_trivial_ctor<float>",
   "referenced_type" : "_ZTIN7android18trait_trivial_ctorIfEE",
   "self_type" : "_ZTIN7android18trait_trivial_ctorIfEE",
   "size" : 1,
   "source_file" : "/system/core/libutils/include/utils/TypeHelpers.h",
   "template_args" : [ "_ZTIf" ]
  },
  {
   "alignment" : 1,
   "linker_set_key" : "_ZTIN7android18trait_trivial_ctorIhEE",
   "name" : "android::trait_trivial_ctor<unsigned char>",
   "referenced_type" : "_ZTIN7android18trait_trivial_ctorIhEE",
   "self_type" : "_ZTIN7android18trait_trivial_ctorIhEE",
   "size" : 1,
   "source_file" : "/system/core/libutils/include/utils/TypeHelpers.h",
   "template_args" : [ "_ZTIh" ]
  },
  {
   "alignment" : 1,
   "linker_set_key" : "_ZTIN7android18trait_trivial_ctorIiEE",
   "name" : "android::trait_trivial_ctor<int>",
   "referenced_type" : "_ZTIN7android18trait_trivial_ctorIiEE",
   "self_type" : "_ZTIN7android18trait_trivial_ctorIiEE",
   "size" : 1,
   "source_file" : "/system/core/libutils/include/utils/TypeHelpers.h",
   "template_args" : [ "_ZTIi" ]
  },
  {
   "alignment" : 1,
   "linker_set_key" : "_ZTIN7android18trait_trivial_ctorIjEE",
   "name" : "android::trait_trivial_ctor<unsigned int>",
   "referenced_type" : "_ZTIN7android18trait_trivial_ctorIjEE",
   "self_type" : "_ZTIN7android18trait_trivial_ctorIjEE",
   "size" : 1,
   "source_file" : "/system/core/libutils/include/utils/TypeHelpers.h",
   "template_args" : [ "_ZTIj" ]
  },
  {
   "alignment" : 1,
   "linker_set_key" : "_ZTIN7android18trait_trivial_ctorIlEE",
   "name" : "android::trait_trivial_ctor<long>",
   "referenced_type" : "_ZTIN7android18trait_trivial_ctorIlEE",
   "self_type" : "_ZTIN7android18trait_trivial_ctorIlEE",
   "size" : 1,
   "source_file" : "/system/core/libutils/include/utils/TypeHelpers.h",
   "template_args" : [ "_ZTIl" ]
  },
  {
   "alignment" : 1,
   "linker_set_key" : "_ZTIN7android18trait_trivial_ctorImEE",
   "name" : "android::trait_trivial_ctor<unsigned long>",
   "referenced_type" : "_ZTIN7android18trait_trivial_ctorImEE",
   "self_type" : "_ZTIN7android18trait_trivial_ctorImEE",
   "size" : 1,
   "source_file" : "/system/core/libutils/include/utils/TypeHelpers.h",
   "template_args" : [ "_ZTIm" ]
  },
  {
   "alignment" : 1,
   "linker_set_key" : "_ZTIN7android18trait_trivial_ctorIsEE",
   "name" : "android::trait_trivial_ctor<short>",
   "referenced_type" : "_ZTIN7android18trait_trivial_ctorIsEE",
   "self_type" : "_ZTIN7android18trait_trivial_ctorIsEE",
   "size" : 1,
   "source_file" : "/system/core/libutils/include/utils/TypeHelpers.h",
   "template_args" : [ "_ZTIs" ]
  },
  {
   "alignment" : 1,
   "linker_set_key" : "_ZTIN7android18trait_trivial_ctorItEE",
   "name" : "android::trait_trivial_ctor<unsigned short>",
   "referenced_type" : "_ZTIN7android18trait_trivial_ctorItEE",
   "self_type" : "_ZTIN7android18trait_trivial_ctorItEE",
   "size" : 1,
   "source_file" : "/system/core/libutils/include/utils/TypeHelpers.h",
   "template_args" : [ "_ZTIt" ]
  },
  {
   "alignment" : 1,
   "linker_set_key" : "_ZTIN7android18trait_trivial_ctorIvEE",
   "name" : "android::trait_trivial_ctor<void>",
   "referenced_type" : "_ZTIN7android18trait_trivial_ctorIvEE",
   "self_type" : "_ZTIN7android18trait_trivial_ctorIvEE",
   "size" : 1,
   "source_file" : "/system/core/libutils/include/utils/TypeHelpers.h",
   "template_args" : [ "_ZTIv" ]
  },
  {
   "alignment" : 1,
   "linker_set_key" : "_ZTIN7android18trait_trivial_ctorIxEE",
   "name" : "android::trait_trivial_ctor<long long>",
   "referenced_type" : "_ZTIN7android18trait_trivial_ctorIxEE",
   "self_type" : "_ZTIN7android18trait_trivial_ctorIxEE",
   "size" : 1,
   "source_file" : "/system/core/libutils/include/utils/TypeHelpers.h",
   "template_args" : [ "_ZTIx" ]
  },
  {
   "alignment" : 1,
   "linker_set_key" : "_ZTIN7android18trait_trivial_ctorIyEE",
   "name" : "android::trait_trivial_ctor<unsigned long long>",
   "referenced_type" : "_ZTIN7android18trait_trivial_ctorIyEE",
   "self_type" : "_ZTIN7android18trait_trivial_ctorIyEE",
   "size" : 1,
   "source_file" : "/system/core/libutils/include/utils/TypeHelpers.h",
   "template_args" : [ "_ZTIy" ]
  },
  {
   "alignment" : 1,
   "linker_set_key" : "_ZTIN7android18trait_trivial_dtorIbEE",
   "name" : "android::trait_trivial_dtor<bool>",
   "referenced_type" : "_ZTIN7android18trait_trivial_dtorIbEE",
   "self_type" : "_ZTIN7android18trait_trivial_dtorIbEE",
   "size" : 1,
   "source_file" : "/system/core/libutils/include/utils/TypeHelpers.h",
   "template_args" : [ "_ZTIb" ]
  },
  {
   "alignment" : 1,
   "linker_set_key" : "_ZTIN7android18trait_trivial_dtorIcEE",
   "name" : "android::trait_trivial_dtor<char>",
   "referenced_type" : "_ZTIN7android18trait_trivial_dtorIcEE",
   "self_type" : "_ZTIN7android18trait_trivial_dtorIcEE",
   "size" : 1,
   "source_file" : "/system/core/libutils/include/utils/TypeHelpers.h",
   "template_args" : [ "_ZTIc" ]
  },
  {
   "alignment" : 1,
   "linker_set_key" : "_ZTIN7android18trait_trivial_dtorIdEE",
   "name" : "android::trait_trivial_dtor<double>",
   "referenced_type" : "_ZTIN7android18trait_trivial_dtorIdEE",
   "self_type" : "_ZTIN7android18trait_trivial_dtorIdEE",
   "size" : 1,
   "source_file" : "/system/core/libutils/include/utils/TypeHelpers.h",
   "template_args" : [ "_ZTId" ]
  },
  {
   "alignment" : 1,
   "linker_set_key" : "_ZTIN7android18trait_trivial_dtorIfEE",
   "name" : "android::trait_trivial_dtor<float>",
   "referenced_type" : "_ZTIN7android18trait_trivial_dtorIfEE",
   "self_type" : "_ZTIN7android18trait_trivial_dtorIfEE",
   "size" : 1,
   "source_file" : "/system/core/libutils/include/utils/TypeHelpers.h",
   "template_args" : [ "_ZTIf" ]
  },
  {
   "alignment" : 1,
   "linker_set_key" : "_ZTIN7android18trait_trivial_dtorIhEE",
   "name" : "android::trait_trivial_dtor<unsigned char>",
   "referenced_type" : "_ZTIN7android18trait_trivial_dtorIhEE",
   "self_type" : "_ZTIN7android18trait_trivial_dtorIhEE",
   "size" : 1,
   "source_file" : "/system/core/libutils/include/utils/TypeHelpers.h",
   "template_args" : [ "_ZTIh" ]
  },
  {
   "alignment" : 1,
   "linker_set_key" : "_ZTIN7android18trait_trivial_dtorIiEE",
   "name" : "android::trait_trivial_dtor<int>",
   "referenced_type" : "_ZTIN7android18trait_trivial_dtorIiEE",
   "self_type" : "_ZTIN7android18trait_trivial_dtorIiEE",
   "size" : 1,
   "source_file" : "/system/core/libutils/include/utils/TypeHelpers.h",
   "template_args" : [ "_ZTIi" ]
  },
  {
   "alignment" : 1,
   "linker_set_key" : "_ZTIN7android18trait_trivial_dtorIjEE",
   "name" : "android::trait_trivial_dtor<unsigned int>",
   "referenced_type" : "_ZTIN7android18trait_trivial_dtorIjEE",
   "self_type" : "_ZTIN7android18trait_trivial_dtorIjEE",
   "size" : 1,
   "source_file" : "/system/core/libutils/include/utils/TypeHelpers.h",
   "template_args" : [ "_ZTIj" ]
  },
  {
   "alignment" : 1,
   "linker_set_key" : "_ZTIN7android18trait_trivial_dtorIlEE",
   "name" : "android::trait_trivial_dtor<long>",
   "referenced_type" : "_ZTIN7android18trait_trivial_dtorIlEE",
   "self_type" : "_ZTIN7android18trait_trivial_dtorIlEE",
   "size" : 1,
   "source_file" : "/system/core/libutils/include/utils/TypeHelpers.h",
   "template_args" : [ "_ZTIl" ]
  },
  {
   "alignment" : 1,
   "linker_set_key" : "_ZTIN7android18trait_trivial_dtorImEE",
   "name" : "android::trait_trivial_dtor<unsigned long>",
   "referenced_type" : "_ZTIN7android18trait_trivial_dtorImEE",
   "self_type" : "_ZTIN7android18trait_trivial_dtorImEE",
   "size" : 1,
   "source_file" : "/system/core/libutils/include/utils/TypeHelpers.h",
   "template_args" : [ "_ZTIm" ]
  },
  {
   "alignment" : 1,
   "linker_set_key" : "_ZTIN7android18trait_trivial_dtorIsEE",
   "name" : "android::trait_trivial_dtor<short>",
   "referenced_type" : "_ZTIN7android18trait_trivial_dtorIsEE",
   "self_type" : "_ZTIN7android18trait_trivial_dtorIsEE",
   "size" : 1,
   "source_file" : "/system/core/libutils/include/utils/TypeHelpers.h",
   "template_args" : [ "_ZTIs" ]
  },
  {
   "alignment" : 1,
   "linker_set_key" : "_ZTIN7android18trait_trivial_dtorItEE",
   "name" : "android::trait_trivial_dtor<unsigned short>",
   "referenced_type" : "_ZTIN7android18trait_trivial_dtorItEE",
   "self_type" : "_ZTIN7android18trait_trivial_dtorItEE",
   "size" : 1,
   "source_file" : "/system/core/libutils/include/utils/TypeHelpers.h",
   "template_args" : [ "_ZTIt" ]
  },
  {
   "alignment" : 1,
   "linker_set_key" : "_ZTIN7android18trait_trivial_dtorIvEE",
   "name" : "android::trait_trivial_dtor<void>",
   "referenced_type" : "_ZTIN7android18trait_trivial_dtorIvEE",
   "self_type" : "_ZTIN7android18trait_trivial_dtorIvEE",
   "size" : 1,
   "source_file" : "/system/core/libutils/include/utils/TypeHelpers.h",
   "template_args" : [ "_ZTIv" ]
  },
  {
   "alignment" : 1,
   "linker_set_key" : "_ZTIN7android18trait_trivial_dtorIxEE",
   "name" : "android::trait_trivial_dtor<long long>",
   "referenced_type" : "_ZTIN7android18trait_trivial_dtorIxEE",
   "self_type" : "_ZTIN7android18trait_trivial_dtorIxEE",
   "size" : 1,
   "source_file" : "/system/core/libutils/include/utils/TypeHelpers.h",
   "template_args" : [ "_ZTIx" ]
  },
  {
   "alignment" : 1,
   "linker_set_key" : "_ZTIN7android18trait_trivial_dtorIyEE",
   "name" : "android::trait_trivial_dtor<unsigned long long>",
   "referenced_type" : "_ZTIN7android18trait_trivial_dtorIyEE",
   "self_type" : "_ZTIN7android18trait_trivial_dtorIyEE",
   "size" : 1,
   "source_file" : "/system/core/libutils/include/utils/TypeHelpers.h",
   "template_args" : [ "_ZTIy" ]
  },
  {
   "alignment" : 1,
   "linker_set_key" : "_ZTIN7android18trait_trivial_moveINS_7String8EEE",
   "name" : "android::trait_trivial_move<android::String8>",
   "referenced_type" : "_ZTIN7android18trait_trivial_moveINS_7String8EEE",
   "self_type" : "_ZTIN7android18trait_trivial_moveINS_7String8EEE",
   "size" : 1,
   "source_file" : "/system/core/libutils/include/utils/String8.h",
   "template_args" : [ "_ZTIN7android7String8E" ]
  },
  {
   "alignment" : 1,
   "linker_set_key" : "_ZTIN7android18trait_trivial_moveINS_8String16EEE",
   "name" : "android::trait_trivial_move<android::String16>",
   "referenced_type" : "_ZTIN7android18trait_trivial_moveINS_8String16EEE",
   "self_type" : "_ZTIN7android18trait_trivial_moveINS_8String16EEE",
   "size" : 1,
   "source_file" : "/system/core/libutils/include/utils/String16.h",
   "template_args" : [ "_ZTIN7android8String16E" ]
  },
  {
   "alignment" : 1,
   "linker_set_key" : "_ZTIN7android18trait_trivial_moveIbEE",
   "name" : "android::trait_trivial_move<bool>",
   "referenced_type" : "_ZTIN7android18trait_trivial_moveIbEE",
   "self_type" : "_ZTIN7android18trait_trivial_moveIbEE",
   "size" : 1,
   "source_file" : "/system/core/libutils/include/utils/TypeHelpers.h",
   "template_args" : [ "_ZTIb" ]
  },
  {
   "alignment" : 1,
   "linker_set_key" : "_ZTIN7android18trait_trivial_moveIcEE",
   "name" : "android::trait_trivial_move<char>",
   "referenced_type" : "_ZTIN7android18trait_trivial_moveIcEE",
   "self_type" : "_ZTIN7android18trait_trivial_moveIcEE",
   "size" : 1,
   "source_file" : "/system/core/libutils/include/utils/TypeHelpers.h",
   "template_args" : [ "_ZTIc" ]
  },
  {
   "alignment" : 1,
   "linker_set_key" : "_ZTIN7android18trait_trivial_moveIdEE",
   "name" : "android::trait_trivial_move<double>",
   "referenced_type" : "_ZTIN7android18trait_trivial_moveIdEE",
   "self_type" : "_ZTIN7android18trait_trivial_moveIdEE",
   "size" : 1,
   "source_file" : "/system/core/libutils/include/utils/TypeHelpers.h",
   "template_args" : [ "_ZTId" ]
  },
  {
   "alignment" : 1,
   "linker_set_key" : "_ZTIN7android18trait_trivial_moveIfEE",
   "name" : "android::trait_trivial_move<float>",
   "referenced_type" : "_ZTIN7android18trait_trivial_moveIfEE",
   "self_type" : "_ZTIN7android18trait_trivial_moveIfEE",
   "size" : 1,
   "source_file" : "/system/core/libutils/include/utils/TypeHelpers.h",
   "template_args" : [ "_ZTIf" ]
  },
  {
   "alignment" : 1,
   "linker_set_key" : "_ZTIN7android18trait_trivial_moveIhEE",
   "name" : "android::trait_trivial_move<unsigned char>",
   "referenced_type" : "_ZTIN7android18trait_trivial_moveIhEE",
   "self_type" : "_ZTIN7android18trait_trivial_moveIhEE",
   "size" : 1,
   "source_file" : "/system/core/libutils/include/utils/TypeHelpers.h",
   "template_args" : [ "_ZTIh" ]
  },
  {
   "alignment" : 1,
   "linker_set_key" : "_ZTIN7android18trait_trivial_moveIiEE",
   "name" : "android::trait_trivial_move<int>",
   "referenced_type" : "_ZTIN7android18trait_trivial_moveIiEE",
   "self_type" : "_ZTIN7android18trait_trivial_moveIiEE",
   "size" : 1,
   "source_file" : "/system/core/libutils/include/utils/TypeHelpers.h",
   "template_args" : [ "_ZTIi" ]
  },
  {
   "alignment" : 1,
   "linker_set_key" : "_ZTIN7android18trait_trivial_moveIjEE",
   "name" : "android::trait_trivial_move<unsigned int>",
   "referenced_type" : "_ZTIN7android18trait_trivial_moveIjEE",
   "self_type" : "_ZTIN7android18trait_trivial_moveIjEE",
   "size" : 1,
   "source_file" : "/system/core/libutils/include/utils/TypeHelpers.h",
   "template_args" : [ "_ZTIj" ]
  },
  {
   "alignment" : 1,
   "linker_set_key" : "_ZTIN7android18trait_trivial_moveIlEE",
   "name" : "android::trait_trivial_move<long>",
   "referenced_type" : "_ZTIN7android18trait_trivial_moveIlEE",
   "self_type" : "_ZTIN7android18trait_trivial_moveIlEE",
   "size" : 1,
   "source_file" : "/system/core/libutils/include/utils/TypeHelpers.h",
   "template_args" : [ "_ZTIl" ]
  },
  {
   "alignment" : 1,
   "linker_set_key" : "_ZTIN7android18trait_trivial_moveImEE",
   "name" : "android::trait_trivial_move<unsigned long>",
   "referenced_type" : "_ZTIN7android18trait_trivial_moveImEE",
   "self_type" : "_ZTIN7android18trait_trivial_moveImEE",
   "size" : 1,
   "source_file" : "/system/core/libutils/include/utils/TypeHelpers.h",
   "template_args" : [ "_ZTIm" ]
  },
  {
   "alignment" : 1,
   "linker_set_key" : "_ZTIN7android18trait_trivial_moveIsEE",
   "name" : "android::trait_trivial_move<short>",
   "referenced_type" : "_ZTIN7android18trait_trivial_moveIsEE",
   "self_type" : "_ZTIN7android18trait_trivial_moveIsEE",
   "size" : 1,
   "source_file" : "/system/core/libutils/include/utils/TypeHelpers.h",
   "template_args" : [ "_ZTIs" ]
  },
  {
   "alignment" : 1,
   "linker_set_key" : "_ZTIN7android18trait_trivial_moveItEE",
   "name" : "android::trait_trivial_move<unsigned short>",
   "referenced_type" : "_ZTIN7android18trait_trivial_moveItEE",
   "self_type" : "_ZTIN7android18trait_trivial_moveItEE",
   "size" : 1,
   "source_file" : "/system/core/libutils/include/utils/TypeHelpers.h",
   "template_args" : [ "_ZTIt" ]
  },
  {
   "alignment" : 1,
   "linker_set_key" : "_ZTIN7android18trait_trivial_moveIvEE",
   "name" : "android::trait_trivial_move<void>",
   "referenced_type" : "_ZTIN7android18trait_trivial_moveIvEE",
   "self_type" : "_ZTIN7android18trait_trivial_moveIvEE",
   "size" : 1,
   "source_file" : "/system/core/libutils/include/utils/TypeHelpers.h",
   "template_args" : [ "_ZTIv" ]
  },
  {
   "alignment" : 1,
   "linker_set_key" : "_ZTIN7android18trait_trivial_moveIxEE",
   "name" : "android::trait_trivial_move<long long>",
   "referenced_type" : "_ZTIN7android18trait_trivial_moveIxEE",
   "self_type" : "_ZTIN7android18trait_trivial_moveIxEE",
   "size" : 1,
   "source_file" : "/system/core/libutils/include/utils/TypeHelpers.h",
   "template_args" : [ "_ZTIx" ]
  },
  {
   "alignment" : 1,
   "linker_set_key" : "_ZTIN7android18trait_trivial_moveIyEE",
   "name" : "android::trait_trivial_move<unsigned long long>",
   "referenced_type" : "_ZTIN7android18trait_trivial_moveIyEE",
   "self_type" : "_ZTIN7android18trait_trivial_moveIyEE",
   "size" : 1,
   "source_file" : "/system/core/libutils/include/utils/TypeHelpers.h",
   "template_args" : [ "_ZTIy" ]
  },
  {
   "alignment" : 4,
   "base_specifiers" :
   [
    {
     "referenced_type" : "_ZTIN7android12LightRefBaseINS_19VirtualLightRefBaseEEE"
    }
   ],
   "linker_set_key" : "_ZTIN7android19VirtualLightRefBaseE",
   "name" : "android::VirtualLightRefBase",
   "record_kind" : "class",
   "referenced_type" : "_ZTIN7android19VirtualLightRefBaseE",
   "self_type" : "_ZTIN7android19VirtualLightRefBaseE",
   "size" : 8,
   "source_file" : "/system/core/libutils/include/utils/LightRefBase.h",
   "vtable_components" :
   [
    {
     "kind" : "offset_to_top"
    },
    {
     "kind" : "rtti",
     "mangled_component_name" : "_ZTIN7android19VirtualLightRefBaseE"
    },
    {
     "kind" : "complete_dtor_pointer",
     "mangled_component_name" : "_ZN7android19VirtualLightRefBaseD1Ev"
    },
    {
     "kind" : "deleting_dtor_pointer",
     "mangled_component_name" : "_ZN7android19VirtualLightRefBaseD0Ev"
    }
   ]
  },
  {
   "alignment" : 4,
   "fields" :
   [
    {
     "access" : "private",
     "field_name" : "m_ptr",
     "referenced_type" : "_ZTIPN7android10IInterfaceE"
    }
   ],
   "linker_set_key" : "_ZTIN7android2spINS_10IInterfaceEEE",
   "name" : "android::sp<android::IInterface>",
   "record_kind" : "class",
   "referenced_type" : "_ZTIN7android2spINS_10IInterfaceEEE",
   "self_type" : "_ZTIN7android2spINS_10IInterfaceEEE",
   "size" : 4,
   "source_file" : "/system/core/libutils/include/utils/StrongPointer.h",
   "template_args" : [ "_ZTIN7android10IInterfaceE" ]
  },
  {
   "alignment" : 4,
   "fields" :
   [
    {
     "access" : "private",
     "field_name" : "m_ptr",
     "referenced_type" : "_ZTIPN7android11IMemoryHeapE"
    }
   ],
   "linker_set_key" : "_ZTIN7android2spINS_11IMemoryHeapEEE",
   "name" : "android::sp<android::IMemoryHeap>",
   "record_kind" : "class",
   "referenced_type" : "_ZTIN7android2spINS_11IMemoryHeapEEE",
   "self_type" : "_ZTIN7android2spINS_11IMemoryHeapEEE",
   "size" : 4,
   "source_file" : "/system/core/libutils/include/utils/StrongPointer.h",
   "template_args" : [ "_ZTIN7android11IMemoryHeapE" ]
  },
  {
   "alignment" : 4,
   "fields" :
   [
    {
     "access" : "private",
     "field_name" : "m_ptr",
     "referenced_type" : "_ZTIPN7android7IBinderE"
    }
   ],
   "linker_set_key" : "_ZTIN7android2spINS_7IBinderEEE",
   "name" : "android::sp<android::IBinder>",
   "record_kind" : "class",
   "referenced_type" : "_ZTIN7android2spINS_7IBinderEEE",
   "self_type" : "_ZTIN7android2spINS_7IBinderEEE",
   "size" : 4,
   "source_file" : "/system/core/libutils/include/utils/StrongPointer.h",
   "template_args" : [ "_ZTIN7android7IBinderE" ]
  },
  {
   "alignment" : 4,
   "fields" :
   [
    {
     "access" : "private",
     "field_name" : "m_ptr",
     "referenced_type" : "_ZTIPN7android8hardware10HidlMemoryE"
    }
   ],
   "linker_set_key" : "_ZTIN7android2spINS_8hardware10HidlMemoryEEE",
   "name" : "android::sp<android::hardware::HidlMemory>",
   "record_kind" : "class",
   "referenced_type" : "_ZTIN7android2spINS_8hardware10HidlMemoryEEE",
   "self_type" : "_ZTIN7android2spINS_8hardware10HidlMemoryEEE",
   "size" : 4,
   "source_file" : "/system/core/libutils/include/utils/StrongPointer.h",
   "template_args" : [ "_ZTIN7android8hardware10HidlMemoryE" ]
  },
  {
   "alignment" : 4,
   "fields" :
   [
    {
     "access" : "private",
     "field_name" : "m_ptr",
     "referenced_type" : "_ZTIPN7android8hardware20hidl_death_recipientE"
    }
   ],
   "linker_set_key" : "_ZTIN7android2spINS_8hardware20hidl_death_recipientEEE",
   "name" : "android::sp<android::hardware::hidl_death_recipient>",
   "record_kind" : "class",
   "referenced_type" : "_ZTIN7android2spINS_8hardware20hidl_death_recipientEEE",
   "self_type" : "_ZTIN7android2spINS_8hardware20hidl_death_recipientEEE",
   "size" : 4,
   "source_file" : "/system/core/libutils/include/utils/StrongPointer.h",
   "template_args" : [ "_ZTIN7android8hardware20hidl_death_recipientE" ]
  },
  {
   "alignment" : 4,
   "base_specifiers" :
   [
    {
     "referenced_type" : "_ZTIN7android7IBinderE"
    }
   ],
   "fields" :
   [
    {
     "access" : "private",
     "field_name" : "mExtras",
     "field_offset" : 32,
     "referenced_type" : "_ZTINSt3__16atomicIPN7android7BBinder6ExtrasEEE"
    },
    {
     "access" : "private",
     "field_offset" : 64,
     "referenced_type" : "_ZTIN7android7BBinderUt_E"
    }
   ],
   "linker_set_key" : "_ZTIN7android7BBinderE",
   "name" : "android::BBinder",
   "record_kind" : "class",
   "referenced_type" : "_ZTIN7android7BBinderE",
   "self_type" : "_ZTIN7android7BBinderE",
   "size" : 20,
   "source_file" : "/frameworks/native/libs/binder/include/binder/Binder.h",
   "vtable_components" :
   [
    {
     "component_value" : 12,
     "kind" : "vbase_offset"
    },
    {
     "kind" : "offset_to_top"
    },
    {
     "kind" : "rtti",
     "mangled_component_name" : "_ZTIN7android7BBinderE"
    },
    {
     "mangled_component_name" : "_ZN7android7IBinder19queryLocalInterfaceERKNS_8String16E"
    },
    {
     "mangled_component_name" : "_ZNK7android7BBinder22getInterfaceDescriptorEv"
    },
    {
     "mangled_component_name" : "_ZNK7android7BBinder13isBinderAliveEv"
    },
    {
     "mangled_component_name" : "_ZN7android7BBinder10pingBinderEv"
    },
    {
     "mangled_component_name" : "_ZN7android7BBinder4dumpEiRKNS_6VectorINS_8String16EEE"
    },
    {
     "mangled_component_name" : "_ZN7android7BBinder8transactEjRKNS_6ParcelEPS1_j"
    },
    {
     "mangled_component_name" : "_ZN7android7BBinder11linkToDeathERKNS_2spINS_7IBinder14DeathRecipientEEEPvj"
    },
    {
     "mangled_component_name" : "_ZN7android7BBinder13unlinkToDeathERKNS_2wpINS_7IBinder14DeathRecipientEEEPvjPS4_"
    },
    {
     "mangled_component_name" : "_ZNK7android7IBinder13checkSubclassEPKv"
    },
    {
     "mangled_component_name" : "_ZN7android7BBinder12attachObjectEPKvPvS3_PFvS2_S3_S3_E"
    },
    {
     "mangled_component_name" : "_ZNK7android7BBinder10findObjectEPKv"
    },
    {
     "mangled_component_name" : "_ZN7android7BBinder12detachObjectEPKv"
    },
    {
     "mangled_component_name" : "_ZN7android7BBinder11localBinderEv"
    },
    {
     "mangled_component_name" : "_ZN7android7IBinder12remoteBinderEv"
    },
    {
     "kind" : "complete_dtor_pointer",
     "mangled_component_name" : "_ZN7android7BBinderD1Ev"
    },
    {
     "kind" : "deleting_dtor_pointer",
     "mangled_component_name" : "_ZN7android7BBinderD0Ev"
    },
    {
     "mangled_component_name" : "_ZN7android7BBinder10onTransactEjRKNS_6ParcelEPS1_j"
    },
    {
     "kind" : "vcall_offset"
    },
    {
     "kind" : "vcall_offset"
    },
    {
     "kind" : "vcall_offset"
    },
    {
     "kind" : "vcall_offset"
    },
    {
     "component_value" : -12,
     "kind" : "vcall_offset"
    },
    {
     "component_value" : -12,
     "kind" : "offset_to_top"
    },
    {
     "kind" : "rtti",
     "mangled_component_name" : "_ZTIN7android7BBinderE"
    },
    {
     "kind" : "complete_dtor_pointer",
     "mangled_component_name" : "_ZTv0_n12_N7android7BBinderD1Ev"
    },
    {
     "kind" : "deleting_dtor_pointer",
     "mangled_component_name" : "_ZTv0_n12_N7android7BBinderD0Ev"
    },
    {
     "mangled_component_name" : "_ZN7android7RefBase10onFirstRefEv"
    },
    {
     "mangled_component_name" : "_ZN7android7RefBase15onLastStrongRefEPKv"
    },
    {
     "mangled_component_name" : "_ZN7android7RefBase20onIncStrongAttemptedEjPKv"
    },
    {
     "mangled_component_name" : "_ZN7android7RefBase13onLastWeakRefEPKv"
    }
   ]
  },
  {
   "access" : "private",
   "alignment" : 4,
   "fields" :
   [
    {
     "field_name" : "mStability",
     "referenced_type" : "_ZTIi"
    },
    {
     "field_name" : "mReserved0",
     "referenced_type" : "_ZTIPv"
    }
   ],
   "is_anonymous" : true,
   "linker_set_key" : "_ZTIN7android7BBinderUt_E",
   "name" : "android::BBinder::(anonymous union at frameworks/native/libs/binder/include/binder/Binder.h:97:5)",
   "record_kind" : "union",
   "referenced_type" : "_ZTIN7android7BBinderUt_E",
   "self_type" : "_ZTIN7android7BBinderUt_E",
   "size" : 4,
   "source_file" : "/frameworks/native/libs/binder/include/binder/Binder.h"
  },
  {
   "alignment" : 4,
   "base_specifiers" :
   [
    {
     "is_virtual" : true,
     "referenced_type" : "_ZTIN7android7RefBaseE"
    }
   ],
   "linker_set_key" : "_ZTIN7android7IBinder14DeathRecipientE",
   "name" : "android::IBinder::DeathRecipient",
   "record_kind" : "class",
   "referenced_type" : "_ZTIN7android7IBinder14DeathRecipientE",
   "self_type" : "_ZTIN7android7IBinder14DeathRecipientE",
   "size" : 12,
   "source_file" : "/frameworks/native/libs/binder/include/binder/IBinder.h",
   "vtable_components" :
   [
    {
     "component_value" : 4,
     "kind" : "vbase_offset"
    },
    {
     "kind" : "offset_to_top"
    },
    {
     "kind" : "rtti",
     "mangled_component_name" : "_ZTIN7android7IBinder14DeathRecipientE"
    },
    {
     "is_pure" : true,
     "mangled_component_name" : "_ZN7android7IBinder14DeathRecipient10binderDiedERKNS_2wpIS0_EE"
    },
    {
     "kind" : "complete_dtor_pointer",
     "mangled_component_name" : "_ZN7android7IBinder14DeathRecipientD1Ev"
    },
    {
     "kind" : "deleting_dtor_pointer",
     "mangled_component_name" : "_ZN7android7IBinder14DeathRecipientD0Ev"
    },
    {
     "kind" : "vcall_offset"
    },
    {
     "kind" : "vcall_offset"
    },
    {
     "kind" : "vcall_offset"
    },
    {
     "kind" : "vcall_offset"
    },
    {
     "component_value" : -4,
     "kind" : "vcall_offset"
    },
    {
     "component_value" : -4,
     "kind" : "offset_to_top"
    },
    {
     "kind" : "rtti",
     "mangled_component_name" : "_ZTIN7android7IBinder14DeathRecipientE"
    },
    {
     "kind" : "complete_dtor_pointer",
     "mangled_component_name" : "_ZTv0_n12_N7android7IBinder14DeathRecipientD1Ev"
    },
    {
     "kind" : "deleting_dtor_pointer",
     "mangled_component_name" : "_ZTv0_n12_N7android7IBinder14DeathRecipientD0Ev"
    },
    {
     "mangled_component_name" : "_ZN7android7RefBase10onFirstRefEv"
    },
    {
     "mangled_component_name" : "_ZN7android7RefBase15onLastStrongRefEPKv"
    },
    {
     "mangled_component_name" : "_ZN7android7RefBase20onIncStrongAttemptedEjPKv"
    },
    {
     "mangled_component_name" : "_ZN7android7RefBase13onLastWeakRefEPKv"
    }
   ]
  },
  {
   "alignment" : 4,
   "base_specifiers" :
   [
    {
     "is_virtual" : true,
     "referenced_type" : "_ZTIN7android7RefBaseE"
    }
   ],
   "linker_set_key" : "_ZTIN7android7IBinderE",
   "name" : "android::IBinder",
   "record_kind" : "class",
   "referenced_type" : "_ZTIN7android7IBinderE",
   "self_type" : "_ZTIN7android7IBinderE",
   "size" : 12,
   "source_file" : "/frameworks/native/libs/binder/include/binder/IBinder.h",
   "vtable_components" :
   [
    {
     "component_value" : 4,
     "kind" : "vbase_offset"
    },
    {
     "kind" : "offset_to_top"
    },
    {
     "kind" : "rtti",
     "mangled_component_name" : "_ZTIN7android7IBinderE"
    },
    {
     "mangled_component_name" : "_ZN7android7IBinder19queryLocalInterfaceERKNS_8String16E"
    },
    {
     "is_pure" : true,
     "mangled_component_name" : "_ZNK7android7IBinder22getInterfaceDescriptorEv"
    },
    {
     "is_pure" : true,
     "mangled_component_name" : "_ZNK7android7IBinder13isBinderAliveEv"
    },
    {
     "is_pure" : true,
     "mangled_component_name" : "_ZN7android7IBinder10pingBinderEv"
    },
    {
     "is_pure" : true,
     "mangled_component_name" : "_ZN7android7IBinder4dumpEiRKNS_6VectorINS_8String16EEE"
    },
    {
     "is_pure" : true,
     "mangled_component_name" : "_ZN7android7IBinder8transactEjRKNS_6ParcelEPS1_j"
    },
    {
     "is_pure" : true,
     "mangled_component_name" : "_ZN7android7IBinder11linkToDeathERKNS_2spINS0_14DeathRecipientEEEPvj"
    },
    {
     "is_pure" : true,
     "mangled_component_name" : "_ZN7android7IBinder13unlinkToDeathERKNS_2wpINS0_14DeathRecipientEEEPvjPS3_"
    },
    {
     "mangled_component_name" : "_ZNK7android7IBinder13checkSubclassEPKv"
    },
    {
     "is_pure" : true,
     "mangled_component_name" : "_ZN7android7IBinder12attachObjectEPKvPvS3_PFvS2_S3_S3_E"
    },
    {
     "is_pure" : true,
     "mangled_component_name" : "_ZNK7android7IBinder10findObjectEPKv"
    },
    {
     "is_pure" : true,
     "mangled_component_name" : "_ZN7android7IBinder12detachObjectEPKv"
    },
    {
     "mangled_component_name" : "_ZN7android7IBinder11localBinderEv"
    },
    {
     "mangled_component_name" : "_ZN7android7IBinder12remoteBinderEv"
    },
    {
     "kind" : "complete_dtor_pointer",
     "mangled_component_name" : "_ZN7android7IBinderD1Ev"
    },
    {
     "kind" : "deleting_dtor_pointer",
     "mangled_component_name" : "_ZN7android7IBinderD0Ev"
    },
    {
     "kind" : "vcall_offset"
    },
    {
     "kind" : "vcall_offset"
    },
    {
     "kind" : "vcall_offset"
    },
    {
     "kind" : "vcall_offset"
    },
    {
     "component_value" : -4,
     "kind" : "vcall_offset"
    },
    {
     "component_value" : -4,
     "kind" : "offset_to_top"
    },
    {
     "kind" : "rtti",
     "mangled_component_name" : "_ZTIN7android7IBinderE"
    },
    {
     "kind" : "complete_dtor_pointer",
     "mangled_component_name" : "_ZTv0_n12_N7android7IBinderD1Ev"
    },
    {
     "kind" : "deleting_dtor_pointer",
     "mangled_component_name" : "_ZTv0_n12_N7android7IBinderD0Ev"
    },
    {
     "mangled_component_name" : "_ZN7android7RefBase10onFirstRefEv"
    },
    {
     "mangled_component_name" : "_ZN7android7RefBase15onLastStrongRefEPKv"
    },
    {
     "mangled_component_name" : "_ZN7android7RefBase20onIncStrongAttemptedEjPKv"
    },
    {
     "mangled_component_name" : "_ZN7android7RefBase13onLastWeakRefEPKv"
    }
   ]
  },
  {
   "alignment" : 4,
   "base_specifiers" :
   [
    {
     "referenced_type" : "_ZTIN7android10IInterfaceE"
    }
   ],
   "linker_set_key" : "_ZTIN7android7IMemoryE",
   "name" : "android::IMemory",
   "record_kind" : "class",
   "referenced_type" : "_ZTIN7android7IMemoryE",
   "self_type" : "_ZTIN7android7IMemoryE",
   "size" : 12,
   "source_file" : "/frameworks/native/libs/binder/include/binder/IMemory.h",
   "vtable_components" :
   [
    {
     "component_value" : 4,
     "kind" : "vbase_offset"
    },
    {
     "kind" : "offset_to_top"
    },
    {
     "kind" : "rtti",
     "mangled_component_name" : "_ZTIN7android7IMemoryE"
    },
    {
     "kind" : "complete_dtor_pointer",
     "mangled_component_name" : "_ZN7android7IMemoryD1Ev"
    },
    {
     "kind" : "deleting_dtor_pointer",
     "mangled_component_name" : "_ZN7android7IMemoryD0Ev"
    },
    {
     "is_pure" : true,
     "mangled_component_name" : "_ZN7android10IInterface10onAsBinderEv"
    },
    {
     "mangled_component_name" : "_ZNK7android7IMemory22getInterfaceDescriptorEv"
    },
    {
     "is_pure" : true,
     "mangled_component_name" : "_ZNK7android7IMemory9getMemoryEPiPj"
    },
    {
     "kind" : "vcall_offset"
    },
    {
     "kind" : "vcall_offset"
    },
    {
     "kind" : "vcall_offset"
    },
    {
     "kind" : "vcall_offset"
    },
    {
     "component_value" : -4,
     "kind" : "vcall_offset"
    },
    {
     "component_value" : -4,
     "kind" : "offset_to_top"
    },
    {
     "kind" : "rtti",
     "mangled_component_name" : "_ZTIN7android7IMemoryE"
    },
    {
     "kind" : "complete_dtor_pointer",
     "mangled_component_name" : "_ZTv0_n12_N7android7IMemoryD1Ev"
    },
    {
     "kind" : "deleting_dtor_pointer",
     "mangled_component_name" : "_ZTv0_n12_N7android7IMemoryD0Ev"
    },
    {
     "mangled_component_name" : "_ZN7android7RefBase10onFirstRefEv"
    },
    {
     "mangled_component_name" : "_ZN7android7RefBase15onLastStrongRefEPKv"
    },
    {
     "mangled_component_name" : "_ZN7android7RefBase20onIncStrongAttemptedEjPKv"
    },
    {
     "mangled_component_name" : "_ZN7android7RefBase13onLastWeakRefEPKv"
    }
   ]
  },
  {
   "alignment" : 1,
   "linker_set_key" : "_ZTIN7android7RefBase12weakref_typeE",
   "name" : "android::RefBase::weakref_type",
   "record_kind" : "class",
   "referenced_type" : "_ZTIN7android7RefBase12weakref_typeE",
   "self_type" : "_ZTIN7android7RefBase12weakref_typeE",
   "size" : 1,
   "source_file" : "/system/core/libutils/include/utils/RefBase.h"
  },
  {
   "alignment" : 4,
   "fields" :
   [
    {
     "access" : "private",
     "field_name" : "mRefs",
     "field_offset" : 32,
     "referenced_type" : "_ZTIKPN7android7RefBase12weakref_implE"
    }
   ],
   "linker_set_key" : "_ZTIN7android7RefBaseE",
   "name" : "android::RefBase",
   "record_kind" : "class",
   "referenced_type" : "_ZTIN7android7RefBaseE",
   "self_type" : "_ZTIN7android7RefBaseE",
   "size" : 8,
   "source_file" : "/system/core/libutils/include/utils/RefBase.h",
   "vtable_components" :
   [
    {
     "kind" : "offset_to_top"
    },
    {
     "kind" : "rtti",
     "mangled_component_name" : "_ZTIN7android7RefBaseE"
    },
    {
     "kind" : "complete_dtor_pointer",
     "mangled_component_name" : "_ZN7android7RefBaseD1Ev"
    },
    {
     "kind" : "deleting_dtor_pointer",
     "mangled_component_name" : "_ZN7android7RefBaseD0Ev"
    },
    {
     "mangled_component_name" : "_ZN7android7RefBase10onFirstRefEv"
    },
    {
     "mangled_component_name" : "_ZN7android7RefBase15onLastStrongRefEPKv"
    },
    {
     "mangled_component_name" : "_ZN7android7RefBase20onIncStrongAttemptedEjPKv"
    },
    {
     "mangled_component_name" : "_ZN7android7RefBase13onLastWeakRefEPKv"
    }
   ]
  },
  {
   "alignment" : 4,
   "fields" :
   [
    {
     "access" : "private",
     "field_name" : "mString",
     "referenced_type" : "_ZTIPKc"
    }
   ],
   "linker_set_key" : "_ZTIN7android7String8E",
   "name" : "android::String8",
   "record_kind" : "class",
   "referenced_type" : "_ZTIN7android7String8E",
   "self_type" : "_ZTIN7android7String8E",
   "size" : 4,
   "source_file" : "/system/core/libutils/include/utils/String8.h"
  },
  {
   "alignment" : 4,
   "base_specifiers" :
   [
    {
     "referenced_type" : "_ZTIN7android11BnInterfaceINS_7IMemoryEEE"
    }
   ],
   "linker_set_key" : "_ZTIN7android8BnMemoryE",
   "name" : "android::BnMemory",
   "record_kind" : "class",
   "referenced_type" : "_ZTIN7android8BnMemoryE",
   "self_type" : "_ZTIN7android8BnMemoryE",
   "size" : 24,
   "source_file" : "/frameworks/native/libs/binder/include/binder/IMemory.h",
   "vtable_components" :
   [
    {
     "component_value" : 16,
     "kind" : "vbase_offset"
    },
    {
     "kind" : "offset_to_top"
    },
    {
     "kind" : "rtti",
     "mangled_component_name" : "_ZTIN7android8BnMemoryE"
    },
    {
     "kind" : "complete_dtor_pointer",
     "mangled_component_name" : "_ZN7android8BnMemoryD1Ev"
    },
    {
     "kind" : "deleting_dtor_pointer",
     "mangled_component_name" : "_ZN7android8BnMemoryD0Ev"
    },
    {
     "mangled_component_name" : "_ZN7android11BnInterfaceINS_7IMemoryEE10onAsBinderEv"
    },
    {
     "mangled_component_name" : "_ZNK7android11BnInterfaceINS_7IMemoryEE22getInterfaceDescriptorEv"
    },
    {
     "is_pure" : true,
     "mangled_component_name" : "_ZNK7android7IMemory9getMemoryEPiPj"
    },
    {
     "mangled_component_name" : "_ZN7android11BnInterfaceINS_7IMemoryEE19queryLocalInterfaceERKNS_8String16E"
    },
    {
     "mangled_component_name" : "_ZN7android8BnMemory10onTransactEjRKNS_6ParcelEPS1_j"
    },
    {
     "component_value" : 12,
     "kind" : "vbase_offset"
    },
    {
     "component_value" : -4,
     "kind" : "offset_to_top"
    },
    {
     "kind" : "rtti",
     "mangled_component_name" : "_ZTIN7android8BnMemoryE"
    },
    {
     "mangled_component_name" : "_ZThn4_N7android11BnInterfaceINS_7IMemoryEE19queryLocalInterfaceERKNS_8String16E"
    },
    {
     "mangled_component_name" : "_ZThn4_NK7android11BnInterfaceINS_7IMemoryEE22getInterfaceDescriptorEv"
    },
    {
     "mangled_component_name" : "_ZNK7android7BBinder13isBinderAliveEv"
    },
    {
     "mangled_component_name" : "_ZN7android7BBinder10pingBinderEv"
    },
    {
     "mangled_component_name" : "_ZN7android7BBinder4dumpEiRKNS_6VectorINS_8String16EEE"
    },
    {
     "mangled_component_name" : "_ZN7android7BBinder8transactEjRKNS_6ParcelEPS1_j"
    },
    {
     "mangled_component_name" : "_ZN7android7BBinder11linkToDeathERKNS_2spINS_7IBinder14DeathRecipientEEEPvj"
    },
    {
     "mangled_component_name" : "_ZN7android7BBinder13unlinkToDeathERKNS_2wpINS_7IBinder14DeathRecipientEEEPvjPS4_"
    },
    {
     "mangled_component_name" : "_ZNK7android7IBinder13checkSubclassEPKv"
    },
    {
     "mangled_component_name" : "_ZN7android7BBinder12attachObjectEPKvPvS3_PFvS2_S3_S3_E"
    },
    {
     "mangled_component_name" : "_ZNK7android7BBinder10findObjectEPKv"
    },
    {
     "mangled_component_name" : "_ZN7android7BBinder12detachObjectEPKv"
    },
    {
     "mangled_component_name" : "_ZN7android7BBinder11localBinderEv"
    },
    {
     "mangled_component_name" : "_ZN7android7IBinder12remoteBinderEv"
    },
    {
     "kind" : "complete_dtor_pointer",
     "mangled_component_name" : "_ZThn4_N7android8BnMemoryD1Ev"
    },
    {
     "kind" : "deleting_dtor_pointer",
     "mangled_component_name" : "_ZThn4_N7android8BnMemoryD0Ev"
    },
    {
     "mangled_component_name" : "_ZThn4_N7android8BnMemory10onTransactEjRKNS_6ParcelEPS1_j"
    },
    {
     "kind" : "vcall_offset"
    },
    {
     "kind" : "vcall_offset"
    },
    {
     "kind" : "vcall_offset"
    },
    {
     "kind" : "vcall_offset"
    },
    {
     "component_value" : -16,
     "kind" : "vcall_offset"
    },
    {
     "component_value" : -16,
     "kind" : "offset_to_top"
    },
    {
     "kind" : "rtti",
     "mangled_component_name" : "_ZTIN7android8BnMemoryE"
    },
    {
     "kind" : "complete_dtor_pointer",
     "mangled_component_name" : "_ZTv0_n12_N7android8BnMemoryD1Ev"
    },
    {
     "kind" : "deleting_dtor_pointer",
     "mangled_component_name" : "_ZTv0_n12_N7android8BnMemoryD0Ev"
    },
    {
     "mangled_component_name" : "_ZN7android7RefBase10onFirstRefEv"
    },
    {
     "mangled_component_name" : "_ZN7android7RefBase15onLastStrongRefEPKv"
    },
    {
     "mangled_component_name" : "_ZN7android7RefBase20onIncStrongAttemptedEjPKv"
    },
    {
     "mangled_component_name" : "_ZN7android7RefBase13onLastWeakRefEPKv"
    }
   ]
  },
  {
   "alignment" : 4,
   "fields" :
   [
    {
     "access" : "private",
     "field_name" : "mString",
     "referenced_type" : "_ZTIPKDs"
    }
   ],
   "linker_set_key" : "_ZTIN7android8String16E",
   "name" : "android::String16",
   "record_kind" : "class",
   "referenced_type" : "_ZTIN7android8String16E",
   "self_type" : "_ZTIN7android8String16E",
   "size" : 4,
   "source_file" : "/system/core/libutils/include/utils/String16.h"
  },
  {
   "alignment" : 8,
   "base_specifiers" :
   [
    {
     "is_virtual" : true,
     "referenced_type" : "_ZTIN7android8hardware11hidl_memoryE"
    },
    {
     "is_virtual" : true,
     "referenced_type" : "_ZTIN7android7RefBaseE"
    }
   ],
   "linker_set_key" : "_ZTIN7android8hardware10HidlMemoryE",
   "name" : "android::hardware::HidlMemory",
   "record_kind" : "class",
   "referenced_type" : "_ZTIN7android8hardware10HidlMemoryE",
   "self_type" : "_ZTIN7android8hardware10HidlMemoryE",
   "size" : 56,
   "source_file" : "/system/libhidl/base/include/hidl/HidlSupport.h",
   "vtable_components" :
   [
    {
     "component_value" : 48,
     "kind" : "vbase_offset"
    },
    {
     "component_value" : 8,
     "kind" : "vbase_offset"
    },
    {
     "kind" : "offset_to_top"
    },
    {
     "kind" : "rtti",
     "mangled_component_name" : "_ZTIN7android8hardware10HidlMemoryE"
    },
    {
     "kind" : "complete_dtor_pointer",
     "mangled_component_name" : "_ZN7android8hardware10HidlMemoryD1Ev"
    },
    {
     "kind" : "deleting_dtor_pointer",
     "mangled_component_name" : "_ZN7android8hardware10HidlMemoryD0Ev"
    },
    {
     "kind" : "vcall_offset"
    },
    {
     "kind" : "vcall_offset"
    },
    {
     "kind" : "vcall_offset"
    },
    {
     "kind" : "vcall_offset"
    },
    {
     "component_value" : -48,
     "kind" : "vcall_offset"
    },
    {
     "component_value" : -48,
     "kind" : "offset_to_top"
    },
    {
     "kind" : "rtti",
     "mangled_component_name" : "_ZTIN7android8hardware10HidlMemoryE"
    },
    {
     "kind" : "complete_dtor_pointer",
     "mangled_component_name" : "_ZTv0_n12_N7android8hardware10HidlMemoryD1Ev"
    },
    {
     "kind" : "deleting_dtor_pointer",
     "mangled_component_name" : "_ZTv0_n12_N7android8hardware10HidlMemoryD0Ev"
    },
    {
     "mangled_component_name" : "_ZN7android7RefBase10onFirstRefEv"
    },
    {
     "mangled_component_name" : "_ZN7android7RefBase15onLastStrongRefEPKv"
    },
    {
     "mangled_component_name" : "_ZN7android7RefBase20onIncStrongAttemptedEjPKv"
    },
    {
     "mangled_component_name" : "_ZN7android7RefBase13onLastWeakRefEPKv"
    }
   ]
  },
  {
   "alignment" : 8,
   "fields" :
   [
    {
     "access" : "private",
     "field_name" : "mHandle",
     "referenced_type" : "_ZTIN7android8hardware7details12hidl_pointerIK13native_handleEE"
    },
    {
     "access" : "private",
     "field_name" : "mOwnsHandle",
     "field_offset" : 64,
     "referenced_type" : "_ZTIb"
    },
    {
     "access" : "private",
     "field_name" : "mPad",
     "field_offset" : 72,
     "referenced_type" : "_ZTIA7_h"
    }
   ],
   "linker_set_key" : "_ZTIN7android8hardware11hidl_handleE",
   "name" : "android::hardware::hidl_handle",
   "referenced_type" : "_ZTIN7android8hardware11hidl_handleE",
   "self_type" : "_ZTIN7android8hardware11hidl_handleE",
   "size" : 16,
   "source_file" : "/system/libhidl/base/include/hidl/HidlSupport.h"
  },
  {
   "alignment" : 8,
   "fields" :
   [
    {
     "access" : "private",
     "field_name" : "mHandle",
     "referenced_type" : "_ZTIN7android8hardware11hidl_handleE"
    },
    {
     "access" : "private",
     "field_name" : "mSize",
     "field_offset" : 128,
     "referenced_type" : "_ZTIy"
    },
    {
     "access" : "private",
     "field_name" : "mName",
     "field_offset" : 192,
     "referenced_type" : "_ZTIN7android8hardware11hidl_stringE"
    }
   ],
   "linker_set_key" : "_ZTIN7android8hardware11hidl_memoryE",
   "name" : "android::hardware::hidl_memory",
   "referenced_type" : "_ZTIN7android8hardware11hidl_memoryE",
   "self_type" : "_ZTIN7android8hardware11hidl_memoryE",
   "size" : 40,
   "source_file" : "/system/libhidl/base/include/hidl/HidlSupport.h"
  },
  {
   "alignment" : 8,
   "fields" :
   [
    {
     "access" : "private",
     "field_name" : "mBuffer",
     "referenced_type" : "_ZTIN7android8hardware7details12hidl_pointerIKcEE"
    },
    {
     "access" : "private",
     "field_name" : "mSize",
     "field_offset" : 64,
     "referenced_type" : "_ZTIj"
    },
    {
     "access" : "private",
     "field_name" : "mOwnsBuffer",
     "field_offset" : 96,
     "referenced_type" : "_ZTIb"
    },
    {
     "access" : "private",
     "field_name" : "mPad",
     "field_offset" : 104,
     "referenced_type" : "_ZTIA3_h"
    }
   ],
   "linker_set_key" : "_ZTIN7android8hardware11hidl_stringE",
   "name" : "android::hardware::hidl_string",
   "referenced_type" : "_ZTIN7android8hardware11hidl_stringE",
   "self_type" : "_ZTIN7android8hardware11hidl_stringE",
   "size" : 16,
   "source_file" : "/system/libhidl/base/include/hidl/HidlSupport.h"
  },
  {
   "alignment" : 2,
   "fields" :
   [
    {
     "access" : "private",
     "field_name" : "mMajor",
     "referenced_type" : "_ZTIt"
    },
    {
     "access" : "private",
     "field_name" : "mMinor",
     "field_offset" : 16,
     "referenced_type" : "_ZTIt"
    }
   ],
   "linker_set_key" : "_ZTIN7android8hardware12hidl_versionE",
   "name" : "android::hardware::hidl_version",
   "referenced_type" : "_ZTIN7android8hardware12hidl_versionE",
   "self_type" : "_ZTIN7android8hardware12hidl_versionE",
   "size" : 4,
   "source_file" : "/system/libhidl/base/include/hidl/HidlSupport.h"
  },
  {
   "alignment" : 4,
   "base_specifiers" :
   [
    {
     "is_virtual" : true,
     "referenced_type" : "_ZTIN7android7RefBaseE"
    }
   ],
   "linker_set_key" : "_ZTIN7android8hardware20hidl_death_recipientE",
   "name" : "android::hardware::hidl_death_recipient",
   "referenced_type" : "_ZTIN7android8hardware20hidl_death_recipientE",
   "self_type" : "_ZTIN7android8hardware20hidl_death_recipientE",
   "size" : 12,
   "source_file" : "/system/libhidl/base/include/hidl/HidlSupport.h",
   "vtable_components" :
   [
    {
     "component_value" : 4,
     "kind" : "vbase_offset"
    },
    {
     "kind" : "offset_to_top"
    },
    {
     "kind" : "rtti",
     "mangled_component_name" : "_ZTIN7android8hardware20hidl_death_recipientE"
    },
    {
     "is_pure" : true,
     "mangled_component_name" : "_ZN7android8hardware20hidl_death_recipient11serviceDiedEyRKNS_2wpINS_4hidl4base4V1_05IBaseEEE"
    },
    {
     "kind" : "complete_dtor_pointer",
     "mangled_component_name" : "_ZN7android8hardware20hidl_death_recipientD1Ev"
    },
    {
     "kind" : "deleting_dtor_pointer",
     "mangled_component_name" : "_ZN7android8hardware20hidl_death_recipientD0Ev"
    },
    {
     "kind" : "vcall_offset"
    },
    {
     "kind" : "vcall_offset"
    },
    {
     "kind" : "vcall_offset"
    },
    {
     "kind" : "vcall_offset"
    },
    {
     "component_value" : -4,
     "kind" : "vcall_offset"
    },
    {
     "component_value" : -4,
     "kind" : "offset_to_top"
    },
    {
     "kind" : "rtti",
     "mangled_component_name" : "_ZTIN7android8hardware20hidl_death_recipientE"
    },
    {
     "kind" : "complete_dtor_pointer",
     "mangled_component_name" : "_ZTv0_n12_N7android8hardware20hidl_death_recipientD1Ev"
    },
    {
     "kind" : "deleting_dtor_pointer",
     "mangled_component_name" : "_ZTv0_n12_N7android8hardware20hidl_death_recipientD0Ev"
    },
    {
     "mangled_component_name" : "_ZN7android7RefBase10onFirstRefEv"
    },
    {
     "mangled_component_name" : "_ZN7android7RefBase15onLastStrongRefEPKv"
    },
    {
     "mangled_component_name" : "_ZN7android7RefBase20onIncStrongAttemptedEjPKv"
    },
    {
     "mangled_component_name" : "_ZN7android7RefBase13onLastWeakRefEPKv"
    }
   ]
  },
  {
   "alignment" : 4,
   "base_specifiers" :
   [
    {
     "referenced_type" : "_ZTIN7android8hardware7details13return_statusE"
    }
   ],
   "linker_set_key" : "_ZTIN7android8hardware6ReturnIvEE",
   "name" : "android::hardware::Return<void>",
   "record_kind" : "class",
   "referenced_type" : "_ZTIN7android8hardware6ReturnIvEE",
   "self_type" : "_ZTIN7android8hardware6ReturnIvEE",
   "size" : 24,
   "source_file" : "/system/libhidl/base/include/hidl/Status.h",
   "template_args" : [ "_ZTIv" ]
  },
  {
   "alignment" : 4,
   "fields" :
   [
    {
     "access" : "private",
     "field_name" : "mException",
     "referenced_type" : "_ZTIi"
    },
    {
     "access" : "private",
     "field_name" : "mErrorCode",
     "field_offset" : 32,
     "referenced_type" : "_ZTIi"
    },
    {
     "access" : "private",
     "field_name" : "mMessage",
     "field_offset" : 64,
     "referenced_type" : "_ZTINSt3__112basic_stringIcNS_11char_traitsIcEENS_9allocatorIcEEEE"
    }
   ],
   "linker_set_key" : "_ZTIN7android8hardware6StatusE",
   "name" : "android::hardware::Status",
   "record_kind" : "class",
   "referenced_type" : "_ZTIN7android8hardware6StatusE",
   "self_type" : "_ZTIN7android8hardware6StatusE",
   "size" : 20,
   "source_file" : "/system/libhidl/base/include/hidl/Status.h"
  },
  {
   "alignment" : 8,
   "fields" :
   [
    {
     "access" : "private",
     "referenced_type" : "_ZTIN7android8hardware7details12hidl_pointerIK13native_handleEUt_E"
    }
   ],
   "linker_set_key" : "_ZTIN7android8hardware7details12hidl_pointerIK13native_handleEE",
   "name" : "android::hardware::details::hidl_pointer<const native_handle>",
   "referenced_type" : "_ZTIN7android8hardware7details12hidl_pointerIK13native_handleEE",
   "self_type" : "_ZTIN7android8hardware7details12hidl_pointerIK13native_handleEE",
   "size" : 8,
   "source_file" : "/system/libhidl/base/include/hidl/HidlInternal.h",
   "template_args" : [ "_ZTIK13native_handle" ]
  },
  {
   "access" : "private",
   "alignment" : 8,
   "fields" :
   [
    {
     "field_name" : "mPointer",
     "referenced_type" : "_ZTIPK13native_handle"
    },
    {
     "field_name" : "_pad",
     "referenced_type" : "_ZTIy"
    }
   ],
   "is_anonymous" : true,
   "linker_set_key" : "_ZTIN7android8hardware7details12hidl_pointerIK13native_handleEUt_E",
   "name" : "android::hardware::details::hidl_pointer<const native_handle>::(anonymous union at system/libhidl/base/include/hidl/HidlInternal.h:110:5)",
   "record_kind" : "union",
   "referenced_type" : "_ZTIN7android8hardware7details12hidl_pointerIK13native_handleEUt_E",
   "self_type" : "_ZTIN7android8hardware7details12hidl_pointerIK13native_handleEUt_E",
   "size" : 8,
   "source_file" : "/system/libhidl/base/include/hidl/HidlInternal.h"
  },
  {
   "alignment" : 8,
   "fields" :
   [
    {
     "access" : "private",
     "referenced_type" : "_ZTIN7android8hardware7details12hidl_pointerIKcEUt_E"
    }
   ],
   "linker_set_key" : "_ZTIN7android8hardware7details12hidl_pointerIKcEE",
   "name" : "android::hardware::details::hidl_pointer<const char>",
   "referenced_type" : "_ZTIN7android8hardware7details12hidl_pointerIKcEE",
   "self_type" : "_ZTIN7android8hardware7details12hidl_pointerIKcEE",
   "size" : 8,
   "source_file" : "/system/libhidl/base/include/hidl/HidlInternal.h",
   "template_args" : [ "_ZTIKc" ]
  },
  {
   "access" : "private",
   "alignment" : 8,
   "fields" :
   [
    {
     "field_name" : "mPointer",
     "referenced_type" : "_ZTIPKc"
    },
    {
     "field_name" : "_pad",
     "referenced_type" : "_ZTIy"
    }
   ],
   "is_anonymous" : true,
   "linker_set_key" : "_ZTIN7android8hardware7details12hidl_pointerIKcEUt_E",
   "name" : "android::hardware::details::hidl_pointer<const char>::(anonymous union at system/libhidl/base/include/hidl/HidlInternal.h:110:5)",
   "record_kind" : "union",
   "referenced_type" : "_ZTIN7android8hardware7details12hidl_pointerIKcEUt_E",
   "self_type" : "_ZTIN7android8hardware7details12hidl_pointerIKcEUt_E",
   "size" : 8,
   "source_file" : "/system/libhidl/base/include/hidl/HidlInternal.h"
  },
  {
   "alignment" : 4,
   "fields" :
   [
    {
     "access" : "private",
     "field_name" : "mStatus",
     "referenced_type" : "_ZTIN7android8hardware6StatusE"
    },
    {
     "access" : "private",
     "field_name" : "mCheckedStatus",
     "field_offset" : 160,
     "referenced_type" : "_ZTIb"
    }
   ],
   "linker_set_key" : "_ZTIN7android8hardware7details13return_statusE",
   "name" : "android::hardware::details::return_status",
   "record_kind" : "class",
   "referenced_type" : "_ZTIN7android8hardware7details13return_statusE",
   "self_type" : "_ZTIN7android8hardware7details13return_statusE",
   "size" : 24,
   "source_file" : "/system/libhidl/base/include/hidl/Status.h"
  },
  {
   "alignment" : 4,
   "fields" :
   [
    {
     "access" : "protected",
     "field_name" : "mInstrumentationCallbacks",
     "field_offset" : 32,
     "referenced_type" : "_ZTINSt3__16vectorINS_8functionIFvN7android8hardware7details16HidlInstrumentor20InstrumentationEventEPKcS8_S8_S8_PNS0_IPvNS_9allocatorIS9_EEEEEEENSA_ISF_EEEE"
    },
    {
     "access" : "protected",
     "field_name" : "mEnableInstrumentation",
     "field_offset" : 128,
     "referenced_type" : "_ZTIb"
    },
    {
     "access" : "protected",
     "field_name" : "mInstrumentationLibPackage",
     "field_offset" : 160,
     "referenced_type" : "_ZTINSt3__112basic_stringIcNS_11char_traitsIcEENS_9allocatorIcEEEE"
    },
    {
     "access" : "protected",
     "field_name" : "mInterfaceName",
     "field_offset" : 256,
     "referenced_type" : "_ZTINSt3__112basic_stringIcNS_11char_traitsIcEENS_9allocatorIcEEEE"
    }
   ],
   "linker_set_key" : "_ZTIN7android8hardware7details16HidlInstrumentorE",
   "name" : "android::hardware::details::HidlInstrumentor",
   "referenced_type" : "_ZTIN7android8hardware7details16HidlInstrumentorE",
   "self_type" : "_ZTIN7android8hardware7details16HidlInstrumentorE",
   "size" : 44,
   "source_file" : "/system/libhidl/base/include/hidl/HidlInternal.h",
   "vtable_components" :
   [
    {
     "kind" : "offset_to_top"
    },
    {
     "kind" : "rtti",
     "mangled_component_name" : "_ZTIN7android8hardware7details16HidlInstrumentorE"
    },
    {
     "kind" : "complete_dtor_pointer",
     "mangled_component_name" : "_ZN7android8hardware7details16HidlInstrumentorD1Ev"
    },
    {
     "kind" : "deleting_dtor_pointer",
     "mangled_component_name" : "_ZN7android8hardware7details16HidlInstrumentorD0Ev"
    }
   ]
  },
  {
   "alignment" : 1,
   "linker_set_key" : "_ZTIN7android8hardware7details5i_tagE",
   "name" : "android::hardware::details::i_tag",
   "referenced_type" : "_ZTIN7android8hardware7details5i_tagE",
   "self_type" : "_ZTIN7android8hardware7details5i_tagE",
   "size" : 1,
   "source_file" : "/system/libhidl/base/include/hidl/HidlInternal.h"
  },
  {
   "alignment" : 1,
   "linker_set_key" : "_ZTIN7android8hardware7details6bs_tagE",
   "name" : "android::hardware::details::bs_tag",
   "referenced_type" : "_ZTIN7android8hardware7details6bs_tagE",
   "self_type" : "_ZTIN7android8hardware7details6bs_tagE",
   "size" : 1,
   "source_file" : "/system/libhidl/base/include/hidl/HidlInternal.h"
  },
  {
   "alignment" : 1,
   "linker_set_key" : "_ZTIN7android8hardware7details8bnhw_tagE",
   "name" : "android::hardware::details::bnhw_tag",
   "referenced_type" : "_ZTIN7android8hardware7details8bnhw_tagE",
   "self_type" : "_ZTIN7android8hardware7details8bnhw_tagE",
   "size" : 1,
   "source_file" : "/system/libhidl/base/include/hidl/HidlInternal.h"
  },
  {
   "alignment" : 1,
   "linker_set_key" : "_ZTIN7android8hardware7details8bphw_tagE",
   "name" : "android::hardware::details::bphw_tag",
   "referenced_type" : "_ZTIN7android8hardware7details8bphw_tagE",
   "self_type" : "_ZTIN7android8hardware7details8bphw_tagE",
   "size" : 1,
   "source_file" : "/system/libhidl/base/include/hidl/HidlInternal.h"
  },
  {
   "alignment" : 4,
   "base_specifiers" :
   [
    {
     "is_virtual" : true,
     "referenced_type" : "_ZTIN7android7RefBaseE"
    }
   ],
   "fields" :
   [
    {
     "access" : "private",
     "field_name" : "mRemote",
     "field_offset" : 32,
     "referenced_type" : "_ZTIKPN7android7IBinderE"
    },
    {
     "access" : "private",
     "field_name" : "mRefs",
     "field_offset" : 64,
     "referenced_type" : "_ZTIPN7android7RefBase12weakref_typeE"
    },
    {
     "access" : "private",
     "field_name" : "mState",
     "field_offset" : 96,
     "referenced_type" : "_ZTINSt3__16atomicIiEE"
    }
   ],
   "linker_set_key" : "_ZTIN7android9BpRefBaseE",
   "name" : "android::BpRefBase",
   "record_kind" : "class",
   "referenced_type" : "_ZTIN7android9BpRefBaseE",
   "self_type" : "_ZTIN7android9BpRefBaseE",
   "size" : 24,
   "source_file" : "/frameworks/native/libs/binder/include/binder/Binder.h",
   "vtable_components" :
   [
    {
     "component_value" : 16,
     "kind" : "vbase_offset"
    },
    {
     "kind" : "offset_to_top"
    },
    {
     "kind" : "rtti",
     "mangled_component_name" : "_ZTIN7android9BpRefBaseE"
    },
    {
     "kind" : "complete_dtor_pointer",
     "mangled_component_name" : "_ZN7android9BpRefBaseD1Ev"
    },
    {
     "kind" : "deleting_dtor_pointer",
     "mangled_component_name" : "_ZN7android9BpRefBaseD0Ev"
    },
    {
     "mangled_component_name" : "_ZN7android9BpRefBase10onFirstRefEv"
    },
    {
     "mangled_component_name" : "_ZN7android9BpRefBase15onLastStrongRefEPKv"
    },
    {
     "mangled_component_name" : "_ZN7android9BpRefBase20onIncStrongAttemptedEjPKv"
    },
    {
     "kind" : "vcall_offset"
    },
    {
     "component_value" : -16,
     "kind" : "vcall_offset"
    },
    {
     "component_value" : -16,
     "kind" : "vcall_offset"
    },
    {
     "component_value" : -16,
     "kind" : "vcall_offset"
    },
    {
     "component_value" : -16,
     "kind" : "vcall_offset"
    },
    {
     "component_value" : -16,
     "kind" : "offset_to_top"
    },
    {
     "kind" : "rtti",
     "mangled_component_name" : "_ZTIN7android9BpRefBaseE"
    },
    {
     "kind" : "complete_dtor_pointer",
     "mangled_component_name" : "_ZTv0_n12_N7android9BpRefBaseD1Ev"
    },
    {
     "kind" : "deleting_dtor_pointer",
     "mangled_component_name" : "_ZTv0_n12_N7android9BpRefBaseD0Ev"
    },
    {
     "mangled_component_name" : "_ZTv0_n16_N7android9BpRefBase10onFirstRefEv"
    },
    {
     "mangled_component_name" : "_ZTv0_n20_N7android9BpRefBase15onLastStrongRefEPKv"
    },
    {
     "mangled_component_name" : "_ZTv0_n24_N7android9BpRefBase20onIncStrongAttemptedEjPKv"
    },
    {
     "mangled_component_name" : "_ZN7android7RefBase13onLastWeakRefEPKv"
    }
   ]
  },
  {
   "alignment" : 4,
   "fields" :
   [
    {
     "field_name" : "buf",
     "referenced_type" : "_ZTIA5121_h"
    },
    {
     "field_name" : "entry",
     "referenced_type" : "_ZTI12logger_entry"
    }
   ],
   "is_anonymous" : true,
   "linker_set_key" : "_ZTIN7log_msgUt_E",
   "name" : "log_msg::(anonymous union at system/core/liblog/include_vndk/log/log_read.h:77:3)",
   "record_kind" : "union",
   "referenced_type" : "_ZTIN7log_msgUt_E",
   "self_type" : "_ZTIN7log_msgUt_E",
   "size" : 5124,
   "source_file" : "/system/core/liblog/include/log/log_read.h"
  }
 ],
 "rvalue_reference_types" :
 [
  {
   "alignment" : 4,
   "linker_set_key" : "_ZTION7android8hardware11hidl_handleE",
   "name" : "android::hardware::hidl_handle &&",
   "referenced_type" : "_ZTIN7android8hardware11hidl_handleE",
   "self_type" : "_ZTION7android8hardware11hidl_handleE",
   "size" : 4,
   "source_file" : "/system/libhidl/base/include/hidl/HidlSupport.h"
  },
  {
   "alignment" : 4,
   "linker_set_key" : "_ZTION7android8hardware11hidl_memoryE",
   "name" : "android::hardware::hidl_memory &&",
   "referenced_type" : "_ZTIN7android8hardware11hidl_memoryE",
   "self_type" : "_ZTION7android8hardware11hidl_memoryE",
   "size" : 4,
   "source_file" : "/system/libhidl/base/include/hidl/HidlSupport.h"
  },
  {
   "alignment" : 4,
   "linker_set_key" : "_ZTION7android8hardware6ReturnIvEE",
   "name" : "android::hardware::Return<void> &&",
   "referenced_type" : "_ZTIN7android8hardware6ReturnIvEE",
   "self_type" : "_ZTION7android8hardware6ReturnIvEE",
   "size" : 4,
   "source_file" : "/system/libhidl/base/include/hidl/Status.h"
  },
  {
   "alignment" : 4,
   "linker_set_key" : "_ZTION7android8hardware6StatusE",
   "name" : "android::hardware::Status &&",
   "referenced_type" : "_ZTIN7android8hardware6StatusE",
   "self_type" : "_ZTION7android8hardware6StatusE",
   "size" : 4,
   "source_file" : "/system/libhidl/base/include/hidl/Status.h"
  },
  {
   "alignment" : 4,
   "linker_set_key" : "_ZTION7android8hardware7details13return_statusE",
   "name" : "android::hardware::details::return_status &&",
   "referenced_type" : "_ZTIN7android8hardware7details13return_statusE",
   "self_type" : "_ZTION7android8hardware7details13return_statusE",
   "size" : 4,
   "source_file" : "/system/libhidl/base/include/hidl/Status.h"
  }
 ]
}
