{
 "array_types" :
 [
  {
   "alignment" : 4,
   "linker_set_key" : "_ZTIA0_i",
   "name" : "int [0]",
   "referenced_type" : "_ZTIi",
   "self_type" : "_ZTIA0_i",
   "source_file" : "/system/core/libcutils/include/cutils/native_handle.h"
  },
  {
   "alignment" : 4,
   "linker_set_key" : "_ZTIA10_j",
   "name" : "unsigned int [10]",
   "referenced_type" : "_ZTIj",
   "self_type" : "_ZTIA10_j",
   "size" : 40,
   "source_file" : "/system/libhidl/base/include/hidl/HidlSupport.h"
  },
  {
   "alignment" : 1,
   "linker_set_key" : "_ZTIA128_h",
   "name" : "unsigned char [128]",
   "referenced_type" : "_ZTIh",
   "self_type" : "_ZTIA128_h",
   "size" : 128,
   "source_file" : "/frameworks/native/headers/media_plugin/media/openmax/OMX_Core.h"
  },
  {
   "alignment" : 4,
   "linker_set_key" : "_ZTIA12_j",
   "name" : "unsigned int [12]",
   "referenced_type" : "_ZTIj",
   "self_type" : "_ZTIA12_j",
   "size" : 48,
   "source_file" : "/hardware/libhardware/include/hardware/hardware.h"
  },
  {
   "alignment" : 8,
   "linker_set_key" : "_ZTIA1_35OMX_CONFIG_ANDROID_VENDOR_PARAMTYPE",
   "name" : "OMX_CONFIG_ANDROID_VENDOR_PARAMTYPE [1]",
   "referenced_type" : "_ZTI35OMX_CONFIG_ANDROID_VENDOR_PARAMTYPE",
   "self_type" : "_ZTIA1_35OMX_CONFIG_ANDROID_VENDOR_PARAMTYPE",
   "size" : 264,
   "source_file" : "/frameworks/native/headers/media_plugin/media/openmax/OMX_IndexExt.h"
  },
  {
   "alignment" : 4,
   "linker_set_key" : "_ZTIA1_PKc",
   "name" : "const char *[1]",
   "referenced_type" : "_ZTIPKc",
   "self_type" : "_ZTIA1_PKc",
   "size" : 4,
   "source_file" : "/frameworks/native/libs/binder/include/binder/IInterface.h"
  },
  {
   "alignment" : 4,
   "linker_set_key" : "_ZTIA1_Pv",
   "name" : "void *[1]",
   "referenced_type" : "_ZTIPv",
   "self_type" : "_ZTIA1_Pv",
   "size" : 4,
   "source_file" : "/frameworks/native/libs/nativebase/include/nativebase/nativebase.h"
  },
  {
   "alignment" : 1,
   "linker_set_key" : "_ZTIA1_h",
   "name" : "unsigned char [1]",
   "referenced_type" : "_ZTIh",
   "self_type" : "_ZTIA1_h",
   "size" : 1,
   "source_file" : "/frameworks/native/headers/media_plugin/media/openmax/OMX_Core.h"
  },
  {
   "alignment" : 2,
   "linker_set_key" : "_ZTIA25_Ds",
   "name" : "char16_t [25]",
   "referenced_type" : "_ZTIDs",
   "self_type" : "_ZTIA25_Ds",
   "size" : 50,
   "source_file" : "/system/core/libutils/include/utils/String16.h"
  },
  {
   "alignment" : 4,
   "linker_set_key" : "_ZTIA25_j",
   "name" : "unsigned int [25]",
   "referenced_type" : "_ZTIj",
   "self_type" : "_ZTIA25_j",
   "size" : 100,
   "source_file" : "/hardware/libhardware/include/hardware/hardware.h"
  },
  {
   "alignment" : 2,
   "linker_set_key" : "_ZTIA26_Ds",
   "name" : "char16_t [26]",
   "referenced_type" : "_ZTIDs",
   "self_type" : "_ZTIA26_Ds",
   "size" : 52,
   "source_file" : "/system/core/libutils/include/utils/String16.h"
  },
  {
   "alignment" : 2,
   "linker_set_key" : "_ZTIA30_Ds",
   "name" : "char16_t [30]",
   "referenced_type" : "_ZTIDs",
   "self_type" : "_ZTIA30_Ds",
   "size" : 60,
   "source_file" : "/system/core/libutils/include/utils/String16.h"
  },
  {
   "alignment" : 4,
   "linker_set_key" : "_ZTIA3_A3_i",
   "name" : "int [3][3]",
   "referenced_type" : "_ZTIA3_i",
   "self_type" : "_ZTIA3_A3_i",
   "size" : 36,
   "source_file" : "/frameworks/native/headers/media_plugin/media/openmax/OMX_IVCommon.h"
  },
  {
   "alignment" : 4,
   "linker_set_key" : "_ZTIA3_N7android10MediaImage9PlaneInfoE",
   "name" : "android::MediaImage::PlaneInfo [3]",
   "referenced_type" : "_ZTIN7android10MediaImage9PlaneInfoE",
   "self_type" : "_ZTIA3_N7android10MediaImage9PlaneInfoE",
   "size" : 60,
   "source_file" : "/frameworks/native/headers/media_plugin/media/hardware/VideoAPI.h"
  },
  {
   "alignment" : 1,
   "linker_set_key" : "_ZTIA3_h",
   "name" : "unsigned char [3]",
   "referenced_type" : "_ZTIh",
   "self_type" : "_ZTIA3_h",
   "size" : 3,
   "source_file" : "/system/libhidl/base/include/hidl/HidlSupport.h"
  },
  {
   "alignment" : 4,
   "linker_set_key" : "_ZTIA3_i",
   "name" : "int [3]",
   "referenced_type" : "_ZTIi",
   "self_type" : "_ZTIA3_i",
   "size" : 12,
   "source_file" : "/frameworks/native/headers/media_plugin/media/openmax/OMX_IVCommon.h"
  },
  {
   "alignment" : 4,
   "linker_set_key" : "_ZTIA3_j",
   "name" : "unsigned int [3]",
   "referenced_type" : "_ZTIj",
   "self_type" : "_ZTIA3_j",
   "size" : 12,
   "source_file" : "/frameworks/native/headers/media_plugin/media/openmax/OMX_VideoExt.h"
  },
  {
   "alignment" : 4,
   "linker_set_key" : "_ZTIA4_21AHardwareBuffer_Plane",
   "name" : "AHardwareBuffer_Plane [4]",
   "referenced_type" : "_ZTI21AHardwareBuffer_Plane",
   "self_type" : "_ZTIA4_21AHardwareBuffer_Plane",
   "size" : 48,
   "source_file" : "/frameworks/native/libs/nativewindow/include/android/hardware_buffer.h"
  },
  {
   "alignment" : 1,
   "linker_set_key" : "_ZTIA4_N7android11MediaImage29PlaneInfoE",
   "name" : "android::MediaImage2::PlaneInfo [4]",
   "referenced_type" : "_ZTIN7android11MediaImage29PlaneInfoE",
   "self_type" : "_ZTIA4_N7android11MediaImage29PlaneInfoE",
   "size" : 80,
   "source_file" : "/frameworks/native/headers/media_plugin/media/hardware/VideoAPI.h"
  },
  {
   "alignment" : 4,
   "linker_set_key" : "_ZTIA4_Pv",
   "name" : "void *[4]",
   "referenced_type" : "_ZTIPv",
   "self_type" : "_ZTIA4_Pv",
   "size" : 16,
   "source_file" : "/frameworks/native/libs/nativebase/include/nativebase/nativebase.h"
  },
  {
   "alignment" : 4,
   "linker_set_key" : "_ZTIA4_i",
   "name" : "int [4]",
   "referenced_type" : "_ZTIi",
   "self_type" : "_ZTIA4_i",
   "size" : 16,
   "source_file" : "/frameworks/native/headers/media_plugin/media/openmax/OMX_IVCommon.h"
  },
  {
   "alignment" : 1,
   "linker_set_key" : "_ZTIA5121_h",
   "name" : "unsigned char [5121]",
   "referenced_type" : "_ZTIh",
   "self_type" : "_ZTIA5121_h",
   "size" : 5121,
   "source_file" : "/system/core/liblog/include/log/log_read.h"
  },
  {
   "alignment" : 8,
   "linker_set_key" : "_ZTIA64_N7android8AMessage4ItemE",
   "name" : "android::AMessage::Item [64]",
   "referenced_type" : "_ZTIN7android8AMessage4ItemE",
   "self_type" : "_ZTIA64_N7android8AMessage4ItemE",
   "size" : 2048,
   "source_file" : "/frameworks/av/media/libstagefright/foundation/include/media/stagefright/foundation/AMessage.h"
  },
  {
   "alignment" : 4,
   "linker_set_key" : "_ZTIA6_Pv",
   "name" : "void *[6]",
   "referenced_type" : "_ZTIPv",
   "self_type" : "_ZTIA6_Pv",
   "size" : 24,
   "source_file" : "/frameworks/native/libs/nativebase/include/nativebase/nativebase.h"
  },
  {
   "alignment" : 4,
   "linker_set_key" : "_ZTIA7_Pv",
   "name" : "void *[7]",
   "referenced_type" : "_ZTIPv",
   "self_type" : "_ZTIA7_Pv",
   "size" : 28,
   "source_file" : "/hardware/libhardware/include/hardware/gralloc.h"
  },
  {
   "alignment" : 1,
   "linker_set_key" : "_ZTIA7_h",
   "name" : "unsigned char [7]",
   "referenced_type" : "_ZTIh",
   "self_type" : "_ZTIA7_h",
   "size" : 7,
   "source_file" : "/system/libhidl/base/include/hidl/HidlSupport.h"
  },
  {
   "alignment" : 4,
   "linker_set_key" : "_ZTIA7_i",
   "name" : "int [7]",
   "referenced_type" : "_ZTIi",
   "self_type" : "_ZTIA7_i",
   "size" : 28,
   "source_file" : "/hardware/libhardware/include/hardware/fb.h"
  },
  {
   "alignment" : 4,
   "linker_set_key" : "_ZTIA89_PKc",
   "name" : "const char *[89]",
   "referenced_type" : "_ZTIPKc",
   "self_type" : "_ZTIA89_PKc",
   "size" : 356,
   "source_file" : "/frameworks/native/libs/binder/include/binder/IInterface.h"
  },
  {
   "alignment" : 4,
   "linker_set_key" : "_ZTIA8_j",
   "name" : "unsigned int [8]",
   "referenced_type" : "_ZTIj",
   "self_type" : "_ZTIA8_j",
   "size" : 32,
   "source_file" : "/frameworks/native/headers/media_plugin/media/openmax/OMX_VideoExt.h"
  },
  {
   "linker_set_key" : "_ZTIA_25OMX_COMPONENTREGISTERTYPE",
   "name" : "OMX_COMPONENTREGISTERTYPE []",
   "referenced_type" : "_ZTI25OMX_COMPONENTREGISTERTYPE",
   "self_type" : "_ZTIA_25OMX_COMPONENTREGISTERTYPE",
   "source_file" : "/frameworks/native/headers/media_plugin/media/openmax/OMX_Core.h"
  },
  {
   "linker_set_key" : "_ZTIA_f",
   "name" : "float []",
   "referenced_type" : "_ZTIf",
   "self_type" : "_ZTIA_f",
   "source_file" : "/system/core/libsystem/include/system/graphics.h"
  }
 ],
 "builtin_types" :
 [
  {
   "alignment" : 4,
   "linker_set_key" : "_ZTIDn",
   "name" : "nullptr_t",
   "referenced_type" : "_ZTIDn",
   "self_type" : "_ZTIDn",
   "size" : 4
  },
  {
   "alignment" : 2,
   "is_integral" : true,
   "is_unsigned" : true,
   "linker_set_key" : "_ZTIDs",
   "name" : "char16_t",
   "referenced_type" : "_ZTIDs",
   "self_type" : "_ZTIDs",
   "size" : 2
  },
  {
   "alignment" : 1,
   "is_integral" : true,
   "linker_set_key" : "_ZTIa",
   "name" : "signed char",
   "referenced_type" : "_ZTIa",
   "self_type" : "_ZTIa",
   "size" : 1
  },
  {
   "alignment" : 1,
   "is_integral" : true,
   "is_unsigned" : true,
   "linker_set_key" : "_ZTIb",
   "name" : "bool",
   "referenced_type" : "_ZTIb",
   "self_type" : "_ZTIb",
   "size" : 1
  },
  {
   "alignment" : 1,
   "is_integral" : true,
   "is_unsigned" : true,
   "linker_set_key" : "_ZTIc",
   "name" : "char",
   "referenced_type" : "_ZTIc",
   "self_type" : "_ZTIc",
   "size" : 1
  },
  {
   "alignment" : 8,
   "linker_set_key" : "_ZTId",
   "name" : "double",
   "referenced_type" : "_ZTId",
   "self_type" : "_ZTId",
   "size" : 8
  },
  {
   "alignment" : 4,
   "linker_set_key" : "_ZTIf",
   "name" : "float",
   "referenced_type" : "_ZTIf",
   "self_type" : "_ZTIf",
   "size" : 4
  },
  {
   "alignment" : 1,
   "is_integral" : true,
   "is_unsigned" : true,
   "linker_set_key" : "_ZTIh",
   "name" : "unsigned char",
   "referenced_type" : "_ZTIh",
   "self_type" : "_ZTIh",
   "size" : 1
  },
  {
   "alignment" : 4,
   "is_integral" : true,
   "linker_set_key" : "_ZTIi",
   "name" : "int",
   "referenced_type" : "_ZTIi",
   "self_type" : "_ZTIi",
   "size" : 4
  },
  {
   "alignment" : 4,
   "is_integral" : true,
   "is_unsigned" : true,
   "linker_set_key" : "_ZTIj",
   "name" : "unsigned int",
   "referenced_type" : "_ZTIj",
   "self_type" : "_ZTIj",
   "size" : 4
  },
  {
   "alignment" : 4,
   "is_integral" : true,
   "linker_set_key" : "_ZTIl",
   "name" : "long",
   "referenced_type" : "_ZTIl",
   "self_type" : "_ZTIl",
   "size" : 4
  },
  {
   "alignment" : 4,
   "is_integral" : true,
   "is_unsigned" : true,
   "linker_set_key" : "_ZTIm",
   "name" : "unsigned long",
   "referenced_type" : "_ZTIm",
   "self_type" : "_ZTIm",
   "size" : 4
  },
  {
   "alignment" : 2,
   "is_integral" : true,
   "linker_set_key" : "_ZTIs",
   "name" : "short",
   "referenced_type" : "_ZTIs",
   "self_type" : "_ZTIs",
   "size" : 2
  },
  {
   "alignment" : 2,
   "is_integral" : true,
   "is_unsigned" : true,
   "linker_set_key" : "_ZTIt",
   "name" : "unsigned short",
   "referenced_type" : "_ZTIt",
   "self_type" : "_ZTIt",
   "size" : 2
  },
  {
   "linker_set_key" : "_ZTIv",
   "name" : "void",
   "referenced_type" : "_ZTIv",
   "self_type" : "_ZTIv"
  },
  {
   "alignment" : 8,
   "is_integral" : true,
   "linker_set_key" : "_ZTIx",
   "name" : "long long",
   "referenced_type" : "_ZTIx",
   "self_type" : "_ZTIx",
   "size" : 8
  },
  {
   "alignment" : 8,
   "is_integral" : true,
   "is_unsigned" : true,
   "linker_set_key" : "_ZTIy",
   "name" : "unsigned long long",
   "referenced_type" : "_ZTIy",
   "self_type" : "_ZTIy",
   "size" : 8
  }
 ],
 "elf_functions" :
 [
  {
   "binding" : "weak",
   "name" : "_ZN7android11BnInterfaceINS_12IOMXObserverEE10onAsBinderEv"
  },
  {
   "binding" : "weak",
   "name" : "_ZN7android11BnInterfaceINS_16IOMXBufferSourceEE10onAsBinderEv"
  },
  {
   "binding" : "weak",
   "name" : "_ZN7android11BnInterfaceINS_8IOMXNodeEE10onAsBinderEv"
  },
  {
   "binding" : "weak",
   "name" : "_ZN7android11HpInterfaceINS_9BpOMXNodeENS_8hardware5media3omx4V1_05utils9LWOmxNodeEJEEC2ERKNS_2spINS_7IBinderEEE"
  },
  {
   "binding" : "weak",
   "name" : "_ZN7android12H2BConverterINS_8hardware5media3omx4V1_08IOmxNodeENS_9BnOMXNodeEE10onTransactEjRKNS_6ParcelEPS8_j"
  },
  {
   "binding" : "weak",
   "name" : "_ZN7android12H2BConverterINS_8hardware5media3omx4V1_08IOmxNodeENS_9BnOMXNodeEE11linkToDeathERKNS_2spINS_7IBinder14DeathRecipientEEEPvj"
  },
  {
   "binding" : "weak",
   "name" : "_ZN7android12H2BConverterINS_8hardware5media3omx4V1_08IOmxNodeENS_9BnOMXNodeEE13unlinkToDeathERKNS_2wpINS_7IBinder14DeathRecipientEEEPvjPSB_"
  },
  {
   "name" : "_ZN7android12IOMXObserver11asInterfaceERKNS_2spINS_7IBinderEEE"
  },
  {
   "name" : "_ZN7android12IOMXObserver14getDefaultImplEv"
  },
  {
   "name" : "_ZN7android12IOMXObserver14setDefaultImplENSt3__110unique_ptrIS0_NS1_14default_deleteIS0_EEEE"
  },
  {
   "name" : "_ZN7android12IOMXObserverC2Ev"
  },
  {
   "name" : "_ZN7android12IOMXObserverD0Ev"
  },
  {
   "name" : "_ZN7android12IOMXObserverD1Ev"
  },
  {
   "name" : "_ZN7android12IOMXObserverD2Ev"
  },
  {
   "name" : "_ZN7android13BnOMXObserver10onTransactEjRKNS_6ParcelEPS1_j"
  },
  {
   "name" : "_ZN7android16IOMXBufferSource11asInterfaceERKNS_2spINS_7IBinderEEE"
  },
  {
   "name" : "_ZN7android16IOMXBufferSource14getDefaultImplEv"
  },
  {
   "name" : "_ZN7android16IOMXBufferSource14setDefaultImplENSt3__110unique_ptrIS0_NS1_14default_deleteIS0_EEEE"
  },
  {
   "name" : "_ZN7android16IOMXBufferSourceC2Ev"
  },
  {
   "name" : "_ZN7android16IOMXBufferSourceD0Ev"
  },
  {
   "name" : "_ZN7android16IOMXBufferSourceD1Ev"
  },
  {
   "name" : "_ZN7android16IOMXBufferSourceD2Ev"
  },
  {
   "name" : "_ZN7android16MediaCodecBuffer4baseEv"
  },
  {
   "name" : "_ZN7android16MediaCodecBuffer4dataEv"
  },
  {
   "name" : "_ZN7android16MediaCodecBuffer4metaEv"
  },
  {
   "name" : "_ZN7android16MediaCodecBuffer6formatEv"
  },
  {
   "name" : "_ZN7android16MediaCodecBuffer8setRangeEjj"
  },
  {
   "name" : "_ZN7android16MediaCodecBuffer9setFormatERKNS_2spINS_8AMessageEEE"
  },
  {
   "name" : "_ZN7android16MediaCodecBufferC1ERKNS_2spINS_8AMessageEEERKNS1_INS_7ABufferEEE"
  },
  {
   "name" : "_ZN7android16MediaCodecBufferC2ERKNS_2spINS_8AMessageEEERKNS1_INS_7ABufferEEE"
  },
  {
   "name" : "_ZN7android17BnOMXBufferSource10onTransactEjRKNS_6ParcelEPS1_j"
  },
  {
   "name" : "_ZN7android17BnOMXBufferSourceC2Ev"
  },
  {
   "name" : "_ZN7android17BpOMXBufferSource11onOmxLoadedEv"
  },
  {
   "name" : "_ZN7android17BpOMXBufferSource14onOmxExecutingEv"
  },
  {
   "name" : "_ZN7android17BpOMXBufferSource18onInputBufferAddedEi"
  },
  {
   "name" : "_ZN7android17BpOMXBufferSource20onInputBufferEmptiedEiRKNS_18OMXFenceParcelableE"
  },
  {
   "name" : "_ZN7android17BpOMXBufferSource9onOmxIdleEv"
  },
  {
   "name" : "_ZN7android17BpOMXBufferSourceC1ERKNS_2spINS_7IBinderEEE"
  },
  {
   "name" : "_ZN7android17BpOMXBufferSourceC2ERKNS_2spINS_7IBinderEEE"
  },
  {
   "binding" : "weak",
   "name" : "_ZN7android2spINS_13GraphicBufferEEaSERKS2_"
  },
  {
   "name" : "_ZN7android8IOMXNode11asInterfaceERKNS_2spINS_7IBinderEEE"
  },
  {
   "name" : "_ZN7android8IOMXNodeC2Ev"
  },
  {
   "name" : "_ZN7android8IOMXNodeD0Ev"
  },
  {
   "name" : "_ZN7android8IOMXNodeD1Ev"
  },
  {
   "name" : "_ZN7android8IOMXNodeD2Ev"
  },
  {
   "name" : "_ZN7android8hardware5media3omx4V1_05utils13LWOmxObserver10onMessagesERKNSt3__14listINS_11omx_messageENS6_9allocatorIS8_EEEE"
  },
  {
   "name" : "_ZN7android8hardware5media3omx4V1_05utils13LWOmxObserverC1ERKNS_2spINS3_12IOmxObserverEEE"
  },
  {
   "name" : "_ZN7android8hardware5media3omx4V1_05utils13LWOmxObserverC2ERKNS_2spINS3_12IOmxObserverEEE"
  },
  {
   "name" : "_ZN7android8hardware5media3omx4V1_05utils13TWOmxObserver10onMessagesERKNS0_8hidl_vecINS3_7MessageEEE"
  },
  {
   "name" : "_ZN7android8hardware5media3omx4V1_05utils13TWOmxObserverC1ERKNS_2spINS_12IOMXObserverEEE"
  },
  {
   "name" : "_ZN7android8hardware5media3omx4V1_05utils13TWOmxObserverC2ERKNS_2spINS_12IOMXObserverEEE"
  },
  {
   "name" : "_ZN7android8hardware5media3omx4V1_05utils17LWOmxBufferSource11onOmxLoadedEv"
  },
  {
   "name" : "_ZN7android8hardware5media3omx4V1_05utils17LWOmxBufferSource14onOmxExecutingEv"
  },
  {
   "name" : "_ZN7android8hardware5media3omx4V1_05utils17LWOmxBufferSource18onInputBufferAddedEi"
  },
  {
   "name" : "_ZN7android8hardware5media3omx4V1_05utils17LWOmxBufferSource20onInputBufferEmptiedEiRKNS_18OMXFenceParcelableE"
  },
  {
   "name" : "_ZN7android8hardware5media3omx4V1_05utils17LWOmxBufferSource9onOmxIdleEv"
  },
  {
   "name" : "_ZN7android8hardware5media3omx4V1_05utils17LWOmxBufferSourceC1ERKNS_2spINS3_16IOmxBufferSourceEEE"
  },
  {
   "name" : "_ZN7android8hardware5media3omx4V1_05utils17LWOmxBufferSourceC2ERKNS_2spINS3_16IOmxBufferSourceEEE"
  },
  {
   "name" : "_ZN7android8hardware5media3omx4V1_05utils17TWOmxBufferSource11onOmxLoadedEv"
  },
  {
   "name" : "_ZN7android8hardware5media3omx4V1_05utils17TWOmxBufferSource14onOmxExecutingEv"
  },
  {
   "name" : "_ZN7android8hardware5media3omx4V1_05utils17TWOmxBufferSource18onInputBufferAddedEj"
  },
  {
   "name" : "_ZN7android8hardware5media3omx4V1_05utils17TWOmxBufferSource20onInputBufferEmptiedEjRKNS0_11hidl_handleE"
  },
  {
   "name" : "_ZN7android8hardware5media3omx4V1_05utils17TWOmxBufferSource9onOmxIdleEv"
  },
  {
   "name" : "_ZN7android8hardware5media3omx4V1_05utils17TWOmxBufferSourceC1ERKNS_2spINS_16IOMXBufferSourceEEE"
  },
  {
   "name" : "_ZN7android8hardware5media3omx4V1_05utils17TWOmxBufferSourceC2ERKNS_2spINS_16IOMXBufferSourceEEE"
  },
  {
   "name" : "_ZN7android8hardware5media3omx4V1_05utils9LWOmxNode10fillBufferEjRKNS_9OMXBufferEi"
  },
  {
   "name" : "_ZN7android8hardware5media3omx4V1_05utils9LWOmxNode10freeBufferEjj"
  },
  {
   "name" : "_ZN7android8hardware5media3omx4V1_05utils9LWOmxNode11emptyBufferEjRKNS_9OMXBufferEjxi"
  },
  {
   "name" : "_ZN7android8hardware5media3omx4V1_05utils9LWOmxNode11sendCommandE15OMX_COMMANDTYPEi"
  },
  {
   "name" : "_ZN7android8hardware5media3omx4V1_05utils9LWOmxNode11setPortModeEjNS_4IOMX8PortModeE"
  },
  {
   "name" : "_ZN7android8hardware5media3omx4V1_05utils9LWOmxNode12getParameterE13OMX_INDEXTYPEPvj"
  },
  {
   "name" : "_ZN7android8hardware5media3omx4V1_05utils9LWOmxNode12setParameterE13OMX_INDEXTYPEPKvj"
  },
  {
   "name" : "_ZN7android8hardware5media3omx4V1_05utils9LWOmxNode15dispatchMessageERKNS_11omx_messageE"
  },
  {
   "name" : "_ZN7android8hardware5media3omx4V1_05utils9LWOmxNode15setInputSurfaceERKNS_2spINS_16IOMXBufferSourceEEE"
  },
  {
   "name" : "_ZN7android8hardware5media3omx4V1_05utils9LWOmxNode17getExtensionIndexEPKcP13OMX_INDEXTYPE"
  },
  {
   "name" : "_ZN7android8hardware5media3omx4V1_05utils9LWOmxNode20allocateSecureBufferEjjPjPPvPNS_2spINS_12NativeHandleEEE"
  },
  {
   "name" : "_ZN7android8hardware5media3omx4V1_05utils9LWOmxNode21getGraphicBufferUsageEjPj"
  },
  {
   "name" : "_ZN7android8hardware5media3omx4V1_05utils9LWOmxNode24configureVideoTunnelModeEj8OMX_BOOLjPP13native_handle"
  },
  {
   "name" : "_ZN7android8hardware5media3omx4V1_05utils9LWOmxNode26prepareForAdaptivePlaybackEj8OMX_BOOLjj"
  },
  {
   "name" : "_ZN7android8hardware5media3omx4V1_05utils9LWOmxNode8freeNodeEv"
  },
  {
   "name" : "_ZN7android8hardware5media3omx4V1_05utils9LWOmxNode9getConfigE13OMX_INDEXTYPEPvj"
  },
  {
   "name" : "_ZN7android8hardware5media3omx4V1_05utils9LWOmxNode9setConfigE13OMX_INDEXTYPEPKvj"
  },
  {
   "name" : "_ZN7android8hardware5media3omx4V1_05utils9LWOmxNode9useBufferEjRKNS_9OMXBufferEPj"
  },
  {
   "name" : "_ZN7android8hardware5media3omx4V1_05utils9TWOmxNode10fillBufferEjRKNS3_11CodecBufferERKNS0_11hidl_handleE"
  },
  {
   "name" : "_ZN7android8hardware5media3omx4V1_05utils9TWOmxNode10freeBufferEjj"
  },
  {
   "name" : "_ZN7android8hardware5media3omx4V1_05utils9TWOmxNode11emptyBufferEjRKNS3_11CodecBufferEjyRKNS0_11hidl_handleE"
  },
  {
   "name" : "_ZN7android8hardware5media3omx4V1_05utils9TWOmxNode11sendCommandEji"
  },
  {
   "name" : "_ZN7android8hardware5media3omx4V1_05utils9TWOmxNode11setPortModeEjNS3_8PortModeE"
  },
  {
   "name" : "_ZN7android8hardware5media3omx4V1_05utils9TWOmxNode12getParameterEjRKNS0_8hidl_vecIhEENSt3__18functionIFvNS3_6StatusES9_EEE"
  },
  {
   "name" : "_ZN7android8hardware5media3omx4V1_05utils9TWOmxNode12setParameterEjRKNS0_8hidl_vecIhEE"
  },
  {
   "name" : "_ZN7android8hardware5media3omx4V1_05utils9TWOmxNode15dispatchMessageERKNS3_7MessageE"
  },
  {
   "name" : "_ZN7android8hardware5media3omx4V1_05utils9TWOmxNode15setInputSurfaceERKNS_2spINS3_16IOmxBufferSourceEEE"
  },
  {
   "name" : "_ZN7android8hardware5media3omx4V1_05utils9TWOmxNode17getExtensionIndexERKNS0_11hidl_stringENSt3__18functionIFvNS3_6StatusEjEEE"
  },
  {
   "name" : "_ZN7android8hardware5media3omx4V1_05utils9TWOmxNode20allocateSecureBufferEjyNSt3__18functionIFvNS3_6StatusEjRKNS0_11hidl_handleEEEE"
  },
  {
   "name" : "_ZN7android8hardware5media3omx4V1_05utils9TWOmxNode21getGraphicBufferUsageEjNSt3__18functionIFvNS3_6StatusEjEEE"
  },
  {
   "name" : "_ZN7android8hardware5media3omx4V1_05utils9TWOmxNode24configureVideoTunnelModeEjbjNSt3__18functionIFvNS3_6StatusERKNS0_11hidl_handleEEEE"
  },
  {
   "name" : "_ZN7android8hardware5media3omx4V1_05utils9TWOmxNode26prepareForAdaptivePlaybackEjbjj"
  },
  {
   "name" : "_ZN7android8hardware5media3omx4V1_05utils9TWOmxNode8freeNodeEv"
  },
  {
   "name" : "_ZN7android8hardware5media3omx4V1_05utils9TWOmxNode9getConfigEjRKNS0_8hidl_vecIhEENSt3__18functionIFvNS3_6StatusES9_EEE"
  },
  {
   "name" : "_ZN7android8hardware5media3omx4V1_05utils9TWOmxNode9setConfigEjRKNS0_8hidl_vecIhEE"
  },
  {
   "name" : "_ZN7android8hardware5media3omx4V1_05utils9TWOmxNode9useBufferEjRKNS3_11CodecBufferENSt3__18functionIFvNS3_6StatusEjEEE"
  },
  {
   "name" : "_ZN7android8hardware5media3omx4V1_05utils9TWOmxNodeC1ERKNS_2spINS_8IOMXNodeEEE"
  },
  {
   "name" : "_ZN7android8hardware5media3omx4V1_05utils9TWOmxNodeC2ERKNS_2spINS_8IOMXNodeEEE"
  },
  {
   "name" : "_ZN7android9BnOMXNode10onTransactEjRKNS_6ParcelEPS1_j"
  },
  {
   "name" : "_ZN7android9OMXBuffer14readFromParcelEPKNS_6ParcelE"
  },
  {
   "name" : "_ZN7android9OMXBufferC1ERKNS_2spINS_12NativeHandleEEE"
  },
  {
   "name" : "_ZN7android9OMXBufferC1ERKNS_2spINS_13GraphicBufferEEE"
  },
  {
   "name" : "_ZN7android9OMXBufferC1ERKNS_2spINS_16MediaCodecBufferEEE"
  },
  {
   "name" : "_ZN7android9OMXBufferC1ERKNS_2spINS_7IMemoryEEE"
  },
  {
   "name" : "_ZN7android9OMXBufferC1ERKNS_8hardware11hidl_memoryE"
  },
  {
   "name" : "_ZN7android9OMXBufferC1Ejj"
  },
  {
   "name" : "_ZN7android9OMXBufferC1Ev"
  },
  {
   "name" : "_ZN7android9OMXBufferC2ERKNS_2spINS_12NativeHandleEEE"
  },
  {
   "name" : "_ZN7android9OMXBufferC2ERKNS_2spINS_13GraphicBufferEEE"
  },
  {
   "name" : "_ZN7android9OMXBufferC2ERKNS_2spINS_16MediaCodecBufferEEE"
  },
  {
   "name" : "_ZN7android9OMXBufferC2ERKNS_2spINS_7IMemoryEEE"
  },
  {
   "name" : "_ZN7android9OMXBufferC2ERKNS_8hardware11hidl_memoryE"
  },
  {
   "name" : "_ZN7android9OMXBufferC2Ejj"
  },
  {
   "name" : "_ZN7android9OMXBufferC2Ev"
  },
  {
   "name" : "_ZN7android9OMXBufferD1Ev"
  },
  {
   "name" : "_ZN7android9OMXBufferD2Ev"
  },
  {
   "name" : "_ZN7android9OMXBufferaSEOS0_"
  },
  {
   "name" : "_ZNK7android12IOMXObserver22getInterfaceDescriptorEv"
  },
  {
   "name" : "_ZNK7android16IOMXBufferSource22getInterfaceDescriptorEv"
  },
  {
   "name" : "_ZNK7android16MediaCodecBuffer4sizeEv"
  },
  {
   "name" : "_ZNK7android16MediaCodecBuffer6offsetEv"
  },
  {
   "name" : "_ZNK7android16MediaCodecBuffer8capacityEv"
  },
  {
   "name" : "_ZNK7android8IOMXNode11getHalIndexEv"
  },
  {
   "name" : "_ZNK7android8IOMXNode13getHalVariantEv"
  },
  {
   "name" : "_ZNK7android8IOMXNode22getInterfaceDescriptorEv"
  },
  {
   "name" : "_ZNK7android9OMXBuffer13writeToParcelEPNS_6ParcelE"
  },
  {
   "binding" : "weak",
   "name" : "_ZNSt3__16vectorIN7android2spINS1_12H2BConverterINS1_8hardware5media3omx4V1_08IOmxNodeENS1_9BnOMXNodeEE8ObituaryEEENS_9allocatorISC_EEE21__push_back_slow_pathISC_EEvOT_"
  },
  {
   "binding" : "weak",
   "name" : "_ZThn4_N7android12H2BConverterINS_8hardware5media3omx4V1_08IOmxNodeENS_9BnOMXNodeEE10onTransactEjRKNS_6ParcelEPS8_j"
  },
  {
   "binding" : "weak",
   "name" : "_ZThn4_N7android12H2BConverterINS_8hardware5media3omx4V1_08IOmxNodeENS_9BnOMXNodeEE11linkToDeathERKNS_2spINS_7IBinder14DeathRecipientEEEPvj"
  },
  {
   "binding" : "weak",
   "name" : "_ZThn4_N7android12H2BConverterINS_8hardware5media3omx4V1_08IOmxNodeENS_9BnOMXNodeEE13unlinkToDeathERKNS_2wpINS_7IBinder14DeathRecipientEEEPvjPSB_"
  },
  {
   "name" : "_ZThn4_N7android13BnOMXObserver10onTransactEjRKNS_6ParcelEPS1_j"
  },
  {
   "name" : "_ZThn4_N7android17BnOMXBufferSource10onTransactEjRKNS_6ParcelEPS1_j"
  },
  {
   "name" : "_ZThn4_N7android9BnOMXNode10onTransactEjRKNS_6ParcelEPS1_j"
  },
  {
   "name" : "_ZTv0_n12_N7android12IOMXObserverD0Ev"
  },
  {
   "name" : "_ZTv0_n12_N7android12IOMXObserverD1Ev"
  },
  {
   "name" : "_ZTv0_n12_N7android16IOMXBufferSourceD0Ev"
  },
  {
   "name" : "_ZTv0_n12_N7android16IOMXBufferSourceD1Ev"
  },
  {
   "name" : "_ZTv0_n12_N7android8IOMXNodeD0Ev"
  },
  {
   "name" : "_ZTv0_n12_N7android8IOMXNodeD1Ev"
  }
 ],
 "elf_objects" :
 [
  {
   "name" : "_ZN7android12IOMXObserver10descriptorE"
  },
  {
   "name" : "_ZN7android12IOMXObserver12default_implE"
  },
  {
   "name" : "_ZN7android16IOMXBufferSource10descriptorE"
  },
  {
   "name" : "_ZN7android16IOMXBufferSource12default_implE"
  },
  {
   "name" : "_ZN7android8IOMXNode10descriptorE"
  },
  {
   "binding" : "weak",
   "name" : "_ZN7android8IOMXNode27sGetHalTokenTransactionCodeE"
  },
  {
   "name" : "_ZN7android9OMXBuffer7sPresetE"
  },
  {
   "name" : "_ZTCN7android12IOMXObserverE0_NS_10IInterfaceE"
  },
  {
   "name" : "_ZTCN7android13BnOMXObserverE0_NS_10IInterfaceE"
  },
  {
   "name" : "_ZTCN7android13BnOMXObserverE0_NS_11BnInterfaceINS_12IOMXObserverEEE"
  },
  {
   "name" : "_ZTCN7android13BnOMXObserverE0_NS_12IOMXObserverE"
  },
  {
   "name" : "_ZTCN7android13BnOMXObserverE4_NS_7BBinderE"
  },
  {
   "name" : "_ZTCN7android13BnOMXObserverE4_NS_7IBinderE"
  },
  {
   "binding" : "weak",
   "name" : "_ZTCN7android13BpOMXObserverE0_NS_10IInterfaceE"
  },
  {
   "binding" : "weak",
   "name" : "_ZTCN7android13BpOMXObserverE0_NS_11BpInterfaceINS_12IOMXObserverEEE"
  },
  {
   "binding" : "weak",
   "name" : "_ZTCN7android13BpOMXObserverE0_NS_12IOMXObserverE"
  },
  {
   "binding" : "weak",
   "name" : "_ZTCN7android13BpOMXObserverE4_NS_9BpRefBaseE"
  },
  {
   "name" : "_ZTCN7android16IOMXBufferSourceE0_NS_10IInterfaceE"
  },
  {
   "name" : "_ZTCN7android17BnOMXBufferSourceE0_NS_10IInterfaceE"
  },
  {
   "name" : "_ZTCN7android17BnOMXBufferSourceE0_NS_11BnInterfaceINS_16IOMXBufferSourceEEE"
  },
  {
   "name" : "_ZTCN7android17BnOMXBufferSourceE0_NS_16IOMXBufferSourceE"
  },
  {
   "name" : "_ZTCN7android17BnOMXBufferSourceE4_NS_7BBinderE"
  },
  {
   "name" : "_ZTCN7android17BnOMXBufferSourceE4_NS_7IBinderE"
  },
  {
   "name" : "_ZTCN7android17BpOMXBufferSourceE0_NS_10IInterfaceE"
  },
  {
   "name" : "_ZTCN7android17BpOMXBufferSourceE0_NS_11BpInterfaceINS_16IOMXBufferSourceEEE"
  },
  {
   "name" : "_ZTCN7android17BpOMXBufferSourceE0_NS_16IOMXBufferSourceE"
  },
  {
   "name" : "_ZTCN7android17BpOMXBufferSourceE4_NS_9BpRefBaseE"
  },
  {
   "name" : "_ZTCN7android8IOMXNodeE0_NS_10IInterfaceE"
  },
  {
   "name" : "_ZTCN7android8hardware5media3omx4V1_05utils13LWOmxObserverE0_NS_10IInterfaceE"
  },
  {
   "name" : "_ZTCN7android8hardware5media3omx4V1_05utils13LWOmxObserverE0_NS_11BnInterfaceINS_12IOMXObserverEEE"
  },
  {
   "name" : "_ZTCN7android8hardware5media3omx4V1_05utils13LWOmxObserverE0_NS_12IOMXObserverE"
  },
  {
   "name" : "_ZTCN7android8hardware5media3omx4V1_05utils13LWOmxObserverE0_NS_13BnOMXObserverE"
  },
  {
   "name" : "_ZTCN7android8hardware5media3omx4V1_05utils13LWOmxObserverE4_NS_7BBinderE"
  },
  {
   "name" : "_ZTCN7android8hardware5media3omx4V1_05utils13LWOmxObserverE4_NS_7IBinderE"
  },
  {
   "name" : "_ZTCN7android8hardware5media3omx4V1_05utils13TWOmxObserverE0_NS3_12IOmxObserverE"
  },
  {
   "name" : "_ZTCN7android8hardware5media3omx4V1_05utils13TWOmxObserverE0_NS_4hidl4base4V1_05IBaseE"
  },
  {
   "name" : "_ZTCN7android8hardware5media3omx4V1_05utils17LWOmxBufferSourceE0_NS_10IInterfaceE"
  },
  {
   "name" : "_ZTCN7android8hardware5media3omx4V1_05utils17LWOmxBufferSourceE0_NS_11BnInterfaceINS_16IOMXBufferSourceEEE"
  },
  {
   "name" : "_ZTCN7android8hardware5media3omx4V1_05utils17LWOmxBufferSourceE0_NS_16IOMXBufferSourceE"
  },
  {
   "name" : "_ZTCN7android8hardware5media3omx4V1_05utils17LWOmxBufferSourceE0_NS_17BnOMXBufferSourceE"
  },
  {
   "name" : "_ZTCN7android8hardware5media3omx4V1_05utils17LWOmxBufferSourceE4_NS_7BBinderE"
  },
  {
   "name" : "_ZTCN7android8hardware5media3omx4V1_05utils17LWOmxBufferSourceE4_NS_7IBinderE"
  },
  {
   "name" : "_ZTCN7android8hardware5media3omx4V1_05utils17TWOmxBufferSourceE0_NS3_16IOmxBufferSourceE"
  },
  {
   "name" : "_ZTCN7android8hardware5media3omx4V1_05utils17TWOmxBufferSourceE0_NS_4hidl4base4V1_05IBaseE"
  },
  {
   "name" : "_ZTCN7android8hardware5media3omx4V1_05utils9LWOmxNodeE0_NS_10IInterfaceE"
  },
  {
   "name" : "_ZTCN7android8hardware5media3omx4V1_05utils9LWOmxNodeE0_NS_11BnInterfaceINS_8IOMXNodeEEE"
  },
  {
   "name" : "_ZTCN7android8hardware5media3omx4V1_05utils9LWOmxNodeE0_NS_12H2BConverterINS3_8IOmxNodeENS_9BnOMXNodeEEE"
  },
  {
   "name" : "_ZTCN7android8hardware5media3omx4V1_05utils9LWOmxNodeE0_NS_8IOMXNodeE"
  },
  {
   "name" : "_ZTCN7android8hardware5media3omx4V1_05utils9LWOmxNodeE0_NS_9BnOMXNodeE"
  },
  {
   "name" : "_ZTCN7android8hardware5media3omx4V1_05utils9LWOmxNodeE4_NS_7BBinderE"
  },
  {
   "name" : "_ZTCN7android8hardware5media3omx4V1_05utils9LWOmxNodeE4_NS_7IBinderE"
  },
  {
   "name" : "_ZTCN7android8hardware5media3omx4V1_05utils9TWOmxNodeE0_NS3_8IOmxNodeE"
  },
  {
   "name" : "_ZTCN7android8hardware5media3omx4V1_05utils9TWOmxNodeE0_NS_4hidl4base4V1_05IBaseE"
  },
  {
   "name" : "_ZTCN7android9BnOMXNodeE0_NS_10IInterfaceE"
  },
  {
   "name" : "_ZTCN7android9BnOMXNodeE0_NS_11BnInterfaceINS_8IOMXNodeEEE"
  },
  {
   "name" : "_ZTCN7android9BnOMXNodeE0_NS_8IOMXNodeE"
  },
  {
   "name" : "_ZTCN7android9BnOMXNodeE4_NS_7BBinderE"
  },
  {
   "name" : "_ZTCN7android9BnOMXNodeE4_NS_7IBinderE"
  },
  {
   "binding" : "weak",
   "name" : "_ZTCN7android9BpOMXNodeE0_NS_10IInterfaceE"
  },
  {
   "binding" : "weak",
   "name" : "_ZTCN7android9BpOMXNodeE0_NS_11BpInterfaceINS_8IOMXNodeEEE"
  },
  {
   "binding" : "weak",
   "name" : "_ZTCN7android9BpOMXNodeE0_NS_8IOMXNodeE"
  },
  {
   "binding" : "weak",
   "name" : "_ZTCN7android9BpOMXNodeE4_NS_9BpRefBaseE"
  },
  {
   "binding" : "weak",
   "name" : "_ZTCN7android9HpOMXNodeE0_NS_10IInterfaceE"
  },
  {
   "binding" : "weak",
   "name" : "_ZTCN7android9HpOMXNodeE0_NS_11HpInterfaceINS_9BpOMXNodeENS_8hardware5media3omx4V1_05utils9LWOmxNodeEJEEE"
  },
  {
   "binding" : "weak",
   "name" : "_ZTCN7android9HpOMXNodeE0_NS_8IOMXNodeE"
  },
  {
   "name" : "_ZTTN7android12IOMXObserverE"
  },
  {
   "name" : "_ZTTN7android13BnOMXObserverE"
  },
  {
   "binding" : "weak",
   "name" : "_ZTTN7android13BpOMXObserverE"
  },
  {
   "name" : "_ZTTN7android16IOMXBufferSourceE"
  },
  {
   "name" : "_ZTTN7android17BnOMXBufferSourceE"
  },
  {
   "name" : "_ZTTN7android17BpOMXBufferSourceE"
  },
  {
   "name" : "_ZTTN7android8IOMXNodeE"
  },
  {
   "name" : "_ZTTN7android8hardware5media3omx4V1_05utils13LWOmxObserverE"
  },
  {
   "name" : "_ZTTN7android8hardware5media3omx4V1_05utils13TWOmxObserverE"
  },
  {
   "name" : "_ZTTN7android8hardware5media3omx4V1_05utils17LWOmxBufferSourceE"
  },
  {
   "name" : "_ZTTN7android8hardware5media3omx4V1_05utils17TWOmxBufferSourceE"
  },
  {
   "name" : "_ZTTN7android8hardware5media3omx4V1_05utils9LWOmxNodeE"
  },
  {
   "name" : "_ZTTN7android8hardware5media3omx4V1_05utils9TWOmxNodeE"
  },
  {
   "name" : "_ZTTN7android9BnOMXNodeE"
  },
  {
   "binding" : "weak",
   "name" : "_ZTTN7android9BpOMXNodeE"
  },
  {
   "binding" : "weak",
   "name" : "_ZTTN7android9HpOMXNodeE"
  },
  {
   "binding" : "weak",
   "name" : "_ZTVN7android12H2BConverterINS_8hardware5media3omx4V1_08IOmxNodeENS_9BnOMXNodeEE8ObituaryE"
  },
  {
   "name" : "_ZTVN7android12IOMXObserverE"
  },
  {
   "name" : "_ZTVN7android13BnOMXObserverE"
  },
  {
   "binding" : "weak",
   "name" : "_ZTVN7android13BpOMXObserverE"
  },
  {
   "name" : "_ZTVN7android16IOMXBufferSourceE"
  },
  {
   "name" : "_ZTVN7android16MediaCodecBufferE"
  },
  {
   "name" : "_ZTVN7android17BnOMXBufferSourceE"
  },
  {
   "name" : "_ZTVN7android17BpOMXBufferSourceE"
  },
  {
   "binding" : "weak",
   "name" : "_ZTVN7android18OMXFenceParcelableE"
  },
  {
   "binding" : "weak",
   "name" : "_ZTVN7android6Parcel17FlattenableHelperINS_13GraphicBufferEEE"
  },
  {
   "name" : "_ZTVN7android8IOMXNodeE"
  },
  {
   "name" : "_ZTVN7android8hardware5media3omx4V1_05utils13LWOmxObserverE"
  },
  {
   "name" : "_ZTVN7android8hardware5media3omx4V1_05utils13TWOmxObserverE"
  },
  {
   "name" : "_ZTVN7android8hardware5media3omx4V1_05utils17LWOmxBufferSourceE"
  },
  {
   "name" : "_ZTVN7android8hardware5media3omx4V1_05utils17TWOmxBufferSourceE"
  },
  {
   "name" : "_ZTVN7android8hardware5media3omx4V1_05utils9LWOmxNodeE"
  },
  {
   "name" : "_ZTVN7android8hardware5media3omx4V1_05utils9TWOmxNodeE"
  },
  {
   "name" : "_ZTVN7android9BnOMXNodeE"
  },
  {
   "binding" : "weak",
   "name" : "_ZTVN7android9BpOMXNodeE"
  },
  {
   "binding" : "weak",
   "name" : "_ZTVN7android9HpOMXNodeE"
  }
 ],
 "enum_types" :
 [
  {
   "alignment" : 4,
   "enum_fields" :
   [
    {
     "enum_field_value" : 0,
     "name" : "OMX_DirInput"
    },
    {
     "enum_field_value" : 1,
     "name" : "OMX_DirOutput"
    },
    {
     "enum_field_value" : 2147483647,
     "name" : "OMX_DirMax"
    }
   ],
   "linker_set_key" : "_ZTI11OMX_DIRTYPE",
   "name" : "OMX_DIRTYPE",
   "referenced_type" : "_ZTI11OMX_DIRTYPE",
   "self_type" : "_ZTI11OMX_DIRTYPE",
   "size" : 4,
   "source_file" : "/frameworks/native/headers/media_plugin/media/openmax/OMX_Types.h",
   "underlying_type" : "_ZTIj"
  },
  {
   "alignment" : 4,
   "enum_fields" :
   [
    {
     "enum_field_value" : 1,
     "name" : "FLAG_ONEWAY"
    }
   ],
   "linker_set_key" : "_ZTI12$FLAG_ONEWAY",
   "name" : "(anonymous enum at frameworks/native/libs/binder/ndk/include_ndk/android/binder_ibinder.h:47:1)",
   "referenced_type" : "_ZTI12$FLAG_ONEWAY",
   "self_type" : "_ZTI12$FLAG_ONEWAY",
   "size" : 4,
   "source_file" : "/frameworks/native/libs/binder/ndk/include_ndk/android/binder_ibinder.h",
   "underlying_type" : "_ZTIj"
  },
  {
   "alignment" : 4,
   "enum_fields" :
   [
    {
     "enum_field_value" : 0,
     "name" : "OMX_ErrorNone"
    },
    {
     "enum_field_value" : -2147479552,
     "name" : "OMX_ErrorInsufficientResources"
    },
    {
     "enum_field_value" : -2147479551,
     "name" : "OMX_ErrorUndefined"
    },
    {
     "enum_field_value" : -2147479550,
     "name" : "OMX_ErrorInvalidComponentName"
    },
    {
     "enum_field_value" : -2147479549,
     "name" : "OMX_ErrorComponentNotFound"
    },
    {
     "enum_field_value" : -2147479548,
     "name" : "OMX_ErrorInvalidComponent"
    },
    {
     "enum_field_value" : -2147479547,
     "name" : "OMX_ErrorBadParameter"
    },
    {
     "enum_field_value" : -2147479546,
     "name" : "OMX_ErrorNotImplemented"
    },
    {
     "enum_field_value" : -2147479545,
     "name" : "OMX_ErrorUnderflow"
    },
    {
     "enum_field_value" : -2147479544,
     "name" : "OMX_ErrorOverflow"
    },
    {
     "enum_field_value" : -2147479543,
     "name" : "OMX_ErrorHardware"
    },
    {
     "enum_field_value" : -2147479542,
     "name" : "OMX_ErrorInvalidState"
    },
    {
     "enum_field_value" : -2147479541,
     "name" : "OMX_ErrorStreamCorrupt"
    },
    {
     "enum_field_value" : -2147479540,
     "name" : "OMX_ErrorPortsNotCompatible"
    },
    {
     "enum_field_value" : -2147479539,
     "name" : "OMX_ErrorResourcesLost"
    },
    {
     "enum_field_value" : -2147479538,
     "name" : "OMX_ErrorNoMore"
    },
    {
     "enum_field_value" : -2147479537,
     "name" : "OMX_ErrorVersionMismatch"
    },
    {
     "enum_field_value" : -2147479536,
     "name" : "OMX_ErrorNotReady"
    },
    {
     "enum_field_value" : -2147479535,
     "name" : "OMX_ErrorTimeout"
    },
    {
     "enum_field_value" : -2147479534,
     "name" : "OMX_ErrorSameState"
    },
    {
     "enum_field_value" : -2147479533,
     "name" : "OMX_ErrorResourcesPreempted"
    },
    {
     "enum_field_value" : -2147479532,
     "name" : "OMX_ErrorPortUnresponsiveDuringAllocation"
    },
    {
     "enum_field_value" : -2147479531,
     "name" : "OMX_ErrorPortUnresponsiveDuringDeallocation"
    },
    {
     "enum_field_value" : -2147479530,
     "name" : "OMX_ErrorPortUnresponsiveDuringStop"
    },
    {
     "enum_field_value" : -2147479529,
     "name" : "OMX_ErrorIncorrectStateTransition"
    },
    {
     "enum_field_value" : -2147479528,
     "name" : "OMX_ErrorIncorrectStateOperation"
    },
    {
     "enum_field_value" : -2147479527,
     "name" : "OMX_ErrorUnsupportedSetting"
    },
    {
     "enum_field_value" : -2147479526,
     "name" : "OMX_ErrorUnsupportedIndex"
    },
    {
     "enum_field_value" : -2147479525,
     "name" : "OMX_ErrorBadPortIndex"
    },
    {
     "enum_field_value" : -2147479524,
     "name" : "OMX_ErrorPortUnpopulated"
    },
    {
     "enum_field_value" : -2147479523,
     "name" : "OMX_ErrorComponentSuspended"
    },
    {
     "enum_field_value" : -2147479522,
     "name" : "OMX_ErrorDynamicResourcesUnavailable"
    },
    {
     "enum_field_value" : -2147479521,
     "name" : "OMX_ErrorMbErrorsInFrame"
    },
    {
     "enum_field_value" : -2147479520,
     "name" : "OMX_ErrorFormatNotDetected"
    },
    {
     "enum_field_value" : -2147479519,
     "name" : "OMX_ErrorContentPipeOpenFailed"
    },
    {
     "enum_field_value" : -2147479518,
     "name" : "OMX_ErrorContentPipeCreationFailed"
    },
    {
     "enum_field_value" : -2147479517,
     "name" : "OMX_ErrorSeperateTablesUsed"
    },
    {
     "enum_field_value" : -2147479516,
     "name" : "OMX_ErrorTunnelingUnsupported"
    },
    {
     "enum_field_value" : -1895825408,
     "name" : "OMX_ErrorKhronosExtensions"
    },
    {
     "enum_field_value" : -1879048192,
     "name" : "OMX_ErrorVendorStartUnused"
    },
    {
     "enum_field_value" : 2147483647,
     "name" : "OMX_ErrorMax"
    }
   ],
   "linker_set_key" : "_ZTI13OMX_ERRORTYPE",
   "name" : "OMX_ERRORTYPE",
   "referenced_type" : "_ZTI13OMX_ERRORTYPE",
   "self_type" : "_ZTI13OMX_ERRORTYPE",
   "size" : 4,
   "source_file" : "/frameworks/native/headers/media_plugin/media/openmax/OMX_Core.h",
   "underlying_type" : "_ZTIi"
  },
  {
   "alignment" : 4,
   "enum_fields" :
   [
    {
     "enum_field_value" : 0,
     "name" : "OMX_EventCmdComplete"
    },
    {
     "enum_field_value" : 1,
     "name" : "OMX_EventError"
    },
    {
     "enum_field_value" : 2,
     "name" : "OMX_EventMark"
    },
    {
     "enum_field_value" : 3,
     "name" : "OMX_EventPortSettingsChanged"
    },
    {
     "enum_field_value" : 4,
     "name" : "OMX_EventBufferFlag"
    },
    {
     "enum_field_value" : 5,
     "name" : "OMX_EventResourcesAcquired"
    },
    {
     "enum_field_value" : 6,
     "name" : "OMX_EventComponentResumed"
    },
    {
     "enum_field_value" : 7,
     "name" : "OMX_EventDynamicResourcesAvailable"
    },
    {
     "enum_field_value" : 8,
     "name" : "OMX_EventPortFormatDetected"
    },
    {
     "enum_field_value" : 1862270976,
     "name" : "OMX_EventKhronosExtensions"
    },
    {
     "enum_field_value" : 2130706432,
     "name" : "OMX_EventVendorStartUnused"
    },
    {
     "enum_field_value" : 2130706433,
     "name" : "OMX_EventOutputRendered"
    },
    {
     "enum_field_value" : 2130706434,
     "name" : "OMX_EventDataSpaceChanged"
    },
    {
     "enum_field_value" : 2130706435,
     "name" : "OMX_EventConfigUpdate"
    },
    {
     "enum_field_value" : 2147483647,
     "name" : "OMX_EventMax"
    }
   ],
   "linker_set_key" : "_ZTI13OMX_EVENTTYPE",
   "name" : "OMX_EVENTTYPE",
   "referenced_type" : "_ZTI13OMX_EVENTTYPE",
   "self_type" : "_ZTI13OMX_EVENTTYPE",
   "size" : 4,
   "source_file" : "/frameworks/native/headers/media_plugin/media/openmax/OMX_Core.h",
   "underlying_type" : "_ZTIj"
  },
  {
   "alignment" : 4,
   "enum_fields" :
   [
    {
     "enum_field_value" : 16777216,
     "name" : "OMX_IndexComponentStartUnused"
    },
    {
     "enum_field_value" : 16777217,
     "name" : "OMX_IndexParamPriorityMgmt"
    },
    {
     "enum_field_value" : 16777218,
     "name" : "OMX_IndexParamAudioInit"
    },
    {
     "enum_field_value" : 16777219,
     "name" : "OMX_IndexParamImageInit"
    },
    {
     "enum_field_value" : 16777220,
     "name" : "OMX_IndexParamVideoInit"
    },
    {
     "enum_field_value" : 16777221,
     "name" : "OMX_IndexParamOtherInit"
    },
    {
     "enum_field_value" : 16777222,
     "name" : "OMX_IndexParamNumAvailableStreams"
    },
    {
     "enum_field_value" : 16777223,
     "name" : "OMX_IndexParamActiveStream"
    },
    {
     "enum_field_value" : 16777224,
     "name" : "OMX_IndexParamSuspensionPolicy"
    },
    {
     "enum_field_value" : 16777225,
     "name" : "OMX_IndexParamComponentSuspended"
    },
    {
     "enum_field_value" : 16777226,
     "name" : "OMX_IndexConfigCapturing"
    },
    {
     "enum_field_value" : 16777227,
     "name" : "OMX_IndexConfigCaptureMode"
    },
    {
     "enum_field_value" : 16777228,
     "name" : "OMX_IndexAutoPauseAfterCapture"
    },
    {
     "enum_field_value" : 16777229,
     "name" : "OMX_IndexParamContentURI"
    },
    {
     "enum_field_value" : 16777230,
     "name" : "OMX_IndexParamCustomContentPipe"
    },
    {
     "enum_field_value" : 16777231,
     "name" : "OMX_IndexParamDisableResourceConcealment"
    },
    {
     "enum_field_value" : 16777232,
     "name" : "OMX_IndexConfigMetadataItemCount"
    },
    {
     "enum_field_value" : 16777233,
     "name" : "OMX_IndexConfigContainerNodeCount"
    },
    {
     "enum_field_value" : 16777234,
     "name" : "OMX_IndexConfigMetadataItem"
    },
    {
     "enum_field_value" : 16777235,
     "name" : "OMX_IndexConfigCounterNodeID"
    },
    {
     "enum_field_value" : 16777236,
     "name" : "OMX_IndexParamMetadataFilterType"
    },
    {
     "enum_field_value" : 16777237,
     "name" : "OMX_IndexParamMetadataKeyFilter"
    },
    {
     "enum_field_value" : 16777238,
     "name" : "OMX_IndexConfigPriorityMgmt"
    },
    {
     "enum_field_value" : 16777239,
     "name" : "OMX_IndexParamStandardComponentRole"
    },
    {
     "enum_field_value" : 16777240,
     "name" : "OMX_IndexComponentEndUnused"
    },
    {
     "enum_field_value" : 33554432,
     "name" : "OMX_IndexPortStartUnused"
    },
    {
     "enum_field_value" : 33554433,
     "name" : "OMX_IndexParamPortDefinition"
    },
    {
     "enum_field_value" : 33554434,
     "name" : "OMX_IndexParamCompBufferSupplier"
    },
    {
     "enum_field_value" : 33554435,
     "name" : "OMX_IndexPortEndUnused"
    },
    {
     "enum_field_value" : 50331648,
     "name" : "OMX_IndexReservedStartUnused"
    },
    {
     "enum_field_value" : 67108864,
     "name" : "OMX_IndexAudioStartUnused"
    },
    {
     "enum_field_value" : 67108865,
     "name" : "OMX_IndexParamAudioPortFormat"
    },
    {
     "enum_field_value" : 67108866,
     "name" : "OMX_IndexParamAudioPcm"
    },
    {
     "enum_field_value" : 67108867,
     "name" : "OMX_IndexParamAudioAac"
    },
    {
     "enum_field_value" : 67108868,
     "name" : "OMX_IndexParamAudioRa"
    },
    {
     "enum_field_value" : 67108869,
     "name" : "OMX_IndexParamAudioMp3"
    },
    {
     "enum_field_value" : 67108870,
     "name" : "OMX_IndexParamAudioAdpcm"
    },
    {
     "enum_field_value" : 67108871,
     "name" : "OMX_IndexParamAudioG723"
    },
    {
     "enum_field_value" : 67108872,
     "name" : "OMX_IndexParamAudioG729"
    },
    {
     "enum_field_value" : 67108873,
     "name" : "OMX_IndexParamAudioAmr"
    },
    {
     "enum_field_value" : 67108874,
     "name" : "OMX_IndexParamAudioWma"
    },
    {
     "enum_field_value" : 67108875,
     "name" : "OMX_IndexParamAudioSbc"
    },
    {
     "enum_field_value" : 67108876,
     "name" : "OMX_IndexParamAudioMidi"
    },
    {
     "enum_field_value" : 67108877,
     "name" : "OMX_IndexParamAudioGsm_FR"
    },
    {
     "enum_field_value" : 67108878,
     "name" : "OMX_IndexParamAudioMidiLoadUserSound"
    },
    {
     "enum_field_value" : 67108879,
     "name" : "OMX_IndexParamAudioG726"
    },
    {
     "enum_field_value" : 67108880,
     "name" : "OMX_IndexParamAudioGsm_EFR"
    },
    {
     "enum_field_value" : 67108881,
     "name" : "OMX_IndexParamAudioGsm_HR"
    },
    {
     "enum_field_value" : 67108882,
     "name" : "OMX_IndexParamAudioPdc_FR"
    },
    {
     "enum_field_value" : 67108883,
     "name" : "OMX_IndexParamAudioPdc_EFR"
    },
    {
     "enum_field_value" : 67108884,
     "name" : "OMX_IndexParamAudioPdc_HR"
    },
    {
     "enum_field_value" : 67108885,
     "name" : "OMX_IndexParamAudioTdma_FR"
    },
    {
     "enum_field_value" : 67108886,
     "name" : "OMX_IndexParamAudioTdma_EFR"
    },
    {
     "enum_field_value" : 67108887,
     "name" : "OMX_IndexParamAudioQcelp8"
    },
    {
     "enum_field_value" : 67108888,
     "name" : "OMX_IndexParamAudioQcelp13"
    },
    {
     "enum_field_value" : 67108889,
     "name" : "OMX_IndexParamAudioEvrc"
    },
    {
     "enum_field_value" : 67108890,
     "name" : "OMX_IndexParamAudioSmv"
    },
    {
     "enum_field_value" : 67108891,
     "name" : "OMX_IndexParamAudioVorbis"
    },
    {
     "enum_field_value" : 67108892,
     "name" : "OMX_IndexParamAudioFlac"
    },
    {
     "enum_field_value" : 67108893,
     "name" : "OMX_IndexAudioEndUnused"
    },
    {
     "enum_field_value" : 67108894,
     "name" : "OMX_IndexConfigAudioMidiImmediateEvent"
    },
    {
     "enum_field_value" : 67108895,
     "name" : "OMX_IndexConfigAudioMidiControl"
    },
    {
     "enum_field_value" : 67108896,
     "name" : "OMX_IndexConfigAudioMidiSoundBankProgram"
    },
    {
     "enum_field_value" : 67108897,
     "name" : "OMX_IndexConfigAudioMidiStatus"
    },
    {
     "enum_field_value" : 67108898,
     "name" : "OMX_IndexConfigAudioMidiMetaEvent"
    },
    {
     "enum_field_value" : 67108899,
     "name" : "OMX_IndexConfigAudioMidiMetaEventData"
    },
    {
     "enum_field_value" : 67108900,
     "name" : "OMX_IndexConfigAudioVolume"
    },
    {
     "enum_field_value" : 67108901,
     "name" : "OMX_IndexConfigAudioBalance"
    },
    {
     "enum_field_value" : 67108902,
     "name" : "OMX_IndexConfigAudioChannelMute"
    },
    {
     "enum_field_value" : 67108903,
     "name" : "OMX_IndexConfigAudioMute"
    },
    {
     "enum_field_value" : 67108904,
     "name" : "OMX_IndexConfigAudioLoudness"
    },
    {
     "enum_field_value" : 67108905,
     "name" : "OMX_IndexConfigAudioEchoCancelation"
    },
    {
     "enum_field_value" : 67108906,
     "name" : "OMX_IndexConfigAudioNoiseReduction"
    },
    {
     "enum_field_value" : 67108907,
     "name" : "OMX_IndexConfigAudioBass"
    },
    {
     "enum_field_value" : 67108908,
     "name" : "OMX_IndexConfigAudioTreble"
    },
    {
     "enum_field_value" : 67108909,
     "name" : "OMX_IndexConfigAudioStereoWidening"
    },
    {
     "enum_field_value" : 67108910,
     "name" : "OMX_IndexConfigAudioChorus"
    },
    {
     "enum_field_value" : 67108911,
     "name" : "OMX_IndexConfigAudioEqualizer"
    },
    {
     "enum_field_value" : 67108912,
     "name" : "OMX_IndexConfigAudioReverberation"
    },
    {
     "enum_field_value" : 67108913,
     "name" : "OMX_IndexConfigAudioChannelVolume"
    },
    {
     "enum_field_value" : 83886080,
     "name" : "OMX_IndexImageStartUnused"
    },
    {
     "enum_field_value" : 83886081,
     "name" : "OMX_IndexParamImagePortFormat"
    },
    {
     "enum_field_value" : 83886082,
     "name" : "OMX_IndexParamFlashControl"
    },
    {
     "enum_field_value" : 83886083,
     "name" : "OMX_IndexConfigFocusControl"
    },
    {
     "enum_field_value" : 83886084,
     "name" : "OMX_IndexParamQFactor"
    },
    {
     "enum_field_value" : 83886085,
     "name" : "OMX_IndexParamQuantizationTable"
    },
    {
     "enum_field_value" : 83886086,
     "name" : "OMX_IndexParamHuffmanTable"
    },
    {
     "enum_field_value" : 83886087,
     "name" : "OMX_IndexConfigFlashControl"
    },
    {
     "enum_field_value" : 100663296,
     "name" : "OMX_IndexVideoStartUnused"
    },
    {
     "enum_field_value" : 100663297,
     "name" : "OMX_IndexParamVideoPortFormat"
    },
    {
     "enum_field_value" : 100663298,
     "name" : "OMX_IndexParamVideoQuantization"
    },
    {
     "enum_field_value" : 100663299,
     "name" : "OMX_IndexParamVideoFastUpdate"
    },
    {
     "enum_field_value" : 100663300,
     "name" : "OMX_IndexParamVideoBitrate"
    },
    {
     "enum_field_value" : 100663301,
     "name" : "OMX_IndexParamVideoMotionVector"
    },
    {
     "enum_field_value" : 100663302,
     "name" : "OMX_IndexParamVideoIntraRefresh"
    },
    {
     "enum_field_value" : 100663303,
     "name" : "OMX_IndexParamVideoErrorCorrection"
    },
    {
     "enum_field_value" : 100663304,
     "name" : "OMX_IndexParamVideoVBSMC"
    },
    {
     "enum_field_value" : 100663305,
     "name" : "OMX_IndexParamVideoMpeg2"
    },
    {
     "enum_field_value" : 100663306,
     "name" : "OMX_IndexParamVideoMpeg4"
    },
    {
     "enum_field_value" : 100663307,
     "name" : "OMX_IndexParamVideoWmv"
    },
    {
     "enum_field_value" : 100663308,
     "name" : "OMX_IndexParamVideoRv"
    },
    {
     "enum_field_value" : 100663309,
     "name" : "OMX_IndexParamVideoAvc"
    },
    {
     "enum_field_value" : 100663310,
     "name" : "OMX_IndexParamVideoH263"
    },
    {
     "enum_field_value" : 100663311,
     "name" : "OMX_IndexParamVideoProfileLevelQuerySupported"
    },
    {
     "enum_field_value" : 100663312,
     "name" : "OMX_IndexParamVideoProfileLevelCurrent"
    },
    {
     "enum_field_value" : 100663313,
     "name" : "OMX_IndexConfigVideoBitrate"
    },
    {
     "enum_field_value" : 100663314,
     "name" : "OMX_IndexConfigVideoFramerate"
    },
    {
     "enum_field_value" : 100663315,
     "name" : "OMX_IndexConfigVideoIntraVOPRefresh"
    },
    {
     "enum_field_value" : 100663316,
     "name" : "OMX_IndexConfigVideoIntraMBRefresh"
    },
    {
     "enum_field_value" : 100663317,
     "name" : "OMX_IndexConfigVideoMBErrorReporting"
    },
    {
     "enum_field_value" : 100663318,
     "name" : "OMX_IndexParamVideoMacroblocksPerFrame"
    },
    {
     "enum_field_value" : 100663319,
     "name" : "OMX_IndexConfigVideoMacroBlockErrorMap"
    },
    {
     "enum_field_value" : 100663320,
     "name" : "OMX_IndexParamVideoSliceFMO"
    },
    {
     "enum_field_value" : 100663321,
     "name" : "OMX_IndexConfigVideoAVCIntraPeriod"
    },
    {
     "enum_field_value" : 100663322,
     "name" : "OMX_IndexConfigVideoNalSize"
    },
    {
     "enum_field_value" : 100663323,
     "name" : "OMX_IndexVideoEndUnused"
    },
    {
     "enum_field_value" : 117440512,
     "name" : "OMX_IndexCommonStartUnused"
    },
    {
     "enum_field_value" : 117440513,
     "name" : "OMX_IndexParamCommonDeblocking"
    },
    {
     "enum_field_value" : 117440514,
     "name" : "OMX_IndexParamCommonSensorMode"
    },
    {
     "enum_field_value" : 117440515,
     "name" : "OMX_IndexParamCommonInterleave"
    },
    {
     "enum_field_value" : 117440516,
     "name" : "OMX_IndexConfigCommonColorFormatConversion"
    },
    {
     "enum_field_value" : 117440517,
     "name" : "OMX_IndexConfigCommonScale"
    },
    {
     "enum_field_value" : 117440518,
     "name" : "OMX_IndexConfigCommonImageFilter"
    },
    {
     "enum_field_value" : 117440519,
     "name" : "OMX_IndexConfigCommonColorEnhancement"
    },
    {
     "enum_field_value" : 117440520,
     "name" : "OMX_IndexConfigCommonColorKey"
    },
    {
     "enum_field_value" : 117440521,
     "name" : "OMX_IndexConfigCommonColorBlend"
    },
    {
     "enum_field_value" : 117440522,
     "name" : "OMX_IndexConfigCommonFrameStabilisation"
    },
    {
     "enum_field_value" : 117440523,
     "name" : "OMX_IndexConfigCommonRotate"
    },
    {
     "enum_field_value" : 117440524,
     "name" : "OMX_IndexConfigCommonMirror"
    },
    {
     "enum_field_value" : 117440525,
     "name" : "OMX_IndexConfigCommonOutputPosition"
    },
    {
     "enum_field_value" : 117440526,
     "name" : "OMX_IndexConfigCommonInputCrop"
    },
    {
     "enum_field_value" : 117440527,
     "name" : "OMX_IndexConfigCommonOutputCrop"
    },
    {
     "enum_field_value" : 117440528,
     "name" : "OMX_IndexConfigCommonDigitalZoom"
    },
    {
     "enum_field_value" : 117440529,
     "name" : "OMX_IndexConfigCommonOpticalZoom"
    },
    {
     "enum_field_value" : 117440530,
     "name" : "OMX_IndexConfigCommonWhiteBalance"
    },
    {
     "enum_field_value" : 117440531,
     "name" : "OMX_IndexConfigCommonExposure"
    },
    {
     "enum_field_value" : 117440532,
     "name" : "OMX_IndexConfigCommonContrast"
    },
    {
     "enum_field_value" : 117440533,
     "name" : "OMX_IndexConfigCommonBrightness"
    },
    {
     "enum_field_value" : 117440534,
     "name" : "OMX_IndexConfigCommonBacklight"
    },
    {
     "enum_field_value" : 117440535,
     "name" : "OMX_IndexConfigCommonGamma"
    },
    {
     "enum_field_value" : 117440536,
     "name" : "OMX_IndexConfigCommonSaturation"
    },
    {
     "enum_field_value" : 117440537,
     "name" : "OMX_IndexConfigCommonLightness"
    },
    {
     "enum_field_value" : 117440538,
     "name" : "OMX_IndexConfigCommonExclusionRect"
    },
    {
     "enum_field_value" : 117440539,
     "name" : "OMX_IndexConfigCommonDithering"
    },
    {
     "enum_field_value" : 117440540,
     "name" : "OMX_IndexConfigCommonPlaneBlend"
    },
    {
     "enum_field_value" : 117440541,
     "name" : "OMX_IndexConfigCommonExposureValue"
    },
    {
     "enum_field_value" : 117440542,
     "name" : "OMX_IndexConfigCommonOutputSize"
    },
    {
     "enum_field_value" : 117440543,
     "name" : "OMX_IndexParamCommonExtraQuantData"
    },
    {
     "enum_field_value" : 117440544,
     "name" : "OMX_IndexConfigCommonFocusRegion"
    },
    {
     "enum_field_value" : 117440545,
     "name" : "OMX_IndexConfigCommonFocusStatus"
    },
    {
     "enum_field_value" : 117440546,
     "name" : "OMX_IndexConfigCommonTransitionEffect"
    },
    {
     "enum_field_value" : 117440547,
     "name" : "OMX_IndexCommonEndUnused"
    },
    {
     "enum_field_value" : 134217728,
     "name" : "OMX_IndexOtherStartUnused"
    },
    {
     "enum_field_value" : 134217729,
     "name" : "OMX_IndexParamOtherPortFormat"
    },
    {
     "enum_field_value" : 134217730,
     "name" : "OMX_IndexConfigOtherPower"
    },
    {
     "enum_field_value" : 134217731,
     "name" : "OMX_IndexConfigOtherStats"
    },
    {
     "enum_field_value" : 150994944,
     "name" : "OMX_IndexTimeStartUnused"
    },
    {
     "enum_field_value" : 150994945,
     "name" : "OMX_IndexConfigTimeScale"
    },
    {
     "enum_field_value" : 150994946,
     "name" : "OMX_IndexConfigTimeClockState"
    },
    {
     "enum_field_value" : 150994947,
     "name" : "OMX_IndexConfigTimeActiveRefClock"
    },
    {
     "enum_field_value" : 150994948,
     "name" : "OMX_IndexConfigTimeCurrentMediaTime"
    },
    {
     "enum_field_value" : 150994949,
     "name" : "OMX_IndexConfigTimeCurrentWallTime"
    },
    {
     "enum_field_value" : 150994950,
     "name" : "OMX_IndexConfigTimeCurrentAudioReference"
    },
    {
     "enum_field_value" : 150994951,
     "name" : "OMX_IndexConfigTimeCurrentVideoReference"
    },
    {
     "enum_field_value" : 150994952,
     "name" : "OMX_IndexConfigTimeMediaTimeRequest"
    },
    {
     "enum_field_value" : 150994953,
     "name" : "OMX_IndexConfigTimeClientStartTime"
    },
    {
     "enum_field_value" : 150994954,
     "name" : "OMX_IndexConfigTimePosition"
    },
    {
     "enum_field_value" : 150994955,
     "name" : "OMX_IndexConfigTimeSeekMode"
    },
    {
     "enum_field_value" : 1862270976,
     "name" : "OMX_IndexKhronosExtensions"
    },
    {
     "enum_field_value" : 2130706432,
     "name" : "OMX_IndexVendorStartUnused"
    },
    {
     "enum_field_value" : 2147483647,
     "name" : "OMX_IndexMax"
    }
   ],
   "linker_set_key" : "_ZTI13OMX_INDEXTYPE",
   "name" : "OMX_INDEXTYPE",
   "referenced_type" : "_ZTI13OMX_INDEXTYPE",
   "self_type" : "_ZTI13OMX_INDEXTYPE",
   "size" : 4,
   "source_file" : "/frameworks/native/headers/media_plugin/media/openmax/OMX_Index.h",
   "underlying_type" : "_ZTIj"
  },
  {
   "alignment" : 4,
   "enum_fields" :
   [
    {
     "enum_field_value" : 0,
     "name" : "OMX_StateInvalid"
    },
    {
     "enum_field_value" : 1,
     "name" : "OMX_StateLoaded"
    },
    {
     "enum_field_value" : 2,
     "name" : "OMX_StateIdle"
    },
    {
     "enum_field_value" : 3,
     "name" : "OMX_StateExecuting"
    },
    {
     "enum_field_value" : 4,
     "name" : "OMX_StatePause"
    },
    {
     "enum_field_value" : 5,
     "name" : "OMX_StateWaitForResources"
    },
    {
     "enum_field_value" : 1862270976,
     "name" : "OMX_StateKhronosExtensions"
    },
    {
     "enum_field_value" : 2130706432,
     "name" : "OMX_StateVendorStartUnused"
    },
    {
     "enum_field_value" : 2147483647,
     "name" : "OMX_StateMax"
    }
   ],
   "linker_set_key" : "_ZTI13OMX_STATETYPE",
   "name" : "OMX_STATETYPE",
   "referenced_type" : "_ZTI13OMX_STATETYPE",
   "self_type" : "_ZTI13OMX_STATETYPE",
   "size" : 4,
   "source_file" : "/frameworks/native/headers/media_plugin/media/openmax/OMX_Core.h",
   "underlying_type" : "_ZTIj"
  },
  {
   "alignment" : 4,
   "enum_fields" :
   [
    {
     "enum_field_value" : 1,
     "name" : "HAL_HDR_DOLBY_VISION"
    },
    {
     "enum_field_value" : 2,
     "name" : "HAL_HDR_HDR10"
    },
    {
     "enum_field_value" : 3,
     "name" : "HAL_HDR_HLG"
    }
   ],
   "linker_set_key" : "_ZTI13android_hdr_t",
   "name" : "android_hdr_t",
   "referenced_type" : "_ZTI13android_hdr_t",
   "self_type" : "_ZTI13android_hdr_t",
   "size" : 4,
   "source_file" : "/system/core/libsystem/include/system/graphics-base-v1.0.h",
   "underlying_type" : "_ZTIj"
  },
  {
   "alignment" : 4,
   "enum_fields" :
   [
    {
     "enum_field_value" : 0,
     "name" : "OMX_DitherNone"
    },
    {
     "enum_field_value" : 1,
     "name" : "OMX_DitherOrdered"
    },
    {
     "enum_field_value" : 2,
     "name" : "OMX_DitherErrorDiffusion"
    },
    {
     "enum_field_value" : 3,
     "name" : "OMX_DitherOther"
    },
    {
     "enum_field_value" : 1862270976,
     "name" : "OMX_DitherKhronosExtensions"
    },
    {
     "enum_field_value" : 2130706432,
     "name" : "OMX_DitherVendorStartUnused"
    },
    {
     "enum_field_value" : 2147483647,
     "name" : "OMX_DitherMax"
    }
   ],
   "linker_set_key" : "_ZTI14OMX_DITHERTYPE",
   "name" : "OMX_DITHERTYPE",
   "referenced_type" : "_ZTI14OMX_DITHERTYPE",
   "self_type" : "_ZTI14OMX_DITHERTYPE",
   "size" : 4,
   "source_file" : "/frameworks/native/headers/media_plugin/media/openmax/OMX_IVCommon.h",
   "underlying_type" : "_ZTIj"
  },
  {
   "alignment" : 4,
   "enum_fields" :
   [
    {
     "enum_field_value" : 0,
     "name" : "OMX_EndianBig"
    },
    {
     "enum_field_value" : 1,
     "name" : "OMX_EndianLittle"
    },
    {
     "enum_field_value" : 2147483647,
     "name" : "OMX_EndianMax"
    }
   ],
   "linker_set_key" : "_ZTI14OMX_ENDIANTYPE",
   "name" : "OMX_ENDIANTYPE",
   "referenced_type" : "_ZTI14OMX_ENDIANTYPE",
   "self_type" : "_ZTI14OMX_ENDIANTYPE",
   "size" : 4,
   "source_file" : "/frameworks/native/headers/media_plugin/media/openmax/OMX_Types.h",
   "underlying_type" : "_ZTIj"
  },
  {
   "alignment" : 4,
   "enum_fields" :
   [
    {
     "enum_field_value" : 0,
     "name" : "OMX_MirrorNone"
    },
    {
     "enum_field_value" : 1,
     "name" : "OMX_MirrorVertical"
    },
    {
     "enum_field_value" : 2,
     "name" : "OMX_MirrorHorizontal"
    },
    {
     "enum_field_value" : 3,
     "name" : "OMX_MirrorBoth"
    },
    {
     "enum_field_value" : 1862270976,
     "name" : "OMX_MirrorKhronosExtensions"
    },
    {
     "enum_field_value" : 2130706432,
     "name" : "OMX_MirrorVendorStartUnused"
    },
    {
     "enum_field_value" : 2147483647,
     "name" : "OMX_MirrorMax"
    }
   ],
   "linker_set_key" : "_ZTI14OMX_MIRRORTYPE",
   "name" : "OMX_MIRRORTYPE",
   "referenced_type" : "_ZTI14OMX_MIRRORTYPE",
   "self_type" : "_ZTI14OMX_MIRRORTYPE",
   "size" : 4,
   "source_file" : "/frameworks/native/headers/media_plugin/media/openmax/OMX_IVCommon.h",
   "underlying_type" : "_ZTIj"
  },
  {
   "alignment" : 4,
   "enum_fields" :
   [
    {
     "enum_field_value" : 0,
     "name" : "OMX_CommandStateSet"
    },
    {
     "enum_field_value" : 1,
     "name" : "OMX_CommandFlush"
    },
    {
     "enum_field_value" : 2,
     "name" : "OMX_CommandPortDisable"
    },
    {
     "enum_field_value" : 3,
     "name" : "OMX_CommandPortEnable"
    },
    {
     "enum_field_value" : 4,
     "name" : "OMX_CommandMarkBuffer"
    },
    {
     "enum_field_value" : 1862270976,
     "name" : "OMX_CommandKhronosExtensions"
    },
    {
     "enum_field_value" : 2130706432,
     "name" : "OMX_CommandVendorStartUnused"
    },
    {
     "enum_field_value" : 2147483647,
     "name" : "OMX_CommandMax"
    }
   ],
   "linker_set_key" : "_ZTI15OMX_COMMANDTYPE",
   "name" : "OMX_COMMANDTYPE",
   "referenced_type" : "_ZTI15OMX_COMMANDTYPE",
   "self_type" : "_ZTI15OMX_COMMANDTYPE",
   "size" : 4,
   "source_file" : "/frameworks/native/headers/media_plugin/media/openmax/OMX_Core.h",
   "underlying_type" : "_ZTIj"
  },
  {
   "alignment" : 4,
   "enum_fields" :
   [
    {
     "enum_field_value" : 0,
     "name" : "OMX_DataUnitCodedPicture"
    },
    {
     "enum_field_value" : 1,
     "name" : "OMX_DataUnitVideoSegment"
    },
    {
     "enum_field_value" : 2,
     "name" : "OMX_DataUnitSeveralSegments"
    },
    {
     "enum_field_value" : 3,
     "name" : "OMX_DataUnitArbitraryStreamSection"
    },
    {
     "enum_field_value" : 1862270976,
     "name" : "OMX_DataUnitKhronosExtensions"
    },
    {
     "enum_field_value" : 2130706432,
     "name" : "OMX_DataUnitVendorStartUnused"
    },
    {
     "enum_field_value" : 2147483647,
     "name" : "OMX_DataUnitMax"
    }
   ],
   "linker_set_key" : "_ZTI16OMX_DATAUNITTYPE",
   "name" : "OMX_DATAUNITTYPE",
   "referenced_type" : "_ZTI16OMX_DATAUNITTYPE",
   "self_type" : "_ZTI16OMX_DATAUNITTYPE",
   "size" : 4,
   "source_file" : "/frameworks/native/headers/media_plugin/media/openmax/OMX_IVCommon.h",
   "underlying_type" : "_ZTIj"
  },
  {
   "alignment" : 4,
   "enum_fields" :
   [
    {
     "enum_field_value" : 1863319552,
     "name" : "OMX_IndexExtComponentStartUnused"
    },
    {
     "enum_field_value" : 1863319553,
     "name" : "OMX_IndexConfigCallbackRequest"
    },
    {
     "enum_field_value" : 1863319554,
     "name" : "OMX_IndexConfigCommitMode"
    },
    {
     "enum_field_value" : 1863319555,
     "name" : "OMX_IndexConfigCommit"
    },
    {
     "enum_field_value" : 1863319556,
     "name" : "OMX_IndexConfigAndroidVendorExtension"
    },
    {
     "enum_field_value" : 1864368128,
     "name" : "OMX_IndexExtPortStartUnused"
    },
    {
     "enum_field_value" : 1866465280,
     "name" : "OMX_IndexExtAudioStartUnused"
    },
    {
     "enum_field_value" : 1866465281,
     "name" : "OMX_IndexParamAudioAndroidAc3"
    },
    {
     "enum_field_value" : 1866465282,
     "name" : "OMX_IndexParamAudioAndroidOpus"
    },
    {
     "enum_field_value" : 1866465283,
     "name" : "OMX_IndexParamAudioAndroidAacPresentation"
    },
    {
     "enum_field_value" : 1866465284,
     "name" : "OMX_IndexParamAudioAndroidEac3"
    },
    {
     "enum_field_value" : 1866465285,
     "name" : "OMX_IndexParamAudioProfileQuerySupported"
    },
    {
     "enum_field_value" : 1866465286,
     "name" : "OMX_IndexParamAudioAndroidAacDrcPresentation"
    },
    {
     "enum_field_value" : 1866465287,
     "name" : "OMX_IndexParamAudioAndroidAc4"
    },
    {
     "enum_field_value" : 1866465288,
     "name" : "OMX_IndexConfigAudioPresentation"
    },
    {
     "enum_field_value" : 1866465289,
     "name" : "OMX_IndexExtAudioEndUnused"
    },
    {
     "enum_field_value" : 1867513856,
     "name" : "OMX_IndexExtImageStartUnused"
    },
    {
     "enum_field_value" : 1868562432,
     "name" : "OMX_IndexExtVideoStartUnused"
    },
    {
     "enum_field_value" : 1868562433,
     "name" : "OMX_IndexParamNalStreamFormatSupported"
    },
    {
     "enum_field_value" : 1868562434,
     "name" : "OMX_IndexParamNalStreamFormat"
    },
    {
     "enum_field_value" : 1868562435,
     "name" : "OMX_IndexParamNalStreamFormatSelect"
    },
    {
     "enum_field_value" : 1868562436,
     "name" : "OMX_IndexParamVideoVp8"
    },
    {
     "enum_field_value" : 1868562437,
     "name" : "OMX_IndexConfigVideoVp8ReferenceFrame"
    },
    {
     "enum_field_value" : 1868562438,
     "name" : "OMX_IndexConfigVideoVp8ReferenceFrameType"
    },
    {
     "enum_field_value" : 1868562439,
     "name" : "OMX_IndexParamVideoAndroidVp8Encoder"
    },
    {
     "enum_field_value" : 1868562440,
     "name" : "OMX_IndexParamVideoHevc"
    },
    {
     "enum_field_value" : 1868562441,
     "name" : "OMX_IndexParamSliceSegments"
    },
    {
     "enum_field_value" : 1868562442,
     "name" : "OMX_IndexConfigAndroidIntraRefresh"
    },
    {
     "enum_field_value" : 1868562443,
     "name" : "OMX_IndexParamAndroidVideoTemporalLayering"
    },
    {
     "enum_field_value" : 1868562444,
     "name" : "OMX_IndexConfigAndroidVideoTemporalLayering"
    },
    {
     "enum_field_value" : 1868562445,
     "name" : "OMX_IndexParamMaxFrameDurationForBitrateControl"
    },
    {
     "enum_field_value" : 1868562446,
     "name" : "OMX_IndexParamVideoVp9"
    },
    {
     "enum_field_value" : 1868562447,
     "name" : "OMX_IndexParamVideoAndroidVp9Encoder"
    },
    {
     "enum_field_value" : 1868562448,
     "name" : "OMX_IndexParamVideoAndroidImageGrid"
    },
    {
     "enum_field_value" : 1868562449,
     "name" : "OMX_IndexParamVideoAndroidRequiresSwRenderer"
    },
    {
     "enum_field_value" : 1868562450,
     "name" : "OMX_IndexExtVideoEndUnused"
    },
    {
     "enum_field_value" : 1869611008,
     "name" : "OMX_IndexExtCommonStartUnused"
    },
    {
     "enum_field_value" : 1870659584,
     "name" : "OMX_IndexExtOtherStartUnused"
    },
    {
     "enum_field_value" : 1870659585,
     "name" : "OMX_IndexConfigAutoFramerateConversion"
    },
    {
     "enum_field_value" : 1870659586,
     "name" : "OMX_IndexConfigPriority"
    },
    {
     "enum_field_value" : 1870659587,
     "name" : "OMX_IndexConfigOperatingRate"
    },
    {
     "enum_field_value" : 1870659588,
     "name" : "OMX_IndexParamConsumerUsageBits"
    },
    {
     "enum_field_value" : 1870659589,
     "name" : "OMX_IndexConfigLatency"
    },
    {
     "enum_field_value" : 1870659590,
     "name" : "OMX_IndexConfigLowLatency"
    },
    {
     "enum_field_value" : 1870659591,
     "name" : "OMX_IndexExtOtherEndUnused"
    },
    {
     "enum_field_value" : 1871708160,
     "name" : "OMX_IndexExtTimeStartUnused"
    },
    {
     "enum_field_value" : 2147483647,
     "name" : "OMX_IndexExtMax"
    }
   ],
   "linker_set_key" : "_ZTI16OMX_INDEXEXTTYPE",
   "name" : "OMX_INDEXEXTTYPE",
   "referenced_type" : "_ZTI16OMX_INDEXEXTTYPE",
   "self_type" : "_ZTI16OMX_INDEXEXTTYPE",
   "size" : 4,
   "source_file" : "/frameworks/native/headers/media_plugin/media/openmax/OMX_IndexExt.h",
   "underlying_type" : "_ZTIj"
  },
  {
   "alignment" : 4,
   "enum_fields" :
   [
    {
     "enum_field_value" : 0,
     "name" : "OMX_MeteringModeAverage"
    },
    {
     "enum_field_value" : 1,
     "name" : "OMX_MeteringModeSpot"
    },
    {
     "enum_field_value" : 2,
     "name" : "OMX_MeteringModeMatrix"
    },
    {
     "enum_field_value" : 1862270976,
     "name" : "OMX_MeteringKhronosExtensions"
    },
    {
     "enum_field_value" : 2130706432,
     "name" : "OMX_MeteringVendorStartUnused"
    },
    {
     "enum_field_value" : 2147483647,
     "name" : "OMX_EVModeMax"
    }
   ],
   "linker_set_key" : "_ZTI16OMX_METERINGTYPE",
   "name" : "OMX_METERINGTYPE",
   "referenced_type" : "_ZTI16OMX_METERINGTYPE",
   "self_type" : "_ZTI16OMX_METERINGTYPE",
   "size" : 4,
   "source_file" : "/frameworks/native/headers/media_plugin/media/openmax/OMX_IVCommon.h",
   "underlying_type" : "_ZTIj"
  },
  {
   "alignment" : 4,
   "enum_fields" :
   [
    {
     "enum_field_value" : 0,
     "name" : "OMX_ExtraDataNone"
    },
    {
     "enum_field_value" : 1,
     "name" : "OMX_ExtraDataQuantization"
    },
    {
     "enum_field_value" : 1862270976,
     "name" : "OMX_ExtraDataKhronosExtensions"
    },
    {
     "enum_field_value" : 2130706432,
     "name" : "OMX_ExtraDataVendorStartUnused"
    },
    {
     "enum_field_value" : 2147483647,
     "name" : "OMX_ExtraDataMax"
    }
   ],
   "linker_set_key" : "_ZTI17OMX_EXTRADATATYPE",
   "name" : "OMX_EXTRADATATYPE",
   "referenced_type" : "_ZTI17OMX_EXTRADATATYPE",
   "self_type" : "_ZTI17OMX_EXTRADATATYPE",
   "size" : 4,
   "source_file" : "/frameworks/native/headers/media_plugin/media/openmax/OMX_Core.h",
   "underlying_type" : "_ZTIj"
  },
  {
   "alignment" : 4,
   "enum_fields" :
   [
    {
     "enum_field_value" : 0,
     "name" : "EX_NONE"
    },
    {
     "enum_field_value" : -1,
     "name" : "EX_SECURITY"
    },
    {
     "enum_field_value" : -2,
     "name" : "EX_BAD_PARCELABLE"
    },
    {
     "enum_field_value" : -3,
     "name" : "EX_ILLEGAL_ARGUMENT"
    },
    {
     "enum_field_value" : -4,
     "name" : "EX_NULL_POINTER"
    },
    {
     "enum_field_value" : -5,
     "name" : "EX_ILLEGAL_STATE"
    },
    {
     "enum_field_value" : -6,
     "name" : "EX_NETWORK_MAIN_THREAD"
    },
    {
     "enum_field_value" : -7,
     "name" : "EX_UNSUPPORTED_OPERATION"
    },
    {
     "enum_field_value" : -8,
     "name" : "EX_SERVICE_SPECIFIC"
    },
    {
     "enum_field_value" : -9,
     "name" : "EX_PARCELABLE"
    },
    {
     "enum_field_value" : -129,
     "name" : "EX_TRANSACTION_FAILED"
    }
   ],
   "linker_set_key" : "_ZTI18$EX_BAD_PARCELABLE",
   "name" : "(anonymous enum at frameworks/native/libs/binder/ndk/include_ndk/android/binder_status.h:65:1)",
   "referenced_type" : "_ZTI18$EX_BAD_PARCELABLE",
   "self_type" : "_ZTI18$EX_BAD_PARCELABLE",
   "size" : 4,
   "source_file" : "/frameworks/native/libs/binder/ndk/include_ndk/android/binder_status.h",
   "underlying_type" : "_ZTIi"
  },
  {
   "alignment" : 4,
   "enum_fields" :
   [
    {
     "enum_field_value" : 0,
     "name" : "OMX_ColorBlendNone"
    },
    {
     "enum_field_value" : 1,
     "name" : "OMX_ColorBlendAlphaConstant"
    },
    {
     "enum_field_value" : 2,
     "name" : "OMX_ColorBlendAlphaPerPixel"
    },
    {
     "enum_field_value" : 3,
     "name" : "OMX_ColorBlendAlternate"
    },
    {
     "enum_field_value" : 4,
     "name" : "OMX_ColorBlendAnd"
    },
    {
     "enum_field_value" : 5,
     "name" : "OMX_ColorBlendOr"
    },
    {
     "enum_field_value" : 6,
     "name" : "OMX_ColorBlendInvert"
    },
    {
     "enum_field_value" : 1862270976,
     "name" : "OMX_ColorBlendKhronosExtensions"
    },
    {
     "enum_field_value" : 2130706432,
     "name" : "OMX_ColorBlendVendorStartUnused"
    },
    {
     "enum_field_value" : 2147483647,
     "name" : "OMX_ColorBlendMax"
    }
   ],
   "linker_set_key" : "_ZTI18OMX_COLORBLENDTYPE",
   "name" : "OMX_COLORBLENDTYPE",
   "referenced_type" : "_ZTI18OMX_COLORBLENDTYPE",
   "self_type" : "_ZTI18OMX_COLORBLENDTYPE",
   "size" : 4,
   "source_file" : "/frameworks/native/headers/media_plugin/media/openmax/OMX_IVCommon.h",
   "underlying_type" : "_ZTIj"
  },
  {
   "alignment" : 4,
   "enum_fields" :
   [
    {
     "enum_field_value" : 4,
     "name" : "HAL_HDR_HDR10_PLUS"
    }
   ],
   "linker_set_key" : "_ZTI18android_hdr_v1_2_t",
   "name" : "android_hdr_v1_2_t",
   "referenced_type" : "_ZTI18android_hdr_v1_2_t",
   "self_type" : "_ZTI18android_hdr_v1_2_t",
   "size" : 4,
   "source_file" : "/system/core/libsystem/include/system/graphics-base-v1.2.h",
   "underlying_type" : "_ZTIj"
  },
  {
   "alignment" : 4,
   "enum_fields" :
   [
    {
     "enum_field_value" : 0,
     "name" : "OMX_FocusStatusOff"
    },
    {
     "enum_field_value" : 1,
     "name" : "OMX_FocusStatusRequest"
    },
    {
     "enum_field_value" : 2,
     "name" : "OMX_FocusStatusReached"
    },
    {
     "enum_field_value" : 3,
     "name" : "OMX_FocusStatusUnableToReach"
    },
    {
     "enum_field_value" : 4,
     "name" : "OMX_FocusStatusLost"
    },
    {
     "enum_field_value" : 1862270976,
     "name" : "OMX_FocusStatusKhronosExtensions"
    },
    {
     "enum_field_value" : 2130706432,
     "name" : "OMX_FocusStatusVendorStartUnused"
    },
    {
     "enum_field_value" : 2147483647,
     "name" : "OMX_FocusStatusMax"
    }
   ],
   "linker_set_key" : "_ZTI19OMX_FOCUSSTATUSTYPE",
   "name" : "OMX_FOCUSSTATUSTYPE",
   "referenced_type" : "_ZTI19OMX_FOCUSSTATUSTYPE",
   "self_type" : "_ZTI19OMX_FOCUSSTATUSTYPE",
   "size" : 4,
   "source_file" : "/frameworks/native/headers/media_plugin/media/openmax/OMX_IVCommon.h",
   "underlying_type" : "_ZTIj"
  },
  {
   "alignment" : 4,
   "enum_fields" :
   [
    {
     "enum_field_value" : 0,
     "name" : "OMX_ImageFilterNone"
    },
    {
     "enum_field_value" : 1,
     "name" : "OMX_ImageFilterNoise"
    },
    {
     "enum_field_value" : 2,
     "name" : "OMX_ImageFilterEmboss"
    },
    {
     "enum_field_value" : 3,
     "name" : "OMX_ImageFilterNegative"
    },
    {
     "enum_field_value" : 4,
     "name" : "OMX_ImageFilterSketch"
    },
    {
     "enum_field_value" : 5,
     "name" : "OMX_ImageFilterOilPaint"
    },
    {
     "enum_field_value" : 6,
     "name" : "OMX_ImageFilterHatch"
    },
    {
     "enum_field_value" : 7,
     "name" : "OMX_ImageFilterGpen"
    },
    {
     "enum_field_value" : 8,
     "name" : "OMX_ImageFilterAntialias"
    },
    {
     "enum_field_value" : 9,
     "name" : "OMX_ImageFilterDeRing"
    },
    {
     "enum_field_value" : 10,
     "name" : "OMX_ImageFilterSolarize"
    },
    {
     "enum_field_value" : 1862270976,
     "name" : "OMX_ImageFilterKhronosExtensions"
    },
    {
     "enum_field_value" : 2130706432,
     "name" : "OMX_ImageFilterVendorStartUnused"
    },
    {
     "enum_field_value" : 2147483647,
     "name" : "OMX_ImageFilterMax"
    }
   ],
   "linker_set_key" : "_ZTI19OMX_IMAGEFILTERTYPE",
   "name" : "OMX_IMAGEFILTERTYPE",
   "referenced_type" : "_ZTI19OMX_IMAGEFILTERTYPE",
   "self_type" : "_ZTI19OMX_IMAGEFILTERTYPE",
   "size" : 4,
   "source_file" : "/frameworks/native/headers/media_plugin/media/openmax/OMX_IVCommon.h",
   "underlying_type" : "_ZTIj"
  },
  {
   "alignment" : 4,
   "enum_fields" :
   [
    {
     "enum_field_value" : 1,
     "name" : "OMX_NaluFormatStartCodes"
    },
    {
     "enum_field_value" : 2,
     "name" : "OMX_NaluFormatOneNaluPerBuffer"
    },
    {
     "enum_field_value" : 4,
     "name" : "OMX_NaluFormatOneByteInterleaveLength"
    },
    {
     "enum_field_value" : 8,
     "name" : "OMX_NaluFormatTwoByteInterleaveLength"
    },
    {
     "enum_field_value" : 16,
     "name" : "OMX_NaluFormatFourByteInterleaveLength"
    },
    {
     "enum_field_value" : 2147483647,
     "name" : "OMX_NaluFormatCodingMax"
    }
   ],
   "linker_set_key" : "_ZTI19OMX_NALUFORMATSTYPE",
   "name" : "OMX_NALUFORMATSTYPE",
   "referenced_type" : "_ZTI19OMX_NALUFORMATSTYPE",
   "self_type" : "_ZTI19OMX_NALUFORMATSTYPE",
   "size" : 4,
   "source_file" : "/frameworks/native/headers/media_plugin/media/openmax/OMX_VideoExt.h",
   "underlying_type" : "_ZTIj"
  },
  {
   "alignment" : 4,
   "enum_fields" :
   [
    {
     "enum_field_value" : 0,
     "name" : "ANDROID_LOG_UNKNOWN"
    },
    {
     "enum_field_value" : 1,
     "name" : "ANDROID_LOG_DEFAULT"
    },
    {
     "enum_field_value" : 2,
     "name" : "ANDROID_LOG_VERBOSE"
    },
    {
     "enum_field_value" : 3,
     "name" : "ANDROID_LOG_DEBUG"
    },
    {
     "enum_field_value" : 4,
     "name" : "ANDROID_LOG_INFO"
    },
    {
     "enum_field_value" : 5,
     "name" : "ANDROID_LOG_WARN"
    },
    {
     "enum_field_value" : 6,
     "name" : "ANDROID_LOG_ERROR"
    },
    {
     "enum_field_value" : 7,
     "name" : "ANDROID_LOG_FATAL"
    },
    {
     "enum_field_value" : 8,
     "name" : "ANDROID_LOG_SILENT"
    }
   ],
   "linker_set_key" : "_ZTI19android_LogPriority",
   "name" : "android_LogPriority",
   "referenced_type" : "_ZTI19android_LogPriority",
   "self_type" : "_ZTI19android_LogPriority",
   "size" : 4,
   "source_file" : "/system/core/liblog/include/android/log.h",
   "underlying_type" : "_ZTIj"
  },
  {
   "alignment" : 4,
   "enum_fields" :
   [
    {
     "enum_field_value" : 0,
     "name" : "HAL_DATASPACE_UNKNOWN"
    },
    {
     "enum_field_value" : 1,
     "name" : "HAL_DATASPACE_ARBITRARY"
    },
    {
     "enum_field_value" : 16,
     "name" : "HAL_DATASPACE_STANDARD_SHIFT"
    },
    {
     "enum_field_value" : 4128768,
     "name" : "HAL_DATASPACE_STANDARD_MASK"
    },
    {
     "enum_field_value" : 0,
     "name" : "HAL_DATASPACE_STANDARD_UNSPECIFIED"
    },
    {
     "enum_field_value" : 65536,
     "name" : "HAL_DATASPACE_STANDARD_BT709"
    },
    {
     "enum_field_value" : 131072,
     "name" : "HAL_DATASPACE_STANDARD_BT601_625"
    },
    {
     "enum_field_value" : 196608,
     "name" : "HAL_DATASPACE_STANDARD_BT601_625_UNADJUSTED"
    },
    {
     "enum_field_value" : 262144,
     "name" : "HAL_DATASPACE_STANDARD_BT601_525"
    },
    {
     "enum_field_value" : 327680,
     "name" : "HAL_DATASPACE_STANDARD_BT601_525_UNADJUSTED"
    },
    {
     "enum_field_value" : 393216,
     "name" : "HAL_DATASPACE_STANDARD_BT2020"
    },
    {
     "enum_field_value" : 458752,
     "name" : "HAL_DATASPACE_STANDARD_BT2020_CONSTANT_LUMINANCE"
    },
    {
     "enum_field_value" : 524288,
     "name" : "HAL_DATASPACE_STANDARD_BT470M"
    },
    {
     "enum_field_value" : 589824,
     "name" : "HAL_DATASPACE_STANDARD_FILM"
    },
    {
     "enum_field_value" : 655360,
     "name" : "HAL_DATASPACE_STANDARD_DCI_P3"
    },
    {
     "enum_field_value" : 720896,
     "name" : "HAL_DATASPACE_STANDARD_ADOBE_RGB"
    },
    {
     "enum_field_value" : 22,
     "name" : "HAL_DATASPACE_TRANSFER_SHIFT"
    },
    {
     "enum_field_value" : 130023424,
     "name" : "HAL_DATASPACE_TRANSFER_MASK"
    },
    {
     "enum_field_value" : 0,
     "name" : "HAL_DATASPACE_TRANSFER_UNSPECIFIED"
    },
    {
     "enum_field_value" : 4194304,
     "name" : "HAL_DATASPACE_TRANSFER_LINEAR"
    },
    {
     "enum_field_value" : 8388608,
     "name" : "HAL_DATASPACE_TRANSFER_SRGB"
    },
    {
     "enum_field_value" : 12582912,
     "name" : "HAL_DATASPACE_TRANSFER_SMPTE_170M"
    },
    {
     "enum_field_value" : 16777216,
     "name" : "HAL_DATASPACE_TRANSFER_GAMMA2_2"
    },
    {
     "enum_field_value" : 20971520,
     "name" : "HAL_DATASPACE_TRANSFER_GAMMA2_6"
    },
    {
     "enum_field_value" : 25165824,
     "name" : "HAL_DATASPACE_TRANSFER_GAMMA2_8"
    },
    {
     "enum_field_value" : 29360128,
     "name" : "HAL_DATASPACE_TRANSFER_ST2084"
    },
    {
     "enum_field_value" : 33554432,
     "name" : "HAL_DATASPACE_TRANSFER_HLG"
    },
    {
     "enum_field_value" : 27,
     "name" : "HAL_DATASPACE_RANGE_SHIFT"
    },
    {
     "enum_field_value" : 939524096,
     "name" : "HAL_DATASPACE_RANGE_MASK"
    },
    {
     "enum_field_value" : 0,
     "name" : "HAL_DATASPACE_RANGE_UNSPECIFIED"
    },
    {
     "enum_field_value" : 134217728,
     "name" : "HAL_DATASPACE_RANGE_FULL"
    },
    {
     "enum_field_value" : 268435456,
     "name" : "HAL_DATASPACE_RANGE_LIMITED"
    },
    {
     "enum_field_value" : 402653184,
     "name" : "HAL_DATASPACE_RANGE_EXTENDED"
    },
    {
     "enum_field_value" : 512,
     "name" : "HAL_DATASPACE_SRGB_LINEAR"
    },
    {
     "enum_field_value" : 138477568,
     "name" : "HAL_DATASPACE_V0_SRGB_LINEAR"
    },
    {
     "enum_field_value" : 406913024,
     "name" : "HAL_DATASPACE_V0_SCRGB_LINEAR"
    },
    {
     "enum_field_value" : 513,
     "name" : "HAL_DATASPACE_SRGB"
    },
    {
     "enum_field_value" : 142671872,
     "name" : "HAL_DATASPACE_V0_SRGB"
    },
    {
     "enum_field_value" : 411107328,
     "name" : "HAL_DATASPACE_V0_SCRGB"
    },
    {
     "enum_field_value" : 257,
     "name" : "HAL_DATASPACE_JFIF"
    },
    {
     "enum_field_value" : 146931712,
     "name" : "HAL_DATASPACE_V0_JFIF"
    },
    {
     "enum_field_value" : 258,
     "name" : "HAL_DATASPACE_BT601_625"
    },
    {
     "enum_field_value" : 281149440,
     "name" : "HAL_DATASPACE_V0_BT601_625"
    },
    {
     "enum_field_value" : 259,
     "name" : "HAL_DATASPACE_BT601_525"
    },
    {
     "enum_field_value" : 281280512,
     "name" : "HAL_DATASPACE_V0_BT601_525"
    },
    {
     "enum_field_value" : 260,
     "name" : "HAL_DATASPACE_BT709"
    },
    {
     "enum_field_value" : 281083904,
     "name" : "HAL_DATASPACE_V0_BT709"
    },
    {
     "enum_field_value" : 139067392,
     "name" : "HAL_DATASPACE_DCI_P3_LINEAR"
    },
    {
     "enum_field_value" : 155844608,
     "name" : "HAL_DATASPACE_DCI_P3"
    },
    {
     "enum_field_value" : 139067392,
     "name" : "HAL_DATASPACE_DISPLAY_P3_LINEAR"
    },
    {
     "enum_field_value" : 143261696,
     "name" : "HAL_DATASPACE_DISPLAY_P3"
    },
    {
     "enum_field_value" : 151715840,
     "name" : "HAL_DATASPACE_ADOBE_RGB"
    },
    {
     "enum_field_value" : 138805248,
     "name" : "HAL_DATASPACE_BT2020_LINEAR"
    },
    {
     "enum_field_value" : 147193856,
     "name" : "HAL_DATASPACE_BT2020"
    },
    {
     "enum_field_value" : 163971072,
     "name" : "HAL_DATASPACE_BT2020_PQ"
    },
    {
     "enum_field_value" : 4096,
     "name" : "HAL_DATASPACE_DEPTH"
    },
    {
     "enum_field_value" : 4097,
     "name" : "HAL_DATASPACE_SENSOR"
    }
   ],
   "linker_set_key" : "_ZTI19android_dataspace_t",
   "name" : "android_dataspace_t",
   "referenced_type" : "_ZTI19android_dataspace_t",
   "self_type" : "_ZTI19android_dataspace_t",
   "size" : 4,
   "source_file" : "/system/core/libsystem/include/system/graphics-base-v1.0.h",
   "underlying_type" : "_ZTIj"
  },
  {
   "alignment" : 4,
   "enum_fields" :
   [
    {
     "enum_field_value" : 0,
     "name" : "FLEX_FORMAT_INVALID"
    },
    {
     "enum_field_value" : 1,
     "name" : "FLEX_FORMAT_Y"
    },
    {
     "enum_field_value" : 7,
     "name" : "FLEX_FORMAT_YCbCr"
    },
    {
     "enum_field_value" : 1073741831,
     "name" : "FLEX_FORMAT_YCbCrA"
    },
    {
     "enum_field_value" : 7168,
     "name" : "FLEX_FORMAT_RGB"
    },
    {
     "enum_field_value" : 1073748992,
     "name" : "FLEX_FORMAT_RGBA"
    }
   ],
   "linker_set_key" : "_ZTI19android_flex_format",
   "name" : "android_flex_format",
   "referenced_type" : "_ZTI19android_flex_format",
   "self_type" : "_ZTI19android_flex_format",
   "size" : 4,
   "source_file" : "/system/core/libsystem/include/system/graphics.h",
   "underlying_type" : "_ZTIj"
  },
  {
   "alignment" : 4,
   "enum_fields" :
   [
    {
     "enum_field_value" : 1,
     "name" : "HAL_TRANSFORM_FLIP_H"
    },
    {
     "enum_field_value" : 2,
     "name" : "HAL_TRANSFORM_FLIP_V"
    },
    {
     "enum_field_value" : 4,
     "name" : "HAL_TRANSFORM_ROT_90"
    },
    {
     "enum_field_value" : 3,
     "name" : "HAL_TRANSFORM_ROT_180"
    },
    {
     "enum_field_value" : 7,
     "name" : "HAL_TRANSFORM_ROT_270"
    }
   ],
   "linker_set_key" : "_ZTI19android_transform_t",
   "name" : "android_transform_t",
   "referenced_type" : "_ZTI19android_transform_t",
   "self_type" : "_ZTI19android_transform_t",
   "size" : 4,
   "source_file" : "/system/core/libsystem/include/system/graphics-base-v1.0.h",
   "underlying_type" : "_ZTIj"
  },
  {
   "alignment" : 4,
   "enum_fields" :
   [
    {
     "enum_field_value" : 0,
     "name" : "OMX_COLOR_FormatUnused"
    },
    {
     "enum_field_value" : 1,
     "name" : "OMX_COLOR_FormatMonochrome"
    },
    {
     "enum_field_value" : 2,
     "name" : "OMX_COLOR_Format8bitRGB332"
    },
    {
     "enum_field_value" : 3,
     "name" : "OMX_COLOR_Format12bitRGB444"
    },
    {
     "enum_field_value" : 4,
     "name" : "OMX_COLOR_Format16bitARGB4444"
    },
    {
     "enum_field_value" : 5,
     "name" : "OMX_COLOR_Format16bitARGB1555"
    },
    {
     "enum_field_value" : 6,
     "name" : "OMX_COLOR_Format16bitRGB565"
    },
    {
     "enum_field_value" : 7,
     "name" : "OMX_COLOR_Format16bitBGR565"
    },
    {
     "enum_field_value" : 8,
     "name" : "OMX_COLOR_Format18bitRGB666"
    },
    {
     "enum_field_value" : 9,
     "name" : "OMX_COLOR_Format18bitARGB1665"
    },
    {
     "enum_field_value" : 10,
     "name" : "OMX_COLOR_Format19bitARGB1666"
    },
    {
     "enum_field_value" : 11,
     "name" : "OMX_COLOR_Format24bitRGB888"
    },
    {
     "enum_field_value" : 12,
     "name" : "OMX_COLOR_Format24bitBGR888"
    },
    {
     "enum_field_value" : 13,
     "name" : "OMX_COLOR_Format24bitARGB1887"
    },
    {
     "enum_field_value" : 14,
     "name" : "OMX_COLOR_Format25bitARGB1888"
    },
    {
     "enum_field_value" : 15,
     "name" : "OMX_COLOR_Format32bitBGRA8888"
    },
    {
     "enum_field_value" : 16,
     "name" : "OMX_COLOR_Format32bitARGB8888"
    },
    {
     "enum_field_value" : 17,
     "name" : "OMX_COLOR_FormatYUV411Planar"
    },
    {
     "enum_field_value" : 18,
     "name" : "OMX_COLOR_FormatYUV411PackedPlanar"
    },
    {
     "enum_field_value" : 19,
     "name" : "OMX_COLOR_FormatYUV420Planar"
    },
    {
     "enum_field_value" : 20,
     "name" : "OMX_COLOR_FormatYUV420PackedPlanar"
    },
    {
     "enum_field_value" : 21,
     "name" : "OMX_COLOR_FormatYUV420SemiPlanar"
    },
    {
     "enum_field_value" : 22,
     "name" : "OMX_COLOR_FormatYUV422Planar"
    },
    {
     "enum_field_value" : 23,
     "name" : "OMX_COLOR_FormatYUV422PackedPlanar"
    },
    {
     "enum_field_value" : 24,
     "name" : "OMX_COLOR_FormatYUV422SemiPlanar"
    },
    {
     "enum_field_value" : 25,
     "name" : "OMX_COLOR_FormatYCbYCr"
    },
    {
     "enum_field_value" : 26,
     "name" : "OMX_COLOR_FormatYCrYCb"
    },
    {
     "enum_field_value" : 27,
     "name" : "OMX_COLOR_FormatCbYCrY"
    },
    {
     "enum_field_value" : 28,
     "name" : "OMX_COLOR_FormatCrYCbY"
    },
    {
     "enum_field_value" : 29,
     "name" : "OMX_COLOR_FormatYUV444Interleaved"
    },
    {
     "enum_field_value" : 30,
     "name" : "OMX_COLOR_FormatRawBayer8bit"
    },
    {
     "enum_field_value" : 31,
     "name" : "OMX_COLOR_FormatRawBayer10bit"
    },
    {
     "enum_field_value" : 32,
     "name" : "OMX_COLOR_FormatRawBayer8bitcompressed"
    },
    {
     "enum_field_value" : 33,
     "name" : "OMX_COLOR_FormatL2"
    },
    {
     "enum_field_value" : 34,
     "name" : "OMX_COLOR_FormatL4"
    },
    {
     "enum_field_value" : 35,
     "name" : "OMX_COLOR_FormatL8"
    },
    {
     "enum_field_value" : 36,
     "name" : "OMX_COLOR_FormatL16"
    },
    {
     "enum_field_value" : 37,
     "name" : "OMX_COLOR_FormatL24"
    },
    {
     "enum_field_value" : 38,
     "name" : "OMX_COLOR_FormatL32"
    },
    {
     "enum_field_value" : 39,
     "name" : "OMX_COLOR_FormatYUV420PackedSemiPlanar"
    },
    {
     "enum_field_value" : 40,
     "name" : "OMX_COLOR_FormatYUV422PackedSemiPlanar"
    },
    {
     "enum_field_value" : 41,
     "name" : "OMX_COLOR_Format18BitBGR666"
    },
    {
     "enum_field_value" : 42,
     "name" : "OMX_COLOR_Format24BitARGB6666"
    },
    {
     "enum_field_value" : 43,
     "name" : "OMX_COLOR_Format24BitABGR6666"
    },
    {
     "enum_field_value" : 1862270976,
     "name" : "OMX_COLOR_FormatKhronosExtensions"
    },
    {
     "enum_field_value" : 2130706432,
     "name" : "OMX_COLOR_FormatVendorStartUnused"
    },
    {
     "enum_field_value" : 2130708361,
     "name" : "OMX_COLOR_FormatAndroidOpaque"
    },
    {
     "enum_field_value" : 2130747392,
     "name" : "OMX_COLOR_Format32BitRGBA8888"
    },
    {
     "enum_field_value" : 2135033992,
     "name" : "OMX_COLOR_FormatYUV420Flexible"
    },
    {
     "enum_field_value" : 2135032171,
     "name" : "OMX_COLOR_FormatYUV420Planar16"
    },
    {
     "enum_field_value" : 2135181994,
     "name" : "OMX_COLOR_FormatYUV444Y410"
    },
    {
     "enum_field_value" : 2130706688,
     "name" : "OMX_TI_COLOR_FormatYUV420PackedSemiPlanar"
    },
    {
     "enum_field_value" : 2141391872,
     "name" : "OMX_QCOM_COLOR_FormatYVU420SemiPlanar"
    },
    {
     "enum_field_value" : 2141391875,
     "name" : "OMX_QCOM_COLOR_FormatYUV420PackedSemiPlanar64x32Tile2m8ka"
    },
    {
     "enum_field_value" : 2143289346,
     "name" : "OMX_SEC_COLOR_FormatNV12Tiled"
    },
    {
     "enum_field_value" : 2141391876,
     "name" : "OMX_QCOM_COLOR_FormatYUV420PackedSemiPlanar32m"
    },
    {
     "enum_field_value" : 2147483647,
     "name" : "OMX_COLOR_FormatMax"
    }
   ],
   "linker_set_key" : "_ZTI20OMX_COLOR_FORMATTYPE",
   "name" : "OMX_COLOR_FORMATTYPE",
   "referenced_type" : "_ZTI20OMX_COLOR_FORMATTYPE",
   "self_type" : "_ZTI20OMX_COLOR_FORMATTYPE",
   "size" : 4,
   "source_file" : "/frameworks/native/headers/media_plugin/media/openmax/OMX_IVCommon.h",
   "underlying_type" : "_ZTIj"
  },
  {
   "alignment" : 4,
   "enum_fields" :
   [
    {
     "enum_field_value" : 0,
     "name" : "OMX_VIDEO_CodingUnused"
    },
    {
     "enum_field_value" : 1,
     "name" : "OMX_VIDEO_CodingAutoDetect"
    },
    {
     "enum_field_value" : 2,
     "name" : "OMX_VIDEO_CodingMPEG2"
    },
    {
     "enum_field_value" : 3,
     "name" : "OMX_VIDEO_CodingH263"
    },
    {
     "enum_field_value" : 4,
     "name" : "OMX_VIDEO_CodingMPEG4"
    },
    {
     "enum_field_value" : 5,
     "name" : "OMX_VIDEO_CodingWMV"
    },
    {
     "enum_field_value" : 6,
     "name" : "OMX_VIDEO_CodingRV"
    },
    {
     "enum_field_value" : 7,
     "name" : "OMX_VIDEO_CodingAVC"
    },
    {
     "enum_field_value" : 8,
     "name" : "OMX_VIDEO_CodingMJPEG"
    },
    {
     "enum_field_value" : 9,
     "name" : "OMX_VIDEO_CodingVP8"
    },
    {
     "enum_field_value" : 10,
     "name" : "OMX_VIDEO_CodingVP9"
    },
    {
     "enum_field_value" : 11,
     "name" : "OMX_VIDEO_CodingHEVC"
    },
    {
     "enum_field_value" : 12,
     "name" : "OMX_VIDEO_CodingDolbyVision"
    },
    {
     "enum_field_value" : 13,
     "name" : "OMX_VIDEO_CodingImageHEIC"
    },
    {
     "enum_field_value" : 14,
     "name" : "OMX_VIDEO_CodingAV1"
    },
    {
     "enum_field_value" : 1862270976,
     "name" : "OMX_VIDEO_CodingKhronosExtensions"
    },
    {
     "enum_field_value" : 2130706432,
     "name" : "OMX_VIDEO_CodingVendorStartUnused"
    },
    {
     "enum_field_value" : 2147483647,
     "name" : "OMX_VIDEO_CodingMax"
    }
   ],
   "linker_set_key" : "_ZTI20OMX_VIDEO_CODINGTYPE",
   "name" : "OMX_VIDEO_CODINGTYPE",
   "referenced_type" : "_ZTI20OMX_VIDEO_CODINGTYPE",
   "self_type" : "_ZTI20OMX_VIDEO_CODINGTYPE",
   "size" : 4,
   "source_file" : "/frameworks/native/headers/media_plugin/media/openmax/OMX_Video.h",
   "underlying_type" : "_ZTIj"
  },
  {
   "alignment" : 4,
   "enum_fields" :
   [
    {
     "enum_field_value" : 0,
     "name" : "HAL_COLOR_MODE_NATIVE"
    },
    {
     "enum_field_value" : 1,
     "name" : "HAL_COLOR_MODE_STANDARD_BT601_625"
    },
    {
     "enum_field_value" : 2,
     "name" : "HAL_COLOR_MODE_STANDARD_BT601_625_UNADJUSTED"
    },
    {
     "enum_field_value" : 3,
     "name" : "HAL_COLOR_MODE_STANDARD_BT601_525"
    },
    {
     "enum_field_value" : 4,
     "name" : "HAL_COLOR_MODE_STANDARD_BT601_525_UNADJUSTED"
    },
    {
     "enum_field_value" : 5,
     "name" : "HAL_COLOR_MODE_STANDARD_BT709"
    },
    {
     "enum_field_value" : 6,
     "name" : "HAL_COLOR_MODE_DCI_P3"
    },
    {
     "enum_field_value" : 7,
     "name" : "HAL_COLOR_MODE_SRGB"
    },
    {
     "enum_field_value" : 8,
     "name" : "HAL_COLOR_MODE_ADOBE_RGB"
    },
    {
     "enum_field_value" : 9,
     "name" : "HAL_COLOR_MODE_DISPLAY_P3"
    }
   ],
   "linker_set_key" : "_ZTI20android_color_mode_t",
   "name" : "android_color_mode_t",
   "referenced_type" : "_ZTI20android_color_mode_t",
   "self_type" : "_ZTI20android_color_mode_t",
   "size" : 4,
   "source_file" : "/system/core/libsystem/include/system/graphics-base-v1.0.h",
   "underlying_type" : "_ZTIj"
  },
  {
   "alignment" : 4,
   "enum_fields" :
   [
    {
     "enum_field_value" : 0,
     "name" : "SYSTEM_TIME_REALTIME"
    },
    {
     "enum_field_value" : 1,
     "name" : "SYSTEM_TIME_MONOTONIC"
    },
    {
     "enum_field_value" : 2,
     "name" : "SYSTEM_TIME_PROCESS"
    },
    {
     "enum_field_value" : 3,
     "name" : "SYSTEM_TIME_THREAD"
    },
    {
     "enum_field_value" : 4,
     "name" : "SYSTEM_TIME_BOOTTIME"
    }
   ],
   "linker_set_key" : "_ZTI21$SYSTEM_TIME_BOOTTIME",
   "name" : "(anonymous enum at system/core/libutils/include/utils/Timers.h:79:1)",
   "referenced_type" : "_ZTI21$SYSTEM_TIME_BOOTTIME",
   "self_type" : "_ZTI21$SYSTEM_TIME_BOOTTIME",
   "size" : 4,
   "source_file" : "/system/core/libutils/include/utils/Timers.h",
   "underlying_type" : "_ZTIj"
  },
  {
   "alignment" : 4,
   "enum_fields" :
   [
    {
     "enum_field_value" : 0,
     "name" : "OMX_NumericalDataSigned"
    },
    {
     "enum_field_value" : 1,
     "name" : "OMX_NumericalDataUnsigned"
    },
    {
     "enum_field_value" : 2130706433,
     "name" : "OMX_NumericalDataFloat"
    },
    {
     "enum_field_value" : 2147483647,
     "name" : "OMX_NumercialDataMax"
    }
   ],
   "linker_set_key" : "_ZTI21OMX_NUMERICALDATATYPE",
   "name" : "OMX_NUMERICALDATATYPE",
   "referenced_type" : "_ZTI21OMX_NUMERICALDATATYPE",
   "self_type" : "_ZTI21OMX_NUMERICALDATATYPE",
   "size" : 4,
   "source_file" : "/frameworks/native/headers/media_plugin/media/openmax/OMX_Types.h",
   "underlying_type" : "_ZTIj"
  },
  {
   "alignment" : 4,
   "enum_fields" :
   [
    {
     "enum_field_value" : 1,
     "name" : "OMX_VIDEO_PictureTypeI"
    },
    {
     "enum_field_value" : 2,
     "name" : "OMX_VIDEO_PictureTypeP"
    },
    {
     "enum_field_value" : 4,
     "name" : "OMX_VIDEO_PictureTypeB"
    },
    {
     "enum_field_value" : 8,
     "name" : "OMX_VIDEO_PictureTypeSI"
    },
    {
     "enum_field_value" : 16,
     "name" : "OMX_VIDEO_PictureTypeSP"
    },
    {
     "enum_field_value" : 17,
     "name" : "OMX_VIDEO_PictureTypeEI"
    },
    {
     "enum_field_value" : 18,
     "name" : "OMX_VIDEO_PictureTypeEP"
    },
    {
     "enum_field_value" : 20,
     "name" : "OMX_VIDEO_PictureTypeS"
    },
    {
     "enum_field_value" : 1862270976,
     "name" : "OMX_VIDEO_PictureTypeKhronosExtensions"
    },
    {
     "enum_field_value" : 2130706432,
     "name" : "OMX_VIDEO_PictureTypeVendorStartUnused"
    },
    {
     "enum_field_value" : 2147483647,
     "name" : "OMX_VIDEO_PictureTypeMax"
    }
   ],
   "linker_set_key" : "_ZTI21OMX_VIDEO_PICTURETYPE",
   "name" : "OMX_VIDEO_PICTURETYPE",
   "referenced_type" : "_ZTI21OMX_VIDEO_PICTURETYPE",
   "self_type" : "_ZTI21OMX_VIDEO_PICTURETYPE",
   "size" : 4,
   "source_file" : "/frameworks/native/headers/media_plugin/media/openmax/OMX_Video.h",
   "underlying_type" : "_ZTIj"
  },
  {
   "alignment" : 4,
   "enum_fields" :
   [
    {
     "enum_field_value" : 0,
     "name" : "STATUS_OK"
    },
    {
     "enum_field_value" : -2147483648,
     "name" : "STATUS_UNKNOWN_ERROR"
    },
    {
     "enum_field_value" : -12,
     "name" : "STATUS_NO_MEMORY"
    },
    {
     "enum_field_value" : -38,
     "name" : "STATUS_INVALID_OPERATION"
    },
    {
     "enum_field_value" : -22,
     "name" : "STATUS_BAD_VALUE"
    },
    {
     "enum_field_value" : -2147483647,
     "name" : "STATUS_BAD_TYPE"
    },
    {
     "enum_field_value" : -2,
     "name" : "STATUS_NAME_NOT_FOUND"
    },
    {
     "enum_field_value" : -1,
     "name" : "STATUS_PERMISSION_DENIED"
    },
    {
     "enum_field_value" : -19,
     "name" : "STATUS_NO_INIT"
    },
    {
     "enum_field_value" : -17,
     "name" : "STATUS_ALREADY_EXISTS"
    },
    {
     "enum_field_value" : -32,
     "name" : "STATUS_DEAD_OBJECT"
    },
    {
     "enum_field_value" : -2147483646,
     "name" : "STATUS_FAILED_TRANSACTION"
    },
    {
     "enum_field_value" : -75,
     "name" : "STATUS_BAD_INDEX"
    },
    {
     "enum_field_value" : -61,
     "name" : "STATUS_NOT_ENOUGH_DATA"
    },
    {
     "enum_field_value" : -11,
     "name" : "STATUS_WOULD_BLOCK"
    },
    {
     "enum_field_value" : -110,
     "name" : "STATUS_TIMED_OUT"
    },
    {
     "enum_field_value" : -74,
     "name" : "STATUS_UNKNOWN_TRANSACTION"
    },
    {
     "enum_field_value" : -2147483641,
     "name" : "STATUS_FDS_NOT_ALLOWED"
    },
    {
     "enum_field_value" : -2147483640,
     "name" : "STATUS_UNEXPECTED_NULL"
    }
   ],
   "linker_set_key" : "_ZTI22$STATUS_ALREADY_EXISTS",
   "name" : "(anonymous enum at frameworks/native/libs/binder/ndk/include_ndk/android/binder_status.h:35:1)",
   "referenced_type" : "_ZTI22$STATUS_ALREADY_EXISTS",
   "self_type" : "_ZTI22$STATUS_ALREADY_EXISTS",
   "size" : 4,
   "source_file" : "/frameworks/native/libs/binder/ndk/include_ndk/android/binder_status.h",
   "underlying_type" : "_ZTIi"
  },
  {
   "alignment" : 4,
   "enum_fields" :
   [
    {
     "enum_field_value" : 1,
     "name" : "AHARDWAREBUFFER_FORMAT_R8G8B8A8_UNORM"
    },
    {
     "enum_field_value" : 2,
     "name" : "AHARDWAREBUFFER_FORMAT_R8G8B8X8_UNORM"
    },
    {
     "enum_field_value" : 3,
     "name" : "AHARDWAREBUFFER_FORMAT_R8G8B8_UNORM"
    },
    {
     "enum_field_value" : 4,
     "name" : "AHARDWAREBUFFER_FORMAT_R5G6B5_UNORM"
    },
    {
     "enum_field_value" : 22,
     "name" : "AHARDWAREBUFFER_FORMAT_R16G16B16A16_FLOAT"
    },
    {
     "enum_field_value" : 43,
     "name" : "AHARDWAREBUFFER_FORMAT_R10G10B10A2_UNORM"
    },
    {
     "enum_field_value" : 33,
     "name" : "AHARDWAREBUFFER_FORMAT_BLOB"
    },
    {
     "enum_field_value" : 48,
     "name" : "AHARDWAREBUFFER_FORMAT_D16_UNORM"
    },
    {
     "enum_field_value" : 49,
     "name" : "AHARDWAREBUFFER_FORMAT_D24_UNORM"
    },
    {
     "enum_field_value" : 50,
     "name" : "AHARDWAREBUFFER_FORMAT_D24_UNORM_S8_UINT"
    },
    {
     "enum_field_value" : 51,
     "name" : "AHARDWAREBUFFER_FORMAT_D32_FLOAT"
    },
    {
     "enum_field_value" : 52,
     "name" : "AHARDWAREBUFFER_FORMAT_D32_FLOAT_S8_UINT"
    },
    {
     "enum_field_value" : 53,
     "name" : "AHARDWAREBUFFER_FORMAT_S8_UINT"
    },
    {
     "enum_field_value" : 35,
     "name" : "AHARDWAREBUFFER_FORMAT_Y8Cb8Cr8_420"
    }
   ],
   "linker_set_key" : "_ZTI22AHardwareBuffer_Format",
   "name" : "AHardwareBuffer_Format",
   "referenced_type" : "_ZTI22AHardwareBuffer_Format",
   "self_type" : "_ZTI22AHardwareBuffer_Format",
   "size" : 4,
   "source_file" : "/frameworks/native/libs/nativewindow/include/android/hardware_buffer.h",
   "underlying_type" : "_ZTIj"
  },
  {
   "alignment" : 4,
   "enum_fields" :
   [
    {
     "enum_field_value" : 0,
     "name" : "OMX_BufferSupplyUnspecified"
    },
    {
     "enum_field_value" : 1,
     "name" : "OMX_BufferSupplyInput"
    },
    {
     "enum_field_value" : 2,
     "name" : "OMX_BufferSupplyOutput"
    },
    {
     "enum_field_value" : 1862270976,
     "name" : "OMX_BufferSupplyKhronosExtensions"
    },
    {
     "enum_field_value" : 2130706432,
     "name" : "OMX_BufferSupplyVendorStartUnused"
    },
    {
     "enum_field_value" : 2147483647,
     "name" : "OMX_BufferSupplyMax"
    }
   ],
   "linker_set_key" : "_ZTI22OMX_BUFFERSUPPLIERTYPE",
   "name" : "OMX_BUFFERSUPPLIERTYPE",
   "referenced_type" : "_ZTI22OMX_BUFFERSUPPLIERTYPE",
   "self_type" : "_ZTI22OMX_BUFFERSUPPLIERTYPE",
   "size" : 4,
   "source_file" : "/frameworks/native/headers/media_plugin/media/openmax/OMX_Core.h",
   "underlying_type" : "_ZTIj"
  },
  {
   "alignment" : 4,
   "enum_fields" :
   [
    {
     "enum_field_value" : 1,
     "name" : "OMX_VIDEO_AVCLevel1"
    },
    {
     "enum_field_value" : 2,
     "name" : "OMX_VIDEO_AVCLevel1b"
    },
    {
     "enum_field_value" : 4,
     "name" : "OMX_VIDEO_AVCLevel11"
    },
    {
     "enum_field_value" : 8,
     "name" : "OMX_VIDEO_AVCLevel12"
    },
    {
     "enum_field_value" : 16,
     "name" : "OMX_VIDEO_AVCLevel13"
    },
    {
     "enum_field_value" : 32,
     "name" : "OMX_VIDEO_AVCLevel2"
    },
    {
     "enum_field_value" : 64,
     "name" : "OMX_VIDEO_AVCLevel21"
    },
    {
     "enum_field_value" : 128,
     "name" : "OMX_VIDEO_AVCLevel22"
    },
    {
     "enum_field_value" : 256,
     "name" : "OMX_VIDEO_AVCLevel3"
    },
    {
     "enum_field_value" : 512,
     "name" : "OMX_VIDEO_AVCLevel31"
    },
    {
     "enum_field_value" : 1024,
     "name" : "OMX_VIDEO_AVCLevel32"
    },
    {
     "enum_field_value" : 2048,
     "name" : "OMX_VIDEO_AVCLevel4"
    },
    {
     "enum_field_value" : 4096,
     "name" : "OMX_VIDEO_AVCLevel41"
    },
    {
     "enum_field_value" : 8192,
     "name" : "OMX_VIDEO_AVCLevel42"
    },
    {
     "enum_field_value" : 16384,
     "name" : "OMX_VIDEO_AVCLevel5"
    },
    {
     "enum_field_value" : 32768,
     "name" : "OMX_VIDEO_AVCLevel51"
    },
    {
     "enum_field_value" : 65536,
     "name" : "OMX_VIDEO_AVCLevel52"
    },
    {
     "enum_field_value" : 131072,
     "name" : "OMX_VIDEO_AVCLevel6"
    },
    {
     "enum_field_value" : 262144,
     "name" : "OMX_VIDEO_AVCLevel61"
    },
    {
     "enum_field_value" : 524288,
     "name" : "OMX_VIDEO_AVCLevel62"
    },
    {
     "enum_field_value" : 1862270976,
     "name" : "OMX_VIDEO_AVCLevelKhronosExtensions"
    },
    {
     "enum_field_value" : 2130706432,
     "name" : "OMX_VIDEO_AVCLevelVendorStartUnused"
    },
    {
     "enum_field_value" : 2147483647,
     "name" : "OMX_VIDEO_AVCLevelMax"
    }
   ],
   "linker_set_key" : "_ZTI22OMX_VIDEO_AVCLEVELTYPE",
   "name" : "OMX_VIDEO_AVCLEVELTYPE",
   "referenced_type" : "_ZTI22OMX_VIDEO_AVCLEVELTYPE",
   "self_type" : "_ZTI22OMX_VIDEO_AVCLEVELTYPE",
   "size" : 4,
   "source_file" : "/frameworks/native/headers/media_plugin/media/openmax/OMX_Video.h",
   "underlying_type" : "_ZTIj"
  },
  {
   "alignment" : 4,
   "enum_fields" :
   [
    {
     "enum_field_value" : 0,
     "name" : "OMX_VIDEO_RVFormatUnused"
    },
    {
     "enum_field_value" : 1,
     "name" : "OMX_VIDEO_RVFormat8"
    },
    {
     "enum_field_value" : 2,
     "name" : "OMX_VIDEO_RVFormat9"
    },
    {
     "enum_field_value" : 3,
     "name" : "OMX_VIDEO_RVFormatG2"
    },
    {
     "enum_field_value" : 1862270976,
     "name" : "OMX_VIDEO_RVFormatKhronosExtensions"
    },
    {
     "enum_field_value" : 2130706432,
     "name" : "OMX_VIDEO_RVFormatVendorStartUnused"
    },
    {
     "enum_field_value" : 2147483647,
     "name" : "OMX_VIDEO_RVFormatMax"
    }
   ],
   "linker_set_key" : "_ZTI22OMX_VIDEO_RVFORMATTYPE",
   "name" : "OMX_VIDEO_RVFORMATTYPE",
   "referenced_type" : "_ZTI22OMX_VIDEO_RVFORMATTYPE",
   "self_type" : "_ZTI22OMX_VIDEO_RVFORMATTYPE",
   "size" : 4,
   "source_file" : "/frameworks/native/headers/media_plugin/media/openmax/OMX_Video.h",
   "underlying_type" : "_ZTIj"
  },
  {
   "alignment" : 4,
   "enum_fields" :
   [
    {
     "enum_field_value" : 1,
     "name" : "OMX_VIDEO_VP8Level_Version0"
    },
    {
     "enum_field_value" : 2,
     "name" : "OMX_VIDEO_VP8Level_Version1"
    },
    {
     "enum_field_value" : 4,
     "name" : "OMX_VIDEO_VP8Level_Version2"
    },
    {
     "enum_field_value" : 8,
     "name" : "OMX_VIDEO_VP8Level_Version3"
    },
    {
     "enum_field_value" : 1862270975,
     "name" : "OMX_VIDEO_VP8LevelUnknown"
    },
    {
     "enum_field_value" : 2147483647,
     "name" : "OMX_VIDEO_VP8LevelMax"
    }
   ],
   "linker_set_key" : "_ZTI22OMX_VIDEO_VP8LEVELTYPE",
   "name" : "OMX_VIDEO_VP8LEVELTYPE",
   "referenced_type" : "_ZTI22OMX_VIDEO_VP8LEVELTYPE",
   "self_type" : "_ZTI22OMX_VIDEO_VP8LEVELTYPE",
   "size" : 4,
   "source_file" : "/frameworks/native/headers/media_plugin/media/openmax/OMX_VideoExt.h",
   "underlying_type" : "_ZTIj"
  },
  {
   "alignment" : 4,
   "enum_fields" :
   [
    {
     "enum_field_value" : 1,
     "name" : "OMX_VIDEO_VP9Level1"
    },
    {
     "enum_field_value" : 2,
     "name" : "OMX_VIDEO_VP9Level11"
    },
    {
     "enum_field_value" : 4,
     "name" : "OMX_VIDEO_VP9Level2"
    },
    {
     "enum_field_value" : 8,
     "name" : "OMX_VIDEO_VP9Level21"
    },
    {
     "enum_field_value" : 16,
     "name" : "OMX_VIDEO_VP9Level3"
    },
    {
     "enum_field_value" : 32,
     "name" : "OMX_VIDEO_VP9Level31"
    },
    {
     "enum_field_value" : 64,
     "name" : "OMX_VIDEO_VP9Level4"
    },
    {
     "enum_field_value" : 128,
     "name" : "OMX_VIDEO_VP9Level41"
    },
    {
     "enum_field_value" : 256,
     "name" : "OMX_VIDEO_VP9Level5"
    },
    {
     "enum_field_value" : 512,
     "name" : "OMX_VIDEO_VP9Level51"
    },
    {
     "enum_field_value" : 1024,
     "name" : "OMX_VIDEO_VP9Level52"
    },
    {
     "enum_field_value" : 2048,
     "name" : "OMX_VIDEO_VP9Level6"
    },
    {
     "enum_field_value" : 4096,
     "name" : "OMX_VIDEO_VP9Level61"
    },
    {
     "enum_field_value" : 8192,
     "name" : "OMX_VIDEO_VP9Level62"
    },
    {
     "enum_field_value" : 1862270975,
     "name" : "OMX_VIDEO_VP9LevelUnknown"
    },
    {
     "enum_field_value" : 2147483647,
     "name" : "OMX_VIDEO_VP9LevelMax"
    }
   ],
   "linker_set_key" : "_ZTI22OMX_VIDEO_VP9LEVELTYPE",
   "name" : "OMX_VIDEO_VP9LEVELTYPE",
   "referenced_type" : "_ZTI22OMX_VIDEO_VP9LEVELTYPE",
   "self_type" : "_ZTI22OMX_VIDEO_VP9LEVELTYPE",
   "size" : 4,
   "source_file" : "/frameworks/native/headers/media_plugin/media/openmax/OMX_VideoExt.h",
   "underlying_type" : "_ZTIj"
  },
  {
   "alignment" : 4,
   "enum_fields" :
   [
    {
     "enum_field_value" : 1,
     "name" : "FLEX_COMPONENT_Y"
    },
    {
     "enum_field_value" : 2,
     "name" : "FLEX_COMPONENT_Cb"
    },
    {
     "enum_field_value" : 4,
     "name" : "FLEX_COMPONENT_Cr"
    },
    {
     "enum_field_value" : 1024,
     "name" : "FLEX_COMPONENT_R"
    },
    {
     "enum_field_value" : 2048,
     "name" : "FLEX_COMPONENT_G"
    },
    {
     "enum_field_value" : 4096,
     "name" : "FLEX_COMPONENT_B"
    },
    {
     "enum_field_value" : 1073741824,
     "name" : "FLEX_COMPONENT_A"
    }
   ],
   "linker_set_key" : "_ZTI22android_flex_component",
   "name" : "android_flex_component",
   "referenced_type" : "_ZTI22android_flex_component",
   "self_type" : "_ZTI22android_flex_component",
   "size" : 4,
   "source_file" : "/system/core/libsystem/include/system/graphics.h",
   "underlying_type" : "_ZTIj"
  },
  {
   "alignment" : 4,
   "enum_fields" :
   [
    {
     "enum_field_value" : 1,
     "name" : "HAL_PIXEL_FORMAT_RGBA_8888"
    },
    {
     "enum_field_value" : 2,
     "name" : "HAL_PIXEL_FORMAT_RGBX_8888"
    },
    {
     "enum_field_value" : 3,
     "name" : "HAL_PIXEL_FORMAT_RGB_888"
    },
    {
     "enum_field_value" : 4,
     "name" : "HAL_PIXEL_FORMAT_RGB_565"
    },
    {
     "enum_field_value" : 5,
     "name" : "HAL_PIXEL_FORMAT_BGRA_8888"
    },
    {
     "enum_field_value" : 16,
     "name" : "HAL_PIXEL_FORMAT_YCBCR_422_SP"
    },
    {
     "enum_field_value" : 17,
     "name" : "HAL_PIXEL_FORMAT_YCRCB_420_SP"
    },
    {
     "enum_field_value" : 20,
     "name" : "HAL_PIXEL_FORMAT_YCBCR_422_I"
    },
    {
     "enum_field_value" : 22,
     "name" : "HAL_PIXEL_FORMAT_RGBA_FP16"
    },
    {
     "enum_field_value" : 32,
     "name" : "HAL_PIXEL_FORMAT_RAW16"
    },
    {
     "enum_field_value" : 33,
     "name" : "HAL_PIXEL_FORMAT_BLOB"
    },
    {
     "enum_field_value" : 34,
     "name" : "HAL_PIXEL_FORMAT_IMPLEMENTATION_DEFINED"
    },
    {
     "enum_field_value" : 35,
     "name" : "HAL_PIXEL_FORMAT_YCBCR_420_888"
    },
    {
     "enum_field_value" : 36,
     "name" : "HAL_PIXEL_FORMAT_RAW_OPAQUE"
    },
    {
     "enum_field_value" : 37,
     "name" : "HAL_PIXEL_FORMAT_RAW10"
    },
    {
     "enum_field_value" : 38,
     "name" : "HAL_PIXEL_FORMAT_RAW12"
    },
    {
     "enum_field_value" : 43,
     "name" : "HAL_PIXEL_FORMAT_RGBA_1010102"
    },
    {
     "enum_field_value" : 538982489,
     "name" : "HAL_PIXEL_FORMAT_Y8"
    },
    {
     "enum_field_value" : 540422489,
     "name" : "HAL_PIXEL_FORMAT_Y16"
    },
    {
     "enum_field_value" : 842094169,
     "name" : "HAL_PIXEL_FORMAT_YV12"
    }
   ],
   "linker_set_key" : "_ZTI22android_pixel_format_t",
   "name" : "android_pixel_format_t",
   "referenced_type" : "_ZTI22android_pixel_format_t",
   "self_type" : "_ZTI22android_pixel_format_t",
   "size" : 4,
   "source_file" : "/system/core/libsystem/include/system/graphics-base-v1.0.h",
   "underlying_type" : "_ZTIj"
  },
  {
   "alignment" : 4,
   "enum_fields" :
   [
    {
     "enum_field_value" : 19,
     "name" : "ANDROID_PRIORITY_LOWEST"
    },
    {
     "enum_field_value" : 10,
     "name" : "ANDROID_PRIORITY_BACKGROUND"
    },
    {
     "enum_field_value" : 0,
     "name" : "ANDROID_PRIORITY_NORMAL"
    },
    {
     "enum_field_value" : -2,
     "name" : "ANDROID_PRIORITY_FOREGROUND"
    },
    {
     "enum_field_value" : -4,
     "name" : "ANDROID_PRIORITY_DISPLAY"
    },
    {
     "enum_field_value" : -8,
     "name" : "ANDROID_PRIORITY_URGENT_DISPLAY"
    },
    {
     "enum_field_value" : -10,
     "name" : "ANDROID_PRIORITY_VIDEO"
    },
    {
     "enum_field_value" : -16,
     "name" : "ANDROID_PRIORITY_AUDIO"
    },
    {
     "enum_field_value" : -19,
     "name" : "ANDROID_PRIORITY_URGENT_AUDIO"
    },
    {
     "enum_field_value" : -20,
     "name" : "ANDROID_PRIORITY_HIGHEST"
    },
    {
     "enum_field_value" : 0,
     "name" : "ANDROID_PRIORITY_DEFAULT"
    },
    {
     "enum_field_value" : -1,
     "name" : "ANDROID_PRIORITY_MORE_FAVORABLE"
    },
    {
     "enum_field_value" : 1,
     "name" : "ANDROID_PRIORITY_LESS_FAVORABLE"
    }
   ],
   "linker_set_key" : "_ZTI23$ANDROID_PRIORITY_AUDIO",
   "name" : "(anonymous enum at system/core/libsystem/include/system/thread_defs.h:26:1)",
   "referenced_type" : "_ZTI23$ANDROID_PRIORITY_AUDIO",
   "self_type" : "_ZTI23$ANDROID_PRIORITY_AUDIO",
   "size" : 4,
   "source_file" : "/system/core/libsystem/include/system/thread_defs.h",
   "underlying_type" : "_ZTIi"
  },
  {
   "alignment" : 4,
   "enum_fields" :
   [
    {
     "enum_field_value" : 1,
     "name" : "FIRST_CALL_TRANSACTION"
    },
    {
     "enum_field_value" : 16777215,
     "name" : "LAST_CALL_TRANSACTION"
    }
   ],
   "linker_set_key" : "_ZTI23$FIRST_CALL_TRANSACTION",
   "name" : "(anonymous enum at frameworks/native/libs/binder/ndk/include_ndk/android/binder_ibinder.h:59:1)",
   "referenced_type" : "_ZTI23$FIRST_CALL_TRANSACTION",
   "self_type" : "_ZTI23$FIRST_CALL_TRANSACTION",
   "size" : 4,
   "source_file" : "/frameworks/native/libs/binder/ndk/include_ndk/android/binder_ibinder.h",
   "underlying_type" : "_ZTIj"
  },
  {
   "alignment" : 4,
   "enum_fields" :
   [
    {
     "enum_field_value" : 0,
     "name" : "OMX_ExposureControlOff"
    },
    {
     "enum_field_value" : 1,
     "name" : "OMX_ExposureControlAuto"
    },
    {
     "enum_field_value" : 2,
     "name" : "OMX_ExposureControlNight"
    },
    {
     "enum_field_value" : 3,
     "name" : "OMX_ExposureControlBackLight"
    },
    {
     "enum_field_value" : 4,
     "name" : "OMX_ExposureControlSpotLight"
    },
    {
     "enum_field_value" : 5,
     "name" : "OMX_ExposureControlSports"
    },
    {
     "enum_field_value" : 6,
     "name" : "OMX_ExposureControlSnow"
    },
    {
     "enum_field_value" : 7,
     "name" : "OMX_ExposureControlBeach"
    },
    {
     "enum_field_value" : 8,
     "name" : "OMX_ExposureControlLargeAperture"
    },
    {
     "enum_field_value" : 9,
     "name" : "OMX_ExposureControlSmallApperture"
    },
    {
     "enum_field_value" : 1862270976,
     "name" : "OMX_ExposureControlKhronosExtensions"
    },
    {
     "enum_field_value" : 2130706432,
     "name" : "OMX_ExposureControlVendorStartUnused"
    },
    {
     "enum_field_value" : 2147483647,
     "name" : "OMX_ExposureControlMax"
    }
   ],
   "linker_set_key" : "_ZTI23OMX_EXPOSURECONTROLTYPE",
   "name" : "OMX_EXPOSURECONTROLTYPE",
   "referenced_type" : "_ZTI23OMX_EXPOSURECONTROLTYPE",
   "self_type" : "_ZTI23OMX_EXPOSURECONTROLTYPE",
   "size" : 4,
   "source_file" : "/frameworks/native/headers/media_plugin/media/openmax/OMX_IVCommon.h",
   "underlying_type" : "_ZTIj"
  },
  {
   "alignment" : 4,
   "enum_fields" :
   [
    {
     "enum_field_value" : 1,
     "name" : "OMX_VIDEO_H263Level10"
    },
    {
     "enum_field_value" : 2,
     "name" : "OMX_VIDEO_H263Level20"
    },
    {
     "enum_field_value" : 4,
     "name" : "OMX_VIDEO_H263Level30"
    },
    {
     "enum_field_value" : 8,
     "name" : "OMX_VIDEO_H263Level40"
    },
    {
     "enum_field_value" : 16,
     "name" : "OMX_VIDEO_H263Level45"
    },
    {
     "enum_field_value" : 32,
     "name" : "OMX_VIDEO_H263Level50"
    },
    {
     "enum_field_value" : 64,
     "name" : "OMX_VIDEO_H263Level60"
    },
    {
     "enum_field_value" : 128,
     "name" : "OMX_VIDEO_H263Level70"
    },
    {
     "enum_field_value" : 1862270976,
     "name" : "OMX_VIDEO_H263LevelKhronosExtensions"
    },
    {
     "enum_field_value" : 2130706432,
     "name" : "OMX_VIDEO_H263LevelVendorStartUnused"
    },
    {
     "enum_field_value" : 2147483647,
     "name" : "OMX_VIDEO_H263LevelMax"
    }
   ],
   "linker_set_key" : "_ZTI23OMX_VIDEO_H263LEVELTYPE",
   "name" : "OMX_VIDEO_H263LEVELTYPE",
   "referenced_type" : "_ZTI23OMX_VIDEO_H263LEVELTYPE",
   "self_type" : "_ZTI23OMX_VIDEO_H263LEVELTYPE",
   "size" : 4,
   "source_file" : "/frameworks/native/headers/media_plugin/media/openmax/OMX_Video.h",
   "underlying_type" : "_ZTIj"
  },
  {
   "alignment" : 4,
   "enum_fields" :
   [
    {
     "enum_field_value" : 0,
     "name" : "OMX_VIDEO_HEVCLevelUnknown"
    },
    {
     "enum_field_value" : 1,
     "name" : "OMX_VIDEO_HEVCMainTierLevel1"
    },
    {
     "enum_field_value" : 2,
     "name" : "OMX_VIDEO_HEVCHighTierLevel1"
    },
    {
     "enum_field_value" : 4,
     "name" : "OMX_VIDEO_HEVCMainTierLevel2"
    },
    {
     "enum_field_value" : 8,
     "name" : "OMX_VIDEO_HEVCHighTierLevel2"
    },
    {
     "enum_field_value" : 16,
     "name" : "OMX_VIDEO_HEVCMainTierLevel21"
    },
    {
     "enum_field_value" : 32,
     "name" : "OMX_VIDEO_HEVCHighTierLevel21"
    },
    {
     "enum_field_value" : 64,
     "name" : "OMX_VIDEO_HEVCMainTierLevel3"
    },
    {
     "enum_field_value" : 128,
     "name" : "OMX_VIDEO_HEVCHighTierLevel3"
    },
    {
     "enum_field_value" : 256,
     "name" : "OMX_VIDEO_HEVCMainTierLevel31"
    },
    {
     "enum_field_value" : 512,
     "name" : "OMX_VIDEO_HEVCHighTierLevel31"
    },
    {
     "enum_field_value" : 1024,
     "name" : "OMX_VIDEO_HEVCMainTierLevel4"
    },
    {
     "enum_field_value" : 2048,
     "name" : "OMX_VIDEO_HEVCHighTierLevel4"
    },
    {
     "enum_field_value" : 4096,
     "name" : "OMX_VIDEO_HEVCMainTierLevel41"
    },
    {
     "enum_field_value" : 8192,
     "name" : "OMX_VIDEO_HEVCHighTierLevel41"
    },
    {
     "enum_field_value" : 16384,
     "name" : "OMX_VIDEO_HEVCMainTierLevel5"
    },
    {
     "enum_field_value" : 32768,
     "name" : "OMX_VIDEO_HEVCHighTierLevel5"
    },
    {
     "enum_field_value" : 65536,
     "name" : "OMX_VIDEO_HEVCMainTierLevel51"
    },
    {
     "enum_field_value" : 131072,
     "name" : "OMX_VIDEO_HEVCHighTierLevel51"
    },
    {
     "enum_field_value" : 262144,
     "name" : "OMX_VIDEO_HEVCMainTierLevel52"
    },
    {
     "enum_field_value" : 524288,
     "name" : "OMX_VIDEO_HEVCHighTierLevel52"
    },
    {
     "enum_field_value" : 1048576,
     "name" : "OMX_VIDEO_HEVCMainTierLevel6"
    },
    {
     "enum_field_value" : 2097152,
     "name" : "OMX_VIDEO_HEVCHighTierLevel6"
    },
    {
     "enum_field_value" : 4194304,
     "name" : "OMX_VIDEO_HEVCMainTierLevel61"
    },
    {
     "enum_field_value" : 8388608,
     "name" : "OMX_VIDEO_HEVCHighTierLevel61"
    },
    {
     "enum_field_value" : 16777216,
     "name" : "OMX_VIDEO_HEVCMainTierLevel62"
    },
    {
     "enum_field_value" : 33554432,
     "name" : "OMX_VIDEO_HEVCHighTierLevel62"
    },
    {
     "enum_field_value" : 2147483647,
     "name" : "OMX_VIDEO_HEVCHighTiermax"
    }
   ],
   "linker_set_key" : "_ZTI23OMX_VIDEO_HEVCLEVELTYPE",
   "name" : "OMX_VIDEO_HEVCLEVELTYPE",
   "referenced_type" : "_ZTI23OMX_VIDEO_HEVCLEVELTYPE",
   "self_type" : "_ZTI23OMX_VIDEO_HEVCLEVELTYPE",
   "size" : 4,
   "source_file" : "/frameworks/native/headers/media_plugin/media/openmax/OMX_VideoExt.h",
   "underlying_type" : "_ZTIj"
  },
  {
   "alignment" : 4,
   "enum_fields" :
   [
    {
     "enum_field_value" : 1,
     "name" : "OMX_VIDEO_WMVFormatUnused"
    },
    {
     "enum_field_value" : 2,
     "name" : "OMX_VIDEO_WMVFormat7"
    },
    {
     "enum_field_value" : 4,
     "name" : "OMX_VIDEO_WMVFormat8"
    },
    {
     "enum_field_value" : 8,
     "name" : "OMX_VIDEO_WMVFormat9"
    },
    {
     "enum_field_value" : 1862270976,
     "name" : "OMX_VIDEO_WMFFormatKhronosExtensions"
    },
    {
     "enum_field_value" : 2130706432,
     "name" : "OMX_VIDEO_WMFFormatVendorStartUnused"
    },
    {
     "enum_field_value" : 2147483647,
     "name" : "OMX_VIDEO_WMVFormatMax"
    }
   ],
   "linker_set_key" : "_ZTI23OMX_VIDEO_WMVFORMATTYPE",
   "name" : "OMX_VIDEO_WMVFORMATTYPE",
   "referenced_type" : "_ZTI23OMX_VIDEO_WMVFORMATTYPE",
   "self_type" : "_ZTI23OMX_VIDEO_WMVFORMATTYPE",
   "size" : 4,
   "source_file" : "/frameworks/native/headers/media_plugin/media/openmax/OMX_Video.h",
   "underlying_type" : "_ZTIj"
  },
  {
   "alignment" : 4,
   "enum_fields" :
   [
    {
     "enum_field_value" : 0,
     "name" : "OMX_WhiteBalControlOff"
    },
    {
     "enum_field_value" : 1,
     "name" : "OMX_WhiteBalControlAuto"
    },
    {
     "enum_field_value" : 2,
     "name" : "OMX_WhiteBalControlSunLight"
    },
    {
     "enum_field_value" : 3,
     "name" : "OMX_WhiteBalControlCloudy"
    },
    {
     "enum_field_value" : 4,
     "name" : "OMX_WhiteBalControlShade"
    },
    {
     "enum_field_value" : 5,
     "name" : "OMX_WhiteBalControlTungsten"
    },
    {
     "enum_field_value" : 6,
     "name" : "OMX_WhiteBalControlFluorescent"
    },
    {
     "enum_field_value" : 7,
     "name" : "OMX_WhiteBalControlIncandescent"
    },
    {
     "enum_field_value" : 8,
     "name" : "OMX_WhiteBalControlFlash"
    },
    {
     "enum_field_value" : 9,
     "name" : "OMX_WhiteBalControlHorizon"
    },
    {
     "enum_field_value" : 1862270976,
     "name" : "OMX_WhiteBalControlKhronosExtensions"
    },
    {
     "enum_field_value" : 2130706432,
     "name" : "OMX_WhiteBalControlVendorStartUnused"
    },
    {
     "enum_field_value" : 2147483647,
     "name" : "OMX_WhiteBalControlMax"
    }
   ],
   "linker_set_key" : "_ZTI23OMX_WHITEBALCONTROLTYPE",
   "name" : "OMX_WHITEBALCONTROLTYPE",
   "referenced_type" : "_ZTI23OMX_WHITEBALCONTROLTYPE",
   "self_type" : "_ZTI23OMX_WHITEBALCONTROLTYPE",
   "size" : 4,
   "source_file" : "/frameworks/native/headers/media_plugin/media/openmax/OMX_IVCommon.h",
   "underlying_type" : "_ZTIj"
  },
  {
   "alignment" : 4,
   "enum_fields" :
   [
    {
     "enum_field_value" : 0,
     "name" : "OMX_EffectNone"
    },
    {
     "enum_field_value" : 1,
     "name" : "OMX_EffectFadeFromBlack"
    },
    {
     "enum_field_value" : 2,
     "name" : "OMX_EffectFadeToBlack"
    },
    {
     "enum_field_value" : 3,
     "name" : "OMX_EffectUnspecifiedThroughConstantColor"
    },
    {
     "enum_field_value" : 4,
     "name" : "OMX_EffectDissolve"
    },
    {
     "enum_field_value" : 5,
     "name" : "OMX_EffectWipe"
    },
    {
     "enum_field_value" : 6,
     "name" : "OMX_EffectUnspecifiedMixOfTwoScenes"
    },
    {
     "enum_field_value" : 1862270976,
     "name" : "OMX_EffectKhronosExtensions"
    },
    {
     "enum_field_value" : 2130706432,
     "name" : "OMX_EffectVendorStartUnused"
    },
    {
     "enum_field_value" : 2147483647,
     "name" : "OMX_EffectMax"
    }
   ],
   "linker_set_key" : "_ZTI24OMX_TRANSITIONEFFECTTYPE",
   "name" : "OMX_TRANSITIONEFFECTTYPE",
   "referenced_type" : "_ZTI24OMX_TRANSITIONEFFECTTYPE",
   "self_type" : "_ZTI24OMX_TRANSITIONEFFECTTYPE",
   "size" : 4,
   "source_file" : "/frameworks/native/headers/media_plugin/media/openmax/OMX_IVCommon.h",
   "underlying_type" : "_ZTIj"
  },
  {
   "alignment" : 4,
   "enum_fields" :
   [
    {
     "enum_field_value" : 1,
     "name" : "OMX_VIDEO_AVCProfileBaseline"
    },
    {
     "enum_field_value" : 2,
     "name" : "OMX_VIDEO_AVCProfileMain"
    },
    {
     "enum_field_value" : 4,
     "name" : "OMX_VIDEO_AVCProfileExtended"
    },
    {
     "enum_field_value" : 8,
     "name" : "OMX_VIDEO_AVCProfileHigh"
    },
    {
     "enum_field_value" : 16,
     "name" : "OMX_VIDEO_AVCProfileHigh10"
    },
    {
     "enum_field_value" : 32,
     "name" : "OMX_VIDEO_AVCProfileHigh422"
    },
    {
     "enum_field_value" : 64,
     "name" : "OMX_VIDEO_AVCProfileHigh444"
    },
    {
     "enum_field_value" : 1862270976,
     "name" : "OMX_VIDEO_AVCProfileKhronosExtensions"
    },
    {
     "enum_field_value" : 2130706432,
     "name" : "OMX_VIDEO_AVCProfileVendorStartUnused"
    },
    {
     "enum_field_value" : 2147483647,
     "name" : "OMX_VIDEO_AVCProfileMax"
    }
   ],
   "linker_set_key" : "_ZTI24OMX_VIDEO_AVCPROFILETYPE",
   "name" : "OMX_VIDEO_AVCPROFILETYPE",
   "referenced_type" : "_ZTI24OMX_VIDEO_AVCPROFILETYPE",
   "self_type" : "_ZTI24OMX_VIDEO_AVCPROFILETYPE",
   "size" : 4,
   "source_file" : "/frameworks/native/headers/media_plugin/media/openmax/OMX_Video.h",
   "underlying_type" : "_ZTIj"
  },
  {
   "alignment" : 4,
   "enum_fields" :
   [
    {
     "enum_field_value" : 0,
     "name" : "OMX_VIDEO_MPEG2LevelLL"
    },
    {
     "enum_field_value" : 1,
     "name" : "OMX_VIDEO_MPEG2LevelML"
    },
    {
     "enum_field_value" : 2,
     "name" : "OMX_VIDEO_MPEG2LevelH14"
    },
    {
     "enum_field_value" : 3,
     "name" : "OMX_VIDEO_MPEG2LevelHL"
    },
    {
     "enum_field_value" : 4,
     "name" : "OMX_VIDEO_MPEG2LevelHP"
    },
    {
     "enum_field_value" : 1862270976,
     "name" : "OMX_VIDEO_MPEG2LevelKhronosExtensions"
    },
    {
     "enum_field_value" : 2130706432,
     "name" : "OMX_VIDEO_MPEG2LevelVendorStartUnused"
    },
    {
     "enum_field_value" : 2147483647,
     "name" : "OMX_VIDEO_MPEG2LevelMax"
    }
   ],
   "linker_set_key" : "_ZTI24OMX_VIDEO_MPEG2LEVELTYPE",
   "name" : "OMX_VIDEO_MPEG2LEVELTYPE",
   "referenced_type" : "_ZTI24OMX_VIDEO_MPEG2LEVELTYPE",
   "self_type" : "_ZTI24OMX_VIDEO_MPEG2LEVELTYPE",
   "size" : 4,
   "source_file" : "/frameworks/native/headers/media_plugin/media/openmax/OMX_Video.h",
   "underlying_type" : "_ZTIj"
  },
  {
   "alignment" : 4,
   "enum_fields" :
   [
    {
     "enum_field_value" : 1,
     "name" : "OMX_VIDEO_MPEG4Level0"
    },
    {
     "enum_field_value" : 2,
     "name" : "OMX_VIDEO_MPEG4Level0b"
    },
    {
     "enum_field_value" : 4,
     "name" : "OMX_VIDEO_MPEG4Level1"
    },
    {
     "enum_field_value" : 8,
     "name" : "OMX_VIDEO_MPEG4Level2"
    },
    {
     "enum_field_value" : 16,
     "name" : "OMX_VIDEO_MPEG4Level3"
    },
    {
     "enum_field_value" : 24,
     "name" : "OMX_VIDEO_MPEG4Level3b"
    },
    {
     "enum_field_value" : 32,
     "name" : "OMX_VIDEO_MPEG4Level4"
    },
    {
     "enum_field_value" : 64,
     "name" : "OMX_VIDEO_MPEG4Level4a"
    },
    {
     "enum_field_value" : 128,
     "name" : "OMX_VIDEO_MPEG4Level5"
    },
    {
     "enum_field_value" : 256,
     "name" : "OMX_VIDEO_MPEG4Level6"
    },
    {
     "enum_field_value" : 1862270976,
     "name" : "OMX_VIDEO_MPEG4LevelKhronosExtensions"
    },
    {
     "enum_field_value" : 2130706432,
     "name" : "OMX_VIDEO_MPEG4LevelVendorStartUnused"
    },
    {
     "enum_field_value" : 2147483647,
     "name" : "OMX_VIDEO_MPEG4LevelMax"
    }
   ],
   "linker_set_key" : "_ZTI24OMX_VIDEO_MPEG4LEVELTYPE",
   "name" : "OMX_VIDEO_MPEG4LEVELTYPE",
   "referenced_type" : "_ZTI24OMX_VIDEO_MPEG4LEVELTYPE",
   "self_type" : "_ZTI24OMX_VIDEO_MPEG4LEVELTYPE",
   "size" : 4,
   "source_file" : "/frameworks/native/headers/media_plugin/media/openmax/OMX_Video.h",
   "underlying_type" : "_ZTIj"
  },
  {
   "alignment" : 4,
   "enum_fields" :
   [
    {
     "enum_field_value" : 1,
     "name" : "OMX_VIDEO_VP8ProfileMain"
    },
    {
     "enum_field_value" : 1862270975,
     "name" : "OMX_VIDEO_VP8ProfileUnknown"
    },
    {
     "enum_field_value" : 2147483647,
     "name" : "OMX_VIDEO_VP8ProfileMax"
    }
   ],
   "linker_set_key" : "_ZTI24OMX_VIDEO_VP8PROFILETYPE",
   "name" : "OMX_VIDEO_VP8PROFILETYPE",
   "referenced_type" : "_ZTI24OMX_VIDEO_VP8PROFILETYPE",
   "self_type" : "_ZTI24OMX_VIDEO_VP8PROFILETYPE",
   "size" : 4,
   "source_file" : "/frameworks/native/headers/media_plugin/media/openmax/OMX_VideoExt.h",
   "underlying_type" : "_ZTIj"
  },
  {
   "alignment" : 4,
   "enum_fields" :
   [
    {
     "enum_field_value" : 1,
     "name" : "OMX_VIDEO_VP9Profile0"
    },
    {
     "enum_field_value" : 2,
     "name" : "OMX_VIDEO_VP9Profile1"
    },
    {
     "enum_field_value" : 4,
     "name" : "OMX_VIDEO_VP9Profile2"
    },
    {
     "enum_field_value" : 8,
     "name" : "OMX_VIDEO_VP9Profile3"
    },
    {
     "enum_field_value" : 4096,
     "name" : "OMX_VIDEO_VP9Profile2HDR"
    },
    {
     "enum_field_value" : 8192,
     "name" : "OMX_VIDEO_VP9Profile3HDR"
    },
    {
     "enum_field_value" : 16384,
     "name" : "OMX_VIDEO_VP9Profile2HDR10Plus"
    },
    {
     "enum_field_value" : 32768,
     "name" : "OMX_VIDEO_VP9Profile3HDR10Plus"
    },
    {
     "enum_field_value" : 1862270975,
     "name" : "OMX_VIDEO_VP9ProfileUnknown"
    },
    {
     "enum_field_value" : 2147483647,
     "name" : "OMX_VIDEO_VP9ProfileMax"
    }
   ],
   "linker_set_key" : "_ZTI24OMX_VIDEO_VP9PROFILETYPE",
   "name" : "OMX_VIDEO_VP9PROFILETYPE",
   "referenced_type" : "_ZTI24OMX_VIDEO_VP9PROFILETYPE",
   "self_type" : "_ZTI24OMX_VIDEO_VP9PROFILETYPE",
   "size" : 4,
   "source_file" : "/frameworks/native/headers/media_plugin/media/openmax/OMX_VideoExt.h",
   "underlying_type" : "_ZTIj"
  },
  {
   "alignment" : 4,
   "enum_fields" :
   [
    {
     "enum_field_value" : 281411584,
     "name" : "HAL_DATASPACE_BT2020_ITU"
    },
    {
     "enum_field_value" : 298188800,
     "name" : "HAL_DATASPACE_BT2020_ITU_PQ"
    },
    {
     "enum_field_value" : 302383104,
     "name" : "HAL_DATASPACE_BT2020_ITU_HLG"
    },
    {
     "enum_field_value" : 168165376,
     "name" : "HAL_DATASPACE_BT2020_HLG"
    }
   ],
   "linker_set_key" : "_ZTI24android_dataspace_v1_1_t",
   "name" : "android_dataspace_v1_1_t",
   "referenced_type" : "_ZTI24android_dataspace_v1_1_t",
   "self_type" : "_ZTI24android_dataspace_v1_1_t",
   "size" : 4,
   "source_file" : "/system/core/libsystem/include/system/graphics-base-v1.1.h",
   "underlying_type" : "_ZTIj"
  },
  {
   "alignment" : 4,
   "enum_fields" :
   [
    {
     "enum_field_value" : 142999552,
     "name" : "HAL_DATASPACE_DISPLAY_BT2020"
    },
    {
     "enum_field_value" : 4098,
     "name" : "HAL_DATASPACE_DYNAMIC_DEPTH"
    },
    {
     "enum_field_value" : 4099,
     "name" : "HAL_DATASPACE_JPEG_APP_SEGMENTS"
    },
    {
     "enum_field_value" : 4100,
     "name" : "HAL_DATASPACE_HEIF"
    }
   ],
   "linker_set_key" : "_ZTI24android_dataspace_v1_2_t",
   "name" : "android_dataspace_v1_2_t",
   "referenced_type" : "_ZTI24android_dataspace_v1_2_t",
   "self_type" : "_ZTI24android_dataspace_v1_2_t",
   "size" : 4,
   "source_file" : "/system/core/libsystem/include/system/graphics-base-v1.2.h",
   "underlying_type" : "_ZTIj"
  },
  {
   "alignment" : 4,
   "enum_fields" :
   [
    {
     "enum_field_value" : 0,
     "name" : "GRALLOC_USAGE_SW_READ_NEVER"
    },
    {
     "enum_field_value" : 2,
     "name" : "GRALLOC_USAGE_SW_READ_RARELY"
    },
    {
     "enum_field_value" : 3,
     "name" : "GRALLOC_USAGE_SW_READ_OFTEN"
    },
    {
     "enum_field_value" : 15,
     "name" : "GRALLOC_USAGE_SW_READ_MASK"
    },
    {
     "enum_field_value" : 0,
     "name" : "GRALLOC_USAGE_SW_WRITE_NEVER"
    },
    {
     "enum_field_value" : 32,
     "name" : "GRALLOC_USAGE_SW_WRITE_RARELY"
    },
    {
     "enum_field_value" : 48,
     "name" : "GRALLOC_USAGE_SW_WRITE_OFTEN"
    },
    {
     "enum_field_value" : 240,
     "name" : "GRALLOC_USAGE_SW_WRITE_MASK"
    },
    {
     "enum_field_value" : 256,
     "name" : "GRALLOC_USAGE_HW_TEXTURE"
    },
    {
     "enum_field_value" : 512,
     "name" : "GRALLOC_USAGE_HW_RENDER"
    },
    {
     "enum_field_value" : 1024,
     "name" : "GRALLOC_USAGE_HW_2D"
    },
    {
     "enum_field_value" : 2048,
     "name" : "GRALLOC_USAGE_HW_COMPOSER"
    },
    {
     "enum_field_value" : 4096,
     "name" : "GRALLOC_USAGE_HW_FB"
    },
    {
     "enum_field_value" : 8192,
     "name" : "GRALLOC_USAGE_EXTERNAL_DISP"
    },
    {
     "enum_field_value" : 16384,
     "name" : "GRALLOC_USAGE_PROTECTED"
    },
    {
     "enum_field_value" : 32768,
     "name" : "GRALLOC_USAGE_CURSOR"
    },
    {
     "enum_field_value" : 65536,
     "name" : "GRALLOC_USAGE_HW_VIDEO_ENCODER"
    },
    {
     "enum_field_value" : 131072,
     "name" : "GRALLOC_USAGE_HW_CAMERA_WRITE"
    },
    {
     "enum_field_value" : 262144,
     "name" : "GRALLOC_USAGE_HW_CAMERA_READ"
    },
    {
     "enum_field_value" : 393216,
     "name" : "GRALLOC_USAGE_HW_CAMERA_ZSL"
    },
    {
     "enum_field_value" : 393216,
     "name" : "GRALLOC_USAGE_HW_CAMERA_MASK"
    },
    {
     "enum_field_value" : 466688,
     "name" : "GRALLOC_USAGE_HW_MASK"
    },
    {
     "enum_field_value" : 1048576,
     "name" : "GRALLOC_USAGE_RENDERSCRIPT"
    },
    {
     "enum_field_value" : 2097152,
     "name" : "GRALLOC_USAGE_FOREIGN_BUFFERS"
    },
    {
     "enum_field_value" : 134217728,
     "name" : "GRALLOC_USAGE_HW_IMAGE_ENCODER"
    },
    {
     "enum_field_value" : -2097153,
     "name" : "GRALLOC_USAGE_ALLOC_MASK"
    },
    {
     "enum_field_value" : 268435456,
     "name" : "GRALLOC_USAGE_PRIVATE_0"
    },
    {
     "enum_field_value" : 536870912,
     "name" : "GRALLOC_USAGE_PRIVATE_1"
    },
    {
     "enum_field_value" : 1073741824,
     "name" : "GRALLOC_USAGE_PRIVATE_2"
    },
    {
     "enum_field_value" : -2147483648,
     "name" : "GRALLOC_USAGE_PRIVATE_3"
    },
    {
     "enum_field_value" : -268435456,
     "name" : "GRALLOC_USAGE_PRIVATE_MASK"
    }
   ],
   "linker_set_key" : "_ZTI25$GRALLOC_USAGE_ALLOC_MASK",
   "name" : "(anonymous enum at hardware/libhardware/include/hardware/gralloc.h:68:1)",
   "referenced_type" : "_ZTI25$GRALLOC_USAGE_ALLOC_MASK",
   "self_type" : "_ZTI25$GRALLOC_USAGE_ALLOC_MASK",
   "size" : 4,
   "source_file" : "/hardware/libhardware/include/hardware/gralloc.h",
   "underlying_type" : "_ZTIj"
  },
  {
   "alignment" : 4,
   "enum_fields" :
   [
    {
     "enum_field_value" : 0,
     "name" : "OMX_Video_ControlRateDisable"
    },
    {
     "enum_field_value" : 1,
     "name" : "OMX_Video_ControlRateVariable"
    },
    {
     "enum_field_value" : 2,
     "name" : "OMX_Video_ControlRateConstant"
    },
    {
     "enum_field_value" : 3,
     "name" : "OMX_Video_ControlRateVariableSkipFrames"
    },
    {
     "enum_field_value" : 4,
     "name" : "OMX_Video_ControlRateConstantSkipFrames"
    },
    {
     "enum_field_value" : 5,
     "name" : "OMX_Video_ControlRateConstantQuality"
    },
    {
     "enum_field_value" : 1862270976,
     "name" : "OMX_Video_ControlRateKhronosExtensions"
    },
    {
     "enum_field_value" : 2130706432,
     "name" : "OMX_Video_ControlRateVendorStartUnused"
    },
    {
     "enum_field_value" : 2147483647,
     "name" : "OMX_Video_ControlRateMax"
    }
   ],
   "linker_set_key" : "_ZTI25OMX_VIDEO_CONTROLRATETYPE",
   "name" : "OMX_VIDEO_CONTROLRATETYPE",
   "referenced_type" : "_ZTI25OMX_VIDEO_CONTROLRATETYPE",
   "self_type" : "_ZTI25OMX_VIDEO_CONTROLRATETYPE",
   "size" : 4,
   "source_file" : "/frameworks/native/headers/media_plugin/media/openmax/OMX_Video.h",
   "underlying_type" : "_ZTIj"
  },
  {
   "alignment" : 4,
   "enum_fields" :
   [
    {
     "enum_field_value" : 1,
     "name" : "OMX_VIDEO_H263ProfileBaseline"
    },
    {
     "enum_field_value" : 2,
     "name" : "OMX_VIDEO_H263ProfileH320Coding"
    },
    {
     "enum_field_value" : 4,
     "name" : "OMX_VIDEO_H263ProfileBackwardCompatible"
    },
    {
     "enum_field_value" : 8,
     "name" : "OMX_VIDEO_H263ProfileISWV2"
    },
    {
     "enum_field_value" : 16,
     "name" : "OMX_VIDEO_H263ProfileISWV3"
    },
    {
     "enum_field_value" : 32,
     "name" : "OMX_VIDEO_H263ProfileHighCompression"
    },
    {
     "enum_field_value" : 64,
     "name" : "OMX_VIDEO_H263ProfileInternet"
    },
    {
     "enum_field_value" : 128,
     "name" : "OMX_VIDEO_H263ProfileInterlace"
    },
    {
     "enum_field_value" : 256,
     "name" : "OMX_VIDEO_H263ProfileHighLatency"
    },
    {
     "enum_field_value" : 1862270976,
     "name" : "OMX_VIDEO_H263ProfileKhronosExtensions"
    },
    {
     "enum_field_value" : 2130706432,
     "name" : "OMX_VIDEO_H263ProfileVendorStartUnused"
    },
    {
     "enum_field_value" : 2147483647,
     "name" : "OMX_VIDEO_H263ProfileMax"
    }
   ],
   "linker_set_key" : "_ZTI25OMX_VIDEO_H263PROFILETYPE",
   "name" : "OMX_VIDEO_H263PROFILETYPE",
   "referenced_type" : "_ZTI25OMX_VIDEO_H263PROFILETYPE",
   "self_type" : "_ZTI25OMX_VIDEO_H263PROFILETYPE",
   "size" : 4,
   "source_file" : "/frameworks/native/headers/media_plugin/media/openmax/OMX_Video.h",
   "underlying_type" : "_ZTIj"
  },
  {
   "alignment" : 4,
   "enum_fields" :
   [
    {
     "enum_field_value" : 0,
     "name" : "OMX_VIDEO_HEVCProfileUnknown"
    },
    {
     "enum_field_value" : 1,
     "name" : "OMX_VIDEO_HEVCProfileMain"
    },
    {
     "enum_field_value" : 2,
     "name" : "OMX_VIDEO_HEVCProfileMain10"
    },
    {
     "enum_field_value" : 4,
     "name" : "OMX_VIDEO_HEVCProfileMainStill"
    },
    {
     "enum_field_value" : 4096,
     "name" : "OMX_VIDEO_HEVCProfileMain10HDR10"
    },
    {
     "enum_field_value" : 8192,
     "name" : "OMX_VIDEO_HEVCProfileMain10HDR10Plus"
    },
    {
     "enum_field_value" : 2147483647,
     "name" : "OMX_VIDEO_HEVCProfileMax"
    }
   ],
   "linker_set_key" : "_ZTI25OMX_VIDEO_HEVCPROFILETYPE",
   "name" : "OMX_VIDEO_HEVCPROFILETYPE",
   "referenced_type" : "_ZTI25OMX_VIDEO_HEVCPROFILETYPE",
   "self_type" : "_ZTI25OMX_VIDEO_HEVCPROFILETYPE",
   "size" : 4,
   "source_file" : "/frameworks/native/headers/media_plugin/media/openmax/OMX_VideoExt.h",
   "underlying_type" : "_ZTIj"
  },
  {
   "alignment" : 4,
   "enum_fields" :
   [
    {
     "enum_field_value" : 10,
     "name" : "HAL_COLOR_MODE_BT2020"
    },
    {
     "enum_field_value" : 11,
     "name" : "HAL_COLOR_MODE_BT2100_PQ"
    },
    {
     "enum_field_value" : 12,
     "name" : "HAL_COLOR_MODE_BT2100_HLG"
    }
   ],
   "linker_set_key" : "_ZTI25android_color_mode_v1_1_t",
   "name" : "android_color_mode_v1_1_t",
   "referenced_type" : "_ZTI25android_color_mode_v1_1_t",
   "self_type" : "_ZTI25android_color_mode_v1_1_t",
   "size" : 4,
   "source_file" : "/system/core/libsystem/include/system/graphics-base-v1.1.h",
   "underlying_type" : "_ZTIj"
  },
  {
   "alignment" : 4,
   "enum_fields" :
   [
    {
     "enum_field_value" : 0,
     "name" : "HAL_COLOR_TRANSFORM_IDENTITY"
    },
    {
     "enum_field_value" : 1,
     "name" : "HAL_COLOR_TRANSFORM_ARBITRARY_MATRIX"
    },
    {
     "enum_field_value" : 2,
     "name" : "HAL_COLOR_TRANSFORM_VALUE_INVERSE"
    },
    {
     "enum_field_value" : 3,
     "name" : "HAL_COLOR_TRANSFORM_GRAYSCALE"
    },
    {
     "enum_field_value" : 4,
     "name" : "HAL_COLOR_TRANSFORM_CORRECT_PROTANOPIA"
    },
    {
     "enum_field_value" : 5,
     "name" : "HAL_COLOR_TRANSFORM_CORRECT_DEUTERANOPIA"
    },
    {
     "enum_field_value" : 6,
     "name" : "HAL_COLOR_TRANSFORM_CORRECT_TRITANOPIA"
    }
   ],
   "linker_set_key" : "_ZTI25android_color_transform_t",
   "name" : "android_color_transform_t",
   "referenced_type" : "_ZTI25android_color_transform_t",
   "self_type" : "_ZTI25android_color_transform_t",
   "size" : 4,
   "source_file" : "/system/core/libsystem/include/system/graphics-base-v1.0.h",
   "underlying_type" : "_ZTIj"
  },
  {
   "alignment" : 4,
   "enum_fields" :
   [
    {
     "enum_field_value" : 39,
     "name" : "HAL_PIXEL_FORMAT_YCBCR_422_888"
    },
    {
     "enum_field_value" : 40,
     "name" : "HAL_PIXEL_FORMAT_YCBCR_444_888"
    },
    {
     "enum_field_value" : 41,
     "name" : "HAL_PIXEL_FORMAT_FLEX_RGB_888"
    },
    {
     "enum_field_value" : 42,
     "name" : "HAL_PIXEL_FORMAT_FLEX_RGBA_8888"
    }
   ],
   "linker_set_key" : "_ZTI25android_pixel_format_sw_t",
   "name" : "android_pixel_format_sw_t",
   "referenced_type" : "_ZTI25android_pixel_format_sw_t",
   "self_type" : "_ZTI25android_pixel_format_sw_t",
   "size" : 4,
   "source_file" : "/system/core/libsystem/include/system/graphics-sw.h",
   "underlying_type" : "_ZTIj"
  },
  {
   "alignment" : 8,
   "enum_fields" :
   [
    {
     "enum_field_value" : 0,
     "name" : "AHARDWAREBUFFER_USAGE_CPU_READ_NEVER"
    },
    {
     "enum_field_value" : 2,
     "name" : "AHARDWAREBUFFER_USAGE_CPU_READ_RARELY"
    },
    {
     "enum_field_value" : 3,
     "name" : "AHARDWAREBUFFER_USAGE_CPU_READ_OFTEN"
    },
    {
     "enum_field_value" : 15,
     "name" : "AHARDWAREBUFFER_USAGE_CPU_READ_MASK"
    },
    {
     "enum_field_value" : 0,
     "name" : "AHARDWAREBUFFER_USAGE_CPU_WRITE_NEVER"
    },
    {
     "enum_field_value" : 32,
     "name" : "AHARDWAREBUFFER_USAGE_CPU_WRITE_RARELY"
    },
    {
     "enum_field_value" : 48,
     "name" : "AHARDWAREBUFFER_USAGE_CPU_WRITE_OFTEN"
    },
    {
     "enum_field_value" : 240,
     "name" : "AHARDWAREBUFFER_USAGE_CPU_WRITE_MASK"
    },
    {
     "enum_field_value" : 256,
     "name" : "AHARDWAREBUFFER_USAGE_GPU_SAMPLED_IMAGE"
    },
    {
     "enum_field_value" : 512,
     "name" : "AHARDWAREBUFFER_USAGE_GPU_FRAMEBUFFER"
    },
    {
     "enum_field_value" : 512,
     "name" : "AHARDWAREBUFFER_USAGE_GPU_COLOR_OUTPUT"
    },
    {
     "enum_field_value" : 2048,
     "name" : "AHARDWAREBUFFER_USAGE_COMPOSER_OVERLAY"
    },
    {
     "enum_field_value" : 16384,
     "name" : "AHARDWAREBUFFER_USAGE_PROTECTED_CONTENT"
    },
    {
     "enum_field_value" : 65536,
     "name" : "AHARDWAREBUFFER_USAGE_VIDEO_ENCODE"
    },
    {
     "enum_field_value" : 8388608,
     "name" : "AHARDWAREBUFFER_USAGE_SENSOR_DIRECT_DATA"
    },
    {
     "enum_field_value" : 16777216,
     "name" : "AHARDWAREBUFFER_USAGE_GPU_DATA_BUFFER"
    },
    {
     "enum_field_value" : 33554432,
     "name" : "AHARDWAREBUFFER_USAGE_GPU_CUBE_MAP"
    },
    {
     "enum_field_value" : 67108864,
     "name" : "AHARDWAREBUFFER_USAGE_GPU_MIPMAP_COMPLETE"
    },
    {
     "enum_field_value" : 268435456,
     "name" : "AHARDWAREBUFFER_USAGE_VENDOR_0"
    },
    {
     "enum_field_value" : 536870912,
     "name" : "AHARDWAREBUFFER_USAGE_VENDOR_1"
    },
    {
     "enum_field_value" : 1073741824,
     "name" : "AHARDWAREBUFFER_USAGE_VENDOR_2"
    },
    {
     "enum_field_value" : -2147483648,
     "name" : "AHARDWAREBUFFER_USAGE_VENDOR_3"
    },
    {
     "enum_field_value" : 0,
     "name" : "AHARDWAREBUFFER_USAGE_VENDOR_4"
    },
    {
     "enum_field_value" : 0,
     "name" : "AHARDWAREBUFFER_USAGE_VENDOR_5"
    },
    {
     "enum_field_value" : 0,
     "name" : "AHARDWAREBUFFER_USAGE_VENDOR_6"
    },
    {
     "enum_field_value" : 0,
     "name" : "AHARDWAREBUFFER_USAGE_VENDOR_7"
    },
    {
     "enum_field_value" : 0,
     "name" : "AHARDWAREBUFFER_USAGE_VENDOR_8"
    },
    {
     "enum_field_value" : 0,
     "name" : "AHARDWAREBUFFER_USAGE_VENDOR_9"
    },
    {
     "enum_field_value" : 0,
     "name" : "AHARDWAREBUFFER_USAGE_VENDOR_10"
    },
    {
     "enum_field_value" : 0,
     "name" : "AHARDWAREBUFFER_USAGE_VENDOR_11"
    },
    {
     "enum_field_value" : 0,
     "name" : "AHARDWAREBUFFER_USAGE_VENDOR_12"
    },
    {
     "enum_field_value" : 0,
     "name" : "AHARDWAREBUFFER_USAGE_VENDOR_13"
    },
    {
     "enum_field_value" : 0,
     "name" : "AHARDWAREBUFFER_USAGE_VENDOR_14"
    },
    {
     "enum_field_value" : 0,
     "name" : "AHARDWAREBUFFER_USAGE_VENDOR_15"
    },
    {
     "enum_field_value" : 0,
     "name" : "AHARDWAREBUFFER_USAGE_VENDOR_16"
    },
    {
     "enum_field_value" : 0,
     "name" : "AHARDWAREBUFFER_USAGE_VENDOR_17"
    },
    {
     "enum_field_value" : 0,
     "name" : "AHARDWAREBUFFER_USAGE_VENDOR_18"
    },
    {
     "enum_field_value" : 0,
     "name" : "AHARDWAREBUFFER_USAGE_VENDOR_19"
    }
   ],
   "linker_set_key" : "_ZTI26AHardwareBuffer_UsageFlags",
   "name" : "AHardwareBuffer_UsageFlags",
   "referenced_type" : "_ZTI26AHardwareBuffer_UsageFlags",
   "self_type" : "_ZTI26AHardwareBuffer_UsageFlags",
   "size" : 8,
   "source_file" : "/frameworks/native/libs/nativewindow/include/android/hardware_buffer.h",
   "underlying_type" : "_ZTIy"
  },
  {
   "alignment" : 4,
   "enum_fields" :
   [
    {
     "enum_field_value" : 0,
     "name" : "OMX_VIDEO_SLICEMODE_AVCDefault"
    },
    {
     "enum_field_value" : 1,
     "name" : "OMX_VIDEO_SLICEMODE_AVCMBSlice"
    },
    {
     "enum_field_value" : 2,
     "name" : "OMX_VIDEO_SLICEMODE_AVCByteSlice"
    },
    {
     "enum_field_value" : 1862270976,
     "name" : "OMX_VIDEO_SLICEMODE_AVCKhronosExtensions"
    },
    {
     "enum_field_value" : 2130706432,
     "name" : "OMX_VIDEO_SLICEMODE_AVCVendorStartUnused"
    },
    {
     "enum_field_value" : 2147483647,
     "name" : "OMX_VIDEO_SLICEMODE_AVCLevelMax"
    }
   ],
   "linker_set_key" : "_ZTI26OMX_VIDEO_AVCSLICEMODETYPE",
   "name" : "OMX_VIDEO_AVCSLICEMODETYPE",
   "referenced_type" : "_ZTI26OMX_VIDEO_AVCSLICEMODETYPE",
   "self_type" : "_ZTI26OMX_VIDEO_AVCSLICEMODETYPE",
   "size" : 4,
   "source_file" : "/frameworks/native/headers/media_plugin/media/openmax/OMX_Video.h",
   "underlying_type" : "_ZTIj"
  },
  {
   "alignment" : 4,
   "enum_fields" :
   [
    {
     "enum_field_value" : 0,
     "name" : "OMX_VIDEO_IntraRefreshCyclic"
    },
    {
     "enum_field_value" : 1,
     "name" : "OMX_VIDEO_IntraRefreshAdaptive"
    },
    {
     "enum_field_value" : 2,
     "name" : "OMX_VIDEO_IntraRefreshBoth"
    },
    {
     "enum_field_value" : 1862270976,
     "name" : "OMX_VIDEO_IntraRefreshKhronosExtensions"
    },
    {
     "enum_field_value" : 2130706432,
     "name" : "OMX_VIDEO_IntraRefreshVendorStartUnused"
    },
    {
     "enum_field_value" : 2147483647,
     "name" : "OMX_VIDEO_IntraRefreshMax"
    }
   ],
   "linker_set_key" : "_ZTI26OMX_VIDEO_INTRAREFRESHTYPE",
   "name" : "OMX_VIDEO_INTRAREFRESHTYPE",
   "referenced_type" : "_ZTI26OMX_VIDEO_INTRAREFRESHTYPE",
   "self_type" : "_ZTI26OMX_VIDEO_INTRAREFRESHTYPE",
   "size" : 4,
   "source_file" : "/frameworks/native/headers/media_plugin/media/openmax/OMX_Video.h",
   "underlying_type" : "_ZTIj"
  },
  {
   "alignment" : 4,
   "enum_fields" :
   [
    {
     "enum_field_value" : 0,
     "name" : "OMX_Video_MotionVectorPixel"
    },
    {
     "enum_field_value" : 1,
     "name" : "OMX_Video_MotionVectorHalfPel"
    },
    {
     "enum_field_value" : 2,
     "name" : "OMX_Video_MotionVectorQuarterPel"
    },
    {
     "enum_field_value" : 3,
     "name" : "OMX_Video_MotionVectorEighthPel"
    },
    {
     "enum_field_value" : 1862270976,
     "name" : "OMX_Video_MotionVectorKhronosExtensions"
    },
    {
     "enum_field_value" : 2130706432,
     "name" : "OMX_Video_MotionVectorVendorStartUnused"
    },
    {
     "enum_field_value" : 2147483647,
     "name" : "OMX_Video_MotionVectorMax"
    }
   ],
   "linker_set_key" : "_ZTI26OMX_VIDEO_MOTIONVECTORTYPE",
   "name" : "OMX_VIDEO_MOTIONVECTORTYPE",
   "referenced_type" : "_ZTI26OMX_VIDEO_MOTIONVECTORTYPE",
   "self_type" : "_ZTI26OMX_VIDEO_MOTIONVECTORTYPE",
   "size" : 4,
   "source_file" : "/frameworks/native/headers/media_plugin/media/openmax/OMX_Video.h",
   "underlying_type" : "_ZTIj"
  },
  {
   "alignment" : 4,
   "enum_fields" :
   [
    {
     "enum_field_value" : 0,
     "name" : "OMX_VIDEO_MPEG2ProfileSimple"
    },
    {
     "enum_field_value" : 1,
     "name" : "OMX_VIDEO_MPEG2ProfileMain"
    },
    {
     "enum_field_value" : 2,
     "name" : "OMX_VIDEO_MPEG2Profile422"
    },
    {
     "enum_field_value" : 3,
     "name" : "OMX_VIDEO_MPEG2ProfileSNR"
    },
    {
     "enum_field_value" : 4,
     "name" : "OMX_VIDEO_MPEG2ProfileSpatial"
    },
    {
     "enum_field_value" : 5,
     "name" : "OMX_VIDEO_MPEG2ProfileHigh"
    },
    {
     "enum_field_value" : 1862270976,
     "name" : "OMX_VIDEO_MPEG2ProfileKhronosExtensions"
    },
    {
     "enum_field_value" : 2130706432,
     "name" : "OMX_VIDEO_MPEG2ProfileVendorStartUnused"
    },
    {
     "enum_field_value" : 2147483647,
     "name" : "OMX_VIDEO_MPEG2ProfileMax"
    }
   ],
   "linker_set_key" : "_ZTI26OMX_VIDEO_MPEG2PROFILETYPE",
   "name" : "OMX_VIDEO_MPEG2PROFILETYPE",
   "referenced_type" : "_ZTI26OMX_VIDEO_MPEG2PROFILETYPE",
   "self_type" : "_ZTI26OMX_VIDEO_MPEG2PROFILETYPE",
   "size" : 4,
   "source_file" : "/frameworks/native/headers/media_plugin/media/openmax/OMX_Video.h",
   "underlying_type" : "_ZTIj"
  },
  {
   "alignment" : 4,
   "enum_fields" :
   [
    {
     "enum_field_value" : 1,
     "name" : "OMX_VIDEO_MPEG4ProfileSimple"
    },
    {
     "enum_field_value" : 2,
     "name" : "OMX_VIDEO_MPEG4ProfileSimpleScalable"
    },
    {
     "enum_field_value" : 4,
     "name" : "OMX_VIDEO_MPEG4ProfileCore"
    },
    {
     "enum_field_value" : 8,
     "name" : "OMX_VIDEO_MPEG4ProfileMain"
    },
    {
     "enum_field_value" : 16,
     "name" : "OMX_VIDEO_MPEG4ProfileNbit"
    },
    {
     "enum_field_value" : 32,
     "name" : "OMX_VIDEO_MPEG4ProfileScalableTexture"
    },
    {
     "enum_field_value" : 64,
     "name" : "OMX_VIDEO_MPEG4ProfileSimpleFace"
    },
    {
     "enum_field_value" : 128,
     "name" : "OMX_VIDEO_MPEG4ProfileSimpleFBA"
    },
    {
     "enum_field_value" : 256,
     "name" : "OMX_VIDEO_MPEG4ProfileBasicAnimated"
    },
    {
     "enum_field_value" : 512,
     "name" : "OMX_VIDEO_MPEG4ProfileHybrid"
    },
    {
     "enum_field_value" : 1024,
     "name" : "OMX_VIDEO_MPEG4ProfileAdvancedRealTime"
    },
    {
     "enum_field_value" : 2048,
     "name" : "OMX_VIDEO_MPEG4ProfileCoreScalable"
    },
    {
     "enum_field_value" : 4096,
     "name" : "OMX_VIDEO_MPEG4ProfileAdvancedCoding"
    },
    {
     "enum_field_value" : 8192,
     "name" : "OMX_VIDEO_MPEG4ProfileAdvancedCore"
    },
    {
     "enum_field_value" : 16384,
     "name" : "OMX_VIDEO_MPEG4ProfileAdvancedScalable"
    },
    {
     "enum_field_value" : 32768,
     "name" : "OMX_VIDEO_MPEG4ProfileAdvancedSimple"
    },
    {
     "enum_field_value" : 1862270976,
     "name" : "OMX_VIDEO_MPEG4ProfileKhronosExtensions"
    },
    {
     "enum_field_value" : 2130706432,
     "name" : "OMX_VIDEO_MPEG4ProfileVendorStartUnused"
    },
    {
     "enum_field_value" : 2147483647,
     "name" : "OMX_VIDEO_MPEG4ProfileMax"
    }
   ],
   "linker_set_key" : "_ZTI26OMX_VIDEO_MPEG4PROFILETYPE",
   "name" : "OMX_VIDEO_MPEG4PROFILETYPE",
   "referenced_type" : "_ZTI26OMX_VIDEO_MPEG4PROFILETYPE",
   "self_type" : "_ZTI26OMX_VIDEO_MPEG4PROFILETYPE",
   "size" : 4,
   "source_file" : "/frameworks/native/headers/media_plugin/media/openmax/OMX_Video.h",
   "underlying_type" : "_ZTIj"
  },
  {
   "alignment" : 4,
   "enum_fields" :
   [
    {
     "enum_field_value" : 0,
     "name" : "OMX_VIDEO_AVCLoopFilterEnable"
    },
    {
     "enum_field_value" : 1,
     "name" : "OMX_VIDEO_AVCLoopFilterDisable"
    },
    {
     "enum_field_value" : 2,
     "name" : "OMX_VIDEO_AVCLoopFilterDisableSliceBoundary"
    },
    {
     "enum_field_value" : 1862270976,
     "name" : "OMX_VIDEO_AVCLoopFilterKhronosExtensions"
    },
    {
     "enum_field_value" : 2130706432,
     "name" : "OMX_VIDEO_AVCLoopFilterVendorStartUnused"
    },
    {
     "enum_field_value" : 2147483647,
     "name" : "OMX_VIDEO_AVCLoopFilterMax"
    }
   ],
   "linker_set_key" : "_ZTI27OMX_VIDEO_AVCLOOPFILTERTYPE",
   "name" : "OMX_VIDEO_AVCLOOPFILTERTYPE",
   "referenced_type" : "_ZTI27OMX_VIDEO_AVCLOOPFILTERTYPE",
   "self_type" : "_ZTI27OMX_VIDEO_AVCLOOPFILTERTYPE",
   "size" : 4,
   "source_file" : "/frameworks/native/headers/media_plugin/media/openmax/OMX_Video.h",
   "underlying_type" : "_ZTIj"
  },
  {
   "alignment" : 4,
   "enum_fields" :
   [
    {
     "enum_field_value" : 65536,
     "name" : "OMX_VIDEO_AVCProfileConstrainedBaseline"
    },
    {
     "enum_field_value" : 524288,
     "name" : "OMX_VIDEO_AVCProfileConstrainedHigh"
    }
   ],
   "linker_set_key" : "_ZTI27OMX_VIDEO_AVCPROFILEEXTTYPE",
   "name" : "OMX_VIDEO_AVCPROFILEEXTTYPE",
   "referenced_type" : "_ZTI27OMX_VIDEO_AVCPROFILEEXTTYPE",
   "self_type" : "_ZTI27OMX_VIDEO_AVCPROFILEEXTTYPE",
   "size" : 4,
   "source_file" : "/frameworks/native/headers/media_plugin/media/openmax/OMX_VideoExt.h",
   "underlying_type" : "_ZTIj"
  },
  {
   "alignment" : 4,
   "enum_fields" :
   [
    {
     "enum_field_value" : 48,
     "name" : "HAL_PIXEL_FORMAT_DEPTH_16"
    },
    {
     "enum_field_value" : 49,
     "name" : "HAL_PIXEL_FORMAT_DEPTH_24"
    },
    {
     "enum_field_value" : 50,
     "name" : "HAL_PIXEL_FORMAT_DEPTH_24_STENCIL_8"
    },
    {
     "enum_field_value" : 51,
     "name" : "HAL_PIXEL_FORMAT_DEPTH_32F"
    },
    {
     "enum_field_value" : 52,
     "name" : "HAL_PIXEL_FORMAT_DEPTH_32F_STENCIL_8"
    },
    {
     "enum_field_value" : 53,
     "name" : "HAL_PIXEL_FORMAT_STENCIL_8"
    },
    {
     "enum_field_value" : 54,
     "name" : "HAL_PIXEL_FORMAT_YCBCR_P010"
    }
   ],
   "linker_set_key" : "_ZTI27android_pixel_format_v1_1_t",
   "name" : "android_pixel_format_v1_1_t",
   "referenced_type" : "_ZTI27android_pixel_format_v1_1_t",
   "self_type" : "_ZTI27android_pixel_format_v1_1_t",
   "size" : 4,
   "source_file" : "/system/core/libsystem/include/system/graphics-base-v1.1.h",
   "underlying_type" : "_ZTIj"
  },
  {
   "alignment" : 4,
   "enum_fields" :
   [
    {
     "enum_field_value" : 55,
     "name" : "HAL_PIXEL_FORMAT_HSV_888"
    }
   ],
   "linker_set_key" : "_ZTI27android_pixel_format_v1_2_t",
   "name" : "android_pixel_format_v1_2_t",
   "referenced_type" : "_ZTI27android_pixel_format_v1_2_t",
   "self_type" : "_ZTI27android_pixel_format_v1_2_t",
   "size" : 4,
   "source_file" : "/system/core/libsystem/include/system/graphics-base-v1.2.h",
   "underlying_type" : "_ZTIj"
  },
  {
   "alignment" : 4,
   "enum_fields" :
   [
    {
     "enum_field_value" : 0,
     "name" : "OMX_AndroidVendorValueInt32"
    },
    {
     "enum_field_value" : 1,
     "name" : "OMX_AndroidVendorValueInt64"
    },
    {
     "enum_field_value" : 2,
     "name" : "OMX_AndroidVendorValueString"
    },
    {
     "enum_field_value" : 3,
     "name" : "OMX_AndroidVendorValueEndUnused"
    }
   ],
   "linker_set_key" : "_ZTI28OMX_ANDROID_VENDOR_VALUETYPE",
   "name" : "OMX_ANDROID_VENDOR_VALUETYPE",
   "referenced_type" : "_ZTI28OMX_ANDROID_VENDOR_VALUETYPE",
   "self_type" : "_ZTI28OMX_ANDROID_VENDOR_VALUETYPE",
   "size" : 4,
   "source_file" : "/frameworks/native/headers/media_plugin/media/openmax/OMX_IndexExt.h",
   "underlying_type" : "_ZTIj"
  },
  {
   "alignment" : 4,
   "enum_fields" :
   [
    {
     "enum_field_value" : 0,
     "name" : "HAL_RENDER_INTENT_COLORIMETRIC"
    },
    {
     "enum_field_value" : 1,
     "name" : "HAL_RENDER_INTENT_ENHANCE"
    },
    {
     "enum_field_value" : 2,
     "name" : "HAL_RENDER_INTENT_TONE_MAP_COLORIMETRIC"
    },
    {
     "enum_field_value" : 3,
     "name" : "HAL_RENDER_INTENT_TONE_MAP_ENHANCE"
    }
   ],
   "linker_set_key" : "_ZTI28android_render_intent_v1_1_t",
   "name" : "android_render_intent_v1_1_t",
   "referenced_type" : "_ZTI28android_render_intent_v1_1_t",
   "self_type" : "_ZTI28android_render_intent_v1_1_t",
   "size" : 4,
   "source_file" : "/system/core/libsystem/include/system/graphics-base-v1.1.h",
   "underlying_type" : "_ZTIj"
  },
  {
   "alignment" : 4,
   "enum_fields" :
   [
    {
     "enum_field_value" : 0,
     "name" : "OMX_DataEncapsulationElementaryStream"
    },
    {
     "enum_field_value" : 1,
     "name" : "OMX_DataEncapsulationGenericPayload"
    },
    {
     "enum_field_value" : 2,
     "name" : "OMX_DataEncapsulationRtpPayload"
    },
    {
     "enum_field_value" : 1862270976,
     "name" : "OMX_DataEncapsulationKhronosExtensions"
    },
    {
     "enum_field_value" : 2130706432,
     "name" : "OMX_DataEncapsulationVendorStartUnused"
    },
    {
     "enum_field_value" : 2147483647,
     "name" : "OMX_DataEncapsulationMax"
    }
   ],
   "linker_set_key" : "_ZTI29OMX_DATAUNITENCAPSULATIONTYPE",
   "name" : "OMX_DATAUNITENCAPSULATIONTYPE",
   "referenced_type" : "_ZTI29OMX_DATAUNITENCAPSULATIONTYPE",
   "self_type" : "_ZTI29OMX_DATAUNITENCAPSULATIONTYPE",
   "size" : 4,
   "source_file" : "/frameworks/native/headers/media_plugin/media/openmax/OMX_IVCommon.h",
   "underlying_type" : "_ZTIj"
  },
  {
   "alignment" : 4,
   "enum_fields" :
   [
    {
     "enum_field_value" : 0,
     "name" : "OMX_VIDEO_DolbyVisionLevelUnknown"
    },
    {
     "enum_field_value" : 1,
     "name" : "OMX_VIDEO_DolbyVisionLevelHd24"
    },
    {
     "enum_field_value" : 2,
     "name" : "OMX_VIDEO_DolbyVisionLevelHd30"
    },
    {
     "enum_field_value" : 4,
     "name" : "OMX_VIDEO_DolbyVisionLevelFhd24"
    },
    {
     "enum_field_value" : 8,
     "name" : "OMX_VIDEO_DolbyVisionLevelFhd30"
    },
    {
     "enum_field_value" : 16,
     "name" : "OMX_VIDEO_DolbyVisionLevelFhd60"
    },
    {
     "enum_field_value" : 32,
     "name" : "OMX_VIDEO_DolbyVisionLevelUhd24"
    },
    {
     "enum_field_value" : 64,
     "name" : "OMX_VIDEO_DolbyVisionLevelUhd30"
    },
    {
     "enum_field_value" : 128,
     "name" : "OMX_VIDEO_DolbyVisionLevelUhd48"
    },
    {
     "enum_field_value" : 256,
     "name" : "OMX_VIDEO_DolbyVisionLevelUhd60"
    },
    {
     "enum_field_value" : 2147483647,
     "name" : "OMX_VIDEO_DolbyVisionLevelmax"
    }
   ],
   "linker_set_key" : "_ZTI30OMX_VIDEO_DOLBYVISIONLEVELTYPE",
   "name" : "OMX_VIDEO_DOLBYVISIONLEVELTYPE",
   "referenced_type" : "_ZTI30OMX_VIDEO_DOLBYVISIONLEVELTYPE",
   "self_type" : "_ZTI30OMX_VIDEO_DOLBYVISIONLEVELTYPE",
   "size" : 4,
   "source_file" : "/frameworks/native/headers/media_plugin/media/openmax/OMX_VideoExt.h",
   "underlying_type" : "_ZTIj"
  },
  {
   "alignment" : 4,
   "enum_fields" :
   [
    {
     "enum_field_value" : 0,
     "name" : "OMX_VIDEO_DolbyVisionProfileUnknown"
    },
    {
     "enum_field_value" : 1,
     "name" : "OMX_VIDEO_DolbyVisionProfileDvavPer"
    },
    {
     "enum_field_value" : 2,
     "name" : "OMX_VIDEO_DolbyVisionProfileDvavPen"
    },
    {
     "enum_field_value" : 4,
     "name" : "OMX_VIDEO_DolbyVisionProfileDvheDer"
    },
    {
     "enum_field_value" : 8,
     "name" : "OMX_VIDEO_DolbyVisionProfileDvheDen"
    },
    {
     "enum_field_value" : 16,
     "name" : "OMX_VIDEO_DolbyVisionProfileDvheDtr"
    },
    {
     "enum_field_value" : 32,
     "name" : "OMX_VIDEO_DolbyVisionProfileDvheStn"
    },
    {
     "enum_field_value" : 64,
     "name" : "OMX_VIDEO_DolbyVisionProfileDvheDth"
    },
    {
     "enum_field_value" : 128,
     "name" : "OMX_VIDEO_DolbyVisionProfileDvheDtb"
    },
    {
     "enum_field_value" : 256,
     "name" : "OMX_VIDEO_DolbyVisionProfileDvheSt"
    },
    {
     "enum_field_value" : 512,
     "name" : "OMX_VIDEO_DolbyVisionProfileDvavSe"
    },
    {
     "enum_field_value" : 1024,
     "name" : "OMX_VIDEO_DolbyVisionProfileDvav110"
    },
    {
     "enum_field_value" : 2147483647,
     "name" : "OMX_VIDEO_DolbyVisionProfileMax"
    }
   ],
   "linker_set_key" : "_ZTI32OMX_VIDEO_DOLBYVISIONPROFILETYPE",
   "name" : "OMX_VIDEO_DOLBYVISIONPROFILETYPE",
   "referenced_type" : "_ZTI32OMX_VIDEO_DOLBYVISIONPROFILETYPE",
   "self_type" : "_ZTI32OMX_VIDEO_DOLBYVISIONPROFILETYPE",
   "size" : 4,
   "source_file" : "/frameworks/native/headers/media_plugin/media/openmax/OMX_VideoExt.h",
   "underlying_type" : "_ZTIj"
  },
  {
   "alignment" : 4,
   "enum_fields" :
   [
    {
     "enum_field_value" : 0,
     "name" : "OMX_VIDEO_AndroidTemporalLayeringPatternNone"
    },
    {
     "enum_field_value" : 1,
     "name" : "OMX_VIDEO_AndroidTemporalLayeringPatternWebRTC"
    },
    {
     "enum_field_value" : 2,
     "name" : "OMX_VIDEO_AndroidTemporalLayeringPatternAndroid"
    }
   ],
   "linker_set_key" : "_ZTI45OMX_VIDEO_ANDROID_TEMPORALLAYERINGPATTERNTYPE",
   "name" : "OMX_VIDEO_ANDROID_TEMPORALLAYERINGPATTERNTYPE",
   "referenced_type" : "_ZTI45OMX_VIDEO_ANDROID_TEMPORALLAYERINGPATTERNTYPE",
   "self_type" : "_ZTI45OMX_VIDEO_ANDROID_TEMPORALLAYERINGPATTERNTYPE",
   "size" : 4,
   "source_file" : "/frameworks/native/headers/media_plugin/media/openmax/OMX_VideoExt.h",
   "underlying_type" : "_ZTIj"
  },
  {
   "alignment" : 4,
   "enum_fields" :
   [
    {
     "enum_field_value" : 0,
     "name" : "OMX_VIDEO_VPXTemporalLayerPatternNone"
    },
    {
     "enum_field_value" : 1,
     "name" : "OMX_VIDEO_VPXTemporalLayerPatternWebRTC"
    },
    {
     "enum_field_value" : 2147483647,
     "name" : "OMX_VIDEO_VPXTemporalLayerPatternMax"
    }
   ],
   "linker_set_key" : "_ZTI45OMX_VIDEO_ANDROID_VPXTEMPORALLAYERPATTERNTYPE",
   "name" : "OMX_VIDEO_ANDROID_VPXTEMPORALLAYERPATTERNTYPE",
   "referenced_type" : "_ZTI45OMX_VIDEO_ANDROID_VPXTEMPORALLAYERPATTERNTYPE",
   "self_type" : "_ZTI45OMX_VIDEO_ANDROID_VPXTEMPORALLAYERPATTERNTYPE",
   "size" : 4,
   "source_file" : "/frameworks/native/headers/media_plugin/media/openmax/OMX_VideoExt.h",
   "underlying_type" : "_ZTIj"
  },
  {
   "alignment" : 4,
   "enum_fields" :
   [
    {
     "enum_field_value" : 0,
     "name" : "LOG_ID_MIN"
    },
    {
     "enum_field_value" : 0,
     "name" : "LOG_ID_MAIN"
    },
    {
     "enum_field_value" : 1,
     "name" : "LOG_ID_RADIO"
    },
    {
     "enum_field_value" : 2,
     "name" : "LOG_ID_EVENTS"
    },
    {
     "enum_field_value" : 3,
     "name" : "LOG_ID_SYSTEM"
    },
    {
     "enum_field_value" : 4,
     "name" : "LOG_ID_CRASH"
    },
    {
     "enum_field_value" : 5,
     "name" : "LOG_ID_STATS"
    },
    {
     "enum_field_value" : 6,
     "name" : "LOG_ID_SECURITY"
    },
    {
     "enum_field_value" : 7,
     "name" : "LOG_ID_KERNEL"
    },
    {
     "enum_field_value" : 8,
     "name" : "LOG_ID_MAX"
    },
    {
     "enum_field_value" : 2147483647,
     "name" : "LOG_ID_DEFAULT"
    }
   ],
   "linker_set_key" : "_ZTI6log_id",
   "name" : "log_id",
   "referenced_type" : "_ZTI6log_id",
   "self_type" : "_ZTI6log_id",
   "size" : 4,
   "source_file" : "/system/core/liblog/include/android/log.h",
   "underlying_type" : "_ZTIj"
  },
  {
   "alignment" : 4,
   "enum_fields" :
   [
    {
     "enum_field_value" : 0,
     "name" : "OMX_FALSE"
    },
    {
     "enum_field_value" : 1,
     "name" : "OMX_TRUE"
    },
    {
     "enum_field_value" : 2147483647,
     "name" : "OMX_BOOL_MAX"
    }
   ],
   "linker_set_key" : "_ZTI8OMX_BOOL",
   "name" : "OMX_BOOL",
   "referenced_type" : "_ZTI8OMX_BOOL",
   "self_type" : "_ZTI8OMX_BOOL",
   "size" : 4,
   "source_file" : "/frameworks/native/headers/media_plugin/media/openmax/OMX_Types.h",
   "underlying_type" : "_ZTIj"
  },
  {
   "alignment" : 8,
   "enum_fields" :
   [
    {
     "enum_field_value" : 0,
     "name" : "aidl::android::hardware::graphics::common::Interlaced::NONE"
    },
    {
     "enum_field_value" : 1,
     "name" : "aidl::android::hardware::graphics::common::Interlaced::TOP_BOTTOM"
    },
    {
     "enum_field_value" : 2,
     "name" : "aidl::android::hardware::graphics::common::Interlaced::RIGHT_LEFT"
    }
   ],
   "linker_set_key" : "_ZTIN4aidl7android8hardware8graphics6common10InterlacedE",
   "name" : "aidl::android::hardware::graphics::common::Interlaced",
   "referenced_type" : "_ZTIN4aidl7android8hardware8graphics6common10InterlacedE",
   "self_type" : "_ZTIN4aidl7android8hardware8graphics6common10InterlacedE",
   "size" : 8,
   "source_file" : "/out/soong/.intermediates/hardware/interfaces/graphics/common/aidl/android.hardware.graphics.common-ndk_platform-source/gen/include/aidl/android/hardware/graphics/common/Interlaced.h",
   "underlying_type" : "_ZTIx"
  },
  {
   "alignment" : 8,
   "enum_fields" :
   [
    {
     "enum_field_value" : 0,
     "name" : "aidl::android::hardware::graphics::common::Compression::NONE"
    },
    {
     "enum_field_value" : 1,
     "name" : "aidl::android::hardware::graphics::common::Compression::DISPLAY_STREAM_COMPRESSION"
    }
   ],
   "linker_set_key" : "_ZTIN4aidl7android8hardware8graphics6common11CompressionE",
   "name" : "aidl::android::hardware::graphics::common::Compression",
   "referenced_type" : "_ZTIN4aidl7android8hardware8graphics6common11CompressionE",
   "self_type" : "_ZTIN4aidl7android8hardware8graphics6common11CompressionE",
   "size" : 8,
   "source_file" : "/out/soong/.intermediates/hardware/interfaces/graphics/common/aidl/android.hardware.graphics.common-ndk_platform-source/gen/include/aidl/android/hardware/graphics/common/Compression.h",
   "underlying_type" : "_ZTIx"
  },
  {
   "alignment" : 8,
   "enum_fields" :
   [
    {
     "enum_field_value" : 0,
     "name" : "aidl::android::hardware::graphics::common::ChromaSiting::NONE"
    },
    {
     "enum_field_value" : 1,
     "name" : "aidl::android::hardware::graphics::common::ChromaSiting::UNKNOWN"
    },
    {
     "enum_field_value" : 2,
     "name" : "aidl::android::hardware::graphics::common::ChromaSiting::SITED_INTERSTITIAL"
    },
    {
     "enum_field_value" : 3,
     "name" : "aidl::android::hardware::graphics::common::ChromaSiting::COSITED_HORIZONTAL"
    }
   ],
   "linker_set_key" : "_ZTIN4aidl7android8hardware8graphics6common12ChromaSitingE",
   "name" : "aidl::android::hardware::graphics::common::ChromaSiting",
   "referenced_type" : "_ZTIN4aidl7android8hardware8graphics6common12ChromaSitingE",
   "self_type" : "_ZTIN4aidl7android8hardware8graphics6common12ChromaSitingE",
   "size" : 8,
   "source_file" : "/out/soong/.intermediates/hardware/interfaces/graphics/common/aidl/android.hardware.graphics.common-ndk_platform-source/gen/include/aidl/android/hardware/graphics/common/ChromaSiting.h",
   "underlying_type" : "_ZTIx"
  },
  {
   "alignment" : 4,
   "enum_fields" :
   [
    {
     "enum_field_value" : 0,
     "name" : "aidl::android::hardware::graphics::common::BlendMode::INVALID"
    },
    {
     "enum_field_value" : 1,
     "name" : "aidl::android::hardware::graphics::common::BlendMode::NONE"
    },
    {
     "enum_field_value" : 2,
     "name" : "aidl::android::hardware::graphics::common::BlendMode::PREMULTIPLIED"
    },
    {
     "enum_field_value" : 3,
     "name" : "aidl::android::hardware::graphics::common::BlendMode::COVERAGE"
    }
   ],
   "linker_set_key" : "_ZTIN4aidl7android8hardware8graphics6common9BlendModeE",
   "name" : "aidl::android::hardware::graphics::common::BlendMode",
   "referenced_type" : "_ZTIN4aidl7android8hardware8graphics6common9BlendModeE",
   "self_type" : "_ZTIN4aidl7android8hardware8graphics6common9BlendModeE",
   "size" : 4,
   "source_file" : "/out/soong/.intermediates/hardware/interfaces/graphics/common/aidl/android.hardware.graphics.common-ndk_platform-source/gen/include/aidl/android/hardware/graphics/common/BlendMode.h",
   "underlying_type" : "_ZTIi"
  },
  {
   "alignment" : 4,
   "enum_fields" :
   [
    {
     "enum_field_value" : 0,
     "name" : "android::ACTION_CODE_FATAL"
    },
    {
     "enum_field_value" : 1,
     "name" : "android::ACTION_CODE_TRANSIENT"
    },
    {
     "enum_field_value" : 2,
     "name" : "android::ACTION_CODE_RECOVERABLE"
    }
   ],
   "linker_set_key" : "_ZTIN7android10ActionCodeE",
   "name" : "android::ActionCode",
   "referenced_type" : "_ZTIN7android10ActionCodeE",
   "self_type" : "_ZTIN7android10ActionCodeE",
   "size" : 4,
   "source_file" : "/frameworks/av/media/libstagefright/include/media/stagefright/MediaErrors.h",
   "underlying_type" : "_ZTIj"
  },
  {
   "alignment" : 4,
   "enum_fields" :
   [
    {
     "enum_field_value" : 0,
     "name" : "android::MediaImage::Y"
    },
    {
     "enum_field_value" : 1,
     "name" : "android::MediaImage::U"
    },
    {
     "enum_field_value" : 2,
     "name" : "android::MediaImage::V"
    },
    {
     "enum_field_value" : 3,
     "name" : "android::MediaImage::MAX_NUM_PLANES"
    }
   ],
   "linker_set_key" : "_ZTIN7android10MediaImage10PlaneIndexE",
   "name" : "android::MediaImage::PlaneIndex",
   "referenced_type" : "_ZTIN7android10MediaImage10PlaneIndexE",
   "self_type" : "_ZTIN7android10MediaImage10PlaneIndexE",
   "size" : 4,
   "source_file" : "/frameworks/native/headers/media_plugin/media/hardware/VideoAPI.h",
   "underlying_type" : "_ZTIj"
  },
  {
   "alignment" : 4,
   "enum_fields" :
   [
    {
     "enum_field_value" : 0,
     "name" : "android::MediaImage::MEDIA_IMAGE_TYPE_UNKNOWN"
    },
    {
     "enum_field_value" : 1,
     "name" : "android::MediaImage::MEDIA_IMAGE_TYPE_YUV"
    }
   ],
   "linker_set_key" : "_ZTIN7android10MediaImage4TypeE",
   "name" : "android::MediaImage::Type",
   "referenced_type" : "_ZTIN7android10MediaImage4TypeE",
   "self_type" : "_ZTIN7android10MediaImage4TypeE",
   "size" : 4,
   "source_file" : "/frameworks/native/headers/media_plugin/media/hardware/VideoAPI.h",
   "underlying_type" : "_ZTIj"
  },
  {
   "alignment" : 4,
   "enum_fields" :
   [
    {
     "enum_field_value" : 1,
     "name" : "android::VectorImpl::HAS_TRIVIAL_CTOR"
    },
    {
     "enum_field_value" : 2,
     "name" : "android::VectorImpl::HAS_TRIVIAL_DTOR"
    },
    {
     "enum_field_value" : 4,
     "name" : "android::VectorImpl::HAS_TRIVIAL_COPY"
    }
   ],
   "linker_set_key" : "_ZTIN7android10VectorImpl17$HAS_TRIVIAL_COPYE",
   "name" : "android::VectorImpl::(anonymous enum at system/core/libutils/include/utils/VectorImpl.h:43:5)",
   "referenced_type" : "_ZTIN7android10VectorImpl17$HAS_TRIVIAL_COPYE",
   "self_type" : "_ZTIN7android10VectorImpl17$HAS_TRIVIAL_COPYE",
   "size" : 4,
   "source_file" : "/system/core/libutils/include/utils/VectorImpl.h",
   "underlying_type" : "_ZTIj"
  },
  {
   "alignment" : 4,
   "enum_fields" :
   [
    {
     "enum_field_value" : 1,
     "name" : "android::IMemoryHeap::READ_ONLY"
    }
   ],
   "linker_set_key" : "_ZTIN7android11IMemoryHeap10$READ_ONLYE",
   "name" : "android::IMemoryHeap::(anonymous enum at frameworks/native/libs/binder/include/binder/IMemory.h:38:5)",
   "referenced_type" : "_ZTIN7android11IMemoryHeap10$READ_ONLYE",
   "self_type" : "_ZTIN7android11IMemoryHeap10$READ_ONLYE",
   "size" : 4,
   "source_file" : "/frameworks/native/libs/binder/include/binder/IMemory.h",
   "underlying_type" : "_ZTIj"
  },
  {
   "alignment" : 4,
   "enum_fields" :
   [
    {
     "enum_field_value" : 0,
     "name" : "android::MediaImage2::Y"
    },
    {
     "enum_field_value" : 1,
     "name" : "android::MediaImage2::U"
    },
    {
     "enum_field_value" : 2,
     "name" : "android::MediaImage2::V"
    },
    {
     "enum_field_value" : 0,
     "name" : "android::MediaImage2::R"
    },
    {
     "enum_field_value" : 1,
     "name" : "android::MediaImage2::G"
    },
    {
     "enum_field_value" : 2,
     "name" : "android::MediaImage2::B"
    },
    {
     "enum_field_value" : 3,
     "name" : "android::MediaImage2::A"
    },
    {
     "enum_field_value" : 4,
     "name" : "android::MediaImage2::MAX_NUM_PLANES"
    }
   ],
   "linker_set_key" : "_ZTIN7android11MediaImage210PlaneIndexE",
   "name" : "android::MediaImage2::PlaneIndex",
   "referenced_type" : "_ZTIN7android11MediaImage210PlaneIndexE",
   "self_type" : "_ZTIN7android11MediaImage210PlaneIndexE",
   "size" : 4,
   "source_file" : "/frameworks/native/headers/media_plugin/media/hardware/VideoAPI.h",
   "underlying_type" : "_ZTIj"
  },
  {
   "alignment" : 4,
   "enum_fields" :
   [
    {
     "enum_field_value" : 0,
     "name" : "android::MediaImage2::MEDIA_IMAGE_TYPE_UNKNOWN"
    },
    {
     "enum_field_value" : 1,
     "name" : "android::MediaImage2::MEDIA_IMAGE_TYPE_YUV"
    },
    {
     "enum_field_value" : 2,
     "name" : "android::MediaImage2::MEDIA_IMAGE_TYPE_YUVA"
    },
    {
     "enum_field_value" : 3,
     "name" : "android::MediaImage2::MEDIA_IMAGE_TYPE_RGB"
    },
    {
     "enum_field_value" : 4,
     "name" : "android::MediaImage2::MEDIA_IMAGE_TYPE_RGBA"
    },
    {
     "enum_field_value" : 5,
     "name" : "android::MediaImage2::MEDIA_IMAGE_TYPE_Y"
    }
   ],
   "linker_set_key" : "_ZTIN7android11MediaImage24TypeE",
   "name" : "android::MediaImage2::Type",
   "referenced_type" : "_ZTIN7android11MediaImage24TypeE",
   "self_type" : "_ZTIN7android11MediaImage24TypeE",
   "size" : 4,
   "source_file" : "/frameworks/native/headers/media_plugin/media/hardware/VideoAPI.h",
   "underlying_type" : "_ZTIj"
  },
  {
   "alignment" : 4,
   "enum_fields" :
   [
    {
     "enum_field_value" : 0,
     "name" : "android::omx_message::EVENT"
    },
    {
     "enum_field_value" : 1,
     "name" : "android::omx_message::EMPTY_BUFFER_DONE"
    },
    {
     "enum_field_value" : 2,
     "name" : "android::omx_message::FILL_BUFFER_DONE"
    },
    {
     "enum_field_value" : 3,
     "name" : "android::omx_message::FRAME_RENDERED"
    }
   ],
   "linker_set_key" : "_ZTIN7android11omx_message18$EMPTY_BUFFER_DONEE",
   "name" : "android::omx_message::(anonymous enum at frameworks/av/media/libmedia/include/media/IOMX.h:184:5)",
   "referenced_type" : "_ZTIN7android11omx_message18$EMPTY_BUFFER_DONEE",
   "self_type" : "_ZTIN7android11omx_message18$EMPTY_BUFFER_DONEE",
   "size" : 4,
   "source_file" : "/frameworks/av/media/libmedia/include/media/IOMX.h",
   "underlying_type" : "_ZTIj"
  },
  {
   "alignment" : 4,
   "enum_fields" :
   [
    {
     "enum_field_value" : 0,
     "name" : "android::ColorAspects::MatrixUnspecified"
    },
    {
     "enum_field_value" : 1,
     "name" : "android::ColorAspects::MatrixBT709_5"
    },
    {
     "enum_field_value" : 2,
     "name" : "android::ColorAspects::MatrixBT470_6M"
    },
    {
     "enum_field_value" : 3,
     "name" : "android::ColorAspects::MatrixBT601_6"
    },
    {
     "enum_field_value" : 4,
     "name" : "android::ColorAspects::MatrixSMPTE240M"
    },
    {
     "enum_field_value" : 5,
     "name" : "android::ColorAspects::MatrixBT2020"
    },
    {
     "enum_field_value" : 6,
     "name" : "android::ColorAspects::MatrixBT2020Constant"
    },
    {
     "enum_field_value" : 255,
     "name" : "android::ColorAspects::MatrixOther"
    }
   ],
   "linker_set_key" : "_ZTIN7android12ColorAspects12MatrixCoeffsE",
   "name" : "android::ColorAspects::MatrixCoeffs",
   "referenced_type" : "_ZTIN7android12ColorAspects12MatrixCoeffsE",
   "self_type" : "_ZTIN7android12ColorAspects12MatrixCoeffsE",
   "size" : 4,
   "source_file" : "/frameworks/native/headers/media_plugin/media/hardware/VideoAPI.h",
   "underlying_type" : "_ZTIj"
  },
  {
   "alignment" : 4,
   "enum_fields" :
   [
    {
     "enum_field_value" : 0,
     "name" : "android::ColorAspects::RangeUnspecified"
    },
    {
     "enum_field_value" : 1,
     "name" : "android::ColorAspects::RangeFull"
    },
    {
     "enum_field_value" : 2,
     "name" : "android::ColorAspects::RangeLimited"
    },
    {
     "enum_field_value" : 255,
     "name" : "android::ColorAspects::RangeOther"
    }
   ],
   "linker_set_key" : "_ZTIN7android12ColorAspects5RangeE",
   "name" : "android::ColorAspects::Range",
   "referenced_type" : "_ZTIN7android12ColorAspects5RangeE",
   "self_type" : "_ZTIN7android12ColorAspects5RangeE",
   "size" : 4,
   "source_file" : "/frameworks/native/headers/media_plugin/media/hardware/VideoAPI.h",
   "underlying_type" : "_ZTIj"
  },
  {
   "alignment" : 4,
   "enum_fields" :
   [
    {
     "enum_field_value" : 0,
     "name" : "android::ColorAspects::StandardUnspecified"
    },
    {
     "enum_field_value" : 1,
     "name" : "android::ColorAspects::StandardBT709"
    },
    {
     "enum_field_value" : 2,
     "name" : "android::ColorAspects::StandardBT601_625"
    },
    {
     "enum_field_value" : 3,
     "name" : "android::ColorAspects::StandardBT601_625_Unadjusted"
    },
    {
     "enum_field_value" : 4,
     "name" : "android::ColorAspects::StandardBT601_525"
    },
    {
     "enum_field_value" : 5,
     "name" : "android::ColorAspects::StandardBT601_525_Unadjusted"
    },
    {
     "enum_field_value" : 6,
     "name" : "android::ColorAspects::StandardBT2020"
    },
    {
     "enum_field_value" : 7,
     "name" : "android::ColorAspects::StandardBT2020Constant"
    },
    {
     "enum_field_value" : 8,
     "name" : "android::ColorAspects::StandardBT470M"
    },
    {
     "enum_field_value" : 9,
     "name" : "android::ColorAspects::StandardFilm"
    },
    {
     "enum_field_value" : 255,
     "name" : "android::ColorAspects::StandardOther"
    }
   ],
   "linker_set_key" : "_ZTIN7android12ColorAspects8StandardE",
   "name" : "android::ColorAspects::Standard",
   "referenced_type" : "_ZTIN7android12ColorAspects8StandardE",
   "self_type" : "_ZTIN7android12ColorAspects8StandardE",
   "size" : 4,
   "source_file" : "/frameworks/native/headers/media_plugin/media/hardware/VideoAPI.h",
   "underlying_type" : "_ZTIj"
  },
  {
   "alignment" : 4,
   "enum_fields" :
   [
    {
     "enum_field_value" : 0,
     "name" : "android::ColorAspects::TransferUnspecified"
    },
    {
     "enum_field_value" : 1,
     "name" : "android::ColorAspects::TransferLinear"
    },
    {
     "enum_field_value" : 2,
     "name" : "android::ColorAspects::TransferSRGB"
    },
    {
     "enum_field_value" : 3,
     "name" : "android::ColorAspects::TransferSMPTE170M"
    },
    {
     "enum_field_value" : 4,
     "name" : "android::ColorAspects::TransferGamma22"
    },
    {
     "enum_field_value" : 5,
     "name" : "android::ColorAspects::TransferGamma28"
    },
    {
     "enum_field_value" : 6,
     "name" : "android::ColorAspects::TransferST2084"
    },
    {
     "enum_field_value" : 7,
     "name" : "android::ColorAspects::TransferHLG"
    },
    {
     "enum_field_value" : 64,
     "name" : "android::ColorAspects::TransferSMPTE240M"
    },
    {
     "enum_field_value" : 65,
     "name" : "android::ColorAspects::TransferXvYCC"
    },
    {
     "enum_field_value" : 66,
     "name" : "android::ColorAspects::TransferBT1361"
    },
    {
     "enum_field_value" : 67,
     "name" : "android::ColorAspects::TransferST428"
    },
    {
     "enum_field_value" : 255,
     "name" : "android::ColorAspects::TransferOther"
    }
   ],
   "linker_set_key" : "_ZTIN7android12ColorAspects8TransferE",
   "name" : "android::ColorAspects::Transfer",
   "referenced_type" : "_ZTIN7android12ColorAspects8TransferE",
   "self_type" : "_ZTIN7android12ColorAspects8TransferE",
   "size" : 4,
   "source_file" : "/frameworks/native/headers/media_plugin/media/hardware/VideoAPI.h",
   "underlying_type" : "_ZTIj"
  },
  {
   "alignment" : 4,
   "enum_fields" :
   [
    {
     "enum_field_value" : 0,
     "name" : "android::ColorAspects::PrimariesUnspecified"
    },
    {
     "enum_field_value" : 1,
     "name" : "android::ColorAspects::PrimariesBT709_5"
    },
    {
     "enum_field_value" : 2,
     "name" : "android::ColorAspects::PrimariesBT470_6M"
    },
    {
     "enum_field_value" : 3,
     "name" : "android::ColorAspects::PrimariesBT601_6_625"
    },
    {
     "enum_field_value" : 4,
     "name" : "android::ColorAspects::PrimariesBT601_6_525"
    },
    {
     "enum_field_value" : 5,
     "name" : "android::ColorAspects::PrimariesGenericFilm"
    },
    {
     "enum_field_value" : 6,
     "name" : "android::ColorAspects::PrimariesBT2020"
    },
    {
     "enum_field_value" : 255,
     "name" : "android::ColorAspects::PrimariesOther"
    }
   ],
   "linker_set_key" : "_ZTIN7android12ColorAspects9PrimariesE",
   "name" : "android::ColorAspects::Primaries",
   "referenced_type" : "_ZTIN7android12ColorAspects9PrimariesE",
   "self_type" : "_ZTIN7android12ColorAspects9PrimariesE",
   "size" : 4,
   "source_file" : "/frameworks/native/headers/media_plugin/media/hardware/VideoAPI.h",
   "underlying_type" : "_ZTIj"
  },
  {
   "alignment" : 4,
   "enum_fields" :
   [
    {
     "enum_field_value" : 0,
     "name" : "android::GraphicBuffer::USAGE_SW_READ_NEVER"
    },
    {
     "enum_field_value" : 2,
     "name" : "android::GraphicBuffer::USAGE_SW_READ_RARELY"
    },
    {
     "enum_field_value" : 3,
     "name" : "android::GraphicBuffer::USAGE_SW_READ_OFTEN"
    },
    {
     "enum_field_value" : 15,
     "name" : "android::GraphicBuffer::USAGE_SW_READ_MASK"
    },
    {
     "enum_field_value" : 0,
     "name" : "android::GraphicBuffer::USAGE_SW_WRITE_NEVER"
    },
    {
     "enum_field_value" : 32,
     "name" : "android::GraphicBuffer::USAGE_SW_WRITE_RARELY"
    },
    {
     "enum_field_value" : 48,
     "name" : "android::GraphicBuffer::USAGE_SW_WRITE_OFTEN"
    },
    {
     "enum_field_value" : 240,
     "name" : "android::GraphicBuffer::USAGE_SW_WRITE_MASK"
    },
    {
     "enum_field_value" : 255,
     "name" : "android::GraphicBuffer::USAGE_SOFTWARE_MASK"
    },
    {
     "enum_field_value" : 16384,
     "name" : "android::GraphicBuffer::USAGE_PROTECTED"
    },
    {
     "enum_field_value" : 256,
     "name" : "android::GraphicBuffer::USAGE_HW_TEXTURE"
    },
    {
     "enum_field_value" : 512,
     "name" : "android::GraphicBuffer::USAGE_HW_RENDER"
    },
    {
     "enum_field_value" : 1024,
     "name" : "android::GraphicBuffer::USAGE_HW_2D"
    },
    {
     "enum_field_value" : 2048,
     "name" : "android::GraphicBuffer::USAGE_HW_COMPOSER"
    },
    {
     "enum_field_value" : 65536,
     "name" : "android::GraphicBuffer::USAGE_HW_VIDEO_ENCODER"
    },
    {
     "enum_field_value" : 466688,
     "name" : "android::GraphicBuffer::USAGE_HW_MASK"
    },
    {
     "enum_field_value" : 32768,
     "name" : "android::GraphicBuffer::USAGE_CURSOR"
    }
   ],
   "linker_set_key" : "_ZTIN7android13GraphicBuffer13$USAGE_CURSORE",
   "name" : "android::GraphicBuffer::(anonymous enum at frameworks/native/libs/ui/include/ui/GraphicBuffer.h:56:5)",
   "referenced_type" : "_ZTIN7android13GraphicBuffer13$USAGE_CURSORE",
   "self_type" : "_ZTIN7android13GraphicBuffer13$USAGE_CURSORE",
   "size" : 4,
   "source_file" : "/frameworks/native/libs/ui/include/ui/GraphicBuffer.h",
   "underlying_type" : "_ZTIj"
  },
  {
   "alignment" : 1,
   "enum_fields" :
   [
    {
     "enum_field_value" : 0,
     "name" : "android::GraphicBuffer::WRAP_HANDLE"
    },
    {
     "enum_field_value" : 1,
     "name" : "android::GraphicBuffer::TAKE_HANDLE"
    },
    {
     "enum_field_value" : 2,
     "name" : "android::GraphicBuffer::TAKE_UNREGISTERED_HANDLE"
    },
    {
     "enum_field_value" : 3,
     "name" : "android::GraphicBuffer::CLONE_HANDLE"
    }
   ],
   "linker_set_key" : "_ZTIN7android13GraphicBuffer16HandleWrapMethodE",
   "name" : "android::GraphicBuffer::HandleWrapMethod",
   "referenced_type" : "_ZTIN7android13GraphicBuffer16HandleWrapMethodE",
   "self_type" : "_ZTIN7android13GraphicBuffer16HandleWrapMethodE",
   "size" : 1,
   "source_file" : "/frameworks/native/libs/ui/include/ui/GraphicBuffer.h",
   "underlying_type" : "_ZTIh"
  },
  {
   "access" : "private",
   "alignment" : 4,
   "enum_fields" :
   [
    {
     "enum_field_value" : 0,
     "name" : "android::GraphicBuffer::ownNone"
    },
    {
     "enum_field_value" : 1,
     "name" : "android::GraphicBuffer::ownHandle"
    },
    {
     "enum_field_value" : 2,
     "name" : "android::GraphicBuffer::ownData"
    }
   ],
   "linker_set_key" : "_ZTIN7android13GraphicBuffer8$ownDataE",
   "name" : "android::GraphicBuffer::(anonymous enum at frameworks/native/libs/ui/include/ui/GraphicBuffer.h:221:5)",
   "referenced_type" : "_ZTIN7android13GraphicBuffer8$ownDataE",
   "self_type" : "_ZTIN7android13GraphicBuffer8$ownDataE",
   "size" : 4,
   "source_file" : "/frameworks/native/libs/ui/include/ui/GraphicBuffer.h",
   "underlying_type" : "_ZTIj"
  },
  {
   "alignment" : 1,
   "enum_fields" :
   [
    {
     "enum_field_value" : 0,
     "name" : "android::HDRStaticInfo::kType1"
    }
   ],
   "linker_set_key" : "_ZTIN7android13HDRStaticInfo2IDE",
   "name" : "android::HDRStaticInfo::ID",
   "referenced_type" : "_ZTIN7android13HDRStaticInfo2IDE",
   "self_type" : "_ZTIN7android13HDRStaticInfo2IDE",
   "size" : 1,
   "source_file" : "/frameworks/native/headers/media_plugin/media/hardware/VideoAPI.h",
   "underlying_type" : "_ZTIh"
  },
  {
   "alignment" : 4,
   "enum_fields" :
   [
    {
     "enum_field_value" : 0,
     "name" : "android::OK"
    },
    {
     "enum_field_value" : 0,
     "name" : "android::NO_ERROR"
    },
    {
     "enum_field_value" : -2147483648,
     "name" : "android::UNKNOWN_ERROR"
    },
    {
     "enum_field_value" : -12,
     "name" : "android::NO_MEMORY"
    },
    {
     "enum_field_value" : -38,
     "name" : "android::INVALID_OPERATION"
    },
    {
     "enum_field_value" : -22,
     "name" : "android::BAD_VALUE"
    },
    {
     "enum_field_value" : -2147483647,
     "name" : "android::BAD_TYPE"
    },
    {
     "enum_field_value" : -2,
     "name" : "android::NAME_NOT_FOUND"
    },
    {
     "enum_field_value" : -1,
     "name" : "android::PERMISSION_DENIED"
    },
    {
     "enum_field_value" : -19,
     "name" : "android::NO_INIT"
    },
    {
     "enum_field_value" : -17,
     "name" : "android::ALREADY_EXISTS"
    },
    {
     "enum_field_value" : -32,
     "name" : "android::DEAD_OBJECT"
    },
    {
     "enum_field_value" : -2147483646,
     "name" : "android::FAILED_TRANSACTION"
    },
    {
     "enum_field_value" : -75,
     "name" : "android::BAD_INDEX"
    },
    {
     "enum_field_value" : -61,
     "name" : "android::NOT_ENOUGH_DATA"
    },
    {
     "enum_field_value" : -11,
     "name" : "android::WOULD_BLOCK"
    },
    {
     "enum_field_value" : -110,
     "name" : "android::TIMED_OUT"
    },
    {
     "enum_field_value" : -74,
     "name" : "android::UNKNOWN_TRANSACTION"
    },
    {
     "enum_field_value" : -2147483641,
     "name" : "android::FDS_NOT_ALLOWED"
    },
    {
     "enum_field_value" : -2147483640,
     "name" : "android::UNEXPECTED_NULL"
    }
   ],
   "linker_set_key" : "_ZTIN7android15$ALREADY_EXISTSE",
   "name" : "android::(anonymous enum at system/core/libutils/include/utils/Errors.h:43:1)",
   "referenced_type" : "_ZTIN7android15$ALREADY_EXISTSE",
   "self_type" : "_ZTIN7android15$ALREADY_EXISTSE",
   "size" : 4,
   "source_file" : "/system/core/libutils/include/utils/Errors.h",
   "underlying_type" : "_ZTIi"
  },
  {
   "alignment" : 4,
   "enum_fields" :
   [
    {
     "enum_field_value" : -1000,
     "name" : "android::MEDIA_ERROR_BASE"
    },
    {
     "enum_field_value" : -1000,
     "name" : "android::ERROR_ALREADY_CONNECTED"
    },
    {
     "enum_field_value" : -1001,
     "name" : "android::ERROR_NOT_CONNECTED"
    },
    {
     "enum_field_value" : -1002,
     "name" : "android::ERROR_UNKNOWN_HOST"
    },
    {
     "enum_field_value" : -1003,
     "name" : "android::ERROR_CANNOT_CONNECT"
    },
    {
     "enum_field_value" : -1004,
     "name" : "android::ERROR_IO"
    },
    {
     "enum_field_value" : -1005,
     "name" : "android::ERROR_CONNECTION_LOST"
    },
    {
     "enum_field_value" : -1007,
     "name" : "android::ERROR_MALFORMED"
    },
    {
     "enum_field_value" : -1008,
     "name" : "android::ERROR_OUT_OF_RANGE"
    },
    {
     "enum_field_value" : -1009,
     "name" : "android::ERROR_BUFFER_TOO_SMALL"
    },
    {
     "enum_field_value" : -1010,
     "name" : "android::ERROR_UNSUPPORTED"
    },
    {
     "enum_field_value" : -1011,
     "name" : "android::ERROR_END_OF_STREAM"
    },
    {
     "enum_field_value" : -1012,
     "name" : "android::INFO_FORMAT_CHANGED"
    },
    {
     "enum_field_value" : -1013,
     "name" : "android::INFO_DISCONTINUITY"
    },
    {
     "enum_field_value" : -1014,
     "name" : "android::INFO_OUTPUT_BUFFERS_CHANGED"
    },
    {
     "enum_field_value" : -2000,
     "name" : "android::DRM_ERROR_BASE"
    },
    {
     "enum_field_value" : -2000,
     "name" : "android::ERROR_DRM_UNKNOWN"
    },
    {
     "enum_field_value" : -2001,
     "name" : "android::ERROR_DRM_NO_LICENSE"
    },
    {
     "enum_field_value" : -2002,
     "name" : "android::ERROR_DRM_LICENSE_EXPIRED"
    },
    {
     "enum_field_value" : -2003,
     "name" : "android::ERROR_DRM_SESSION_NOT_OPENED"
    },
    {
     "enum_field_value" : -2004,
     "name" : "android::ERROR_DRM_DECRYPT_UNIT_NOT_INITIALIZED"
    },
    {
     "enum_field_value" : -2005,
     "name" : "android::ERROR_DRM_DECRYPT"
    },
    {
     "enum_field_value" : -2006,
     "name" : "android::ERROR_DRM_CANNOT_HANDLE"
    },
    {
     "enum_field_value" : -2007,
     "name" : "android::ERROR_DRM_TAMPER_DETECTED"
    },
    {
     "enum_field_value" : -2008,
     "name" : "android::ERROR_DRM_NOT_PROVISIONED"
    },
    {
     "enum_field_value" : -2009,
     "name" : "android::ERROR_DRM_DEVICE_REVOKED"
    },
    {
     "enum_field_value" : -2010,
     "name" : "android::ERROR_DRM_RESOURCE_BUSY"
    },
    {
     "enum_field_value" : -2011,
     "name" : "android::ERROR_DRM_INSUFFICIENT_OUTPUT_PROTECTION"
    },
    {
     "enum_field_value" : -2012,
     "name" : "android::ERROR_DRM_INSUFFICIENT_SECURITY"
    },
    {
     "enum_field_value" : -2013,
     "name" : "android::ERROR_DRM_FRAME_TOO_LARGE"
    },
    {
     "enum_field_value" : -2014,
     "name" : "android::ERROR_DRM_RESOURCE_CONTENTION"
    },
    {
     "enum_field_value" : -2015,
     "name" : "android::ERROR_DRM_SESSION_LOST_STATE"
    },
    {
     "enum_field_value" : -2016,
     "name" : "android::ERROR_DRM_INVALID_STATE"
    },
    {
     "enum_field_value" : -2016,
     "name" : "android::ERROR_DRM_LAST_USED_ERRORCODE"
    },
    {
     "enum_field_value" : -2500,
     "name" : "android::ERROR_DRM_VENDOR_MAX"
    },
    {
     "enum_field_value" : -2999,
     "name" : "android::ERROR_DRM_VENDOR_MIN"
    },
    {
     "enum_field_value" : -3000,
     "name" : "android::HEARTBEAT_ERROR_BASE"
    },
    {
     "enum_field_value" : -3000,
     "name" : "android::ERROR_HEARTBEAT_TERMINATE_REQUESTED"
    },
    {
     "enum_field_value" : -4000,
     "name" : "android::CAS_ERROR_BASE"
    },
    {
     "enum_field_value" : -4000,
     "name" : "android::ERROR_CAS_UNKNOWN"
    },
    {
     "enum_field_value" : -4001,
     "name" : "android::ERROR_CAS_NO_LICENSE"
    },
    {
     "enum_field_value" : -4002,
     "name" : "android::ERROR_CAS_LICENSE_EXPIRED"
    },
    {
     "enum_field_value" : -4003,
     "name" : "android::ERROR_CAS_SESSION_NOT_OPENED"
    },
    {
     "enum_field_value" : -4004,
     "name" : "android::ERROR_CAS_DECRYPT_UNIT_NOT_INITIALIZED"
    },
    {
     "enum_field_value" : -4005,
     "name" : "android::ERROR_CAS_DECRYPT"
    },
    {
     "enum_field_value" : -4006,
     "name" : "android::ERROR_CAS_CANNOT_HANDLE"
    },
    {
     "enum_field_value" : -4007,
     "name" : "android::ERROR_CAS_TAMPER_DETECTED"
    },
    {
     "enum_field_value" : -4008,
     "name" : "android::ERROR_CAS_NOT_PROVISIONED"
    },
    {
     "enum_field_value" : -4009,
     "name" : "android::ERROR_CAS_DEVICE_REVOKED"
    },
    {
     "enum_field_value" : -4010,
     "name" : "android::ERROR_CAS_RESOURCE_BUSY"
    },
    {
     "enum_field_value" : -4011,
     "name" : "android::ERROR_CAS_INSUFFICIENT_OUTPUT_PROTECTION"
    },
    {
     "enum_field_value" : -4012,
     "name" : "android::ERROR_CAS_NEED_ACTIVATION"
    },
    {
     "enum_field_value" : -4013,
     "name" : "android::ERROR_CAS_NEED_PAIRING"
    },
    {
     "enum_field_value" : -4014,
     "name" : "android::ERROR_CAS_NO_CARD"
    },
    {
     "enum_field_value" : -4015,
     "name" : "android::ERROR_CAS_CARD_MUTE"
    },
    {
     "enum_field_value" : -4016,
     "name" : "android::ERROR_CAS_CARD_INVALID"
    },
    {
     "enum_field_value" : -4017,
     "name" : "android::ERROR_CAS_BLACKOUT"
    },
    {
     "enum_field_value" : -4018,
     "name" : "android::ERROR_CAS_REBOOTING"
    },
    {
     "enum_field_value" : -4018,
     "name" : "android::ERROR_CAS_LAST_USED_ERRORCODE"
    },
    {
     "enum_field_value" : -4500,
     "name" : "android::ERROR_CAS_VENDOR_MAX"
    },
    {
     "enum_field_value" : -4999,
     "name" : "android::ERROR_CAS_VENDOR_MIN"
    },
    {
     "enum_field_value" : -1878982657,
     "name" : "android::ERROR_CODEC_MAX"
    },
    {
     "enum_field_value" : -2147479552,
     "name" : "android::ERROR_CODEC_MIN"
    }
   ],
   "linker_set_key" : "_ZTIN7android15$CAS_ERROR_BASEE",
   "name" : "android::(anonymous enum at frameworks/av/media/libstagefright/include/media/stagefright/MediaErrors.h:25:1)",
   "referenced_type" : "_ZTIN7android15$CAS_ERROR_BASEE",
   "self_type" : "_ZTIN7android15$CAS_ERROR_BASEE",
   "size" : 4,
   "source_file" : "/frameworks/av/media/libstagefright/include/media/stagefright/MediaErrors.h",
   "underlying_type" : "_ZTIi"
  },
  {
   "alignment" : 4,
   "enum_fields" :
   [
    {
     "enum_field_value" : 19,
     "name" : "android::PRIORITY_LOWEST"
    },
    {
     "enum_field_value" : 10,
     "name" : "android::PRIORITY_BACKGROUND"
    },
    {
     "enum_field_value" : 0,
     "name" : "android::PRIORITY_NORMAL"
    },
    {
     "enum_field_value" : -2,
     "name" : "android::PRIORITY_FOREGROUND"
    },
    {
     "enum_field_value" : -4,
     "name" : "android::PRIORITY_DISPLAY"
    },
    {
     "enum_field_value" : -8,
     "name" : "android::PRIORITY_URGENT_DISPLAY"
    },
    {
     "enum_field_value" : -16,
     "name" : "android::PRIORITY_AUDIO"
    },
    {
     "enum_field_value" : -19,
     "name" : "android::PRIORITY_URGENT_AUDIO"
    },
    {
     "enum_field_value" : -20,
     "name" : "android::PRIORITY_HIGHEST"
    },
    {
     "enum_field_value" : 0,
     "name" : "android::PRIORITY_DEFAULT"
    },
    {
     "enum_field_value" : -1,
     "name" : "android::PRIORITY_MORE_FAVORABLE"
    },
    {
     "enum_field_value" : 1,
     "name" : "android::PRIORITY_LESS_FAVORABLE"
    }
   ],
   "linker_set_key" : "_ZTIN7android15$PRIORITY_AUDIOE",
   "name" : "android::(anonymous enum at system/core/libutils/include/utils/ThreadDefs.h:53:1)",
   "referenced_type" : "_ZTIN7android15$PRIORITY_AUDIOE",
   "self_type" : "_ZTIN7android15$PRIORITY_AUDIOE",
   "size" : 4,
   "source_file" : "/system/core/libutils/include/utils/ThreadDefs.h",
   "underlying_type" : "_ZTIi"
  },
  {
   "alignment" : 4,
   "enum_fields" :
   [
    {
     "enum_field_value" : 1,
     "name" : "android::BufferQueueDefs::BUFFER_NEEDS_REALLOCATION"
    },
    {
     "enum_field_value" : 2,
     "name" : "android::BufferQueueDefs::RELEASE_ALL_BUFFERS"
    }
   ],
   "linker_set_key" : "_ZTIN7android15BufferQueueDefs26$BUFFER_NEEDS_REALLOCATIONE",
   "name" : "android::BufferQueueDefs::(anonymous enum at frameworks/native/libs/ui/include/ui/BufferQueueDefs.h:27:9)",
   "referenced_type" : "_ZTIN7android15BufferQueueDefs26$BUFFER_NEEDS_REALLOCATIONE",
   "self_type" : "_ZTIN7android15BufferQueueDefs26$BUFFER_NEEDS_REALLOCATIONE",
   "size" : 4,
   "source_file" : "/frameworks/native/libs/ui/include/ui/BufferQueueDefs.h",
   "underlying_type" : "_ZTIj"
  },
  {
   "alignment" : 4,
   "enum_fields" :
   [
    {
     "enum_field_value" : 0,
     "name" : "android::kMetadataBufferTypeCameraSource"
    },
    {
     "enum_field_value" : 1,
     "name" : "android::kMetadataBufferTypeGrallocSource"
    },
    {
     "enum_field_value" : 2,
     "name" : "android::kMetadataBufferTypeANWBuffer"
    },
    {
     "enum_field_value" : 3,
     "name" : "android::kMetadataBufferTypeNativeHandleSource"
    },
    {
     "enum_field_value" : -1,
     "name" : "android::kMetadataBufferTypeInvalid"
    }
   ],
   "linker_set_key" : "_ZTIN7android18MetadataBufferTypeE",
   "name" : "android::MetadataBufferType",
   "referenced_type" : "_ZTIN7android18MetadataBufferTypeE",
   "self_type" : "_ZTIN7android18MetadataBufferTypeE",
   "size" : 4,
   "source_file" : "/frameworks/native/headers/media_plugin/media/hardware/MetadataBufferType.h",
   "underlying_type" : "_ZTIi"
  },
  {
   "alignment" : 4,
   "enum_fields" :
   [
    {
     "enum_field_value" : 1,
     "name" : "android::trait_trivial_copy<android::Rect>::value"
    }
   ],
   "linker_set_key" : "_ZTIN7android18trait_trivial_copyINS_4RectEE6$valueE",
   "name" : "android::trait_trivial_copy<Rect>::(anonymous enum at frameworks/native/libs/ui/include/ui/Rect.h:225:1)",
   "referenced_type" : "_ZTIN7android18trait_trivial_copyINS_4RectEE6$valueE",
   "self_type" : "_ZTIN7android18trait_trivial_copyINS_4RectEE6$valueE",
   "size" : 4,
   "source_file" : "/frameworks/native/libs/ui/include/ui/Rect.h",
   "underlying_type" : "_ZTIj"
  },
  {
   "alignment" : 4,
   "enum_fields" :
   [
    {
     "enum_field_value" : 1,
     "name" : "android::trait_trivial_copy<android::Point>::value"
    }
   ],
   "linker_set_key" : "_ZTIN7android18trait_trivial_copyINS_5PointEE6$valueE",
   "name" : "android::trait_trivial_copy<Point>::(anonymous enum at frameworks/native/libs/ui/include/ui/Point.h:84:1)",
   "referenced_type" : "_ZTIN7android18trait_trivial_copyINS_5PointEE6$valueE",
   "self_type" : "_ZTIN7android18trait_trivial_copyINS_5PointEE6$valueE",
   "size" : 4,
   "source_file" : "/frameworks/native/libs/ui/include/ui/Point.h",
   "underlying_type" : "_ZTIj"
  },
  {
   "alignment" : 4,
   "enum_fields" :
   [
    {
     "enum_field_value" : 1,
     "name" : "android::trait_trivial_copy<bool>::value"
    }
   ],
   "linker_set_key" : "_ZTIN7android18trait_trivial_copyIbE6$valueE",
   "name" : "android::trait_trivial_copy<bool>::(anonymous enum at system/core/libutils/include/utils/TypeHelpers.h:98:1)",
   "referenced_type" : "_ZTIN7android18trait_trivial_copyIbE6$valueE",
   "self_type" : "_ZTIN7android18trait_trivial_copyIbE6$valueE",
   "size" : 4,
   "source_file" : "/system/core/libutils/include/utils/TypeHelpers.h",
   "underlying_type" : "_ZTIj"
  },
  {
   "alignment" : 4,
   "enum_fields" :
   [
    {
     "enum_field_value" : 1,
     "name" : "android::trait_trivial_copy<char>::value"
    }
   ],
   "linker_set_key" : "_ZTIN7android18trait_trivial_copyIcE6$valueE",
   "name" : "android::trait_trivial_copy<char>::(anonymous enum at system/core/libutils/include/utils/TypeHelpers.h:99:1)",
   "referenced_type" : "_ZTIN7android18trait_trivial_copyIcE6$valueE",
   "self_type" : "_ZTIN7android18trait_trivial_copyIcE6$valueE",
   "size" : 4,
   "source_file" : "/system/core/libutils/include/utils/TypeHelpers.h",
   "underlying_type" : "_ZTIj"
  },
  {
   "alignment" : 4,
   "enum_fields" :
   [
    {
     "enum_field_value" : 1,
     "name" : "android::trait_trivial_copy<double>::value"
    }
   ],
   "linker_set_key" : "_ZTIN7android18trait_trivial_copyIdE6$valueE",
   "name" : "android::trait_trivial_copy<double>::(anonymous enum at system/core/libutils/include/utils/TypeHelpers.h:110:1)",
   "referenced_type" : "_ZTIN7android18trait_trivial_copyIdE6$valueE",
   "self_type" : "_ZTIN7android18trait_trivial_copyIdE6$valueE",
   "size" : 4,
   "source_file" : "/system/core/libutils/include/utils/TypeHelpers.h",
   "underlying_type" : "_ZTIj"
  },
  {
   "alignment" : 4,
   "enum_fields" :
   [
    {
     "enum_field_value" : 1,
     "name" : "android::trait_trivial_copy<float>::value"
    }
   ],
   "linker_set_key" : "_ZTIN7android18trait_trivial_copyIfE6$valueE",
   "name" : "android::trait_trivial_copy<float>::(anonymous enum at system/core/libutils/include/utils/TypeHelpers.h:109:1)",
   "referenced_type" : "_ZTIN7android18trait_trivial_copyIfE6$valueE",
   "self_type" : "_ZTIN7android18trait_trivial_copyIfE6$valueE",
   "size" : 4,
   "source_file" : "/system/core/libutils/include/utils/TypeHelpers.h",
   "underlying_type" : "_ZTIj"
  },
  {
   "alignment" : 4,
   "enum_fields" :
   [
    {
     "enum_field_value" : 1,
     "name" : "android::trait_trivial_copy<unsigned char>::value"
    }
   ],
   "linker_set_key" : "_ZTIN7android18trait_trivial_copyIhE6$valueE",
   "name" : "android::trait_trivial_copy<unsigned char>::(anonymous enum at system/core/libutils/include/utils/TypeHelpers.h:100:1)",
   "referenced_type" : "_ZTIN7android18trait_trivial_copyIhE6$valueE",
   "self_type" : "_ZTIN7android18trait_trivial_copyIhE6$valueE",
   "size" : 4,
   "source_file" : "/system/core/libutils/include/utils/TypeHelpers.h",
   "underlying_type" : "_ZTIj"
  },
  {
   "alignment" : 4,
   "enum_fields" :
   [
    {
     "enum_field_value" : 1,
     "name" : "android::trait_trivial_copy<int>::value"
    }
   ],
   "linker_set_key" : "_ZTIN7android18trait_trivial_copyIiE6$valueE",
   "name" : "android::trait_trivial_copy<int>::(anonymous enum at system/core/libutils/include/utils/TypeHelpers.h:103:1)",
   "referenced_type" : "_ZTIN7android18trait_trivial_copyIiE6$valueE",
   "self_type" : "_ZTIN7android18trait_trivial_copyIiE6$valueE",
   "size" : 4,
   "source_file" : "/system/core/libutils/include/utils/TypeHelpers.h",
   "underlying_type" : "_ZTIj"
  },
  {
   "alignment" : 4,
   "enum_fields" :
   [
    {
     "enum_field_value" : 1,
     "name" : "android::trait_trivial_copy<unsigned int>::value"
    }
   ],
   "linker_set_key" : "_ZTIN7android18trait_trivial_copyIjE6$valueE",
   "name" : "android::trait_trivial_copy<unsigned int>::(anonymous enum at system/core/libutils/include/utils/TypeHelpers.h:104:1)",
   "referenced_type" : "_ZTIN7android18trait_trivial_copyIjE6$valueE",
   "self_type" : "_ZTIN7android18trait_trivial_copyIjE6$valueE",
   "size" : 4,
   "source_file" : "/system/core/libutils/include/utils/TypeHelpers.h",
   "underlying_type" : "_ZTIj"
  },
  {
   "alignment" : 4,
   "enum_fields" :
   [
    {
     "enum_field_value" : 1,
     "name" : "android::trait_trivial_copy<long>::value"
    }
   ],
   "linker_set_key" : "_ZTIN7android18trait_trivial_copyIlE6$valueE",
   "name" : "android::trait_trivial_copy<long>::(anonymous enum at system/core/libutils/include/utils/TypeHelpers.h:105:1)",
   "referenced_type" : "_ZTIN7android18trait_trivial_copyIlE6$valueE",
   "self_type" : "_ZTIN7android18trait_trivial_copyIlE6$valueE",
   "size" : 4,
   "source_file" : "/system/core/libutils/include/utils/TypeHelpers.h",
   "underlying_type" : "_ZTIj"
  },
  {
   "alignment" : 4,
   "enum_fields" :
   [
    {
     "enum_field_value" : 1,
     "name" : "android::trait_trivial_copy<unsigned long>::value"
    }
   ],
   "linker_set_key" : "_ZTIN7android18trait_trivial_copyImE6$valueE",
   "name" : "android::trait_trivial_copy<unsigned long>::(anonymous enum at system/core/libutils/include/utils/TypeHelpers.h:106:1)",
   "referenced_type" : "_ZTIN7android18trait_trivial_copyImE6$valueE",
   "self_type" : "_ZTIN7android18trait_trivial_copyImE6$valueE",
   "size" : 4,
   "source_file" : "/system/core/libutils/include/utils/TypeHelpers.h",
   "underlying_type" : "_ZTIj"
  },
  {
   "alignment" : 4,
   "enum_fields" :
   [
    {
     "enum_field_value" : 1,
     "name" : "android::trait_trivial_copy<short>::value"
    }
   ],
   "linker_set_key" : "_ZTIN7android18trait_trivial_copyIsE6$valueE",
   "name" : "android::trait_trivial_copy<short>::(anonymous enum at system/core/libutils/include/utils/TypeHelpers.h:101:1)",
   "referenced_type" : "_ZTIN7android18trait_trivial_copyIsE6$valueE",
   "self_type" : "_ZTIN7android18trait_trivial_copyIsE6$valueE",
   "size" : 4,
   "source_file" : "/system/core/libutils/include/utils/TypeHelpers.h",
   "underlying_type" : "_ZTIj"
  },
  {
   "alignment" : 4,
   "enum_fields" :
   [
    {
     "enum_field_value" : 1,
     "name" : "android::trait_trivial_copy<unsigned short>::value"
    }
   ],
   "linker_set_key" : "_ZTIN7android18trait_trivial_copyItE6$valueE",
   "name" : "android::trait_trivial_copy<unsigned short>::(anonymous enum at system/core/libutils/include/utils/TypeHelpers.h:102:1)",
   "referenced_type" : "_ZTIN7android18trait_trivial_copyItE6$valueE",
   "self_type" : "_ZTIN7android18trait_trivial_copyItE6$valueE",
   "size" : 4,
   "source_file" : "/system/core/libutils/include/utils/TypeHelpers.h",
   "underlying_type" : "_ZTIj"
  },
  {
   "alignment" : 4,
   "enum_fields" :
   [
    {
     "enum_field_value" : 1,
     "name" : "android::trait_trivial_copy<void>::value"
    }
   ],
   "linker_set_key" : "_ZTIN7android18trait_trivial_copyIvE6$valueE",
   "name" : "android::trait_trivial_copy<void>::(anonymous enum at system/core/libutils/include/utils/TypeHelpers.h:97:1)",
   "referenced_type" : "_ZTIN7android18trait_trivial_copyIvE6$valueE",
   "self_type" : "_ZTIN7android18trait_trivial_copyIvE6$valueE",
   "size" : 4,
   "source_file" : "/system/core/libutils/include/utils/TypeHelpers.h",
   "underlying_type" : "_ZTIj"
  },
  {
   "alignment" : 4,
   "enum_fields" :
   [
    {
     "enum_field_value" : 1,
     "name" : "android::trait_trivial_copy<long long>::value"
    }
   ],
   "linker_set_key" : "_ZTIN7android18trait_trivial_copyIxE6$valueE",
   "name" : "android::trait_trivial_copy<long long>::(anonymous enum at system/core/libutils/include/utils/TypeHelpers.h:107:1)",
   "referenced_type" : "_ZTIN7android18trait_trivial_copyIxE6$valueE",
   "self_type" : "_ZTIN7android18trait_trivial_copyIxE6$valueE",
   "size" : 4,
   "source_file" : "/system/core/libutils/include/utils/TypeHelpers.h",
   "underlying_type" : "_ZTIj"
  },
  {
   "alignment" : 4,
   "enum_fields" :
   [
    {
     "enum_field_value" : 1,
     "name" : "android::trait_trivial_copy<unsigned long long>::value"
    }
   ],
   "linker_set_key" : "_ZTIN7android18trait_trivial_copyIyE6$valueE",
   "name" : "android::trait_trivial_copy<unsigned long long>::(anonymous enum at system/core/libutils/include/utils/TypeHelpers.h:108:1)",
   "referenced_type" : "_ZTIN7android18trait_trivial_copyIyE6$valueE",
   "self_type" : "_ZTIN7android18trait_trivial_copyIyE6$valueE",
   "size" : 4,
   "source_file" : "/system/core/libutils/include/utils/TypeHelpers.h",
   "underlying_type" : "_ZTIj"
  },
  {
   "alignment" : 4,
   "enum_fields" :
   [
    {
     "enum_field_value" : 1,
     "name" : "android::trait_trivial_ctor<android::Rect>::value"
    }
   ],
   "linker_set_key" : "_ZTIN7android18trait_trivial_ctorINS_4RectEE6$valueE",
   "name" : "android::trait_trivial_ctor<Rect>::(anonymous enum at frameworks/native/libs/ui/include/ui/Rect.h:225:1)",
   "referenced_type" : "_ZTIN7android18trait_trivial_ctorINS_4RectEE6$valueE",
   "self_type" : "_ZTIN7android18trait_trivial_ctorINS_4RectEE6$valueE",
   "size" : 4,
   "source_file" : "/frameworks/native/libs/ui/include/ui/Rect.h",
   "underlying_type" : "_ZTIj"
  },
  {
   "alignment" : 4,
   "enum_fields" :
   [
    {
     "enum_field_value" : 1,
     "name" : "android::trait_trivial_ctor<android::Point>::value"
    }
   ],
   "linker_set_key" : "_ZTIN7android18trait_trivial_ctorINS_5PointEE6$valueE",
   "name" : "android::trait_trivial_ctor<Point>::(anonymous enum at frameworks/native/libs/ui/include/ui/Point.h:84:1)",
   "referenced_type" : "_ZTIN7android18trait_trivial_ctorINS_5PointEE6$valueE",
   "self_type" : "_ZTIN7android18trait_trivial_ctorINS_5PointEE6$valueE",
   "size" : 4,
   "source_file" : "/frameworks/native/libs/ui/include/ui/Point.h",
   "underlying_type" : "_ZTIj"
  },
  {
   "alignment" : 4,
   "enum_fields" :
   [
    {
     "enum_field_value" : 1,
     "name" : "android::trait_trivial_ctor<bool>::value"
    }
   ],
   "linker_set_key" : "_ZTIN7android18trait_trivial_ctorIbE6$valueE",
   "name" : "android::trait_trivial_ctor<bool>::(anonymous enum at system/core/libutils/include/utils/TypeHelpers.h:98:1)",
   "referenced_type" : "_ZTIN7android18trait_trivial_ctorIbE6$valueE",
   "self_type" : "_ZTIN7android18trait_trivial_ctorIbE6$valueE",
   "size" : 4,
   "source_file" : "/system/core/libutils/include/utils/TypeHelpers.h",
   "underlying_type" : "_ZTIj"
  },
  {
   "alignment" : 4,
   "enum_fields" :
   [
    {
     "enum_field_value" : 1,
     "name" : "android::trait_trivial_ctor<char>::value"
    }
   ],
   "linker_set_key" : "_ZTIN7android18trait_trivial_ctorIcE6$valueE",
   "name" : "android::trait_trivial_ctor<char>::(anonymous enum at system/core/libutils/include/utils/TypeHelpers.h:99:1)",
   "referenced_type" : "_ZTIN7android18trait_trivial_ctorIcE6$valueE",
   "self_type" : "_ZTIN7android18trait_trivial_ctorIcE6$valueE",
   "size" : 4,
   "source_file" : "/system/core/libutils/include/utils/TypeHelpers.h",
   "underlying_type" : "_ZTIj"
  },
  {
   "alignment" : 4,
   "enum_fields" :
   [
    {
     "enum_field_value" : 1,
     "name" : "android::trait_trivial_ctor<double>::value"
    }
   ],
   "linker_set_key" : "_ZTIN7android18trait_trivial_ctorIdE6$valueE",
   "name" : "android::trait_trivial_ctor<double>::(anonymous enum at system/core/libutils/include/utils/TypeHelpers.h:110:1)",
   "referenced_type" : "_ZTIN7android18trait_trivial_ctorIdE6$valueE",
   "self_type" : "_ZTIN7android18trait_trivial_ctorIdE6$valueE",
   "size" : 4,
   "source_file" : "/system/core/libutils/include/utils/TypeHelpers.h",
   "underlying_type" : "_ZTIj"
  },
  {
   "alignment" : 4,
   "enum_fields" :
   [
    {
     "enum_field_value" : 1,
     "name" : "android::trait_trivial_ctor<float>::value"
    }
   ],
   "linker_set_key" : "_ZTIN7android18trait_trivial_ctorIfE6$valueE",
   "name" : "android::trait_trivial_ctor<float>::(anonymous enum at system/core/libutils/include/utils/TypeHelpers.h:109:1)",
   "referenced_type" : "_ZTIN7android18trait_trivial_ctorIfE6$valueE",
   "self_type" : "_ZTIN7android18trait_trivial_ctorIfE6$valueE",
   "size" : 4,
   "source_file" : "/system/core/libutils/include/utils/TypeHelpers.h",
   "underlying_type" : "_ZTIj"
  },
  {
   "alignment" : 4,
   "enum_fields" :
   [
    {
     "enum_field_value" : 1,
     "name" : "android::trait_trivial_ctor<unsigned char>::value"
    }
   ],
   "linker_set_key" : "_ZTIN7android18trait_trivial_ctorIhE6$valueE",
   "name" : "android::trait_trivial_ctor<unsigned char>::(anonymous enum at system/core/libutils/include/utils/TypeHelpers.h:100:1)",
   "referenced_type" : "_ZTIN7android18trait_trivial_ctorIhE6$valueE",
   "self_type" : "_ZTIN7android18trait_trivial_ctorIhE6$valueE",
   "size" : 4,
   "source_file" : "/system/core/libutils/include/utils/TypeHelpers.h",
   "underlying_type" : "_ZTIj"
  },
  {
   "alignment" : 4,
   "enum_fields" :
   [
    {
     "enum_field_value" : 1,
     "name" : "android::trait_trivial_ctor<int>::value"
    }
   ],
   "linker_set_key" : "_ZTIN7android18trait_trivial_ctorIiE6$valueE",
   "name" : "android::trait_trivial_ctor<int>::(anonymous enum at system/core/libutils/include/utils/TypeHelpers.h:103:1)",
   "referenced_type" : "_ZTIN7android18trait_trivial_ctorIiE6$valueE",
   "self_type" : "_ZTIN7android18trait_trivial_ctorIiE6$valueE",
   "size" : 4,
   "source_file" : "/system/core/libutils/include/utils/TypeHelpers.h",
   "underlying_type" : "_ZTIj"
  },
  {
   "alignment" : 4,
   "enum_fields" :
   [
    {
     "enum_field_value" : 1,
     "name" : "android::trait_trivial_ctor<unsigned int>::value"
    }
   ],
   "linker_set_key" : "_ZTIN7android18trait_trivial_ctorIjE6$valueE",
   "name" : "android::trait_trivial_ctor<unsigned int>::(anonymous enum at system/core/libutils/include/utils/TypeHelpers.h:104:1)",
   "referenced_type" : "_ZTIN7android18trait_trivial_ctorIjE6$valueE",
   "self_type" : "_ZTIN7android18trait_trivial_ctorIjE6$valueE",
   "size" : 4,
   "source_file" : "/system/core/libutils/include/utils/TypeHelpers.h",
   "underlying_type" : "_ZTIj"
  },
  {
   "alignment" : 4,
   "enum_fields" :
   [
    {
     "enum_field_value" : 1,
     "name" : "android::trait_trivial_ctor<long>::value"
    }
   ],
   "linker_set_key" : "_ZTIN7android18trait_trivial_ctorIlE6$valueE",
   "name" : "android::trait_trivial_ctor<long>::(anonymous enum at system/core/libutils/include/utils/TypeHelpers.h:105:1)",
   "referenced_type" : "_ZTIN7android18trait_trivial_ctorIlE6$valueE",
   "self_type" : "_ZTIN7android18trait_trivial_ctorIlE6$valueE",
   "size" : 4,
   "source_file" : "/system/core/libutils/include/utils/TypeHelpers.h",
   "underlying_type" : "_ZTIj"
  },
  {
   "alignment" : 4,
   "enum_fields" :
   [
    {
     "enum_field_value" : 1,
     "name" : "android::trait_trivial_ctor<unsigned long>::value"
    }
   ],
   "linker_set_key" : "_ZTIN7android18trait_trivial_ctorImE6$valueE",
   "name" : "android::trait_trivial_ctor<unsigned long>::(anonymous enum at system/core/libutils/include/utils/TypeHelpers.h:106:1)",
   "referenced_type" : "_ZTIN7android18trait_trivial_ctorImE6$valueE",
   "self_type" : "_ZTIN7android18trait_trivial_ctorImE6$valueE",
   "size" : 4,
   "source_file" : "/system/core/libutils/include/utils/TypeHelpers.h",
   "underlying_type" : "_ZTIj"
  },
  {
   "alignment" : 4,
   "enum_fields" :
   [
    {
     "enum_field_value" : 1,
     "name" : "android::trait_trivial_ctor<short>::value"
    }
   ],
   "linker_set_key" : "_ZTIN7android18trait_trivial_ctorIsE6$valueE",
   "name" : "android::trait_trivial_ctor<short>::(anonymous enum at system/core/libutils/include/utils/TypeHelpers.h:101:1)",
   "referenced_type" : "_ZTIN7android18trait_trivial_ctorIsE6$valueE",
   "self_type" : "_ZTIN7android18trait_trivial_ctorIsE6$valueE",
   "size" : 4,
   "source_file" : "/system/core/libutils/include/utils/TypeHelpers.h",
   "underlying_type" : "_ZTIj"
  },
  {
   "alignment" : 4,
   "enum_fields" :
   [
    {
     "enum_field_value" : 1,
     "name" : "android::trait_trivial_ctor<unsigned short>::value"
    }
   ],
   "linker_set_key" : "_ZTIN7android18trait_trivial_ctorItE6$valueE",
   "name" : "android::trait_trivial_ctor<unsigned short>::(anonymous enum at system/core/libutils/include/utils/TypeHelpers.h:102:1)",
   "referenced_type" : "_ZTIN7android18trait_trivial_ctorItE6$valueE",
   "self_type" : "_ZTIN7android18trait_trivial_ctorItE6$valueE",
   "size" : 4,
   "source_file" : "/system/core/libutils/include/utils/TypeHelpers.h",
   "underlying_type" : "_ZTIj"
  },
  {
   "alignment" : 4,
   "enum_fields" :
   [
    {
     "enum_field_value" : 1,
     "name" : "android::trait_trivial_ctor<void>::value"
    }
   ],
   "linker_set_key" : "_ZTIN7android18trait_trivial_ctorIvE6$valueE",
   "name" : "android::trait_trivial_ctor<void>::(anonymous enum at system/core/libutils/include/utils/TypeHelpers.h:97:1)",
   "referenced_type" : "_ZTIN7android18trait_trivial_ctorIvE6$valueE",
   "self_type" : "_ZTIN7android18trait_trivial_ctorIvE6$valueE",
   "size" : 4,
   "source_file" : "/system/core/libutils/include/utils/TypeHelpers.h",
   "underlying_type" : "_ZTIj"
  },
  {
   "alignment" : 4,
   "enum_fields" :
   [
    {
     "enum_field_value" : 1,
     "name" : "android::trait_trivial_ctor<long long>::value"
    }
   ],
   "linker_set_key" : "_ZTIN7android18trait_trivial_ctorIxE6$valueE",
   "name" : "android::trait_trivial_ctor<long long>::(anonymous enum at system/core/libutils/include/utils/TypeHelpers.h:107:1)",
   "referenced_type" : "_ZTIN7android18trait_trivial_ctorIxE6$valueE",
   "self_type" : "_ZTIN7android18trait_trivial_ctorIxE6$valueE",
   "size" : 4,
   "source_file" : "/system/core/libutils/include/utils/TypeHelpers.h",
   "underlying_type" : "_ZTIj"
  },
  {
   "alignment" : 4,
   "enum_fields" :
   [
    {
     "enum_field_value" : 1,
     "name" : "android::trait_trivial_ctor<unsigned long long>::value"
    }
   ],
   "linker_set_key" : "_ZTIN7android18trait_trivial_ctorIyE6$valueE",
   "name" : "android::trait_trivial_ctor<unsigned long long>::(anonymous enum at system/core/libutils/include/utils/TypeHelpers.h:108:1)",
   "referenced_type" : "_ZTIN7android18trait_trivial_ctorIyE6$valueE",
   "self_type" : "_ZTIN7android18trait_trivial_ctorIyE6$valueE",
   "size" : 4,
   "source_file" : "/system/core/libutils/include/utils/TypeHelpers.h",
   "underlying_type" : "_ZTIj"
  },
  {
   "alignment" : 4,
   "enum_fields" :
   [
    {
     "enum_field_value" : 1,
     "name" : "android::trait_trivial_dtor<android::Rect>::value"
    }
   ],
   "linker_set_key" : "_ZTIN7android18trait_trivial_dtorINS_4RectEE6$valueE",
   "name" : "android::trait_trivial_dtor<Rect>::(anonymous enum at frameworks/native/libs/ui/include/ui/Rect.h:225:1)",
   "referenced_type" : "_ZTIN7android18trait_trivial_dtorINS_4RectEE6$valueE",
   "self_type" : "_ZTIN7android18trait_trivial_dtorINS_4RectEE6$valueE",
   "size" : 4,
   "source_file" : "/frameworks/native/libs/ui/include/ui/Rect.h",
   "underlying_type" : "_ZTIj"
  },
  {
   "alignment" : 4,
   "enum_fields" :
   [
    {
     "enum_field_value" : 1,
     "name" : "android::trait_trivial_dtor<android::Point>::value"
    }
   ],
   "linker_set_key" : "_ZTIN7android18trait_trivial_dtorINS_5PointEE6$valueE",
   "name" : "android::trait_trivial_dtor<Point>::(anonymous enum at frameworks/native/libs/ui/include/ui/Point.h:84:1)",
   "referenced_type" : "_ZTIN7android18trait_trivial_dtorINS_5PointEE6$valueE",
   "self_type" : "_ZTIN7android18trait_trivial_dtorINS_5PointEE6$valueE",
   "size" : 4,
   "source_file" : "/frameworks/native/libs/ui/include/ui/Point.h",
   "underlying_type" : "_ZTIj"
  },
  {
   "alignment" : 4,
   "enum_fields" :
   [
    {
     "enum_field_value" : 1,
     "name" : "android::trait_trivial_dtor<bool>::value"
    }
   ],
   "linker_set_key" : "_ZTIN7android18trait_trivial_dtorIbE6$valueE",
   "name" : "android::trait_trivial_dtor<bool>::(anonymous enum at system/core/libutils/include/utils/TypeHelpers.h:98:1)",
   "referenced_type" : "_ZTIN7android18trait_trivial_dtorIbE6$valueE",
   "self_type" : "_ZTIN7android18trait_trivial_dtorIbE6$valueE",
   "size" : 4,
   "source_file" : "/system/core/libutils/include/utils/TypeHelpers.h",
   "underlying_type" : "_ZTIj"
  },
  {
   "alignment" : 4,
   "enum_fields" :
   [
    {
     "enum_field_value" : 1,
     "name" : "android::trait_trivial_dtor<char>::value"
    }
   ],
   "linker_set_key" : "_ZTIN7android18trait_trivial_dtorIcE6$valueE",
   "name" : "android::trait_trivial_dtor<char>::(anonymous enum at system/core/libutils/include/utils/TypeHelpers.h:99:1)",
   "referenced_type" : "_ZTIN7android18trait_trivial_dtorIcE6$valueE",
   "self_type" : "_ZTIN7android18trait_trivial_dtorIcE6$valueE",
   "size" : 4,
   "source_file" : "/system/core/libutils/include/utils/TypeHelpers.h",
   "underlying_type" : "_ZTIj"
  },
  {
   "alignment" : 4,
   "enum_fields" :
   [
    {
     "enum_field_value" : 1,
     "name" : "android::trait_trivial_dtor<double>::value"
    }
   ],
   "linker_set_key" : "_ZTIN7android18trait_trivial_dtorIdE6$valueE",
   "name" : "android::trait_trivial_dtor<double>::(anonymous enum at system/core/libutils/include/utils/TypeHelpers.h:110:1)",
   "referenced_type" : "_ZTIN7android18trait_trivial_dtorIdE6$valueE",
   "self_type" : "_ZTIN7android18trait_trivial_dtorIdE6$valueE",
   "size" : 4,
   "source_file" : "/system/core/libutils/include/utils/TypeHelpers.h",
   "underlying_type" : "_ZTIj"
  },
  {
   "alignment" : 4,
   "enum_fields" :
   [
    {
     "enum_field_value" : 1,
     "name" : "android::trait_trivial_dtor<float>::value"
    }
   ],
   "linker_set_key" : "_ZTIN7android18trait_trivial_dtorIfE6$valueE",
   "name" : "android::trait_trivial_dtor<float>::(anonymous enum at system/core/libutils/include/utils/TypeHelpers.h:109:1)",
   "referenced_type" : "_ZTIN7android18trait_trivial_dtorIfE6$valueE",
   "self_type" : "_ZTIN7android18trait_trivial_dtorIfE6$valueE",
   "size" : 4,
   "source_file" : "/system/core/libutils/include/utils/TypeHelpers.h",
   "underlying_type" : "_ZTIj"
  },
  {
   "alignment" : 4,
   "enum_fields" :
   [
    {
     "enum_field_value" : 1,
     "name" : "android::trait_trivial_dtor<unsigned char>::value"
    }
   ],
   "linker_set_key" : "_ZTIN7android18trait_trivial_dtorIhE6$valueE",
   "name" : "android::trait_trivial_dtor<unsigned char>::(anonymous enum at system/core/libutils/include/utils/TypeHelpers.h:100:1)",
   "referenced_type" : "_ZTIN7android18trait_trivial_dtorIhE6$valueE",
   "self_type" : "_ZTIN7android18trait_trivial_dtorIhE6$valueE",
   "size" : 4,
   "source_file" : "/system/core/libutils/include/utils/TypeHelpers.h",
   "underlying_type" : "_ZTIj"
  },
  {
   "alignment" : 4,
   "enum_fields" :
   [
    {
     "enum_field_value" : 1,
     "name" : "android::trait_trivial_dtor<int>::value"
    }
   ],
   "linker_set_key" : "_ZTIN7android18trait_trivial_dtorIiE6$valueE",
   "name" : "android::trait_trivial_dtor<int>::(anonymous enum at system/core/libutils/include/utils/TypeHelpers.h:103:1)",
   "referenced_type" : "_ZTIN7android18trait_trivial_dtorIiE6$valueE",
   "self_type" : "_ZTIN7android18trait_trivial_dtorIiE6$valueE",
   "size" : 4,
   "source_file" : "/system/core/libutils/include/utils/TypeHelpers.h",
   "underlying_type" : "_ZTIj"
  },
  {
   "alignment" : 4,
   "enum_fields" :
   [
    {
     "enum_field_value" : 1,
     "name" : "android::trait_trivial_dtor<unsigned int>::value"
    }
   ],
   "linker_set_key" : "_ZTIN7android18trait_trivial_dtorIjE6$valueE",
   "name" : "android::trait_trivial_dtor<unsigned int>::(anonymous enum at system/core/libutils/include/utils/TypeHelpers.h:104:1)",
   "referenced_type" : "_ZTIN7android18trait_trivial_dtorIjE6$valueE",
   "self_type" : "_ZTIN7android18trait_trivial_dtorIjE6$valueE",
   "size" : 4,
   "source_file" : "/system/core/libutils/include/utils/TypeHelpers.h",
   "underlying_type" : "_ZTIj"
  },
  {
   "alignment" : 4,
   "enum_fields" :
   [
    {
     "enum_field_value" : 1,
     "name" : "android::trait_trivial_dtor<long>::value"
    }
   ],
   "linker_set_key" : "_ZTIN7android18trait_trivial_dtorIlE6$valueE",
   "name" : "android::trait_trivial_dtor<long>::(anonymous enum at system/core/libutils/include/utils/TypeHelpers.h:105:1)",
   "referenced_type" : "_ZTIN7android18trait_trivial_dtorIlE6$valueE",
   "self_type" : "_ZTIN7android18trait_trivial_dtorIlE6$valueE",
   "size" : 4,
   "source_file" : "/system/core/libutils/include/utils/TypeHelpers.h",
   "underlying_type" : "_ZTIj"
  },
  {
   "alignment" : 4,
   "enum_fields" :
   [
    {
     "enum_field_value" : 1,
     "name" : "android::trait_trivial_dtor<unsigned long>::value"
    }
   ],
   "linker_set_key" : "_ZTIN7android18trait_trivial_dtorImE6$valueE",
   "name" : "android::trait_trivial_dtor<unsigned long>::(anonymous enum at system/core/libutils/include/utils/TypeHelpers.h:106:1)",
   "referenced_type" : "_ZTIN7android18trait_trivial_dtorImE6$valueE",
   "self_type" : "_ZTIN7android18trait_trivial_dtorImE6$valueE",
   "size" : 4,
   "source_file" : "/system/core/libutils/include/utils/TypeHelpers.h",
   "underlying_type" : "_ZTIj"
  },
  {
   "alignment" : 4,
   "enum_fields" :
   [
    {
     "enum_field_value" : 1,
     "name" : "android::trait_trivial_dtor<short>::value"
    }
   ],
   "linker_set_key" : "_ZTIN7android18trait_trivial_dtorIsE6$valueE",
   "name" : "android::trait_trivial_dtor<short>::(anonymous enum at system/core/libutils/include/utils/TypeHelpers.h:101:1)",
   "referenced_type" : "_ZTIN7android18trait_trivial_dtorIsE6$valueE",
   "self_type" : "_ZTIN7android18trait_trivial_dtorIsE6$valueE",
   "size" : 4,
   "source_file" : "/system/core/libutils/include/utils/TypeHelpers.h",
   "underlying_type" : "_ZTIj"
  },
  {
   "alignment" : 4,
   "enum_fields" :
   [
    {
     "enum_field_value" : 1,
     "name" : "android::trait_trivial_dtor<unsigned short>::value"
    }
   ],
   "linker_set_key" : "_ZTIN7android18trait_trivial_dtorItE6$valueE",
   "name" : "android::trait_trivial_dtor<unsigned short>::(anonymous enum at system/core/libutils/include/utils/TypeHelpers.h:102:1)",
   "referenced_type" : "_ZTIN7android18trait_trivial_dtorItE6$valueE",
   "self_type" : "_ZTIN7android18trait_trivial_dtorItE6$valueE",
   "size" : 4,
   "source_file" : "/system/core/libutils/include/utils/TypeHelpers.h",
   "underlying_type" : "_ZTIj"
  },
  {
   "alignment" : 4,
   "enum_fields" :
   [
    {
     "enum_field_value" : 1,
     "name" : "android::trait_trivial_dtor<void>::value"
    }
   ],
   "linker_set_key" : "_ZTIN7android18trait_trivial_dtorIvE6$valueE",
   "name" : "android::trait_trivial_dtor<void>::(anonymous enum at system/core/libutils/include/utils/TypeHelpers.h:97:1)",
   "referenced_type" : "_ZTIN7android18trait_trivial_dtorIvE6$valueE",
   "self_type" : "_ZTIN7android18trait_trivial_dtorIvE6$valueE",
   "size" : 4,
   "source_file" : "/system/core/libutils/include/utils/TypeHelpers.h",
   "underlying_type" : "_ZTIj"
  },
  {
   "alignment" : 4,
   "enum_fields" :
   [
    {
     "enum_field_value" : 1,
     "name" : "android::trait_trivial_dtor<long long>::value"
    }
   ],
   "linker_set_key" : "_ZTIN7android18trait_trivial_dtorIxE6$valueE",
   "name" : "android::trait_trivial_dtor<long long>::(anonymous enum at system/core/libutils/include/utils/TypeHelpers.h:107:1)",
   "referenced_type" : "_ZTIN7android18trait_trivial_dtorIxE6$valueE",
   "self_type" : "_ZTIN7android18trait_trivial_dtorIxE6$valueE",
   "size" : 4,
   "source_file" : "/system/core/libutils/include/utils/TypeHelpers.h",
   "underlying_type" : "_ZTIj"
  },
  {
   "alignment" : 4,
   "enum_fields" :
   [
    {
     "enum_field_value" : 1,
     "name" : "android::trait_trivial_dtor<unsigned long long>::value"
    }
   ],
   "linker_set_key" : "_ZTIN7android18trait_trivial_dtorIyE6$valueE",
   "name" : "android::trait_trivial_dtor<unsigned long long>::(anonymous enum at system/core/libutils/include/utils/TypeHelpers.h:108:1)",
   "referenced_type" : "_ZTIN7android18trait_trivial_dtorIyE6$valueE",
   "self_type" : "_ZTIN7android18trait_trivial_dtorIyE6$valueE",
   "size" : 4,
   "source_file" : "/system/core/libutils/include/utils/TypeHelpers.h",
   "underlying_type" : "_ZTIj"
  },
  {
   "alignment" : 4,
   "enum_fields" :
   [
    {
     "enum_field_value" : 1,
     "name" : "android::trait_trivial_move<android::Rect>::value"
    }
   ],
   "linker_set_key" : "_ZTIN7android18trait_trivial_moveINS_4RectEE6$valueE",
   "name" : "android::trait_trivial_move<Rect>::(anonymous enum at frameworks/native/libs/ui/include/ui/Rect.h:225:1)",
   "referenced_type" : "_ZTIN7android18trait_trivial_moveINS_4RectEE6$valueE",
   "self_type" : "_ZTIN7android18trait_trivial_moveINS_4RectEE6$valueE",
   "size" : 4,
   "source_file" : "/frameworks/native/libs/ui/include/ui/Rect.h",
   "underlying_type" : "_ZTIj"
  },
  {
   "alignment" : 4,
   "enum_fields" :
   [
    {
     "enum_field_value" : 1,
     "name" : "android::trait_trivial_move<android::Point>::value"
    }
   ],
   "linker_set_key" : "_ZTIN7android18trait_trivial_moveINS_5PointEE6$valueE",
   "name" : "android::trait_trivial_move<Point>::(anonymous enum at frameworks/native/libs/ui/include/ui/Point.h:84:1)",
   "referenced_type" : "_ZTIN7android18trait_trivial_moveINS_5PointEE6$valueE",
   "self_type" : "_ZTIN7android18trait_trivial_moveINS_5PointEE6$valueE",
   "size" : 4,
   "source_file" : "/frameworks/native/libs/ui/include/ui/Point.h",
   "underlying_type" : "_ZTIj"
  },
  {
   "alignment" : 4,
   "enum_fields" :
   [
    {
     "enum_field_value" : 1,
     "name" : "android::trait_trivial_move<android::String8>::value"
    }
   ],
   "linker_set_key" : "_ZTIN7android18trait_trivial_moveINS_7String8EE6$valueE",
   "name" : "android::trait_trivial_move<String8>::(anonymous enum at system/core/libutils/include/utils/String8.h:242:1)",
   "referenced_type" : "_ZTIN7android18trait_trivial_moveINS_7String8EE6$valueE",
   "self_type" : "_ZTIN7android18trait_trivial_moveINS_7String8EE6$valueE",
   "size" : 4,
   "source_file" : "/system/core/libutils/include/utils/String8.h",
   "underlying_type" : "_ZTIj"
  },
  {
   "alignment" : 4,
   "enum_fields" :
   [
    {
     "enum_field_value" : 1,
     "name" : "android::trait_trivial_move<android::String16>::value"
    }
   ],
   "linker_set_key" : "_ZTIN7android18trait_trivial_moveINS_8String16EE6$valueE",
   "name" : "android::trait_trivial_move<String16>::(anonymous enum at system/core/libutils/include/utils/String16.h:197:1)",
   "referenced_type" : "_ZTIN7android18trait_trivial_moveINS_8String16EE6$valueE",
   "self_type" : "_ZTIN7android18trait_trivial_moveINS_8String16EE6$valueE",
   "size" : 4,
   "source_file" : "/system/core/libutils/include/utils/String16.h",
   "underlying_type" : "_ZTIj"
  },
  {
   "alignment" : 4,
   "enum_fields" :
   [
    {
     "enum_field_value" : 1,
     "name" : "android::trait_trivial_move<bool>::value"
    }
   ],
   "linker_set_key" : "_ZTIN7android18trait_trivial_moveIbE6$valueE",
   "name" : "android::trait_trivial_move<bool>::(anonymous enum at system/core/libutils/include/utils/TypeHelpers.h:98:1)",
   "referenced_type" : "_ZTIN7android18trait_trivial_moveIbE6$valueE",
   "self_type" : "_ZTIN7android18trait_trivial_moveIbE6$valueE",
   "size" : 4,
   "source_file" : "/system/core/libutils/include/utils/TypeHelpers.h",
   "underlying_type" : "_ZTIj"
  },
  {
   "alignment" : 4,
   "enum_fields" :
   [
    {
     "enum_field_value" : 1,
     "name" : "android::trait_trivial_move<char>::value"
    }
   ],
   "linker_set_key" : "_ZTIN7android18trait_trivial_moveIcE6$valueE",
   "name" : "android::trait_trivial_move<char>::(anonymous enum at system/core/libutils/include/utils/TypeHelpers.h:99:1)",
   "referenced_type" : "_ZTIN7android18trait_trivial_moveIcE6$valueE",
   "self_type" : "_ZTIN7android18trait_trivial_moveIcE6$valueE",
   "size" : 4,
   "source_file" : "/system/core/libutils/include/utils/TypeHelpers.h",
   "underlying_type" : "_ZTIj"
  },
  {
   "alignment" : 4,
   "enum_fields" :
   [
    {
     "enum_field_value" : 1,
     "name" : "android::trait_trivial_move<double>::value"
    }
   ],
   "linker_set_key" : "_ZTIN7android18trait_trivial_moveIdE6$valueE",
   "name" : "android::trait_trivial_move<double>::(anonymous enum at system/core/libutils/include/utils/TypeHelpers.h:110:1)",
   "referenced_type" : "_ZTIN7android18trait_trivial_moveIdE6$valueE",
   "self_type" : "_ZTIN7android18trait_trivial_moveIdE6$valueE",
   "size" : 4,
   "source_file" : "/system/core/libutils/include/utils/TypeHelpers.h",
   "underlying_type" : "_ZTIj"
  },
  {
   "alignment" : 4,
   "enum_fields" :
   [
    {
     "enum_field_value" : 1,
     "name" : "android::trait_trivial_move<float>::value"
    }
   ],
   "linker_set_key" : "_ZTIN7android18trait_trivial_moveIfE6$valueE",
   "name" : "android::trait_trivial_move<float>::(anonymous enum at system/core/libutils/include/utils/TypeHelpers.h:109:1)",
   "referenced_type" : "_ZTIN7android18trait_trivial_moveIfE6$valueE",
   "self_type" : "_ZTIN7android18trait_trivial_moveIfE6$valueE",
   "size" : 4,
   "source_file" : "/system/core/libutils/include/utils/TypeHelpers.h",
   "underlying_type" : "_ZTIj"
  },
  {
   "alignment" : 4,
   "enum_fields" :
   [
    {
     "enum_field_value" : 1,
     "name" : "android::trait_trivial_move<unsigned char>::value"
    }
   ],
   "linker_set_key" : "_ZTIN7android18trait_trivial_moveIhE6$valueE",
   "name" : "android::trait_trivial_move<unsigned char>::(anonymous enum at system/core/libutils/include/utils/TypeHelpers.h:100:1)",
   "referenced_type" : "_ZTIN7android18trait_trivial_moveIhE6$valueE",
   "self_type" : "_ZTIN7android18trait_trivial_moveIhE6$valueE",
   "size" : 4,
   "source_file" : "/system/core/libutils/include/utils/TypeHelpers.h",
   "underlying_type" : "_ZTIj"
  },
  {
   "alignment" : 4,
   "enum_fields" :
   [
    {
     "enum_field_value" : 1,
     "name" : "android::trait_trivial_move<int>::value"
    }
   ],
   "linker_set_key" : "_ZTIN7android18trait_trivial_moveIiE6$valueE",
   "name" : "android::trait_trivial_move<int>::(anonymous enum at system/core/libutils/include/utils/TypeHelpers.h:103:1)",
   "referenced_type" : "_ZTIN7android18trait_trivial_moveIiE6$valueE",
   "self_type" : "_ZTIN7android18trait_trivial_moveIiE6$valueE",
   "size" : 4,
   "source_file" : "/system/core/libutils/include/utils/TypeHelpers.h",
   "underlying_type" : "_ZTIj"
  },
  {
   "alignment" : 4,
   "enum_fields" :
   [
    {
     "enum_field_value" : 1,
     "name" : "android::trait_trivial_move<unsigned int>::value"
    }
   ],
   "linker_set_key" : "_ZTIN7android18trait_trivial_moveIjE6$valueE",
   "name" : "android::trait_trivial_move<unsigned int>::(anonymous enum at system/core/libutils/include/utils/TypeHelpers.h:104:1)",
   "referenced_type" : "_ZTIN7android18trait_trivial_moveIjE6$valueE",
   "self_type" : "_ZTIN7android18trait_trivial_moveIjE6$valueE",
   "size" : 4,
   "source_file" : "/system/core/libutils/include/utils/TypeHelpers.h",
   "underlying_type" : "_ZTIj"
  },
  {
   "alignment" : 4,
   "enum_fields" :
   [
    {
     "enum_field_value" : 1,
     "name" : "android::trait_trivial_move<long>::value"
    }
   ],
   "linker_set_key" : "_ZTIN7android18trait_trivial_moveIlE6$valueE",
   "name" : "android::trait_trivial_move<long>::(anonymous enum at system/core/libutils/include/utils/TypeHelpers.h:105:1)",
   "referenced_type" : "_ZTIN7android18trait_trivial_moveIlE6$valueE",
   "self_type" : "_ZTIN7android18trait_trivial_moveIlE6$valueE",
   "size" : 4,
   "source_file" : "/system/core/libutils/include/utils/TypeHelpers.h",
   "underlying_type" : "_ZTIj"
  },
  {
   "alignment" : 4,
   "enum_fields" :
   [
    {
     "enum_field_value" : 1,
     "name" : "android::trait_trivial_move<unsigned long>::value"
    }
   ],
   "linker_set_key" : "_ZTIN7android18trait_trivial_moveImE6$valueE",
   "name" : "android::trait_trivial_move<unsigned long>::(anonymous enum at system/core/libutils/include/utils/TypeHelpers.h:106:1)",
   "referenced_type" : "_ZTIN7android18trait_trivial_moveImE6$valueE",
   "self_type" : "_ZTIN7android18trait_trivial_moveImE6$valueE",
   "size" : 4,
   "source_file" : "/system/core/libutils/include/utils/TypeHelpers.h",
   "underlying_type" : "_ZTIj"
  },
  {
   "alignment" : 4,
   "enum_fields" :
   [
    {
     "enum_field_value" : 1,
     "name" : "android::trait_trivial_move<short>::value"
    }
   ],
   "linker_set_key" : "_ZTIN7android18trait_trivial_moveIsE6$valueE",
   "name" : "android::trait_trivial_move<short>::(anonymous enum at system/core/libutils/include/utils/TypeHelpers.h:101:1)",
   "referenced_type" : "_ZTIN7android18trait_trivial_moveIsE6$valueE",
   "self_type" : "_ZTIN7android18trait_trivial_moveIsE6$valueE",
   "size" : 4,
   "source_file" : "/system/core/libutils/include/utils/TypeHelpers.h",
   "underlying_type" : "_ZTIj"
  },
  {
   "alignment" : 4,
   "enum_fields" :
   [
    {
     "enum_field_value" : 1,
     "name" : "android::trait_trivial_move<unsigned short>::value"
    }
   ],
   "linker_set_key" : "_ZTIN7android18trait_trivial_moveItE6$valueE",
   "name" : "android::trait_trivial_move<unsigned short>::(anonymous enum at system/core/libutils/include/utils/TypeHelpers.h:102:1)",
   "referenced_type" : "_ZTIN7android18trait_trivial_moveItE6$valueE",
   "self_type" : "_ZTIN7android18trait_trivial_moveItE6$valueE",
   "size" : 4,
   "source_file" : "/system/core/libutils/include/utils/TypeHelpers.h",
   "underlying_type" : "_ZTIj"
  },
  {
   "alignment" : 4,
   "enum_fields" :
   [
    {
     "enum_field_value" : 1,
     "name" : "android::trait_trivial_move<void>::value"
    }
   ],
   "linker_set_key" : "_ZTIN7android18trait_trivial_moveIvE6$valueE",
   "name" : "android::trait_trivial_move<void>::(anonymous enum at system/core/libutils/include/utils/TypeHelpers.h:97:1)",
   "referenced_type" : "_ZTIN7android18trait_trivial_moveIvE6$valueE",
   "self_type" : "_ZTIN7android18trait_trivial_moveIvE6$valueE",
   "size" : 4,
   "source_file" : "/system/core/libutils/include/utils/TypeHelpers.h",
   "underlying_type" : "_ZTIj"
  },
  {
   "alignment" : 4,
   "enum_fields" :
   [
    {
     "enum_field_value" : 1,
     "name" : "android::trait_trivial_move<long long>::value"
    }
   ],
   "linker_set_key" : "_ZTIN7android18trait_trivial_moveIxE6$valueE",
   "name" : "android::trait_trivial_move<long long>::(anonymous enum at system/core/libutils/include/utils/TypeHelpers.h:107:1)",
   "referenced_type" : "_ZTIN7android18trait_trivial_moveIxE6$valueE",
   "self_type" : "_ZTIN7android18trait_trivial_moveIxE6$valueE",
   "size" : 4,
   "source_file" : "/system/core/libutils/include/utils/TypeHelpers.h",
   "underlying_type" : "_ZTIj"
  },
  {
   "alignment" : 4,
   "enum_fields" :
   [
    {
     "enum_field_value" : 1,
     "name" : "android::trait_trivial_move<unsigned long long>::value"
    }
   ],
   "linker_set_key" : "_ZTIN7android18trait_trivial_moveIyE6$valueE",
   "name" : "android::trait_trivial_move<unsigned long long>::(anonymous enum at system/core/libutils/include/utils/TypeHelpers.h:108:1)",
   "referenced_type" : "_ZTIN7android18trait_trivial_moveIyE6$valueE",
   "self_type" : "_ZTIN7android18trait_trivial_moveIyE6$valueE",
   "size" : 4,
   "source_file" : "/system/core/libutils/include/utils/TypeHelpers.h",
   "underlying_type" : "_ZTIj"
  },
  {
   "alignment" : 4,
   "enum_fields" :
   [
    {
     "enum_field_value" : 0,
     "name" : "android::GraphicBufferMapper::GRALLOC_2"
    },
    {
     "enum_field_value" : 1,
     "name" : "android::GraphicBufferMapper::GRALLOC_3"
    },
    {
     "enum_field_value" : 2,
     "name" : "android::GraphicBufferMapper::GRALLOC_4"
    }
   ],
   "linker_set_key" : "_ZTIN7android19GraphicBufferMapper7VersionE",
   "name" : "android::GraphicBufferMapper::Version",
   "referenced_type" : "_ZTIN7android19GraphicBufferMapper7VersionE",
   "self_type" : "_ZTIN7android19GraphicBufferMapper7VersionE",
   "size" : 4,
   "source_file" : "/frameworks/native/libs/ui/include/ui/GraphicBufferMapper.h",
   "underlying_type" : "_ZTIj"
  },
  {
   "alignment" : 4,
   "enum_fields" :
   [
    {
     "enum_field_value" : 0,
     "name" : "android::PIXEL_FORMAT_UNKNOWN"
    },
    {
     "enum_field_value" : 0,
     "name" : "android::PIXEL_FORMAT_NONE"
    },
    {
     "enum_field_value" : -4,
     "name" : "android::PIXEL_FORMAT_CUSTOM"
    },
    {
     "enum_field_value" : -3,
     "name" : "android::PIXEL_FORMAT_TRANSLUCENT"
    },
    {
     "enum_field_value" : -2,
     "name" : "android::PIXEL_FORMAT_TRANSPARENT"
    },
    {
     "enum_field_value" : -1,
     "name" : "android::PIXEL_FORMAT_OPAQUE"
    },
    {
     "enum_field_value" : 1,
     "name" : "android::PIXEL_FORMAT_RGBA_8888"
    },
    {
     "enum_field_value" : 2,
     "name" : "android::PIXEL_FORMAT_RGBX_8888"
    },
    {
     "enum_field_value" : 3,
     "name" : "android::PIXEL_FORMAT_RGB_888"
    },
    {
     "enum_field_value" : 4,
     "name" : "android::PIXEL_FORMAT_RGB_565"
    },
    {
     "enum_field_value" : 5,
     "name" : "android::PIXEL_FORMAT_BGRA_8888"
    },
    {
     "enum_field_value" : 6,
     "name" : "android::PIXEL_FORMAT_RGBA_5551"
    },
    {
     "enum_field_value" : 7,
     "name" : "android::PIXEL_FORMAT_RGBA_4444"
    },
    {
     "enum_field_value" : 22,
     "name" : "android::PIXEL_FORMAT_RGBA_FP16"
    },
    {
     "enum_field_value" : 43,
     "name" : "android::PIXEL_FORMAT_RGBA_1010102"
    }
   ],
   "linker_set_key" : "_ZTIN7android23$PIXEL_FORMAT_BGRA_8888E",
   "name" : "android::(anonymous enum at frameworks/native/libs/ui/include/ui/PixelFormat.h:32:1)",
   "referenced_type" : "_ZTIN7android23$PIXEL_FORMAT_BGRA_8888E",
   "self_type" : "_ZTIN7android23$PIXEL_FORMAT_BGRA_8888E",
   "size" : 4,
   "source_file" : "/frameworks/native/libs/ui/include/ui/PixelFormat.h",
   "underlying_type" : "_ZTIi"
  },
  {
   "alignment" : 4,
   "enum_fields" :
   [
    {
     "enum_field_value" : 1000,
     "name" : "android::IOMX::kFenceTimeoutMs"
    }
   ],
   "linker_set_key" : "_ZTIN7android4IOMX16$kFenceTimeoutMsE",
   "name" : "android::IOMX::(anonymous enum at frameworks/av/media/libmedia/include/media/IOMX.h:63:5)",
   "referenced_type" : "_ZTIN7android4IOMX16$kFenceTimeoutMsE",
   "self_type" : "_ZTIN7android4IOMX16$kFenceTimeoutMsE",
   "size" : 4,
   "source_file" : "/frameworks/av/media/libmedia/include/media/IOMX.h",
   "underlying_type" : "_ZTIj"
  },
  {
   "alignment" : 4,
   "enum_fields" :
   [
    {
     "enum_field_value" : 0,
     "name" : "android::IOMX::kPortModePresetStart"
    },
    {
     "enum_field_value" : 1,
     "name" : "android::IOMX::kPortModePresetByteBuffer"
    },
    {
     "enum_field_value" : 2,
     "name" : "android::IOMX::kPortModePresetANWBuffer"
    },
    {
     "enum_field_value" : 3,
     "name" : "android::IOMX::kPortModePresetSecureBuffer"
    },
    {
     "enum_field_value" : 4,
     "name" : "android::IOMX::kPortModePresetEnd"
    },
    {
     "enum_field_value" : 100,
     "name" : "android::IOMX::kPortModeDynamicStart"
    },
    {
     "enum_field_value" : 101,
     "name" : "android::IOMX::kPortModeDynamicANWBuffer"
    },
    {
     "enum_field_value" : 102,
     "name" : "android::IOMX::kPortModeDynamicNativeHandle"
    },
    {
     "enum_field_value" : 103,
     "name" : "android::IOMX::kPortModeDynamicEnd"
    }
   ],
   "linker_set_key" : "_ZTIN7android4IOMX8PortModeE",
   "name" : "android::IOMX::PortMode",
   "referenced_type" : "_ZTIN7android4IOMX8PortModeE",
   "self_type" : "_ZTIN7android4IOMX8PortModeE",
   "size" : 4,
   "source_file" : "/frameworks/av/media/libmedia/include/media/IOMX.h",
   "underlying_type" : "_ZTIj"
  },
  {
   "alignment" : 4,
   "enum_fields" :
   [
    {
     "enum_field_value" : 0,
     "name" : "android::hidl::base::V1_0::DebugInfo::Architecture::UNKNOWN"
    },
    {
     "enum_field_value" : 1,
     "name" : "android::hidl::base::V1_0::DebugInfo::Architecture::IS_64BIT"
    },
    {
     "enum_field_value" : 2,
     "name" : "android::hidl::base::V1_0::DebugInfo::Architecture::IS_32BIT"
    }
   ],
   "linker_set_key" : "_ZTIN7android4hidl4base4V1_09DebugInfo12ArchitectureE",
   "name" : "android::hidl::base::V1_0::DebugInfo::Architecture",
   "referenced_type" : "_ZTIN7android4hidl4base4V1_09DebugInfo12ArchitectureE",
   "self_type" : "_ZTIN7android4hidl4base4V1_09DebugInfo12ArchitectureE",
   "size" : 4,
   "source_file" : "/out/soong/.intermediates/system/libhidl/transport/base/1.0/android.hidl.base@1.0_genc++_headers/gen/android/hidl/base/1.0/types.h",
   "underlying_type" : "_ZTIi"
  },
  {
   "alignment" : 4,
   "enum_fields" :
   [
    {
     "enum_field_value" : -1,
     "name" : "android::Fence::TIMEOUT_NEVER"
    }
   ],
   "linker_set_key" : "_ZTIN7android5Fence14$TIMEOUT_NEVERE",
   "name" : "android::Fence::(anonymous enum at frameworks/native/libs/ui/include/ui/Fence.h:48:5)",
   "referenced_type" : "_ZTIN7android5Fence14$TIMEOUT_NEVERE",
   "self_type" : "_ZTIN7android5Fence14$TIMEOUT_NEVERE",
   "size" : 4,
   "source_file" : "/frameworks/native/libs/ui/include/ui/Fence.h",
   "underlying_type" : "_ZTIi"
  },
  {
   "alignment" : 4,
   "enum_fields" :
   [
    {
     "enum_field_value" : 0,
     "name" : "android::Fence::Status::Invalid"
    },
    {
     "enum_field_value" : 1,
     "name" : "android::Fence::Status::Unsignaled"
    },
    {
     "enum_field_value" : 2,
     "name" : "android::Fence::Status::Signaled"
    }
   ],
   "linker_set_key" : "_ZTIN7android5Fence6StatusE",
   "name" : "android::Fence::Status",
   "referenced_type" : "_ZTIN7android5Fence6StatusE",
   "self_type" : "_ZTIN7android5Fence6StatusE",
   "size" : 4,
   "source_file" : "/frameworks/native/libs/ui/include/ui/Fence.h",
   "underlying_type" : "_ZTIi"
  },
  {
   "alignment" : 4,
   "enum_fields" :
   [
    {
     "enum_field_value" : 0,
     "name" : "android::Mutex::PRIVATE"
    },
    {
     "enum_field_value" : 1,
     "name" : "android::Mutex::SHARED"
    }
   ],
   "linker_set_key" : "_ZTIN7android5Mutex8$PRIVATEE",
   "name" : "android::Mutex::(anonymous enum at system/core/libutils/include/utils/Mutex.h:96:5)",
   "referenced_type" : "_ZTIN7android5Mutex8$PRIVATEE",
   "self_type" : "_ZTIN7android5Mutex8$PRIVATEE",
   "size" : 4,
   "source_file" : "/system/core/libutils/include/utils/Mutex.h",
   "underlying_type" : "_ZTIj"
  },
  {
   "alignment" : 4,
   "enum_fields" :
   [
    {
     "enum_field_value" : 0,
     "name" : "android::ADebug::kDebugNone"
    },
    {
     "enum_field_value" : 1,
     "name" : "android::ADebug::kDebugLifeCycle"
    },
    {
     "enum_field_value" : 2,
     "name" : "android::ADebug::kDebugState"
    },
    {
     "enum_field_value" : 3,
     "name" : "android::ADebug::kDebugConfig"
    },
    {
     "enum_field_value" : 4,
     "name" : "android::ADebug::kDebugInternalState"
    },
    {
     "enum_field_value" : 5,
     "name" : "android::ADebug::kDebugAll"
    },
    {
     "enum_field_value" : 5,
     "name" : "android::ADebug::kDebugMax"
    }
   ],
   "linker_set_key" : "_ZTIN7android6ADebug5LevelE",
   "name" : "android::ADebug::Level",
   "referenced_type" : "_ZTIN7android6ADebug5LevelE",
   "self_type" : "_ZTIN7android6ADebug5LevelE",
   "size" : 4,
   "source_file" : "/frameworks/av/media/libstagefright/foundation/include/media/stagefright/foundation/ADebug.h",
   "underlying_type" : "_ZTIj"
  },
  {
   "alignment" : 4,
   "enum_fields" :
   [
    {
     "enum_field_value" : 0,
     "name" : "android::RWLock::PRIVATE"
    },
    {
     "enum_field_value" : 1,
     "name" : "android::RWLock::SHARED"
    }
   ],
   "linker_set_key" : "_ZTIN7android6RWLock8$PRIVATEE",
   "name" : "android::RWLock::(anonymous enum at system/core/libutils/include/utils/RWLock.h:44:5)",
   "referenced_type" : "_ZTIN7android6RWLock8$PRIVATEE",
   "self_type" : "_ZTIN7android6RWLock8$PRIVATEE",
   "size" : 4,
   "source_file" : "/system/core/libutils/include/utils/RWLock.h",
   "underlying_type" : "_ZTIj"
  },
  {
   "alignment" : 4,
   "enum_fields" :
   [
    {
     "enum_field_value" : 0,
     "name" : "android::binder::Status::EX_NONE"
    },
    {
     "enum_field_value" : -1,
     "name" : "android::binder::Status::EX_SECURITY"
    },
    {
     "enum_field_value" : -2,
     "name" : "android::binder::Status::EX_BAD_PARCELABLE"
    },
    {
     "enum_field_value" : -3,
     "name" : "android::binder::Status::EX_ILLEGAL_ARGUMENT"
    },
    {
     "enum_field_value" : -4,
     "name" : "android::binder::Status::EX_NULL_POINTER"
    },
    {
     "enum_field_value" : -5,
     "name" : "android::binder::Status::EX_ILLEGAL_STATE"
    },
    {
     "enum_field_value" : -6,
     "name" : "android::binder::Status::EX_NETWORK_MAIN_THREAD"
    },
    {
     "enum_field_value" : -7,
     "name" : "android::binder::Status::EX_UNSUPPORTED_OPERATION"
    },
    {
     "enum_field_value" : -8,
     "name" : "android::binder::Status::EX_SERVICE_SPECIFIC"
    },
    {
     "enum_field_value" : -9,
     "name" : "android::binder::Status::EX_PARCELABLE"
    },
    {
     "enum_field_value" : -128,
     "name" : "android::binder::Status::EX_HAS_REPLY_HEADER"
    },
    {
     "enum_field_value" : -129,
     "name" : "android::binder::Status::EX_TRANSACTION_FAILED"
    }
   ],
   "linker_set_key" : "_ZTIN7android6binder6Status9ExceptionE",
   "name" : "android::binder::Status::Exception",
   "referenced_type" : "_ZTIN7android6binder6Status9ExceptionE",
   "self_type" : "_ZTIN7android6binder6Status9ExceptionE",
   "size" : 4,
   "source_file" : "/frameworks/native/libs/binder/include/binder/Status.h",
   "underlying_type" : "_ZTIi"
  },
  {
   "alignment" : 4,
   "enum_fields" :
   [
    {
     "enum_field_value" : 1,
     "name" : "android::IBinder::FIRST_CALL_TRANSACTION"
    },
    {
     "enum_field_value" : 16777215,
     "name" : "android::IBinder::LAST_CALL_TRANSACTION"
    },
    {
     "enum_field_value" : 1599098439,
     "name" : "android::IBinder::PING_TRANSACTION"
    },
    {
     "enum_field_value" : 1598311760,
     "name" : "android::IBinder::DUMP_TRANSACTION"
    },
    {
     "enum_field_value" : 1598246212,
     "name" : "android::IBinder::SHELL_COMMAND_TRANSACTION"
    },
    {
     "enum_field_value" : 1598968902,
     "name" : "android::IBinder::INTERFACE_TRANSACTION"
    },
    {
     "enum_field_value" : 1599295570,
     "name" : "android::IBinder::SYSPROPS_TRANSACTION"
    },
    {
     "enum_field_value" : 1598380116,
     "name" : "android::IBinder::EXTENSION_TRANSACTION"
    },
    {
     "enum_field_value" : 1599097156,
     "name" : "android::IBinder::DEBUG_PID_TRANSACTION"
    },
    {
     "enum_field_value" : 1,
     "name" : "android::IBinder::FLAG_ONEWAY"
    },
    {
     "enum_field_value" : 268435456,
     "name" : "android::IBinder::FLAG_PRIVATE_VENDOR"
    }
   ],
   "linker_set_key" : "_ZTIN7android7IBinder22$DEBUG_PID_TRANSACTIONE",
   "name" : "android::IBinder::(anonymous enum at frameworks/native/libs/binder/include/binder/IBinder.h:52:5)",
   "referenced_type" : "_ZTIN7android7IBinder22$DEBUG_PID_TRANSACTIONE",
   "self_type" : "_ZTIN7android7IBinder22$DEBUG_PID_TRANSACTIONE",
   "size" : 4,
   "source_file" : "/frameworks/native/libs/binder/include/binder/IBinder.h",
   "underlying_type" : "_ZTIj"
  },
  {
   "access" : "protected",
   "alignment" : 4,
   "enum_fields" :
   [
    {
     "enum_field_value" : 1,
     "name" : "android::RefBase::FIRST_INC_STRONG"
    }
   ],
   "linker_set_key" : "_ZTIN7android7RefBase17$FIRST_INC_STRONGE",
   "name" : "android::RefBase::(anonymous enum at system/core/libutils/include/utils/RefBase.h:313:5)",
   "referenced_type" : "_ZTIN7android7RefBase17$FIRST_INC_STRONGE",
   "self_type" : "_ZTIN7android7RefBase17$FIRST_INC_STRONGE",
   "size" : 4,
   "source_file" : "/system/core/libutils/include/utils/RefBase.h",
   "underlying_type" : "_ZTIj"
  },
  {
   "access" : "protected",
   "alignment" : 4,
   "enum_fields" :
   [
    {
     "enum_field_value" : 0,
     "name" : "android::RefBase::OBJECT_LIFETIME_STRONG"
    },
    {
     "enum_field_value" : 1,
     "name" : "android::RefBase::OBJECT_LIFETIME_WEAK"
    },
    {
     "enum_field_value" : 1,
     "name" : "android::RefBase::OBJECT_LIFETIME_MASK"
    }
   ],
   "linker_set_key" : "_ZTIN7android7RefBase21$OBJECT_LIFETIME_MASKE",
   "name" : "android::RefBase::(anonymous enum at system/core/libutils/include/utils/RefBase.h:304:5)",
   "referenced_type" : "_ZTIN7android7RefBase21$OBJECT_LIFETIME_MASKE",
   "self_type" : "_ZTIN7android7RefBase21$OBJECT_LIFETIME_MASKE",
   "size" : 4,
   "source_file" : "/system/core/libutils/include/utils/RefBase.h",
   "underlying_type" : "_ZTIj"
  },
  {
   "alignment" : 4,
   "enum_fields" :
   [
    {
     "enum_field_value" : 0,
     "name" : "android::String8::kEmptyString"
    }
   ],
   "linker_set_key" : "_ZTIN7android7String813StaticLinkageE",
   "name" : "android::String8::StaticLinkage",
   "referenced_type" : "_ZTIN7android7String813StaticLinkageE",
   "self_type" : "_ZTIN7android7String813StaticLinkageE",
   "size" : 4,
   "source_file" : "/system/core/libutils/include/utils/String8.h",
   "underlying_type" : "_ZTIj"
  },
  {
   "access" : "private",
   "alignment" : 4,
   "enum_fields" :
   [
    {
     "enum_field_value" : 64,
     "name" : "android::AMessage::kMaxNumItems"
    }
   ],
   "linker_set_key" : "_ZTIN7android8AMessage13$kMaxNumItemsE",
   "name" : "android::AMessage::(anonymous enum at frameworks/av/media/libstagefright/foundation/include/media/stagefright/foundation/AMessage.h:296:5)",
   "referenced_type" : "_ZTIN7android8AMessage13$kMaxNumItemsE",
   "self_type" : "_ZTIN7android8AMessage13$kMaxNumItemsE",
   "size" : 4,
   "source_file" : "/frameworks/av/media/libstagefright/foundation/include/media/stagefright/foundation/AMessage.h",
   "underlying_type" : "_ZTIj"
  },
  {
   "alignment" : 4,
   "enum_fields" :
   [
    {
     "enum_field_value" : 0,
     "name" : "android::AMessage::kTypeInt32"
    },
    {
     "enum_field_value" : 1,
     "name" : "android::AMessage::kTypeInt64"
    },
    {
     "enum_field_value" : 2,
     "name" : "android::AMessage::kTypeSize"
    },
    {
     "enum_field_value" : 3,
     "name" : "android::AMessage::kTypeFloat"
    },
    {
     "enum_field_value" : 4,
     "name" : "android::AMessage::kTypeDouble"
    },
    {
     "enum_field_value" : 5,
     "name" : "android::AMessage::kTypePointer"
    },
    {
     "enum_field_value" : 6,
     "name" : "android::AMessage::kTypeString"
    },
    {
     "enum_field_value" : 7,
     "name" : "android::AMessage::kTypeObject"
    },
    {
     "enum_field_value" : 8,
     "name" : "android::AMessage::kTypeMessage"
    },
    {
     "enum_field_value" : 9,
     "name" : "android::AMessage::kTypeRect"
    },
    {
     "enum_field_value" : 10,
     "name" : "android::AMessage::kTypeBuffer"
    }
   ],
   "linker_set_key" : "_ZTIN7android8AMessage4TypeE",
   "name" : "android::AMessage::Type",
   "referenced_type" : "_ZTIN7android8AMessage4TypeE",
   "self_type" : "_ZTIN7android8AMessage4TypeE",
   "size" : 4,
   "source_file" : "/frameworks/av/media/libstagefright/foundation/include/media/stagefright/foundation/AMessage.h",
   "underlying_type" : "_ZTIj"
  },
  {
   "alignment" : 4,
   "enum_fields" :
   [
    {
     "enum_field_value" : 0,
     "name" : "android::String16::kEmptyString"
    }
   ],
   "linker_set_key" : "_ZTIN7android8String1613StaticLinkageE",
   "name" : "android::String16::StaticLinkage",
   "referenced_type" : "_ZTIN7android8String1613StaticLinkageE",
   "self_type" : "_ZTIN7android8String1613StaticLinkageE",
   "size" : 4,
   "source_file" : "/system/core/libutils/include/utils/String16.h",
   "underlying_type" : "_ZTIj"
  },
  {
   "alignment" : 4,
   "enum_fields" :
   [
    {
     "enum_field_value" : 0,
     "name" : "android::hardware::HidlReturnRestriction::NONE"
    },
    {
     "enum_field_value" : 1,
     "name" : "android::hardware::HidlReturnRestriction::ERROR_IF_UNCHECKED"
    },
    {
     "enum_field_value" : 2,
     "name" : "android::hardware::HidlReturnRestriction::FATAL_IF_UNCHECKED"
    }
   ],
   "linker_set_key" : "_ZTIN7android8hardware21HidlReturnRestrictionE",
   "name" : "android::hardware::HidlReturnRestriction",
   "referenced_type" : "_ZTIN7android8hardware21HidlReturnRestrictionE",
   "self_type" : "_ZTIN7android8hardware21HidlReturnRestrictionE",
   "size" : 4,
   "source_file" : "/system/libhidl/base/include/hidl/Status.h",
   "underlying_type" : "_ZTIi"
  },
  {
   "alignment" : 4,
   "enum_fields" :
   [
    {
     "enum_field_value" : 0,
     "name" : "android::hardware::media::omx::V1_0::CodecBuffer::Type::INVALID"
    },
    {
     "enum_field_value" : 1,
     "name" : "android::hardware::media::omx::V1_0::CodecBuffer::Type::PRESET"
    },
    {
     "enum_field_value" : 2,
     "name" : "android::hardware::media::omx::V1_0::CodecBuffer::Type::SHARED_MEM"
    },
    {
     "enum_field_value" : 3,
     "name" : "android::hardware::media::omx::V1_0::CodecBuffer::Type::ANW_BUFFER"
    },
    {
     "enum_field_value" : 4,
     "name" : "android::hardware::media::omx::V1_0::CodecBuffer::Type::NATIVE_HANDLE"
    }
   ],
   "linker_set_key" : "_ZTIN7android8hardware5media3omx4V1_011CodecBuffer4TypeE",
   "name" : "android::hardware::media::omx::V1_0::CodecBuffer::Type",
   "referenced_type" : "_ZTIN7android8hardware5media3omx4V1_011CodecBuffer4TypeE",
   "self_type" : "_ZTIN7android8hardware5media3omx4V1_011CodecBuffer4TypeE",
   "size" : 4,
   "source_file" : "/out/soong/.intermediates/hardware/interfaces/media/omx/1.0/android.hardware.media.omx@1.0_genc++_headers/gen/android/hardware/media/omx/1.0/types.h",
   "underlying_type" : "_ZTIi"
  },
  {
   "alignment" : 4,
   "enum_fields" :
   [
    {
     "enum_field_value" : 0,
     "name" : "android::hardware::media::omx::V1_0::ColorAspects::MatrixCoeffs::UNSPECIFIED"
    },
    {
     "enum_field_value" : 1,
     "name" : "android::hardware::media::omx::V1_0::ColorAspects::MatrixCoeffs::BT709_5"
    },
    {
     "enum_field_value" : 2,
     "name" : "android::hardware::media::omx::V1_0::ColorAspects::MatrixCoeffs::BT470_6M"
    },
    {
     "enum_field_value" : 3,
     "name" : "android::hardware::media::omx::V1_0::ColorAspects::MatrixCoeffs::BT601_6"
    },
    {
     "enum_field_value" : 4,
     "name" : "android::hardware::media::omx::V1_0::ColorAspects::MatrixCoeffs::SMPTE240M"
    },
    {
     "enum_field_value" : 5,
     "name" : "android::hardware::media::omx::V1_0::ColorAspects::MatrixCoeffs::BT2020"
    },
    {
     "enum_field_value" : 6,
     "name" : "android::hardware::media::omx::V1_0::ColorAspects::MatrixCoeffs::BT2020CONSTANT"
    },
    {
     "enum_field_value" : 255,
     "name" : "android::hardware::media::omx::V1_0::ColorAspects::MatrixCoeffs::OTHER"
    }
   ],
   "linker_set_key" : "_ZTIN7android8hardware5media3omx4V1_012ColorAspects12MatrixCoeffsE",
   "name" : "android::hardware::media::omx::V1_0::ColorAspects::MatrixCoeffs",
   "referenced_type" : "_ZTIN7android8hardware5media3omx4V1_012ColorAspects12MatrixCoeffsE",
   "self_type" : "_ZTIN7android8hardware5media3omx4V1_012ColorAspects12MatrixCoeffsE",
   "size" : 4,
   "source_file" : "/out/soong/.intermediates/hardware/interfaces/media/omx/1.0/android.hardware.media.omx@1.0_genc++_headers/gen/android/hardware/media/omx/1.0/types.h",
   "underlying_type" : "_ZTIj"
  },
  {
   "alignment" : 4,
   "enum_fields" :
   [
    {
     "enum_field_value" : 0,
     "name" : "android::hardware::media::omx::V1_0::ColorAspects::Range::UNSPECIFIED"
    },
    {
     "enum_field_value" : 1,
     "name" : "android::hardware::media::omx::V1_0::ColorAspects::Range::FULL"
    },
    {
     "enum_field_value" : 2,
     "name" : "android::hardware::media::omx::V1_0::ColorAspects::Range::LIMITED"
    },
    {
     "enum_field_value" : 255,
     "name" : "android::hardware::media::omx::V1_0::ColorAspects::Range::OTHER"
    }
   ],
   "linker_set_key" : "_ZTIN7android8hardware5media3omx4V1_012ColorAspects5RangeE",
   "name" : "android::hardware::media::omx::V1_0::ColorAspects::Range",
   "referenced_type" : "_ZTIN7android8hardware5media3omx4V1_012ColorAspects5RangeE",
   "self_type" : "_ZTIN7android8hardware5media3omx4V1_012ColorAspects5RangeE",
   "size" : 4,
   "source_file" : "/out/soong/.intermediates/hardware/interfaces/media/omx/1.0/android.hardware.media.omx@1.0_genc++_headers/gen/android/hardware/media/omx/1.0/types.h",
   "underlying_type" : "_ZTIj"
  },
  {
   "alignment" : 4,
   "enum_fields" :
   [
    {
     "enum_field_value" : 0,
     "name" : "android::hardware::media::omx::V1_0::ColorAspects::Transfer::UNSPECIFIED"
    },
    {
     "enum_field_value" : 1,
     "name" : "android::hardware::media::omx::V1_0::ColorAspects::Transfer::LINEAR"
    },
    {
     "enum_field_value" : 2,
     "name" : "android::hardware::media::omx::V1_0::ColorAspects::Transfer::SRGB"
    },
    {
     "enum_field_value" : 3,
     "name" : "android::hardware::media::omx::V1_0::ColorAspects::Transfer::SMPTE170M"
    },
    {
     "enum_field_value" : 4,
     "name" : "android::hardware::media::omx::V1_0::ColorAspects::Transfer::GAMMA22"
    },
    {
     "enum_field_value" : 5,
     "name" : "android::hardware::media::omx::V1_0::ColorAspects::Transfer::GAMMA28"
    },
    {
     "enum_field_value" : 6,
     "name" : "android::hardware::media::omx::V1_0::ColorAspects::Transfer::ST2084"
    },
    {
     "enum_field_value" : 7,
     "name" : "android::hardware::media::omx::V1_0::ColorAspects::Transfer::HLG"
    },
    {
     "enum_field_value" : 64,
     "name" : "android::hardware::media::omx::V1_0::ColorAspects::Transfer::SMPTE240M"
    },
    {
     "enum_field_value" : 65,
     "name" : "android::hardware::media::omx::V1_0::ColorAspects::Transfer::XVYCC"
    },
    {
     "enum_field_value" : 66,
     "name" : "android::hardware::media::omx::V1_0::ColorAspects::Transfer::BT1361"
    },
    {
     "enum_field_value" : 67,
     "name" : "android::hardware::media::omx::V1_0::ColorAspects::Transfer::ST428"
    },
    {
     "enum_field_value" : 255,
     "name" : "android::hardware::media::omx::V1_0::ColorAspects::Transfer::OTHER"
    }
   ],
   "linker_set_key" : "_ZTIN7android8hardware5media3omx4V1_012ColorAspects8TransferE",
   "name" : "android::hardware::media::omx::V1_0::ColorAspects::Transfer",
   "referenced_type" : "_ZTIN7android8hardware5media3omx4V1_012ColorAspects8TransferE",
   "self_type" : "_ZTIN7android8hardware5media3omx4V1_012ColorAspects8TransferE",
   "size" : 4,
   "source_file" : "/out/soong/.intermediates/hardware/interfaces/media/omx/1.0/android.hardware.media.omx@1.0_genc++_headers/gen/android/hardware/media/omx/1.0/types.h",
   "underlying_type" : "_ZTIj"
  },
  {
   "alignment" : 4,
   "enum_fields" :
   [
    {
     "enum_field_value" : 0,
     "name" : "android::hardware::media::omx::V1_0::ColorAspects::Primaries::UNSPECIFIED"
    },
    {
     "enum_field_value" : 1,
     "name" : "android::hardware::media::omx::V1_0::ColorAspects::Primaries::BT709_5"
    },
    {
     "enum_field_value" : 2,
     "name" : "android::hardware::media::omx::V1_0::ColorAspects::Primaries::BT470_6M"
    },
    {
     "enum_field_value" : 3,
     "name" : "android::hardware::media::omx::V1_0::ColorAspects::Primaries::BT601_6_625"
    },
    {
     "enum_field_value" : 4,
     "name" : "android::hardware::media::omx::V1_0::ColorAspects::Primaries::BT601_6_525"
    },
    {
     "enum_field_value" : 5,
     "name" : "android::hardware::media::omx::V1_0::ColorAspects::Primaries::GENERIC_FILM"
    },
    {
     "enum_field_value" : 6,
     "name" : "android::hardware::media::omx::V1_0::ColorAspects::Primaries::BT2020"
    },
    {
     "enum_field_value" : 255,
     "name" : "android::hardware::media::omx::V1_0::ColorAspects::Primaries::OTHER"
    }
   ],
   "linker_set_key" : "_ZTIN7android8hardware5media3omx4V1_012ColorAspects9PrimariesE",
   "name" : "android::hardware::media::omx::V1_0::ColorAspects::Primaries",
   "referenced_type" : "_ZTIN7android8hardware5media3omx4V1_012ColorAspects9PrimariesE",
   "self_type" : "_ZTIN7android8hardware5media3omx4V1_012ColorAspects9PrimariesE",
   "size" : 4,
   "source_file" : "/out/soong/.intermediates/hardware/interfaces/media/omx/1.0/android.hardware.media.omx@1.0_genc++_headers/gen/android/hardware/media/omx/1.0/types.h",
   "underlying_type" : "_ZTIj"
  },
  {
   "alignment" : 4,
   "enum_fields" :
   [
    {
     "enum_field_value" : 0,
     "name" : "android::hardware::media::omx::V1_0::Status::OK"
    },
    {
     "enum_field_value" : 0,
     "name" : "android::hardware::media::omx::V1_0::Status::NO_ERROR"
    },
    {
     "enum_field_value" : -2,
     "name" : "android::hardware::media::omx::V1_0::Status::NAME_NOT_FOUND"
    },
    {
     "enum_field_value" : -11,
     "name" : "android::hardware::media::omx::V1_0::Status::WOULD_BLOCK"
    },
    {
     "enum_field_value" : -12,
     "name" : "android::hardware::media::omx::V1_0::Status::NO_MEMORY"
    },
    {
     "enum_field_value" : -17,
     "name" : "android::hardware::media::omx::V1_0::Status::ALREADY_EXISTS"
    },
    {
     "enum_field_value" : -19,
     "name" : "android::hardware::media::omx::V1_0::Status::NO_INIT"
    },
    {
     "enum_field_value" : -22,
     "name" : "android::hardware::media::omx::V1_0::Status::BAD_VALUE"
    },
    {
     "enum_field_value" : -32,
     "name" : "android::hardware::media::omx::V1_0::Status::DEAD_OBJECT"
    },
    {
     "enum_field_value" : -38,
     "name" : "android::hardware::media::omx::V1_0::Status::INVALID_OPERATION"
    },
    {
     "enum_field_value" : -110,
     "name" : "android::hardware::media::omx::V1_0::Status::TIMED_OUT"
    },
    {
     "enum_field_value" : -1010,
     "name" : "android::hardware::media::omx::V1_0::Status::ERROR_UNSUPPORTED"
    },
    {
     "enum_field_value" : -2147483648,
     "name" : "android::hardware::media::omx::V1_0::Status::UNKNOWN_ERROR"
    },
    {
     "enum_field_value" : 1,
     "name" : "android::hardware::media::omx::V1_0::Status::BUFFER_NEEDS_REALLOCATION"
    },
    {
     "enum_field_value" : 2,
     "name" : "android::hardware::media::omx::V1_0::Status::RELEASE_ALL_BUFFERS"
    }
   ],
   "linker_set_key" : "_ZTIN7android8hardware5media3omx4V1_06StatusE",
   "name" : "android::hardware::media::omx::V1_0::Status",
   "referenced_type" : "_ZTIN7android8hardware5media3omx4V1_06StatusE",
   "self_type" : "_ZTIN7android8hardware5media3omx4V1_06StatusE",
   "size" : 4,
   "source_file" : "/out/soong/.intermediates/hardware/interfaces/media/omx/1.0/android.hardware.media.omx@1.0_genc++_headers/gen/android/hardware/media/omx/1.0/types.h",
   "underlying_type" : "_ZTIi"
  },
  {
   "alignment" : 4,
   "enum_fields" :
   [
    {
     "enum_field_value" : 0,
     "name" : "android::hardware::media::omx::V1_0::Message::Type::EVENT"
    },
    {
     "enum_field_value" : 1,
     "name" : "android::hardware::media::omx::V1_0::Message::Type::EMPTY_BUFFER_DONE"
    },
    {
     "enum_field_value" : 2,
     "name" : "android::hardware::media::omx::V1_0::Message::Type::FILL_BUFFER_DONE"
    },
    {
     "enum_field_value" : 3,
     "name" : "android::hardware::media::omx::V1_0::Message::Type::FRAME_RENDERED"
    }
   ],
   "linker_set_key" : "_ZTIN7android8hardware5media3omx4V1_07Message4TypeE",
   "name" : "android::hardware::media::omx::V1_0::Message::Type",
   "referenced_type" : "_ZTIN7android8hardware5media3omx4V1_07Message4TypeE",
   "self_type" : "_ZTIN7android8hardware5media3omx4V1_07Message4TypeE",
   "size" : 4,
   "source_file" : "/out/soong/.intermediates/hardware/interfaces/media/omx/1.0/android.hardware.media.omx@1.0_genc++_headers/gen/android/hardware/media/omx/1.0/types.h",
   "underlying_type" : "_ZTIj"
  },
  {
   "alignment" : 4,
   "enum_fields" :
   [
    {
     "enum_field_value" : 0,
     "name" : "android::hardware::media::omx::V1_0::PortMode::PRESET_START"
    },
    {
     "enum_field_value" : 1,
     "name" : "android::hardware::media::omx::V1_0::PortMode::PRESET_BYTE_BUFFER"
    },
    {
     "enum_field_value" : 2,
     "name" : "android::hardware::media::omx::V1_0::PortMode::PRESET_ANW_BUFFER"
    },
    {
     "enum_field_value" : 3,
     "name" : "android::hardware::media::omx::V1_0::PortMode::PRESET_SECURE_BUFFER"
    },
    {
     "enum_field_value" : 4,
     "name" : "android::hardware::media::omx::V1_0::PortMode::PRESET_END"
    },
    {
     "enum_field_value" : 100,
     "name" : "android::hardware::media::omx::V1_0::PortMode::DYNAMIC_START"
    },
    {
     "enum_field_value" : 101,
     "name" : "android::hardware::media::omx::V1_0::PortMode::DYNAMIC_ANW_BUFFER"
    },
    {
     "enum_field_value" : 102,
     "name" : "android::hardware::media::omx::V1_0::PortMode::DYNAMIC_NATIVE_HANDLE"
    },
    {
     "enum_field_value" : 103,
     "name" : "android::hardware::media::omx::V1_0::PortMode::DYNAMIC_END"
    }
   ],
   "linker_set_key" : "_ZTIN7android8hardware5media3omx4V1_08PortModeE",
   "name" : "android::hardware::media::omx::V1_0::PortMode",
   "referenced_type" : "_ZTIN7android8hardware5media3omx4V1_08PortModeE",
   "self_type" : "_ZTIN7android8hardware5media3omx4V1_08PortModeE",
   "size" : 4,
   "source_file" : "/out/soong/.intermediates/hardware/interfaces/media/omx/1.0/android.hardware.media.omx@1.0_genc++_headers/gen/android/hardware/media/omx/1.0/types.h",
   "underlying_type" : "_ZTIi"
  },
  {
   "alignment" : 4,
   "enum_fields" :
   [
    {
     "enum_field_value" : 0,
     "name" : "android::hardware::Status::EX_NONE"
    },
    {
     "enum_field_value" : -1,
     "name" : "android::hardware::Status::EX_SECURITY"
    },
    {
     "enum_field_value" : -2,
     "name" : "android::hardware::Status::EX_BAD_PARCELABLE"
    },
    {
     "enum_field_value" : -3,
     "name" : "android::hardware::Status::EX_ILLEGAL_ARGUMENT"
    },
    {
     "enum_field_value" : -4,
     "name" : "android::hardware::Status::EX_NULL_POINTER"
    },
    {
     "enum_field_value" : -5,
     "name" : "android::hardware::Status::EX_ILLEGAL_STATE"
    },
    {
     "enum_field_value" : -6,
     "name" : "android::hardware::Status::EX_NETWORK_MAIN_THREAD"
    },
    {
     "enum_field_value" : -7,
     "name" : "android::hardware::Status::EX_UNSUPPORTED_OPERATION"
    },
    {
     "enum_field_value" : -128,
     "name" : "android::hardware::Status::EX_HAS_REPLY_HEADER"
    },
    {
     "enum_field_value" : -129,
     "name" : "android::hardware::Status::EX_TRANSACTION_FAILED"
    }
   ],
   "linker_set_key" : "_ZTIN7android8hardware6Status9ExceptionE",
   "name" : "android::hardware::Status::Exception",
   "referenced_type" : "_ZTIN7android8hardware6Status9ExceptionE",
   "self_type" : "_ZTIN7android8hardware6Status9ExceptionE",
   "size" : 4,
   "source_file" : "/system/libhidl/base/include/hidl/Status.h",
   "underlying_type" : "_ZTIi"
  },
  {
   "alignment" : 4,
   "enum_fields" :
   [
    {
     "enum_field_value" : 0,
     "name" : "android::hardware::details::HidlInstrumentor::SERVER_API_ENTRY"
    },
    {
     "enum_field_value" : 1,
     "name" : "android::hardware::details::HidlInstrumentor::SERVER_API_EXIT"
    },
    {
     "enum_field_value" : 2,
     "name" : "android::hardware::details::HidlInstrumentor::CLIENT_API_ENTRY"
    },
    {
     "enum_field_value" : 3,
     "name" : "android::hardware::details::HidlInstrumentor::CLIENT_API_EXIT"
    },
    {
     "enum_field_value" : 4,
     "name" : "android::hardware::details::HidlInstrumentor::SYNC_CALLBACK_ENTRY"
    },
    {
     "enum_field_value" : 5,
     "name" : "android::hardware::details::HidlInstrumentor::SYNC_CALLBACK_EXIT"
    },
    {
     "enum_field_value" : 6,
     "name" : "android::hardware::details::HidlInstrumentor::ASYNC_CALLBACK_ENTRY"
    },
    {
     "enum_field_value" : 7,
     "name" : "android::hardware::details::HidlInstrumentor::ASYNC_CALLBACK_EXIT"
    },
    {
     "enum_field_value" : 8,
     "name" : "android::hardware::details::HidlInstrumentor::PASSTHROUGH_ENTRY"
    },
    {
     "enum_field_value" : 9,
     "name" : "android::hardware::details::HidlInstrumentor::PASSTHROUGH_EXIT"
    }
   ],
   "linker_set_key" : "_ZTIN7android8hardware7details16HidlInstrumentor20InstrumentationEventE",
   "name" : "android::hardware::details::HidlInstrumentor::InstrumentationEvent",
   "referenced_type" : "_ZTIN7android8hardware7details16HidlInstrumentor20InstrumentationEventE",
   "self_type" : "_ZTIN7android8hardware7details16HidlInstrumentor20InstrumentationEventE",
   "size" : 4,
   "source_file" : "/system/libhidl/base/include/hidl/HidlInternal.h",
   "underlying_type" : "_ZTIj"
  },
  {
   "alignment" : 4,
   "enum_fields" :
   [
    {
     "enum_field_value" : 1,
     "name" : "android::hardware::kSynchronizedReadWrite"
    },
    {
     "enum_field_value" : 2,
     "name" : "android::hardware::kUnsynchronizedWrite"
    }
   ],
   "linker_set_key" : "_ZTIN7android8hardware8MQFlavorE",
   "name" : "android::hardware::MQFlavor",
   "referenced_type" : "_ZTIN7android8hardware8MQFlavorE",
   "self_type" : "_ZTIN7android8hardware8MQFlavorE",
   "size" : 4,
   "source_file" : "/system/libhidl/base/include/hidl/MQDescriptor.h",
   "underlying_type" : "_ZTIj"
  },
  {
   "alignment" : 4,
   "enum_fields" :
   [
    {
     "enum_field_value" : 0,
     "name" : "android::hardware::graphics::bufferqueue::V1_0::IGraphicBufferProducer::DisconnectMode::API"
    },
    {
     "enum_field_value" : 1,
     "name" : "android::hardware::graphics::bufferqueue::V1_0::IGraphicBufferProducer::DisconnectMode::ALL_LOCAL"
    }
   ],
   "linker_set_key" : "_ZTIN7android8hardware8graphics11bufferqueue4V1_022IGraphicBufferProducer14DisconnectModeE",
   "name" : "android::hardware::graphics::bufferqueue::V1_0::IGraphicBufferProducer::DisconnectMode",
   "referenced_type" : "_ZTIN7android8hardware8graphics11bufferqueue4V1_022IGraphicBufferProducer14DisconnectModeE",
   "self_type" : "_ZTIN7android8hardware8graphics11bufferqueue4V1_022IGraphicBufferProducer14DisconnectModeE",
   "size" : 4,
   "source_file" : "/out/soong/.intermediates/hardware/interfaces/graphics/bufferqueue/1.0/android.hardware.graphics.bufferqueue@1.0_genc++_headers/gen/android/hardware/graphics/bufferqueue/1.0/IGraphicBufferProducer.h",
   "underlying_type" : "_ZTIi"
  },
  {
   "alignment" : 4,
   "enum_fields" :
   [
    {
     "enum_field_value" : 0,
     "name" : "android::hardware::graphics::bufferqueue::V1_0::IGraphicBufferProducer::FenceTimeSnapshot::State::EMPTY"
    },
    {
     "enum_field_value" : 1,
     "name" : "android::hardware::graphics::bufferqueue::V1_0::IGraphicBufferProducer::FenceTimeSnapshot::State::FENCE"
    },
    {
     "enum_field_value" : 2,
     "name" : "android::hardware::graphics::bufferqueue::V1_0::IGraphicBufferProducer::FenceTimeSnapshot::State::SIGNAL_TIME"
    }
   ],
   "linker_set_key" : "_ZTIN7android8hardware8graphics11bufferqueue4V1_022IGraphicBufferProducer17FenceTimeSnapshot5StateE",
   "name" : "android::hardware::graphics::bufferqueue::V1_0::IGraphicBufferProducer::FenceTimeSnapshot::State",
   "referenced_type" : "_ZTIN7android8hardware8graphics11bufferqueue4V1_022IGraphicBufferProducer17FenceTimeSnapshot5StateE",
   "self_type" : "_ZTIN7android8hardware8graphics11bufferqueue4V1_022IGraphicBufferProducer17FenceTimeSnapshot5StateE",
   "size" : 4,
   "source_file" : "/out/soong/.intermediates/hardware/interfaces/graphics/bufferqueue/1.0/android.hardware.graphics.bufferqueue@1.0_genc++_headers/gen/android/hardware/graphics/bufferqueue/1.0/IGraphicBufferProducer.h",
   "underlying_type" : "_ZTIi"
  },
  {
   "alignment" : 8,
   "enum_fields" :
   [
    {
     "enum_field_value" : 15,
     "name" : "android::hardware::graphics::common::V1_0::BufferUsage::CPU_READ_MASK"
    },
    {
     "enum_field_value" : 0,
     "name" : "android::hardware::graphics::common::V1_0::BufferUsage::CPU_READ_NEVER"
    },
    {
     "enum_field_value" : 2,
     "name" : "android::hardware::graphics::common::V1_0::BufferUsage::CPU_READ_RARELY"
    },
    {
     "enum_field_value" : 3,
     "name" : "android::hardware::graphics::common::V1_0::BufferUsage::CPU_READ_OFTEN"
    },
    {
     "enum_field_value" : 240,
     "name" : "android::hardware::graphics::common::V1_0::BufferUsage::CPU_WRITE_MASK"
    },
    {
     "enum_field_value" : 0,
     "name" : "android::hardware::graphics::common::V1_0::BufferUsage::CPU_WRITE_NEVER"
    },
    {
     "enum_field_value" : 32,
     "name" : "android::hardware::graphics::common::V1_0::BufferUsage::CPU_WRITE_RARELY"
    },
    {
     "enum_field_value" : 48,
     "name" : "android::hardware::graphics::common::V1_0::BufferUsage::CPU_WRITE_OFTEN"
    },
    {
     "enum_field_value" : 256,
     "name" : "android::hardware::graphics::common::V1_0::BufferUsage::GPU_TEXTURE"
    },
    {
     "enum_field_value" : 512,
     "name" : "android::hardware::graphics::common::V1_0::BufferUsage::GPU_RENDER_TARGET"
    },
    {
     "enum_field_value" : 2048,
     "name" : "android::hardware::graphics::common::V1_0::BufferUsage::COMPOSER_OVERLAY"
    },
    {
     "enum_field_value" : 4096,
     "name" : "android::hardware::graphics::common::V1_0::BufferUsage::COMPOSER_CLIENT_TARGET"
    },
    {
     "enum_field_value" : 16384,
     "name" : "android::hardware::graphics::common::V1_0::BufferUsage::PROTECTED"
    },
    {
     "enum_field_value" : 32768,
     "name" : "android::hardware::graphics::common::V1_0::BufferUsage::COMPOSER_CURSOR"
    },
    {
     "enum_field_value" : 65536,
     "name" : "android::hardware::graphics::common::V1_0::BufferUsage::VIDEO_ENCODER"
    },
    {
     "enum_field_value" : 131072,
     "name" : "android::hardware::graphics::common::V1_0::BufferUsage::CAMERA_OUTPUT"
    },
    {
     "enum_field_value" : 262144,
     "name" : "android::hardware::graphics::common::V1_0::BufferUsage::CAMERA_INPUT"
    },
    {
     "enum_field_value" : 1048576,
     "name" : "android::hardware::graphics::common::V1_0::BufferUsage::RENDERSCRIPT"
    },
    {
     "enum_field_value" : 4194304,
     "name" : "android::hardware::graphics::common::V1_0::BufferUsage::VIDEO_DECODER"
    },
    {
     "enum_field_value" : 8388608,
     "name" : "android::hardware::graphics::common::V1_0::BufferUsage::SENSOR_DIRECT_DATA"
    },
    {
     "enum_field_value" : 16777216,
     "name" : "android::hardware::graphics::common::V1_0::BufferUsage::GPU_DATA_BUFFER"
    },
    {
     "enum_field_value" : -268435456,
     "name" : "android::hardware::graphics::common::V1_0::BufferUsage::VENDOR_MASK"
    },
    {
     "enum_field_value" : 0,
     "name" : "android::hardware::graphics::common::V1_0::BufferUsage::VENDOR_MASK_HI"
    }
   ],
   "linker_set_key" : "_ZTIN7android8hardware8graphics6common4V1_011BufferUsageE",
   "name" : "android::hardware::graphics::common::V1_0::BufferUsage",
   "referenced_type" : "_ZTIN7android8hardware8graphics6common4V1_011BufferUsageE",
   "self_type" : "_ZTIN7android8hardware8graphics6common4V1_011BufferUsageE",
   "size" : 8,
   "source_file" : "/out/soong/.intermediates/hardware/interfaces/graphics/common/1.0/android.hardware.graphics.common@1.0_genc++_headers/gen/android/hardware/graphics/common/1.0/types.h",
   "underlying_type" : "_ZTIy"
  },
  {
   "alignment" : 4,
   "enum_fields" :
   [
    {
     "enum_field_value" : 1,
     "name" : "android::hardware::graphics::common::V1_0::PixelFormat::RGBA_8888"
    },
    {
     "enum_field_value" : 2,
     "name" : "android::hardware::graphics::common::V1_0::PixelFormat::RGBX_8888"
    },
    {
     "enum_field_value" : 3,
     "name" : "android::hardware::graphics::common::V1_0::PixelFormat::RGB_888"
    },
    {
     "enum_field_value" : 4,
     "name" : "android::hardware::graphics::common::V1_0::PixelFormat::RGB_565"
    },
    {
     "enum_field_value" : 5,
     "name" : "android::hardware::graphics::common::V1_0::PixelFormat::BGRA_8888"
    },
    {
     "enum_field_value" : 16,
     "name" : "android::hardware::graphics::common::V1_0::PixelFormat::YCBCR_422_SP"
    },
    {
     "enum_field_value" : 17,
     "name" : "android::hardware::graphics::common::V1_0::PixelFormat::YCRCB_420_SP"
    },
    {
     "enum_field_value" : 20,
     "name" : "android::hardware::graphics::common::V1_0::PixelFormat::YCBCR_422_I"
    },
    {
     "enum_field_value" : 22,
     "name" : "android::hardware::graphics::common::V1_0::PixelFormat::RGBA_FP16"
    },
    {
     "enum_field_value" : 32,
     "name" : "android::hardware::graphics::common::V1_0::PixelFormat::RAW16"
    },
    {
     "enum_field_value" : 33,
     "name" : "android::hardware::graphics::common::V1_0::PixelFormat::BLOB"
    },
    {
     "enum_field_value" : 34,
     "name" : "android::hardware::graphics::common::V1_0::PixelFormat::IMPLEMENTATION_DEFINED"
    },
    {
     "enum_field_value" : 35,
     "name" : "android::hardware::graphics::common::V1_0::PixelFormat::YCBCR_420_888"
    },
    {
     "enum_field_value" : 36,
     "name" : "android::hardware::graphics::common::V1_0::PixelFormat::RAW_OPAQUE"
    },
    {
     "enum_field_value" : 37,
     "name" : "android::hardware::graphics::common::V1_0::PixelFormat::RAW10"
    },
    {
     "enum_field_value" : 38,
     "name" : "android::hardware::graphics::common::V1_0::PixelFormat::RAW12"
    },
    {
     "enum_field_value" : 43,
     "name" : "android::hardware::graphics::common::V1_0::PixelFormat::RGBA_1010102"
    },
    {
     "enum_field_value" : 538982489,
     "name" : "android::hardware::graphics::common::V1_0::PixelFormat::Y8"
    },
    {
     "enum_field_value" : 540422489,
     "name" : "android::hardware::graphics::common::V1_0::PixelFormat::Y16"
    },
    {
     "enum_field_value" : 842094169,
     "name" : "android::hardware::graphics::common::V1_0::PixelFormat::YV12"
    }
   ],
   "linker_set_key" : "_ZTIN7android8hardware8graphics6common4V1_011PixelFormatE",
   "name" : "android::hardware::graphics::common::V1_0::PixelFormat",
   "referenced_type" : "_ZTIN7android8hardware8graphics6common4V1_011PixelFormatE",
   "self_type" : "_ZTIN7android8hardware8graphics6common4V1_011PixelFormatE",
   "size" : 4,
   "source_file" : "/out/soong/.intermediates/hardware/interfaces/graphics/common/1.0/android.hardware.graphics.common@1.0_genc++_headers/gen/android/hardware/graphics/common/1.0/types.h",
   "underlying_type" : "_ZTIi"
  },
  {
   "alignment" : 4,
   "enum_fields" :
   [
    {
     "enum_field_value" : 0,
     "name" : "android::hardware::graphics::common::V1_0::ColorTransform::IDENTITY"
    },
    {
     "enum_field_value" : 1,
     "name" : "android::hardware::graphics::common::V1_0::ColorTransform::ARBITRARY_MATRIX"
    },
    {
     "enum_field_value" : 2,
     "name" : "android::hardware::graphics::common::V1_0::ColorTransform::VALUE_INVERSE"
    },
    {
     "enum_field_value" : 3,
     "name" : "android::hardware::graphics::common::V1_0::ColorTransform::GRAYSCALE"
    },
    {
     "enum_field_value" : 4,
     "name" : "android::hardware::graphics::common::V1_0::ColorTransform::CORRECT_PROTANOPIA"
    },
    {
     "enum_field_value" : 5,
     "name" : "android::hardware::graphics::common::V1_0::ColorTransform::CORRECT_DEUTERANOPIA"
    },
    {
     "enum_field_value" : 6,
     "name" : "android::hardware::graphics::common::V1_0::ColorTransform::CORRECT_TRITANOPIA"
    }
   ],
   "linker_set_key" : "_ZTIN7android8hardware8graphics6common4V1_014ColorTransformE",
   "name" : "android::hardware::graphics::common::V1_0::ColorTransform",
   "referenced_type" : "_ZTIN7android8hardware8graphics6common4V1_014ColorTransformE",
   "self_type" : "_ZTIN7android8hardware8graphics6common4V1_014ColorTransformE",
   "size" : 4,
   "source_file" : "/out/soong/.intermediates/hardware/interfaces/graphics/common/1.0/android.hardware.graphics.common@1.0_genc++_headers/gen/android/hardware/graphics/common/1.0/types.h",
   "underlying_type" : "_ZTIi"
  },
  {
   "alignment" : 4,
   "enum_fields" :
   [
    {
     "enum_field_value" : 1,
     "name" : "android::hardware::graphics::common::V1_0::Hdr::DOLBY_VISION"
    },
    {
     "enum_field_value" : 2,
     "name" : "android::hardware::graphics::common::V1_0::Hdr::HDR10"
    },
    {
     "enum_field_value" : 3,
     "name" : "android::hardware::graphics::common::V1_0::Hdr::HLG"
    }
   ],
   "linker_set_key" : "_ZTIN7android8hardware8graphics6common4V1_03HdrE",
   "name" : "android::hardware::graphics::common::V1_0::Hdr",
   "referenced_type" : "_ZTIN7android8hardware8graphics6common4V1_03HdrE",
   "self_type" : "_ZTIN7android8hardware8graphics6common4V1_03HdrE",
   "size" : 4,
   "source_file" : "/out/soong/.intermediates/hardware/interfaces/graphics/common/1.0/android.hardware.graphics.common@1.0_genc++_headers/gen/android/hardware/graphics/common/1.0/types.h",
   "underlying_type" : "_ZTIi"
  },
  {
   "alignment" : 4,
   "enum_fields" :
   [
    {
     "enum_field_value" : 0,
     "name" : "android::hardware::graphics::common::V1_0::ColorMode::NATIVE"
    },
    {
     "enum_field_value" : 1,
     "name" : "android::hardware::graphics::common::V1_0::ColorMode::STANDARD_BT601_625"
    },
    {
     "enum_field_value" : 2,
     "name" : "android::hardware::graphics::common::V1_0::ColorMode::STANDARD_BT601_625_UNADJUSTED"
    },
    {
     "enum_field_value" : 3,
     "name" : "android::hardware::graphics::common::V1_0::ColorMode::STANDARD_BT601_525"
    },
    {
     "enum_field_value" : 4,
     "name" : "android::hardware::graphics::common::V1_0::ColorMode::STANDARD_BT601_525_UNADJUSTED"
    },
    {
     "enum_field_value" : 5,
     "name" : "android::hardware::graphics::common::V1_0::ColorMode::STANDARD_BT709"
    },
    {
     "enum_field_value" : 6,
     "name" : "android::hardware::graphics::common::V1_0::ColorMode::DCI_P3"
    },
    {
     "enum_field_value" : 7,
     "name" : "android::hardware::graphics::common::V1_0::ColorMode::SRGB"
    },
    {
     "enum_field_value" : 8,
     "name" : "android::hardware::graphics::common::V1_0::ColorMode::ADOBE_RGB"
    },
    {
     "enum_field_value" : 9,
     "name" : "android::hardware::graphics::common::V1_0::ColorMode::DISPLAY_P3"
    }
   ],
   "linker_set_key" : "_ZTIN7android8hardware8graphics6common4V1_09ColorModeE",
   "name" : "android::hardware::graphics::common::V1_0::ColorMode",
   "referenced_type" : "_ZTIN7android8hardware8graphics6common4V1_09ColorModeE",
   "self_type" : "_ZTIN7android8hardware8graphics6common4V1_09ColorModeE",
   "size" : 4,
   "source_file" : "/out/soong/.intermediates/hardware/interfaces/graphics/common/1.0/android.hardware.graphics.common@1.0_genc++_headers/gen/android/hardware/graphics/common/1.0/types.h",
   "underlying_type" : "_ZTIi"
  },
  {
   "alignment" : 4,
   "enum_fields" :
   [
    {
     "enum_field_value" : 0,
     "name" : "android::hardware::graphics::common::V1_0::Dataspace::UNKNOWN"
    },
    {
     "enum_field_value" : 1,
     "name" : "android::hardware::graphics::common::V1_0::Dataspace::ARBITRARY"
    },
    {
     "enum_field_value" : 16,
     "name" : "android::hardware::graphics::common::V1_0::Dataspace::STANDARD_SHIFT"
    },
    {
     "enum_field_value" : 4128768,
     "name" : "android::hardware::graphics::common::V1_0::Dataspace::STANDARD_MASK"
    },
    {
     "enum_field_value" : 0,
     "name" : "android::hardware::graphics::common::V1_0::Dataspace::STANDARD_UNSPECIFIED"
    },
    {
     "enum_field_value" : 65536,
     "name" : "android::hardware::graphics::common::V1_0::Dataspace::STANDARD_BT709"
    },
    {
     "enum_field_value" : 131072,
     "name" : "android::hardware::graphics::common::V1_0::Dataspace::STANDARD_BT601_625"
    },
    {
     "enum_field_value" : 196608,
     "name" : "android::hardware::graphics::common::V1_0::Dataspace::STANDARD_BT601_625_UNADJUSTED"
    },
    {
     "enum_field_value" : 262144,
     "name" : "android::hardware::graphics::common::V1_0::Dataspace::STANDARD_BT601_525"
    },
    {
     "enum_field_value" : 327680,
     "name" : "android::hardware::graphics::common::V1_0::Dataspace::STANDARD_BT601_525_UNADJUSTED"
    },
    {
     "enum_field_value" : 393216,
     "name" : "android::hardware::graphics::common::V1_0::Dataspace::STANDARD_BT2020"
    },
    {
     "enum_field_value" : 458752,
     "name" : "android::hardware::graphics::common::V1_0::Dataspace::STANDARD_BT2020_CONSTANT_LUMINANCE"
    },
    {
     "enum_field_value" : 524288,
     "name" : "android::hardware::graphics::common::V1_0::Dataspace::STANDARD_BT470M"
    },
    {
     "enum_field_value" : 589824,
     "name" : "android::hardware::graphics::common::V1_0::Dataspace::STANDARD_FILM"
    },
    {
     "enum_field_value" : 655360,
     "name" : "android::hardware::graphics::common::V1_0::Dataspace::STANDARD_DCI_P3"
    },
    {
     "enum_field_value" : 720896,
     "name" : "android::hardware::graphics::common::V1_0::Dataspace::STANDARD_ADOBE_RGB"
    },
    {
     "enum_field_value" : 22,
     "name" : "android::hardware::graphics::common::V1_0::Dataspace::TRANSFER_SHIFT"
    },
    {
     "enum_field_value" : 130023424,
     "name" : "android::hardware::graphics::common::V1_0::Dataspace::TRANSFER_MASK"
    },
    {
     "enum_field_value" : 0,
     "name" : "android::hardware::graphics::common::V1_0::Dataspace::TRANSFER_UNSPECIFIED"
    },
    {
     "enum_field_value" : 4194304,
     "name" : "android::hardware::graphics::common::V1_0::Dataspace::TRANSFER_LINEAR"
    },
    {
     "enum_field_value" : 8388608,
     "name" : "android::hardware::graphics::common::V1_0::Dataspace::TRANSFER_SRGB"
    },
    {
     "enum_field_value" : 12582912,
     "name" : "android::hardware::graphics::common::V1_0::Dataspace::TRANSFER_SMPTE_170M"
    },
    {
     "enum_field_value" : 16777216,
     "name" : "android::hardware::graphics::common::V1_0::Dataspace::TRANSFER_GAMMA2_2"
    },
    {
     "enum_field_value" : 20971520,
     "name" : "android::hardware::graphics::common::V1_0::Dataspace::TRANSFER_GAMMA2_6"
    },
    {
     "enum_field_value" : 25165824,
     "name" : "android::hardware::graphics::common::V1_0::Dataspace::TRANSFER_GAMMA2_8"
    },
    {
     "enum_field_value" : 29360128,
     "name" : "android::hardware::graphics::common::V1_0::Dataspace::TRANSFER_ST2084"
    },
    {
     "enum_field_value" : 33554432,
     "name" : "android::hardware::graphics::common::V1_0::Dataspace::TRANSFER_HLG"
    },
    {
     "enum_field_value" : 27,
     "name" : "android::hardware::graphics::common::V1_0::Dataspace::RANGE_SHIFT"
    },
    {
     "enum_field_value" : 939524096,
     "name" : "android::hardware::graphics::common::V1_0::Dataspace::RANGE_MASK"
    },
    {
     "enum_field_value" : 0,
     "name" : "android::hardware::graphics::common::V1_0::Dataspace::RANGE_UNSPECIFIED"
    },
    {
     "enum_field_value" : 134217728,
     "name" : "android::hardware::graphics::common::V1_0::Dataspace::RANGE_FULL"
    },
    {
     "enum_field_value" : 268435456,
     "name" : "android::hardware::graphics::common::V1_0::Dataspace::RANGE_LIMITED"
    },
    {
     "enum_field_value" : 402653184,
     "name" : "android::hardware::graphics::common::V1_0::Dataspace::RANGE_EXTENDED"
    },
    {
     "enum_field_value" : 512,
     "name" : "android::hardware::graphics::common::V1_0::Dataspace::SRGB_LINEAR"
    },
    {
     "enum_field_value" : 138477568,
     "name" : "android::hardware::graphics::common::V1_0::Dataspace::V0_SRGB_LINEAR"
    },
    {
     "enum_field_value" : 406913024,
     "name" : "android::hardware::graphics::common::V1_0::Dataspace::V0_SCRGB_LINEAR"
    },
    {
     "enum_field_value" : 513,
     "name" : "android::hardware::graphics::common::V1_0::Dataspace::SRGB"
    },
    {
     "enum_field_value" : 142671872,
     "name" : "android::hardware::graphics::common::V1_0::Dataspace::V0_SRGB"
    },
    {
     "enum_field_value" : 411107328,
     "name" : "android::hardware::graphics::common::V1_0::Dataspace::V0_SCRGB"
    },
    {
     "enum_field_value" : 257,
     "name" : "android::hardware::graphics::common::V1_0::Dataspace::JFIF"
    },
    {
     "enum_field_value" : 146931712,
     "name" : "android::hardware::graphics::common::V1_0::Dataspace::V0_JFIF"
    },
    {
     "enum_field_value" : 258,
     "name" : "android::hardware::graphics::common::V1_0::Dataspace::BT601_625"
    },
    {
     "enum_field_value" : 281149440,
     "name" : "android::hardware::graphics::common::V1_0::Dataspace::V0_BT601_625"
    },
    {
     "enum_field_value" : 259,
     "name" : "android::hardware::graphics::common::V1_0::Dataspace::BT601_525"
    },
    {
     "enum_field_value" : 281280512,
     "name" : "android::hardware::graphics::common::V1_0::Dataspace::V0_BT601_525"
    },
    {
     "enum_field_value" : 260,
     "name" : "android::hardware::graphics::common::V1_0::Dataspace::BT709"
    },
    {
     "enum_field_value" : 281083904,
     "name" : "android::hardware::graphics::common::V1_0::Dataspace::V0_BT709"
    },
    {
     "enum_field_value" : 139067392,
     "name" : "android::hardware::graphics::common::V1_0::Dataspace::DCI_P3_LINEAR"
    },
    {
     "enum_field_value" : 155844608,
     "name" : "android::hardware::graphics::common::V1_0::Dataspace::DCI_P3"
    },
    {
     "enum_field_value" : 139067392,
     "name" : "android::hardware::graphics::common::V1_0::Dataspace::DISPLAY_P3_LINEAR"
    },
    {
     "enum_field_value" : 143261696,
     "name" : "android::hardware::graphics::common::V1_0::Dataspace::DISPLAY_P3"
    },
    {
     "enum_field_value" : 151715840,
     "name" : "android::hardware::graphics::common::V1_0::Dataspace::ADOBE_RGB"
    },
    {
     "enum_field_value" : 138805248,
     "name" : "android::hardware::graphics::common::V1_0::Dataspace::BT2020_LINEAR"
    },
    {
     "enum_field_value" : 147193856,
     "name" : "android::hardware::graphics::common::V1_0::Dataspace::BT2020"
    },
    {
     "enum_field_value" : 163971072,
     "name" : "android::hardware::graphics::common::V1_0::Dataspace::BT2020_PQ"
    },
    {
     "enum_field_value" : 4096,
     "name" : "android::hardware::graphics::common::V1_0::Dataspace::DEPTH"
    },
    {
     "enum_field_value" : 4097,
     "name" : "android::hardware::graphics::common::V1_0::Dataspace::SENSOR"
    }
   ],
   "linker_set_key" : "_ZTIN7android8hardware8graphics6common4V1_09DataspaceE",
   "name" : "android::hardware::graphics::common::V1_0::Dataspace",
   "referenced_type" : "_ZTIN7android8hardware8graphics6common4V1_09DataspaceE",
   "self_type" : "_ZTIN7android8hardware8graphics6common4V1_09DataspaceE",
   "size" : 4,
   "source_file" : "/out/soong/.intermediates/hardware/interfaces/graphics/common/1.0/android.hardware.graphics.common@1.0_genc++_headers/gen/android/hardware/graphics/common/1.0/types.h",
   "underlying_type" : "_ZTIi"
  },
  {
   "alignment" : 4,
   "enum_fields" :
   [
    {
     "enum_field_value" : 1,
     "name" : "android::hardware::graphics::common::V1_0::Transform::FLIP_H"
    },
    {
     "enum_field_value" : 2,
     "name" : "android::hardware::graphics::common::V1_0::Transform::FLIP_V"
    },
    {
     "enum_field_value" : 4,
     "name" : "android::hardware::graphics::common::V1_0::Transform::ROT_90"
    },
    {
     "enum_field_value" : 3,
     "name" : "android::hardware::graphics::common::V1_0::Transform::ROT_180"
    },
    {
     "enum_field_value" : 7,
     "name" : "android::hardware::graphics::common::V1_0::Transform::ROT_270"
    }
   ],
   "linker_set_key" : "_ZTIN7android8hardware8graphics6common4V1_09TransformE",
   "name" : "android::hardware::graphics::common::V1_0::Transform",
   "referenced_type" : "_ZTIN7android8hardware8graphics6common4V1_09TransformE",
   "self_type" : "_ZTIN7android8hardware8graphics6common4V1_09TransformE",
   "size" : 4,
   "source_file" : "/out/soong/.intermediates/hardware/interfaces/graphics/common/1.0/android.hardware.graphics.common@1.0_genc++_headers/gen/android/hardware/graphics/common/1.0/types.h",
   "underlying_type" : "_ZTIi"
  },
  {
   "alignment" : 8,
   "enum_fields" :
   [
    {
     "enum_field_value" : 15,
     "name" : "android::hardware::graphics::common::V1_1::BufferUsage::CPU_READ_MASK"
    },
    {
     "enum_field_value" : 0,
     "name" : "android::hardware::graphics::common::V1_1::BufferUsage::CPU_READ_NEVER"
    },
    {
     "enum_field_value" : 2,
     "name" : "android::hardware::graphics::common::V1_1::BufferUsage::CPU_READ_RARELY"
    },
    {
     "enum_field_value" : 3,
     "name" : "android::hardware::graphics::common::V1_1::BufferUsage::CPU_READ_OFTEN"
    },
    {
     "enum_field_value" : 240,
     "name" : "android::hardware::graphics::common::V1_1::BufferUsage::CPU_WRITE_MASK"
    },
    {
     "enum_field_value" : 0,
     "name" : "android::hardware::graphics::common::V1_1::BufferUsage::CPU_WRITE_NEVER"
    },
    {
     "enum_field_value" : 32,
     "name" : "android::hardware::graphics::common::V1_1::BufferUsage::CPU_WRITE_RARELY"
    },
    {
     "enum_field_value" : 48,
     "name" : "android::hardware::graphics::common::V1_1::BufferUsage::CPU_WRITE_OFTEN"
    },
    {
     "enum_field_value" : 256,
     "name" : "android::hardware::graphics::common::V1_1::BufferUsage::GPU_TEXTURE"
    },
    {
     "enum_field_value" : 512,
     "name" : "android::hardware::graphics::common::V1_1::BufferUsage::GPU_RENDER_TARGET"
    },
    {
     "enum_field_value" : 2048,
     "name" : "android::hardware::graphics::common::V1_1::BufferUsage::COMPOSER_OVERLAY"
    },
    {
     "enum_field_value" : 4096,
     "name" : "android::hardware::graphics::common::V1_1::BufferUsage::COMPOSER_CLIENT_TARGET"
    },
    {
     "enum_field_value" : 16384,
     "name" : "android::hardware::graphics::common::V1_1::BufferUsage::PROTECTED"
    },
    {
     "enum_field_value" : 32768,
     "name" : "android::hardware::graphics::common::V1_1::BufferUsage::COMPOSER_CURSOR"
    },
    {
     "enum_field_value" : 65536,
     "name" : "android::hardware::graphics::common::V1_1::BufferUsage::VIDEO_ENCODER"
    },
    {
     "enum_field_value" : 131072,
     "name" : "android::hardware::graphics::common::V1_1::BufferUsage::CAMERA_OUTPUT"
    },
    {
     "enum_field_value" : 262144,
     "name" : "android::hardware::graphics::common::V1_1::BufferUsage::CAMERA_INPUT"
    },
    {
     "enum_field_value" : 1048576,
     "name" : "android::hardware::graphics::common::V1_1::BufferUsage::RENDERSCRIPT"
    },
    {
     "enum_field_value" : 4194304,
     "name" : "android::hardware::graphics::common::V1_1::BufferUsage::VIDEO_DECODER"
    },
    {
     "enum_field_value" : 8388608,
     "name" : "android::hardware::graphics::common::V1_1::BufferUsage::SENSOR_DIRECT_DATA"
    },
    {
     "enum_field_value" : 16777216,
     "name" : "android::hardware::graphics::common::V1_1::BufferUsage::GPU_DATA_BUFFER"
    },
    {
     "enum_field_value" : -268435456,
     "name" : "android::hardware::graphics::common::V1_1::BufferUsage::VENDOR_MASK"
    },
    {
     "enum_field_value" : 0,
     "name" : "android::hardware::graphics::common::V1_1::BufferUsage::VENDOR_MASK_HI"
    },
    {
     "enum_field_value" : 33554432,
     "name" : "android::hardware::graphics::common::V1_1::BufferUsage::GPU_CUBE_MAP"
    },
    {
     "enum_field_value" : 67108864,
     "name" : "android::hardware::graphics::common::V1_1::BufferUsage::GPU_MIPMAP_COMPLETE"
    }
   ],
   "linker_set_key" : "_ZTIN7android8hardware8graphics6common4V1_111BufferUsageE",
   "name" : "android::hardware::graphics::common::V1_1::BufferUsage",
   "referenced_type" : "_ZTIN7android8hardware8graphics6common4V1_111BufferUsageE",
   "self_type" : "_ZTIN7android8hardware8graphics6common4V1_111BufferUsageE",
   "size" : 8,
   "source_file" : "/out/soong/.intermediates/hardware/interfaces/graphics/common/1.1/android.hardware.graphics.common@1.1_genc++_headers/gen/android/hardware/graphics/common/1.1/types.h",
   "underlying_type" : "_ZTIy"
  },
  {
   "alignment" : 4,
   "enum_fields" :
   [
    {
     "enum_field_value" : 1,
     "name" : "android::hardware::graphics::common::V1_1::PixelFormat::RGBA_8888"
    },
    {
     "enum_field_value" : 2,
     "name" : "android::hardware::graphics::common::V1_1::PixelFormat::RGBX_8888"
    },
    {
     "enum_field_value" : 3,
     "name" : "android::hardware::graphics::common::V1_1::PixelFormat::RGB_888"
    },
    {
     "enum_field_value" : 4,
     "name" : "android::hardware::graphics::common::V1_1::PixelFormat::RGB_565"
    },
    {
     "enum_field_value" : 5,
     "name" : "android::hardware::graphics::common::V1_1::PixelFormat::BGRA_8888"
    },
    {
     "enum_field_value" : 16,
     "name" : "android::hardware::graphics::common::V1_1::PixelFormat::YCBCR_422_SP"
    },
    {
     "enum_field_value" : 17,
     "name" : "android::hardware::graphics::common::V1_1::PixelFormat::YCRCB_420_SP"
    },
    {
     "enum_field_value" : 20,
     "name" : "android::hardware::graphics::common::V1_1::PixelFormat::YCBCR_422_I"
    },
    {
     "enum_field_value" : 22,
     "name" : "android::hardware::graphics::common::V1_1::PixelFormat::RGBA_FP16"
    },
    {
     "enum_field_value" : 32,
     "name" : "android::hardware::graphics::common::V1_1::PixelFormat::RAW16"
    },
    {
     "enum_field_value" : 33,
     "name" : "android::hardware::graphics::common::V1_1::PixelFormat::BLOB"
    },
    {
     "enum_field_value" : 34,
     "name" : "android::hardware::graphics::common::V1_1::PixelFormat::IMPLEMENTATION_DEFINED"
    },
    {
     "enum_field_value" : 35,
     "name" : "android::hardware::graphics::common::V1_1::PixelFormat::YCBCR_420_888"
    },
    {
     "enum_field_value" : 36,
     "name" : "android::hardware::graphics::common::V1_1::PixelFormat::RAW_OPAQUE"
    },
    {
     "enum_field_value" : 37,
     "name" : "android::hardware::graphics::common::V1_1::PixelFormat::RAW10"
    },
    {
     "enum_field_value" : 38,
     "name" : "android::hardware::graphics::common::V1_1::PixelFormat::RAW12"
    },
    {
     "enum_field_value" : 43,
     "name" : "android::hardware::graphics::common::V1_1::PixelFormat::RGBA_1010102"
    },
    {
     "enum_field_value" : 538982489,
     "name" : "android::hardware::graphics::common::V1_1::PixelFormat::Y8"
    },
    {
     "enum_field_value" : 540422489,
     "name" : "android::hardware::graphics::common::V1_1::PixelFormat::Y16"
    },
    {
     "enum_field_value" : 842094169,
     "name" : "android::hardware::graphics::common::V1_1::PixelFormat::YV12"
    },
    {
     "enum_field_value" : 48,
     "name" : "android::hardware::graphics::common::V1_1::PixelFormat::DEPTH_16"
    },
    {
     "enum_field_value" : 49,
     "name" : "android::hardware::graphics::common::V1_1::PixelFormat::DEPTH_24"
    },
    {
     "enum_field_value" : 50,
     "name" : "android::hardware::graphics::common::V1_1::PixelFormat::DEPTH_24_STENCIL_8"
    },
    {
     "enum_field_value" : 51,
     "name" : "android::hardware::graphics::common::V1_1::PixelFormat::DEPTH_32F"
    },
    {
     "enum_field_value" : 52,
     "name" : "android::hardware::graphics::common::V1_1::PixelFormat::DEPTH_32F_STENCIL_8"
    },
    {
     "enum_field_value" : 53,
     "name" : "android::hardware::graphics::common::V1_1::PixelFormat::STENCIL_8"
    },
    {
     "enum_field_value" : 54,
     "name" : "android::hardware::graphics::common::V1_1::PixelFormat::YCBCR_P010"
    }
   ],
   "linker_set_key" : "_ZTIN7android8hardware8graphics6common4V1_111PixelFormatE",
   "name" : "android::hardware::graphics::common::V1_1::PixelFormat",
   "referenced_type" : "_ZTIN7android8hardware8graphics6common4V1_111PixelFormatE",
   "self_type" : "_ZTIN7android8hardware8graphics6common4V1_111PixelFormatE",
   "size" : 4,
   "source_file" : "/out/soong/.intermediates/hardware/interfaces/graphics/common/1.1/android.hardware.graphics.common@1.1_genc++_headers/gen/android/hardware/graphics/common/1.1/types.h",
   "underlying_type" : "_ZTIi"
  },
  {
   "alignment" : 4,
   "enum_fields" :
   [
    {
     "enum_field_value" : 0,
     "name" : "android::hardware::graphics::common::V1_1::RenderIntent::COLORIMETRIC"
    },
    {
     "enum_field_value" : 1,
     "name" : "android::hardware::graphics::common::V1_1::RenderIntent::ENHANCE"
    },
    {
     "enum_field_value" : 2,
     "name" : "android::hardware::graphics::common::V1_1::RenderIntent::TONE_MAP_COLORIMETRIC"
    },
    {
     "enum_field_value" : 3,
     "name" : "android::hardware::graphics::common::V1_1::RenderIntent::TONE_MAP_ENHANCE"
    }
   ],
   "linker_set_key" : "_ZTIN7android8hardware8graphics6common4V1_112RenderIntentE",
   "name" : "android::hardware::graphics::common::V1_1::RenderIntent",
   "referenced_type" : "_ZTIN7android8hardware8graphics6common4V1_112RenderIntentE",
   "self_type" : "_ZTIN7android8hardware8graphics6common4V1_112RenderIntentE",
   "size" : 4,
   "source_file" : "/out/soong/.intermediates/hardware/interfaces/graphics/common/1.1/android.hardware.graphics.common@1.1_genc++_headers/gen/android/hardware/graphics/common/1.1/types.h",
   "underlying_type" : "_ZTIi"
  },
  {
   "alignment" : 4,
   "enum_fields" :
   [
    {
     "enum_field_value" : 0,
     "name" : "android::hardware::graphics::common::V1_1::ColorMode::NATIVE"
    },
    {
     "enum_field_value" : 1,
     "name" : "android::hardware::graphics::common::V1_1::ColorMode::STANDARD_BT601_625"
    },
    {
     "enum_field_value" : 2,
     "name" : "android::hardware::graphics::common::V1_1::ColorMode::STANDARD_BT601_625_UNADJUSTED"
    },
    {
     "enum_field_value" : 3,
     "name" : "android::hardware::graphics::common::V1_1::ColorMode::STANDARD_BT601_525"
    },
    {
     "enum_field_value" : 4,
     "name" : "android::hardware::graphics::common::V1_1::ColorMode::STANDARD_BT601_525_UNADJUSTED"
    },
    {
     "enum_field_value" : 5,
     "name" : "android::hardware::graphics::common::V1_1::ColorMode::STANDARD_BT709"
    },
    {
     "enum_field_value" : 6,
     "name" : "android::hardware::graphics::common::V1_1::ColorMode::DCI_P3"
    },
    {
     "enum_field_value" : 7,
     "name" : "android::hardware::graphics::common::V1_1::ColorMode::SRGB"
    },
    {
     "enum_field_value" : 8,
     "name" : "android::hardware::graphics::common::V1_1::ColorMode::ADOBE_RGB"
    },
    {
     "enum_field_value" : 9,
     "name" : "android::hardware::graphics::common::V1_1::ColorMode::DISPLAY_P3"
    },
    {
     "enum_field_value" : 10,
     "name" : "android::hardware::graphics::common::V1_1::ColorMode::BT2020"
    },
    {
     "enum_field_value" : 11,
     "name" : "android::hardware::graphics::common::V1_1::ColorMode::BT2100_PQ"
    },
    {
     "enum_field_value" : 12,
     "name" : "android::hardware::graphics::common::V1_1::ColorMode::BT2100_HLG"
    }
   ],
   "linker_set_key" : "_ZTIN7android8hardware8graphics6common4V1_19ColorModeE",
   "name" : "android::hardware::graphics::common::V1_1::ColorMode",
   "referenced_type" : "_ZTIN7android8hardware8graphics6common4V1_19ColorModeE",
   "self_type" : "_ZTIN7android8hardware8graphics6common4V1_19ColorModeE",
   "size" : 4,
   "source_file" : "/out/soong/.intermediates/hardware/interfaces/graphics/common/1.1/android.hardware.graphics.common@1.1_genc++_headers/gen/android/hardware/graphics/common/1.1/types.h",
   "underlying_type" : "_ZTIi"
  },
  {
   "alignment" : 4,
   "enum_fields" :
   [
    {
     "enum_field_value" : 0,
     "name" : "android::hardware::graphics::common::V1_1::Dataspace::UNKNOWN"
    },
    {
     "enum_field_value" : 1,
     "name" : "android::hardware::graphics::common::V1_1::Dataspace::ARBITRARY"
    },
    {
     "enum_field_value" : 16,
     "name" : "android::hardware::graphics::common::V1_1::Dataspace::STANDARD_SHIFT"
    },
    {
     "enum_field_value" : 4128768,
     "name" : "android::hardware::graphics::common::V1_1::Dataspace::STANDARD_MASK"
    },
    {
     "enum_field_value" : 0,
     "name" : "android::hardware::graphics::common::V1_1::Dataspace::STANDARD_UNSPECIFIED"
    },
    {
     "enum_field_value" : 65536,
     "name" : "android::hardware::graphics::common::V1_1::Dataspace::STANDARD_BT709"
    },
    {
     "enum_field_value" : 131072,
     "name" : "android::hardware::graphics::common::V1_1::Dataspace::STANDARD_BT601_625"
    },
    {
     "enum_field_value" : 196608,
     "name" : "android::hardware::graphics::common::V1_1::Dataspace::STANDARD_BT601_625_UNADJUSTED"
    },
    {
     "enum_field_value" : 262144,
     "name" : "android::hardware::graphics::common::V1_1::Dataspace::STANDARD_BT601_525"
    },
    {
     "enum_field_value" : 327680,
     "name" : "android::hardware::graphics::common::V1_1::Dataspace::STANDARD_BT601_525_UNADJUSTED"
    },
    {
     "enum_field_value" : 393216,
     "name" : "android::hardware::graphics::common::V1_1::Dataspace::STANDARD_BT2020"
    },
    {
     "enum_field_value" : 458752,
     "name" : "android::hardware::graphics::common::V1_1::Dataspace::STANDARD_BT2020_CONSTANT_LUMINANCE"
    },
    {
     "enum_field_value" : 524288,
     "name" : "android::hardware::graphics::common::V1_1::Dataspace::STANDARD_BT470M"
    },
    {
     "enum_field_value" : 589824,
     "name" : "android::hardware::graphics::common::V1_1::Dataspace::STANDARD_FILM"
    },
    {
     "enum_field_value" : 655360,
     "name" : "android::hardware::graphics::common::V1_1::Dataspace::STANDARD_DCI_P3"
    },
    {
     "enum_field_value" : 720896,
     "name" : "android::hardware::graphics::common::V1_1::Dataspace::STANDARD_ADOBE_RGB"
    },
    {
     "enum_field_value" : 22,
     "name" : "android::hardware::graphics::common::V1_1::Dataspace::TRANSFER_SHIFT"
    },
    {
     "enum_field_value" : 130023424,
     "name" : "android::hardware::graphics::common::V1_1::Dataspace::TRANSFER_MASK"
    },
    {
     "enum_field_value" : 0,
     "name" : "android::hardware::graphics::common::V1_1::Dataspace::TRANSFER_UNSPECIFIED"
    },
    {
     "enum_field_value" : 4194304,
     "name" : "android::hardware::graphics::common::V1_1::Dataspace::TRANSFER_LINEAR"
    },
    {
     "enum_field_value" : 8388608,
     "name" : "android::hardware::graphics::common::V1_1::Dataspace::TRANSFER_SRGB"
    },
    {
     "enum_field_value" : 12582912,
     "name" : "android::hardware::graphics::common::V1_1::Dataspace::TRANSFER_SMPTE_170M"
    },
    {
     "enum_field_value" : 16777216,
     "name" : "android::hardware::graphics::common::V1_1::Dataspace::TRANSFER_GAMMA2_2"
    },
    {
     "enum_field_value" : 20971520,
     "name" : "android::hardware::graphics::common::V1_1::Dataspace::TRANSFER_GAMMA2_6"
    },
    {
     "enum_field_value" : 25165824,
     "name" : "android::hardware::graphics::common::V1_1::Dataspace::TRANSFER_GAMMA2_8"
    },
    {
     "enum_field_value" : 29360128,
     "name" : "android::hardware::graphics::common::V1_1::Dataspace::TRANSFER_ST2084"
    },
    {
     "enum_field_value" : 33554432,
     "name" : "android::hardware::graphics::common::V1_1::Dataspace::TRANSFER_HLG"
    },
    {
     "enum_field_value" : 27,
     "name" : "android::hardware::graphics::common::V1_1::Dataspace::RANGE_SHIFT"
    },
    {
     "enum_field_value" : 939524096,
     "name" : "android::hardware::graphics::common::V1_1::Dataspace::RANGE_MASK"
    },
    {
     "enum_field_value" : 0,
     "name" : "android::hardware::graphics::common::V1_1::Dataspace::RANGE_UNSPECIFIED"
    },
    {
     "enum_field_value" : 134217728,
     "name" : "android::hardware::graphics::common::V1_1::Dataspace::RANGE_FULL"
    },
    {
     "enum_field_value" : 268435456,
     "name" : "android::hardware::graphics::common::V1_1::Dataspace::RANGE_LIMITED"
    },
    {
     "enum_field_value" : 402653184,
     "name" : "android::hardware::graphics::common::V1_1::Dataspace::RANGE_EXTENDED"
    },
    {
     "enum_field_value" : 512,
     "name" : "android::hardware::graphics::common::V1_1::Dataspace::SRGB_LINEAR"
    },
    {
     "enum_field_value" : 138477568,
     "name" : "android::hardware::graphics::common::V1_1::Dataspace::V0_SRGB_LINEAR"
    },
    {
     "enum_field_value" : 406913024,
     "name" : "android::hardware::graphics::common::V1_1::Dataspace::V0_SCRGB_LINEAR"
    },
    {
     "enum_field_value" : 513,
     "name" : "android::hardware::graphics::common::V1_1::Dataspace::SRGB"
    },
    {
     "enum_field_value" : 142671872,
     "name" : "android::hardware::graphics::common::V1_1::Dataspace::V0_SRGB"
    },
    {
     "enum_field_value" : 411107328,
     "name" : "android::hardware::graphics::common::V1_1::Dataspace::V0_SCRGB"
    },
    {
     "enum_field_value" : 257,
     "name" : "android::hardware::graphics::common::V1_1::Dataspace::JFIF"
    },
    {
     "enum_field_value" : 146931712,
     "name" : "android::hardware::graphics::common::V1_1::Dataspace::V0_JFIF"
    },
    {
     "enum_field_value" : 258,
     "name" : "android::hardware::graphics::common::V1_1::Dataspace::BT601_625"
    },
    {
     "enum_field_value" : 281149440,
     "name" : "android::hardware::graphics::common::V1_1::Dataspace::V0_BT601_625"
    },
    {
     "enum_field_value" : 259,
     "name" : "android::hardware::graphics::common::V1_1::Dataspace::BT601_525"
    },
    {
     "enum_field_value" : 281280512,
     "name" : "android::hardware::graphics::common::V1_1::Dataspace::V0_BT601_525"
    },
    {
     "enum_field_value" : 260,
     "name" : "android::hardware::graphics::common::V1_1::Dataspace::BT709"
    },
    {
     "enum_field_value" : 281083904,
     "name" : "android::hardware::graphics::common::V1_1::Dataspace::V0_BT709"
    },
    {
     "enum_field_value" : 139067392,
     "name" : "android::hardware::graphics::common::V1_1::Dataspace::DCI_P3_LINEAR"
    },
    {
     "enum_field_value" : 155844608,
     "name" : "android::hardware::graphics::common::V1_1::Dataspace::DCI_P3"
    },
    {
     "enum_field_value" : 139067392,
     "name" : "android::hardware::graphics::common::V1_1::Dataspace::DISPLAY_P3_LINEAR"
    },
    {
     "enum_field_value" : 143261696,
     "name" : "android::hardware::graphics::common::V1_1::Dataspace::DISPLAY_P3"
    },
    {
     "enum_field_value" : 151715840,
     "name" : "android::hardware::graphics::common::V1_1::Dataspace::ADOBE_RGB"
    },
    {
     "enum_field_value" : 138805248,
     "name" : "android::hardware::graphics::common::V1_1::Dataspace::BT2020_LINEAR"
    },
    {
     "enum_field_value" : 147193856,
     "name" : "android::hardware::graphics::common::V1_1::Dataspace::BT2020"
    },
    {
     "enum_field_value" : 163971072,
     "name" : "android::hardware::graphics::common::V1_1::Dataspace::BT2020_PQ"
    },
    {
     "enum_field_value" : 4096,
     "name" : "android::hardware::graphics::common::V1_1::Dataspace::DEPTH"
    },
    {
     "enum_field_value" : 4097,
     "name" : "android::hardware::graphics::common::V1_1::Dataspace::SENSOR"
    },
    {
     "enum_field_value" : 281411584,
     "name" : "android::hardware::graphics::common::V1_1::Dataspace::BT2020_ITU"
    },
    {
     "enum_field_value" : 298188800,
     "name" : "android::hardware::graphics::common::V1_1::Dataspace::BT2020_ITU_PQ"
    },
    {
     "enum_field_value" : 302383104,
     "name" : "android::hardware::graphics::common::V1_1::Dataspace::BT2020_ITU_HLG"
    },
    {
     "enum_field_value" : 168165376,
     "name" : "android::hardware::graphics::common::V1_1::Dataspace::BT2020_HLG"
    }
   ],
   "linker_set_key" : "_ZTIN7android8hardware8graphics6common4V1_19DataspaceE",
   "name" : "android::hardware::graphics::common::V1_1::Dataspace",
   "referenced_type" : "_ZTIN7android8hardware8graphics6common4V1_19DataspaceE",
   "self_type" : "_ZTIN7android8hardware8graphics6common4V1_19DataspaceE",
   "size" : 4,
   "source_file" : "/out/soong/.intermediates/hardware/interfaces/graphics/common/1.1/android.hardware.graphics.common@1.1_genc++_headers/gen/android/hardware/graphics/common/1.1/types.h",
   "underlying_type" : "_ZTIi"
  },
  {
   "alignment" : 8,
   "enum_fields" :
   [
    {
     "enum_field_value" : 15,
     "name" : "android::hardware::graphics::common::V1_2::BufferUsage::CPU_READ_MASK"
    },
    {
     "enum_field_value" : 0,
     "name" : "android::hardware::graphics::common::V1_2::BufferUsage::CPU_READ_NEVER"
    },
    {
     "enum_field_value" : 2,
     "name" : "android::hardware::graphics::common::V1_2::BufferUsage::CPU_READ_RARELY"
    },
    {
     "enum_field_value" : 3,
     "name" : "android::hardware::graphics::common::V1_2::BufferUsage::CPU_READ_OFTEN"
    },
    {
     "enum_field_value" : 240,
     "name" : "android::hardware::graphics::common::V1_2::BufferUsage::CPU_WRITE_MASK"
    },
    {
     "enum_field_value" : 0,
     "name" : "android::hardware::graphics::common::V1_2::BufferUsage::CPU_WRITE_NEVER"
    },
    {
     "enum_field_value" : 32,
     "name" : "android::hardware::graphics::common::V1_2::BufferUsage::CPU_WRITE_RARELY"
    },
    {
     "enum_field_value" : 48,
     "name" : "android::hardware::graphics::common::V1_2::BufferUsage::CPU_WRITE_OFTEN"
    },
    {
     "enum_field_value" : 256,
     "name" : "android::hardware::graphics::common::V1_2::BufferUsage::GPU_TEXTURE"
    },
    {
     "enum_field_value" : 512,
     "name" : "android::hardware::graphics::common::V1_2::BufferUsage::GPU_RENDER_TARGET"
    },
    {
     "enum_field_value" : 2048,
     "name" : "android::hardware::graphics::common::V1_2::BufferUsage::COMPOSER_OVERLAY"
    },
    {
     "enum_field_value" : 4096,
     "name" : "android::hardware::graphics::common::V1_2::BufferUsage::COMPOSER_CLIENT_TARGET"
    },
    {
     "enum_field_value" : 16384,
     "name" : "android::hardware::graphics::common::V1_2::BufferUsage::PROTECTED"
    },
    {
     "enum_field_value" : 32768,
     "name" : "android::hardware::graphics::common::V1_2::BufferUsage::COMPOSER_CURSOR"
    },
    {
     "enum_field_value" : 65536,
     "name" : "android::hardware::graphics::common::V1_2::BufferUsage::VIDEO_ENCODER"
    },
    {
     "enum_field_value" : 131072,
     "name" : "android::hardware::graphics::common::V1_2::BufferUsage::CAMERA_OUTPUT"
    },
    {
     "enum_field_value" : 262144,
     "name" : "android::hardware::graphics::common::V1_2::BufferUsage::CAMERA_INPUT"
    },
    {
     "enum_field_value" : 1048576,
     "name" : "android::hardware::graphics::common::V1_2::BufferUsage::RENDERSCRIPT"
    },
    {
     "enum_field_value" : 4194304,
     "name" : "android::hardware::graphics::common::V1_2::BufferUsage::VIDEO_DECODER"
    },
    {
     "enum_field_value" : 8388608,
     "name" : "android::hardware::graphics::common::V1_2::BufferUsage::SENSOR_DIRECT_DATA"
    },
    {
     "enum_field_value" : 16777216,
     "name" : "android::hardware::graphics::common::V1_2::BufferUsage::GPU_DATA_BUFFER"
    },
    {
     "enum_field_value" : -268435456,
     "name" : "android::hardware::graphics::common::V1_2::BufferUsage::VENDOR_MASK"
    },
    {
     "enum_field_value" : 0,
     "name" : "android::hardware::graphics::common::V1_2::BufferUsage::VENDOR_MASK_HI"
    },
    {
     "enum_field_value" : 33554432,
     "name" : "android::hardware::graphics::common::V1_2::BufferUsage::GPU_CUBE_MAP"
    },
    {
     "enum_field_value" : 67108864,
     "name" : "android::hardware::graphics::common::V1_2::BufferUsage::GPU_MIPMAP_COMPLETE"
    },
    {
     "enum_field_value" : 134217728,
     "name" : "android::hardware::graphics::common::V1_2::BufferUsage::HW_IMAGE_ENCODER"
    }
   ],
   "linker_set_key" : "_ZTIN7android8hardware8graphics6common4V1_211BufferUsageE",
   "name" : "android::hardware::graphics::common::V1_2::BufferUsage",
   "referenced_type" : "_ZTIN7android8hardware8graphics6common4V1_211BufferUsageE",
   "self_type" : "_ZTIN7android8hardware8graphics6common4V1_211BufferUsageE",
   "size" : 8,
   "source_file" : "/out/soong/.intermediates/hardware/interfaces/graphics/common/1.2/android.hardware.graphics.common@1.2_genc++_headers/gen/android/hardware/graphics/common/1.2/types.h",
   "underlying_type" : "_ZTIy"
  },
  {
   "alignment" : 4,
   "enum_fields" :
   [
    {
     "enum_field_value" : 1,
     "name" : "android::hardware::graphics::common::V1_2::PixelFormat::RGBA_8888"
    },
    {
     "enum_field_value" : 2,
     "name" : "android::hardware::graphics::common::V1_2::PixelFormat::RGBX_8888"
    },
    {
     "enum_field_value" : 3,
     "name" : "android::hardware::graphics::common::V1_2::PixelFormat::RGB_888"
    },
    {
     "enum_field_value" : 4,
     "name" : "android::hardware::graphics::common::V1_2::PixelFormat::RGB_565"
    },
    {
     "enum_field_value" : 5,
     "name" : "android::hardware::graphics::common::V1_2::PixelFormat::BGRA_8888"
    },
    {
     "enum_field_value" : 16,
     "name" : "android::hardware::graphics::common::V1_2::PixelFormat::YCBCR_422_SP"
    },
    {
     "enum_field_value" : 17,
     "name" : "android::hardware::graphics::common::V1_2::PixelFormat::YCRCB_420_SP"
    },
    {
     "enum_field_value" : 20,
     "name" : "android::hardware::graphics::common::V1_2::PixelFormat::YCBCR_422_I"
    },
    {
     "enum_field_value" : 22,
     "name" : "android::hardware::graphics::common::V1_2::PixelFormat::RGBA_FP16"
    },
    {
     "enum_field_value" : 32,
     "name" : "android::hardware::graphics::common::V1_2::PixelFormat::RAW16"
    },
    {
     "enum_field_value" : 33,
     "name" : "android::hardware::graphics::common::V1_2::PixelFormat::BLOB"
    },
    {
     "enum_field_value" : 34,
     "name" : "android::hardware::graphics::common::V1_2::PixelFormat::IMPLEMENTATION_DEFINED"
    },
    {
     "enum_field_value" : 35,
     "name" : "android::hardware::graphics::common::V1_2::PixelFormat::YCBCR_420_888"
    },
    {
     "enum_field_value" : 36,
     "name" : "android::hardware::graphics::common::V1_2::PixelFormat::RAW_OPAQUE"
    },
    {
     "enum_field_value" : 37,
     "name" : "android::hardware::graphics::common::V1_2::PixelFormat::RAW10"
    },
    {
     "enum_field_value" : 38,
     "name" : "android::hardware::graphics::common::V1_2::PixelFormat::RAW12"
    },
    {
     "enum_field_value" : 43,
     "name" : "android::hardware::graphics::common::V1_2::PixelFormat::RGBA_1010102"
    },
    {
     "enum_field_value" : 538982489,
     "name" : "android::hardware::graphics::common::V1_2::PixelFormat::Y8"
    },
    {
     "enum_field_value" : 540422489,
     "name" : "android::hardware::graphics::common::V1_2::PixelFormat::Y16"
    },
    {
     "enum_field_value" : 842094169,
     "name" : "android::hardware::graphics::common::V1_2::PixelFormat::YV12"
    },
    {
     "enum_field_value" : 48,
     "name" : "android::hardware::graphics::common::V1_2::PixelFormat::DEPTH_16"
    },
    {
     "enum_field_value" : 49,
     "name" : "android::hardware::graphics::common::V1_2::PixelFormat::DEPTH_24"
    },
    {
     "enum_field_value" : 50,
     "name" : "android::hardware::graphics::common::V1_2::PixelFormat::DEPTH_24_STENCIL_8"
    },
    {
     "enum_field_value" : 51,
     "name" : "android::hardware::graphics::common::V1_2::PixelFormat::DEPTH_32F"
    },
    {
     "enum_field_value" : 52,
     "name" : "android::hardware::graphics::common::V1_2::PixelFormat::DEPTH_32F_STENCIL_8"
    },
    {
     "enum_field_value" : 53,
     "name" : "android::hardware::graphics::common::V1_2::PixelFormat::STENCIL_8"
    },
    {
     "enum_field_value" : 54,
     "name" : "android::hardware::graphics::common::V1_2::PixelFormat::YCBCR_P010"
    },
    {
     "enum_field_value" : 55,
     "name" : "android::hardware::graphics::common::V1_2::PixelFormat::HSV_888"
    }
   ],
   "linker_set_key" : "_ZTIN7android8hardware8graphics6common4V1_211PixelFormatE",
   "name" : "android::hardware::graphics::common::V1_2::PixelFormat",
   "referenced_type" : "_ZTIN7android8hardware8graphics6common4V1_211PixelFormatE",
   "self_type" : "_ZTIN7android8hardware8graphics6common4V1_211PixelFormatE",
   "size" : 4,
   "source_file" : "/out/soong/.intermediates/hardware/interfaces/graphics/common/1.2/android.hardware.graphics.common@1.2_genc++_headers/gen/android/hardware/graphics/common/1.2/types.h",
   "underlying_type" : "_ZTIi"
  },
  {
   "alignment" : 4,
   "enum_fields" :
   [
    {
     "enum_field_value" : 1,
     "name" : "android::hardware::graphics::common::V1_2::Hdr::DOLBY_VISION"
    },
    {
     "enum_field_value" : 2,
     "name" : "android::hardware::graphics::common::V1_2::Hdr::HDR10"
    },
    {
     "enum_field_value" : 3,
     "name" : "android::hardware::graphics::common::V1_2::Hdr::HLG"
    },
    {
     "enum_field_value" : 4,
     "name" : "android::hardware::graphics::common::V1_2::Hdr::HDR10_PLUS"
    }
   ],
   "linker_set_key" : "_ZTIN7android8hardware8graphics6common4V1_23HdrE",
   "name" : "android::hardware::graphics::common::V1_2::Hdr",
   "referenced_type" : "_ZTIN7android8hardware8graphics6common4V1_23HdrE",
   "self_type" : "_ZTIN7android8hardware8graphics6common4V1_23HdrE",
   "size" : 4,
   "source_file" : "/out/soong/.intermediates/hardware/interfaces/graphics/common/1.2/android.hardware.graphics.common@1.2_genc++_headers/gen/android/hardware/graphics/common/1.2/types.h",
   "underlying_type" : "_ZTIi"
  },
  {
   "alignment" : 4,
   "enum_fields" :
   [
    {
     "enum_field_value" : 0,
     "name" : "android::hardware::graphics::common::V1_2::ColorMode::NATIVE"
    },
    {
     "enum_field_value" : 1,
     "name" : "android::hardware::graphics::common::V1_2::ColorMode::STANDARD_BT601_625"
    },
    {
     "enum_field_value" : 2,
     "name" : "android::hardware::graphics::common::V1_2::ColorMode::STANDARD_BT601_625_UNADJUSTED"
    },
    {
     "enum_field_value" : 3,
     "name" : "android::hardware::graphics::common::V1_2::ColorMode::STANDARD_BT601_525"
    },
    {
     "enum_field_value" : 4,
     "name" : "android::hardware::graphics::common::V1_2::ColorMode::STANDARD_BT601_525_UNADJUSTED"
    },
    {
     "enum_field_value" : 5,
     "name" : "android::hardware::graphics::common::V1_2::ColorMode::STANDARD_BT709"
    },
    {
     "enum_field_value" : 6,
     "name" : "android::hardware::graphics::common::V1_2::ColorMode::DCI_P3"
    },
    {
     "enum_field_value" : 7,
     "name" : "android::hardware::graphics::common::V1_2::ColorMode::SRGB"
    },
    {
     "enum_field_value" : 8,
     "name" : "android::hardware::graphics::common::V1_2::ColorMode::ADOBE_RGB"
    },
    {
     "enum_field_value" : 9,
     "name" : "android::hardware::graphics::common::V1_2::ColorMode::DISPLAY_P3"
    },
    {
     "enum_field_value" : 10,
     "name" : "android::hardware::graphics::common::V1_2::ColorMode::BT2020"
    },
    {
     "enum_field_value" : 11,
     "name" : "android::hardware::graphics::common::V1_2::ColorMode::BT2100_PQ"
    },
    {
     "enum_field_value" : 12,
     "name" : "android::hardware::graphics::common::V1_2::ColorMode::BT2100_HLG"
    },
    {
     "enum_field_value" : 13,
     "name" : "android::hardware::graphics::common::V1_2::ColorMode::DISPLAY_BT2020"
    }
   ],
   "linker_set_key" : "_ZTIN7android8hardware8graphics6common4V1_29ColorModeE",
   "name" : "android::hardware::graphics::common::V1_2::ColorMode",
   "referenced_type" : "_ZTIN7android8hardware8graphics6common4V1_29ColorModeE",
   "self_type" : "_ZTIN7android8hardware8graphics6common4V1_29ColorModeE",
   "size" : 4,
   "source_file" : "/out/soong/.intermediates/hardware/interfaces/graphics/common/1.2/android.hardware.graphics.common@1.2_genc++_headers/gen/android/hardware/graphics/common/1.2/types.h",
   "underlying_type" : "_ZTIi"
  },
  {
   "alignment" : 4,
   "enum_fields" :
   [
    {
     "enum_field_value" : 0,
     "name" : "android::hardware::graphics::common::V1_2::Dataspace::UNKNOWN"
    },
    {
     "enum_field_value" : 1,
     "name" : "android::hardware::graphics::common::V1_2::Dataspace::ARBITRARY"
    },
    {
     "enum_field_value" : 16,
     "name" : "android::hardware::graphics::common::V1_2::Dataspace::STANDARD_SHIFT"
    },
    {
     "enum_field_value" : 4128768,
     "name" : "android::hardware::graphics::common::V1_2::Dataspace::STANDARD_MASK"
    },
    {
     "enum_field_value" : 0,
     "name" : "android::hardware::graphics::common::V1_2::Dataspace::STANDARD_UNSPECIFIED"
    },
    {
     "enum_field_value" : 65536,
     "name" : "android::hardware::graphics::common::V1_2::Dataspace::STANDARD_BT709"
    },
    {
     "enum_field_value" : 131072,
     "name" : "android::hardware::graphics::common::V1_2::Dataspace::STANDARD_BT601_625"
    },
    {
     "enum_field_value" : 196608,
     "name" : "android::hardware::graphics::common::V1_2::Dataspace::STANDARD_BT601_625_UNADJUSTED"
    },
    {
     "enum_field_value" : 262144,
     "name" : "android::hardware::graphics::common::V1_2::Dataspace::STANDARD_BT601_525"
    },
    {
     "enum_field_value" : 327680,
     "name" : "android::hardware::graphics::common::V1_2::Dataspace::STANDARD_BT601_525_UNADJUSTED"
    },
    {
     "enum_field_value" : 393216,
     "name" : "android::hardware::graphics::common::V1_2::Dataspace::STANDARD_BT2020"
    },
    {
     "enum_field_value" : 458752,
     "name" : "android::hardware::graphics::common::V1_2::Dataspace::STANDARD_BT2020_CONSTANT_LUMINANCE"
    },
    {
     "enum_field_value" : 524288,
     "name" : "android::hardware::graphics::common::V1_2::Dataspace::STANDARD_BT470M"
    },
    {
     "enum_field_value" : 589824,
     "name" : "android::hardware::graphics::common::V1_2::Dataspace::STANDARD_FILM"
    },
    {
     "enum_field_value" : 655360,
     "name" : "android::hardware::graphics::common::V1_2::Dataspace::STANDARD_DCI_P3"
    },
    {
     "enum_field_value" : 720896,
     "name" : "android::hardware::graphics::common::V1_2::Dataspace::STANDARD_ADOBE_RGB"
    },
    {
     "enum_field_value" : 22,
     "name" : "android::hardware::graphics::common::V1_2::Dataspace::TRANSFER_SHIFT"
    },
    {
     "enum_field_value" : 130023424,
     "name" : "android::hardware::graphics::common::V1_2::Dataspace::TRANSFER_MASK"
    },
    {
     "enum_field_value" : 0,
     "name" : "android::hardware::graphics::common::V1_2::Dataspace::TRANSFER_UNSPECIFIED"
    },
    {
     "enum_field_value" : 4194304,
     "name" : "android::hardware::graphics::common::V1_2::Dataspace::TRANSFER_LINEAR"
    },
    {
     "enum_field_value" : 8388608,
     "name" : "android::hardware::graphics::common::V1_2::Dataspace::TRANSFER_SRGB"
    },
    {
     "enum_field_value" : 12582912,
     "name" : "android::hardware::graphics::common::V1_2::Dataspace::TRANSFER_SMPTE_170M"
    },
    {
     "enum_field_value" : 16777216,
     "name" : "android::hardware::graphics::common::V1_2::Dataspace::TRANSFER_GAMMA2_2"
    },
    {
     "enum_field_value" : 20971520,
     "name" : "android::hardware::graphics::common::V1_2::Dataspace::TRANSFER_GAMMA2_6"
    },
    {
     "enum_field_value" : 25165824,
     "name" : "android::hardware::graphics::common::V1_2::Dataspace::TRANSFER_GAMMA2_8"
    },
    {
     "enum_field_value" : 29360128,
     "name" : "android::hardware::graphics::common::V1_2::Dataspace::TRANSFER_ST2084"
    },
    {
     "enum_field_value" : 33554432,
     "name" : "android::hardware::graphics::common::V1_2::Dataspace::TRANSFER_HLG"
    },
    {
     "enum_field_value" : 27,
     "name" : "android::hardware::graphics::common::V1_2::Dataspace::RANGE_SHIFT"
    },
    {
     "enum_field_value" : 939524096,
     "name" : "android::hardware::graphics::common::V1_2::Dataspace::RANGE_MASK"
    },
    {
     "enum_field_value" : 0,
     "name" : "android::hardware::graphics::common::V1_2::Dataspace::RANGE_UNSPECIFIED"
    },
    {
     "enum_field_value" : 134217728,
     "name" : "android::hardware::graphics::common::V1_2::Dataspace::RANGE_FULL"
    },
    {
     "enum_field_value" : 268435456,
     "name" : "android::hardware::graphics::common::V1_2::Dataspace::RANGE_LIMITED"
    },
    {
     "enum_field_value" : 402653184,
     "name" : "android::hardware::graphics::common::V1_2::Dataspace::RANGE_EXTENDED"
    },
    {
     "enum_field_value" : 512,
     "name" : "android::hardware::graphics::common::V1_2::Dataspace::SRGB_LINEAR"
    },
    {
     "enum_field_value" : 138477568,
     "name" : "android::hardware::graphics::common::V1_2::Dataspace::V0_SRGB_LINEAR"
    },
    {
     "enum_field_value" : 406913024,
     "name" : "android::hardware::graphics::common::V1_2::Dataspace::V0_SCRGB_LINEAR"
    },
    {
     "enum_field_value" : 513,
     "name" : "android::hardware::graphics::common::V1_2::Dataspace::SRGB"
    },
    {
     "enum_field_value" : 142671872,
     "name" : "android::hardware::graphics::common::V1_2::Dataspace::V0_SRGB"
    },
    {
     "enum_field_value" : 411107328,
     "name" : "android::hardware::graphics::common::V1_2::Dataspace::V0_SCRGB"
    },
    {
     "enum_field_value" : 257,
     "name" : "android::hardware::graphics::common::V1_2::Dataspace::JFIF"
    },
    {
     "enum_field_value" : 146931712,
     "name" : "android::hardware::graphics::common::V1_2::Dataspace::V0_JFIF"
    },
    {
     "enum_field_value" : 258,
     "name" : "android::hardware::graphics::common::V1_2::Dataspace::BT601_625"
    },
    {
     "enum_field_value" : 281149440,
     "name" : "android::hardware::graphics::common::V1_2::Dataspace::V0_BT601_625"
    },
    {
     "enum_field_value" : 259,
     "name" : "android::hardware::graphics::common::V1_2::Dataspace::BT601_525"
    },
    {
     "enum_field_value" : 281280512,
     "name" : "android::hardware::graphics::common::V1_2::Dataspace::V0_BT601_525"
    },
    {
     "enum_field_value" : 260,
     "name" : "android::hardware::graphics::common::V1_2::Dataspace::BT709"
    },
    {
     "enum_field_value" : 281083904,
     "name" : "android::hardware::graphics::common::V1_2::Dataspace::V0_BT709"
    },
    {
     "enum_field_value" : 139067392,
     "name" : "android::hardware::graphics::common::V1_2::Dataspace::DCI_P3_LINEAR"
    },
    {
     "enum_field_value" : 155844608,
     "name" : "android::hardware::graphics::common::V1_2::Dataspace::DCI_P3"
    },
    {
     "enum_field_value" : 139067392,
     "name" : "android::hardware::graphics::common::V1_2::Dataspace::DISPLAY_P3_LINEAR"
    },
    {
     "enum_field_value" : 143261696,
     "name" : "android::hardware::graphics::common::V1_2::Dataspace::DISPLAY_P3"
    },
    {
     "enum_field_value" : 151715840,
     "name" : "android::hardware::graphics::common::V1_2::Dataspace::ADOBE_RGB"
    },
    {
     "enum_field_value" : 138805248,
     "name" : "android::hardware::graphics::common::V1_2::Dataspace::BT2020_LINEAR"
    },
    {
     "enum_field_value" : 147193856,
     "name" : "android::hardware::graphics::common::V1_2::Dataspace::BT2020"
    },
    {
     "enum_field_value" : 163971072,
     "name" : "android::hardware::graphics::common::V1_2::Dataspace::BT2020_PQ"
    },
    {
     "enum_field_value" : 4096,
     "name" : "android::hardware::graphics::common::V1_2::Dataspace::DEPTH"
    },
    {
     "enum_field_value" : 4097,
     "name" : "android::hardware::graphics::common::V1_2::Dataspace::SENSOR"
    },
    {
     "enum_field_value" : 281411584,
     "name" : "android::hardware::graphics::common::V1_2::Dataspace::BT2020_ITU"
    },
    {
     "enum_field_value" : 298188800,
     "name" : "android::hardware::graphics::common::V1_2::Dataspace::BT2020_ITU_PQ"
    },
    {
     "enum_field_value" : 302383104,
     "name" : "android::hardware::graphics::common::V1_2::Dataspace::BT2020_ITU_HLG"
    },
    {
     "enum_field_value" : 168165376,
     "name" : "android::hardware::graphics::common::V1_2::Dataspace::BT2020_HLG"
    },
    {
     "enum_field_value" : 142999552,
     "name" : "android::hardware::graphics::common::V1_2::Dataspace::DISPLAY_BT2020"
    },
    {
     "enum_field_value" : 4098,
     "name" : "android::hardware::graphics::common::V1_2::Dataspace::DYNAMIC_DEPTH"
    },
    {
     "enum_field_value" : 4099,
     "name" : "android::hardware::graphics::common::V1_2::Dataspace::JPEG_APP_SEGMENTS"
    },
    {
     "enum_field_value" : 4100,
     "name" : "android::hardware::graphics::common::V1_2::Dataspace::HEIF"
    }
   ],
   "linker_set_key" : "_ZTIN7android8hardware8graphics6common4V1_29DataspaceE",
   "name" : "android::hardware::graphics::common::V1_2::Dataspace",
   "referenced_type" : "_ZTIN7android8hardware8graphics6common4V1_29DataspaceE",
   "self_type" : "_ZTIN7android8hardware8graphics6common4V1_29DataspaceE",
   "size" : 4,
   "source_file" : "/out/soong/.intermediates/hardware/interfaces/graphics/common/1.2/android.hardware.graphics.common@1.2_genc++_headers/gen/android/hardware/graphics/common/1.2/types.h",
   "underlying_type" : "_ZTIi"
  },
  {
   "access" : "private",
   "alignment" : 4,
   "enum_fields" :
   [
    {
     "enum_field_value" : 0,
     "name" : "android::internal::Stability::UNDECLARED"
    },
    {
     "enum_field_value" : 3,
     "name" : "android::internal::Stability::VENDOR"
    },
    {
     "enum_field_value" : 12,
     "name" : "android::internal::Stability::SYSTEM"
    },
    {
     "enum_field_value" : 63,
     "name" : "android::internal::Stability::VINTF"
    }
   ],
   "linker_set_key" : "_ZTIN7android8internal9Stability5LevelE",
   "name" : "android::internal::Stability::Level",
   "referenced_type" : "_ZTIN7android8internal9Stability5LevelE",
   "self_type" : "_ZTIN7android8internal9Stability5LevelE",
   "size" : 4,
   "source_file" : "/frameworks/native/libs/binder/include/binder/Stability.h",
   "underlying_type" : "_ZTIi"
  },
  {
   "alignment" : 4,
   "enum_fields" :
   [
    {
     "enum_field_value" : 0,
     "name" : "android::Condition::WAKE_UP_ONE"
    },
    {
     "enum_field_value" : 1,
     "name" : "android::Condition::WAKE_UP_ALL"
    }
   ],
   "linker_set_key" : "_ZTIN7android9Condition10WakeUpTypeE",
   "name" : "android::Condition::WakeUpType",
   "referenced_type" : "_ZTIN7android9Condition10WakeUpTypeE",
   "self_type" : "_ZTIN7android9Condition10WakeUpTypeE",
   "size" : 4,
   "source_file" : "/system/core/libutils/include/utils/Condition.h",
   "underlying_type" : "_ZTIj"
  },
  {
   "alignment" : 4,
   "enum_fields" :
   [
    {
     "enum_field_value" : 0,
     "name" : "android::Condition::PRIVATE"
    },
    {
     "enum_field_value" : 1,
     "name" : "android::Condition::SHARED"
    }
   ],
   "linker_set_key" : "_ZTIN7android9Condition8$PRIVATEE",
   "name" : "android::Condition::(anonymous enum at system/core/libutils/include/utils/Condition.h:54:5)",
   "referenced_type" : "_ZTIN7android9Condition8$PRIVATEE",
   "self_type" : "_ZTIN7android9Condition8$PRIVATEE",
   "size" : 4,
   "source_file" : "/system/core/libutils/include/utils/Condition.h",
   "underlying_type" : "_ZTIj"
  },
  {
   "access" : "private",
   "alignment" : 4,
   "enum_fields" :
   [
    {
     "enum_field_value" : 0,
     "name" : "android::FenceTime::State::VALID"
    },
    {
     "enum_field_value" : 1,
     "name" : "android::FenceTime::State::INVALID"
    },
    {
     "enum_field_value" : 2,
     "name" : "android::FenceTime::State::FORCED_VALID_FOR_TEST"
    }
   ],
   "linker_set_key" : "_ZTIN7android9FenceTime5StateE",
   "name" : "android::FenceTime::State",
   "referenced_type" : "_ZTIN7android9FenceTime5StateE",
   "self_type" : "_ZTIN7android9FenceTime5StateE",
   "size" : 4,
   "source_file" : "/frameworks/native/libs/ui/include/ui/FenceTime.h",
   "underlying_type" : "_ZTIi"
  },
  {
   "alignment" : 4,
   "enum_fields" :
   [
    {
     "enum_field_value" : 0,
     "name" : "android::FenceTime::Snapshot::State::EMPTY"
    },
    {
     "enum_field_value" : 1,
     "name" : "android::FenceTime::Snapshot::State::FENCE"
    },
    {
     "enum_field_value" : 2,
     "name" : "android::FenceTime::Snapshot::State::SIGNAL_TIME"
    }
   ],
   "linker_set_key" : "_ZTIN7android9FenceTime8Snapshot5StateE",
   "name" : "android::FenceTime::Snapshot::State",
   "referenced_type" : "_ZTIN7android9FenceTime8Snapshot5StateE",
   "self_type" : "_ZTIN7android9FenceTime8Snapshot5StateE",
   "size" : 4,
   "source_file" : "/frameworks/native/libs/ui/include/ui/FenceTime.h",
   "underlying_type" : "_ZTIi"
  },
  {
   "access" : "private",
   "alignment" : 4,
   "enum_fields" :
   [
    {
     "enum_field_value" : 0,
     "name" : "android::OMXBuffer::kBufferTypeInvalid"
    },
    {
     "enum_field_value" : 1,
     "name" : "android::OMXBuffer::kBufferTypePreset"
    },
    {
     "enum_field_value" : 2,
     "name" : "android::OMXBuffer::kBufferTypeSharedMem"
    },
    {
     "enum_field_value" : 3,
     "name" : "android::OMXBuffer::kBufferTypeANWBuffer"
    },
    {
     "enum_field_value" : 4,
     "name" : "android::OMXBuffer::kBufferTypeNativeHandle"
    },
    {
     "enum_field_value" : 5,
     "name" : "android::OMXBuffer::kBufferTypeHidlMemory"
    }
   ],
   "linker_set_key" : "_ZTIN7android9OMXBuffer10BufferTypeE",
   "name" : "android::OMXBuffer::BufferType",
   "referenced_type" : "_ZTIN7android9OMXBuffer10BufferTypeE",
   "self_type" : "_ZTIN7android9OMXBuffer10BufferTypeE",
   "size" : 4,
   "source_file" : "/frameworks/av/media/libmedia/include/media/OMXBuffer.h",
   "underlying_type" : "_ZTIj"
  }
 ],
 "function_types" :
 [
  {
   "alignment" : 4,
   "linker_set_key" : "_ZTIF13OMX_ERRORTYPEPvE",
   "name" : "OMX_ERRORTYPE (void *)",
   "parameters" :
   [
    {
     "referenced_type" : "_ZTIPv"
    }
   ],
   "referenced_type" : "_ZTIF13OMX_ERRORTYPEPvE",
   "return_type" : "_ZTI13OMX_ERRORTYPE",
   "self_type" : "_ZTIF13OMX_ERRORTYPEPvE",
   "source_file" : "/frameworks/native/headers/media_plugin/media/openmax/OMX_Core.h"
  },
  {
   "alignment" : 4,
   "linker_set_key" : "_ZTIF13OMX_ERRORTYPEPvS0_13OMX_EVENTTYPEjjS0_E",
   "name" : "OMX_ERRORTYPE (void *, void *, OMX_EVENTTYPE, unsigned int, unsigned int, void *)",
   "parameters" :
   [
    {
     "referenced_type" : "_ZTIPv"
    },
    {
     "referenced_type" : "_ZTIPv"
    },
    {
     "referenced_type" : "_ZTI13OMX_EVENTTYPE"
    },
    {
     "referenced_type" : "_ZTIj"
    },
    {
     "referenced_type" : "_ZTIj"
    },
    {
     "referenced_type" : "_ZTIPv"
    }
   ],
   "referenced_type" : "_ZTIF13OMX_ERRORTYPEPvS0_13OMX_EVENTTYPEjjS0_E",
   "return_type" : "_ZTI13OMX_ERRORTYPE",
   "self_type" : "_ZTIF13OMX_ERRORTYPEPvS0_13OMX_EVENTTYPEjjS0_E",
   "source_file" : "/frameworks/native/headers/media_plugin/media/openmax/OMX_Core.h"
  },
  {
   "alignment" : 4,
   "linker_set_key" : "_ZTIF13OMX_ERRORTYPEPvS0_P20OMX_BUFFERHEADERTYPEE",
   "name" : "OMX_ERRORTYPE (void *, void *, OMX_BUFFERHEADERTYPE *)",
   "parameters" :
   [
    {
     "referenced_type" : "_ZTIPv"
    },
    {
     "referenced_type" : "_ZTIPv"
    },
    {
     "referenced_type" : "_ZTIP20OMX_BUFFERHEADERTYPE"
    }
   ],
   "referenced_type" : "_ZTIF13OMX_ERRORTYPEPvS0_P20OMX_BUFFERHEADERTYPEE",
   "return_type" : "_ZTI13OMX_ERRORTYPE",
   "self_type" : "_ZTIF13OMX_ERRORTYPEPvS0_P20OMX_BUFFERHEADERTYPEE",
   "source_file" : "/frameworks/native/headers/media_plugin/media/openmax/OMX_Core.h"
  },
  {
   "alignment" : 4,
   "linker_set_key" : "_ZTIFiP11hw_device_tE",
   "name" : "int (hw_device_t *)",
   "parameters" :
   [
    {
     "referenced_type" : "_ZTIP11hw_device_t"
    }
   ],
   "referenced_type" : "_ZTIFiP11hw_device_tE",
   "return_type" : "_ZTIi",
   "self_type" : "_ZTIFiP11hw_device_tE",
   "source_file" : "/hardware/libhardware/include/hardware/hardware.h"
  },
  {
   "alignment" : 4,
   "linker_set_key" : "_ZTIFiP14alloc_device_tPK13native_handleE",
   "name" : "int (alloc_device_t *, const native_handle *)",
   "parameters" :
   [
    {
     "referenced_type" : "_ZTIP14alloc_device_t"
    },
    {
     "referenced_type" : "_ZTIPK13native_handle"
    }
   ],
   "referenced_type" : "_ZTIFiP14alloc_device_tPK13native_handleE",
   "return_type" : "_ZTIi",
   "self_type" : "_ZTIFiP14alloc_device_tPK13native_handleE",
   "source_file" : "/hardware/libhardware/include/hardware/gralloc.h"
  },
  {
   "alignment" : 4,
   "linker_set_key" : "_ZTIFiP14alloc_device_tiiiiPPK13native_handlePiE",
   "name" : "int (alloc_device_t *, int, int, int, int, const native_handle **, int *)",
   "parameters" :
   [
    {
     "referenced_type" : "_ZTIP14alloc_device_t"
    },
    {
     "referenced_type" : "_ZTIi"
    },
    {
     "referenced_type" : "_ZTIi"
    },
    {
     "referenced_type" : "_ZTIi"
    },
    {
     "referenced_type" : "_ZTIi"
    },
    {
     "referenced_type" : "_ZTIPPK13native_handle"
    },
    {
     "referenced_type" : "_ZTIPi"
    }
   ],
   "referenced_type" : "_ZTIFiP14alloc_device_tiiiiPPK13native_handlePiE",
   "return_type" : "_ZTIi",
   "self_type" : "_ZTIFiP14alloc_device_tiiiiPPK13native_handlePiE",
   "source_file" : "/hardware/libhardware/include/hardware/gralloc.h"
  },
  {
   "alignment" : 4,
   "linker_set_key" : "_ZTIFiP20framebuffer_device_tE",
   "name" : "int (framebuffer_device_t *)",
   "parameters" :
   [
    {
     "referenced_type" : "_ZTIP20framebuffer_device_t"
    }
   ],
   "referenced_type" : "_ZTIFiP20framebuffer_device_tE",
   "return_type" : "_ZTIi",
   "self_type" : "_ZTIFiP20framebuffer_device_tE",
   "source_file" : "/hardware/libhardware/include/hardware/fb.h"
  },
  {
   "alignment" : 4,
   "linker_set_key" : "_ZTIFiP20framebuffer_device_tPK13native_handleE",
   "name" : "int (framebuffer_device_t *, const native_handle *)",
   "parameters" :
   [
    {
     "referenced_type" : "_ZTIP20framebuffer_device_t"
    },
    {
     "referenced_type" : "_ZTIPK13native_handle"
    }
   ],
   "referenced_type" : "_ZTIFiP20framebuffer_device_tPK13native_handleE",
   "return_type" : "_ZTIi",
   "self_type" : "_ZTIFiP20framebuffer_device_tPK13native_handleE",
   "source_file" : "/hardware/libhardware/include/hardware/fb.h"
  },
  {
   "alignment" : 4,
   "linker_set_key" : "_ZTIFiP20framebuffer_device_tiE",
   "name" : "int (framebuffer_device_t *, int)",
   "parameters" :
   [
    {
     "referenced_type" : "_ZTIP20framebuffer_device_t"
    },
    {
     "referenced_type" : "_ZTIi"
    }
   ],
   "referenced_type" : "_ZTIFiP20framebuffer_device_tiE",
   "return_type" : "_ZTIi",
   "self_type" : "_ZTIFiP20framebuffer_device_tiE",
   "source_file" : "/hardware/libhardware/include/hardware/fb.h"
  },
  {
   "alignment" : 4,
   "linker_set_key" : "_ZTIFiP20framebuffer_device_tiiiiE",
   "name" : "int (framebuffer_device_t *, int, int, int, int)",
   "parameters" :
   [
    {
     "referenced_type" : "_ZTIP20framebuffer_device_t"
    },
    {
     "referenced_type" : "_ZTIi"
    },
    {
     "referenced_type" : "_ZTIi"
    },
    {
     "referenced_type" : "_ZTIi"
    },
    {
     "referenced_type" : "_ZTIi"
    }
   ],
   "referenced_type" : "_ZTIFiP20framebuffer_device_tiiiiE",
   "return_type" : "_ZTIi",
   "self_type" : "_ZTIFiP20framebuffer_device_tiiiiE",
   "source_file" : "/hardware/libhardware/include/hardware/fb.h"
  },
  {
   "alignment" : 4,
   "linker_set_key" : "_ZTIFiP8AIBinderjPK7AParcelPS1_E",
   "name" : "int (AIBinder *, unsigned int, const AParcel *, AParcel *)",
   "parameters" :
   [
    {
     "referenced_type" : "_ZTIP8AIBinder"
    },
    {
     "referenced_type" : "_ZTIj"
    },
    {
     "referenced_type" : "_ZTIPK7AParcel"
    },
    {
     "referenced_type" : "_ZTIP7AParcel"
    }
   ],
   "referenced_type" : "_ZTIFiP8AIBinderjPK7AParcelPS1_E",
   "return_type" : "_ZTIi",
   "self_type" : "_ZTIFiP8AIBinderjPK7AParcelPS1_E",
   "source_file" : "/frameworks/native/libs/binder/ndk/include_ndk/android/binder_interface_utils.h"
  },
  {
   "alignment" : 4,
   "linker_set_key" : "_ZTIFiPK11hw_module_tPKcPP11hw_device_tE",
   "name" : "int (const hw_module_t *, const char *, hw_device_t **)",
   "parameters" :
   [
    {
     "referenced_type" : "_ZTIPK11hw_module_t"
    },
    {
     "referenced_type" : "_ZTIPKc"
    },
    {
     "referenced_type" : "_ZTIPP11hw_device_t"
    }
   ],
   "referenced_type" : "_ZTIFiPK11hw_module_tPKcPP11hw_device_tE",
   "return_type" : "_ZTIi",
   "self_type" : "_ZTIFiPK11hw_module_tPKcPP11hw_device_tE",
   "source_file" : "/hardware/libhardware/include/hardware/hardware.h"
  },
  {
   "alignment" : 4,
   "linker_set_key" : "_ZTIFiPK16gralloc_module_tPK13native_handleE",
   "name" : "int (const gralloc_module_t *, const native_handle *)",
   "parameters" :
   [
    {
     "referenced_type" : "_ZTIPK16gralloc_module_t"
    },
    {
     "referenced_type" : "_ZTIPK13native_handle"
    }
   ],
   "referenced_type" : "_ZTIFiPK16gralloc_module_tPK13native_handleE",
   "return_type" : "_ZTIi",
   "self_type" : "_ZTIFiPK16gralloc_module_tPK13native_handleE",
   "source_file" : "/hardware/libhardware/include/hardware/gralloc.h"
  },
  {
   "alignment" : 4,
   "linker_set_key" : "_ZTIFiPK16gralloc_module_tPK13native_handlePiE",
   "name" : "int (const gralloc_module_t *, const native_handle *, int *)",
   "parameters" :
   [
    {
     "referenced_type" : "_ZTIPK16gralloc_module_t"
    },
    {
     "referenced_type" : "_ZTIPK13native_handle"
    },
    {
     "referenced_type" : "_ZTIPi"
    }
   ],
   "referenced_type" : "_ZTIFiPK16gralloc_module_tPK13native_handlePiE",
   "return_type" : "_ZTIi",
   "self_type" : "_ZTIFiPK16gralloc_module_tPK13native_handlePiE",
   "source_file" : "/hardware/libhardware/include/hardware/gralloc.h"
  },
  {
   "alignment" : 4,
   "linker_set_key" : "_ZTIFiPK16gralloc_module_tPK13native_handlePjS5_E",
   "name" : "int (const gralloc_module_t *, const native_handle *, unsigned int *, unsigned int *)",
   "parameters" :
   [
    {
     "referenced_type" : "_ZTIPK16gralloc_module_t"
    },
    {
     "referenced_type" : "_ZTIPK13native_handle"
    },
    {
     "referenced_type" : "_ZTIPj"
    },
    {
     "referenced_type" : "_ZTIPj"
    }
   ],
   "referenced_type" : "_ZTIFiPK16gralloc_module_tPK13native_handlePjS5_E",
   "return_type" : "_ZTIi",
   "self_type" : "_ZTIFiPK16gralloc_module_tPK13native_handlePjS5_E",
   "source_file" : "/hardware/libhardware/include/hardware/gralloc.h"
  },
  {
   "alignment" : 4,
   "linker_set_key" : "_ZTIFiPK16gralloc_module_tPK13native_handleiiiiiP13android_ycbcrE",
   "name" : "int (const gralloc_module_t *, const native_handle *, int, int, int, int, int, android_ycbcr *)",
   "parameters" :
   [
    {
     "referenced_type" : "_ZTIPK16gralloc_module_t"
    },
    {
     "referenced_type" : "_ZTIPK13native_handle"
    },
    {
     "referenced_type" : "_ZTIi"
    },
    {
     "referenced_type" : "_ZTIi"
    },
    {
     "referenced_type" : "_ZTIi"
    },
    {
     "referenced_type" : "_ZTIi"
    },
    {
     "referenced_type" : "_ZTIi"
    },
    {
     "referenced_type" : "_ZTIP13android_ycbcr"
    }
   ],
   "referenced_type" : "_ZTIFiPK16gralloc_module_tPK13native_handleiiiiiP13android_ycbcrE",
   "return_type" : "_ZTIi",
   "self_type" : "_ZTIFiPK16gralloc_module_tPK13native_handleiiiiiP13android_ycbcrE",
   "source_file" : "/hardware/libhardware/include/hardware/gralloc.h"
  },
  {
   "alignment" : 4,
   "linker_set_key" : "_ZTIFiPK16gralloc_module_tPK13native_handleiiiiiP13android_ycbcriE",
   "name" : "int (const gralloc_module_t *, const native_handle *, int, int, int, int, int, android_ycbcr *, int)",
   "parameters" :
   [
    {
     "referenced_type" : "_ZTIPK16gralloc_module_t"
    },
    {
     "referenced_type" : "_ZTIPK13native_handle"
    },
    {
     "referenced_type" : "_ZTIi"
    },
    {
     "referenced_type" : "_ZTIi"
    },
    {
     "referenced_type" : "_ZTIi"
    },
    {
     "referenced_type" : "_ZTIi"
    },
    {
     "referenced_type" : "_ZTIi"
    },
    {
     "referenced_type" : "_ZTIP13android_ycbcr"
    },
    {
     "referenced_type" : "_ZTIi"
    }
   ],
   "referenced_type" : "_ZTIFiPK16gralloc_module_tPK13native_handleiiiiiP13android_ycbcriE",
   "return_type" : "_ZTIi",
   "self_type" : "_ZTIFiPK16gralloc_module_tPK13native_handleiiiiiP13android_ycbcriE",
   "source_file" : "/hardware/libhardware/include/hardware/gralloc.h"
  },
  {
   "alignment" : 4,
   "linker_set_key" : "_ZTIFiPK16gralloc_module_tPK13native_handleiiiiiPPvE",
   "name" : "int (const gralloc_module_t *, const native_handle *, int, int, int, int, int, void **)",
   "parameters" :
   [
    {
     "referenced_type" : "_ZTIPK16gralloc_module_t"
    },
    {
     "referenced_type" : "_ZTIPK13native_handle"
    },
    {
     "referenced_type" : "_ZTIi"
    },
    {
     "referenced_type" : "_ZTIi"
    },
    {
     "referenced_type" : "_ZTIi"
    },
    {
     "referenced_type" : "_ZTIi"
    },
    {
     "referenced_type" : "_ZTIi"
    },
    {
     "referenced_type" : "_ZTIPPv"
    }
   ],
   "referenced_type" : "_ZTIFiPK16gralloc_module_tPK13native_handleiiiiiPPvE",
   "return_type" : "_ZTIi",
   "self_type" : "_ZTIFiPK16gralloc_module_tPK13native_handleiiiiiPPvE",
   "source_file" : "/hardware/libhardware/include/hardware/gralloc.h"
  },
  {
   "alignment" : 4,
   "linker_set_key" : "_ZTIFiPK16gralloc_module_tPK13native_handleiiiiiPPviE",
   "name" : "int (const gralloc_module_t *, const native_handle *, int, int, int, int, int, void **, int)",
   "parameters" :
   [
    {
     "referenced_type" : "_ZTIPK16gralloc_module_t"
    },
    {
     "referenced_type" : "_ZTIPK13native_handle"
    },
    {
     "referenced_type" : "_ZTIi"
    },
    {
     "referenced_type" : "_ZTIi"
    },
    {
     "referenced_type" : "_ZTIi"
    },
    {
     "referenced_type" : "_ZTIi"
    },
    {
     "referenced_type" : "_ZTIi"
    },
    {
     "referenced_type" : "_ZTIPPv"
    },
    {
     "referenced_type" : "_ZTIi"
    }
   ],
   "referenced_type" : "_ZTIFiPK16gralloc_module_tPK13native_handleiiiiiPPviE",
   "return_type" : "_ZTIi",
   "self_type" : "_ZTIFiPK16gralloc_module_tPK13native_handleiiiiiPPviE",
   "source_file" : "/hardware/libhardware/include/hardware/gralloc.h"
  },
  {
   "alignment" : 4,
   "linker_set_key" : "_ZTIFiPK16gralloc_module_tPK13native_handlejjiijE",
   "name" : "int (const gralloc_module_t *, const native_handle *, unsigned int, unsigned int, int, int, unsigned int)",
   "parameters" :
   [
    {
     "referenced_type" : "_ZTIPK16gralloc_module_t"
    },
    {
     "referenced_type" : "_ZTIPK13native_handle"
    },
    {
     "referenced_type" : "_ZTIj"
    },
    {
     "referenced_type" : "_ZTIj"
    },
    {
     "referenced_type" : "_ZTIi"
    },
    {
     "referenced_type" : "_ZTIi"
    },
    {
     "referenced_type" : "_ZTIj"
    }
   ],
   "referenced_type" : "_ZTIFiPK16gralloc_module_tPK13native_handlejjiijE",
   "return_type" : "_ZTIi",
   "self_type" : "_ZTIFiPK16gralloc_module_tPK13native_handlejjiijE",
   "source_file" : "/hardware/libhardware/include/hardware/gralloc.h"
  },
  {
   "alignment" : 4,
   "linker_set_key" : "_ZTIFiPK16gralloc_module_tizE",
   "name" : "int (const gralloc_module_t *, int, ...)",
   "parameters" :
   [
    {
     "referenced_type" : "_ZTIPK16gralloc_module_t"
    },
    {
     "referenced_type" : "_ZTIi"
    }
   ],
   "referenced_type" : "_ZTIFiPK16gralloc_module_tizE",
   "return_type" : "_ZTIi",
   "self_type" : "_ZTIFiPK16gralloc_module_tizE",
   "source_file" : "/hardware/libhardware/include/hardware/gralloc.h"
  },
  {
   "alignment" : 4,
   "linker_set_key" : "_ZTIFiPvE",
   "name" : "int (void *)",
   "parameters" :
   [
    {
     "referenced_type" : "_ZTIPv"
    }
   ],
   "referenced_type" : "_ZTIFiPvE",
   "return_type" : "_ZTIi",
   "self_type" : "_ZTIFiPvE",
   "source_file" : "/system/core/libutils/include/utils/AndroidThreads.h"
  },
  {
   "alignment" : 4,
   "linker_set_key" : "_ZTIFvP14alloc_device_tPciE",
   "name" : "void (alloc_device_t *, char *, int)",
   "parameters" :
   [
    {
     "referenced_type" : "_ZTIP14alloc_device_t"
    },
    {
     "referenced_type" : "_ZTIPc"
    },
    {
     "referenced_type" : "_ZTIi"
    }
   ],
   "referenced_type" : "_ZTIFvP14alloc_device_tPciE",
   "return_type" : "_ZTIv",
   "self_type" : "_ZTIFvP14alloc_device_tPciE",
   "source_file" : "/hardware/libhardware/include/hardware/gralloc.h"
  },
  {
   "alignment" : 4,
   "linker_set_key" : "_ZTIFvP20framebuffer_device_tPciE",
   "name" : "void (framebuffer_device_t *, char *, int)",
   "parameters" :
   [
    {
     "referenced_type" : "_ZTIP20framebuffer_device_t"
    },
    {
     "referenced_type" : "_ZTIPc"
    },
    {
     "referenced_type" : "_ZTIi"
    }
   ],
   "referenced_type" : "_ZTIFvP20framebuffer_device_tPciE",
   "return_type" : "_ZTIv",
   "self_type" : "_ZTIFvP20framebuffer_device_tPciE",
   "source_file" : "/hardware/libhardware/include/hardware/fb.h"
  },
  {
   "alignment" : 4,
   "linker_set_key" : "_ZTIFvP21android_native_base_tE",
   "name" : "void (android_native_base_t *)",
   "parameters" :
   [
    {
     "referenced_type" : "_ZTIP21android_native_base_t"
    }
   ],
   "referenced_type" : "_ZTIFvP21android_native_base_tE",
   "return_type" : "_ZTIv",
   "self_type" : "_ZTIFvP21android_native_base_tE",
   "source_file" : "/frameworks/native/libs/nativebase/include/nativebase/nativebase.h"
  },
  {
   "alignment" : 4,
   "linker_set_key" : "_ZTIFvPN7android6ParcelEPKhjPKyjPvE",
   "name" : "void (android::Parcel *, const unsigned char *, unsigned int, const unsigned long long *, unsigned int, void *)",
   "parameters" :
   [
    {
     "referenced_type" : "_ZTIPN7android6ParcelE"
    },
    {
     "referenced_type" : "_ZTIPKh"
    },
    {
     "referenced_type" : "_ZTIj"
    },
    {
     "referenced_type" : "_ZTIPKy"
    },
    {
     "referenced_type" : "_ZTIj"
    },
    {
     "referenced_type" : "_ZTIPv"
    }
   ],
   "referenced_type" : "_ZTIFvPN7android6ParcelEPKhjPKyjPvE",
   "return_type" : "_ZTIv",
   "self_type" : "_ZTIFvPN7android6ParcelEPKhjPKyjPvE",
   "source_file" : "/frameworks/native/libs/binder/include/binder/Parcel.h"
  }
 ],
 "functions" :
 [
  {
   "access" : "protected",
   "function_name" : "android::BnInterface<android::IOMXObserver>::onAsBinder",
   "linker_set_key" : "_ZN7android11BnInterfaceINS_12IOMXObserverEE10onAsBinderEv",
   "parameters" :
   [
    {
     "is_this_ptr" : true,
     "referenced_type" : "_ZTIPN7android11BnInterfaceINS_12IOMXObserverEEE"
    }
   ],
   "return_type" : "_ZTIPN7android7IBinderE",
   "source_file" : "/frameworks/native/libs/binder/include/binder/IInterface.h"
  },
  {
   "access" : "protected",
   "function_name" : "android::BnInterface<android::IOMXBufferSource>::onAsBinder",
   "linker_set_key" : "_ZN7android11BnInterfaceINS_16IOMXBufferSourceEE10onAsBinderEv",
   "parameters" :
   [
    {
     "is_this_ptr" : true,
     "referenced_type" : "_ZTIPN7android11BnInterfaceINS_16IOMXBufferSourceEEE"
    }
   ],
   "return_type" : "_ZTIPN7android7IBinderE",
   "source_file" : "/frameworks/native/libs/binder/include/binder/IInterface.h"
  },
  {
   "access" : "protected",
   "function_name" : "android::BnInterface<android::IOMXNode>::onAsBinder",
   "linker_set_key" : "_ZN7android11BnInterfaceINS_8IOMXNodeEE10onAsBinderEv",
   "parameters" :
   [
    {
     "is_this_ptr" : true,
     "referenced_type" : "_ZTIPN7android11BnInterfaceINS_8IOMXNodeEEE"
    }
   ],
   "return_type" : "_ZTIPN7android7IBinderE",
   "source_file" : "/frameworks/native/libs/binder/include/binder/IInterface.h"
  },
  {
   "function_name" : "android::HpInterface<android::BpOMXNode, android::hardware::media::omx::V1_0::utils::LWOmxNode>::HpInterface",
   "linker_set_key" : "_ZN7android11HpInterfaceINS_9BpOMXNodeENS_8hardware5media3omx4V1_05utils9LWOmxNodeEJEEC2ERKNS_2spINS_7IBinderEEE",
   "parameters" :
   [
    {
     "is_this_ptr" : true,
     "referenced_type" : "_ZTIPN7android11HpInterfaceINS_9BpOMXNodeENS_8hardware5media3omx4V1_05utils9LWOmxNodeEJEEE"
    },
    {
     "referenced_type" : "_ZTIRKN7android2spINS_7IBinderEEE"
    }
   ],
   "return_type" : "_ZTIv",
   "source_file" : "/system/libhidl/transport/token/1.0/utils/include/hidl/HybridInterface.h"
  },
  {
   "function_name" : "android::H2BConverter<android::hardware::media::omx::V1_0::IOmxNode, android::BnOMXNode>::onTransact",
   "linker_set_key" : "_ZN7android12H2BConverterINS_8hardware5media3omx4V1_08IOmxNodeENS_9BnOMXNodeEE10onTransactEjRKNS_6ParcelEPS8_j",
   "parameters" :
   [
    {
     "is_this_ptr" : true,
     "referenced_type" : "_ZTIPN7android12H2BConverterINS_8hardware5media3omx4V1_08IOmxNodeENS_9BnOMXNodeEEE"
    },
    {
     "referenced_type" : "_ZTIj"
    },
    {
     "referenced_type" : "_ZTIRKN7android6ParcelE"
    },
    {
     "referenced_type" : "_ZTIPN7android6ParcelE"
    },
    {
     "default_arg" : true,
     "referenced_type" : "_ZTIj"
    }
   ],
   "return_type" : "_ZTIi",
   "source_file" : "/system/libhidl/transport/token/1.0/utils/include/hidl/HybridInterface.h"
  },
  {
   "function_name" : "android::H2BConverter<android::hardware::media::omx::V1_0::IOmxNode, android::BnOMXNode>::linkToDeath",
   "linker_set_key" : "_ZN7android12H2BConverterINS_8hardware5media3omx4V1_08IOmxNodeENS_9BnOMXNodeEE11linkToDeathERKNS_2spINS_7IBinder14DeathRecipientEEEPvj",
   "parameters" :
   [
    {
     "is_this_ptr" : true,
     "referenced_type" : "_ZTIPN7android12H2BConverterINS_8hardware5media3omx4V1_08IOmxNodeENS_9BnOMXNodeEEE"
    },
    {
     "referenced_type" : "_ZTIRKN7android2spINS_7IBinder14DeathRecipientEEE"
    },
    {
     "default_arg" : true,
     "referenced_type" : "_ZTIPv"
    },
    {
     "default_arg" : true,
     "referenced_type" : "_ZTIj"
    }
   ],
   "return_type" : "_ZTIi",
   "source_file" : "/system/libhidl/transport/token/1.0/utils/include/hidl/HybridInterface.h"
  },
  {
   "function_name" : "android::H2BConverter<android::hardware::media::omx::V1_0::IOmxNode, android::BnOMXNode>::unlinkToDeath",
   "linker_set_key" : "_ZN7android12H2BConverterINS_8hardware5media3omx4V1_08IOmxNodeENS_9BnOMXNodeEE13unlinkToDeathERKNS_2wpINS_7IBinder14DeathRecipientEEEPvjPSB_",
   "parameters" :
   [
    {
     "is_this_ptr" : true,
     "referenced_type" : "_ZTIPN7android12H2BConverterINS_8hardware5media3omx4V1_08IOmxNodeENS_9BnOMXNodeEEE"
    },
    {
     "referenced_type" : "_ZTIRKN7android2wpINS_7IBinder14DeathRecipientEEE"
    },
    {
     "default_arg" : true,
     "referenced_type" : "_ZTIPv"
    },
    {
     "default_arg" : true,
     "referenced_type" : "_ZTIj"
    },
    {
     "default_arg" : true,
     "referenced_type" : "_ZTIPN7android2wpINS_7IBinder14DeathRecipientEEE"
    }
   ],
   "return_type" : "_ZTIi",
   "source_file" : "/system/libhidl/transport/token/1.0/utils/include/hidl/HybridInterface.h"
  },
  {
   "function_name" : "android::IOMXObserver::asInterface",
   "linker_set_key" : "_ZN7android12IOMXObserver11asInterfaceERKNS_2spINS_7IBinderEEE",
   "parameters" :
   [
    {
     "referenced_type" : "_ZTIRKN7android2spINS_7IBinderEEE"
    }
   ],
   "return_type" : "_ZTIN7android2spINS_12IOMXObserverEEE",
   "source_file" : "/frameworks/av/media/libmedia/include/media/IOMX.h"
  },
  {
   "function_name" : "android::IOMXObserver::getDefaultImpl",
   "linker_set_key" : "_ZN7android12IOMXObserver14getDefaultImplEv",
   "return_type" : "_ZTIRKNSt3__110unique_ptrIN7android12IOMXObserverENS_14default_deleteIS2_EEEE",
   "source_file" : "/frameworks/av/media/libmedia/include/media/IOMX.h"
  },
  {
   "function_name" : "android::IOMXObserver::setDefaultImpl",
   "linker_set_key" : "_ZN7android12IOMXObserver14setDefaultImplENSt3__110unique_ptrIS0_NS1_14default_deleteIS0_EEEE",
   "parameters" :
   [
    {
     "referenced_type" : "_ZTINSt3__110unique_ptrIN7android12IOMXObserverENS_14default_deleteIS2_EEEE"
    }
   ],
   "return_type" : "_ZTIb",
   "source_file" : "/frameworks/av/media/libmedia/include/media/IOMX.h"
  },
  {
   "function_name" : "android::IOMXObserver::IOMXObserver",
   "linker_set_key" : "_ZN7android12IOMXObserverC2Ev",
   "parameters" :
   [
    {
     "is_this_ptr" : true,
     "referenced_type" : "_ZTIPN7android12IOMXObserverE"
    }
   ],
   "return_type" : "_ZTIv",
   "source_file" : "/frameworks/av/media/libmedia/include/media/IOMX.h"
  },
  {
   "function_name" : "android::IOMXObserver::~IOMXObserver",
   "linker_set_key" : "_ZN7android12IOMXObserverD0Ev",
   "parameters" :
   [
    {
     "is_this_ptr" : true,
     "referenced_type" : "_ZTIPN7android12IOMXObserverE"
    }
   ],
   "return_type" : "_ZTIv",
   "source_file" : "/frameworks/av/media/libmedia/include/media/IOMX.h"
  },
  {
   "function_name" : "android::IOMXObserver::~IOMXObserver",
   "linker_set_key" : "_ZN7android12IOMXObserverD1Ev",
   "parameters" :
   [
    {
     "is_this_ptr" : true,
     "referenced_type" : "_ZTIPN7android12IOMXObserverE"
    }
   ],
   "return_type" : "_ZTIv",
   "source_file" : "/frameworks/av/media/libmedia/include/media/IOMX.h"
  },
  {
   "function_name" : "android::IOMXObserver::~IOMXObserver",
   "linker_set_key" : "_ZN7android12IOMXObserverD2Ev",
   "parameters" :
   [
    {
     "is_this_ptr" : true,
     "referenced_type" : "_ZTIPN7android12IOMXObserverE"
    }
   ],
   "return_type" : "_ZTIv",
   "source_file" : "/frameworks/av/media/libmedia/include/media/IOMX.h"
  },
  {
   "function_name" : "android::BnOMXObserver::onTransact",
   "linker_set_key" : "_ZN7android13BnOMXObserver10onTransactEjRKNS_6ParcelEPS1_j",
   "parameters" :
   [
    {
     "is_this_ptr" : true,
     "referenced_type" : "_ZTIPN7android13BnOMXObserverE"
    },
    {
     "referenced_type" : "_ZTIj"
    },
    {
     "referenced_type" : "_ZTIRKN7android6ParcelE"
    },
    {
     "referenced_type" : "_ZTIPN7android6ParcelE"
    },
    {
     "default_arg" : true,
     "referenced_type" : "_ZTIj"
    }
   ],
   "return_type" : "_ZTIi",
   "source_file" : "/frameworks/av/media/libmedia/include/media/IOMX.h"
  },
  {
   "function_name" : "android::MediaCodecBuffer::base",
   "linker_set_key" : "_ZN7android16MediaCodecBuffer4baseEv",
   "parameters" :
   [
    {
     "is_this_ptr" : true,
     "referenced_type" : "_ZTIPN7android16MediaCodecBufferE"
    }
   ],
   "return_type" : "_ZTIPh",
   "source_file" : "/frameworks/av/media/libmedia/include/media/MediaCodecBuffer.h"
  },
  {
   "function_name" : "android::MediaCodecBuffer::data",
   "linker_set_key" : "_ZN7android16MediaCodecBuffer4dataEv",
   "parameters" :
   [
    {
     "is_this_ptr" : true,
     "referenced_type" : "_ZTIPN7android16MediaCodecBufferE"
    }
   ],
   "return_type" : "_ZTIPh",
   "source_file" : "/frameworks/av/media/libmedia/include/media/MediaCodecBuffer.h"
  },
  {
   "function_name" : "android::MediaCodecBuffer::meta",
   "linker_set_key" : "_ZN7android16MediaCodecBuffer4metaEv",
   "parameters" :
   [
    {
     "is_this_ptr" : true,
     "referenced_type" : "_ZTIPN7android16MediaCodecBufferE"
    }
   ],
   "return_type" : "_ZTIN7android2spINS_8AMessageEEE",
   "source_file" : "/frameworks/av/media/libmedia/include/media/MediaCodecBuffer.h"
  },
  {
   "function_name" : "android::MediaCodecBuffer::format",
   "linker_set_key" : "_ZN7android16MediaCodecBuffer6formatEv",
   "parameters" :
   [
    {
     "is_this_ptr" : true,
     "referenced_type" : "_ZTIPN7android16MediaCodecBufferE"
    }
   ],
   "return_type" : "_ZTIN7android2spINS_8AMessageEEE",
   "source_file" : "/frameworks/av/media/libmedia/include/media/MediaCodecBuffer.h"
  },
  {
   "function_name" : "android::MediaCodecBuffer::setRange",
   "linker_set_key" : "_ZN7android16MediaCodecBuffer8setRangeEjj",
   "parameters" :
   [
    {
     "is_this_ptr" : true,
     "referenced_type" : "_ZTIPN7android16MediaCodecBufferE"
    },
    {
     "referenced_type" : "_ZTIj"
    },
    {
     "referenced_type" : "_ZTIj"
    }
   ],
   "return_type" : "_ZTIi",
   "source_file" : "/frameworks/av/media/libmedia/include/media/MediaCodecBuffer.h"
  },
  {
   "function_name" : "android::MediaCodecBuffer::setFormat",
   "linker_set_key" : "_ZN7android16MediaCodecBuffer9setFormatERKNS_2spINS_8AMessageEEE",
   "parameters" :
   [
    {
     "is_this_ptr" : true,
     "referenced_type" : "_ZTIPN7android16MediaCodecBufferE"
    },
    {
     "referenced_type" : "_ZTIRKN7android2spINS_8AMessageEEE"
    }
   ],
   "return_type" : "_ZTIv",
   "source_file" : "/frameworks/av/media/libmedia/include/media/MediaCodecBuffer.h"
  },
  {
   "function_name" : "android::MediaCodecBuffer::MediaCodecBuffer",
   "linker_set_key" : "_ZN7android16MediaCodecBufferC1ERKNS_2spINS_8AMessageEEERKNS1_INS_7ABufferEEE",
   "parameters" :
   [
    {
     "is_this_ptr" : true,
     "referenced_type" : "_ZTIPN7android16MediaCodecBufferE"
    },
    {
     "referenced_type" : "_ZTIRKN7android2spINS_8AMessageEEE"
    },
    {
     "referenced_type" : "_ZTIRKN7android2spINS_7ABufferEEE"
    }
   ],
   "return_type" : "_ZTIv",
   "source_file" : "/frameworks/av/media/libmedia/include/media/MediaCodecBuffer.h"
  },
  {
   "function_name" : "android::MediaCodecBuffer::MediaCodecBuffer",
   "linker_set_key" : "_ZN7android16MediaCodecBufferC2ERKNS_2spINS_8AMessageEEERKNS1_INS_7ABufferEEE",
   "parameters" :
   [
    {
     "is_this_ptr" : true,
     "referenced_type" : "_ZTIPN7android16MediaCodecBufferE"
    },
    {
     "referenced_type" : "_ZTIRKN7android2spINS_8AMessageEEE"
    },
    {
     "referenced_type" : "_ZTIRKN7android2spINS_7ABufferEEE"
    }
   ],
   "return_type" : "_ZTIv",
   "source_file" : "/frameworks/av/media/libmedia/include/media/MediaCodecBuffer.h"
  },
  {
   "function_name" : "android::sp<android::GraphicBuffer>::operator=",
   "linker_set_key" : "_ZN7android2spINS_13GraphicBufferEEaSERKS2_",
   "parameters" :
   [
    {
     "is_this_ptr" : true,
     "referenced_type" : "_ZTIPN7android2spINS_13GraphicBufferEEE"
    },
    {
     "referenced_type" : "_ZTIRKN7android2spINS_13GraphicBufferEEE"
    }
   ],
   "return_type" : "_ZTIRN7android2spINS_13GraphicBufferEEE",
   "source_file" : "/system/core/libutils/include/utils/StrongPointer.h"
  },
  {
   "function_name" : "android::IOMXNode::asInterface",
   "linker_set_key" : "_ZN7android8IOMXNode11asInterfaceERKNS_2spINS_7IBinderEEE",
   "parameters" :
   [
    {
     "referenced_type" : "_ZTIRKN7android2spINS_7IBinderEEE"
    }
   ],
   "return_type" : "_ZTIN7android2spINS_8IOMXNodeEEE",
   "source_file" : "/frameworks/av/media/libmedia/include/media/IOMX.h"
  },
  {
   "function_name" : "android::IOMXNode::IOMXNode",
   "linker_set_key" : "_ZN7android8IOMXNodeC2Ev",
   "parameters" :
   [
    {
     "is_this_ptr" : true,
     "referenced_type" : "_ZTIPN7android8IOMXNodeE"
    }
   ],
   "return_type" : "_ZTIv",
   "source_file" : "/frameworks/av/media/libmedia/include/media/IOMX.h"
  },
  {
   "function_name" : "android::IOMXNode::~IOMXNode",
   "linker_set_key" : "_ZN7android8IOMXNodeD0Ev",
   "parameters" :
   [
    {
     "is_this_ptr" : true,
     "referenced_type" : "_ZTIPN7android8IOMXNodeE"
    }
   ],
   "return_type" : "_ZTIv",
   "source_file" : "/frameworks/av/media/libmedia/include/media/IOMX.h"
  },
  {
   "function_name" : "android::IOMXNode::~IOMXNode",
   "linker_set_key" : "_ZN7android8IOMXNodeD1Ev",
   "parameters" :
   [
    {
     "is_this_ptr" : true,
     "referenced_type" : "_ZTIPN7android8IOMXNodeE"
    }
   ],
   "return_type" : "_ZTIv",
   "source_file" : "/frameworks/av/media/libmedia/include/media/IOMX.h"
  },
  {
   "function_name" : "android::IOMXNode::~IOMXNode",
   "linker_set_key" : "_ZN7android8IOMXNodeD2Ev",
   "parameters" :
   [
    {
     "is_this_ptr" : true,
     "referenced_type" : "_ZTIPN7android8IOMXNodeE"
    }
   ],
   "return_type" : "_ZTIv",
   "source_file" : "/frameworks/av/media/libmedia/include/media/IOMX.h"
  },
  {
   "function_name" : "android::hardware::media::omx::V1_0::utils::LWOmxObserver::onMessages",
   "linker_set_key" : "_ZN7android8hardware5media3omx4V1_05utils13LWOmxObserver10onMessagesERKNSt3__14listINS_11omx_messageENS6_9allocatorIS8_EEEE",
   "parameters" :
   [
    {
     "is_this_ptr" : true,
     "referenced_type" : "_ZTIPN7android8hardware5media3omx4V1_05utils13LWOmxObserverE"
    },
    {
     "referenced_type" : "_ZTIRKNSt3__14listIN7android11omx_messageENS_9allocatorIS2_EEEE"
    }
   ],
   "return_type" : "_ZTIv",
   "source_file" : "/frameworks/av/media/libmedia/include/media/omx/1.0/WOmxObserver.h"
  },
  {
   "function_name" : "android::hardware::media::omx::V1_0::utils::LWOmxObserver::LWOmxObserver",
   "linker_set_key" : "_ZN7android8hardware5media3omx4V1_05utils13LWOmxObserverC1ERKNS_2spINS3_12IOmxObserverEEE",
   "parameters" :
   [
    {
     "is_this_ptr" : true,
     "referenced_type" : "_ZTIPN7android8hardware5media3omx4V1_05utils13LWOmxObserverE"
    },
    {
     "referenced_type" : "_ZTIRKN7android2spINS_8hardware5media3omx4V1_012IOmxObserverEEE"
    }
   ],
   "return_type" : "_ZTIv",
   "source_file" : "/frameworks/av/media/libmedia/include/media/omx/1.0/WOmxObserver.h"
  },
  {
   "function_name" : "android::hardware::media::omx::V1_0::utils::LWOmxObserver::LWOmxObserver",
   "linker_set_key" : "_ZN7android8hardware5media3omx4V1_05utils13LWOmxObserverC2ERKNS_2spINS3_12IOmxObserverEEE",
   "parameters" :
   [
    {
     "is_this_ptr" : true,
     "referenced_type" : "_ZTIPN7android8hardware5media3omx4V1_05utils13LWOmxObserverE"
    },
    {
     "referenced_type" : "_ZTIRKN7android2spINS_8hardware5media3omx4V1_012IOmxObserverEEE"
    }
   ],
   "return_type" : "_ZTIv",
   "source_file" : "/frameworks/av/media/libmedia/include/media/omx/1.0/WOmxObserver.h"
  },
  {
   "function_name" : "android::hardware::media::omx::V1_0::utils::TWOmxObserver::onMessages",
   "linker_set_key" : "_ZN7android8hardware5media3omx4V1_05utils13TWOmxObserver10onMessagesERKNS0_8hidl_vecINS3_7MessageEEE",
   "parameters" :
   [
    {
     "is_this_ptr" : true,
     "referenced_type" : "_ZTIPN7android8hardware5media3omx4V1_05utils13TWOmxObserverE"
    },
    {
     "referenced_type" : "_ZTIRKN7android8hardware8hidl_vecINS0_5media3omx4V1_07MessageEEE"
    }
   ],
   "return_type" : "_ZTIN7android8hardware6ReturnIvEE",
   "source_file" : "/frameworks/av/media/libmedia/include/media/omx/1.0/WOmxObserver.h"
  },
  {
   "function_name" : "android::hardware::media::omx::V1_0::utils::TWOmxObserver::TWOmxObserver",
   "linker_set_key" : "_ZN7android8hardware5media3omx4V1_05utils13TWOmxObserverC1ERKNS_2spINS_12IOMXObserverEEE",
   "parameters" :
   [
    {
     "is_this_ptr" : true,
     "referenced_type" : "_ZTIPN7android8hardware5media3omx4V1_05utils13TWOmxObserverE"
    },
    {
     "referenced_type" : "_ZTIRKN7android2spINS_12IOMXObserverEEE"
    }
   ],
   "return_type" : "_ZTIv",
   "source_file" : "/frameworks/av/media/libmedia/include/media/omx/1.0/WOmxObserver.h"
  },
  {
   "function_name" : "android::hardware::media::omx::V1_0::utils::TWOmxObserver::TWOmxObserver",
   "linker_set_key" : "_ZN7android8hardware5media3omx4V1_05utils13TWOmxObserverC2ERKNS_2spINS_12IOMXObserverEEE",
   "parameters" :
   [
    {
     "is_this_ptr" : true,
     "referenced_type" : "_ZTIPN7android8hardware5media3omx4V1_05utils13TWOmxObserverE"
    },
    {
     "referenced_type" : "_ZTIRKN7android2spINS_12IOMXObserverEEE"
    }
   ],
   "return_type" : "_ZTIv",
   "source_file" : "/frameworks/av/media/libmedia/include/media/omx/1.0/WOmxObserver.h"
  },
  {
   "function_name" : "android::hardware::media::omx::V1_0::utils::LWOmxBufferSource::onOmxLoaded",
   "linker_set_key" : "_ZN7android8hardware5media3omx4V1_05utils17LWOmxBufferSource11onOmxLoadedEv",
   "parameters" :
   [
    {
     "is_this_ptr" : true,
     "referenced_type" : "_ZTIPN7android8hardware5media3omx4V1_05utils17LWOmxBufferSourceE"
    }
   ],
   "return_type" : "_ZTIN7android6binder6StatusE",
   "source_file" : "/frameworks/av/media/libmedia/include/media/omx/1.0/WOmxBufferSource.h"
  },
  {
   "function_name" : "android::hardware::media::omx::V1_0::utils::LWOmxBufferSource::onOmxExecuting",
   "linker_set_key" : "_ZN7android8hardware5media3omx4V1_05utils17LWOmxBufferSource14onOmxExecutingEv",
   "parameters" :
   [
    {
     "is_this_ptr" : true,
     "referenced_type" : "_ZTIPN7android8hardware5media3omx4V1_05utils17LWOmxBufferSourceE"
    }
   ],
   "return_type" : "_ZTIN7android6binder6StatusE",
   "source_file" : "/frameworks/av/media/libmedia/include/media/omx/1.0/WOmxBufferSource.h"
  },
  {
   "function_name" : "android::hardware::media::omx::V1_0::utils::LWOmxBufferSource::onInputBufferAdded",
   "linker_set_key" : "_ZN7android8hardware5media3omx4V1_05utils17LWOmxBufferSource18onInputBufferAddedEi",
   "parameters" :
   [
    {
     "is_this_ptr" : true,
     "referenced_type" : "_ZTIPN7android8hardware5media3omx4V1_05utils17LWOmxBufferSourceE"
    },
    {
     "referenced_type" : "_ZTIi"
    }
   ],
   "return_type" : "_ZTIN7android6binder6StatusE",
   "source_file" : "/frameworks/av/media/libmedia/include/media/omx/1.0/WOmxBufferSource.h"
  },
  {
   "function_name" : "android::hardware::media::omx::V1_0::utils::LWOmxBufferSource::onInputBufferEmptied",
   "linker_set_key" : "_ZN7android8hardware5media3omx4V1_05utils17LWOmxBufferSource20onInputBufferEmptiedEiRKNS_18OMXFenceParcelableE",
   "parameters" :
   [
    {
     "is_this_ptr" : true,
     "referenced_type" : "_ZTIPN7android8hardware5media3omx4V1_05utils17LWOmxBufferSourceE"
    },
    {
     "referenced_type" : "_ZTIi"
    },
    {
     "referenced_type" : "_ZTIRKN7android18OMXFenceParcelableE"
    }
   ],
   "return_type" : "_ZTIN7android6binder6StatusE",
   "source_file" : "/frameworks/av/media/libmedia/include/media/omx/1.0/WOmxBufferSource.h"
  },
  {
   "function_name" : "android::hardware::media::omx::V1_0::utils::LWOmxBufferSource::onOmxIdle",
   "linker_set_key" : "_ZN7android8hardware5media3omx4V1_05utils17LWOmxBufferSource9onOmxIdleEv",
   "parameters" :
   [
    {
     "is_this_ptr" : true,
     "referenced_type" : "_ZTIPN7android8hardware5media3omx4V1_05utils17LWOmxBufferSourceE"
    }
   ],
   "return_type" : "_ZTIN7android6binder6StatusE",
   "source_file" : "/frameworks/av/media/libmedia/include/media/omx/1.0/WOmxBufferSource.h"
  },
  {
   "function_name" : "android::hardware::media::omx::V1_0::utils::LWOmxBufferSource::LWOmxBufferSource",
   "linker_set_key" : "_ZN7android8hardware5media3omx4V1_05utils17LWOmxBufferSourceC1ERKNS_2spINS3_16IOmxBufferSourceEEE",
   "parameters" :
   [
    {
     "is_this_ptr" : true,
     "referenced_type" : "_ZTIPN7android8hardware5media3omx4V1_05utils17LWOmxBufferSourceE"
    },
    {
     "referenced_type" : "_ZTIRKN7android2spINS_8hardware5media3omx4V1_016IOmxBufferSourceEEE"
    }
   ],
   "return_type" : "_ZTIv",
   "source_file" : "/frameworks/av/media/libmedia/include/media/omx/1.0/WOmxBufferSource.h"
  },
  {
   "function_name" : "android::hardware::media::omx::V1_0::utils::LWOmxBufferSource::LWOmxBufferSource",
   "linker_set_key" : "_ZN7android8hardware5media3omx4V1_05utils17LWOmxBufferSourceC2ERKNS_2spINS3_16IOmxBufferSourceEEE",
   "parameters" :
   [
    {
     "is_this_ptr" : true,
     "referenced_type" : "_ZTIPN7android8hardware5media3omx4V1_05utils17LWOmxBufferSourceE"
    },
    {
     "referenced_type" : "_ZTIRKN7android2spINS_8hardware5media3omx4V1_016IOmxBufferSourceEEE"
    }
   ],
   "return_type" : "_ZTIv",
   "source_file" : "/frameworks/av/media/libmedia/include/media/omx/1.0/WOmxBufferSource.h"
  },
  {
   "function_name" : "android::hardware::media::omx::V1_0::utils::TWOmxBufferSource::onOmxLoaded",
   "linker_set_key" : "_ZN7android8hardware5media3omx4V1_05utils17TWOmxBufferSource11onOmxLoadedEv",
   "parameters" :
   [
    {
     "is_this_ptr" : true,
     "referenced_type" : "_ZTIPN7android8hardware5media3omx4V1_05utils17TWOmxBufferSourceE"
    }
   ],
   "return_type" : "_ZTIN7android8hardware6ReturnIvEE",
   "source_file" : "/frameworks/av/media/libmedia/include/media/omx/1.0/WOmxBufferSource.h"
  },
  {
   "function_name" : "android::hardware::media::omx::V1_0::utils::TWOmxBufferSource::onOmxExecuting",
   "linker_set_key" : "_ZN7android8hardware5media3omx4V1_05utils17TWOmxBufferSource14onOmxExecutingEv",
   "parameters" :
   [
    {
     "is_this_ptr" : true,
     "referenced_type" : "_ZTIPN7android8hardware5media3omx4V1_05utils17TWOmxBufferSourceE"
    }
   ],
   "return_type" : "_ZTIN7android8hardware6ReturnIvEE",
   "source_file" : "/frameworks/av/media/libmedia/include/media/omx/1.0/WOmxBufferSource.h"
  },
  {
   "function_name" : "android::hardware::media::omx::V1_0::utils::TWOmxBufferSource::onInputBufferAdded",
   "linker_set_key" : "_ZN7android8hardware5media3omx4V1_05utils17TWOmxBufferSource18onInputBufferAddedEj",
   "parameters" :
   [
    {
     "is_this_ptr" : true,
     "referenced_type" : "_ZTIPN7android8hardware5media3omx4V1_05utils17TWOmxBufferSourceE"
    },
    {
     "referenced_type" : "_ZTIj"
    }
   ],
   "return_type" : "_ZTIN7android8hardware6ReturnIvEE",
   "source_file" : "/frameworks/av/media/libmedia/include/media/omx/1.0/WOmxBufferSource.h"
  },
  {
   "function_name" : "android::hardware::media::omx::V1_0::utils::TWOmxBufferSource::onInputBufferEmptied",
   "linker_set_key" : "_ZN7android8hardware5media3omx4V1_05utils17TWOmxBufferSource20onInputBufferEmptiedEjRKNS0_11hidl_handleE",
   "parameters" :
   [
    {
     "is_this_ptr" : true,
     "referenced_type" : "_ZTIPN7android8hardware5media3omx4V1_05utils17TWOmxBufferSourceE"
    },
    {
     "referenced_type" : "_ZTIj"
    },
    {
     "referenced_type" : "_ZTIRKN7android8hardware11hidl_handleE"
    }
   ],
   "return_type" : "_ZTIN7android8hardware6ReturnIvEE",
   "source_file" : "/frameworks/av/media/libmedia/include/media/omx/1.0/WOmxBufferSource.h"
  },
  {
   "function_name" : "android::hardware::media::omx::V1_0::utils::TWOmxBufferSource::onOmxIdle",
   "linker_set_key" : "_ZN7android8hardware5media3omx4V1_05utils17TWOmxBufferSource9onOmxIdleEv",
   "parameters" :
   [
    {
     "is_this_ptr" : true,
     "referenced_type" : "_ZTIPN7android8hardware5media3omx4V1_05utils17TWOmxBufferSourceE"
    }
   ],
   "return_type" : "_ZTIN7android8hardware6ReturnIvEE",
   "source_file" : "/frameworks/av/media/libmedia/include/media/omx/1.0/WOmxBufferSource.h"
  },
  {
   "function_name" : "android::hardware::media::omx::V1_0::utils::TWOmxBufferSource::TWOmxBufferSource",
   "linker_set_key" : "_ZN7android8hardware5media3omx4V1_05utils17TWOmxBufferSourceC1ERKNS_2spINS_16IOMXBufferSourceEEE",
   "parameters" :
   [
    {
     "is_this_ptr" : true,
     "referenced_type" : "_ZTIPN7android8hardware5media3omx4V1_05utils17TWOmxBufferSourceE"
    },
    {
     "referenced_type" : "_ZTIRKN7android2spINS_16IOMXBufferSourceEEE"
    }
   ],
   "return_type" : "_ZTIv",
   "source_file" : "/frameworks/av/media/libmedia/include/media/omx/1.0/WOmxBufferSource.h"
  },
  {
   "function_name" : "android::hardware::media::omx::V1_0::utils::TWOmxBufferSource::TWOmxBufferSource",
   "linker_set_key" : "_ZN7android8hardware5media3omx4V1_05utils17TWOmxBufferSourceC2ERKNS_2spINS_16IOMXBufferSourceEEE",
   "parameters" :
   [
    {
     "is_this_ptr" : true,
     "referenced_type" : "_ZTIPN7android8hardware5media3omx4V1_05utils17TWOmxBufferSourceE"
    },
    {
     "referenced_type" : "_ZTIRKN7android2spINS_16IOMXBufferSourceEEE"
    }
   ],
   "return_type" : "_ZTIv",
   "source_file" : "/frameworks/av/media/libmedia/include/media/omx/1.0/WOmxBufferSource.h"
  },
  {
   "function_name" : "android::hardware::media::omx::V1_0::utils::LWOmxNode::fillBuffer",
   "linker_set_key" : "_ZN7android8hardware5media3omx4V1_05utils9LWOmxNode10fillBufferEjRKNS_9OMXBufferEi",
   "parameters" :
   [
    {
     "is_this_ptr" : true,
     "referenced_type" : "_ZTIPN7android8hardware5media3omx4V1_05utils9LWOmxNodeE"
    },
    {
     "referenced_type" : "_ZTIj"
    },
    {
     "referenced_type" : "_ZTIRKN7android9OMXBufferE"
    },
    {
     "default_arg" : true,
     "referenced_type" : "_ZTIi"
    }
   ],
   "return_type" : "_ZTIi",
   "source_file" : "/frameworks/av/media/libmedia/include/media/omx/1.0/WOmxNode.h"
  },
  {
   "function_name" : "android::hardware::media::omx::V1_0::utils::LWOmxNode::freeBuffer",
   "linker_set_key" : "_ZN7android8hardware5media3omx4V1_05utils9LWOmxNode10freeBufferEjj",
   "parameters" :
   [
    {
     "is_this_ptr" : true,
     "referenced_type" : "_ZTIPN7android8hardware5media3omx4V1_05utils9LWOmxNodeE"
    },
    {
     "referenced_type" : "_ZTIj"
    },
    {
     "referenced_type" : "_ZTIj"
    }
   ],
   "return_type" : "_ZTIi",
   "source_file" : "/frameworks/av/media/libmedia/include/media/omx/1.0/WOmxNode.h"
  },
  {
   "function_name" : "android::hardware::media::omx::V1_0::utils::LWOmxNode::emptyBuffer",
   "linker_set_key" : "_ZN7android8hardware5media3omx4V1_05utils9LWOmxNode11emptyBufferEjRKNS_9OMXBufferEjxi",
   "parameters" :
   [
    {
     "is_this_ptr" : true,
     "referenced_type" : "_ZTIPN7android8hardware5media3omx4V1_05utils9LWOmxNodeE"
    },
    {
     "referenced_type" : "_ZTIj"
    },
    {
     "referenced_type" : "_ZTIRKN7android9OMXBufferE"
    },
    {
     "referenced_type" : "_ZTIj"
    },
    {
     "referenced_type" : "_ZTIx"
    },
    {
     "default_arg" : true,
     "referenced_type" : "_ZTIi"
    }
   ],
   "return_type" : "_ZTIi",
   "source_file" : "/frameworks/av/media/libmedia/include/media/omx/1.0/WOmxNode.h"
  },
  {
   "function_name" : "android::hardware::media::omx::V1_0::utils::LWOmxNode::sendCommand",
   "linker_set_key" : "_ZN7android8hardware5media3omx4V1_05utils9LWOmxNode11sendCommandE15OMX_COMMANDTYPEi",
   "parameters" :
   [
    {
     "is_this_ptr" : true,
     "referenced_type" : "_ZTIPN7android8hardware5media3omx4V1_05utils9LWOmxNodeE"
    },
    {
     "referenced_type" : "_ZTI15OMX_COMMANDTYPE"
    },
    {
     "referenced_type" : "_ZTIi"
    }
   ],
   "return_type" : "_ZTIi",
   "source_file" : "/frameworks/av/media/libmedia/include/media/omx/1.0/WOmxNode.h"
  },
  {
   "function_name" : "android::hardware::media::omx::V1_0::utils::LWOmxNode::setPortMode",
   "linker_set_key" : "_ZN7android8hardware5media3omx4V1_05utils9LWOmxNode11setPortModeEjNS_4IOMX8PortModeE",
   "parameters" :
   [
    {
     "is_this_ptr" : true,
     "referenced_type" : "_ZTIPN7android8hardware5media3omx4V1_05utils9LWOmxNodeE"
    },
    {
     "referenced_type" : "_ZTIj"
    },
    {
     "referenced_type" : "_ZTIN7android4IOMX8PortModeE"
    }
   ],
   "return_type" : "_ZTIi",
   "source_file" : "/frameworks/av/media/libmedia/include/media/omx/1.0/WOmxNode.h"
  },
  {
   "function_name" : "android::hardware::media::omx::V1_0::utils::LWOmxNode::getParameter",
   "linker_set_key" : "_ZN7android8hardware5media3omx4V1_05utils9LWOmxNode12getParameterE13OMX_INDEXTYPEPvj",
   "parameters" :
   [
    {
     "is_this_ptr" : true,
     "referenced_type" : "_ZTIPN7android8hardware5media3omx4V1_05utils9LWOmxNodeE"
    },
    {
     "referenced_type" : "_ZTI13OMX_INDEXTYPE"
    },
    {
     "referenced_type" : "_ZTIPv"
    },
    {
     "referenced_type" : "_ZTIj"
    }
   ],
   "return_type" : "_ZTIi",
   "source_file" : "/frameworks/av/media/libmedia/include/media/omx/1.0/WOmxNode.h"
  },
  {
   "function_name" : "android::hardware::media::omx::V1_0::utils::LWOmxNode::setParameter",
   "linker_set_key" : "_ZN7android8hardware5media3omx4V1_05utils9LWOmxNode12setParameterE13OMX_INDEXTYPEPKvj",
   "parameters" :
   [
    {
     "is_this_ptr" : true,
     "referenced_type" : "_ZTIPN7android8hardware5media3omx4V1_05utils9LWOmxNodeE"
    },
    {
     "referenced_type" : "_ZTI13OMX_INDEXTYPE"
    },
    {
     "referenced_type" : "_ZTIPKv"
    },
    {
     "referenced_type" : "_ZTIj"
    }
   ],
   "return_type" : "_ZTIi",
   "source_file" : "/frameworks/av/media/libmedia/include/media/omx/1.0/WOmxNode.h"
  },
  {
   "function_name" : "android::hardware::media::omx::V1_0::utils::LWOmxNode::dispatchMessage",
   "linker_set_key" : "_ZN7android8hardware5media3omx4V1_05utils9LWOmxNode15dispatchMessageERKNS_11omx_messageE",
   "parameters" :
   [
    {
     "is_this_ptr" : true,
     "referenced_type" : "_ZTIPN7android8hardware5media3omx4V1_05utils9LWOmxNodeE"
    },
    {
     "referenced_type" : "_ZTIRKN7android11omx_messageE"
    }
   ],
   "return_type" : "_ZTIi",
   "source_file" : "/frameworks/av/media/libmedia/include/media/omx/1.0/WOmxNode.h"
  },
  {
   "function_name" : "android::hardware::media::omx::V1_0::utils::LWOmxNode::setInputSurface",
   "linker_set_key" : "_ZN7android8hardware5media3omx4V1_05utils9LWOmxNode15setInputSurfaceERKNS_2spINS_16IOMXBufferSourceEEE",
   "parameters" :
   [
    {
     "is_this_ptr" : true,
     "referenced_type" : "_ZTIPN7android8hardware5media3omx4V1_05utils9LWOmxNodeE"
    },
    {
     "referenced_type" : "_ZTIRKN7android2spINS_16IOMXBufferSourceEEE"
    }
   ],
   "return_type" : "_ZTIi",
   "source_file" : "/frameworks/av/media/libmedia/include/media/omx/1.0/WOmxNode.h"
  },
  {
   "function_name" : "android::hardware::media::omx::V1_0::utils::LWOmxNode::getExtensionIndex",
   "linker_set_key" : "_ZN7android8hardware5media3omx4V1_05utils9LWOmxNode17getExtensionIndexEPKcP13OMX_INDEXTYPE",
   "parameters" :
   [
    {
     "is_this_ptr" : true,
     "referenced_type" : "_ZTIPN7android8hardware5media3omx4V1_05utils9LWOmxNodeE"
    },
    {
     "referenced_type" : "_ZTIPKc"
    },
    {
     "referenced_type" : "_ZTIP13OMX_INDEXTYPE"
    }
   ],
   "return_type" : "_ZTIi",
   "source_file" : "/frameworks/av/media/libmedia/include/media/omx/1.0/WOmxNode.h"
  },
  {
   "function_name" : "android::hardware::media::omx::V1_0::utils::LWOmxNode::allocateSecureBuffer",
   "linker_set_key" : "_ZN7android8hardware5media3omx4V1_05utils9LWOmxNode20allocateSecureBufferEjjPjPPvPNS_2spINS_12NativeHandleEEE",
   "parameters" :
   [
    {
     "is_this_ptr" : true,
     "referenced_type" : "_ZTIPN7android8hardware5media3omx4V1_05utils9LWOmxNodeE"
    },
    {
     "referenced_type" : "_ZTIj"
    },
    {
     "referenced_type" : "_ZTIj"
    },
    {
     "referenced_type" : "_ZTIPj"
    },
    {
     "referenced_type" : "_ZTIPPv"
    },
    {
     "referenced_type" : "_ZTIPN7android2spINS_12NativeHandleEEE"
    }
   ],
   "return_type" : "_ZTIi",
   "source_file" : "/frameworks/av/media/libmedia/include/media/omx/1.0/WOmxNode.h"
  },
  {
   "function_name" : "android::hardware::media::omx::V1_0::utils::LWOmxNode::getGraphicBufferUsage",
   "linker_set_key" : "_ZN7android8hardware5media3omx4V1_05utils9LWOmxNode21getGraphicBufferUsageEjPj",
   "parameters" :
   [
    {
     "is_this_ptr" : true,
     "referenced_type" : "_ZTIPN7android8hardware5media3omx4V1_05utils9LWOmxNodeE"
    },
    {
     "referenced_type" : "_ZTIj"
    },
    {
     "referenced_type" : "_ZTIPj"
    }
   ],
   "return_type" : "_ZTIi",
   "source_file" : "/frameworks/av/media/libmedia/include/media/omx/1.0/WOmxNode.h"
  },
  {
   "function_name" : "android::hardware::media::omx::V1_0::utils::LWOmxNode::configureVideoTunnelMode",
   "linker_set_key" : "_ZN7android8hardware5media3omx4V1_05utils9LWOmxNode24configureVideoTunnelModeEj8OMX_BOOLjPP13native_handle",
   "parameters" :
   [
    {
     "is_this_ptr" : true,
     "referenced_type" : "_ZTIPN7android8hardware5media3omx4V1_05utils9LWOmxNodeE"
    },
    {
     "referenced_type" : "_ZTIj"
    },
    {
     "referenced_type" : "_ZTI8OMX_BOOL"
    },
    {
     "referenced_type" : "_ZTIj"
    },
    {
     "referenced_type" : "_ZTIPP13native_handle"
    }
   ],
   "return_type" : "_ZTIi",
   "source_file" : "/frameworks/av/media/libmedia/include/media/omx/1.0/WOmxNode.h"
  },
  {
   "function_name" : "android::hardware::media::omx::V1_0::utils::LWOmxNode::prepareForAdaptivePlayback",
   "linker_set_key" : "_ZN7android8hardware5media3omx4V1_05utils9LWOmxNode26prepareForAdaptivePlaybackEj8OMX_BOOLjj",
   "parameters" :
   [
    {
     "is_this_ptr" : true,
     "referenced_type" : "_ZTIPN7android8hardware5media3omx4V1_05utils9LWOmxNodeE"
    },
    {
     "referenced_type" : "_ZTIj"
    },
    {
     "referenced_type" : "_ZTI8OMX_BOOL"
    },
    {
     "referenced_type" : "_ZTIj"
    },
    {
     "referenced_type" : "_ZTIj"
    }
   ],
   "return_type" : "_ZTIi",
   "source_file" : "/frameworks/av/media/libmedia/include/media/omx/1.0/WOmxNode.h"
  },
  {
   "function_name" : "android::hardware::media::omx::V1_0::utils::LWOmxNode::freeNode",
   "linker_set_key" : "_ZN7android8hardware5media3omx4V1_05utils9LWOmxNode8freeNodeEv",
   "parameters" :
   [
    {
     "is_this_ptr" : true,
     "referenced_type" : "_ZTIPN7android8hardware5media3omx4V1_05utils9LWOmxNodeE"
    }
   ],
   "return_type" : "_ZTIi",
   "source_file" : "/frameworks/av/media/libmedia/include/media/omx/1.0/WOmxNode.h"
  },
  {
   "function_name" : "android::hardware::media::omx::V1_0::utils::LWOmxNode::getConfig",
   "linker_set_key" : "_ZN7android8hardware5media3omx4V1_05utils9LWOmxNode9getConfigE13OMX_INDEXTYPEPvj",
   "parameters" :
   [
    {
     "is_this_ptr" : true,
     "referenced_type" : "_ZTIPN7android8hardware5media3omx4V1_05utils9LWOmxNodeE"
    },
    {
     "referenced_type" : "_ZTI13OMX_INDEXTYPE"
    },
    {
     "referenced_type" : "_ZTIPv"
    },
    {
     "referenced_type" : "_ZTIj"
    }
   ],
   "return_type" : "_ZTIi",
   "source_file" : "/frameworks/av/media/libmedia/include/media/omx/1.0/WOmxNode.h"
  },
  {
   "function_name" : "android::hardware::media::omx::V1_0::utils::LWOmxNode::setConfig",
   "linker_set_key" : "_ZN7android8hardware5media3omx4V1_05utils9LWOmxNode9setConfigE13OMX_INDEXTYPEPKvj",
   "parameters" :
   [
    {
     "is_this_ptr" : true,
     "referenced_type" : "_ZTIPN7android8hardware5media3omx4V1_05utils9LWOmxNodeE"
    },
    {
     "referenced_type" : "_ZTI13OMX_INDEXTYPE"
    },
    {
     "referenced_type" : "_ZTIPKv"
    },
    {
     "referenced_type" : "_ZTIj"
    }
   ],
   "return_type" : "_ZTIi",
   "source_file" : "/frameworks/av/media/libmedia/include/media/omx/1.0/WOmxNode.h"
  },
  {
   "function_name" : "android::hardware::media::omx::V1_0::utils::LWOmxNode::useBuffer",
   "linker_set_key" : "_ZN7android8hardware5media3omx4V1_05utils9LWOmxNode9useBufferEjRKNS_9OMXBufferEPj",
   "parameters" :
   [
    {
     "is_this_ptr" : true,
     "referenced_type" : "_ZTIPN7android8hardware5media3omx4V1_05utils9LWOmxNodeE"
    },
    {
     "referenced_type" : "_ZTIj"
    },
    {
     "referenced_type" : "_ZTIRKN7android9OMXBufferE"
    },
    {
     "referenced_type" : "_ZTIPj"
    }
   ],
   "return_type" : "_ZTIi",
   "source_file" : "/frameworks/av/media/libmedia/include/media/omx/1.0/WOmxNode.h"
  },
  {
   "function_name" : "android::hardware::media::omx::V1_0::utils::TWOmxNode::fillBuffer",
   "linker_set_key" : "_ZN7android8hardware5media3omx4V1_05utils9TWOmxNode10fillBufferEjRKNS3_11CodecBufferERKNS0_11hidl_handleE",
   "parameters" :
   [
    {
     "is_this_ptr" : true,
     "referenced_type" : "_ZTIPN7android8hardware5media3omx4V1_05utils9TWOmxNodeE"
    },
    {
     "referenced_type" : "_ZTIj"
    },
    {
     "referenced_type" : "_ZTIRKN7android8hardware5media3omx4V1_011CodecBufferE"
    },
    {
     "referenced_type" : "_ZTIRKN7android8hardware11hidl_handleE"
    }
   ],
   "return_type" : "_ZTIN7android8hardware6ReturnINS0_5media3omx4V1_06StatusEEE",
   "source_file" : "/frameworks/av/media/libmedia/include/media/omx/1.0/WOmxNode.h"
  },
  {
   "function_name" : "android::hardware::media::omx::V1_0::utils::TWOmxNode::freeBuffer",
   "linker_set_key" : "_ZN7android8hardware5media3omx4V1_05utils9TWOmxNode10freeBufferEjj",
   "parameters" :
   [
    {
     "is_this_ptr" : true,
     "referenced_type" : "_ZTIPN7android8hardware5media3omx4V1_05utils9TWOmxNodeE"
    },
    {
     "referenced_type" : "_ZTIj"
    },
    {
     "referenced_type" : "_ZTIj"
    }
   ],
   "return_type" : "_ZTIN7android8hardware6ReturnINS0_5media3omx4V1_06StatusEEE",
   "source_file" : "/frameworks/av/media/libmedia/include/media/omx/1.0/WOmxNode.h"
  },
  {
   "function_name" : "android::hardware::media::omx::V1_0::utils::TWOmxNode::emptyBuffer",
   "linker_set_key" : "_ZN7android8hardware5media3omx4V1_05utils9TWOmxNode11emptyBufferEjRKNS3_11CodecBufferEjyRKNS0_11hidl_handleE",
   "parameters" :
   [
    {
     "is_this_ptr" : true,
     "referenced_type" : "_ZTIPN7android8hardware5media3omx4V1_05utils9TWOmxNodeE"
    },
    {
     "referenced_type" : "_ZTIj"
    },
    {
     "referenced_type" : "_ZTIRKN7android8hardware5media3omx4V1_011CodecBufferE"
    },
    {
     "referenced_type" : "_ZTIj"
    },
    {
     "referenced_type" : "_ZTIy"
    },
    {
     "referenced_type" : "_ZTIRKN7android8hardware11hidl_handleE"
    }
   ],
   "return_type" : "_ZTIN7android8hardware6ReturnINS0_5media3omx4V1_06StatusEEE",
   "source_file" : "/frameworks/av/media/libmedia/include/media/omx/1.0/WOmxNode.h"
  },
  {
   "function_name" : "android::hardware::media::omx::V1_0::utils::TWOmxNode::sendCommand",
   "linker_set_key" : "_ZN7android8hardware5media3omx4V1_05utils9TWOmxNode11sendCommandEji",
   "parameters" :
   [
    {
     "is_this_ptr" : true,
     "referenced_type" : "_ZTIPN7android8hardware5media3omx4V1_05utils9TWOmxNodeE"
    },
    {
     "referenced_type" : "_ZTIj"
    },
    {
     "referenced_type" : "_ZTIi"
    }
   ],
   "return_type" : "_ZTIN7android8hardware6ReturnINS0_5media3omx4V1_06StatusEEE",
   "source_file" : "/frameworks/av/media/libmedia/include/media/omx/1.0/WOmxNode.h"
  },
  {
   "function_name" : "android::hardware::media::omx::V1_0::utils::TWOmxNode::setPortMode",
   "linker_set_key" : "_ZN7android8hardware5media3omx4V1_05utils9TWOmxNode11setPortModeEjNS3_8PortModeE",
   "parameters" :
   [
    {
     "is_this_ptr" : true,
     "referenced_type" : "_ZTIPN7android8hardware5media3omx4V1_05utils9TWOmxNodeE"
    },
    {
     "referenced_type" : "_ZTIj"
    },
    {
     "referenced_type" : "_ZTIN7android8hardware5media3omx4V1_08PortModeE"
    }
   ],
   "return_type" : "_ZTIN7android8hardware6ReturnINS0_5media3omx4V1_06StatusEEE",
   "source_file" : "/frameworks/av/media/libmedia/include/media/omx/1.0/WOmxNode.h"
  },
  {
   "function_name" : "android::hardware::media::omx::V1_0::utils::TWOmxNode::getParameter",
   "linker_set_key" : "_ZN7android8hardware5media3omx4V1_05utils9TWOmxNode12getParameterEjRKNS0_8hidl_vecIhEENSt3__18functionIFvNS3_6StatusES9_EEE",
   "parameters" :
   [
    {
     "is_this_ptr" : true,
     "referenced_type" : "_ZTIPN7android8hardware5media3omx4V1_05utils9TWOmxNodeE"
    },
    {
     "referenced_type" : "_ZTIj"
    },
    {
     "referenced_type" : "_ZTIRKN7android8hardware8hidl_vecIhEE"
    },
    {
     "referenced_type" : "_ZTINSt3__18functionIFvN7android8hardware5media3omx4V1_06StatusERKNS2_8hidl_vecIhEEEEE"
    }
   ],
   "return_type" : "_ZTIN7android8hardware6ReturnIvEE",
   "source_file" : "/frameworks/av/media/libmedia/include/media/omx/1.0/WOmxNode.h"
  },
  {
   "function_name" : "android::hardware::media::omx::V1_0::utils::TWOmxNode::setParameter",
   "linker_set_key" : "_ZN7android8hardware5media3omx4V1_05utils9TWOmxNode12setParameterEjRKNS0_8hidl_vecIhEE",
   "parameters" :
   [
    {
     "is_this_ptr" : true,
     "referenced_type" : "_ZTIPN7android8hardware5media3omx4V1_05utils9TWOmxNodeE"
    },
    {
     "referenced_type" : "_ZTIj"
    },
    {
     "referenced_type" : "_ZTIRKN7android8hardware8hidl_vecIhEE"
    }
   ],
   "return_type" : "_ZTIN7android8hardware6ReturnINS0_5media3omx4V1_06StatusEEE",
   "source_file" : "/frameworks/av/media/libmedia/include/media/omx/1.0/WOmxNode.h"
  },
  {
   "function_name" : "android::hardware::media::omx::V1_0::utils::TWOmxNode::dispatchMessage",
   "linker_set_key" : "_ZN7android8hardware5media3omx4V1_05utils9TWOmxNode15dispatchMessageERKNS3_7MessageE",
   "parameters" :
   [
    {
     "is_this_ptr" : true,
     "referenced_type" : "_ZTIPN7android8hardware5media3omx4V1_05utils9TWOmxNodeE"
    },
    {
     "referenced_type" : "_ZTIRKN7android8hardware5media3omx4V1_07MessageE"
    }
   ],
   "return_type" : "_ZTIN7android8hardware6ReturnINS0_5media3omx4V1_06StatusEEE",
   "source_file" : "/frameworks/av/media/libmedia/include/media/omx/1.0/WOmxNode.h"
  },
  {
   "function_name" : "android::hardware::media::omx::V1_0::utils::TWOmxNode::setInputSurface",
   "linker_set_key" : "_ZN7android8hardware5media3omx4V1_05utils9TWOmxNode15setInputSurfaceERKNS_2spINS3_16IOmxBufferSourceEEE",
   "parameters" :
   [
    {
     "is_this_ptr" : true,
     "referenced_type" : "_ZTIPN7android8hardware5media3omx4V1_05utils9TWOmxNodeE"
    },
    {
     "referenced_type" : "_ZTIRKN7android2spINS_8hardware5media3omx4V1_016IOmxBufferSourceEEE"
    }
   ],
   "return_type" : "_ZTIN7android8hardware6ReturnINS0_5media3omx4V1_06StatusEEE",
   "source_file" : "/frameworks/av/media/libmedia/include/media/omx/1.0/WOmxNode.h"
  },
  {
   "function_name" : "android::hardware::media::omx::V1_0::utils::TWOmxNode::getExtensionIndex",
   "linker_set_key" : "_ZN7android8hardware5media3omx4V1_05utils9TWOmxNode17getExtensionIndexERKNS0_11hidl_stringENSt3__18functionIFvNS3_6StatusEjEEE",
   "parameters" :
   [
    {
     "is_this_ptr" : true,
     "referenced_type" : "_ZTIPN7android8hardware5media3omx4V1_05utils9TWOmxNodeE"
    },
    {
     "referenced_type" : "_ZTIRKN7android8hardware11hidl_stringE"
    },
    {
     "referenced_type" : "_ZTINSt3__18functionIFvN7android8hardware5media3omx4V1_06StatusEjEEE"
    }
   ],
   "return_type" : "_ZTIN7android8hardware6ReturnIvEE",
   "source_file" : "/frameworks/av/media/libmedia/include/media/omx/1.0/WOmxNode.h"
  },
  {
   "function_name" : "android::hardware::media::omx::V1_0::utils::TWOmxNode::allocateSecureBuffer",
   "linker_set_key" : "_ZN7android8hardware5media3omx4V1_05utils9TWOmxNode20allocateSecureBufferEjyNSt3__18functionIFvNS3_6StatusEjRKNS0_11hidl_handleEEEE",
   "parameters" :
   [
    {
     "is_this_ptr" : true,
     "referenced_type" : "_ZTIPN7android8hardware5media3omx4V1_05utils9TWOmxNodeE"
    },
    {
     "referenced_type" : "_ZTIj"
    },
    {
     "referenced_type" : "_ZTIy"
    },
    {
     "referenced_type" : "_ZTINSt3__18functionIFvN7android8hardware5media3omx4V1_06StatusEjRKNS2_11hidl_handleEEEE"
    }
   ],
   "return_type" : "_ZTIN7android8hardware6ReturnIvEE",
   "source_file" : "/frameworks/av/media/libmedia/include/media/omx/1.0/WOmxNode.h"
  },
  {
   "function_name" : "android::hardware::media::omx::V1_0::utils::TWOmxNode::getGraphicBufferUsage",
   "linker_set_key" : "_ZN7android8hardware5media3omx4V1_05utils9TWOmxNode21getGraphicBufferUsageEjNSt3__18functionIFvNS3_6StatusEjEEE",
   "parameters" :
   [
    {
     "is_this_ptr" : true,
     "referenced_type" : "_ZTIPN7android8hardware5media3omx4V1_05utils9TWOmxNodeE"
    },
    {
     "referenced_type" : "_ZTIj"
    },
    {
     "referenced_type" : "_ZTINSt3__18functionIFvN7android8hardware5media3omx4V1_06StatusEjEEE"
    }
   ],
   "return_type" : "_ZTIN7android8hardware6ReturnIvEE",
   "source_file" : "/frameworks/av/media/libmedia/include/media/omx/1.0/WOmxNode.h"
  },
  {
   "function_name" : "android::hardware::media::omx::V1_0::utils::TWOmxNode::configureVideoTunnelMode",
   "linker_set_key" : "_ZN7android8hardware5media3omx4V1_05utils9TWOmxNode24configureVideoTunnelModeEjbjNSt3__18functionIFvNS3_6StatusERKNS0_11hidl_handleEEEE",
   "parameters" :
   [
    {
     "is_this_ptr" : true,
     "referenced_type" : "_ZTIPN7android8hardware5media3omx4V1_05utils9TWOmxNodeE"
    },
    {
     "referenced_type" : "_ZTIj"
    },
    {
     "referenced_type" : "_ZTIb"
    },
    {
     "referenced_type" : "_ZTIj"
    },
    {
     "referenced_type" : "_ZTINSt3__18functionIFvN7android8hardware5media3omx4V1_06StatusERKNS2_11hidl_handleEEEE"
    }
   ],
   "return_type" : "_ZTIN7android8hardware6ReturnIvEE",
   "source_file" : "/frameworks/av/media/libmedia/include/media/omx/1.0/WOmxNode.h"
  },
  {
   "function_name" : "android::hardware::media::omx::V1_0::utils::TWOmxNode::prepareForAdaptivePlayback",
   "linker_set_key" : "_ZN7android8hardware5media3omx4V1_05utils9TWOmxNode26prepareForAdaptivePlaybackEjbjj",
   "parameters" :
   [
    {
     "is_this_ptr" : true,
     "referenced_type" : "_ZTIPN7android8hardware5media3omx4V1_05utils9TWOmxNodeE"
    },
    {
     "referenced_type" : "_ZTIj"
    },
    {
     "referenced_type" : "_ZTIb"
    },
    {
     "referenced_type" : "_ZTIj"
    },
    {
     "referenced_type" : "_ZTIj"
    }
   ],
   "return_type" : "_ZTIN7android8hardware6ReturnINS0_5media3omx4V1_06StatusEEE",
   "source_file" : "/frameworks/av/media/libmedia/include/media/omx/1.0/WOmxNode.h"
  },
  {
   "function_name" : "android::hardware::media::omx::V1_0::utils::TWOmxNode::freeNode",
   "linker_set_key" : "_ZN7android8hardware5media3omx4V1_05utils9TWOmxNode8freeNodeEv",
   "parameters" :
   [
    {
     "is_this_ptr" : true,
     "referenced_type" : "_ZTIPN7android8hardware5media3omx4V1_05utils9TWOmxNodeE"
    }
   ],
   "return_type" : "_ZTIN7android8hardware6ReturnINS0_5media3omx4V1_06StatusEEE",
   "source_file" : "/frameworks/av/media/libmedia/include/media/omx/1.0/WOmxNode.h"
  },
  {
   "function_name" : "android::hardware::media::omx::V1_0::utils::TWOmxNode::getConfig",
   "linker_set_key" : "_ZN7android8hardware5media3omx4V1_05utils9TWOmxNode9getConfigEjRKNS0_8hidl_vecIhEENSt3__18functionIFvNS3_6StatusES9_EEE",
   "parameters" :
   [
    {
     "is_this_ptr" : true,
     "referenced_type" : "_ZTIPN7android8hardware5media3omx4V1_05utils9TWOmxNodeE"
    },
    {
     "referenced_type" : "_ZTIj"
    },
    {
     "referenced_type" : "_ZTIRKN7android8hardware8hidl_vecIhEE"
    },
    {
     "referenced_type" : "_ZTINSt3__18functionIFvN7android8hardware5media3omx4V1_06StatusERKNS2_8hidl_vecIhEEEEE"
    }
   ],
   "return_type" : "_ZTIN7android8hardware6ReturnIvEE",
   "source_file" : "/frameworks/av/media/libmedia/include/media/omx/1.0/WOmxNode.h"
  },
  {
   "function_name" : "android::hardware::media::omx::V1_0::utils::TWOmxNode::setConfig",
   "linker_set_key" : "_ZN7android8hardware5media3omx4V1_05utils9TWOmxNode9setConfigEjRKNS0_8hidl_vecIhEE",
   "parameters" :
   [
    {
     "is_this_ptr" : true,
     "referenced_type" : "_ZTIPN7android8hardware5media3omx4V1_05utils9TWOmxNodeE"
    },
    {
     "referenced_type" : "_ZTIj"
    },
    {
     "referenced_type" : "_ZTIRKN7android8hardware8hidl_vecIhEE"
    }
   ],
   "return_type" : "_ZTIN7android8hardware6ReturnINS0_5media3omx4V1_06StatusEEE",
   "source_file" : "/frameworks/av/media/libmedia/include/media/omx/1.0/WOmxNode.h"
  },
  {
   "function_name" : "android::hardware::media::omx::V1_0::utils::TWOmxNode::useBuffer",
   "linker_set_key" : "_ZN7android8hardware5media3omx4V1_05utils9TWOmxNode9useBufferEjRKNS3_11CodecBufferENSt3__18functionIFvNS3_6StatusEjEEE",
   "parameters" :
   [
    {
     "is_this_ptr" : true,
     "referenced_type" : "_ZTIPN7android8hardware5media3omx4V1_05utils9TWOmxNodeE"
    },
    {
     "referenced_type" : "_ZTIj"
    },
    {
     "referenced_type" : "_ZTIRKN7android8hardware5media3omx4V1_011CodecBufferE"
    },
    {
     "referenced_type" : "_ZTINSt3__18functionIFvN7android8hardware5media3omx4V1_06StatusEjEEE"
    }
   ],
   "return_type" : "_ZTIN7android8hardware6ReturnIvEE",
   "source_file" : "/frameworks/av/media/libmedia/include/media/omx/1.0/WOmxNode.h"
  },
  {
   "function_name" : "android::hardware::media::omx::V1_0::utils::TWOmxNode::TWOmxNode",
   "linker_set_key" : "_ZN7android8hardware5media3omx4V1_05utils9TWOmxNodeC1ERKNS_2spINS_8IOMXNodeEEE",
   "parameters" :
   [
    {
     "is_this_ptr" : true,
     "referenced_type" : "_ZTIPN7android8hardware5media3omx4V1_05utils9TWOmxNodeE"
    },
    {
     "referenced_type" : "_ZTIRKN7android2spINS_8IOMXNodeEEE"
    }
   ],
   "return_type" : "_ZTIv",
   "source_file" : "/frameworks/av/media/libmedia/include/media/omx/1.0/WOmxNode.h"
  },
  {
   "function_name" : "android::hardware::media::omx::V1_0::utils::TWOmxNode::TWOmxNode",
   "linker_set_key" : "_ZN7android8hardware5media3omx4V1_05utils9TWOmxNodeC2ERKNS_2spINS_8IOMXNodeEEE",
   "parameters" :
   [
    {
     "is_this_ptr" : true,
     "referenced_type" : "_ZTIPN7android8hardware5media3omx4V1_05utils9TWOmxNodeE"
    },
    {
     "referenced_type" : "_ZTIRKN7android2spINS_8IOMXNodeEEE"
    }
   ],
   "return_type" : "_ZTIv",
   "source_file" : "/frameworks/av/media/libmedia/include/media/omx/1.0/WOmxNode.h"
  },
  {
   "function_name" : "android::BnOMXNode::onTransact",
   "linker_set_key" : "_ZN7android9BnOMXNode10onTransactEjRKNS_6ParcelEPS1_j",
   "parameters" :
   [
    {
     "is_this_ptr" : true,
     "referenced_type" : "_ZTIPN7android9BnOMXNodeE"
    },
    {
     "referenced_type" : "_ZTIj"
    },
    {
     "referenced_type" : "_ZTIRKN7android6ParcelE"
    },
    {
     "referenced_type" : "_ZTIPN7android6ParcelE"
    },
    {
     "default_arg" : true,
     "referenced_type" : "_ZTIj"
    }
   ],
   "return_type" : "_ZTIi",
   "source_file" : "/frameworks/av/media/libmedia/include/media/IOMX.h"
  },
  {
   "function_name" : "android::OMXBuffer::readFromParcel",
   "linker_set_key" : "_ZN7android9OMXBuffer14readFromParcelEPKNS_6ParcelE",
   "parameters" :
   [
    {
     "is_this_ptr" : true,
     "referenced_type" : "_ZTIPN7android9OMXBufferE"
    },
    {
     "referenced_type" : "_ZTIPKN7android6ParcelE"
    }
   ],
   "return_type" : "_ZTIi",
   "source_file" : "/frameworks/av/media/libmedia/include/media/OMXBuffer.h"
  },
  {
   "function_name" : "android::OMXBuffer::OMXBuffer",
   "linker_set_key" : "_ZN7android9OMXBufferC1ERKNS_2spINS_12NativeHandleEEE",
   "parameters" :
   [
    {
     "is_this_ptr" : true,
     "referenced_type" : "_ZTIPN7android9OMXBufferE"
    },
    {
     "referenced_type" : "_ZTIRKN7android2spINS_12NativeHandleEEE"
    }
   ],
   "return_type" : "_ZTIv",
   "source_file" : "/frameworks/av/media/libmedia/include/media/OMXBuffer.h"
  },
  {
   "function_name" : "android::OMXBuffer::OMXBuffer",
   "linker_set_key" : "_ZN7android9OMXBufferC1ERKNS_2spINS_13GraphicBufferEEE",
   "parameters" :
   [
    {
     "is_this_ptr" : true,
     "referenced_type" : "_ZTIPN7android9OMXBufferE"
    },
    {
     "referenced_type" : "_ZTIRKN7android2spINS_13GraphicBufferEEE"
    }
   ],
   "return_type" : "_ZTIv",
   "source_file" : "/frameworks/av/media/libmedia/include/media/OMXBuffer.h"
  },
  {
   "function_name" : "android::OMXBuffer::OMXBuffer",
   "linker_set_key" : "_ZN7android9OMXBufferC1ERKNS_2spINS_16MediaCodecBufferEEE",
   "parameters" :
   [
    {
     "is_this_ptr" : true,
     "referenced_type" : "_ZTIPN7android9OMXBufferE"
    },
    {
     "referenced_type" : "_ZTIRKN7android2spINS_16MediaCodecBufferEEE"
    }
   ],
   "return_type" : "_ZTIv",
   "source_file" : "/frameworks/av/media/libmedia/include/media/OMXBuffer.h"
  },
  {
   "function_name" : "android::OMXBuffer::OMXBuffer",
   "linker_set_key" : "_ZN7android9OMXBufferC1ERKNS_2spINS_7IMemoryEEE",
   "parameters" :
   [
    {
     "is_this_ptr" : true,
     "referenced_type" : "_ZTIPN7android9OMXBufferE"
    },
    {
     "referenced_type" : "_ZTIRKN7android2spINS_7IMemoryEEE"
    }
   ],
   "return_type" : "_ZTIv",
   "source_file" : "/frameworks/av/media/libmedia/include/media/OMXBuffer.h"
  },
  {
   "function_name" : "android::OMXBuffer::OMXBuffer",
   "linker_set_key" : "_ZN7android9OMXBufferC1ERKNS_8hardware11hidl_memoryE",
   "parameters" :
   [
    {
     "is_this_ptr" : true,
     "referenced_type" : "_ZTIPN7android9OMXBufferE"
    },
    {
     "referenced_type" : "_ZTIRKN7android8hardware11hidl_memoryE"
    }
   ],
   "return_type" : "_ZTIv",
   "source_file" : "/frameworks/av/media/libmedia/include/media/OMXBuffer.h"
  },
  {
   "function_name" : "android::OMXBuffer::OMXBuffer",
   "linker_set_key" : "_ZN7android9OMXBufferC1Ejj",
   "parameters" :
   [
    {
     "is_this_ptr" : true,
     "referenced_type" : "_ZTIPN7android9OMXBufferE"
    },
    {
     "referenced_type" : "_ZTIj"
    },
    {
     "referenced_type" : "_ZTIj"
    }
   ],
   "return_type" : "_ZTIv",
   "source_file" : "/frameworks/av/media/libmedia/include/media/OMXBuffer.h"
  },
  {
   "function_name" : "android::OMXBuffer::OMXBuffer",
   "linker_set_key" : "_ZN7android9OMXBufferC1Ev",
   "parameters" :
   [
    {
     "is_this_ptr" : true,
     "referenced_type" : "_ZTIPN7android9OMXBufferE"
    }
   ],
   "return_type" : "_ZTIv",
   "source_file" : "/frameworks/av/media/libmedia/include/media/OMXBuffer.h"
  },
  {
   "function_name" : "android::OMXBuffer::OMXBuffer",
   "linker_set_key" : "_ZN7android9OMXBufferC2ERKNS_2spINS_12NativeHandleEEE",
   "parameters" :
   [
    {
     "is_this_ptr" : true,
     "referenced_type" : "_ZTIPN7android9OMXBufferE"
    },
    {
     "referenced_type" : "_ZTIRKN7android2spINS_12NativeHandleEEE"
    }
   ],
   "return_type" : "_ZTIv",
   "source_file" : "/frameworks/av/media/libmedia/include/media/OMXBuffer.h"
  },
  {
   "function_name" : "android::OMXBuffer::OMXBuffer",
   "linker_set_key" : "_ZN7android9OMXBufferC2ERKNS_2spINS_13GraphicBufferEEE",
   "parameters" :
   [
    {
     "is_this_ptr" : true,
     "referenced_type" : "_ZTIPN7android9OMXBufferE"
    },
    {
     "referenced_type" : "_ZTIRKN7android2spINS_13GraphicBufferEEE"
    }
   ],
   "return_type" : "_ZTIv",
   "source_file" : "/frameworks/av/media/libmedia/include/media/OMXBuffer.h"
  },
  {
   "function_name" : "android::OMXBuffer::OMXBuffer",
   "linker_set_key" : "_ZN7android9OMXBufferC2ERKNS_2spINS_16MediaCodecBufferEEE",
   "parameters" :
   [
    {
     "is_this_ptr" : true,
     "referenced_type" : "_ZTIPN7android9OMXBufferE"
    },
    {
     "referenced_type" : "_ZTIRKN7android2spINS_16MediaCodecBufferEEE"
    }
   ],
   "return_type" : "_ZTIv",
   "source_file" : "/frameworks/av/media/libmedia/include/media/OMXBuffer.h"
  },
  {
   "function_name" : "android::OMXBuffer::OMXBuffer",
   "linker_set_key" : "_ZN7android9OMXBufferC2ERKNS_2spINS_7IMemoryEEE",
   "parameters" :
   [
    {
     "is_this_ptr" : true,
     "referenced_type" : "_ZTIPN7android9OMXBufferE"
    },
    {
     "referenced_type" : "_ZTIRKN7android2spINS_7IMemoryEEE"
    }
   ],
   "return_type" : "_ZTIv",
   "source_file" : "/frameworks/av/media/libmedia/include/media/OMXBuffer.h"
  },
  {
   "function_name" : "android::OMXBuffer::OMXBuffer",
   "linker_set_key" : "_ZN7android9OMXBufferC2ERKNS_8hardware11hidl_memoryE",
   "parameters" :
   [
    {
     "is_this_ptr" : true,
     "referenced_type" : "_ZTIPN7android9OMXBufferE"
    },
    {
     "referenced_type" : "_ZTIRKN7android8hardware11hidl_memoryE"
    }
   ],
   "return_type" : "_ZTIv",
   "source_file" : "/frameworks/av/media/libmedia/include/media/OMXBuffer.h"
  },
  {
   "function_name" : "android::OMXBuffer::OMXBuffer",
   "linker_set_key" : "_ZN7android9OMXBufferC2Ejj",
   "parameters" :
   [
    {
     "is_this_ptr" : true,
     "referenced_type" : "_ZTIPN7android9OMXBufferE"
    },
    {
     "referenced_type" : "_ZTIj"
    },
    {
     "referenced_type" : "_ZTIj"
    }
   ],
   "return_type" : "_ZTIv",
   "source_file" : "/frameworks/av/media/libmedia/include/media/OMXBuffer.h"
  },
  {
   "function_name" : "android::OMXBuffer::OMXBuffer",
   "linker_set_key" : "_ZN7android9OMXBufferC2Ev",
   "parameters" :
   [
    {
     "is_this_ptr" : true,
     "referenced_type" : "_ZTIPN7android9OMXBufferE"
    }
   ],
   "return_type" : "_ZTIv",
   "source_file" : "/frameworks/av/media/libmedia/include/media/OMXBuffer.h"
  },
  {
   "function_name" : "android::OMXBuffer::~OMXBuffer",
   "linker_set_key" : "_ZN7android9OMXBufferD1Ev",
   "parameters" :
   [
    {
     "is_this_ptr" : true,
     "referenced_type" : "_ZTIPN7android9OMXBufferE"
    }
   ],
   "return_type" : "_ZTIv",
   "source_file" : "/frameworks/av/media/libmedia/include/media/OMXBuffer.h"
  },
  {
   "function_name" : "android::OMXBuffer::~OMXBuffer",
   "linker_set_key" : "_ZN7android9OMXBufferD2Ev",
   "parameters" :
   [
    {
     "is_this_ptr" : true,
     "referenced_type" : "_ZTIPN7android9OMXBufferE"
    }
   ],
   "return_type" : "_ZTIv",
   "source_file" : "/frameworks/av/media/libmedia/include/media/OMXBuffer.h"
  },
  {
   "access" : "private",
   "function_name" : "android::OMXBuffer::operator=",
   "linker_set_key" : "_ZN7android9OMXBufferaSEOS0_",
   "parameters" :
   [
    {
     "is_this_ptr" : true,
     "referenced_type" : "_ZTIPN7android9OMXBufferE"
    },
    {
     "referenced_type" : "_ZTION7android9OMXBufferE"
    }
   ],
   "return_type" : "_ZTIRN7android9OMXBufferE",
   "source_file" : "/frameworks/av/media/libmedia/include/media/OMXBuffer.h"
  },
  {
   "function_name" : "android::IOMXObserver::getInterfaceDescriptor",
   "linker_set_key" : "_ZNK7android12IOMXObserver22getInterfaceDescriptorEv",
   "parameters" :
   [
    {
     "is_this_ptr" : true,
     "referenced_type" : "_ZTIPKN7android12IOMXObserverE"
    }
   ],
   "return_type" : "_ZTIRKN7android8String16E",
   "source_file" : "/frameworks/av/media/libmedia/include/media/IOMX.h"
  },
  {
   "function_name" : "android::MediaCodecBuffer::size",
   "linker_set_key" : "_ZNK7android16MediaCodecBuffer4sizeEv",
   "parameters" :
   [
    {
     "is_this_ptr" : true,
     "referenced_type" : "_ZTIPKN7android16MediaCodecBufferE"
    }
   ],
   "return_type" : "_ZTIj",
   "source_file" : "/frameworks/av/media/libmedia/include/media/MediaCodecBuffer.h"
  },
  {
   "function_name" : "android::MediaCodecBuffer::offset",
   "linker_set_key" : "_ZNK7android16MediaCodecBuffer6offsetEv",
   "parameters" :
   [
    {
     "is_this_ptr" : true,
     "referenced_type" : "_ZTIPKN7android16MediaCodecBufferE"
    }
   ],
   "return_type" : "_ZTIj",
   "source_file" : "/frameworks/av/media/libmedia/include/media/MediaCodecBuffer.h"
  },
  {
   "function_name" : "android::MediaCodecBuffer::capacity",
   "linker_set_key" : "_ZNK7android16MediaCodecBuffer8capacityEv",
   "parameters" :
   [
    {
     "is_this_ptr" : true,
     "referenced_type" : "_ZTIPKN7android16MediaCodecBufferE"
    }
   ],
   "return_type" : "_ZTIj",
   "source_file" : "/frameworks/av/media/libmedia/include/media/MediaCodecBuffer.h"
  },
  {
   "function_name" : "android::IOMXNode::getHalIndex",
   "linker_set_key" : "_ZNK7android8IOMXNode11getHalIndexEv",
   "parameters" :
   [
    {
     "is_this_ptr" : true,
     "referenced_type" : "_ZTIPKN7android8IOMXNodeE"
    }
   ],
   "return_type" : "_ZTIj",
   "source_file" : "/frameworks/av/media/libmedia/include/media/IOMX.h"
  },
  {
   "function_name" : "android::IOMXNode::getHalVariant",
   "linker_set_key" : "_ZNK7android8IOMXNode13getHalVariantEv",
   "parameters" :
   [
    {
     "is_this_ptr" : true,
     "referenced_type" : "_ZTIPKN7android8IOMXNodeE"
    }
   ],
   "return_type" : "_ZTINSt3__17variantIJNS_9monostateEN7android2spINS2_8hardware5media3omx4V1_08IOmxNodeEEEEEE",
   "source_file" : "/frameworks/av/media/libmedia/include/media/IOMX.h"
  },
  {
   "function_name" : "android::IOMXNode::getInterfaceDescriptor",
   "linker_set_key" : "_ZNK7android8IOMXNode22getInterfaceDescriptorEv",
   "parameters" :
   [
    {
     "is_this_ptr" : true,
     "referenced_type" : "_ZTIPKN7android8IOMXNodeE"
    }
   ],
   "return_type" : "_ZTIRKN7android8String16E",
   "source_file" : "/frameworks/av/media/libmedia/include/media/IOMX.h"
  },
  {
   "function_name" : "android::OMXBuffer::writeToParcel",
   "linker_set_key" : "_ZNK7android9OMXBuffer13writeToParcelEPNS_6ParcelE",
   "parameters" :
   [
    {
     "is_this_ptr" : true,
     "referenced_type" : "_ZTIPKN7android9OMXBufferE"
    },
    {
     "referenced_type" : "_ZTIPN7android6ParcelE"
    }
   ],
   "return_type" : "_ZTIi",
   "source_file" : "/frameworks/av/media/libmedia/include/media/OMXBuffer.h"
  },
  {
   "function_name" : "android::H2BConverter<android::hardware::media::omx::V1_0::IOmxNode, android::BnOMXNode>::onTransact",
   "linker_set_key" : "_ZThn4_N7android12H2BConverterINS_8hardware5media3omx4V1_08IOmxNodeENS_9BnOMXNodeEE10onTransactEjRKNS_6ParcelEPS8_j",
   "parameters" :
   [
    {
     "is_this_ptr" : true,
     "referenced_type" : "_ZTIPN7android12H2BConverterINS_8hardware5media3omx4V1_08IOmxNodeENS_9BnOMXNodeEEE"
    },
    {
     "referenced_type" : "_ZTIj"
    },
    {
     "referenced_type" : "_ZTIRKN7android6ParcelE"
    },
    {
     "referenced_type" : "_ZTIPN7android6ParcelE"
    },
    {
     "default_arg" : true,
     "referenced_type" : "_ZTIj"
    }
   ],
   "return_type" : "_ZTIi",
   "source_file" : "/system/libhidl/transport/token/1.0/utils/include/hidl/HybridInterface.h"
  },
  {
   "function_name" : "android::H2BConverter<android::hardware::media::omx::V1_0::IOmxNode, android::BnOMXNode>::linkToDeath",
   "linker_set_key" : "_ZThn4_N7android12H2BConverterINS_8hardware5media3omx4V1_08IOmxNodeENS_9BnOMXNodeEE11linkToDeathERKNS_2spINS_7IBinder14DeathRecipientEEEPvj",
   "parameters" :
   [
    {
     "is_this_ptr" : true,
     "referenced_type" : "_ZTIPN7android12H2BConverterINS_8hardware5media3omx4V1_08IOmxNodeENS_9BnOMXNodeEEE"
    },
    {
     "referenced_type" : "_ZTIRKN7android2spINS_7IBinder14DeathRecipientEEE"
    },
    {
     "default_arg" : true,
     "referenced_type" : "_ZTIPv"
    },
    {
     "default_arg" : true,
     "referenced_type" : "_ZTIj"
    }
   ],
   "return_type" : "_ZTIi",
   "source_file" : "/system/libhidl/transport/token/1.0/utils/include/hidl/HybridInterface.h"
  },
  {
   "function_name" : "android::H2BConverter<android::hardware::media::omx::V1_0::IOmxNode, android::BnOMXNode>::unlinkToDeath",
   "linker_set_key" : "_ZThn4_N7android12H2BConverterINS_8hardware5media3omx4V1_08IOmxNodeENS_9BnOMXNodeEE13unlinkToDeathERKNS_2wpINS_7IBinder14DeathRecipientEEEPvjPSB_",
   "parameters" :
   [
    {
     "is_this_ptr" : true,
     "referenced_type" : "_ZTIPN7android12H2BConverterINS_8hardware5media3omx4V1_08IOmxNodeENS_9BnOMXNodeEEE"
    },
    {
     "referenced_type" : "_ZTIRKN7android2wpINS_7IBinder14DeathRecipientEEE"
    },
    {
     "default_arg" : true,
     "referenced_type" : "_ZTIPv"
    },
    {
     "default_arg" : true,
     "referenced_type" : "_ZTIj"
    },
    {
     "default_arg" : true,
     "referenced_type" : "_ZTIPN7android2wpINS_7IBinder14DeathRecipientEEE"
    }
   ],
   "return_type" : "_ZTIi",
   "source_file" : "/system/libhidl/transport/token/1.0/utils/include/hidl/HybridInterface.h"
  },
  {
   "function_name" : "android::BnOMXObserver::onTransact",
   "linker_set_key" : "_ZThn4_N7android13BnOMXObserver10onTransactEjRKNS_6ParcelEPS1_j",
   "parameters" :
   [
    {
     "is_this_ptr" : true,
     "referenced_type" : "_ZTIPN7android13BnOMXObserverE"
    },
    {
     "referenced_type" : "_ZTIj"
    },
    {
     "referenced_type" : "_ZTIRKN7android6ParcelE"
    },
    {
     "referenced_type" : "_ZTIPN7android6ParcelE"
    },
    {
     "default_arg" : true,
     "referenced_type" : "_ZTIj"
    }
   ],
   "return_type" : "_ZTIi",
   "source_file" : "/frameworks/av/media/libmedia/include/media/IOMX.h"
  },
  {
   "function_name" : "android::BnOMXNode::onTransact",
   "linker_set_key" : "_ZThn4_N7android9BnOMXNode10onTransactEjRKNS_6ParcelEPS1_j",
   "parameters" :
   [
    {
     "is_this_ptr" : true,
     "referenced_type" : "_ZTIPN7android9BnOMXNodeE"
    },
    {
     "referenced_type" : "_ZTIj"
    },
    {
     "referenced_type" : "_ZTIRKN7android6ParcelE"
    },
    {
     "referenced_type" : "_ZTIPN7android6ParcelE"
    },
    {
     "default_arg" : true,
     "referenced_type" : "_ZTIj"
    }
   ],
   "return_type" : "_ZTIi",
   "source_file" : "/frameworks/av/media/libmedia/include/media/IOMX.h"
  }
 ],
 "global_vars" :
 [
  {
   "linker_set_key" : "_ZN7android12IOMXObserver10descriptorE",
   "name" : "android::IOMXObserver::descriptor",
   "referenced_type" : "_ZTIKN7android8String16E",
   "source_file" : "/frameworks/av/media/libmedia/include/media/IOMX.h"
  },
  {
   "access" : "private",
   "linker_set_key" : "_ZN7android12IOMXObserver12default_implE",
   "name" : "android::IOMXObserver::default_impl",
   "referenced_type" : "_ZTINSt3__110unique_ptrIN7android12IOMXObserverENS_14default_deleteIS2_EEEE",
   "source_file" : "/frameworks/av/media/libmedia/include/media/IOMX.h"
  },
  {
   "linker_set_key" : "_ZN7android8IOMXNode10descriptorE",
   "name" : "android::IOMXNode::descriptor",
   "referenced_type" : "_ZTIKN7android8String16E",
   "source_file" : "/frameworks/av/media/libmedia/include/media/IOMX.h"
  },
  {
   "linker_set_key" : "_ZN7android8IOMXNode27sGetHalTokenTransactionCodeE",
   "name" : "android::IOMXNode::sGetHalTokenTransactionCode",
   "referenced_type" : "_ZTIKj",
   "source_file" : "/frameworks/av/media/libmedia/include/media/IOMX.h"
  },
  {
   "linker_set_key" : "_ZN7android9OMXBuffer7sPresetE",
   "name" : "android::OMXBuffer::sPreset",
   "referenced_type" : "_ZTIN7android9OMXBufferE",
   "source_file" : "/frameworks/av/media/libmedia/include/media/OMXBuffer.h"
  }
 ],
 "lvalue_reference_types" :
 [
  {
   "alignment" : 4,
   "linker_set_key" : "_ZTIRA25_KDs",
   "name" : "char16_t const (&)[25]",
   "referenced_type" : "_ZTIA25_KDs",
   "self_type" : "_ZTIRA25_KDs",
   "size" : 4,
   "source_file" : "/system/core/libutils/include/utils/String16.h"
  },
  {
   "alignment" : 4,
   "linker_set_key" : "_ZTIRA26_KDs",
   "name" : "char16_t const (&)[26]",
   "referenced_type" : "_ZTIA26_KDs",
   "self_type" : "_ZTIRA26_KDs",
   "size" : 4,
   "source_file" : "/system/core/libutils/include/utils/String16.h"
  },
  {
   "alignment" : 4,
   "linker_set_key" : "_ZTIRA30_KDs",
   "name" : "char16_t const (&)[30]",
   "referenced_type" : "_ZTIA30_KDs",
   "self_type" : "_ZTIRA30_KDs",
   "size" : 4,
   "source_file" : "/system/core/libutils/include/utils/String16.h"
  },
  {
   "alignment" : 4,
   "linker_set_key" : "_ZTIRK7log_msg",
   "name" : "const log_msg &",
   "referenced_type" : "_ZTIK7log_msg",
   "self_type" : "_ZTIRK7log_msg",
   "size" : 4,
   "source_file" : "/system/core/liblog/include/log/log_read.h"
  },
  {
   "alignment" : 4,
   "linker_set_key" : "_ZTIRKN3ndk10SpAIBinderE",
   "name" : "const ndk::SpAIBinder &",
   "referenced_type" : "_ZTIKN3ndk10SpAIBinderE",
   "self_type" : "_ZTIRKN3ndk10SpAIBinderE",
   "size" : 4,
   "source_file" : "/frameworks/native/libs/binder/ndk/include_ndk/android/binder_auto_utils.h"
  },
  {
   "alignment" : 4,
   "linker_set_key" : "_ZTIRKN7android10ParcelableE",
   "name" : "const android::Parcelable &",
   "referenced_type" : "_ZTIKN7android10ParcelableE",
   "self_type" : "_ZTIRKN7android10ParcelableE",
   "size" : 4,
   "source_file" : "/frameworks/native/libs/binder/include/binder/Parcelable.h"
  },
  {
   "alignment" : 4,
   "linker_set_key" : "_ZTIRKN7android11FlattenableINS_13GraphicBufferEEE",
   "name" : "const android::Flattenable<android::GraphicBuffer> &",
   "referenced_type" : "_ZTIKN7android11FlattenableINS_13GraphicBufferEEE",
   "self_type" : "_ZTIRKN7android11FlattenableINS_13GraphicBufferEEE",
   "size" : 4,
   "source_file" : "/frameworks/native/libs/binder/include/binder/Parcel.h"
  },
  {
   "alignment" : 4,
   "linker_set_key" : "_ZTIRKN7android11omx_messageE",
   "name" : "const android::omx_message &",
   "referenced_type" : "_ZTIKN7android11omx_messageE",
   "self_type" : "_ZTIRKN7android11omx_messageE",
   "size" : 4,
   "source_file" : "/frameworks/av/media/libmedia/include/media/omx/1.0/Conversion.h"
  },
  {
   "alignment" : 4,
   "linker_set_key" : "_ZTIRKN7android12ColorAspectsE",
   "name" : "const android::ColorAspects &",
   "referenced_type" : "_ZTIKN7android12ColorAspectsE",
   "self_type" : "_ZTIRKN7android12ColorAspectsE",
   "size" : 4,
   "source_file" : "/frameworks/av/media/libmedia/include/media/omx/1.0/Conversion.h"
  },
  {
   "alignment" : 4,
   "linker_set_key" : "_ZTIRKN7android13GrallocMapperE",
   "name" : "const android::GrallocMapper &",
   "referenced_type" : "_ZTIKN7android13GrallocMapperE",
   "self_type" : "_ZTIRKN7android13GrallocMapperE",
   "size" : 4,
   "source_file" : "/frameworks/native/libs/ui/include/ui/GraphicBufferMapper.h"
  },
  {
   "alignment" : 4,
   "linker_set_key" : "_ZTIRKN7android13GraphicBufferE",
   "name" : "const android::GraphicBuffer &",
   "referenced_type" : "_ZTIKN7android13GraphicBufferE",
   "self_type" : "_ZTIRKN7android13GraphicBufferE",
   "size" : 4,
   "source_file" : "/frameworks/av/media/libmedia/include/media/omx/1.0/Conversion.h"
  },
  {
   "alignment" : 4,
   "linker_set_key" : "_ZTIRKN7android14StaticString16ILj25EEE",
   "name" : "const android::StaticString16<25> &",
   "referenced_type" : "_ZTIKN7android14StaticString16ILj25EEE",
   "self_type" : "_ZTIRKN7android14StaticString16ILj25EEE",
   "size" : 4,
   "source_file" : "/system/core/libutils/include/utils/String16.h"
  },
  {
   "alignment" : 4,
   "linker_set_key" : "_ZTIRKN7android14StaticString16ILj26EEE",
   "name" : "const android::StaticString16<26> &",
   "referenced_type" : "_ZTIKN7android14StaticString16ILj26EEE",
   "self_type" : "_ZTIRKN7android14StaticString16ILj26EEE",
   "size" : 4,
   "source_file" : "/system/core/libutils/include/utils/String16.h"
  },
  {
   "alignment" : 4,
   "linker_set_key" : "_ZTIRKN7android14StaticString16ILj30EEE",
   "name" : "const android::StaticString16<30> &",
   "referenced_type" : "_ZTIKN7android14StaticString16ILj30EEE",
   "self_type" : "_ZTIRKN7android14StaticString16ILj30EEE",
   "size" : 4,
   "source_file" : "/system/core/libutils/include/utils/String16.h"
  },
  {
   "alignment" : 4,
   "linker_set_key" : "_ZTIRKN7android18OMXFenceParcelableE",
   "name" : "const android::OMXFenceParcelable &",
   "referenced_type" : "_ZTIKN7android18OMXFenceParcelableE",
   "self_type" : "_ZTIRKN7android18OMXFenceParcelableE",
   "size" : 4,
   "source_file" : "/frameworks/av/media/libmedia/include/media/omx/1.0/WOmxBufferSource.h"
  },
  {
   "alignment" : 4,
   "linker_set_key" : "_ZTIRKN7android19GraphicBufferMapperE",
   "name" : "const android::GraphicBufferMapper &",
   "referenced_type" : "_ZTIKN7android19GraphicBufferMapperE",
   "self_type" : "_ZTIRKN7android19GraphicBufferMapperE",
   "size" : 4,
   "source_file" : "/frameworks/native/libs/ui/include/ui/GraphicBuffer.h"
  },
  {
   "alignment" : 4,
   "linker_set_key" : "_ZTIRKN7android2spINS_12H2BConverterINS_8hardware5media3omx4V1_08IOmxNodeENS_9BnOMXNodeEE8ObituaryEEE",
   "name" : "const android::sp<android::H2BConverter<IOmxNode, BnOMXNode>::Obituary> &",
   "referenced_type" : "_ZTIKN7android2spINS_12H2BConverterINS_8hardware5media3omx4V1_08IOmxNodeENS_9BnOMXNodeEE8ObituaryEEE",
   "self_type" : "_ZTIRKN7android2spINS_12H2BConverterINS_8hardware5media3omx4V1_08IOmxNodeENS_9BnOMXNodeEE8ObituaryEEE",
   "size" : 4,
   "source_file" : "/system/core/libutils/include/utils/StrongPointer.h"
  },
  {
   "alignment" : 4,
   "linker_set_key" : "_ZTIRKN7android2spINS_12IOMXObserverEEE",
   "name" : "const android::sp<android::IOMXObserver> &",
   "referenced_type" : "_ZTIKN7android2spINS_12IOMXObserverEEE",
   "self_type" : "_ZTIRKN7android2spINS_12IOMXObserverEEE",
   "size" : 4,
   "source_file" : "/system/core/libutils/include/utils/StrongPointer.h"
  },
  {
   "alignment" : 4,
   "linker_set_key" : "_ZTIRKN7android2spINS_12NativeHandleEEE",
   "name" : "const android::sp<android::NativeHandle> &",
   "referenced_type" : "_ZTIKN7android2spINS_12NativeHandleEEE",
   "self_type" : "_ZTIRKN7android2spINS_12NativeHandleEEE",
   "size" : 4,
   "source_file" : "/system/core/libutils/include/utils/StrongPointer.h"
  },
  {
   "alignment" : 4,
   "linker_set_key" : "_ZTIRKN7android2spINS_13GraphicBufferEEE",
   "name" : "const android::sp<android::GraphicBuffer> &",
   "referenced_type" : "_ZTIKN7android2spINS_13GraphicBufferEEE",
   "self_type" : "_ZTIRKN7android2spINS_13GraphicBufferEEE",
   "size" : 4,
   "source_file" : "/system/core/libutils/include/utils/StrongPointer.h"
  },
  {
   "alignment" : 4,
   "linker_set_key" : "_ZTIRKN7android2spINS_16IOMXBufferSourceEEE",
   "name" : "const android::sp<android::IOMXBufferSource> &",
   "referenced_type" : "_ZTIKN7android2spINS_16IOMXBufferSourceEEE",
   "self_type" : "_ZTIRKN7android2spINS_16IOMXBufferSourceEEE",
   "size" : 4,
   "source_file" : "/system/core/libutils/include/utils/StrongPointer.h"
  },
  {
   "alignment" : 4,
   "linker_set_key" : "_ZTIRKN7android2spINS_16MediaCodecBufferEEE",
   "name" : "const android::sp<android::MediaCodecBuffer> &",
   "referenced_type" : "_ZTIKN7android2spINS_16MediaCodecBufferEEE",
   "self_type" : "_ZTIRKN7android2spINS_16MediaCodecBufferEEE",
   "size" : 4,
   "source_file" : "/frameworks/av/media/libmedia/include/media/OMXBuffer.h"
  },
  {
   "alignment" : 4,
   "linker_set_key" : "_ZTIRKN7android2spINS_4hidl4base4V1_05IBaseEEE",
   "name" : "const android::sp<android::hidl::base::V1_0::IBase> &",
   "referenced_type" : "_ZTIKN7android2spINS_4hidl4base4V1_05IBaseEEE",
   "self_type" : "_ZTIRKN7android2spINS_4hidl4base4V1_05IBaseEEE",
   "size" : 4,
   "source_file" : "/system/libhidl/transport/token/1.0/utils/include/hidl/HybridInterface.h"
  },
  {
   "alignment" : 4,
   "linker_set_key" : "_ZTIRKN7android2spINS_5FenceEEE",
   "name" : "const android::sp<android::Fence> &",
   "referenced_type" : "_ZTIKN7android2spINS_5FenceEEE",
   "self_type" : "_ZTIRKN7android2spINS_5FenceEEE",
   "size" : 4,
   "source_file" : "/system/core/libutils/include/utils/StrongPointer.h"
  },
  {
   "alignment" : 4,
   "linker_set_key" : "_ZTIRKN7android2spINS_7ABufferEEE",
   "name" : "const android::sp<android::ABuffer> &",
   "referenced_type" : "_ZTIKN7android2spINS_7ABufferEEE",
   "self_type" : "_ZTIRKN7android2spINS_7ABufferEEE",
   "size" : 4,
   "source_file" : "/system/core/libutils/include/utils/StrongPointer.h"
  },
  {
   "alignment" : 4,
   "linker_set_key" : "_ZTIRKN7android2spINS_7ALooperEEE",
   "name" : "const android::sp<android::ALooper> &",
   "referenced_type" : "_ZTIKN7android2spINS_7ALooperEEE",
   "self_type" : "_ZTIRKN7android2spINS_7ALooperEEE",
   "size" : 4,
   "source_file" : "/system/core/libutils/include/utils/RefBase.h"
  },
  {
   "alignment" : 4,
   "linker_set_key" : "_ZTIRKN7android2spINS_7IBinder14DeathRecipientEEE",
   "name" : "const android::sp<android::IBinder::DeathRecipient> &",
   "referenced_type" : "_ZTIKN7android2spINS_7IBinder14DeathRecipientEEE",
   "self_type" : "_ZTIRKN7android2spINS_7IBinder14DeathRecipientEEE",
   "size" : 4,
   "source_file" : "/system/core/libutils/include/utils/RefBase.h"
  },
  {
   "alignment" : 4,
   "linker_set_key" : "_ZTIRKN7android2spINS_7IBinderEEE",
   "name" : "const android::sp<android::IBinder> &",
   "referenced_type" : "_ZTIKN7android2spINS_7IBinderEEE",
   "self_type" : "_ZTIRKN7android2spINS_7IBinderEEE",
   "size" : 4,
   "source_file" : "/frameworks/native/libs/binder/include/binder/IInterface.h"
  },
  {
   "alignment" : 4,
   "linker_set_key" : "_ZTIRKN7android2spINS_7IMemoryEEE",
   "name" : "const android::sp<android::IMemory> &",
   "referenced_type" : "_ZTIKN7android2spINS_7IMemoryEEE",
   "self_type" : "_ZTIRKN7android2spINS_7IMemoryEEE",
   "size" : 4,
   "source_file" : "/system/core/libutils/include/utils/StrongPointer.h"
  },
  {
   "alignment" : 4,
   "linker_set_key" : "_ZTIRKN7android2spINS_8AMessageEEE",
   "name" : "const android::sp<android::AMessage> &",
   "referenced_type" : "_ZTIKN7android2spINS_8AMessageEEE",
   "self_type" : "_ZTIRKN7android2spINS_8AMessageEEE",
   "size" : 4,
   "source_file" : "/system/core/libutils/include/utils/StrongPointer.h"
  },
  {
   "alignment" : 4,
   "linker_set_key" : "_ZTIRKN7android2spINS_8IOMXNodeEEE",
   "name" : "const android::sp<android::IOMXNode> &",
   "referenced_type" : "_ZTIKN7android2spINS_8IOMXNodeEEE",
   "self_type" : "_ZTIRKN7android2spINS_8IOMXNodeEEE",
   "size" : 4,
   "source_file" : "/system/core/libutils/include/utils/StrongPointer.h"
  },
  {
   "alignment" : 4,
   "linker_set_key" : "_ZTIRKN7android2spINS_8hardware20hidl_death_recipientEEE",
   "name" : "const android::sp<android::hardware::hidl_death_recipient> &",
   "referenced_type" : "_ZTIKN7android2spINS_8hardware20hidl_death_recipientEEE",
   "self_type" : "_ZTIRKN7android2spINS_8hardware20hidl_death_recipientEEE",
   "size" : 4,
   "source_file" : "/system/libhidl/base/include/hidl/HidlSupport.h"
  },
  {
   "alignment" : 4,
   "linker_set_key" : "_ZTIRKN7android2spINS_8hardware5media3omx4V1_012IOmxObserverEEE",
   "name" : "const android::sp<android::hardware::media::omx::V1_0::IOmxObserver> &",
   "referenced_type" : "_ZTIKN7android2spINS_8hardware5media3omx4V1_012IOmxObserverEEE",
   "self_type" : "_ZTIRKN7android2spINS_8hardware5media3omx4V1_012IOmxObserverEEE",
   "size" : 4,
   "source_file" : "/system/core/libutils/include/utils/StrongPointer.h"
  },
  {
   "alignment" : 4,
   "linker_set_key" : "_ZTIRKN7android2spINS_8hardware5media3omx4V1_016IOmxBufferSourceEEE",
   "name" : "const android::sp<android::hardware::media::omx::V1_0::IOmxBufferSource> &",
   "referenced_type" : "_ZTIKN7android2spINS_8hardware5media3omx4V1_016IOmxBufferSourceEEE",
   "self_type" : "_ZTIRKN7android2spINS_8hardware5media3omx4V1_016IOmxBufferSourceEEE",
   "size" : 4,
   "source_file" : "/system/core/libutils/include/utils/StrongPointer.h"
  },
  {
   "alignment" : 4,
   "linker_set_key" : "_ZTIRKN7android2spINS_8hardware5media3omx4V1_05utils9LWOmxNodeEEE",
   "name" : "const android::sp<android::hardware::media::omx::V1_0::utils::LWOmxNode> &",
   "referenced_type" : "_ZTIKN7android2spINS_8hardware5media3omx4V1_05utils9LWOmxNodeEEE",
   "self_type" : "_ZTIRKN7android2spINS_8hardware5media3omx4V1_05utils9LWOmxNodeEEE",
   "size" : 4,
   "source_file" : "/system/core/libutils/include/utils/StrongPointer.h"
  },
  {
   "alignment" : 4,
   "linker_set_key" : "_ZTIRKN7android2spINS_8hardware5media3omx4V1_08IOmxNodeEEE",
   "name" : "const android::sp<android::hardware::media::omx::V1_0::IOmxNode> &",
   "referenced_type" : "_ZTIKN7android2spINS_8hardware5media3omx4V1_08IOmxNodeEEE",
   "self_type" : "_ZTIRKN7android2spINS_8hardware5media3omx4V1_08IOmxNodeEEE",
   "size" : 4,
   "source_file" : "/system/core/libutils/include/utils/StrongPointer.h"
  },
  {
   "alignment" : 4,
   "linker_set_key" : "_ZTIRKN7android2spINS_9BpOMXNodeEEE",
   "name" : "const android::sp<android::BpOMXNode> &",
   "referenced_type" : "_ZTIKN7android2spINS_9BpOMXNodeEEE",
   "self_type" : "_ZTIRKN7android2spINS_9BpOMXNodeEEE",
   "size" : 4,
   "source_file" : "/system/core/libutils/include/utils/StrongPointer.h"
  },
  {
   "alignment" : 4,
   "linker_set_key" : "_ZTIRKN7android2ui4SizeE",
   "name" : "const android::ui::Size &",
   "referenced_type" : "_ZTIKN7android2ui4SizeE",
   "self_type" : "_ZTIRKN7android2ui4SizeE",
   "size" : 4,
   "source_file" : "/frameworks/native/libs/ui/include/ui/Size.h"
  },
  {
   "alignment" : 4,
   "linker_set_key" : "_ZTIRKN7android2wpINS_4hidl4base4V1_05IBaseEEE",
   "name" : "const android::wp<android::hidl::base::V1_0::IBase> &",
   "referenced_type" : "_ZTIKN7android2wpINS_4hidl4base4V1_05IBaseEEE",
   "self_type" : "_ZTIRKN7android2wpINS_4hidl4base4V1_05IBaseEEE",
   "size" : 4,
   "source_file" : "/system/libhidl/transport/token/1.0/utils/include/hidl/HybridInterface.h"
  },
  {
   "alignment" : 4,
   "linker_set_key" : "_ZTIRKN7android2wpINS_7IBinder14DeathRecipientEEE",
   "name" : "const android::wp<android::IBinder::DeathRecipient> &",
   "referenced_type" : "_ZTIKN7android2wpINS_7IBinder14DeathRecipientEEE",
   "self_type" : "_ZTIRKN7android2wpINS_7IBinder14DeathRecipientEEE",
   "size" : 4,
   "source_file" : "/system/core/libutils/include/utils/RefBase.h"
  },
  {
   "alignment" : 4,
   "linker_set_key" : "_ZTIRKN7android2wpINS_7IBinderEEE",
   "name" : "const android::wp<android::IBinder> &",
   "referenced_type" : "_ZTIKN7android2wpINS_7IBinderEEE",
   "self_type" : "_ZTIRKN7android2wpINS_7IBinderEEE",
   "size" : 4,
   "source_file" : "/system/core/libutils/include/utils/RefBase.h"
  },
  {
   "alignment" : 4,
   "linker_set_key" : "_ZTIRKN7android4IOMX13ComponentInfoE",
   "name" : "const android::IOMX::ComponentInfo &",
   "referenced_type" : "_ZTIKN7android4IOMX13ComponentInfoE",
   "self_type" : "_ZTIRKN7android4IOMX13ComponentInfoE",
   "size" : 4,
   "source_file" : "/frameworks/av/media/libmedia/include/media/omx/1.0/Conversion.h"
  },
  {
   "alignment" : 4,
   "linker_set_key" : "_ZTIRKN7android4ListINS_7String8EE13_ListIteratorIS1_NS2_14CONST_ITERATOREEE",
   "name" : "const android::List<String8>::_ListIterator<android::String8, android::List<String8>::CONST_ITERATOR> &",
   "referenced_type" : "_ZTIKN7android4ListINS_7String8EE13_ListIteratorIS1_NS2_14CONST_ITERATOREEE",
   "self_type" : "_ZTIRKN7android4ListINS_7String8EE13_ListIteratorIS1_NS2_14CONST_ITERATOREEE",
   "size" : 4,
   "source_file" : "/system/core/libutils/include/utils/List.h"
  },
  {
   "alignment" : 4,
   "linker_set_key" : "_ZTIRKN7android4RectE",
   "name" : "const android::Rect &",
   "referenced_type" : "_ZTIKN7android4RectE",
   "self_type" : "_ZTIRKN7android4RectE",
   "size" : 4,
   "source_file" : "/frameworks/native/libs/ui/include/ui/Rect.h"
  },
  {
   "alignment" : 4,
   "linker_set_key" : "_ZTIRKN7android5PointE",
   "name" : "const android::Point &",
   "referenced_type" : "_ZTIKN7android5PointE",
   "self_type" : "_ZTIRKN7android5PointE",
   "size" : 4,
   "source_file" : "/frameworks/native/libs/ui/include/ui/Point.h"
  },
  {
   "alignment" : 4,
   "linker_set_key" : "_ZTIRKN7android6ParcelE",
   "name" : "const android::Parcel &",
   "referenced_type" : "_ZTIKN7android6ParcelE",
   "self_type" : "_ZTIRKN7android6ParcelE",
   "size" : 4,
   "source_file" : "/frameworks/native/libs/binder/include/binder/Parcel.h"
  },
  {
   "alignment" : 4,
   "linker_set_key" : "_ZTIRKN7android6binder6StatusE",
   "name" : "const android::binder::Status &",
   "referenced_type" : "_ZTIKN7android6binder6StatusE",
   "self_type" : "_ZTIRKN7android6binder6StatusE",
   "size" : 4,
   "source_file" : "/frameworks/native/libs/binder/include/binder/Status.h"
  },
  {
   "alignment" : 4,
   "linker_set_key" : "_ZTIRKN7android7AStringE",
   "name" : "const android::AString &",
   "referenced_type" : "_ZTIKN7android7AStringE",
   "self_type" : "_ZTIRKN7android7AStringE",
   "size" : 4,
   "source_file" : "/frameworks/av/media/libstagefright/foundation/include/media/stagefright/foundation/AString.h"
  },
  {
   "alignment" : 4,
   "linker_set_key" : "_ZTIRKN7android7String8E",
   "name" : "const android::String8 &",
   "referenced_type" : "_ZTIKN7android7String8E",
   "self_type" : "_ZTIRKN7android7String8E",
   "size" : 4,
   "source_file" : "/system/core/libutils/include/utils/String8.h"
  },
  {
   "alignment" : 4,
   "linker_set_key" : "_ZTIRKN7android8String1610StaticDataILj25EEE",
   "name" : "const android::String16::StaticData<25> &",
   "referenced_type" : "_ZTIKN7android8String1610StaticDataILj25EEE",
   "self_type" : "_ZTIRKN7android8String1610StaticDataILj25EEE",
   "size" : 4,
   "source_file" : "/system/core/libutils/include/utils/String16.h"
  },
  {
   "alignment" : 4,
   "linker_set_key" : "_ZTIRKN7android8String1610StaticDataILj26EEE",
   "name" : "const android::String16::StaticData<26> &",
   "referenced_type" : "_ZTIKN7android8String1610StaticDataILj26EEE",
   "self_type" : "_ZTIRKN7android8String1610StaticDataILj26EEE",
   "size" : 4,
   "source_file" : "/system/core/libutils/include/utils/String16.h"
  },
  {
   "alignment" : 4,
   "linker_set_key" : "_ZTIRKN7android8String1610StaticDataILj30EEE",
   "name" : "const android::String16::StaticData<30> &",
   "referenced_type" : "_ZTIKN7android8String1610StaticDataILj30EEE",
   "self_type" : "_ZTIRKN7android8String1610StaticDataILj30EEE",
   "size" : 4,
   "source_file" : "/system/core/libutils/include/utils/String16.h"
  },
  {
   "alignment" : 4,
   "linker_set_key" : "_ZTIRKN7android8String16E",
   "name" : "const android::String16 &",
   "referenced_type" : "_ZTIKN7android8String16E",
   "self_type" : "_ZTIRKN7android8String16E",
   "size" : 4,
   "source_file" : "/system/core/libutils/include/utils/String16.h"
  },
  {
   "alignment" : 4,
   "linker_set_key" : "_ZTIRKN7android8hardware10hidl_arrayIjLj10EJEEE",
   "name" : "const android::hardware::hidl_array<unsigned int, 10> &",
   "referenced_type" : "_ZTIKN7android8hardware10hidl_arrayIjLj10EJEEE",
   "self_type" : "_ZTIRKN7android8hardware10hidl_arrayIjLj10EJEEE",
   "size" : 4,
   "source_file" : "/system/libhidl/base/include/hidl/HidlSupport.h"
  },
  {
   "alignment" : 4,
   "linker_set_key" : "_ZTIRKN7android8hardware11hidl_handleE",
   "name" : "const android::hardware::hidl_handle &",
   "referenced_type" : "_ZTIKN7android8hardware11hidl_handleE",
   "self_type" : "_ZTIRKN7android8hardware11hidl_handleE",
   "size" : 4,
   "source_file" : "/system/libhidl/base/include/hidl/HidlSupport.h"
  },
  {
   "alignment" : 4,
   "linker_set_key" : "_ZTIRKN7android8hardware11hidl_memoryE",
   "name" : "const android::hardware::hidl_memory &",
   "referenced_type" : "_ZTIKN7android8hardware11hidl_memoryE",
   "self_type" : "_ZTIRKN7android8hardware11hidl_memoryE",
   "size" : 4,
   "source_file" : "/system/libhidl/base/include/hidl/HidlSupport.h"
  },
  {
   "alignment" : 4,
   "linker_set_key" : "_ZTIRKN7android8hardware11hidl_stringE",
   "name" : "const android::hardware::hidl_string &",
   "referenced_type" : "_ZTIKN7android8hardware11hidl_stringE",
   "self_type" : "_ZTIRKN7android8hardware11hidl_stringE",
   "size" : 4,
   "source_file" : "/system/libhidl/base/include/hidl/HidlSupport.h"
  },
  {
   "alignment" : 4,
   "linker_set_key" : "_ZTIRKN7android8hardware12hidl_versionE",
   "name" : "const android::hardware::hidl_version &",
   "referenced_type" : "_ZTIKN7android8hardware12hidl_versionE",
   "self_type" : "_ZTIRKN7android8hardware12hidl_versionE",
   "size" : 4,
   "source_file" : "/system/libhidl/base/include/hidl/HidlSupport.h"
  },
  {
   "alignment" : 4,
   "linker_set_key" : "_ZTIRKN7android8hardware5media3omx4V1_011CodecBufferE",
   "name" : "const android::hardware::media::omx::V1_0::CodecBuffer &",
   "referenced_type" : "_ZTIKN7android8hardware5media3omx4V1_011CodecBufferE",
   "self_type" : "_ZTIRKN7android8hardware5media3omx4V1_011CodecBufferE",
   "size" : 4,
   "source_file" : "/frameworks/av/media/libmedia/include/media/OMXBuffer.h"
  },
  {
   "alignment" : 4,
   "linker_set_key" : "_ZTIRKN7android8hardware5media3omx4V1_012ColorAspectsE",
   "name" : "const android::hardware::media::omx::V1_0::ColorAspects &",
   "referenced_type" : "_ZTIKN7android8hardware5media3omx4V1_012ColorAspectsE",
   "self_type" : "_ZTIRKN7android8hardware5media3omx4V1_012ColorAspectsE",
   "size" : 4,
   "source_file" : "/frameworks/av/media/libmedia/include/media/omx/1.0/Conversion.h"
  },
  {
   "alignment" : 4,
   "linker_set_key" : "_ZTIRKN7android8hardware5media3omx4V1_04IOmx13ComponentInfoE",
   "name" : "const android::hardware::media::omx::V1_0::IOmx::ComponentInfo &",
   "referenced_type" : "_ZTIKN7android8hardware5media3omx4V1_04IOmx13ComponentInfoE",
   "self_type" : "_ZTIRKN7android8hardware5media3omx4V1_04IOmx13ComponentInfoE",
   "size" : 4,
   "source_file" : "/frameworks/av/media/libmedia/include/media/omx/1.0/Conversion.h"
  },
  {
   "alignment" : 4,
   "linker_set_key" : "_ZTIRKN7android8hardware5media3omx4V1_06StatusE",
   "name" : "const android::hardware::media::omx::V1_0::Status &",
   "referenced_type" : "_ZTIKN7android8hardware5media3omx4V1_06StatusE",
   "self_type" : "_ZTIRKN7android8hardware5media3omx4V1_06StatusE",
   "size" : 4,
   "source_file" : "/frameworks/av/media/libmedia/include/media/omx/1.0/Conversion.h"
  },
  {
   "alignment" : 4,
   "linker_set_key" : "_ZTIRKN7android8hardware5media3omx4V1_07MessageE",
   "name" : "const android::hardware::media::omx::V1_0::Message &",
   "referenced_type" : "_ZTIKN7android8hardware5media3omx4V1_07MessageE",
   "self_type" : "_ZTIRKN7android8hardware5media3omx4V1_07MessageE",
   "size" : 4,
   "source_file" : "/frameworks/av/media/libmedia/include/media/omx/1.0/Conversion.h"
  },
  {
   "alignment" : 4,
   "linker_set_key" : "_ZTIRKN7android8hardware5media4V1_04RectE",
   "name" : "const android::hardware::media::V1_0::Rect &",
   "referenced_type" : "_ZTIKN7android8hardware5media4V1_04RectE",
   "self_type" : "_ZTIRKN7android8hardware5media4V1_04RectE",
   "size" : 4,
   "source_file" : "/system/libhidl/base/include/hidl/HidlInternal.h"
  },
  {
   "alignment" : 4,
   "linker_set_key" : "_ZTIRKN7android8hardware5media4V1_09AnwBufferE",
   "name" : "const android::hardware::media::V1_0::AnwBuffer &",
   "referenced_type" : "_ZTIKN7android8hardware5media4V1_09AnwBufferE",
   "self_type" : "_ZTIRKN7android8hardware5media4V1_09AnwBufferE",
   "size" : 4,
   "source_file" : "/frameworks/av/media/libmedia/include/media/omx/1.0/Conversion.h"
  },
  {
   "alignment" : 4,
   "linker_set_key" : "_ZTIRKN7android8hardware6ReturnINS0_5media3omx4V1_06StatusEEE",
   "name" : "const android::hardware::Return<android::hardware::media::omx::V1_0::Status> &",
   "referenced_type" : "_ZTIKN7android8hardware6ReturnINS0_5media3omx4V1_06StatusEEE",
   "self_type" : "_ZTIRKN7android8hardware6ReturnINS0_5media3omx4V1_06StatusEEE",
   "size" : 4,
   "source_file" : "/frameworks/av/media/libmedia/include/media/omx/1.0/Conversion.h"
  },
  {
   "alignment" : 4,
   "linker_set_key" : "_ZTIRKN7android8hardware6ReturnIvEE",
   "name" : "const android::hardware::Return<void> &",
   "referenced_type" : "_ZTIKN7android8hardware6ReturnIvEE",
   "self_type" : "_ZTIRKN7android8hardware6ReturnIvEE",
   "size" : 4,
   "source_file" : "/frameworks/av/media/libmedia/include/media/omx/1.0/Conversion.h"
  },
  {
   "alignment" : 4,
   "linker_set_key" : "_ZTIRKN7android8hardware6StatusE",
   "name" : "const android::hardware::Status &",
   "referenced_type" : "_ZTIKN7android8hardware6StatusE",
   "self_type" : "_ZTIRKN7android8hardware6StatusE",
   "size" : 4,
   "source_file" : "/system/libhidl/base/include/hidl/Status.h"
  },
  {
   "alignment" : 4,
   "linker_set_key" : "_ZTIRKN7android8hardware7details12hidl_pointerIhEE",
   "name" : "const android::hardware::details::hidl_pointer<unsigned char> &",
   "referenced_type" : "_ZTIKN7android8hardware7details12hidl_pointerIhEE",
   "self_type" : "_ZTIRKN7android8hardware7details12hidl_pointerIhEE",
   "size" : 4,
   "source_file" : "/system/libhidl/base/include/hidl/HidlInternal.h"
  },
  {
   "alignment" : 4,
   "linker_set_key" : "_ZTIRKN7android8hardware7details14const_accessorIjLj10EJEEE",
   "name" : "const android::hardware::details::const_accessor<unsigned int, 10> &",
   "referenced_type" : "_ZTIKN7android8hardware7details14const_accessorIjLj10EJEEE",
   "self_type" : "_ZTIRKN7android8hardware7details14const_accessorIjLj10EJEEE",
   "size" : 4,
   "source_file" : "/system/libhidl/base/include/hidl/HidlSupport.h"
  },
  {
   "alignment" : 4,
   "linker_set_key" : "_ZTIRKN7android8hardware8graphics11bufferqueue4V1_022IGraphicBufferProducer16FrameEventsDeltaE",
   "name" : "const android::hardware::graphics::bufferqueue::V1_0::IGraphicBufferProducer::FrameEventsDelta &",
   "referenced_type" : "_ZTIKN7android8hardware8graphics11bufferqueue4V1_022IGraphicBufferProducer16FrameEventsDeltaE",
   "self_type" : "_ZTIRKN7android8hardware8graphics11bufferqueue4V1_022IGraphicBufferProducer16FrameEventsDeltaE",
   "size" : 4,
   "source_file" : "/system/libhidl/base/include/hidl/HidlInternal.h"
  },
  {
   "alignment" : 4,
   "linker_set_key" : "_ZTIRKN7android8hardware8graphics6common4V1_09DataspaceE",
   "name" : "const android::hardware::graphics::common::V1_0::Dataspace &",
   "referenced_type" : "_ZTIKN7android8hardware8graphics6common4V1_09DataspaceE",
   "self_type" : "_ZTIRKN7android8hardware8graphics6common4V1_09DataspaceE",
   "size" : 4,
   "source_file" : "/frameworks/av/media/libmedia/include/media/omx/1.0/Conversion.h"
  },
  {
   "linker_set_key" : "_ZTIRKN7android8hardware8hidl_vec4iterIXTL0__EEE",
   "name" : "const iter<is_const> &",
   "referenced_type" : "_ZTIKN7android8hardware8hidl_vec4iterIXTL0__EEE",
   "self_type" : "_ZTIRKN7android8hardware8hidl_vec4iterIXTL0__EEE",
   "source_file" : "/system/libhidl/base/include/hidl/HidlSupport.h"
  },
  {
   "alignment" : 4,
   "linker_set_key" : "_ZTIRKN7android8hardware8hidl_vecINS0_11hidl_stringEEE",
   "name" : "const android::hardware::hidl_vec<android::hardware::hidl_string> &",
   "referenced_type" : "_ZTIKN7android8hardware8hidl_vecINS0_11hidl_stringEEE",
   "self_type" : "_ZTIRKN7android8hardware8hidl_vecINS0_11hidl_stringEEE",
   "size" : 4,
   "source_file" : "/system/libhidl/base/include/hidl/HidlSupport.h"
  },
  {
   "alignment" : 4,
   "linker_set_key" : "_ZTIRKN7android8hardware8hidl_vecINS0_5media3omx4V1_07MessageEEE",
   "name" : "const android::hardware::hidl_vec<android::hardware::media::omx::V1_0::Message> &",
   "referenced_type" : "_ZTIKN7android8hardware8hidl_vecINS0_5media3omx4V1_07MessageEEE",
   "self_type" : "_ZTIRKN7android8hardware8hidl_vecINS0_5media3omx4V1_07MessageEEE",
   "size" : 4,
   "source_file" : "/frameworks/av/media/libmedia/include/media/omx/1.0/WOmxObserver.h"
  },
  {
   "alignment" : 4,
   "linker_set_key" : "_ZTIRKN7android8hardware8hidl_vecINS0_5media4V1_04RectEEE",
   "name" : "const android::hardware::hidl_vec<android::hardware::media::V1_0::Rect> &",
   "referenced_type" : "_ZTIKN7android8hardware8hidl_vecINS0_5media4V1_04RectEEE",
   "self_type" : "_ZTIRKN7android8hardware8hidl_vecINS0_5media4V1_04RectEEE",
   "size" : 4,
   "source_file" : "/system/libhidl/base/include/hidl/HidlSupport.h"
  },
  {
   "alignment" : 4,
   "linker_set_key" : "_ZTIRKN7android8hardware8hidl_vecINS0_8graphics11bufferqueue4V1_022IGraphicBufferProducer16FrameEventsDeltaEEE",
   "name" : "const android::hardware::hidl_vec<android::hardware::graphics::bufferqueue::V1_0::IGraphicBufferProducer::FrameEventsDelta> &",
   "referenced_type" : "_ZTIKN7android8hardware8hidl_vecINS0_8graphics11bufferqueue4V1_022IGraphicBufferProducer16FrameEventsDeltaEEE",
   "self_type" : "_ZTIRKN7android8hardware8hidl_vecINS0_8graphics11bufferqueue4V1_022IGraphicBufferProducer16FrameEventsDeltaEEE",
   "size" : 4,
   "source_file" : "/system/libhidl/base/include/hidl/HidlSupport.h"
  },
  {
   "alignment" : 4,
   "linker_set_key" : "_ZTIRKN7android8hardware8hidl_vecIhEE",
   "name" : "const android::hardware::hidl_vec<unsigned char> &",
   "referenced_type" : "_ZTIKN7android8hardware8hidl_vecIhEE",
   "self_type" : "_ZTIRKN7android8hardware8hidl_vecIhEE",
   "size" : 4,
   "source_file" : "/system/libhidl/base/include/hidl/HidlSupport.h"
  },
  {
   "alignment" : 4,
   "linker_set_key" : "_ZTIRKN7android9FloatRectE",
   "name" : "const android::FloatRect &",
   "referenced_type" : "_ZTIKN7android9FloatRectE",
   "self_type" : "_ZTIRKN7android9FloatRectE",
   "size" : 4,
   "source_file" : "/frameworks/native/libs/ui/include/ui/FloatRect.h"
  },
  {
   "alignment" : 4,
   "linker_set_key" : "_ZTIRKN7android9OMXBufferE",
   "name" : "const android::OMXBuffer &",
   "referenced_type" : "_ZTIKN7android9OMXBufferE",
   "self_type" : "_ZTIRKN7android9OMXBufferE",
   "size" : 4,
   "source_file" : "/frameworks/av/media/libmedia/include/media/OMXBuffer.h"
  },
  {
   "alignment" : 4,
   "linker_set_key" : "_ZTIRKNSt3__110shared_ptrI8C2BufferEE",
   "name" : "const std::shared_ptr<C2Buffer> &",
   "referenced_type" : "_ZTIKNSt3__110shared_ptrI8C2BufferEE",
   "self_type" : "_ZTIRKNSt3__110shared_ptrI8C2BufferEE",
   "size" : 4,
   "source_file" : "/frameworks/av/media/libmedia/include/media/MediaCodecBuffer.h"
  },
  {
   "alignment" : 4,
   "linker_set_key" : "_ZTIRKNSt3__110unique_ptrIN7android12IOMXObserverENS_14default_deleteIS2_EEEE",
   "name" : "const std::unique_ptr<android::IOMXObserver, std::default_delete<android::IOMXObserver> > &",
   "referenced_type" : "_ZTIKNSt3__110unique_ptrIN7android12IOMXObserverENS_14default_deleteIS2_EEEE",
   "self_type" : "_ZTIRKNSt3__110unique_ptrIN7android12IOMXObserverENS_14default_deleteIS2_EEEE",
   "size" : 4,
   "source_file" : "/frameworks/av/media/libmedia/include/media/IOMX.h"
  },
  {
   "alignment" : 4,
   "linker_set_key" : "_ZTIRKNSt3__14listIN7android11omx_messageENS_9allocatorIS2_EEEE",
   "name" : "const std::list<android::omx_message, std::allocator<android::omx_message> > &",
   "referenced_type" : "_ZTIKNSt3__14listIN7android11omx_messageENS_9allocatorIS2_EEEE",
   "self_type" : "_ZTIRKNSt3__14listIN7android11omx_messageENS_9allocatorIS2_EEEE",
   "size" : 4,
   "source_file" : "/frameworks/av/media/libmedia/include/media/omx/1.0/WOmxObserver.h"
  },
  {
   "alignment" : 4,
   "linker_set_key" : "_ZTIRKNSt3__16vectorINS_8functionIFvN7android8hardware7details16HidlInstrumentor20InstrumentationEventEPKcS8_S8_S8_PNS0_IPvNS_9allocatorIS9_EEEEEEENSA_ISF_EEEE",
   "name" : "const std::vector<std::function<void (InstrumentationEvent, const char *, const char *, const char *, const char *, vector<void *, allocator<void *> > *)>, std::allocator<std::function<void (InstrumentationEvent, const char *, const char *, const char *, const char *, vector<void *, allocator<void *> > *)> > > &",
   "referenced_type" : "_ZTIKNSt3__16vectorINS_8functionIFvN7android8hardware7details16HidlInstrumentor20InstrumentationEventEPKcS8_S8_S8_PNS0_IPvNS_9allocatorIS9_EEEEEEENSA_ISF_EEEE",
   "self_type" : "_ZTIRKNSt3__16vectorINS_8functionIFvN7android8hardware7details16HidlInstrumentor20InstrumentationEventEPKcS8_S8_S8_PNS0_IPvNS_9allocatorIS9_EEEEEEENSA_ISF_EEEE",
   "size" : 4,
   "source_file" : "/system/libhidl/base/include/hidl/HidlInternal.h"
  },
  {
   "alignment" : 4,
   "linker_set_key" : "_ZTIRKNSt3__16vectorIhNS_9allocatorIhEEEE",
   "name" : "const std::vector<unsigned char, std::allocator<unsigned char> > &",
   "referenced_type" : "_ZTIKNSt3__16vectorIhNS_9allocatorIhEEEE",
   "self_type" : "_ZTIRKNSt3__16vectorIhNS_9allocatorIhEEEE",
   "size" : 4,
   "source_file" : "/system/libhidl/base/include/hidl/HidlSupport.h"
  },
  {
   "alignment" : 4,
   "linker_set_key" : "_ZTIRKa",
   "name" : "const signed char &",
   "referenced_type" : "_ZTIKa",
   "self_type" : "_ZTIRKa",
   "size" : 4,
   "source_file" : "/system/core/libutils/include/utils/TypeHelpers.h"
  },
  {
   "alignment" : 4,
   "linker_set_key" : "_ZTIRKb",
   "name" : "const bool &",
   "referenced_type" : "_ZTIKb",
   "self_type" : "_ZTIRKb",
   "size" : 4,
   "source_file" : "/system/core/libutils/include/utils/TypeHelpers.h"
  },
  {
   "alignment" : 4,
   "linker_set_key" : "_ZTIRKd",
   "name" : "const double &",
   "referenced_type" : "_ZTIKd",
   "self_type" : "_ZTIRKd",
   "size" : 4,
   "source_file" : "/system/core/libutils/include/utils/TypeHelpers.h"
  },
  {
   "alignment" : 4,
   "linker_set_key" : "_ZTIRKf",
   "name" : "const float &",
   "referenced_type" : "_ZTIKf",
   "self_type" : "_ZTIRKf",
   "size" : 4,
   "source_file" : "/system/core/libutils/include/utils/TypeHelpers.h"
  },
  {
   "alignment" : 4,
   "linker_set_key" : "_ZTIRKh",
   "name" : "const unsigned char &",
   "referenced_type" : "_ZTIKh",
   "self_type" : "_ZTIRKh",
   "size" : 4,
   "source_file" : "/system/core/libutils/include/utils/TypeHelpers.h"
  },
  {
   "alignment" : 4,
   "linker_set_key" : "_ZTIRKi",
   "name" : "const int &",
   "referenced_type" : "_ZTIKi",
   "self_type" : "_ZTIRKi",
   "size" : 4,
   "source_file" : "/system/core/libutils/include/utils/TypeHelpers.h"
  },
  {
   "alignment" : 4,
   "linker_set_key" : "_ZTIRKj",
   "name" : "const unsigned int &",
   "referenced_type" : "_ZTIKj",
   "self_type" : "_ZTIRKj",
   "size" : 4,
   "source_file" : "/system/core/libutils/include/utils/TypeHelpers.h"
  },
  {
   "alignment" : 4,
   "linker_set_key" : "_ZTIRKs",
   "name" : "const short &",
   "referenced_type" : "_ZTIKs",
   "self_type" : "_ZTIRKs",
   "size" : 4,
   "source_file" : "/system/core/libutils/include/utils/TypeHelpers.h"
  },
  {
   "alignment" : 4,
   "linker_set_key" : "_ZTIRKt",
   "name" : "const unsigned short &",
   "referenced_type" : "_ZTIKt",
   "self_type" : "_ZTIRKt",
   "size" : 4,
   "source_file" : "/system/core/libutils/include/utils/TypeHelpers.h"
  },
  {
   "alignment" : 4,
   "linker_set_key" : "_ZTIRKx",
   "name" : "const long long &",
   "referenced_type" : "_ZTIKx",
   "self_type" : "_ZTIRKx",
   "size" : 4,
   "source_file" : "/system/core/libutils/include/utils/TypeHelpers.h"
  },
  {
   "alignment" : 4,
   "linker_set_key" : "_ZTIRKy",
   "name" : "const unsigned long long &",
   "referenced_type" : "_ZTIKy",
   "self_type" : "_ZTIRKy",
   "size" : 4,
   "source_file" : "/system/core/libutils/include/utils/TypeHelpers.h"
  },
  {
   "alignment" : 4,
   "linker_set_key" : "_ZTIRN3ndk10SpAIBinderE",
   "name" : "ndk::SpAIBinder &",
   "referenced_type" : "_ZTIN3ndk10SpAIBinderE",
   "self_type" : "_ZTIRN3ndk10SpAIBinderE",
   "size" : 4,
   "source_file" : "/frameworks/native/libs/binder/ndk/include_ndk/android/binder_auto_utils.h"
  },
  {
   "alignment" : 4,
   "linker_set_key" : "_ZTIRN3ndk13ScopedAStatusE",
   "name" : "ndk::ScopedAStatus &",
   "referenced_type" : "_ZTIN3ndk13ScopedAStatusE",
   "self_type" : "_ZTIRN3ndk13ScopedAStatusE",
   "size" : 4,
   "source_file" : "/frameworks/native/libs/binder/ndk/include_ndk/android/binder_auto_utils.h"
  },
  {
   "alignment" : 4,
   "linker_set_key" : "_ZTIRN7android10TextOutputE",
   "name" : "android::TextOutput &",
   "referenced_type" : "_ZTIN7android10TextOutputE",
   "self_type" : "_ZTIRN7android10TextOutputE",
   "size" : 4,
   "source_file" : "/frameworks/native/libs/binder/include/binder/Parcel.h"
  },
  {
   "alignment" : 4,
   "linker_set_key" : "_ZTIRN7android11FlattenableINS_13GraphicBufferEEE",
   "name" : "android::Flattenable<android::GraphicBuffer> &",
   "referenced_type" : "_ZTIN7android11FlattenableINS_13GraphicBufferEEE",
   "self_type" : "_ZTIRN7android11FlattenableINS_13GraphicBufferEEE",
   "size" : 4,
   "source_file" : "/frameworks/native/libs/binder/include/binder/Parcel.h"
  },
  {
   "alignment" : 4,
   "linker_set_key" : "_ZTIRN7android13GraphicBufferE",
   "name" : "android::GraphicBuffer &",
   "referenced_type" : "_ZTIN7android13GraphicBufferE",
   "self_type" : "_ZTIRN7android13GraphicBufferE",
   "size" : 4,
   "source_file" : "/system/core/libutils/include/utils/StrongPointer.h"
  },
  {
   "alignment" : 4,
   "linker_set_key" : "_ZTIRN7android19GraphicBufferMapperE",
   "name" : "android::GraphicBufferMapper &",
   "referenced_type" : "_ZTIN7android19GraphicBufferMapperE",
   "self_type" : "_ZTIRN7android19GraphicBufferMapperE",
   "size" : 4,
   "source_file" : "/system/core/libutils/include/utils/Singleton.h"
  },
  {
   "alignment" : 4,
   "linker_set_key" : "_ZTIRN7android2spINS_12H2BConverterINS_8hardware5media3omx4V1_08IOmxNodeENS_9BnOMXNodeEE8ObituaryEEE",
   "name" : "android::sp<android::H2BConverter<IOmxNode, BnOMXNode>::Obituary> &",
   "referenced_type" : "_ZTIN7android2spINS_12H2BConverterINS_8hardware5media3omx4V1_08IOmxNodeENS_9BnOMXNodeEE8ObituaryEEE",
   "self_type" : "_ZTIRN7android2spINS_12H2BConverterINS_8hardware5media3omx4V1_08IOmxNodeENS_9BnOMXNodeEE8ObituaryEEE",
   "size" : 4,
   "source_file" : "/system/core/libutils/include/utils/StrongPointer.h"
  },
  {
   "alignment" : 4,
   "linker_set_key" : "_ZTIRN7android2spINS_12IOMXObserverEEE",
   "name" : "android::sp<android::IOMXObserver> &",
   "referenced_type" : "_ZTIN7android2spINS_12IOMXObserverEEE",
   "self_type" : "_ZTIRN7android2spINS_12IOMXObserverEEE",
   "size" : 4,
   "source_file" : "/system/core/libutils/include/utils/StrongPointer.h"
  },
  {
   "alignment" : 4,
   "linker_set_key" : "_ZTIRN7android2spINS_12NativeHandleEEE",
   "name" : "android::sp<android::NativeHandle> &",
   "referenced_type" : "_ZTIN7android2spINS_12NativeHandleEEE",
   "self_type" : "_ZTIRN7android2spINS_12NativeHandleEEE",
   "size" : 4,
   "source_file" : "/system/core/libutils/include/utils/StrongPointer.h"
  },
  {
   "alignment" : 4,
   "linker_set_key" : "_ZTIRN7android2spINS_13GraphicBufferEEE",
   "name" : "android::sp<android::GraphicBuffer> &",
   "referenced_type" : "_ZTIN7android2spINS_13GraphicBufferEEE",
   "self_type" : "_ZTIRN7android2spINS_13GraphicBufferEEE",
   "size" : 4,
   "source_file" : "/system/core/libutils/include/utils/StrongPointer.h"
  },
  {
   "alignment" : 4,
   "linker_set_key" : "_ZTIRN7android2spINS_16IOMXBufferSourceEEE",
   "name" : "android::sp<android::IOMXBufferSource> &",
   "referenced_type" : "_ZTIN7android2spINS_16IOMXBufferSourceEEE",
   "self_type" : "_ZTIRN7android2spINS_16IOMXBufferSourceEEE",
   "size" : 4,
   "source_file" : "/system/core/libutils/include/utils/StrongPointer.h"
  },
  {
   "alignment" : 4,
   "linker_set_key" : "_ZTIRN7android2spINS_7IMemoryEEE",
   "name" : "android::sp<android::IMemory> &",
   "referenced_type" : "_ZTIN7android2spINS_7IMemoryEEE",
   "self_type" : "_ZTIRN7android2spINS_7IMemoryEEE",
   "size" : 4,
   "source_file" : "/system/core/libutils/include/utils/StrongPointer.h"
  },
  {
   "alignment" : 4,
   "linker_set_key" : "_ZTIRN7android2spINS_8AMessageEEE",
   "name" : "android::sp<android::AMessage> &",
   "referenced_type" : "_ZTIN7android2spINS_8AMessageEEE",
   "self_type" : "_ZTIRN7android2spINS_8AMessageEEE",
   "size" : 4,
   "source_file" : "/system/core/libutils/include/utils/StrongPointer.h"
  },
  {
   "alignment" : 4,
   "linker_set_key" : "_ZTIRN7android2spINS_8IOMXNodeEEE",
   "name" : "android::sp<android::IOMXNode> &",
   "referenced_type" : "_ZTIN7android2spINS_8IOMXNodeEEE",
   "self_type" : "_ZTIRN7android2spINS_8IOMXNodeEEE",
   "size" : 4,
   "source_file" : "/system/core/libutils/include/utils/StrongPointer.h"
  },
  {
   "alignment" : 4,
   "linker_set_key" : "_ZTIRN7android2wpINS_7IBinder14DeathRecipientEEE",
   "name" : "android::wp<android::IBinder::DeathRecipient> &",
   "referenced_type" : "_ZTIN7android2wpINS_7IBinder14DeathRecipientEEE",
   "self_type" : "_ZTIRN7android2wpINS_7IBinder14DeathRecipientEEE",
   "size" : 4,
   "source_file" : "/system/core/libutils/include/utils/RefBase.h"
  },
  {
   "alignment" : 4,
   "linker_set_key" : "_ZTIRN7android4ListINS_7String8EE13_ListIteratorIS1_NS2_14CONST_ITERATOREEE",
   "name" : "android::List<String8>::_ListIterator<android::String8, android::List<String8>::CONST_ITERATOR> &",
   "referenced_type" : "_ZTIN7android4ListINS_7String8EE13_ListIteratorIS1_NS2_14CONST_ITERATOREEE",
   "self_type" : "_ZTIRN7android4ListINS_7String8EE13_ListIteratorIS1_NS2_14CONST_ITERATOREEE",
   "size" : 4,
   "source_file" : "/system/core/libutils/include/utils/List.h"
  },
  {
   "alignment" : 4,
   "linker_set_key" : "_ZTIRN7android4RectE",
   "name" : "android::Rect &",
   "referenced_type" : "_ZTIN7android4RectE",
   "self_type" : "_ZTIRN7android4RectE",
   "size" : 4,
   "source_file" : "/frameworks/native/libs/ui/include/ui/Rect.h"
  },
  {
   "alignment" : 4,
   "linker_set_key" : "_ZTIRN7android5MutexE",
   "name" : "android::Mutex &",
   "referenced_type" : "_ZTIN7android5MutexE",
   "self_type" : "_ZTIRN7android5MutexE",
   "size" : 4,
   "source_file" : "/system/core/libutils/include/utils/Mutex.h"
  },
  {
   "alignment" : 4,
   "linker_set_key" : "_ZTIRN7android5PointE",
   "name" : "android::Point &",
   "referenced_type" : "_ZTIN7android5PointE",
   "self_type" : "_ZTIRN7android5PointE",
   "size" : 4,
   "source_file" : "/frameworks/native/libs/ui/include/ui/Point.h"
  },
  {
   "alignment" : 4,
   "linker_set_key" : "_ZTIRN7android6RWLockE",
   "name" : "android::RWLock &",
   "referenced_type" : "_ZTIN7android6RWLockE",
   "self_type" : "_ZTIRN7android6RWLockE",
   "size" : 4,
   "source_file" : "/system/core/libutils/include/utils/RWLock.h"
  },
  {
   "alignment" : 4,
   "linker_set_key" : "_ZTIRN7android6binder6StatusE",
   "name" : "android::binder::Status &",
   "referenced_type" : "_ZTIN7android6binder6StatusE",
   "self_type" : "_ZTIRN7android6binder6StatusE",
   "size" : 4,
   "source_file" : "/frameworks/native/libs/binder/include/binder/Status.h"
  },
  {
   "alignment" : 4,
   "linker_set_key" : "_ZTIRN7android7String8E",
   "name" : "android::String8 &",
   "referenced_type" : "_ZTIN7android7String8E",
   "self_type" : "_ZTIRN7android7String8E",
   "size" : 4,
   "source_file" : "/system/core/libutils/include/utils/String8.h"
  },
  {
   "alignment" : 4,
   "linker_set_key" : "_ZTIRN7android8String16E",
   "name" : "android::String16 &",
   "referenced_type" : "_ZTIN7android8String16E",
   "self_type" : "_ZTIRN7android8String16E",
   "size" : 4,
   "source_file" : "/system/core/libutils/include/utils/String16.h"
  },
  {
   "alignment" : 4,
   "linker_set_key" : "_ZTIRN7android8hardware10hidl_arrayIjLj10EJEEE",
   "name" : "android::hardware::hidl_array<unsigned int, 10> &",
   "referenced_type" : "_ZTIN7android8hardware10hidl_arrayIjLj10EJEEE",
   "self_type" : "_ZTIRN7android8hardware10hidl_arrayIjLj10EJEEE",
   "size" : 4,
   "source_file" : "/system/libhidl/base/include/hidl/HidlSupport.h"
  },
  {
   "alignment" : 4,
   "linker_set_key" : "_ZTIRN7android8hardware11hidl_memoryE",
   "name" : "android::hardware::hidl_memory &",
   "referenced_type" : "_ZTIN7android8hardware11hidl_memoryE",
   "self_type" : "_ZTIRN7android8hardware11hidl_memoryE",
   "size" : 4,
   "source_file" : "/system/libhidl/base/include/hidl/HidlSupport.h"
  },
  {
   "alignment" : 4,
   "linker_set_key" : "_ZTIRN7android8hardware11hidl_stringE",
   "name" : "android::hardware::hidl_string &",
   "referenced_type" : "_ZTIN7android8hardware11hidl_stringE",
   "self_type" : "_ZTIRN7android8hardware11hidl_stringE",
   "size" : 4,
   "source_file" : "/system/libhidl/base/include/hidl/HidlInternal.h"
  },
  {
   "alignment" : 4,
   "linker_set_key" : "_ZTIRN7android8hardware5media3omx4V1_07MessageE",
   "name" : "android::hardware::media::omx::V1_0::Message &",
   "referenced_type" : "_ZTIN7android8hardware5media3omx4V1_07MessageE",
   "self_type" : "_ZTIRN7android8hardware5media3omx4V1_07MessageE",
   "size" : 4,
   "source_file" : "/system/libhidl/base/include/hidl/HidlInternal.h"
  },
  {
   "alignment" : 4,
   "linker_set_key" : "_ZTIRN7android8hardware6ReturnINS0_5media3omx4V1_06StatusEEE",
   "name" : "android::hardware::Return<android::hardware::media::omx::V1_0::Status> &",
   "referenced_type" : "_ZTIN7android8hardware6ReturnINS0_5media3omx4V1_06StatusEEE",
   "self_type" : "_ZTIRN7android8hardware6ReturnINS0_5media3omx4V1_06StatusEEE",
   "size" : 4,
   "source_file" : "/system/libhidl/base/include/hidl/Status.h"
  },
  {
   "alignment" : 4,
   "linker_set_key" : "_ZTIRN7android8hardware6ReturnINS_2spINS0_5media3omx4V1_08IOmxNodeEEEEE",
   "name" : "android::hardware::Return<android::sp<android::hardware::media::omx::V1_0::IOmxNode> > &",
   "referenced_type" : "_ZTIN7android8hardware6ReturnINS_2spINS0_5media3omx4V1_08IOmxNodeEEEEE",
   "self_type" : "_ZTIRN7android8hardware6ReturnINS_2spINS0_5media3omx4V1_08IOmxNodeEEEEE",
   "size" : 4,
   "source_file" : "/system/libhidl/base/include/hidl/Status.h"
  },
  {
   "alignment" : 4,
   "linker_set_key" : "_ZTIRN7android8hardware6ReturnIbEE",
   "name" : "android::hardware::Return<bool> &",
   "referenced_type" : "_ZTIN7android8hardware6ReturnIbEE",
   "self_type" : "_ZTIRN7android8hardware6ReturnIbEE",
   "size" : 4,
   "source_file" : "/system/libhidl/base/include/hidl/Status.h"
  },
  {
   "alignment" : 4,
   "linker_set_key" : "_ZTIRN7android8hardware6ReturnIvEE",
   "name" : "android::hardware::Return<void> &",
   "referenced_type" : "_ZTIN7android8hardware6ReturnIvEE",
   "self_type" : "_ZTIRN7android8hardware6ReturnIvEE",
   "size" : 4,
   "source_file" : "/system/libhidl/base/include/hidl/Status.h"
  },
  {
   "alignment" : 4,
   "linker_set_key" : "_ZTIRN7android8hardware6StatusE",
   "name" : "android::hardware::Status &",
   "referenced_type" : "_ZTIN7android8hardware6StatusE",
   "self_type" : "_ZTIRN7android8hardware6StatusE",
   "size" : 4,
   "source_file" : "/system/libhidl/base/include/hidl/Status.h"
  },
  {
   "alignment" : 4,
   "linker_set_key" : "_ZTIRN7android8hardware7details12hidl_pointerINS0_11hidl_stringEEE",
   "name" : "android::hardware::details::hidl_pointer<android::hardware::hidl_string> &",
   "referenced_type" : "_ZTIN7android8hardware7details12hidl_pointerINS0_11hidl_stringEEE",
   "self_type" : "_ZTIRN7android8hardware7details12hidl_pointerINS0_11hidl_stringEEE",
   "size" : 4,
   "source_file" : "/system/libhidl/base/include/hidl/HidlInternal.h"
  },
  {
   "alignment" : 4,
   "linker_set_key" : "_ZTIRN7android8hardware7details12hidl_pointerINS0_5media3omx4V1_07MessageEEE",
   "name" : "android::hardware::details::hidl_pointer<android::hardware::media::omx::V1_0::Message> &",
   "referenced_type" : "_ZTIN7android8hardware7details12hidl_pointerINS0_5media3omx4V1_07MessageEEE",
   "self_type" : "_ZTIRN7android8hardware7details12hidl_pointerINS0_5media3omx4V1_07MessageEEE",
   "size" : 4,
   "source_file" : "/system/libhidl/base/include/hidl/HidlInternal.h"
  },
  {
   "alignment" : 4,
   "linker_set_key" : "_ZTIRN7android8hardware7details12hidl_pointerIhEE",
   "name" : "android::hardware::details::hidl_pointer<unsigned char> &",
   "referenced_type" : "_ZTIN7android8hardware7details12hidl_pointerIhEE",
   "self_type" : "_ZTIRN7android8hardware7details12hidl_pointerIhEE",
   "size" : 4,
   "source_file" : "/system/libhidl/base/include/hidl/HidlInternal.h"
  },
  {
   "alignment" : 4,
   "linker_set_key" : "_ZTIRN7android8hardware8hidl_vecIhEE",
   "name" : "android::hardware::hidl_vec<unsigned char> &",
   "referenced_type" : "_ZTIN7android8hardware8hidl_vecIhEE",
   "self_type" : "_ZTIRN7android8hardware8hidl_vecIhEE",
   "size" : 4,
   "source_file" : "/system/libhidl/base/include/hidl/HidlSupport.h"
  },
  {
   "alignment" : 4,
   "linker_set_key" : "_ZTIRN7android9FenceTime8SnapshotE",
   "name" : "android::FenceTime::Snapshot &",
   "referenced_type" : "_ZTIN7android9FenceTime8SnapshotE",
   "self_type" : "_ZTIRN7android9FenceTime8SnapshotE",
   "size" : 4,
   "source_file" : "/frameworks/native/libs/ui/include/ui/FenceTime.h"
  },
  {
   "alignment" : 4,
   "linker_set_key" : "_ZTIRN7android9OMXBufferE",
   "name" : "android::OMXBuffer &",
   "referenced_type" : "_ZTIN7android9OMXBufferE",
   "self_type" : "_ZTIRN7android9OMXBufferE",
   "size" : 4,
   "source_file" : "/frameworks/av/media/libmedia/include/media/OMXBuffer.h"
  },
  {
   "alignment" : 4,
   "linker_set_key" : "_ZTIRPKi",
   "name" : "const int *&",
   "referenced_type" : "_ZTIPKi",
   "self_type" : "_ZTIRPKi",
   "size" : 4,
   "source_file" : "/system/core/libutils/include/utils/Flattenable.h"
  },
  {
   "alignment" : 4,
   "linker_set_key" : "_ZTIRPKv",
   "name" : "const void *&",
   "referenced_type" : "_ZTIPKv",
   "self_type" : "_ZTIRPKv",
   "size" : 4,
   "source_file" : "/system/core/libutils/include/utils/Flattenable.h"
  },
  {
   "alignment" : 4,
   "linker_set_key" : "_ZTIRPi",
   "name" : "int *&",
   "referenced_type" : "_ZTIPi",
   "self_type" : "_ZTIRPi",
   "size" : 4,
   "source_file" : "/system/core/libutils/include/utils/Flattenable.h"
  },
  {
   "alignment" : 4,
   "linker_set_key" : "_ZTIRPv",
   "name" : "void *&",
   "referenced_type" : "_ZTIPv",
   "self_type" : "_ZTIRPv",
   "size" : 4,
   "source_file" : "/system/core/libutils/include/utils/Flattenable.h"
  },
  {
   "alignment" : 4,
   "linker_set_key" : "_ZTIRh",
   "name" : "unsigned char &",
   "referenced_type" : "_ZTIh",
   "self_type" : "_ZTIRh",
   "size" : 4,
   "source_file" : "/system/libhidl/base/include/hidl/HidlInternal.h"
  },
  {
   "alignment" : 4,
   "linker_set_key" : "_ZTIRi",
   "name" : "int &",
   "referenced_type" : "_ZTIi",
   "self_type" : "_ZTIRi",
   "size" : 4,
   "source_file" : "/out/soong/.intermediates/hardware/interfaces/graphics/common/1.0/android.hardware.graphics.common@1.0_genc++_headers/gen/android/hardware/graphics/common/1.0/types.h"
  },
  {
   "alignment" : 4,
   "linker_set_key" : "_ZTIRj",
   "name" : "unsigned int &",
   "referenced_type" : "_ZTIj",
   "self_type" : "_ZTIRj",
   "size" : 4,
   "source_file" : "/system/core/libutils/include/utils/Flattenable.h"
  },
  {
   "alignment" : 4,
   "linker_set_key" : "_ZTIRy",
   "name" : "unsigned long long &",
   "referenced_type" : "_ZTIy",
   "self_type" : "_ZTIRy",
   "size" : 4,
   "source_file" : "/out/soong/.intermediates/hardware/interfaces/graphics/common/1.0/android.hardware.graphics.common@1.0_genc++_headers/gen/android/hardware/graphics/common/1.0/types.h"
  }
 ],
 "pointer_types" :
 [
  {
   "alignment" : 4,
   "linker_set_key" : "_ZTIP11hw_device_t",
   "name" : "hw_device_t *",
   "referenced_type" : "_ZTI11hw_device_t",
   "self_type" : "_ZTIP11hw_device_t",
   "size" : 4,
   "source_file" : "/hardware/libhardware/include/hardware/hardware.h"
  },
  {
   "alignment" : 4,
   "linker_set_key" : "_ZTIP11hw_module_t",
   "name" : "hw_module_t *",
   "referenced_type" : "_ZTI11hw_module_t",
   "self_type" : "_ZTIP11hw_module_t",
   "size" : 4,
   "source_file" : "/hardware/libhardware/include/hardware/hardware.h"
  },
  {
   "alignment" : 4,
   "linker_set_key" : "_ZTIP13AIBinder_Weak",
   "name" : "AIBinder_Weak *",
   "referenced_type" : "_ZTI13AIBinder_Weak",
   "self_type" : "_ZTIP13AIBinder_Weak",
   "size" : 4,
   "source_file" : "/frameworks/native/libs/binder/ndk/include_ndk/android/binder_auto_utils.h"
  },
  {
   "alignment" : 4,
   "linker_set_key" : "_ZTIP13OMX_INDEXTYPE",
   "name" : "OMX_INDEXTYPE *",
   "referenced_type" : "_ZTI13OMX_INDEXTYPE",
   "self_type" : "_ZTIP13OMX_INDEXTYPE",
   "size" : 4,
   "source_file" : "/frameworks/av/media/libmedia/include/media/omx/1.0/WOmxNode.h"
  },
  {
   "alignment" : 4,
   "linker_set_key" : "_ZTIP13android_ycbcr",
   "name" : "android_ycbcr *",
   "referenced_type" : "_ZTI13android_ycbcr",
   "self_type" : "_ZTIP13android_ycbcr",
   "size" : 4,
   "source_file" : "/hardware/libhardware/include/hardware/gralloc.h"
  },
  {
   "alignment" : 4,
   "linker_set_key" : "_ZTIP13native_handle",
   "name" : "native_handle *",
   "referenced_type" : "_ZTI13native_handle",
   "self_type" : "_ZTIP13native_handle",
   "size" : 4,
   "source_file" : "/system/libhidl/base/include/hidl/HidlInternal.h"
  },
  {
   "alignment" : 4,
   "linker_set_key" : "_ZTIP14AIBinder_Class",
   "name" : "AIBinder_Class *",
   "referenced_type" : "_ZTI14AIBinder_Class",
   "self_type" : "_ZTIP14AIBinder_Class",
   "size" : 4,
   "source_file" : "/frameworks/native/libs/binder/ndk/include_ndk/android/binder_interface_utils.h"
  },
  {
   "alignment" : 4,
   "linker_set_key" : "_ZTIP14alloc_device_t",
   "name" : "alloc_device_t *",
   "referenced_type" : "_ZTI14alloc_device_t",
   "self_type" : "_ZTIP14alloc_device_t",
   "size" : 4,
   "source_file" : "/hardware/libhardware/include/hardware/gralloc.h"
  },
  {
   "alignment" : 4,
   "linker_set_key" : "_ZTIP18android_flex_plane",
   "name" : "android_flex_plane *",
   "referenced_type" : "_ZTI18android_flex_plane",
   "self_type" : "_ZTIP18android_flex_plane",
   "size" : 4,
   "source_file" : "/system/core/libsystem/include/system/graphics.h"
  },
  {
   "alignment" : 4,
   "linker_set_key" : "_ZTIP19ANativeWindowBuffer",
   "name" : "ANativeWindowBuffer *",
   "referenced_type" : "_ZTI19ANativeWindowBuffer",
   "self_type" : "_ZTIP19ANativeWindowBuffer",
   "size" : 4,
   "source_file" : "/frameworks/native/libs/nativebase/include/nativebase/nativebase.h"
  },
  {
   "alignment" : 4,
   "linker_set_key" : "_ZTIP19hw_module_methods_t",
   "name" : "hw_module_methods_t *",
   "referenced_type" : "_ZTI19hw_module_methods_t",
   "self_type" : "_ZTIP19hw_module_methods_t",
   "size" : 4,
   "source_file" : "/hardware/libhardware/include/hardware/hardware.h"
  },
  {
   "alignment" : 4,
   "linker_set_key" : "_ZTIP20OMX_BUFFERHEADERTYPE",
   "name" : "OMX_BUFFERHEADERTYPE *",
   "referenced_type" : "_ZTI20OMX_BUFFERHEADERTYPE",
   "self_type" : "_ZTIP20OMX_BUFFERHEADERTYPE",
   "size" : 4,
   "source_file" : "/frameworks/native/headers/media_plugin/media/openmax/OMX_Core.h"
  },
  {
   "alignment" : 4,
   "linker_set_key" : "_ZTIP20framebuffer_device_t",
   "name" : "framebuffer_device_t *",
   "referenced_type" : "_ZTI20framebuffer_device_t",
   "self_type" : "_ZTIP20framebuffer_device_t",
   "size" : 4,
   "source_file" : "/hardware/libhardware/include/hardware/fb.h"
  },
  {
   "alignment" : 4,
   "linker_set_key" : "_ZTIP21android_native_base_t",
   "name" : "android_native_base_t *",
   "referenced_type" : "_ZTI21android_native_base_t",
   "self_type" : "_ZTIP21android_native_base_t",
   "size" : 4,
   "source_file" : "/frameworks/native/libs/nativebase/include/nativebase/nativebase.h"
  },
  {
   "alignment" : 4,
   "linker_set_key" : "_ZTIP23AIBinder_DeathRecipient",
   "name" : "AIBinder_DeathRecipient *",
   "referenced_type" : "_ZTI23AIBinder_DeathRecipient",
   "self_type" : "_ZTIP23AIBinder_DeathRecipient",
   "size" : 4,
   "source_file" : "/frameworks/native/libs/binder/ndk/include_ndk/android/binder_auto_utils.h"
  },
  {
   "alignment" : 4,
   "linker_set_key" : "_ZTIP3DIR",
   "name" : "DIR *",
   "referenced_type" : "_ZTI3DIR",
   "self_type" : "_ZTIP3DIR",
   "size" : 4,
   "source_file" : "/system/core/base/include/android-base/unique_fd.h"
  },
  {
   "alignment" : 4,
   "linker_set_key" : "_ZTIP7AParcel",
   "name" : "AParcel *",
   "referenced_type" : "_ZTI7AParcel",
   "self_type" : "_ZTIP7AParcel",
   "size" : 4,
   "source_file" : "/frameworks/native/libs/binder/ndk/include_ndk/android/binder_auto_utils.h"
  },
  {
   "alignment" : 4,
   "linker_set_key" : "_ZTIP7AStatus",
   "name" : "AStatus *",
   "referenced_type" : "_ZTI7AStatus",
   "self_type" : "_ZTIP7AStatus",
   "size" : 4,
   "source_file" : "/frameworks/native/libs/binder/ndk/include_ndk/android/binder_auto_utils.h"
  },
  {
   "alignment" : 4,
   "linker_set_key" : "_ZTIP7__sFILE",
   "name" : "__sFILE *",
   "referenced_type" : "_ZTI7__sFILE",
   "self_type" : "_ZTIP7__sFILE",
   "size" : 4,
   "source_file" : "/system/core/base/include/android-base/unique_fd.h"
  },
  {
   "alignment" : 4,
   "linker_set_key" : "_ZTIP7log_msg",
   "name" : "log_msg *",
   "referenced_type" : "_ZTI7log_msg",
   "self_type" : "_ZTIP7log_msg",
   "size" : 4,
   "source_file" : "/system/core/liblog/include/log/log_read.h"
  },
  {
   "alignment" : 4,
   "linker_set_key" : "_ZTIP8AIBinder",
   "name" : "AIBinder *",
   "referenced_type" : "_ZTI8AIBinder",
   "self_type" : "_ZTIP8AIBinder",
   "size" : 4,
   "source_file" : "/frameworks/native/libs/binder/ndk/include_ndk/android/binder_auto_utils.h"
  },
  {
   "alignment" : 4,
   "linker_set_key" : "_ZTIPF13OMX_ERRORTYPEPvE",
   "name" : "OMX_ERRORTYPE (*)(void *)",
   "referenced_type" : "_ZTIF13OMX_ERRORTYPEPvE",
   "self_type" : "_ZTIPF13OMX_ERRORTYPEPvE",
   "size" : 4,
   "source_file" : "/frameworks/native/headers/media_plugin/media/openmax/OMX_Core.h"
  },
  {
   "alignment" : 4,
   "linker_set_key" : "_ZTIPF13OMX_ERRORTYPEPvS0_13OMX_EVENTTYPEjjS0_E",
   "name" : "OMX_ERRORTYPE (*)(void *, void *, OMX_EVENTTYPE, unsigned int, unsigned int, void *)",
   "referenced_type" : "_ZTIF13OMX_ERRORTYPEPvS0_13OMX_EVENTTYPEjjS0_E",
   "self_type" : "_ZTIPF13OMX_ERRORTYPEPvS0_13OMX_EVENTTYPEjjS0_E",
   "size" : 4,
   "source_file" : "/frameworks/native/headers/media_plugin/media/openmax/OMX_Core.h"
  },
  {
   "alignment" : 4,
   "linker_set_key" : "_ZTIPF13OMX_ERRORTYPEPvS0_P20OMX_BUFFERHEADERTYPEE",
   "name" : "OMX_ERRORTYPE (*)(void *, void *, OMX_BUFFERHEADERTYPE *)",
   "referenced_type" : "_ZTIF13OMX_ERRORTYPEPvS0_P20OMX_BUFFERHEADERTYPEE",
   "self_type" : "_ZTIPF13OMX_ERRORTYPEPvS0_P20OMX_BUFFERHEADERTYPEE",
   "size" : 4,
   "source_file" : "/frameworks/native/headers/media_plugin/media/openmax/OMX_Core.h"
  },
  {
   "alignment" : 4,
   "linker_set_key" : "_ZTIPFiP11hw_device_tE",
   "name" : "int (*)(hw_device_t *)",
   "referenced_type" : "_ZTIFiP11hw_device_tE",
   "self_type" : "_ZTIPFiP11hw_device_tE",
   "size" : 4,
   "source_file" : "/hardware/libhardware/include/hardware/hardware.h"
  },
  {
   "alignment" : 4,
   "linker_set_key" : "_ZTIPFiP14alloc_device_tPK13native_handleE",
   "name" : "int (*)(alloc_device_t *, const native_handle *)",
   "referenced_type" : "_ZTIFiP14alloc_device_tPK13native_handleE",
   "self_type" : "_ZTIPFiP14alloc_device_tPK13native_handleE",
   "size" : 4,
   "source_file" : "/hardware/libhardware/include/hardware/gralloc.h"
  },
  {
   "alignment" : 4,
   "linker_set_key" : "_ZTIPFiP14alloc_device_tiiiiPPK13native_handlePiE",
   "name" : "int (*)(alloc_device_t *, int, int, int, int, const native_handle **, int *)",
   "referenced_type" : "_ZTIFiP14alloc_device_tiiiiPPK13native_handlePiE",
   "self_type" : "_ZTIPFiP14alloc_device_tiiiiPPK13native_handlePiE",
   "size" : 4,
   "source_file" : "/hardware/libhardware/include/hardware/gralloc.h"
  },
  {
   "alignment" : 4,
   "linker_set_key" : "_ZTIPFiP20framebuffer_device_tE",
   "name" : "int (*)(framebuffer_device_t *)",
   "referenced_type" : "_ZTIFiP20framebuffer_device_tE",
   "self_type" : "_ZTIPFiP20framebuffer_device_tE",
   "size" : 4,
   "source_file" : "/hardware/libhardware/include/hardware/fb.h"
  },
  {
   "alignment" : 4,
   "linker_set_key" : "_ZTIPFiP20framebuffer_device_tPK13native_handleE",
   "name" : "int (*)(framebuffer_device_t *, const native_handle *)",
   "referenced_type" : "_ZTIFiP20framebuffer_device_tPK13native_handleE",
   "self_type" : "_ZTIPFiP20framebuffer_device_tPK13native_handleE",
   "size" : 4,
   "source_file" : "/hardware/libhardware/include/hardware/fb.h"
  },
  {
   "alignment" : 4,
   "linker_set_key" : "_ZTIPFiP20framebuffer_device_tiE",
   "name" : "int (*)(framebuffer_device_t *, int)",
   "referenced_type" : "_ZTIFiP20framebuffer_device_tiE",
   "self_type" : "_ZTIPFiP20framebuffer_device_tiE",
   "size" : 4,
   "source_file" : "/hardware/libhardware/include/hardware/fb.h"
  },
  {
   "alignment" : 4,
   "linker_set_key" : "_ZTIPFiP20framebuffer_device_tiiiiE",
   "name" : "int (*)(framebuffer_device_t *, int, int, int, int)",
   "referenced_type" : "_ZTIFiP20framebuffer_device_tiiiiE",
   "self_type" : "_ZTIPFiP20framebuffer_device_tiiiiE",
   "size" : 4,
   "source_file" : "/hardware/libhardware/include/hardware/fb.h"
  },
  {
   "alignment" : 4,
   "linker_set_key" : "_ZTIPFiP8AIBinderjPK7AParcelPS1_E",
   "name" : "int (*)(AIBinder *, unsigned int, const AParcel *, AParcel *)",
   "referenced_type" : "_ZTIFiP8AIBinderjPK7AParcelPS1_E",
   "self_type" : "_ZTIPFiP8AIBinderjPK7AParcelPS1_E",
   "size" : 4,
   "source_file" : "/frameworks/native/libs/binder/ndk/include_ndk/android/binder_interface_utils.h"
  },
  {
   "alignment" : 4,
   "linker_set_key" : "_ZTIPFiPK11hw_module_tPKcPP11hw_device_tE",
   "name" : "int (*)(const hw_module_t *, const char *, hw_device_t **)",
   "referenced_type" : "_ZTIFiPK11hw_module_tPKcPP11hw_device_tE",
   "self_type" : "_ZTIPFiPK11hw_module_tPKcPP11hw_device_tE",
   "size" : 4,
   "source_file" : "/hardware/libhardware/include/hardware/hardware.h"
  },
  {
   "alignment" : 4,
   "linker_set_key" : "_ZTIPFiPK16gralloc_module_tPK13native_handleE",
   "name" : "int (*)(const gralloc_module_t *, const native_handle *)",
   "referenced_type" : "_ZTIFiPK16gralloc_module_tPK13native_handleE",
   "self_type" : "_ZTIPFiPK16gralloc_module_tPK13native_handleE",
   "size" : 4,
   "source_file" : "/hardware/libhardware/include/hardware/gralloc.h"
  },
  {
   "alignment" : 4,
   "linker_set_key" : "_ZTIPFiPK16gralloc_module_tPK13native_handlePiE",
   "name" : "int (*)(const gralloc_module_t *, const native_handle *, int *)",
   "referenced_type" : "_ZTIFiPK16gralloc_module_tPK13native_handlePiE",
   "self_type" : "_ZTIPFiPK16gralloc_module_tPK13native_handlePiE",
   "size" : 4,
   "source_file" : "/hardware/libhardware/include/hardware/gralloc.h"
  },
  {
   "alignment" : 4,
   "linker_set_key" : "_ZTIPFiPK16gralloc_module_tPK13native_handlePjS5_E",
   "name" : "int (*)(const gralloc_module_t *, const native_handle *, unsigned int *, unsigned int *)",
   "referenced_type" : "_ZTIFiPK16gralloc_module_tPK13native_handlePjS5_E",
   "self_type" : "_ZTIPFiPK16gralloc_module_tPK13native_handlePjS5_E",
   "size" : 4,
   "source_file" : "/hardware/libhardware/include/hardware/gralloc.h"
  },
  {
   "alignment" : 4,
   "linker_set_key" : "_ZTIPFiPK16gralloc_module_tPK13native_handleiiiiiP13android_ycbcrE",
   "name" : "int (*)(const gralloc_module_t *, const native_handle *, int, int, int, int, int, android_ycbcr *)",
   "referenced_type" : "_ZTIFiPK16gralloc_module_tPK13native_handleiiiiiP13android_ycbcrE",
   "self_type" : "_ZTIPFiPK16gralloc_module_tPK13native_handleiiiiiP13android_ycbcrE",
   "size" : 4,
   "source_file" : "/hardware/libhardware/include/hardware/gralloc.h"
  },
  {
   "alignment" : 4,
   "linker_set_key" : "_ZTIPFiPK16gralloc_module_tPK13native_handleiiiiiP13android_ycbcriE",
   "name" : "int (*)(const gralloc_module_t *, const native_handle *, int, int, int, int, int, android_ycbcr *, int)",
   "referenced_type" : "_ZTIFiPK16gralloc_module_tPK13native_handleiiiiiP13android_ycbcriE",
   "self_type" : "_ZTIPFiPK16gralloc_module_tPK13native_handleiiiiiP13android_ycbcriE",
   "size" : 4,
   "source_file" : "/hardware/libhardware/include/hardware/gralloc.h"
  },
  {
   "alignment" : 4,
   "linker_set_key" : "_ZTIPFiPK16gralloc_module_tPK13native_handleiiiiiPPvE",
   "name" : "int (*)(const gralloc_module_t *, const native_handle *, int, int, int, int, int, void **)",
   "referenced_type" : "_ZTIFiPK16gralloc_module_tPK13native_handleiiiiiPPvE",
   "self_type" : "_ZTIPFiPK16gralloc_module_tPK13native_handleiiiiiPPvE",
   "size" : 4,
   "source_file" : "/hardware/libhardware/include/hardware/gralloc.h"
  },
  {
   "alignment" : 4,
   "linker_set_key" : "_ZTIPFiPK16gralloc_module_tPK13native_handleiiiiiPPviE",
   "name" : "int (*)(const gralloc_module_t *, const native_handle *, int, int, int, int, int, void **, int)",
   "referenced_type" : "_ZTIFiPK16gralloc_module_tPK13native_handleiiiiiPPviE",
   "self_type" : "_ZTIPFiPK16gralloc_module_tPK13native_handleiiiiiPPviE",
   "size" : 4,
   "source_file" : "/hardware/libhardware/include/hardware/gralloc.h"
  },
  {
   "alignment" : 4,
   "linker_set_key" : "_ZTIPFiPK16gralloc_module_tPK13native_handlejjiijE",
   "name" : "int (*)(const gralloc_module_t *, const native_handle *, unsigned int, unsigned int, int, int, unsigned int)",
   "referenced_type" : "_ZTIFiPK16gralloc_module_tPK13native_handlejjiijE",
   "self_type" : "_ZTIPFiPK16gralloc_module_tPK13native_handlejjiijE",
   "size" : 4,
   "source_file" : "/hardware/libhardware/include/hardware/gralloc.h"
  },
  {
   "alignment" : 4,
   "linker_set_key" : "_ZTIPFiPK16gralloc_module_tizE",
   "name" : "int (*)(const gralloc_module_t *, int, ...)",
   "referenced_type" : "_ZTIFiPK16gralloc_module_tizE",
   "self_type" : "_ZTIPFiPK16gralloc_module_tizE",
   "size" : 4,
   "source_file" : "/hardware/libhardware/include/hardware/gralloc.h"
  },
  {
   "alignment" : 4,
   "linker_set_key" : "_ZTIPFiPvE",
   "name" : "int (*)(void *)",
   "referenced_type" : "_ZTIFiPvE",
   "self_type" : "_ZTIPFiPvE",
   "size" : 4,
   "source_file" : "/system/core/libutils/include/utils/AndroidThreads.h"
  },
  {
   "alignment" : 4,
   "linker_set_key" : "_ZTIPFvP14alloc_device_tPciE",
   "name" : "void (*)(alloc_device_t *, char *, int)",
   "referenced_type" : "_ZTIFvP14alloc_device_tPciE",
   "self_type" : "_ZTIPFvP14alloc_device_tPciE",
   "size" : 4,
   "source_file" : "/hardware/libhardware/include/hardware/gralloc.h"
  },
  {
   "alignment" : 4,
   "linker_set_key" : "_ZTIPFvP20framebuffer_device_tPciE",
   "name" : "void (*)(framebuffer_device_t *, char *, int)",
   "referenced_type" : "_ZTIFvP20framebuffer_device_tPciE",
   "self_type" : "_ZTIPFvP20framebuffer_device_tPciE",
   "size" : 4,
   "source_file" : "/hardware/libhardware/include/hardware/fb.h"
  },
  {
   "alignment" : 4,
   "linker_set_key" : "_ZTIPFvP21android_native_base_tE",
   "name" : "void (*)(android_native_base_t *)",
   "referenced_type" : "_ZTIFvP21android_native_base_tE",
   "self_type" : "_ZTIPFvP21android_native_base_tE",
   "size" : 4,
   "source_file" : "/frameworks/native/libs/nativebase/include/nativebase/nativebase.h"
  },
  {
   "alignment" : 4,
   "linker_set_key" : "_ZTIPFvPN7android6ParcelEPKhjPKyjPvE",
   "name" : "void (*)(android::Parcel *, const unsigned char *, unsigned int, const unsigned long long *, unsigned int, void *)",
   "referenced_type" : "_ZTIFvPN7android6ParcelEPKhjPKyjPvE",
   "self_type" : "_ZTIPFvPN7android6ParcelEPKhjPKyjPvE",
   "size" : 4,
   "source_file" : "/frameworks/native/libs/binder/include/binder/Parcel.h"
  },
  {
   "alignment" : 4,
   "linker_set_key" : "_ZTIPK11hw_module_t",
   "name" : "const hw_module_t *",
   "referenced_type" : "_ZTIK11hw_module_t",
   "self_type" : "_ZTIPK11hw_module_t",
   "size" : 4,
   "source_file" : "/hardware/libhardware/include/hardware/hardware.h"
  },
  {
   "alignment" : 4,
   "linker_set_key" : "_ZTIPK13native_handle",
   "name" : "const native_handle *",
   "referenced_type" : "_ZTIK13native_handle",
   "self_type" : "_ZTIPK13native_handle",
   "size" : 4,
   "source_file" : "/system/libhidl/base/include/hidl/HidlInternal.h"
  },
  {
   "alignment" : 4,
   "linker_set_key" : "_ZTIPK16gralloc_module_t",
   "name" : "const gralloc_module_t *",
   "referenced_type" : "_ZTIK16gralloc_module_t",
   "self_type" : "_ZTIPK16gralloc_module_t",
   "size" : 4,
   "source_file" : "/hardware/libhardware/include/hardware/gralloc.h"
  },
  {
   "alignment" : 4,
   "linker_set_key" : "_ZTIPK19ANativeWindowBuffer",
   "name" : "const ANativeWindowBuffer *",
   "referenced_type" : "_ZTIK19ANativeWindowBuffer",
   "self_type" : "_ZTIPK19ANativeWindowBuffer",
   "size" : 4,
   "source_file" : "/frameworks/native/libs/nativebase/include/nativebase/nativebase.h"
  },
  {
   "alignment" : 4,
   "linker_set_key" : "_ZTIPK7AParcel",
   "name" : "const AParcel *",
   "referenced_type" : "_ZTIK7AParcel",
   "self_type" : "_ZTIPK7AParcel",
   "size" : 4,
   "source_file" : "/frameworks/native/libs/binder/ndk/include_ndk/android/binder_interface_utils.h"
  },
  {
   "alignment" : 4,
   "linker_set_key" : "_ZTIPK7log_msg",
   "name" : "const log_msg *",
   "referenced_type" : "_ZTIK7log_msg",
   "self_type" : "_ZTIPK7log_msg",
   "size" : 4,
   "source_file" : "/system/core/liblog/include/log/log_read.h"
  },
  {
   "alignment" : 4,
   "linker_set_key" : "_ZTIPKDs",
   "name" : "const char16_t *",
   "referenced_type" : "_ZTIKDs",
   "self_type" : "_ZTIPKDs",
   "size" : 4,
   "source_file" : "/system/core/libutils/include/utils/String16.h"
  },
  {
   "alignment" : 4,
   "linker_set_key" : "_ZTIPKN3ndk10SpAIBinderE",
   "name" : "const ndk::SpAIBinder *",
   "referenced_type" : "_ZTIKN3ndk10SpAIBinderE",
   "self_type" : "_ZTIPKN3ndk10SpAIBinderE",
   "size" : 4,
   "source_file" : "/frameworks/native/libs/binder/ndk/include_ndk/android/binder_auto_utils.h"
  },
  {
   "alignment" : 4,
   "linker_set_key" : "_ZTIPKN3ndk13ScopedAStatusE",
   "name" : "const ndk::ScopedAStatus *",
   "referenced_type" : "_ZTIKN3ndk13ScopedAStatusE",
   "self_type" : "_ZTIPKN3ndk13ScopedAStatusE",
   "size" : 4,
   "source_file" : "/frameworks/native/libs/binder/ndk/include_ndk/android/binder_auto_utils.h"
  },
  {
   "alignment" : 4,
   "linker_set_key" : "_ZTIPKN3ndk4impl15ScopedAResourceIP7AStatusvXadL_Z14AStatus_deleteEELS3_0EEE",
   "name" : "const ndk::impl::ScopedAResource<AStatus *, void, &AStatus_delete, nullptr> *",
   "referenced_type" : "_ZTIKN3ndk4impl15ScopedAResourceIP7AStatusvXadL_Z14AStatus_deleteEELS3_0EEE",
   "self_type" : "_ZTIPKN3ndk4impl15ScopedAResourceIP7AStatusvXadL_Z14AStatus_deleteEELS3_0EEE",
   "size" : 4,
   "source_file" : "/frameworks/native/libs/binder/ndk/include_ndk/android/binder_auto_utils.h"
  },
  {
   "alignment" : 4,
   "linker_set_key" : "_ZTIPKN7android10VectorImplE",
   "name" : "const android::VectorImpl *",
   "referenced_type" : "_ZTIKN7android10VectorImplE",
   "self_type" : "_ZTIPKN7android10VectorImplE",
   "size" : 4,
   "source_file" : "/system/core/libutils/include/utils/VectorImpl.h"
  },
  {
   "alignment" : 4,
   "linker_set_key" : "_ZTIPKN7android11AReplyTokenE",
   "name" : "const android::AReplyToken *",
   "referenced_type" : "_ZTIKN7android11AReplyTokenE",
   "self_type" : "_ZTIPKN7android11AReplyTokenE",
   "size" : 4,
   "source_file" : "/frameworks/av/media/libstagefright/foundation/include/media/stagefright/foundation/AMessage.h"
  },
  {
   "alignment" : 4,
   "linker_set_key" : "_ZTIPKN7android11BnInterfaceINS_12IOMXObserverEEE",
   "name" : "const android::BnInterface<android::IOMXObserver> *",
   "referenced_type" : "_ZTIKN7android11BnInterfaceINS_12IOMXObserverEEE",
   "self_type" : "_ZTIPKN7android11BnInterfaceINS_12IOMXObserverEEE",
   "size" : 4,
   "source_file" : "/frameworks/native/libs/binder/include/binder/IInterface.h"
  },
  {
   "alignment" : 4,
   "linker_set_key" : "_ZTIPKN7android11BnInterfaceINS_16IOMXBufferSourceEEE",
   "name" : "const android::BnInterface<android::IOMXBufferSource> *",
   "referenced_type" : "_ZTIKN7android11BnInterfaceINS_16IOMXBufferSourceEEE",
   "self_type" : "_ZTIPKN7android11BnInterfaceINS_16IOMXBufferSourceEEE",
   "size" : 4,
   "source_file" : "/frameworks/native/libs/binder/include/binder/IInterface.h"
  },
  {
   "alignment" : 4,
   "linker_set_key" : "_ZTIPKN7android11BnInterfaceINS_8IOMXNodeEEE",
   "name" : "const android::BnInterface<android::IOMXNode> *",
   "referenced_type" : "_ZTIKN7android11BnInterfaceINS_8IOMXNodeEEE",
   "self_type" : "_ZTIPKN7android11BnInterfaceINS_8IOMXNodeEEE",
   "size" : 4,
   "source_file" : "/frameworks/native/libs/binder/include/binder/IInterface.h"
  },
  {
   "alignment" : 4,
   "linker_set_key" : "_ZTIPKN7android11FlattenableINS_13GraphicBufferEEE",
   "name" : "const android::Flattenable<android::GraphicBuffer> *",
   "referenced_type" : "_ZTIKN7android11FlattenableINS_13GraphicBufferEEE",
   "self_type" : "_ZTIPKN7android11FlattenableINS_13GraphicBufferEEE",
   "size" : 4,
   "source_file" : "/system/core/libutils/include/utils/Flattenable.h"
  },
  {
   "alignment" : 4,
   "linker_set_key" : "_ZTIPKN7android11HpInterfaceINS_9BpOMXNodeENS_8hardware5media3omx4V1_05utils9LWOmxNodeEJEEE",
   "name" : "const android::HpInterface<android::BpOMXNode, android::hardware::media::omx::V1_0::utils::LWOmxNode> *",
   "referenced_type" : "_ZTIKN7android11HpInterfaceINS_9BpOMXNodeENS_8hardware5media3omx4V1_05utils9LWOmxNodeEJEEE",
   "self_type" : "_ZTIPKN7android11HpInterfaceINS_9BpOMXNodeENS_8hardware5media3omx4V1_05utils9LWOmxNodeEJEEE",
   "size" : 4,
   "source_file" : "/system/libhidl/transport/token/1.0/utils/include/hidl/HybridInterface.h"
  },
  {
   "alignment" : 4,
   "linker_set_key" : "_ZTIPKN7android11IMemoryHeapE",
   "name" : "const android::IMemoryHeap *",
   "referenced_type" : "_ZTIKN7android11IMemoryHeapE",
   "self_type" : "_ZTIPKN7android11IMemoryHeapE",
   "size" : 4,
   "source_file" : "/frameworks/native/libs/binder/include/binder/IMemory.h"
  },
  {
   "alignment" : 4,
   "linker_set_key" : "_ZTIPKN7android12H2BConverterINS_8hardware5media3omx4V1_08IOmxNodeENS_9BnOMXNodeEEE",
   "name" : "const android::H2BConverter<android::hardware::media::omx::V1_0::IOmxNode, android::BnOMXNode> *",
   "referenced_type" : "_ZTIKN7android12H2BConverterINS_8hardware5media3omx4V1_08IOmxNodeENS_9BnOMXNodeEEE",
   "self_type" : "_ZTIPKN7android12H2BConverterINS_8hardware5media3omx4V1_08IOmxNodeENS_9BnOMXNodeEEE",
   "size" : 4,
   "source_file" : "/system/libhidl/transport/token/1.0/utils/include/hidl/HybridInterface.h"
  },
  {
   "alignment" : 4,
   "linker_set_key" : "_ZTIPKN7android12IOMXObserverE",
   "name" : "const android::IOMXObserver *",
   "referenced_type" : "_ZTIKN7android12IOMXObserverE",
   "self_type" : "_ZTIPKN7android12IOMXObserverE",
   "size" : 4,
   "source_file" : "/frameworks/av/media/libmedia/include/media/IOMX.h"
  },
  {
   "alignment" : 4,
   "linker_set_key" : "_ZTIPKN7android12LightRefBaseINS_12NativeHandleEEE",
   "name" : "const android::LightRefBase<android::NativeHandle> *",
   "referenced_type" : "_ZTIKN7android12LightRefBaseINS_12NativeHandleEEE",
   "self_type" : "_ZTIPKN7android12LightRefBaseINS_12NativeHandleEEE",
   "size" : 4,
   "source_file" : "/system/core/libutils/include/utils/LightRefBase.h"
  },
  {
   "alignment" : 4,
   "linker_set_key" : "_ZTIPKN7android12LightRefBaseINS_5FenceEEE",
   "name" : "const android::LightRefBase<android::Fence> *",
   "referenced_type" : "_ZTIKN7android12LightRefBaseINS_5FenceEEE",
   "self_type" : "_ZTIPKN7android12LightRefBaseINS_5FenceEEE",
   "size" : 4,
   "source_file" : "/system/core/libutils/include/utils/LightRefBase.h"
  },
  {
   "alignment" : 4,
   "linker_set_key" : "_ZTIPKN7android12NativeHandleE",
   "name" : "const android::NativeHandle *",
   "referenced_type" : "_ZTIKN7android12NativeHandleE",
   "self_type" : "_ZTIPKN7android12NativeHandleE",
   "size" : 4,
   "source_file" : "/system/core/libutils/include/utils/NativeHandle.h"
  },
  {
   "alignment" : 4,
   "linker_set_key" : "_ZTIPKN7android13GraphicBufferE",
   "name" : "const android::GraphicBuffer *",
   "referenced_type" : "_ZTIKN7android13GraphicBufferE",
   "self_type" : "_ZTIPKN7android13GraphicBufferE",
   "size" : 4,
   "source_file" : "/frameworks/native/libs/ui/include/ui/GraphicBuffer.h"
  },
  {
   "alignment" : 4,
   "linker_set_key" : "_ZTIPKN7android16MediaCodecBufferE",
   "name" : "const android::MediaCodecBuffer *",
   "referenced_type" : "_ZTIKN7android16MediaCodecBufferE",
   "self_type" : "_ZTIPKN7android16MediaCodecBufferE",
   "size" : 4,
   "source_file" : "/frameworks/av/media/libmedia/include/media/MediaCodecBuffer.h"
  },
  {
   "alignment" : 4,
   "linker_set_key" : "_ZTIPKN7android17ANativeObjectBaseI19ANativeWindowBufferNS_13GraphicBufferENS_7RefBaseE21android_native_base_tEE",
   "name" : "const android::ANativeObjectBase<ANativeWindowBuffer, android::GraphicBuffer, android::RefBase, android_native_base_t> *",
   "referenced_type" : "_ZTIKN7android17ANativeObjectBaseI19ANativeWindowBufferNS_13GraphicBufferENS_7RefBaseE21android_native_base_tEE",
   "self_type" : "_ZTIPKN7android17ANativeObjectBaseI19ANativeWindowBufferNS_13GraphicBufferENS_7RefBaseE21android_native_base_tEE",
   "size" : 4,
   "source_file" : "/frameworks/native/libs/ui/include/ui/ANativeObjectBase.h"
  },
  {
   "alignment" : 4,
   "linker_set_key" : "_ZTIPKN7android18OMXFenceParcelableE",
   "name" : "const android::OMXFenceParcelable *",
   "referenced_type" : "_ZTIKN7android18OMXFenceParcelableE",
   "self_type" : "_ZTIPKN7android18OMXFenceParcelableE",
   "size" : 4,
   "source_file" : "/frameworks/av/media/libmedia/include/media/OMXFenceParcelable.h"
  },
  {
   "alignment" : 4,
   "linker_set_key" : "_ZTIPKN7android19GraphicBufferMapperE",
   "name" : "const android::GraphicBufferMapper *",
   "referenced_type" : "_ZTIKN7android19GraphicBufferMapperE",
   "self_type" : "_ZTIPKN7android19GraphicBufferMapperE",
   "size" : 4,
   "source_file" : "/frameworks/native/libs/ui/include/ui/GraphicBufferMapper.h"
  },
  {
   "alignment" : 4,
   "linker_set_key" : "_ZTIPKN7android2spINS_10IInterfaceEEE",
   "name" : "const android::sp<android::IInterface> *",
   "referenced_type" : "_ZTIKN7android2spINS_10IInterfaceEEE",
   "self_type" : "_ZTIPKN7android2spINS_10IInterfaceEEE",
   "size" : 4,
   "source_file" : "/system/core/libutils/include/utils/StrongPointer.h"
  },
  {
   "alignment" : 4,
   "linker_set_key" : "_ZTIPKN7android2spINS_12H2BConverterINS_8hardware5media3omx4V1_08IOmxNodeENS_9BnOMXNodeEE8ObituaryEEE",
   "name" : "const android::sp<android::H2BConverter<IOmxNode, BnOMXNode>::Obituary> *",
   "referenced_type" : "_ZTIKN7android2spINS_12H2BConverterINS_8hardware5media3omx4V1_08IOmxNodeENS_9BnOMXNodeEE8ObituaryEEE",
   "self_type" : "_ZTIPKN7android2spINS_12H2BConverterINS_8hardware5media3omx4V1_08IOmxNodeENS_9BnOMXNodeEE8ObituaryEEE",
   "size" : 4,
   "source_file" : "/system/core/libutils/include/utils/StrongPointer.h"
  },
  {
   "alignment" : 4,
   "linker_set_key" : "_ZTIPKN7android2spINS_12IOMXObserverEEE",
   "name" : "const android::sp<android::IOMXObserver> *",
   "referenced_type" : "_ZTIKN7android2spINS_12IOMXObserverEEE",
   "self_type" : "_ZTIPKN7android2spINS_12IOMXObserverEEE",
   "size" : 4,
   "source_file" : "/system/core/libutils/include/utils/StrongPointer.h"
  },
  {
   "alignment" : 4,
   "linker_set_key" : "_ZTIPKN7android2spINS_12NativeHandleEEE",
   "name" : "const android::sp<android::NativeHandle> *",
   "referenced_type" : "_ZTIKN7android2spINS_12NativeHandleEEE",
   "self_type" : "_ZTIPKN7android2spINS_12NativeHandleEEE",
   "size" : 4,
   "source_file" : "/system/core/libutils/include/utils/StrongPointer.h"
  },
  {
   "alignment" : 4,
   "linker_set_key" : "_ZTIPKN7android2spINS_13GraphicBufferEEE",
