{
 "array_types" :
 [
  {
   "alignment" : 8,
   "linker_set_key" : "Timestamp [2]",
   "name" : "Timestamp [2]",
   "referenced_type" : "type-22",
   "self_type" : "type-21",
   "size" : 32,
   "source_file" : "/frameworks/av/media/libaaudio/src/utility/AAudioUtilities.h"
  },
  {
   "alignment" : 4,
   "linker_set_key" : "aaudio::SharedMemoryParcelable [32]",
   "name" : "aaudio::SharedMemoryParcelable [32]",
   "referenced_type" : "type-35",
   "self_type" : "type-34",
   "size" : 512,
   "source_file" : "/frameworks/av/media/libaaudio/src/binding/AudioEndpointParcelable.h"
  },
  {
   "alignment" : 4,
   "linker_set_key" : "int [2]",
   "name" : "int [2]",
   "referenced_type" : "type-4",
   "self_type" : "type-207",
   "size" : 8,
   "source_file" : "/frameworks/av/media/libaaudio/src/fifo/FifoBuffer.h"
  },
  {
   "alignment" : 4,
   "linker_set_key" : "void *[2]",
   "name" : "void *[2]",
   "referenced_type" : "type-53",
   "self_type" : "type-206",
   "size" : 8,
   "source_file" : "/frameworks/av/media/libaaudio/src/fifo/FifoBuffer.h"
  }
 ],
 "builtin_types" :
 [
  {
   "alignment" : 1,
   "is_integral" : true,
   "is_unsigned" : true,
   "linker_set_key" : "bool",
   "name" : "bool",
   "referenced_type" : "type-16",
   "self_type" : "type-16",
   "size" : 1
  },
  {
   "alignment" : 1,
   "is_integral" : true,
   "is_unsigned" : true,
   "linker_set_key" : "char",
   "name" : "char",
   "referenced_type" : "type-210",
   "self_type" : "type-210",
   "size" : 1
  },
  {
   "alignment" : 8,
   "linker_set_key" : "double",
   "name" : "double",
   "referenced_type" : "type-198",
   "self_type" : "type-198",
   "size" : 8
  },
  {
   "alignment" : 4,
   "linker_set_key" : "float",
   "name" : "float",
   "referenced_type" : "type-27",
   "self_type" : "type-27",
   "size" : 4
  },
  {
   "alignment" : 4,
   "is_integral" : true,
   "linker_set_key" : "int",
   "name" : "int",
   "referenced_type" : "type-4",
   "self_type" : "type-4",
   "size" : 4
  },
  {
   "alignment" : 4,
   "is_integral" : true,
   "linker_set_key" : "long",
   "name" : "long",
   "referenced_type" : "type-59",
   "self_type" : "type-59",
   "size" : 4
  },
  {
   "alignment" : 8,
   "linker_set_key" : "long double",
   "name" : "long double",
   "referenced_type" : "type-1131",
   "self_type" : "type-1131",
   "size" : 8
  },
  {
   "alignment" : 8,
   "is_integral" : true,
   "linker_set_key" : "long long",
   "name" : "long long",
   "referenced_type" : "type-8",
   "self_type" : "type-8",
   "size" : 8
  },
  {
   "alignment" : 2,
   "is_integral" : true,
   "linker_set_key" : "short",
   "name" : "short",
   "referenced_type" : "type-1130",
   "self_type" : "type-1130",
   "size" : 2
  },
  {
   "alignment" : 1,
   "is_integral" : true,
   "is_unsigned" : true,
   "linker_set_key" : "unsigned char",
   "name" : "unsigned char",
   "referenced_type" : "type-15",
   "self_type" : "type-15",
   "size" : 1
  },
  {
   "alignment" : 4,
   "is_integral" : true,
   "is_unsigned" : true,
   "linker_set_key" : "unsigned int",
   "name" : "unsigned int",
   "referenced_type" : "type-1",
   "self_type" : "type-1",
   "size" : 4
  },
  {
   "alignment" : 4,
   "is_integral" : true,
   "is_unsigned" : true,
   "linker_set_key" : "unsigned long",
   "name" : "unsigned long",
   "referenced_type" : "type-1129",
   "self_type" : "type-1129",
   "size" : 4
  },
  {
   "alignment" : 8,
   "is_integral" : true,
   "is_unsigned" : true,
   "linker_set_key" : "unsigned long long",
   "name" : "unsigned long long",
   "referenced_type" : "type-447",
   "self_type" : "type-447",
   "size" : 8
  },
  {
   "alignment" : 2,
   "is_integral" : true,
   "is_unsigned" : true,
   "linker_set_key" : "unsigned short",
   "name" : "unsigned short",
   "referenced_type" : "type-1128",
   "self_type" : "type-1128",
   "size" : 2
  },
  {
   "linker_set_key" : "void",
   "name" : "void",
   "referenced_type" : "type-54",
   "self_type" : "type-54"
  }
 ],
 "elf_functions" :
 [
  {
   "name" : "AAudioStreamBuilder_delete"
  },
  {
   "name" : "AAudioStreamBuilder_openStream"
  },
  {
   "name" : "AAudioStreamBuilder_setAllowedCapturePolicy"
  },
  {
   "name" : "AAudioStreamBuilder_setBufferCapacityInFrames"
  },
  {
   "name" : "AAudioStreamBuilder_setChannelCount"
  },
  {
   "name" : "AAudioStreamBuilder_setContentType"
  },
  {
   "name" : "AAudioStreamBuilder_setDataCallback"
  },
  {
   "name" : "AAudioStreamBuilder_setDeviceId"
  },
  {
   "name" : "AAudioStreamBuilder_setDirection"
  },
  {
   "name" : "AAudioStreamBuilder_setErrorCallback"
  },
  {
   "name" : "AAudioStreamBuilder_setFormat"
  },
  {
   "name" : "AAudioStreamBuilder_setFramesPerDataCallback"
  },
  {
   "name" : "AAudioStreamBuilder_setInputPreset"
  },
  {
   "name" : "AAudioStreamBuilder_setPerformanceMode"
  },
  {
   "name" : "AAudioStreamBuilder_setSampleRate"
  },
  {
   "name" : "AAudioStreamBuilder_setSamplesPerFrame"
  },
  {
   "name" : "AAudioStreamBuilder_setSessionId"
  },
  {
   "name" : "AAudioStreamBuilder_setSharingMode"
  },
  {
   "name" : "AAudioStreamBuilder_setUsage"
  },
  {
   "name" : "AAudioStream_close"
  },
  {
   "name" : "AAudioStream_getAllowedCapturePolicy"
  },
  {
   "name" : "AAudioStream_getBufferCapacityInFrames"
  },
  {
   "name" : "AAudioStream_getBufferSizeInFrames"
  },
  {
   "name" : "AAudioStream_getChannelCount"
  },
  {
   "name" : "AAudioStream_getContentType"
  },
  {
   "name" : "AAudioStream_getDeviceId"
  },
  {
   "name" : "AAudioStream_getDirection"
  },
  {
   "name" : "AAudioStream_getFormat"
  },
  {
   "name" : "AAudioStream_getFramesPerBurst"
  },
  {
   "name" : "AAudioStream_getFramesPerDataCallback"
  },
  {
   "name" : "AAudioStream_getFramesRead"
  },
  {
   "name" : "AAudioStream_getFramesWritten"
  },
  {
   "name" : "AAudioStream_getInputPreset"
  },
  {
   "name" : "AAudioStream_getPerformanceMode"
  },
  {
   "name" : "AAudioStream_getSampleRate"
  },
  {
   "name" : "AAudioStream_getSamplesPerFrame"
  },
  {
   "name" : "AAudioStream_getSessionId"
  },
  {
   "name" : "AAudioStream_getSharingMode"
  },
  {
   "name" : "AAudioStream_getState"
  },
  {
   "name" : "AAudioStream_getTimestamp"
  },
  {
   "name" : "AAudioStream_getUsage"
  },
  {
   "name" : "AAudioStream_getXRunCount"
  },
  {
   "name" : "AAudioStream_isMMapUsed"
  },
  {
   "name" : "AAudioStream_read"
  },
  {
   "name" : "AAudioStream_requestFlush"
  },
  {
   "name" : "AAudioStream_requestPause"
  },
  {
   "name" : "AAudioStream_requestStart"
  },
  {
   "name" : "AAudioStream_requestStop"
  },
  {
   "name" : "AAudioStream_setBufferSizeInFrames"
  },
  {
   "name" : "AAudioStream_waitForStateChange"
  },
  {
   "name" : "AAudioStream_write"
  },
  {
   "name" : "AAudio_convertResultToText"
  },
  {
   "name" : "AAudio_convertStreamStateToText"
  },
  {
   "name" : "AAudio_createStreamBuilder"
  },
  {
   "name" : "AAudio_getMMapPolicy"
  },
  {
   "name" : "AAudio_setMMapPolicy"
  },
  {
   "name" : "_Z21AAudio_isFlushAllowedi"
  },
  {
   "name" : "_Z27AAudioConvert_framesToBytesiiPi"
  },
  {
   "name" : "_Z28AAudioProperty_getMMapPolicyv"
  },
  {
   "name" : "_Z29AAudioConvert_usageToInternali"
  },
  {
   "name" : "_Z29AAudioProperty_getMixerBurstsv"
  },
  {
   "name" : "_Z32AudioEndpoint_validateDescriptorPKN6aaudio20EndpointDescriptor_sE"
  },
  {
   "name" : "_Z35AAudioConvert_aaudioToAndroidStatusi"
  },
  {
   "name" : "_Z35AAudioConvert_androidToAAudioResulti"
  },
  {
   "name" : "_Z35AAudioConvert_contentTypeToInternali"
  },
  {
   "name" : "_Z35AAudioProperty_getWakeupDelayMicrosv"
  },
  {
   "name" : "_Z36AAudioProperty_getMinimumSleepMicrosv"
  },
  {
   "name" : "_Z37AAudioProperty_getMMapExclusivePolicyv"
  },
  {
   "name" : "_Z38AAudioConvert_aaudioToAndroidSessionIdi"
  },
  {
   "name" : "_Z38AAudioConvert_inputPresetToAudioSourcei"
  },
  {
   "name" : "_Z39AAudioConvert_aaudioToAndroidDataFormati"
  },
  {
   "name" : "_Z39AAudioConvert_androidToAAudioDataFormat14audio_format_t"
  },
  {
   "name" : "_Z40AAudioProperty_getHardwareBurstMinMicrosv"
  },
  {
   "name" : "_Z48AAudioConvert_allowCapturePolicyToAudioFlagsMaski"
  },
  {
   "name" : "_ZN15AAudioFlowGraph15setTargetVolumeEf"
  },
  {
   "name" : "_ZN15AAudioFlowGraph21setRampLengthInFramesEi"
  },
  {
   "name" : "_ZN15AAudioFlowGraph7processEPKvPvi"
  },
  {
   "name" : "_ZN15AAudioFlowGraph9configureE14audio_format_tiS0_i"
  },
  {
   "name" : "_ZN16FixedBlockReader15readFromStorageEPhi"
  },
  {
   "name" : "_ZN16FixedBlockReader20processVariableBlockEPhi"
  },
  {
   "name" : "_ZN16FixedBlockReader4openEi"
  },
  {
   "name" : "_ZN16FixedBlockReaderC1ER19FixedBlockProcessor"
  },
  {
   "name" : "_ZN16FixedBlockReaderC2ER19FixedBlockProcessor"
  },
  {
   "name" : "_ZN16FixedBlockWriter14writeToStorageEPhi"
  },
  {
   "name" : "_ZN16FixedBlockWriter20processVariableBlockEPhi"
  },
  {
   "name" : "_ZN16FixedBlockWriterC1ER19FixedBlockProcessor"
  },
  {
   "name" : "_ZN16FixedBlockWriterC2ER19FixedBlockProcessor"
  },
  {
   "name" : "_ZN17FixedBlockAdapter4openEi"
  },
  {
   "name" : "_ZN17FixedBlockAdapter5closeEv"
  },
  {
   "name" : "_ZN17FixedBlockAdapterD0Ev"
  },
  {
   "name" : "_ZN17FixedBlockAdapterD1Ev"
  },
  {
   "name" : "_ZN17FixedBlockAdapterD2Ev"
  },
  {
   "name" : "_ZN6aaudio11AudioStream10joinThreadEPPvx"
  },
  {
   "name" : "_ZN6aaudio11AudioStream11systemPauseEv"
  },
  {
   "name" : "_ZN6aaudio11AudioStream11systemStartEv"
  },
  {
   "name" : "_ZN6aaudio11AudioStream12MyPlayerBase24registerWithAudioManagerEv"
  },
  {
   "name" : "_ZN6aaudio11AudioStream12MyPlayerBase26unregisterWithAudioManagerEv"
  },
  {
   "name" : "_ZN6aaudio11AudioStream12MyPlayerBase7destroyEv"
  },
  {
   "name" : "_ZN6aaudio11AudioStream12MyPlayerBaseC1EPS0_"
  },
  {
   "name" : "_ZN6aaudio11AudioStream12MyPlayerBaseC2EPS0_"
  },
  {
   "name" : "_ZN6aaudio11AudioStream12MyPlayerBaseD0Ev"
  },
  {
   "name" : "_ZN6aaudio11AudioStream12MyPlayerBaseD1Ev"
  },
  {
   "name" : "_ZN6aaudio11AudioStream12MyPlayerBaseD2Ev"
  },
  {
   "name" : "_ZN6aaudio11AudioStream12createThreadExPFPvS1_ES1_"
  },
  {
   "name" : "_ZN6aaudio11AudioStream14wrapUserThreadEv"
  },
  {
   "name" : "_ZN6aaudio11AudioStream17systemStopFromAppEv"
  },
  {
   "name" : "_ZN6aaudio11AudioStream18waitForStateChangeEiPix"
  },
  {
   "name" : "_ZN6aaudio11AudioStream20setDuckAndMuteVolumeEf"
  },
  {
   "name" : "_ZN6aaudio11AudioStream21maybeCallDataCallbackEPvi"
  },
  {
   "name" : "_ZN6aaudio11AudioStream22maybeCallErrorCallbackEi"
  },
  {
   "name" : "_ZN6aaudio11AudioStream22systemStopFromCallbackEv"
  },
  {
   "name" : "_ZN6aaudio11AudioStream4openERKNS_18AudioStreamBuilderE"
  },
  {
   "name" : "_ZN6aaudio11AudioStream8safeStopEv"
  },
  {
   "name" : "_ZN6aaudio11AudioStream8setStateEi"
  },
  {
   "name" : "_ZN6aaudio11AudioStream9safeCloseEv"
  },
  {
   "name" : "_ZN6aaudio11AudioStream9safeFlushEv"
  },
  {
   "name" : "_ZN6aaudio11AudioStreamC2Ev"
  },
  {
   "name" : "_ZN6aaudio11AudioStreamD0Ev"
  },
  {
   "name" : "_ZN6aaudio11AudioStreamD1Ev"
  },
  {
   "name" : "_ZN6aaudio11AudioStreamD2Ev"
  },
  {
   "name" : "_ZN6aaudio13AudioEndpoint13readUpCommandEPNS_22AAudioServiceMessage_sE"
  },
  {
   "name" : "_ZN6aaudio13AudioEndpoint15eraseDataMemoryEv"
  },
  {
   "name" : "_ZN6aaudio13AudioEndpoint16advanceReadIndexEi"
  },
  {
   "name" : "_ZN6aaudio13AudioEndpoint17advanceWriteIndexEi"
  },
  {
   "name" : "_ZN6aaudio13AudioEndpoint18getDataReadCounterEv"
  },
  {
   "name" : "_ZN6aaudio13AudioEndpoint18setDataReadCounterEx"
  },
  {
   "name" : "_ZN6aaudio13AudioEndpoint19getDataWriteCounterEv"
  },
  {
   "name" : "_ZN6aaudio13AudioEndpoint19setDataWriteCounterEx"
  },
  {
   "name" : "_ZN6aaudio13AudioEndpoint21setBufferSizeInFramesEiPi"
  },
  {
   "name" : "_ZN6aaudio13AudioEndpoint22getFullFramesAvailableEPN7android14WrappingBufferE"
  },
  {
   "name" : "_ZN6aaudio13AudioEndpoint22getFullFramesAvailableEv"
  },
  {
   "name" : "_ZN6aaudio13AudioEndpoint23getEmptyFramesAvailableEPN7android14WrappingBufferE"
  },
  {
   "name" : "_ZN6aaudio13AudioEndpoint23getEmptyFramesAvailableEv"
  },
  {
   "name" : "_ZN6aaudio13AudioEndpoint9configureEPKNS_20EndpointDescriptor_sEi"
  },
  {
   "name" : "_ZN6aaudio13AudioEndpointC1Ev"
  },
  {
   "name" : "_ZN6aaudio13AudioEndpointC2Ev"
  },
  {
   "name" : "_ZN6aaudio13AudioEndpointD0Ev"
  },
  {
   "name" : "_ZN6aaudio13AudioEndpointD1Ev"
  },
  {
   "name" : "_ZN6aaudio13AudioEndpointD2Ev"
  },
  {
   "name" : "_ZN6aaudio16AudioStreamTrack11doSetVolumeEv"
  },
  {
   "name" : "_ZN6aaudio16AudioStreamTrack11requestStopEv"
  },
  {
   "name" : "_ZN6aaudio16AudioStreamTrack12getTimestampEiPxS1_"
  },
  {
   "name" : "_ZN6aaudio16AudioStreamTrack12requestFlushEv"
  },
  {
   "name" : "_ZN6aaudio16AudioStreamTrack12requestPauseEv"
  },
  {
   "name" : "_ZN6aaudio16AudioStreamTrack12requestStartEv"
  },
  {
   "name" : "_ZN6aaudio16AudioStreamTrack13getFramesReadEv"
  },
  {
   "name" : "_ZN6aaudio16AudioStreamTrack13setBufferSizeEi"
  },
  {
   "name" : "_ZN6aaudio16AudioStreamTrack15processCallbackEiPv"
  },
  {
   "name" : "_ZN6aaudio16AudioStreamTrack18updateStateMachineEv"
  },
  {
   "name" : "_ZN6aaudio16AudioStreamTrack4openERKNS_18AudioStreamBuilderE"
  },
  {
   "name" : "_ZN6aaudio16AudioStreamTrack5closeEv"
  },
  {
   "name" : "_ZN6aaudio16AudioStreamTrack5writeEPKvix"
  },
  {
   "name" : "_ZN6aaudio16AudioStreamTrackC1Ev"
  },
  {
   "name" : "_ZN6aaudio16AudioStreamTrackC2Ev"
  },
  {
   "name" : "_ZN6aaudio16AudioStreamTrackD0Ev"
  },
  {
   "name" : "_ZN6aaudio16AudioStreamTrackD1Ev"
  },
  {
   "name" : "_ZN6aaudio16AudioStreamTrackD2Ev"
  },
  {
   "name" : "_ZN6aaudio17AudioStreamLegacy15forceDisconnectEb"
  },
  {
   "name" : "_ZN6aaudio17AudioStreamLegacy16getBestTimestampEiPxS1_PN7android17ExtendedTimestampE"
  },
  {
   "name" : "_ZN6aaudio17AudioStreamLegacy17getLegacyCallbackEv"
  },
  {
   "name" : "_ZN6aaudio17AudioStreamLegacy19onAudioDeviceUpdateEi"
  },
  {
   "name" : "_ZN6aaudio17AudioStreamLegacy19onProcessFixedBlockEPhi"
  },
  {
   "name" : "_ZN6aaudio17AudioStreamLegacy21processCallbackCommonEiPv"
  },
  {
   "name" : "_ZN6aaudio17AudioStreamLegacy22callDataCallbackFramesEPhi"
  },
  {
   "name" : "_ZN6aaudio17AudioStreamLegacy25checkForDisconnectRequestEb"
  },
  {
   "name" : "_ZN6aaudio17AudioStreamLegacyC2Ev"
  },
  {
   "name" : "_ZN6aaudio17AudioStreamLegacyD0Ev"
  },
  {
   "name" : "_ZN6aaudio17AudioStreamLegacyD1Ev"
  },
  {
   "name" : "_ZN6aaudio17AudioStreamLegacyD2Ev"
  },
  {
   "name" : "_ZN6aaudio17AudioStreamRecord11requestStopEv"
  },
  {
   "name" : "_ZN6aaudio17AudioStreamRecord12getTimestampEiPxS1_"
  },
  {
   "name" : "_ZN6aaudio17AudioStreamRecord12requestStartEv"
  },
  {
   "name" : "_ZN6aaudio17AudioStreamRecord13setBufferSizeEi"
  },
  {
   "name" : "_ZN6aaudio17AudioStreamRecord15processCallbackEiPv"
  },
  {
   "name" : "_ZN6aaudio17AudioStreamRecord16getFramesWrittenEv"
  },
  {
   "name" : "_ZN6aaudio17AudioStreamRecord18updateStateMachineEv"
  },
  {
   "name" : "_ZN6aaudio17AudioStreamRecord22maybeConvertDeviceDataEPKvi"
  },
  {
   "name" : "_ZN6aaudio17AudioStreamRecord4openERKNS_18AudioStreamBuilderE"
  },
  {
   "name" : "_ZN6aaudio17AudioStreamRecord4readEPvix"
  },
  {
   "name" : "_ZN6aaudio17AudioStreamRecord5closeEv"
  },
  {
   "name" : "_ZN6aaudio17AudioStreamRecordC1Ev"
  },
  {
   "name" : "_ZN6aaudio17AudioStreamRecordC2Ev"
  },
  {
   "name" : "_ZN6aaudio17AudioStreamRecordD0Ev"
  },
  {
   "name" : "_ZN6aaudio17AudioStreamRecordD1Ev"
  },
  {
   "name" : "_ZN6aaudio17AudioStreamRecordD2Ev"
  },
  {
   "name" : "_ZN6aaudio18AAudioBinderClient10openStreamERKNS_19AAudioStreamRequestERNS_25AAudioStreamConfigurationE"
  },
  {
   "name" : "_ZN6aaudio18AAudioBinderClient10stopStreamEi"
  },
  {
   "name" : "_ZN6aaudio18AAudioBinderClient11closeStreamEi"
  },
  {
   "name" : "_ZN6aaudio18AAudioBinderClient11flushStreamEi"
  },
  {
   "name" : "_ZN6aaudio18AAudioBinderClient11pauseStreamEi"
  },
  {
   "name" : "_ZN6aaudio18AAudioBinderClient11startStreamEi"
  },
  {
   "name" : "_ZN6aaudio18AAudioBinderClient16getAAudioServiceEv"
  },
  {
   "name" : "_ZN6aaudio18AAudioBinderClient17dropAAudioServiceEv"
  },
  {
   "name" : "_ZN6aaudio18AAudioBinderClient19registerAudioThreadEiix"
  },
  {
   "name" : "_ZN6aaudio18AAudioBinderClient20getStreamDescriptionEiRNS_23AudioEndpointParcelableE"
  },
  {
   "name" : "_ZN6aaudio18AAudioBinderClient21unregisterAudioThreadEii"
  },
  {
   "name" : "_ZN6aaudio18AAudioBinderClientC1Ev"
  },
  {
   "name" : "_ZN6aaudio18AAudioBinderClientC2Ev"
  },
  {
   "name" : "_ZN6aaudio18AAudioBinderClientD0Ev"
  },
  {
   "name" : "_ZN6aaudio18AAudioBinderClientD1Ev"
  },
  {
   "name" : "_ZN6aaudio18AAudioBinderClientD2Ev"
  },
  {
   "name" : "_ZN6aaudio18AudioStreamBuilder5buildEPPNS_11AudioStreamE"
  },
  {
   "name" : "_ZN6aaudio18AudioStreamBuilderC1Ev"
  },
  {
   "name" : "_ZN6aaudio18AudioStreamBuilderC2Ev"
  },
  {
   "name" : "_ZN6aaudio18AudioStreamBuilderD0Ev"
  },
  {
   "name" : "_ZN6aaudio18AudioStreamBuilderD1Ev"
  },
  {
   "name" : "_ZN6aaudio18AudioStreamBuilderD2Ev"
  },
  {
   "name" : "_ZN6aaudio19AAudioStreamRequest14readFromParcelEPKN7android6ParcelE"
  },
  {
   "name" : "_ZN6aaudio19AAudioStreamRequestC1Ev"
  },
  {
   "name" : "_ZN6aaudio19AAudioStreamRequestC2Ev"
  },
  {
   "name" : "_ZN6aaudio19AAudioStreamRequestD0Ev"
  },
  {
   "name" : "_ZN6aaudio19AAudioStreamRequestD1Ev"
  },
  {
   "name" : "_ZN6aaudio19AAudioStreamRequestD2Ev"
  },
  {
   "name" : "_ZN6aaudio19AudioStreamInternal10joinThreadEPPv"
  },
  {
   "name" : "_ZN6aaudio19AudioStreamInternal10stopClientEi"
  },
  {
   "name" : "_ZN6aaudio19AudioStreamInternal11processDataEPvix"
  },
  {
   "name" : "_ZN6aaudio19AudioStreamInternal11requestStopEv"
  },
  {
   "name" : "_ZN6aaudio19AudioStreamInternal11startClientERKN7android11AudioClientEPi"
  },
  {
   "name" : "_ZN6aaudio19AudioStreamInternal12getTimestampEiPxS1_"
  },
  {
   "name" : "_ZN6aaudio19AudioStreamInternal12logTimestampERNS_22AAudioServiceMessage_sE"
  },
  {
   "name" : "_ZN6aaudio19AudioStreamInternal12requestStartEv"
  },
  {
   "name" : "_ZN6aaudio19AudioStreamInternal12stopCallbackEv"
  },
  {
   "name" : "_ZN6aaudio19AudioStreamInternal13setBufferSizeEi"
  },
  {
   "name" : "_ZN6aaudio19AudioStreamInternal14registerThreadEv"
  },
  {
   "name" : "_ZN6aaudio19AudioStreamInternal15processCommandsEv"
  },
  {
   "name" : "_ZN6aaudio19AudioStreamInternal16processTimestampEyx"
  },
  {
   "name" : "_ZN6aaudio19AudioStreamInternal16unregisterThreadEv"
  },
  {
   "name" : "_ZN6aaudio19AudioStreamInternal17onEventFromServerEPNS_22AAudioServiceMessage_sE"
  },
  {
   "name" : "_ZN6aaudio19AudioStreamInternal18onTimestampServiceEPNS_22AAudioServiceMessage_sE"
  },
  {
   "name" : "_ZN6aaudio19AudioStreamInternal18updateStateMachineEv"
  },
  {
   "name" : "_ZN6aaudio19AudioStreamInternal19onTimestampHardwareEPNS_22AAudioServiceMessage_sE"
  },
  {
   "name" : "_ZN6aaudio19AudioStreamInternal26calculateReasonableTimeoutEi"
  },
  {
   "name" : "_ZN6aaudio19AudioStreamInternal26calculateReasonableTimeoutEv"
  },
  {
   "name" : "_ZN6aaudio19AudioStreamInternal26drainTimestampsFromServiceEv"
  },
  {
   "name" : "_ZN6aaudio19AudioStreamInternal4openERKNS_18AudioStreamBuilderE"
  },
  {
   "name" : "_ZN6aaudio19AudioStreamInternal5closeEv"
  },
  {
   "name" : "_ZN6aaudio19AudioStreamInternalC2ERNS_22AAudioServiceInterfaceEb"
  },
  {
   "name" : "_ZN6aaudio19AudioStreamInternalD0Ev"
  },
  {
   "name" : "_ZN6aaudio19AudioStreamInternalD1Ev"
  },
  {
   "name" : "_ZN6aaudio19AudioStreamInternalD2Ev"
  },
  {
   "name" : "_ZN6aaudio20RingBufferParcelable11setupMemoryEiii"
  },
  {
   "name" : "_ZN6aaudio20RingBufferParcelable11setupMemoryEiiiiii"
  },
  {
   "name" : "_ZN6aaudio20RingBufferParcelable14readFromParcelEPKN7android6ParcelE"
  },
  {
   "name" : "_ZN6aaudio20RingBufferParcelable16getBytesPerFrameEv"
  },
  {
   "name" : "_ZN6aaudio20RingBufferParcelable16setBytesPerFrameEi"
  },
  {
   "name" : "_ZN6aaudio20RingBufferParcelable17getFramesPerBurstEv"
  },
  {
   "name" : "_ZN6aaudio20RingBufferParcelable17setFramesPerBurstEi"
  },
  {
   "name" : "_ZN6aaudio20RingBufferParcelable19getCapacityInFramesEv"
  },
  {
   "name" : "_ZN6aaudio20RingBufferParcelable19setCapacityInFramesEi"
  },
  {
   "name" : "_ZN6aaudio20RingBufferParcelable4dumpEv"
  },
  {
   "name" : "_ZN6aaudio20RingBufferParcelable7resolveEPNS_22SharedMemoryParcelableEPNS_22RingBufferDescriptor_sE"
  },
  {
   "name" : "_ZN6aaudio20RingBufferParcelableC1Ev"
  },
  {
   "name" : "_ZN6aaudio20RingBufferParcelableC2Ev"
  },
  {
   "name" : "_ZN6aaudio20RingBufferParcelableD0Ev"
  },
  {
   "name" : "_ZN6aaudio20RingBufferParcelableD1Ev"
  },
  {
   "name" : "_ZN6aaudio20RingBufferParcelableD2Ev"
  },
  {
   "name" : "_ZN6aaudio21IsochronousClockModel13setSampleRateEi"
  },
  {
   "name" : "_ZN6aaudio21IsochronousClockModel16processTimestampExx"
  },
  {
   "name" : "_ZN6aaudio21IsochronousClockModel17setFramesPerBurstEi"
  },
  {
   "name" : "_ZN6aaudio21IsochronousClockModel18setPositionAndTimeExx"
  },
  {
   "name" : "_ZN6aaudio21IsochronousClockModel4stopEx"
  },
  {
   "name" : "_ZN6aaudio21IsochronousClockModel5startEx"
  },
  {
   "name" : "_ZN6aaudio21IsochronousClockModel6updateEv"
  },
  {
   "name" : "_ZN6aaudio21IsochronousClockModelC1Ev"
  },
  {
   "name" : "_ZN6aaudio21IsochronousClockModelC2Ev"
  },
  {
   "name" : "_ZN6aaudio21IsochronousClockModelD0Ev"
  },
  {
   "name" : "_ZN6aaudio21IsochronousClockModelD1Ev"
  },
  {
   "name" : "_ZN6aaudio21IsochronousClockModelD2Ev"
  },
  {
   "name" : "_ZN6aaudio22AAudioStreamParameters8copyFromERKS0_"
  },
  {
   "name" : "_ZN6aaudio22AAudioStreamParametersC1Ev"
  },
  {
   "name" : "_ZN6aaudio22AAudioStreamParametersC2Ev"
  },
  {
   "name" : "_ZN6aaudio22AAudioStreamParametersD0Ev"
  },
  {
   "name" : "_ZN6aaudio22AAudioStreamParametersD1Ev"
  },
  {
   "name" : "_ZN6aaudio22AAudioStreamParametersD2Ev"
  },
  {
   "name" : "_ZN6aaudio22SharedMemoryParcelable14getSizeInBytesEv"
  },
  {
   "name" : "_ZN6aaudio22SharedMemoryParcelable14readFromParcelEPKN7android6ParcelE"
  },
  {
   "name" : "_ZN6aaudio22SharedMemoryParcelable19resolveSharedMemoryERKN7android4base14unique_fd_implINS2_13DefaultCloserEEE"
  },
  {
   "name" : "_ZN6aaudio22SharedMemoryParcelable4dumpEv"
  },
  {
   "name" : "_ZN6aaudio22SharedMemoryParcelable5closeEv"
  },
  {
   "name" : "_ZN6aaudio22SharedMemoryParcelable5setupERKN7android4base14unique_fd_implINS2_13DefaultCloserEEEi"
  },
  {
   "name" : "_ZN6aaudio22SharedMemoryParcelable7resolveEiiPPv"
  },
  {
   "name" : "_ZN6aaudio22SharedMemoryParcelableC1Ev"
  },
  {
   "name" : "_ZN6aaudio22SharedMemoryParcelableC2Ev"
  },
  {
   "name" : "_ZN6aaudio22SharedMemoryParcelableD0Ev"
  },
  {
   "name" : "_ZN6aaudio22SharedMemoryParcelableD1Ev"
  },
  {
   "name" : "_ZN6aaudio22SharedMemoryParcelableD2Ev"
  },
  {
   "name" : "_ZN6aaudio22SharedRegionParcelable14readFromParcelEPKN7android6ParcelE"
  },
  {
   "name" : "_ZN6aaudio22SharedRegionParcelable4dumpEv"
  },
  {
   "name" : "_ZN6aaudio22SharedRegionParcelable5setupEiii"
  },
  {
   "name" : "_ZN6aaudio22SharedRegionParcelable7resolveEPNS_22SharedMemoryParcelableEPPv"
  },
  {
   "name" : "_ZN6aaudio22SharedRegionParcelableC1Ev"
  },
  {
   "name" : "_ZN6aaudio22SharedRegionParcelableC2Ev"
  },
  {
   "name" : "_ZN6aaudio22SharedRegionParcelableD0Ev"
  },
  {
   "name" : "_ZN6aaudio22SharedRegionParcelableD1Ev"
  },
  {
   "name" : "_ZN6aaudio22SharedRegionParcelableD2Ev"
  },
  {
   "name" : "_ZN6aaudio23AudioEndpointParcelable14readFromParcelEPKN7android6ParcelE"
  },
  {
   "name" : "_ZN6aaudio23AudioEndpointParcelable17addFileDescriptorERKN7android4base14unique_fd_implINS2_13DefaultCloserEEEi"
  },
  {
   "name" : "_ZN6aaudio23AudioEndpointParcelable4dumpEv"
  },
  {
   "name" : "_ZN6aaudio23AudioEndpointParcelable5closeEv"
  },
  {
   "name" : "_ZN6aaudio23AudioEndpointParcelable7resolveEPNS_20EndpointDescriptor_sE"
  },
  {
   "name" : "_ZN6aaudio23AudioEndpointParcelableC1Ev"
  },
  {
   "name" : "_ZN6aaudio23AudioEndpointParcelableC2Ev"
  },
  {
   "name" : "_ZN6aaudio23AudioEndpointParcelableD0Ev"
  },
  {
   "name" : "_ZN6aaudio23AudioEndpointParcelableD1Ev"
  },
  {
   "name" : "_ZN6aaudio23AudioEndpointParcelableD2Ev"
  },
  {
   "name" : "_ZN6aaudio23AudioStreamInternalPlay11doSetVolumeEv"
  },
  {
   "name" : "_ZN6aaudio23AudioStreamInternalPlay12callbackLoopEv"
  },
  {
   "name" : "_ZN6aaudio23AudioStreamInternalPlay12requestFlushEv"
  },
  {
   "name" : "_ZN6aaudio23AudioStreamInternalPlay12requestPauseEv"
  },
  {
   "name" : "_ZN6aaudio23AudioStreamInternalPlay13getFramesReadEv"
  },
  {
   "name" : "_ZN6aaudio23AudioStreamInternalPlay14processDataNowEPvixPx"
  },
  {
   "name" : "_ZN6aaudio23AudioStreamInternalPlay16getFramesWrittenEv"
  },
  {
   "name" : "_ZN6aaudio23AudioStreamInternalPlay17onFlushFromServerEv"
  },
  {
   "name" : "_ZN6aaudio23AudioStreamInternalPlay22writeNowWithConversionEPKvi"
  },
  {
   "name" : "_ZN6aaudio23AudioStreamInternalPlay34advanceClientToMatchServerPositionEv"
  },
  {
   "name" : "_ZN6aaudio23AudioStreamInternalPlay4openERKNS_18AudioStreamBuilderE"
  },
  {
   "name" : "_ZN6aaudio23AudioStreamInternalPlay5writeEPKvix"
  },
  {
   "name" : "_ZN6aaudio23AudioStreamInternalPlayC1ERNS_22AAudioServiceInterfaceEb"
  },
  {
   "name" : "_ZN6aaudio23AudioStreamInternalPlayC2ERNS_22AAudioServiceInterfaceEb"
  },
  {
   "name" : "_ZN6aaudio23AudioStreamInternalPlayD0Ev"
  },
  {
   "name" : "_ZN6aaudio23AudioStreamInternalPlayD1Ev"
  },
  {
   "name" : "_ZN6aaudio23AudioStreamInternalPlayD2Ev"
  },
  {
   "name" : "_ZN6aaudio25AAudioStreamConfiguration14readFromParcelEPKN7android6ParcelE"
  },
  {
   "name" : "_ZN6aaudio25AAudioStreamConfigurationC1Ev"
  },
  {
   "name" : "_ZN6aaudio25AAudioStreamConfigurationC2Ev"
  },
  {
   "name" : "_ZN6aaudio25AAudioStreamConfigurationD0Ev"
  },
  {
   "name" : "_ZN6aaudio25AAudioStreamConfigurationD1Ev"
  },
  {
   "name" : "_ZN6aaudio25AAudioStreamConfigurationD2Ev"
  },
  {
   "name" : "_ZN6aaudio26AudioStreamInternalCapture12callbackLoopEv"
  },
  {
   "name" : "_ZN6aaudio26AudioStreamInternalCapture13getFramesReadEv"
  },
  {
   "name" : "_ZN6aaudio26AudioStreamInternalCapture14processDataNowEPvixPx"
  },
  {
   "name" : "_ZN6aaudio26AudioStreamInternalCapture16getFramesWrittenEv"
  },
  {
   "name" : "_ZN6aaudio26AudioStreamInternalCapture21readNowWithConversionEPvi"
  },
  {
   "name" : "_ZN6aaudio26AudioStreamInternalCapture34advanceClientToMatchServerPositionEv"
  },
  {
   "name" : "_ZN6aaudio26AudioStreamInternalCapture4readEPvix"
  },
  {
   "name" : "_ZN6aaudio26AudioStreamInternalCaptureC1ERNS_22AAudioServiceInterfaceEb"
  },
  {
   "name" : "_ZN6aaudio26AudioStreamInternalCaptureC2ERNS_22AAudioServiceInterfaceEb"
  },
  {
   "name" : "_ZN6aaudio26AudioStreamInternalCaptureD0Ev"
  },
  {
   "name" : "_ZN6aaudio26AudioStreamInternalCaptureD1Ev"
  },
  {
   "name" : "_ZN6aaudio26AudioStreamInternalCaptureD2Ev"
  },
  {
   "name" : "_ZN7android10FifoBuffer11eraseMemoryEv"
  },
  {
   "name" : "_ZN7android10FifoBuffer12getThresholdEv"
  },
  {
   "name" : "_ZN7android10FifoBuffer12setThresholdEi"
  },
  {
   "name" : "_ZN7android10FifoBuffer18fillWrappingBufferEPNS_14WrappingBufferEii"
  },
  {
   "name" : "_ZN7android10FifoBuffer20convertFramesToBytesEi"
  },
  {
   "name" : "_ZN7android10FifoBuffer20getFullDataAvailableEPNS_14WrappingBufferE"
  },
  {
   "name" : "_ZN7android10FifoBuffer21getEmptyRoomAvailableEPNS_14WrappingBufferE"
  },
  {
   "name" : "_ZN7android10FifoBuffer25getBufferCapacityInFramesEv"
  },
  {
   "name" : "_ZN7android10FifoBuffer4readEPvi"
  },
  {
   "name" : "_ZN7android10FifoBuffer5writeEPKvi"
  },
  {
   "name" : "_ZN7android10FifoBufferC1Eii"
  },
  {
   "name" : "_ZN7android10FifoBufferC1EiiPxS1_Pv"
  },
  {
   "name" : "_ZN7android10FifoBufferC2Eii"
  },
  {
   "name" : "_ZN7android10FifoBufferC2EiiPxS1_Pv"
  },
  {
   "name" : "_ZN7android10FifoBufferD1Ev"
  },
  {
   "name" : "_ZN7android10FifoBufferD2Ev"
  },
  {
   "binding" : "weak",
   "name" : "_ZN7android11BnInterfaceINS_13IAAudioClientEE10onAsBinderEv"
  },
  {
   "binding" : "weak",
   "name" : "_ZN7android11BnInterfaceINS_14IAAudioServiceEE10onAsBinderEv"
  },
  {
   "binding" : "weak",
   "name" : "_ZN7android11BnInterfaceINS_5media7IPlayerEE10onAsBinderEv"
  },
  {
   "name" : "_ZN7android13IAAudioClient11asInterfaceERKNS_2spINS_7IBinderEEE"
  },
  {
   "name" : "_ZN7android13IAAudioClient14getDefaultImplEv"
  },
  {
   "name" : "_ZN7android13IAAudioClient14setDefaultImplENSt3__110unique_ptrIS0_NS1_14default_deleteIS0_EEEE"
  },
  {
   "name" : "_ZN7android13IAAudioClientC2Ev"
  },
  {
   "name" : "_ZN7android13IAAudioClientD0Ev"
  },
  {
   "name" : "_ZN7android13IAAudioClientD1Ev"
  },
  {
   "name" : "_ZN7android13IAAudioClientD2Ev"
  },
  {
   "name" : "_ZN7android14BnAAudioClient10onTransactEjRKNS_6ParcelEPS1_j"
  },
  {
   "name" : "_ZN7android14IAAudioService11asInterfaceERKNS_2spINS_7IBinderEEE"
  },
  {
   "name" : "_ZN7android14IAAudioService14getDefaultImplEv"
  },
  {
   "name" : "_ZN7android14IAAudioService14setDefaultImplENSt3__110unique_ptrIS0_NS1_14default_deleteIS0_EEEE"
  },
  {
   "name" : "_ZN7android14IAAudioServiceC2Ev"
  },
  {
   "name" : "_ZN7android14IAAudioServiceD0Ev"
  },
  {
   "name" : "_ZN7android14IAAudioServiceD1Ev"
  },
  {
   "name" : "_ZN7android14IAAudioServiceD2Ev"
  },
  {
   "name" : "_ZN7android15BnAAudioService10onTransactEjRKNS_6ParcelEPS1_j"
  },
  {
   "name" : "_ZN7android18FifoControllerBase12getReadIndexEv"
  },
  {
   "name" : "_ZN7android18FifoControllerBase12setThresholdEi"
  },
  {
   "name" : "_ZN7android18FifoControllerBase13getWriteIndexEv"
  },
  {
   "name" : "_ZN7android18FifoControllerBase16advanceReadIndexEi"
  },
  {
   "name" : "_ZN7android18FifoControllerBase17advanceWriteIndexEi"
  },
  {
   "name" : "_ZN7android18FifoControllerBase22getFullFramesAvailableEv"
  },
  {
   "name" : "_ZN7android18FifoControllerBase23getEmptyFramesAvailableEv"
  },
  {
   "name" : "_ZN7android18FifoControllerBaseC2Eii"
  },
  {
   "name" : "_ZN7android18FifoControllerBaseD0Ev"
  },
  {
   "name" : "_ZN7android18FifoControllerBaseD1Ev"
  },
  {
   "name" : "_ZN7android18FifoControllerBaseD2Ev"
  },
  {
   "binding" : "weak",
   "name" : "_ZN7android2spIN6aaudio18AAudioBinderClientEED2Ev"
  },
  {
   "binding" : "weak",
   "name" : "_ZN7android9SingletonIN6aaudio18AAudioBinderClientEE11getInstanceEv"
  },
  {
   "binding" : "weak",
   "name" : "_ZN7android9SingletonIN6aaudio18AAudioBinderClientEE11hasInstanceEv"
  },
  {
   "binding" : "weak",
   "name" : "_ZN7android9SingletonIN6aaudio18AAudioBinderClientEEC1Ev"
  },
  {
   "binding" : "weak",
   "name" : "_ZN7android9SingletonIN6aaudio18AAudioBinderClientEEC2Ev"
  },
  {
   "binding" : "weak",
   "name" : "_ZN7android9SingletonIN6aaudio18AAudioBinderClientEED1Ev"
  },
  {
   "binding" : "weak",
   "name" : "_ZN7android9SingletonIN6aaudio18AAudioBinderClientEED2Ev"
  },
  {
   "name" : "_ZN9flowgraph10RampLinear17setLengthInFramesEi"
  },
  {
   "name" : "_ZN9flowgraph10RampLinear18interpolateCurrentEv"
  },
  {
   "name" : "_ZN9flowgraph10RampLinear9onProcessExi"
  },
  {
   "name" : "_ZN9flowgraph10RampLinear9setTargetEf"
  },
  {
   "name" : "_ZN9flowgraph10RampLinearC1Ei"
  },
  {
   "name" : "_ZN9flowgraph10RampLinearC2Ei"
  },
  {
   "name" : "_ZN9flowgraph11ClipToRange9onProcessExi"
  },
  {
   "name" : "_ZN9flowgraph11ClipToRangeC1Ei"
  },
  {
   "name" : "_ZN9flowgraph11ClipToRangeC2Ei"
  },
  {
   "name" : "_ZN9flowgraph11SourceFloat9onProcessExi"
  },
  {
   "name" : "_ZN9flowgraph11SourceFloatC1Ei"
  },
  {
   "name" : "_ZN9flowgraph11SourceFloatC2Ei"
  },
  {
   "name" : "_ZN9flowgraph18AudioProcessorBase8pullDataExi"
  },
  {
   "name" : "_ZN9flowgraph19AudioFloatBlockPortC1ERNS_18AudioProcessorBaseEii"
  },
  {
   "name" : "_ZN9flowgraph19AudioFloatBlockPortC2ERNS_18AudioProcessorBaseEii"
  },
  {
   "name" : "_ZN9flowgraph19AudioFloatBlockPortD0Ev"
  },
  {
   "name" : "_ZN9flowgraph19AudioFloatBlockPortD1Ev"
  },
  {
   "name" : "_ZN9flowgraph19AudioFloatBlockPortD2Ev"
  },
  {
   "name" : "_ZN9flowgraph19AudioFloatInputPort8getBlockEv"
  },
  {
   "name" : "_ZN9flowgraph19AudioFloatInputPort8pullDataExi"
  },
  {
   "name" : "_ZN9flowgraph20AudioFloatOutputPort10disconnectEPNS_19AudioFloatInputPortE"
  },
  {
   "name" : "_ZN9flowgraph20AudioFloatOutputPort7connectEPNS_19AudioFloatInputPortE"
  },
  {
   "name" : "_ZN9flowgraph20AudioFloatOutputPort8pullDataExi"
  },
  {
   "name" : "_ZN9flowgraph20MonoToMultiConverter9onProcessExi"
  },
  {
   "name" : "_ZN9flowgraph20MonoToMultiConverterC1Ei"
  },
  {
   "name" : "_ZN9flowgraph20MonoToMultiConverterC2Ei"
  },
  {
   "name" : "_ZN9flowgraph20MonoToMultiConverterD0Ev"
  },
  {
   "name" : "_ZN9flowgraph20MonoToMultiConverterD1Ev"
  },
  {
   "name" : "_ZN9flowgraph20MonoToMultiConverterD2Ev"
  },
  {
   "name" : "_ZN9flowgraph7SinkI164readEPvi"
  },
  {
   "name" : "_ZN9flowgraph7SinkI16C1Ei"
  },
  {
   "name" : "_ZN9flowgraph7SinkI16C2Ei"
  },
  {
   "name" : "_ZN9flowgraph7SinkI244readEPvi"
  },
  {
   "name" : "_ZN9flowgraph7SinkI24C1Ei"
  },
  {
   "name" : "_ZN9flowgraph7SinkI24C2Ei"
  },
  {
   "name" : "_ZN9flowgraph9AudioSink4pullEi"
  },
  {
   "name" : "_ZN9flowgraph9SinkFloat4readEPvi"
  },
  {
   "name" : "_ZN9flowgraph9SinkFloatC1Ei"
  },
  {
   "name" : "_ZN9flowgraph9SinkFloatC2Ei"
  },
  {
   "name" : "_ZN9flowgraph9SourceI169onProcessExi"
  },
  {
   "name" : "_ZN9flowgraph9SourceI16C1Ei"
  },
  {
   "name" : "_ZN9flowgraph9SourceI16C2Ei"
  },
  {
   "name" : "_ZN9flowgraph9SourceI249onProcessExi"
  },
  {
   "name" : "_ZN9flowgraph9SourceI24C1Ei"
  },
  {
   "name" : "_ZN9flowgraph9SourceI24C2Ei"
  },
  {
   "name" : "_ZNK6aaudio11AudioStream20collidesWithCallbackEv"
  },
  {
   "name" : "_ZNK6aaudio13AudioEndpoint21getBufferSizeInFramesEv"
  },
  {
   "name" : "_ZNK6aaudio13AudioEndpoint25getBufferCapacityInFramesEv"
  },
  {
   "name" : "_ZNK6aaudio13AudioEndpoint4dumpEv"
  },
  {
   "name" : "_ZNK6aaudio16AudioStreamTrack12getXRunCountEv"
  },
  {
   "name" : "_ZNK6aaudio16AudioStreamTrack13getBufferSizeEv"
  },
  {
   "name" : "_ZNK6aaudio16AudioStreamTrack17getBufferCapacityEv"
  },
  {
   "name" : "_ZNK6aaudio16AudioStreamTrack17getFramesPerBurstEv"
  },
  {
   "name" : "_ZNK6aaudio17AudioStreamRecord12getXRunCountEv"
  },
  {
   "name" : "_ZNK6aaudio17AudioStreamRecord13getBufferSizeEv"
  },
  {
   "name" : "_ZNK6aaudio17AudioStreamRecord17getBufferCapacityEv"
  },
  {
   "name" : "_ZNK6aaudio17AudioStreamRecord17getFramesPerBurstEv"
  },
  {
   "name" : "_ZNK6aaudio18AudioStreamBuilder13logParametersEv"
  },
  {
   "name" : "_ZNK6aaudio18AudioStreamBuilder8validateEv"
  },
  {
   "name" : "_ZNK6aaudio19AAudioStreamRequest13writeToParcelEPN7android6ParcelE"
  },
  {
   "name" : "_ZNK6aaudio19AAudioStreamRequest4dumpEv"
  },
  {
   "name" : "_ZNK6aaudio19AAudioStreamRequest8validateEv"
  },
  {
   "name" : "_ZNK6aaudio19AudioStreamInternal13getBufferSizeEv"
  },
  {
   "name" : "_ZNK6aaudio19AudioStreamInternal17getBufferCapacityEv"
  },
  {
   "name" : "_ZNK6aaudio19AudioStreamInternal17getFramesPerBurstEv"
  },
  {
   "name" : "_ZNK6aaudio19AudioStreamInternal21isClockModelInControlEv"
  },
  {
   "name" : "_ZNK6aaudio20RingBufferParcelable13writeToParcelEPN7android6ParcelE"
  },
  {
   "name" : "_ZNK6aaudio20RingBufferParcelable8validateEv"
  },
  {
   "name" : "_ZNK6aaudio21IsochronousClockModel10isStartingEv"
  },
  {
   "name" : "_ZNK6aaudio21IsochronousClockModel21convertPositionToTimeEx"
  },
  {
   "name" : "_ZNK6aaudio21IsochronousClockModel21convertTimeToPositionEx"
  },
  {
   "name" : "_ZNK6aaudio21IsochronousClockModel22getLateTimeOffsetNanosEv"
  },
  {
   "name" : "_ZNK6aaudio21IsochronousClockModel26convertDeltaPositionToTimeEx"
  },
  {
   "name" : "_ZNK6aaudio21IsochronousClockModel26convertDeltaTimeToPositionEx"
  },
  {
   "name" : "_ZNK6aaudio21IsochronousClockModel27convertLatestTimeToPositionEx"
  },
  {
   "name" : "_ZNK6aaudio21IsochronousClockModel27convertPositionToLatestTimeEx"
  },
  {
   "name" : "_ZNK6aaudio21IsochronousClockModel4dumpEv"
  },
  {
   "name" : "_ZNK6aaudio21IsochronousClockModel9isRunningEv"
  },
  {
   "name" : "_ZNK6aaudio22AAudioStreamParameters4dumpEv"
  },
  {
   "name" : "_ZNK6aaudio22AAudioStreamParameters8validateEv"
  },
  {
   "name" : "_ZNK6aaudio22SharedMemoryParcelable13writeToParcelEPN7android6ParcelE"
  },
  {
   "name" : "_ZNK6aaudio22SharedMemoryParcelable8validateEv"
  },
  {
   "name" : "_ZNK6aaudio22SharedRegionParcelable13writeToParcelEPN7android6ParcelE"
  },
  {
   "name" : "_ZNK6aaudio22SharedRegionParcelable8validateEv"
  },
  {
   "name" : "_ZNK6aaudio23AudioEndpointParcelable13writeToParcelEPN7android6ParcelE"
  },
  {
   "name" : "_ZNK6aaudio23AudioEndpointParcelable8validateEv"
  },
  {
   "name" : "_ZNK6aaudio25AAudioStreamConfiguration13writeToParcelEPN7android6ParcelE"
  },
  {
   "name" : "_ZNK7android13IAAudioClient22getInterfaceDescriptorEv"
  },
  {
   "name" : "_ZNK7android14IAAudioService22getInterfaceDescriptorEv"
  },
  {
   "name" : "_ZThn136_N6aaudio16AudioStreamTrackD0Ev"
  },
  {
   "name" : "_ZThn136_N6aaudio16AudioStreamTrackD1Ev"
  },
  {
   "name" : "_ZThn136_N6aaudio17AudioStreamLegacy19onProcessFixedBlockEPhi"
  },
  {
   "name" : "_ZThn136_N6aaudio17AudioStreamLegacyD0Ev"
  },
  {
   "name" : "_ZThn136_N6aaudio17AudioStreamLegacyD1Ev"
  },
  {
   "name" : "_ZThn136_N6aaudio17AudioStreamRecordD0Ev"
  },
  {
   "name" : "_ZThn136_N6aaudio17AudioStreamRecordD1Ev"
  },
  {
   "name" : "_ZThn4_N6aaudio11AudioStream12MyPlayerBaseD0Ev"
  },
  {
   "name" : "_ZThn4_N6aaudio11AudioStream12MyPlayerBaseD1Ev"
  },
  {
   "name" : "_ZThn4_N7android14BnAAudioClient10onTransactEjRKNS_6ParcelEPS1_j"
  },
  {
   "name" : "_ZThn4_N7android15BnAAudioService10onTransactEjRKNS_6ParcelEPS1_j"
  },
  {
   "name" : "_ZThn52_N6aaudio25AAudioStreamConfiguration14readFromParcelEPKN7android6ParcelE"
  },
  {
   "name" : "_ZThn52_N6aaudio25AAudioStreamConfigurationD0Ev"
  },
  {
   "name" : "_ZThn52_N6aaudio25AAudioStreamConfigurationD1Ev"
  },
  {
   "name" : "_ZThn52_NK6aaudio25AAudioStreamConfiguration13writeToParcelEPN7android6ParcelE"
  },
  {
   "name" : "_ZTv0_n12_N6aaudio11AudioStream12MyPlayerBaseD0Ev"
  },
  {
   "name" : "_ZTv0_n12_N6aaudio11AudioStream12MyPlayerBaseD1Ev"
  },
  {
   "name" : "_ZTv0_n12_N6aaudio18AAudioBinderClientD0Ev"
  },
  {
   "name" : "_ZTv0_n12_N6aaudio18AAudioBinderClientD1Ev"
  },
  {
   "name" : "_ZTv0_n12_N7android13IAAudioClientD0Ev"
  },
  {
   "name" : "_ZTv0_n12_N7android13IAAudioClientD1Ev"
  },
  {
   "name" : "_ZTv0_n12_N7android14IAAudioServiceD0Ev"
  },
  {
   "name" : "_ZTv0_n12_N7android14IAAudioServiceD1Ev"
  },
  {
   "name" : "__aeabi_ldivmod"
  },
  {
   "name" : "__aeabi_memclr"
  },
  {
   "name" : "__aeabi_memclr4"
  },
  {
   "name" : "__aeabi_memclr8"
  },
  {
   "name" : "__aeabi_memcpy"
  },
  {
   "name" : "__aeabi_memcpy4"
  },
  {
   "name" : "__aeabi_memcpy8"
  },
  {
   "name" : "__aeabi_memset"
  },
  {
   "name" : "__aeabi_memset4"
  },
  {
   "name" : "__aeabi_memset8"
  },
  {
   "name" : "__aeabi_uidiv"
  },
  {
   "name" : "__aeabi_uidivmod"
  },
  {
   "name" : "__aeabi_uldivmod"
  },
  {
   "name" : "__divdi3"
  },
  {
   "name" : "__divmoddi4"
  },
  {
   "name" : "__udivmoddi4"
  },
  {
   "name" : "__udivmodsi4"
  },
  {
   "name" : "__udivsi3"
  }
 ],
 "elf_objects" :
 [
  {
   "name" : "_ZN7android13IAAudioClient10descriptorE"
  },
  {
   "name" : "_ZN7android13IAAudioClient12default_implE"
  },
  {
   "name" : "_ZN7android14IAAudioService10descriptorE"
  },
  {
   "name" : "_ZN7android14IAAudioService12default_implE"
  },
  {
   "name" : "_ZN7android9SingletonIN6aaudio18AAudioBinderClientEE5sLockE"
  },
  {
   "name" : "_ZN7android9SingletonIN6aaudio18AAudioBinderClientEE9sInstanceE"
  },
  {
   "name" : "_ZTCN6aaudio11AudioStream12MyPlayerBaseE0_N7android10IInterfaceE"
  },
  {
   "name" : "_ZTCN6aaudio11AudioStream12MyPlayerBaseE0_N7android10PlayerBaseE"
  },
  {
   "name" : "_ZTCN6aaudio11AudioStream12MyPlayerBaseE0_N7android11BnInterfaceINS1_5media7IPlayerEEE"
  },
  {
   "name" : "_ZTCN6aaudio11AudioStream12MyPlayerBaseE0_N7android5media7IPlayerE"
  },
  {
   "name" : "_ZTCN6aaudio11AudioStream12MyPlayerBaseE0_N7android5media8BnPlayerE"
  },
  {
   "name" : "_ZTCN6aaudio11AudioStream12MyPlayerBaseE4_N7android7BBinderE"
  },
  {
   "name" : "_ZTCN6aaudio11AudioStream12MyPlayerBaseE4_N7android7IBinderE"
  },
  {
   "binding" : "weak",
   "name" : "_ZTCN6aaudio18AAudioBinderClient12AAudioClientE0_N7android7IBinder14DeathRecipientE"
  },
  {
   "binding" : "weak",
   "name" : "_ZTCN6aaudio18AAudioBinderClient12AAudioClientE4_N7android10IInterfaceE"
  },
  {
   "binding" : "weak",
   "name" : "_ZTCN6aaudio18AAudioBinderClient12AAudioClientE4_N7android11BnInterfaceINS1_13IAAudioClientEEE"
  },
  {
   "binding" : "weak",
   "name" : "_ZTCN6aaudio18AAudioBinderClient12AAudioClientE4_N7android13IAAudioClientE"
  },
  {
   "binding" : "weak",
   "name" : "_ZTCN6aaudio18AAudioBinderClient12AAudioClientE4_N7android14BnAAudioClientE"
  },
  {
   "binding" : "weak",
   "name" : "_ZTCN6aaudio18AAudioBinderClient12AAudioClientE8_N7android7BBinderE"
  },
  {
   "binding" : "weak",
   "name" : "_ZTCN6aaudio18AAudioBinderClient12AAudioClientE8_N7android7IBinderE"
  },
  {
   "name" : "_ZTCN7android13IAAudioClientE0_NS_10IInterfaceE"
  },
  {
   "name" : "_ZTCN7android14BnAAudioClientE0_NS_10IInterfaceE"
  },
  {
   "name" : "_ZTCN7android14BnAAudioClientE0_NS_11BnInterfaceINS_13IAAudioClientEEE"
  },
  {
   "name" : "_ZTCN7android14BnAAudioClientE0_NS_13IAAudioClientE"
  },
  {
   "name" : "_ZTCN7android14BnAAudioClientE4_NS_7BBinderE"
  },
  {
   "name" : "_ZTCN7android14BnAAudioClientE4_NS_7IBinderE"
  },
  {
   "binding" : "weak",
   "name" : "_ZTCN7android14BpAAudioClientE0_NS_10IInterfaceE"
  },
  {
   "binding" : "weak",
   "name" : "_ZTCN7android14BpAAudioClientE0_NS_11BpInterfaceINS_13IAAudioClientEEE"
  },
  {
   "binding" : "weak",
   "name" : "_ZTCN7android14BpAAudioClientE0_NS_13IAAudioClientE"
  },
  {
   "binding" : "weak",
   "name" : "_ZTCN7android14BpAAudioClientE4_NS_9BpRefBaseE"
  },
  {
   "name" : "_ZTCN7android14IAAudioServiceE0_NS_10IInterfaceE"
  },
  {
   "name" : "_ZTCN7android15BnAAudioServiceE0_NS_10IInterfaceE"
  },
  {
   "name" : "_ZTCN7android15BnAAudioServiceE0_NS_11BnInterfaceINS_14IAAudioServiceEEE"
  },
  {
   "name" : "_ZTCN7android15BnAAudioServiceE0_NS_14IAAudioServiceE"
  },
  {
   "name" : "_ZTCN7android15BnAAudioServiceE4_NS_7BBinderE"
  },
  {
   "name" : "_ZTCN7android15BnAAudioServiceE4_NS_7IBinderE"
  },
  {
   "binding" : "weak",
   "name" : "_ZTCN7android15BpAAudioServiceE0_NS_10IInterfaceE"
  },
  {
   "binding" : "weak",
   "name" : "_ZTCN7android15BpAAudioServiceE0_NS_11BpInterfaceINS_14IAAudioServiceEEE"
  },
  {
   "binding" : "weak",
   "name" : "_ZTCN7android15BpAAudioServiceE0_NS_14IAAudioServiceE"
  },
  {
   "binding" : "weak",
   "name" : "_ZTCN7android15BpAAudioServiceE4_NS_9BpRefBaseE"
  },
  {
   "name" : "_ZTTN6aaudio11AudioStream12MyPlayerBaseE"
  },
  {
   "binding" : "weak",
   "name" : "_ZTTN6aaudio18AAudioBinderClient12AAudioClientE"
  },
  {
   "name" : "_ZTTN6aaudio18AAudioBinderClientE"
  },
  {
   "name" : "_ZTTN7android13IAAudioClientE"
  },
  {
   "name" : "_ZTTN7android14BnAAudioClientE"
  },
  {
   "binding" : "weak",
   "name" : "_ZTTN7android14BpAAudioClientE"
  },
  {
   "name" : "_ZTTN7android14IAAudioServiceE"
  },
  {
   "name" : "_ZTTN7android15BnAAudioServiceE"
  },
  {
   "binding" : "weak",
   "name" : "_ZTTN7android15BpAAudioServiceE"
  },
  {
   "name" : "_ZTV16FixedBlockReader"
  },
  {
   "name" : "_ZTV16FixedBlockWriter"
  },
  {
   "binding" : "weak",
   "name" : "_ZTV16MonotonicCounter"
  },
  {
   "name" : "_ZTV17FixedBlockAdapter"
  },
  {
   "name" : "_ZTVN6aaudio11AudioStream12MyPlayerBaseE"
  },
  {
   "name" : "_ZTVN6aaudio11AudioStreamE"
  },
  {
   "name" : "_ZTVN6aaudio13AudioEndpointE"
  },
  {
   "name" : "_ZTVN6aaudio16AudioStreamTrackE"
  },
  {
   "binding" : "weak",
   "name" : "_ZTVN6aaudio17AudioStreamLegacy20StreamDeviceCallbackE"
  },
  {
   "name" : "_ZTVN6aaudio17AudioStreamLegacyE"
  },
  {
   "name" : "_ZTVN6aaudio17AudioStreamRecordE"
  },
  {
   "binding" : "weak",
   "name" : "_ZTVN6aaudio18AAudioBinderClient12AAudioClientE"
  },
  {
   "name" : "_ZTVN6aaudio18AAudioBinderClientE"
  },
  {
   "name" : "_ZTVN6aaudio18AudioStreamBuilderE"
  },
  {
   "name" : "_ZTVN6aaudio19AAudioStreamRequestE"
  },
  {
   "name" : "_ZTVN6aaudio19AudioStreamInternalE"
  },
  {
   "name" : "_ZTVN6aaudio20RingBufferParcelableE"
  },
  {
   "name" : "_ZTVN6aaudio21IsochronousClockModelE"
  },
  {
   "binding" : "weak",
   "name" : "_ZTVN6aaudio22AAudioServiceInterfaceE"
  },
  {
   "name" : "_ZTVN6aaudio22AAudioStreamParametersE"
  },
  {
   "name" : "_ZTVN6aaudio22SharedMemoryParcelableE"
  },
  {
   "name" : "_ZTVN6aaudio22SharedRegionParcelableE"
  },
  {
   "name" : "_ZTVN6aaudio23AudioEndpointParcelableE"
  },
  {
   "name" : "_ZTVN6aaudio23AudioStreamInternalPlayE"
  },
  {
   "name" : "_ZTVN6aaudio25AAudioStreamConfigurationE"
  },
  {
   "name" : "_ZTVN6aaudio26AudioStreamInternalCaptureE"
  },
  {
   "name" : "_ZTVN7android13IAAudioClientE"
  },
  {
   "name" : "_ZTVN7android14BnAAudioClientE"
  },
  {
   "binding" : "weak",
   "name" : "_ZTVN7android14BpAAudioClientE"
  },
  {
   "binding" : "weak",
   "name" : "_ZTVN7android14FifoControllerE"
  },
  {
   "name" : "_ZTVN7android14IAAudioServiceE"
  },
  {
   "name" : "_ZTVN7android15BnAAudioServiceE"
  },
  {
   "binding" : "weak",
   "name" : "_ZTVN7android15BpAAudioServiceE"
  },
  {
   "name" : "_ZTVN7android18FifoControllerBaseE"
  },
  {
   "binding" : "weak",
   "name" : "_ZTVN7android22FifoControllerIndirectE"
  },
  {
   "name" : "_ZTVN9flowgraph10RampLinearE"
  },
  {
   "binding" : "weak",
   "name" : "_ZTVN9flowgraph11AudioSourceE"
  },
  {
   "name" : "_ZTVN9flowgraph11ClipToRangeE"
  },
  {
   "name" : "_ZTVN9flowgraph11SourceFloatE"
  },
  {
   "name" : "_ZTVN9flowgraph19AudioFloatBlockPortE"
  },
  {
   "name" : "_ZTVN9flowgraph19AudioFloatInputPortE"
  },
  {
   "binding" : "weak",
   "name" : "_ZTVN9flowgraph20AudioFloatOutputPortE"
  },
  {
   "name" : "_ZTVN9flowgraph20MonoToMultiConverterE"
  },
  {
   "name" : "_ZTVN9flowgraph7SinkI16E"
  },
  {
   "name" : "_ZTVN9flowgraph7SinkI24E"
  },
  {
   "binding" : "weak",
   "name" : "_ZTVN9flowgraph9AudioSinkE"
  },
  {
   "name" : "_ZTVN9flowgraph9SinkFloatE"
  },
  {
   "name" : "_ZTVN9flowgraph9SourceI16E"
  },
  {
   "name" : "_ZTVN9flowgraph9SourceI24E"
  },
  {
   "name" : "gKeepBinderClient"
  }
 ],
 "enum_types" :
 [
  {
   "alignment" : 4,
   "enum_fields" :
   [
    {
     "enum_field_value" : 0,
     "name" : "aaudio::AAudioServiceMessage_s::code::NOTHING"
    },
    {
     "enum_field_value" : 1,
     "name" : "aaudio::AAudioServiceMessage_s::code::TIMESTAMP_SERVICE"
    },
    {
     "enum_field_value" : 2,
     "name" : "aaudio::AAudioServiceMessage_s::code::TIMESTAMP_HARDWARE"
    },
    {
     "enum_field_value" : 3,
     "name" : "aaudio::AAudioServiceMessage_s::code::EVENT"
    }
   ],
   "linker_set_key" : "aaudio::AAudioServiceMessage_s::code",
   "name" : "aaudio::AAudioServiceMessage_s::code",
   "referenced_type" : "type-200",
   "self_type" : "type-200",
   "size" : 4,
   "source_file" : "/frameworks/av/media/libaaudio/src/binding/AAudioServiceMessage.h",
   "underlying_type" : "type-1",
   "unique_id" : "_ZTSN6aaudio22AAudioServiceMessage_s4codeE"
  },
  {
   "access" : "private",
   "alignment" : 4,
   "enum_fields" :
   [
    {
     "enum_field_value" : 0,
     "name" : "aaudio::IsochronousClockModel::STATE_STOPPED"
    },
    {
     "enum_field_value" : 1,
     "name" : "aaudio::IsochronousClockModel::STATE_STARTING"
    },
    {
     "enum_field_value" : 2,
     "name" : "aaudio::IsochronousClockModel::STATE_SYNCING"
    },
    {
     "enum_field_value" : 3,
     "name" : "aaudio::IsochronousClockModel::STATE_RUNNING"
    }
   ],
   "linker_set_key" : "aaudio::IsochronousClockModel::clock_model_state_t",
   "name" : "aaudio::IsochronousClockModel::clock_model_state_t",
   "referenced_type" : "type-9",
   "self_type" : "type-9",
   "size" : 4,
   "source_file" : "/frameworks/av/media/libaaudio/src/client/IsochronousClockModel.h",
   "underlying_type" : "type-1",
   "unique_id" : "_ZTSN6aaudio21IsochronousClockModel19clock_model_state_tE"
  },
  {
   "alignment" : 4,
   "enum_fields" :
   [
    {
     "enum_field_value" : 0,
     "name" : "aaudio::NONE"
    },
    {
     "enum_field_value" : 1,
     "name" : "aaudio::RATE_ISOCHRONOUS"
    },
    {
     "enum_field_value" : 2,
     "name" : "aaudio::RATE_ASYNCHRONOUS"
    },
    {
     "enum_field_value" : 4,
     "name" : "aaudio::COHERENCY_DMA"
    },
    {
     "enum_field_value" : 8,
     "name" : "aaudio::COHERENCY_ACQUIRE_RELEASE"
    },
    {
     "enum_field_value" : 16,
     "name" : "aaudio::COHERENCY_AUTO"
    }
   ],
   "linker_set_key" : "aaudio::RingbufferFlags",
   "name" : "aaudio::RingbufferFlags",
   "referenced_type" : "type-32",
   "self_type" : "type-32",
   "size" : 4,
   "source_file" : "/frameworks/av/media/libaaudio/src/binding/AAudioServiceDefinitions.h",
   "underlying_type" : "type-1",
   "unique_id" : "_ZTSN6aaudio15RingbufferFlagsE"
  },
  {
   "alignment" : 4,
   "enum_fields" :
   [
    {
     "enum_field_value" : 0,
     "name" : "aaudio::AAUDIO_SERVICE_EVENT_STARTED"
    },
    {
     "enum_field_value" : 1,
     "name" : "aaudio::AAUDIO_SERVICE_EVENT_PAUSED"
    },
    {
     "enum_field_value" : 2,
     "name" : "aaudio::AAUDIO_SERVICE_EVENT_STOPPED"
    },
    {
     "enum_field_value" : 3,
     "name" : "aaudio::AAUDIO_SERVICE_EVENT_FLUSHED"
    },
    {
     "enum_field_value" : 4,
     "name" : "aaudio::AAUDIO_SERVICE_EVENT_DISCONNECTED"
    },
    {
     "enum_field_value" : 5,
     "name" : "aaudio::AAUDIO_SERVICE_EVENT_VOLUME"
    },
    {
     "enum_field_value" : 6,
     "name" : "aaudio::AAUDIO_SERVICE_EVENT_XRUN"
    }
   ],
   "linker_set_key" : "aaudio::aaudio_service_event_e",
   "name" : "aaudio::aaudio_service_event_e",
   "referenced_type" : "type-195",
   "self_type" : "type-195",
   "size" : 4,
   "source_file" : "/frameworks/av/media/libaaudio/src/binding/AAudioServiceMessage.h",
   "underlying_type" : "type-1",
   "unique_id" : "_ZTSN6aaudio22aaudio_service_event_eE"
  },
  {
   "alignment" : 4,
   "enum_fields" :
   [
    {
     "enum_field_value" : 1,
     "name" : "android::ON_STREAM_CHANGE"
    }
   ],
   "linker_set_key" : "android::aaudio_client_commands_t",
   "name" : "android::aaudio_client_commands_t",
   "referenced_type" : "type-152",
   "self_type" : "type-152",
   "size" : 4,
   "source_file" : "/frameworks/av/media/libaaudio/src/binding/AAudioServiceDefinitions.h",
   "underlying_type" : "type-1",
   "unique_id" : "_ZTSN7android24aaudio_client_commands_tE"
  },
  {
   "alignment" : 4,
   "enum_fields" :
   [
    {
     "enum_field_value" : 1,
     "name" : "android::REGISTER_CLIENT"
    },
    {
     "enum_field_value" : 2,
     "name" : "android::OPEN_STREAM"
    },
    {
     "enum_field_value" : 3,
     "name" : "android::CLOSE_STREAM"
    },
    {
     "enum_field_value" : 4,
     "name" : "android::GET_STREAM_DESCRIPTION"
    },
    {
     "enum_field_value" : 5,
     "name" : "android::START_STREAM"
    },
    {
     "enum_field_value" : 6,
     "name" : "android::PAUSE_STREAM"
    },
    {
     "enum_field_value" : 7,
     "name" : "android::STOP_STREAM"
    },
    {
     "enum_field_value" : 8,
     "name" : "android::FLUSH_STREAM"
    },
    {
     "enum_field_value" : 9,
     "name" : "android::REGISTER_AUDIO_THREAD"
    },
    {
     "enum_field_value" : 10,
     "name" : "android::UNREGISTER_AUDIO_THREAD"
    }
   ],
   "linker_set_key" : "android::aaudio_service_commands_t",
   "name" : "android::aaudio_service_commands_t",
   "referenced_type" : "type-277",
   "self_type" : "type-277",
   "size" : 4,
   "source_file" : "/frameworks/av/media/libaaudio/src/binding/AAudioServiceDefinitions.h",
   "underlying_type" : "type-1",
   "unique_id" : "_ZTSN7android25aaudio_service_commands_tE"
  }
 ],
 "function_types" :
 [
  {
   "alignment" : 4,
   "linker_set_key" : "int (AAudioStreamStruct *, void *, void *, int)",
   "name" : "int (AAudioStreamStruct *, void *, void *, int)",
   "parameters" :
   [
    {
     "referenced_type" : "type-51"
    },
    {
     "referenced_type" : "type-53"
    },
    {
     "referenced_type" : "type-53"
    },
    {
     "referenced_type" : "type-4"
    }
   ],
   "referenced_type" : "type-50",
   "return_type" : "type-4",
   "self_type" : "type-50",
   "source_file" : "/frameworks/av/media/libaaudio/src/core/AudioStream.h"
  },
  {
   "alignment" : 4,
   "linker_set_key" : "void (AAudioStreamStruct *, void *, int)",
   "name" : "void (AAudioStreamStruct *, void *, int)",
   "parameters" :
   [
    {
     "referenced_type" : "type-51"
    },
    {
     "referenced_type" : "type-53"
    },
    {
     "referenced_type" : "type-4"
    }
   ],
   "referenced_type" : "type-57",
   "return_type" : "type-54",
   "self_type" : "type-57",
   "source_file" : "/frameworks/av/media/libaaudio/src/core/AudioStream.h"
  },
  {
   "alignment" : 4,
   "linker_set_key" : "void (int, void *, void *)",
   "name" : "void (int, void *, void *)",
   "parameters" :
   [
    {
     "referenced_type" : "type-4"
    },
    {
     "referenced_type" : "type-53"
    },
    {
     "referenced_type" : "type-53"
    }
   ],
   "referenced_type" : "type-229",
   "return_type" : "type-54",
   "self_type" : "type-229",
   "source_file" : "/frameworks/av/media/libaaudio/src/legacy/AudioStreamLegacy.h"
  },
  {
   "alignment" : 4,
   "linker_set_key" : "void *(void *)",
   "name" : "void *(void *)",
   "parameters" :
   [
    {
     "referenced_type" : "type-53"
    }
   ],
   "referenced_type" : "type-62",
   "return_type" : "type-53",
   "self_type" : "type-62",
   "source_file" : "/frameworks/av/media/libaaudio/src/core/AudioStream.h"
  }
 ],
 "functions" :
 [
  {
   "function_name" : "AAudioStreamBuilder_delete",
   "linker_set_key" : "AAudioStreamBuilder_delete",
   "parameters" :
   [
    {
     "referenced_type" : "type-214"
    }
   ],
   "return_type" : "type-4",
   "source_file" : "/frameworks/av/media/libaaudio/include/aaudio/AAudio.h"
  },
  {
   "function_name" : "AAudioStreamBuilder_openStream",
   "linker_set_key" : "AAudioStreamBuilder_openStream",
   "parameters" :
   [
    {
     "referenced_type" : "type-214"
    },
    {
     "referenced_type" : "type-213"
    }
   ],
   "return_type" : "type-4",
   "source_file" : "/frameworks/av/media/libaaudio/include/aaudio/AAudio.h"
  },
  {
   "function_name" : "AAudioStreamBuilder_setAllowedCapturePolicy",
   "linker_set_key" : "AAudioStreamBuilder_setAllowedCapturePolicy",
   "parameters" :
   [
    {
     "referenced_type" : "type-214"
    },
    {
     "referenced_type" : "type-4"
    }
   ],
   "return_type" : "type-54",
   "source_file" : "/frameworks/av/media/libaaudio/include/aaudio/AAudio.h"
  },
  {
   "function_name" : "AAudioStreamBuilder_setBufferCapacityInFrames",
   "linker_set_key" : "AAudioStreamBuilder_setBufferCapacityInFrames",
   "parameters" :
   [
    {
     "referenced_type" : "type-214"
    },
    {
     "referenced_type" : "type-4"
    }
   ],
   "return_type" : "type-54",
   "source_file" : "/frameworks/av/media/libaaudio/include/aaudio/AAudio.h"
  },
  {
   "function_name" : "AAudioStreamBuilder_setChannelCount",
   "linker_set_key" : "AAudioStreamBuilder_setChannelCount",
   "parameters" :
   [
    {
     "referenced_type" : "type-214"
    },
    {
     "referenced_type" : "type-4"
    }
   ],
   "return_type" : "type-54",
   "source_file" : "/frameworks/av/media/libaaudio/include/aaudio/AAudio.h"
  },
  {
   "function_name" : "AAudioStreamBuilder_setContentType",
   "linker_set_key" : "AAudioStreamBuilder_setContentType",
   "parameters" :
   [
    {
     "referenced_type" : "type-214"
    },
    {
     "referenced_type" : "type-4"
    }
   ],
   "return_type" : "type-54",
   "source_file" : "/frameworks/av/media/libaaudio/include/aaudio/AAudio.h"
  },
  {
   "function_name" : "AAudioStreamBuilder_setDataCallback",
   "linker_set_key" : "AAudioStreamBuilder_setDataCallback",
   "parameters" :
   [
    {
     "referenced_type" : "type-214"
    },
    {
     "referenced_type" : "type-49"
    },
    {
     "referenced_type" : "type-53"
    }
   ],
   "return_type" : "type-54",
   "source_file" : "/frameworks/av/media/libaaudio/include/aaudio/AAudio.h"
  },
  {
   "function_name" : "AAudioStreamBuilder_setDeviceId",
   "linker_set_key" : "AAudioStreamBuilder_setDeviceId",
   "parameters" :
   [
    {
     "referenced_type" : "type-214"
    },
    {
     "referenced_type" : "type-4"
    }
   ],
   "return_type" : "type-54",
   "source_file" : "/frameworks/av/media/libaaudio/include/aaudio/AAudio.h"
  },
  {
   "function_name" : "AAudioStreamBuilder_setDirection",
   "linker_set_key" : "AAudioStreamBuilder_setDirection",
   "parameters" :
   [
    {
     "referenced_type" : "type-214"
    },
    {
     "referenced_type" : "type-4"
    }
   ],
   "return_type" : "type-54",
   "source_file" : "/frameworks/av/media/libaaudio/include/aaudio/AAudio.h"
  },
  {
   "function_name" : "AAudioStreamBuilder_setErrorCallback",
   "linker_set_key" : "AAudioStreamBuilder_setErrorCallback",
   "parameters" :
   [
    {
     "referenced_type" : "type-214"
    },
    {
     "referenced_type" : "type-56"
    },
    {
     "referenced_type" : "type-53"
    }
   ],
   "return_type" : "type-54",
   "source_file" : "/frameworks/av/media/libaaudio/include/aaudio/AAudio.h"
  },
  {
   "function_name" : "AAudioStreamBuilder_setFormat",
   "linker_set_key" : "AAudioStreamBuilder_setFormat",
   "parameters" :
   [
    {
     "referenced_type" : "type-214"
    },
    {
     "referenced_type" : "type-4"
    }
   ],
   "return_type" : "type-54",
   "source_file" : "/frameworks/av/media/libaaudio/include/aaudio/AAudio.h"
  },
  {
   "function_name" : "AAudioStreamBuilder_setFramesPerDataCallback",
   "linker_set_key" : "AAudioStreamBuilder_setFramesPerDataCallback",
   "parameters" :
   [
    {
     "referenced_type" : "type-214"
    },
    {
     "referenced_type" : "type-4"
    }
   ],
   "return_type" : "type-54",
   "source_file" : "/frameworks/av/media/libaaudio/include/aaudio/AAudio.h"
  },
  {
   "function_name" : "AAudioStreamBuilder_setInputPreset",
   "linker_set_key" : "AAudioStreamBuilder_setInputPreset",
   "parameters" :
   [
    {
     "referenced_type" : "type-214"
    },
    {
     "referenced_type" : "type-4"
    }
   ],
   "return_type" : "type-54",
   "source_file" : "/frameworks/av/media/libaaudio/include/aaudio/AAudio.h"
  },
  {
   "function_name" : "AAudioStreamBuilder_setPerformanceMode",
   "linker_set_key" : "AAudioStreamBuilder_setPerformanceMode",
   "parameters" :
   [
    {
     "referenced_type" : "type-214"
    },
    {
     "referenced_type" : "type-4"
    }
   ],
   "return_type" : "type-54",
   "source_file" : "/frameworks/av/media/libaaudio/include/aaudio/AAudio.h"
  },
  {
   "function_name" : "AAudioStreamBuilder_setSampleRate",
   "linker_set_key" : "AAudioStreamBuilder_setSampleRate",
   "parameters" :
   [
    {
     "referenced_type" : "type-214"
    },
    {
     "referenced_type" : "type-4"
    }
   ],
   "return_type" : "type-54",
   "source_file" : "/frameworks/av/media/libaaudio/include/aaudio/AAudio.h"
  },
  {
   "function_name" : "AAudioStreamBuilder_setSamplesPerFrame",
   "linker_set_key" : "AAudioStreamBuilder_setSamplesPerFrame",
   "parameters" :
   [
    {
     "referenced_type" : "type-214"
    },
    {
     "referenced_type" : "type-4"
    }
   ],
   "return_type" : "type-54",
   "source_file" : "/frameworks/av/media/libaaudio/include/aaudio/AAudio.h"
  },
  {
   "function_name" : "AAudioStreamBuilder_setSessionId",
   "linker_set_key" : "AAudioStreamBuilder_setSessionId",
   "parameters" :
   [
    {
     "referenced_type" : "type-214"
    },
    {
     "referenced_type" : "type-4"
    }
   ],
   "return_type" : "type-54",
   "source_file" : "/frameworks/av/media/libaaudio/include/aaudio/AAudio.h"
  },
  {
   "function_name" : "AAudioStreamBuilder_setSharingMode",
   "linker_set_key" : "AAudioStreamBuilder_setSharingMode",
   "parameters" :
   [
    {
     "referenced_type" : "type-214"
    },
    {
     "referenced_type" : "type-4"
    }
   ],
   "return_type" : "type-54",
   "source_file" : "/frameworks/av/media/libaaudio/include/aaudio/AAudio.h"
  },
  {
   "function_name" : "AAudioStreamBuilder_setUsage",
   "linker_set_key" : "AAudioStreamBuilder_setUsage",
   "parameters" :
   [
    {
     "referenced_type" : "type-214"
    },
    {
     "referenced_type" : "type-4"
    }
   ],
   "return_type" : "type-54",
   "source_file" : "/frameworks/av/media/libaaudio/include/aaudio/AAudio.h"
  },
  {
   "function_name" : "AAudioStream_close",
   "linker_set_key" : "AAudioStream_close",
   "parameters" :
   [
    {
     "referenced_type" : "type-211"
    }
   ],
   "return_type" : "type-4",
   "source_file" : "/frameworks/av/media/libaaudio/include/aaudio/AAudio.h"
  },
  {
   "function_name" : "AAudioStream_getAllowedCapturePolicy",
   "linker_set_key" : "AAudioStream_getAllowedCapturePolicy",
   "parameters" :
   [
    {
     "referenced_type" : "type-211"
    }
   ],
   "return_type" : "type-4",
   "source_file" : "/frameworks/av/media/libaaudio/include/aaudio/AAudio.h"
  },
  {
   "function_name" : "AAudioStream_getBufferCapacityInFrames",
   "linker_set_key" : "AAudioStream_getBufferCapacityInFrames",
   "parameters" :
   [
    {
     "referenced_type" : "type-211"
    }
   ],
   "return_type" : "type-4",
   "source_file" : "/frameworks/av/media/libaaudio/include/aaudio/AAudio.h"
  },
  {
   "function_name" : "AAudioStream_getBufferSizeInFrames",
   "linker_set_key" : "AAudioStream_getBufferSizeInFrames",
   "parameters" :
   [
    {
     "referenced_type" : "type-211"
    }
   ],
   "return_type" : "type-4",
   "source_file" : "/frameworks/av/media/libaaudio/include/aaudio/AAudio.h"
  },
  {
   "function_name" : "AAudioStream_getChannelCount",
   "linker_set_key" : "AAudioStream_getChannelCount",
   "parameters" :
   [
    {
     "referenced_type" : "type-211"
    }
   ],
   "return_type" : "type-4",
   "source_file" : "/frameworks/av/media/libaaudio/include/aaudio/AAudio.h"
  },
  {
   "function_name" : "AAudioStream_getContentType",
   "linker_set_key" : "AAudioStream_getContentType",
   "parameters" :
   [
    {
     "referenced_type" : "type-211"
    }
   ],
   "return_type" : "type-4",
   "source_file" : "/frameworks/av/media/libaaudio/include/aaudio/AAudio.h"
  },
  {
   "function_name" : "AAudioStream_getDeviceId",
   "linker_set_key" : "AAudioStream_getDeviceId",
   "parameters" :
   [
    {
     "referenced_type" : "type-211"
    }
   ],
   "return_type" : "type-4",
   "source_file" : "/frameworks/av/media/libaaudio/include/aaudio/AAudio.h"
  },
  {
   "function_name" : "AAudioStream_getDirection",
   "linker_set_key" : "AAudioStream_getDirection",
   "parameters" :
   [
    {
     "referenced_type" : "type-211"
    }
   ],
   "return_type" : "type-4",
   "source_file" : "/frameworks/av/media/libaaudio/include/aaudio/AAudio.h"
  },
  {
   "function_name" : "AAudioStream_getFormat",
   "linker_set_key" : "AAudioStream_getFormat",
   "parameters" :
   [
    {
     "referenced_type" : "type-211"
    }
   ],
   "return_type" : "type-4",
   "source_file" : "/frameworks/av/media/libaaudio/include/aaudio/AAudio.h"
  },
  {
   "function_name" : "AAudioStream_getFramesPerBurst",
   "linker_set_key" : "AAudioStream_getFramesPerBurst",
   "parameters" :
   [
    {
     "referenced_type" : "type-211"
    }
   ],
   "return_type" : "type-4",
   "source_file" : "/frameworks/av/media/libaaudio/include/aaudio/AAudio.h"
  },
  {
   "function_name" : "AAudioStream_getFramesPerDataCallback",
   "linker_set_key" : "AAudioStream_getFramesPerDataCallback",
   "parameters" :
   [
    {
     "referenced_type" : "type-211"
    }
   ],
   "return_type" : "type-4",
   "source_file" : "/frameworks/av/media/libaaudio/include/aaudio/AAudio.h"
  },
  {
   "function_name" : "AAudioStream_getFramesRead",
   "linker_set_key" : "AAudioStream_getFramesRead",
   "parameters" :
   [
    {
     "referenced_type" : "type-211"
    }
   ],
   "return_type" : "type-8",
   "source_file" : "/frameworks/av/media/libaaudio/include/aaudio/AAudio.h"
  },
  {
   "function_name" : "AAudioStream_getFramesWritten",
   "linker_set_key" : "AAudioStream_getFramesWritten",
   "parameters" :
   [
    {
     "referenced_type" : "type-211"
    }
   ],
   "return_type" : "type-8",
   "source_file" : "/frameworks/av/media/libaaudio/include/aaudio/AAudio.h"
  },
  {
   "function_name" : "AAudioStream_getInputPreset",
   "linker_set_key" : "AAudioStream_getInputPreset",
   "parameters" :
   [
    {
     "referenced_type" : "type-211"
    }
   ],
   "return_type" : "type-4",
   "source_file" : "/frameworks/av/media/libaaudio/include/aaudio/AAudio.h"
  },
  {
   "function_name" : "AAudioStream_getPerformanceMode",
   "linker_set_key" : "AAudioStream_getPerformanceMode",
   "parameters" :
   [
    {
     "referenced_type" : "type-211"
    }
   ],
   "return_type" : "type-4",
   "source_file" : "/frameworks/av/media/libaaudio/include/aaudio/AAudio.h"
  },
  {
   "function_name" : "AAudioStream_getSampleRate",
   "linker_set_key" : "AAudioStream_getSampleRate",
   "parameters" :
   [
    {
     "referenced_type" : "type-211"
    }
   ],
   "return_type" : "type-4",
   "source_file" : "/frameworks/av/media/libaaudio/include/aaudio/AAudio.h"
  },
  {
   "function_name" : "AAudioStream_getSamplesPerFrame",
   "linker_set_key" : "AAudioStream_getSamplesPerFrame",
   "parameters" :
   [
    {
     "referenced_type" : "type-211"
    }
   ],
   "return_type" : "type-4",
   "source_file" : "/frameworks/av/media/libaaudio/include/aaudio/AAudio.h"
  },
  {
   "function_name" : "AAudioStream_getSessionId",
   "linker_set_key" : "AAudioStream_getSessionId",
   "parameters" :
   [
    {
     "referenced_type" : "type-211"
    }
   ],
   "return_type" : "type-4",
   "source_file" : "/frameworks/av/media/libaaudio/include/aaudio/AAudio.h"
  },
  {
   "function_name" : "AAudioStream_getSharingMode",
   "linker_set_key" : "AAudioStream_getSharingMode",
   "parameters" :
   [
    {
     "referenced_type" : "type-211"
    }
   ],
   "return_type" : "type-4",
   "source_file" : "/frameworks/av/media/libaaudio/include/aaudio/AAudio.h"
  },
  {
   "function_name" : "AAudioStream_getState",
   "linker_set_key" : "AAudioStream_getState",
   "parameters" :
   [
    {
     "referenced_type" : "type-211"
    }
   ],
   "return_type" : "type-4",
   "source_file" : "/frameworks/av/media/libaaudio/include/aaudio/AAudio.h"
  },
  {
   "function_name" : "AAudioStream_getTimestamp",
   "linker_set_key" : "AAudioStream_getTimestamp",
   "parameters" :
   [
    {
     "referenced_type" : "type-211"
    },
    {
     "referenced_type" : "type-4"
    },
    {
     "referenced_type" : "type-41"
    },
    {
     "referenced_type" : "type-41"
    }
   ],
   "return_type" : "type-4",
   "source_file" : "/frameworks/av/media/libaaudio/include/aaudio/AAudio.h"
  },
  {
   "function_name" : "AAudioStream_getUsage",
   "linker_set_key" : "AAudioStream_getUsage",
   "parameters" :
   [
    {
     "referenced_type" : "type-211"
    }
   ],
   "return_type" : "type-4",
   "source_file" : "/frameworks/av/media/libaaudio/include/aaudio/AAudio.h"
  },
  {
   "function_name" : "AAudioStream_getXRunCount",
   "linker_set_key" : "AAudioStream_getXRunCount",
   "parameters" :
   [
    {
     "referenced_type" : "type-211"
    }
   ],
   "return_type" : "type-4",
   "source_file" : "/frameworks/av/media/libaaudio/include/aaudio/AAudio.h"
  },
  {
   "function_name" : "AAudioStream_isMMapUsed",
   "linker_set_key" : "AAudioStream_isMMapUsed",
   "parameters" :
   [
    {
     "referenced_type" : "type-211"
    }
   ],
   "return_type" : "type-16",
   "source_file" : "/frameworks/av/media/libaaudio/include/aaudio/AAudioTesting.h"
  },
  {
   "function_name" : "AAudioStream_read",
   "linker_set_key" : "AAudioStream_read",
   "parameters" :
   [
    {
     "referenced_type" : "type-211"
    },
    {
     "referenced_type" : "type-53"
    },
    {
     "referenced_type" : "type-4"
    },
    {
     "referenced_type" : "type-8"
    }
   ],
   "return_type" : "type-4",
   "source_file" : "/frameworks/av/media/libaaudio/include/aaudio/AAudio.h"
  },
  {
   "function_name" : "AAudioStream_requestFlush",
   "linker_set_key" : "AAudioStream_requestFlush",
   "parameters" :
   [
    {
     "referenced_type" : "type-211"
    }
   ],
   "return_type" : "type-4",
   "source_file" : "/frameworks/av/media/libaaudio/include/aaudio/AAudio.h"
  },
  {
   "function_name" : "AAudioStream_requestPause",
   "linker_set_key" : "AAudioStream_requestPause",
   "parameters" :
   [
    {
     "referenced_type" : "type-211"
    }
   ],
   "return_type" : "type-4",
   "source_file" : "/frameworks/av/media/libaaudio/include/aaudio/AAudio.h"
  },
  {
   "function_name" : "AAudioStream_requestStart",
   "linker_set_key" : "AAudioStream_requestStart",
   "parameters" :
   [
    {
     "referenced_type" : "type-211"
    }
   ],
   "return_type" : "type-4",
   "source_file" : "/frameworks/av/media/libaaudio/include/aaudio/AAudio.h"
  },
  {
   "function_name" : "AAudioStream_requestStop",
   "linker_set_key" : "AAudioStream_requestStop",
   "parameters" :
   [
    {
     "referenced_type" : "type-211"
    }
   ],
   "return_type" : "type-4",
   "source_file" : "/frameworks/av/media/libaaudio/include/aaudio/AAudio.h"
  },
  {
   "function_name" : "AAudioStream_setBufferSizeInFrames",
   "linker_set_key" : "AAudioStream_setBufferSizeInFrames",
   "parameters" :
   [
    {
     "referenced_type" : "type-211"
    },
    {
     "referenced_type" : "type-4"
    }
   ],
   "return_type" : "type-4",
   "source_file" : "/frameworks/av/media/libaaudio/include/aaudio/AAudio.h"
  },
  {
   "function_name" : "AAudioStream_waitForStateChange",
   "linker_set_key" : "AAudioStream_waitForStateChange",
   "parameters" :
   [
    {
     "referenced_type" : "type-211"
    },
    {
     "referenced_type" : "type-4"
    },
    {
     "referenced_type" : "type-246"
    },
    {
     "referenced_type" : "type-8"
    }
   ],
   "return_type" : "type-4",
   "source_file" : "/frameworks/av/media/libaaudio/include/aaudio/AAudio.h"
  },
  {
   "function_name" : "AAudioStream_write",
   "linker_set_key" : "AAudioStream_write",
   "parameters" :
   [
    {
     "referenced_type" : "type-211"
    },
    {
     "referenced_type" : "type-90"
    },
    {
     "referenced_type" : "type-4"
    },
    {
     "referenced_type" : "type-8"
    }
   ],
   "return_type" : "type-4",
   "source_file" : "/frameworks/av/media/libaaudio/include/aaudio/AAudio.h"
  },
  {
   "function_name" : "AAudio_convertResultToText",
   "linker_set_key" : "AAudio_convertResultToText",
   "parameters" :
   [
    {
     "referenced_type" : "type-4"
    }
   ],
   "return_type" : "type-208",
   "source_file" : "/frameworks/av/media/libaaudio/include/aaudio/AAudio.h"
  },
  {
   "function_name" : "AAudio_convertStreamStateToText",
   "linker_set_key" : "AAudio_convertStreamStateToText",
   "parameters" :
   [
    {
     "referenced_type" : "type-4"
    }
   ],
   "return_type" : "type-208",
   "source_file" : "/frameworks/av/media/libaaudio/include/aaudio/AAudio.h"
  },
  {
   "function_name" : "AAudio_createStreamBuilder",
   "linker_set_key" : "AAudio_createStreamBuilder",
   "parameters" :
   [
    {
     "referenced_type" : "type-218"
    }
   ],
   "return_type" : "type-4",
   "source_file" : "/frameworks/av/media/libaaudio/include/aaudio/AAudio.h"
  },
  {
   "function_name" : "AAudio_getMMapPolicy",
   "linker_set_key" : "AAudio_getMMapPolicy",
   "return_type" : "type-4",
   "source_file" : "/frameworks/av/media/libaaudio/include/aaudio/AAudioTesting.h"
  },
  {
   "function_name" : "AAudio_setMMapPolicy",
   "linker_set_key" : "AAudio_setMMapPolicy",
   "parameters" :
   [
    {
     "referenced_type" : "type-4"
    }
   ],
   "return_type" : "type-4",
   "source_file" : "/frameworks/av/media/libaaudio/include/aaudio/AAudioTesting.h"
  },
  {
   "function_name" : "AAudio_isFlushAllowed",
   "linker_set_key" : "_Z21AAudio_isFlushAllowedi",
   "parameters" :
   [
    {
     "referenced_type" : "type-4"
    }
   ],
   "return_type" : "type-4",
   "source_file" : "/frameworks/av/media/libaaudio/src/utility/AAudioUtilities.h"
  },
  {
   "function_name" : "AAudioConvert_framesToBytes",
   "linker_set_key" : "_Z27AAudioConvert_framesToBytesiiPi",
   "parameters" :
   [
    {
     "referenced_type" : "type-4"
    },
    {
     "referenced_type" : "type-4"
    },
    {
     "referenced_type" : "type-246"
    }
   ],
   "return_type" : "type-4",
   "source_file" : "/frameworks/av/media/libaaudio/src/utility/AAudioUtilities.h"
  },
  {
   "function_name" : "AAudioProperty_getMMapPolicy",
   "linker_set_key" : "_Z28AAudioProperty_getMMapPolicyv",
   "return_type" : "type-4",
   "source_file" : "/frameworks/av/media/libaaudio/src/utility/AAudioUtilities.h"
  },
  {
   "function_name" : "AAudioConvert_usageToInternal",
   "linker_set_key" : "_Z29AAudioConvert_usageToInternali",
   "parameters" :
   [
    {
     "referenced_type" : "type-4"
    }
   ],
   "return_type" : "type-284",
   "source_file" : "/frameworks/av/media/libaaudio/src/utility/AAudioUtilities.h"
  },
  {
   "function_name" : "AAudioProperty_getMixerBursts",
   "linker_set_key" : "_Z29AAudioProperty_getMixerBurstsv",
   "return_type" : "type-4",
   "source_file" : "/frameworks/av/media/libaaudio/src/utility/AAudioUtilities.h"
  },
  {
   "function_name" : "AAudioConvert_aaudioToAndroidStatus",
   "linker_set_key" : "_Z35AAudioConvert_aaudioToAndroidStatusi",
   "parameters" :
   [
    {
     "referenced_type" : "type-4"
    }
   ],
   "return_type" : "type-4",
   "source_file" : "/frameworks/av/media/libaaudio/src/utility/AAudioUtilities.h"
  },
  {
   "function_name" : "AAudioConvert_androidToAAudioResult",
   "linker_set_key" : "_Z35AAudioConvert_androidToAAudioResulti",
   "parameters" :
   [
    {
     "referenced_type" : "type-4"
    }
   ],
   "return_type" : "type-4",
   "source_file" : "/frameworks/av/media/libaaudio/src/utility/AAudioUtilities.h"
  },
  {
   "function_name" : "AAudioConvert_contentTypeToInternal",
   "linker_set_key" : "_Z35AAudioConvert_contentTypeToInternali",
   "parameters" :
   [
    {
     "referenced_type" : "type-4"
    }
   ],
   "return_type" : "type-285",
   "source_file" : "/frameworks/av/media/libaaudio/src/utility/AAudioUtilities.h"
  },
  {
   "function_name" : "AAudioProperty_getWakeupDelayMicros",
   "linker_set_key" : "_Z35AAudioProperty_getWakeupDelayMicrosv",
   "return_type" : "type-4",
   "source_file" : "/frameworks/av/media/libaaudio/src/utility/AAudioUtilities.h"
  },
  {
   "function_name" : "AAudioProperty_getMinimumSleepMicros",
   "linker_set_key" : "_Z36AAudioProperty_getMinimumSleepMicrosv",
   "return_type" : "type-4",
   "source_file" : "/frameworks/av/media/libaaudio/src/utility/AAudioUtilities.h"
  },
  {
   "function_name" : "AAudioProperty_getMMapExclusivePolicy",
   "linker_set_key" : "_Z37AAudioProperty_getMMapExclusivePolicyv",
   "return_type" : "type-4",
   "source_file" : "/frameworks/av/media/libaaudio/src/utility/AAudioUtilities.h"
  },
  {
   "function_name" : "AAudioConvert_aaudioToAndroidSessionId",
   "linker_set_key" : "_Z38AAudioConvert_aaudioToAndroidSessionIdi",
   "parameters" :
   [
    {
     "referenced_type" : "type-4"
    }
   ],
   "return_type" : "type-286",
   "source_file" : "/frameworks/av/media/libaaudio/src/utility/AAudioUtilities.h"
  },
  {
   "function_name" : "AAudioConvert_inputPresetToAudioSource",
   "linker_set_key" : "_Z38AAudioConvert_inputPresetToAudioSourcei",
   "parameters" :
   [
    {
     "referenced_type" : "type-4"
    }
   ],
   "return_type" : "type-287",
   "source_file" : "/frameworks/av/media/libaaudio/src/utility/AAudioUtilities.h"
  },
  {
   "function_name" : "AAudioConvert_aaudioToAndroidDataFormat",
   "linker_set_key" : "_Z39AAudioConvert_aaudioToAndroidDataFormati",
   "parameters" :
   [
    {
     "referenced_type" : "type-4"
    }
   ],
   "return_type" : "type-288",
   "source_file" : "/frameworks/av/media/libaaudio/src/utility/AAudioUtilities.h"
  },
  {
   "function_name" : "AAudioConvert_androidToAAudioDataFormat",
   "linker_set_key" : "_Z39AAudioConvert_androidToAAudioDataFormat14audio_format_t",
   "parameters" :
   [
    {
     "referenced_type" : "type-289"
    }
   ],
   "return_type" : "type-4",
   "source_file" : "/frameworks/av/media/libaaudio/src/utility/AAudioUtilities.h"
  },
  {
   "function_name" : "AAudioProperty_getHardwareBurstMinMicros",
   "linker_set_key" : "_Z40AAudioProperty_getHardwareBurstMinMicrosv",
   "return_type" : "type-4",
   "source_file" : "/frameworks/av/media/libaaudio/src/utility/AAudioUtilities.h"
  },
  {
   "function_name" : "AAudioConvert_allowCapturePolicyToAudioFlagsMask",
   "linker_set_key" : "_Z48AAudioConvert_allowCapturePolicyToAudioFlagsMaski",
   "parameters" :
   [
    {
     "referenced_type" : "type-4"
    }
   ],
   "return_type" : "type-1",
   "source_file" : "/frameworks/av/media/libaaudio/src/utility/AAudioUtilities.h"
  },
  {
   "function_name" : "AAudioFlowGraph::setTargetVolume",
   "linker_set_key" : "_ZN15AAudioFlowGraph15setTargetVolumeEf",
   "parameters" :
   [
    {
     "is_this_ptr" : true,
     "referenced_type" : "type-261"
    },
    {
     "referenced_type" : "type-27"
    }
   ],
   "return_type" : "type-54",
   "source_file" : "/frameworks/av/media/libaaudio/src/client/AAudioFlowGraph.h"
  },
  {
   "function_name" : "AAudioFlowGraph::setRampLengthInFrames",
   "linker_set_key" : "_ZN15AAudioFlowGraph21setRampLengthInFramesEi",
   "parameters" :
   [
    {
     "is_this_ptr" : true,
     "referenced_type" : "type-261"
    },
    {
     "referenced_type" : "type-4"
    }
   ],
   "return_type" : "type-54",
   "source_file" : "/frameworks/av/media/libaaudio/src/client/AAudioFlowGraph.h"
  },
  {
   "function_name" : "AAudioFlowGraph::process",
   "linker_set_key" : "_ZN15AAudioFlowGraph7processEPKvPvi",
   "parameters" :
   [
    {
     "is_this_ptr" : true,
     "referenced_type" : "type-261"
    },
    {
     "referenced_type" : "type-90"
    },
    {
     "referenced_type" : "type-53"
    },
    {
     "referenced_type" : "type-4"
    }
   ],
   "return_type" : "type-54",
   "source_file" : "/frameworks/av/media/libaaudio/src/client/AAudioFlowGraph.h"
  },
  {
   "function_name" : "AAudioFlowGraph::configure",
   "linker_set_key" : "_ZN15AAudioFlowGraph9configureE14audio_format_tiS0_i",
   "parameters" :
   [
    {
     "is_this_ptr" : true,
     "referenced_type" : "type-261"
    },
    {
     "referenced_type" : "type-290"
    },
    {
     "referenced_type" : "type-4"
    },
    {
     "referenced_type" : "type-291"
    },
    {
     "referenced_type" : "type-4"
    }
   ],
   "return_type" : "type-4",
   "source_file" : "/frameworks/av/media/libaaudio/src/client/AAudioFlowGraph.h"
  },
  {
   "function_name" : "FixedBlockReader::readFromStorage",
   "linker_set_key" : "_ZN16FixedBlockReader15readFromStorageEPhi",
   "parameters" :
   [
    {
     "is_this_ptr" : true,
     "referenced_type" : "type-143"
    },
    {
     "referenced_type" : "type-14"
    },
    {
     "referenced_type" : "type-4"
    }
   ],
   "return_type" : "type-4",
   "source_file" : "/frameworks/av/media/libaaudio/src/utility/FixedBlockReader.h"
  },
  {
   "function_name" : "FixedBlockReader::processVariableBlock",
   "linker_set_key" : "_ZN16FixedBlockReader20processVariableBlockEPhi",
   "parameters" :
   [
    {
     "is_this_ptr" : true,
     "referenced_type" : "type-143"
    },
    {
     "referenced_type" : "type-14"
    },
    {
     "referenced_type" : "type-4"
    }
   ],
   "return_type" : "type-4",
   "source_file" : "/frameworks/av/media/libaaudio/src/utility/FixedBlockReader.h"
  },
  {
   "function_name" : "FixedBlockReader::open",
   "linker_set_key" : "_ZN16FixedBlockReader4openEi",
   "parameters" :
   [
    {
     "is_this_ptr" : true,
     "referenced_type" : "type-143"
    },
    {
     "referenced_type" : "type-4"
    }
   ],
   "return_type" : "type-4",
   "source_file" : "/frameworks/av/media/libaaudio/src/utility/FixedBlockReader.h"
  },
  {
   "function_name" : "FixedBlockReader::FixedBlockReader",
   "linker_set_key" : "_ZN16FixedBlockReaderC1ER19FixedBlockProcessor",
   "parameters" :
   [
    {
     "is_this_ptr" : true,
     "referenced_type" : "type-143"
    },
    {
     "referenced_type" : "type-122"
    }
   ],
   "return_type" : "type-54",
   "source_file" : "/frameworks/av/media/libaaudio/src/utility/FixedBlockReader.h"
  },
  {
   "function_name" : "FixedBlockReader::FixedBlockReader",
   "linker_set_key" : "_ZN16FixedBlockReaderC2ER19FixedBlockProcessor",
   "parameters" :
   [
    {
     "is_this_ptr" : true,
     "referenced_type" : "type-143"
    },
    {
     "referenced_type" : "type-122"
    }
   ],
   "return_type" : "type-54",
   "source_file" : "/frameworks/av/media/libaaudio/src/utility/FixedBlockReader.h"
  },
  {
   "function_name" : "FixedBlockWriter::writeToStorage",
   "linker_set_key" : "_ZN16FixedBlockWriter14writeToStorageEPhi",
   "parameters" :
   [
    {
     "is_this_ptr" : true,
     "referenced_type" : "type-133"
    },
    {
     "referenced_type" : "type-14"
    },
    {
     "referenced_type" : "type-4"
    }
   ],
   "return_type" : "type-4",
   "source_file" : "/frameworks/av/media/libaaudio/src/utility/FixedBlockWriter.h"
  },
  {
   "function_name" : "FixedBlockWriter::processVariableBlock",
   "linker_set_key" : "_ZN16FixedBlockWriter20processVariableBlockEPhi",
   "parameters" :
   [
    {
     "is_this_ptr" : true,
     "referenced_type" : "type-133"
    },
    {
     "referenced_type" : "type-14"
    },
    {
     "referenced_type" : "type-4"
    }
   ],
   "return_type" : "type-4",
   "source_file" : "/frameworks/av/media/libaaudio/src/utility/FixedBlockWriter.h"
  },
  {
   "function_name" : "FixedBlockWriter::FixedBlockWriter",
   "linker_set_key" : "_ZN16FixedBlockWriterC1ER19FixedBlockProcessor",
   "parameters" :
   [
    {
     "is_this_ptr" : true,
     "referenced_type" : "type-133"
    },
    {
     "referenced_type" : "type-122"
    }
   ],
   "return_type" : "type-54",
   "source_file" : "/frameworks/av/media/libaaudio/src/utility/FixedBlockWriter.h"
  },
  {
   "function_name" : "FixedBlockWriter::FixedBlockWriter",
   "linker_set_key" : "_ZN16FixedBlockWriterC2ER19FixedBlockProcessor",
   "parameters" :
   [
    {
     "is_this_ptr" : true,
     "referenced_type" : "type-133"
    },
    {
     "referenced_type" : "type-122"
    }
   ],
   "return_type" : "type-54",
   "source_file" : "/frameworks/av/media/libaaudio/src/utility/FixedBlockWriter.h"
  },
  {
   "function_name" : "FixedBlockAdapter::open",
   "linker_set_key" : "_ZN17FixedBlockAdapter4openEi",
   "parameters" :
   [
    {
     "is_this_ptr" : true,
     "referenced_type" : "type-123"
    },
    {
     "referenced_type" : "type-4"
    }
   ],
   "return_type" : "type-4",
   "source_file" : "/frameworks/av/media/libaaudio/src/utility/FixedBlockAdapter.h"
  },
  {
   "function_name" : "FixedBlockAdapter::close",
   "linker_set_key" : "_ZN17FixedBlockAdapter5closeEv",
   "parameters" :
   [
    {
     "is_this_ptr" : true,
     "referenced_type" : "type-123"
    }
   ],
   "return_type" : "type-4",
   "source_file" : "/frameworks/av/media/libaaudio/src/utility/FixedBlockAdapter.h"
  },
  {
   "function_name" : "FixedBlockAdapter::~FixedBlockAdapter",
   "linker_set_key" : "_ZN17FixedBlockAdapterD0Ev",
   "parameters" :
   [
    {
     "is_this_ptr" : true,
     "referenced_type" : "type-123"
    }
   ],
   "return_type" : "type-54",
   "source_file" : "/frameworks/av/media/libaaudio/src/utility/FixedBlockAdapter.h"
  },
  {
   "function_name" : "FixedBlockAdapter::~FixedBlockAdapter",
   "linker_set_key" : "_ZN17FixedBlockAdapterD1Ev",
   "parameters" :
   [
    {
     "is_this_ptr" : true,
     "referenced_type" : "type-123"
    }
   ],
   "return_type" : "type-54",
   "source_file" : "/frameworks/av/media/libaaudio/src/utility/FixedBlockAdapter.h"
  },
  {
   "function_name" : "FixedBlockAdapter::~FixedBlockAdapter",
   "linker_set_key" : "_ZN17FixedBlockAdapterD2Ev",
   "parameters" :
   [
    {
     "is_this_ptr" : true,
     "referenced_type" : "type-123"
    }
   ],
   "return_type" : "type-54",
   "source_file" : "/frameworks/av/media/libaaudio/src/utility/FixedBlockAdapter.h"
  },
  {
   "function_name" : "aaudio::AudioStream::joinThread",
   "linker_set_key" : "_ZN6aaudio11AudioStream10joinThreadEPPvx",
   "parameters" :
   [
    {
     "is_this_ptr" : true,
     "referenced_type" : "type-117"
    },
    {
     "referenced_type" : "type-258"
    },
    {
     "referenced_type" : "type-8"
    }
   ],
   "return_type" : "type-4",
   "source_file" : "/frameworks/av/media/libaaudio/src/core/AudioStream.h"
  },
  {
   "function_name" : "aaudio::AudioStream::systemPause",
   "linker_set_key" : "_ZN6aaudio11AudioStream11systemPauseEv",
   "parameters" :
   [
    {
     "is_this_ptr" : true,
     "referenced_type" : "type-117"
    }
   ],
   "return_type" : "type-4",
   "source_file" : "/frameworks/av/media/libaaudio/src/core/AudioStream.h"
  },
  {
   "function_name" : "aaudio::AudioStream::systemStart",
   "linker_set_key" : "_ZN6aaudio11AudioStream11systemStartEv",
   "parameters" :
   [
    {
     "is_this_ptr" : true,
     "referenced_type" : "type-117"
    }
   ],
   "return_type" : "type-4",
   "source_file" : "/frameworks/av/media/libaaudio/src/core/AudioStream.h"
  },
  {
   "function_name" : "aaudio::AudioStream::MyPlayerBase::registerWithAudioManager",
   "linker_set_key" : "_ZN6aaudio11AudioStream12MyPlayerBase24registerWithAudioManagerEv",
   "parameters" :
   [
    {
     "is_this_ptr" : true,
     "referenced_type" : "type-270"
    }
   ],
   "return_type" : "type-54",
   "source_file" : "/frameworks/av/media/libaaudio/src/core/AudioStream.h"
  },
  {
   "function_name" : "aaudio::AudioStream::MyPlayerBase::unregisterWithAudioManager",
   "linker_set_key" : "_ZN6aaudio11AudioStream12MyPlayerBase26unregisterWithAudioManagerEv",
   "parameters" :
   [
    {
     "is_this_ptr" : true,
     "referenced_type" : "type-270"
    }
   ],
   "return_type" : "type-54",
   "source_file" : "/frameworks/av/media/libaaudio/src/core/AudioStream.h"
  },
  {
   "function_name" : "aaudio::AudioStream::MyPlayerBase::destroy",
   "linker_set_key" : "_ZN6aaudio11AudioStream12MyPlayerBase7destroyEv",
   "parameters" :
   [
    {
     "is_this_ptr" : true,
     "referenced_type" : "type-270"
    }
   ],
   "return_type" : "type-54",
   "source_file" : "/frameworks/av/media/libaaudio/src/core/AudioStream.h"
  },
  {
   "function_name" : "aaudio::AudioStream::MyPlayerBase::MyPlayerBase",
   "linker_set_key" : "_ZN6aaudio11AudioStream12MyPlayerBaseC1EPS0_",
   "parameters" :
   [
    {
     "is_this_ptr" : true,
     "referenced_type" : "type-270"
    },
    {
     "referenced_type" : "type-117"
    }
   ],
   "return_type" : "type-54",
   "source_file" : "/frameworks/av/media/libaaudio/src/core/AudioStream.h"
  },
  {
   "function_name" : "aaudio::AudioStream::MyPlayerBase::MyPlayerBase",
   "linker_set_key" : "_ZN6aaudio11AudioStream12MyPlayerBaseC2EPS0_",
   "parameters" :
   [
    {
     "is_this_ptr" : true,
     "referenced_type" : "type-270"
    },
    {
     "referenced_type" : "type-117"
    }
   ],
   "return_type" : "type-54",
   "source_file" : "/frameworks/av/media/libaaudio/src/core/AudioStream.h"
  },
  {
   "function_name" : "aaudio::AudioStream::MyPlayerBase::~MyPlayerBase",
   "linker_set_key" : "_ZN6aaudio11AudioStream12MyPlayerBaseD0Ev",
   "parameters" :
   [
    {
     "is_this_ptr" : true,
     "referenced_type" : "type-270"
    }
   ],
   "return_type" : "type-54",
   "source_file" : "/frameworks/av/media/libaaudio/src/core/AudioStream.h"
  },
  {
   "function_name" : "aaudio::AudioStream::MyPlayerBase::~MyPlayerBase",
   "linker_set_key" : "_ZN6aaudio11AudioStream12MyPlayerBaseD1Ev",
   "parameters" :
   [
    {
     "is_this_ptr" : true,
     "referenced_type" : "type-270"
    }
   ],
   "return_type" : "type-54",
   "source_file" : "/frameworks/av/media/libaaudio/src/core/AudioStream.h"
  },
  {
   "function_name" : "aaudio::AudioStream::MyPlayerBase::~MyPlayerBase",
   "linker_set_key" : "_ZN6aaudio11AudioStream12MyPlayerBaseD2Ev",
   "parameters" :
   [
    {
     "is_this_ptr" : true,
     "referenced_type" : "type-270"
    }
   ],
   "return_type" : "type-54",
   "source_file" : "/frameworks/av/media/libaaudio/src/core/AudioStream.h"
  },
  {
   "function_name" : "aaudio::AudioStream::createThread",
   "linker_set_key" : "_ZN6aaudio11AudioStream12createThreadExPFPvS1_ES1_",
   "parameters" :
   [
    {
     "is_this_ptr" : true,
     "referenced_type" : "type-117"
    },
    {
     "referenced_type" : "type-8"
    },
    {
     "referenced_type" : "type-61"
    },
    {
     "referenced_type" : "type-53"
    }
   ],
   "return_type" : "type-4",
   "source_file" : "/frameworks/av/media/libaaudio/src/core/AudioStream.h"
  },
  {
   "function_name" : "aaudio::AudioStream::wrapUserThread",
   "linker_set_key" : "_ZN6aaudio11AudioStream14wrapUserThreadEv",
   "parameters" :
   [
    {
     "is_this_ptr" : true,
     "referenced_type" : "type-117"
    }
   ],
   "return_type" : "type-53",
   "source_file" : "/frameworks/av/media/libaaudio/src/core/AudioStream.h"
  },
  {
   "function_name" : "aaudio::AudioStream::systemStopFromApp",
   "linker_set_key" : "_ZN6aaudio11AudioStream17systemStopFromAppEv",
   "parameters" :
   [
    {
     "is_this_ptr" : true,
     "referenced_type" : "type-117"
    }
   ],
   "return_type" : "type-4",
   "source_file" : "/frameworks/av/media/libaaudio/src/core/AudioStream.h"
  },
  {
   "function_name" : "aaudio::AudioStream::waitForStateChange",
   "linker_set_key" : "_ZN6aaudio11AudioStream18waitForStateChangeEiPix",
   "parameters" :
   [
    {
     "is_this_ptr" : true,
     "referenced_type" : "type-117"
    },
    {
     "referenced_type" : "type-4"
    },
    {
     "referenced_type" : "type-246"
    },
    {
     "referenced_type" : "type-8"
    }
   ],
   "return_type" : "type-4",
   "source_file" : "/frameworks/av/media/libaaudio/src/core/AudioStream.h"
  },
  {
   "function_name" : "aaudio::AudioStream::setDuckAndMuteVolume",
   "linker_set_key" : "_ZN6aaudio11AudioStream20setDuckAndMuteVolumeEf",
   "parameters" :
   [
    {
     "is_this_ptr" : true,
     "referenced_type" : "type-117"
    },
    {
     "referenced_type" : "type-27"
    }
   ],
   "return_type" : "type-54",
   "source_file" : "/frameworks/av/media/libaaudio/src/core/AudioStream.h"
  },
  {
   "function_name" : "aaudio::AudioStream::maybeCallDataCallback",
   "linker_set_key" : "_ZN6aaudio11AudioStream21maybeCallDataCallbackEPvi",
   "parameters" :
   [
    {
     "is_this_ptr" : true,
     "referenced_type" : "type-117"
    },
    {
     "referenced_type" : "type-53"
    },
    {
     "referenced_type" : "type-4"
    }
   ],
   "return_type" : "type-4",
   "source_file" : "/frameworks/av/media/libaaudio/src/core/AudioStream.h"
  },
  {
   "function_name" : "aaudio::AudioStream::maybeCallErrorCallback",
   "linker_set_key" : "_ZN6aaudio11AudioStream22maybeCallErrorCallbackEi",
   "parameters" :
   [
    {
     "is_this_ptr" : true,
     "referenced_type" : "type-117"
    },
    {
     "referenced_type" : "type-4"
    }
   ],
   "return_type" : "type-54",
   "source_file" : "/frameworks/av/media/libaaudio/src/core/AudioStream.h"
  },
  {
   "function_name" : "aaudio::AudioStream::systemStopFromCallback",
   "linker_set_key" : "_ZN6aaudio11AudioStream22systemStopFromCallbackEv",
   "parameters" :
   [
    {
     "is_this_ptr" : true,
     "referenced_type" : "type-117"
    }
   ],
   "return_type" : "type-4",
   "source_file" : "/frameworks/av/media/libaaudio/src/core/AudioStream.h"
  },
  {
   "function_name" : "aaudio::AudioStream::open",
   "linker_set_key" : "_ZN6aaudio11AudioStream4openERKNS_18AudioStreamBuilderE",
   "parameters" :
   [
    {
     "is_this_ptr" : true,
     "referenced_type" : "type-117"
    },
    {
     "referenced_type" : "type-253"
    }
   ],
   "return_type" : "type-4",
   "source_file" : "/frameworks/av/media/libaaudio/src/core/AudioStream.h"
  },
  {
   "access" : "private",
   "function_name" : "aaudio::AudioStream::safeStop",
   "linker_set_key" : "_ZN6aaudio11AudioStream8safeStopEv",
   "parameters" :
   [
    {
     "is_this_ptr" : true,
     "referenced_type" : "type-117"
    }
   ],
   "return_type" : "type-4",
   "source_file" : "/frameworks/av/media/libaaudio/src/core/AudioStream.h"
  },
  {
   "access" : "protected",
   "function_name" : "aaudio::AudioStream::setState",
   "linker_set_key" : "_ZN6aaudio11AudioStream8setStateEi",
   "parameters" :
   [
    {
     "is_this_ptr" : true,
     "referenced_type" : "type-117"
    },
    {
     "referenced_type" : "type-4"
    }
   ],
   "return_type" : "type-54",
   "source_file" : "/frameworks/av/media/libaaudio/src/core/AudioStream.h"
  },
  {
   "function_name" : "aaudio::AudioStream::safeClose",
   "linker_set_key" : "_ZN6aaudio11AudioStream9safeCloseEv",
   "parameters" :
   [
    {
     "is_this_ptr" : true,
     "referenced_type" : "type-117"
    }
   ],
   "return_type" : "type-4",
   "source_file" : "/frameworks/av/media/libaaudio/src/core/AudioStream.h"
  },
  {
   "function_name" : "aaudio::AudioStream::safeFlush",
   "linker_set_key" : "_ZN6aaudio11AudioStream9safeFlushEv",
   "parameters" :
   [
    {
     "is_this_ptr" : true,
     "referenced_type" : "type-117"
    }
   ],
   "return_type" : "type-4",
   "source_file" : "/frameworks/av/media/libaaudio/src/core/AudioStream.h"
  },
  {
   "function_name" : "aaudio::AudioStream::AudioStream",
   "linker_set_key" : "_ZN6aaudio11AudioStreamC2Ev",
   "parameters" :
   [
    {
     "is_this_ptr" : true,
     "referenced_type" : "type-117"
    }
   ],
   "return_type" : "type-54",
   "source_file" : "/frameworks/av/media/libaaudio/src/core/AudioStream.h"
  },
  {
   "function_name" : "aaudio::AudioStream::~AudioStream",
   "linker_set_key" : "_ZN6aaudio11AudioStreamD0Ev",
   "parameters" :
   [
    {
     "is_this_ptr" : true,
     "referenced_type" : "type-117"
    }
   ],
   "return_type" : "type-54",
   "source_file" : "/frameworks/av/media/libaaudio/src/core/AudioStream.h"
  },
  {
   "function_name" : "aaudio::AudioStream::~AudioStream",
   "linker_set_key" : "_ZN6aaudio11AudioStreamD1Ev",
   "parameters" :
   [
    {
     "is_this_ptr" : true,
     "referenced_type" : "type-117"
    }
   ],
   "return_type" : "type-54",
   "source_file" : "/frameworks/av/media/libaaudio/src/core/AudioStream.h"
  },
  {
   "function_name" : "aaudio::AudioStream::~AudioStream",
   "linker_set_key" : "_ZN6aaudio11AudioStreamD2Ev",
   "parameters" :
   [
    {
     "is_this_ptr" : true,
     "referenced_type" : "type-117"
    }
   ],
   "return_type" : "type-54",
   "source_file" : "/frameworks/av/media/libaaudio/src/core/AudioStream.h"
  },
  {
   "function_name" : "aaudio::AudioEndpoint::readUpCommand",
   "linker_set_key" : "_ZN6aaudio13AudioEndpoint13readUpCommandEPNS_22AAudioServiceMessage_sE",
   "parameters" :
   [
    {
     "is_this_ptr" : true,
     "referenced_type" : "type-436"
    },
    {
     "referenced_type" : "type-440"
    }
   ],
   "return_type" : "type-4",
   "source_file" : "/frameworks/av/media/libaaudio/src/client/AudioEndpoint.h"
  },
  {
   "function_name" : "aaudio::AudioEndpoint::eraseDataMemory",
   "linker_set_key" : "_ZN6aaudio13AudioEndpoint15eraseDataMemoryEv",
   "parameters" :
   [
    {
     "is_this_ptr" : true,
     "referenced_type" : "type-436"
    }
   ],
   "return_type" : "type-54",
   "source_file" : "/frameworks/av/media/libaaudio/src/client/AudioEndpoint.h"
  },
  {
   "function_name" : "aaudio::AudioEndpoint::advanceReadIndex",
   "linker_set_key" : "_ZN6aaudio13AudioEndpoint16advanceReadIndexEi",
   "parameters" :
   [
    {
     "is_this_ptr" : true,
     "referenced_type" : "type-436"
    },
    {
     "referenced_type" : "type-4"
    }
   ],
   "return_type" : "type-54",
   "source_file" : "/frameworks/av/media/libaaudio/src/client/AudioEndpoint.h"
  },
  {
   "function_name" : "aaudio::AudioEndpoint::advanceWriteIndex",
   "linker_set_key" : "_ZN6aaudio13AudioEndpoint17advanceWriteIndexEi",
   "parameters" :
   [
    {
     "is_this_ptr" : true,
     "referenced_type" : "type-436"
    },
    {
     "referenced_type" : "type-4"
    }
   ],
   "return_type" : "type-54",
   "source_file" : "/frameworks/av/media/libaaudio/src/client/AudioEndpoint.h"
  },
  {
   "function_name" : "aaudio::AudioEndpoint::getDataReadCounter",
   "linker_set_key" : "_ZN6aaudio13AudioEndpoint18getDataReadCounterEv",
   "parameters" :
   [
    {
     "is_this_ptr" : true,
     "referenced_type" : "type-436"
    }
   ],
   "return_type" : "type-8",
   "source_file" : "/frameworks/av/media/libaaudio/src/client/AudioEndpoint.h"
  },
  {
   "function_name" : "aaudio::AudioEndpoint::setDataReadCounter",
   "linker_set_key" : "_ZN6aaudio13AudioEndpoint18setDataReadCounterEx",
   "parameters" :
   [
    {
     "is_this_ptr" : true,
     "referenced_type" : "type-436"
    },
    {
     "referenced_type" : "type-8"
    }
   ],
   "return_type" : "type-54",
   "source_file" : "/frameworks/av/media/libaaudio/src/client/AudioEndpoint.h"
  },
  {
   "function_name" : "aaudio::AudioEndpoint::getDataWriteCounter",
   "linker_set_key" : "_ZN6aaudio13AudioEndpoint19getDataWriteCounterEv",
   "parameters" :
   [
    {
     "is_this_ptr" : true,
     "referenced_type" : "type-436"
    }
   ],
   "return_type" : "type-8",
   "source_file" : "/frameworks/av/media/libaaudio/src/client/AudioEndpoint.h"
  },
  {
   "function_name" : "aaudio::AudioEndpoint::setDataWriteCounter",
   "linker_set_key" : "_ZN6aaudio13AudioEndpoint19setDataWriteCounterEx",
   "parameters" :
   [
    {
     "is_this_ptr" : true,
     "referenced_type" : "type-436"
    },
    {
     "referenced_type" : "type-8"
    }
   ],
   "return_type" : "type-54",
   "source_file" : "/frameworks/av/media/libaaudio/src/client/AudioEndpoint.h"
  },
  {
   "function_name" : "aaudio::AudioEndpoint::setBufferSizeInFrames",
   "linker_set_key" : "_ZN6aaudio13AudioEndpoint21setBufferSizeInFramesEiPi",
   "parameters" :
   [
    {
     "is_this_ptr" : true,
     "referenced_type" : "type-436"
    },
    {
     "referenced_type" : "type-4"
    },
    {
     "referenced_type" : "type-246"
    }
   ],
   "return_type" : "type-4",
   "source_file" : "/frameworks/av/media/libaaudio/src/client/AudioEndpoint.h"
  },
  {
   "function_name" : "aaudio::AudioEndpoint::getFullFramesAvailable",
   "linker_set_key" : "_ZN6aaudio13AudioEndpoint22getFullFramesAvailableEPN7android14WrappingBufferE",
   "parameters" :
   [
    {
     "is_this_ptr" : true,
     "referenced_type" : "type-436"
    },
    {
     "referenced_type" : "type-254"
    }
   ],
   "return_type" : "type-4",
   "source_file" : "/frameworks/av/media/libaaudio/src/client/AudioEndpoint.h"
  },
  {
   "function_name" : "aaudio::AudioEndpoint::getFullFramesAvailable",
   "linker_set_key" : "_ZN6aaudio13AudioEndpoint22getFullFramesAvailableEv",
   "parameters" :
   [
    {
     "is_this_ptr" : true,
     "referenced_type" : "type-436"
    }
   ],
   "return_type" : "type-4",
   "source_file" : "/frameworks/av/media/libaaudio/src/client/AudioEndpoint.h"
  },
  {
   "function_name" : "aaudio::AudioEndpoint::getEmptyFramesAvailable",
   "linker_set_key" : "_ZN6aaudio13AudioEndpoint23getEmptyFramesAvailableEPN7android14WrappingBufferE",
   "parameters" :
   [
    {
     "is_this_ptr" : true,
     "referenced_type" : "type-436"
    },
    {
     "referenced_type" : "type-254"
    }
   ],
   "return_type" : "type-4",
   "source_file" : "/frameworks/av/media/libaaudio/src/client/AudioEndpoint.h"
  },
  {
   "function_name" : "aaudio::AudioEndpoint::getEmptyFramesAvailable",
   "linker_set_key" : "_ZN6aaudio13AudioEndpoint23getEmptyFramesAvailableEv",
   "parameters" :
   [
    {
     "is_this_ptr" : true,
     "referenced_type" : "type-436"
    }
   ],
   "return_type" : "type-4",
   "source_file" : "/frameworks/av/media/libaaudio/src/client/AudioEndpoint.h"
  },
  {
   "function_name" : "aaudio::AudioEndpoint::configure",
   "linker_set_key" : "_ZN6aaudio13AudioEndpoint9configureEPKNS_20EndpointDescriptor_sEi",
   "parameters" :
   [
    {
     "is_this_ptr" : true,
     "referenced_type" : "type-436"
    },
    {
     "referenced_type" : "type-438"
    },
    {
     "referenced_type" : "type-4"
    }
   ],
   "return_type" : "type-4",
   "source_file" : "/frameworks/av/media/libaaudio/src/client/AudioEndpoint.h"
  },
  {
   "function_name" : "aaudio::AudioEndpoint::AudioEndpoint",
   "linker_set_key" : "_ZN6aaudio13AudioEndpointC1Ev",
   "parameters" :
   [
    {
     "is_this_ptr" : true,
     "referenced_type" : "type-436"
    }
   ],
   "return_type" : "type-54",
   "source_file" : "/frameworks/av/media/libaaudio/src/client/AudioEndpoint.h"
  },
  {
   "function_name" : "aaudio::AudioEndpoint::AudioEndpoint",
   "linker_set_key" : "_ZN6aaudio13AudioEndpointC2Ev",
   "parameters" :
   [
    {
     "is_this_ptr" : true,
     "referenced_type" : "type-436"
    }
   ],
   "return_type" : "type-54",
   "source_file" : "/frameworks/av/media/libaaudio/src/client/AudioEndpoint.h"
  },
  {
   "function_name" : "aaudio::AudioEndpoint::~AudioEndpoint",
   "linker_set_key" : "_ZN6aaudio13AudioEndpointD0Ev",
   "parameters" :
   [
    {
     "is_this_ptr" : true,
     "referenced_type" : "type-436"
    }
   ],
   "return_type" : "type-54",
   "source_file" : "/frameworks/av/media/libaaudio/src/client/AudioEndpoint.h"
  },
  {
   "function_name" : "aaudio::AudioEndpoint::~AudioEndpoint",
   "linker_set_key" : "_ZN6aaudio13AudioEndpointD1Ev",
   "parameters" :
   [
    {
     "is_this_ptr" : true,
     "referenced_type" : "type-436"
    }
   ],
   "return_type" : "type-54",
   "source_file" : "/frameworks/av/media/libaaudio/src/client/AudioEndpoint.h"
  },
  {
   "function_name" : "aaudio::AudioEndpoint::~AudioEndpoint",
   "linker_set_key" : "_ZN6aaudio13AudioEndpointD2Ev",
   "parameters" :
   [
    {
     "is_this_ptr" : true,
     "referenced_type" : "type-436"
    }
   ],
   "return_type" : "type-54",
   "source_file" : "/frameworks/av/media/libaaudio/src/client/AudioEndpoint.h"
  },
  {
   "function_name" : "aaudio::AudioStreamTrack::doSetVolume",
   "linker_set_key" : "_ZN6aaudio16AudioStreamTrack11doSetVolumeEv",
   "parameters" :
   [
    {
     "is_this_ptr" : true,
     "referenced_type" : "type-148"
    }
   ],
   "return_type" : "type-4",
   "source_file" : "/frameworks/av/media/libaaudio/src/legacy/AudioStreamTrack.h"
  },
  {
   "function_name" : "aaudio::AudioStreamTrack::requestStop",
   "linker_set_key" : "_ZN6aaudio16AudioStreamTrack11requestStopEv",
   "parameters" :
   [
    {
     "is_this_ptr" : true,
     "referenced_type" : "type-148"
    }
   ],
   "return_type" : "type-4",
   "source_file" : "/frameworks/av/media/libaaudio/src/legacy/AudioStreamTrack.h"
  },
  {
   "function_name" : "aaudio::AudioStreamTrack::getTimestamp",
   "linker_set_key" : "_ZN6aaudio16AudioStreamTrack12getTimestampEiPxS1_",
   "parameters" :
   [
    {
     "is_this_ptr" : true,
     "referenced_type" : "type-148"
    },
    {
     "referenced_type" : "type-4"
    },
    {
     "referenced_type" : "type-41"
    },
    {
     "referenced_type" : "type-41"
    }
   ],
   "return_type" : "type-4",
   "source_file" : "/frameworks/av/media/libaaudio/src/legacy/AudioStreamTrack.h"
  },
  {
   "function_name" : "aaudio::AudioStreamTrack::requestFlush",
   "linker_set_key" : "_ZN6aaudio16AudioStreamTrack12requestFlushEv",
   "parameters" :
   [
    {
     "is_this_ptr" : true,
     "referenced_type" : "type-148"
    }
   ],
   "return_type" : "type-4",
   "source_file" : "/frameworks/av/media/libaaudio/src/legacy/AudioStreamTrack.h"
  },
  {
   "function_name" : "aaudio::AudioStreamTrack::requestPause",
   "linker_set_key" : "_ZN6aaudio16AudioStreamTrack12requestPauseEv",
   "parameters" :
   [
    {
     "is_this_ptr" : true,
     "referenced_type" : "type-148"
    }
   ],
   "return_type" : "type-4",
   "source_file" : "/frameworks/av/media/libaaudio/src/legacy/AudioStreamTrack.h"
  },
  {
   "function_name" : "aaudio::AudioStreamTrack::requestStart",
   "linker_set_key" : "_ZN6aaudio16AudioStreamTrack12requestStartEv",
   "parameters" :
   [
    {
     "is_this_ptr" : true,
     "referenced_type" : "type-148"
    }
   ],
   "return_type" : "type-4",
   "source_file" : "/frameworks/av/media/libaaudio/src/legacy/AudioStreamTrack.h"
  },
  {
   "function_name" : "aaudio::AudioStreamTrack::getFramesRead",
   "linker_set_key" : "_ZN6aaudio16AudioStreamTrack13getFramesReadEv",
   "parameters" :
   [
    {
     "is_this_ptr" : true,
     "referenced_type" : "type-148"
    }
   ],
   "return_type" : "type-8",
   "source_file" : "/frameworks/av/media/libaaudio/src/legacy/AudioStreamTrack.h"
  },
  {
   "function_name" : "aaudio::AudioStreamTrack::setBufferSize",
   "linker_set_key" : "_ZN6aaudio16AudioStreamTrack13setBufferSizeEi",
   "parameters" :
   [
    {
     "is_this_ptr" : true,
     "referenced_type" : "type-148"
    },
    {
     "referenced_type" : "type-4"
    }
   ],
   "return_type" : "type-4",
   "source_file" : "/frameworks/av/media/libaaudio/src/legacy/AudioStreamTrack.h"
  },
  {
   "function_name" : "aaudio::AudioStreamTrack::processCallback",
   "linker_set_key" : "_ZN6aaudio16AudioStreamTrack15processCallbackEiPv",
   "parameters" :
   [
    {
     "is_this_ptr" : true,
     "referenced_type" : "type-148"
    },
    {
     "referenced_type" : "type-4"
    },
    {
     "referenced_type" : "type-53"
    }
   ],
   "return_type" : "type-54",
   "source_file" : "/frameworks/av/media/libaaudio/src/legacy/AudioStreamTrack.h"
  },
  {
   "function_name" : "aaudio::AudioStreamTrack::updateStateMachine",
   "linker_set_key" : "_ZN6aaudio16AudioStreamTrack18updateStateMachineEv",
   "parameters" :
   [
    {
     "is_this_ptr" : true,
     "referenced_type" : "type-148"
    }
   ],
   "return_type" : "type-4",
   "source_file" : "/frameworks/av/media/libaaudio/src/legacy/AudioStreamTrack.h"
  },
  {
   "function_name" : "aaudio::AudioStreamTrack::open",
   "linker_set_key" : "_ZN6aaudio16AudioStreamTrack4openERKNS_18AudioStreamBuilderE",
   "parameters" :
   [
    {
     "is_this_ptr" : true,
     "referenced_type" : "type-148"
    },
    {
     "referenced_type" : "type-253"
    }
   ],
   "return_type" : "type-4",
   "source_file" : "/frameworks/av/media/libaaudio/src/legacy/AudioStreamTrack.h"
  },
  {
   "function_name" : "aaudio::AudioStreamTrack::close",
   "linker_set_key" : "_ZN6aaudio16AudioStreamTrack5closeEv",
   "parameters" :
   [
    {
     "is_this_ptr" : true,
     "referenced_type" : "type-148"
    }
   ],
   "return_type" : "type-4",
   "source_file" : "/frameworks/av/media/libaaudio/src/legacy/AudioStreamTrack.h"
  },
  {
   "function_name" : "aaudio::AudioStreamTrack::write",
   "linker_set_key" : "_ZN6aaudio16AudioStreamTrack5writeEPKvix",
   "parameters" :
   [
    {
     "is_this_ptr" : true,
     "referenced_type" : "type-148"
    },
    {
     "referenced_type" : "type-90"
    },
    {
     "referenced_type" : "type-4"
    },
    {
     "referenced_type" : "type-8"
    }
   ],
   "return_type" : "type-4",
   "source_file" : "/frameworks/av/media/libaaudio/src/legacy/AudioStreamTrack.h"
  },
  {
   "function_name" : "aaudio::AudioStreamTrack::AudioStreamTrack",
   "linker_set_key" : "_ZN6aaudio16AudioStreamTrackC1Ev",
   "parameters" :
   [
    {
     "is_this_ptr" : true,
     "referenced_type" : "type-148"
    }
   ],
   "return_type" : "type-54",
   "source_file" : "/frameworks/av/media/libaaudio/src/legacy/AudioStreamTrack.h"
  },
  {
   "function_name" : "aaudio::AudioStreamTrack::AudioStreamTrack",
   "linker_set_key" : "_ZN6aaudio16AudioStreamTrackC2Ev",
   "parameters" :
   [
    {
     "is_this_ptr" : true,
     "referenced_type" : "type-148"
    }
   ],
   "return_type" : "type-54",
   "source_file" : "/frameworks/av/media/libaaudio/src/legacy/AudioStreamTrack.h"
  },
  {
   "function_name" : "aaudio::AudioStreamTrack::~AudioStreamTrack",
   "linker_set_key" : "_ZN6aaudio16AudioStreamTrackD0Ev",
   "parameters" :
   [
    {
     "is_this_ptr" : true,
     "referenced_type" : "type-148"
    }
   ],
   "return_type" : "type-54",
   "source_file" : "/frameworks/av/media/libaaudio/src/legacy/AudioStreamTrack.h"
  },
  {
   "function_name" : "aaudio::AudioStreamTrack::~AudioStreamTrack",
   "linker_set_key" : "_ZN6aaudio16AudioStreamTrackD1Ev",
   "parameters" :
   [
    {
     "is_this_ptr" : true,
     "referenced_type" : "type-148"
    }
   ],
   "return_type" : "type-54",
   "source_file" : "/frameworks/av/media/libaaudio/src/legacy/AudioStreamTrack.h"
  },
  {
   "function_name" : "aaudio::AudioStreamTrack::~AudioStreamTrack",
   "linker_set_key" : "_ZN6aaudio16AudioStreamTrackD2Ev",
   "parameters" :
   [
    {
     "is_this_ptr" : true,
     "referenced_type" : "type-148"
    }
   ],
   "return_type" : "type-54",
   "source_file" : "/frameworks/av/media/libaaudio/src/legacy/AudioStreamTrack.h"
  },
  {
   "access" : "protected",
   "function_name" : "aaudio::AudioStreamLegacy::forceDisconnect",
   "linker_set_key" : "_ZN6aaudio17AudioStreamLegacy15forceDisconnectEb",
   "parameters" :
   [
    {
     "is_this_ptr" : true,
     "referenced_type" : "type-127"
    },
    {
     "default_arg" : true,
     "referenced_type" : "type-16"
    }
   ],
   "return_type" : "type-54",
   "source_file" : "/frameworks/av/media/libaaudio/src/legacy/AudioStreamLegacy.h"
  },
  {
   "access" : "protected",
   "function_name" : "aaudio::AudioStreamLegacy::getBestTimestamp",
   "linker_set_key" : "_ZN6aaudio17AudioStreamLegacy16getBestTimestampEiPxS1_PN7android17ExtendedTimestampE",
   "parameters" :
   [
    {
     "is_this_ptr" : true,
     "referenced_type" : "type-127"
    },
    {
     "referenced_type" : "type-4"
    },
    {
     "referenced_type" : "type-41"
    },
    {
     "referenced_type" : "type-41"
    },
    {
     "referenced_type" : "type-230"
    }
   ],
   "return_type" : "type-4",
   "source_file" : "/frameworks/av/media/libaaudio/src/legacy/AudioStreamLegacy.h"
  },
  {
   "function_name" : "aaudio::AudioStreamLegacy::getLegacyCallback",
   "linker_set_key" : "_ZN6aaudio17AudioStreamLegacy17getLegacyCallbackEv",
   "parameters" :
   [
    {
     "is_this_ptr" : true,
     "referenced_type" : "type-127"
    }
   ],
   "return_type" : "type-228",
   "source_file" : "/frameworks/av/media/libaaudio/src/legacy/AudioStreamLegacy.h"
  },
  {
   "access" : "protected",
   "function_name" : "aaudio::AudioStreamLegacy::onAudioDeviceUpdate",
   "linker_set_key" : "_ZN6aaudio17AudioStreamLegacy19onAudioDeviceUpdateEi",
   "parameters" :
   [
    {
     "is_this_ptr" : true,
     "referenced_type" : "type-127"
    },
    {
     "referenced_type" : "type-4"
    }
   ],
   "return_type" : "type-54",
   "source_file" : "/frameworks/av/media/libaaudio/src/legacy/AudioStreamLegacy.h"
  },
  {
   "function_name" : "aaudio::AudioStreamLegacy::onProcessFixedBlock",
   "linker_set_key" : "_ZN6aaudio17AudioStreamLegacy19onProcessFixedBlockEPhi",
   "parameters" :
   [
    {
     "is_this_ptr" : true,
     "referenced_type" : "type-127"
    },
    {
     "referenced_type" : "type-14"
    },
    {
     "referenced_type" : "type-4"
    }
   ],
   "return_type" : "type-4",
   "source_file" : "/frameworks/av/media/libaaudio/src/legacy/AudioStreamLegacy.h"
  },
  {
   "function_name" : "aaudio::AudioStreamLegacy::processCallbackCommon",
   "linker_set_key" : "_ZN6aaudio17AudioStreamLegacy21processCallbackCommonEiPv",
   "parameters" :
   [
    {
     "is_this_ptr" : true,
     "referenced_type" : "type-127"
    },
    {
     "referenced_type" : "type-4"
    },
    {
     "referenced_type" : "type-53"
    }
   ],
   "return_type" : "type-54",
   "source_file" : "/frameworks/av/media/libaaudio/src/legacy/AudioStreamLegacy.h"
  },
  {
   "function_name" : "aaudio::AudioStreamLegacy::callDataCallbackFrames",
   "linker_set_key" : "_ZN6aaudio17AudioStreamLegacy22callDataCallbackFramesEPhi",
   "parameters" :
   [
    {
     "is_this_ptr" : true,
     "referenced_type" : "type-127"
    },
    {
     "referenced_type" : "type-14"
    },
    {
     "referenced_type" : "type-4"
    }
   ],
   "return_type" : "type-4",
   "source_file" : "/frameworks/av/media/libaaudio/src/legacy/AudioStreamLegacy.h"
  },
  {
   "access" : "protected",
   "function_name" : "aaudio::AudioStreamLegacy::checkForDisconnectRequest",
   "linker_set_key" : "_ZN6aaudio17AudioStreamLegacy25checkForDisconnectRequestEb",
   "parameters" :
   [
    {
     "is_this_ptr" : true,
     "referenced_type" : "type-127"
    },
    {
     "referenced_type" : "type-16"
    }
   ],
   "return_type" : "type-4",
   "source_file" : "/frameworks/av/media/libaaudio/src/legacy/AudioStreamLegacy.h"
  },
  {
   "function_name" : "aaudio::AudioStreamLegacy::AudioStreamLegacy",
   "linker_set_key" : "_ZN6aaudio17AudioStreamLegacyC2Ev",
   "parameters" :
   [
    {
     "is_this_ptr" : true,
     "referenced_type" : "type-127"
    }
   ],
   "return_type" : "type-54",
   "source_file" : "/frameworks/av/media/libaaudio/src/legacy/AudioStreamLegacy.h"
  },
  {
   "function_name" : "aaudio::AudioStreamLegacy::~AudioStreamLegacy",
   "linker_set_key" : "_ZN6aaudio17AudioStreamLegacyD0Ev",
   "parameters" :
   [
    {
     "is_this_ptr" : true,
     "referenced_type" : "type-127"
    }
   ],
   "return_type" : "type-54",
   "source_file" : "/frameworks/av/media/libaaudio/src/legacy/AudioStreamLegacy.h"
  },
  {
   "function_name" : "aaudio::AudioStreamLegacy::~AudioStreamLegacy",
   "linker_set_key" : "_ZN6aaudio17AudioStreamLegacyD1Ev",
   "parameters" :
   [
    {
     "is_this_ptr" : true,
     "referenced_type" : "type-127"
    }
   ],
   "return_type" : "type-54",
   "source_file" : "/frameworks/av/media/libaaudio/src/legacy/AudioStreamLegacy.h"
  },
  {
   "function_name" : "aaudio::AudioStreamLegacy::~AudioStreamLegacy",
   "linker_set_key" : "_ZN6aaudio17AudioStreamLegacyD2Ev",
   "parameters" :
   [
    {
     "is_this_ptr" : true,
     "referenced_type" : "type-127"
    }
   ],
   "return_type" : "type-54",
   "source_file" : "/frameworks/av/media/libaaudio/src/legacy/AudioStreamLegacy.h"
  },
  {
   "function_name" : "aaudio::AudioStreamRecord::requestStop",
   "linker_set_key" : "_ZN6aaudio17AudioStreamRecord11requestStopEv",
   "parameters" :
   [
    {
     "is_this_ptr" : true,
     "referenced_type" : "type-141"
    }
   ],
   "return_type" : "type-4",
   "source_file" : "/frameworks/av/media/libaaudio/src/legacy/AudioStreamRecord.h"
  },
  {
   "function_name" : "aaudio::AudioStreamRecord::getTimestamp",
   "linker_set_key" : "_ZN6aaudio17AudioStreamRecord12getTimestampEiPxS1_",
   "parameters" :
   [
    {
     "is_this_ptr" : true,
     "referenced_type" : "type-141"
    },
    {
     "referenced_type" : "type-4"
    },
    {
     "referenced_type" : "type-41"
    },
    {
     "referenced_type" : "type-41"
    }
   ],
   "return_type" : "type-4",
   "source_file" : "/frameworks/av/media/libaaudio/src/legacy/AudioStreamRecord.h"
  },
  {
   "function_name" : "aaudio::AudioStreamRecord::requestStart",
   "linker_set_key" : "_ZN6aaudio17AudioStreamRecord12requestStartEv",
   "parameters" :
   [
    {
     "is_this_ptr" : true,
     "referenced_type" : "type-141"
    }
   ],
   "return_type" : "type-4",
   "source_file" : "/frameworks/av/media/libaaudio/src/legacy/AudioStreamRecord.h"
  },
  {
   "function_name" : "aaudio::AudioStreamRecord::setBufferSize",
   "linker_set_key" : "_ZN6aaudio17AudioStreamRecord13setBufferSizeEi",
   "parameters" :
   [
    {
     "is_this_ptr" : true,
     "referenced_type" : "type-141"
    },
    {
     "referenced_type" : "type-4"
    }
   ],
   "return_type" : "type-4",
   "source_file" : "/frameworks/av/media/libaaudio/src/legacy/AudioStreamRecord.h"
  },
  {
   "function_name" : "aaudio::AudioStreamRecord::processCallback",
   "linker_set_key" : "_ZN6aaudio17AudioStreamRecord15processCallbackEiPv",
   "parameters" :
   [
    {
     "is_this_ptr" : true,
     "referenced_type" : "type-141"
    },
    {
     "referenced_type" : "type-4"
    },
    {
     "referenced_type" : "type-53"
    }
   ],
   "return_type" : "type-54",
   "source_file" : "/frameworks/av/media/libaaudio/src/legacy/AudioStreamRecord.h"
  },
  {
   "function_name" : "aaudio::AudioStreamRecord::getFramesWritten",
   "linker_set_key" : "_ZN6aaudio17AudioStreamRecord16getFramesWrittenEv",
   "parameters" :
   [
    {
     "is_this_ptr" : true,
     "referenced_type" : "type-141"
    }
   ],
   "return_type" : "type-8",
   "source_file" : "/frameworks/av/media/libaaudio/src/legacy/AudioStreamRecord.h"
  },
  {
   "function_name" : "aaudio::AudioStreamRecord::updateStateMachine",
   "linker_set_key" : "_ZN6aaudio17AudioStreamRecord18updateStateMachineEv",
   "parameters" :
   [
    {
     "is_this_ptr" : true,
     "referenced_type" : "type-141"
    }
   ],
   "return_type" : "type-4",
   "source_file" : "/frameworks/av/media/libaaudio/src/legacy/AudioStreamRecord.h"
  },
  {
   "function_name" : "aaudio::AudioStreamRecord::maybeConvertDeviceData",
   "linker_set_key" : "_ZN6aaudio17AudioStreamRecord22maybeConvertDeviceDataEPKvi",
   "parameters" :
   [
    {
     "is_this_ptr" : true,
     "referenced_type" : "type-141"
    },
    {
     "referenced_type" : "type-90"
    },
    {
     "referenced_type" : "type-4"
    }
   ],
   "return_type" : "type-90",
   "source_file" : "/frameworks/av/media/libaaudio/src/legacy/AudioStreamRecord.h"
  },
  {
   "function_name" : "aaudio::AudioStreamRecord::open",
   "linker_set_key" : "_ZN6aaudio17AudioStreamRecord4openERKNS_18AudioStreamBuilderE",
   "parameters" :
   [
    {
     "is_this_ptr" : true,
     "referenced_type" : "type-141"
    },
    {
     "referenced_type" : "type-253"
    }
   ],
   "return_type" : "type-4",
   "source_file" : "/frameworks/av/media/libaaudio/src/legacy/AudioStreamRecord.h"
  },
  {
   "function_name" : "aaudio::AudioStreamRecord::read",
   "linker_set_key" : "_ZN6aaudio17AudioStreamRecord4readEPvix",
   "parameters" :
   [
    {
     "is_this_ptr" : true,
     "referenced_type" : "type-141"
    },
    {
     "referenced_type" : "type-53"
    },
    {
     "referenced_type" : "type-4"
    },
    {
     "referenced_type" : "type-8"
    }
   ],
   "return_type" : "type-4",
   "source_file" : "/frameworks/av/media/libaaudio/src/legacy/AudioStreamRecord.h"
  },
  {
   "function_name" : "aaudio::AudioStreamRecord::close",
   "linker_set_key" : "_ZN6aaudio17AudioStreamRecord5closeEv",
   "parameters" :
   [
    {
     "is_this_ptr" : true,
     "referenced_type" : "type-141"
    }
   ],
   "return_type" : "type-4",
   "source_file" : "/frameworks/av/media/libaaudio/src/legacy/AudioStreamRecord.h"
  },
  {
   "function_name" : "aaudio::AudioStreamRecord::AudioStreamRecord",
   "linker_set_key" : "_ZN6aaudio17AudioStreamRecordC1Ev",
   "parameters" :
   [
    {
     "is_this_ptr" : true,
     "referenced_type" : "type-141"
    }
   ],
   "return_type" : "type-54",
   "source_file" : "/frameworks/av/media/libaaudio/src/legacy/AudioStreamRecord.h"
  },
  {
   "function_name" : "aaudio::AudioStreamRecord::AudioStreamRecord",
   "linker_set_key" : "_ZN6aaudio17AudioStreamRecordC2Ev",
   "parameters" :
   [
    {
     "is_this_ptr" : true,
     "referenced_type" : "type-141"
    }
   ],
   "return_type" : "type-54",
   "source_file" : "/frameworks/av/media/libaaudio/src/legacy/AudioStreamRecord.h"
  },
  {
   "function_name" : "aaudio::AudioStreamRecord::~AudioStreamRecord",
   "linker_set_key" : "_ZN6aaudio17AudioStreamRecordD0Ev",
   "parameters" :
   [
    {
     "is_this_ptr" : true,
     "referenced_type" : "type-141"
    }
   ],
   "return_type" : "type-54",
   "source_file" : "/frameworks/av/media/libaaudio/src/legacy/AudioStreamRecord.h"
  },
  {
   "function_name" : "aaudio::AudioStreamRecord::~AudioStreamRecord",
   "linker_set_key" : "_ZN6aaudio17AudioStreamRecordD1Ev",
   "parameters" :
   [
    {
     "is_this_ptr" : true,
     "referenced_type" : "type-141"
    }
   ],
   "return_type" : "type-54",
   "source_file" : "/frameworks/av/media/libaaudio/src/legacy/AudioStreamRecord.h"
  },
  {
   "function_name" : "aaudio::AudioStreamRecord::~AudioStreamRecord",
   "linker_set_key" : "_ZN6aaudio17AudioStreamRecordD2Ev",
   "parameters" :
   [
    {
     "is_this_ptr" : true,
     "referenced_type" : "type-141"
    }
   ],
   "return_type" : "type-54",
   "source_file" : "/frameworks/av/media/libaaudio/src/legacy/AudioStreamRecord.h"
  },
  {
   "function_name" : "aaudio::AAudioBinderClient::openStream",
   "linker_set_key" : "_ZN6aaudio18AAudioBinderClient10openStreamERKNS_19AAudioStreamRequestERNS_25AAudioStreamConfigurationE",
   "parameters" :
   [
    {
     "is_this_ptr" : true,
     "referenced_type" : "type-178"
    },
    {
     "referenced_type" : "type-501"
    },
    {
     "referenced_type" : "type-160"
    }
   ],
   "return_type" : "type-4",
   "source_file" : "/frameworks/av/media/libaaudio/src/binding/AAudioBinderClient.h"
  },
  {
   "function_name" : "aaudio::AAudioBinderClient::stopStream",
   "linker_set_key" : "_ZN6aaudio18AAudioBinderClient10stopStreamEi",
   "parameters" :
   [
    {
     "is_this_ptr" : true,
     "referenced_type" : "type-178"
    },
    {
     "referenced_type" : "type-4"
    }
   ],
   "return_type" : "type-4",
   "source_file" : "/frameworks/av/media/libaaudio/src/binding/AAudioBinderClient.h"
  },
  {
   "function_name" : "aaudio::AAudioBinderClient::closeStream",
   "linker_set_key" : "_ZN6aaudio18AAudioBinderClient11closeStreamEi",
   "parameters" :
   [
    {
     "is_this_ptr" : true,
     "referenced_type" : "type-178"
    },
    {
     "referenced_type" : "type-4"
    }
   ],
   "return_type" : "type-4",
   "source_file" : "/frameworks/av/media/libaaudio/src/binding/AAudioBinderClient.h"
  },
  {
   "function_name" : "aaudio::AAudioBinderClient::flushStream",
   "linker_set_key" : "_ZN6aaudio18AAudioBinderClient11flushStreamEi",
   "parameters" :
   [
    {
     "is_this_ptr" : true,
     "referenced_type" : "type-178"
    },
    {
     "referenced_type" : "type-4"
    }
   ],
   "return_type" : "type-4",
   "source_file" : "/frameworks/av/media/libaaudio/src/binding/AAudioBinderClient.h"
  },
  {
   "function_name" : "aaudio::AAudioBinderClient::pauseStream",
   "linker_set_key" : "_ZN6aaudio18AAudioBinderClient11pauseStreamEi",
   "parameters" :
   [
    {
     "is_this_ptr" : true,
     "referenced_type" : "type-178"
    },
    {
     "referenced_type" : "type-4"
    }
   ],
   "return_type" : "type-4",
   "source_file" : "/frameworks/av/media/libaaudio/src/binding/AAudioBinderClient.h"
  },
  {
   "function_name" : "aaudio::AAudioBinderClient::startStream",
   "linker_set_key" : "_ZN6aaudio18AAudioBinderClient11startStreamEi",
   "parameters" :
   [
    {
     "is_this_ptr" : true,
     "referenced_type" : "type-178"
    },
    {
     "referenced_type" : "type-4"
    }
   ],
   "return_type" : "type-4",
   "source_file" : "/frameworks/av/media/libaaudio/src/binding/AAudioBinderClient.h"
  },
  {
   "function_name" : "aaudio::AAudioBinderClient::getAAudioService",
   "linker_set_key" : "_ZN6aaudio18AAudioBinderClient16getAAudioServiceEv",
   "parameters" :
   [
    {
     "is_this_ptr" : true,
     "referenced_type" : "type-178"
    }
   ],
   "return_type" : "type-496",
   "source_file" : "/frameworks/av/media/libaaudio/src/binding/AAudioBinderClient.h"
  },
  {
   "function_name" : "aaudio::AAudioBinderClient::dropAAudioService",
   "linker_set_key" : "_ZN6aaudio18AAudioBinderClient17dropAAudioServiceEv",
   "parameters" :
   [
    {
     "is_this_ptr" : true,
     "referenced_type" : "type-178"
    }
   ],
   "return_type" : "type-54",
   "source_file" : "/frameworks/av/media/libaaudio/src/binding/AAudioBinderClient.h"
  },
  {
   "function_name" : "aaudio::AAudioBinderClient::registerAudioThread",
   "linker_set_key" : "_ZN6aaudio18AAudioBinderClient19registerAudioThreadEiix",
   "parameters" :
   [
    {
     "is_this_ptr" : true,
     "referenced_type" : "type-178"
    },
    {
     "referenced_type" : "type-4"
    },
    {
     "referenced_type" : "type-4"
    },
    {
     "referenced_type" : "type-8"
    }
   ],
   "return_type" : "type-4",
   "source_file" : "/frameworks/av/media/libaaudio/src/binding/AAudioBinderClient.h"
  },
  {
   "function_name" : "aaudio::AAudioBinderClient::getStreamDescription",
   "linker_set_key" : "_ZN6aaudio18AAudioBinderClient20getStreamDescriptionEiRNS_23AudioEndpointParcelableE",
   "parameters" :
   [
    {
     "is_this_ptr" : true,
     "referenced_type" : "type-178"
    },
    {
     "referenced_type" : "type-4"
    },
    {
     "referenced_type" : "type-502"
    }
   ],
   "return_type" : "type-4",
   "source_file" : "/frameworks/av/media/libaaudio/src/binding/AAudioBinderClient.h"
  },
  {
   "function_name" : "aaudio::AAudioBinderClient::unregisterAudioThread",
   "linker_set_key" : "_ZN6aaudio18AAudioBinderClient21unregisterAudioThreadEii",
   "parameters" :
   [
    {
     "is_this_ptr" : true,
     "referenced_type" : "type-178"
    },
    {
     "referenced_type" : "type-4"
    },
    {
     "referenced_type" : "type-4"
    }
   ],
   "return_type" : "type-4",
   "source_file" : "/frameworks/av/media/libaaudio/src/binding/AAudioBinderClient.h"
  },
  {
   "function_name" : "aaudio::AAudioBinderClient::AAudioBinderClient",
   "linker_set_key" : "_ZN6aaudio18AAudioBinderClientC1Ev",
   "parameters" :
   [
    {
     "is_this_ptr" : true,
     "referenced_type" : "type-178"
    }
   ],
   "return_type" : "type-54",
   "source_file" : "/frameworks/av/media/libaaudio/src/binding/AAudioBinderClient.h"
  },
  {
   "function_name" : "aaudio::AAudioBinderClient::AAudioBinderClient",
   "linker_set_key" : "_ZN6aaudio18AAudioBinderClientC2Ev",
   "parameters" :
   [
    {
     "is_this_ptr" : true,
     "referenced_type" : "type-178"
    }
   ],
   "return_type" : "type-54",
   "source_file" : "/frameworks/av/media/libaaudio/src/binding/AAudioBinderClient.h"
  },
  {
   "function_name" : "aaudio::AAudioBinderClient::~AAudioBinderClient",
   "linker_set_key" : "_ZN6aaudio18AAudioBinderClientD0Ev",
   "parameters" :
   [
    {
     "is_this_ptr" : true,
     "referenced_type" : "type-178"
    }
   ],
   "return_type" : "type-54",
   "source_file" : "/frameworks/av/media/libaaudio/src/binding/AAudioBinderClient.h"
  },
  {
   "function_name" : "aaudio::AAudioBinderClient::~AAudioBinderClient",
   "linker_set_key" : "_ZN6aaudio18AAudioBinderClientD1Ev",
   "parameters" :
   [
    {
     "is_this_ptr" : true,
     "referenced_type" : "type-178"
    }
   ],
   "return_type" : "type-54",
   "source_file" : "/frameworks/av/media/libaaudio/src/binding/AAudioBinderClient.h"
  },
  {
   "function_name" : "aaudio::AAudioBinderClient::~AAudioBinderClient",
   "linker_set_key" : "_ZN6aaudio18AAudioBinderClientD2Ev",
   "parameters" :
   [
    {
     "is_this_ptr" : true,
     "referenced_type" : "type-178"
    }
   ],
   "return_type" : "type-54",
   "source_file" : "/frameworks/av/media/libaaudio/src/binding/AAudioBinderClient.h"
  },
  {
   "function_name" : "aaudio::AudioStreamBuilder::build",
   "linker_set_key" : "_ZN6aaudio18AudioStreamBuilder5buildEPPNS_11AudioStreamE",
   "parameters" :
   [
    {
     "is_this_ptr" : true,
     "referenced_type" : "type-272"
    },
    {
     "referenced_type" : "type-116"
    }
   ],
   "return_type" : "type-4",
   "source_file" : "/frameworks/av/media/libaaudio/src/core/AudioStreamBuilder.h"
  },
  {
   "function_name" : "aaudio::AudioStreamBuilder::AudioStreamBuilder",
   "linker_set_key" : "_ZN6aaudio18AudioStreamBuilderC1Ev",
   "parameters" :
   [
    {
     "is_this_ptr" : true,
     "referenced_type" : "type-272"
    }
   ],
   "return_type" : "type-54",
   "source_file" : "/frameworks/av/media/libaaudio/src/core/AudioStreamBuilder.h"
  },
  {
   "function_name" : "aaudio::AudioStreamBuilder::AudioStreamBuilder",
   "linker_set_key" : "_ZN6aaudio18AudioStreamBuilderC2Ev",
   "parameters" :
   [
    {
     "is_this_ptr" : true,
     "referenced_type" : "type-272"
    }
   ],
   "return_type" : "type-54",
   "source_file" : "/frameworks/av/media/libaaudio/src/core/AudioStreamBuilder.h"
  },
  {
   "function_name" : "aaudio::AudioStreamBuilder::~AudioStreamBuilder",
   "linker_set_key" : "_ZN6aaudio18AudioStreamBuilderD0Ev",
   "parameters" :
   [
    {
     "is_this_ptr" : true,
     "referenced_type" : "type-272"
    }
   ],
   "return_type" : "type-54",
   "source_file" : "/frameworks/av/media/libaaudio/src/core/AudioStreamBuilder.h"
  },
  {
   "function_name" : "aaudio::AudioStreamBuilder::~AudioStreamBuilder",
   "linker_set_key" : "_ZN6aaudio18AudioStreamBuilderD1Ev",
   "parameters" :
   [
    {
     "is_this_ptr" : true,
     "referenced_type" : "type-272"
    }
   ],
   "return_type" : "type-54",
   "source_file" : "/frameworks/av/media/libaaudio/src/core/AudioStreamBuilder.h"
  },
  {
   "function_name" : "aaudio::AudioStreamBuilder::~AudioStreamBuilder",
   "linker_set_key" : "_ZN6aaudio18AudioStreamBuilderD2Ev",
   "parameters" :
   [
    {
     "is_this_ptr" : true,
     "referenced_type" : "type-272"
    }
   ],
   "return_type" : "type-54",
   "source_file" : "/frameworks/av/media/libaaudio/src/core/AudioStreamBuilder.h"
  },
  {
   "function_name" : "aaudio::AAudioStreamRequest::readFromParcel",
   "linker_set_key" : "_ZN6aaudio19AAudioStreamRequest14readFromParcelEPKN7android6ParcelE",
   "parameters" :
   [
    {
     "is_this_ptr" : true,
     "referenced_type" : "type-157"
    },
    {
     "referenced_type" : "type-513"
    }
   ],
   "return_type" : "type-4",
   "source_file" : "/frameworks/av/media/libaaudio/src/binding/AAudioStreamRequest.h"
  },
  {
   "function_name" : "aaudio::AAudioStreamRequest::AAudioStreamRequest",
   "linker_set_key" : "_ZN6aaudio19AAudioStreamRequestC1Ev",
   "parameters" :
   [
    {
     "is_this_ptr" : true,
     "referenced_type" : "type-157"
    }
   ],
   "return_type" : "type-54",
   "source_file" : "/frameworks/av/media/libaaudio/src/binding/AAudioStreamRequest.h"
  },
  {
   "function_name" : "aaudio::AAudioStreamRequest::AAudioStreamRequest",
   "linker_set_key" : "_ZN6aaudio19AAudioStreamRequestC2Ev",
   "parameters" :
   [
    {
     "is_this_ptr" : true,
     "referenced_type" : "type-157"
    }
   ],
   "return_type" : "type-54",
   "source_file" : "/frameworks/av/media/libaaudio/src/binding/AAudioStreamRequest.h"
  },
  {
   "function_name" : "aaudio::AAudioStreamRequest::~AAudioStreamRequest",
   "linker_set_key" : "_ZN6aaudio19AAudioStreamRequestD0Ev",
   "parameters" :
   [
    {
     "is_this_ptr" : true,
     "referenced_type" : "type-157"
    }
   ],
   "return_type" : "type-54",
   "source_file" : "/frameworks/av/media/libaaudio/src/binding/AAudioStreamRequest.h"
  },
  {
   "function_name" : "aaudio::AAudioStreamRequest::~AAudioStreamRequest",
   "linker_set_key" : "_ZN6aaudio19AAudioStreamRequestD1Ev",
   "parameters" :
   [
    {
     "is_this_ptr" : true,
     "referenced_type" : "type-157"
    }
   ],
   "return_type" : "type-54",
   "source_file" : "/frameworks/av/media/libaaudio/src/binding/AAudioStreamRequest.h"
  },
  {
   "function_name" : "aaudio::AAudioStreamRequest::~AAudioStreamRequest",
   "linker_set_key" : "_ZN6aaudio19AAudioStreamRequestD2Ev",
   "parameters" :
   [
    {
     "is_this_ptr" : true,
     "referenced_type" : "type-157"
    }
   ],
   "return_type" : "type-54",
   "source_file" : "/frameworks/av/media/libaaudio/src/binding/AAudioStreamRequest.h"
  },
  {
   "function_name" : "aaudio::AudioStreamInternal::joinThread",
   "linker_set_key" : "_ZN6aaudio19AudioStreamInternal10joinThreadEPPv",
   "parameters" :
   [
    {
     "is_this_ptr" : true,
     "referenced_type" : "type-67"
    },
    {
     "referenced_type" : "type-258"
    }
   ],
   "return_type" : "type-4",
   "source_file" : "/frameworks/av/media/libaaudio/src/client/AudioStreamInternal.h"
  },
  {
   "function_name" : "aaudio::AudioStreamInternal::stopClient",
   "linker_set_key" : "_ZN6aaudio19AudioStreamInternal10stopClientEi",
   "parameters" :
   [
    {
     "is_this_ptr" : true,
     "referenced_type" : "type-67"
    },
    {
     "referenced_type" : "type-4"
    }
   ],
   "return_type" : "type-4",
   "source_file" : "/frameworks/av/media/libaaudio/src/client/AudioStreamInternal.h"
  },
  {
   "access" : "protected",
   "function_name" : "aaudio::AudioStreamInternal::processData",
   "linker_set_key" : "_ZN6aaudio19AudioStreamInternal11processDataEPvix",
   "parameters" :
   [
    {
     "is_this_ptr" : true,
     "referenced_type" : "type-67"
    },
    {
     "referenced_type" : "type-53"
    },
    {
     "referenced_type" : "type-4"
    },
    {
     "referenced_type" : "type-8"
    }
   ],
   "return_type" : "type-4",
   "source_file" : "/frameworks/av/media/libaaudio/src/client/AudioStreamInternal.h"
  },
  {
   "function_name" : "aaudio::AudioStreamInternal::requestStop",
   "linker_set_key" : "_ZN6aaudio19AudioStreamInternal11requestStopEv",
   "parameters" :
   [
    {
     "is_this_ptr" : true,
     "referenced_type" : "type-67"
    }
   ],
   "return_type" : "type-4",
   "source_file" : "/frameworks/av/media/libaaudio/src/client/AudioStreamInternal.h"
  },
  {
   "function_name" : "aaudio::AudioStreamInternal::startClient",
   "linker_set_key" : "_ZN6aaudio19AudioStreamInternal11startClientERKN7android11AudioClientEPi",
   "parameters" :
   [
    {
     "is_this_ptr" : true,
     "referenced_type" : "type-67"
    },
    {
     "referenced_type" : "type-445"
    },
    {
     "referenced_type" : "type-246"
    }
   ],
   "return_type" : "type-4",
   "source_file" : "/frameworks/av/media/libaaudio/src/client/AudioStreamInternal.h"
  },
  {
   "function_name" : "aaudio::AudioStreamInternal::getTimestamp",
   "linker_set_key" : "_ZN6aaudio19AudioStreamInternal12getTimestampEiPxS1_",
   "parameters" :
   [
    {
     "is_this_ptr" : true,
     "referenced_type" : "type-67"
    },
    {
     "referenced_type" : "type-4"
    },
    {
     "referenced_type" : "type-41"
    },
    {
     "referenced_type" : "type-41"
    }
   ],
   "return_type" : "type-4",
   "source_file" : "/frameworks/av/media/libaaudio/src/client/AudioStreamInternal.h"
  },
  {
   "access" : "protected",
   "function_name" : "aaudio::AudioStreamInternal::logTimestamp",
   "linker_set_key" : "_ZN6aaudio19AudioStreamInternal12logTimestampERNS_22AAudioServiceMessage_sE",
   "parameters" :
   [
    {
     "is_this_ptr" : true,
     "referenced_type" : "type-67"
    },
    {
     "referenced_type" : "type-446"
    }
   ],
   "return_type" : "type-54",
   "source_file" : "/frameworks/av/media/libaaudio/src/client/AudioStreamInternal.h"
  },
  {
   "function_name" : "aaudio::AudioStreamInternal::requestStart",
   "linker_set_key" : "_ZN6aaudio19AudioStreamInternal12requestStartEv",
   "parameters" :
   [
    {
     "is_this_ptr" : true,
     "referenced_type" : "type-67"
    }
   ],
   "return_type" : "type-4",
   "source_file" : "/frameworks/av/media/libaaudio/src/client/AudioStreamInternal.h"
  },
  {
   "access" : "protected",
   "function_name" : "aaudio::AudioStreamInternal::stopCallback",
   "linker_set_key" : "_ZN6aaudio19AudioStreamInternal12stopCallbackEv",
   "parameters" :
   [
    {
     "is_this_ptr" : true,
     "referenced_type" : "type-67"
    }
   ],
   "return_type" : "type-4",
   "source_file" : "/frameworks/av/media/libaaudio/src/client/AudioStreamInternal.h"
  },
  {
   "function_name" : "aaudio::AudioStreamInternal::setBufferSize",
   "linker_set_key" : "_ZN6aaudio19AudioStreamInternal13setBufferSizeEi",
   "parameters" :
   [
    {
     "is_this_ptr" : true,
     "referenced_type" : "type-67"
    },
    {
     "referenced_type" : "type-4"
    }
   ],
   "return_type" : "type-4",
   "source_file" : "/frameworks/av/media/libaaudio/src/client/AudioStreamInternal.h"
  },
  {
   "function_name" : "aaudio::AudioStreamInternal::registerThread",
   "linker_set_key" : "_ZN6aaudio19AudioStreamInternal14registerThreadEv",
   "parameters" :
   [
    {
     "is_this_ptr" : true,
     "referenced_type" : "type-67"
    }
   ],
   "return_type" : "type-4",
   "source_file" : "/frameworks/av/media/libaaudio/src/client/AudioStreamInternal.h"
  },
  {
   "access" : "protected",
   "function_name" : "aaudio::AudioStreamInternal::processCommands",
   "linker_set_key" : "_ZN6aaudio19AudioStreamInternal15processCommandsEv",
   "parameters" :
   [
    {
     "is_this_ptr" : true,
     "referenced_type" : "type-67"
    }
   ],
   "return_type" : "type-4",
   "source_file" : "/frameworks/av/media/libaaudio/src/client/AudioStreamInternal.h"
  },
  {
   "access" : "private",
   "function_name" : "aaudio::AudioStreamInternal::processTimestamp",
   "linker_set_key" : "_ZN6aaudio19AudioStreamInternal16processTimestampEyx",
   "parameters" :
   [
    {
     "is_this_ptr" : true,
     "referenced_type" : "type-67"
    },
    {
     "referenced_type" : "type-447"
    },
    {
     "referenced_type" : "type-8"
    }
   ],
   "return_type" : "type-54",
   "source_file" : "/frameworks/av/media/libaaudio/src/client/AudioStreamInternal.h"
  },
  {
   "function_name" : "aaudio::AudioStreamInternal::unregisterThread",
   "linker_set_key" : "_ZN6aaudio19AudioStreamInternal16unregisterThreadEv",
   "parameters" :
   [
    {
     "is_this_ptr" : true,
     "referenced_type" : "type-67"
    }
   ],
   "return_type" : "type-4",
   "source_file" : "/frameworks/av/media/libaaudio/src/client/AudioStreamInternal.h"
  },
  {
   "access" : "protected",
   "function_name" : "aaudio::AudioStreamInternal::onEventFromServer",
   "linker_set_key" : "_ZN6aaudio19AudioStreamInternal17onEventFromServerEPNS_22AAudioServiceMessage_sE",
   "parameters" :
   [
    {
     "is_this_ptr" : true,
     "referenced_type" : "type-67"
    },
    {
     "referenced_type" : "type-440"
    }
   ],
   "return_type" : "type-4",
   "source_file" : "/frameworks/av/media/libaaudio/src/client/AudioStreamInternal.h"
  },
  {
   "access" : "protected",
   "function_name" : "aaudio::AudioStreamInternal::onTimestampService",
   "linker_set_key" : "_ZN6aaudio19AudioStreamInternal18onTimestampServiceEPNS_22AAudioServiceMessage_sE",
   "parameters" :
   [
    {
     "is_this_ptr" : true,
     "referenced_type" : "type-67"
    },
    {
     "referenced_type" : "type-440"
    }
   ],
   "return_type" : "type-4",
   "source_file" : "/frameworks/av/media/libaaudio/src/client/AudioStreamInternal.h"
  },
  {
   "function_name" : "aaudio::AudioStreamInternal::updateStateMachine",
   "linker_set_key" : "_ZN6aaudio19AudioStreamInternal18updateStateMachineEv",
   "parameters" :
   [
    {
     "is_this_ptr" : true,
     "referenced_type" : "type-67"
    }
   ],
   "return_type" : "type-4",
   "source_file" : "/frameworks/av/media/libaaudio/src/client/AudioStreamInternal.h"
  },
  {
   "access" : "protected",
   "function_name" : "aaudio::AudioStreamInternal::onTimestampHardware",
   "linker_set_key" : "_ZN6aaudio19AudioStreamInternal19onTimestampHardwareEPNS_22AAudioServiceMessage_sE",
   "parameters" :
   [
    {
     "is_this_ptr" : true,
     "referenced_type" : "type-67"
    },
    {
     "referenced_type" : "type-440"
    }
   ],
   "return_type" : "type-4",
   "source_file" : "/frameworks/av/media/libaaudio/src/client/AudioStreamInternal.h"
  },
  {
   "access" : "protected",
   "function_name" : "aaudio::AudioStreamInternal::calculateReasonableTimeout",
   "linker_set_key" : "_ZN6aaudio19AudioStreamInternal26calculateReasonableTimeoutEi",
   "parameters" :
   [
    {
     "is_this_ptr" : true,
     "referenced_type" : "type-67"
    },
    {
     "referenced_type" : "type-4"
    }
   ],
   "return_type" : "type-8",
   "source_file" : "/frameworks/av/media/libaaudio/src/client/AudioStreamInternal.h"
  },
  {
   "function_name" : "aaudio::AudioStreamInternal::calculateReasonableTimeout",
   "linker_set_key" : "_ZN6aaudio19AudioStreamInternal26calculateReasonableTimeoutEv",
   "parameters" :
   [
    {
     "is_this_ptr" : true,
     "referenced_type" : "type-67"
    }
   ],
   "return_type" : "type-8",
   "source_file" : "/frameworks/av/media/libaaudio/src/client/AudioStreamInternal.h"
  },
  {
   "access" : "protected",
   "function_name" : "aaudio::AudioStreamInternal::drainTimestampsFromService",
   "linker_set_key" : "_ZN6aaudio19AudioStreamInternal26drainTimestampsFromServiceEv",
   "parameters" :
   [
    {
     "is_this_ptr" : true,
     "referenced_type" : "type-67"
    }
   ],
   "return_type" : "type-4",
   "source_file" : "/frameworks/av/media/libaaudio/src/client/AudioStreamInternal.h"
  },
  {
   "function_name" : "aaudio::AudioStreamInternal::open",
   "linker_set_key" : "_ZN6aaudio19AudioStreamInternal4openERKNS_18AudioStreamBuilderE",
   "parameters" :
   [
    {
     "is_this_ptr" : true,
     "referenced_type" : "type-67"
    },
    {
     "referenced_type" : "type-253"
    }
   ],
   "return_type" : "type-4",
   "source_file" : "/frameworks/av/media/libaaudio/src/client/AudioStreamInternal.h"
  },
  {
   "function_name" : "aaudio::AudioStreamInternal::close",
   "linker_set_key" : "_ZN6aaudio19AudioStreamInternal5closeEv",
   "parameters" :
   [
    {
     "is_this_ptr" : true,
     "referenced_type" : "type-67"
    }
   ],
   "return_type" : "type-4",
   "source_file" : "/frameworks/av/media/libaaudio/src/client/AudioStreamInternal.h"
  },
  {
   "function_name" : "aaudio::AudioStreamInternal::AudioStreamInternal",
   "linker_set_key" : "_ZN6aaudio19AudioStreamInternalC2ERNS_22AAudioServiceInterfaceEb",
   "parameters" :
   [
    {
     "is_this_ptr" : true,
     "referenced_type" : "type-67"
    },
    {
     "referenced_type" : "type-18"
    },
    {
     "referenced_type" : "type-16"
    }
   ],
   "return_type" : "type-54",
   "source_file" : "/frameworks/av/media/libaaudio/src/client/AudioStreamInternal.h"
  },
  {
   "function_name" : "aaudio::AudioStreamInternal::~AudioStreamInternal",
   "linker_set_key" : "_ZN6aaudio19AudioStreamInternalD0Ev",
   "parameters" :
   [
    {
     "is_this_ptr" : true,
     "referenced_type" : "type-67"
    }
   ],
   "return_type" : "type-54",
   "source_file" : "/frameworks/av/media/libaaudio/src/client/AudioStreamInternal.h"
  },
  {
   "function_name" : "aaudio::AudioStreamInternal::~AudioStreamInternal",
   "linker_set_key" : "_ZN6aaudio19AudioStreamInternalD1Ev",
   "parameters" :
   [
    {
     "is_this_ptr" : true,
     "referenced_type" : "type-67"
    }
   ],
   "return_type" : "type-54",
   "source_file" : "/frameworks/av/media/libaaudio/src/client/AudioStreamInternal.h"
  },
  {
   "function_name" : "aaudio::AudioStreamInternal::~AudioStreamInternal",
   "linker_set_key" : "_ZN6aaudio19AudioStreamInternalD2Ev",
   "parameters" :
   [
    {
     "is_this_ptr" : true,
     "referenced_type" : "type-67"
    }
   ],
   "return_type" : "type-54",
   "source_file" : "/frameworks/av/media/libaaudio/src/client/AudioStreamInternal.h"
  },
  {
   "function_name" : "aaudio::RingBufferParcelable::setupMemory",
   "linker_set_key" : "_ZN6aaudio20RingBufferParcelable11setupMemoryEiii",
   "parameters" :
   [
    {
     "is_this_ptr" : true,
     "referenced_type" : "type-571"
    },
    {
     "referenced_type" : "type-4"
    },
    {
     "referenced_type" : "type-4"
    },
    {
     "referenced_type" : "type-4"
    }
   ],
   "return_type" : "type-54",
   "source_file" : "/frameworks/av/media/libaaudio/src/binding/RingBufferParcelable.h"
  },
  {
   "function_name" : "aaudio::RingBufferParcelable::setupMemory",
   "linker_set_key" : "_ZN6aaudio20RingBufferParcelable11setupMemoryEiiiiii",
   "parameters" :
   [
    {
     "is_this_ptr" : true,
     "referenced_type" : "type-571"
    },
    {
     "referenced_type" : "type-4"
    },
    {
     "referenced_type" : "type-4"
    },
    {
     "referenced_type" : "type-4"
    },
    {
     "referenced_type" : "type-4"
    },
    {
     "referenced_type" : "type-4"
    },
    {
     "referenced_type" : "type-4"
    }
   ],
   "return_type" : "type-54",
   "source_file" : "/frameworks/av/media/libaaudio/src/binding/RingBufferParcelable.h"
  },
  {
   "function_name" : "aaudio::RingBufferParcelable::readFromParcel",
   "linker_set_key" : "_ZN6aaudio20RingBufferParcelable14readFromParcelEPKN7android6ParcelE",
   "parameters" :
   [
    {
     "is_this_ptr" : true,
     "referenced_type" : "type-571"
    },
    {
     "referenced_type" : "type-578"
    }
   ],
   "return_type" : "type-4",
   "source_file" : "/frameworks/av/media/libaaudio/src/binding/RingBufferParcelable.h"
  },
  {
   "function_name" : "aaudio::RingBufferParcelable::getBytesPerFrame",
   "linker_set_key" : "_ZN6aaudio20RingBufferParcelable16getBytesPerFrameEv",
   "parameters" :
   [
    {
     "is_this_ptr" : true,
     "referenced_type" : "type-571"
    }
   ],
   "return_type" : "type-4",
   "source_file" : "/frameworks/av/media/libaaudio/src/binding/RingBufferParcelable.h"
  },
  {
   "function_name" : "aaudio::RingBufferParcelable::setBytesPerFrame",
   "linker_set_key" : "_ZN6aaudio20RingBufferParcelable16setBytesPerFrameEi",
   "parameters" :
   [
    {
     "is_this_ptr" : true,
     "referenced_type" : "type-571"
    },
    {
     "referenced_type" : "type-4"
    }
   ],
   "return_type" : "type-54",
   "source_file" : "/frameworks/av/media/libaaudio/src/binding/RingBufferParcelable.h"
  },
  {
   "function_name" : "aaudio::RingBufferParcelable::getFramesPerBurst",
   "linker_set_key" : "_ZN6aaudio20RingBufferParcelable17getFramesPerBurstEv",
   "parameters" :
   [
    {
     "is_this_ptr" : true,
     "referenced_type" : "type-571"
    }
   ],
   "return_type" : "type-4",
   "source_file" : "/frameworks/av/media/libaaudio/src/binding/RingBufferParcelable.h"
  },
  {
   "function_name" : "aaudio::RingBufferParcelable::setFramesPerBurst",
   "linker_set_key" : "_ZN6aaudio20RingBufferParcelable17setFramesPerBurstEi",
   "parameters" :
   [
    {
     "is_this_ptr" : true,
     "referenced_type" : "type-571"
    },
    {
     "referenced_type" : "type-4"
    }
   ],
   "return_type" : "type-54",
   "source_file" : "/frameworks/av/media/libaaudio/src/binding/RingBufferParcelable.h"
  },
  {
   "function_name" : "aaudio::RingBufferParcelable::getCapacityInFrames",
   "linker_set_key" : "_ZN6aaudio20RingBufferParcelable19getCapacityInFramesEv",
   "parameters" :
   [
    {
     "is_this_ptr" : true,
     "referenced_type" : "type-571"
    }
   ],
   "return_type" : "type-4",
   "source_file" : "/frameworks/av/media/libaaudio/src/binding/RingBufferParcelable.h"
  },
  {
   "function_name" : "aaudio::RingBufferParcelable::setCapacityInFrames",
   "linker_set_key" : "_ZN6aaudio20RingBufferParcelable19setCapacityInFramesEi",
   "parameters" :
   [
    {
     "is_this_ptr" : true,
     "referenced_type" : "type-571"
    },
    {
     "referenced_type" : "type-4"
    }
   ],
   "return_type" : "type-54",
   "source_file" : "/frameworks/av/media/libaaudio/src/binding/RingBufferParcelable.h"
  },
  {
   "function_name" : "aaudio::RingBufferParcelable::dump",
   "linker_set_key" : "_ZN6aaudio20RingBufferParcelable4dumpEv",
   "parameters" :
   [
    {
     "is_this_ptr" : true,
     "referenced_type" : "type-571"
    }
   ],
   "return_type" : "type-54",
   "source_file" : "/frameworks/av/media/libaaudio/src/binding/RingBufferParcelable.h"
  },
  {
   "function_name" : "aaudio::RingBufferParcelable::resolve",
   "linker_set_key" : "_ZN6aaudio20RingBufferParcelable7resolveEPNS_22SharedMemoryParcelableEPNS_22RingBufferDescriptor_sE",
   "parameters" :
   [
    {
     "is_this_ptr" : true,
     "referenced_type" : "type-571"
    },
    {
     "referenced_type" : "type-579"
    },
    {
     "referenced_type" : "type-580"
    }
   ],
   "return_type" : "type-4",
   "source_file" : "/frameworks/av/media/libaaudio/src/binding/RingBufferParcelable.h"
  },
  {
   "function_name" : "aaudio::RingBufferParcelable::RingBufferParcelable",
   "linker_set_key" : "_ZN6aaudio20RingBufferParcelableC1Ev",
   "parameters" :
   [
    {
     "is_this_ptr" : true,
     "referenced_type" : "type-571"
    }
   ],
   "return_type" : "type-54",
   "source_file" : "/frameworks/av/media/libaaudio/src/binding/RingBufferParcelable.h"
  },
  {
   "function_name" : "aaudio::RingBufferParcelable::RingBufferParcelable",
   "linker_set_key" : "_ZN6aaudio20RingBufferParcelableC2Ev",
   "parameters" :
   [
    {
     "is_this_ptr" : true,
     "referenced_type" : "type-571"
    }
   ],
   "return_type" : "type-54",
   "source_file" : "/frameworks/av/media/libaaudio/src/binding/RingBufferParcelable.h"
  },
  {
   "function_name" : "aaudio::RingBufferParcelable::~RingBufferParcelable",
   "linker_set_key" : "_ZN6aaudio20RingBufferParcelableD0Ev",
   "parameters" :
   [
    {
     "is_this_ptr" : true,
     "referenced_type" : "type-571"
    }
   ],
   "return_type" : "type-54",
   "source_file" : "/frameworks/av/media/libaaudio/src/binding/RingBufferParcelable.h"
  },
  {
   "function_name" : "aaudio::RingBufferParcelable::~RingBufferParcelable",
   "linker_set_key" : "_ZN6aaudio20RingBufferParcelableD1Ev",
   "parameters" :
   [
    {
     "is_this_ptr" : true,
     "referenced_type" : "type-571"
    }
   ],
   "return_type" : "type-54",
   "source_file" : "/frameworks/av/media/libaaudio/src/binding/RingBufferParcelable.h"
  },
  {
   "function_name" : "aaudio::RingBufferParcelable::~RingBufferParcelable",
   "linker_set_key" : "_ZN6aaudio20RingBufferParcelableD2Ev",
   "parameters" :
   [
    {
     "is_this_ptr" : true,
     "referenced_type" : "type-571"
    }
   ],
   "return_type" : "type-54",
   "source_file" : "/frameworks/av/media/libaaudio/src/binding/RingBufferParcelable.h"
  },
  {
   "function_name" : "aaudio::IsochronousClockModel::setSampleRate",
   "linker_set_key" : "_ZN6aaudio21IsochronousClockModel13setSampleRateEi",
   "parameters" :
   [
    {
     "is_this_ptr" : true,
     "referenced_type" : "type-479"
    },
    {
     "referenced_type" : "type-4"
    }
   ],
   "return_type" : "type-54",
   "source_file" : "/frameworks/av/media/libaaudio/src/client/IsochronousClockModel.h"
  },
  {
   "function_name" : "aaudio::IsochronousClockModel::processTimestamp",
   "linker_set_key" : "_ZN6aaudio21IsochronousClockModel16processTimestampExx",
   "parameters" :
   [
    {
     "is_this_ptr" : true,
     "referenced_type" : "type-479"
    },
    {
     "referenced_type" : "type-8"
    },
    {
     "referenced_type" : "type-8"
    }
   ],
   "return_type" : "type-54",
   "source_file" : "/frameworks/av/media/libaaudio/src/client/IsochronousClockModel.h"
  },
  {
   "function_name" : "aaudio::IsochronousClockModel::setFramesPerBurst",
   "linker_set_key" : "_ZN6aaudio21IsochronousClockModel17setFramesPerBurstEi",
   "parameters" :
   [
    {
     "is_this_ptr" : true,
     "referenced_type" : "type-479"
    },
    {
     "referenced_type" : "type-4"
    }
   ],
   "return_type" : "type-54",
   "source_file" : "/frameworks/av/media/libaaudio/src/client/IsochronousClockModel.h"
  },
  {
   "function_name" : "aaudio::IsochronousClockModel::setPositionAndTime",
   "linker_set_key" : "_ZN6aaudio21IsochronousClockModel18setPositionAndTimeExx",
   "parameters" :
   [
    {
     "is_this_ptr" : true,
     "referenced_type" : "type-479"
    },
    {
     "referenced_type" : "type-8"
    },
    {
     "referenced_type" : "type-8"
    }
   ],
   "return_type" : "type-54",
   "source_file" : "/frameworks/av/media/libaaudio/src/client/IsochronousClockModel.h"
  },
  {
   "function_name" : "aaudio::IsochronousClockModel::stop",
   "linker_set_key" : "_ZN6aaudio21IsochronousClockModel4stopEx",
   "parameters" :
   [
    {
     "is_this_ptr" : true,
     "referenced_type" : "type-479"
    },
    {
     "referenced_type" : "type-8"
    }
   ],
   "return_type" : "type-54",
   "source_file" : "/frameworks/av/media/libaaudio/src/client/IsochronousClockModel.h"
  },
  {
   "function_name" : "aaudio::IsochronousClockModel::start",
   "linker_set_key" : "_ZN6aaudio21IsochronousClockModel5startEx",
   "parameters" :
   [
    {
     "is_this_ptr" : true,
     "referenced_type" : "type-479"
    },
    {
     "referenced_type" : "type-8"
    }
   ],
   "return_type" : "type-54",
   "source_file" : "/frameworks/av/media/libaaudio/src/client/IsochronousClockModel.h"
  },
  {
   "access" : "private",
   "function_name" : "aaudio::IsochronousClockModel::update",
   "linker_set_key" : "_ZN6aaudio21IsochronousClockModel6updateEv",
   "parameters" :
   [
    {
     "is_this_ptr" : true,
     "referenced_type" : "type-479"
    }
   ],
   "return_type" : "type-54",
   "source_file" : "/frameworks/av/media/libaaudio/src/client/IsochronousClockModel.h"
  },
  {
   "function_name" : "aaudio::IsochronousClockModel::IsochronousClockModel",
   "linker_set_key" : "_ZN6aaudio21IsochronousClockModelC1Ev",
   "parameters" :
   [
    {
     "is_this_ptr" : true,
     "referenced_type" : "type-479"
    }
   ],
   "return_type" : "type-54",
   "source_file" : "/frameworks/av/media/libaaudio/src/client/IsochronousClockModel.h"
  },
  {
   "function_name" : "aaudio::IsochronousClockModel::IsochronousClockModel",
   "linker_set_key" : "_ZN6aaudio21IsochronousClockModelC2Ev",
   "parameters" :
   [
    {
     "is_this_ptr" : true,
     "referenced_type" : "type-479"
    }
   ],
   "return_type" : "type-54",
   "source_file" : "/frameworks/av/media/libaaudio/src/client/IsochronousClockModel.h"
  },
  {
   "function_name" : "aaudio::IsochronousClockModel::~IsochronousClockModel",
   "linker_set_key" : "_ZN6aaudio21IsochronousClockModelD0Ev",
   "parameters" :
   [
    {
     "is_this_ptr" : true,
     "referenced_type" : "type-479"
    }
   ],
   "return_type" : "type-54",
   "source_file" : "/frameworks/av/media/libaaudio/src/client/IsochronousClockModel.h"
  },
  {
   "function_name" : "aaudio::IsochronousClockModel::~IsochronousClockModel",
   "linker_set_key" : "_ZN6aaudio21IsochronousClockModelD1Ev",
   "parameters" :
   [
    {
     "is_this_ptr" : true,
     "referenced_type" : "type-479"
    }
   ],
   "return_type" : "type-54",
   "source_file" : "/frameworks/av/media/libaaudio/src/client/IsochronousClockModel.h"
  },
  {
   "function_name" : "aaudio::IsochronousClockModel::~IsochronousClockModel",
   "linker_set_key" : "_ZN6aaudio21IsochronousClockModelD2Ev",
   "parameters" :
   [
    {
     "is_this_ptr" : true,
     "referenced_type" : "type-479"
    }
   ],
   "return_type" : "type-54",
   "source_file" : "/frameworks/av/media/libaaudio/src/client/IsochronousClockModel.h"
  },
  {
   "function_name" : "aaudio::AAudioStreamParameters::copyFrom",
   "linker_set_key" : "_ZN6aaudio22AAudioStreamParameters8copyFromERKS0_",
   "parameters" :
   [
    {
     "is_this_ptr" : true,
     "referenced_type" : "type-68"
    },
    {
     "referenced_type" : "type-221"
    }
   ],
   "return_type" : "type-54",
   "source_file" : "/frameworks/av/media/libaaudio/src/core/AAudioStreamParameters.h"
  },
  {
   "function_name" : "aaudio::AAudioStreamParameters::AAudioStreamParameters",
   "linker_set_key" : "_ZN6aaudio22AAudioStreamParametersC1Ev",
   "parameters" :
   [
    {
     "is_this_ptr" : true,
     "referenced_type" : "type-68"
    }
   ],
   "return_type" : "type-54",
   "source_file" : "/frameworks/av/media/libaaudio/src/core/AAudioStreamParameters.h"
  },
  {
   "function_name" : "aaudio::AAudioStreamParameters::AAudioStreamParameters",
   "linker_set_key" : "_ZN6aaudio22AAudioStreamParametersC2Ev",
   "parameters" :
   [
    {
     "is_this_ptr" : true,
     "referenced_type" : "type-68"
    }
   ],
   "return_type" : "type-54",
   "source_file" : "/frameworks/av/media/libaaudio/src/core/AAudioStreamParameters.h"
  },
  {
   "function_name" : "aaudio::AAudioStreamParameters::~AAudioStreamParameters",
   "linker_set_key" : "_ZN6aaudio22AAudioStreamParametersD0Ev",
   "parameters" :
   [
    {
     "is_this_ptr" : true,
     "referenced_type" : "type-68"
    }
   ],
   "return_type" : "type-54",
   "source_file" : "/frameworks/av/media/libaaudio/src/core/AAudioStreamParameters.h"
  },
  {
   "function_name" : "aaudio::AAudioStreamParameters::~AAudioStreamParameters",
   "linker_set_key" : "_ZN6aaudio22AAudioStreamParametersD1Ev",
   "parameters" :
   [
    {
     "is_this_ptr" : true,
     "referenced_type" : "type-68"
    }
   ],
   "return_type" : "type-54",
   "source_file" : "/frameworks/av/media/libaaudio/src/core/AAudioStreamParameters.h"
  },
  {
   "function_name" : "aaudio::AAudioStreamParameters::~AAudioStreamParameters",
   "linker_set_key" : "_ZN6aaudio22AAudioStreamParametersD2Ev",
   "parameters" :
   [
    {
     "is_this_ptr" : true,
     "referenced_type" : "type-68"
    }
   ],
   "return_type" : "type-54",
   "source_file" : "/frameworks/av/media/libaaudio/src/core/AAudioStreamParameters.h"
  },
  {
   "function_name" : "aaudio::SharedMemoryParcelable::getSizeInBytes",
   "linker_set_key" : "_ZN6aaudio22SharedMemoryParcelable14getSizeInBytesEv",
   "parameters" :
   [
    {
     "is_this_ptr" : true,
     "referenced_type" : "type-579"
    }
   ],
   "return_type" : "type-4",
   "source_file" : "/frameworks/av/media/libaaudio/src/binding/SharedMemoryParcelable.h"
  },
  {
   "function_name" : "aaudio::SharedMemoryParcelable::readFromParcel",
   "linker_set_key" : "_ZN6aaudio22SharedMemoryParcelable14readFromParcelEPKN7android6ParcelE",
   "parameters" :
   [
    {
     "is_this_ptr" : true,
     "referenced_type" : "type-579"
    },
    {
     "referenced_type" : "type-590"
    }
   ],
   "return_type" : "type-4",
   "source_file" : "/frameworks/av/media/libaaudio/src/binding/SharedMemoryParcelable.h"
  },
  {
   "access" : "protected",
   "function_name" : "aaudio::SharedMemoryParcelable::resolveSharedMemory",
   "linker_set_key" : "_ZN6aaudio22SharedMemoryParcelable19resolveSharedMemoryERKN7android4base14unique_fd_implINS2_13DefaultCloserEEE",
   "parameters" :
   [
    {
     "is_this_ptr" : true,
     "referenced_type" : "type-579"
    },
    {
     "referenced_type" : "type-583"
    }
   ],
   "return_type" : "type-4",
   "source_file" : "/frameworks/av/media/libaaudio/src/binding/SharedMemoryParcelable.h"
  },
  {
   "function_name" : "aaudio::SharedMemoryParcelable::dump",
   "linker_set_key" : "_ZN6aaudio22SharedMemoryParcelable4dumpEv",
   "parameters" :
   [
    {
     "is_this_ptr" : true,
     "referenced_type" : "type-579"
    }
   ],
   "return_type" : "type-54",
   "source_file" : "/frameworks/av/media/libaaudio/src/binding/SharedMemoryParcelable.h"
  },
  {
   "function_name" : "aaudio::SharedMemoryParcelable::close",
   "linker_set_key" : "_ZN6aaudio22SharedMemoryParcelable5closeEv",
   "parameters" :
   [
    {
     "is_this_ptr" : true,
     "referenced_type" : "type-579"
    }
   ],
   "return_type" : "type-4",
   "source_file" : "/frameworks/av/media/libaaudio/src/binding/SharedMemoryParcelable.h"
  },
  {
   "function_name" : "aaudio::SharedMemoryParcelable::setup",
   "linker_set_key" : "_ZN6aaudio22SharedMemoryParcelable5setupERKN7android4base14unique_fd_implINS2_13DefaultCloserEEEi",
   "parameters" :
   [
    {
     "is_this_ptr" : true,
     "referenced_type" : "type-579"
    },
    {
     "referenced_type" : "type-583"
    },
    {
     "referenced_type" : "type-4"
    }
   ],
   "return_type" : "type-54",
   "source_file" : "/frameworks/av/media/libaaudio/src/binding/SharedMemoryParcelable.h"
  },
  {
   "function_name" : "aaudio::SharedMemoryParcelable::resolve",
   "linker_set_key" : "_ZN6aaudio22SharedMemoryParcelable7resolveEiiPPv",
   "parameters" :
   [
    {
     "is_this_ptr" : true,
     "referenced_type" : "type-579"
    },
    {
     "referenced_type" : "type-4"
    },
    {
     "referenced_type" : "type-4"
    },
    {
     "referenced_type" : "type-258"
    }
   ],
   "return_type" : "type-4",
   "source_file" : "/frameworks/av/media/libaaudio/src/binding/SharedMemoryParcelable.h"
  },
  {
   "function_name" : "aaudio::SharedMemoryParcelable::SharedMemoryParcelable",
   "linker_set_key" : "_ZN6aaudio22SharedMemoryParcelableC1Ev",
   "parameters" :
   [
    {
     "is_this_ptr" : true,
     "referenced_type" : "type-579"
    }
   ],
   "return_type" : "type-54",
   "source_file" : "/frameworks/av/media/libaaudio/src/binding/SharedMemoryParcelable.h"
  },
  {
   "function_name" : "aaudio::SharedMemoryParcelable::SharedMemoryParcelable",
   "linker_set_key" : "_ZN6aaudio22SharedMemoryParcelableC2Ev",
   "parameters" :
   [
    {
     "is_this_ptr" : true,
     "referenced_type" : "type-579"
    }
   ],
   "return_type" : "type-54",
   "source_file" : "/frameworks/av/media/libaaudio/src/binding/SharedMemoryParcelable.h"
  },
  {
   "function_name" : "aaudio::SharedMemoryParcelable::~SharedMemoryParcelable",
   "linker_set_key" : "_ZN6aaudio22SharedMemoryParcelableD0Ev",
   "parameters" :
   [
    {
     "is_this_ptr" : true,
     "referenced_type" : "type-579"
    }
   ],
   "return_type" : "type-54",
   "source_file" : "/frameworks/av/media/libaaudio/src/binding/SharedMemoryParcelable.h"
  },
  {
   "function_name" : "aaudio::SharedMemoryParcelable::~SharedMemoryParcelable",
   "linker_set_key" : "_ZN6aaudio22SharedMemoryParcelableD1Ev",
   "parameters" :
   [
    {
     "is_this_ptr" : true,
     "referenced_type" : "type-579"
    }
   ],
   "return_type" : "type-54",
   "source_file" : "/frameworks/av/media/libaaudio/src/binding/SharedMemoryParcelable.h"
  },
  {
   "function_name" : "aaudio::SharedMemoryParcelable::~SharedMemoryParcelable",
   "linker_set_key" : "_ZN6aaudio22SharedMemoryParcelableD2Ev",
   "parameters" :
   [
    {
     "is_this_ptr" : true,
     "referenced_type" : "type-579"
    }
   ],
   "return_type" : "type-54",
   "source_file" : "/frameworks/av/media/libaaudio/src/binding/SharedMemoryParcelable.h"
  },
  {
   "function_name" : "aaudio::SharedRegionParcelable::readFromParcel",
   "linker_set_key" : "_ZN6aaudio22SharedRegionParcelable14readFromParcelEPKN7android6ParcelE",
   "parameters" :
   [
    {
     "is_this_ptr" : true,
     "referenced_type" : "type-591"
    },
    {
     "referenced_type" : "type-598"
    }
   ],
   "return_type" : "type-4",
   "source_file" : "/frameworks/av/media/libaaudio/src/binding/SharedRegionParcelable.h"
  },
  {
   "function_name" : "aaudio::SharedRegionParcelable::dump",
   "linker_set_key" : "_ZN6aaudio22SharedRegionParcelable4dumpEv",
   "parameters" :
   [
    {
     "is_this_ptr" : true,
     "referenced_type" : "type-591"
    }
   ],
   "return_type" : "type-54",
   "source_file" : "/frameworks/av/media/libaaudio/src/binding/SharedRegionParcelable.h"
  },
  {
   "function_name" : "aaudio::SharedRegionParcelable::setup",
   "linker_set_key" : "_ZN6aaudio22SharedRegionParcelable5setupEiii",
   "parameters" :
   [
    {
     "is_this_ptr" : true,
     "referenced_type" : "type-591"
    },
    {
     "referenced_type" : "type-4"
    },
    {
     "referenced_type" : "type-4"
    },
    {
     "referenced_type" : "type-4"
    }
   ],
   "return_type" : "type-54",
   "source_file" : "/frameworks/av/media/libaaudio/src/binding/SharedRegionParcelable.h"
  },
  {
   "function_name" : "aaudio::SharedRegionParcelable::resolve",
   "linker_set_key" : "_ZN6aaudio22SharedRegionParcelable7resolveEPNS_22SharedMemoryParcelableEPPv",
   "parameters" :
   [
    {
     "is_this_ptr" : true,
     "referenced_type" : "type-591"
    },
    {
     "referenced_type" : "type-579"
    },
    {
     "referenced_type" : "type-258"
    }
   ],
   "return_type" : "type-4",
   "source_file" : "/frameworks/av/media/libaaudio/src/binding/SharedRegionParcelable.h"
  },
  {
   "function_name" : "aaudio::SharedRegionParcelable::SharedRegionParcelable",
   "linker_set_key" : "_ZN6aaudio22SharedRegionParcelableC1Ev",
   "parameters" :
   [
    {
     "is_this_ptr" : true,
     "referenced_type" : "type-591"
    }
   ],
   "return_type" : "type-54",
   "source_file" : "/frameworks/av/media/libaaudio/src/binding/SharedRegionParcelable.h"
  },
  {
   "function_name" : "aaudio::SharedRegionParcelable::SharedRegionParcelable",
   "linker_set_key" : "_ZN6aaudio22SharedRegionParcelableC2Ev",
   "parameters" :
   [
    {
     "is_this_ptr" : true,
     "referenced_type" : "type-591"
    }
   ],
   "return_type" : "type-54",
   "source_file" : "/frameworks/av/media/libaaudio/src/binding/SharedRegionParcelable.h"
  },
  {
   "function_name" : "aaudio::SharedRegionParcelable::~SharedRegionParcelable",
   "linker_set_key" : "_ZN6aaudio22SharedRegionParcelableD0Ev",
   "parameters" :
   [
    {
     "is_this_ptr" : true,
     "referenced_type" : "type-591"
    }
   ],
   "return_type" : "type-54",
   "source_file" : "/frameworks/av/media/libaaudio/src/binding/SharedRegionParcelable.h"
  },
  {
   "function_name" : "aaudio::SharedRegionParcelable::~SharedRegionParcelable",
   "linker_set_key" : "_ZN6aaudio22SharedRegionParcelableD1Ev",
   "parameters" :
   [
    {
     "is_this_ptr" : true,
     "referenced_type" : "type-591"
    }
   ],
   "return_type" : "type-54",
   "source_file" : "/frameworks/av/media/libaaudio/src/binding/SharedRegionParcelable.h"
  },
  {
   "function_name" : "aaudio::SharedRegionParcelable::~SharedRegionParcelable",
   "linker_set_key" : "_ZN6aaudio22SharedRegionParcelableD2Ev",
   "parameters" :
   [
    {
     "is_this_ptr" : true,
     "referenced_type" : "type-591"
    }
   ],
   "return_type" : "type-54",
   "source_file" : "/frameworks/av/media/libaaudio/src/binding/SharedRegionParcelable.h"
  },
  {
   "function_name" : "aaudio::AudioEndpointParcelable::readFromParcel",
   "linker_set_key" : "_ZN6aaudio23AudioEndpointParcelable14readFromParcelEPKN7android6ParcelE",
   "parameters" :
   [
    {
     "is_this_ptr" : true,
     "referenced_type" : "type-481"
    },
    {
     "referenced_type" : "type-492"
    }
   ],
   "return_type" : "type-4",
   "source_file" : "/frameworks/av/media/libaaudio/src/binding/AudioEndpointParcelable.h"
  },
  {
   "function_name" : "aaudio::AudioEndpointParcelable::addFileDescriptor",
   "linker_set_key" : "_ZN6aaudio23AudioEndpointParcelable17addFileDescriptorERKN7android4base14unique_fd_implINS2_13DefaultCloserEEEi",
   "parameters" :
   [
    {
     "is_this_ptr" : true,
     "referenced_type" : "type-481"
    },
    {
     "referenced_type" : "type-484"
    },
    {
     "referenced_type" : "type-4"
    }
   ],
   "return_type" : "type-4",
   "source_file" : "/frameworks/av/media/libaaudio/src/binding/AudioEndpointParcelable.h"
  },
  {
   "function_name" : "aaudio::AudioEndpointParcelable::dump",
   "linker_set_key" : "_ZN6aaudio23AudioEndpointParcelable4dumpEv",
   "parameters" :
   [
    {
     "is_this_ptr" : true,
     "referenced_type" : "type-481"
    }
   ],
   "return_type" : "type-54",
   "source_file" : "/frameworks/av/media/libaaudio/src/binding/AudioEndpointParcelable.h"
  },
  {
   "function_name" : "aaudio::AudioEndpointParcelable::close",
   "linker_set_key" : "_ZN6aaudio23AudioEndpointParcelable5closeEv",
   "parameters" :
   [
    {
     "is_this_ptr" : true,
     "referenced_type" : "type-481"
    }
   ],
   "return_type" : "type-4",
   "source_file" : "/frameworks/av/media/libaaudio/src/binding/AudioEndpointParcelable.h"
  },
  {
   "function_name" : "aaudio::AudioEndpointParcelable::resolve",
   "linker_set_key" : "_ZN6aaudio23AudioEndpointParcelable7resolveEPNS_20EndpointDescriptor_sE",
   "parameters" :
   [
    {
     "is_this_ptr" : true,
     "referenced_type" : "type-481"
    },
    {
     "referenced_type" : "type-493"
    }
   ],
   "return_type" : "type-4",
   "source_file" : "/frameworks/av/media/libaaudio/src/binding/AudioEndpointParcelable.h"
  },
  {
   "function_name" : "aaudio::AudioEndpointParcelable::AudioEndpointParcelable",
   "linker_set_key" : "_ZN6aaudio23AudioEndpointParcelableC1Ev",
   "parameters" :
   [
    {
     "is_this_ptr" : true,
     "referenced_type" : "type-481"
    }
   ],
   "return_type" : "type-54",
   "source_file" : "/frameworks/av/media/libaaudio/src/binding/AudioEndpointParcelable.h"
  },
  {
   "function_name" : "aaudio::AudioEndpointParcelable::AudioEndpointParcelable",
   "linker_set_key" : "_ZN6aaudio23AudioEndpointParcelableC2Ev",
   "parameters" :
   [
    {
     "is_this_ptr" : true,
     "referenced_type" : "type-481"
    }
   ],
   "return_type" : "type-54",
   "source_file" : "/frameworks/av/media/libaaudio/src/binding/AudioEndpointParcelable.h"
  },
  {
   "function_name" : "aaudio::AudioEndpointParcelable::~AudioEndpointParcelable",
   "linker_set_key" : "_ZN6aaudio23AudioEndpointParcelableD0Ev",
   "parameters" :
   [
    {
     "is_this_ptr" : true,
     "referenced_type" : "type-481"
    }
   ],
   "return_type" : "type-54",
   "source_file" : "/frameworks/av/media/libaaudio/src/binding/AudioEndpointParcelable.h"
  },
  {
   "function_name" : "aaudio::AudioEndpointParcelable::~AudioEndpointParcelable",
   "linker_set_key" : "_ZN6aaudio23AudioEndpointParcelableD1Ev",
   "parameters" :
   [
    {
     "is_this_ptr" : true,
     "referenced_type" : "type-481"
    }
   ],
   "return_type" : "type-54",
   "source_file" : "/frameworks/av/media/libaaudio/src/binding/AudioEndpointParcelable.h"
  },
  {
   "function_name" : "aaudio::AudioEndpointParcelable::~AudioEndpointParcelable",
   "linker_set_key" : "_ZN6aaudio23AudioEndpointParcelableD2Ev",
   "parameters" :
   [
    {
     "is_this_ptr" : true,
     "referenced_type" : "type-481"
    }
   ],
   "return_type" : "type-54",
   "source_file" : "/frameworks/av/media/libaaudio/src/binding/AudioEndpointParcelable.h"
  },
  {
   "access" : "protected",
   "function_name" : "aaudio::AudioStreamInternalPlay::doSetVolume",
   "linker_set_key" : "_ZN6aaudio23AudioStreamInternalPlay11doSetVolumeEv",
   "parameters" :
   [
    {
     "is_this_ptr" : true,
     "referenced_type" : "type-472"
    }
   ],
   "return_type" : "type-4",
   "source_file" : "/frameworks/av/media/libaaudio/src/client/AudioStreamInternalPlay.h"
  },
  {
   "function_name" : "aaudio::AudioStreamInternalPlay::callbackLoop",
   "linker_set_key" : "_ZN6aaudio23AudioStreamInternalPlay12callbackLoopEv",
   "parameters" :
   [
    {
     "is_this_ptr" : true,
     "referenced_type" : "type-472"
    }
   ],
   "return_type" : "type-53",
   "source_file" : "/frameworks/av/media/libaaudio/src/client/AudioStreamInternalPlay.h"
  },
  {
   "function_name" : "aaudio::AudioStreamInternalPlay::requestFlush",
   "linker_set_key" : "_ZN6aaudio23AudioStreamInternalPlay12requestFlushEv",
   "parameters" :
   [
    {
     "is_this_ptr" : true,
     "referenced_type" : "type-472"
    }
   ],
   "return_type" : "type-4",
   "source_file" : "/frameworks/av/media/libaaudio/src/client/AudioStreamInternalPlay.h"
  },
  {
   "function_name" : "aaudio::AudioStreamInternalPlay::requestPause",
   "linker_set_key" : "_ZN6aaudio23AudioStreamInternalPlay12requestPauseEv",
   "parameters" :
   [
    {
     "is_this_ptr" : true,
     "referenced_type" : "type-472"
    }
   ],
   "return_type" : "type-4",
   "source_file" : "/frameworks/av/media/libaaudio/src/client/AudioStreamInternalPlay.h"
  },
  {
   "function_name" : "aaudio::AudioStreamInternalPlay::getFramesRead",
   "linker_set_key" : "_ZN6aaudio23AudioStreamInternalPlay13getFramesReadEv",
   "parameters" :
   [
    {
     "is_this_ptr" : true,
     "referenced_type" : "type-472"
    }
   ],
   "return_type" : "type-8",
   "source_file" : "/frameworks/av/media/libaaudio/src/client/AudioStreamInternalPlay.h"
  },
  {
   "access" : "protected",
   "function_name" : "aaudio::AudioStreamInternalPlay::processDataNow",
   "linker_set_key" : "_ZN6aaudio23AudioStreamInternalPlay14processDataNowEPvixPx",
   "parameters" :
   [
    {
     "is_this_ptr" : true,
     "referenced_type" : "type-472"
    },
    {
     "referenced_type" : "type-53"
    },
    {
     "referenced_type" : "type-4"
    },
    {
     "referenced_type" : "type-8"
    },
    {
     "referenced_type" : "type-41"
    }
   ],
   "return_type" : "type-4",
   "source_file" : "/frameworks/av/media/libaaudio/src/client/AudioStreamInternalPlay.h"
  },
  {
   "function_name" : "aaudio::AudioStreamInternalPlay::getFramesWritten",
   "linker_set_key" : "_ZN6aaudio23AudioStreamInternalPlay16getFramesWrittenEv",
   "parameters" :
   [
    {
     "is_this_ptr" : true,
     "referenced_type" : "type-472"
    }
   ],
   "return_type" : "type-8",
   "source_file" : "/frameworks/av/media/libaaudio/src/client/AudioStreamInternalPlay.h"
  },
  {
   "access" : "protected",
   "function_name" : "aaudio::AudioStreamInternalPlay::onFlushFromServer",
   "linker_set_key" : "_ZN6aaudio23AudioStreamInternalPlay17onFlushFromServerEv",
   "parameters" :
   [
    {
     "is_this_ptr" : true,
     "referenced_type" : "type-472"
    }
   ],
   "return_type" : "type-54",
   "source_file" : "/frameworks/av/media/libaaudio/src/client/AudioStreamInternalPlay.h"
  },
  {
   "access" : "private",
   "function_name" : "aaudio::AudioStreamInternalPlay::writeNowWithConversion",
   "linker_set_key" : "_ZN6aaudio23AudioStreamInternalPlay22writeNowWithConversionEPKvi",
   "parameters" :
   [
    {
     "is_this_ptr" : true,
     "referenced_type" : "type-472"
    },
    {
     "referenced_type" : "type-90"
    },
    {
     "referenced_type" : "type-4"
    }
   ],
   "return_type" : "type-4",
   "source_file" : "/frameworks/av/media/libaaudio/src/client/AudioStreamInternalPlay.h"
  },
  {
   "access" : "protected",
   "function_name" : "aaudio::AudioStreamInternalPlay::advanceClientToMatchServerPosition",
   "linker_set_key" : "_ZN6aaudio23AudioStreamInternalPlay34advanceClientToMatchServerPositionEv",
   "parameters" :
   [
    {
     "is_this_ptr" : true,
     "referenced_type" : "type-472"
    }
   ],
   "return_type" : "type-54",
   "source_file" : "/frameworks/av/media/libaaudio/src/client/AudioStreamInternalPlay.h"
  },
  {
   "function_name" : "aaudio::AudioStreamInternalPlay::open",
   "linker_set_key" : "_ZN6aaudio23AudioStreamInternalPlay4openERKNS_18AudioStreamBuilderE",
   "parameters" :
   [
    {
     "is_this_ptr" : true,
     "referenced_type" : "type-472"
    },
    {
     "referenced_type" : "type-475"
    }
   ],
   "return_type" : "type-4",
   "source_file" : "/frameworks/av/media/libaaudio/src/client/AudioStreamInternalPlay.h"
  },
  {
   "function_name" : "aaudio::AudioStreamInternalPlay::write",
   "linker_set_key" : "_ZN6aaudio23AudioStreamInternalPlay5writeEPKvix",
   "parameters" :
   [
    {
     "is_this_ptr" : true,
     "referenced_type" : "type-472"
    },
    {
     "referenced_type" : "type-90"
    },
    {
     "referenced_type" : "type-4"
    },
    {
     "referenced_type" : "type-8"
    }
   ],
   "return_type" : "type-4",
   "source_file" : "/frameworks/av/media/libaaudio/src/client/AudioStreamInternalPlay.h"
  },
  {
   "function_name" : "aaudio::AudioStreamInternalPlay::AudioStreamInternalPlay",
   "linker_set_key" : "_ZN6aaudio23AudioStreamInternalPlayC1ERNS_22AAudioServiceInterfaceEb",
   "parameters" :
   [
    {
     "is_this_ptr" : true,
     "referenced_type" : "type-472"
    },
    {
     "referenced_type" : "type-18"
    },
    {
     "default_arg" : true,
     "referenced_type" : "type-16"
    }
   ],
   "return_type" : "type-54",
   "source_file" : "/frameworks/av/media/libaaudio/src/client/AudioStreamInternalPlay.h"
  },
  {
   "function_name" : "aaudio::AudioStreamInternalPlay::AudioStreamInternalPlay",
   "linker_set_key" : "_ZN6aaudio23AudioStreamInternalPlayC2ERNS_22AAudioServiceInterfaceEb",
   "parameters" :
   [
    {
     "is_this_ptr" : true,
     "referenced_type" : "type-472"
    },
    {
     "referenced_type" : "type-18"
    },
    {
     "default_arg" : true,
     "referenced_type" : "type-16"
    }
   ],
   "return_type" : "type-54",
   "source_file" : "/frameworks/av/media/libaaudio/src/client/AudioStreamInternalPlay.h"
  },
  {
   "function_name" : "aaudio::AudioStreamInternalPlay::~AudioStreamInternalPlay",
   "linker_set_key" : "_ZN6aaudio23AudioStreamInternalPlayD0Ev",
   "parameters" :
   [
    {
     "is_this_ptr" : true,
     "referenced_type" : "type-472"
    }
   ],
   "return_type" : "type-54",
   "source_file" : "/frameworks/av/media/libaaudio/src/client/AudioStreamInternalPlay.h"
  },
  {
   "function_name" : "aaudio::AudioStreamInternalPlay::~AudioStreamInternalPlay",
   "linker_set_key" : "_ZN6aaudio23AudioStreamInternalPlayD1Ev",
   "parameters" :
   [
    {
     "is_this_ptr" : true,
     "referenced_type" : "type-472"
    }
   ],
   "return_type" : "type-54",
   "source_file" : "/frameworks/av/media/libaaudio/src/client/AudioStreamInternalPlay.h"
  },
  {
   "function_name" : "aaudio::AudioStreamInternalPlay::~AudioStreamInternalPlay",
   "linker_set_key" : "_ZN6aaudio23AudioStreamInternalPlayD2Ev",
   "parameters" :
   [
    {
     "is_this_ptr" : true,
     "referenced_type" : "type-472"
    }
   ],
   "return_type" : "type-54",
   "source_file" : "/frameworks/av/media/libaaudio/src/client/AudioStreamInternalPlay.h"
  },
  {
   "function_name" : "aaudio::AAudioStreamConfiguration::readFromParcel",
   "linker_set_key" : "_ZN6aaudio25AAudioStreamConfiguration14readFromParcelEPKN7android6ParcelE",
   "parameters" :
   [
    {
     "is_this_ptr" : true,
     "referenced_type" : "type-515"
    },
    {
     "referenced_type" : "type-521"
    }
   ],
   "return_type" : "type-4",
   "source_file" : "/frameworks/av/media/libaaudio/src/binding/AAudioStreamConfiguration.h"
  },
  {
   "function_name" : "aaudio::AAudioStreamConfiguration::AAudioStreamConfiguration",
   "linker_set_key" : "_ZN6aaudio25AAudioStreamConfigurationC1Ev",
   "parameters" :
   [
    {
     "is_this_ptr" : true,
     "referenced_type" : "type-515"
    }
   ],
   "return_type" : "type-54",
   "source_file" : "/frameworks/av/media/libaaudio/src/binding/AAudioStreamConfiguration.h"
  },
  {
   "function_name" : "aaudio::AAudioStreamConfiguration::AAudioStreamConfiguration",
   "linker_set_key" : "_ZN6aaudio25AAudioStreamConfigurationC2Ev",
   "parameters" :
   [
    {
     "is_this_ptr" : true,
     "referenced_type" : "type-515"
    }
   ],
   "return_type" : "type-54",
   "source_file" : "/frameworks/av/media/libaaudio/src/binding/AAudioStreamConfiguration.h"
  },
  {
   "function_name" : "aaudio::AAudioStreamConfiguration::~AAudioStreamConfiguration",
   "linker_set_key" : "_ZN6aaudio25AAudioStreamConfigurationD0Ev",
   "parameters" :
   [
    {
     "is_this_ptr" : true,
     "referenced_type" : "type-515"
    }
   ],
   "return_type" : "type-54",
   "source_file" : "/frameworks/av/media/libaaudio/src/binding/AAudioStreamConfiguration.h"
  },
  {
   "function_name" : "aaudio::AAudioStreamConfiguration::~AAudioStreamConfiguration",
   "linker_set_key" : "_ZN6aaudio25AAudioStreamConfigurationD1Ev",
   "parameters" :
   [
    {
     "is_this_ptr" : true,
     "referenced_type" : "type-515"
    }
   ],
   "return_type" : "type-54",
   "source_file" : "/frameworks/av/media/libaaudio/src/binding/AAudioStreamConfiguration.h"
  },
  {
   "function_name" : "aaudio::AAudioStreamConfiguration::~AAudioStreamConfiguration",
   "linker_set_key" : "_ZN6aaudio25AAudioStreamConfigurationD2Ev",
   "parameters" :
   [
    {
     "is_this_ptr" : true,
     "referenced_type" : "type-515"
    }
   ],
   "return_type" : "type-54",
   "source_file" : "/frameworks/av/media/libaaudio/src/binding/AAudioStreamConfiguration.h"
  },
  {
   "function_name" : "aaudio::AudioStreamInternalCapture::callbackLoop",
   "linker_set_key" : "_ZN6aaudio26AudioStreamInternalCapture12callbackLoopEv",
   "parameters" :
   [
    {
     "is_this_ptr" : true,
     "referenced_type" : "type-460"
    }
   ],
   "return_type" : "type-53",
   "source_file" : "/frameworks/av/media/libaaudio/src/client/AudioStreamInternalCapture.h"
  },
  {
   "function_name" : "aaudio::AudioStreamInternalCapture::getFramesRead",
   "linker_set_key" : "_ZN6aaudio26AudioStreamInternalCapture13getFramesReadEv",
   "parameters" :
   [
    {
     "is_this_ptr" : true,
     "referenced_type" : "type-460"
    }
   ],
   "return_type" : "type-8",
   "source_file" : "/frameworks/av/media/libaaudio/src/client/AudioStreamInternalCapture.h"
  },
  {
   "access" : "protected",
   "function_name" : "aaudio::AudioStreamInternalCapture::processDataNow",
   "linker_set_key" : "_ZN6aaudio26AudioStreamInternalCapture14processDataNowEPvixPx",
   "parameters" :
   [
    {
     "is_this_ptr" : true,
     "referenced_type" : "type-460"
    },
    {
     "referenced_type" : "type-53"
    },
    {
     "referenced_type" : "type-4"
    },
    {
     "referenced_type" : "type-8"
    },
    {
     "referenced_type" : "type-41"
    }
   ],
   "return_type" : "type-4",
   "source_file" : "/frameworks/av/media/libaaudio/src/client/AudioStreamInternalCapture.h"
  },
  {
   "function_name" : "aaudio::AudioStreamInternalCapture::getFramesWritten",
   "linker_set_key" : "_ZN6aaudio26AudioStreamInternalCapture16getFramesWrittenEv",
   "parameters" :
   [
    {
     "is_this_ptr" : true,
     "referenced_type" : "type-460"
    }
   ],
   "return_type" : "type-8",
   "source_file" : "/frameworks/av/media/libaaudio/src/client/AudioStreamInternalCapture.h"
  },
  {
   "access" : "private",
   "function_name" : "aaudio::AudioStreamInternalCapture::readNowWithConversion",
   "linker_set_key" : "_ZN6aaudio26AudioStreamInternalCapture21readNowWithConversionEPvi",
   "parameters" :
   [
    {
     "is_this_ptr" : true,
     "referenced_type" : "type-460"
    },
    {
     "referenced_type" : "type-53"
    },
    {
     "referenced_type" : "type-4"
    }
   ],
   "return_type" : "type-4",
   "source_file" : "/frameworks/av/media/libaaudio/src/client/AudioStreamInternalCapture.h"
  },
  {
   "access" : "protected",
   "function_name" : "aaudio::AudioStreamInternalCapture::advanceClientToMatchServerPosition",
   "linker_set_key" : "_ZN6aaudio26AudioStreamInternalCapture34advanceClientToMatchServerPositionEv",
   "parameters" :
   [
    {
     "is_this_ptr" : true,
     "referenced_type" : "type-460"
    }
   ],
   "return_type" : "type-54",
   "source_file" : "/frameworks/av/media/libaaudio/src/client/AudioStreamInternalCapture.h"
  },
  {
   "function_name" : "aaudio::AudioStreamInternalCapture::read",
   "linker_set_key" : "_ZN6aaudio26AudioStreamInternalCapture4readEPvix",
   "parameters" :
   [
    {
     "is_this_ptr" : true,
     "referenced_type" : "type-460"
    },
    {
     "referenced_type" : "type-53"
    },
    {
     "referenced_type" : "type-4"
    },
    {
     "referenced_type" : "type-8"
    }
   ],
   "return_type" : "type-4",
   "source_file" : "/frameworks/av/media/libaaudio/src/client/AudioStreamInternalCapture.h"
  },
  {
   "function_name" : "aaudio::AudioStreamInternalCapture::AudioStreamInternalCapture",
   "linker_set_key" : "_ZN6aaudio26AudioStreamInternalCaptureC1ERNS_22AAudioServiceInterfaceEb",
   "parameters" :
   [
    {
     "is_this_ptr" : true,
     "referenced_type" : "type-460"
    },
    {
     "referenced_type" : "type-18"
    },
    {
     "default_arg" : true,
     "referenced_type" : "type-16"
    }
   ],
   "return_type" : "type-54",
   "source_file" : "/frameworks/av/media/libaaudio/src/client/AudioStreamInternalCapture.h"
  },
  {
   "function_name" : "aaudio::AudioStreamInternalCapture::AudioStreamInternalCapture",
   "linker_set_key" : "_ZN6aaudio26AudioStreamInternalCaptureC2ERNS_22AAudioServiceInterfaceEb",
   "parameters" :
   [
    {
     "is_this_ptr" : true,
     "referenced_type" : "type-460"
    },
    {
     "referenced_type" : "type-18"
    },
    {
     "default_arg" : true,
     "referenced_type" : "type-16"
    }
   ],
   "return_type" : "type-54",
   "source_file" : "/frameworks/av/media/libaaudio/src/client/AudioStreamInternalCapture.h"
  },
  {
   "function_name" : "aaudio::AudioStreamInternalCapture::~AudioStreamInternalCapture",
   "linker_set_key" : "_ZN6aaudio26AudioStreamInternalCaptureD0Ev",
   "parameters" :
   [
    {
     "is_this_ptr" : true,
     "referenced_type" : "type-460"
    }
   ],
   "return_type" : "type-54",
   "source_file" : "/frameworks/av/media/libaaudio/src/client/AudioStreamInternalCapture.h"
  },
  {
   "function_name" : "aaudio::AudioStreamInternalCapture::~AudioStreamInternalCapture",
   "linker_set_key" : "_ZN6aaudio26AudioStreamInternalCaptureD1Ev",
   "parameters" :
   [
    {
     "is_this_ptr" : true,
     "referenced_type" : "type-460"
    }
   ],
   "return_type" : "type-54",
   "source_file" : "/frameworks/av/media/libaaudio/src/client/AudioStreamInternalCapture.h"
  },
  {
   "function_name" : "aaudio::AudioStreamInternalCapture::~AudioStreamInternalCapture",
   "linker_set_key" : "_ZN6aaudio26AudioStreamInternalCaptureD2Ev",
   "parameters" :
   [
    {
     "is_this_ptr" : true,
     "referenced_type" : "type-460"
    }
   ],
   "return_type" : "type-54",
   "source_file" : "/frameworks/av/media/libaaudio/src/client/AudioStreamInternalCapture.h"
  },
  {
   "function_name" : "android::FifoBuffer::eraseMemory",
   "linker_set_key" : "_ZN7android10FifoBuffer11eraseMemoryEv",
   "parameters" :
   [
    {
     "is_this_ptr" : true,
     "referenced_type" : "type-11"
    }
   ],
   "return_type" : "type-54",
   "source_file" : "/frameworks/av/media/libaaudio/src/fifo/FifoBuffer.h"
  },
  {
   "function_name" : "android::FifoBuffer::getThreshold",
   "linker_set_key" : "_ZN7android10FifoBuffer12getThresholdEv",
   "parameters" :
   [
    {
     "is_this_ptr" : true,
     "referenced_type" : "type-11"
    }
   ],
   "return_type" : "type-4",
   "source_file" : "/frameworks/av/media/libaaudio/src/fifo/FifoBuffer.h"
  },
  {
   "function_name" : "android::FifoBuffer::setThreshold",
   "linker_set_key" : "_ZN7android10FifoBuffer12setThresholdEi",
   "parameters" :
   [
    {
     "is_this_ptr" : true,
     "referenced_type" : "type-11"
    },
    {
     "referenced_type" : "type-4"
    }
   ],
   "return_type" : "type-54",
   "source_file" : "/frameworks/av/media/libaaudio/src/fifo/FifoBuffer.h"
  },
  {
   "access" : "private",
   "function_name" : "android::FifoBuffer::fillWrappingBuffer",
   "linker_set_key" : "_ZN7android10FifoBuffer18fillWrappingBufferEPNS_14WrappingBufferEii",
   "parameters" :
   [
    {
     "is_this_ptr" : true,
     "referenced_type" : "type-11"
    },
    {
     "referenced_type" : "type-254"
    },
    {
     "referenced_type" : "type-4"
    },
    {
     "referenced_type" : "type-4"
    }
   ],
   "return_type" : "type-54",
   "source_file" : "/frameworks/av/media/libaaudio/src/fifo/FifoBuffer.h"
  },
  {
   "function_name" : "android::FifoBuffer::convertFramesToBytes",
   "linker_set_key" : "_ZN7android10FifoBuffer20convertFramesToBytesEi",
   "parameters" :
   [
    {
     "is_this_ptr" : true,
     "referenced_type" : "type-11"
    },
    {
     "referenced_type" : "type-4"
    }
   ],
   "return_type" : "type-4",
   "source_file" : "/frameworks/av/media/libaaudio/src/fifo/FifoBuffer.h"
  },
  {
   "function_name" : "android::FifoBuffer::getFullDataAvailable",
   "linker_set_key" : "_ZN7android10FifoBuffer20getFullDataAvailableEPNS_14WrappingBufferE",
   "parameters" :
   [
    {
     "is_this_ptr" : true,
     "referenced_type" : "type-11"
    },
    {
     "referenced_type" : "type-254"
    }
   ],
   "return_type" : "type-4",
   "source_file" : "/frameworks/av/media/libaaudio/src/fifo/FifoBuffer.h"
  },
  {
   "function_name" : "android::FifoBuffer::getEmptyRoomAvailable",
   "linker_set_key" : "_ZN7android10FifoBuffer21getEmptyRoomAvailableEPNS_14WrappingBufferE",
   "parameters" :
   [
    {
     "is_this_ptr" : true,
     "referenced_type" : "type-11"
    },
    {
     "referenced_type" : "type-254"
    }
   ],
   "return_type" : "type-4",
   "source_file" : "/frameworks/av/media/libaaudio/src/fifo/FifoBuffer.h"
  },
  {
   "function_name" : "android::FifoBuffer::getBufferCapacityInFrames",
   "linker_set_key" : "_ZN7android10FifoBuffer25getBufferCapacityInFramesEv",
   "parameters" :
   [
    {
     "is_this_ptr" : true,
     "referenced_type" : "type-11"
    }
   ],
   "return_type" : "type-4",
   "source_file" : "/frameworks/av/media/libaaudio/src/fifo/FifoBuffer.h"
  },
  {
   "function_name" : "android::FifoBuffer::read",
   "linker_set_key" : "_ZN7android10FifoBuffer4readEPvi",
   "parameters" :
   [
    {
     "is_this_ptr" : true,
     "referenced_type" : "type-11"
    },
    {
     "referenced_type" : "type-53"
    },
    {
     "referenced_type" : "type-4"
    }
   ],
   "return_type" : "type-4",
   "source_file" : "/frameworks/av/media/libaaudio/src/fifo/FifoBuffer.h"
  },
  {
   "function_name" : "android::FifoBuffer::write",
   "linker_set_key" : "_ZN7android10FifoBuffer5writeEPKvi",
   "parameters" :
   [
    {
     "is_this_ptr" : true,
     "referenced_type" : "type-11"
    },
    {
     "referenced_type" : "type-90"
    },
    {
     "referenced_type" : "type-4"
    }
   ],
   "return_type" : "type-4",
   "source_file" : "/frameworks/av/media/libaaudio/src/fifo/FifoBuffer.h"
  },
  {
   "function_name" : "android::FifoBuffer::FifoBuffer",
   "linker_set_key" : "_ZN7android10FifoBufferC1Eii",
   "parameters" :
   [
    {
     "is_this_ptr" : true,
     "referenced_type" : "type-11"
    },
    {
     "referenced_type" : "type-4"
    },
    {
     "referenced_type" : "type-4"
    }
   ],
   "return_type" : "type-54",
   "source_file" : "/frameworks/av/media/libaaudio/src/fifo/FifoBuffer.h"
  },
  {
   "function_name" : "android::FifoBuffer::FifoBuffer",
   "linker_set_key" : "_ZN7android10FifoBufferC1EiiPxS1_Pv",
   "parameters" :
   [
    {
     "is_this_ptr" : true,
     "referenced_type" : "type-11"
    },
    {
     "referenced_type" : "type-4"
    },
    {
     "referenced_type" : "type-4"
    },
    {
     "referenced_type" : "type-41"
    },
    {
     "referenced_type" : "type-41"
    },
    {
     "referenced_type" : "type-53"
    }
   ],
   "return_type" : "type-54",
   "source_file" : "/frameworks/av/media/libaaudio/src/fifo/FifoBuffer.h"
  },
  {
   "function_name" : "android::FifoBuffer::FifoBuffer",
   "linker_set_key" : "_ZN7android10FifoBufferC2Eii",
   "parameters" :
   [
    {
     "is_this_ptr" : true,
     "referenced_type" : "type-11"
    },
    {
     "referenced_type" : "type-4"
    },
    {
     "referenced_type" : "type-4"
    }
   ],
   "return_type" : "type-54",
   "source_file" : "/frameworks/av/media/libaaudio/src/fifo/FifoBuffer.h"
  },
  {
   "function_name" : "android::FifoBuffer::FifoBuffer",
   "linker_set_key" : "_ZN7android10FifoBufferC2EiiPxS1_Pv",
   "parameters" :
   [
    {
     "is_this_ptr" : true,
     "referenced_type" : "type-11"
    },
    {
     "referenced_type" : "type-4"
    },
    {
     "referenced_type" : "type-4"
    },
    {
     "referenced_type" : "type-41"
    },
    {
     "referenced_type" : "type-41"
    },
    {
     "referenced_type" : "type-53"
    }
   ],
   "return_type" : "type-54",
   "source_file" : "/frameworks/av/media/libaaudio/src/fifo/FifoBuffer.h"
  },
  {
   "function_name" : "android::FifoBuffer::~FifoBuffer",
   "linker_set_key" : "_ZN7android10FifoBufferD1Ev",
   "parameters" :
   [
    {
     "is_this_ptr" : true,
     "referenced_type" : "type-11"
    }
   ],
   "return_type" : "type-54",
   "source_file" : "/frameworks/av/media/libaaudio/src/fifo/FifoBuffer.h"
  },
  {
   "function_name" : "android::FifoBuffer::~FifoBuffer",
   "linker_set_key" : "_ZN7android10FifoBufferD2Ev",
   "parameters" :
   [
    {
     "is_this_ptr" : true,
     "referenced_type" : "type-11"
    }
   ],
   "return_type" : "type-54",
   "source_file" : "/frameworks/av/media/libaaudio/src/fifo/FifoBuffer.h"
  },
  {
   "function_name" : "android::IAAudioClient::asInterface",
   "linker_set_key" : "_ZN7android13IAAudioClient11asInterfaceERKNS_2spINS_7IBinderEEE",
   "parameters" :
   [
    {
     "referenced_type" : "type-528"
    }
   ],
   "return_type" : "type-600",
   "source_file" : "/frameworks/av/media/libaaudio/src/binding/IAAudioClient.h"
  },
  {
   "function_name" : "android::IAAudioClient::getDefaultImpl",
   "linker_set_key" : "_ZN7android13IAAudioClient14getDefaultImplEv",
   "return_type" : "type-533",
   "source_file" : "/frameworks/av/media/libaaudio/src/binding/IAAudioClient.h"
  },
  {
   "function_name" : "android::IAAudioClient::setDefaultImpl",
   "linker_set_key" : "_ZN7android13IAAudioClient14setDefaultImplENSt3__110unique_ptrIS0_NS1_14default_deleteIS0_EEEE",
   "parameters" :
   [
    {
     "referenced_type" : "type-601"
    }
   ],
   "return_type" : "type-16",
   "source_file" : "/frameworks/av/media/libaaudio/src/binding/IAAudioClient.h"
  },
  {
   "function_name" : "android::IAAudioClient::IAAudioClient",
   "linker_set_key" : "_ZN7android13IAAudioClientC2Ev",
   "parameters" :
   [
    {
     "is_this_ptr" : true,
     "referenced_type" : "type-532"
    }
   ],
   "return_type" : "type-54",
   "source_file" : "/frameworks/av/media/libaaudio/src/binding/IAAudioClient.h"
  },
  {
   "function_name" : "android::IAAudioClient::~IAAudioClient",
   "linker_set_key" : "_ZN7android13IAAudioClientD0Ev",
   "parameters" :
   [
    {
     "is_this_ptr" : true,
     "referenced_type" : "type-532"
    }
   ],
   "return_type" : "type-54",
   "source_file" : "/frameworks/av/media/libaaudio/src/binding/IAAudioClient.h"
  },
  {
   "function_name" : "android::IAAudioClient::~IAAudioClient",
   "linker_set_key" : "_ZN7android13IAAudioClientD1Ev",
   "parameters" :
   [
    {
     "is_this_ptr" : true,
     "referenced_type" : "type-532"
    }
   ],
   "return_type" : "type-54",
   "source_file" : "/frameworks/av/media/libaaudio/src/binding/IAAudioClient.h"
  },
  {
   "function_name" : "android::IAAudioClient::~IAAudioClient",
   "linker_set_key" : "_ZN7android13IAAudioClientD2Ev",
   "parameters" :
   [
    {
     "is_this_ptr" : true,
     "referenced_type" : "type-532"
    }
   ],
   "return_type" : "type-54",
   "source_file" : "/frameworks/av/media/libaaudio/src/binding/IAAudioClient.h"
  },
  {
   "function_name" : "android::BnAAudioClient::onTransact",
   "linker_set_key" : "_ZN7android14BnAAudioClient10onTransactEjRKNS_6ParcelEPS1_j",
   "parameters" :
   [
    {
     "is_this_ptr" : true,
     "referenced_type" : "type-536"
    },
    {
     "referenced_type" : "type-1"
    },
    {
     "referenced_type" : "type-539"
    },
    {
     "referenced_type" : "type-540"
    },
    {
     "default_arg" : true,
     "referenced_type" : "type-1"
    }
   ],
   "return_type" : "type-4",
   "source_file" : "/frameworks/av/media/libaaudio/src/binding/IAAudioClient.h"
  },
  {
   "function_name" : "android::IAAudioService::asInterface",
   "linker_set_key" : "_ZN7android14IAAudioService11asInterfaceERKNS_2spINS_7IBinderEEE",
   "parameters" :
   [
    {
     "referenced_type" : "type-557"
    }
   ],
   "return_type" : "type-602",
   "source_file" : "/frameworks/av/media/libaaudio/src/binding/IAAudioService.h"
  },
  {
   "function_name" : "android::IAAudioService::getDefaultImpl",
   "linker_set_key" : "_ZN7android14IAAudioService14getDefaultImplEv",
   "return_type" : "type-562",
   "source_file" : "/frameworks/av/media/libaaudio/src/binding/IAAudioService.h"
  },
  {
   "function_name" : "android::IAAudioService::setDefaultImpl",
   "linker_set_key" : "_ZN7android14IAAudioService14setDefaultImplENSt3__110unique_ptrIS0_NS1_14default_deleteIS0_EEEE",
   "parameters" :
   [
    {
     "referenced_type" : "type-603"
    }
   ],
   "return_type" : "type-16",
   "source_file" : "/frameworks/av/media/libaaudio/src/binding/IAAudioService.h"
  },
  {
   "function_name" : "android::IAAudioService::IAAudioService",
   "linker_set_key" : "_ZN7android14IAAudioServiceC2Ev",
   "parameters" :
   [
    {
     "is_this_ptr" : true,
     "referenced_type" : "type-561"
    }
   ],
   "return_type" : "type-54",
   "source_file" : "/frameworks/av/media/libaaudio/src/binding/IAAudioService.h"
  },
  {
   "function_name" : "android::IAAudioService::~IAAudioService",
   "linker_set_key" : "_ZN7android14IAAudioServiceD0Ev",
   "parameters" :
   [
    {
     "is_this_ptr" : true,
     "referenced_type" : "type-561"
    }
   ],
   "return_type" : "type-54",
   "source_file" : "/frameworks/av/media/libaaudio/src/binding/IAAudioService.h"
  },
  {
   "function_name" : "android::IAAudioService::~IAAudioService",
   "linker_set_key" : "_ZN7android14IAAudioServiceD1Ev",
   "parameters" :
   [
    {
     "is_this_ptr" : true,
     "referenced_type" : "type-561"
    }
   ],
   "return_type" : "type-54",
   "source_file" : "/frameworks/av/media/libaaudio/src/binding/IAAudioService.h"
  },
  {
   "function_name" : "android::IAAudioService::~IAAudioService",
   "linker_set_key" : "_ZN7android14IAAudioServiceD2Ev",
   "parameters" :
   [
    {
     "is_this_ptr" : true,
     "referenced_type" : "type-561"
    }
   ],
   "return_type" : "type-54",
   "source_file" : "/frameworks/av/media/libaaudio/src/binding/IAAudioService.h"
  },
  {
   "function_name" : "android::BnAAudioService::onTransact",
   "linker_set_key" : "_ZN7android15BnAAudioService10onTransactEjRKNS_6ParcelEPS1_j",
   "parameters" :
   [
    {
     "is_this_ptr" : true,
     "referenced_type" : "type-565"
    },
    {
     "referenced_type" : "type-1"
    },
    {
     "referenced_type" : "type-568"
    },
    {
     "referenced_type" : "type-569"
    },
    {
     "default_arg" : true,
     "referenced_type" : "type-1"
    }
   ],
   "return_type" : "type-4",
   "source_file" : "/frameworks/av/media/libaaudio/src/binding/IAAudioService.h"
  },
  {
   "function_name" : "android::FifoControllerBase::getReadIndex",
   "linker_set_key" : "_ZN7android18FifoControllerBase12getReadIndexEv",
   "parameters" :
   [
    {
     "is_this_ptr" : true,
     "referenced_type" : "type-260"
    }
   ],
   "return_type" : "type-4",
   "source_file" : "/frameworks/av/media/libaaudio/src/fifo/FifoControllerBase.h"
  },
  {
   "function_name" : "android::FifoControllerBase::setThreshold",
   "linker_set_key" : "_ZN7android18FifoControllerBase12setThresholdEi",
   "parameters" :
   [
    {
     "is_this_ptr" : true,
     "referenced_type" : "type-260"
    },
    {
     "referenced_type" : "type-4"
    }
   ],
   "return_type" : "type-54",
   "source_file" : "/frameworks/av/media/libaaudio/src/fifo/FifoControllerBase.h"
  },
  {
   "function_name" : "android::FifoControllerBase::getWriteIndex",
   "linker_set_key" : "_ZN7android18FifoControllerBase13getWriteIndexEv",
   "parameters" :
   [
    {
     "is_this_ptr" : true,
     "referenced_type" : "type-260"
    }
   ],
   "return_type" : "type-4",
   "source_file" : "/frameworks/av/media/libaaudio/src/fifo/FifoControllerBase.h"
  },
  {
   "function_name" : "android::FifoControllerBase::advanceReadIndex",
   "linker_set_key" : "_ZN7android18FifoControllerBase16advanceReadIndexEi",
   "parameters" :
   [
    {
     "is_this_ptr" : true,
     "referenced_type" : "type-260"
    },
    {
     "referenced_type" : "type-4"
    }
   ],
   "return_type" : "type-54",
   "source_file" : "/frameworks/av/media/libaaudio/src/fifo/FifoControllerBase.h"
  },
  {
   "function_name" : "android::FifoControllerBase::advanceWriteIndex",
   "linker_set_key" : "_ZN7android18FifoControllerBase17advanceWriteIndexEi",
   "parameters" :
   [
    {
     "is_this_ptr" : true,
     "referenced_type" : "type-260"
    },
    {
     "referenced_type" : "type-4"
    }
   ],
   "return_type" : "type-54",
   "source_file" : "/frameworks/av/media/libaaudio/src/fifo/FifoControllerBase.h"
  },
  {
   "function_name" : "android::FifoControllerBase::getFullFramesAvailable",
   "linker_set_key" : "_ZN7android18FifoControllerBase22getFullFramesAvailableEv",
   "parameters" :
   [
    {
     "is_this_ptr" : true,
     "referenced_type" : "type-260"
    }
   ],
   "return_type" : "type-4",
   "source_file" : "/frameworks/av/media/libaaudio/src/fifo/FifoControllerBase.h"
  },
  {
   "function_name" : "android::FifoControllerBase::getEmptyFramesAvailable",
   "linker_set_key" : "_ZN7android18FifoControllerBase23getEmptyFramesAvailableEv",
   "parameters" :
   [
    {
     "is_this_ptr" : true,
     "referenced_type" : "type-260"
    }
   ],
   "return_type" : "type-4",
   "source_file" : "/frameworks/av/media/libaaudio/src/fifo/FifoControllerBase.h"
  },
  {
   "function_name" : "android::FifoControllerBase::FifoControllerBase",
   "linker_set_key" : "_ZN7android18FifoControllerBaseC2Eii",
   "parameters" :
   [
    {
     "is_this_ptr" : true,
     "referenced_type" : "type-260"
    },
    {
     "referenced_type" : "type-4"
    },
    {
     "referenced_type" : "type-4"
    }
   ],
   "return_type" : "type-54",
   "source_file" : "/frameworks/av/media/libaaudio/src/fifo/FifoControllerBase.h"
  },
  {
   "function_name" : "android::FifoControllerBase::~FifoControllerBase",
   "linker_set_key" : "_ZN7android18FifoControllerBaseD0Ev",
   "parameters" :
   [
    {
     "is_this_ptr" : true,
     "referenced_type" : "type-260"
    }
   ],
   "return_type" : "type-54",
   "source_file" : "/frameworks/av/media/libaaudio/src/fifo/FifoControllerBase.h"
  },
  {
   "function_name" : "android::FifoControllerBase::~FifoControllerBase",
   "linker_set_key" : "_ZN7android18FifoControllerBaseD1Ev",
   "parameters" :
   [
    {
     "is_this_ptr" : true,
     "referenced_type" : "type-260"
    }
   ],
   "return_type" : "type-54",
   "source_file" : "/frameworks/av/media/libaaudio/src/fifo/FifoControllerBase.h"
  },
  {
   "function_name" : "android::FifoControllerBase::~FifoControllerBase",
   "linker_set_key" : "_ZN7android18FifoControllerBaseD2Ev",
   "parameters" :
   [
    {
     "is_this_ptr" : true,
     "referenced_type" : "type-260"
    }
   ],
   "return_type" : "type-54",
   "source_file" : "/frameworks/av/media/libaaudio/src/fifo/FifoControllerBase.h"
  },
  {
   "function_name" : "flowgraph::RampLinear::setLengthInFrames",
   "linker_set_key" : "_ZN9flowgraph10RampLinear17setLengthInFramesEi",
   "parameters" :
   [
    {
     "is_this_ptr" : true,
     "referenced_type" : "type-103"
    },
    {
     "referenced_type" : "type-4"
    }
   ],
   "return_type" : "type-54",
   "source_file" : "/frameworks/av/media/libaaudio/src/flowgraph/RampLinear.h"
  },
  {
   "access" : "private",
   "function_name" : "flowgraph::RampLinear::interpolateCurrent",
   "linker_set_key" : "_ZN9flowgraph10RampLinear18interpolateCurrentEv",
   "parameters" :
   [
    {
     "is_this_ptr" : true,
     "referenced_type" : "type-103"
    }
   ],
   "return_type" : "type-27",
   "source_file" : "/frameworks/av/media/libaaudio/src/flowgraph/RampLinear.h"
  },
  {
   "function_name" : "flowgraph::RampLinear::onProcess",
   "linker_set_key" : "_ZN9flowgraph10RampLinear9onProcessExi",
   "parameters" :
   [
    {
     "is_this_ptr" : true,
     "referenced_type" : "type-103"
    },
    {
     "referenced_type" : "type-8"
    },
    {
     "referenced_type" : "type-4"
    }
   ],
   "return_type" : "type-4",
   "source_file" : "/frameworks/av/media/libaaudio/src/flowgraph/RampLinear.h"
  },
  {
   "function_name" : "flowgraph::RampLinear::setTarget",
   "linker_set_key" : "_ZN9flowgraph10RampLinear9setTargetEf",
   "parameters" :
   [
    {
     "is_this_ptr" : true,
     "referenced_type" : "type-103"
    },
    {
     "referenced_type" : "type-27"
    }
   ],
   "return_type" : "type-54",
   "source_file" : "/frameworks/av/media/libaaudio/src/flowgraph/RampLinear.h"
  },
  {
   "function_name" : "flowgraph::RampLinear::RampLinear",
   "linker_set_key" : "_ZN9flowgraph10RampLinearC1Ei",
   "parameters" :
   [
    {
     "is_this_ptr" : true,
     "referenced_type" : "type-103"
    },
    {
     "referenced_type" : "type-4"
    }
   ],
   "return_type" : "type-54",
   "source_file" : "/frameworks/av/media/libaaudio/src/flowgraph/RampLinear.h"
  },
  {
   "function_name" : "flowgraph::RampLinear::RampLinear",
   "linker_set_key" : "_ZN9flowgraph10RampLinearC2Ei",
   "parameters" :
   [
    {
     "is_this_ptr" : true,
     "referenced_type" : "type-103"
    },
    {
     "referenced_type" : "type-4"
    }
   ],
   "return_type" : "type-54",
   "source_file" : "/frameworks/av/media/libaaudio/src/flowgraph/RampLinear.h"
  },
  {
   "function_name" : "flowgraph::ClipToRange::onProcess",
   "linker_set_key" : "_ZN9flowgraph11ClipToRange9onProcessExi",
   "parameters" :
   [
    {
     "is_this_ptr" : true,
     "referenced_type" : "type-97"
    },
    {
     "referenced_type" : "type-8"
    },
    {
     "referenced_type" : "type-4"
    }
   ],
   "return_type" : "type-4",
   "source_file" : "/frameworks/av/media/libaaudio/src/flowgraph/ClipToRange.h"
  },
  {
   "function_name" : "flowgraph::ClipToRange::ClipToRange",
   "linker_set_key" : "_ZN9flowgraph11ClipToRangeC1Ei",
   "parameters" :
   [
    {
     "is_this_ptr" : true,
     "referenced_type" : "type-97"
    },
    {
     "referenced_type" : "type-4"
    }
   ],
   "return_type" : "type-54",
   "source_file" : "/frameworks/av/media/libaaudio/src/flowgraph/ClipToRange.h"
  },
  {
   "function_name" : "flowgraph::ClipToRange::ClipToRange",
   "linker_set_key" : "_ZN9flowgraph11ClipToRangeC2Ei",
   "parameters" :
   [
    {
     "is_this_ptr" : true,
     "referenced_type" : "type-97"
    },
    {
     "referenced_type" : "type-4"
    }
   ],
   "return_type" : "type-54",
   "source_file" : "/frameworks/av/media/libaaudio/src/flowgraph/ClipToRange.h"
  },
  {
   "function_name" : "flowgraph::SourceFloat::onProcess",
   "linker_set_key" : "_ZN9flowgraph11SourceFloat9onProcessExi",
   "parameters" :
   [
    {
     "is_this_ptr" : true,
     "referenced_type" : "type-1125"
    },
    {
     "referenced_type" : "type-8"
    },
    {
     "referenced_type" : "type-4"
    }
   ],
   "return_type" : "type-4",
   "source_file" : "/frameworks/av/media/libaaudio/src/flowgraph/SourceFloat.h"
  },
  {
   "function_name" : "flowgraph::SourceFloat::SourceFloat",
   "linker_set_key" : "_ZN9flowgraph11SourceFloatC1Ei",
   "parameters" :
   [
    {
     "is_this_ptr" : true,
     "referenced_type" : "type-1125"
    },
    {
     "referenced_type" : "type-4"
    }
   ],
   "return_type" : "type-54",
   "source_file" : "/frameworks/av/media/libaaudio/src/flowgraph/SourceFloat.h"
  },
  {
   "function_name" : "flowgraph::SourceFloat::SourceFloat",
   "linker_set_key" : "_ZN9flowgraph11SourceFloatC2Ei",
   "parameters" :
   [
    {
     "is_this_ptr" : true,
     "referenced_type" : "type-1125"
    },
    {
     "referenced_type" : "type-4"
    }
   ],
   "return_type" : "type-54",
   "source_file" : "/frameworks/av/media/libaaudio/src/flowgraph/SourceFloat.h"
  },
  {
   "function_name" : "flowgraph::AudioProcessorBase::pullData",
   "linker_set_key" : "_ZN9flowgraph18AudioProcessorBase8pullDataExi",
   "parameters" :
   [
    {
     "is_this_ptr" : true,
     "referenced_type" : "type-73"
    },
    {
     "referenced_type" : "type-8"
    },
    {
     "referenced_type" : "type-4"
    }
   ],
   "return_type" : "type-4",
   "source_file" : "/frameworks/av/media/libaaudio/src/flowgraph/AudioProcessorBase.h"
  },
  {
   "function_name" : "flowgraph::AudioFloatBlockPort::AudioFloatBlockPort",
   "linker_set_key" : "_ZN9flowgraph19AudioFloatBlockPortC1ERNS_18AudioProcessorBaseEii",
   "parameters" :
   [
    {
     "is_this_ptr" : true,
     "referenced_type" : "type-84"
    },
    {
     "referenced_type" : "type-75"
    },
    {
     "referenced_type" : "type-4"
    },
    {
     "default_arg" : true,
     "referenced_type" : "type-4"
    }
   ],
   "return_type" : "type-54",
   "source_file" : "/frameworks/av/media/libaaudio/src/flowgraph/AudioProcessorBase.h"
  },
  {
   "function_name" : "flowgraph::AudioFloatBlockPort::AudioFloatBlockPort",
   "linker_set_key" : "_ZN9flowgraph19AudioFloatBlockPortC2ERNS_18AudioProcessorBaseEii",
   "parameters" :
   [
    {
     "is_this_ptr" : true,
     "referenced_type" : "type-84"
    },
    {
     "referenced_type" : "type-75"
    },
    {
     "referenced_type" : "type-4"
    },
    {
     "default_arg" : true,
     "referenced_type" : "type-4"
    }
   ],
   "return_type" : "type-54",
   "source_file" : "/frameworks/av/media/libaaudio/src/flowgraph/AudioProcessorBase.h"
  },
  {
   "function_name" : "flowgraph::AudioFloatBlockPort::~AudioFloatBlockPort",
   "linker_set_key" : "_ZN9flowgraph19AudioFloatBlockPortD0Ev",
   "parameters" :
   [
    {
     "is_this_ptr" : true,
     "referenced_type" : "type-84"
    }
   ],
   "return_type" : "type-54",
   "source_file" : "/frameworks/av/media/libaaudio/src/flowgraph/AudioProcessorBase.h"
  },
  {
   "function_name" : "flowgraph::AudioFloatBlockPort::~AudioFloatBlockPort",
   "linker_set_key" : "_ZN9flowgraph19AudioFloatBlockPortD1Ev",
   "parameters" :
   [
    {
     "is_this_ptr" : true,
     "referenced_type" : "type-84"
    }
   ],
   "return_type" : "type-54",
   "source_file" : "/frameworks/av/media/libaaudio/src/flowgraph/AudioProcessorBase.h"
  },
  {
   "function_name" : "flowgraph::AudioFloatBlockPort::~AudioFloatBlockPort",
   "linker_set_key" : "_ZN9flowgraph19AudioFloatBlockPortD2Ev",
   "parameters" :
   [
    {
     "is_this_ptr" : true,
     "referenced_type" : "type-84"
    }
   ],
   "return_type" : "type-54",
   "source_file" : "/frameworks/av/media/libaaudio/src/flowgraph/AudioProcessorBase.h"
  },
  {
   "function_name" : "flowgraph::AudioFloatInputPort::getBlock",
   "linker_set_key" : "_ZN9flowgraph19AudioFloatInputPort8getBlockEv",
   "parameters" :
   [
    {
     "is_this_ptr" : true,
     "referenced_type" : "type-88"
    }
   ],
   "return_type" : "type-81",
   "source_file" : "/frameworks/av/media/libaaudio/src/flowgraph/AudioProcessorBase.h"
  },
  {
   "function_name" : "flowgraph::AudioFloatInputPort::pullData",
   "linker_set_key" : "_ZN9flowgraph19AudioFloatInputPort8pullDataExi",
   "parameters" :
   [
    {
     "is_this_ptr" : true,
     "referenced_type" : "type-88"
    },
    {
     "referenced_type" : "type-8"
    },
    {
     "referenced_type" : "type-4"
    }
   ],
   "return_type" : "type-4",
   "source_file" : "/frameworks/av/media/libaaudio/src/flowgraph/AudioProcessorBase.h"
  },
  {
   "function_name" : "flowgraph::AudioFloatOutputPort::disconnect",
   "linker_set_key" : "_ZN9flowgraph20AudioFloatOutputPort10disconnectEPNS_19AudioFloatInputPortE",
   "parameters" :
   [
    {
     "is_this_ptr" : true,
     "referenced_type" : "type-86"
    },
    {
     "referenced_type" : "type-88"
    }
   ],
   "return_type" : "type-54",
   "source_file" : "/frameworks/av/media/libaaudio/src/flowgraph/AudioProcessorBase.h"
  },
  {
   "function_name" : "flowgraph::AudioFloatOutputPort::connect",
   "linker_set_key" : "_ZN9flowgraph20AudioFloatOutputPort7connectEPNS_19AudioFloatInputPortE",
   "parameters" :
   [
    {
     "is_this_ptr" : true,
     "referenced_type" : "type-86"
    },
    {
     "referenced_type" : "type-88"
    }
   ],
   "return_type" : "type-54",
   "source_file" : "/frameworks/av/media/libaaudio/src/flowgraph/AudioProcessorBase.h"
  },
  {
   "function_name" : "flowgraph::AudioFloatOutputPort::pullData",
   "linker_set_key" : "_ZN9flowgraph20AudioFloatOutputPort8pullDataExi",
   "parameters" :
   [
    {
     "is_this_ptr" : true,
     "referenced_type" : "type-86"
    },
    {
     "referenced_type" : "type-8"
    },
    {
     "referenced_type" : "type-4"
    }
   ],
   "return_type" : "type-4",
   "source_file" : "/frameworks/av/media/libaaudio/src/flowgraph/AudioProcessorBase.h"
  },
  {
   "function_name" : "flowgraph::MonoToMultiConverter::onProcess",
   "linker_set_key" : "_ZN9flowgraph20MonoToMultiConverter9onProcessExi",
   "parameters" :
   [
    {
     "is_this_ptr" : true,
     "referenced_type" : "type-817"
    },
    {
     "referenced_type" : "type-8"
    },
    {
     "referenced_type" : "type-4"
    }
   ],
   "return_type" : "type-4",
   "source_file" : "/frameworks/av/media/libaaudio/src/flowgraph/MonoToMultiConverter.h"
  },
  {
   "function_name" : "flowgraph::MonoToMultiConverter::MonoToMultiConverter",
   "linker_set_key" : "_ZN9flowgraph20MonoToMultiConverterC1Ei",
   "parameters" :
   [
    {
     "is_this_ptr" : true,
     "referenced_type" : "type-817"
    },
    {
     "referenced_type" : "type-4"
    }
   ],
   "return_type" : "type-54",
   "source_file" : "/frameworks/av/media/libaaudio/src/flowgraph/MonoToMultiConverter.h"
  },
  {
   "function_name" : "flowgraph::MonoToMultiConverter::MonoToMultiConverter",
   "linker_set_key" : "_ZN9flowgraph20MonoToMultiConverterC2Ei",
   "parameters" :
   [
    {
     "is_this_ptr" : true,
     "referenced_type" : "type-817"
    },
    {
     "referenced_type" : "type-4"
    }
   ],
   "return_type" : "type-54",
   "source_file" : "/frameworks/av/media/libaaudio/src/flowgraph/MonoToMultiConverter.h"
  },
  {
   "function_name" : "flowgraph::MonoToMultiConverter::~MonoToMultiConverter",
   "linker_set_key" : "_ZN9flowgraph20MonoToMultiConverterD0Ev",
   "parameters" :
   [
    {
     "is_this_ptr" : true,
     "referenced_type" : "type-817"
    }
   ],
   "return_type" : "type-54",
   "source_file" : "/frameworks/av/media/libaaudio/src/flowgraph/MonoToMultiConverter.h"
  },
  {
   "function_name" : "flowgraph::MonoToMultiConverter::~MonoToMultiConverter",
   "linker_set_key" : "_ZN9flowgraph20MonoToMultiConverterD1Ev",
   "parameters" :
   [
    {
     "is_this_ptr" : true,
     "referenced_type" : "type-817"
    }
   ],
   "return_type" : "type-54",
   "source_file" : "/frameworks/av/media/libaaudio/src/flowgraph/MonoToMultiConverter.h"
  },
  {
   "function_name" : "flowgraph::MonoToMultiConverter::~MonoToMultiConverter",
   "linker_set_key" : "_ZN9flowgraph20MonoToMultiConverterD2Ev",
   "parameters" :
   [
    {
     "is_this_ptr" : true,
     "referenced_type" : "type-817"
    }
   ],
   "return_type" : "type-54",
   "source_file" : "/frameworks/av/media/libaaudio/src/flowgraph/MonoToMultiConverter.h"
  },
  {
   "function_name" : "flowgraph::SinkI16::read",
   "linker_set_key" : "_ZN9flowgraph7SinkI164readEPvi",
   "parameters" :
   [
    {
     "is_this_ptr" : true,
     "referenced_type" : "type-820"
    },
    {
     "referenced_type" : "type-53"
    },
    {
     "referenced_type" : "type-4"
    }
   ],
   "return_type" : "type-4",
   "source_file" : "/frameworks/av/media/libaaudio/src/flowgraph/SinkI16.h"
  },
  {
   "function_name" : "flowgraph::SinkI16::SinkI16",
   "linker_set_key" : "_ZN9flowgraph7SinkI16C1Ei",
   "parameters" :
   [
    {
     "is_this_ptr" : true,
     "referenced_type" : "type-820"
    },
    {
     "referenced_type" : "type-4"
    }
   ],
   "return_type" : "type-54",
   "source_file" : "/frameworks/av/media/libaaudio/src/flowgraph/SinkI16.h"
  },
  {
   "function_name" : "flowgraph::SinkI16::SinkI16",
   "linker_set_key" : "_ZN9flowgraph7SinkI16C2Ei",
   "parameters" :
   [
    {
     "is_this_ptr" : true,
     "referenced_type" : "type-820"
    },
    {
     "referenced_type" : "type-4"
    }
   ],
   "return_type" : "type-54",
   "source_file" : "/frameworks/av/media/libaaudio/src/flowgraph/SinkI16.h"
  },
  {
   "function_name" : "flowgraph::SinkI24::read",
   "linker_set_key" : "_ZN9flowgraph7SinkI244readEPvi",
   "parameters" :
   [
    {
     "is_this_ptr" : true,
     "referenced_type" : "type-822"
    },
    {
     "referenced_type" : "type-53"
    },
    {
     "referenced_type" : "type-4"
    }
   ],
   "return_type" : "type-4",
   "source_file" : "/frameworks/av/media/libaaudio/src/flowgraph/SinkI24.h"
  },
  {
   "function_name" : "flowgraph::SinkI24::SinkI24",
   "linker_set_key" : "_ZN9flowgraph7SinkI24C1Ei",
   "parameters" :
   [
    {
     "is_this_ptr" : true,
     "referenced_type" : "type-822"
    },
    {
     "referenced_type" : "type-4"
    }
   ],
   "return_type" : "type-54",
   "source_file" : "/frameworks/av/media/libaaudio/src/flowgraph/SinkI24.h"
  },
  {
   "function_name" : "flowgraph::SinkI24::SinkI24",
   "linker_set_key" : "_ZN9flowgraph7SinkI24C2Ei",
   "parameters" :
   [
    {
     "is_this_ptr" : true,
     "referenced_type" : "type-822"
    },
    {
     "referenced_type" : "type-4"
    }
   ],
   "return_type" : "type-54",
   "source_file" : "/frameworks/av/media/libaaudio/src/flowgraph/SinkI24.h"
  },
  {
   "access" : "protected",
   "function_name" : "flowgraph::AudioSink::pull",
   "linker_set_key" : "_ZN9flowgraph9AudioSink4pullEi",
   "parameters" :
   [
    {
     "is_this_ptr" : true,
     "referenced_type" : "type-94"
    },
    {
     "referenced_type" : "type-4"
    }
   ],
   "return_type" : "type-4",
   "source_file" : "/frameworks/av/media/libaaudio/src/flowgraph/AudioProcessorBase.h"
  },
  {
   "function_name" : "flowgraph::SinkFloat::read",
   "linker_set_key" : "_ZN9flowgraph9SinkFloat4readEPvi",
   "parameters" :
   [
    {
     "is_this_ptr" : true,
     "referenced_type" : "type-819"
    },
    {
     "referenced_type" : "type-53"
    },
    {
     "referenced_type" : "type-4"
    }
   ],
   "return_type" : "type-4",
   "source_file" : "/frameworks/av/media/libaaudio/src/flowgraph/SinkFloat.h"
  },
  {
   "function_name" : "flowgraph::SinkFloat::SinkFloat",
   "linker_set_key" : "_ZN9flowgraph9SinkFloatC1Ei",
   "parameters" :
   [
    {
     "is_this_ptr" : true,
     "referenced_type" : "type-819"
    },
    {
     "referenced_type" : "type-4"
    }
   ],
   "return_type" : "type-54",
   "source_file" : "/frameworks/av/media/libaaudio/src/flowgraph/SinkFloat.h"
  },
  {
   "function_name" : "flowgraph::SinkFloat::SinkFloat",
   "linker_set_key" : "_ZN9flowgraph9SinkFloatC2Ei",
   "parameters" :
   [
    {
     "is_this_ptr" : true,
     "referenced_type" : "type-819"
    },
    {
     "referenced_type" : "type-4"
    }
   ],
   "return_type" : "type-54",
   "source_file" : "/frameworks/av/media/libaaudio/src/flowgraph/SinkFloat.h"
  },
  {
   "function_name" : "flowgraph::SourceI16::onProcess",
   "linker_set_key" : "_ZN9flowgraph9SourceI169onProcessExi",
   "parameters" :
   [
    {
     "is_this_ptr" : true,
     "referenced_type" : "type-1126"
    },
    {
     "referenced_type" : "type-8"
    },
    {
     "referenced_type" : "type-4"
    }
   ],
   "return_type" : "type-4",
   "source_file" : "/frameworks/av/media/libaaudio/src/flowgraph/SourceI16.h"
  },
  {
   "function_name" : "flowgraph::SourceI16::SourceI16",
   "linker_set_key" : "_ZN9flowgraph9SourceI16C1Ei",
   "parameters" :
   [
    {
     "is_this_ptr" : true,
     "referenced_type" : "type-1126"
    },
    {
     "referenced_type" : "type-4"
    }
   ],
   "return_type" : "type-54",
   "source_file" : "/frameworks/av/media/libaaudio/src/flowgraph/SourceI16.h"
  },
  {
   "function_name" : "flowgraph::SourceI16::SourceI16",
   "linker_set_key" : "_ZN9flowgraph9SourceI16C2Ei",
   "parameters" :
   [
    {
     "is_this_ptr" : true,
     "referenced_type" : "type-1126"
    },
    {
     "referenced_type" : "type-4"
    }
   ],
   "return_type" : "type-54",
   "source_file" : "/frameworks/av/media/libaaudio/src/flowgraph/SourceI16.h"
  },
  {
   "function_name" : "flowgraph::SourceI24::onProcess",
   "linker_set_key" : "_ZN9flowgraph9SourceI249onProcessExi",
   "parameters" :
   [
    {
     "is_this_ptr" : true,
     "referenced_type" : "type-1127"
    },
    {
     "referenced_type" : "type-8"
    },
    {
     "referenced_type" : "type-4"
    }
   ],
   "return_type" : "type-4",
   "source_file" : "/frameworks/av/media/libaaudio/src/flowgraph/SourceI24.h"
  },
  {
   "function_name" : "flowgraph::SourceI24::SourceI24",
   "linker_set_key" : "_ZN9flowgraph9SourceI24C1Ei",
   "parameters" :
   [
    {
     "is_this_ptr" : true,
     "referenced_type" : "type-1127"
    },
    {
     "referenced_type" : "type-4"
    }
   ],
   "return_type" : "type-54",
   "source_file" : "/frameworks/av/media/libaaudio/src/flowgraph/SourceI24.h"
  },
  {
   "function_name" : "flowgraph::SourceI24::SourceI24",
   "linker_set_key" : "_ZN9flowgraph9SourceI24C2Ei",
   "parameters" :
   [
    {
     "is_this_ptr" : true,
     "referenced_type" : "type-1127"
    },
    {
     "referenced_type" : "type-4"
    }
   ],
   "return_type" : "type-54",
   "source_file" : "/frameworks/av/media/libaaudio/src/flowgraph/SourceI24.h"
  },
  {
   "function_name" : "aaudio::AudioStream::collidesWithCallback",
   "linker_set_key" : "_ZNK6aaudio11AudioStream20collidesWithCallbackEv",
   "parameters" :
   [
    {
     "is_this_ptr" : true,
     "referenced_type" : "type-245"
    }
   ],
   "return_type" : "type-16",
   "source_file" : "/frameworks/av/media/libaaudio/src/core/AudioStream.h"
  },
  {
   "function_name" : "aaudio::AudioEndpoint::getBufferSizeInFrames",
   "linker_set_key" : "_ZNK6aaudio13AudioEndpoint21getBufferSizeInFramesEv",
   "parameters" :
   [
    {
     "is_this_ptr" : true,
     "referenced_type" : "type-279"
    }
   ],
   "return_type" : "type-4",
   "source_file" : "/frameworks/av/media/libaaudio/src/client/AudioEndpoint.h"
  },
  {
   "function_name" : "aaudio::AudioEndpoint::getBufferCapacityInFrames",
   "linker_set_key" : "_ZNK6aaudio13AudioEndpoint25getBufferCapacityInFramesEv",
   "parameters" :
   [
    {
     "is_this_ptr" : true,
     "referenced_type" : "type-279"
    }
   ],
   "return_type" : "type-4",
   "source_file" : "/frameworks/av/media/libaaudio/src/client/AudioEndpoint.h"
  },
  {
   "function_name" : "aaudio::AudioEndpoint::dump",
   "linker_set_key" : "_ZNK6aaudio13AudioEndpoint4dumpEv",
   "parameters" :
   [
    {
     "is_this_ptr" : true,
     "referenced_type" : "type-279"
    }
   ],
   "return_type" : "type-54",
   "source_file" : "/frameworks/av/media/libaaudio/src/client/AudioEndpoint.h"
  },
  {
   "function_name" : "aaudio::AudioStreamTrack::getXRunCount",
   "linker_set_key" : "_ZNK6aaudio16AudioStreamTrack12getXRunCountEv",
   "parameters" :
   [
    {
     "is_this_ptr" : true,
     "referenced_type" : "type-147"
    }
   ],
   "return_type" : "type-4",
   "source_file" : "/frameworks/av/media/libaaudio/src/legacy/AudioStreamTrack.h"
  },
  {
   "function_name" : "aaudio::AudioStreamTrack::getBufferSize",
   "linker_set_key" : "_ZNK6aaudio16AudioStreamTrack13getBufferSizeEv",
   "parameters" :
   [
    {
     "is_this_ptr" : true,
     "referenced_type" : "type-147"
    }
   ],
   "return_type" : "type-4",
   "source_file" : "/frameworks/av/media/libaaudio/src/legacy/AudioStreamTrack.h"
  },
  {
   "function_name" : "aaudio::AudioStreamTrack::getBufferCapacity",
   "linker_set_key" : "_ZNK6aaudio16AudioStreamTrack17getBufferCapacityEv",
   "parameters" :
   [
    {
     "is_this_ptr" : true,
     "referenced_type" : "type-147"
    }
   ],
   "return_type" : "type-4",
   "source_file" : "/frameworks/av/media/libaaudio/src/legacy/AudioStreamTrack.h"
  },
  {
   "function_name" : "aaudio::AudioStreamTrack::getFramesPerBurst",
   "linker_set_key" : "_ZNK6aaudio16AudioStreamTrack17getFramesPerBurstEv",
   "parameters" :
   [
    {
     "is_this_ptr" : true,
     "referenced_type" : "type-147"
    }
   ],
   "return_type" : "type-4",
   "source_file" : "/frameworks/av/media/libaaudio/src/legacy/AudioStreamTrack.h"
  },
  {
   "function_name" : "aaudio::AudioStreamRecord::getXRunCount",
   "linker_set_key" : "_ZNK6aaudio17AudioStreamRecord12getXRunCountEv",
   "parameters" :
   [
    {
     "is_this_ptr" : true,
     "referenced_type" : "type-140"
    }
   ],
   "return_type" : "type-4",
   "source_file" : "/frameworks/av/media/libaaudio/src/legacy/AudioStreamRecord.h"
  },
  {
   "function_name" : "aaudio::AudioStreamRecord::getBufferSize",
   "linker_set_key" : "_ZNK6aaudio17AudioStreamRecord13getBufferSizeEv",
   "parameters" :
   [
    {
     "is_this_ptr" : true,
     "referenced_type" : "type-140"
    }
   ],
   "return_type" : "type-4",
   "source_file" : "/frameworks/av/media/libaaudio/src/legacy/AudioStreamRecord.h"
  },
  {
   "function_name" : "aaudio::AudioStreamRecord::getBufferCapacity",
   "linker_set_key" : "_ZNK6aaudio17AudioStreamRecord17getBufferCapacityEv",
   "parameters" :
   [
    {
     "is_this_ptr" : true,
     "referenced_type" : "type-140"
    }
   ],
   "return_type" : "type-4",
   "source_file" : "/frameworks/av/media/libaaudio/src/legacy/AudioStreamRecord.h"
  },
  {
   "function_name" : "aaudio::AudioStreamRecord::getFramesPerBurst",
   "linker_set_key" : "_ZNK6aaudio17AudioStreamRecord17getFramesPerBurstEv",
   "parameters" :
   [
    {
     "is_this_ptr" : true,
     "referenced_type" : "type-140"
    }
   ],
   "return_type" : "type-4",
   "source_file" : "/frameworks/av/media/libaaudio/src/legacy/AudioStreamRecord.h"
  },
  {
   "function_name" : "aaudio::AudioStreamBuilder::logParameters",
   "linker_set_key" : "_ZNK6aaudio18AudioStreamBuilder13logParametersEv",
   "parameters" :
   [
    {
     "is_this_ptr" : true,
     "referenced_type" : "type-271"
    }
   ],
   "return_type" : "type-54",
   "source_file" : "/frameworks/av/media/libaaudio/src/core/AudioStreamBuilder.h"
  },
  {
   "function_name" : "aaudio::AudioStreamBuilder::validate",
   "linker_set_key" : "_ZNK6aaudio18AudioStreamBuilder8validateEv",
   "parameters" :
   [
    {
     "is_this_ptr" : true,
     "referenced_type" : "type-271"
    }
   ],
   "return_type" : "type-4",
   "source_file" : "/frameworks/av/media/libaaudio/src/core/AudioStreamBuilder.h"
  },
  {
   "function_name" : "aaudio::AAudioStreamRequest::writeToParcel",
   "linker_set_key" : "_ZNK6aaudio19AAudioStreamRequest13writeToParcelEPN7android6ParcelE",
   "parameters" :
   [
    {
     "is_this_ptr" : true,
     "referenced_type" : "type-156"
    },
    {
     "referenced_type" : "type-509"
    }
   ],
   "return_type" : "type-4",
   "source_file" : "/frameworks/av/media/libaaudio/src/binding/AAudioStreamRequest.h"
  },
  {
   "function_name" : "aaudio::AAudioStreamRequest::dump",
   "linker_set_key" : "_ZNK6aaudio19AAudioStreamRequest4dumpEv",
   "parameters" :
   [
    {
     "is_this_ptr" : true,
     "referenced_type" : "type-156"
    }
   ],
   "return_type" : "type-54",
   "source_file" : "/frameworks/av/media/libaaudio/src/binding/AAudioStreamRequest.h"
  },
  {
   "function_name" : "aaudio::AAudioStreamRequest::validate",
   "linker_set_key" : "_ZNK6aaudio19AAudioStreamRequest8validateEv",
   "parameters" :
   [
    {
     "is_this_ptr" : true,
     "referenced_type" : "type-156"
    }
   ],
   "return_type" : "type-4",
   "source_file" : "/frameworks/av/media/libaaudio/src/binding/AAudioStreamRequest.h"
  },
  {
   "function_name" : "aaudio::AudioStreamInternal::getBufferSize",
   "linker_set_key" : "_ZNK6aaudio19AudioStreamInternal13getBufferSizeEv",
   "parameters" :
   [
    {
     "is_this_ptr" : true,
     "referenced_type" : "type-66"
    }
   ],
   "return_type" : "type-4",
   "source_file" : "/frameworks/av/media/libaaudio/src/client/AudioStreamInternal.h"
  },
  {
   "function_name" : "aaudio::AudioStreamInternal::getBufferCapacity",
   "linker_set_key" : "_ZNK6aaudio19AudioStreamInternal17getBufferCapacityEv",
   "parameters" :
   [
    {
     "is_this_ptr" : true,
     "referenced_type" : "type-66"
    }
   ],
   "return_type" : "type-4",
   "source_file" : "/frameworks/av/media/libaaudio/src/client/AudioStreamInternal.h"
  },
  {
   "function_name" : "aaudio::AudioStreamInternal::getFramesPerBurst",
   "linker_set_key" : "_ZNK6aaudio19AudioStreamInternal17getFramesPerBurstEv",
   "parameters" :
   [
    {
     "is_this_ptr" : true,
     "referenced_type" : "type-66"
    }
   ],
   "return_type" : "type-4",
   "source_file" : "/frameworks/av/media/libaaudio/src/client/AudioStreamInternal.h"
  },
  {
   "access" : "protected",
   "function_name" : "aaudio::AudioStreamInternal::isClockModelInControl",
   "linker_set_key" : "_ZNK6aaudio19AudioStreamInternal21isClockModelInControlEv",
   "parameters" :
   [
    {
     "is_this_ptr" : true,
     "referenced_type" : "type-66"
    }
   ],
   "return_type" : "type-16",
   "source_file" : "/frameworks/av/media/libaaudio/src/client/AudioStreamInternal.h"
  },
  {
   "function_name" : "aaudio::RingBufferParcelable::writeToParcel",
   "linker_set_key" : "_ZNK6aaudio20RingBufferParcelable13writeToParcelEPN7android6ParcelE",
   "parameters" :
   [
    {
     "is_this_ptr" : true,
     "referenced_type" : "type-573"
    },
    {
     "referenced_type" : "type-574"
    }
   ],
   "return_type" : "type-4",
   "source_file" : "/frameworks/av/media/libaaudio/src/binding/RingBufferParcelable.h"
  },
  {
   "access" : "private",
   "function_name" : "aaudio::RingBufferParcelable::validate",
   "linker_set_key" : "_ZNK6aaudio20RingBufferParcelable8validateEv",
   "parameters" :
   [
    {
     "is_this_ptr" : true,
     "referenced_type" : "type-573"
    }
   ],
   "return_type" : "type-4",
   "source_file" : "/frameworks/av/media/libaaudio/src/binding/RingBufferParcelable.h"
  },
  {
   "function_name" : "aaudio::IsochronousClockModel::isStarting",
   "linker_set_key" : "_ZNK6aaudio21IsochronousClockModel10isStartingEv",
   "parameters" :
   [
    {
     "is_this_ptr" : true,
     "referenced_type" : "type-193"
    }
   ],
   "return_type" : "type-16",
   "source_file" : "/frameworks/av/media/libaaudio/src/client/IsochronousClockModel.h"
  },
  {
   "function_name" : "aaudio::IsochronousClockModel::convertPositionToTime",
   "linker_set_key" : "_ZNK6aaudio21IsochronousClockModel21convertPositionToTimeEx",
   "parameters" :
   [
    {
     "is_this_ptr" : true,
     "referenced_type" : "type-193"
    },
    {
     "referenced_type" : "type-8"
    }
   ],
   "return_type" : "type-8",
   "source_file" : "/frameworks/av/media/libaaudio/src/client/IsochronousClockModel.h"
  },
  {
   "function_name" : "aaudio::IsochronousClockModel::convertTimeToPosition",
   "linker_set_key" : "_ZNK6aaudio21IsochronousClockModel21convertTimeToPositionEx",
   "parameters" :
   [
    {
     "is_this_ptr" : true,
     "referenced_type" : "type-193"
    },
    {
     "referenced_type" : "type-8"
    }
   ],
   "return_type" : "type-8",
   "source_file" : "/frameworks/av/media/libaaudio/src/client/IsochronousClockModel.h"
  },
  {
   "access" : "private",
   "function_name" : "aaudio::IsochronousClockModel::getLateTimeOffsetNanos",
   "linker_set_key" : "_ZNK6aaudio21IsochronousClockModel22getLateTimeOffsetNanosEv",
   "parameters" :
   [
    {
     "is_this_ptr" : true,
     "referenced_type" : "type-193"
    }
   ],
   "return_type" : "type-4",
   "source_file" : "/frameworks/av/media/libaaudio/src/client/IsochronousClockModel.h"
  },
  {
   "function_name" : "aaudio::IsochronousClockModel::convertDeltaPositionToTime",
   "linker_set_key" : "_ZNK6aaudio21IsochronousClockModel26convertDeltaPositionToTimeEx",
   "parameters" :
   [
    {
     "is_this_ptr" : true,
     "referenced_type" : "type-193"
    },
    {
     "referenced_type" : "type-8"
    }
   ],
   "return_type" : "type-8",
   "source_file" : "/frameworks/av/media/libaaudio/src/client/IsochronousClockModel.h"
  },
  {
   "function_name" : "aaudio::IsochronousClockModel::convertDeltaTimeToPosition",
   "linker_set_key" : "_ZNK6aaudio21IsochronousClockModel26convertDeltaTimeToPositionEx",
   "parameters" :
   [
    {
     "is_this_ptr" : true,
     "referenced_type" : "type-193"
    },
    {
     "referenced_type" : "type-8"
    }
   ],
   "return_type" : "type-8",
   "source_file" : "/frameworks/av/media/libaaudio/src/client/IsochronousClockModel.h"
  },
  {
   "function_name" : "aaudio::IsochronousClockModel::convertLatestTimeToPosition",
   "linker_set_key" : "_ZNK6aaudio21IsochronousClockModel27convertLatestTimeToPositionEx",
   "parameters" :
   [
    {
     "is_this_ptr" : true,
     "referenced_type" : "type-193"
    },
    {
     "referenced_type" : "type-8"
    }
   ],
   "return_type" : "type-8",
   "source_file" : "/frameworks/av/media/libaaudio/src/client/IsochronousClockModel.h"
  },
  {
   "function_name" : "aaudio::IsochronousClockModel::convertPositionToLatestTime",
   "linker_set_key" : "_ZNK6aaudio21IsochronousClockModel27convertPositionToLatestTimeEx",
   "parameters" :
   [
    {
     "is_this_ptr" : true,
     "referenced_type" : "type-193"
    },
    {
     "referenced_type" : "type-8"
    }
   ],
   "return_type" : "type-8",
   "source_file" : "/frameworks/av/media/libaaudio/src/client/IsochronousClockModel.h"
  },
  {
   "function_name" : "aaudio::IsochronousClockModel::dump",
   "linker_set_key" : "_ZNK6aaudio21IsochronousClockModel4dumpEv",
   "parameters" :
   [
    {
     "is_this_ptr" : true,
     "referenced_type" : "type-193"
    }
   ],
   "return_type" : "type-54",
   "source_file" : "/frameworks/av/media/libaaudio/src/client/IsochronousClockModel.h"
  },
  {
   "function_name" : "aaudio::IsochronousClockModel::isRunning",
   "linker_set_key" : "_ZNK6aaudio21IsochronousClockModel9isRunningEv",
   "parameters" :
   [
    {
     "is_this_ptr" : true,
     "referenced_type" : "type-193"
    }
   ],
   "return_type" : "type-16",
   "source_file" : "/frameworks/av/media/libaaudio/src/client/IsochronousClockModel.h"
  },
  {
   "function_name" : "aaudio::AAudioStreamParameters::dump",
   "linker_set_key" : "_ZNK6aaudio22AAudioStreamParameters4dumpEv",
   "parameters" :
   [
    {
     "is_this_ptr" : true,
     "referenced_type" : "type-64"
    }
   ],
   "return_type" : "type-54",
   "source_file" : "/frameworks/av/media/libaaudio/src/core/AAudioStreamParameters.h"
  },
  {
   "function_name" : "aaudio::AAudioStreamParameters::validate",
   "linker_set_key" : "_ZNK6aaudio22AAudioStreamParameters8validateEv",
   "parameters" :
   [
    {
     "is_this_ptr" : true,
     "referenced_type" : "type-64"
    }
   ],
   "return_type" : "type-4",
   "source_file" : "/frameworks/av/media/libaaudio/src/core/AAudioStreamParameters.h"
  },
  {
   "function_name" : "aaudio::SharedMemoryParcelable::writeToParcel",
   "linker_set_key" : "_ZNK6aaudio22SharedMemoryParcelable13writeToParcelEPN7android6ParcelE",
   "parameters" :
   [
    {
     "is_this_ptr" : true,
     "referenced_type" : "type-585"
    },
    {
     "referenced_type" : "type-586"
    }
   ],
   "return_type" : "type-4",
   "source_file" : "/frameworks/av/media/libaaudio/src/binding/SharedMemoryParcelable.h"
  },
  {
   "access" : "private",
   "function_name" : "aaudio::SharedMemoryParcelable::validate",
   "linker_set_key" : "_ZNK6aaudio22SharedMemoryParcelable8validateEv",
   "parameters" :
   [
    {
     "is_this_ptr" : true,
     "referenced_type" : "type-585"
    }
   ],
   "return_type" : "type-4",
   "source_file" : "/frameworks/av/media/libaaudio/src/binding/SharedMemoryParcelable.h"
  },
  {
   "function_name" : "aaudio::SharedRegionParcelable::writeToParcel",
   "linker_set_key" : "_ZNK6aaudio22SharedRegionParcelable13writeToParcelEPN7android6ParcelE",
   "parameters" :
   [
    {
     "is_this_ptr" : true,
     "referenced_type" : "type-593"
    },
    {
     "referenced_type" : "type-594"
    }
   ],
   "return_type" : "type-4",
   "source_file" : "/frameworks/av/media/libaaudio/src/binding/SharedRegionParcelable.h"
  },
  {
   "access" : "private",
   "function_name" : "aaudio::SharedRegionParcelable::validate",
   "linker_set_key" : "_ZNK6aaudio22SharedRegionParcelable8validateEv",
   "parameters" :
   [
    {
     "is_this_ptr" : true,
     "referenced_type" : "type-593"
    }
   ],
   "return_type" : "type-4",
   "source_file" : "/frameworks/av/media/libaaudio/src/binding/SharedRegionParcelable.h"
  },
  {
   "function_name" : "aaudio::AudioEndpointParcelable::writeToParcel",
   "linker_set_key" : "_ZNK6aaudio23AudioEndpointParcelable13writeToParcelEPN7android6ParcelE",
   "parameters" :
   [
    {
     "is_this_ptr" : true,
     "referenced_type" : "type-486"
    },
    {
     "referenced_type" : "type-487"
    }
   ],
   "return_type" : "type-4",
   "source_file" : "/frameworks/av/media/libaaudio/src/binding/AudioEndpointParcelable.h"
  },
  {
   "access" : "private",
   "function_name" : "aaudio::AudioEndpointParcelable::validate",
   "linker_set_key" : "_ZNK6aaudio23AudioEndpointParcelable8validateEv",
   "parameters" :
   [
    {
     "is_this_ptr" : true,
     "referenced_type" : "type-486"
    }
   ],
   "return_type" : "type-4",
   "source_file" : "/frameworks/av/media/libaaudio/src/binding/AudioEndpointParcelable.h"
  },
  {
   "function_name" : "aaudio::AAudioStreamConfiguration::writeToParcel",
   "linker_set_key" : "_ZNK6aaudio25AAudioStreamConfiguration13writeToParcelEPN7android6ParcelE",
   "parameters" :
   [
    {
     "is_this_ptr" : true,
     "referenced_type" : "type-516"
    },
    {
     "referenced_type" : "type-517"
    }
   ],
   "return_type" : "type-4",
   "source_file" : "/frameworks/av/media/libaaudio/src/binding/AAudioStreamConfiguration.h"
  },
  {
   "function_name" : "android::IAAudioClient::getInterfaceDescriptor",
   "linker_set_key" : "_ZNK7android13IAAudioClient22getInterfaceDescriptorEv",
   "parameters" :
   [
    {
     "is_this_ptr" : true,
     "referenced_type" : "type-531"
    }
   ],
   "return_type" : "type-529",
   "source_file" : "/frameworks/av/media/libaaudio/src/binding/IAAudioClient.h"
  },
  {
   "function_name" : "android::IAAudioService::getInterfaceDescriptor",
   "linker_set_key" : "_ZNK7android14IAAudioService22getInterfaceDescriptorEv",
   "parameters" :
   [
    {
     "is_this_ptr" : true,
     "referenced_type" : "type-560"
    }
   ],
   "return_type" : "type-558",
   "source_file" : "/frameworks/av/media/libaaudio/src/binding/IAAudioService.h"
  },
  {
   "function_name" : "aaudio::AudioStreamLegacy::onProcessFixedBlock",
   "linker_set_key" : "_ZThn136_N6aaudio17AudioStreamLegacy19onProcessFixedBlockEPhi",
   "parameters" :
   [
    {
     "is_this_ptr" : true,
     "referenced_type" : "type-127"
    },
    {
     "referenced_type" : "type-14"
    },
    {
     "referenced_type" : "type-4"
    }
   ],
   "return_type" : "type-4",
   "source_file" : "/frameworks/av/media/libaaudio/src/legacy/AudioStreamLegacy.h"
  },
  {
   "function_name" : "android::BnAAudioClient::onTransact",
   "linker_set_key" : "_ZThn4_N7android14BnAAudioClient10onTransactEjRKNS_6ParcelEPS1_j",
   "parameters" :
   [
    {
     "is_this_ptr" : true,
     "referenced_type" : "type-536"
    },
    {
     "referenced_type" : "type-1"
    },
    {
     "referenced_type" : "type-539"
    },
    {
     "referenced_type" : "type-540"
    },
    {
     "default_arg" : true,
     "referenced_type" : "type-1"
    }
   ],
   "return_type" : "type-4",
   "source_file" : "/frameworks/av/media/libaaudio/src/binding/IAAudioClient.h"
  },
  {
   "function_name" : "android::BnAAudioService::onTransact",
   "linker_set_key" : "_ZThn4_N7android15BnAAudioService10onTransactEjRKNS_6ParcelEPS1_j",
   "parameters" :
   [
    {
     "is_this_ptr" : true,
     "referenced_type" : "type-565"
    },
    {
     "referenced_type" : "type-1"
    },
    {
     "referenced_type" : "type-568"
    },
    {
     "referenced_type" : "type-569"
    },
    {
     "default_arg" : true,
     "referenced_type" : "type-1"
    }
   ],
   "return_type" : "type-4",
   "source_file" : "/frameworks/av/media/libaaudio/src/binding/IAAudioService.h"
  },
  {
   "function_name" : "aaudio::AAudioStreamConfiguration::readFromParcel",
   "linker_set_key" : "_ZThn52_N6aaudio25AAudioStreamConfiguration14readFromParcelEPKN7android6ParcelE",
   "parameters" :
   [
    {
     "is_this_ptr" : true,
     "referenced_type" : "type-515"
    },
    {
     "referenced_type" : "type-521"
    }
   ],
   "return_type" : "type-4",
   "source_file" : "/frameworks/av/media/libaaudio/src/binding/AAudioStreamConfiguration.h"
  },
  {
   "function_name" : "aaudio::AAudioStreamConfiguration::writeToParcel",
   "linker_set_key" : "_ZThn52_NK6aaudio25AAudioStreamConfiguration13writeToParcelEPN7android6ParcelE",
   "parameters" :
   [
    {
     "is_this_ptr" : true,
     "referenced_type" : "type-516"
    },
    {
     "referenced_type" : "type-517"
    }
   ],
   "return_type" : "type-4",
   "source_file" : "/frameworks/av/media/libaaudio/src/binding/AAudioStreamConfiguration.h"
  }
 ],
 "global_vars" :
 [
  {
   "linker_set_key" : "_ZN7android13IAAudioClient10descriptorE",
   "name" : "android::IAAudioClient::descriptor",
   "referenced_type" : "type-163",
   "source_file" : "/frameworks/av/media/libaaudio/src/binding/IAAudioClient.h"
  },
  {
   "access" : "private",
   "linker_set_key" : "_ZN7android13IAAudioClient12default_implE",
   "name" : "android::IAAudioClient::default_impl",
   "referenced_type" : "type-300",
   "source_file" : "/frameworks/av/media/libaaudio/src/binding/IAAudioClient.h"
  },
  {
   "linker_set_key" : "_ZN7android14IAAudioService10descriptorE",
   "name" : "android::IAAudioService::descriptor",
   "referenced_type" : "type-163",
   "source_file" : "/frameworks/av/media/libaaudio/src/binding/IAAudioService.h"
  },
  {
   "access" : "private",
   "linker_set_key" : "_ZN7android14IAAudioService12default_implE",
   "name" : "android::IAAudioService::default_impl",
   "referenced_type" : "type-301",
   "source_file" : "/frameworks/av/media/libaaudio/src/binding/IAAudioService.h"
  }
 ],
 "lvalue_reference_types" :
 [
  {
   "alignment" : 4,
   "linker_set_key" : "FixedBlockProcessor &",
   "name" : "FixedBlockProcessor &",
   "referenced_type" : "type-118",
   "self_type" : "type-122",
   "size" : 4,
   "source_file" : "/frameworks/av/media/libaaudio/src/utility/FixedBlockAdapter.h"
  },
  {
   "alignment" : 4,
   "linker_set_key" : "aaudio::AAudioServiceInterface &",
   "name" : "aaudio::AAudioServiceInterface &",
   "referenced_type" : "type-19",
   "self_type" : "type-18",
   "size" : 4,
   "source_file" : "/frameworks/av/media/libaaudio/src/client/AudioStreamInternal.h"
  },
  {
   "alignment" : 4,
   "linker_set_key" : "aaudio::AAudioServiceMessage_s &",
   "name" : "aaudio::AAudioServiceMessage_s &",
   "referenced_type" : "type-199",
   "self_type" : "type-446",
   "size" : 4,
   "source_file" : "/frameworks/av/media/libaaudio/src/client/AudioStreamInternal.h"
  },
  {
   "alignment" : 4,
   "linker_set_key" : "aaudio::AAudioStreamConfiguration &",
   "name" : "aaudio::AAudioStreamConfiguration &",
   "referenced_type" : "type-150",
   "self_type" : "type-160",
   "size" : 4,
   "source_file" : "/frameworks/av/media/libaaudio/src/binding/AAudioStreamRequest.h"
  },
  {
   "alignment" : 4,
   "linker_set_key" : "aaudio::AudioEndpointParcelable &",
   "name" : "aaudio::AudioEndpointParcelable &",
   "referenced_type" : "type-28",
   "self_type" : "type-502",
   "size" : 4,
   "source_file" : "/frameworks/av/media/libaaudio/src/binding/AAudioBinderClient.h"
  },
  {
   "alignment" : 4,
   "linker_set_key" : "const aaudio::AAudioStreamConfiguration &",
   "name" : "const aaudio::AAudioStreamConfiguration &",
   "referenced_type" : "type-159",
   "self_type" : "type-158",
   "size" : 4,
   "source_file" : "/frameworks/av/media/libaaudio/src/binding/AAudioStreamRequest.h"
  },
  {
   "alignment" : 4,
   "linker_set_key" : "const aaudio::AAudioStreamParameters &",
   "name" : "const aaudio::AAudioStreamParameters &",
   "referenced_type" : "type-2",
   "self_type" : "type-221",
   "size" : 4,
   "source_file" : "/frameworks/av/media/libaaudio/src/core/AAudioStreamParameters.h"
  },
  {
   "alignment" : 4,
   "linker_set_key" : "const aaudio::AAudioStreamRequest &",
   "name" : "const aaudio::AAudioStreamRequest &",
   "referenced_type" : "type-155",
   "self_type" : "type-501",
   "size" : 4,
   "source_file" : "/frameworks/av/media/libaaudio/src/binding/AAudioBinderClient.h"
  },
  {
   "alignment" : 4,
   "linker_set_key" : "const aaudio::AudioStreamBuilder &",
   "name" : "const aaudio::AudioStreamBuilder &",
   "referenced_type" : "type-1298",
   "self_type" : "type-1300",
   "size" : 4,
   "source_file" : "/frameworks/av/media/libaaudio/src/client/AudioStreamInternalPlay.h"
  },
  {
   "alignment" : 4,
   "linker_set_key" : "const aaudio::AudioStreamBuilder &",
   "name" : "const aaudio::AudioStreamBuilder &",
   "referenced_type" : "type-1431",
   "self_type" : "type-1433",
   "size" : 4,
   "source_file" : "/frameworks/av/media/libaaudio/src/client/AudioStreamInternalPlay.h"
  },
  {
   "alignment" : 4,
   "linker_set_key" : "const aaudio::AudioStreamBuilder &",
   "name" : "const aaudio::AudioStreamBuilder &",
   "referenced_type" : "type-247",
   "self_type" : "type-253",
   "size" : 4,
   "source_file" : "/frameworks/av/media/libaaudio/src/core/AudioStream.h"
  },
  {
   "alignment" : 4,
   "linker_set_key" : "const aaudio::AudioStreamBuilder &",
   "name" : "const aaudio::AudioStreamBuilder &",
   "referenced_type" : "type-473",
   "self_type" : "type-475",
   "size" : 4,
   "source_file" : "/frameworks/av/media/libaaudio/src/client/AudioStreamInternalPlay.h"
  },
  {
   "alignment" : 4,
   "linker_set_key" : "const aaudio::AudioStreamBuilder &",
   "name" : "const aaudio::AudioStreamBuilder &",
   "referenced_type" : "type-774",
   "self_type" : "type-776",
   "size" : 4,
   "source_file" : "/frameworks/av/media/libaaudio/src/client/AudioStreamInternalPlay.h"
  },
  {
   "alignment" : 4,
   "linker_set_key" : "const aaudio::AudioStreamBuilder &",
   "name" : "const aaudio::AudioStreamBuilder &",
   "referenced_type" : "type-990",
   "self_type" : "type-992",
   "size" : 4,
   "source_file" : "/frameworks/av/media/libaaudio/src/client/AudioStreamInternalPlay.h"
  },
  {
   "alignment" : 4,
   "linker_set_key" : "const android::AudioClient &",
   "name" : "const android::AudioClient &",
   "referenced_type" : "type-1020",
   "self_type" : "type-1022",
   "size" : 4,
   "source_file" : "/frameworks/av/media/libaaudio/src/binding/AAudioBinderClient.h"
  },
  {
   "alignment" : 4,
   "linker_set_key" : "const android::AudioClient &",
   "name" : "const android::AudioClient &",
   "referenced_type" : "type-1064",
   "self_type" : "type-1066",
   "size" : 4,
   "source_file" : "/frameworks/av/media/libaaudio/src/binding/AAudioBinderClient.h"
  },
  {
   "alignment" : 4,
   "linker_set_key" : "const android::AudioClient &",
   "name" : "const android::AudioClient &",
   "referenced_type" : "type-1194",
   "self_type" : "type-1196",
   "size" : 4,
   "source_file" : "/frameworks/av/media/libaaudio/src/binding/AAudioBinderClient.h"
  },
  {
   "alignment" : 4,
   "linker_set_key" : "const android::AudioClient &",
   "name" : "const android::AudioClient &",
   "referenced_type" : "type-1269",
   "self_type" : "type-1271",
   "size" : 4,
   "source_file" : "/frameworks/av/media/libaaudio/src/client/AudioStreamInternal.h"
  },
  {
   "alignment" : 4,
   "linker_set_key" : "const android::AudioClient &",
   "name" : "const android::AudioClient &",
   "referenced_type" : "type-1328",
   "self_type" : "type-1330",
   "size" : 4,
   "source_file" : "/frameworks/av/media/libaaudio/src/binding/AAudioBinderClient.h"
  },
  {
   "alignment" : 4,
   "linker_set_key" : "const android::AudioClient &",
   "name" : "const android::AudioClient &",
   "referenced_type" : "type-1372",
   "self_type" : "type-1374",
   "size" : 4,
   "source_file" : "/frameworks/av/media/libaaudio/src/binding/AAudioBinderClient.h"
  },
  {
   "alignment" : 4,
   "linker_set_key" : "const android::AudioClient &",
   "name" : "const android::AudioClient &",
   "referenced_type" : "type-1461",
   "self_type" : "type-1463",
   "size" : 4,
   "source_file" : "/frameworks/av/media/libaaudio/src/binding/AAudioBinderClient.h"
  },
  {
   "alignment" : 4,
   "linker_set_key" : "const android::AudioClient &",
   "name" : "const android::AudioClient &",
   "referenced_type" : "type-1504",
   "self_type" : "type-1507",
   "size" : 4,
   "source_file" : "/frameworks/av/media/libaaudio/src/binding/AAudioBinderClient.h"
  },
  {
   "alignment" : 4,
   "linker_set_key" : "const android::AudioClient &",
   "name" : "const android::AudioClient &",
   "referenced_type" : "type-1620",
   "self_type" : "type-1622",
   "size" : 4,
   "source_file" : "/frameworks/av/media/libaaudio/src/binding/AAudioBinderClient.h"
  },
  {
   "alignment" : 4,
   "linker_set_key" : "const android::AudioClient &",
   "name" : "const android::AudioClient &",
   "referenced_type" : "type-1699",
   "self_type" : "type-1701",
   "size" : 4,
   "source_file" : "/frameworks/av/media/libaaudio/src/binding/AAudioBinderClient.h"
  },
  {
   "alignment" : 4,
   "linker_set_key" : "const android::AudioClient &",
   "name" : "const android::AudioClient &",
   "referenced_type" : "type-1758",
   "self_type" : "type-1760",
   "size" : 4,
   "source_file" : "/frameworks/av/media/libaaudio/src/client/AudioStreamInternal.h"
  },
  {
   "alignment" : 4,
   "linker_set_key" : "const android::AudioClient &",
   "name" : "const android::AudioClient &",
   "referenced_type" : "type-182",
   "self_type" : "type-184",
   "size" : 4,
   "source_file" : "/frameworks/av/media/libaaudio/src/binding/AAudioBinderClient.h"
  },
  {
   "alignment" : 4,
   "linker_set_key" : "const android::AudioClient &",
   "name" : "const android::AudioClient &",
   "referenced_type" : "type-368",
   "self_type" : "type-370",
   "size" : 4,
   "source_file" : "/frameworks/av/media/libaaudio/src/binding/AAudioBinderClient.h"
  },
  {
   "alignment" : 4,
   "linker_set_key" : "const android::AudioClient &",
   "name" : "const android::AudioClient &",
   "referenced_type" : "type-443",
   "self_type" : "type-445",
   "size" : 4,
   "source_file" : "/frameworks/av/media/libaaudio/src/client/AudioStreamInternal.h"
  },
  {
   "alignment" : 4,
   "linker_set_key" : "const android::AudioClient &",
   "name" : "const android::AudioClient &",
   "referenced_type" : "type-503",
   "self_type" : "type-505",
   "size" : 4,
   "source_file" : "/frameworks/av/media/libaaudio/src/binding/AAudioBinderClient.h"
  },
  {
   "alignment" : 4,
   "linker_set_key" : "const android::AudioClient &",
   "name" : "const android::AudioClient &",
   "referenced_type" : "type-547",
   "self_type" : "type-549",
   "size" : 4,
   "source_file" : "/frameworks/av/media/libaaudio/src/binding/AAudioBinderClient.h"
  },
  {
   "alignment" : 4,
   "linker_set_key" : "const android::AudioClient &",
   "name" : "const android::AudioClient &",
   "referenced_type" : "type-670",
   "self_type" : "type-672",
   "size" : 4,
   "source_file" : "/frameworks/av/media/libaaudio/src/binding/AAudioBinderClient.h"
  },
  {
   "alignment" : 4,
   "linker_set_key" : "const android::AudioClient &",
   "name" : "const android::AudioClient &",
   "referenced_type" : "type-745",
   "self_type" : "type-747",
   "size" : 4,
   "source_file" : "/frameworks/av/media/libaaudio/src/client/AudioStreamInternal.h"
  },
  {
   "alignment" : 4,
   "linker_set_key" : "const android::AudioClient &",
   "name" : "const android::AudioClient &",
   "referenced_type" : "type-804",
   "self_type" : "type-806",
   "size" : 4,
   "source_file" : "/frameworks/av/media/libaaudio/src/binding/AAudioBinderClient.h"
  },
  {
   "alignment" : 4,
   "linker_set_key" : "const android::AudioClient &",
   "name" : "const android::AudioClient &",
   "referenced_type" : "type-886",
   "self_type" : "type-888",
   "size" : 4,
   "source_file" : "/frameworks/av/media/libaaudio/src/binding/AAudioBinderClient.h"
  },
  {
   "alignment" : 4,
   "linker_set_key" : "const android::AudioClient &",
   "name" : "const android::AudioClient &",
   "referenced_type" : "type-961",
   "self_type" : "type-963",
   "size" : 4,
   "source_file" : "/frameworks/av/media/libaaudio/src/client/AudioStreamInternal.h"
  },
  {
   "alignment" : 4,
   "linker_set_key" : "const android::Parcel &",
   "name" : "const android::Parcel &",
   "referenced_type" : "type-1054",
   "self_type" : "type-1056",
   "size" : 4,
   "source_file" : "/frameworks/av/media/libaaudio/src/binding/IAAudioClient.h"
  },
  {
   "alignment" : 4,
   "linker_set_key" : "const android::Parcel &",
   "name" : "const android::Parcel &",
   "referenced_type" : "type-1083",
   "self_type" : "type-1085",
   "size" : 4,
   "source_file" : "/frameworks/av/media/libaaudio/src/binding/IAAudioService.h"
  },
  {
   "alignment" : 4,
   "linker_set_key" : "const android::Parcel &",
   "name" : "const android::Parcel &",
   "referenced_type" : "type-1362",
   "self_type" : "type-1364",
   "size" : 4,
   "source_file" : "/frameworks/av/media/libaaudio/src/binding/IAAudioClient.h"
  },
  {
   "alignment" : 4,
   "linker_set_key" : "const android::Parcel &",
   "name" : "const android::Parcel &",
   "referenced_type" : "type-1391",
   "self_type" : "type-1393",
   "size" : 4,
   "source_file" : "/frameworks/av/media/libaaudio/src/binding/IAAudioService.h"
  },
  {
   "alignment" : 4,
   "linker_set_key" : "const android::Parcel &",
   "name" : "const android::Parcel &",
   "referenced_type" : "type-1495",
   "self_type" : "type-1498",
   "size" : 4,
   "source_file" : "/frameworks/av/media/libaaudio/src/binding/IAAudioClient.h"
  },
  {
   "alignment" : 4,
   "linker_set_key" : "const android::Parcel &",
   "name" : "const android::Parcel &",
   "referenced_type" : "type-1526",
   "self_type" : "type-1528",
   "size" : 4,
   "source_file" : "/frameworks/av/media/libaaudio/src/binding/IAAudioService.h"
  },
  {
   "alignment" : 4,
   "linker_set_key" : "const android::Parcel &",
   "name" : "const android::Parcel &",
   "referenced_type" : "type-537",
   "self_type" : "type-539",
   "size" : 4,
   "source_file" : "/frameworks/av/media/libaaudio/src/binding/IAAudioClient.h"
  },
  {
   "alignment" : 4,
   "linker_set_key" : "const android::Parcel &",
   "name" : "const android::Parcel &",
   "referenced_type" : "type-566",
   "self_type" : "type-568",
   "size" : 4,
   "source_file" : "/frameworks/av/media/libaaudio/src/binding/IAAudioService.h"
  },
  {
   "alignment" : 4,
   "linker_set_key" : "const android::String16 &",
   "name" : "const android::String16 &",
   "referenced_type" : "type-1041",
   "self_type" : "type-1046",
   "size" : 4,
   "source_file" : "/frameworks/av/media/libaaudio/src/binding/IAAudioClient.h"
  },
  {
   "alignment" : 4,
   "linker_set_key" : "const android::String16 &",
   "name" : "const android::String16 &",
   "referenced_type" : "type-1070",
   "self_type" : "type-1075",
   "size" : 4,
   "source_file" : "/frameworks/av/media/libaaudio/src/binding/IAAudioService.h"
  },
  {
   "alignment" : 4,
   "linker_set_key" : "const android::String16 &",
   "name" : "const android::String16 &",
   "referenced_type" : "type-1349",
   "self_type" : "type-1354",
   "size" : 4,
   "source_file" : "/frameworks/av/media/libaaudio/src/binding/IAAudioClient.h"
  },
  {
   "alignment" : 4,
   "linker_set_key" : "const android::String16 &",
   "name" : "const android::String16 &",
   "referenced_type" : "type-1378",
   "self_type" : "type-1383",
   "size" : 4,
   "source_file" : "/frameworks/av/media/libaaudio/src/binding/IAAudioService.h"
  },
  {
   "alignment" : 4,
   "linker_set_key" : "const android::String16 &",
   "name" : "const android::String16 &",
   "referenced_type" : "type-1481",
   "self_type" : "type-1487",
   "size" : 4,
   "source_file" : "/frameworks/av/media/libaaudio/src/binding/IAAudioClient.h"
  },
  {
   "alignment" : 4,
   "linker_set_key" : "const android::String16 &",
   "name" : "const android::String16 &",
   "referenced_type" : "type-1512",
   "self_type" : "type-1517",
   "size" : 4,
   "source_file" : "/frameworks/av/media/libaaudio/src/binding/IAAudioService.h"
  },
  {
   "alignment" : 4,
   "linker_set_key" : "const android::String16 &",
   "name" : "const android::String16 &",
   "referenced_type" : "type-524",
   "self_type" : "type-529",
   "size" : 4,
   "source_file" : "/frameworks/av/media/libaaudio/src/binding/IAAudioClient.h"
  },
  {
   "alignment" : 4,
   "linker_set_key" : "const android::String16 &",
   "name" : "const android::String16 &",
   "referenced_type" : "type-553",
   "self_type" : "type-558",
   "size" : 4,
   "source_file" : "/frameworks/av/media/libaaudio/src/binding/IAAudioService.h"
  },
  {
   "alignment" : 4,
   "linker_set_key" : "const android::base::unique_fd_impl<android::base::DefaultCloser> &",
   "name" : "const android::base::unique_fd_impl<android::base::DefaultCloser> &",
   "referenced_type" : "type-1098",
   "self_type" : "type-1100",
   "size" : 4,
   "source_file" : "/frameworks/av/media/libaaudio/src/binding/SharedMemoryParcelable.h"
  },
  {
   "alignment" : 4,
   "linker_set_key" : "const android::base::unique_fd_impl<android::base::DefaultCloser> &",
   "name" : "const android::base::unique_fd_impl<android::base::DefaultCloser> &",
   "referenced_type" : "type-1307",
   "self_type" : "type-1309",
   "size" : 4,
   "source_file" : "/frameworks/av/media/libaaudio/src/binding/AudioEndpointParcelable.h"
  },
  {
   "alignment" : 4,
   "linker_set_key" : "const android::base::unique_fd_impl<android::base::DefaultCloser> &",
   "name" : "const android::base::unique_fd_impl<android::base::DefaultCloser> &",
   "referenced_type" : "type-1406",
   "self_type" : "type-1408",
   "size" : 4,
   "source_file" : "/frameworks/av/media/libaaudio/src/binding/SharedMemoryParcelable.h"
  },
  {
   "alignment" : 4,
   "linker_set_key" : "const android::base::unique_fd_impl<android::base::DefaultCloser> &",
   "name" : "const android::base::unique_fd_impl<android::base::DefaultCloser> &",
   "referenced_type" : "type-1439",
   "self_type" : "type-1441",
   "size" : 4,
   "source_file" : "/frameworks/av/media/libaaudio/src/binding/AudioEndpointParcelable.h"
  },
  {
   "alignment" : 4,
   "linker_set_key" : "const android::base::unique_fd_impl<android::base::DefaultCloser> &",
   "name" : "const android::base::unique_fd_impl<android::base::DefaultCloser> &",
   "referenced_type" : "type-1543",
   "self_type" : "type-1545",
   "size" : 4,
   "source_file" : "/frameworks/av/media/libaaudio/src/binding/SharedMemoryParcelable.h"
  },
  {
   "alignment" : 4,
   "linker_set_key" : "const android::base::unique_fd_impl<android::base::DefaultCloser> &",
   "name" : "const android::base::unique_fd_impl<android::base::DefaultCloser> &",
   "referenced_type" : "type-482",
   "self_type" : "type-484",
   "size" : 4,
   "source_file" : "/frameworks/av/media/libaaudio/src/binding/AudioEndpointParcelable.h"
  },
  {
   "alignment" : 4,
   "linker_set_key" : "const android::base::unique_fd_impl<android::base::DefaultCloser> &",
   "name" : "const android::base::unique_fd_impl<android::base::DefaultCloser> &",
   "referenced_type" : "type-581",
   "self_type" : "type-583",
   "size" : 4,
   "source_file" : "/frameworks/av/media/libaaudio/src/binding/SharedMemoryParcelable.h"
  },
  {
   "alignment" : 4,
   "linker_set_key" : "const android::base::unique_fd_impl<android::base::DefaultCloser> &",
   "name" : "const android::base::unique_fd_impl<android::base::DefaultCloser> &",
   "referenced_type" : "type-783",
   "self_type" : "type-785",
   "size" : 4,
   "source_file" : "/frameworks/av/media/libaaudio/src/binding/AudioEndpointParcelable.h"
  },
  {
   "alignment" : 4,
   "linker_set_key" : "const android::base::unique_fd_impl<android::base::DefaultCloser> &",
   "name" : "const android::base::unique_fd_impl<android::base::DefaultCloser> &",
   "referenced_type" : "type-999",
   "self_type" : "type-1001",
   "size" : 4,
   "source_file" : "/frameworks/av/media/libaaudio/src/binding/AudioEndpointParcelable.h"
  },
  {
   "alignment" : 4,
   "linker_set_key" : "const android::sp<android::IAAudioClient> &",
   "name" : "const android::sp<android::IAAudioClient> &",
   "referenced_type" : "type-1015",
   "self_type" : "type-1017",
   "size" : 4,
   "source_file" : "/frameworks/av/media/libaaudio/src/binding/AAudioBinderClient.h"
  },
  {
   "alignment" : 4,
   "linker_set_key" : "const android::sp<android::IAAudioClient> &",
   "name" : "const android::sp<android::IAAudioClient> &",
   "referenced_type" : "type-1061",
   "self_type" : "type-1063",
   "size" : 4,
   "source_file" : "/frameworks/av/media/libaaudio/src/binding/AAudioBinderClient.h"
  },
  {
   "alignment" : 4,
   "linker_set_key" : "const android::sp<android::IAAudioClient> &",
   "name" : "const android::sp<android::IAAudioClient> &",
   "referenced_type" : "type-1191",
   "self_type" : "type-1193",
   "size" : 4,
   "source_file" : "/frameworks/av/media/libaaudio/src/binding/AAudioBinderClient.h"
  },
  {
   "alignment" : 4,
   "linker_set_key" : "const android::sp<android::IAAudioClient> &",
   "name" : "const android::sp<android::IAAudioClient> &",
   "referenced_type" : "type-1323",
   "self_type" : "type-1325",
   "size" : 4,
   "source_file" : "/frameworks/av/media/libaaudio/src/binding/AAudioBinderClient.h"
  },
  {
   "alignment" : 4,
   "linker_set_key" : "const android::sp<android::IAAudioClient> &",
   "name" : "const android::sp<android::IAAudioClient> &",
   "referenced_type" : "type-1369",
   "self_type" : "type-1371",
   "size" : 4,
   "source_file" : "/frameworks/av/media/libaaudio/src/binding/AAudioBinderClient.h"
  },
  {
   "alignment" : 4,
   "linker_set_key" : "const android::sp<android::IAAudioClient> &",
   "name" : "const android::sp<android::IAAudioClient> &",
   "referenced_type" : "type-1456",
   "self_type" : "type-1458",
   "size" : 4,
   "source_file" : "/frameworks/av/media/libaaudio/src/binding/AAudioBinderClient.h"
  },
  {
   "alignment" : 4,
   "linker_set_key" : "const android::sp<android::IAAudioClient> &",
   "name" : "const android::sp<android::IAAudioClient> &",
   "referenced_type" : "type-1501",
   "self_type" : "type-1503",
   "size" : 4,
   "source_file" : "/frameworks/av/media/libaaudio/src/binding/AAudioBinderClient.h"
  },
  {
   "alignment" : 4,
   "linker_set_key" : "const android::sp<android::IAAudioClient> &",
   "name" : "const android::sp<android::IAAudioClient> &",
   "referenced_type" : "type-1617",
   "self_type" : "type-1619",
   "size" : 4,
   "source_file" : "/frameworks/av/media/libaaudio/src/binding/AAudioBinderClient.h"
  },
  {
   "alignment" : 4,
   "linker_set_key" : "const android::sp<android::IAAudioClient> &",
   "name" : "const android::sp<android::IAAudioClient> &",
   "referenced_type" : "type-1696",
   "self_type" : "type-1698",
   "size" : 4,
   "source_file" : "/frameworks/av/media/libaaudio/src/binding/AAudioBinderClient.h"
  },
  {
   "alignment" : 4,
   "linker_set_key" : "const android::sp<android::IAAudioClient> &",
   "name" : "const android::sp<android::IAAudioClient> &",
   "referenced_type" : "type-179",
   "self_type" : "type-181",
   "size" : 4,
   "source_file" : "/frameworks/av/media/libaaudio/src/binding/AAudioBinderClient.h"
  },
  {
   "alignment" : 4,
   "linker_set_key" : "const android::sp<android::IAAudioClient> &",
   "name" : "const android::sp<android::IAAudioClient> &",
   "referenced_type" : "type-365",
   "self_type" : "type-367",
   "size" : 4,
   "source_file" : "/frameworks/av/media/libaaudio/src/binding/AAudioBinderClient.h"
  },
  {
   "alignment" : 4,
   "linker_set_key" : "const android::sp<android::IAAudioClient> &",
   "name" : "const android::sp<android::IAAudioClient> &",
   "referenced_type" : "type-498",
   "self_type" : "type-500",
   "size" : 4,
   "source_file" : "/frameworks/av/media/libaaudio/src/binding/AAudioBinderClient.h"
  },
  {
   "alignment" : 4,
   "linker_set_key" : "const android::sp<android::IAAudioClient> &",
   "name" : "const android::sp<android::IAAudioClient> &",
   "referenced_type" : "type-544",
   "self_type" : "type-546",
   "size" : 4,
   "source_file" : "/frameworks/av/media/libaaudio/src/binding/AAudioBinderClient.h"
  },
  {
   "alignment" : 4,
   "linker_set_key" : "const android::sp<android::IAAudioClient> &",
   "name" : "const android::sp<android::IAAudioClient> &",
   "referenced_type" : "type-667",
   "self_type" : "type-669",
   "size" : 4,
   "source_file" : "/frameworks/av/media/libaaudio/src/binding/AAudioBinderClient.h"
  },
  {
   "alignment" : 4,
   "linker_set_key" : "const android::sp<android::IAAudioClient> &",
   "name" : "const android::sp<android::IAAudioClient> &",
   "referenced_type" : "type-799",
   "self_type" : "type-801",
   "size" : 4,
   "source_file" : "/frameworks/av/media/libaaudio/src/binding/AAudioBinderClient.h"
  },
  {
   "alignment" : 4,
   "linker_set_key" : "const android::sp<android::IAAudioClient> &",
   "name" : "const android::sp<android::IAAudioClient> &",
   "referenced_type" : "type-883",
   "self_type" : "type-885",
   "size" : 4,
   "source_file" : "/frameworks/av/media/libaaudio/src/binding/AAudioBinderClient.h"
  },
  {
   "alignment" : 4,
   "linker_set_key" : "const android::sp<android::IBinder> &",
   "name" : "const android::sp<android::IBinder> &",
   "referenced_type" : "type-1043",
   "self_type" : "type-1045",
   "size" : 4,
   "source_file" : "/frameworks/av/media/libaaudio/src/binding/IAAudioClient.h"
  },
  {
   "alignment" : 4,
   "linker_set_key" : "const android::sp<android::IBinder> &",
   "name" : "const android::sp<android::IBinder> &",
   "referenced_type" : "type-1072",
   "self_type" : "type-1074",
   "size" : 4,
   "source_file" : "/frameworks/av/media/libaaudio/src/binding/IAAudioService.h"
  },
  {
   "alignment" : 4,
   "linker_set_key" : "const android::sp<android::IBinder> &",
   "name" : "const android::sp<android::IBinder> &",
   "referenced_type" : "type-1351",
   "self_type" : "type-1353",
   "size" : 4,
   "source_file" : "/frameworks/av/media/libaaudio/src/binding/IAAudioClient.h"
  },
  {
   "alignment" : 4,
   "linker_set_key" : "const android::sp<android::IBinder> &",
   "name" : "const android::sp<android::IBinder> &",
   "referenced_type" : "type-1380",
   "self_type" : "type-1382",
   "size" : 4,
   "source_file" : "/frameworks/av/media/libaaudio/src/binding/IAAudioService.h"
  },
  {
   "alignment" : 4,
   "linker_set_key" : "const android::sp<android::IBinder> &",
   "name" : "const android::sp<android::IBinder> &",
   "referenced_type" : "type-1483",
   "self_type" : "type-1485",
   "size" : 4,
   "source_file" : "/frameworks/av/media/libaaudio/src/binding/IAAudioClient.h"
  },
  {
   "alignment" : 4,
   "linker_set_key" : "const android::sp<android::IBinder> &",
   "name" : "const android::sp<android::IBinder> &",
   "referenced_type" : "type-1514",
   "self_type" : "type-1516",
   "size" : 4,
   "source_file" : "/frameworks/av/media/libaaudio/src/binding/IAAudioService.h"
  },
  {
   "alignment" : 4,
   "linker_set_key" : "const android::sp<android::IBinder> &",
   "name" : "const android::sp<android::IBinder> &",
   "referenced_type" : "type-526",
   "self_type" : "type-528",
   "size" : 4,
   "source_file" : "/frameworks/av/media/libaaudio/src/binding/IAAudioClient.h"
  },
  {
   "alignment" : 4,
   "linker_set_key" : "const android::sp<android::IBinder> &",
   "name" : "const android::sp<android::IBinder> &",
   "referenced_type" : "type-555",
   "self_type" : "type-557",
   "size" : 4,
   "source_file" : "/frameworks/av/media/libaaudio/src/binding/IAAudioService.h"
  },
  {
   "alignment" : 4,
   "linker_set_key" : "const android::wp<android::IBinder> &",
   "name" : "const android::wp<android::IBinder> &",
   "referenced_type" : "type-1023",
   "self_type" : "type-1025",
   "size" : 4,
   "source_file" : "/frameworks/av/media/libaaudio/src/binding/AAudioBinderClient.h"
  },
  {
   "alignment" : 4,
   "linker_set_key" : "const android::wp<android::IBinder> &",
   "name" : "const android::wp<android::IBinder> &",
   "referenced_type" : "type-1067",
   "self_type" : "type-1069",
   "size" : 4,
   "source_file" : "/frameworks/av/media/libaaudio/src/binding/AAudioBinderClient.h"
  },
  {
   "alignment" : 4,
   "linker_set_key" : "const android::wp<android::IBinder> &",
   "name" : "const android::wp<android::IBinder> &",
   "referenced_type" : "type-1200",
   "self_type" : "type-1202",
   "size" : 4,
   "source_file" : "/frameworks/av/media/libaaudio/src/binding/AAudioBinderClient.h"
  },
  {
   "alignment" : 4,
   "linker_set_key" : "const android::wp<android::IBinder> &",
   "name" : "const android::wp<android::IBinder> &",
   "referenced_type" : "type-1331",
   "self_type" : "type-1333",
   "size" : 4,
   "source_file" : "/frameworks/av/media/libaaudio/src/binding/AAudioBinderClient.h"
  },
  {
   "alignment" : 4,
   "linker_set_key" : "const android::wp<android::IBinder> &",
   "name" : "const android::wp<android::IBinder> &",
   "referenced_type" : "type-1375",
   "self_type" : "type-1377",
   "size" : 4,
   "source_file" : "/frameworks/av/media/libaaudio/src/binding/AAudioBinderClient.h"
  },
  {
   "alignment" : 4,
   "linker_set_key" : "const android::wp<android::IBinder> &",
   "name" : "const android::wp<android::IBinder> &",
   "referenced_type" : "type-1464",
   "self_type" : "type-1466",
   "size" : 4,
   "source_file" : "/frameworks/av/media/libaaudio/src/binding/AAudioBinderClient.h"
  },
  {
   "alignment" : 4,
   "linker_set_key" : "const android::wp<android::IBinder> &",
   "name" : "const android::wp<android::IBinder> &",
   "referenced_type" : "type-1508",
   "self_type" : "type-1510",
   "size" : 4,
   "source_file" : "/frameworks/av/media/libaaudio/src/binding/AAudioBinderClient.h"
  },
  {
   "alignment" : 4,
   "linker_set_key" : "const android::wp<android::IBinder> &",
   "name" : "const android::wp<android::IBinder> &",
   "referenced_type" : "type-1626",
   "self_type" : "type-1628",
   "size" : 4,
   "source_file" : "/frameworks/av/media/libaaudio/src/binding/AAudioBinderClient.h"
  },
  {
   "alignment" : 4,
   "linker_set_key" : "const android::wp<android::IBinder> &",
   "name" : "const android::wp<android::IBinder> &",
   "referenced_type" : "type-1702",
   "self_type" : "type-1704",
   "size" : 4,
   "source_file" : "/frameworks/av/media/libaaudio/src/binding/AAudioBinderClient.h"
  },
  {
   "alignment" : 4,
   "linker_set_key" : "const android::wp<android::IBinder> &",
   "name" : "const android::wp<android::IBinder> &",
   "referenced_type" : "type-189",
   "self_type" : "type-191",
   "size" : 4,
   "source_file" : "/frameworks/av/media/libaaudio/src/binding/AAudioBinderClient.h"
  },
  {
   "alignment" : 4,
   "linker_set_key" : "const android::wp<android::IBinder> &",
   "name" : "const android::wp<android::IBinder> &",
   "referenced_type" : "type-374",
   "self_type" : "type-376",
   "size" : 4,
   "source_file" : "/frameworks/av/media/libaaudio/src/binding/AAudioBinderClient.h"
  },
  {
   "alignment" : 4,
   "linker_set_key" : "const android::wp<android::IBinder> &",
   "name" : "const android::wp<android::IBinder> &",
   "referenced_type" : "type-506",
   "self_type" : "type-508",
   "size" : 4,
   "source_file" : "/frameworks/av/media/libaaudio/src/binding/AAudioBinderClient.h"
  },
  {
   "alignment" : 4,
   "linker_set_key" : "const android::wp<android::IBinder> &",
   "name" : "const android::wp<android::IBinder> &",
   "referenced_type" : "type-550",
   "self_type" : "type-552",
   "size" : 4,
   "source_file" : "/frameworks/av/media/libaaudio/src/binding/AAudioBinderClient.h"
  },
  {
   "alignment" : 4,
   "linker_set_key" : "const android::wp<android::IBinder> &",
   "name" : "const android::wp<android::IBinder> &",
   "referenced_type" : "type-676",
   "self_type" : "type-678",
   "size" : 4,
   "source_file" : "/frameworks/av/media/libaaudio/src/binding/AAudioBinderClient.h"
  },
  {
   "alignment" : 4,
   "linker_set_key" : "const android::wp<android::IBinder> &",
   "name" : "const android::wp<android::IBinder> &",
   "referenced_type" : "type-807",
   "self_type" : "type-809",
   "size" : 4,
   "source_file" : "/frameworks/av/media/libaaudio/src/binding/AAudioBinderClient.h"
  },
  {
   "alignment" : 4,
   "linker_set_key" : "const android::wp<android::IBinder> &",
   "name" : "const android::wp<android::IBinder> &",
   "referenced_type" : "type-892",
   "self_type" : "type-894",
   "size" : 4,
   "source_file" : "/frameworks/av/media/libaaudio/src/binding/AAudioBinderClient.h"
  },
  {
   "alignment" : 4,
   "linker_set_key" : "const std::unique_ptr<android::IAAudioClient, std::default_delete<android::IAAudioClient> > &",
   "name" : "const std::unique_ptr<android::IAAudioClient, std::default_delete<android::IAAudioClient> > &",
   "referenced_type" : "type-1051",
   "self_type" : "type-1050",
   "size" : 4,
   "source_file" : "/frameworks/av/media/libaaudio/src/binding/IAAudioClient.h"
  },
  {
   "alignment" : 4,
   "linker_set_key" : "const std::unique_ptr<android::IAAudioClient, std::default_delete<android::IAAudioClient> > &",
   "name" : "const std::unique_ptr<android::IAAudioClient, std::default_delete<android::IAAudioClient> > &",
   "referenced_type" : "type-1359",
   "self_type" : "type-1358",
   "size" : 4,
   "source_file" : "/frameworks/av/media/libaaudio/src/binding/IAAudioClient.h"
  },
  {
   "alignment" : 4,
   "linker_set_key" : "const std::unique_ptr<android::IAAudioClient, std::default_delete<android::IAAudioClient> > &",
   "name" : "const std::unique_ptr<android::IAAudioClient, std::default_delete<android::IAAudioClient> > &",
   "referenced_type" : "type-1492",
   "self_type" : "type-1491",
   "size" : 4,
   "source_file" : "/frameworks/av/media/libaaudio/src/binding/IAAudioClient.h"
  },
  {
   "alignment" : 4,
   "linker_set_key" : "const std::unique_ptr<android::IAAudioClient, std::default_delete<android::IAAudioClient> > &",
   "name" : "const std::unique_ptr<android::IAAudioClient, std::default_delete<android::IAAudioClient> > &",
   "referenced_type" : "type-534",
   "self_type" : "type-533",
   "size" : 4,
   "source_file" : "/frameworks/av/media/libaaudio/src/binding/IAAudioClient.h"
  },
  {
   "alignment" : 4,
   "linker_set_key" : "const std::unique_ptr<android::IAAudioService, std::default_delete<android::IAAudioService> > &",
   "name" : "const std::unique_ptr<android::IAAudioService, std::default_delete<android::IAAudioService> > &",
   "referenced_type" : "type-1080",
   "self_type" : "type-1079",
   "size" : 4,
   "source_file" : "/frameworks/av/media/libaaudio/src/binding/IAAudioService.h"
  },
  {
   "alignment" : 4,
   "linker_set_key" : "const std::unique_ptr<android::IAAudioService, std::default_delete<android::IAAudioService> > &",
   "name" : "const std::unique_ptr<android::IAAudioService, std::default_delete<android::IAAudioService> > &",
   "referenced_type" : "type-1388",
   "self_type" : "type-1387",
   "size" : 4,
   "source_file" : "/frameworks/av/media/libaaudio/src/binding/IAAudioService.h"
  },
  {
   "alignment" : 4,
   "linker_set_key" : "const std::unique_ptr<android::IAAudioService, std::default_delete<android::IAAudioService> > &",
   "name" : "const std::unique_ptr<android::IAAudioService, std::default_delete<android::IAAudioService> > &",
   "referenced_type" : "type-1523",
   "self_type" : "type-1522",
   "size" : 4,
   "source_file" : "/frameworks/av/media/libaaudio/src/binding/IAAudioService.h"
  },
  {
   "alignment" : 4,
   "linker_set_key" : "const std::unique_ptr<android::IAAudioService, std::default_delete<android::IAAudioService> > &",
   "name" : "const std::unique_ptr<android::IAAudioService, std::default_delete<android::IAAudioService> > &",
   "referenced_type" : "type-563",
   "self_type" : "type-562",
   "size" : 4,
   "source_file" : "/frameworks/av/media/libaaudio/src/binding/IAAudioService.h"
  },
  {
   "alignment" : 4,
   "linker_set_key" : "flowgraph::AudioProcessorBase &",
   "name" : "flowgraph::AudioProcessorBase &",
   "referenced_type" : "type-72",
   "self_type" : "type-75",
   "size" : 4,
   "source_file" : "/frameworks/av/media/libaaudio/src/flowgraph/AudioProcessorBase.h"
  }
 ],
 "pointer_types" :
 [
  {
   "alignment" : 4,
   "linker_set_key" : "AAudioFlowGraph *",
   "name" : "AAudioFlowGraph *",
   "referenced_type" : "type-106",
   "self_type" : "type-261",
   "size" : 4,
   "source_file" : "/frameworks/av/media/libaaudio/src/client/AAudioFlowGraph.h"
  },
  {
   "alignment" : 4,
   "linker_set_key" : "AAudioStreamBuilderStruct *",
   "name" : "AAudioStreamBuilderStruct *",
   "referenced_type" : "type-1217",
   "self_type" : "type-1216",
   "size" : 4,
   "source_file" : "/frameworks/av/media/libaaudio/include/aaudio/AAudio.h"
  },
  {
   "alignment" : 4,
   "linker_set_key" : "AAudioStreamBuilderStruct *",
   "name" : "AAudioStreamBuilderStruct *",
   "referenced_type" : "type-1643",
   "self_type" : "type-1642",
   "size" : 4,
   "source_file" : "/frameworks/av/media/libaaudio/include/aaudio/AAudio.h"
  },
  {
   "alignment" : 4,
   "linker_set_key" : "AAudioStreamBuilderStruct *",
   "name" : "AAudioStreamBuilderStruct *",
   "referenced_type" : "type-1712",
   "self_type" : "type-1711",
   "size" : 4,
   "source_file" : "/frameworks/av/media/libaaudio/include/aaudio/AAudio.h"
  },
  {
   "alignment" : 4,
   "linker_set_key" : "AAudioStreamBuilderStruct *",
   "name" : "AAudioStreamBuilderStruct *",
   "referenced_type" : "type-215",
   "self_type" : "type-214",
   "size" : 4,
   "source_file" : "/frameworks/av/media/libaaudio/include/aaudio/AAudio.h"
  },
  {
   "alignment" : 4,
   "linker_set_key" : "AAudioStreamBuilderStruct *",
   "name" : "AAudioStreamBuilderStruct *",
   "referenced_type" : "type-391",
   "self_type" : "type-390",
   "size" : 4,
   "source_file" : "/frameworks/av/media/libaaudio/include/aaudio/AAudio.h"
  },
  {
   "alignment" : 4,
   "linker_set_key" : "AAudioStreamBuilderStruct *",
   "name" : "AAudioStreamBuilderStruct *",
   "referenced_type" : "type-693",
   "self_type" : "type-692",
   "size" : 4,
   "source_file" : "/frameworks/av/media/libaaudio/include/aaudio/AAudio.h"
  },
  {
   "alignment" : 4,
   "linker_set_key" : "AAudioStreamBuilderStruct *",
   "name" : "AAudioStreamBuilderStruct *",
   "referenced_type" : "type-909",
   "self_type" : "type-908",
   "size" : 4,
   "source_file" : "/frameworks/av/media/libaaudio/include/aaudio/AAudio.h"
  },
  {
   "alignment" : 4,
   "linker_set_key" : "AAudioStreamBuilderStruct **",
   "name" : "AAudioStreamBuilderStruct **",
   "referenced_type" : "type-1216",
   "self_type" : "type-1220",
   "size" : 4,
   "source_file" : "/frameworks/av/media/libaaudio/include/aaudio/AAudio.h"
  },
  {
   "alignment" : 4,
   "linker_set_key" : "AAudioStreamBuilderStruct **",
   "name" : "AAudioStreamBuilderStruct **",
   "referenced_type" : "type-1642",
   "self_type" : "type-1646",
   "size" : 4,
   "source_file" : "/frameworks/av/media/libaaudio/include/aaudio/AAudio.h"
  },
  {
   "alignment" : 4,
   "linker_set_key" : "AAudioStreamBuilderStruct **",
   "name" : "AAudioStreamBuilderStruct **",
   "referenced_type" : "type-1711",
   "self_type" : "type-1715",
   "size" : 4,
   "source_file" : "/frameworks/av/media/libaaudio/include/aaudio/AAudio.h"
  },
  {
   "alignment" : 4,
   "linker_set_key" : "AAudioStreamBuilderStruct **",
   "name" : "AAudioStreamBuilderStruct **",
   "referenced_type" : "type-214",
   "self_type" : "type-218",
   "size" : 4,
   "source_file" : "/frameworks/av/media/libaaudio/include/aaudio/AAudio.h"
  },
  {
   "alignment" : 4,
   "linker_set_key" : "AAudioStreamBuilderStruct **",
   "name" : "AAudioStreamBuilderStruct **",
   "referenced_type" : "type-390",
   "self_type" : "type-394",
   "size" : 4,
   "source_file" : "/frameworks/av/media/libaaudio/include/aaudio/AAudio.h"
  },
  {
   "alignment" : 4,
   "linker_set_key" : "AAudioStreamBuilderStruct **",
   "name" : "AAudioStreamBuilderStruct **",
   "referenced_type" : "type-692",
   "self_type" : "type-696",
   "size" : 4,
   "source_file" : "/frameworks/av/media/libaaudio/include/aaudio/AAudio.h"
  },
  {
   "alignment" : 4,
   "linker_set_key" : "AAudioStreamBuilderStruct **",
   "name" : "AAudioStreamBuilderStruct **",
   "referenced_type" : "type-908",
   "self_type" : "type-912",
   "size" : 4,
   "source_file" : "/frameworks/av/media/libaaudio/include/aaudio/AAudio.h"
  },
  {
   "alignment" : 4,
   "linker_set_key" : "AAudioStreamStruct *",
   "name" : "AAudioStreamStruct *",
   "referenced_type" : "type-1060",
   "self_type" : "type-1059",
   "size" : 4,
   "source_file" : "/frameworks/av/media/libaaudio/src/core/AudioStream.h"
  },
  {
   "alignment" : 4,
   "linker_set_key" : "AAudioStreamStruct *",
   "name" : "AAudioStreamStruct *",
   "referenced_type" : "type-1211",
   "self_type" : "type-1210",
   "size" : 4,
   "source_file" : "/frameworks/av/media/libaaudio/include/aaudio/AAudio.h"
  },
  {
   "alignment" : 4,
   "linker_set_key" : "AAudioStreamStruct *",
   "name" : "AAudioStreamStruct *",
   "referenced_type" : "type-1215",
   "self_type" : "type-1214",
   "size" : 4,
   "source_file" : "/frameworks/av/media/libaaudio/src/core/AudioStream.h"
  },
  {
   "alignment" : 4,
   "linker_set_key" : "AAudioStreamStruct *",
   "name" : "AAudioStreamStruct *",
   "referenced_type" : "type-1227",
   "self_type" : "type-1226",
   "size" : 4,
   "source_file" : "/frameworks/av/media/libaaudio/src/core/AudioStream.h"
  },
  {
   "alignment" : 4,
   "linker_set_key" : "AAudioStreamStruct *",
   "name" : "AAudioStreamStruct *",
   "referenced_type" : "type-1237",
   "self_type" : "type-1236",
   "size" : 4,
   "source_file" : "/frameworks/av/media/libaaudio/src/core/AudioStream.h"
  },
  {
   "alignment" : 4,
   "linker_set_key" : "AAudioStreamStruct *",
   "name" : "AAudioStreamStruct *",
   "referenced_type" : "type-1244",
   "self_type" : "type-1243",
   "size" : 4,
   "source_file" : "/frameworks/av/media/libaaudio/src/core/AudioStream.h"
  },
  {
   "alignment" : 4,
   "linker_set_key" : "AAudioStreamStruct *",
   "name" : "AAudioStreamStruct *",
   "referenced_type" : "type-1283",
   "self_type" : "type-1282",
   "size" : 4,
   "source_file" : "/frameworks/av/media/libaaudio/src/core/AudioStream.h"
  },
  {
   "alignment" : 4,
   "linker_set_key" : "AAudioStreamStruct *",
   "name" : "AAudioStreamStruct *",
   "referenced_type" : "type-1291",
   "self_type" : "type-1290",
   "size" : 4,
   "source_file" : "/frameworks/av/media/libaaudio/src/core/AudioStream.h"
  },
  {
   "alignment" : 4,
   "linker_set_key" : "AAudioStreamStruct *",
   "name" : "AAudioStreamStruct *",
   "referenced_type" : "type-1296",
   "self_type" : "type-1295",
   "size" : 4,
   "source_file" : "/frameworks/av/media/libaaudio/src/core/AudioStream.h"
  },
  {
   "alignment" : 4,
   "linker_set_key" : "AAudioStreamStruct *",
   "name" : "AAudioStreamStruct *",
   "referenced_type" : "type-1368",
   "self_type" : "type-1367",
   "size" : 4,
   "source_file" : "/frameworks/av/media/libaaudio/src/core/AudioStream.h"
  },
  {
   "alignment" : 4,
   "linker_set_key" : "AAudioStreamStruct *",
   "name" : "AAudioStreamStruct *",
   "referenced_type" : "type-1429",
   "self_type" : "type-1428",
   "size" : 4,
   "source_file" : "/frameworks/av/media/libaaudio/src/core/AudioStream.h"
  },
  {
   "alignment" : 4,
   "linker_set_key" : "AAudioStreamStruct *",
   "name" : "AAudioStreamStruct *",
   "referenced_type" : "type-1637",
   "self_type" : "type-1636",
   "size" : 4,
   "source_file" : "/frameworks/av/media/libaaudio/include/aaudio/AAudio.h"
  },
  {
   "alignment" : 4,
   "linker_set_key" : "AAudioStreamStruct *",
   "name" : "AAudioStreamStruct *",
   "referenced_type" : "type-1641",
   "self_type" : "type-1640",
   "size" : 4,
   "source_file" : "/frameworks/av/media/libaaudio/src/core/AudioStream.h"
  },
  {
   "alignment" : 4,
   "linker_set_key" : "AAudioStreamStruct *",
   "name" : "AAudioStreamStruct *",
   "referenced_type" : "type-1653",
   "self_type" : "type-1652",
   "size" : 4,
   "source_file" : "/frameworks/av/media/libaaudio/src/core/AudioStream.h"
  },
  {
   "alignment" : 4,
   "linker_set_key" : "AAudioStreamStruct *",
   "name" : "AAudioStreamStruct *",
   "referenced_type" : "type-1663",
   "self_type" : "type-1662",
   "size" : 4,
   "source_file" : "/frameworks/av/media/libaaudio/src/core/AudioStream.h"
  },
  {
   "alignment" : 4,
   "linker_set_key" : "AAudioStreamStruct *",
   "name" : "AAudioStreamStruct *",
   "referenced_type" : "type-1670",
   "self_type" : "type-1669",
   "size" : 4,
   "source_file" : "/frameworks/av/media/libaaudio/src/core/AudioStream.h"
  },
  {
   "alignment" : 4,
   "linker_set_key" : "AAudioStreamStruct *",
   "name" : "AAudioStreamStruct *",
   "referenced_type" : "type-1679",
   "self_type" : "type-1678",
   "size" : 4,
   "source_file" : "/frameworks/av/media/libaaudio/src/core/AudioStream.h"
  },
  {
   "alignment" : 4,
   "linker_set_key" : "AAudioStreamStruct *",
   "name" : "AAudioStreamStruct *",
   "referenced_type" : "type-1685",
   "self_type" : "type-1684",
   "size" : 4,
   "source_file" : "/frameworks/av/media/libaaudio/src/core/AudioStream.h"
  },
  {
   "alignment" : 4,
   "linker_set_key" : "AAudioStreamStruct *",
   "name" : "AAudioStreamStruct *",
   "referenced_type" : "type-1708",
   "self_type" : "type-1707",
   "size" : 4,
   "source_file" : "/frameworks/av/media/libaaudio/include/aaudio/AAudio.h"
  },
  {
   "alignment" : 4,
   "linker_set_key" : "AAudioStreamStruct *",
   "name" : "AAudioStreamStruct *",
   "referenced_type" : "type-1721",
   "self_type" : "type-1720",
   "size" : 4,
   "source_file" : "/frameworks/av/media/libaaudio/src/core/AudioStream.h"
  },
  {
   "alignment" : 4,
   "linker_set_key" : "AAudioStreamStruct *",
   "name" : "AAudioStreamStruct *",
   "referenced_type" : "type-1730",
   "self_type" : "type-1729",
   "size" : 4,
   "source_file" : "/frameworks/av/media/libaaudio/src/core/AudioStream.h"
  },
  {
   "alignment" : 4,
   "linker_set_key" : "AAudioStreamStruct *",
   "name" : "AAudioStreamStruct *",
   "referenced_type" : "type-1737",
   "self_type" : "type-1736",
   "size" : 4,
   "source_file" : "/frameworks/av/media/libaaudio/src/core/AudioStream.h"
  },
  {
   "alignment" : 4,
   "linker_set_key" : "AAudioStreamStruct *",
   "name" : "AAudioStreamStruct *",
   "referenced_type" : "type-1757",
   "self_type" : "type-1756",
   "size" : 4,
   "source_file" : "/frameworks/av/media/libaaudio/src/core/AudioStream.h"
  },
  {
   "alignment" : 4,
   "linker_set_key" : "AAudioStreamStruct *",
   "name" : "AAudioStreamStruct *",
   "referenced_type" : "type-1770",
   "self_type" : "type-1769",
   "size" : 4,
   "source_file" : "/frameworks/av/media/libaaudio/src/core/AudioStream.h"
  },
  {
   "alignment" : 4,
   "linker_set_key" : "AAudioStreamStruct *",
   "name" : "AAudioStreamStruct *",
   "referenced_type" : "type-1778",
   "self_type" : "type-1777",
   "size" : 4,
   "source_file" : "/frameworks/av/media/libaaudio/src/core/AudioStream.h"
  },
  {
   "alignment" : 4,
   "linker_set_key" : "AAudioStreamStruct *",
   "name" : "AAudioStreamStruct *",
   "referenced_type" : "type-212",
   "self_type" : "type-211",
   "size" : 4,
   "source_file" : "/frameworks/av/media/libaaudio/include/aaudio/AAudio.h"
  },
  {
   "alignment" : 4,
   "linker_set_key" : "AAudioStreamStruct *",
   "name" : "AAudioStreamStruct *",
   "referenced_type" : "type-225",
   "self_type" : "type-224",
   "size" : 4,
   "source_file" : "/frameworks/av/media/libaaudio/src/core/AudioStream.h"
  },
  {
   "alignment" : 4,
   "linker_set_key" : "AAudioStreamStruct *",
   "name" : "AAudioStreamStruct *",
   "referenced_type" : "type-235",
   "self_type" : "type-234",
   "size" : 4,
   "source_file" : "/frameworks/av/media/libaaudio/src/core/AudioStream.h"
  },
  {
   "alignment" : 4,
   "linker_set_key" : "AAudioStreamStruct *",
   "name" : "AAudioStreamStruct *",
   "referenced_type" : "type-241",
   "self_type" : "type-240",
   "size" : 4,
   "source_file" : "/frameworks/av/media/libaaudio/src/core/AudioStream.h"
  },
  {
   "alignment" : 4,
   "linker_set_key" : "AAudioStreamStruct *",
   "name" : "AAudioStreamStruct *",
   "referenced_type" : "type-283",
   "self_type" : "type-282",
   "size" : 4,
   "source_file" : "/frameworks/av/media/libaaudio/src/core/AudioStream.h"
  },
  {
   "alignment" : 4,
   "linker_set_key" : "AAudioStreamStruct *",
   "name" : "AAudioStreamStruct *",
   "referenced_type" : "type-385",
   "self_type" : "type-384",
   "size" : 4,
   "source_file" : "/frameworks/av/media/libaaudio/include/aaudio/AAudio.h"
  },
  {
   "alignment" : 4,
   "linker_set_key" : "AAudioStreamStruct *",
   "name" : "AAudioStreamStruct *",
   "referenced_type" : "type-389",
   "self_type" : "type-388",
   "size" : 4,
   "source_file" : "/frameworks/av/media/libaaudio/src/core/AudioStream.h"
  },
  {
   "alignment" : 4,
   "linker_set_key" : "AAudioStreamStruct *",
   "name" : "AAudioStreamStruct *",
   "referenced_type" : "type-401",
   "self_type" : "type-400",
   "size" : 4,
   "source_file" : "/frameworks/av/media/libaaudio/src/core/AudioStream.h"
  },
  {
   "alignment" : 4,
   "linker_set_key" : "AAudioStreamStruct *",
   "name" : "AAudioStreamStruct *",
   "referenced_type" : "type-411",
   "self_type" : "type-410",
   "size" : 4,
   "source_file" : "/frameworks/av/media/libaaudio/src/core/AudioStream.h"
  },
  {
   "alignment" : 4,
   "linker_set_key" : "AAudioStreamStruct *",
   "name" : "AAudioStreamStruct *",
   "referenced_type" : "type-418",
   "self_type" : "type-417",
   "size" : 4,
   "source_file" : "/frameworks/av/media/libaaudio/src/core/AudioStream.h"
  },
  {
   "alignment" : 4,
   "linker_set_key" : "AAudioStreamStruct *",
   "name" : "AAudioStreamStruct *",
   "referenced_type" : "type-458",
   "self_type" : "type-457",
   "size" : 4,
   "source_file" : "/frameworks/av/media/libaaudio/src/core/AudioStream.h"
  },
  {
   "alignment" : 4,
   "linker_set_key" : "AAudioStreamStruct *",
   "name" : "AAudioStreamStruct *",
   "referenced_type" : "type-466",
   "self_type" : "type-465",
   "size" : 4,
   "source_file" : "/frameworks/av/media/libaaudio/src/core/AudioStream.h"
  },
  {
   "alignment" : 4,
   "linker_set_key" : "AAudioStreamStruct *",
   "name" : "AAudioStreamStruct *",
   "referenced_type" : "type-471",
   "self_type" : "type-470",
   "size" : 4,
   "source_file" : "/frameworks/av/media/libaaudio/src/core/AudioStream.h"
  },
  {
   "alignment" : 4,
   "linker_set_key" : "AAudioStreamStruct *",
   "name" : "AAudioStreamStruct *",
   "referenced_type" : "type-52",
   "self_type" : "type-51",
   "size" : 4,
   "source_file" : "/frameworks/av/media/libaaudio/src/core/AudioStream.h"
  },
  {
   "alignment" : 4,
   "linker_set_key" : "AAudioStreamStruct *",
   "name" : "AAudioStreamStruct *",
   "referenced_type" : "type-543",
   "self_type" : "type-542",
   "size" : 4,
   "source_file" : "/frameworks/av/media/libaaudio/src/core/AudioStream.h"
  },
  {
   "alignment" : 4,
   "linker_set_key" : "AAudioStreamStruct *",
   "name" : "AAudioStreamStruct *",
   "referenced_type" : "type-687",
   "self_type" : "type-686",
   "size" : 4,
   "source_file" : "/frameworks/av/media/libaaudio/include/aaudio/AAudio.h"
  },
  {
   "alignment" : 4,
   "linker_set_key" : "AAudioStreamStruct *",
   "name" : "AAudioStreamStruct *",
   "referenced_type" : "type-691",
   "self_type" : "type-690",
   "size" : 4,
   "source_file" : "/frameworks/av/media/libaaudio/src/core/AudioStream.h"
  },
  {
   "alignment" : 4,
   "linker_set_key" : "AAudioStreamStruct *",
   "name" : "AAudioStreamStruct *",
   "referenced_type" : "type-703",
   "self_type" : "type-702",
   "size" : 4,
   "source_file" : "/frameworks/av/media/libaaudio/src/core/AudioStream.h"
  },
  {
   "alignment" : 4,
   "linker_set_key" : "AAudioStreamStruct *",
   "name" : "AAudioStreamStruct *",
   "referenced_type" : "type-713",
   "self_type" : "type-712",
   "size" : 4,
   "source_file" : "/frameworks/av/media/libaaudio/src/core/AudioStream.h"
  },
  {
   "alignment" : 4,
   "linker_set_key" : "AAudioStreamStruct *",
   "name" : "AAudioStreamStruct *",
   "referenced_type" : "type-720",
   "self_type" : "type-719",
   "size" : 4,
   "source_file" : "/frameworks/av/media/libaaudio/src/core/AudioStream.h"
  },
  {
   "alignment" : 4,
   "linker_set_key" : "AAudioStreamStruct *",
   "name" : "AAudioStreamStruct *",
   "referenced_type" : "type-759",
   "self_type" : "type-758",
   "size" : 4,
   "source_file" : "/frameworks/av/media/libaaudio/src/core/AudioStream.h"
  },
  {
   "alignment" : 4,
   "linker_set_key" : "AAudioStreamStruct *",
   "name" : "AAudioStreamStruct *",
   "referenced_type" : "type-767",
   "self_type" : "type-766",
   "size" : 4,
   "source_file" : "/frameworks/av/media/libaaudio/src/core/AudioStream.h"
  },
  {
   "alignment" : 4,
   "linker_set_key" : "AAudioStreamStruct *",
   "name" : "AAudioStreamStruct *",
   "referenced_type" : "type-772",
   "self_type" : "type-771",
   "size" : 4,
   "source_file" : "/frameworks/av/media/libaaudio/src/core/AudioStream.h"
  },
  {
   "alignment" : 4,
   "linker_set_key" : "AAudioStreamStruct *",
   "name" : "AAudioStreamStruct *",
   "referenced_type" : "type-814",
   "self_type" : "type-813",
   "size" : 4,
   "source_file" : "/frameworks/av/media/libaaudio/src/core/AudioStream.h"
  },
  {
   "alignment" : 4,
   "linker_set_key" : "AAudioStreamStruct *",
   "name" : "AAudioStreamStruct *",
   "referenced_type" : "type-903",
   "self_type" : "type-902",
   "size" : 4,
   "source_file" : "/frameworks/av/media/libaaudio/include/aaudio/AAudio.h"
  },
  {
   "alignment" : 4,
   "linker_set_key" : "AAudioStreamStruct *",
   "name" : "AAudioStreamStruct *",
   "referenced_type" : "type-907",
   "self_type" : "type-906",
   "size" : 4,
   "source_file" : "/frameworks/av/media/libaaudio/src/core/AudioStream.h"
  },
  {
   "alignment" : 4,
   "linker_set_key" : "AAudioStreamStruct *",
   "name" : "AAudioStreamStruct *",
   "referenced_type" : "type-919",
   "self_type" : "type-918",
   "size" : 4,
   "source_file" : "/frameworks/av/media/libaaudio/src/core/AudioStream.h"
  },
  {
   "alignment" : 4,
   "linker_set_key" : "AAudioStreamStruct *",
   "name" : "AAudioStreamStruct *",
   "referenced_type" : "type-929",
   "self_type" : "type-928",
   "size" : 4,
   "source_file" : "/frameworks/av/media/libaaudio/src/core/AudioStream.h"
  },
  {
   "alignment" : 4,
   "linker_set_key" : "AAudioStreamStruct *",
   "name" : "AAudioStreamStruct *",
   "referenced_type" : "type-936",
   "self_type" : "type-935",
   "size" : 4,
   "source_file" : "/frameworks/av/media/libaaudio/src/core/AudioStream.h"
  },
  {
   "alignment" : 4,
   "linker_set_key" : "AAudioStreamStruct *",
   "name" : "AAudioStreamStruct *",
   "referenced_type" : "type-975",
   "self_type" : "type-974",
   "size" : 4,
   "source_file" : "/frameworks/av/media/libaaudio/src/core/AudioStream.h"
  },
  {
   "alignment" : 4,
   "linker_set_key" : "AAudioStreamStruct *",
   "name" : "AAudioStreamStruct *",
   "referenced_type" : "type-983",
   "self_type" : "type-982",
   "size" : 4,
   "source_file" : "/frameworks/av/media/libaaudio/src/core/AudioStream.h"
  },
  {
   "alignment" : 4,
   "linker_set_key" : "AAudioStreamStruct *",
   "name" : "AAudioStreamStruct *",
   "referenced_type" : "type-988",
   "self_type" : "type-987",
   "size" : 4,
   "source_file" : "/frameworks/av/media/libaaudio/src/core/AudioStream.h"
  },
  {
   "alignment" : 4,
   "linker_set_key" : "AAudioStreamStruct **",
   "name" : "AAudioStreamStruct **",
   "referenced_type" : "type-1210",
   "self_type" : "type-1213",
   "size" : 4,
   "source_file" : "/frameworks/av/media/libaaudio/include/aaudio/AAudio.h"
  },
  {
   "alignment" : 4,
   "linker_set_key" : "AAudioStreamStruct **",
   "name" : "AAudioStreamStruct **",
   "referenced_type" : "type-1636",
   "self_type" : "type-1639",
   "size" : 4,
   "source_file" : "/frameworks/av/media/libaaudio/include/aaudio/AAudio.h"
  },
  {
   "alignment" : 4,
   "linker_set_key" : "AAudioStreamStruct **",
   "name" : "AAudioStreamStruct **",
   "referenced_type" : "type-1707",
   "self_type" : "type-1710",
   "size" : 4,
   "source_file" : "/frameworks/av/media/libaaudio/include/aaudio/AAudio.h"
  },
  {
   "alignment" : 4,
   "linker_set_key" : "AAudioStreamStruct **",
   "name" : "AAudioStreamStruct **",
   "referenced_type" : "type-211",
   "self_type" : "type-213",
   "size" : 4,
   "source_file" : "/frameworks/av/media/libaaudio/include/aaudio/AAudio.h"
  },
  {
   "alignment" : 4,
   "linker_set_key" : "AAudioStreamStruct **",
   "name" : "AAudioStreamStruct **",
   "referenced_type" : "type-384",
   "self_type" : "type-387",
   "size" : 4,
   "source_file" : "/frameworks/av/media/libaaudio/include/aaudio/AAudio.h"
  },
  {
   "alignment" : 4,
   "linker_set_key" : "AAudioStreamStruct **",
   "name" : "AAudioStreamStruct **",
   "referenced_type" : "type-686",
   "self_type" : "type-689",
   "size" : 4,
   "source_file" : "/frameworks/av/media/libaaudio/include/aaudio/AAudio.h"
  },
  {
   "alignment" : 4,
   "linker_set_key" : "AAudioStreamStruct **",
   "name" : "AAudioStreamStruct **",
   "referenced_type" : "type-902",
   "self_type" : "type-905",
   "size" : 4,
   "source_file" : "/frameworks/av/media/libaaudio/include/aaudio/AAudio.h"
  },
  {
   "alignment" : 4,
   "linker_set_key" : "AtomicRequestor *",
   "name" : "AtomicRequestor *",
   "referenced_type" : "type-24",
   "self_type" : "type-149",
   "size" : 4,
   "source_file" : "/frameworks/av/media/libaaudio/src/utility/AAudioUtilities.h"
  },
  {
   "alignment" : 4,
   "linker_set_key" : "FixedBlockAdapter *",
   "name" : "FixedBlockAdapter *",
   "referenced_type" : "type-121",
   "self_type" : "type-123",
   "size" : 4,
   "source_file" : "/frameworks/av/media/libaaudio/src/utility/FixedBlockAdapter.h"
  },
  {
   "alignment" : 4,
   "linker_set_key" : "FixedBlockProcessor *",
   "name" : "FixedBlockProcessor *",
   "referenced_type" : "type-118",
   "self_type" : "type-119",
   "size" : 4,
   "source_file" : "/frameworks/av/media/libaaudio/src/utility/FixedBlockAdapter.h"
  },
  {
   "alignment" : 4,
   "linker_set_key" : "FixedBlockReader *",
   "name" : "FixedBlockReader *",
   "referenced_type" : "type-142",
   "self_type" : "type-143",
   "size" : 4,
   "source_file" : "/frameworks/av/media/libaaudio/src/utility/FixedBlockReader.h"
  },
  {
   "alignment" : 4,
   "linker_set_key" : "FixedBlockWriter *",
   "name" : "FixedBlockWriter *",
   "referenced_type" : "type-132",
   "self_type" : "type-133",
   "size" : 4,
   "source_file" : "/frameworks/av/media/libaaudio/src/utility/FixedBlockWriter.h"
  },
  {
   "alignment" : 4,
   "linker_set_key" : "MonotonicCounter *",
   "name" : "MonotonicCounter *",
   "referenced_type" : "type-79",
   "self_type" : "type-112",
   "size" : 4,
   "source_file" : "/frameworks/av/media/libaaudio/src/utility/MonotonicCounter.h"
  },
  {
   "alignment" : 4,
   "linker_set_key" : "SimpleDoubleBuffer<Timestamp> *",
   "name" : "SimpleDoubleBuffer<Timestamp> *",
   "referenced_type" : "type-20",
   "self_type" : "type-448",
   "size" : 4,
   "source_file" : "/frameworks/av/media/libaaudio/src/utility/AAudioUtilities.h"
  },
  {
   "alignment" : 4,
   "linker_set_key" : "Timestamp *",
   "name" : "Timestamp *",
   "referenced_type" : "type-22",
   "self_type" : "type-274",
   "size" : 4,
   "source_file" : "/frameworks/av/media/libaaudio/src/utility/AAudioUtilities.h"
  },
  {
   "alignment" : 4,
   "linker_set_key" : "aaudio::AAudioBinderClient *",
   "name" : "aaudio::AAudioBinderClient *",
   "referenced_type" : "type-172",
   "self_type" : "type-178",
   "size" : 4,
   "source_file" : "/frameworks/av/media/libaaudio/src/binding/AAudioBinderClient.h"
  },
  {
   "alignment" : 4,
   "linker_set_key" : "aaudio::AAudioBinderClient::AAudioClient *",
   "name" : "aaudio::AAudioBinderClient::AAudioClient *",
   "referenced_type" : "type-185",
   "self_type" : "type-188",
   "size" : 4,
   "source_file" : "/frameworks/av/media/libaaudio/src/binding/AAudioBinderClient.h"
  },
  {
   "alignment" : 4,
   "linker_set_key" : "aaudio::AAudioServiceInterface *",
   "name" : "aaudio::AAudioServiceInterface *",
   "referenced_type" : "type-19",
   "self_type" : "type-167",
   "size" : 4,
   "source_file" : "/frameworks/av/media/libaaudio/src/binding/AAudioServiceInterface.h"
  },
  {
   "alignment" : 4,
   "linker_set_key" : "aaudio::AAudioServiceMessage_s *",
   "name" : "aaudio::AAudioServiceMessage_s *",
   "referenced_type" : "type-199",
   "self_type" : "type-440",
   "size" : 4,
   "source_file" : "/frameworks/av/media/libaaudio/src/client/AudioEndpoint.h"
  },
  {
   "alignment" : 4,
   "linker_set_key" : "aaudio::AAudioStreamConfiguration *",
   "name" : "aaudio::AAudioStreamConfiguration *",
   "referenced_type" : "type-150",
   "self_type" : "type-515",
   "size" : 4,
   "source_file" : "/frameworks/av/media/libaaudio/src/binding/AAudioStreamConfiguration.h"
  },
  {
   "alignment" : 4,
   "linker_set_key" : "aaudio::AAudioStreamParameters *",
   "name" : "aaudio::AAudioStreamParameters *",
   "referenced_type" : "type-3",
   "self_type" : "type-68",
   "size" : 4,
   "source_file" : "/frameworks/av/media/libaaudio/src/core/AAudioStreamParameters.h"
  },
  {
   "alignment" : 4,
   "linker_set_key" : "aaudio::AAudioStreamRequest *",
   "name" : "aaudio::AAudioStreamRequest *",
   "referenced_type" : "type-153",
   "self_type" : "type-157",
   "size" : 4,
   "source_file" : "/frameworks/av/media/libaaudio/src/binding/AAudioStreamRequest.h"
  },
  {
   "alignment" : 4,
   "linker_set_key" : "aaudio::AudioEndpoint *",
   "name" : "aaudio::AudioEndpoint *",
   "referenced_type" : "type-10",
   "self_type" : "type-436",
   "size" : 4,
   "source_file" : "/frameworks/av/media/libaaudio/src/client/AudioEndpoint.h"
  },
  {
   "alignment" : 4,
   "linker_set_key" : "aaudio::AudioEndpointParcelable *",
   "name" : "aaudio::AudioEndpointParcelable *",
   "referenced_type" : "type-28",
   "self_type" : "type-481",
   "size" : 4,
   "source_file" : "/frameworks/av/media/libaaudio/src/binding/AudioEndpointParcelable.h"
  },
  {
   "alignment" : 4,
   "linker_set_key" : "aaudio::AudioStream *",
   "name" : "aaudio::AudioStream *",
   "referenced_type" : "type-42",
   "self_type" : "type-117",
   "size" : 4,
   "source_file" : "/frameworks/av/media/libaaudio/src/core/AudioStream.h"
  },
  {
   "alignment" : 4,
   "linker_set_key" : "aaudio::AudioStream **",
   "name" : "aaudio::AudioStream **",
   "referenced_type" : "type-117",
   "self_type" : "type-116",
   "size" : 4,
   "source_file" : "/frameworks/av/media/libaaudio/src/core/AudioStreamBuilder.h"
  },
  {
   "alignment" : 4,
   "linker_set_key" : "aaudio::AudioStream::MyPlayerBase *",
   "name" : "aaudio::AudioStream::MyPlayerBase *",
   "referenced_type" : "type-264",
   "self_type" : "type-270",
   "size" : 4,
   "source_file" : "/frameworks/av/media/libaaudio/src/core/AudioStream.h"
  },
  {
   "alignment" : 4,
   "linker_set_key" : "aaudio::AudioStreamBuilder *",
   "name" : "aaudio::AudioStreamBuilder *",
   "referenced_type" : "type-248",
   "self_type" : "type-272",
   "size" : 4,
   "source_file" : "/frameworks/av/media/libaaudio/src/core/AudioStreamBuilder.h"
  },
  {
   "alignment" : 4,
   "linker_set_key" : "aaudio::AudioStreamInternal *",
   "name" : "aaudio::AudioStreamInternal *",
   "referenced_type" : "type-6",
   "self_type" : "type-67",
   "size" : 4,
   "source_file" : "/frameworks/av/media/libaaudio/src/client/AudioStreamInternal.h"
  },
  {
   "alignment" : 4,
   "linker_set_key" : "aaudio::AudioStreamInternalCapture *",
   "name" : "aaudio::AudioStreamInternalCapture *",
   "referenced_type" : "type-69",
   "self_type" : "type-460",
   "size" : 4,
   "source_file" : "/frameworks/av/media/libaaudio/src/client/AudioStreamInternalCapture.h"
  },
  {
   "alignment" : 4,
   "linker_set_key" : "aaudio::AudioStreamInternalPlay *",
   "name" : "aaudio::AudioStreamInternalPlay *",
   "referenced_type" : "type-113",
   "self_type" : "type-472",
   "size" : 4,
   "source_file" : "/frameworks/av/media/libaaudio/src/client/AudioStreamInternalPlay.h"
  },
  {
   "alignment" : 4,
   "linker_set_key" : "aaudio::AudioStreamLegacy *",
   "name" : "aaudio::AudioStreamLegacy *",
   "referenced_type" : "type-124",
   "self_type" : "type-127",
   "size" : 4,
   "source_file" : "/frameworks/av/media/libaaudio/src/legacy/AudioStreamLegacy.h"
  },
  {
   "alignment" : 4,
   "linker_set_key" : "aaudio::AudioStreamLegacy::StreamDeviceCallback *",
   "name" : "aaudio::AudioStreamLegacy::StreamDeviceCallback *",
   "referenced_type" : "type-128",
   "self_type" : "type-131",
   "size" : 4,
   "source_file" : "/frameworks/av/media/libaaudio/src/legacy/AudioStreamLegacy.h"
  },
  {
   "alignment" : 4,
   "linker_set_key" : "aaudio::AudioStreamRecord *",
   "name" : "aaudio::AudioStreamRecord *",
   "referenced_type" : "type-134",
   "self_type" : "type-141",
   "size" : 4,
   "source_file" : "/frameworks/av/media/libaaudio/src/legacy/AudioStreamRecord.h"
  },
  {
   "alignment" : 4,
   "linker_set_key" : "aaudio::AudioStreamTrack *",
   "name" : "aaudio::AudioStreamTrack *",
   "referenced_type" : "type-144",
   "self_type" : "type-148",
   "size" : 4,
   "source_file" : "/frameworks/av/media/libaaudio/src/legacy/AudioStreamTrack.h"
  },
  {
   "alignment" : 4,
   "linker_set_key" : "aaudio::EndpointDescriptor_s *",
   "name" : "aaudio::EndpointDescriptor_s *",
   "referenced_type" : "type-39",
   "self_type" : "type-493",
   "size" : 4,
   "source_file" : "/frameworks/av/media/libaaudio/src/binding/AudioEndpointParcelable.h"
  },
  {
   "alignment" : 4,
   "linker_set_key" : "aaudio::IsochronousClockModel *",
   "name" : "aaudio::IsochronousClockModel *",
   "referenced_type" : "type-7",
   "self_type" : "type-479",
   "size" : 4,
   "source_file" : "/frameworks/av/media/libaaudio/src/client/IsochronousClockModel.h"
  },
  {
   "alignment" : 4,
   "linker_set_key" : "aaudio::RingBufferDescriptor_s *",
   "name" : "aaudio::RingBufferDescriptor_s *",
   "referenced_type" : "type-40",
   "self_type" : "type-580",
   "size" : 4,
   "source_file" : "/frameworks/av/media/libaaudio/src/binding/RingBufferParcelable.h"
  },
  {
   "alignment" : 4,
   "linker_set_key" : "aaudio::RingBufferParcelable *",
   "name" : "aaudio::RingBufferParcelable *",
   "referenced_type" : "type-29",
   "self_type" : "type-571",
   "size" : 4,
   "source_file" : "/frameworks/av/media/libaaudio/src/binding/RingBufferParcelable.h"
  },
  {
   "alignment" : 4,
   "linker_set_key" : "aaudio::SharedMemoryParcelable *",
   "name" : "aaudio::SharedMemoryParcelable *",
   "referenced_type" : "type-35",
   "self_type" : "type-579",
   "size" : 4,
   "source_file" : "/frameworks/av/media/libaaudio/src/binding/RingBufferParcelable.h"
  },
  {
   "alignment" : 4,
   "linker_set_key" : "aaudio::SharedRegionParcelable *",
   "name" : "aaudio::SharedRegionParcelable *",
   "referenced_type" : "type-30",
   "self_type" : "type-591",
   "size" : 4,
   "source_file" : "/frameworks/av/media/libaaudio/src/binding/SharedRegionParcelable.h"
  },
  {
   "alignment" : 4,
   "linker_set_key" : "android::BnAAudioClient *",
   "name" : "android::BnAAudioClient *",
   "referenced_type" : "type-165",
   "self_type" : "type-536",
   "size" : 4,
   "source_file" : "/frameworks/av/media/libaaudio/src/binding/IAAudioClient.h"
  },
  {
   "alignment" : 4,
   "linker_set_key" : "android::BnAAudioService *",
   "name" : "android::BnAAudioService *",
   "referenced_type" : "type-170",
   "self_type" : "type-565",
   "size" : 4,
   "source_file" : "/frameworks/av/media/libaaudio/src/binding/IAAudioService.h"
  },
  {
   "alignment" : 4,
   "linker_set_key" : "android::ExtendedTimestamp *",
   "name" : "android::ExtendedTimestamp *",
   "referenced_type" : "type-1233",
   "self_type" : "type-1232",
   "size" : 4,
   "source_file" : "/frameworks/av/media/libaaudio/src/legacy/AudioStreamLegacy.h"
  },
  {
   "alignment" : 4,
   "linker_set_key" : "android::ExtendedTimestamp *",
   "name" : "android::ExtendedTimestamp *",
   "referenced_type" : "type-1659",
   "self_type" : "type-1658",
   "size" : 4,
   "source_file" : "/frameworks/av/media/libaaudio/src/legacy/AudioStreamLegacy.h"
  },
  {
   "alignment" : 4,
   "linker_set_key" : "android::ExtendedTimestamp *",
   "name" : "android::ExtendedTimestamp *",
   "referenced_type" : "type-1726",
   "self_type" : "type-1725",
   "size" : 4,
   "source_file" : "/frameworks/av/media/libaaudio/src/legacy/AudioStreamLegacy.h"
  },
  {
   "alignment" : 4,
   "linker_set_key" : "android::ExtendedTimestamp *",
   "name" : "android::ExtendedTimestamp *",
   "referenced_type" : "type-231",
   "self_type" : "type-230",
   "size" : 4,
   "source_file" : "/frameworks/av/media/libaaudio/src/legacy/AudioStreamLegacy.h"
  },
  {
   "alignment" : 4,
   "linker_set_key" : "android::ExtendedTimestamp *",
   "name" : "android::ExtendedTimestamp *",
   "referenced_type" : "type-407",
   "self_type" : "type-406",
   "size" : 4,
   "source_file" : "/frameworks/av/media/libaaudio/src/legacy/AudioStreamLegacy.h"
  },
  {
   "alignment" : 4,
   "linker_set_key" : "android::ExtendedTimestamp *",
   "name" : "android::ExtendedTimestamp *",
   "referenced_type" : "type-709",
   "self_type" : "type-708",
   "size" : 4,
   "source_file" : "/frameworks/av/media/libaaudio/src/legacy/AudioStreamLegacy.h"
  },
  {
   "alignment" : 4,
   "linker_set_key" : "android::ExtendedTimestamp *",
   "name" : "android::ExtendedTimestamp *",
   "referenced_type" : "type-925",
   "self_type" : "type-924",
   "size" : 4,
   "source_file" : "/frameworks/av/media/libaaudio/src/legacy/AudioStreamLegacy.h"
  },
  {
   "alignment" : 4,
   "linker_set_key" : "android::FifoBuffer *",
   "name" : "android::FifoBuffer *",
   "referenced_type" : "type-12",
   "self_type" : "type-11",
   "size" : 4,
   "source_file" : "/frameworks/av/media/libaaudio/src/fifo/FifoBuffer.h"
  },
  {
   "alignment" : 4,
   "linker_set_key" : "android::FifoController *",
   "name" : "android::FifoController *",
   "referenced_type" : "type-255",
   "self_type" : "type-259",
   "size" : 4,
   "source_file" : "/frameworks/av/media/libaaudio/src/fifo/FifoController.h"
  },
  {
   "alignment" : 4,
   "linker_set_key" : "android::FifoControllerBase *",
   "name" : "android::FifoControllerBase *",
   "referenced_type" : "type-202",
   "self_type" : "type-260",
   "size" : 4,
   "source_file" : "/frameworks/av/media/libaaudio/src/fifo/FifoControllerBase.h"
  },
  {
   "alignment" : 4,
   "linker_set_key" : "android::FifoControllerIndirect *",
   "name" : "android::FifoControllerIndirect *",
   "referenced_type" : "type-249",
   "self_type" : "type-252",
   "size" : 4,
   "source_file" : "/frameworks/av/media/libaaudio/src/fifo/FifoControllerIndirect.h"
  },
  {
   "alignment" : 4,
   "linker_set_key" : "android::IAAudioClient *",
   "name" : "android::IAAudioClient *",
   "referenced_type" : "type-161",
   "self_type" : "type-532",
   "size" : 4,
   "source_file" : "/frameworks/av/media/libaaudio/src/binding/IAAudioClient.h"
  },
  {
   "alignment" : 4,
   "linker_set_key" : "android::IAAudioService *",
   "name" : "android::IAAudioService *",
   "referenced_type" : "type-168",
   "self_type" : "type-561",
   "size" : 4,
   "source_file" : "/frameworks/av/media/libaaudio/src/binding/IAAudioService.h"
  },
  {
   "alignment" : 4,
   "linker_set_key" : "android::Parcel *",
   "name" : "android::Parcel *",
   "referenced_type" : "type-1005",
   "self_type" : "type-1004",
   "size" : 4,
   "source_file" : "/frameworks/av/media/libaaudio/src/binding/AudioEndpointParcelable.h"
  },
  {
   "alignment" : 4,
   "linker_set_key" : "android::Parcel *",
   "name" : "android::Parcel *",
   "referenced_type" : "type-1027",
   "self_type" : "type-1026",
   "size" : 4,
   "source_file" : "/frameworks/av/media/libaaudio/src/binding/AAudioStreamRequest.h"
  },
  {
   "alignment" : 4,
   "linker_set_key" : "android::Parcel *",
   "name" : "android::Parcel *",
   "referenced_type" : "type-1035",
   "self_type" : "type-1034",
   "size" : 4,
   "source_file" : "/frameworks/av/media/libaaudio/src/binding/AAudioStreamConfiguration.h"
  },
  {
   "alignment" : 4,
   "linker_set_key" : "android::Parcel *",
   "name" : "android::Parcel *",
   "referenced_type" : "type-1058",
   "self_type" : "type-1057",
   "size" : 4,
   "source_file" : "/frameworks/av/media/libaaudio/src/binding/IAAudioClient.h"
  },
  {
   "alignment" : 4,
   "linker_set_key" : "android::Parcel *",
   "name" : "android::Parcel *",
   "referenced_type" : "type-1087",
   "self_type" : "type-1086",
   "size" : 4,
   "source_file" : "/frameworks/av/media/libaaudio/src/binding/IAAudioService.h"
  },
  {
   "alignment" : 4,
   "linker_set_key" : "android::Parcel *",
   "name" : "android::Parcel *",
   "referenced_type" : "type-1092",
   "self_type" : "type-1091",
   "size" : 4,
   "source_file" : "/frameworks/av/media/libaaudio/src/binding/RingBufferParcelable.h"
  },
  {
   "alignment" : 4,
   "linker_set_key" : "android::Parcel *",
   "name" : "android::Parcel *",
   "referenced_type" : "type-1104",
   "self_type" : "type-1103",
   "size" : 4,
   "source_file" : "/frameworks/av/media/libaaudio/src/binding/SharedMemoryParcelable.h"
  },
  {
   "alignment" : 4,
   "linker_set_key" : "android::Parcel *",
   "name" : "android::Parcel *",
   "referenced_type" : "type-1112",
   "self_type" : "type-1111",
   "size" : 4,
   "source_file" : "/frameworks/av/media/libaaudio/src/binding/SharedRegionParcelable.h"
  },
  {
   "alignment" : 4,
   "linker_set_key" : "android::Parcel *",
   "name" : "android::Parcel *",
   "referenced_type" : "type-1313",
   "self_type" : "type-1312",
   "size" : 4,
   "source_file" : "/frameworks/av/media/libaaudio/src/binding/AudioEndpointParcelable.h"
  },
  {
   "alignment" : 4,
   "linker_set_key" : "android::Parcel *",
   "name" : "android::Parcel *",
   "referenced_type" : "type-1335",
   "self_type" : "type-1334",
   "size" : 4,
   "source_file" : "/frameworks/av/media/libaaudio/src/binding/AAudioStreamRequest.h"
  },
  {
   "alignment" : 4,
   "linker_set_key" : "android::Parcel *",
   "name" : "android::Parcel *",
   "referenced_type" : "type-1343",
   "self_type" : "type-1342",
   "size" : 4,
   "source_file" : "/frameworks/av/media/libaaudio/src/binding/AAudioStreamConfiguration.h"
  },
  {
   "alignment" : 4,
   "linker_set_key" : "android::Parcel *",
   "name" : "android::Parcel *",
   "referenced_type" : "type-1366",
   "self_type" : "type-1365",
   "size" : 4,
   "source_file" : "/frameworks/av/media/libaaudio/src/binding/IAAudioClient.h"
  },
  {
   "alignment" : 4,
   "linker_set_key" : "android::Parcel *",
   "name" : "android::Parcel *",
   "referenced_type" : "type-1395",
   "self_type" : "type-1394",
   "size" : 4,
   "source_file" : "/frameworks/av/media/libaaudio/src/binding/IAAudioService.h"
  },
  {
   "alignment" : 4,
   "linker_set_key" : "android::Parcel *",
   "name" : "android::Parcel *",
   "referenced_type" : "type-1400",
   "self_type" : "type-1399",
   "size" : 4,
   "source_file" : "/frameworks/av/media/libaaudio/src/binding/RingBufferParcelable.h"
  },
  {
   "alignment" : 4,
   "linker_set_key" : "android::Parcel *",
   "name" : "android::Parcel *",
   "referenced_type" : "type-1412",
   "self_type" : "type-1411",
   "size" : 4,
   "source_file" : "/frameworks/av/media/libaaudio/src/binding/SharedMemoryParcelable.h"
  },
  {
   "alignment" : 4,
   "linker_set_key" : "android::Parcel *",
   "name" : "android::Parcel *",
   "referenced_type" : "type-1420",
   "self_type" : "type-1419",
   "size" : 4,
   "source_file" : "/frameworks/av/media/libaaudio/src/binding/SharedRegionParcelable.h"
  },
  {
   "alignment" : 4,
   "linker_set_key" : "android::Parcel *",
   "name" : "android::Parcel *",
   "referenced_type" : "type-1445",
   "self_type" : "type-1444",
   "size" : 4,
   "source_file" : "/frameworks/av/media/libaaudio/src/binding/AudioEndpointParcelable.h"
  },
  {
   "alignment" : 4,
   "linker_set_key" : "android::Parcel *",
   "name" : "android::Parcel *",
   "referenced_type" : "type-1468",
   "self_type" : "type-1467",
   "size" : 4,
   "source_file" : "/frameworks/av/media/libaaudio/src/binding/AAudioStreamRequest.h"
  },
  {
   "alignment" : 4,
   "linker_set_key" : "android::Parcel *",
   "name" : "android::Parcel *",
   "referenced_type" : "type-1475",
   "self_type" : "type-1474",
   "size" : 4,
   "source_file" : "/frameworks/av/media/libaaudio/src/binding/AAudioStreamConfiguration.h"
  },
  {
   "alignment" : 4,
   "linker_set_key" : "android::Parcel *",
   "name" : "android::Parcel *",
   "referenced_type" : "type-1500",
   "self_type" : "type-1499",
   "size" : 4,
   "source_file" : "/frameworks/av/media/libaaudio/src/binding/IAAudioClient.h"
  },
  {
   "alignment" : 4,
   "linker_set_key" : "android::Parcel *",
   "name" : "android::Parcel *",
   "referenced_type" : "type-1530",
   "self_type" : "type-1529",
   "size" : 4,
   "source_file" : "/frameworks/av/media/libaaudio/src/binding/IAAudioService.h"
  },
  {
   "alignment" : 4,
   "linker_set_key" : "android::Parcel *",
   "name" : "android::Parcel *",
   "referenced_type" : "type-1536",
   "self_type" : "type-1535",
   "size" : 4,
   "source_file" : "/frameworks/av/media/libaaudio/src/binding/RingBufferParcelable.h"
  },
  {
   "alignment" : 4,
   "linker_set_key" : "android::Parcel *",
   "name" : "android::Parcel *",
   "referenced_type" : "type-1550",
   "self_type" : "type-1549",
   "size" : 4,
   "source_file" : "/frameworks/av/media/libaaudio/src/binding/SharedMemoryParcelable.h"
  },
  {
   "alignment" : 4,
   "linker_set_key" : "android::Parcel *",
   "name" : "android::Parcel *",
   "referenced_type" : "type-1559",
   "self_type" : "type-1558",
   "size" : 4,
   "source_file" : "/frameworks/av/media/libaaudio/src/binding/SharedRegionParcelable.h"
  },
  {
   "alignment" : 4,
   "linker_set_key" : "android::Parcel *",
   "name" : "android::Parcel *",
   "referenced_type" : "type-488",
   "self_type" : "type-487",
   "size" : 4,
   "source_file" : "/frameworks/av/media/libaaudio/src/binding/AudioEndpointParcelable.h"
  },
  {
   "alignment" : 4,
   "linker_set_key" : "android::Parcel *",
   "name" : "android::Parcel *",
   "referenced_type" : "type-510",
   "self_type" : "type-509",
   "size" : 4,
   "source_file" : "/frameworks/av/media/libaaudio/src/binding/AAudioStreamRequest.h"
  },
  {
   "alignment" : 4,
   "linker_set_key" : "android::Parcel *",
   "name" : "android::Parcel *",
   "referenced_type" : "type-518",
   "self_type" : "type-517",
   "size" : 4,
   "source_file" : "/frameworks/av/media/libaaudio/src/binding/AAudioStreamConfiguration.h"
  },
  {
   "alignment" : 4,
   "linker_set_key" : "android::Parcel *",
   "name" : "android::Parcel *",
   "referenced_type" : "type-541",
   "self_type" : "type-540",
   "size" : 4,
   "source_file" : "/frameworks/av/media/libaaudio/src/binding/IAAudioClient.h"
  },
  {
   "alignment" : 4,
   "linker_set_key" : "android::Parcel *",
   "name" : "android::Parcel *",
   "referenced_type" : "type-570",
   "self_type" : "type-569",
   "size" : 4,
   "source_file" : "/frameworks/av/media/libaaudio/src/binding/IAAudioService.h"
  },
  {
   "alignment" : 4,
   "linker_set_key" : "android::Parcel *",
   "name" : "android::Parcel *",
   "referenced_type" : "type-575",
   "self_type" : "type-574",
   "size" : 4,
   "source_file" : "/frameworks/av/media/libaaudio/src/binding/RingBufferParcelable.h"
  },
  {
   "alignment" : 4,
   "linker_set_key" : "android::Parcel *",
   "name" : "android::Parcel *",
   "referenced_type" : "type-587",
   "self_type" : "type-586",
   "size" : 4,
   "source_file" : "/frameworks/av/media/libaaudio/src/binding/SharedMemoryParcelable.h"
  },
  {
   "alignment" : 4,
   "linker_set_key" : "android::Parcel *",
   "name" : "android::Parcel *",
   "referenced_type" : "type-595",
   "self_type" : "type-594",
   "size" : 4,
   "source_file" : "/frameworks/av/media/libaaudio/src/binding/SharedRegionParcelable.h"
  },
  {
   "alignment" : 4,
   "linker_set_key" : "android::Parcel *",
   "name" : "android::Parcel *",
   "referenced_type" : "type-789",
   "self_type" : "type-788",
   "size" : 4,
   "source_file" : "/frameworks/av/media/libaaudio/src/binding/AudioEndpointParcelable.h"
  },
  {
   "alignment" : 4,
   "linker_set_key" : "android::WrappingBuffer *",
   "name" : "android::WrappingBuffer *",
   "referenced_type" : "type-205",
   "self_type" : "type-254",
   "size" : 4,
   "source_file" : "/frameworks/av/media/libaaudio/src/fifo/FifoBuffer.h"
  },
  {
   "alignment" : 4,
   "linker_set_key" : "const MonotonicCounter *",
   "name" : "const MonotonicCounter *",
   "referenced_type" : "type-120",
   "self_type" : "type-130",
   "size" : 4,
   "source_file" : "/frameworks/av/media/libaaudio/src/utility/MonotonicCounter.h"
  },
  {
   "alignment" : 4,
   "linker_set_key" : "const SimpleDoubleBuffer<Timestamp> *",
   "name" : "const SimpleDoubleBuffer<Timestamp> *",
   "referenced_type" : "type-449",
   "self_type" : "type-450",
   "size" : 4,
   "source_file" : "/frameworks/av/media/libaaudio/src/utility/AAudioUtilities.h"
  },
  {
   "alignment" : 4,
   "linker_set_key" : "const Timestamp *",
   "name" : "const Timestamp *",
   "referenced_type" : "type-275",
   "self_type" : "type-276",
   "size" : 4,
   "source_file" : "/frameworks/av/media/libaaudio/src/utility/AAudioUtilities.h"
  },
  {
   "alignment" : 4,
   "linker_set_key" : "const aaudio::AAudioStreamConfiguration *",
   "name" : "const aaudio::AAudioStreamConfiguration *",
   "referenced_type" : "type-159",
   "self_type" : "type-516",
   "size" : 4,
   "source_file" : "/frameworks/av/media/libaaudio/src/binding/AAudioStreamConfiguration.h"
  },
  {
   "alignment" : 4,
   "linker_set_key" : "const aaudio::AAudioStreamParameters *",
   "name" : "const aaudio::AAudioStreamParameters *",
   "referenced_type" : "type-2",
   "self_type" : "type-64",
   "size" : 4,
   "source_file" : "/frameworks/av/media/libaaudio/src/core/AAudioStreamParameters.h"
  },
  {
   "alignment" : 4,
   "linker_set_key" : "const aaudio::AAudioStreamRequest *",
   "name" : "const aaudio::AAudioStreamRequest *",
   "referenced_type" : "type-155",
   "self_type" : "type-156",
   "size" : 4,
   "source_file" : "/frameworks/av/media/libaaudio/src/binding/AAudioStreamRequest.h"
  },
  {
   "alignment" : 4,
   "linker_set_key" : "const aaudio::AudioEndpoint *",
   "name" : "const aaudio::AudioEndpoint *",
   "referenced_type" : "type-278",
   "self_type" : "type-279",
   "size" : 4,
   "source_file" : "/frameworks/av/media/libaaudio/src/client/AudioEndpoint.h"
  },
  {
   "alignment" : 4,
   "linker_set_key" : "const aaudio::AudioEndpointParcelable *",
   "name" : "const aaudio::AudioEndpointParcelable *",
   "referenced_type" : "type-485",
   "self_type" : "type-486",
   "size" : 4,
   "source_file" : "/frameworks/av/media/libaaudio/src/binding/AudioEndpointParcelable.h"
  },
  {
   "alignment" : 4,
   "linker_set_key" : "const aaudio::AudioStream *",
   "name" : "const aaudio::AudioStream *",
   "referenced_type" : "type-242",
   "self_type" : "type-245",
   "size" : 4,
   "source_file" : "/frameworks/av/media/libaaudio/src/core/AudioStream.h"
  },
  {
   "alignment" : 4,
   "linker_set_key" : "const aaudio::AudioStreamBuilder *",
   "name" : "const aaudio::AudioStreamBuilder *",
   "referenced_type" : "type-247",
   "self_type" : "type-271",
   "size" : 4,
   "source_file" : "/frameworks/av/media/libaaudio/src/core/AudioStreamBuilder.h"
  },
  {
   "alignment" : 4,
   "linker_set_key" : "const aaudio::AudioStreamInternal *",
   "name" : "const aaudio::AudioStreamInternal *",
   "referenced_type" : "type-65",
   "self_type" : "type-66",
   "size" : 4,
   "source_file" : "/frameworks/av/media/libaaudio/src/client/AudioStreamInternal.h"
  },
  {
   "alignment" : 4,
   "linker_set_key" : "const aaudio::AudioStreamInternalCapture *",
   "name" : "const aaudio::AudioStreamInternalCapture *",
   "referenced_type" : "type-70",
   "self_type" : "type-71",
   "size" : 4,
   "source_file" : "/frameworks/av/media/libaaudio/src/client/AudioStreamInternalCapture.h"
  },
  {
   "alignment" : 4,
   "linker_set_key" : "const aaudio::AudioStreamInternalPlay *",
   "name" : "const aaudio::AudioStreamInternalPlay *",
   "referenced_type" : "type-114",
   "self_type" : "type-115",
   "size" : 4,
   "source_file" : "/frameworks/av/media/libaaudio/src/client/AudioStreamInternalPlay.h"
  },
  {
   "alignment" : 4,
   "linker_set_key" : "const aaudio::AudioStreamRecord *",
   "name" : "const aaudio::AudioStreamRecord *",
   "referenced_type" : "type-139",
   "self_type" : "type-140",
   "size" : 4,
   "source_file" : "/frameworks/av/media/libaaudio/src/legacy/AudioStreamRecord.h"
  },
  {
   "alignment" : 4,
   "linker_set_key" : "const aaudio::AudioStreamTrack *",
   "name" : "const aaudio::AudioStreamTrack *",
   "referenced_type" : "type-146",
   "self_type" : "type-147",
   "size" : 4,
   "source_file" : "/frameworks/av/media/libaaudio/src/legacy/AudioStreamTrack.h"
  },
  {
   "alignment" : 4,
   "linker_set_key" : "const aaudio::EndpointDescriptor_s *",
   "name" : "const aaudio::EndpointDescriptor_s *",
   "referenced_type" : "type-437",
   "self_type" : "type-438",
   "size" : 4,
   "source_file" : "/frameworks/av/media/libaaudio/src/client/AudioEndpoint.h"
  },
  {
   "alignment" : 4,
   "linker_set_key" : "const aaudio::IsochronousClockModel *",
   "name" : "const aaudio::IsochronousClockModel *",
   "referenced_type" : "type-192",
   "self_type" : "type-193",
   "size" : 4,
   "source_file" : "/frameworks/av/media/libaaudio/src/client/IsochronousClockModel.h"
  },
  {
   "alignment" : 4,
   "linker_set_key" : "const aaudio::RingBufferParcelable *",
   "name" : "const aaudio::RingBufferParcelable *",
   "referenced_type" : "type-572",
   "self_type" : "type-573",
   "size" : 4,
   "source_file" : "/frameworks/av/media/libaaudio/src/binding/RingBufferParcelable.h"
  },
  {
   "alignment" : 4,
   "linker_set_key" : "const aaudio::SharedMemoryParcelable *",
   "name" : "const aaudio::SharedMemoryParcelable *",
   "referenced_type" : "type-584",
   "self_type" : "type-585",
   "size" : 4,
   "source_file" : "/frameworks/av/media/libaaudio/src/binding/SharedMemoryParcelable.h"
  },
  {
   "alignment" : 4,
   "linker_set_key" : "const aaudio::SharedRegionParcelable *",
   "name" : "const aaudio::SharedRegionParcelable *",
   "referenced_type" : "type-592",
   "self_type" : "type-593",
   "size" : 4,
   "source_file" : "/frameworks/av/media/libaaudio/src/binding/SharedRegionParcelable.h"
  },
  {
   "alignment" : 4,
   "linker_set_key" : "const android::FifoControllerBase *",
   "name" : "const android::FifoControllerBase *",
   "referenced_type" : "type-203",
   "self_type" : "type-204",
   "size" : 4,
   "source_file" : "/frameworks/av/media/libaaudio/src/fifo/FifoControllerBase.h"
  },
  {
   "alignment" : 4,
   "linker_set_key" : "const android::IAAudioClient *",
   "name" : "const android::IAAudioClient *",
   "referenced_type" : "type-530",
   "self_type" : "type-531",
   "size" : 4,
   "source_file" : "/frameworks/av/media/libaaudio/src/binding/IAAudioClient.h"
  },
  {
   "alignment" : 4,
   "linker_set_key" : "const android::IAAudioService *",
   "name" : "const android::IAAudioService *",
   "referenced_type" : "type-559",
   "self_type" : "type-560",
   "size" : 4,
   "source_file" : "/frameworks/av/media/libaaudio/src/binding/IAAudioService.h"
  },
  {
   "alignment" : 4,
   "linker_set_key" : "const android::Parcel *",
   "name" : "const android::Parcel *",
   "referenced_type" : "type-1006",
   "self_type" : "type-1009",
   "size" : 4,
   "source_file" : "/frameworks/av/media/libaaudio/src/binding/AudioEndpointParcelable.h"
  },
  {
   "alignment" : 4,
   "linker_set_key" : "const android::Parcel *",
   "name" : "const android::Parcel *",
   "referenced_type" : "type-1028",
   "self_type" : "type-1030",
   "size" : 4,
   "source_file" : "/frameworks/av/media/libaaudio/src/binding/AAudioStreamRequest.h"
  },
  {
   "alignment" : 4,
   "linker_set_key" : "const android::Parcel *",
   "name" : "const android::Parcel *",
   "referenced_type" : "type-1036",
   "self_type" : "type-1038",
   "size" : 4,
   "source_file" : "/frameworks/av/media/libaaudio/src/binding/AAudioStreamConfiguration.h"
  },
  {
   "alignment" : 4,
   "linker_set_key" : "const android::Parcel *",
   "name" : "const android::Parcel *",
   "referenced_type" : "type-1093",
   "self_type" : "type-1095",
   "size" : 4,
   "source_file" : "/frameworks/av/media/libaaudio/src/binding/RingBufferParcelable.h"
  },
  {
   "alignment" : 4,
   "linker_set_key" : "const android::Parcel *",
   "name" : "const android::Parcel *",
   "referenced_type" : "type-1105",
   "self_type" : "type-1107",
   "size" : 4,
   "source_file" : "/frameworks/av/media/libaaudio/src/binding/SharedMemoryParcelable.h"
  },
  {
   "alignment" : 4,
   "linker_set_key" : "const android::Parcel *",
   "name" : "const android::Parcel *",
   "referenced_type" : "type-1113",
   "self_type" : "type-1115",
   "size" : 4,
   "source_file" : "/frameworks/av/media/libaaudio/src/binding/SharedRegionParcelable.h"
  },
  {
   "alignment" : 4,
   "linker_set_key" : "const android::Parcel *",
   "name" : "const android::Parcel *",
   "referenced_type" : "type-1314",
   "self_type" : "type-1317",
   "size" : 4,
   "source_file" : "/frameworks/av/media/libaaudio/src/binding/AudioEndpointParcelable.h"
  },
  {
   "alignment" : 4,
   "linker_set_key" : "const android::Parcel *",
   "name" : "const android::Parcel *",
   "referenced_type" : "type-1336",
   "self_type" : "type-1338",
   "size" : 4,
   "source_file" : "/frameworks/av/media/libaaudio/src/binding/AAudioStreamRequest.h"
  },
  {
   "alignment" : 4,
   "linker_set_key" : "const android::Parcel *",
   "name" : "const android::Parcel *",
   "referenced_type" : "type-1344",
   "self_type" : "type-1346",
   "size" : 4,
   "source_file" : "/frameworks/av/media/libaaudio/src/binding/AAudioStreamConfiguration.h"
  },
  {
   "alignment" : 4,
   "linker_set_key" : "const android::Parcel *",
   "name" : "const android::Parcel *",
   "referenced_type" : "type-1401",
   "self_type" : "type-1403",
   "size" : 4,
   "source_file" : "/frameworks/av/media/libaaudio/src/binding/RingBufferParcelable.h"
  },
  {
   "alignment" : 4,
   "linker_set_key" : "const android::Parcel *",
   "name" : "const android::Parcel *",
   "referenced_type" : "type-1413",
   "self_type" : "type-1415",
   "size" : 4,
   "source_file" : "/frameworks/av/media/libaaudio/src/binding/SharedMemoryParcelable.h"
  },
  {
   "alignment" : 4,
   "linker_set_key" : "const android::Parcel *",
   "name" : "const android::Parcel *",
   "referenced_type" : "type-1421",
   "self_type" : "type-1423",
   "size" : 4,
   "source_file" : "/frameworks/av/media/libaaudio/src/binding/SharedRegionParcelable.h"
  },
  {
   "alignment" : 4,
   "linker_set_key" : "const android::Parcel *",
   "name" : "const android::Parcel *",
   "referenced_type" : "type-1446",
   "self_type" : "type-1448",
   "size" : 4,
   "source_file" : "/frameworks/av/media/libaaudio/src/binding/AudioEndpointParcelable.h"
  },
  {
   "alignment" : 4,
   "linker_set_key" : "const android::Parcel *",
   "name" : "const android::Parcel *",
   "referenced_type" : "type-1469",
   "self_type" : "type-1471",
   "size" : 4,
   "source_file" : "/frameworks/av/media/libaaudio/src/binding/AAudioStreamRequest.h"
  },
  {
   "alignment" : 4,
   "linker_set_key" : "const android::Parcel *",
   "name" : "const android::Parcel *",
   "referenced_type" : "type-1476",
   "self_type" : "type-1478",
   "size" : 4,
   "source_file" : "/frameworks/av/media/libaaudio/src/binding/AAudioStreamConfiguration.h"
  },
  {
   "alignment" : 4,
   "linker_set_key" : "const android::Parcel *",
   "name" : "const android::Parcel *",
   "referenced_type" : "type-1537",
   "self_type" : "type-1539",
   "size" : 4,
   "source_file" : "/frameworks/av/media/libaaudio/src/binding/RingBufferParcelable.h"
  },
  {
   "alignment" : 4,
   "linker_set_key" : "const android::Parcel *",
   "name" : "const android::Parcel *",
   "referenced_type" : "type-1551",
   "self_type" : "type-1553",
   "size" : 4,
   "source_file" : "/frameworks/av/media/libaaudio/src/binding/SharedMemoryParcelable.h"
  },
  {
   "alignment" : 4,
   "linker_set_key" : "const android::Parcel *",
   "name" : "const android::Parcel *",
   "referenced_type" : "type-1560",
   "self_type" : "type-1562",
   "size" : 4,
   "source_file" : "/frameworks/av/media/libaaudio/src/binding/SharedRegionParcelable.h"
  },
  {
   "alignment" : 4,
   "linker_set_key" : "const android::Parcel *",
   "name" : "const android::Parcel *",
   "referenced_type" : "type-489",
   "self_type" : "type-492",
   "size" : 4,
   "source_file" : "/frameworks/av/media/libaaudio/src/binding/AudioEndpointParcelable.h"
  },
  {
   "alignment" : 4,
   "linker_set_key" : "const android::Parcel *",
   "name" : "const android::Parcel *",
   "referenced_type" : "type-511",
   "self_type" : "type-513",
   "size" : 4,
   "source_file" : "/frameworks/av/media/libaaudio/src/binding/AAudioStreamRequest.h"
  },
  {
   "alignment" : 4,
   "linker_set_key" : "const android::Parcel *",
   "name" : "const android::Parcel *",
   "referenced_type" : "type-519",
   "self_type" : "type-521",
   "size" : 4,
   "source_file" : "/frameworks/av/media/libaaudio/src/binding/AAudioStreamConfiguration.h"
  },
  {
   "alignment" : 4,
   "linker_set_key" : "const android::Parcel *",
   "name" : "const android::Parcel *",
   "referenced_type" : "type-576",
   "self_type" : "type-578",
   "size" : 4,
   "source_file" : "/frameworks/av/media/libaaudio/src/binding/RingBufferParcelable.h"
  },
  {
   "alignment" : 4,
   "linker_set_key" : "const android::Parcel *",
   "name" : "const android::Parcel *",
   "referenced_type" : "type-588",
   "self_type" : "type-590",
   "size" : 4,
   "source_file" : "/frameworks/av/media/libaaudio/src/binding/SharedMemoryParcelable.h"
  },
  {
   "alignment" : 4,
   "linker_set_key" : "const android::Parcel *",
   "name" : "const android::Parcel *",
   "referenced_type" : "type-596",
   "self_type" : "type-598",
   "size" : 4,
   "source_file" : "/frameworks/av/media/libaaudio/src/binding/SharedRegionParcelable.h"
  },
  {
   "alignment" : 4,
   "linker_set_key" : "const android::Parcel *",
   "name" : "const android::Parcel *",
   "referenced_type" : "type-790",
   "self_type" : "type-793",
   "size" : 4,
   "source_file" : "/frameworks/av/media/libaaudio/src/binding/AudioEndpointParcelable.h"
  },
  {
   "alignment" : 4,
   "linker_set_key" : "const char *",
   "name" : "const char *",
   "referenced_type" : "type-209",
   "self_type" : "type-208",
   "size" : 4,
   "source_file" : "/frameworks/av/media/libaaudio/include/aaudio/AAudio.h"
  },
  {
   "alignment" : 4,
   "linker_set_key" : "const flowgraph::AudioFloatBlockPort *",
   "name" : "const flowgraph::AudioFloatBlockPort *",
   "referenced_type" : "type-82",
   "self_type" : "type-83",
   "size" : 4,
   "source_file" : "/frameworks/av/media/libaaudio/src/flowgraph/AudioProcessorBase.h"
  },
  {
   "alignment" : 4,
   "linker_set_key" : "const flowgraph::AudioPort *",
   "name" : "const flowgraph::AudioPort *",
   "referenced_type" : "type-77",
   "self_type" : "type-78",
   "size" : 4,
   "source_file" : "/frameworks/av/media/libaaudio/src/flowgraph/AudioProcessorBase.h"
  },
  {
   "alignment" : 4,
   "linker_set_key" : "const flowgraph::ClipToRange *",
   "name" : "const flowgraph::ClipToRange *",
   "referenced_type" : "type-98",
   "self_type" : "type-99",
   "size" : 4,
   "source_file" : "/frameworks/av/media/libaaudio/src/flowgraph/ClipToRange.h"
  },
  {
   "alignment" : 4,
   "linker_set_key" : "const flowgraph::RampLinear *",
   "name" : "const flowgraph::RampLinear *",
   "referenced_type" : "type-104",
   "self_type" : "type-105",
   "size" : 4,
   "source_file" : "/frameworks/av/media/libaaudio/src/flowgraph/RampLinear.h"
  },
  {
   "alignment" : 4,
   "linker_set_key" : "const void *",
   "name" : "const void *",
   "referenced_type" : "type-91",
   "self_type" : "type-90",
   "size" : 4,
   "source_file" : "/frameworks/av/media/libaaudio/src/core/AudioStream.h"
  },
  {
   "alignment" : 4,
   "linker_set_key" : "float *",
   "name" : "float *",
   "referenced_type" : "type-27",
   "self_type" : "type-81",
   "size" : 4,
   "source_file" : "/frameworks/av/media/libaaudio/src/flowgraph/AudioProcessorBase.h"
  },
  {
   "alignment" : 4,
   "linker_set_key" : "flowgraph::AudioFloatBlockPort *",
   "name" : "flowgraph::AudioFloatBlockPort *",
   "referenced_type" : "type-80",
   "self_type" : "type-84",
   "size" : 4,
   "source_file" : "/frameworks/av/media/libaaudio/src/flowgraph/AudioProcessorBase.h"
  },
  {
   "alignment" : 4,
   "linker_set_key" : "flowgraph::AudioFloatInputPort *",
   "name" : "flowgraph::AudioFloatInputPort *",
   "referenced_type" : "type-87",
   "self_type" : "type-88",
   "size" : 4,
   "source_file" : "/frameworks/av/media/libaaudio/src/flowgraph/AudioProcessorBase.h"
  },
  {
   "alignment" : 4,
   "linker_set_key" : "flowgraph::AudioFloatOutputPort *",
   "name" : "flowgraph::AudioFloatOutputPort *",
   "referenced_type" : "type-85",
   "self_type" : "type-86",
   "size" : 4,
   "source_file" : "/frameworks/av/media/libaaudio/src/flowgraph/AudioProcessorBase.h"
  },
  {
   "alignment" : 4,
   "linker_set_key" : "flowgraph::AudioPort *",
   "name" : "flowgraph::AudioPort *",
   "referenced_type" : "type-74",
   "self_type" : "type-76",
   "size" : 4,
   "source_file" : "/frameworks/av/media/libaaudio/src/flowgraph/AudioProcessorBase.h"
  },
  {
   "alignment" : 4,
   "linker_set_key" : "flowgraph::AudioProcessorBase *",
   "name" : "flowgraph::AudioProcessorBase *",
   "referenced_type" : "type-72",
   "self_type" : "type-73",
   "size" : 4,
   "source_file" : "/frameworks/av/media/libaaudio/src/flowgraph/AudioProcessorBase.h"
  },
  {
   "alignment" : 4,
   "linker_set_key" : "flowgraph::AudioSink *",
   "name" : "flowgraph::AudioSink *",
   "referenced_type" : "type-93",
   "self_type" : "type-94",
   "size" : 4,
   "source_file" : "/frameworks/av/media/libaaudio/src/flowgraph/AudioProcessorBase.h"
  },
  {
   "alignment" : 4,
   "linker_set_key" : "flowgraph::AudioSource *",
   "name" : "flowgraph::AudioSource *",
   "referenced_type" : "type-89",
   "self_type" : "type-92",
   "size" : 4,
   "source_file" : "/frameworks/av/media/libaaudio/src/flowgraph/AudioProcessorBase.h"
  },
  {
   "alignment" : 4,
   "linker_set_key" : "flowgraph::ClipToRange *",
   "name" : "flowgraph::ClipToRange *",
   "referenced_type" : "type-96",
   "self_type" : "type-97",
   "size" : 4,
   "source_file" : "/frameworks/av/media/libaaudio/src/flowgraph/ClipToRange.h"
  },
  {
   "alignment" : 4,
   "linker_set_key" : "flowgraph::MonoToMultiConverter *",
   "name" : "flowgraph::MonoToMultiConverter *",
   "referenced_type" : "type-100",
   "self_type" : "type-817",
   "size" : 4,
   "source_file" : "/frameworks/av/media/libaaudio/src/flowgraph/MonoToMultiConverter.h"
  },
  {
   "alignment" : 4,
   "linker_set_key" : "flowgraph::RampLinear *",
   "name" : "flowgraph::RampLinear *",
   "referenced_type" : "type-101",
   "self_type" : "type-103",
   "size" : 4,
   "source_file" : "/frameworks/av/media/libaaudio/src/flowgraph/RampLinear.h"
  },
  {
   "alignment" : 4,
   "linker_set_key" : "flowgraph::SinkFloat *",
   "name" : "flowgraph::SinkFloat *",
   "referenced_type" : "type-262",
   "self_type" : "type-819",
   "size" : 4,
   "source_file" : "/frameworks/av/media/libaaudio/src/flowgraph/SinkFloat.h"
  },
  {
   "alignment" : 4,
   "linker_set_key" : "flowgraph::SinkI16 *",
   "name" : "flowgraph::SinkI16 *",
   "referenced_type" : "type-263",
   "self_type" : "type-820",
   "size" : 4,
   "source_file" : "/frameworks/av/media/libaaudio/src/flowgraph/SinkI16.h"
  },
  {
   "alignment" : 4,
   "linker_set_key" : "flowgraph::SinkI24 *",
   "name" : "flowgraph::SinkI24 *",
   "referenced_type" : "type-266",
   "self_type" : "type-822",
   "size" : 4,
   "source_file" : "/frameworks/av/media/libaaudio/src/flowgraph/SinkI24.h"
  },
  {
   "alignment" : 4,
   "linker_set_key" : "flowgraph::SourceFloat *",
   "name" : "flowgraph::SourceFloat *",
   "referenced_type" : "type-267",
   "self_type" : "type-1125",
   "size" : 4,
   "source_file" : "/frameworks/av/media/libaaudio/src/flowgraph/SourceFloat.h"
  },
  {
   "alignment" : 4,
   "linker_set_key" : "flowgraph::SourceI16 *",
   "name" : "flowgraph::SourceI16 *",
   "referenced_type" : "type-268",
   "self_type" : "type-1126",
   "size" : 4,
   "source_file" : "/frameworks/av/media/libaaudio/src/flowgraph/SourceI16.h"
  },
  {
   "alignment" : 4,
   "linker_set_key" : "flowgraph::SourceI24 *",
   "name" : "flowgraph::SourceI24 *",
   "referenced_type" : "type-269",
   "self_type" : "type-1127",
   "size" : 4,
   "source_file" : "/frameworks/av/media/libaaudio/src/flowgraph/SourceI24.h"
  },
  {
   "alignment" : 4,
   "linker_set_key" : "int (*)(AAudioStreamStruct *, void *, void *, int)",
   "name" : "int (*)(AAudioStreamStruct *, void *, void *, int)",
   "referenced_type" : "type-50",
   "self_type" : "type-49",
   "size" : 4,
   "source_file" : "/frameworks/av/media/libaaudio/src/core/AudioStream.h"
  },
  {
   "alignment" : 4,
   "linker_set_key" : "int *",
   "name" : "int *",
   "referenced_type" : "type-4",
   "self_type" : "type-246",
   "size" : 4,
   "source_file" : "/frameworks/av/media/libaaudio/src/core/AudioStream.h"
  },
  {
   "alignment" : 4,
   "linker_set_key" : "long long *",
   "name" : "long long *",
   "referenced_type" : "type-8",
   "self_type" : "type-41",
   "size" : 4,
   "source_file" : "/frameworks/av/media/libaaudio/src/binding/AAudioServiceDefinitions.h"
  },
  {
   "alignment" : 4,
   "linker_set_key" : "std::atomic<long long> *",
   "name" : "std::atomic<long long> *",
   "referenced_type" : "type-1252",
   "self_type" : "type-1251",
   "size" : 4,
   "source_file" : "/frameworks/av/media/libaaudio/src/fifo/FifoControllerIndirect.h"
  },
  {
   "alignment" : 4,
   "linker_set_key" : "std::atomic<long long> *",
   "name" : "std::atomic<long long> *",
   "referenced_type" : "type-1743",
   "self_type" : "type-1742",
   "size" : 4,
   "source_file" : "/frameworks/av/media/libaaudio/src/fifo/FifoControllerIndirect.h"
  },
  {
   "alignment" : 4,
   "linker_set_key" : "std::atomic<long long> *",
   "name" : "std::atomic<long long> *",
   "referenced_type" : "type-251",
   "self_type" : "type-250",
   "size" : 4,
   "source_file" : "/frameworks/av/media/libaaudio/src/fifo/FifoControllerIndirect.h"
  },
  {
   "alignment" : 4,
   "linker_set_key" : "std::atomic<long long> *",
   "name" : "std::atomic<long long> *",
   "referenced_type" : "type-426",
   "self_type" : "type-425",
   "size" : 4,
   "source_file" : "/frameworks/av/media/libaaudio/src/fifo/FifoControllerIndirect.h"
  },
  {
   "alignment" : 4,
   "linker_set_key" : "std::atomic<long long> *",
   "name" : "std::atomic<long long> *",
   "referenced_type" : "type-728",
   "self_type" : "type-727",
   "size" : 4,
   "source_file" : "/frameworks/av/media/libaaudio/src/fifo/FifoControllerIndirect.h"
  },
  {
   "alignment" : 4,
   "linker_set_key" : "std::atomic<long long> *",
   "name" : "std::atomic<long long> *",
   "referenced_type" : "type-944",
   "self_type" : "type-943",
   "size" : 4,
   "source_file" : "/frameworks/av/media/libaaudio/src/fifo/FifoControllerIndirect.h"
  },
  {
   "alignment" : 4,
   "linker_set_key" : "unsigned char *",
   "name" : "unsigned char *",
   "referenced_type" : "type-15",
   "self_type" : "type-14",
   "size" : 4,
   "source_file" : "/frameworks/av/media/libaaudio/src/binding/AAudioServiceDefinitions.h"
  },
  {
   "alignment" : 4,
   "linker_set_key" : "void (*)(AAudioStreamStruct *, void *, int)",
   "name" : "void (*)(AAudioStreamStruct *, void *, int)",
   "referenced_type" : "type-57",
   "self_type" : "type-56",
   "size" : 4,
   "source_file" : "/frameworks/av/media/libaaudio/src/core/AudioStream.h"
  },
  {
   "alignment" : 4,
   "linker_set_key" : "void (*)(int, void *, void *)",
   "name" : "void (*)(int, void *, void *)",
   "referenced_type" : "type-229",
   "self_type" : "type-228",
   "size" : 4,
   "source_file" : "/frameworks/av/media/libaaudio/src/legacy/AudioStreamLegacy.h"
  },
  {
   "alignment" : 4,
   "linker_set_key" : "void *",
   "name" : "void *",
   "referenced_type" : "type-54",
   "self_type" : "type-53",
   "size" : 4,
   "source_file" : "/frameworks/av/media/libaaudio/src/core/AudioStream.h"
  },
  {
   "alignment" : 4,
   "linker_set_key" : "void *(*)(void *)",
   "name" : "void *(*)(void *)",
   "referenced_type" : "type-62",
   "self_type" : "type-61",
   "size" : 4,
   "source_file" : "/frameworks/av/media/libaaudio/src/core/AudioStream.h"
  },
  {
   "alignment" : 4,
   "linker_set_key" : "void **",
   "name" : "void **",
   "referenced_type" : "type-53",
   "self_type" : "type-258",
   "size" : 4,
   "source_file" : "/frameworks/av/media/libaaudio/src/core/AudioStream.h"
  }
 ],
 "qualified_types" :
 [
  {
   "alignment" : 8,
   "is_const" : true,
   "linker_set_key" : "const MonotonicCounter",
   "name" : "const MonotonicCounter",
   "referenced_type" : "type-79",
   "self_type" : "type-120",
   "size" : 24,
   "source_file" : "/frameworks/av/media/libaaudio/src/utility/MonotonicCounter.h"
  },
  {
   "alignment" : 8,
   "is_const" : true,
   "linker_set_key" : "const SimpleDoubleBuffer<Timestamp>",
   "name" : "const SimpleDoubleBuffer<Timestamp>",
   "referenced_type" : "type-20",
   "self_type" : "type-449",
   "size" : 40,
   "source_file" : "/frameworks/av/media/libaaudio/src/utility/AAudioUtilities.h"
  },
  {
   "alignment" : 8,
   "is_const" : true,
   "linker_set_key" : "const Timestamp",
   "name" : "const Timestamp",
   "referenced_type" : "type-22",
   "self_type" : "type-275",
   "size" : 16,
   "source_file" : "/frameworks/av/media/libaaudio/src/utility/AAudioUtilities.h"
  },
  {
   "alignment" : 4,
   "is_const" : true,
   "linker_set_key" : "const aaudio::AAudioStreamConfiguration",
   "name" : "const aaudio::AAudioStreamConfiguration",
   "referenced_type" : "type-150",
   "self_type" : "type-159",
   "size" : 56,
   "source_file" : "/frameworks/av/media/libaaudio/src/binding/AAudioStreamRequest.h"
  },
  {
   "alignment" : 4,
   "is_const" : true,
   "linker_set_key" : "const aaudio::AAudioStreamParameters",
   "name" : "const aaudio::AAudioStreamParameters",
   "referenced_type" : "type-3",
   "self_type" : "type-2",
   "size" : 52,
   "source_file" : "/frameworks/av/media/libaaudio/src/core/AAudioStreamParameters.h"
  },
  {
   "alignment" : 4,
   "is_const" : true,
   "linker_set_key" : "const aaudio::AAudioStreamRequest",
   "name" : "const aaudio::AAudioStreamRequest",
   "referenced_type" : "type-153",
   "self_type" : "type-155",
   "size" : 72,
   "source_file" : "/frameworks/av/media/libaaudio/src/binding/AAudioStreamRequest.h"
  },
  {
   "alignment" : 8,
   "is_const" : true,
   "linker_set_key" : "const aaudio::AudioEndpoint",
   "name" : "const aaudio::AudioEndpoint",
   "referenced_type" : "type-10",
   "self_type" : "type-278",
   "size" : 32,
   "source_file" : "/frameworks/av/media/libaaudio/src/client/AudioEndpoint.h"
  },
  {
   "alignment" : 4,
   "is_const" : true,
   "linker_set_key" : "const aaudio::AudioEndpointParcelable",
   "name" : "const aaudio::AudioEndpointParcelable",
   "referenced_type" : "type-28",
   "self_type" : "type-485",
   "size" : 792,
   "source_file" : "/frameworks/av/media/libaaudio/src/binding/AudioEndpointParcelable.h"
  },
  {
   "alignment" : 8,
   "is_const" : true,
   "linker_set_key" : "const aaudio::AudioStream",
   "name" : "const aaudio::AudioStream",
   "referenced_type" : "type-42",
   "self_type" : "type-242",
   "size" : 136,
   "source_file" : "/frameworks/av/media/libaaudio/src/core/AudioStream.h"
  },
  {
   "is_const" : true,
   "linker_set_key" : "const aaudio::AudioStreamBuilder",
   "name" : "const aaudio::AudioStreamBuilder",
   "referenced_type" : "type-1299",
   "self_type" : "type-1298",
   "source_file" : "/frameworks/av/media/libaaudio/src/client/AudioStreamInternalPlay.h"
  },
  {
   "is_const" : true,
   "linker_set_key" : "const aaudio::AudioStreamBuilder",
   "name" : "const aaudio::AudioStreamBuilder",
   "referenced_type" : "type-1432",
   "self_type" : "type-1431",
   "source_file" : "/frameworks/av/media/libaaudio/src/client/AudioStreamInternalPlay.h"
  },
  {
   "alignment" : 4,
   "is_const" : true,
   "linker_set_key" : "const aaudio::AudioStreamBuilder",
   "name" : "const aaudio::AudioStreamBuilder",
   "referenced_type" : "type-248",
   "self_type" : "type-247",
   "size" : 80,
   "source_file" : "/frameworks/av/media/libaaudio/src/core/AudioStream.h"
  },
  {
   "is_const" : true,
   "linker_set_key" : "const aaudio::AudioStreamBuilder",
   "name" : "const aaudio::AudioStreamBuilder",
   "referenced_type" : "type-474",
   "self_type" : "type-473",
   "source_file" : "/frameworks/av/media/libaaudio/src/client/AudioStreamInternalPlay.h"
  },
  {
   "is_const" : true,
   "linker_set_key" : "const aaudio::AudioStreamBuilder",
   "name" : "const aaudio::AudioStreamBuilder",
   "referenced_type" : "type-775",
   "self_type" : "type-774",
   "source_file" : "/frameworks/av/media/libaaudio/src/client/AudioStreamInternalPlay.h"
  },
  {
   "is_const" : true,
   "linker_set_key" : "const aaudio::AudioStreamBuilder",
   "name" : "const aaudio::AudioStreamBuilder",
   "referenced_type" : "type-991",
   "self_type" : "type-990",
   "source_file" : "/frameworks/av/media/libaaudio/src/client/AudioStreamInternalPlay.h"
  },
  {
   "alignment" : 8,
   "is_const" : true,
   "linker_set_key" : "const aaudio::AudioStreamInternal",
   "name" : "const aaudio::AudioStreamInternal",
   "referenced_type" : "type-6",
   "self_type" : "type-65",
   "size" : 1208,
   "source_file" : "/frameworks/av/media/libaaudio/src/client/AudioStreamInternal.h"
  },
  {
   "alignment" : 8,
   "is_const" : true,
   "linker_set_key" : "const aaudio::AudioStreamInternalCapture",
   "name" : "const aaudio::AudioStreamInternalCapture",
   "referenced_type" : "type-69",
   "self_type" : "type-70",
   "size" : 1216,
   "source_file" : "/frameworks/av/media/libaaudio/src/client/AudioStreamInternalCapture.h"
  },
  {
   "alignment" : 8,
   "is_const" : true,
   "linker_set_key" : "const aaudio::AudioStreamInternalPlay",
   "name" : "const aaudio::AudioStreamInternalPlay",
   "referenced_type" : "type-113",
   "self_type" : "type-114",
   "size" : 1240,
   "source_file" : "/frameworks/av/media/libaaudio/src/client/AudioStreamInternalPlay.h"
  },
  {
   "alignment" : 8,
   "is_const" : true,
   "linker_set_key" : "const aaudio::AudioStreamRecord",
   "name" : "const aaudio::AudioStreamRecord",
   "referenced_type" : "type-134",
   "self_type" : "type-139",
   "size" : 280,
   "source_file" : "/frameworks/av/media/libaaudio/src/legacy/AudioStreamRecord.h"
  },
  {
   "alignment" : 8,
   "is_const" : true,
   "linker_set_key" : "const aaudio::AudioStreamTrack",
   "name" : "const aaudio::AudioStreamTrack",
   "referenced_type" : "type-144",
   "self_type" : "type-146",
   "size" : 272,
   "source_file" : "/frameworks/av/media/libaaudio/src/legacy/AudioStreamTrack.h"
  },
  {
   "alignment" : 4,
   "is_const" : true,
   "linker_set_key" : "const aaudio::EndpointDescriptor_s",
   "name" : "const aaudio::EndpointDescriptor_s",
   "referenced_type" : "type-39",
   "self_type" : "type-437",
   "size" : 84,
   "source_file" : "/frameworks/av/media/libaaudio/src/client/AudioEndpoint.h"
  },
  {
   "alignment" : 8,
   "is_const" : true,
   "linker_set_key" : "const aaudio::IsochronousClockModel",
   "name" : "const aaudio::IsochronousClockModel",
   "referenced_type" : "type-7",
   "self_type" : "type-192",
   "size" : 48,
   "source_file" : "/frameworks/av/media/libaaudio/src/client/IsochronousClockModel.h"
  },
  {
   "alignment" : 4,
   "is_const" : true,
   "linker_set_key" : "const aaudio::RingBufferParcelable",
   "name" : "const aaudio::RingBufferParcelable",
   "referenced_type" : "type-29",
   "self_type" : "type-572",
   "size" : 68,
   "source_file" : "/frameworks/av/media/libaaudio/src/binding/RingBufferParcelable.h"
  },
  {
   "alignment" : 4,
   "is_const" : true,
   "linker_set_key" : "const aaudio::SharedMemoryParcelable",
   "name" : "const aaudio::SharedMemoryParcelable",
   "referenced_type" : "type-35",
   "self_type" : "type-584",
   "size" : 16,
   "source_file" : "/frameworks/av/media/libaaudio/src/binding/SharedMemoryParcelable.h"
  },
  {
   "alignment" : 4,
   "is_const" : true,
   "linker_set_key" : "const aaudio::SharedRegionParcelable",
   "name" : "const aaudio::SharedRegionParcelable",
   "referenced_type" : "type-30",
   "self_type" : "type-592",
   "size" : 16,
   "source_file" : "/frameworks/av/media/libaaudio/src/binding/SharedRegionParcelable.h"
  },
  {
   "alignment" : 4,
   "is_const" : true,
   "linker_set_key" : "const android::AudioClient",
   "name" : "const android::AudioClient",
   "referenced_type" : "type-1021",
   "self_type" : "type-1020",
   "size" : 20,
   "source_file" : "/frameworks/av/media/libaaudio/src/binding/AAudioBinderClient.h"
  },
  {
   "alignment" : 4,
   "is_const" : true,
   "linker_set_key" : "const android::AudioClient",
   "name" : "const android::AudioClient",
   "referenced_type" : "type-1065",
   "self_type" : "type-1064",
   "size" : 20,
   "source_file" : "/frameworks/av/media/libaaudio/src/binding/AAudioBinderClient.h"
  },
  {
   "alignment" : 4,
   "is_const" : true,
   "linker_set_key" : "const android::AudioClient",
   "name" : "const android::AudioClient",
   "referenced_type" : "type-1195",
   "self_type" : "type-1194",
   "size" : 20,
   "source_file" : "/frameworks/av/media/libaaudio/src/binding/AAudioBinderClient.h"
  },
  {
   "alignment" : 4,
   "is_const" : true,
   "linker_set_key" : "const android::AudioClient",
   "name" : "const android::AudioClient",
   "referenced_type" : "type-1270",
   "self_type" : "type-1269",
   "size" : 20,
   "source_file" : "/frameworks/av/media/libaaudio/src/client/AudioStreamInternal.h"
  },
  {
   "alignment" : 4,
   "is_const" : true,
   "linker_set_key" : "const android::AudioClient",
   "name" : "const android::AudioClient",
   "referenced_type" : "type-1329",
   "self_type" : "type-1328",
   "size" : 20,
   "source_file" : "/frameworks/av/media/libaaudio/src/binding/AAudioBinderClient.h"
  },
  {
   "alignment" : 4,
   "is_const" : true,
   "linker_set_key" : "const android::AudioClient",
   "name" : "const android::AudioClient",
   "referenced_type" : "type-1373",
   "self_type" : "type-1372",
   "size" : 20,
   "source_file" : "/frameworks/av/media/libaaudio/src/binding/AAudioBinderClient.h"
  },
  {
   "alignment" : 4,
   "is_const" : true,
   "linker_set_key" : "const android::AudioClient",
   "name" : "const android::AudioClient",
   "referenced_type" : "type-1462",
   "self_type" : "type-1461",
   "size" : 20,
   "source_file" : "/frameworks/av/media/libaaudio/src/binding/AAudioBinderClient.h"
  },
  {
   "alignment" : 4,
   "is_const" : true,
   "linker_set_key" : "const android::AudioClient",
   "name" : "const android::AudioClient",
   "referenced_type" : "type-1505",
   "self_type" : "type-1504",
   "size" : 20,
   "source_file" : "/frameworks/av/media/libaaudio/src/binding/AAudioBinderClient.h"
  },
  {
   "alignment" : 4,
   "is_const" : true,
   "linker_set_key" : "const android::AudioClient",
   "name" : "const android::AudioClient",
   "referenced_type" : "type-1621",
   "self_type" : "type-1620",
   "size" : 20,
   "source_file" : "/frameworks/av/media/libaaudio/src/binding/AAudioBinderClient.h"
  },
  {
   "alignment" : 4,
   "is_const" : true,
   "linker_set_key" : "const android::AudioClient",
   "name" : "const android::AudioClient",
   "referenced_type" : "type-1700",
   "self_type" : "type-1699",
   "size" : 20,
   "source_file" : "/frameworks/av/media/libaaudio/src/binding/AAudioBinderClient.h"
  },
  {
   "alignment" : 4,
   "is_const" : true,
   "linker_set_key" : "const android::AudioClient",
   "name" : "const android::AudioClient",
   "referenced_type" : "type-1759",
   "self_type" : "type-1758",
   "size" : 20,
   "source_file" : "/frameworks/av/media/libaaudio/src/client/AudioStreamInternal.h"
  },
  {
   "alignment" : 4,
   "is_const" : true,
   "linker_set_key" : "const android::AudioClient",
   "name" : "const android::AudioClient",
   "referenced_type" : "type-183",
   "self_type" : "type-182",
   "size" : 20,
   "source_file" : "/frameworks/av/media/libaaudio/src/binding/AAudioBinderClient.h"
  },
  {
   "alignment" : 4,
   "is_const" : true,
   "linker_set_key" : "const android::AudioClient",
   "name" : "const android::AudioClient",
   "referenced_type" : "type-369",
   "self_type" : "type-368",
   "size" : 20,
   "source_file" : "/frameworks/av/media/libaaudio/src/binding/AAudioBinderClient.h"
  },
  {
   "alignment" : 4,
   "is_const" : true,
   "linker_set_key" : "const android::AudioClient",
   "name" : "const android::AudioClient",
   "referenced_type" : "type-444",
   "self_type" : "type-443",
   "size" : 20,
   "source_file" : "/frameworks/av/media/libaaudio/src/client/AudioStreamInternal.h"
  },
  {
   "alignment" : 4,
   "is_const" : true,
   "linker_set_key" : "const android::AudioClient",
   "name" : "const android::AudioClient",
   "referenced_type" : "type-504",
   "self_type" : "type-503",
   "size" : 20,
   "source_file" : "/frameworks/av/media/libaaudio/src/binding/AAudioBinderClient.h"
  },
  {
   "alignment" : 4,
   "is_const" : true,
   "linker_set_key" : "const android::AudioClient",
   "name" : "const android::AudioClient",
   "referenced_type" : "type-548",
   "self_type" : "type-547",
   "size" : 20,
   "source_file" : "/frameworks/av/media/libaaudio/src/binding/AAudioBinderClient.h"
  },
  {
   "alignment" : 4,
   "is_const" : true,
   "linker_set_key" : "const android::AudioClient",
   "name" : "const android::AudioClient",
   "referenced_type" : "type-671",
   "self_type" : "type-670",
   "size" : 20,
   "source_file" : "/frameworks/av/media/libaaudio/src/binding/AAudioBinderClient.h"
  },
  {
   "alignment" : 4,
   "is_const" : true,
   "linker_set_key" : "const android::AudioClient",
   "name" : "const android::AudioClient",
   "referenced_type" : "type-746",
   "self_type" : "type-745",
   "size" : 20,
   "source_file" : "/frameworks/av/media/libaaudio/src/client/AudioStreamInternal.h"
  },
  {
   "alignment" : 4,
   "is_const" : true,
   "linker_set_key" : "const android::AudioClient",
   "name" : "const android::AudioClient",
   "referenced_type" : "type-805",
   "self_type" : "type-804",
   "size" : 20,
   "source_file" : "/frameworks/av/media/libaaudio/src/binding/AAudioBinderClient.h"
  },
  {
   "alignment" : 4,
   "is_const" : true,
   "linker_set_key" : "const android::AudioClient",
   "name" : "const android::AudioClient",
   "referenced_type" : "type-887",
   "self_type" : "type-886",
   "size" : 20,
   "source_file" : "/frameworks/av/media/libaaudio/src/binding/AAudioBinderClient.h"
  },
  {
   "alignment" : 4,
   "is_const" : true,
   "linker_set_key" : "const android::AudioClient",
   "name" : "const android::AudioClient",
   "referenced_type" : "type-962",
   "self_type" : "type-961",
   "size" : 20,
   "source_file" : "/frameworks/av/media/libaaudio/src/client/AudioStreamInternal.h"
  },
  {
   "alignment" : 4,
   "is_const" : true,
   "linker_set_key" : "const android::FifoControllerBase",
   "name" : "const android::FifoControllerBase",
   "referenced_type" : "type-202",
   "self_type" : "type-203",
   "size" : 12,
   "source_file" : "/frameworks/av/media/libaaudio/src/fifo/FifoControllerBase.h"
  },
  {
   "alignment" : 4,
   "is_const" : true,
   "linker_set_key" : "const android::IAAudioClient",
   "name" : "const android::IAAudioClient",
   "referenced_type" : "type-161",
   "self_type" : "type-530",
   "size" : 12,
   "source_file" : "/frameworks/av/media/libaaudio/src/binding/IAAudioClient.h"
  },
  {
   "alignment" : 4,
   "is_const" : true,
   "linker_set_key" : "const android::IAAudioService",
   "name" : "const android::IAAudioService",
   "referenced_type" : "type-168",
   "self_type" : "type-559",
   "size" : 12,
   "source_file" : "/frameworks/av/media/libaaudio/src/binding/IAAudioService.h"
  },
  {
   "alignment" : 4,
   "is_const" : true,
   "linker_set_key" : "const android::Parcel",
   "name" : "const android::Parcel",
   "referenced_type" : "type-1007",
   "self_type" : "type-1006",
   "size" : 60,
   "source_file" : "/frameworks/av/media/libaaudio/src/binding/AudioEndpointParcelable.h"
  },
  {
   "alignment" : 4,
   "is_const" : true,
   "linker_set_key" : "const android::Parcel",
   "name" : "const android::Parcel",
   "referenced_type" : "type-1029",
   "self_type" : "type-1028",
   "size" : 60,
   "source_file" : "/frameworks/av/media/libaaudio/src/binding/AAudioStreamRequest.h"
  },
  {
   "alignment" : 4,
   "is_const" : true,
   "linker_set_key" : "const android::Parcel",
   "name" : "const android::Parcel",
   "referenced_type" : "type-1037",
   "self_type" : "type-1036",
   "size" : 60,
   "source_file" : "/frameworks/av/media/libaaudio/src/binding/AAudioStreamConfiguration.h"
  },
  {
   "alignment" : 4,
   "is_const" : true,
   "linker_set_key" : "const android::Parcel",
   "name" : "const android::Parcel",
   "referenced_type" : "type-1055",
   "self_type" : "type-1054",
   "size" : 60,
   "source_file" : "/frameworks/av/media/libaaudio/src/binding/IAAudioClient.h"
  },
  {
   "alignment" : 4,
   "is_const" : true,
   "linker_set_key" : "const android::Parcel",
   "name" : "const android::Parcel",
   "referenced_type" : "type-1084",
   "self_type" : "type-1083",
   "size" : 60,
   "source_file" : "/frameworks/av/media/libaaudio/src/binding/IAAudioService.h"
  },
  {
   "alignment" : 4,
   "is_const" : true,
   "linker_set_key" : "const android::Parcel",
   "name" : "const android::Parcel",
   "referenced_type" : "type-1094",
   "self_type" : "type-1093",
   "size" : 60,
   "source_file" : "/frameworks/av/media/libaaudio/src/binding/RingBufferParcelable.h"
  },
  {
   "alignment" : 4,
   "is_const" : true,
   "linker_set_key" : "const android::Parcel",
   "name" : "const android::Parcel",
   "referenced_type" : "type-1106",
   "self_type" : "type-1105",
   "size" : 60,
   "source_file" : "/frameworks/av/media/libaaudio/src/binding/SharedMemoryParcelable.h"
  },
  {
   "alignment" : 4,
   "is_const" : true,
   "linker_set_key" : "const android::Parcel",
   "name" : "const android::Parcel",
   "referenced_type" : "type-1114",
   "self_type" : "type-1113",
   "size" : 60,
   "source_file" : "/frameworks/av/media/libaaudio/src/binding/SharedRegionParcelable.h"
  },
  {
   "alignment" : 4,
   "is_const" : true,
   "linker_set_key" : "const android::Parcel",
   "name" : "const android::Parcel",
   "referenced_type" : "type-1315",
   "self_type" : "type-1314",
   "size" : 60,
   "source_file" : "/frameworks/av/media/libaaudio/src/binding/AudioEndpointParcelable.h"
  },
  {
   "alignment" : 4,
   "is_const" : true,
   "linker_set_key" : "const android::Parcel",
   "name" : "const android::Parcel",
   "referenced_type" : "type-1337",
   "self_type" : "type-1336",
   "size" : 60,
   "source_file" : "/frameworks/av/media/libaaudio/src/binding/AAudioStreamRequest.h"
  },
  {
   "alignment" : 4,
   "is_const" : true,
   "linker_set_key" : "const android::Parcel",
   "name" : "const android::Parcel",
   "referenced_type" : "type-1345",
   "self_type" : "type-1344",
   "size" : 60,
   "source_file" : "/frameworks/av/media/libaaudio/src/binding/AAudioStreamConfiguration.h"
  },
  {
   "alignment" : 4,
   "is_const" : true,
   "linker_set_key" : "const android::Parcel",
   "name" : "const android::Parcel",
   "referenced_type" : "type-1363",
   "self_type" : "type-1362",
   "size" : 60,
   "source_file" : "/frameworks/av/media/libaaudio/src/binding/IAAudioClient.h"
  },
  {
   "alignment" : 4,
   "is_const" : true,
   "linker_set_key" : "const android::Parcel",
   "name" : "const android::Parcel",
   "referenced_type" : "type-1392",
   "self_type" : "type-1391",
   "size" : 60,
   "source_file" : "/frameworks/av/media/libaaudio/src/binding/IAAudioService.h"
  },
  {
   "alignment" : 4,
   "is_const" : true,
   "linker_set_key" : "const android::Parcel",
   "name" : "const android::Parcel",
   "referenced_type" : "type-1402",
   "self_type" : "type-1401",
   "size" : 60,
   "source_file" : "/frameworks/av/media/libaaudio/src/binding/RingBufferParcelable.h"
  },
  {
   "alignment" : 4,
   "is_const" : true,
   "linker_set_key" : "const android::Parcel",
   "name" : "const android::Parcel",
   "referenced_type" : "type-1414",
   "self_type" : "type-1413",
   "size" : 60,
   "source_file" : "/frameworks/av/media/libaaudio/src/binding/SharedMemoryParcelable.h"
  },
  {
   "alignment" : 4,
   "is_const" : true,
   "linker_set_key" : "const android::Parcel",
   "name" : "const android::Parcel",
   "referenced_type" : "type-1422",
   "self_type" : "type-1421",
   "size" : 60,
   "source_file" : "/frameworks/av/media/libaaudio/src/binding/SharedRegionParcelable.h"
  },
  {
   "alignment" : 4,
   "is_const" : true,
   "linker_set_key" : "const android::Parcel",
   "name" : "const android::Parcel",
   "referenced_type" : "type-1447",
   "self_type" : "type-1446",
   "size" : 60,
   "source_file" : "/frameworks/av/media/libaaudio/src/binding/AudioEndpointParcelable.h"
  },
  {
   "alignment" : 4,
   "is_const" : true,
   "linker_set_key" : "const android::Parcel",
   "name" : "const android::Parcel",
   "referenced_type" : "type-1470",
   "self_type" : "type-1469",
   "size" : 60,
   "source_file" : "/frameworks/av/media/libaaudio/src/binding/AAudioStreamRequest.h"
  },
  {
   "alignment" : 4,
   "is_const" : true,
   "linker_set_key" : "const android::Parcel",
   "name" : "const android::Parcel",
   "referenced_type" : "type-1477",
   "self_type" : "type-1476",
   "size" : 60,
   "source_file" : "/frameworks/av/media/libaaudio/src/binding/AAudioStreamConfiguration.h"
  },
  {
   "alignment" : 4,
   "is_const" : true,
   "linker_set_key" : "const android::Parcel",
   "name" : "const android::Parcel",
   "referenced_type" : "type-1496",
   "self_type" : "type-1495",
   "size" : 60,
   "source_file" : "/frameworks/av/media/libaaudio/src/binding/IAAudioClient.h"
  },
  {
   "alignment" : 4,
   "is_const" : true,
   "linker_set_key" : "const android::Parcel",
   "name" : "const android::Parcel",
   "referenced_type" : "type-1527",
   "self_type" : "type-1526",
   "size" : 60,
   "source_file" : "/frameworks/av/media/libaaudio/src/binding/IAAudioService.h"
  },
  {
   "alignment" : 4,
   "is_const" : true,
   "linker_set_key" : "const android::Parcel",
   "name" : "const android::Parcel",
   "referenced_type" : "type-1538",
   "self_type" : "type-1537",
   "size" : 60,
   "source_file" : "/frameworks/av/media/libaaudio/src/binding/RingBufferParcelable.h"
  },
  {
   "alignment" : 4,
   "is_const" : true,
   "linker_set_key" : "const android::Parcel",
   "name" : "const android::Parcel",
   "referenced_type" : "type-1552",
   "self_type" : "type-1551",
   "size" : 60,
   "source_file" : "/frameworks/av/media/libaaudio/src/binding/SharedMemoryParcelable.h"
  },
  {
   "alignment" : 4,
   "is_const" : true,
   "linker_set_key" : "const android::Parcel",
   "name" : "const android::Parcel",
   "referenced_type" : "type-1561",
   "self_type" : "type-1560",
   "size" : 60,
   "source_file" : "/frameworks/av/media/libaaudio/src/binding/SharedRegionParcelable.h"
  },
  {
   "alignment" : 4,
   "is_const" : true,
   "linker_set_key" : "const android::Parcel",
   "name" : "const android::Parcel",
   "referenced_type" : "type-490",
   "self_type" : "type-489",
   "size" : 60,
   "source_file" : "/frameworks/av/media/libaaudio/src/binding/AudioEndpointParcelable.h"
  },
  {
   "alignment" : 4,
   "is_const" : true,
   "linker_set_key" : "const android::Parcel",
   "name" : "const android::Parcel",
   "referenced_type" : "type-512",
   "self_type" : "type-511",
   "size" : 60,
   "source_file" : "/frameworks/av/media/libaaudio/src/binding/AAudioStreamRequest.h"
  },
  {
   "alignment" : 4,
   "is_const" : true,
   "linker_set_key" : "const android::Parcel",
   "name" : "const android::Parcel",
   "referenced_type" : "type-520",
   "self_type" : "type-519",
   "size" : 60,
   "source_file" : "/frameworks/av/media/libaaudio/src/binding/AAudioStreamConfiguration.h"
  },
  {
   "alignment" : 4,
   "is_const" : true,
   "linker_set_key" : "const android::Parcel",
   "name" : "const android::Parcel",
   "referenced_type" : "type-538",
   "self_type" : "type-537",
   "size" : 60,
   "source_file" : "/frameworks/av/media/libaaudio/src/binding/IAAudioClient.h"
  },
  {
   "alignment" : 4,
   "is_const" : true,
   "linker_set_key" : "const android::Parcel",
   "name" : "const android::Parcel",
   "referenced_type" : "type-567",
   "self_type" : "type-566",
   "size" : 60,
   "source_file" : "/frameworks/av/media/libaaudio/src/binding/IAAudioService.h"
  },
  {
   "alignment" : 4,
   "is_const" : true,
   "linker_set_key" : "const android::Parcel",
   "name" : "const android::Parcel",
   "referenced_type" : "type-577",
   "self_type" : "type-576",
   "size" : 60,
   "source_file" : "/frameworks/av/media/libaaudio/src/binding/RingBufferParcelable.h"
  },
  {
   "alignment" : 4,
   "is_const" : true,
   "linker_set_key" : "const android::Parcel",
   "name" : "const android::Parcel",
   "referenced_type" : "type-589",
   "self_type" : "type-588",
   "size" : 60,
   "source_file" : "/frameworks/av/media/libaaudio/src/binding/SharedMemoryParcelable.h"
  },
  {
   "alignment" : 4,
   "is_const" : true,
   "linker_set_key" : "const android::Parcel",
   "name" : "const android::Parcel",
   "referenced_type" : "type-597",
   "self_type" : "type-596",
   "size" : 60,
   "source_file" : "/frameworks/av/media/libaaudio/src/binding/SharedRegionParcelable.h"
  },
  {
   "alignment" : 4,
   "is_const" : true,
   "linker_set_key" : "const android::Parcel",
   "name" : "const android::Parcel",
   "referenced_type" : "type-791",
   "self_type" : "type-790",
   "size" : 60,
   "source_file" : "/frameworks/av/media/libaaudio/src/binding/AudioEndpointParcelable.h"
  },
  {
   "alignment" : 4,
   "is_const" : true,
   "linker_set_key" : "const android::String16",
   "name" : "const android::String16",
   "referenced_type" : "type-1012",
   "self_type" : "type-1011",
   "size" : 4,
   "source_file" : "/frameworks/av/media/libaaudio/src/binding/IAAudioClient.h"
  },
  {
   "alignment" : 4,
   "is_const" : true,
   "linker_set_key" : "const android::String16",
   "name" : "const android::String16",
   "referenced_type" : "type-1042",
   "self_type" : "type-1041",
   "size" : 4,
   "source_file" : "/frameworks/av/media/libaaudio/src/binding/IAAudioClient.h"
  },
  {
   "alignment" : 4,
   "is_const" : true,
   "linker_set_key" : "const android::String16",
   "name" : "const android::String16",
   "referenced_type" : "type-1071",
   "self_type" : "type-1070",
   "size" : 4,
   "source_file" : "/frameworks/av/media/libaaudio/src/binding/IAAudioClient.h"
  },
  {
   "alignment" : 4,
   "is_const" : true,
   "linker_set_key" : "const android::String16",
   "name" : "const android::String16",
   "referenced_type" : "type-1188",
   "self_type" : "type-1187",
   "size" : 4,
   "source_file" : "/frameworks/av/media/libaaudio/src/binding/IAAudioClient.h"
  },
  {
   "alignment" : 4,
   "is_const" : true,
   "linker_set_key" : "const android::String16",
   "name" : "const android::String16",
   "referenced_type" : "type-1222",
   "self_type" : "type-1221",
   "size" : 4,
   "source_file" : "/frameworks/av/media/libaaudio/src/binding/IAAudioClient.h"
  },
  {
   "alignment" : 4,
   "is_const" : true,
   "linker_set_key" : "const android::String16",
   "name" : "const android::String16",
   "referenced_type" : "type-1278",
   "self_type" : "type-1277",
   "size" : 4,
   "source_file" : "/frameworks/av/media/libaaudio/src/binding/IAAudioClient.h"
  },
  {
   "alignment" : 4,
   "is_const" : true,
   "linker_set_key" : "const android::String16",
   "name" : "const android::String16",
   "referenced_type" : "type-1287",
   "self_type" : "type-1286",
   "size" : 4,
   "source_file" : "/frameworks/av/media/libaaudio/src/binding/IAAudioClient.h"
  },
  {
   "alignment" : 4,
   "is_const" : true,
   "linker_set_key" : "const android::String16",
   "name" : "const android::String16",
   "referenced_type" : "type-1303",
   "self_type" : "type-1302",
   "size" : 4,
   "source_file" : "/frameworks/av/media/libaaudio/src/binding/IAAudioClient.h"
  },
  {
   "alignment" : 4,
   "is_const" : true,
   "linker_set_key" : "const android::String16",
   "name" : "const android::String16",
   "referenced_type" : "type-1320",
   "self_type" : "type-1319",
   "size" : 4,
   "source_file" : "/frameworks/av/media/libaaudio/src/binding/IAAudioClient.h"
  },
  {
   "alignment" : 4,
   "is_const" : true,
   "linker_set_key" : "const android::String16",
   "name" : "const android::String16",
   "referenced_type" : "type-1350",
   "self_type" : "type-1349",
   "size" : 4,
   "source_file" : "/frameworks/av/media/libaaudio/src/binding/IAAudioClient.h"
  },
  {
   "alignment" : 4,
   "is_const" : true,
   "linker_set_key" : "const android::String16",
   "name" : "const android::String16",
   "referenced_type" : "type-1379",
   "self_type" : "type-1378",
   "size" : 4,
   "source_file" : "/frameworks/av/media/libaaudio/src/binding/IAAudioClient.h"
  },
  {
   "alignment" : 4,
   "is_const" : true,
   "linker_set_key" : "const android::String16",
   "name" : "const android::String16",
   "referenced_type" : "type-1436",
   "self_type" : "type-1435",
   "size" : 4,
   "source_file" : "/frameworks/av/media/libaaudio/src/binding/IAAudioClient.h"
  },
  {
   "alignment" : 4,
   "is_const" : true,
   "linker_set_key" : "const android::String16",
   "name" : "const android::String16",
   "referenced_type" : "type-1452",
   "self_type" : "type-1451",
   "size" : 4,
   "source_file" : "/frameworks/av/media/libaaudio/src/binding/IAAudioClient.h"
  },
  {
   "alignment" : 4,
   "is_const" : true,
   "linker_set_key" : "const android::String16",
   "name" : "const android::String16",
   "referenced_type" : "type-1482",
   "self_type" : "type-1481",
   "size" : 4,
   "source_file" : "/frameworks/av/media/libaaudio/src/binding/IAAudioClient.h"
  },
  {
   "alignment" : 4,
   "is_const" : true,
   "linker_set_key" : "const android::String16",
   "name" : "const android::String16",
   "referenced_type" : "type-1513",
   "self_type" : "type-1512",
   "size" : 4,
   "source_file" : "/frameworks/av/media/libaaudio/src/binding/IAAudioClient.h"
  },
  {
   "alignment" : 4,
   "is_const" : true,
   "linker_set_key" : "const android::String16",
   "name" : "const android::String16",
   "referenced_type" : "type-1614",
   "self_type" : "type-1613",
   "size" : 4,
   "source_file" : "/frameworks/av/media/libaaudio/src/binding/IAAudioClient.h"
  },
  {
   "alignment" : 4,
   "is_const" : true,
   "linker_set_key" : "const android::String16",
   "name" : "const android::String16",
   "referenced_type" : "type-1648",
   "self_type" : "type-1647",
   "size" : 4,
   "source_file" : "/frameworks/av/media/libaaudio/src/binding/IAAudioClient.h"
  },
  {
   "alignment" : 4,
   "is_const" : true,
   "linker_set_key" : "const android::String16",
   "name" : "const android::String16",
   "referenced_type" : "type-164",
   "self_type" : "type-163",
   "size" : 4,
   "source_file" : "/frameworks/av/media/libaaudio/src/binding/IAAudioClient.h"
  },
  {
   "alignment" : 4,
   "is_const" : true,
   "linker_set_key" : "const android::String16",
   "name" : "const android::String16",
   "referenced_type" : "type-1695",
   "self_type" : "type-1694",
   "size" : 4,
   "source_file" : "/frameworks/av/media/libaaudio/src/binding/IAAudioClient.h"
  },
  {
   "alignment" : 4,
   "is_const" : true,
   "linker_set_key" : "const android::String16",
   "name" : "const android::String16",
   "referenced_type" : "type-1717",
   "self_type" : "type-1716",
   "size" : 4,
   "source_file" : "/frameworks/av/media/libaaudio/src/binding/IAAudioClient.h"
  },
  {
   "alignment" : 4,
   "is_const" : true,
   "linker_set_key" : "const android::String16",
   "name" : "const android::String16",
   "referenced_type" : "type-1766",
   "self_type" : "type-1765",
   "size" : 4,
   "source_file" : "/frameworks/av/media/libaaudio/src/binding/IAAudioClient.h"
  },
  {
   "alignment" : 4,
   "is_const" : true,
   "linker_set_key" : "const android::String16",
   "name" : "const android::String16",
   "referenced_type" : "type-1773",
   "self_type" : "type-1772",
   "size" : 4,
   "source_file" : "/frameworks/av/media/libaaudio/src/binding/IAAudioClient.h"
  },
  {
   "alignment" : 4,
   "is_const" : true,
   "linker_set_key" : "const android::String16",
   "name" : "const android::String16",
   "referenced_type" : "type-220",
   "self_type" : "type-219",
   "size" : 4,
   "source_file" : "/frameworks/av/media/libaaudio/src/binding/IAAudioClient.h"
  },
  {
   "alignment" : 4,
   "is_const" : true,
   "linker_set_key" : "const android::String16",
   "name" : "const android::String16",
   "referenced_type" : "type-362",
   "self_type" : "type-361",
   "size" : 4,
   "source_file" : "/frameworks/av/media/libaaudio/src/binding/IAAudioClient.h"
  },
  {
   "alignment" : 4,
   "is_const" : true,
   "linker_set_key" : "const android::String16",
   "name" : "const android::String16",
   "referenced_type" : "type-396",
   "self_type" : "type-395",
   "size" : 4,
   "source_file" : "/frameworks/av/media/libaaudio/src/binding/IAAudioClient.h"
  },
  {
   "alignment" : 4,
   "is_const" : true,
   "linker_set_key" : "const android::String16",
   "name" : "const android::String16",
   "referenced_type" : "type-453",
   "self_type" : "type-452",
   "size" : 4,
   "source_file" : "/frameworks/av/media/libaaudio/src/binding/IAAudioClient.h"
  },
  {
   "alignment" : 4,
   "is_const" : true,
   "linker_set_key" : "const android::String16",
   "name" : "const android::String16",
   "referenced_type" : "type-462",
   "self_type" : "type-461",
   "size" : 4,
   "source_file" : "/frameworks/av/media/libaaudio/src/binding/IAAudioClient.h"
  },
  {
   "alignment" : 4,
   "is_const" : true,
   "linker_set_key" : "const android::String16",
   "name" : "const android::String16",
   "referenced_type" : "type-478",
   "self_type" : "type-477",
   "size" : 4,
   "source_file" : "/frameworks/av/media/libaaudio/src/binding/IAAudioClient.h"
  },
  {
   "alignment" : 4,
   "is_const" : true,
   "linker_set_key" : "const android::String16",
   "name" : "const android::String16",
   "referenced_type" : "type-495",
   "self_type" : "type-494",
   "size" : 4,
   "source_file" : "/frameworks/av/media/libaaudio/src/binding/IAAudioClient.h"
  },
  {
   "alignment" : 4,
   "is_const" : true,
   "linker_set_key" : "const android::String16",
   "name" : "const android::String16",
   "referenced_type" : "type-525",
   "self_type" : "type-524",
   "size" : 4,
   "source_file" : "/frameworks/av/media/libaaudio/src/binding/IAAudioClient.h"
  },
  {
   "alignment" : 4,
   "is_const" : true,
   "linker_set_key" : "const android::String16",
   "name" : "const android::String16",
   "referenced_type" : "type-554",
   "self_type" : "type-553",
   "size" : 4,
   "source_file" : "/frameworks/av/media/libaaudio/src/binding/IAAudioClient.h"
  },
  {
   "alignment" : 4,
   "is_const" : true,
   "linker_set_key" : "const android::String16",
   "name" : "const android::String16",
   "referenced_type" : "type-664",
   "self_type" : "type-663",
   "size" : 4,
   "source_file" : "/frameworks/av/media/libaaudio/src/binding/IAAudioClient.h"
  },
  {
   "alignment" : 4,
   "is_const" : true,
   "linker_set_key" : "const android::String16",
   "name" : "const android::String16",
   "referenced_type" : "type-698",
   "self_type" : "type-697",
   "size" : 4,
   "source_file" : "/frameworks/av/media/libaaudio/src/binding/IAAudioClient.h"
  },
  {
   "alignment" : 4,
   "is_const" : true,
   "linker_set_key" : "const android::String16",
   "name" : "const android::String16",
   "referenced_type" : "type-754",
   "self_type" : "type-753",
   "size" : 4,
   "source_file" : "/frameworks/av/media/libaaudio/src/binding/IAAudioClient.h"
  },
  {
   "alignment" : 4,
   "is_const" : true,
   "linker_set_key" : "const android::String16",
   "name" : "const android::String16",
   "referenced_type" : "type-763",
   "self_type" : "type-762",
   "size" : 4,
   "source_file" : "/frameworks/av/media/libaaudio/src/binding/IAAudioClient.h"
  },
  {
   "alignment" : 4,
   "is_const" : true,
   "linker_set_key" : "const android::String16",
   "name" : "const android::String16",
   "referenced_type" : "type-779",
   "self_type" : "type-778",
   "size" : 4,
   "source_file" : "/frameworks/av/media/libaaudio/src/binding/IAAudioClient.h"
  },
  {
   "alignment" : 4,
   "is_const" : true,
   "linker_set_key" : "const android::String16",
   "name" : "const android::String16",
   "referenced_type" : "type-796",
   "self_type" : "type-795",
   "size" : 4,
   "source_file" : "/frameworks/av/media/libaaudio/src/binding/IAAudioClient.h"
  },
  {
   "alignment" : 4,
   "is_const" : true,
   "linker_set_key" : "const android::String16",
   "name" : "const android::String16",
   "referenced_type" : "type-880",
   "self_type" : "type-879",
   "size" : 4,
   "source_file" : "/frameworks/av/media/libaaudio/src/binding/IAAudioClient.h"
  },
  {
   "alignment" : 4,
   "is_const" : true,
   "linker_set_key" : "const android::String16",
   "name" : "const android::String16",
   "referenced_type" : "type-914",
   "self_type" : "type-913",
   "size" : 4,
   "source_file" : "/frameworks/av/media/libaaudio/src/binding/IAAudioClient.h"
  },
  {
   "alignment" : 4,
   "is_const" : true,
   "linker_set_key" : "const android::String16",
   "name" : "const android::String16",
   "referenced_type" : "type-970",
   "self_type" : "type-969",
   "size" : 4,
   "source_file" : "/frameworks/av/media/libaaudio/src/binding/IAAudioClient.h"
  },
  {
   "alignment" : 4,
   "is_const" : true,
   "linker_set_key" : "const android::String16",
   "name" : "const android::String16",
   "referenced_type" : "type-979",
   "self_type" : "type-978",
   "size" : 4,
   "source_file" : "/frameworks/av/media/libaaudio/src/binding/IAAudioClient.h"
  },
  {
   "alignment" : 4,
   "is_const" : true,
   "linker_set_key" : "const android::String16",
   "name" : "const android::String16",
   "referenced_type" : "type-995",
   "self_type" : "type-994",
   "size" : 4,
   "source_file" : "/frameworks/av/media/libaaudio/src/binding/IAAudioClient.h"
  },
  {
   "alignment" : 4,
   "is_const" : true,
   "linker_set_key" : "const android::base::unique_fd_impl<android::base::DefaultCloser>",
   "name" : "const android::base::unique_fd_impl<android::base::DefaultCloser>",
   "referenced_type" : "type-1000",
   "self_type" : "type-999",
   "size" : 4,
   "source_file" : "/frameworks/av/media/libaaudio/src/binding/AudioEndpointParcelable.h"
  },
  {
   "alignment" : 4,
   "is_const" : true,
   "linker_set_key" : "const android::base::unique_fd_impl<android::base::DefaultCloser>",
   "name" : "const android::base::unique_fd_impl<android::base::DefaultCloser>",
   "referenced_type" : "type-1099",
   "self_type" : "type-1098",
   "size" : 4,
   "source_file" : "/frameworks/av/media/libaaudio/src/binding/SharedMemoryParcelable.h"
  },
  {
   "alignment" : 4,
   "is_const" : true,
   "linker_set_key" : "const android::base::unique_fd_impl<android::base::DefaultCloser>",
   "name" : "const android::base::unique_fd_impl<android::base::DefaultCloser>",
   "referenced_type" : "type-1308",
   "self_type" : "type-1307",
   "size" : 4,
   "source_file" : "/frameworks/av/media/libaaudio/src/binding/AudioEndpointParcelable.h"
  },
  {
   "alignment" : 4,
   "is_const" : true,
   "linker_set_key" : "const android::base::unique_fd_impl<android::base::DefaultCloser>",
   "name" : "const android::base::unique_fd_impl<android::base::DefaultCloser>",
   "referenced_type" : "type-1407",
   "self_type" : "type-1406",
   "size" : 4,
   "source_file" : "/frameworks/av/media/libaaudio/src/binding/SharedMemoryParcelable.h"
  },
  {
   "alignment" : 4,
   "is_const" : true,
   "linker_set_key" : "const android::base::unique_fd_impl<android::base::DefaultCloser>",
   "name" : "const android::base::unique_fd_impl<android::base::DefaultCloser>",
   "referenced_type" : "type-1440",
   "self_type" : "type-1439",
   "size" : 4,
   "source_file" : "/frameworks/av/media/libaaudio/src/binding/AudioEndpointParcelable.h"
  },
  {
   "alignment" : 4,
   "is_const" : true,
   "linker_set_key" : "const android::base::unique_fd_impl<android::base::DefaultCloser>",
   "name" : "const android::base::unique_fd_impl<android::base::DefaultCloser>",
   "referenced_type" : "type-1544",
   "self_type" : "type-1543",
   "size" : 4,
   "source_file" : "/frameworks/av/media/libaaudio/src/binding/SharedMemoryParcelable.h"
  },
  {
   "alignment" : 4,
   "is_const" : true,
   "linker_set_key" : "const android::base::unique_fd_impl<android::base::DefaultCloser>",
   "name" : "const android::base::unique_fd_impl<android::base::DefaultCloser>",
   "referenced_type" : "type-483",
   "self_type" : "type-482",
   "size" : 4,
   "source_file" : "/frameworks/av/media/libaaudio/src/binding/AudioEndpointParcelable.h"
  },
  {
   "alignment" : 4,
   "is_const" : true,
   "linker_set_key" : "const android::base::unique_fd_impl<android::base::DefaultCloser>",
   "name" : "const android::base::unique_fd_impl<android::base::DefaultCloser>",
   "referenced_type" : "type-582",
   "self_type" : "type-581",
   "size" : 4,
   "source_file" : "/frameworks/av/media/libaaudio/src/binding/SharedMemoryParcelable.h"
  },
  {
   "alignment" : 4,
   "is_const" : true,
   "linker_set_key" : "const android::base::unique_fd_impl<android::base::DefaultCloser>",
   "name" : "const android::base::unique_fd_impl<android::base::DefaultCloser>",
   "referenced_type" : "type-784",
   "self_type" : "type-783",
   "size" : 4,
   "source_file" : "/frameworks/av/media/libaaudio/src/binding/AudioEndpointParcelable.h"
  },
  {
   "alignment" : 4,
   "is_const" : true,
   "linker_set_key" : "const android::sp<aaudio::AudioStream::MyPlayerBase>",
   "name" : "const android::sp<aaudio::AudioStream::MyPlayerBase>",
   "referenced_type" : "type-1040",
   "self_type" : "type-1039",
   "size" : 4,
   "source_file" : "/frameworks/av/media/libaaudio/src/core/AudioStream.h"
  },
  {
   "alignment" : 4,
   "is_const" : true,
   "linker_set_key" : "const android::sp<aaudio::AudioStream::MyPlayerBase>",
   "name" : "const android::sp<aaudio::AudioStream::MyPlayerBase>",
   "referenced_type" : "type-1198",
   "self_type" : "type-1197",
   "size" : 4,
   "source_file" : "/frameworks/av/media/libaaudio/src/core/AudioStream.h"
  },
  {
   "alignment" : 4,
   "is_const" : true,
   "linker_set_key" : "const android::sp<aaudio::AudioStream::MyPlayerBase>",
   "name" : "const android::sp<aaudio::AudioStream::MyPlayerBase>",
   "referenced_type" : "type-1219",
   "self_type" : "type-1218",
   "size" : 4,
   "source_file" : "/frameworks/av/media/libaaudio/src/core/AudioStream.h"
  },
  {
   "alignment" : 4,
   "is_const" : true,
   "linker_set_key" : "const android::sp<aaudio::AudioStream::MyPlayerBase>",
   "name" : "const android::sp<aaudio::AudioStream::MyPlayerBase>",
   "referenced_type" : "type-1225",
   "self_type" : "type-1224",
   "size" : 4,
   "source_file" : "/frameworks/av/media/libaaudio/src/core/AudioStream.h"
  },
  {
   "alignment" : 4,
   "is_const" : true,
   "linker_set_key" : "const android::sp<aaudio::AudioStream::MyPlayerBase>",
   "name" : "const android::sp<aaudio::AudioStream::MyPlayerBase>",
   "referenced_type" : "type-1235",
   "self_type" : "type-1234",
   "size" : 4,
   "source_file" : "/frameworks/av/media/libaaudio/src/core/AudioStream.h"
  },
  {
   "alignment" : 4,
   "is_const" : true,
   "linker_set_key" : "const android::sp<aaudio::AudioStream::MyPlayerBase>",
   "name" : "const android::sp<aaudio::AudioStream::MyPlayerBase>",
   "referenced_type" : "type-1242",
   "self_type" : "type-1241",
   "size" : 4,
   "source_file" : "/frameworks/av/media/libaaudio/src/core/AudioStream.h"
  },
  {
   "alignment" : 4,
   "is_const" : true,
   "linker_set_key" : "const android::sp<aaudio::AudioStream::MyPlayerBase>",
   "name" : "const android::sp<aaudio::AudioStream::MyPlayerBase>",
   "referenced_type" : "type-1281",
   "self_type" : "type-1280",
   "size" : 4,
   "source_file" : "/frameworks/av/media/libaaudio/src/core/AudioStream.h"
  },
  {
   "alignment" : 4,
   "is_const" : true,
   "linker_set_key" : "const android::sp<aaudio::AudioStream::MyPlayerBase>",
   "name" : "const android::sp<aaudio::AudioStream::MyPlayerBase>",
   "referenced_type" : "type-1289",
   "self_type" : "type-1288",
   "size" : 4,
   "source_file" : "/frameworks/av/media/libaaudio/src/core/AudioStream.h"
  },
  {
   "alignment" : 4,
   "is_const" : true,
   "linker_set_key" : "const android::sp<aaudio::AudioStream::MyPlayerBase>",
   "name" : "const android::sp<aaudio::AudioStream::MyPlayerBase>",
   "referenced_type" : "type-1293",
   "self_type" : "type-1292",
   "size" : 4,
   "source_file" : "/frameworks/av/media/libaaudio/src/core/AudioStream.h"
  },
  {
   "alignment" : 4,
   "is_const" : true,
   "linker_set_key" : "const android::sp<aaudio::AudioStream::MyPlayerBase>",
   "name" : "const android::sp<aaudio::AudioStream::MyPlayerBase>",
   "referenced_type" : "type-1348",
   "self_type" : "type-1347",
   "size" : 4,
   "source_file" : "/frameworks/av/media/libaaudio/src/core/AudioStream.h"
  },
  {
   "alignment" : 4,
   "is_const" : true,
   "linker_set_key" : "const android::sp<aaudio::AudioStream::MyPlayerBase>",
   "name" : "const android::sp<aaudio::AudioStream::MyPlayerBase>",
   "referenced_type" : "type-1427",
   "self_type" : "type-1426",
   "size" : 4,
   "source_file" : "/frameworks/av/media/libaaudio/src/core/AudioStream.h"
  },
  {
   "alignment" : 4,
   "is_const" : true,
   "linker_set_key" : "const android::sp<aaudio::AudioStream::MyPlayerBase>",
   "name" : "const android::sp<aaudio::AudioStream::MyPlayerBase>",
   "referenced_type" : "type-1624",
   "self_type" : "type-1623",
   "size" : 4,
   "source_file" : "/frameworks/av/media/libaaudio/src/core/AudioStream.h"
  },
  {
   "alignment" : 4,
   "is_const" : true,
   "linker_set_key" : "const android::sp<aaudio::AudioStream::MyPlayerBase>",
   "name" : "const android::sp<aaudio::AudioStream::MyPlayerBase>",
   "referenced_type" : "type-1645",
   "self_type" : "type-1644",
   "size" : 4,
   "source_file" : "/frameworks/av/media/libaaudio/src/core/AudioStream.h"
  },
  {
   "alignment" : 4,
   "is_const" : true,
   "linker_set_key" : "const android::sp<aaudio::AudioStream::MyPlayerBase>",
   "name" : "const android::sp<aaudio::AudioStream::MyPlayerBase>",
   "referenced_type" : "type-1651",
   "self_type" : "type-1650",
   "size" : 4,
   "source_file" : "/frameworks/av/media/libaaudio/src/core/AudioStream.h"
  },
  {
   "alignment" : 4,
   "is_const" : true,
   "linker_set_key" : "const android::sp<aaudio::AudioStream::MyPlayerBase>",
   "name" : "const android::sp<aaudio::AudioStream::MyPlayerBase>",
   "referenced_type" : "type-1661",
   "self_type" : "type-1660",
   "size" : 4,
   "source_file" : "/frameworks/av/media/libaaudio/src/core/AudioStream.h"
  },
  {
   "alignment" : 4,
   "is_const" : true,
   "linker_set_key" : "const android::sp<aaudio::AudioStream::MyPlayerBase>",
   "name" : "const android::sp<aaudio::AudioStream::MyPlayerBase>",
   "referenced_type" : "type-1668",
   "self_type" : "type-1667",
   "size" : 4,
   "source_file" : "/frameworks/av/media/libaaudio/src/core/AudioStream.h"
  },
  {
   "alignment" : 4,
   "is_const" : true,
   "linker_set_key" : "const android::sp<aaudio::AudioStream::MyPlayerBase>",
   "name" : "const android::sp<aaudio::AudioStream::MyPlayerBase>",
   "referenced_type" : "type-1677",
   "self_type" : "type-1676",
   "size" : 4,
   "source_file" : "/frameworks/av/media/libaaudio/src/core/AudioStream.h"
  },
  {
   "alignment" : 4,
   "is_const" : true,
   "linker_set_key" : "const android::sp<aaudio::AudioStream::MyPlayerBase>",
   "name" : "const android::sp<aaudio::AudioStream::MyPlayerBase>",
   "referenced_type" : "type-1683",
   "self_type" : "type-1682",
   "size" : 4,
   "source_file" : "/frameworks/av/media/libaaudio/src/core/AudioStream.h"
  },
  {
   "alignment" : 4,
   "is_const" : true,
   "linker_set_key" : "const android::sp<aaudio::AudioStream::MyPlayerBase>",
   "name" : "const android::sp<aaudio::AudioStream::MyPlayerBase>",
   "referenced_type" : "type-1714",
   "self_type" : "type-1713",
   "size" : 4,
   "source_file" : "/frameworks/av/media/libaaudio/src/core/AudioStream.h"
  },
  {
   "alignment" : 4,
   "is_const" : true,
   "linker_set_key" : "const android::sp<aaudio::AudioStream::MyPlayerBase>",
   "name" : "const android::sp<aaudio::AudioStream::MyPlayerBase>",
   "referenced_type" : "type-1719",
   "self_type" : "type-1718",
   "size" : 4,
   "source_file" : "/frameworks/av/media/libaaudio/src/core/AudioStream.h"
  },
  {
   "alignment" : 4,
   "is_const" : true,
   "linker_set_key" : "const android::sp<aaudio::AudioStream::MyPlayerBase>",
   "name" : "const android::sp<aaudio::AudioStream::MyPlayerBase>",
   "referenced_type" : "type-1728",
   "self_type" : "type-1727",
   "size" : 4,
   "source_file" : "/frameworks/av/media/libaaudio/src/core/AudioStream.h"
  },
  {
   "alignment" : 4,
   "is_const" : true,
   "linker_set_key" : "const android::sp<aaudio::AudioStream::MyPlayerBase>",
   "name" : "const android::sp<aaudio::AudioStream::MyPlayerBase>",
   "referenced_type" : "type-1735",
   "self_type" : "type-1734",
   "size" : 4,
   "source_file" : "/frameworks/av/media/libaaudio/src/core/AudioStream.h"
  },
  {
   "alignment" : 4,
   "is_const" : true,
   "linker_set_key" : "const android::sp<aaudio::AudioStream::MyPlayerBase>",
   "name" : "const android::sp<aaudio::AudioStream::MyPlayerBase>",
   "referenced_type" : "type-1750",
   "self_type" : "type-1749",
   "size" : 4,
   "source_file" : "/frameworks/av/media/libaaudio/src/core/AudioStream.h"
  },
  {
   "alignment" : 4,
   "is_const" : true,
   "linker_set_key" : "const android::sp<aaudio::AudioStream::MyPlayerBase>",
   "name" : "const android::sp<aaudio::AudioStream::MyPlayerBase>",
   "referenced_type" : "type-1768",
   "self_type" : "type-1767",
   "size" : 4,
   "source_file" : "/frameworks/av/media/libaaudio/src/core/AudioStream.h"
  },
  {
   "alignment" : 4,
   "is_const" : true,
   "linker_set_key" : "const android::sp<aaudio::AudioStream::MyPlayerBase>",
   "name" : "const android::sp<aaudio::AudioStream::MyPlayerBase>",
   "referenced_type" : "type-1776",
   "self_type" : "type-1775",
   "size" : 4,
   "source_file" : "/frameworks/av/media/libaaudio/src/core/AudioStream.h"
  },
  {
   "alignment" : 4,
   "is_const" : true,
   "linker_set_key" : "const android::sp<aaudio::AudioStream::MyPlayerBase>",
   "name" : "const android::sp<aaudio::AudioStream::MyPlayerBase>",
   "referenced_type" : "type-217",
   "self_type" : "type-216",
   "size" : 4,
   "source_file" : "/frameworks/av/media/libaaudio/src/core/AudioStream.h"
  },
  {
   "alignment" : 4,
   "is_const" : true,
   "linker_set_key" : "const android::sp<aaudio::AudioStream::MyPlayerBase>",
   "name" : "const android::sp<aaudio::AudioStream::MyPlayerBase>",
   "referenced_type" : "type-223",
   "self_type" : "type-222",
   "size" : 4,
   "source_file" : "/frameworks/av/media/libaaudio/src/core/AudioStream.h"
  },
  {
   "alignment" : 4,
   "is_const" : true,
   "linker_set_key" : "const android::sp<aaudio::AudioStream::MyPlayerBase>",
   "name" : "const android::sp<aaudio::AudioStream::MyPlayerBase>",
   "referenced_type" : "type-233",
   "self_type" : "type-232",
   "size" : 4,
   "source_file" : "/frameworks/av/media/libaaudio/src/core/AudioStream.h"
  },
  {
   "alignment" : 4,
   "is_const" : true,
   "linker_set_key" : "const android::sp<aaudio::AudioStream::MyPlayerBase>",
   "name" : "const android::sp<aaudio::AudioStream::MyPlayerBase>",
   "referenced_type" : "type-239",
   "self_type" : "type-238",
   "size" : 4,
   "source_file" : "/frameworks/av/media/libaaudio/src/core/AudioStream.h"
  },
  {
   "alignment" : 4,
   "is_const" : true,
   "linker_set_key" : "const android::sp<aaudio::AudioStream::MyPlayerBase>",
   "name" : "const android::sp<aaudio::AudioStream::MyPlayerBase>",
   "referenced_type" : "type-281",
   "self_type" : "type-280",
   "size" : 4,
   "source_file" : "/frameworks/av/media/libaaudio/src/core/AudioStream.h"
  },
  {
   "alignment" : 4,
   "is_const" : true,
   "linker_set_key" : "const android::sp<aaudio::AudioStream::MyPlayerBase>",
   "name" : "const android::sp<aaudio::AudioStream::MyPlayerBase>",
   "referenced_type" : "type-372",
   "self_type" : "type-371",
   "size" : 4,
   "source_file" : "/frameworks/av/media/libaaudio/src/core/AudioStream.h"
  },
  {
   "alignment" : 4,
   "is_const" : true,
   "linker_set_key" : "const android::sp<aaudio::AudioStream::MyPlayerBase>",
   "name" : "const android::sp<aaudio::AudioStream::MyPlayerBase>",
   "referenced_type" : "type-393",
   "self_type" : "type-392",
   "size" : 4,
   "source_file" : "/frameworks/av/media/libaaudio/src/core/AudioStream.h"
  },
  {
   "alignment" : 4,
   "is_const" : true,
   "linker_set_key" : "const android::sp<aaudio::AudioStream::MyPlayerBase>",
   "name" : "const android::sp<aaudio::AudioStream::MyPlayerBase>",
   "referenced_type" : "type-399",
   "self_type" : "type-398",
   "size" : 4,
   "source_file" : "/frameworks/av/media/libaaudio/src/core/AudioStream.h"
  },
  {
   "alignment" : 4,
   "is_const" : true,
   "linker_set_key" : "const android::sp<aaudio::AudioStream::MyPlayerBase>",
   "name" : "const android::sp<aaudio::AudioStream::MyPlayerBase>",
   "referenced_type" : "type-409",
   "self_type" : "type-408",
   "size" : 4,
   "source_file" : "/frameworks/av/media/libaaudio/src/core/AudioStream.h"
  },
  {
   "alignment" : 4,
   "is_const" : true,
   "linker_set_key" : "const android::sp<aaudio::AudioStream::MyPlayerBase>",
   "name" : "const android::sp<aaudio::AudioStream::MyPlayerBase>",
   "referenced_type" : "type-416",
   "self_type" : "type-415",
   "size" : 4,
   "source_file" : "/frameworks/av/media/libaaudio/src/core/AudioStream.h"
  },
  {
   "alignment" : 4,
   "is_const" : true,
   "linker_set_key" : "const android::sp<aaudio::AudioStream::MyPlayerBase>",
   "name" : "const android::sp<aaudio::AudioStream::MyPlayerBase>",
   "referenced_type" : "type-456",
   "self_type" : "type-455",
   "size" : 4,
   "source_file" : "/frameworks/av/media/libaaudio/src/core/AudioStream.h"
  },
  {
   "alignment" : 4,
   "is_const" : true,
   "linker_set_key" : "const android::sp<aaudio::AudioStream::MyPlayerBase>",
   "name" : "const android::sp<aaudio::AudioStream::MyPlayerBase>",
   "referenced_type" : "type-464",
   "self_type" : "type-463",
   "size" : 4,
   "source_file" : "/frameworks/av/media/libaaudio/src/core/AudioStream.h"
  },
  {
   "alignment" : 4,
   "is_const" : true,
   "linker_set_key" : "const android::sp<aaudio::AudioStream::MyPlayerBase>",
   "name" : "const android::sp<aaudio::AudioStream::MyPlayerBase>",
   "referenced_type" : "type-468",
   "self_type" : "type-467",
   "size" : 4,
   "source_file" : "/frameworks/av/media/libaaudio/src/core/AudioStream.h"
  },
  {
   "alignment" : 4,
   "is_const" : true,
   "linker_set_key" : "const android::sp<aaudio::AudioStream::MyPlayerBase>",
   "name" : "const android::sp<aaudio::AudioStream::MyPlayerBase>",
   "referenced_type" : "type-46",
   "self_type" : "type-45",
   "size" : 4,
   "source_file" : "/frameworks/av/media/libaaudio/src/core/AudioStream.h"
  },
  {
   "alignment" : 4,
   "is_const" : true,
   "linker_set_key" : "const android::sp<aaudio::AudioStream::MyPlayerBase>",
   "name" : "const android::sp<aaudio::AudioStream::MyPlayerBase>",
   "referenced_type" : "type-523",
   "self_type" : "type-522",
   "size" : 4,
   "source_file" : "/frameworks/av/media/libaaudio/src/core/AudioStream.h"
  },
  {
   "alignment" : 4,
   "is_const" : true,
   "linker_set_key" : "const android::sp<aaudio::AudioStream::MyPlayerBase>",
   "name" : "const android::sp<aaudio::AudioStream::MyPlayerBase>",
   "referenced_type" : "type-674",
   "self_type" : "type-673",
   "size" : 4,
   "source_file" : "/frameworks/av/media/libaaudio/src/core/AudioStream.h"
  },
  {
   "alignment" : 4,
   "is_const" : true,
   "linker_set_key" : "const android::sp<aaudio::AudioStream::MyPlayerBase>",
   "name" : "const android::sp<aaudio::AudioStream::MyPlayerBase>",
   "referenced_type" : "type-695",
   "self_type" : "type-694",
   "size" : 4,
   "source_file" : "/frameworks/av/media/libaaudio/src/core/AudioStream.h"
  },
  {
   "alignment" : 4,
   "is_const" : true,
   "linker_set_key" : "const android::sp<aaudio::AudioStream::MyPlayerBase>",
   "name" : "const android::sp<aaudio::AudioStream::MyPlayerBase>",
   "referenced_type" : "type-701",
   "self_type" : "type-700",
   "size" : 4,
   "source_file" : "/frameworks/av/media/libaaudio/src/core/AudioStream.h"
  },
  {
   "alignment" : 4,
   "is_const" : true,
   "linker_set_key" : "const android::sp<aaudio::AudioStream::MyPlayerBase>",
   "name" : "const android::sp<aaudio::AudioStream::MyPlayerBase>",
   "referenced_type" : "type-711",
   "self_type" : "type-710",
   "size" : 4,
   "source_file" : "/frameworks/av/media/libaaudio/src/core/AudioStream.h"
  },
  {
   "alignment" : 4,
   "is_const" : true,
   "linker_set_key" : "const android::sp<aaudio::AudioStream::MyPlayerBase>",
   "name" : "const android::sp<aaudio::AudioStream::MyPlayerBase>",
   "referenced_type" : "type-718",
   "self_type" : "type-717",
   "size" : 4,
   "source_file" : "/frameworks/av/media/libaaudio/src/core/AudioStream.h"
  },
  {
   "alignment" : 4,
   "is_const" : true,
   "linker_set_key" : "const android::sp<aaudio::AudioStream::MyPlayerBase>",
   "name" : "const android::sp<aaudio::AudioStream::MyPlayerBase>",
   "referenced_type" : "type-757",
   "self_type" : "type-756",
   "size" : 4,
   "source_file" : "/frameworks/av/media/libaaudio/src/core/AudioStream.h"
  },
  {
   "alignment" : 4,
   "is_const" : true,
   "linker_set_key" : "const android::sp<aaudio::AudioStream::MyPlayerBase>",
   "name" : "const android::sp<aaudio::AudioStream::MyPlayerBase>",
   "referenced_type" : "type-765",
   "self_type" : "type-764",
   "size" : 4,
   "source_file" : "/frameworks/av/media/libaaudio/src/core/AudioStream.h"
  },
  {
   "alignment" : 4,
   "is_const" : true,
   "linker_set_key" : "const android::sp<aaudio::AudioStream::MyPlayerBase>",
   "name" : "const android::sp<aaudio::AudioStream::MyPlayerBase>",
   "referenced_type" : "type-769",
   "self_type" : "type-768",
   "size" : 4,
   "source_file" : "/frameworks/av/media/libaaudio/src/core/AudioStream.h"
  },
  {
   "alignment" : 4,
   "is_const" : true,
   "linker_set_key" : "const android::sp<aaudio::AudioStream::MyPlayerBase>",
   "name" : "const android::sp<aaudio::AudioStream::MyPlayerBase>",
   "referenced_type" : "type-812",
   "self_type" : "type-811",
   "size" : 4,
   "source_file" : "/frameworks/av/media/libaaudio/src/core/AudioStream.h"
  },
  {
   "alignment" : 4,
   "is_const" : true,
   "linker_set_key" : "const android::sp<aaudio::AudioStream::MyPlayerBase>",
   "name" : "const android::sp<aaudio::AudioStream::MyPlayerBase>",
   "referenced_type" : "type-890",
   "self_type" : "type-889",
   "size" : 4,
   "source_file" : "/frameworks/av/media/libaaudio/src/core/AudioStream.h"
  },
  {
   "alignment" : 4,
   "is_const" : true,
   "linker_set_key" : "const android::sp<aaudio::AudioStream::MyPlayerBase>",
   "name" : "const android::sp<aaudio::AudioStream::MyPlayerBase>",
   "referenced_type" : "type-911",
   "self_type" : "type-910",
   "size" : 4,
   "source_file" : "/frameworks/av/media/libaaudio/src/core/AudioStream.h"
  },
  {
   "alignment" : 4,
   "is_const" : true,
   "linker_set_key" : "const android::sp<aaudio::AudioStream::MyPlayerBase>",
   "name" : "const android::sp<aaudio::AudioStream::MyPlayerBase>",
   "referenced_type" : "type-917",
   "self_type" : "type-916",
   "size" : 4,
   "source_file" : "/frameworks/av/media/libaaudio/src/core/AudioStream.h"
  },
  {
   "alignment" : 4,
   "is_const" : true,
   "linker_set_key" : "const android::sp<aaudio::AudioStream::MyPlayerBase>",
   "name" : "const android::sp<aaudio::AudioStream::MyPlayerBase>",
   "referenced_type" : "type-927",
   "self_type" : "type-926",
   "size" : 4,
   "source_file" : "/frameworks/av/media/libaaudio/src/core/AudioStream.h"
  },
  {
   "alignment" : 4,
   "is_const" : true,
   "linker_set_key" : "const android::sp<aaudio::AudioStream::MyPlayerBase>",
   "name" : "const android::sp<aaudio::AudioStream::MyPlayerBase>",
   "referenced_type" : "type-934",
   "self_type" : "type-933",
   "size" : 4,
   "source_file" : "/frameworks/av/media/libaaudio/src/core/AudioStream.h"
  },
  {
   "alignment" : 4,
   "is_const" : true,
   "linker_set_key" : "const android::sp<aaudio::AudioStream::MyPlayerBase>",
   "name" : "const android::sp<aaudio::AudioStream::MyPlayerBase>",
   "referenced_type" : "type-973",
   "self_type" : "type-972",
   "size" : 4,
   "source_file" : "/frameworks/av/media/libaaudio/src/core/AudioStream.h"
  },
  {
   "alignment" : 4,
   "is_const" : true,
   "linker_set_key" : "const android::sp<aaudio::AudioStream::MyPlayerBase>",
   "name" : "const android::sp<aaudio::AudioStream::MyPlayerBase>",
   "referenced_type" : "type-981",
   "self_type" : "type-980",
   "size" : 4,
   "source_file" : "/frameworks/av/media/libaaudio/src/core/AudioStream.h"
  },
  {
   "alignment" : 4,
   "is_const" : true,
   "linker_set_key" : "const android::sp<aaudio::AudioStream::MyPlayerBase>",
   "name" : "const android::sp<aaudio::AudioStream::MyPlayerBase>",
   "referenced_type" : "type-985",
   "self_type" : "type-984",
   "size" : 4,
   "source_file" : "/frameworks/av/media/libaaudio/src/core/AudioStream.h"
  },
  {
   "alignment" : 4,
   "is_const" : true,
   "linker_set_key" : "const android::sp<aaudio::AudioStreamLegacy::StreamDeviceCallback>",
   "name" : "const android::sp<aaudio::AudioStreamLegacy::StreamDeviceCallback>",
   "referenced_type" : "type-1168",
   "self_type" : "type-1167",
   "size" : 4,
   "source_file" : "/frameworks/av/media/libaaudio/src/legacy/AudioStreamLegacy.h"
  },
  {
   "alignment" : 4,
   "is_const" : true,
   "linker_set_key" : "const android::sp<aaudio::AudioStreamLegacy::StreamDeviceCallback>",
   "name" : "const android::sp<aaudio::AudioStreamLegacy::StreamDeviceCallback>",
   "referenced_type" : "type-1230",
   "self_type" : "type-1229",
   "size" : 4,
   "source_file" : "/frameworks/av/media/libaaudio/src/legacy/AudioStreamLegacy.h"
  },
  {
   "alignment" : 4,
   "is_const" : true,
   "linker_set_key" : "const android::sp<aaudio::AudioStreamLegacy::StreamDeviceCallback>",
   "name" : "const android::sp<aaudio::AudioStreamLegacy::StreamDeviceCallback>",
   "referenced_type" : "type-1239",
   "self_type" : "type-1238",
   "size" : 4,
   "source_file" : "/frameworks/av/media/libaaudio/src/legacy/AudioStreamLegacy.h"
  },
  {
   "alignment" : 4,
   "is_const" : true,
   "linker_set_key" : "const android::sp<aaudio::AudioStreamLegacy::StreamDeviceCallback>",
   "name" : "const android::sp<aaudio::AudioStreamLegacy::StreamDeviceCallback>",
   "referenced_type" : "type-1247",
   "self_type" : "type-1246",
   "size" : 4,
   "source_file" : "/frameworks/av/media/libaaudio/src/legacy/AudioStreamLegacy.h"
  },
  {
   "alignment" : 4,
   "is_const" : true,
   "linker_set_key" : "const android::sp<aaudio::AudioStreamLegacy::StreamDeviceCallback>",
   "name" : "const android::sp<aaudio::AudioStreamLegacy::StreamDeviceCallback>",
   "referenced_type" : "type-126",
   "self_type" : "type-125",
   "size" : 4,
   "source_file" : "/frameworks/av/media/libaaudio/src/legacy/AudioStreamLegacy.h"
  },
  {
   "alignment" : 4,
   "is_const" : true,
   "linker_set_key" : "const android::sp<aaudio::AudioStreamLegacy::StreamDeviceCallback>",
   "name" : "const android::sp<aaudio::AudioStreamLegacy::StreamDeviceCallback>",
   "referenced_type" : "type-1595",
   "self_type" : "type-1594",
   "size" : 4,
   "source_file" : "/frameworks/av/media/libaaudio/src/legacy/AudioStreamLegacy.h"
  },
  {
   "alignment" : 4,
   "is_const" : true,
   "linker_set_key" : "const android::sp<aaudio::AudioStreamLegacy::StreamDeviceCallback>",
   "name" : "const android::sp<aaudio::AudioStreamLegacy::StreamDeviceCallback>",
   "referenced_type" : "type-1656",
   "self_type" : "type-1655",
   "size" : 4,
   "source_file" : "/frameworks/av/media/libaaudio/src/legacy/AudioStreamLegacy.h"
  },
  {
   "alignment" : 4,
   "is_const" : true,
   "linker_set_key" : "const android::sp<aaudio::AudioStreamLegacy::StreamDeviceCallback>",
   "name" : "const android::sp<aaudio::AudioStreamLegacy::StreamDeviceCallback>",
   "referenced_type" : "type-1665",
   "self_type" : "type-1664",
   "size" : 4,
   "source_file" : "/frameworks/av/media/libaaudio/src/legacy/AudioStreamLegacy.h"
  },
  {
   "alignment" : 4,
   "is_const" : true,
   "linker_set_key" : "const android::sp<aaudio::AudioStreamLegacy::StreamDeviceCallback>",
   "name" : "const android::sp<aaudio::AudioStreamLegacy::StreamDeviceCallback>",
   "referenced_type" : "type-1673",
   "self_type" : "type-1672",
   "size" : 4,
   "source_file" : "/frameworks/av/media/libaaudio/src/legacy/AudioStreamLegacy.h"
  },
  {
   "alignment" : 4,
   "is_const" : true,
   "linker_set_key" : "const android::sp<aaudio::AudioStreamLegacy::StreamDeviceCallback>",
   "name" : "const android::sp<aaudio::AudioStreamLegacy::StreamDeviceCallback>",
   "referenced_type" : "type-1690",
   "self_type" : "type-1689",
   "size" : 4,
   "source_file" : "/frameworks/av/media/libaaudio/src/legacy/AudioStreamLegacy.h"
  },
  {
   "alignment" : 4,
   "is_const" : true,
   "linker_set_key" : "const android::sp<aaudio::AudioStreamLegacy::StreamDeviceCallback>",
   "name" : "const android::sp<aaudio::AudioStreamLegacy::StreamDeviceCallback>",
   "referenced_type" : "type-1723",
   "self_type" : "type-1722",
   "size" : 4,
   "source_file" : "/frameworks/av/media/libaaudio/src/legacy/AudioStreamLegacy.h"
  },
  {
   "alignment" : 4,
   "is_const" : true,
   "linker_set_key" : "const android::sp<aaudio::AudioStreamLegacy::StreamDeviceCallback>",
   "name" : "const android::sp<aaudio::AudioStreamLegacy::StreamDeviceCallback>",
   "referenced_type" : "type-1733",
   "self_type" : "type-1732",
   "size" : 4,
   "source_file" : "/frameworks/av/media/libaaudio/src/legacy/AudioStreamLegacy.h"
  },
  {
   "alignment" : 4,
   "is_const" : true,
   "linker_set_key" : "const android::sp<aaudio::AudioStreamLegacy::StreamDeviceCallback>",
   "name" : "const android::sp<aaudio::AudioStreamLegacy::StreamDeviceCallback>",
   "referenced_type" : "type-1740",
   "self_type" : "type-1739",
   "size" : 4,
   "source_file" : "/frameworks/av/media/libaaudio/src/legacy/AudioStreamLegacy.h"
  },
  {
   "alignment" : 4,
   "is_const" : true,
   "linker_set_key" : "const android::sp<aaudio::AudioStreamLegacy::StreamDeviceCallback>",
   "name" : "const android::sp<aaudio::AudioStreamLegacy::StreamDeviceCallback>",
   "referenced_type" : "type-227",
   "self_type" : "type-226",
   "size" : 4,
   "source_file" : "/frameworks/av/media/libaaudio/src/legacy/AudioStreamLegacy.h"
  },
  {
   "alignment" : 4,
   "is_const" : true,
   "linker_set_key" : "const android::sp<aaudio::AudioStreamLegacy::StreamDeviceCallback>",
   "name" : "const android::sp<aaudio::AudioStreamLegacy::StreamDeviceCallback>",
   "referenced_type" : "type-237",
   "self_type" : "type-236",
   "size" : 4,
   "source_file" : "/frameworks/av/media/libaaudio/src/legacy/AudioStreamLegacy.h"
  },
  {
   "alignment" : 4,
   "is_const" : true,
   "linker_set_key" : "const android::sp<aaudio::AudioStreamLegacy::StreamDeviceCallback>",
   "name" : "const android::sp<aaudio::AudioStreamLegacy::StreamDeviceCallback>",
   "referenced_type" : "type-244",
   "self_type" : "type-243",
   "size" : 4,
   "source_file" : "/frameworks/av/media/libaaudio/src/legacy/AudioStreamLegacy.h"
  },
  {
   "alignment" : 4,
   "is_const" : true,
   "linker_set_key" : "const android::sp<aaudio::AudioStreamLegacy::StreamDeviceCallback>",
   "name" : "const android::sp<aaudio::AudioStreamLegacy::StreamDeviceCallback>",
   "referenced_type" : "type-342",
   "self_type" : "type-341",
   "size" : 4,
   "source_file" : "/frameworks/av/media/libaaudio/src/legacy/AudioStreamLegacy.h"
  },
  {
   "alignment" : 4,
   "is_const" : true,
   "linker_set_key" : "const android::sp<aaudio::AudioStreamLegacy::StreamDeviceCallback>",
   "name" : "const android::sp<aaudio::AudioStreamLegacy::StreamDeviceCallback>",
   "referenced_type" : "type-404",
   "self_type" : "type-403",
   "size" : 4,
   "source_file" : "/frameworks/av/media/libaaudio/src/legacy/AudioStreamLegacy.h"
  },
  {
   "alignment" : 4,
   "is_const" : true,
   "linker_set_key" : "const android::sp<aaudio::AudioStreamLegacy::StreamDeviceCallback>",
   "name" : "const android::sp<aaudio::AudioStreamLegacy::StreamDeviceCallback>",
   "referenced_type" : "type-413",
   "self_type" : "type-412",
   "size" : 4,
   "source_file" : "/frameworks/av/media/libaaudio/src/legacy/AudioStreamLegacy.h"
  },
  {
   "alignment" : 4,
   "is_const" : true,
   "linker_set_key" : "const android::sp<aaudio::AudioStreamLegacy::StreamDeviceCallback>",
   "name" : "const android::sp<aaudio::AudioStreamLegacy::StreamDeviceCallback>",
   "referenced_type" : "type-421",
   "self_type" : "type-420",
   "size" : 4,
   "source_file" : "/frameworks/av/media/libaaudio/src/legacy/AudioStreamLegacy.h"
  },
  {
   "alignment" : 4,
   "is_const" : true,
   "linker_set_key" : "const android::sp<aaudio::AudioStreamLegacy::StreamDeviceCallback>",
   "name" : "const android::sp<aaudio::AudioStreamLegacy::StreamDeviceCallback>",
   "referenced_type" : "type-644",
   "self_type" : "type-643",
   "size" : 4,
   "source_file" : "/frameworks/av/media/libaaudio/src/legacy/AudioStreamLegacy.h"
  },
  {
   "alignment" : 4,
   "is_const" : true,
   "linker_set_key" : "const android::sp<aaudio::AudioStreamLegacy::StreamDeviceCallback>",
   "name" : "const android::sp<aaudio::AudioStreamLegacy::StreamDeviceCallback>",
   "referenced_type" : "type-706",
   "self_type" : "type-705",
   "size" : 4,
   "source_file" : "/frameworks/av/media/libaaudio/src/legacy/AudioStreamLegacy.h"
  },
  {
   "alignment" : 4,
   "is_const" : true,
   "linker_set_key" : "const android::sp<aaudio::AudioStreamLegacy::StreamDeviceCallback>",
   "name" : "const android::sp<aaudio::AudioStreamLegacy::StreamDeviceCallback>",
   "referenced_type" : "type-715",
   "self_type" : "type-714",
   "size" : 4,
   "source_file" : "/frameworks/av/media/libaaudio/src/legacy/AudioStreamLegacy.h"
  },
  {
   "alignment" : 4,
   "is_const" : true,
   "linker_set_key" : "const android::sp<aaudio::AudioStreamLegacy::StreamDeviceCallback>",
   "name" : "const android::sp<aaudio::AudioStreamLegacy::StreamDeviceCallback>",
   "referenced_type" : "type-723",
   "self_type" : "type-722",
   "size" : 4,
   "source_file" : "/frameworks/av/media/libaaudio/src/legacy/AudioStreamLegacy.h"
  },
  {
   "alignment" : 4,
   "is_const" : true,
   "linker_set_key" : "const android::sp<aaudio::AudioStreamLegacy::StreamDeviceCallback>",
   "name" : "const android::sp<aaudio::AudioStreamLegacy::StreamDeviceCallback>",
   "referenced_type" : "type-860",
   "self_type" : "type-859",
   "size" : 4,
   "source_file" : "/frameworks/av/media/libaaudio/src/legacy/AudioStreamLegacy.h"
  },
  {
   "alignment" : 4,
   "is_const" : true,
   "linker_set_key" : "const android::sp<aaudio::AudioStreamLegacy::StreamDeviceCallback>",
   "name" : "const android::sp<aaudio::AudioStreamLegacy::StreamDeviceCallback>",
   "referenced_type" : "type-922",
   "self_type" : "type-921",
   "size" : 4,
   "source_file" : "/frameworks/av/media/libaaudio/src/legacy/AudioStreamLegacy.h"
  },
  {
   "alignment" : 4,
   "is_const" : true,
   "linker_set_key" : "const android::sp<aaudio::AudioStreamLegacy::StreamDeviceCallback>",
   "name" : "const android::sp<aaudio::AudioStreamLegacy::StreamDeviceCallback>",
   "referenced_type" : "type-931",
   "self_type" : "type-930",
   "size" : 4,
   "source_file" : "/frameworks/av/media/libaaudio/src/legacy/AudioStreamLegacy.h"
  },
  {
   "alignment" : 4,
   "is_const" : true,
   "linker_set_key" : "const android::sp<aaudio::AudioStreamLegacy::StreamDeviceCallback>",
   "name" : "const android::sp<aaudio::AudioStreamLegacy::StreamDeviceCallback>",
   "referenced_type" : "type-939",
   "self_type" : "type-938",
   "size" : 4,
   "source_file" : "/frameworks/av/media/libaaudio/src/legacy/AudioStreamLegacy.h"
  },
  {
   "alignment" : 4,
   "is_const" : true,
   "linker_set_key" : "const android::sp<android::IAAudioClient>",
   "name" : "const android::sp<android::IAAudioClient>",
   "referenced_type" : "type-1016",
   "self_type" : "type-1015",
   "size" : 4,
   "source_file" : "/frameworks/av/media/libaaudio/src/binding/AAudioBinderClient.h"
  },
  {
   "alignment" : 4,
   "is_const" : true,
   "linker_set_key" : "const android::sp<android::IAAudioClient>",
   "name" : "const android::sp<android::IAAudioClient>",
   "referenced_type" : "type-1062",
   "self_type" : "type-1061",
   "size" : 4,
   "source_file" : "/frameworks/av/media/libaaudio/src/binding/AAudioBinderClient.h"
  },
  {
   "is_const" : true,
   "linker_set_key" : "const android::sp<android::IAAudioClient>",
   "name" : "const android::sp<android::IAAudioClient>",
   "referenced_type" : "type-1192",
   "self_type" : "type-1191",
   "source_file" : "/frameworks/av/media/libaaudio/src/binding/AAudioBinderClient.h"
  },
  {
   "alignment" : 4,
   "is_const" : true,
   "linker_set_key" : "const android::sp<android::IAAudioClient>",
   "name" : "const android::sp<android::IAAudioClient>",
   "referenced_type" : "type-1324",
   "self_type" : "type-1323",
   "size" : 4,
   "source_file" : "/frameworks/av/media/libaaudio/src/binding/AAudioBinderClient.h"
  },
  {
   "alignment" : 4,
   "is_const" : true,
   "linker_set_key" : "const android::sp<android::IAAudioClient>",
   "name" : "const android::sp<android::IAAudioClient>",
   "referenced_type" : "type-1370",
   "self_type" : "type-1369",
   "size" : 4,
   "source_file" : "/frameworks/av/media/libaaudio/src/binding/AAudioBinderClient.h"
  },
  {
   "alignment" : 4,
   "is_const" : true,
   "linker_set_key" : "const android::sp<android::IAAudioClient>",
   "name" : "const android::sp<android::IAAudioClient>",
   "referenced_type" : "type-1457",
   "self_type" : "type-1456",
   "size" : 4,
   "source_file" : "/frameworks/av/media/libaaudio/src/binding/AAudioBinderClient.h"
  },
  {
   "alignment" : 4,
   "is_const" : true,
   "linker_set_key" : "const android::sp<android::IAAudioClient>",
   "name" : "const android::sp<android::IAAudioClient>",
   "referenced_type" : "type-1502",
   "self_type" : "type-1501",
   "size" : 4,
   "source_file" : "/frameworks/av/media/libaaudio/src/binding/AAudioBinderClient.h"
  },
  {
   "is_const" : true,
   "linker_set_key" : "const android::sp<android::IAAudioClient>",
   "name" : "const android::sp<android::IAAudioClient>",
   "referenced_type" : "type-1618",
   "self_type" : "type-1617",
   "source_file" : "/frameworks/av/media/libaaudio/src/binding/AAudioBinderClient.h"
  },
  {
   "is_const" : true,
   "linker_set_key" : "const android::sp<android::IAAudioClient>",
   "name" : "const android::sp<android::IAAudioClient>",
   "referenced_type" : "type-1697",
   "self_type" : "type-1696",
   "source_file" : "/frameworks/av/media/libaaudio/src/binding/AAudioBinderClient.h"
  },
  {
   "is_const" : true,
   "linker_set_key" : "const android::sp<android::IAAudioClient>",
   "name" : "const android::sp<android::IAAudioClient>",
   "referenced_type" : "type-180",
   "self_type" : "type-179",
   "source_file" : "/frameworks/av/media/libaaudio/src/binding/AAudioBinderClient.h"
  },
  {
   "is_const" : true,
   "linker_set_key" : "const android::sp<android::IAAudioClient>",
   "name" : "const android::sp<android::IAAudioClient>",
   "referenced_type" : "type-366",
   "self_type" : "type-365",
   "source_file" : "/frameworks/av/media/libaaudio/src/binding/AAudioBinderClient.h"
  },
  {
   "alignment" : 4,
   "is_const" : true,
   "linker_set_key" : "const android::sp<android::IAAudioClient>",
   "name" : "const android::sp<android::IAAudioClient>",
   "referenced_type" : "type-499",
   "self_type" : "type-498",
   "size" : 4,
   "source_file" : "/frameworks/av/media/libaaudio/src/binding/AAudioBinderClient.h"
  },
  {
   "alignment" : 4,
   "is_const" : true,
   "linker_set_key" : "const android::sp<android::IAAudioClient>",
   "name" : "const android::sp<android::IAAudioClient>",
   "referenced_type" : "type-545",
   "self_type" : "type-544",
   "size" : 4,
   "source_file" : "/frameworks/av/media/libaaudio/src/binding/AAudioBinderClient.h"
  },
  {
   "is_const" : true,
   "linker_set_key" : "const android::sp<android::IAAudioClient>",
   "name" : "const android::sp<android::IAAudioClient>",
   "referenced_type" : "type-668",
   "self_type" : "type-667",
   "source_file" : "/frameworks/av/media/libaaudio/src/binding/AAudioBinderClient.h"
  },
  {
   "alignment" : 4,
   "is_const" : true,
   "linker_set_key" : "const android::sp<android::IAAudioClient>",
   "name" : "const android::sp<android::IAAudioClient>",
   "referenced_type" : "type-800",
   "self_type" : "type-799",
   "size" : 4,
   "source_file" : "/frameworks/av/media/libaaudio/src/binding/AAudioBinderClient.h"
  },
  {
   "is_const" : true,
   "linker_set_key" : "const android::sp<android::IAAudioClient>",
   "name" : "const android::sp<android::IAAudioClient>",
   "referenced_type" : "type-884",
   "self_type" : "type-883",
   "source_file" : "/frameworks/av/media/libaaudio/src/binding/AAudioBinderClient.h"
  },
  {
   "alignment" : 4,
   "is_const" : true,
   "linker_set_key" : "const android::sp<android::IAAudioService>",
   "name" : "const android::sp<android::IAAudioService>",
   "referenced_type" : "type-1014",
   "self_type" : "type-1013",
   "size" : 4,
   "source_file" : "/frameworks/av/media/libaaudio/src/binding/AAudioBinderClient.h"
  },
  {
   "alignment" : 4,
   "is_const" : true,
   "linker_set_key" : "const android::sp<android::IAAudioService>",
   "name" : "const android::sp<android::IAAudioService>",
   "referenced_type" : "type-1322",
   "self_type" : "type-1321",
   "size" : 4,
   "source_file" : "/frameworks/av/media/libaaudio/src/binding/AAudioBinderClient.h"
  },
  {
   "alignment" : 4,
   "is_const" : true,
   "linker_set_key" : "const android::sp<android::IAAudioService>",
   "name" : "const android::sp<android::IAAudioService>",
   "referenced_type" : "type-1455",
   "self_type" : "type-1454",
   "size" : 4,
   "source_file" : "/frameworks/av/media/libaaudio/src/binding/AAudioBinderClient.h"
  },
  {
   "alignment" : 4,
   "is_const" : true,
   "linker_set_key" : "const android::sp<android::IAAudioService>",
   "name" : "const android::sp<android::IAAudioService>",
   "referenced_type" : "type-497",
   "self_type" : "type-496",
   "size" : 4,
   "source_file" : "/frameworks/av/media/libaaudio/src/binding/AAudioBinderClient.h"
  },
  {
   "alignment" : 4,
   "is_const" : true,
   "linker_set_key" : "const android::sp<android::IAAudioService>",
   "name" : "const android::sp<android::IAAudioService>",
   "referenced_type" : "type-798",
   "self_type" : "type-797",
   "size" : 4,
   "source_file" : "/frameworks/av/media/libaaudio/src/binding/AAudioBinderClient.h"
  },
  {
   "alignment" : 4,
   "is_const" : true,
   "linker_set_key" : "const android::sp<android::IBinder>",
   "name" : "const android::sp<android::IBinder>",
   "referenced_type" : "type-1044",
   "self_type" : "type-1043",
   "size" : 4,
   "source_file" : "/frameworks/av/media/libaaudio/src/binding/IAAudioClient.h"
  },
  {
   "alignment" : 4,
   "is_const" : true,
   "linker_set_key" : "const android::sp<android::IBinder>",
   "name" : "const android::sp<android::IBinder>",
   "referenced_type" : "type-1073",
   "self_type" : "type-1072",
   "size" : 4,
   "source_file" : "/frameworks/av/media/libaaudio/src/binding/IAAudioService.h"
  },
  {
   "alignment" : 4,
   "is_const" : true,
   "linker_set_key" : "const android::sp<android::IBinder>",
   "name" : "const android::sp<android::IBinder>",
   "referenced_type" : "type-1352",
   "self_type" : "type-1351",
   "size" : 4,
   "source_file" : "/frameworks/av/media/libaaudio/src/binding/IAAudioClient.h"
  },
  {
   "alignment" : 4,
   "is_const" : true,
   "linker_set_key" : "const android::sp<android::IBinder>",
   "name" : "const android::sp<android::IBinder>",
   "referenced_type" : "type-1381",
   "self_type" : "type-1380",
   "size" : 4,
   "source_file" : "/frameworks/av/media/libaaudio/src/binding/IAAudioService.h"
  },
  {
   "alignment" : 4,
   "is_const" : true,
   "linker_set_key" : "const android::sp<android::IBinder>",
   "name" : "const android::sp<android::IBinder>",
   "referenced_type" : "type-1484",
   "self_type" : "type-1483",
   "size" : 4,
   "source_file" : "/frameworks/av/media/libaaudio/src/binding/IAAudioClient.h"
  },
  {
   "alignment" : 4,
   "is_const" : true,
   "linker_set_key" : "const android::sp<android::IBinder>",
   "name" : "const android::sp<android::IBinder>",
   "referenced_type" : "type-1515",
   "self_type" : "type-1514",
   "size" : 4,
   "source_file" : "/frameworks/av/media/libaaudio/src/binding/IAAudioService.h"
  },
  {
   "alignment" : 4,
   "is_const" : true,
   "linker_set_key" : "const android::sp<android::IBinder>",
   "name" : "const android::sp<android::IBinder>",
   "referenced_type" : "type-527",
   "self_type" : "type-526",
   "size" : 4,
   "source_file" : "/frameworks/av/media/libaaudio/src/binding/IAAudioClient.h"
  },
  {
   "alignment" : 4,
   "is_const" : true,
   "linker_set_key" : "const android::sp<android::IBinder>",
   "name" : "const android::sp<android::IBinder>",
   "referenced_type" : "type-556",
   "self_type" : "type-555",
   "size" : 4,
   "source_file" : "/frameworks/av/media/libaaudio/src/binding/IAAudioService.h"
  },
  {
   "is_const" : true,
   "linker_set_key" : "const android::wp<android::IBinder>",
   "name" : "const android::wp<android::IBinder>",
   "referenced_type" : "type-1024",
   "self_type" : "type-1023",
   "source_file" : "/frameworks/av/media/libaaudio/src/binding/AAudioBinderClient.h"
  },
  {
   "is_const" : true,
   "linker_set_key" : "const android::wp<android::IBinder>",
   "name" : "const android::wp<android::IBinder>",
   "referenced_type" : "type-1068",
   "self_type" : "type-1067",
   "source_file" : "/frameworks/av/media/libaaudio/src/binding/AAudioBinderClient.h"
  },
  {
   "is_const" : true,
   "linker_set_key" : "const android::wp<android::IBinder>",
   "name" : "const android::wp<android::IBinder>",
   "referenced_type" : "type-1201",
   "self_type" : "type-1200",
   "source_file" : "/frameworks/av/media/libaaudio/src/binding/AAudioBinderClient.h"
  },
  {
   "is_const" : true,
   "linker_set_key" : "const android::wp<android::IBinder>",
   "name" : "const android::wp<android::IBinder>",
   "referenced_type" : "type-1332",
   "self_type" : "type-1331",
   "source_file" : "/frameworks/av/media/libaaudio/src/binding/AAudioBinderClient.h"
  },
  {
   "is_const" : true,
   "linker_set_key" : "const android::wp<android::IBinder>",
   "name" : "const android::wp<android::IBinder>",
   "referenced_type" : "type-1376",
   "self_type" : "type-1375",
   "source_file" : "/frameworks/av/media/libaaudio/src/binding/AAudioBinderClient.h"
  },
  {
   "is_const" : true,
   "linker_set_key" : "const android::wp<android::IBinder>",
   "name" : "const android::wp<android::IBinder>",
   "referenced_type" : "type-1465",
   "self_type" : "type-1464",
   "source_file" : "/frameworks/av/media/libaaudio/src/binding/AAudioBinderClient.h"
  },
  {
   "is_const" : true,
   "linker_set_key" : "const android::wp<android::IBinder>",
   "name" : "const android::wp<android::IBinder>",
   "referenced_type" : "type-1509",
   "self_type" : "type-1508",
   "source_file" : "/frameworks/av/media/libaaudio/src/binding/AAudioBinderClient.h"
  },
  {
   "is_const" : true,
   "linker_set_key" : "const android::wp<android::IBinder>",
   "name" : "const android::wp<android::IBinder>",
   "referenced_type" : "type-1627",
   "self_type" : "type-1626",
   "source_file" : "/frameworks/av/media/libaaudio/src/binding/AAudioBinderClient.h"
  },
  {
   "is_const" : true,
   "linker_set_key" : "const android::wp<android::IBinder>",
   "name" : "const android::wp<android::IBinder>",
   "referenced_type" : "type-1703",
   "self_type" : "type-1702",
   "source_file" : "/frameworks/av/media/libaaudio/src/binding/AAudioBinderClient.h"
  },
  {
   "is_const" : true,
   "linker_set_key" : "const android::wp<android::IBinder>",
   "name" : "const android::wp<android::IBinder>",
   "referenced_type" : "type-190",
   "self_type" : "type-189",
   "source_file" : "/frameworks/av/media/libaaudio/src/binding/AAudioBinderClient.h"
  },
  {
   "is_const" : true,
   "linker_set_key" : "const android::wp<android::IBinder>",
   "name" : "const android::wp<android::IBinder>",
   "referenced_type" : "type-375",
   "self_type" : "type-374",
   "source_file" : "/frameworks/av/media/libaaudio/src/binding/AAudioBinderClient.h"
  },
  {
   "is_const" : true,
   "linker_set_key" : "const android::wp<android::IBinder>",
   "name" : "const android::wp<android::IBinder>",
   "referenced_type" : "type-507",
   "self_type" : "type-506",
   "source_file" : "/frameworks/av/media/libaaudio/src/binding/AAudioBinderClient.h"
  },
  {
   "is_const" : true,
   "linker_set_key" : "const android::wp<android::IBinder>",
   "name" : "const android::wp<android::IBinder>",
   "referenced_type" : "type-551",
   "self_type" : "type-550",
   "source_file" : "/frameworks/av/media/libaaudio/src/binding/AAudioBinderClient.h"
  },
  {
   "is_const" : true,
   "linker_set_key" : "const android::wp<android::IBinder>",
   "name" : "const android::wp<android::IBinder>",
   "referenced_type" : "type-677",
   "self_type" : "type-676",
   "source_file" : "/frameworks/av/media/libaaudio/src/binding/AAudioBinderClient.h"
  },
  {
   "is_const" : true,
   "linker_set_key" : "const android::wp<android::IBinder>",
   "name" : "const android::wp<android::IBinder>",
   "referenced_type" : "type-808",
   "self_type" : "type-807",
   "source_file" : "/frameworks/av/media/libaaudio/src/binding/AAudioBinderClient.h"
  },
  {
   "is_const" : true,
   "linker_set_key" : "const android::wp<android::IBinder>",
   "name" : "const android::wp<android::IBinder>",
   "referenced_type" : "type-893",
   "self_type" : "type-892",
   "source_file" : "/frameworks/av/media/libaaudio/src/binding/AAudioBinderClient.h"
  },
  {
   "alignment" : 1,
   "is_const" : true,
   "linker_set_key" : "const char",
   "name" : "const char",
   "referenced_type" : "type-210",
   "self_type" : "type-209",
   "size" : 1,
   "source_file" : "/frameworks/av/media/libaaudio/include/aaudio/AAudio.h"
  },
  {
   "alignment" : 4,
   "is_const" : true,
   "linker_set_key" : "const float",
   "name" : "const float",
   "referenced_type" : "type-27",
   "self_type" : "type-95",
   "size" : 4,
   "source_file" : "/frameworks/av/media/libaaudio/src/flowgraph/ClipToRange.h"
  },
  {
   "alignment" : 4,
   "is_const" : true,
   "linker_set_key" : "const flowgraph::AudioFloatBlockPort",
   "name" : "const flowgraph::AudioFloatBlockPort",
   "referenced_type" : "type-80",
   "self_type" : "type-82",
   "size" : 20,
   "source_file" : "/frameworks/av/media/libaaudio/src/flowgraph/AudioProcessorBase.h"
  },
  {
   "alignment" : 4,
   "is_const" : true,
   "linker_set_key" : "const flowgraph::AudioPort",
   "name" : "const flowgraph::AudioPort",
   "referenced_type" : "type-74",
   "self_type" : "type-77",
   "size" : 8,
   "source_file" : "/frameworks/av/media/libaaudio/src/flowgraph/AudioProcessorBase.h"
  },
  {
   "alignment" : 8,
   "is_const" : true,
   "linker_set_key" : "const flowgraph::ClipToRange",
   "name" : "const flowgraph::ClipToRange",
   "referenced_type" : "type-96",
   "self_type" : "type-98",
   "size" : 72,
   "source_file" : "/frameworks/av/media/libaaudio/src/flowgraph/ClipToRange.h"
  },
  {
   "alignment" : 8,
   "is_const" : true,
   "linker_set_key" : "const flowgraph::RampLinear",
   "name" : "const flowgraph::RampLinear",
   "referenced_type" : "type-101",
   "self_type" : "type-104",
   "size" : 88,
   "source_file" : "/frameworks/av/media/libaaudio/src/flowgraph/RampLinear.h"
  },
  {
   "alignment" : 4,
   "is_const" : true,
   "linker_set_key" : "const int",
   "name" : "const int",
   "referenced_type" : "type-4",
   "self_type" : "type-13",
   "size" : 4,
   "source_file" : "/frameworks/av/media/libaaudio/src/core/AudioStream.h"
  },
  {
   "alignment" : 4,
   "is_const" : true,
   "linker_set_key" : "const std::unique_ptr<android::IAAudioClient, std::default_delete<android::IAAudioClient> >",
   "name" : "const std::unique_ptr<android::IAAudioClient, std::default_delete<android::IAAudioClient> >",
   "referenced_type" : "type-1052",
   "self_type" : "type-1051",
   "size" : 4,
   "source_file" : "/frameworks/av/media/libaaudio/src/binding/IAAudioClient.h"
  },
  {
   "alignment" : 4,
   "is_const" : true,
   "linker_set_key" : "const std::unique_ptr<android::IAAudioClient, std::default_delete<android::IAAudioClient> >",
   "name" : "const std::unique_ptr<android::IAAudioClient, std::default_delete<android::IAAudioClient> >",
   "referenced_type" : "type-1360",
   "self_type" : "type-1359",
   "size" : 4,
   "source_file" : "/frameworks/av/media/libaaudio/src/binding/IAAudioClient.h"
  },
  {
   "alignment" : 4,
   "is_const" : true,
   "linker_set_key" : "const std::unique_ptr<android::IAAudioClient, std::default_delete<android::IAAudioClient> >",
   "name" : "const std::unique_ptr<android::IAAudioClient, std::default_delete<android::IAAudioClient> >",
   "referenced_type" : "type-1493",
   "self_type" : "type-1492",
   "size" : 4,
   "source_file" : "/frameworks/av/media/libaaudio/src/binding/IAAudioClient.h"
  },
  {
   "alignment" : 4,
   "is_const" : true,
   "linker_set_key" : "const std::unique_ptr<android::IAAudioClient, std::default_delete<android::IAAudioClient> >",
   "name" : "const std::unique_ptr<android::IAAudioClient, std::default_delete<android::IAAudioClient> >",
   "referenced_type" : "type-535",
   "self_type" : "type-534",
   "size" : 4,
   "source_file" : "/frameworks/av/media/libaaudio/src/binding/IAAudioClient.h"
  },
  {
   "alignment" : 4,
   "is_const" : true,
   "linker_set_key" : "const std::unique_ptr<android::IAAudioService, std::default_delete<android::IAAudioService> >",
   "name" : "const std::unique_ptr<android::IAAudioService, std::default_delete<android::IAAudioService> >",
   "referenced_type" : "type-1081",
   "self_type" : "type-1080",
   "size" : 4,
   "source_file" : "/frameworks/av/media/libaaudio/src/binding/IAAudioService.h"
  },
  {
   "alignment" : 4,
   "is_const" : true,
   "linker_set_key" : "const std::unique_ptr<android::IAAudioService, std::default_delete<android::IAAudioService> >",
   "name" : "const std::unique_ptr<android::IAAudioService, std::default_delete<android::IAAudioService> >",
   "referenced_type" : "type-1389",
   "self_type" : "type-1388",
   "size" : 4,
   "source_file" : "/frameworks/av/media/libaaudio/src/binding/IAAudioService.h"
  },
  {
   "alignment" : 4,
   "is_const" : true,
   "linker_set_key" : "const std::unique_ptr<android::IAAudioService, std::default_delete<android::IAAudioService> >",
   "name" : "const std::unique_ptr<android::IAAudioService, std::default_delete<android::IAAudioService> >",
   "referenced_type" : "type-1524",
   "self_type" : "type-1523",
   "size" : 4,
   "source_file" : "/frameworks/av/media/libaaudio/src/binding/IAAudioService.h"
  },
  {
   "alignment" : 4,
   "is_const" : true,
   "linker_set_key" : "const std::unique_ptr<android::IAAudioService, std::default_delete<android::IAAudioService> >",
   "name" : "const std::unique_ptr<android::IAAudioService, std::default_delete<android::IAAudioService> >",
   "referenced_type" : "type-564",
   "self_type" : "type-563",
   "size" : 4,
   "source_file" : "/frameworks/av/media/libaaudio/src/binding/IAAudioService.h"
  },
  {
   "alignment" : 4,
   "is_const" : true,
   "linker_set_key" : "const unsigned int",
   "name" : "const unsigned int",
   "referenced_type" : "type-1",
   "self_type" : "type-63",
   "size" : 4,
   "source_file" : "/frameworks/av/media/libaaudio/src/utility/AAudioUtilities.h"
  },
  {
   "is_const" : true,
   "linker_set_key" : "const void",
   "name" : "const void",
   "referenced_type" : "type-54",
   "self_type" : "type-91",
   "source_file" : "/frameworks/av/media/libaaudio/src/core/AudioStream.h"
  }
 ],
 "record_types" :
 [
  {
   "alignment" : 4,
   "fields" :
   [
    {
     "access" : "private",
     "field_name" : "mSource",
     "referenced_type" : "type-107"
    },
    {
     "access" : "private",
     "field_name" : "mVolumeRamp",
     "field_offset" : 32,
     "referenced_type" : "type-108"
    },
    {
     "access" : "private",
     "field_name" : "mClipper",
     "field_offset" : 64,
     "referenced_type" : "type-109"
    },
    {
     "access" : "private",
     "field_name" : "mChannelConverter",
     "field_offset" : 96,
     "referenced_type" : "type-110"
    },
    {
     "access" : "private",
     "field_name" : "mSink",
     "field_offset" : 128,
     "referenced_type" : "type-111"
    }
   ],
   "linker_set_key" : "AAudioFlowGraph",
   "name" : "AAudioFlowGraph",
   "record_kind" : "class",
   "referenced_type" : "type-106",
   "self_type" : "type-106",
   "size" : 20,
   "source_file" : "/frameworks/av/media/libaaudio/src/client/AAudioFlowGraph.h",
   "unique_id" : "_ZTS15AAudioFlowGraph"
  },
  {
   "alignment" : 4,
   "fields" :
   [
    {
     "access" : "private",
     "field_name" : "mRequested",
     "referenced_type" : "type-25"
    },
    {
     "access" : "private",
     "field_name" : "mAcknowledged",
     "field_offset" : 32,
     "referenced_type" : "type-26"
    }
   ],
   "linker_set_key" : "AtomicRequestor",
   "name" : "AtomicRequestor",
   "record_kind" : "class",
   "referenced_type" : "type-24",
   "self_type" : "type-24",
   "size" : 8,
   "source_file" : "/frameworks/av/media/libaaudio/src/utility/AAudioUtilities.h",
   "unique_id" : "_ZTS15AtomicRequestor"
  },
  {
   "alignment" : 1,
   "linker_set_key" : "AudioClock",
   "name" : "AudioClock",
   "record_kind" : "class",
   "referenced_type" : "type-273",
   "self_type" : "type-273",
   "size" : 1,
   "source_file" : "/frameworks/av/media/libaaudio/src/utility/AudioClock.h",
   "unique_id" : "_ZTS10AudioClock"
  },
  {
   "alignment" : 4,
   "fields" :
   [
    {
     "access" : "protected",
     "field_name" : "mFixedBlockProcessor",
     "field_offset" : 32,
     "referenced_type" : "type-122"
    },
    {
     "access" : "protected",
     "field_name" : "mStorage",
     "field_offset" : 64,
     "referenced_type" : "type-14"
    },
    {
     "access" : "protected",
     "field_name" : "mSize",
     "field_offset" : 96,
     "referenced_type" : "type-4"
    },
    {
     "access" : "protected",
     "field_name" : "mPosition",
     "field_offset" : 128,
     "referenced_type" : "type-4"
    }
   ],
   "linker_set_key" : "FixedBlockAdapter",
   "name" : "FixedBlockAdapter",
   "record_kind" : "class",
   "referenced_type" : "type-121",
   "self_type" : "type-121",
   "size" : 20,
   "source_file" : "/frameworks/av/media/libaaudio/src/utility/FixedBlockAdapter.h",
   "unique_id" : "_ZTS17FixedBlockAdapter",
   "vtable_components" :
   [
    {
     "kind" : "offset_to_top"
    },
    {
     "kind" : "rtti",
     "mangled_component_name" : "_ZTI17FixedBlockAdapter"
    },
    {
     "kind" : "complete_dtor_pointer",
     "mangled_component_name" : "_ZN17FixedBlockAdapterD1Ev"
    },
    {
     "kind" : "deleting_dtor_pointer",
     "mangled_component_name" : "_ZN17FixedBlockAdapterD0Ev"
    },
    {
     "mangled_component_name" : "_ZN17FixedBlockAdapter4openEi"
    },
    {
     "is_pure" : true,
     "mangled_component_name" : "_ZN17FixedBlockAdapter20processVariableBlockEPhi"
    }
   ]
  },
  {
   "alignment" : 4,
   "linker_set_key" : "FixedBlockProcessor",
   "name" : "FixedBlockProcessor",
   "record_kind" : "class",
   "referenced_type" : "type-118",
   "self_type" : "type-118",
   "size" : 4,
   "source_file" : "/frameworks/av/media/libaaudio/src/utility/FixedBlockAdapter.h",
   "unique_id" : "_ZTS19FixedBlockProcessor",
   "vtable_components" :
   [
    {
     "kind" : "offset_to_top"
    },
    {
     "kind" : "rtti",
     "mangled_component_name" : "_ZTI19FixedBlockProcessor"
    },
    {
     "kind" : "complete_dtor_pointer",
     "mangled_component_name" : "_ZN19FixedBlockProcessorD1Ev"
    },
    {
     "kind" : "deleting_dtor_pointer",
     "mangled_component_name" : "_ZN19FixedBlockProcessorD0Ev"
    },
    {
     "is_pure" : true,
     "mangled_component_name" : "_ZN19FixedBlockProcessor19onProcessFixedBlockEPhi"
    }
   ]
  },
  {
   "alignment" : 4,
   "base_specifiers" :
   [
    {
     "referenced_type" : "type-121"
    }
   ],
   "linker_set_key" : "FixedBlockReader",
   "name" : "FixedBlockReader",
   "record_kind" : "class",
   "referenced_type" : "type-142",
   "self_type" : "type-142",
   "size" : 20,
   "source_file" : "/frameworks/av/media/libaaudio/src/utility/FixedBlockReader.h",
   "unique_id" : "_ZTS16FixedBlockReader",
   "vtable_components" :
   [
    {
     "kind" : "offset_to_top"
    },
    {
     "kind" : "rtti",
     "mangled_component_name" : "_ZTI16FixedBlockReader"
    },
    {
     "kind" : "complete_dtor_pointer",
     "mangled_component_name" : "_ZN16FixedBlockReaderD1Ev"
    },
    {
     "kind" : "deleting_dtor_pointer",
     "mangled_component_name" : "_ZN16FixedBlockReaderD0Ev"
    },
    {
     "mangled_component_name" : "_ZN16FixedBlockReader4openEi"
    },
    {
     "mangled_component_name" : "_ZN16FixedBlockReader20processVariableBlockEPhi"
    }
   ]
  },
  {
   "alignment" : 4,
   "base_specifiers" :
   [
    {
     "referenced_type" : "type-121"
    }
   ],
   "linker_set_key" : "FixedBlockWriter",
   "name" : "FixedBlockWriter",
   "record_kind" : "class",
   "referenced_type" : "type-132",
   "self_type" : "type-132",
   "size" : 20,
   "source_file" : "/frameworks/av/media/libaaudio/src/utility/FixedBlockWriter.h",
   "unique_id" : "_ZTS16FixedBlockWriter",
   "vtable_components" :
   [
    {
     "kind" : "offset_to_top"
    },
    {
     "kind" : "rtti",
     "mangled_component_name" : "_ZTI16FixedBlockWriter"
    },
    {
     "kind" : "complete_dtor_pointer",
     "mangled_component_name" : "_ZN16FixedBlockWriterD1Ev"
    },
    {
     "kind" : "deleting_dtor_pointer",
     "mangled_component_name" : "_ZN16FixedBlockWriterD0Ev"
    },
    {
     "mangled_component_name" : "_ZN17FixedBlockAdapter4openEi"
    },
    {
     "mangled_component_name" : "_ZN16FixedBlockWriter20processVariableBlockEPhi"
    }
   ]
  },
  {
   "alignment" : 8,
   "fields" :
   [
    {
     "access" : "private",
     "field_name" : "mCounter64",
     "field_offset" : 64,
     "referenced_type" : "type-8"
    },
    {
     "access" : "private",
     "field_name" : "mCounter32",
     "field_offset" : 128,
     "referenced_type" : "type-4"
    }
   ],
   "linker_set_key" : "MonotonicCounter",
   "name" : "MonotonicCounter",
   "record_kind" : "class",
   "referenced_type" : "type-79",
   "self_type" : "type-79",
   "size" : 24,
   "source_file" : "/frameworks/av/media/libaaudio/src/utility/MonotonicCounter.h",
   "unique_id" : "_ZTS16MonotonicCounter",
   "vtable_components" :
   [
    {
     "kind" : "offset_to_top"
    },
    {
     "kind" : "rtti",
     "mangled_component_name" : "_ZTI16MonotonicCounter"
    },
    {
     "kind" : "complete_dtor_pointer",
     "mangled_component_name" : "_ZN16MonotonicCounterD1Ev"
    },
    {
     "kind" : "deleting_dtor_pointer",
     "mangled_component_name" : "_ZN16MonotonicCounterD0Ev"
    }
   ]
  },
  {
   "alignment" : 8,
   "fields" :
   [
    {
     "access" : "private",
     "field_name" : "mValues",
     "referenced_type" : "type-21"
    },
    {
     "access" : "private",
     "field_name" : "mCounter",
     "field_offset" : 256,
     "referenced_type" : "type-23"
    }
   ],
   "linker_set_key" : "SimpleDoubleBuffer<Timestamp>",
   "name" : "SimpleDoubleBuffer<Timestamp>",
   "record_kind" : "class",
   "referenced_type" : "type-20",
   "self_type" : "type-20",
   "size" : 40,
   "source_file" : "/frameworks/av/media/libaaudio/src/utility/AAudioUtilities.h",
   "template_args" : [ "type-22" ],
   "unique_id" : "_ZTS18SimpleDoubleBufferI9TimestampE"
  },
  {
   "alignment" : 8,
   "fields" :
   [
    {
     "access" : "private",
     "field_name" : "mPosition",
     "referenced_type" : "type-8"
    },
    {
     "access" : "private",
     "field_name" : "mNanoseconds",
     "field_offset" : 64,
     "referenced_type" : "type-8"
    }
   ],
   "linker_set_key" : "Timestamp",
   "name" : "Timestamp",
   "record_kind" : "class",
   "referenced_type" : "type-22",
   "self_type" : "type-22",
   "size" : 16,
   "source_file" : "/frameworks/av/media/libaaudio/src/utility/AAudioUtilities.h",
   "unique_id" : "_ZTS9Timestamp"
  },
  {
   "alignment" : 4,
   "base_specifiers" :
   [
    {
     "is_virtual" : true,
     "referenced_type" : "type-176"
    },
    {
     "referenced_type" : "type-19"
    },
    {
     "referenced_type" : "type-177"
    }
   ],
   "fields" :
   [
    {
     "access" : "private",
     "field_name" : "mServiceLock",
     "field_offset" : 32,
     "referenced_type" : "type-173"
    },
    {
     "access" : "private",
     "field_name" : "mAAudioService",
     "field_offset" : 64,
     "referenced_type" : "type-174"
    },
    {
     "access" : "private",
     "field_name" : "mAAudioClient",
     "field_offset" : 96,
     "referenced_type" : "type-175"
    }
   ],
   "linker_set_key" : "aaudio::AAudioBinderClient",
   "name" : "aaudio::AAudioBinderClient",
   "record_kind" : "class",
   "referenced_type" : "type-172",
   "self_type" : "type-172",
   "size" : 24,
   "source_file" : "/frameworks/av/media/libaaudio/src/binding/AAudioBinderClient.h",
   "unique_id" : "_ZTSN6aaudio18AAudioBinderClientE",
   "vtable_components" :
   [
    {
     "component_value" : 16,
     "kind" : "vbase_offset"
    },
    {
     "kind" : "offset_to_top"
    },
    {
     "kind" : "rtti",
     "mangled_component_name" : "_ZTIN6aaudio18AAudioBinderClientE"
    },
    {
     "kind" : "complete_dtor_pointer",
     "mangled_component_name" : "_ZN6aaudio18AAudioBinderClientD1Ev"
    },
    {
     "kind" : "deleting_dtor_pointer",
     "mangled_component_name" : "_ZN6aaudio18AAudioBinderClientD0Ev"
    },
    {
     "mangled_component_name" : "_ZN6aaudio18AAudioBinderClient14registerClientERKN7android2spINS1_13IAAudioClientEEE"
    },
    {
     "mangled_component_name" : "_ZN6aaudio18AAudioBinderClient10openStreamERKNS_19AAudioStreamRequestERNS_25AAudioStreamConfigurationE"
    },
    {
     "mangled_component_name" : "_ZN6aaudio18AAudioBinderClient11closeStreamEi"
    },
    {
     "mangled_component_name" : "_ZN6aaudio18AAudioBinderClient20getStreamDescriptionEiRNS_23AudioEndpointParcelableE"
    },
    {
     "mangled_component_name" : "_ZN6aaudio18AAudioBinderClient11startStreamEi"
    },
    {
     "mangled_component_name" : "_ZN6aaudio18AAudioBinderClient11pauseStreamEi"
    },
    {
     "mangled_component_name" : "_ZN6aaudio18AAudioBinderClient10stopStreamEi"
    },
    {
     "mangled_component_name" : "_ZN6aaudio18AAudioBinderClient11flushStreamEi"
    },
    {
     "mangled_component_name" : "_ZN6aaudio18AAudioBinderClient19registerAudioThreadEiix"
    },
    {
     "mangled_component_name" : "_ZN6aaudio18AAudioBinderClient21unregisterAudioThreadEii"
    },
    {
     "mangled_component_name" : "_ZN6aaudio18AAudioBinderClient11startClientEiRKN7android11AudioClientEPi"
    },
    {
     "mangled_component_name" : "_ZN6aaudio18AAudioBinderClient10stopClientEii"
    },
    {
     "kind" : "vcall_offset"
    },
    {
     "kind" : "vcall_offset"
    },
    {
     "kind" : "vcall_offset"
    },
    {
     "kind" : "vcall_offset"
    },
    {
     "component_value" : -16,
     "kind" : "vcall_offset"
    },
    {
     "component_value" : -16,
     "kind" : "offset_to_top"
    },
    {
     "kind" : "rtti",
     "mangled_component_name" : "_ZTIN6aaudio18AAudioBinderClientE"
    },
    {
     "kind" : "complete_dtor_pointer",
     "mangled_component_name" : "_ZTv0_n12_N6aaudio18AAudioBinderClientD1Ev"
    },
    {
     "kind" : "deleting_dtor_pointer",
     "mangled_component_name" : "_ZTv0_n12_N6aaudio18AAudioBinderClientD0Ev"
    },
    {
     "mangled_component_name" : "_ZN7android7RefBase10onFirstRefEv"
    },
    {
     "mangled_component_name" : "_ZN7android7RefBase15onLastStrongRefEPKv"
    },
    {
     "mangled_component_name" : "_ZN7android7RefBase20onIncStrongAttemptedEjPKv"
    },
    {
     "mangled_component_name" : "_ZN7android7RefBase13onLastWeakRefEPKv"
    }
   ]
  },
  {
   "alignment" : 4,
   "base_specifiers" :
   [
    {
     "referenced_type" : "type-187"
    },
    {
     "referenced_type" : "type-165"
    }
   ],
   "fields" :
   [
    {
     "access" : "private",
     "field_name" : "mBinderClient",
     "field_offset" : 160,
     "referenced_type" : "type-186"
    }
   ],
   "linker_set_key" : "aaudio::AAudioBinderClient::AAudioClient",
   "name" : "aaudio::AAudioBinderClient::AAudioClient",
   "record_kind" : "class",
   "referenced_type" : "type-185",
   "self_type" : "type-185",
   "size" : 36,
   "source_file" : "/frameworks/av/media/libaaudio/src/binding/AAudioBinderClient.h",
   "unique_id" : "_ZTSN6aaudio18AAudioBinderClient12AAudioClientE",
   "vtable_components" :
   [
    {
     "component_value" : 28,
     "kind" : "vbase_offset"
    },
    {
     "kind" : "offset_to_top"
    },
    {
     "kind" : "rtti",
     "mangled_component_name" : "_ZTIN6aaudio18AAudioBinderClient12AAudioClientE"
    },
    {
     "mangled_component_name" : "_ZN6aaudio18AAudioBinderClient12AAudioClient10binderDiedERKN7android2wpINS2_7IBinderEEE"
    },
    {
     "kind" : "complete_dtor_pointer",
     "mangled_component_name" : "_ZN6aaudio18AAudioBinderClient12AAudioClientD1Ev"
    },
    {
     "kind" : "deleting_dtor_pointer",
     "mangled_component_name" : "_ZN6aaudio18AAudioBinderClient12AAudioClientD0Ev"
    },
    {
     "mangled_component_name" : "_ZN6aaudio18AAudioBinderClient12AAudioClient14onStreamChangeEiii"
    },
    {
     "component_value" : 24,
     "kind" : "vbase_offset"
    },
    {
     "component_value" : -4,
     "kind" : "offset_to_top"
    },
    {
     "kind" : "rtti",
     "mangled_component_name" : "_ZTIN6aaudio18AAudioBinderClient12AAudioClientE"
    },
    {
     "kind" : "complete_dtor_pointer",
     "mangled_component_name" : "_ZThn4_N6aaudio18AAudioBinderClient12AAudioClientD1Ev"
    },
    {
     "kind" : "deleting_dtor_pointer",
     "mangled_component_name" : "_ZThn4_N6aaudio18AAudioBinderClient12AAudioClientD0Ev"
    },
    {
     "mangled_component_name" : "_ZN7android11BnInterfaceINS_13IAAudioClientEE10onAsBinderEv"
    },
    {
     "mangled_component_name" : "_ZNK7android11BnInterfaceINS_13IAAudioClientEE22getInterfaceDescriptorEv"
    },
    {
     "mangled_component_name" : "_ZThn4_N6aaudio18AAudioBinderClient12AAudioClient14onStreamChangeEiii"
    },
    {
     "mangled_component_name" : "_ZN7android11BnInterfaceINS_13IAAudioClientEE19queryLocalInterfaceERKNS_8String16E"
    },
    {
     "mangled_component_name" : "_ZN7android14BnAAudioClient10onTransactEjRKNS_6ParcelEPS1_j"
    },
    {
     "component_value" : 20,
     "kind" : "vbase_offset"
    },
    {
     "component_value" : -8,
     "kind" : "offset_to_top"
    },
    {
     "kind" : "rtti",
     "mangled_component_name" : "_ZTIN6aaudio18AAudioBinderClient12AAudioClientE"
    },
    {
     "mangled_component_name" : "_ZThn4_N7android11BnInterfaceINS_13IAAudioClientEE19queryLocalInterfaceERKNS_8String16E"
    },
    {
     "mangled_component_name" : "_ZThn4_NK7android11BnInterfaceINS_13IAAudioClientEE22getInterfaceDescriptorEv"
    },
    {
     "mangled_component_name" : "_ZNK7android7BBinder13isBinderAliveEv"
    },
    {
     "mangled_component_name" : "_ZN7android7BBinder10pingBinderEv"
    },
    {
     "mangled_component_name" : "_ZN7android7BBinder4dumpEiRKNS_6VectorINS_8String16EEE"
    },
    {
     "mangled_component_name" : "_ZN7android7BBinder8transactEjRKNS_6ParcelEPS1_j"
    },
    {
     "mangled_component_name" : "_ZN7android7BBinder11linkToDeathERKNS_2spINS_7IBinder14DeathRecipientEEEPvj"
    },
    {
     "mangled_component_name" : "_ZN7android7BBinder13unlinkToDeathERKNS_2wpINS_7IBinder14DeathRecipientEEEPvjPS4_"
    },
    {
     "mangled_component_name" : "_ZNK7android7IBinder13checkSubclassEPKv"
    },
    {
     "mangled_component_name" : "_ZN7android7BBinder12attachObjectEPKvPvS3_PFvS2_S3_S3_E"
    },
    {
     "mangled_component_name" : "_ZNK7android7BBinder10findObjectEPKv"
    },
    {
     "mangled_component_name" : "_ZN7android7BBinder12detachObjectEPKv"
    },
    {
     "mangled_component_name" : "_ZN7android7BBinder11localBinderEv"
    },
    {
     "mangled_component_name" : "_ZN7android7IBinder12remoteBinderEv"
    },
    {
     "kind" : "complete_dtor_pointer",
     "mangled_component_name" : "_ZThn8_N6aaudio18AAudioBinderClient12AAudioClientD1Ev"
    },
    {
     "kind" : "deleting_dtor_pointer",
     "mangled_component_name" : "_ZThn8_N6aaudio18AAudioBinderClient12AAudioClientD0Ev"
    },
    {
     "mangled_component_name" : "_ZThn4_N7android14BnAAudioClient10onTransactEjRKNS_6ParcelEPS1_j"
    },
    {
     "kind" : "vcall_offset"
    },
    {
     "kind" : "vcall_offset"
    },
    {
     "kind" : "vcall_offset"
    },
    {
     "kind" : "vcall_offset"
    },
    {
     "component_value" : -28,
     "kind" : "vcall_offset"
    },
    {
     "component_value" : -28,
     "kind" : "offset_to_top"
    },
    {
     "kind" : "rtti",
     "mangled_component_name" : "_ZTIN6aaudio18AAudioBinderClient12AAudioClientE"
    },
    {
     "kind" : "complete_dtor_pointer",
     "mangled_component_name" : "_ZTv0_n12_N6aaudio18AAudioBinderClient12AAudioClientD1Ev"
    },
    {
     "kind" : "deleting_dtor_pointer",
     "mangled_component_name" : "_ZTv0_n12_N6aaudio18AAudioBinderClient12AAudioClientD0Ev"
    },
    {
     "mangled_component_name" : "_ZN7android7RefBase10onFirstRefEv"
    },
    {
     "mangled_component_name" : "_ZN7android7RefBase15onLastStrongRefEPKv"
    },
    {
     "mangled_component_name" : "_ZN7android7RefBase20onIncStrongAttemptedEjPKv"
    },
    {
     "mangled_component_name" : "_ZN7android7RefBase13onLastWeakRefEPKv"
    }
   ]
  },
  {
   "alignment" : 8,
   "fields" :
   [
    {
     "field_name" : "event",
     "referenced_type" : "type-195"
    },
    {
     "field_offset" : 64,
     "referenced_type" : "type-197"
    }
   ],
   "linker_set_key" : "aaudio::AAudioMessageEvent",
   "name" : "aaudio::AAudioMessageEvent",
   "referenced_type" : "type-196",
   "self_type" : "type-196",
   "size" : 16,
   "source_file" : "/frameworks/av/media/libaaudio/src/binding/AAudioServiceMessage.h",
   "unique_id" : "_ZTSN6aaudio18AAudioMessageEventE"
  },
  {
   "alignment" : 8,
   "fields" :
   [
    {
     "field_name" : "dataDouble",
     "referenced_type" : "type-198"
    },
    {
     "field_name" : "dataLong",
     "referenced_type" : "type-8"
    }
   ],
   "is_anonymous" : true,
   "linker_set_key" : "aaudio::AAudioMessageEvent::(anonymous union at frameworks/av/media/libaaudio/src/binding/AAudioServiceMessage.h:46:5) at frameworks/av/media/libaaudio/src/binding/AAudioServiceMessage.h:46:5",
   "name" : "aaudio::AAudioMessageEvent::(anonymous union at frameworks/av/media/libaaudio/src/binding/AAudioServiceMessage.h:46:5) at frameworks/av/media/libaaudio/src/binding/AAudioServiceMessage.h:46:5",
   "record_kind" : "union",
   "referenced_type" : "type-197",
   "self_type" : "type-197",
   "size" : 8,
   "source_file" : "/frameworks/av/media/libaaudio/src/binding/AAudioServiceMessage.h",
   "unique_id" : "_ZTSN6aaudio18AAudioMessageEventUt_E"
  },
  {
   "alignment" : 8,
   "fields" :
   [
    {
     "field_name" : "position",
     "referenced_type" : "type-8"
    },
    {
     "field_name" : "timestamp",
     "field_offset" : 64,
     "referenced_type" : "type-8"
    }
   ],
   "linker_set_key" : "aaudio::AAudioMessageTimestamp",
   "name" : "aaudio::AAudioMessageTimestamp",
   "referenced_type" : "type-194",
   "self_type" : "type-194",
   "size" : 16,
   "source_file" : "/frameworks/av/media/libaaudio/src/binding/AAudioServiceMessage.h",
   "unique_id" : "_ZTSN6aaudio22AAudioMessageTimestampE"
  },
  {
   "alignment" : 4,
   "linker_set_key" : "aaudio::AAudioServiceInterface",
   "name" : "aaudio::AAudioServiceInterface",
   "record_kind" : "class",
   "referenced_type" : "type-19",
   "self_type" : "type-19",
   "size" : 4,
   "source_file" : "/frameworks/av/media/libaaudio/src/binding/AAudioServiceInterface.h",
   "unique_id" : "_ZTSN6aaudio22AAudioServiceInterfaceE",
   "vtable_components" :
   [
    {
     "kind" : "offset_to_top"
    },
    {
     "kind" : "rtti",
     "mangled_component_name" : "_ZTIN6aaudio22AAudioServiceInterfaceE"
    },
    {
     "kind" : "complete_dtor_pointer",
     "mangled_component_name" : "_ZN6aaudio22AAudioServiceInterfaceD1Ev"
    },
    {
     "kind" : "deleting_dtor_pointer",
     "mangled_component_name" : "_ZN6aaudio22AAudioServiceInterfaceD0Ev"
    },
    {
     "is_pure" : true,
     "mangled_component_name" : "_ZN6aaudio22AAudioServiceInterface14registerClientERKN7android2spINS1_13IAAudioClientEEE"
    },
    {
     "is_pure" : true,
     "mangled_component_name" : "_ZN6aaudio22AAudioServiceInterface10openStreamERKNS_19AAudioStreamRequestERNS_25AAudioStreamConfigurationE"
    },
    {
     "is_pure" : true,
     "mangled_component_name" : "_ZN6aaudio22AAudioServiceInterface11closeStreamEi"
    },
    {
     "is_pure" : true,
     "mangled_component_name" : "_ZN6aaudio22AAudioServiceInterface20getStreamDescriptionEiRNS_23AudioEndpointParcelableE"
    },
    {
     "is_pure" : true,
     "mangled_component_name" : "_ZN6aaudio22AAudioServiceInterface11startStreamEi"
    },
    {
     "is_pure" : true,
     "mangled_component_name" : "_ZN6aaudio22AAudioServiceInterface11pauseStreamEi"
    },
    {
     "is_pure" : true,
     "mangled_component_name" : "_ZN6aaudio22AAudioServiceInterface10stopStreamEi"
    },
    {
     "is_pure" : true,
     "mangled_component_name" : "_ZN6aaudio22AAudioServiceInterface11flushStreamEi"
    },
    {
     "is_pure" : true,
     "mangled_component_name" : "_ZN6aaudio22AAudioServiceInterface19registerAudioThreadEiix"
    },
    {
     "is_pure" : true,
     "mangled_component_name" : "_ZN6aaudio22AAudioServiceInterface21unregisterAudioThreadEii"
    },
    {
     "is_pure" : true,
     "mangled_component_name" : "_ZN6aaudio22AAudioServiceInterface11startClientEiRKN7android11AudioClientEPi"
    },
    {
     "is_pure" : true,
     "mangled_component_name" : "_ZN6aaudio22AAudioServiceInterface10stopClientEii"
    }
   ]
  },
  {
   "alignment" : 8,
   "fields" :
   [
    {
     "field_name" : "what",
     "referenced_type" : "type-200"
    },
    {
     "field_offset" : 64,
     "referenced_type" : "type-201"
    }
   ],
   "linker_set_key" : "aaudio::AAudioServiceMessage_s",
   "name" : "aaudio::AAudioServiceMessage_s",
   "referenced_type" : "type-199",
   "self_type" : "type-199",
   "size" : 24,
   "source_file" : "/frameworks/av/media/libaaudio/src/binding/AAudioServiceMessage.h",
   "unique_id" : "_ZTSN6aaudio22AAudioServiceMessage_sE"
  },
  {
   "alignment" : 8,
   "fields" :
   [
    {
     "field_name" : "timestamp",
     "referenced_type" : "type-194"
    },
    {
     "field_name" : "event",
     "referenced_type" : "type-196"
    }
   ],
   "is_anonymous" : true,
   "linker_set_key" : "aaudio::AAudioServiceMessage_s::(anonymous union at frameworks/av/media/libaaudio/src/binding/AAudioServiceMessage.h:61:5) at frameworks/av/media/libaaudio/src/binding/AAudioServiceMessage.h:61:5",
   "name" : "aaudio::AAudioServiceMessage_s::(anonymous union at frameworks/av/media/libaaudio/src/binding/AAudioServiceMessage.h:61:5) at frameworks/av/media/libaaudio/src/binding/AAudioServiceMessage.h:61:5",
   "record_kind" : "union",
   "referenced_type" : "type-201",
   "self_type" : "type-201",
   "size" : 16,
   "source_file" : "/frameworks/av/media/libaaudio/src/binding/AAudioServiceMessage.h",
   "unique_id" : "_ZTSN6aaudio22AAudioServiceMessage_sUt_E"
  },
  {
   "alignment" : 4,
   "base_specifiers" :
   [
    {
     "referenced_type" : "type-3"
    },
    {
     "referenced_type" : "type-151"
    }
   ],
   "linker_set_key" : "aaudio::AAudioStreamConfiguration",
   "name" : "aaudio::AAudioStreamConfiguration",
   "record_kind" : "class",
   "referenced_type" : "type-150",
   "self_type" : "type-150",
   "size" : 56,
   "source_file" : "/frameworks/av/media/libaaudio/src/binding/AAudioStreamConfiguration.h",
   "unique_id" : "_ZTSN6aaudio25AAudioStreamConfigurationE",
   "vtable_components" :
   [
    {
     "kind" : "offset_to_top"
    },
    {
     "kind" : "rtti",
     "mangled_component_name" : "_ZTIN6aaudio25AAudioStreamConfigurationE"
    },
    {
     "kind" : "complete_dtor_pointer",
     "mangled_component_name" : "_ZN6aaudio25AAudioStreamConfigurationD1Ev"
    },
    {
     "kind" : "deleting_dtor_pointer",
     "mangled_component_name" : "_ZN6aaudio25AAudioStreamConfigurationD0Ev"
    },
    {
     "mangled_component_name" : "_ZNK6aaudio22AAudioStreamParameters8validateEv"
    },
    {
     "mangled_component_name" : "_ZNK6aaudio25AAudioStreamConfiguration13writeToParcelEPN7android6ParcelE"
    },
    {
     "mangled_component_name" : "_ZN6aaudio25AAudioStreamConfiguration14readFromParcelEPKN7android6ParcelE"
    },
    {
     "component_value" : -52,
     "kind" : "offset_to_top"
    },
    {
     "kind" : "rtti",
     "mangled_component_name" : "_ZTIN6aaudio25AAudioStreamConfigurationE"
    },
    {
     "kind" : "complete_dtor_pointer",
     "mangled_component_name" : "_ZThn52_N6aaudio25AAudioStreamConfigurationD1Ev"
    },
    {
     "kind" : "deleting_dtor_pointer",
     "mangled_component_name" : "_ZThn52_N6aaudio25AAudioStreamConfigurationD0Ev"
    },
    {
     "mangled_component_name" : "_ZThn52_NK6aaudio25AAudioStreamConfiguration13writeToParcelEPN7android6ParcelE"
    },
    {
     "mangled_component_name" : "_ZThn52_N6aaudio25AAudioStreamConfiguration14readFromParcelEPKN7android6ParcelE"
    }
   ]
  },
  {
   "alignment" : 4,
   "fields" :
   [
    {
     "access" : "private",
     "field_name" : "mSamplesPerFrame",
     "field_offset" : 32,
     "referenced_type" : "type-4"
    },
    {
     "access" : "private",
     "field_name" : "mSampleRate",
     "field_offset" : 64,
     "referenced_type" : "type-4"
    },
    {
     "access" : "private",
     "field_name" : "mDeviceId",
     "field_offset" : 96,
     "referenced_type" : "type-4"
    },
    {
     "access" : "private",
     "field_name" : "mSharingMode",
     "field_offset" : 128,
     "referenced_type" : "type-4"
    },
    {
     "access" : "private",
     "field_name" : "mAudioFormat",
     "field_offset" : 160,
     "referenced_type" : "type-5"
    },
    {
     "access" : "private",
     "field_name" : "mDirection",
     "field_offset" : 192,
     "referenced_type" : "type-4"
    },
    {
     "access" : "private",
     "field_name" : "mUsage",
     "field_offset" : 224,
     "referenced_type" : "type-4"
    },
    {
     "access" : "private",
     "field_name" : "mContentType",
     "field_offset" : 256,
     "referenced_type" : "type-4"
    },
    {
     "access" : "private",
     "field_name" : "mInputPreset",
     "field_offset" : 288,
     "referenced_type" : "type-4"
    },
    {
     "access" : "private",
     "field_name" : "mBufferCapacity",
     "field_offset" : 320,
     "referenced_type" : "type-4"
    },
    {
     "access" : "private",
     "field_name" : "mAllowedCapturePolicy",
     "field_offset" : 352,
     "referenced_type" : "type-4"
    },
    {
     "access" : "private",
     "field_name" : "mSessionId",
     "field_offset" : 384,
     "referenced_type" : "type-4"
    }
   ],
   "linker_set_key" : "aaudio::AAudioStreamParameters",
   "name" : "aaudio::AAudioStreamParameters",
   "record_kind" : "class",
   "referenced_type" : "type-3",
   "self_type" : "type-3",
   "size" : 52,
   "source_file" : "/frameworks/av/media/libaaudio/src/core/AAudioStreamParameters.h",
   "unique_id" : "_ZTSN6aaudio22AAudioStreamParametersE",
   "vtable_components" :
   [
    {
     "kind" : "offset_to_top"
    },
    {
     "kind" : "rtti",
     "mangled_component_name" : "_ZTIN6aaudio22AAudioStreamParametersE"
    },
    {
     "kind" : "complete_dtor_pointer",
     "mangled_component_name" : "_ZN6aaudio22AAudioStreamParametersD1Ev"
    },
    {
     "kind" : "deleting_dtor_pointer",
     "mangled_component_name" : "_ZN6aaudio22AAudioStreamParametersD0Ev"
    },
    {
     "mangled_component_name" : "_ZNK6aaudio22AAudioStreamParameters8validateEv"
    }
   ]
  },
  {
   "alignment" : 4,
   "base_specifiers" :
   [
    {
     "referenced_type" : "type-154"
    }
   ],
   "fields" :
   [
    {
     "access" : "protected",
     "field_name" : "mConfiguration",
     "field_offset" : 32,
     "referenced_type" : "type-150"
    },
    {
     "access" : "protected",
     "field_name" : "mUserId",
     "field_offset" : 480,
     "referenced_type" : "type-1"
    },
    {
     "access" : "protected",
     "field_name" : "mProcessId",
     "field_offset" : 512,
     "referenced_type" : "type-4"
    },
    {
     "access" : "protected",
     "field_name" : "mSharingModeMatchRequired",
     "field_offset" : 544,
     "referenced_type" : "type-16"
    },
    {
     "access" : "protected",
     "field_name" : "mInService",
     "field_offset" : 552,
     "referenced_type" : "type-16"
    }
   ],
   "linker_set_key" : "aaudio::AAudioStreamRequest",
   "name" : "aaudio::AAudioStreamRequest",
   "record_kind" : "class",
   "referenced_type" : "type-153",
   "self_type" : "type-153",
   "size" : 72,
   "source_file" : "/frameworks/av/media/libaaudio/src/binding/AAudioStreamRequest.h",
   "unique_id" : "_ZTSN6aaudio19AAudioStreamRequestE",
   "vtable_components" :
   [
    {
     "kind" : "offset_to_top"
    },
    {
     "kind" : "rtti",
     "mangled_component_name" : "_ZTIN6aaudio19AAudioStreamRequestE"
    },
    {
     "kind" : "complete_dtor_pointer",
     "mangled_component_name" : "_ZN6aaudio19AAudioStreamRequestD1Ev"
    },
    {
     "kind" : "deleting_dtor_pointer",
     "mangled_component_name" : "_ZN6aaudio19AAudioStreamRequestD0Ev"
    },
    {
     "mangled_component_name" : "_ZNK6aaudio19AAudioStreamRequest13writeToParcelEPN7android6ParcelE"
    },
    {
     "mangled_component_name" : "_ZN6aaudio19AAudioStreamRequest14readFromParcelEPKN7android6ParcelE"
    }
   ]
  },
  {
   "alignment" : 8,
   "fields" :
   [
    {
     "access" : "private",
     "field_name" : "mUpCommandQueue",
     "field_offset" : 32,
     "referenced_type" : "type-11"
    },
    {
     "access" : "private",
     "field_name" : "mDataQueue",
     "field_offset" : 64,
     "referenced_type" : "type-11"
    },
    {
     "access" : "private",
     "field_name" : "mFreeRunning",
     "field_offset" : 96,
     "referenced_type" : "type-16"
    },
    {
     "access" : "private",
     "field_name" : "mDataReadCounter",
     "field_offset" : 128,
     "referenced_type" : "type-8"
    },
    {
     "access" : "private",
     "field_name" : "mDataWriteCounter",
     "field_offset" : 192,
     "referenced_type" : "type-8"
    }
   ],
   "linker_set_key" : "aaudio::AudioEndpoint",
   "name" : "aaudio::AudioEndpoint",
   "record_kind" : "class",
   "referenced_type" : "type-10",
   "self_type" : "type-10",
   "size" : 32,
   "source_file" : "/frameworks/av/media/libaaudio/src/client/AudioEndpoint.h",
   "unique_id" : "_ZTSN6aaudio13AudioEndpointE",
   "vtable_components" :
   [
    {
     "kind" : "offset_to_top"
    },
    {
     "kind" : "rtti",
     "mangled_component_name" : "_ZTIN6aaudio13AudioEndpointE"
    },
    {
     "kind" : "complete_dtor_pointer",
     "mangled_component_name" : "_ZN6aaudio13AudioEndpointD1Ev"
    },
    {
     "kind" : "deleting_dtor_pointer",
     "mangled_component_name" : "_ZN6aaudio13AudioEndpointD0Ev"
    }
   ]
  },
  {
   "alignment" : 4,
   "base_specifiers" :
   [
    {
     "referenced_type" : "type-38"
    }
   ],
   "fields" :
   [
    {
     "field_name" : "mUpMessageQueueParcelable",
     "field_offset" : 32,
     "referenced_type" : "type-29"
    },
    {
     "field_name" : "mDownMessageQueueParcelable",
     "field_offset" : 576,
     "referenced_type" : "type-29"
    },
    {
     "field_name" : "mUpDataQueueParcelable",
     "field_offset" : 1120,
     "referenced_type" : "type-29"
    },
    {
     "field_name" : "mDownDataQueueParcelable",
     "field_offset" : 1664,
     "referenced_type" : "type-29"
    },
    {
     "access" : "private",
     "field_name" : "mNumSharedMemories",
     "field_offset" : 2208,
     "referenced_type" : "type-4"
    },
    {
     "access" : "private",
     "field_name" : "mSharedMemories",
     "field_offset" : 2240,
     "referenced_type" : "type-34"
    }
   ],
   "linker_set_key" : "aaudio::AudioEndpointParcelable",
   "name" : "aaudio::AudioEndpointParcelable",
   "record_kind" : "class",
   "referenced_type" : "type-28",
   "self_type" : "type-28",
   "size" : 792,
   "source_file" : "/frameworks/av/media/libaaudio/src/binding/AudioEndpointParcelable.h",
   "unique_id" : "_ZTSN6aaudio23AudioEndpointParcelableE",
   "vtable_components" :
   [
    {
     "kind" : "offset_to_top"
    },
    {
     "kind" : "rtti",
     "mangled_component_name" : "_ZTIN6aaudio23AudioEndpointParcelableE"
    },
    {
     "kind" : "complete_dtor_pointer",
     "mangled_component_name" : "_ZN6aaudio23AudioEndpointParcelableD1Ev"
    },
    {
     "kind" : "deleting_dtor_pointer",
     "mangled_component_name" : "_ZN6aaudio23AudioEndpointParcelableD0Ev"
    },
    {
     "mangled_component_name" : "_ZNK6aaudio23AudioEndpointParcelable13writeToParcelEPN7android6ParcelE"
    },
    {
     "mangled_component_name" : "_ZN6aaudio23AudioEndpointParcelable14readFromParcelEPKN7android6ParcelE"
    }
   ]
  },
  {
   "alignment" : 8,
   "fields" :
   [
    {
     "access" : "protected",
     "field_name" : "mCallbackEnabled",
     "field_offset" : 32,
     "referenced_type" : "type-43"
    },
    {
     "access" : "protected",
     "field_name" : "mDuckAndMuteVolume",
     "field_offset" : 64,
     "referenced_type" : "type-27"
    },
    {
     "access" : "private",
     "field_name" : "mStreamLock",
     "field_offset" : 96,
     "referenced_type" : "type-44"
    },
    {
     "access" : "private",
     "field_name" : "mPlayerBase",
     "field_offset" : 128,
     "referenced_type" : "type-45"
    },
    {
     "access" : "private",
     "field_name" : "mSamplesPerFrame",
     "field_offset" : 160,
     "referenced_type" : "type-4"
    },
    {
     "access" : "private",
     "field_name" : "mSampleRate",
     "field_offset" : 192,
     "referenced_type" : "type-4"
    },
    {
     "access" : "private",
     "field_name" : "mDeviceId",
     "field_offset" : 224,
     "referenced_type" : "type-4"
    },
    {
     "access" : "private",
     "field_name" : "mSharingMode",
     "field_offset" : 256,
     "referenced_type" : "type-4"
    },
    {
     "access" : "private",
     "field_name" : "mSharingModeMatchRequired",
     "field_offset" : 288,
     "referenced_type" : "type-16"
    },
    {
     "access" : "private",
     "field_name" : "mFormat",
     "field_offset" : 320,
     "referenced_type" : "type-47"
    },
    {
     "access" : "private",
     "field_name" : "mState",
     "field_offset" : 352,
     "referenced_type" : "type-4"
    },
    {
     "access" : "private",
     "field_name" : "mPerformanceMode",
     "field_offset" : 384,
     "referenced_type" : "type-4"
    },
    {
     "access" : "private",
     "field_name" : "mUsage",
     "field_offset" : 416,
     "referenced_type" : "type-4"
    },
    {
     "access" : "private",
     "field_name" : "mContentType",
     "field_offset" : 448,
     "referenced_type" : "type-4"
    },
    {
     "access" : "private",
     "field_name" : "mInputPreset",
     "field_offset" : 480,
     "referenced_type" : "type-4"
    },
    {
     "access" : "private",
     "field_name" : "mAllowedCapturePolicy",
     "field_offset" : 512,
     "referenced_type" : "type-4"
    },
    {
     "access" : "private",
     "field_name" : "mSessionId",
     "field_offset" : 544,
     "referenced_type" : "type-4"
    },
    {
     "access" : "private",
     "field_name" : "mDeviceFormat",
     "field_offset" : 576,
     "referenced_type" : "type-48"
    },
    {
     "access" : "private",
     "field_name" : "mDataCallbackProc",
     "field_offset" : 608,
     "referenced_type" : "type-49"
    },
    {
     "access" : "private",
     "field_name" : "mDataCallbackUserData",
     "field_offset" : 640,
     "referenced_type" : "type-53"
    },
    {
     "access" : "private",
     "field_name" : "mFramesPerDataCallback",
     "field_offset" : 672,
     "referenced_type" : "type-4"
    },
    {
     "access" : "private",
     "field_name" : "mDataCallbackThread",
     "field_offset" : 704,
     "referenced_type" : "type-55"
    },
    {
     "access" : "private",
     "field_name" : "mErrorCallbackProc",
     "field_offset" : 736,
     "referenced_type" : "type-56"
    },
    {
     "access" : "private",
     "field_name" : "mErrorCallbackUserData",
     "field_offset" : 768,
     "referenced_type" : "type-53"
    },
    {
     "access" : "private",
     "field_name" : "mErrorCallbackThread",
     "field_offset" : 800,
     "referenced_type" : "type-58"
    },
    {
     "access" : "private",
     "field_name" : "mHasThread",
     "field_offset" : 832,
     "referenced_type" : "type-16"
    },
    {
     "access" : "private",
     "field_name" : "mThread",
     "field_offset" : 864,
     "referenced_type" : "type-59"
    },
    {
     "access" : "private",
     "field_name" : "mPeriodNanoseconds",
     "field_offset" : 896,
     "referenced_type" : "type-60"
    },
    {
     "access" : "private",
     "field_name" : "mThreadProc",
     "field_offset" : 960,
     "referenced_type" : "type-61"
    },
    {
     "access" : "private",
     "field_name" : "mThreadArg",
     "field_offset" : 992,
     "referenced_type" : "type-53"
    },
    {
     "access" : "private",
     "field_name" : "mThreadRegistrationResult",
     "field_offset" : 1024,
     "referenced_type" : "type-4"
    },
    {
     "access" : "private",
     "field_name" : "mStreamId",
     "field_offset" : 1056,
     "referenced_type" : "type-63"
    }
   ],
   "linker_set_key" : "aaudio::AudioStream",
   "name" : "aaudio::AudioStream",
   "record_kind" : "class",
   "referenced_type" : "type-42",
   "self_type" : "type-42",
   "size" : 136,
   "source_file" : "/frameworks/av/media/libaaudio/src/core/AudioStream.h",
   "unique_id" : "_ZTSN6aaudio11AudioStreamE",
   "vtable_components" :
   [
    {
     "kind" : "offset_to_top"
    },
    {
     "kind" : "rtti",
     "mangled_component_name" : "_ZTIN6aaudio11AudioStreamE"
    },
    {
     "kind" : "complete_dtor_pointer",
     "mangled_component_name" : "_ZN6aaudio11AudioStreamD1Ev"
    },
    {
     "kind" : "deleting_dtor_pointer",
     "mangled_component_name" : "_ZN6aaudio11AudioStreamD0Ev"
    },
    {
     "is_pure" : true,
     "mangled_component_name" : "_ZN6aaudio11AudioStream12requestStartEv"
    },
    {
     "mangled_component_name" : "_ZNK6aaudio11AudioStream16isFlushSupportedEv"
    },
    {
     "mangled_component_name" : "_ZNK6aaudio11AudioStream16isPauseSupportedEv"
    },
    {
     "mangled_component_name" : "_ZN6aaudio11AudioStream12requestPauseEv"
    },
    {
     "mangled_component_name" : "_ZN6aaudio11AudioStream12requestFlushEv"
    },
    {
     "is_pure" : true,
     "mangled_component_name" : "_ZN6aaudio11AudioStream11requestStopEv"
    },
    {
     "is_pure" : true,
     "mangled_component_name" : "_ZN6aaudio11AudioStream12getTimestampEiPxS1_"
    },
    {
     "is_pure" : true,
     "mangled_component_name" : "_ZN6aaudio11AudioStream18updateStateMachineEv"
    },
    {
     "mangled_component_name" : "_ZN6aaudio11AudioStream18waitForStateChangeEiPix"
    },
    {
     "mangled_component_name" : "_ZN6aaudio11AudioStream4openERKNS_18AudioStreamBuilderE"
    },
    {
     "mangled_component_name" : "_ZN6aaudio11AudioStream5closeEv"
    },
    {
     "is_pure" : true,
     "mangled_component_name" : "_ZN6aaudio11AudioStream13setBufferSizeEi"
    },
    {
     "mangled_component_name" : "_ZN6aaudio11AudioStream12createThreadExPFPvS1_ES1_"
    },
    {
     "mangled_component_name" : "_ZN6aaudio11AudioStream14registerThreadEv"
    },
    {
     "mangled_component_name" : "_ZN6aaudio11AudioStream16unregisterThreadEv"
    },
    {
     "mangled_component_name" : "_ZNK6aaudio11AudioStream13getBufferSizeEv"
    },
    {
     "mangled_component_name" : "_ZNK6aaudio11AudioStream17getBufferCapacityEv"
    },
    {
     "mangled_component_name" : "_ZNK6aaudio11AudioStream17getFramesPerBurstEv"
    },
    {
     "mangled_component_name" : "_ZNK6aaudio11AudioStream12getXRunCountEv"
    },
    {
     "mangled_component_name" : "_ZN6aaudio11AudioStream6isMMapEv"
    },
    {
     "mangled_component_name" : "_ZNK6aaudio11AudioStream18getPerformanceModeEv"
    },
    {
     "is_pure" : true,
     "mangled_component_name" : "_ZNK6aaudio11AudioStream12getDirectionEv"
    },
    {
     "is_pure" : true,
     "mangled_component_name" : "_ZN6aaudio11AudioStream16getFramesWrittenEv"
    },
    {
     "is_pure" : true,
     "mangled_component_name" : "_ZN6aaudio11AudioStream13getFramesReadEv"
    },
    {
     "mangled_component_name" : "_ZN6aaudio11AudioStream5writeEPKvix"
    },
    {
     "mangled_component_name" : "_ZN6aaudio11AudioStream4readEPvix"
    },
    {
     "mangled_component_name" : "_ZN6aaudio11AudioStream11doSetVolumeEv"
    },
    {
     "mangled_component_name" : "_ZN6aaudio11AudioStream22maybeConvertDeviceDataEPKvi"
    }
   ]
  },
  {
   "access" : "protected",
   "alignment" : 4,
   "base_specifiers" :
   [
    {
     "referenced_type" : "type-265"
    }
   ],
   "fields" :
   [
    {
     "access" : "private",
     "field_name" : "mParent",
     "field_offset" : 416,
     "referenced_type" : "type-117"
    },
    {
     "access" : "private",
     "field_name" : "mResult",
     "field_offset" : 448,
     "referenced_type" : "type-4"
    },
    {
     "access" : "private",
     "field_name" : "mRegistered",
     "field_offset" : 480,
     "referenced_type" : "type-16"
    }
   ],
   "linker_set_key" : "aaudio::AudioStream::MyPlayerBase",
   "name" : "aaudio::AudioStream::MyPlayerBase",
   "record_kind" : "class",
   "referenced_type" : "type-264",
   "self_type" : "type-264",
   "size" : 72,
   "source_file" : "/frameworks/av/media/libaaudio/src/core/AudioStream.h",
   "unique_id" : "_ZTSN6aaudio11AudioStream12MyPlayerBaseE",
   "vtable_components" :
   [
    {
     "component_value" : 64,
     "kind" : "vbase_offset"
    },
    {
     "kind" : "offset_to_top"
    },
    {
     "kind" : "rtti",
     "mangled_component_name" : "_ZTIN6aaudio11AudioStream12MyPlayerBaseE"
    },
    {
     "kind" : "complete_dtor_pointer",
     "mangled_component_name" : "_ZN6aaudio11AudioStream12MyPlayerBaseD1Ev"
    },
    {
     "kind" : "deleting_dtor_pointer",
     "mangled_component_name" : "_ZN6aaudio11AudioStream12MyPlayerBaseD0Ev"
    },
    {
     "mangled_component_name" : "_ZN7android11BnInterfaceINS_5media7IPlayerEE10onAsBinderEv"
    },
    {
     "mangled_component_name" : "_ZNK7android11BnInterfaceINS_5media7IPlayerEE22getInterfaceDescriptorEv"
    },
    {
     "mangled_component_name" : "_ZN7android10PlayerBase5startEv"
    },
    {
     "mangled_component_name" : "_ZN7android10PlayerBase5pauseEv"
    },
    {
     "mangled_component_name" : "_ZN7android10PlayerBase4stopEv"
    },
    {
     "mangled_component_name" : "_ZN7android10PlayerBase9setVolumeEf"
    },
    {
     "mangled_component_name" : "_ZN7android10PlayerBase6setPanEf"
    },
    {
     "mangled_component_name" : "_ZN7android10PlayerBase15setStartDelayMsEi"
    },
    {
     "mangled_component_name" : "_ZN7android10PlayerBase17applyVolumeShaperERKNS_5media12VolumeShaper13ConfigurationERKNS2_9OperationE"
    },
    {
     "mangled_component_name" : "_ZN7android11BnInterfaceINS_5media7IPlayerEE19queryLocalInterfaceERKNS_8String16E"
    },
    {
     "mangled_component_name" : "_ZN7android5media8BnPlayer10onTransactEjRKNS_6ParcelEPS2_j"
    },
    {
     "mangled_component_name" : "_ZN6aaudio11AudioStream12MyPlayerBase7destroyEv"
    },
    {
     "mangled_component_name" : "_ZN6aaudio11AudioStream12MyPlayerBase11playerStartEv"
    },
    {
     "mangled_component_name" : "_ZN6aaudio11AudioStream12MyPlayerBase11playerPauseEv"
    },
    {
     "mangled_component_name" : "_ZN6aaudio11AudioStream12MyPlayerBase10playerStopEv"
    },
    {
     "mangled_component_name" : "_ZN6aaudio11AudioStream12MyPlayerBase15playerSetVolumeEv"
    },
    {
     "component_value" : 60,
     "kind" : "vbase_offset"
    },
    {
     "component_value" : -4,
     "kind" : "offset_to_top"
    },
    {
     "kind" : "rtti",
     "mangled_component_name" : "_ZTIN6aaudio11AudioStream12MyPlayerBaseE"
    },
    {
     "mangled_component_name" : "_ZThn4_N7android11BnInterfaceINS_5media7IPlayerEE19queryLocalInterfaceERKNS_8String16E"
    },
    {
     "mangled_component_name" : "_ZThn4_NK7android11BnInterfaceINS_5media7IPlayerEE22getInterfaceDescriptorEv"
    },
    {
     "mangled_component_name" : "_ZNK7android7BBinder13isBinderAliveEv"
    },
    {
     "mangled_component_name" : "_ZN7android7BBinder10pingBinderEv"
    },
    {
     "mangled_component_name" : "_ZN7android7BBinder4dumpEiRKNS_6VectorINS_8String16EEE"
    },
    {
     "mangled_component_name" : "_ZN7android7BBinder8transactEjRKNS_6ParcelEPS1_j"
    },
    {
     "mangled_component_name" : "_ZN7android7BBinder11linkToDeathERKNS_2spINS_7IBinder14DeathRecipientEEEPvj"
    },
    {
     "mangled_component_name" : "_ZN7android7BBinder13unlinkToDeathERKNS_2wpINS_7IBinder14DeathRecipientEEEPvjPS4_"
    },
    {
     "mangled_component_name" : "_ZNK7android7IBinder13checkSubclassEPKv"
    },
    {
     "mangled_component_name" : "_ZN7android7BBinder12attachObjectEPKvPvS3_PFvS2_S3_S3_E"
    },
    {
     "mangled_component_name" : "_ZNK7android7BBinder10findObjectEPKv"
    },
    {
     "mangled_component_name" : "_ZN7android7BBinder12detachObjectEPKv"
    },
    {
     "mangled_component_name" : "_ZN7android7BBinder11localBinderEv"
    },
    {
     "mangled_component_name" : "_ZN7android7IBinder12remoteBinderEv"
    },
    {
     "kind" : "complete_dtor_pointer",
     "mangled_component_name" : "_ZThn4_N6aaudio11AudioStream12MyPlayerBaseD1Ev"
    },
    {
     "kind" : "deleting_dtor_pointer",
     "mangled_component_name" : "_ZThn4_N6aaudio11AudioStream12MyPlayerBaseD0Ev"
    },
    {
     "mangled_component_name" : "_ZThn4_N7android5media8BnPlayer10onTransactEjRKNS_6ParcelEPS2_j"
    },
    {
     "kind" : "vcall_offset"
    },
    {
     "kind" : "vcall_offset"
    },
    {
     "kind" : "vcall_offset"
    },
    {
     "kind" : "vcall_offset"
    },
    {
     "component_value" : -64,
     "kind" : "vcall_offset"
    },
    {
     "component_value" : -64,
     "kind" : "offset_to_top"
    },
    {
     "kind" : "rtti",
     "mangled_component_name" : "_ZTIN6aaudio11AudioStream12MyPlayerBaseE"
    },
    {
     "kind" : "complete_dtor_pointer",
     "mangled_component_name" : "_ZTv0_n12_N6aaudio11AudioStream12MyPlayerBaseD1Ev"
    },
    {
     "kind" : "deleting_dtor_pointer",
     "mangled_component_name" : "_ZTv0_n12_N6aaudio11AudioStream12MyPlayerBaseD0Ev"
    },
    {
     "mangled_component_name" : "_ZN7android7RefBase10onFirstRefEv"
    },
    {
     "mangled_component_name" : "_ZN7android7RefBase15onLastStrongRefEPKv"
    },
    {
     "mangled_component_name" : "_ZN7android7RefBase20onIncStrongAttemptedEjPKv"
    },
    {
     "mangled_component_name" : "_ZN7android7RefBase13onLastWeakRefEPKv"
    }
   ]
  },
  {
   "alignment" : 4,
   "base_specifiers" :
   [
    {
     "referenced_type" : "type-3"
    }
   ],
   "fields" :
   [
    {
     "access" : "private",
     "field_name" : "mSharingModeMatchRequired",
     "field_offset" : 416,
     "referenced_type" : "type-16"
    },
    {
     "access" : "private",
     "field_name" : "mPerformanceMode",
     "field_offset" : 448,
     "referenced_type" : "type-4"
    },
    {
     "access" : "private",
     "field_name" : "mDataCallbackProc",
     "field_offset" : 480,
     "referenced_type" : "type-49"
    },
    {
     "access" : "private",
     "field_name" : "mDataCallbackUserData",
     "field_offset" : 512,
     "referenced_type" : "type-53"
    },
    {
     "access" : "private",
     "field_name" : "mFramesPerDataCallback",
     "field_offset" : 544,
     "referenced_type" : "type-4"
    },
    {
     "access" : "private",
     "field_name" : "mErrorCallbackProc",
     "field_offset" : 576,
     "referenced_type" : "type-56"
    },
    {
     "access" : "private",
     "field_name" : "mErrorCallbackUserData",
     "field_offset" : 608,
     "referenced_type" : "type-53"
    }
   ],
   "linker_set_key" : "aaudio::AudioStreamBuilder",
   "name" : "aaudio::AudioStreamBuilder",
   "record_kind" : "class",
   "referenced_type" : "type-248",
   "self_type" : "type-248",
   "size" : 80,
   "source_file" : "/frameworks/av/media/libaaudio/src/core/AudioStreamBuilder.h",
   "unique_id" : "_ZTSN6aaudio18AudioStreamBuilderE",
   "vtable_components" :
   [
    {
     "kind" : "offset_to_top"
    },
    {
     "kind" : "rtti",
     "mangled_component_name" : "_ZTIN6aaudio18AudioStreamBuilderE"
    },
    {
     "kind" : "complete_dtor_pointer",
     "mangled_component_name" : "_ZN6aaudio18AudioStreamBuilderD1Ev"
    },
    {
     "kind" : "deleting_dtor_pointer",
     "mangled_component_name" : "_ZN6aaudio18AudioStreamBuilderD0Ev"
    },
    {
     "mangled_component_name" : "_ZNK6aaudio18AudioStreamBuilder8validateEv"
    }
   ]
  },
  {
   "alignment" : 8,
   "base_specifiers" :
   [
    {
     "referenced_type" : "type-42"
    }
   ],
   "fields" :
   [
    {
     "access" : "protected",
     "field_name" : "mClockModel",
     "field_offset" : 1088,
     "referenced_type" : "type-7"
    },
    {
     "access" : "protected",
     "field_name" : "mAudioEndpoint",
     "field_offset" : 1472,
     "referenced_type" : "type-10"
    },
    {
     "access" : "protected",
     "field_name" : "mServiceStreamHandle",
     "field_offset" : 1728,
     "referenced_type" : "type-4"
    },
    {
     "access" : "protected",
     "field_name" : "mFramesPerBurst",
     "field_offset" : 1760,
     "referenced_type" : "type-4"
    },
    {
     "access" : "protected",
     "field_name" : "mXRunCount",
     "field_offset" : 1792,
     "referenced_type" : "type-4"
    },
    {
     "access" : "protected",
     "field_name" : "mFramesOffsetFromService",
     "field_offset" : 1856,
     "referenced_type" : "type-8"
    },
    {
     "access" : "protected",
     "field_name" : "mCallbackBuffer",
     "field_offset" : 1920,
     "referenced_type" : "type-14"
    },
    {
     "access" : "protected",
     "field_name" : "mCallbackFrames",
     "field_offset" : 1952,
     "referenced_type" : "type-4"
    },
    {
     "access" : "protected",
     "field_name" : "mInService",
     "field_offset" : 1984,
     "referenced_type" : "type-16"
    },
    {
     "access" : "protected",
     "field_name" : "mServiceInterface",
     "field_offset" : 2016,
     "referenced_type" : "type-18"
    },
    {
     "access" : "protected",
     "field_name" : "mAtomicInternalTimestamp",
     "field_offset" : 2048,
     "referenced_type" : "type-20"
    },
    {
     "access" : "protected",
     "field_name" : "mNeedCatchUp",
     "field_offset" : 2368,
     "referenced_type" : "type-24"
    },
    {
     "access" : "protected",
     "field_name" : "mStreamVolume",
     "field_offset" : 2432,
     "referenced_type" : "type-27"
    },
    {
     "access" : "private",
     "field_name" : "mWakeupDelayNanos",
     "field_offset" : 2464,
     "referenced_type" : "type-13"
    },
    {
     "access" : "private",
     "field_name" : "mMinimumSleepNanos",
     "field_offset" : 2496,
     "referenced_type" : "type-13"
    },
    {
     "access" : "private",
     "field_name" : "mEndPointParcelable",
     "field_offset" : 2528,
     "referenced_type" : "type-28"
    },
    {
     "access" : "private",
     "field_name" : "mEndpointDescriptor",
     "field_offset" : 8864,
     "referenced_type" : "type-39"
    },
    {
     "access" : "private",
     "field_name" : "mServiceLatencyNanos",
     "field_offset" : 9536,
     "referenced_type" : "type-8"
    },
    {
     "access" : "private",
     "field_name" : "mDeviceChannelCount",
     "field_offset" : 9600,
     "referenced_type" : "type-4"
    }
   ],
   "linker_set_key" : "aaudio::AudioStreamInternal",
   "name" : "aaudio::AudioStreamInternal",
   "record_kind" : "class",
   "referenced_type" : "type-6",
   "self_type" : "type-6",
   "size" : 1208,
   "source_file" : "/frameworks/av/media/libaaudio/src/client/AudioStreamInternal.h",
   "unique_id" : "_ZTSN6aaudio19AudioStreamInternalE",
   "vtable_components" :
   [
    {
     "kind" : "offset_to_top"
    },
    {
     "kind" : "rtti",
     "mangled_component_name" : "_ZTIN6aaudio19AudioStreamInternalE"
    },
    {
     "kind" : "complete_dtor_pointer",
     "mangled_component_name" : "_ZN6aaudio19AudioStreamInternalD1Ev"
    },
    {
     "kind" : "deleting_dtor_pointer",
     "mangled_component_name" : "_ZN6aaudio19AudioStreamInternalD0Ev"
    },
    {
     "mangled_component_name" : "_ZN6aaudio19AudioStreamInternal12requestStartEv"
    },
    {
     "mangled_component_name" : "_ZNK6aaudio11AudioStream16isFlushSupportedEv"
    },
    {
     "mangled_component_name" : "_ZNK6aaudio11AudioStream16isPauseSupportedEv"
    },
    {
     "mangled_component_name" : "_ZN6aaudio11AudioStream12requestPauseEv"
    },
    {
     "mangled_component_name" : "_ZN6aaudio11AudioStream12requestFlushEv"
    },
    {
     "mangled_component_name" : "_ZN6aaudio19AudioStreamInternal11requestStopEv"
    },
    {
     "mangled_component_name" : "_ZN6aaudio19AudioStreamInternal12getTimestampEiPxS1_"
    },
    {
     "mangled_component_name" : "_ZN6aaudio19AudioStreamInternal18updateStateMachineEv"
    },
    {
     "mangled_component_name" : "_ZN6aaudio11AudioStream18waitForStateChangeEiPix"
    },
    {
     "mangled_component_name" : "_ZN6aaudio19AudioStreamInternal4openERKNS_18AudioStreamBuilderE"
    },
    {
     "mangled_component_name" : "_ZN6aaudio19AudioStreamInternal5closeEv"
    },
    {
     "mangled_component_name" : "_ZN6aaudio19AudioStreamInternal13setBufferSizeEi"
    },
    {
     "mangled_component_name" : "_ZN6aaudio11AudioStream12createThreadExPFPvS1_ES1_"
    },
    {
     "mangled_component_name" : "_ZN6aaudio19AudioStreamInternal14registerThreadEv"
    },
    {
     "mangled_component_name" : "_ZN6aaudio19AudioStreamInternal16unregisterThreadEv"
    },
    {
     "mangled_component_name" : "_ZNK6aaudio19AudioStreamInternal13getBufferSizeEv"
    },
    {
     "mangled_component_name" : "_ZNK6aaudio19AudioStreamInternal17getBufferCapacityEv"
    },
    {
     "mangled_component_name" : "_ZNK6aaudio19AudioStreamInternal17getFramesPerBurstEv"
    },
    {
     "mangled_component_name" : "_ZNK6aaudio19AudioStreamInternal12getXRunCountEv"
    },
    {
     "mangled_component_name" : "_ZN6aaudio19AudioStreamInternal6isMMapEv"
    },
    {
     "mangled_component_name" : "_ZNK6aaudio11AudioStream18getPerformanceModeEv"
    },
    {
     "is_pure" : true,
     "mangled_component_name" : "_ZNK6aaudio11AudioStream12getDirectionEv"
    },
    {
     "is_pure" : true,
     "mangled_component_name" : "_ZN6aaudio11AudioStream16getFramesWrittenEv"
    },
    {
     "is_pure" : true,
     "mangled_component_name" : "_ZN6aaudio11AudioStream13getFramesReadEv"
    },
    {
     "mangled_component_name" : "_ZN6aaudio11AudioStream5writeEPKvix"
    },
    {
     "mangled_component_name" : "_ZN6aaudio11AudioStream4readEPvix"
    },
    {
     "mangled_component_name" : "_ZN6aaudio11AudioStream11doSetVolumeEv"
    },
    {
     "mangled_component_name" : "_ZN6aaudio11AudioStream22maybeConvertDeviceDataEPKvi"
    },
    {
     "is_pure" : true,
     "mangled_component_name" : "_ZN6aaudio19AudioStreamInternal12callbackLoopEv"
    },
    {
     "is_pure" : true,
     "mangled_component_name" : "_ZN6aaudio19AudioStreamInternal14processDataNowEPvixPx"
    },
    {
     "is_pure" : true,
     "mangled_component_name" : "_ZN6aaudio19AudioStreamInternal34advanceClientToMatchServerPositionEv"
    },
    {
     "mangled_component_name" : "_ZN6aaudio19AudioStreamInternal17onFlushFromServerEv"
    }
   ]
  },
  {
   "alignment" : 8,
   "base_specifiers" :
   [
    {
     "referenced_type" : "type-6"
    }
   ],
   "fields" :
   [
    {
     "access" : "private",
     "field_name" : "mLastFramesWritten",
     "field_offset" : 9664,
     "referenced_type" : "type-8"
    }
   ],
   "linker_set_key" : "aaudio::AudioStreamInternalCapture",
   "name" : "aaudio::AudioStreamInternalCapture",
   "record_kind" : "class",
   "referenced_type" : "type-69",
   "self_type" : "type-69",
   "size" : 1216,
   "source_file" : "/frameworks/av/media/libaaudio/src/client/AudioStreamInternalCapture.h",
   "unique_id" : "_ZTSN6aaudio26AudioStreamInternalCaptureE",
   "vtable_components" :
   [
    {
     "kind" : "offset_to_top"
    },
    {
     "kind" : "rtti",
     "mangled_component_name" : "_ZTIN6aaudio26AudioStreamInternalCaptureE"
    },
    {
     "kind" : "complete_dtor_pointer",
     "mangled_component_name" : "_ZN6aaudio26AudioStreamInternalCaptureD1Ev"
    },
    {
     "kind" : "deleting_dtor_pointer",
     "mangled_component_name" : "_ZN6aaudio26AudioStreamInternalCaptureD0Ev"
    },
    {
     "mangled_component_name" : "_ZN6aaudio19AudioStreamInternal12requestStartEv"
    },
    {
     "mangled_component_name" : "_ZNK6aaudio11AudioStream16isFlushSupportedEv"
    },
    {
     "mangled_component_name" : "_ZNK6aaudio11AudioStream16isPauseSupportedEv"
    },
    {
     "mangled_component_name" : "_ZN6aaudio11AudioStream12requestPauseEv"
    },
    {
     "mangled_component_name" : "_ZN6aaudio11AudioStream12requestFlushEv"
    },
    {
     "mangled_component_name" : "_ZN6aaudio19AudioStreamInternal11requestStopEv"
    },
    {
     "mangled_component_name" : "_ZN6aaudio19AudioStreamInternal12getTimestampEiPxS1_"
    },
    {
     "mangled_component_name" : "_ZN6aaudio19AudioStreamInternal18updateStateMachineEv"
    },
    {
     "mangled_component_name" : "_ZN6aaudio11AudioStream18waitForStateChangeEiPix"
    },
    {
     "mangled_component_name" : "_ZN6aaudio19AudioStreamInternal4openERKNS_18AudioStreamBuilderE"
    },
    {
     "mangled_component_name" : "_ZN6aaudio19AudioStreamInternal5closeEv"
    },
    {
     "mangled_component_name" : "_ZN6aaudio19AudioStreamInternal13setBufferSizeEi"
    },
    {
     "mangled_component_name" : "_ZN6aaudio11AudioStream12createThreadExPFPvS1_ES1_"
    },
    {
     "mangled_component_name" : "_ZN6aaudio19AudioStreamInternal14registerThreadEv"
    },
    {
     "mangled_component_name" : "_ZN6aaudio19AudioStreamInternal16unregisterThreadEv"
    },
    {
     "mangled_component_name" : "_ZNK6aaudio19AudioStreamInternal13getBufferSizeEv"
    },
    {
     "mangled_component_name" : "_ZNK6aaudio19AudioStreamInternal17getBufferCapacityEv"
    },
    {
     "mangled_component_name" : "_ZNK6aaudio19AudioStreamInternal17getFramesPerBurstEv"
    },
    {
     "mangled_component_name" : "_ZNK6aaudio19AudioStreamInternal12getXRunCountEv"
    },
    {
     "mangled_component_name" : "_ZN6aaudio19AudioStreamInternal6isMMapEv"
    },
    {
     "mangled_component_name" : "_ZNK6aaudio11AudioStream18getPerformanceModeEv"
    },
    {
     "mangled_component_name" : "_ZNK6aaudio26AudioStreamInternalCapture12getDirectionEv"
    },
    {
     "mangled_component_name" : "_ZN6aaudio26AudioStreamInternalCapture16getFramesWrittenEv"
    },
    {
     "mangled_component_name" : "_ZN6aaudio26AudioStreamInternalCapture13getFramesReadEv"
    },
    {
     "mangled_component_name" : "_ZN6aaudio11AudioStream5writeEPKvix"
    },
    {
     "mangled_component_name" : "_ZN6aaudio26AudioStreamInternalCapture4readEPvix"
    },
    {
     "mangled_component_name" : "_ZN6aaudio11AudioStream11doSetVolumeEv"
    },
    {
     "mangled_component_name" : "_ZN6aaudio11AudioStream22maybeConvertDeviceDataEPKvi"
    },
    {
     "mangled_component_name" : "_ZN6aaudio26AudioStreamInternalCapture12callbackLoopEv"
    },
    {
     "mangled_component_name" : "_ZN6aaudio26AudioStreamInternalCapture14processDataNowEPvixPx"
    },
    {
     "mangled_component_name" : "_ZN6aaudio26AudioStreamInternalCapture34advanceClientToMatchServerPositionEv"
    },
    {
     "mangled_component_name" : "_ZN6aaudio19AudioStreamInternal17onFlushFromServerEv"
    }
   ]
  },
  {
   "alignment" : 8,
   "base_specifiers" :
   [
    {
     "referenced_type" : "type-6"
    }
   ],
   "fields" :
   [
    {
     "access" : "private",
     "field_name" : "mLastFramesRead",
     "field_offset" : 9664,
     "referenced_type" : "type-8"
    },
    {
