{
 "array_types" :
 [
  {
   "alignment" : 4,
   "linker_set_key" : "_ZTIA0_i",
   "name" : "int [0]",
   "referenced_type" : "_ZTIi",
   "self_type" : "_ZTIA0_i",
   "source_file" : "/system/core/libcutils/include/cutils/native_handle.h"
  },
  {
   "alignment" : 1,
   "linker_set_key" : "_ZTIA10_c",
   "name" : "char [10]",
   "referenced_type" : "_ZTIc",
   "self_type" : "_ZTIA10_c",
   "size" : 10,
   "source_file" : "/external/libcxx/include/type_traits"
  },
  {
   "alignment" : 4,
   "linker_set_key" : "_ZTIA10_i",
   "name" : "int [10]",
   "referenced_type" : "_ZTIi",
   "self_type" : "_ZTIA10_i",
   "size" : 40,
   "source_file" : "/out/soong/.intermediates/bionic/libc/libc.llndk/android_vendor.30_arm_armv8-a_shared/gen/include/bits/pthread_types.h"
  },
  {
   "alignment" : 1,
   "linker_set_key" : "_ZTIA11_c",
   "name" : "char [11]",
   "referenced_type" : "_ZTIc",
   "self_type" : "_ZTIA11_c",
   "size" : 11,
   "source_file" : "/external/libcxx/include/type_traits"
  },
  {
   "alignment" : 1,
   "linker_set_key" : "_ZTIA120_c",
   "name" : "char [120]",
   "referenced_type" : "_ZTIc",
   "self_type" : "_ZTIA120_c",
   "size" : 120,
   "source_file" : "/out/soong/.intermediates/bionic/libc/libc.llndk/android_vendor.30_arm_armv8-a_shared/gen/include/sys/ucontext.h"
  },
  {
   "alignment" : 4,
   "linker_set_key" : "_ZTIA128_m",
   "name" : "unsigned long [128]",
   "referenced_type" : "_ZTIm",
   "self_type" : "_ZTIA128_m",
   "size" : 512,
   "source_file" : "/out/soong/.intermediates/bionic/libc/libc.llndk/android_vendor.30_arm_armv8-a_shared/gen/include/sys/ucontext.h"
  },
  {
   "alignment" : 4,
   "linker_set_key" : "_ZTIA13_i",
   "name" : "int [13]",
   "referenced_type" : "_ZTIi",
   "self_type" : "_ZTIA13_i",
   "size" : 52,
   "source_file" : "/bionic/libc/kernel/uapi/asm-generic/siginfo.h"
  },
  {
   "alignment" : 4,
   "linker_set_key" : "_ZTIA14_NSt3__112basic_stringIcNS_11char_traitsIcEENS_9allocatorIcEEEE",
   "name" : "std::__1::basic_string<char> [14]",
   "referenced_type" : "_ZTINSt3__112basic_stringIcNS_11char_traitsIcEENS_9allocatorIcEEEE",
   "self_type" : "_ZTIA14_NSt3__112basic_stringIcNS_11char_traitsIcEENS_9allocatorIcEEEE",
   "size" : 168,
   "source_file" : "/external/libcxx/include/locale"
  },
  {
   "alignment" : 4,
   "linker_set_key" : "_ZTIA14_NSt3__112basic_stringIwNS_11char_traitsIwEENS_9allocatorIwEEEE",
   "name" : "std::__1::basic_string<wchar_t> [14]",
   "referenced_type" : "_ZTINSt3__112basic_stringIwNS_11char_traitsIwEENS_9allocatorIwEEEE",
   "self_type" : "_ZTIA14_NSt3__112basic_stringIwNS_11char_traitsIwEENS_9allocatorIwEEEE",
   "size" : 168,
   "source_file" : "/external/libcxx/include/locale"
  },
  {
   "alignment" : 8,
   "linker_set_key" : "_ZTIA14_y",
   "name" : "unsigned long long [14]",
   "referenced_type" : "_ZTIy",
   "self_type" : "_ZTIA14_y",
   "size" : 112,
   "source_file" : "/bionic/libc/kernel/uapi/linux/stat.h"
  },
  {
   "alignment" : 1,
   "linker_set_key" : "_ZTIA16_h",
   "name" : "unsigned char [16]",
   "referenced_type" : "_ZTIh",
   "self_type" : "_ZTIA16_h",
   "size" : 16,
   "source_file" : "/external/libcxx/include/type_traits"
  },
  {
   "alignment" : 1,
   "linker_set_key" : "_ZTIA17_c",
   "name" : "char [17]",
   "referenced_type" : "_ZTIc",
   "self_type" : "_ZTIA17_c",
   "size" : 17,
   "source_file" : "/external/libcxx/include/type_traits"
  },
  {
   "alignment" : 4,
   "linker_set_key" : "_ZTIA18_m",
   "name" : "unsigned long [18]",
   "referenced_type" : "_ZTIm",
   "self_type" : "_ZTIA18_m",
   "size" : 72,
   "source_file" : "/out/soong/.intermediates/bionic/libc/libc.llndk/android_vendor.30_arm_armv8-a_shared/gen/include/sys/user.h"
  },
  {
   "alignment" : 4,
   "linker_set_key" : "_ZTIA1_i",
   "name" : "int [1]",
   "referenced_type" : "_ZTIi",
   "self_type" : "_ZTIA1_i",
   "size" : 4,
   "source_file" : "/out/soong/.intermediates/bionic/libc/libc.llndk/android_vendor.30_arm_armv8-a_shared/gen/include/bits/pthread_types.h"
  },
  {
   "alignment" : 4,
   "linker_set_key" : "_ZTIA1_m",
   "name" : "unsigned long [1]",
   "referenced_type" : "_ZTIm",
   "self_type" : "_ZTIA1_m",
   "size" : 4,
   "source_file" : "/out/soong/.intermediates/bionic/libc/libc.llndk/android_vendor.30_arm_armv8-a_shared/gen/include/sched.h"
  },
  {
   "alignment" : 2,
   "linker_set_key" : "_ZTIA1_t",
   "name" : "unsigned short [1]",
   "referenced_type" : "_ZTIt",
   "self_type" : "_ZTIA1_t",
   "size" : 2,
   "source_file" : "/bionic/libc/kernel/uapi/linux/stat.h"
  },
  {
   "alignment" : 4,
   "linker_set_key" : "_ZTIA24_NSt3__112basic_stringIcNS_11char_traitsIcEENS_9allocatorIcEEEE",
   "name" : "std::__1::basic_string<char> [24]",
   "referenced_type" : "_ZTINSt3__112basic_stringIcNS_11char_traitsIcEENS_9allocatorIcEEEE",
   "self_type" : "_ZTIA24_NSt3__112basic_stringIcNS_11char_traitsIcEENS_9allocatorIcEEEE",
   "size" : 288,
   "source_file" : "/external/libcxx/include/locale"
  },
  {
   "alignment" : 4,
   "linker_set_key" : "_ZTIA24_NSt3__112basic_stringIwNS_11char_traitsIwEENS_9allocatorIwEEEE",
   "name" : "std::__1::basic_string<wchar_t> [24]",
   "referenced_type" : "_ZTINSt3__112basic_stringIwNS_11char_traitsIwEENS_9allocatorIwEEEE",
   "self_type" : "_ZTIA24_NSt3__112basic_stringIwNS_11char_traitsIwEENS_9allocatorIwEEEE",
   "size" : 288,
   "source_file" : "/external/libcxx/include/locale"
  },
  {
   "alignment" : 1,
   "linker_set_key" : "_ZTIA256_c",
   "name" : "char [256]",
   "referenced_type" : "_ZTIc",
   "self_type" : "_ZTIA256_c",
   "size" : 256,
   "source_file" : "/out/soong/.intermediates/bionic/libc/libc.llndk/android_vendor.30_arm_armv8-a_shared/gen/include/dirent.h"
  },
  {
   "alignment" : 4,
   "linker_set_key" : "_ZTIA2_Di",
   "name" : "char32_t [2]",
   "referenced_type" : "_ZTIDi",
   "self_type" : "_ZTIA2_Di",
   "size" : 8,
   "source_file" : "/external/libcxx/include/string"
  },
  {
   "alignment" : 4,
   "linker_set_key" : "_ZTIA2_NSt3__112basic_stringIcNS_11char_traitsIcEENS_9allocatorIcEEEE",
   "name" : "std::__1::basic_string<char> [2]",
   "referenced_type" : "_ZTINSt3__112basic_stringIcNS_11char_traitsIcEENS_9allocatorIcEEEE",
   "self_type" : "_ZTIA2_NSt3__112basic_stringIcNS_11char_traitsIcEENS_9allocatorIcEEEE",
   "size" : 24,
   "source_file" : "/external/libcxx/include/locale"
  },
  {
   "alignment" : 4,
   "linker_set_key" : "_ZTIA2_NSt3__112basic_stringIwNS_11char_traitsIwEENS_9allocatorIwEEEE",
   "name" : "std::__1::basic_string<wchar_t> [2]",
   "referenced_type" : "_ZTINSt3__112basic_stringIwNS_11char_traitsIwEENS_9allocatorIwEEEE",
   "self_type" : "_ZTIA2_NSt3__112basic_stringIwNS_11char_traitsIwEENS_9allocatorIwEEEE",
   "size" : 24,
   "source_file" : "/external/libcxx/include/locale"
  },
  {
   "alignment" : 1,
   "linker_set_key" : "_ZTIA2_c",
   "name" : "char [2]",
   "referenced_type" : "_ZTIc",
   "self_type" : "_ZTIA2_c",
   "size" : 2,
   "source_file" : "/external/libcxx/include/type_traits"
  },
  {
   "alignment" : 4,
   "linker_set_key" : "_ZTIA2_i",
   "name" : "int [2]",
   "referenced_type" : "_ZTIi",
   "self_type" : "_ZTIA2_i",
   "size" : 8,
   "source_file" : "/bionic/libc/kernel/uapi/asm-generic/posix_types.h"
  },
  {
   "alignment" : 4,
   "linker_set_key" : "_ZTIA2_m",
   "name" : "unsigned long [2]",
   "referenced_type" : "_ZTIm",
   "self_type" : "_ZTIA2_m",
   "size" : 8,
   "source_file" : "/out/soong/.intermediates/bionic/libc/libc.llndk/android_vendor.30_arm_armv8-a_shared/gen/include/bits/signal_types.h"
  },
  {
   "alignment" : 4,
   "linker_set_key" : "_ZTIA2_w",
   "name" : "wchar_t [2]",
   "referenced_type" : "_ZTIw",
   "self_type" : "_ZTIA2_w",
   "size" : 8,
   "source_file" : "/external/libcxx/include/string"
  },
  {
   "alignment" : 1,
   "linker_set_key" : "_ZTIA32_c",
   "name" : "char [32]",
   "referenced_type" : "_ZTIc",
   "self_type" : "_ZTIA32_c",
   "size" : 32,
   "source_file" : "/out/soong/.intermediates/bionic/libc/libc.llndk/android_vendor.30_arm_armv8-a_shared/gen/include/sys/user.h"
  },
  {
   "alignment" : 4,
   "linker_set_key" : "_ZTIA32_i",
   "name" : "int [32]",
   "referenced_type" : "_ZTIi",
   "self_type" : "_ZTIA32_i",
   "size" : 128,
   "source_file" : "/bionic/libc/kernel/uapi/asm-generic/siginfo.h"
  },
  {
   "alignment" : 4,
   "linker_set_key" : "_ZTIA32_m",
   "name" : "unsigned long [32]",
   "referenced_type" : "_ZTIm",
   "self_type" : "_ZTIA32_m",
   "size" : 128,
   "source_file" : "/bionic/libc/kernel/uapi/linux/posix_types.h"
  },
  {
   "alignment" : 8,
   "linker_set_key" : "_ZTIA32_y",
   "name" : "unsigned long long [32]",
   "referenced_type" : "_ZTIy",
   "self_type" : "_ZTIA32_y",
   "size" : 256,
   "source_file" : "/out/soong/.intermediates/bionic/libc/libc.llndk/android_vendor.30_arm_armv8-a_shared/gen/include/sys/user.h"
  },
  {
   "alignment" : 1,
   "linker_set_key" : "_ZTIA33_c",
   "name" : "char [33]",
   "referenced_type" : "_ZTIc",
   "self_type" : "_ZTIA33_c",
   "size" : 33,
   "source_file" : "/external/libcxx/include/locale"
  },
  {
   "alignment" : 4,
   "linker_set_key" : "_ZTIA3_N7android4hidl4base4V1_09DebugInfo12ArchitectureE",
   "name" : "android::hidl::base::V1_0::DebugInfo::Architecture [3]",
   "referenced_type" : "_ZTIN7android4hidl4base4V1_09DebugInfo12ArchitectureE",
   "self_type" : "_ZTIA3_N7android4hidl4base4V1_09DebugInfo12ArchitectureE",
   "size" : 12,
   "source_file" : "/external/libcxx/include/array"
  },
  {
   "alignment" : 1,
   "linker_set_key" : "_ZTIA3_c",
   "name" : "char [3]",
   "referenced_type" : "_ZTIc",
   "self_type" : "_ZTIA3_c",
   "size" : 3,
   "source_file" : "/external/libcxx/include/type_traits"
  },
  {
   "alignment" : 1,
   "linker_set_key" : "_ZTIA3_h",
   "name" : "unsigned char [3]",
   "referenced_type" : "_ZTIh",
   "self_type" : "_ZTIA3_h",
   "size" : 3,
   "source_file" : "/system/libhidl/base/include/hidl/HidlSupport.h"
  },
  {
   "alignment" : 4,
   "linker_set_key" : "_ZTIA3_j",
   "name" : "unsigned int [3]",
   "referenced_type" : "_ZTIj",
   "self_type" : "_ZTIA3_j",
   "size" : 12,
   "source_file" : "/external/libcxx/include/string"
  },
  {
   "alignment" : 1,
   "linker_set_key" : "_ZTIA4_c",
   "name" : "char [4]",
   "referenced_type" : "_ZTIc",
   "self_type" : "_ZTIA4_c",
   "size" : 4,
   "source_file" : "/bionic/libc/kernel/uapi/asm-generic/siginfo.h"
  },
  {
   "alignment" : 8,
   "linker_set_key" : "_ZTIA4_d",
   "name" : "double [4]",
   "referenced_type" : "_ZTId",
   "self_type" : "_ZTIA4_d",
   "size" : 32,
   "source_file" : "/external/libcxx/include/type_traits"
  },
  {
   "alignment" : 1,
   "linker_set_key" : "_ZTIA4_h",
   "name" : "unsigned char [4]",
   "referenced_type" : "_ZTIh",
   "self_type" : "_ZTIA4_h",
   "size" : 4,
   "source_file" : "/out/soong/.intermediates/bionic/libc/libc.llndk/android_vendor.30_arm_armv8-a_shared/gen/include/bits/mbstate_t.h"
  },
  {
   "alignment" : 1,
   "linker_set_key" : "_ZTIA5121_h",
   "name" : "unsigned char [5121]",
   "referenced_type" : "_ZTIh",
   "self_type" : "_ZTIA5121_h",
   "size" : 5121,
   "source_file" : "/system/core/liblog/include/log/log_read.h"
  },
  {
   "alignment" : 2,
   "linker_set_key" : "_ZTIA5_Ds",
   "name" : "char16_t [5]",
   "referenced_type" : "_ZTIDs",
   "self_type" : "_ZTIA5_Ds",
   "size" : 10,
   "source_file" : "/external/libcxx/include/string"
  },
  {
   "alignment" : 4,
   "linker_set_key" : "_ZTIA65_PKc",
   "name" : "const char *[65]",
   "referenced_type" : "_ZTIPKc",
   "self_type" : "_ZTIA65_PKc",
   "size" : 260,
   "source_file" : "/out/soong/.intermediates/bionic/libc/libc.llndk/android_vendor.30_arm_armv8-a_shared/gen/include/signal.h"
  },
  {
   "alignment" : 1,
   "linker_set_key" : "_ZTIA7_h",
   "name" : "unsigned char [7]",
   "referenced_type" : "_ZTIh",
   "self_type" : "_ZTIA7_h",
   "size" : 7,
   "source_file" : "/system/libhidl/base/include/hidl/HidlSupport.h"
  },
  {
   "alignment" : 4,
   "linker_set_key" : "_ZTIA8_N11user_fpregs6fp_regE",
   "name" : "user_fpregs::fp_reg [8]",
   "referenced_type" : "_ZTIN11user_fpregs6fp_regE",
   "self_type" : "_ZTIA8_N11user_fpregs6fp_regE",
   "size" : 96,
   "source_file" : "/out/soong/.intermediates/bionic/libc/libc.llndk/android_vendor.30_arm_armv8-a_shared/gen/include/sys/user.h"
  },
  {
   "alignment" : 1,
   "linker_set_key" : "_ZTIA8_c",
   "name" : "char [8]",
   "referenced_type" : "_ZTIc",
   "self_type" : "_ZTIA8_c",
   "size" : 8,
   "source_file" : "/external/libcxx/include/type_traits"
  },
  {
   "alignment" : 1,
   "linker_set_key" : "_ZTIA8_h",
   "name" : "unsigned char [8]",
   "referenced_type" : "_ZTIh",
   "self_type" : "_ZTIA8_h",
   "size" : 8,
   "source_file" : "/out/soong/.intermediates/bionic/libc/libc.llndk/android_vendor.30_arm_armv8-a_shared/gen/include/sys/user.h"
  },
  {
   "alignment" : 4,
   "linker_set_key" : "_ZTIA8_i",
   "name" : "int [8]",
   "referenced_type" : "_ZTIi",
   "self_type" : "_ZTIA8_i",
   "size" : 32,
   "source_file" : "/out/soong/.intermediates/bionic/libc/libc.llndk/android_vendor.30_arm_armv8-a_shared/gen/include/bits/pthread_types.h"
  },
  {
   "alignment" : 1,
   "linker_set_key" : "_ZTIA9_c",
   "name" : "char [9]",
   "referenced_type" : "_ZTIc",
   "self_type" : "_ZTIA9_c",
   "size" : 9,
   "source_file" : "/external/libcxx/include/type_traits"
  },
  {
   "linker_set_key" : "_ZTIA_Pc",
   "name" : "char *[]",
   "referenced_type" : "_ZTIPc",
   "self_type" : "_ZTIA_Pc",
   "source_file" : "/out/soong/.intermediates/bionic/libc/libc.llndk/android_vendor.30_arm_armv8-a_shared/gen/include/time.h"
  }
 ],
 "builtin_types" :
 [
  {
   "alignment" : 4,
   "is_integral" : true,
   "is_unsigned" : true,
   "linker_set_key" : "_ZTIDi",
   "name" : "char32_t",
   "referenced_type" : "_ZTIDi",
   "self_type" : "_ZTIDi",
   "size" : 4
  },
  {
   "alignment" : 4,
   "linker_set_key" : "_ZTIDn",
   "name" : "nullptr_t",
   "referenced_type" : "_ZTIDn",
   "self_type" : "_ZTIDn",
   "size" : 4
  },
  {
   "alignment" : 2,
   "is_integral" : true,
   "is_unsigned" : true,
   "linker_set_key" : "_ZTIDs",
   "name" : "char16_t",
   "referenced_type" : "_ZTIDs",
   "self_type" : "_ZTIDs",
   "size" : 2
  },
  {
   "alignment" : 1,
   "is_integral" : true,
   "linker_set_key" : "_ZTIa",
   "name" : "signed char",
   "referenced_type" : "_ZTIa",
   "self_type" : "_ZTIa",
   "size" : 1
  },
  {
   "alignment" : 1,
   "is_integral" : true,
   "is_unsigned" : true,
   "linker_set_key" : "_ZTIb",
   "name" : "bool",
   "referenced_type" : "_ZTIb",
   "self_type" : "_ZTIb",
   "size" : 1
  },
  {
   "alignment" : 1,
   "is_integral" : true,
   "is_unsigned" : true,
   "linker_set_key" : "_ZTIc",
   "name" : "char",
   "referenced_type" : "_ZTIc",
   "self_type" : "_ZTIc",
   "size" : 1
  },
  {
   "alignment" : 8,
   "linker_set_key" : "_ZTId",
   "name" : "double",
   "referenced_type" : "_ZTId",
   "self_type" : "_ZTId",
   "size" : 8
  },
  {
   "alignment" : 8,
   "linker_set_key" : "_ZTIe",
   "name" : "long double",
   "referenced_type" : "_ZTIe",
   "self_type" : "_ZTIe",
   "size" : 8
  },
  {
   "alignment" : 4,
   "linker_set_key" : "_ZTIf",
   "name" : "float",
   "referenced_type" : "_ZTIf",
   "self_type" : "_ZTIf",
   "size" : 4
  },
  {
   "alignment" : 1,
   "is_integral" : true,
   "is_unsigned" : true,
   "linker_set_key" : "_ZTIh",
   "name" : "unsigned char",
   "referenced_type" : "_ZTIh",
   "self_type" : "_ZTIh",
   "size" : 1
  },
  {
   "alignment" : 4,
   "is_integral" : true,
   "linker_set_key" : "_ZTIi",
   "name" : "int",
   "referenced_type" : "_ZTIi",
   "self_type" : "_ZTIi",
   "size" : 4
  },
  {
   "alignment" : 4,
   "is_integral" : true,
   "is_unsigned" : true,
   "linker_set_key" : "_ZTIj",
   "name" : "unsigned int",
   "referenced_type" : "_ZTIj",
   "self_type" : "_ZTIj",
   "size" : 4
  },
  {
   "alignment" : 4,
   "is_integral" : true,
   "linker_set_key" : "_ZTIl",
   "name" : "long",
   "referenced_type" : "_ZTIl",
   "self_type" : "_ZTIl",
   "size" : 4
  },
  {
   "alignment" : 4,
   "is_integral" : true,
   "is_unsigned" : true,
   "linker_set_key" : "_ZTIm",
   "name" : "unsigned long",
   "referenced_type" : "_ZTIm",
   "self_type" : "_ZTIm",
   "size" : 4
  },
  {
   "alignment" : 2,
   "is_integral" : true,
   "linker_set_key" : "_ZTIs",
   "name" : "short",
   "referenced_type" : "_ZTIs",
   "self_type" : "_ZTIs",
   "size" : 2
  },
  {
   "alignment" : 2,
   "is_integral" : true,
   "is_unsigned" : true,
   "linker_set_key" : "_ZTIt",
   "name" : "unsigned short",
   "referenced_type" : "_ZTIt",
   "self_type" : "_ZTIt",
   "size" : 2
  },
  {
   "linker_set_key" : "_ZTIv",
   "name" : "void",
   "referenced_type" : "_ZTIv",
   "self_type" : "_ZTIv"
  },
  {
   "alignment" : 4,
   "is_integral" : true,
   "is_unsigned" : true,
   "linker_set_key" : "_ZTIw",
   "name" : "wchar_t",
   "referenced_type" : "_ZTIw",
   "self_type" : "_ZTIw",
   "size" : 4
  },
  {
   "alignment" : 8,
   "is_integral" : true,
   "linker_set_key" : "_ZTIx",
   "name" : "long long",
   "referenced_type" : "_ZTIx",
   "self_type" : "_ZTIx",
   "size" : 8
  },
  {
   "alignment" : 8,
   "is_integral" : true,
   "is_unsigned" : true,
   "linker_set_key" : "_ZTIy",
   "name" : "unsigned long long",
   "referenced_type" : "_ZTIy",
   "self_type" : "_ZTIy",
   "size" : 8
  }
 ],
 "elf_functions" :
 [
  {
   "name" : "HIDL_FETCH_IMapper"
  },
  {
   "name" : "_ZN7android4hidl6memory4V1_014implementation12AshmemMapper9mapMemoryERKNS_8hardware11hidl_memoryE"
  },
  {
   "name" : "_ZN7android4hidl6memory4V1_014implementation12AshmemMemory10getPointerEv"
  },
  {
   "name" : "_ZN7android4hidl6memory4V1_014implementation12AshmemMemory11updateRangeEyy"
  },
  {
   "name" : "_ZN7android4hidl6memory4V1_014implementation12AshmemMemory4readEv"
  },
  {
   "name" : "_ZN7android4hidl6memory4V1_014implementation12AshmemMemory6commitEv"
  },
  {
   "name" : "_ZN7android4hidl6memory4V1_014implementation12AshmemMemory6updateEv"
  },
  {
   "name" : "_ZN7android4hidl6memory4V1_014implementation12AshmemMemory7getSizeEv"
  },
  {
   "name" : "_ZN7android4hidl6memory4V1_014implementation12AshmemMemory9readRangeEyy"
  },
  {
   "name" : "_ZN7android4hidl6memory4V1_014implementation12AshmemMemoryC1ERKNS_8hardware11hidl_memoryEPv"
  },
  {
   "name" : "_ZN7android4hidl6memory4V1_014implementation12AshmemMemoryC2ERKNS_8hardware11hidl_memoryEPv"
  },
  {
   "name" : "_ZN7android4hidl6memory4V1_014implementation12AshmemMemoryD0Ev"
  },
  {
   "name" : "_ZN7android4hidl6memory4V1_014implementation12AshmemMemoryD1Ev"
  },
  {
   "name" : "_ZN7android4hidl6memory4V1_014implementation12AshmemMemoryD2Ev"
  },
  {
   "name" : "_ZTv0_n12_N7android4hidl6memory4V1_014implementation12AshmemMemoryD0Ev"
  },
  {
   "name" : "_ZTv0_n12_N7android4hidl6memory4V1_014implementation12AshmemMemoryD1Ev"
  }
 ],
 "elf_objects" :
 [
  {
   "name" : "_ZTCN7android4hidl6memory4V1_014implementation12AshmemMapperE0_NS0_4base4V1_05IBaseE"
  },
  {
   "name" : "_ZTCN7android4hidl6memory4V1_014implementation12AshmemMapperE0_NS2_7IMapperE"
  },
  {
   "name" : "_ZTCN7android4hidl6memory4V1_014implementation12AshmemMemoryE0_NS0_4base4V1_05IBaseE"
  },
  {
   "name" : "_ZTCN7android4hidl6memory4V1_014implementation12AshmemMemoryE0_NS2_7IMemoryE"
  },
  {
   "name" : "_ZTTN7android4hidl6memory4V1_014implementation12AshmemMapperE"
  },
  {
   "name" : "_ZTTN7android4hidl6memory4V1_014implementation12AshmemMemoryE"
  },
  {
   "name" : "_ZTVN7android4hidl6memory4V1_014implementation12AshmemMapperE"
  },
  {
   "name" : "_ZTVN7android4hidl6memory4V1_014implementation12AshmemMemoryE"
  }
 ],
 "enum_types" :
 [
  {
   "alignment" : 4,
   "enum_fields" :
   [
    {
     "enum_field_value" : 0,
     "name" : "ANDROID_LOG_UNKNOWN"
    },
    {
     "enum_field_value" : 1,
     "name" : "ANDROID_LOG_DEFAULT"
    },
    {
     "enum_field_value" : 2,
     "name" : "ANDROID_LOG_VERBOSE"
    },
    {
     "enum_field_value" : 3,
     "name" : "ANDROID_LOG_DEBUG"
    },
    {
     "enum_field_value" : 4,
     "name" : "ANDROID_LOG_INFO"
    },
    {
     "enum_field_value" : 5,
     "name" : "ANDROID_LOG_WARN"
    },
    {
     "enum_field_value" : 6,
     "name" : "ANDROID_LOG_ERROR"
    },
    {
     "enum_field_value" : 7,
     "name" : "ANDROID_LOG_FATAL"
    },
    {
     "enum_field_value" : 8,
     "name" : "ANDROID_LOG_SILENT"
    }
   ],
   "linker_set_key" : "_ZTI19android_LogPriority",
   "name" : "android_LogPriority",
   "referenced_type" : "_ZTI19android_LogPriority",
   "self_type" : "_ZTI19android_LogPriority",
   "size" : 4,
   "source_file" : "/system/core/liblog/include/android/log.h",
   "underlying_type" : "_ZTIj"
  },
  {
   "alignment" : 4,
   "enum_fields" :
   [
    {
     "enum_field_value" : 0,
     "name" : "PTHREAD_MUTEX_NORMAL"
    },
    {
     "enum_field_value" : 1,
     "name" : "PTHREAD_MUTEX_RECURSIVE"
    },
    {
     "enum_field_value" : 2,
     "name" : "PTHREAD_MUTEX_ERRORCHECK"
    },
    {
     "enum_field_value" : 2,
     "name" : "PTHREAD_MUTEX_ERRORCHECK_NP"
    },
    {
     "enum_field_value" : 1,
     "name" : "PTHREAD_MUTEX_RECURSIVE_NP"
    },
    {
     "enum_field_value" : 0,
     "name" : "PTHREAD_MUTEX_DEFAULT"
    }
   ],
   "linker_set_key" : "_ZTI22$PTHREAD_MUTEX_DEFAULT",
   "name" : "(anonymous enum at out/soong/.intermediates/bionic/libc/libc.llndk/android_vendor.30_arm_armv8-a_shared/gen/include/pthread.h:41:1)",
   "referenced_type" : "_ZTI22$PTHREAD_MUTEX_DEFAULT",
   "self_type" : "_ZTI22$PTHREAD_MUTEX_DEFAULT",
   "size" : 4,
   "source_file" : "/out/soong/.intermediates/bionic/libc/libc.llndk/android_vendor.30_arm_armv8-a_shared/gen/include/pthread.h",
   "underlying_type" : "_ZTIj"
  },
  {
   "alignment" : 4,
   "enum_fields" :
   [
    {
     "enum_field_value" : 0,
     "name" : "PTHREAD_RWLOCK_PREFER_READER_NP"
    },
    {
     "enum_field_value" : 1,
     "name" : "PTHREAD_RWLOCK_PREFER_WRITER_NONRECURSIVE_NP"
    }
   ],
   "linker_set_key" : "_ZTI32$PTHREAD_RWLOCK_PREFER_READER_NP",
   "name" : "(anonymous enum at out/soong/.intermediates/bionic/libc/libc.llndk/android_vendor.30_arm_armv8-a_shared/gen/include/pthread.h:63:1)",
   "referenced_type" : "_ZTI32$PTHREAD_RWLOCK_PREFER_READER_NP",
   "self_type" : "_ZTI32$PTHREAD_RWLOCK_PREFER_READER_NP",
   "size" : 4,
   "source_file" : "/out/soong/.intermediates/bionic/libc/libc.llndk/android_vendor.30_arm_armv8-a_shared/gen/include/pthread.h",
   "underlying_type" : "_ZTIj"
  },
  {
   "alignment" : 4,
   "enum_fields" :
   [
    {
     "enum_field_value" : 0,
     "name" : "LOG_ID_MIN"
    },
    {
     "enum_field_value" : 0,
     "name" : "LOG_ID_MAIN"
    },
    {
     "enum_field_value" : 1,
     "name" : "LOG_ID_RADIO"
    },
    {
     "enum_field_value" : 2,
     "name" : "LOG_ID_EVENTS"
    },
    {
     "enum_field_value" : 3,
     "name" : "LOG_ID_SYSTEM"
    },
    {
     "enum_field_value" : 4,
     "name" : "LOG_ID_CRASH"
    },
    {
     "enum_field_value" : 5,
     "name" : "LOG_ID_STATS"
    },
    {
     "enum_field_value" : 6,
     "name" : "LOG_ID_SECURITY"
    },
    {
     "enum_field_value" : 7,
     "name" : "LOG_ID_KERNEL"
    },
    {
     "enum_field_value" : 8,
     "name" : "LOG_ID_MAX"
    },
    {
     "enum_field_value" : 2147483647,
     "name" : "LOG_ID_DEFAULT"
    }
   ],
   "linker_set_key" : "_ZTI6log_id",
   "name" : "log_id",
   "referenced_type" : "_ZTI6log_id",
   "self_type" : "_ZTI6log_id",
   "size" : 4,
   "source_file" : "/system/core/liblog/include/android/log.h",
   "underlying_type" : "_ZTIj"
  },
  {
   "alignment" : 4,
   "enum_fields" :
   [
    {
     "enum_field_value" : 0,
     "name" : "REG_R0"
    },
    {
     "enum_field_value" : 1,
     "name" : "REG_R1"
    },
    {
     "enum_field_value" : 2,
     "name" : "REG_R2"
    },
    {
     "enum_field_value" : 3,
     "name" : "REG_R3"
    },
    {
     "enum_field_value" : 4,
     "name" : "REG_R4"
    },
    {
     "enum_field_value" : 5,
     "name" : "REG_R5"
    },
    {
     "enum_field_value" : 6,
     "name" : "REG_R6"
    },
    {
     "enum_field_value" : 7,
     "name" : "REG_R7"
    },
    {
     "enum_field_value" : 8,
     "name" : "REG_R8"
    },
    {
     "enum_field_value" : 9,
     "name" : "REG_R9"
    },
    {
     "enum_field_value" : 10,
     "name" : "REG_R10"
    },
    {
     "enum_field_value" : 11,
     "name" : "REG_R11"
    },
    {
     "enum_field_value" : 12,
     "name" : "REG_R12"
    },
    {
     "enum_field_value" : 13,
     "name" : "REG_R13"
    },
    {
     "enum_field_value" : 14,
     "name" : "REG_R14"
    },
    {
     "enum_field_value" : 15,
     "name" : "REG_R15"
    }
   ],
   "linker_set_key" : "_ZTI7$REG_R0",
   "name" : "(anonymous enum at out/soong/.intermediates/bionic/libc/libc.llndk/android_vendor.30_arm_armv8-a_shared/gen/include/sys/ucontext.h:41:1)",
   "referenced_type" : "_ZTI7$REG_R0",
   "self_type" : "_ZTI7$REG_R0",
   "size" : 4,
   "source_file" : "/out/soong/.intermediates/bionic/libc/libc.llndk/android_vendor.30_arm_armv8-a_shared/gen/include/sys/ucontext.h",
   "underlying_type" : "_ZTIj"
  },
  {
   "alignment" : 4,
   "enum_fields" :
   [
    {
     "enum_field_value" : 0,
     "name" : "android::OK"
    },
    {
     "enum_field_value" : 0,
     "name" : "android::NO_ERROR"
    },
    {
     "enum_field_value" : -2147483648,
     "name" : "android::UNKNOWN_ERROR"
    },
    {
     "enum_field_value" : -12,
     "name" : "android::NO_MEMORY"
    },
    {
     "enum_field_value" : -38,
     "name" : "android::INVALID_OPERATION"
    },
    {
     "enum_field_value" : -22,
     "name" : "android::BAD_VALUE"
    },
    {
     "enum_field_value" : -2147483647,
     "name" : "android::BAD_TYPE"
    },
    {
     "enum_field_value" : -2,
     "name" : "android::NAME_NOT_FOUND"
    },
    {
     "enum_field_value" : -1,
     "name" : "android::PERMISSION_DENIED"
    },
    {
     "enum_field_value" : -19,
     "name" : "android::NO_INIT"
    },
    {
     "enum_field_value" : -17,
     "name" : "android::ALREADY_EXISTS"
    },
    {
     "enum_field_value" : -32,
     "name" : "android::DEAD_OBJECT"
    },
    {
     "enum_field_value" : -2147483646,
     "name" : "android::FAILED_TRANSACTION"
    },
    {
     "enum_field_value" : -75,
     "name" : "android::BAD_INDEX"
    },
    {
     "enum_field_value" : -61,
     "name" : "android::NOT_ENOUGH_DATA"
    },
    {
     "enum_field_value" : -11,
     "name" : "android::WOULD_BLOCK"
    },
    {
     "enum_field_value" : -110,
     "name" : "android::TIMED_OUT"
    },
    {
     "enum_field_value" : -74,
     "name" : "android::UNKNOWN_TRANSACTION"
    },
    {
     "enum_field_value" : -2147483641,
     "name" : "android::FDS_NOT_ALLOWED"
    },
    {
     "enum_field_value" : -2147483640,
     "name" : "android::UNEXPECTED_NULL"
    }
   ],
   "linker_set_key" : "_ZTIN7android15$ALREADY_EXISTSE",
   "name" : "android::(anonymous enum at system/core/libutils/include/utils/Errors.h:43:1)",
   "referenced_type" : "_ZTIN7android15$ALREADY_EXISTSE",
   "self_type" : "_ZTIN7android15$ALREADY_EXISTSE",
   "size" : 4,
   "source_file" : "/system/core/libutils/include/utils/Errors.h",
   "underlying_type" : "_ZTIi"
  },
  {
   "alignment" : 4,
   "enum_fields" :
   [
    {
     "enum_field_value" : 1,
     "name" : "android::trait_trivial_copy<bool>::value"
    }
   ],
   "linker_set_key" : "_ZTIN7android18trait_trivial_copyIbE6$valueE",
   "name" : "android::trait_trivial_copy<bool>::(anonymous enum at system/core/libutils/include/utils/TypeHelpers.h:98:1)",
   "referenced_type" : "_ZTIN7android18trait_trivial_copyIbE6$valueE",
   "self_type" : "_ZTIN7android18trait_trivial_copyIbE6$valueE",
   "size" : 4,
   "source_file" : "/system/core/libutils/include/utils/TypeHelpers.h",
   "underlying_type" : "_ZTIj"
  },
  {
   "alignment" : 4,
   "enum_fields" :
   [
    {
     "enum_field_value" : 1,
     "name" : "android::trait_trivial_copy<char>::value"
    }
   ],
   "linker_set_key" : "_ZTIN7android18trait_trivial_copyIcE6$valueE",
   "name" : "android::trait_trivial_copy<char>::(anonymous enum at system/core/libutils/include/utils/TypeHelpers.h:99:1)",
   "referenced_type" : "_ZTIN7android18trait_trivial_copyIcE6$valueE",
   "self_type" : "_ZTIN7android18trait_trivial_copyIcE6$valueE",
   "size" : 4,
   "source_file" : "/system/core/libutils/include/utils/TypeHelpers.h",
   "underlying_type" : "_ZTIj"
  },
  {
   "alignment" : 4,
   "enum_fields" :
   [
    {
     "enum_field_value" : 1,
     "name" : "android::trait_trivial_copy<double>::value"
    }
   ],
   "linker_set_key" : "_ZTIN7android18trait_trivial_copyIdE6$valueE",
   "name" : "android::trait_trivial_copy<double>::(anonymous enum at system/core/libutils/include/utils/TypeHelpers.h:110:1)",
   "referenced_type" : "_ZTIN7android18trait_trivial_copyIdE6$valueE",
   "self_type" : "_ZTIN7android18trait_trivial_copyIdE6$valueE",
   "size" : 4,
   "source_file" : "/system/core/libutils/include/utils/TypeHelpers.h",
   "underlying_type" : "_ZTIj"
  },
  {
   "alignment" : 4,
   "enum_fields" :
   [
    {
     "enum_field_value" : 1,
     "name" : "android::trait_trivial_copy<float>::value"
    }
   ],
   "linker_set_key" : "_ZTIN7android18trait_trivial_copyIfE6$valueE",
   "name" : "android::trait_trivial_copy<float>::(anonymous enum at system/core/libutils/include/utils/TypeHelpers.h:109:1)",
   "referenced_type" : "_ZTIN7android18trait_trivial_copyIfE6$valueE",
   "self_type" : "_ZTIN7android18trait_trivial_copyIfE6$valueE",
   "size" : 4,
   "source_file" : "/system/core/libutils/include/utils/TypeHelpers.h",
   "underlying_type" : "_ZTIj"
  },
  {
   "alignment" : 4,
   "enum_fields" :
   [
    {
     "enum_field_value" : 1,
     "name" : "android::trait_trivial_copy<unsigned char>::value"
    }
   ],
   "linker_set_key" : "_ZTIN7android18trait_trivial_copyIhE6$valueE",
   "name" : "android::trait_trivial_copy<unsigned char>::(anonymous enum at system/core/libutils/include/utils/TypeHelpers.h:100:1)",
   "referenced_type" : "_ZTIN7android18trait_trivial_copyIhE6$valueE",
   "self_type" : "_ZTIN7android18trait_trivial_copyIhE6$valueE",
   "size" : 4,
   "source_file" : "/system/core/libutils/include/utils/TypeHelpers.h",
   "underlying_type" : "_ZTIj"
  },
  {
   "alignment" : 4,
   "enum_fields" :
   [
    {
     "enum_field_value" : 1,
     "name" : "android::trait_trivial_copy<int>::value"
    }
   ],
   "linker_set_key" : "_ZTIN7android18trait_trivial_copyIiE6$valueE",
   "name" : "android::trait_trivial_copy<int>::(anonymous enum at system/core/libutils/include/utils/TypeHelpers.h:103:1)",
   "referenced_type" : "_ZTIN7android18trait_trivial_copyIiE6$valueE",
   "self_type" : "_ZTIN7android18trait_trivial_copyIiE6$valueE",
   "size" : 4,
   "source_file" : "/system/core/libutils/include/utils/TypeHelpers.h",
   "underlying_type" : "_ZTIj"
  },
  {
   "alignment" : 4,
   "enum_fields" :
   [
    {
     "enum_field_value" : 1,
     "name" : "android::trait_trivial_copy<unsigned int>::value"
    }
   ],
   "linker_set_key" : "_ZTIN7android18trait_trivial_copyIjE6$valueE",
   "name" : "android::trait_trivial_copy<unsigned int>::(anonymous enum at system/core/libutils/include/utils/TypeHelpers.h:104:1)",
   "referenced_type" : "_ZTIN7android18trait_trivial_copyIjE6$valueE",
   "self_type" : "_ZTIN7android18trait_trivial_copyIjE6$valueE",
   "size" : 4,
   "source_file" : "/system/core/libutils/include/utils/TypeHelpers.h",
   "underlying_type" : "_ZTIj"
  },
  {
   "alignment" : 4,
   "enum_fields" :
   [
    {
     "enum_field_value" : 1,
     "name" : "android::trait_trivial_copy<long>::value"
    }
   ],
   "linker_set_key" : "_ZTIN7android18trait_trivial_copyIlE6$valueE",
   "name" : "android::trait_trivial_copy<long>::(anonymous enum at system/core/libutils/include/utils/TypeHelpers.h:105:1)",
   "referenced_type" : "_ZTIN7android18trait_trivial_copyIlE6$valueE",
   "self_type" : "_ZTIN7android18trait_trivial_copyIlE6$valueE",
   "size" : 4,
   "source_file" : "/system/core/libutils/include/utils/TypeHelpers.h",
   "underlying_type" : "_ZTIj"
  },
  {
   "alignment" : 4,
   "enum_fields" :
   [
    {
     "enum_field_value" : 1,
     "name" : "android::trait_trivial_copy<unsigned long>::value"
    }
   ],
   "linker_set_key" : "_ZTIN7android18trait_trivial_copyImE6$valueE",
   "name" : "android::trait_trivial_copy<unsigned long>::(anonymous enum at system/core/libutils/include/utils/TypeHelpers.h:106:1)",
   "referenced_type" : "_ZTIN7android18trait_trivial_copyImE6$valueE",
   "self_type" : "_ZTIN7android18trait_trivial_copyImE6$valueE",
   "size" : 4,
   "source_file" : "/system/core/libutils/include/utils/TypeHelpers.h",
   "underlying_type" : "_ZTIj"
  },
  {
   "alignment" : 4,
   "enum_fields" :
   [
    {
     "enum_field_value" : 1,
     "name" : "android::trait_trivial_copy<short>::value"
    }
   ],
   "linker_set_key" : "_ZTIN7android18trait_trivial_copyIsE6$valueE",
   "name" : "android::trait_trivial_copy<short>::(anonymous enum at system/core/libutils/include/utils/TypeHelpers.h:101:1)",
   "referenced_type" : "_ZTIN7android18trait_trivial_copyIsE6$valueE",
   "self_type" : "_ZTIN7android18trait_trivial_copyIsE6$valueE",
   "size" : 4,
   "source_file" : "/system/core/libutils/include/utils/TypeHelpers.h",
   "underlying_type" : "_ZTIj"
  },
  {
   "alignment" : 4,
   "enum_fields" :
   [
    {
     "enum_field_value" : 1,
     "name" : "android::trait_trivial_copy<unsigned short>::value"
    }
   ],
   "linker_set_key" : "_ZTIN7android18trait_trivial_copyItE6$valueE",
   "name" : "android::trait_trivial_copy<unsigned short>::(anonymous enum at system/core/libutils/include/utils/TypeHelpers.h:102:1)",
   "referenced_type" : "_ZTIN7android18trait_trivial_copyItE6$valueE",
   "self_type" : "_ZTIN7android18trait_trivial_copyItE6$valueE",
   "size" : 4,
   "source_file" : "/system/core/libutils/include/utils/TypeHelpers.h",
   "underlying_type" : "_ZTIj"
  },
  {
   "alignment" : 4,
   "enum_fields" :
   [
    {
     "enum_field_value" : 1,
     "name" : "android::trait_trivial_copy<void>::value"
    }
   ],
   "linker_set_key" : "_ZTIN7android18trait_trivial_copyIvE6$valueE",
   "name" : "android::trait_trivial_copy<void>::(anonymous enum at system/core/libutils/include/utils/TypeHelpers.h:97:1)",
   "referenced_type" : "_ZTIN7android18trait_trivial_copyIvE6$valueE",
   "self_type" : "_ZTIN7android18trait_trivial_copyIvE6$valueE",
   "size" : 4,
   "source_file" : "/system/core/libutils/include/utils/TypeHelpers.h",
   "underlying_type" : "_ZTIj"
  },
  {
   "alignment" : 4,
   "enum_fields" :
   [
    {
     "enum_field_value" : 1,
     "name" : "android::trait_trivial_copy<long long>::value"
    }
   ],
   "linker_set_key" : "_ZTIN7android18trait_trivial_copyIxE6$valueE",
   "name" : "android::trait_trivial_copy<long long>::(anonymous enum at system/core/libutils/include/utils/TypeHelpers.h:107:1)",
   "referenced_type" : "_ZTIN7android18trait_trivial_copyIxE6$valueE",
   "self_type" : "_ZTIN7android18trait_trivial_copyIxE6$valueE",
   "size" : 4,
   "source_file" : "/system/core/libutils/include/utils/TypeHelpers.h",
   "underlying_type" : "_ZTIj"
  },
  {
   "alignment" : 4,
   "enum_fields" :
   [
    {
     "enum_field_value" : 1,
     "name" : "android::trait_trivial_copy<unsigned long long>::value"
    }
   ],
   "linker_set_key" : "_ZTIN7android18trait_trivial_copyIyE6$valueE",
   "name" : "android::trait_trivial_copy<unsigned long long>::(anonymous enum at system/core/libutils/include/utils/TypeHelpers.h:108:1)",
   "referenced_type" : "_ZTIN7android18trait_trivial_copyIyE6$valueE",
   "self_type" : "_ZTIN7android18trait_trivial_copyIyE6$valueE",
   "size" : 4,
   "source_file" : "/system/core/libutils/include/utils/TypeHelpers.h",
   "underlying_type" : "_ZTIj"
  },
  {
   "alignment" : 4,
   "enum_fields" :
   [
    {
     "enum_field_value" : 1,
     "name" : "android::trait_trivial_ctor<bool>::value"
    }
   ],
   "linker_set_key" : "_ZTIN7android18trait_trivial_ctorIbE6$valueE",
   "name" : "android::trait_trivial_ctor<bool>::(anonymous enum at system/core/libutils/include/utils/TypeHelpers.h:98:1)",
   "referenced_type" : "_ZTIN7android18trait_trivial_ctorIbE6$valueE",
   "self_type" : "_ZTIN7android18trait_trivial_ctorIbE6$valueE",
   "size" : 4,
   "source_file" : "/system/core/libutils/include/utils/TypeHelpers.h",
   "underlying_type" : "_ZTIj"
  },
  {
   "alignment" : 4,
   "enum_fields" :
   [
    {
     "enum_field_value" : 1,
     "name" : "android::trait_trivial_ctor<char>::value"
    }
   ],
   "linker_set_key" : "_ZTIN7android18trait_trivial_ctorIcE6$valueE",
   "name" : "android::trait_trivial_ctor<char>::(anonymous enum at system/core/libutils/include/utils/TypeHelpers.h:99:1)",
   "referenced_type" : "_ZTIN7android18trait_trivial_ctorIcE6$valueE",
   "self_type" : "_ZTIN7android18trait_trivial_ctorIcE6$valueE",
   "size" : 4,
   "source_file" : "/system/core/libutils/include/utils/TypeHelpers.h",
   "underlying_type" : "_ZTIj"
  },
  {
   "alignment" : 4,
   "enum_fields" :
   [
    {
     "enum_field_value" : 1,
     "name" : "android::trait_trivial_ctor<double>::value"
    }
   ],
   "linker_set_key" : "_ZTIN7android18trait_trivial_ctorIdE6$valueE",
   "name" : "android::trait_trivial_ctor<double>::(anonymous enum at system/core/libutils/include/utils/TypeHelpers.h:110:1)",
   "referenced_type" : "_ZTIN7android18trait_trivial_ctorIdE6$valueE",
   "self_type" : "_ZTIN7android18trait_trivial_ctorIdE6$valueE",
   "size" : 4,
   "source_file" : "/system/core/libutils/include/utils/TypeHelpers.h",
   "underlying_type" : "_ZTIj"
  },
  {
   "alignment" : 4,
   "enum_fields" :
   [
    {
     "enum_field_value" : 1,
     "name" : "android::trait_trivial_ctor<float>::value"
    }
   ],
   "linker_set_key" : "_ZTIN7android18trait_trivial_ctorIfE6$valueE",
   "name" : "android::trait_trivial_ctor<float>::(anonymous enum at system/core/libutils/include/utils/TypeHelpers.h:109:1)",
   "referenced_type" : "_ZTIN7android18trait_trivial_ctorIfE6$valueE",
   "self_type" : "_ZTIN7android18trait_trivial_ctorIfE6$valueE",
   "size" : 4,
   "source_file" : "/system/core/libutils/include/utils/TypeHelpers.h",
   "underlying_type" : "_ZTIj"
  },
  {
   "alignment" : 4,
   "enum_fields" :
   [
    {
     "enum_field_value" : 1,
     "name" : "android::trait_trivial_ctor<unsigned char>::value"
    }
   ],
   "linker_set_key" : "_ZTIN7android18trait_trivial_ctorIhE6$valueE",
   "name" : "android::trait_trivial_ctor<unsigned char>::(anonymous enum at system/core/libutils/include/utils/TypeHelpers.h:100:1)",
   "referenced_type" : "_ZTIN7android18trait_trivial_ctorIhE6$valueE",
   "self_type" : "_ZTIN7android18trait_trivial_ctorIhE6$valueE",
   "size" : 4,
   "source_file" : "/system/core/libutils/include/utils/TypeHelpers.h",
   "underlying_type" : "_ZTIj"
  },
  {
   "alignment" : 4,
   "enum_fields" :
   [
    {
     "enum_field_value" : 1,
     "name" : "android::trait_trivial_ctor<int>::value"
    }
   ],
   "linker_set_key" : "_ZTIN7android18trait_trivial_ctorIiE6$valueE",
   "name" : "android::trait_trivial_ctor<int>::(anonymous enum at system/core/libutils/include/utils/TypeHelpers.h:103:1)",
   "referenced_type" : "_ZTIN7android18trait_trivial_ctorIiE6$valueE",
   "self_type" : "_ZTIN7android18trait_trivial_ctorIiE6$valueE",
   "size" : 4,
   "source_file" : "/system/core/libutils/include/utils/TypeHelpers.h",
   "underlying_type" : "_ZTIj"
  },
  {
   "alignment" : 4,
   "enum_fields" :
   [
    {
     "enum_field_value" : 1,
     "name" : "android::trait_trivial_ctor<unsigned int>::value"
    }
   ],
   "linker_set_key" : "_ZTIN7android18trait_trivial_ctorIjE6$valueE",
   "name" : "android::trait_trivial_ctor<unsigned int>::(anonymous enum at system/core/libutils/include/utils/TypeHelpers.h:104:1)",
   "referenced_type" : "_ZTIN7android18trait_trivial_ctorIjE6$valueE",
   "self_type" : "_ZTIN7android18trait_trivial_ctorIjE6$valueE",
   "size" : 4,
   "source_file" : "/system/core/libutils/include/utils/TypeHelpers.h",
   "underlying_type" : "_ZTIj"
  },
  {
   "alignment" : 4,
   "enum_fields" :
   [
    {
     "enum_field_value" : 1,
     "name" : "android::trait_trivial_ctor<long>::value"
    }
   ],
   "linker_set_key" : "_ZTIN7android18trait_trivial_ctorIlE6$valueE",
   "name" : "android::trait_trivial_ctor<long>::(anonymous enum at system/core/libutils/include/utils/TypeHelpers.h:105:1)",
   "referenced_type" : "_ZTIN7android18trait_trivial_ctorIlE6$valueE",
   "self_type" : "_ZTIN7android18trait_trivial_ctorIlE6$valueE",
   "size" : 4,
   "source_file" : "/system/core/libutils/include/utils/TypeHelpers.h",
   "underlying_type" : "_ZTIj"
  },
  {
   "alignment" : 4,
   "enum_fields" :
   [
    {
     "enum_field_value" : 1,
     "name" : "android::trait_trivial_ctor<unsigned long>::value"
    }
   ],
   "linker_set_key" : "_ZTIN7android18trait_trivial_ctorImE6$valueE",
   "name" : "android::trait_trivial_ctor<unsigned long>::(anonymous enum at system/core/libutils/include/utils/TypeHelpers.h:106:1)",
   "referenced_type" : "_ZTIN7android18trait_trivial_ctorImE6$valueE",
   "self_type" : "_ZTIN7android18trait_trivial_ctorImE6$valueE",
   "size" : 4,
   "source_file" : "/system/core/libutils/include/utils/TypeHelpers.h",
   "underlying_type" : "_ZTIj"
  },
  {
   "alignment" : 4,
   "enum_fields" :
   [
    {
     "enum_field_value" : 1,
     "name" : "android::trait_trivial_ctor<short>::value"
    }
   ],
   "linker_set_key" : "_ZTIN7android18trait_trivial_ctorIsE6$valueE",
   "name" : "android::trait_trivial_ctor<short>::(anonymous enum at system/core/libutils/include/utils/TypeHelpers.h:101:1)",
   "referenced_type" : "_ZTIN7android18trait_trivial_ctorIsE6$valueE",
   "self_type" : "_ZTIN7android18trait_trivial_ctorIsE6$valueE",
   "size" : 4,
   "source_file" : "/system/core/libutils/include/utils/TypeHelpers.h",
   "underlying_type" : "_ZTIj"
  },
  {
   "alignment" : 4,
   "enum_fields" :
   [
    {
     "enum_field_value" : 1,
     "name" : "android::trait_trivial_ctor<unsigned short>::value"
    }
   ],
   "linker_set_key" : "_ZTIN7android18trait_trivial_ctorItE6$valueE",
   "name" : "android::trait_trivial_ctor<unsigned short>::(anonymous enum at system/core/libutils/include/utils/TypeHelpers.h:102:1)",
   "referenced_type" : "_ZTIN7android18trait_trivial_ctorItE6$valueE",
   "self_type" : "_ZTIN7android18trait_trivial_ctorItE6$valueE",
   "size" : 4,
   "source_file" : "/system/core/libutils/include/utils/TypeHelpers.h",
   "underlying_type" : "_ZTIj"
  },
  {
   "alignment" : 4,
   "enum_fields" :
   [
    {
     "enum_field_value" : 1,
     "name" : "android::trait_trivial_ctor<void>::value"
    }
   ],
   "linker_set_key" : "_ZTIN7android18trait_trivial_ctorIvE6$valueE",
   "name" : "android::trait_trivial_ctor<void>::(anonymous enum at system/core/libutils/include/utils/TypeHelpers.h:97:1)",
   "referenced_type" : "_ZTIN7android18trait_trivial_ctorIvE6$valueE",
   "self_type" : "_ZTIN7android18trait_trivial_ctorIvE6$valueE",
   "size" : 4,
   "source_file" : "/system/core/libutils/include/utils/TypeHelpers.h",
   "underlying_type" : "_ZTIj"
  },
  {
   "alignment" : 4,
   "enum_fields" :
   [
    {
     "enum_field_value" : 1,
     "name" : "android::trait_trivial_ctor<long long>::value"
    }
   ],
   "linker_set_key" : "_ZTIN7android18trait_trivial_ctorIxE6$valueE",
   "name" : "android::trait_trivial_ctor<long long>::(anonymous enum at system/core/libutils/include/utils/TypeHelpers.h:107:1)",
   "referenced_type" : "_ZTIN7android18trait_trivial_ctorIxE6$valueE",
   "self_type" : "_ZTIN7android18trait_trivial_ctorIxE6$valueE",
   "size" : 4,
   "source_file" : "/system/core/libutils/include/utils/TypeHelpers.h",
   "underlying_type" : "_ZTIj"
  },
  {
   "alignment" : 4,
   "enum_fields" :
   [
    {
     "enum_field_value" : 1,
     "name" : "android::trait_trivial_ctor<unsigned long long>::value"
    }
   ],
   "linker_set_key" : "_ZTIN7android18trait_trivial_ctorIyE6$valueE",
   "name" : "android::trait_trivial_ctor<unsigned long long>::(anonymous enum at system/core/libutils/include/utils/TypeHelpers.h:108:1)",
   "referenced_type" : "_ZTIN7android18trait_trivial_ctorIyE6$valueE",
   "self_type" : "_ZTIN7android18trait_trivial_ctorIyE6$valueE",
   "size" : 4,
   "source_file" : "/system/core/libutils/include/utils/TypeHelpers.h",
   "underlying_type" : "_ZTIj"
  },
  {
   "alignment" : 4,
   "enum_fields" :
   [
    {
     "enum_field_value" : 1,
     "name" : "android::trait_trivial_dtor<bool>::value"
    }
   ],
   "linker_set_key" : "_ZTIN7android18trait_trivial_dtorIbE6$valueE",
   "name" : "android::trait_trivial_dtor<bool>::(anonymous enum at system/core/libutils/include/utils/TypeHelpers.h:98:1)",
   "referenced_type" : "_ZTIN7android18trait_trivial_dtorIbE6$valueE",
   "self_type" : "_ZTIN7android18trait_trivial_dtorIbE6$valueE",
   "size" : 4,
   "source_file" : "/system/core/libutils/include/utils/TypeHelpers.h",
   "underlying_type" : "_ZTIj"
  },
  {
   "alignment" : 4,
   "enum_fields" :
   [
    {
     "enum_field_value" : 1,
     "name" : "android::trait_trivial_dtor<char>::value"
    }
   ],
   "linker_set_key" : "_ZTIN7android18trait_trivial_dtorIcE6$valueE",
   "name" : "android::trait_trivial_dtor<char>::(anonymous enum at system/core/libutils/include/utils/TypeHelpers.h:99:1)",
   "referenced_type" : "_ZTIN7android18trait_trivial_dtorIcE6$valueE",
   "self_type" : "_ZTIN7android18trait_trivial_dtorIcE6$valueE",
   "size" : 4,
   "source_file" : "/system/core/libutils/include/utils/TypeHelpers.h",
   "underlying_type" : "_ZTIj"
  },
  {
   "alignment" : 4,
   "enum_fields" :
   [
    {
     "enum_field_value" : 1,
     "name" : "android::trait_trivial_dtor<double>::value"
    }
   ],
   "linker_set_key" : "_ZTIN7android18trait_trivial_dtorIdE6$valueE",
   "name" : "android::trait_trivial_dtor<double>::(anonymous enum at system/core/libutils/include/utils/TypeHelpers.h:110:1)",
   "referenced_type" : "_ZTIN7android18trait_trivial_dtorIdE6$valueE",
   "self_type" : "_ZTIN7android18trait_trivial_dtorIdE6$valueE",
   "size" : 4,
   "source_file" : "/system/core/libutils/include/utils/TypeHelpers.h",
   "underlying_type" : "_ZTIj"
  },
  {
   "alignment" : 4,
   "enum_fields" :
   [
    {
     "enum_field_value" : 1,
     "name" : "android::trait_trivial_dtor<float>::value"
    }
   ],
   "linker_set_key" : "_ZTIN7android18trait_trivial_dtorIfE6$valueE",
   "name" : "android::trait_trivial_dtor<float>::(anonymous enum at system/core/libutils/include/utils/TypeHelpers.h:109:1)",
   "referenced_type" : "_ZTIN7android18trait_trivial_dtorIfE6$valueE",
   "self_type" : "_ZTIN7android18trait_trivial_dtorIfE6$valueE",
   "size" : 4,
   "source_file" : "/system/core/libutils/include/utils/TypeHelpers.h",
   "underlying_type" : "_ZTIj"
  },
  {
   "alignment" : 4,
   "enum_fields" :
   [
    {
     "enum_field_value" : 1,
     "name" : "android::trait_trivial_dtor<unsigned char>::value"
    }
   ],
   "linker_set_key" : "_ZTIN7android18trait_trivial_dtorIhE6$valueE",
   "name" : "android::trait_trivial_dtor<unsigned char>::(anonymous enum at system/core/libutils/include/utils/TypeHelpers.h:100:1)",
   "referenced_type" : "_ZTIN7android18trait_trivial_dtorIhE6$valueE",
   "self_type" : "_ZTIN7android18trait_trivial_dtorIhE6$valueE",
   "size" : 4,
   "source_file" : "/system/core/libutils/include/utils/TypeHelpers.h",
   "underlying_type" : "_ZTIj"
  },
  {
   "alignment" : 4,
   "enum_fields" :
   [
    {
     "enum_field_value" : 1,
     "name" : "android::trait_trivial_dtor<int>::value"
    }
   ],
   "linker_set_key" : "_ZTIN7android18trait_trivial_dtorIiE6$valueE",
   "name" : "android::trait_trivial_dtor<int>::(anonymous enum at system/core/libutils/include/utils/TypeHelpers.h:103:1)",
   "referenced_type" : "_ZTIN7android18trait_trivial_dtorIiE6$valueE",
   "self_type" : "_ZTIN7android18trait_trivial_dtorIiE6$valueE",
   "size" : 4,
   "source_file" : "/system/core/libutils/include/utils/TypeHelpers.h",
   "underlying_type" : "_ZTIj"
  },
  {
   "alignment" : 4,
   "enum_fields" :
   [
    {
     "enum_field_value" : 1,
     "name" : "android::trait_trivial_dtor<unsigned int>::value"
    }
   ],
   "linker_set_key" : "_ZTIN7android18trait_trivial_dtorIjE6$valueE",
   "name" : "android::trait_trivial_dtor<unsigned int>::(anonymous enum at system/core/libutils/include/utils/TypeHelpers.h:104:1)",
   "referenced_type" : "_ZTIN7android18trait_trivial_dtorIjE6$valueE",
   "self_type" : "_ZTIN7android18trait_trivial_dtorIjE6$valueE",
   "size" : 4,
   "source_file" : "/system/core/libutils/include/utils/TypeHelpers.h",
   "underlying_type" : "_ZTIj"
  },
  {
   "alignment" : 4,
   "enum_fields" :
   [
    {
     "enum_field_value" : 1,
     "name" : "android::trait_trivial_dtor<long>::value"
    }
   ],
   "linker_set_key" : "_ZTIN7android18trait_trivial_dtorIlE6$valueE",
   "name" : "android::trait_trivial_dtor<long>::(anonymous enum at system/core/libutils/include/utils/TypeHelpers.h:105:1)",
   "referenced_type" : "_ZTIN7android18trait_trivial_dtorIlE6$valueE",
   "self_type" : "_ZTIN7android18trait_trivial_dtorIlE6$valueE",
   "size" : 4,
   "source_file" : "/system/core/libutils/include/utils/TypeHelpers.h",
   "underlying_type" : "_ZTIj"
  },
  {
   "alignment" : 4,
   "enum_fields" :
   [
    {
     "enum_field_value" : 1,
     "name" : "android::trait_trivial_dtor<unsigned long>::value"
    }
   ],
   "linker_set_key" : "_ZTIN7android18trait_trivial_dtorImE6$valueE",
   "name" : "android::trait_trivial_dtor<unsigned long>::(anonymous enum at system/core/libutils/include/utils/TypeHelpers.h:106:1)",
   "referenced_type" : "_ZTIN7android18trait_trivial_dtorImE6$valueE",
   "self_type" : "_ZTIN7android18trait_trivial_dtorImE6$valueE",
   "size" : 4,
   "source_file" : "/system/core/libutils/include/utils/TypeHelpers.h",
   "underlying_type" : "_ZTIj"
  },
  {
   "alignment" : 4,
   "enum_fields" :
   [
    {
     "enum_field_value" : 1,
     "name" : "android::trait_trivial_dtor<short>::value"
    }
   ],
   "linker_set_key" : "_ZTIN7android18trait_trivial_dtorIsE6$valueE",
   "name" : "android::trait_trivial_dtor<short>::(anonymous enum at system/core/libutils/include/utils/TypeHelpers.h:101:1)",
   "referenced_type" : "_ZTIN7android18trait_trivial_dtorIsE6$valueE",
   "self_type" : "_ZTIN7android18trait_trivial_dtorIsE6$valueE",
   "size" : 4,
   "source_file" : "/system/core/libutils/include/utils/TypeHelpers.h",
   "underlying_type" : "_ZTIj"
  },
  {
   "alignment" : 4,
   "enum_fields" :
   [
    {
     "enum_field_value" : 1,
     "name" : "android::trait_trivial_dtor<unsigned short>::value"
    }
   ],
   "linker_set_key" : "_ZTIN7android18trait_trivial_dtorItE6$valueE",
   "name" : "android::trait_trivial_dtor<unsigned short>::(anonymous enum at system/core/libutils/include/utils/TypeHelpers.h:102:1)",
   "referenced_type" : "_ZTIN7android18trait_trivial_dtorItE6$valueE",
   "self_type" : "_ZTIN7android18trait_trivial_dtorItE6$valueE",
   "size" : 4,
   "source_file" : "/system/core/libutils/include/utils/TypeHelpers.h",
   "underlying_type" : "_ZTIj"
  },
  {
   "alignment" : 4,
   "enum_fields" :
   [
    {
     "enum_field_value" : 1,
     "name" : "android::trait_trivial_dtor<void>::value"
    }
   ],
   "linker_set_key" : "_ZTIN7android18trait_trivial_dtorIvE6$valueE",
   "name" : "android::trait_trivial_dtor<void>::(anonymous enum at system/core/libutils/include/utils/TypeHelpers.h:97:1)",
   "referenced_type" : "_ZTIN7android18trait_trivial_dtorIvE6$valueE",
   "self_type" : "_ZTIN7android18trait_trivial_dtorIvE6$valueE",
   "size" : 4,
   "source_file" : "/system/core/libutils/include/utils/TypeHelpers.h",
   "underlying_type" : "_ZTIj"
  },
  {
   "alignment" : 4,
   "enum_fields" :
   [
    {
     "enum_field_value" : 1,
     "name" : "android::trait_trivial_dtor<long long>::value"
    }
   ],
   "linker_set_key" : "_ZTIN7android18trait_trivial_dtorIxE6$valueE",
   "name" : "android::trait_trivial_dtor<long long>::(anonymous enum at system/core/libutils/include/utils/TypeHelpers.h:107:1)",
   "referenced_type" : "_ZTIN7android18trait_trivial_dtorIxE6$valueE",
   "self_type" : "_ZTIN7android18trait_trivial_dtorIxE6$valueE",
   "size" : 4,
   "source_file" : "/system/core/libutils/include/utils/TypeHelpers.h",
   "underlying_type" : "_ZTIj"
  },
  {
   "alignment" : 4,
   "enum_fields" :
   [
    {
     "enum_field_value" : 1,
     "name" : "android::trait_trivial_dtor<unsigned long long>::value"
    }
   ],
   "linker_set_key" : "_ZTIN7android18trait_trivial_dtorIyE6$valueE",
   "name" : "android::trait_trivial_dtor<unsigned long long>::(anonymous enum at system/core/libutils/include/utils/TypeHelpers.h:108:1)",
   "referenced_type" : "_ZTIN7android18trait_trivial_dtorIyE6$valueE",
   "self_type" : "_ZTIN7android18trait_trivial_dtorIyE6$valueE",
   "size" : 4,
   "source_file" : "/system/core/libutils/include/utils/TypeHelpers.h",
   "underlying_type" : "_ZTIj"
  },
  {
   "alignment" : 4,
   "enum_fields" :
   [
    {
     "enum_field_value" : 1,
     "name" : "android::trait_trivial_move<bool>::value"
    }
   ],
   "linker_set_key" : "_ZTIN7android18trait_trivial_moveIbE6$valueE",
   "name" : "android::trait_trivial_move<bool>::(anonymous enum at system/core/libutils/include/utils/TypeHelpers.h:98:1)",
   "referenced_type" : "_ZTIN7android18trait_trivial_moveIbE6$valueE",
   "self_type" : "_ZTIN7android18trait_trivial_moveIbE6$valueE",
   "size" : 4,
   "source_file" : "/system/core/libutils/include/utils/TypeHelpers.h",
   "underlying_type" : "_ZTIj"
  },
  {
   "alignment" : 4,
   "enum_fields" :
   [
    {
     "enum_field_value" : 1,
     "name" : "android::trait_trivial_move<char>::value"
    }
   ],
   "linker_set_key" : "_ZTIN7android18trait_trivial_moveIcE6$valueE",
   "name" : "android::trait_trivial_move<char>::(anonymous enum at system/core/libutils/include/utils/TypeHelpers.h:99:1)",
   "referenced_type" : "_ZTIN7android18trait_trivial_moveIcE6$valueE",
   "self_type" : "_ZTIN7android18trait_trivial_moveIcE6$valueE",
   "size" : 4,
   "source_file" : "/system/core/libutils/include/utils/TypeHelpers.h",
   "underlying_type" : "_ZTIj"
  },
  {
   "alignment" : 4,
   "enum_fields" :
   [
    {
     "enum_field_value" : 1,
     "name" : "android::trait_trivial_move<double>::value"
    }
   ],
   "linker_set_key" : "_ZTIN7android18trait_trivial_moveIdE6$valueE",
   "name" : "android::trait_trivial_move<double>::(anonymous enum at system/core/libutils/include/utils/TypeHelpers.h:110:1)",
   "referenced_type" : "_ZTIN7android18trait_trivial_moveIdE6$valueE",
   "self_type" : "_ZTIN7android18trait_trivial_moveIdE6$valueE",
   "size" : 4,
   "source_file" : "/system/core/libutils/include/utils/TypeHelpers.h",
   "underlying_type" : "_ZTIj"
  },
  {
   "alignment" : 4,
   "enum_fields" :
   [
    {
     "enum_field_value" : 1,
     "name" : "android::trait_trivial_move<float>::value"
    }
   ],
   "linker_set_key" : "_ZTIN7android18trait_trivial_moveIfE6$valueE",
   "name" : "android::trait_trivial_move<float>::(anonymous enum at system/core/libutils/include/utils/TypeHelpers.h:109:1)",
   "referenced_type" : "_ZTIN7android18trait_trivial_moveIfE6$valueE",
   "self_type" : "_ZTIN7android18trait_trivial_moveIfE6$valueE",
   "size" : 4,
   "source_file" : "/system/core/libutils/include/utils/TypeHelpers.h",
   "underlying_type" : "_ZTIj"
  },
  {
   "alignment" : 4,
   "enum_fields" :
   [
    {
     "enum_field_value" : 1,
     "name" : "android::trait_trivial_move<unsigned char>::value"
    }
   ],
   "linker_set_key" : "_ZTIN7android18trait_trivial_moveIhE6$valueE",
   "name" : "android::trait_trivial_move<unsigned char>::(anonymous enum at system/core/libutils/include/utils/TypeHelpers.h:100:1)",
   "referenced_type" : "_ZTIN7android18trait_trivial_moveIhE6$valueE",
   "self_type" : "_ZTIN7android18trait_trivial_moveIhE6$valueE",
   "size" : 4,
   "source_file" : "/system/core/libutils/include/utils/TypeHelpers.h",
   "underlying_type" : "_ZTIj"
  },
  {
   "alignment" : 4,
   "enum_fields" :
   [
    {
     "enum_field_value" : 1,
     "name" : "android::trait_trivial_move<int>::value"
    }
   ],
   "linker_set_key" : "_ZTIN7android18trait_trivial_moveIiE6$valueE",
   "name" : "android::trait_trivial_move<int>::(anonymous enum at system/core/libutils/include/utils/TypeHelpers.h:103:1)",
   "referenced_type" : "_ZTIN7android18trait_trivial_moveIiE6$valueE",
   "self_type" : "_ZTIN7android18trait_trivial_moveIiE6$valueE",
   "size" : 4,
   "source_file" : "/system/core/libutils/include/utils/TypeHelpers.h",
   "underlying_type" : "_ZTIj"
  },
  {
   "alignment" : 4,
   "enum_fields" :
   [
    {
     "enum_field_value" : 1,
     "name" : "android::trait_trivial_move<unsigned int>::value"
    }
   ],
   "linker_set_key" : "_ZTIN7android18trait_trivial_moveIjE6$valueE",
   "name" : "android::trait_trivial_move<unsigned int>::(anonymous enum at system/core/libutils/include/utils/TypeHelpers.h:104:1)",
   "referenced_type" : "_ZTIN7android18trait_trivial_moveIjE6$valueE",
   "self_type" : "_ZTIN7android18trait_trivial_moveIjE6$valueE",
   "size" : 4,
   "source_file" : "/system/core/libutils/include/utils/TypeHelpers.h",
   "underlying_type" : "_ZTIj"
  },
  {
   "alignment" : 4,
   "enum_fields" :
   [
    {
     "enum_field_value" : 1,
     "name" : "android::trait_trivial_move<long>::value"
    }
   ],
   "linker_set_key" : "_ZTIN7android18trait_trivial_moveIlE6$valueE",
   "name" : "android::trait_trivial_move<long>::(anonymous enum at system/core/libutils/include/utils/TypeHelpers.h:105:1)",
   "referenced_type" : "_ZTIN7android18trait_trivial_moveIlE6$valueE",
   "self_type" : "_ZTIN7android18trait_trivial_moveIlE6$valueE",
   "size" : 4,
   "source_file" : "/system/core/libutils/include/utils/TypeHelpers.h",
   "underlying_type" : "_ZTIj"
  },
  {
   "alignment" : 4,
   "enum_fields" :
   [
    {
     "enum_field_value" : 1,
     "name" : "android::trait_trivial_move<unsigned long>::value"
    }
   ],
   "linker_set_key" : "_ZTIN7android18trait_trivial_moveImE6$valueE",
   "name" : "android::trait_trivial_move<unsigned long>::(anonymous enum at system/core/libutils/include/utils/TypeHelpers.h:106:1)",
   "referenced_type" : "_ZTIN7android18trait_trivial_moveImE6$valueE",
   "self_type" : "_ZTIN7android18trait_trivial_moveImE6$valueE",
   "size" : 4,
   "source_file" : "/system/core/libutils/include/utils/TypeHelpers.h",
   "underlying_type" : "_ZTIj"
  },
  {
   "alignment" : 4,
   "enum_fields" :
   [
    {
     "enum_field_value" : 1,
     "name" : "android::trait_trivial_move<short>::value"
    }
   ],
   "linker_set_key" : "_ZTIN7android18trait_trivial_moveIsE6$valueE",
   "name" : "android::trait_trivial_move<short>::(anonymous enum at system/core/libutils/include/utils/TypeHelpers.h:101:1)",
   "referenced_type" : "_ZTIN7android18trait_trivial_moveIsE6$valueE",
   "self_type" : "_ZTIN7android18trait_trivial_moveIsE6$valueE",
   "size" : 4,
   "source_file" : "/system/core/libutils/include/utils/TypeHelpers.h",
   "underlying_type" : "_ZTIj"
  },
  {
   "alignment" : 4,
   "enum_fields" :
   [
    {
     "enum_field_value" : 1,
     "name" : "android::trait_trivial_move<unsigned short>::value"
    }
   ],
   "linker_set_key" : "_ZTIN7android18trait_trivial_moveItE6$valueE",
   "name" : "android::trait_trivial_move<unsigned short>::(anonymous enum at system/core/libutils/include/utils/TypeHelpers.h:102:1)",
   "referenced_type" : "_ZTIN7android18trait_trivial_moveItE6$valueE",
   "self_type" : "_ZTIN7android18trait_trivial_moveItE6$valueE",
   "size" : 4,
   "source_file" : "/system/core/libutils/include/utils/TypeHelpers.h",
   "underlying_type" : "_ZTIj"
  },
  {
   "alignment" : 4,
   "enum_fields" :
   [
    {
     "enum_field_value" : 1,
     "name" : "android::trait_trivial_move<void>::value"
    }
   ],
   "linker_set_key" : "_ZTIN7android18trait_trivial_moveIvE6$valueE",
   "name" : "android::trait_trivial_move<void>::(anonymous enum at system/core/libutils/include/utils/TypeHelpers.h:97:1)",
   "referenced_type" : "_ZTIN7android18trait_trivial_moveIvE6$valueE",
   "self_type" : "_ZTIN7android18trait_trivial_moveIvE6$valueE",
   "size" : 4,
   "source_file" : "/system/core/libutils/include/utils/TypeHelpers.h",
   "underlying_type" : "_ZTIj"
  },
  {
   "alignment" : 4,
   "enum_fields" :
   [
    {
     "enum_field_value" : 1,
     "name" : "android::trait_trivial_move<long long>::value"
    }
   ],
   "linker_set_key" : "_ZTIN7android18trait_trivial_moveIxE6$valueE",
   "name" : "android::trait_trivial_move<long long>::(anonymous enum at system/core/libutils/include/utils/TypeHelpers.h:107:1)",
   "referenced_type" : "_ZTIN7android18trait_trivial_moveIxE6$valueE",
   "self_type" : "_ZTIN7android18trait_trivial_moveIxE6$valueE",
   "size" : 4,
   "source_file" : "/system/core/libutils/include/utils/TypeHelpers.h",
   "underlying_type" : "_ZTIj"
  },
  {
   "alignment" : 4,
   "enum_fields" :
   [
    {
     "enum_field_value" : 1,
     "name" : "android::trait_trivial_move<unsigned long long>::value"
    }
   ],
   "linker_set_key" : "_ZTIN7android18trait_trivial_moveIyE6$valueE",
   "name" : "android::trait_trivial_move<unsigned long long>::(anonymous enum at system/core/libutils/include/utils/TypeHelpers.h:108:1)",
   "referenced_type" : "_ZTIN7android18trait_trivial_moveIyE6$valueE",
   "self_type" : "_ZTIN7android18trait_trivial_moveIyE6$valueE",
   "size" : 4,
   "source_file" : "/system/core/libutils/include/utils/TypeHelpers.h",
   "underlying_type" : "_ZTIj"
  },
  {
   "alignment" : 4,
   "enum_fields" :
   [
    {
     "enum_field_value" : 0,
     "name" : "android::hidl::base::V1_0::DebugInfo::Architecture::UNKNOWN"
    },
    {
     "enum_field_value" : 1,
     "name" : "android::hidl::base::V1_0::DebugInfo::Architecture::IS_64BIT"
    },
    {
     "enum_field_value" : 2,
     "name" : "android::hidl::base::V1_0::DebugInfo::Architecture::IS_32BIT"
    }
   ],
   "linker_set_key" : "_ZTIN7android4hidl4base4V1_09DebugInfo12ArchitectureE",
   "name" : "android::hidl::base::V1_0::DebugInfo::Architecture",
   "referenced_type" : "_ZTIN7android4hidl4base4V1_09DebugInfo12ArchitectureE",
   "self_type" : "_ZTIN7android4hidl4base4V1_09DebugInfo12ArchitectureE",
   "size" : 4,
   "source_file" : "/out/soong/.intermediates/system/libhidl/transport/base/1.0/android.hidl.base@1.0_genc++_headers/gen/android/hidl/base/1.0/types.h",
   "underlying_type" : "_ZTIi"
  },
  {
   "access" : "protected",
   "alignment" : 4,
   "enum_fields" :
   [
    {
     "enum_field_value" : 1,
     "name" : "android::RefBase::FIRST_INC_STRONG"
    }
   ],
   "linker_set_key" : "_ZTIN7android7RefBase17$FIRST_INC_STRONGE",
   "name" : "android::RefBase::(anonymous enum at system/core/libutils/include/utils/RefBase.h:313:5)",
   "referenced_type" : "_ZTIN7android7RefBase17$FIRST_INC_STRONGE",
   "self_type" : "_ZTIN7android7RefBase17$FIRST_INC_STRONGE",
   "size" : 4,
   "source_file" : "/system/core/libutils/include/utils/RefBase.h",
   "underlying_type" : "_ZTIj"
  },
  {
   "access" : "protected",
   "alignment" : 4,
   "enum_fields" :
   [
    {
     "enum_field_value" : 0,
     "name" : "android::RefBase::OBJECT_LIFETIME_STRONG"
    },
    {
     "enum_field_value" : 1,
     "name" : "android::RefBase::OBJECT_LIFETIME_WEAK"
    },
    {
     "enum_field_value" : 1,
     "name" : "android::RefBase::OBJECT_LIFETIME_MASK"
    }
   ],
   "linker_set_key" : "_ZTIN7android7RefBase21$OBJECT_LIFETIME_MASKE",
   "name" : "android::RefBase::(anonymous enum at system/core/libutils/include/utils/RefBase.h:304:5)",
   "referenced_type" : "_ZTIN7android7RefBase21$OBJECT_LIFETIME_MASKE",
   "self_type" : "_ZTIN7android7RefBase21$OBJECT_LIFETIME_MASKE",
   "size" : 4,
   "source_file" : "/system/core/libutils/include/utils/RefBase.h",
   "underlying_type" : "_ZTIj"
  },
  {
   "alignment" : 4,
   "enum_fields" :
   [
    {
     "enum_field_value" : 0,
     "name" : "android::hardware::HidlReturnRestriction::NONE"
    },
    {
     "enum_field_value" : 1,
     "name" : "android::hardware::HidlReturnRestriction::ERROR_IF_UNCHECKED"
    },
    {
     "enum_field_value" : 2,
     "name" : "android::hardware::HidlReturnRestriction::FATAL_IF_UNCHECKED"
    }
   ],
   "linker_set_key" : "_ZTIN7android8hardware21HidlReturnRestrictionE",
   "name" : "android::hardware::HidlReturnRestriction",
   "referenced_type" : "_ZTIN7android8hardware21HidlReturnRestrictionE",
   "self_type" : "_ZTIN7android8hardware21HidlReturnRestrictionE",
   "size" : 4,
   "source_file" : "/system/libhidl/base/include/hidl/Status.h",
   "underlying_type" : "_ZTIi"
  },
  {
   "alignment" : 4,
   "enum_fields" :
   [
    {
     "enum_field_value" : 0,
     "name" : "android::hardware::Status::EX_NONE"
    },
    {
     "enum_field_value" : -1,
     "name" : "android::hardware::Status::EX_SECURITY"
    },
    {
     "enum_field_value" : -2,
     "name" : "android::hardware::Status::EX_BAD_PARCELABLE"
    },
    {
     "enum_field_value" : -3,
     "name" : "android::hardware::Status::EX_ILLEGAL_ARGUMENT"
    },
    {
     "enum_field_value" : -4,
     "name" : "android::hardware::Status::EX_NULL_POINTER"
    },
    {
     "enum_field_value" : -5,
     "name" : "android::hardware::Status::EX_ILLEGAL_STATE"
    },
    {
     "enum_field_value" : -6,
     "name" : "android::hardware::Status::EX_NETWORK_MAIN_THREAD"
    },
    {
     "enum_field_value" : -7,
     "name" : "android::hardware::Status::EX_UNSUPPORTED_OPERATION"
    },
    {
     "enum_field_value" : -128,
     "name" : "android::hardware::Status::EX_HAS_REPLY_HEADER"
    },
    {
     "enum_field_value" : -129,
     "name" : "android::hardware::Status::EX_TRANSACTION_FAILED"
    }
   ],
   "linker_set_key" : "_ZTIN7android8hardware6Status9ExceptionE",
   "name" : "android::hardware::Status::Exception",
   "referenced_type" : "_ZTIN7android8hardware6Status9ExceptionE",
   "self_type" : "_ZTIN7android8hardware6Status9ExceptionE",
   "size" : 4,
   "source_file" : "/system/libhidl/base/include/hidl/Status.h",
   "underlying_type" : "_ZTIi"
  },
  {
   "alignment" : 4,
   "enum_fields" :
   [
    {
     "enum_field_value" : 0,
     "name" : "android::hardware::details::HidlInstrumentor::SERVER_API_ENTRY"
    },
    {
     "enum_field_value" : 1,
     "name" : "android::hardware::details::HidlInstrumentor::SERVER_API_EXIT"
    },
    {
     "enum_field_value" : 2,
     "name" : "android::hardware::details::HidlInstrumentor::CLIENT_API_ENTRY"
    },
    {
     "enum_field_value" : 3,
     "name" : "android::hardware::details::HidlInstrumentor::CLIENT_API_EXIT"
    },
    {
     "enum_field_value" : 4,
     "name" : "android::hardware::details::HidlInstrumentor::SYNC_CALLBACK_ENTRY"
    },
    {
     "enum_field_value" : 5,
     "name" : "android::hardware::details::HidlInstrumentor::SYNC_CALLBACK_EXIT"
    },
    {
     "enum_field_value" : 6,
     "name" : "android::hardware::details::HidlInstrumentor::ASYNC_CALLBACK_ENTRY"
    },
    {
     "enum_field_value" : 7,
     "name" : "android::hardware::details::HidlInstrumentor::ASYNC_CALLBACK_EXIT"
    },
    {
     "enum_field_value" : 8,
     "name" : "android::hardware::details::HidlInstrumentor::PASSTHROUGH_ENTRY"
    },
    {
     "enum_field_value" : 9,
     "name" : "android::hardware::details::HidlInstrumentor::PASSTHROUGH_EXIT"
    }
   ],
   "linker_set_key" : "_ZTIN7android8hardware7details16HidlInstrumentor20InstrumentationEventE",
   "name" : "android::hardware::details::HidlInstrumentor::InstrumentationEvent",
   "referenced_type" : "_ZTIN7android8hardware7details16HidlInstrumentor20InstrumentationEventE",
   "self_type" : "_ZTIN7android8hardware7details16HidlInstrumentor20InstrumentationEventE",
   "size" : 4,
   "source_file" : "/system/libhidl/base/include/hidl/HidlInternal.h",
   "underlying_type" : "_ZTIj"
  },
  {
   "alignment" : 4,
   "enum_fields" :
   [
    {
     "enum_field_value" : 1,
     "name" : "android::hardware::kSynchronizedReadWrite"
    },
    {
     "enum_field_value" : 2,
     "name" : "android::hardware::kUnsynchronizedWrite"
    }
   ],
   "linker_set_key" : "_ZTIN7android8hardware8MQFlavorE",
   "name" : "android::hardware::MQFlavor",
   "referenced_type" : "_ZTIN7android8hardware8MQFlavorE",
   "self_type" : "_ZTIN7android8hardware8MQFlavorE",
   "size" : 4,
   "source_file" : "/system/libhidl/base/include/hidl/MQDescriptor.h",
   "underlying_type" : "_ZTIj"
  },
  {
   "alignment" : 4,
   "enum_fields" :
   [
    {
     "enum_field_value" : 0,
     "name" : "std::__1::money_base::none"
    },
    {
     "enum_field_value" : 1,
     "name" : "std::__1::money_base::space"
    },
    {
     "enum_field_value" : 2,
     "name" : "std::__1::money_base::symbol"
    },
    {
     "enum_field_value" : 3,
     "name" : "std::__1::money_base::sign"
    },
    {
     "enum_field_value" : 4,
     "name" : "std::__1::money_base::value"
    }
   ],
   "linker_set_key" : "_ZTINSt3__110money_base4partE",
   "name" : "std::money_base::part",
   "referenced_type" : "_ZTINSt3__110money_base4partE",
   "self_type" : "_ZTINSt3__110money_base4partE",
   "size" : 4,
   "source_file" : "/external/libcxx/include/locale",
   "underlying_type" : "_ZTIj"
  },
  {
   "access" : "private",
   "alignment" : 4,
   "enum_fields" :
   [
    {
     "enum_field_value" : 2,
     "name" : "std::__1::basic_string<char32_t, std::__1::char_traits<char32_t>, std::__1::allocator<char32_t> >::__min_cap"
    }
   ],
   "linker_set_key" : "_ZTINSt3__112basic_stringIDiNS_11char_traitsIDiEENS_9allocatorIDiEEE10$__min_capE",
   "name" : "std::basic_string<char32_t, char_traits<char32_t>, allocator<char32_t> >::(anonymous enum at external/libcxx/include/string:751:5)",
   "referenced_type" : "_ZTINSt3__112basic_stringIDiNS_11char_traitsIDiEENS_9allocatorIDiEEE10$__min_capE",
   "self_type" : "_ZTINSt3__112basic_stringIDiNS_11char_traitsIDiEENS_9allocatorIDiEEE10$__min_capE",
   "size" : 4,
   "source_file" : "/external/libcxx/include/string",
   "underlying_type" : "_ZTIj"
  },
  {
   "access" : "private",
   "alignment" : 4,
   "enum_fields" :
   [
    {
     "enum_field_value" : 3,
     "name" : "std::__1::basic_string<char32_t, std::__1::char_traits<char32_t>, std::__1::allocator<char32_t> >::__n_words"
    }
   ],
   "linker_set_key" : "_ZTINSt3__112basic_stringIDiNS_11char_traitsIDiEENS_9allocatorIDiEEE10$__n_wordsE",
   "name" : "std::basic_string<char32_t, char_traits<char32_t>, allocator<char32_t> >::(anonymous enum at external/libcxx/include/string:768:5)",
   "referenced_type" : "_ZTINSt3__112basic_stringIDiNS_11char_traitsIDiEENS_9allocatorIDiEEE10$__n_wordsE",
   "self_type" : "_ZTINSt3__112basic_stringIDiNS_11char_traitsIDiEENS_9allocatorIDiEEE10$__n_wordsE",
   "size" : 4,
   "source_file" : "/external/libcxx/include/string",
   "underlying_type" : "_ZTIj"
  },
  {
   "access" : "private",
   "alignment" : 4,
   "enum_fields" :
   [
    {
     "enum_field_value" : 16,
     "name" : "std::__1::basic_string<char32_t, std::__1::char_traits<char32_t>, std::__1::allocator<char32_t> >::__alignment"
    }
   ],
   "linker_set_key" : "_ZTINSt3__112basic_stringIDiNS_11char_traitsIDiEENS_9allocatorIDiEEE12$__alignmentE",
   "name" : "std::basic_string<char32_t, char_traits<char32_t>, allocator<char32_t> >::(anonymous enum at external/libcxx/include/string:1535:5)",
   "referenced_type" : "_ZTINSt3__112basic_stringIDiNS_11char_traitsIDiEENS_9allocatorIDiEEE12$__alignmentE",
   "self_type" : "_ZTINSt3__112basic_stringIDiNS_11char_traitsIDiEENS_9allocatorIDiEEE12$__alignmentE",
   "size" : 4,
   "source_file" : "/external/libcxx/include/string",
   "underlying_type" : "_ZTIj"
  },
  {
   "access" : "private",
   "alignment" : 4,
   "enum_fields" :
   [
    {
     "enum_field_value" : 5,
     "name" : "std::__1::basic_string<char16_t, std::__1::char_traits<char16_t>, std::__1::allocator<char16_t> >::__min_cap"
    }
   ],
   "linker_set_key" : "_ZTINSt3__112basic_stringIDsNS_11char_traitsIDsEENS_9allocatorIDsEEE10$__min_capE",
   "name" : "std::basic_string<char16_t, char_traits<char16_t>, allocator<char16_t> >::(anonymous enum at external/libcxx/include/string:751:5)",
   "referenced_type" : "_ZTINSt3__112basic_stringIDsNS_11char_traitsIDsEENS_9allocatorIDsEEE10$__min_capE",
   "self_type" : "_ZTINSt3__112basic_stringIDsNS_11char_traitsIDsEENS_9allocatorIDsEEE10$__min_capE",
   "size" : 4,
   "source_file" : "/external/libcxx/include/string",
   "underlying_type" : "_ZTIj"
  },
  {
   "access" : "private",
   "alignment" : 4,
   "enum_fields" :
   [
    {
     "enum_field_value" : 3,
     "name" : "std::__1::basic_string<char16_t, std::__1::char_traits<char16_t>, std::__1::allocator<char16_t> >::__n_words"
    }
   ],
   "linker_set_key" : "_ZTINSt3__112basic_stringIDsNS_11char_traitsIDsEENS_9allocatorIDsEEE10$__n_wordsE",
   "name" : "std::basic_string<char16_t, char_traits<char16_t>, allocator<char16_t> >::(anonymous enum at external/libcxx/include/string:768:5)",
   "referenced_type" : "_ZTINSt3__112basic_stringIDsNS_11char_traitsIDsEENS_9allocatorIDsEEE10$__n_wordsE",
   "self_type" : "_ZTINSt3__112basic_stringIDsNS_11char_traitsIDsEENS_9allocatorIDsEEE10$__n_wordsE",
   "size" : 4,
   "source_file" : "/external/libcxx/include/string",
   "underlying_type" : "_ZTIj"
  },
  {
   "access" : "private",
   "alignment" : 4,
   "enum_fields" :
   [
    {
     "enum_field_value" : 16,
     "name" : "std::__1::basic_string<char16_t, std::__1::char_traits<char16_t>, std::__1::allocator<char16_t> >::__alignment"
    }
   ],
   "linker_set_key" : "_ZTINSt3__112basic_stringIDsNS_11char_traitsIDsEENS_9allocatorIDsEEE12$__alignmentE",
   "name" : "std::basic_string<char16_t, char_traits<char16_t>, allocator<char16_t> >::(anonymous enum at external/libcxx/include/string:1535:5)",
   "referenced_type" : "_ZTINSt3__112basic_stringIDsNS_11char_traitsIDsEENS_9allocatorIDsEEE12$__alignmentE",
   "self_type" : "_ZTINSt3__112basic_stringIDsNS_11char_traitsIDsEENS_9allocatorIDsEEE12$__alignmentE",
   "size" : 4,
   "source_file" : "/external/libcxx/include/string",
   "underlying_type" : "_ZTIj"
  },
  {
   "access" : "private",
   "alignment" : 4,
   "enum_fields" :
   [
    {
     "enum_field_value" : 11,
     "name" : "std::__1::basic_string<char, std::__1::char_traits<char>, std::__1::allocator<char> >::__min_cap"
    }
   ],
   "linker_set_key" : "_ZTINSt3__112basic_stringIcNS_11char_traitsIcEENS_9allocatorIcEEE10$__min_capE",
   "name" : "std::basic_string<char>::(anonymous enum at external/libcxx/include/string:751:5)",
   "referenced_type" : "_ZTINSt3__112basic_stringIcNS_11char_traitsIcEENS_9allocatorIcEEE10$__min_capE",
   "self_type" : "_ZTINSt3__112basic_stringIcNS_11char_traitsIcEENS_9allocatorIcEEE10$__min_capE",
   "size" : 4,
   "source_file" : "/external/libcxx/include/string",
   "underlying_type" : "_ZTIj"
  },
  {
   "access" : "private",
   "alignment" : 4,
   "enum_fields" :
   [
    {
     "enum_field_value" : 3,
     "name" : "std::__1::basic_string<char, std::__1::char_traits<char>, std::__1::allocator<char> >::__n_words"
    }
   ],
   "linker_set_key" : "_ZTINSt3__112basic_stringIcNS_11char_traitsIcEENS_9allocatorIcEEE10$__n_wordsE",
   "name" : "std::basic_string<char>::(anonymous enum at external/libcxx/include/string:768:5)",
   "referenced_type" : "_ZTINSt3__112basic_stringIcNS_11char_traitsIcEENS_9allocatorIcEEE10$__n_wordsE",
   "self_type" : "_ZTINSt3__112basic_stringIcNS_11char_traitsIcEENS_9allocatorIcEEE10$__n_wordsE",
   "size" : 4,
   "source_file" : "/external/libcxx/include/string",
   "underlying_type" : "_ZTIj"
  },
  {
   "access" : "private",
   "alignment" : 4,
   "enum_fields" :
   [
    {
     "enum_field_value" : 16,
     "name" : "std::__1::basic_string<char, std::__1::char_traits<char>, std::__1::allocator<char> >::__alignment"
    }
   ],
   "linker_set_key" : "_ZTINSt3__112basic_stringIcNS_11char_traitsIcEENS_9allocatorIcEEE12$__alignmentE",
   "name" : "std::basic_string<char>::(anonymous enum at external/libcxx/include/string:1535:5)",
   "referenced_type" : "_ZTINSt3__112basic_stringIcNS_11char_traitsIcEENS_9allocatorIcEEE12$__alignmentE",
   "self_type" : "_ZTINSt3__112basic_stringIcNS_11char_traitsIcEENS_9allocatorIcEEE12$__alignmentE",
   "size" : 4,
   "source_file" : "/external/libcxx/include/string",
   "underlying_type" : "_ZTIj"
  },
  {
   "access" : "private",
   "alignment" : 4,
   "enum_fields" :
   [
    {
     "enum_field_value" : 2,
     "name" : "std::__1::basic_string<wchar_t, std::__1::char_traits<wchar_t>, std::__1::allocator<wchar_t> >::__min_cap"
    }
   ],
   "linker_set_key" : "_ZTINSt3__112basic_stringIwNS_11char_traitsIwEENS_9allocatorIwEEE10$__min_capE",
   "name" : "std::basic_string<wchar_t>::(anonymous enum at external/libcxx/include/string:751:5)",
   "referenced_type" : "_ZTINSt3__112basic_stringIwNS_11char_traitsIwEENS_9allocatorIwEEE10$__min_capE",
   "self_type" : "_ZTINSt3__112basic_stringIwNS_11char_traitsIwEENS_9allocatorIwEEE10$__min_capE",
   "size" : 4,
   "source_file" : "/external/libcxx/include/string",
   "underlying_type" : "_ZTIj"
  },
  {
   "access" : "private",
   "alignment" : 4,
   "enum_fields" :
   [
    {
     "enum_field_value" : 3,
     "name" : "std::__1::basic_string<wchar_t, std::__1::char_traits<wchar_t>, std::__1::allocator<wchar_t> >::__n_words"
    }
   ],
   "linker_set_key" : "_ZTINSt3__112basic_stringIwNS_11char_traitsIwEENS_9allocatorIwEEE10$__n_wordsE",
   "name" : "std::basic_string<wchar_t>::(anonymous enum at external/libcxx/include/string:768:5)",
   "referenced_type" : "_ZTINSt3__112basic_stringIwNS_11char_traitsIwEENS_9allocatorIwEEE10$__n_wordsE",
   "self_type" : "_ZTINSt3__112basic_stringIwNS_11char_traitsIwEENS_9allocatorIwEEE10$__n_wordsE",
   "size" : 4,
   "source_file" : "/external/libcxx/include/string",
   "underlying_type" : "_ZTIj"
  },
  {
   "access" : "private",
   "alignment" : 4,
   "enum_fields" :
   [
    {
     "enum_field_value" : 16,
     "name" : "std::__1::basic_string<wchar_t, std::__1::char_traits<wchar_t>, std::__1::allocator<wchar_t> >::__alignment"
    }
   ],
   "linker_set_key" : "_ZTINSt3__112basic_stringIwNS_11char_traitsIwEENS_9allocatorIwEEE12$__alignmentE",
   "name" : "std::basic_string<wchar_t>::(anonymous enum at external/libcxx/include/string:1535:5)",
   "referenced_type" : "_ZTINSt3__112basic_stringIwNS_11char_traitsIwEENS_9allocatorIwEEE12$__alignmentE",
   "self_type" : "_ZTINSt3__112basic_stringIwNS_11char_traitsIwEENS_9allocatorIwEEE12$__alignmentE",
   "size" : 4,
   "source_file" : "/external/libcxx/include/string",
   "underlying_type" : "_ZTIj"
  },
  {
   "alignment" : 4,
   "enum_fields" :
   [
    {
     "enum_field_value" : 0,
     "name" : "std::__1::codecvt_base::ok"
    },
    {
     "enum_field_value" : 1,
     "name" : "std::__1::codecvt_base::partial"
    },
    {
     "enum_field_value" : 2,
     "name" : "std::__1::codecvt_base::error"
    },
    {
     "enum_field_value" : 3,
     "name" : "std::__1::codecvt_base::noconv"
    }
   ],
   "linker_set_key" : "_ZTINSt3__112codecvt_base6resultE",
   "name" : "std::codecvt_base::result",
   "referenced_type" : "_ZTINSt3__112codecvt_base6resultE",
   "self_type" : "_ZTINSt3__112codecvt_base6resultE",
   "size" : 4,
   "source_file" : "/external/libcxx/include/__locale",
   "underlying_type" : "_ZTIj"
  },
  {
   "alignment" : 4,
   "enum_fields" :
   [
    {
     "enum_field_value" : 0,
     "name" : "std::__1::memory_order_relaxed"
    },
    {
     "enum_field_value" : 1,
     "name" : "std::__1::memory_order_consume"
    },
    {
     "enum_field_value" : 2,
     "name" : "std::__1::memory_order_acquire"
    },
    {
     "enum_field_value" : 3,
     "name" : "std::__1::memory_order_release"
    },
    {
     "enum_field_value" : 4,
     "name" : "std::__1::memory_order_acq_rel"
    },
    {
     "enum_field_value" : 5,
     "name" : "std::__1::memory_order_seq_cst"
    }
   ],
   "linker_set_key" : "_ZTINSt3__112memory_orderE",
   "name" : "std::memory_order",
   "referenced_type" : "_ZTINSt3__112memory_orderE",
   "self_type" : "_ZTINSt3__112memory_orderE",
   "size" : 4,
   "source_file" : "/external/libcxx/include/atomic",
   "underlying_type" : "_ZTIj"
  },
  {
   "alignment" : 4,
   "enum_fields" :
   [
    {
     "enum_field_value" : 0,
     "name" : "std::__1::pointer_safety::relaxed"
    },
    {
     "enum_field_value" : 1,
     "name" : "std::__1::pointer_safety::preferred"
    },
    {
     "enum_field_value" : 2,
     "name" : "std::__1::pointer_safety::strict"
    }
   ],
   "linker_set_key" : "_ZTINSt3__114pointer_safety4__lxE",
   "name" : "std::pointer_safety::__lx",
   "referenced_type" : "_ZTINSt3__114pointer_safety4__lxE",
   "self_type" : "_ZTINSt3__114pointer_safety4__lxE",
   "size" : 4,
   "source_file" : "/external/libcxx/include/memory",
   "underlying_type" : "_ZTIj"
  },
  {
   "alignment" : 4,
   "enum_fields" :
   [
    {
     "enum_field_value" : -1,
     "name" : "std::__1::round_indeterminate"
    },
    {
     "enum_field_value" : 0,
     "name" : "std::__1::round_toward_zero"
    },
    {
     "enum_field_value" : 1,
     "name" : "std::__1::round_to_nearest"
    },
    {
     "enum_field_value" : 2,
     "name" : "std::__1::round_toward_infinity"
    },
    {
     "enum_field_value" : 3,
     "name" : "std::__1::round_toward_neg_infinity"
    }
   ],
   "linker_set_key" : "_ZTINSt3__117float_round_styleE",
   "name" : "std::float_round_style",
   "referenced_type" : "_ZTINSt3__117float_round_styleE",
   "self_type" : "_ZTINSt3__117float_round_styleE",
   "size" : 4,
   "source_file" : "/external/libcxx/include/limits",
   "underlying_type" : "_ZTIi"
  },
  {
   "alignment" : 4,
   "enum_fields" :
   [
    {
     "enum_field_value" : -1,
     "name" : "std::__1::denorm_indeterminate"
    },
    {
     "enum_field_value" : 0,
     "name" : "std::__1::denorm_absent"
    },
    {
     "enum_field_value" : 1,
     "name" : "std::__1::denorm_present"
    }
   ],
   "linker_set_key" : "_ZTINSt3__118float_denorm_styleE",
   "name" : "std::float_denorm_style",
   "referenced_type" : "_ZTINSt3__118float_denorm_styleE",
   "self_type" : "_ZTINSt3__118float_denorm_styleE",
   "size" : 4,
   "source_file" : "/external/libcxx/include/limits",
   "underlying_type" : "_ZTIi"
  },
  {
   "alignment" : 4,
   "enum_fields" :
   [
    {
     "enum_field_value" : 97,
     "name" : "std::__1::errc::address_family_not_supported"
    },
    {
     "enum_field_value" : 98,
     "name" : "std::__1::errc::address_in_use"
    },
    {
     "enum_field_value" : 99,
     "name" : "std::__1::errc::address_not_available"
    },
    {
     "enum_field_value" : 106,
     "name" : "std::__1::errc::already_connected"
    },
    {
     "enum_field_value" : 7,
     "name" : "std::__1::errc::argument_list_too_long"
    },
    {
     "enum_field_value" : 33,
     "name" : "std::__1::errc::argument_out_of_domain"
    },
    {
     "enum_field_value" : 14,
     "name" : "std::__1::errc::bad_address"
    },
    {
     "enum_field_value" : 9,
     "name" : "std::__1::errc::bad_file_descriptor"
    },
    {
     "enum_field_value" : 74,
     "name" : "std::__1::errc::bad_message"
    },
    {
     "enum_field_value" : 32,
     "name" : "std::__1::errc::broken_pipe"
    },
    {
     "enum_field_value" : 103,
     "name" : "std::__1::errc::connection_aborted"
    },
    {
     "enum_field_value" : 114,
     "name" : "std::__1::errc::connection_already_in_progress"
    },
    {
     "enum_field_value" : 111,
     "name" : "std::__1::errc::connection_refused"
    },
    {
     "enum_field_value" : 104,
     "name" : "std::__1::errc::connection_reset"
    },
    {
     "enum_field_value" : 18,
     "name" : "std::__1::errc::cross_device_link"
    },
    {
     "enum_field_value" : 89,
     "name" : "std::__1::errc::destination_address_required"
    },
    {
     "enum_field_value" : 16,
     "name" : "std::__1::errc::device_or_resource_busy"
    },
    {
     "enum_field_value" : 39,
     "name" : "std::__1::errc::directory_not_empty"
    },
    {
     "enum_field_value" : 8,
     "name" : "std::__1::errc::executable_format_error"
    },
    {
     "enum_field_value" : 17,
     "name" : "std::__1::errc::file_exists"
    },
    {
     "enum_field_value" : 27,
     "name" : "std::__1::errc::file_too_large"
    },
    {
     "enum_field_value" : 36,
     "name" : "std::__1::errc::filename_too_long"
    },
    {
     "enum_field_value" : 38,
     "name" : "std::__1::errc::function_not_supported"
    },
    {
     "enum_field_value" : 113,
     "name" : "std::__1::errc::host_unreachable"
    },
    {
     "enum_field_value" : 43,
     "name" : "std::__1::errc::identifier_removed"
    },
    {
     "enum_field_value" : 84,
     "name" : "std::__1::errc::illegal_byte_sequence"
    },
    {
     "enum_field_value" : 25,
     "name" : "std::__1::errc::inappropriate_io_control_operation"
    },
    {
     "enum_field_value" : 4,
     "name" : "std::__1::errc::interrupted"
    },
    {
     "enum_field_value" : 22,
     "name" : "std::__1::errc::invalid_argument"
    },
    {
     "enum_field_value" : 29,
     "name" : "std::__1::errc::invalid_seek"
    },
    {
     "enum_field_value" : 5,
     "name" : "std::__1::errc::io_error"
    },
    {
     "enum_field_value" : 21,
     "name" : "std::__1::errc::is_a_directory"
    },
    {
     "enum_field_value" : 90,
     "name" : "std::__1::errc::message_size"
    },
    {
     "enum_field_value" : 100,
     "name" : "std::__1::errc::network_down"
    },
    {
     "enum_field_value" : 102,
     "name" : "std::__1::errc::network_reset"
    },
    {
     "enum_field_value" : 101,
     "name" : "std::__1::errc::network_unreachable"
    },
    {
     "enum_field_value" : 105,
     "name" : "std::__1::errc::no_buffer_space"
    },
    {
     "enum_field_value" : 10,
     "name" : "std::__1::errc::no_child_process"
    },
    {
     "enum_field_value" : 67,
     "name" : "std::__1::errc::no_link"
    },
    {
     "enum_field_value" : 37,
     "name" : "std::__1::errc::no_lock_available"
    },
    {
     "enum_field_value" : 61,
     "name" : "std::__1::errc::no_message_available"
    },
    {
     "enum_field_value" : 42,
     "name" : "std::__1::errc::no_message"
    },
    {
     "enum_field_value" : 92,
     "name" : "std::__1::errc::no_protocol_option"
    },
    {
     "enum_field_value" : 28,
     "name" : "std::__1::errc::no_space_on_device"
    },
    {
     "enum_field_value" : 63,
     "name" : "std::__1::errc::no_stream_resources"
    },
    {
     "enum_field_value" : 6,
     "name" : "std::__1::errc::no_such_device_or_address"
    },
    {
     "enum_field_value" : 19,
     "name" : "std::__1::errc::no_such_device"
    },
    {
     "enum_field_value" : 2,
     "name" : "std::__1::errc::no_such_file_or_directory"
    },
    {
     "enum_field_value" : 3,
     "name" : "std::__1::errc::no_such_process"
    },
    {
     "enum_field_value" : 20,
     "name" : "std::__1::errc::not_a_directory"
    },
    {
     "enum_field_value" : 88,
     "name" : "std::__1::errc::not_a_socket"
    },
    {
     "enum_field_value" : 60,
     "name" : "std::__1::errc::not_a_stream"
    },
    {
     "enum_field_value" : 107,
     "name" : "std::__1::errc::not_connected"
    },
    {
     "enum_field_value" : 12,
     "name" : "std::__1::errc::not_enough_memory"
    },
    {
     "enum_field_value" : 95,
     "name" : "std::__1::errc::not_supported"
    },
    {
     "enum_field_value" : 125,
     "name" : "std::__1::errc::operation_canceled"
    },
    {
     "enum_field_value" : 115,
     "name" : "std::__1::errc::operation_in_progress"
    },
    {
     "enum_field_value" : 1,
     "name" : "std::__1::errc::operation_not_permitted"
    },
    {
     "enum_field_value" : 95,
     "name" : "std::__1::errc::operation_not_supported"
    },
    {
     "enum_field_value" : 11,
     "name" : "std::__1::errc::operation_would_block"
    },
    {
     "enum_field_value" : 130,
     "name" : "std::__1::errc::owner_dead"
    },
    {
     "enum_field_value" : 13,
     "name" : "std::__1::errc::permission_denied"
    },
    {
     "enum_field_value" : 71,
     "name" : "std::__1::errc::protocol_error"
    },
    {
     "enum_field_value" : 93,
     "name" : "std::__1::errc::protocol_not_supported"
    },
    {
     "enum_field_value" : 30,
     "name" : "std::__1::errc::read_only_file_system"
    },
    {
     "enum_field_value" : 35,
     "name" : "std::__1::errc::resource_deadlock_would_occur"
    },
    {
     "enum_field_value" : 11,
     "name" : "std::__1::errc::resource_unavailable_try_again"
    },
    {
     "enum_field_value" : 34,
     "name" : "std::__1::errc::result_out_of_range"
    },
    {
     "enum_field_value" : 131,
     "name" : "std::__1::errc::state_not_recoverable"
    },
    {
     "enum_field_value" : 62,
     "name" : "std::__1::errc::stream_timeout"
    },
    {
     "enum_field_value" : 26,
     "name" : "std::__1::errc::text_file_busy"
    },
    {
     "enum_field_value" : 110,
     "name" : "std::__1::errc::timed_out"
    },
    {
     "enum_field_value" : 23,
     "name" : "std::__1::errc::too_many_files_open_in_system"
    },
    {
     "enum_field_value" : 24,
     "name" : "std::__1::errc::too_many_files_open"
    },
    {
     "enum_field_value" : 31,
     "name" : "std::__1::errc::too_many_links"
    },
    {
     "enum_field_value" : 40,
     "name" : "std::__1::errc::too_many_symbolic_link_levels"
    },
    {
     "enum_field_value" : 75,
     "name" : "std::__1::errc::value_too_large"
    },
    {
     "enum_field_value" : 91,
     "name" : "std::__1::errc::wrong_protocol_type"
    }
   ],
   "linker_set_key" : "_ZTINSt3__14errcE",
   "name" : "std::errc",
   "referenced_type" : "_ZTINSt3__14errcE",
   "self_type" : "_ZTINSt3__14errcE",
   "size" : 4,
   "source_file" : "/external/libcxx/include/__errc",
   "underlying_type" : "_ZTIi"
  },
  {
   "alignment" : 4,
   "enum_fields" :
   [
    {
     "enum_field_value" : 1,
     "name" : "std::__1::io_errc::stream"
    }
   ],
   "linker_set_key" : "_ZTINSt3__17io_errcE",
   "name" : "std::io_errc",
   "referenced_type" : "_ZTINSt3__17io_errcE",
   "self_type" : "_ZTINSt3__17io_errcE",
   "size" : 4,
   "source_file" : "/external/libcxx/include/ios",
   "underlying_type" : "_ZTIi"
  },
  {
   "alignment" : 4,
   "enum_fields" :
   [
    {
     "enum_field_value" : 0,
     "name" : "std::__1::ios_base::erase_event"
    },
    {
     "enum_field_value" : 1,
     "name" : "std::__1::ios_base::imbue_event"
    },
    {
     "enum_field_value" : 2,
     "name" : "std::__1::ios_base::copyfmt_event"
    }
   ],
   "linker_set_key" : "_ZTINSt3__18ios_base5eventE",
   "name" : "std::ios_base::event",
   "referenced_type" : "_ZTINSt3__18ios_base5eventE",
   "self_type" : "_ZTINSt3__18ios_base5eventE",
   "size" : 4,
   "source_file" : "/external/libcxx/include/ios",
   "underlying_type" : "_ZTIj"
  },
  {
   "alignment" : 4,
   "enum_fields" :
   [
    {
     "enum_field_value" : 0,
     "name" : "std::__1::ios_base::beg"
    },
    {
     "enum_field_value" : 1,
     "name" : "std::__1::ios_base::cur"
    },
    {
     "enum_field_value" : 2,
     "name" : "std::__1::ios_base::end"
    }
   ],
   "linker_set_key" : "_ZTINSt3__18ios_base7seekdirE",
   "name" : "std::ios_base::seekdir",
   "referenced_type" : "_ZTINSt3__18ios_base7seekdirE",
   "self_type" : "_ZTINSt3__18ios_base7seekdirE",
   "size" : 4,
   "source_file" : "/external/libcxx/include/ios",
   "underlying_type" : "_ZTIj"
  },
  {
   "alignment" : 4,
   "enum_fields" :
   [
    {
     "enum_field_value" : 0,
     "name" : "std::__1::cv_status::no_timeout"
    },
    {
     "enum_field_value" : 1,
     "name" : "std::__1::cv_status::timeout"
    }
   ],
   "linker_set_key" : "_ZTINSt3__19cv_statusE",
   "name" : "std::cv_status",
   "referenced_type" : "_ZTINSt3__19cv_statusE",
   "self_type" : "_ZTINSt3__19cv_statusE",
   "size" : 4,
   "source_file" : "/external/libcxx/include/__mutex_base",
   "underlying_type" : "_ZTIi"
  },
  {
   "alignment" : 4,
   "enum_fields" :
   [
    {
     "enum_field_value" : 0,
     "name" : "std::__1::time_base::no_order"
    },
    {
     "enum_field_value" : 1,
     "name" : "std::__1::time_base::dmy"
    },
    {
     "enum_field_value" : 2,
     "name" : "std::__1::time_base::mdy"
    },
    {
     "enum_field_value" : 3,
     "name" : "std::__1::time_base::ymd"
    },
    {
     "enum_field_value" : 4,
     "name" : "std::__1::time_base::ydm"
    }
   ],
   "linker_set_key" : "_ZTINSt3__19time_base9dateorderE",
   "name" : "std::time_base::dateorder",
   "referenced_type" : "_ZTINSt3__19time_base9dateorderE",
   "self_type" : "_ZTINSt3__19time_base9dateorderE",
   "size" : 4,
   "source_file" : "/external/libcxx/include/locale",
   "underlying_type" : "_ZTIj"
  },
  {
   "alignment" : 4,
   "linker_set_key" : "_ZTISt11align_val_t",
   "name" : "std::align_val_t",
   "referenced_type" : "_ZTISt11align_val_t",
   "self_type" : "_ZTISt11align_val_t",
   "size" : 4,
   "source_file" : "/external/libcxx/include/new",
   "underlying_type" : "_ZTIj"
  },
  {
   "alignment" : 1,
   "linker_set_key" : "_ZTISt4byte",
   "name" : "std::byte",
   "referenced_type" : "_ZTISt4byte",
   "self_type" : "_ZTISt4byte",
   "size" : 1,
   "source_file" : "/external/libcxx/include/cstddef",
   "underlying_type" : "_ZTIh"
  }
 ],
 "function_types" :
 [
  {
   "alignment" : 4,
   "linker_set_key" : "_ZTIFPvPKvE",
   "name" : "void *(const void *)",
   "parameters" :
   [
    {
     "referenced_type" : "_ZTIPKv"
    }
   ],
   "referenced_type" : "_ZTIFPvPKvE",
   "return_type" : "_ZTIPv",
   "self_type" : "_ZTIFPvPKvE",
   "source_file" : "/external/libcxx/include/functional"
  },
  {
   "alignment" : 4,
   "linker_set_key" : "_ZTIFPvS_E",
   "name" : "void *(void *)",
   "parameters" :
   [
    {
     "referenced_type" : "_ZTIPv"
    }
   ],
   "referenced_type" : "_ZTIFPvS_E",
   "return_type" : "_ZTIPv",
   "self_type" : "_ZTIFPvS_E",
   "source_file" : "/external/libcxx/include/__threading_support"
  },
  {
   "alignment" : 4,
   "linker_set_key" : "_ZTIFPvS_jPKvE",
   "name" : "void *(void *, unsigned int, const void *)",
   "parameters" :
   [
    {
     "referenced_type" : "_ZTIPv"
    },
    {
     "referenced_type" : "_ZTIj"
    },
    {
     "referenced_type" : "_ZTIPKv"
    }
   ],
   "referenced_type" : "_ZTIFPvS_jPKvE",
   "return_type" : "_ZTIPv",
   "self_type" : "_ZTIFPvS_jPKvE",
   "source_file" : "/out/soong/.intermediates/bionic/libc/libc.llndk/android_vendor.30_arm_armv8-a_shared/gen/include/malloc.h"
  },
  {
   "alignment" : 4,
   "linker_set_key" : "_ZTIFPvjPKvE",
   "name" : "void *(unsigned int, const void *)",
   "parameters" :
   [
    {
     "referenced_type" : "_ZTIj"
    },
    {
     "referenced_type" : "_ZTIPKv"
    }
   ],
   "referenced_type" : "_ZTIFPvjPKvE",
   "return_type" : "_ZTIPv",
   "self_type" : "_ZTIFPvjPKvE",
   "source_file" : "/out/soong/.intermediates/bionic/libc/libc.llndk/android_vendor.30_arm_armv8-a_shared/gen/include/malloc.h"
  },
  {
   "alignment" : 4,
   "linker_set_key" : "_ZTIFPvjjPKvE",
   "name" : "void *(unsigned int, unsigned int, const void *)",
   "parameters" :
   [
    {
     "referenced_type" : "_ZTIj"
    },
    {
     "referenced_type" : "_ZTIj"
    },
    {
     "referenced_type" : "_ZTIPKv"
    }
   ],
   "referenced_type" : "_ZTIFPvjjPKvE",
   "return_type" : "_ZTIPv",
   "self_type" : "_ZTIFPvjjPKvE",
   "source_file" : "/out/soong/.intermediates/bionic/libc/libc.llndk/android_vendor.30_arm_armv8-a_shared/gen/include/malloc.h"
  },
  {
   "alignment" : 4,
   "linker_set_key" : "_ZTIFRNSt3__18ios_baseES1_E",
   "name" : "std::__1::ios_base &(std::__1::ios_base &)",
   "parameters" :
   [
    {
     "referenced_type" : "_ZTIRNSt3__18ios_baseE"
    }
   ],
   "referenced_type" : "_ZTIFRNSt3__18ios_baseES1_E",
   "return_type" : "_ZTIRNSt3__18ios_baseE",
   "self_type" : "_ZTIFRNSt3__18ios_baseES1_E",
   "source_file" : "/external/libcxx/include/system_error"
  },
  {
   "alignment" : 4,
   "linker_set_key" : "_ZTIFv6sigvalE",
   "name" : "void (sigval)",
   "parameters" :
   [
    {
     "referenced_type" : "_ZTI6sigval"
    }
   ],
   "referenced_type" : "_ZTIFv6sigvalE",
   "return_type" : "_ZTIv",
   "self_type" : "_ZTIFv6sigvalE",
   "source_file" : "/bionic/libc/kernel/uapi/asm-generic/siginfo.h"
  },
  {
   "alignment" : 4,
   "linker_set_key" : "_ZTIFvNSt3__18ios_base5eventERS0_iE",
   "name" : "void (std::__1::ios_base::event, std::__1::ios_base &, int)",
   "parameters" :
   [
    {
     "referenced_type" : "_ZTINSt3__18ios_base5eventE"
    },
    {
     "referenced_type" : "_ZTIRNSt3__18ios_baseE"
    },
    {
     "referenced_type" : "_ZTIi"
    }
   ],
   "referenced_type" : "_ZTIFvNSt3__18ios_base5eventERS0_iE",
   "return_type" : "_ZTIv",
   "self_type" : "_ZTIFvNSt3__18ios_base5eventERS0_iE",
   "source_file" : "/external/libcxx/include/ios"
  },
  {
   "alignment" : 4,
   "linker_set_key" : "_ZTIFvPvE",
   "name" : "void (void *)",
   "parameters" :
   [
    {
     "referenced_type" : "_ZTIPv"
    }
   ],
   "referenced_type" : "_ZTIFvPvE",
   "return_type" : "_ZTIv",
   "self_type" : "_ZTIFvPvE",
   "source_file" : "/external/libcxx/include/type_traits"
  },
  {
   "alignment" : 4,
   "linker_set_key" : "_ZTIFvPvPKvE",
   "name" : "void (void *, const void *)",
   "parameters" :
   [
    {
     "referenced_type" : "_ZTIPv"
    },
    {
     "referenced_type" : "_ZTIPKv"
    }
   ],
   "referenced_type" : "_ZTIFvPvPKvE",
   "return_type" : "_ZTIv",
   "self_type" : "_ZTIFvPvPKvE",
   "source_file" : "/out/soong/.intermediates/bionic/libc/libc.llndk/android_vendor.30_arm_armv8-a_shared/gen/include/malloc.h"
  },
  {
   "alignment" : 4,
   "linker_set_key" : "_ZTIFvRKNSt3__119__libcpp_debug_infoEE",
   "name" : "void (const std::__1::__libcpp_debug_info &)",
   "parameters" :
   [
    {
     "referenced_type" : "_ZTIRKNSt3__119__libcpp_debug_infoE"
    }
   ],
   "referenced_type" : "_ZTIFvRKNSt3__119__libcpp_debug_infoEE",
   "return_type" : "_ZTIv",
   "self_type" : "_ZTIFvRKNSt3__119__libcpp_debug_infoEE",
   "source_file" : "/external/libcxx/include/__debug"
  },
  {
   "alignment" : 4,
   "linker_set_key" : "_ZTIFviE",
   "name" : "void (int)",
   "parameters" :
   [
    {
     "referenced_type" : "_ZTIi"
    }
   ],
   "referenced_type" : "_ZTIFviE",
   "return_type" : "_ZTIv",
   "self_type" : "_ZTIFviE",
   "source_file" : "/bionic/libc/kernel/uapi/asm-arm/asm/signal.h"
  },
  {
   "alignment" : 4,
   "linker_set_key" : "_ZTIFviP7siginfoPvE",
   "name" : "void (int, siginfo *, void *)",
   "parameters" :
   [
    {
     "referenced_type" : "_ZTIi"
    },
    {
     "referenced_type" : "_ZTIP7siginfo"
    },
    {
     "referenced_type" : "_ZTIPv"
    }
   ],
   "referenced_type" : "_ZTIFviP7siginfoPvE",
   "return_type" : "_ZTIv",
   "self_type" : "_ZTIFviP7siginfoPvE",
   "source_file" : "/bionic/libc/kernel/uapi/asm-arm/asm/signal.h"
  },
  {
   "alignment" : 4,
   "linker_set_key" : "_ZTIFvvE",
   "name" : "void ()",
   "referenced_type" : "_ZTIFvvE",
   "return_type" : "_ZTIv",
   "self_type" : "_ZTIFvvE",
   "source_file" : "/bionic/libc/kernel/uapi/asm-arm/asm/signal.h"
  }
 ],
 "functions" :
 [
  {
   "function_name" : "android::hidl::memory::V1_0::implementation::HIDL_FETCH_IMapper",
   "linker_set_key" : "HIDL_FETCH_IMapper",
   "parameters" :
   [
    {
     "referenced_type" : "_ZTIPKc"
    }
   ],
   "return_type" : "_ZTIPN7android4hidl6memory4V1_07IMapperE",
   "source_file" : "/system/libhidl/transport/memory/1.0/default/HidlFetch.h"
  },
  {
   "function_name" : "android::hidl::memory::V1_0::implementation::AshmemMapper::mapMemory",
   "linker_set_key" : "_ZN7android4hidl6memory4V1_014implementation12AshmemMapper9mapMemoryERKNS_8hardware11hidl_memoryE",
   "parameters" :
   [
    {
     "is_this_ptr" : true,
     "referenced_type" : "_ZTIPN7android4hidl6memory4V1_014implementation12AshmemMapperE"
    },
    {
     "referenced_type" : "_ZTIRKN7android8hardware11hidl_memoryE"
    }
   ],
   "return_type" : "_ZTIN7android8hardware6ReturnINS_2spINS_4hidl6memory4V1_07IMemoryEEEEE",
   "source_file" : "/system/libhidl/transport/memory/1.0/default/AshmemMapper.h"
  },
  {
   "function_name" : "android::hidl::memory::V1_0::implementation::AshmemMemory::getPointer",
   "linker_set_key" : "_ZN7android4hidl6memory4V1_014implementation12AshmemMemory10getPointerEv",
   "parameters" :
   [
    {
     "is_this_ptr" : true,
     "referenced_type" : "_ZTIPN7android4hidl6memory4V1_014implementation12AshmemMemoryE"
    }
   ],
   "return_type" : "_ZTIN7android8hardware6ReturnIPvEE",
   "source_file" : "/system/libhidl/transport/memory/1.0/default/AshmemMemory.h"
  },
  {
   "function_name" : "android::hidl::memory::V1_0::implementation::AshmemMemory::updateRange",
   "linker_set_key" : "_ZN7android4hidl6memory4V1_014implementation12AshmemMemory11updateRangeEyy",
   "parameters" :
   [
    {
     "is_this_ptr" : true,
     "referenced_type" : "_ZTIPN7android4hidl6memory4V1_014implementation12AshmemMemoryE"
    },
    {
     "referenced_type" : "_ZTIy"
    },
    {
     "referenced_type" : "_ZTIy"
    }
   ],
   "return_type" : "_ZTIN7android8hardware6ReturnIvEE",
   "source_file" : "/system/libhidl/transport/memory/1.0/default/AshmemMemory.h"
  },
  {
   "function_name" : "android::hidl::memory::V1_0::implementation::AshmemMemory::read",
   "linker_set_key" : "_ZN7android4hidl6memory4V1_014implementation12AshmemMemory4readEv",
   "parameters" :
   [
    {
     "is_this_ptr" : true,
     "referenced_type" : "_ZTIPN7android4hidl6memory4V1_014implementation12AshmemMemoryE"
    }
   ],
   "return_type" : "_ZTIN7android8hardware6ReturnIvEE",
   "source_file" : "/system/libhidl/transport/memory/1.0/default/AshmemMemory.h"
  },
  {
   "function_name" : "android::hidl::memory::V1_0::implementation::AshmemMemory::commit",
   "linker_set_key" : "_ZN7android4hidl6memory4V1_014implementation12AshmemMemory6commitEv",
   "parameters" :
   [
    {
     "is_this_ptr" : true,
     "referenced_type" : "_ZTIPN7android4hidl6memory4V1_014implementation12AshmemMemoryE"
    }
   ],
   "return_type" : "_ZTIN7android8hardware6ReturnIvEE",
   "source_file" : "/system/libhidl/transport/memory/1.0/default/AshmemMemory.h"
  },
  {
   "function_name" : "android::hidl::memory::V1_0::implementation::AshmemMemory::update",
   "linker_set_key" : "_ZN7android4hidl6memory4V1_014implementation12AshmemMemory6updateEv",
   "parameters" :
   [
    {
     "is_this_ptr" : true,
     "referenced_type" : "_ZTIPN7android4hidl6memory4V1_014implementation12AshmemMemoryE"
    }
   ],
   "return_type" : "_ZTIN7android8hardware6ReturnIvEE",
   "source_file" : "/system/libhidl/transport/memory/1.0/default/AshmemMemory.h"
  },
  {
   "function_name" : "android::hidl::memory::V1_0::implementation::AshmemMemory::getSize",
   "linker_set_key" : "_ZN7android4hidl6memory4V1_014implementation12AshmemMemory7getSizeEv",
   "parameters" :
   [
    {
     "is_this_ptr" : true,
     "referenced_type" : "_ZTIPN7android4hidl6memory4V1_014implementation12AshmemMemoryE"
    }
   ],
   "return_type" : "_ZTIN7android8hardware6ReturnIyEE",
   "source_file" : "/system/libhidl/transport/memory/1.0/default/AshmemMemory.h"
  },
  {
   "function_name" : "android::hidl::memory::V1_0::implementation::AshmemMemory::readRange",
   "linker_set_key" : "_ZN7android4hidl6memory4V1_014implementation12AshmemMemory9readRangeEyy",
   "parameters" :
   [
    {
     "is_this_ptr" : true,
     "referenced_type" : "_ZTIPN7android4hidl6memory4V1_014implementation12AshmemMemoryE"
    },
    {
     "referenced_type" : "_ZTIy"
    },
    {
     "referenced_type" : "_ZTIy"
    }
   ],
   "return_type" : "_ZTIN7android8hardware6ReturnIvEE",
   "source_file" : "/system/libhidl/transport/memory/1.0/default/AshmemMemory.h"
  },
  {
   "function_name" : "android::hidl::memory::V1_0::implementation::AshmemMemory::AshmemMemory",
   "linker_set_key" : "_ZN7android4hidl6memory4V1_014implementation12AshmemMemoryC1ERKNS_8hardware11hidl_memoryEPv",
   "parameters" :
   [
    {
     "is_this_ptr" : true,
     "referenced_type" : "_ZTIPN7android4hidl6memory4V1_014implementation12AshmemMemoryE"
    },
    {
     "referenced_type" : "_ZTIRKN7android8hardware11hidl_memoryE"
    },
    {
     "referenced_type" : "_ZTIPv"
    }
   ],
   "return_type" : "_ZTIv",
   "source_file" : "/system/libhidl/transport/memory/1.0/default/AshmemMemory.h"
  },
  {
   "function_name" : "android::hidl::memory::V1_0::implementation::AshmemMemory::AshmemMemory",
   "linker_set_key" : "_ZN7android4hidl6memory4V1_014implementation12AshmemMemoryC2ERKNS_8hardware11hidl_memoryEPv",
   "parameters" :
   [
    {
     "is_this_ptr" : true,
     "referenced_type" : "_ZTIPN7android4hidl6memory4V1_014implementation12AshmemMemoryE"
    },
    {
     "referenced_type" : "_ZTIRKN7android8hardware11hidl_memoryE"
    },
    {
     "referenced_type" : "_ZTIPv"
    }
   ],
   "return_type" : "_ZTIv",
   "source_file" : "/system/libhidl/transport/memory/1.0/default/AshmemMemory.h"
  },
  {
   "function_name" : "android::hidl::memory::V1_0::implementation::AshmemMemory::~AshmemMemory",
   "linker_set_key" : "_ZN7android4hidl6memory4V1_014implementation12AshmemMemoryD0Ev",
   "parameters" :
   [
    {
     "is_this_ptr" : true,
     "referenced_type" : "_ZTIPN7android4hidl6memory4V1_014implementation12AshmemMemoryE"
    }
   ],
   "return_type" : "_ZTIv",
   "source_file" : "/system/libhidl/transport/memory/1.0/default/AshmemMemory.h"
  },
  {
   "function_name" : "android::hidl::memory::V1_0::implementation::AshmemMemory::~AshmemMemory",
   "linker_set_key" : "_ZN7android4hidl6memory4V1_014implementation12AshmemMemoryD1Ev",
   "parameters" :
   [
    {
     "is_this_ptr" : true,
     "referenced_type" : "_ZTIPN7android4hidl6memory4V1_014implementation12AshmemMemoryE"
    }
   ],
   "return_type" : "_ZTIv",
   "source_file" : "/system/libhidl/transport/memory/1.0/default/AshmemMemory.h"
  },
  {
   "function_name" : "android::hidl::memory::V1_0::implementation::AshmemMemory::~AshmemMemory",
   "linker_set_key" : "_ZN7android4hidl6memory4V1_014implementation12AshmemMemoryD2Ev",
   "parameters" :
   [
    {
     "is_this_ptr" : true,
     "referenced_type" : "_ZTIPN7android4hidl6memory4V1_014implementation12AshmemMemoryE"
    }
   ],
   "return_type" : "_ZTIv",
   "source_file" : "/system/libhidl/transport/memory/1.0/default/AshmemMemory.h"
  }
 ],
 "global_vars" : [],
 "lvalue_reference_types" :
 [
  {
   "alignment" : 4,
   "linker_set_key" : "_ZTIR9mbstate_t",
   "name" : "mbstate_t &",
   "referenced_type" : "_ZTI9mbstate_t",
   "self_type" : "_ZTIR9mbstate_t",
   "size" : 4,
   "source_file" : "/external/libcxx/include/__locale"
  },
  {
   "alignment" : 4,
   "linker_set_key" : "_ZTIRA10_Kc",
   "name" : "char const (&)[10]",
   "referenced_type" : "_ZTIA10_Kc",
   "self_type" : "_ZTIRA10_Kc",
   "size" : 4,
   "source_file" : "/external/libcxx/include/type_traits"
  },
  {
   "alignment" : 4,
   "linker_set_key" : "_ZTIRA11_Kc",
   "name" : "char const (&)[11]",
   "referenced_type" : "_ZTIA11_Kc",
   "self_type" : "_ZTIRA11_Kc",
   "size" : 4,
   "source_file" : "/external/libcxx/include/type_traits"
  },
  {
   "alignment" : 4,
   "linker_set_key" : "_ZTIRA17_Kc",
   "name" : "char const (&)[17]",
   "referenced_type" : "_ZTIA17_Kc",
   "self_type" : "_ZTIRA17_Kc",
   "size" : 4,
   "source_file" : "/external/libcxx/include/type_traits"
  },
  {
   "alignment" : 4,
   "linker_set_key" : "_ZTIRA2_Kc",
   "name" : "char const (&)[2]",
   "referenced_type" : "_ZTIA2_Kc",
   "self_type" : "_ZTIRA2_Kc",
   "size" : 4,
   "source_file" : "/external/libcxx/include/type_traits"
  },
  {
   "alignment" : 4,
   "linker_set_key" : "_ZTIRA3_Kc",
   "name" : "char const (&)[3]",
   "referenced_type" : "_ZTIA3_Kc",
   "self_type" : "_ZTIRA3_Kc",
   "size" : 4,
   "source_file" : "/external/libcxx/include/type_traits"
  },
  {
   "alignment" : 4,
   "linker_set_key" : "_ZTIRA8_Kc",
   "name" : "char const (&)[8]",
   "referenced_type" : "_ZTIA8_Kc",
   "self_type" : "_ZTIRA8_Kc",
   "size" : 4,
   "source_file" : "/external/libcxx/include/type_traits"
  },
  {
   "alignment" : 4,
   "linker_set_key" : "_ZTIRA9_Kc",
   "name" : "char const (&)[9]",
   "referenced_type" : "_ZTIA9_Kc",
   "self_type" : "_ZTIRA9_Kc",
   "size" : 4,
   "source_file" : "/external/libcxx/include/type_traits"
  },
  {
   "alignment" : 4,
   "linker_set_key" : "_ZTIRDi",
   "name" : "char32_t &",
   "referenced_type" : "_ZTIDi",
   "self_type" : "_ZTIRDi",
   "size" : 4,
   "source_file" : "/external/libcxx/include/type_traits"
  },
  {
   "alignment" : 4,
   "linker_set_key" : "_ZTIRDs",
   "name" : "char16_t &",
   "referenced_type" : "_ZTIDs",
   "self_type" : "_ZTIRDs",
   "size" : 4,
   "source_file" : "/external/libcxx/include/type_traits"
  },
  {
   "alignment" : 4,
   "linker_set_key" : "_ZTIRK7log_msg",
   "name" : "const log_msg &",
   "referenced_type" : "_ZTIK7log_msg",
   "self_type" : "_ZTIRK7log_msg",
   "size" : 4,
   "source_file" : "/system/core/liblog/include/log/log_read.h"
  },
  {
   "alignment" : 4,
   "linker_set_key" : "_ZTIRKDi",
   "name" : "const char32_t &",
   "referenced_type" : "_ZTIKDi",
   "self_type" : "_ZTIRKDi",
   "size" : 4,
   "source_file" : "/external/libcxx/include/__string"
  },
  {
   "alignment" : 4,
   "linker_set_key" : "_ZTIRKDs",
   "name" : "const char16_t &",
   "referenced_type" : "_ZTIKDs",
   "self_type" : "_ZTIRKDs",
   "size" : 4,
   "source_file" : "/external/libcxx/include/__string"
  },
  {
   "alignment" : 4,
   "linker_set_key" : "_ZTIRKN7android2spINS_8hardware20hidl_death_recipientEEE",
   "name" : "const android::sp<android::hardware::hidl_death_recipient> &",
   "referenced_type" : "_ZTIKN7android2spINS_8hardware20hidl_death_recipientEEE",
   "self_type" : "_ZTIRKN7android2spINS_8hardware20hidl_death_recipientEEE",
   "size" : 4,
   "source_file" : "/system/libhidl/base/include/hidl/HidlSupport.h"
  },
  {
   "alignment" : 4,
   "linker_set_key" : "_ZTIRKN7android8hardware11hidl_handleE",
   "name" : "const android::hardware::hidl_handle &",
   "referenced_type" : "_ZTIKN7android8hardware11hidl_handleE",
   "self_type" : "_ZTIRKN7android8hardware11hidl_handleE",
   "size" : 4,
   "source_file" : "/system/libhidl/base/include/hidl/HidlSupport.h"
  },
  {
   "alignment" : 4,
   "linker_set_key" : "_ZTIRKN7android8hardware11hidl_memoryE",
   "name" : "const android::hardware::hidl_memory &",
   "referenced_type" : "_ZTIKN7android8hardware11hidl_memoryE",
   "self_type" : "_ZTIRKN7android8hardware11hidl_memoryE",
   "size" : 4,
   "source_file" : "/system/libhidl/base/include/hidl/HidlSupport.h"
  },
  {
   "alignment" : 4,
   "linker_set_key" : "_ZTIRKN7android8hardware11hidl_stringE",
   "name" : "const android::hardware::hidl_string &",
   "referenced_type" : "_ZTIKN7android8hardware11hidl_stringE",
   "self_type" : "_ZTIRKN7android8hardware11hidl_stringE",
   "size" : 4,
   "source_file" : "/system/libhidl/base/include/hidl/HidlSupport.h"
  },
  {
   "alignment" : 4,
   "linker_set_key" : "_ZTIRKN7android8hardware12hidl_versionE",
   "name" : "const android::hardware::hidl_version &",
   "referenced_type" : "_ZTIKN7android8hardware12hidl_versionE",
   "self_type" : "_ZTIRKN7android8hardware12hidl_versionE",
   "size" : 4,
   "source_file" : "/system/libhidl/base/include/hidl/HidlSupport.h"
  },
  {
   "alignment" : 4,
   "linker_set_key" : "_ZTIRKN7android8hardware6StatusE",
   "name" : "const android::hardware::Status &",
   "referenced_type" : "_ZTIKN7android8hardware6StatusE",
   "self_type" : "_ZTIRKN7android8hardware6StatusE",
   "size" : 4,
   "source_file" : "/system/libhidl/base/include/hidl/Status.h"
  },
  {
   "linker_set_key" : "_ZTIRKN7android8hardware8hidl_vec4iterIXTL0__EEE",
   "name" : "const iter<is_const> &",
   "referenced_type" : "_ZTIKN7android8hardware8hidl_vec4iterIXTL0__EEE",
   "self_type" : "_ZTIRKN7android8hardware8hidl_vec4iterIXTL0__EEE",
   "source_file" : "/system/libhidl/base/include/hidl/HidlSupport.h"
  },
  {
   "alignment" : 4,
   "linker_set_key" : "_ZTIRKNSt3__110error_codeE",
   "name" : "const std::error_code &",
   "referenced_type" : "_ZTIKNSt3__110error_codeE",
   "self_type" : "_ZTIRKNSt3__110error_codeE",
   "size" : 4,
   "source_file" : "/external/libcxx/include/system_error"
  },
  {
   "alignment" : 4,
   "linker_set_key" : "_ZTIRKNSt3__112basic_stringIDiNS_11char_traitsIDiEENS_9allocatorIDiEEE5__repE",
   "name" : "const std::basic_string<char32_t, char_traits<char32_t>, allocator<char32_t> >::__rep &",
   "referenced_type" : "_ZTIKNSt3__112basic_stringIDiNS_11char_traitsIDiEENS_9allocatorIDiEEE5__repE",
   "self_type" : "_ZTIRKNSt3__112basic_stringIDiNS_11char_traitsIDiEENS_9allocatorIDiEEE5__repE",
   "size" : 4,
   "source_file" : "/external/libcxx/include/memory"
  },
  {
   "alignment" : 4,
   "linker_set_key" : "_ZTIRKNSt3__112basic_stringIDsNS_11char_traitsIDsEENS_9allocatorIDsEEE5__repE",
   "name" : "const std::basic_string<char16_t, char_traits<char16_t>, allocator<char16_t> >::__rep &",
   "referenced_type" : "_ZTIKNSt3__112basic_stringIDsNS_11char_traitsIDsEENS_9allocatorIDsEEE5__repE",
   "self_type" : "_ZTIRKNSt3__112basic_stringIDsNS_11char_traitsIDsEENS_9allocatorIDsEEE5__repE",
   "size" : 4,
   "source_file" : "/external/libcxx/include/memory"
  },
  {
   "alignment" : 4,
   "linker_set_key" : "_ZTIRKNSt3__112basic_stringIcNS_11char_traitsIcEENS_9allocatorIcEEE5__repE",
   "name" : "const std::basic_string<char>::__rep &",
   "referenced_type" : "_ZTIKNSt3__112basic_stringIcNS_11char_traitsIcEENS_9allocatorIcEEE5__repE",
   "self_type" : "_ZTIRKNSt3__112basic_stringIcNS_11char_traitsIcEENS_9allocatorIcEEE5__repE",
   "size" : 4,
   "source_file" : "/external/libcxx/include/memory"
  },
  {
   "alignment" : 4,
   "linker_set_key" : "_ZTIRKNSt3__112basic_stringIcNS_11char_traitsIcEENS_9allocatorIcEEEE",
   "name" : "const std::basic_string<char, std::char_traits<char>, std::allocator<char> > &",
   "referenced_type" : "_ZTIKNSt3__112basic_stringIcNS_11char_traitsIcEENS_9allocatorIcEEEE",
   "self_type" : "_ZTIRKNSt3__112basic_stringIcNS_11char_traitsIcEENS_9allocatorIcEEEE",
   "size" : 4,
   "source_file" : "/external/libcxx/include/type_traits"
  },
  {
   "alignment" : 4,
   "linker_set_key" : "_ZTIRKNSt3__112basic_stringIwNS_11char_traitsIwEENS_9allocatorIwEEE5__repE",
   "name" : "const std::basic_string<wchar_t>::__rep &",
   "referenced_type" : "_ZTIKNSt3__112basic_stringIwNS_11char_traitsIwEENS_9allocatorIwEEE5__repE",
   "self_type" : "_ZTIRKNSt3__112basic_stringIwNS_11char_traitsIwEENS_9allocatorIwEEE5__repE",
   "size" : 4,
   "source_file" : "/external/libcxx/include/memory"
  },
  {
   "alignment" : 4,
   "linker_set_key" : "_ZTIRKNSt3__112basic_stringIwNS_11char_traitsIwEENS_9allocatorIwEEEE",
   "name" : "const std::basic_string<wchar_t, std::char_traits<wchar_t>, std::allocator<wchar_t> > &",
   "referenced_type" : "_ZTIKNSt3__112basic_stringIwNS_11char_traitsIwEENS_9allocatorIwEEEE",
   "self_type" : "_ZTIRKNSt3__112basic_stringIwNS_11char_traitsIwEENS_9allocatorIwEEEE",
   "size" : 4,
   "source_file" : "/external/libcxx/include/type_traits"
  },
  {
   "linker_set_key" : "_ZTIRKNSt3__114__bit_iteratorIT_XT0_EXT1_EEE",
   "name" : "const __bit_iterator<_Cp, _IsConst, > &",
   "referenced_type" : "_ZTIKNSt3__114__bit_iteratorIT_XT0_EXT1_EEE",
   "self_type" : "_ZTIRKNSt3__114__bit_iteratorIT_XT0_EXT1_EEE",
   "source_file" : "/external/libcxx/include/__bit_reference"
  },
  {
   "linker_set_key" : "_ZTIRKNSt3__114__map_iteratorIT_EE",
   "name" : "const __map_iterator<_TreeIterator> &",
   "referenced_type" : "_ZTIKNSt3__114__map_iteratorIT_EE",
   "self_type" : "_ZTIRKNSt3__114__map_iteratorIT_EE",
   "source_file" : "/external/libcxx/include/map"
  },
  {
   "alignment" : 4,
   "linker_set_key" : "_ZTIRKNSt3__114error_categoryE",
   "name" : "const std::error_category &",
   "referenced_type" : "_ZTIKNSt3__114error_categoryE",
   "self_type" : "_ZTIRKNSt3__114error_categoryE",
   "size" : 4,
   "source_file" : "/external/libcxx/include/system_error"
  },
  {
   "linker_set_key" : "_ZTIRKNSt3__115__tree_iteratorIT_T0_T1_EE",
   "name" : "const __tree_iterator<_Tp, _NodePtr, _DiffType> &",
   "referenced_type" : "_ZTIKNSt3__115__tree_iteratorIT_T0_T1_EE",
   "self_type" : "_ZTIRKNSt3__115__tree_iteratorIT_T0_T1_EE",
   "source_file" : "/external/libcxx/include/__tree"
  },
  {
   "alignment" : 4,
   "linker_set_key" : "_ZTIRKNSt3__115error_conditionE",
   "name" : "const std::error_condition &",
   "referenced_type" : "_ZTIKNSt3__115error_conditionE",
   "self_type" : "_ZTIRKNSt3__115error_conditionE",
   "size" : 4,
   "source_file" : "/external/libcxx/include/system_error"
  },
  {
   "alignment" : 4,
   "linker_set_key" : "_ZTIRKNSt3__117__compressed_pairIPcPFvPvEEE",
   "name" : "const std::__compressed_pair<char *, void (*)(void *)> &",
   "referenced_type" : "_ZTIKNSt3__117__compressed_pairIPcPFvPvEEE",
   "self_type" : "_ZTIRKNSt3__117__compressed_pairIPcPFvPvEEE",
   "size" : 4,
   "source_file" : "/external/libcxx/include/type_traits"
  },
  {
   "alignment" : 4,
   "linker_set_key" : "_ZTIRKNSt3__117__compressed_pairIPhPFvPvEEE",
   "name" : "const std::__compressed_pair<unsigned char *, void (*)(void *)> &",
   "referenced_type" : "_ZTIKNSt3__117__compressed_pairIPhPFvPvEEE",
   "self_type" : "_ZTIRKNSt3__117__compressed_pairIPhPFvPvEEE",
   "size" : 4,
   "source_file" : "/external/libcxx/include/type_traits"
  },
  {
   "alignment" : 4,
   "linker_set_key" : "_ZTIRKNSt3__117__compressed_pairIPjPFvPvEEE",
   "name" : "const std::__compressed_pair<unsigned int *, void (*)(void *)> &",
   "referenced_type" : "_ZTIKNSt3__117__compressed_pairIPjPFvPvEEE",
   "self_type" : "_ZTIRKNSt3__117__compressed_pairIPjPFvPvEEE",
   "size" : 4,
   "source_file" : "/external/libcxx/include/type_traits"
  },
  {
   "alignment" : 4,
   "linker_set_key" : "_ZTIRKNSt3__117basic_string_viewIDiNS_11char_traitsIDiEEEE",
   "name" : "const std::basic_string_view<char32_t, std::char_traits<char32_t> > &",
   "referenced_type" : "_ZTIKNSt3__117basic_string_viewIDiNS_11char_traitsIDiEEEE",
   "self_type" : "_ZTIRKNSt3__117basic_string_viewIDiNS_11char_traitsIDiEEEE",
   "size" : 4,
   "source_file" : "/external/libcxx/include/string_view"
  },
  {
   "alignment" : 4,
   "linker_set_key" : "_ZTIRKNSt3__117basic_string_viewIDsNS_11char_traitsIDsEEEE",
   "name" : "const std::basic_string_view<char16_t, std::char_traits<char16_t> > &",
   "referenced_type" : "_ZTIKNSt3__117basic_string_viewIDsNS_11char_traitsIDsEEEE",
   "self_type" : "_ZTIRKNSt3__117basic_string_viewIDsNS_11char_traitsIDsEEEE",
   "size" : 4,
   "source_file" : "/external/libcxx/include/string_view"
  },
  {
   "alignment" : 4,
   "linker_set_key" : "_ZTIRKNSt3__117basic_string_viewIcNS_11char_traitsIcEEEE",
   "name" : "const std::basic_string_view<char, std::char_traits<char> > &",
   "referenced_type" : "_ZTIKNSt3__117basic_string_viewIcNS_11char_traitsIcEEEE",
   "self_type" : "_ZTIRKNSt3__117basic_string_viewIcNS_11char_traitsIcEEEE",
   "size" : 4,
   "source_file" : "/external/libcxx/include/string_view"
  },
  {
   "alignment" : 4,
   "linker_set_key" : "_ZTIRKNSt3__117basic_string_viewIwNS_11char_traitsIwEEEE",
   "name" : "const std::basic_string_view<wchar_t, std::char_traits<wchar_t> > &",
   "referenced_type" : "_ZTIKNSt3__117basic_string_viewIwNS_11char_traitsIwEEEE",
   "self_type" : "_ZTIRKNSt3__117basic_string_viewIwNS_11char_traitsIwEEEE",
   "size" : 4,
   "source_file" : "/external/libcxx/include/string_view"
  },
  {
   "alignment" : 4,
   "linker_set_key" : "_ZTIRKNSt3__118__sfinae_ctor_baseILb0ELb0EEE",
   "name" : "const std::__sfinae_ctor_base<false, false> &",
   "referenced_type" : "_ZTIKNSt3__118__sfinae_ctor_baseILb0ELb0EEE",
   "self_type" : "_ZTIRKNSt3__118__sfinae_ctor_baseILb0ELb0EEE",
   "size" : 4,
   "source_file" : "/external/libcxx/include/__tuple"
  },
  {
   "alignment" : 4,
   "linker_set_key" : "_ZTIRKNSt3__118__sfinae_ctor_baseILb0ELb1EEE",
   "name" : "const std::__sfinae_ctor_base<false, true> &",
   "referenced_type" : "_ZTIKNSt3__118__sfinae_ctor_baseILb0ELb1EEE",
   "self_type" : "_ZTIRKNSt3__118__sfinae_ctor_baseILb0ELb1EEE",
   "size" : 4,
   "source_file" : "/external/libcxx/include/__tuple"
  },
  {
   "alignment" : 4,
   "linker_set_key" : "_ZTIRKNSt3__118__sfinae_ctor_baseILb1ELb0EEE",
   "name" : "const std::__sfinae_ctor_base<true, false> &",
   "referenced_type" : "_ZTIKNSt3__118__sfinae_ctor_baseILb1ELb0EEE",
   "self_type" : "_ZTIRKNSt3__118__sfinae_ctor_baseILb1ELb0EEE",
   "size" : 4,
   "source_file" : "/external/libcxx/include/__tuple"
  },
  {
   "alignment" : 4,
   "linker_set_key" : "_ZTIRKNSt3__119__libcpp_debug_infoE",
   "name" : "const std::__libcpp_debug_info &",
   "referenced_type" : "_ZTIKNSt3__119__libcpp_debug_infoE",
   "self_type" : "_ZTIRKNSt3__119__libcpp_debug_infoE",
   "size" : 4,
   "source_file" : "/external/libcxx/include/__debug"
  },
  {
   "linker_set_key" : "_ZTIRKNSt3__120__map_const_iteratorIT_EE",
   "name" : "const __map_const_iterator<_TreeIterator> &",
   "referenced_type" : "_ZTIKNSt3__120__map_const_iteratorIT_EE",
   "self_type" : "_ZTIRKNSt3__120__map_const_iteratorIT_EE",
   "source_file" : "/external/libcxx/include/map"
  },
  {
   "alignment" : 4,
   "linker_set_key" : "_ZTIRKNSt3__120__sfinae_assign_baseILb0ELb0EEE",
   "name" : "const std::__sfinae_assign_base<false, false> &",
   "referenced_type" : "_ZTIKNSt3__120__sfinae_assign_baseILb0ELb0EEE",
   "self_type" : "_ZTIRKNSt3__120__sfinae_assign_baseILb0ELb0EEE",
   "size" : 4,
   "source_file" : "/external/libcxx/include/__tuple"
  },
  {
   "alignment" : 4,
   "linker_set_key" : "_ZTIRKNSt3__120__sfinae_assign_baseILb0ELb1EEE",
   "name" : "const std::__sfinae_assign_base<false, true> &",
   "referenced_type" : "_ZTIKNSt3__120__sfinae_assign_baseILb0ELb1EEE",
   "self_type" : "_ZTIRKNSt3__120__sfinae_assign_baseILb0ELb1EEE",
   "size" : 4,
   "source_file" : "/external/libcxx/include/__tuple"
  },
  {
   "alignment" : 4,
   "linker_set_key" : "_ZTIRKNSt3__120__sfinae_assign_baseILb1ELb0EEE",
   "name" : "const std::__sfinae_assign_base<true, false> &",
   "referenced_type" : "_ZTIKNSt3__120__sfinae_assign_baseILb1ELb0EEE",
   "self_type" : "_ZTIRKNSt3__120__sfinae_assign_baseILb1ELb0EEE",
   "size" : 4,
   "source_file" : "/external/libcxx/include/__tuple"
  },
  {
   "linker_set_key" : "_ZTIRKNSt3__121__tree_const_iteratorIT_T0_T1_EE",
   "name" : "const __tree_const_iterator<_Tp, _ConstNodePtr, _DiffType> &",
   "referenced_type" : "_ZTIKNSt3__121__tree_const_iteratorIT_T0_T1_EE",
   "self_type" : "_ZTIRKNSt3__121__tree_const_iteratorIT_T0_T1_EE",
   "source_file" : "/external/libcxx/include/__tree"
  },
  {
   "alignment" : 4,
   "linker_set_key" : "_ZTIRKNSt3__122__compressed_pair_elemINS_12basic_stringIDiNS_11char_traitsIDiEENS_9allocatorIDiEEE5__repELi0ELb0EEE",
   "name" : "const std::__compressed_pair_elem<std::basic_string<char32_t, char_traits<char32_t>, allocator<char32_t> >::__rep, 0, false> &",
   "referenced_type" : "_ZTIKNSt3__122__compressed_pair_elemINS_12basic_stringIDiNS_11char_traitsIDiEENS_9allocatorIDiEEE5__repELi0ELb0EEE",
   "self_type" : "_ZTIRKNSt3__122__compressed_pair_elemINS_12basic_stringIDiNS_11char_traitsIDiEENS_9allocatorIDiEEE5__repELi0ELb0EEE",
   "size" : 4,
   "source_file" : "/external/libcxx/include/type_traits"
  },
  {
   "alignment" : 4,
   "linker_set_key" : "_ZTIRKNSt3__122__compressed_pair_elemINS_12basic_stringIDsNS_11char_traitsIDsEENS_9allocatorIDsEEE5__repELi0ELb0EEE",
   "name" : "const std::__compressed_pair_elem<std::basic_string<char16_t, char_traits<char16_t>, allocator<char16_t> >::__rep, 0, false> &",
   "referenced_type" : "_ZTIKNSt3__122__compressed_pair_elemINS_12basic_stringIDsNS_11char_traitsIDsEENS_9allocatorIDsEEE5__repELi0ELb0EEE",
   "self_type" : "_ZTIRKNSt3__122__compressed_pair_elemINS_12basic_stringIDsNS_11char_traitsIDsEENS_9allocatorIDsEEE5__repELi0ELb0EEE",
   "size" : 4,
   "source_file" : "/external/libcxx/include/type_traits"
  },
  {
   "alignment" : 4,
   "linker_set_key" : "_ZTIRKNSt3__122__compressed_pair_elemINS_12basic_stringIcNS_11char_traitsIcEENS_9allocatorIcEEE5__repELi0ELb0EEE",
   "name" : "const std::__compressed_pair_elem<std::basic_string<char>::__rep, 0, false> &",
   "referenced_type" : "_ZTIKNSt3__122__compressed_pair_elemINS_12basic_stringIcNS_11char_traitsIcEENS_9allocatorIcEEE5__repELi0ELb0EEE",
   "self_type" : "_ZTIRKNSt3__122__compressed_pair_elemINS_12basic_stringIcNS_11char_traitsIcEENS_9allocatorIcEEE5__repELi0ELb0EEE",
   "size" : 4,
   "source_file" : "/external/libcxx/include/type_traits"
  },
  {
   "alignment" : 4,
   "linker_set_key" : "_ZTIRKNSt3__122__compressed_pair_elemINS_12basic_stringIwNS_11char_traitsIwEENS_9allocatorIwEEE5__repELi0ELb0EEE",
   "name" : "const std::__compressed_pair_elem<std::basic_string<wchar_t>::__rep, 0, false> &",
   "referenced_type" : "_ZTIKNSt3__122__compressed_pair_elemINS_12basic_stringIwNS_11char_traitsIwEENS_9allocatorIwEEE5__repELi0ELb0EEE",
   "self_type" : "_ZTIRKNSt3__122__compressed_pair_elemINS_12basic_stringIwNS_11char_traitsIwEENS_9allocatorIwEEE5__repELi0ELb0EEE",
   "size" : 4,
   "source_file" : "/external/libcxx/include/type_traits"
  },
  {
   "alignment" : 4,
   "linker_set_key" : "_ZTIRKNSt3__122__compressed_pair_elemINS_9allocatorIDiEELi1ELb1EEE",
   "name" : "const std::__compressed_pair_elem<std::allocator<char32_t>, 1, true> &",
   "referenced_type" : "_ZTIKNSt3__122__compressed_pair_elemINS_9allocatorIDiEELi1ELb1EEE",
   "self_type" : "_ZTIRKNSt3__122__compressed_pair_elemINS_9allocatorIDiEELi1ELb1EEE",
   "size" : 4,
   "source_file" : "/external/libcxx/include/type_traits"
  },
  {
   "alignment" : 4,
   "linker_set_key" : "_ZTIRKNSt3__122__compressed_pair_elemINS_9allocatorIDsEELi1ELb1EEE",
   "name" : "const std::__compressed_pair_elem<std::allocator<char16_t>, 1, true> &",
   "referenced_type" : "_ZTIKNSt3__122__compressed_pair_elemINS_9allocatorIDsEELi1ELb1EEE",
   "self_type" : "_ZTIRKNSt3__122__compressed_pair_elemINS_9allocatorIDsEELi1ELb1EEE",
   "size" : 4,
   "source_file" : "/external/libcxx/include/type_traits"
  },
  {
   "alignment" : 4,
   "linker_set_key" : "_ZTIRKNSt3__122__compressed_pair_elemINS_9allocatorIcEELi1ELb1EEE",
   "name" : "const std::__compressed_pair_elem<std::allocator<char>, 1, true> &",
   "referenced_type" : "_ZTIKNSt3__122__compressed_pair_elemINS_9allocatorIcEELi1ELb1EEE",
   "self_type" : "_ZTIRKNSt3__122__compressed_pair_elemINS_9allocatorIcEELi1ELb1EEE",
   "size" : 4,
   "source_file" : "/external/libcxx/include/type_traits"
  },
  {
   "alignment" : 4,
   "linker_set_key" : "_ZTIRKNSt3__122__compressed_pair_elemINS_9allocatorIwEELi1ELb1EEE",
   "name" : "const std::__compressed_pair_elem<std::allocator<wchar_t>, 1, true> &",
   "referenced_type" : "_ZTIKNSt3__122__compressed_pair_elemINS_9allocatorIwEELi1ELb1EEE",
   "self_type" : "_ZTIRKNSt3__122__compressed_pair_elemINS_9allocatorIwEELi1ELb1EEE",
   "size" : 4,
   "source_file" : "/external/libcxx/include/type_traits"
  },
  {
   "alignment" : 4,
   "linker_set_key" : "_ZTIRKNSt3__122__compressed_pair_elemIPFvPvELi1ELb0EEE",
   "name" : "const std::__compressed_pair_elem<void (*)(void *), 1, false> &",
   "referenced_type" : "_ZTIKNSt3__122__compressed_pair_elemIPFvPvELi1ELb0EEE",
   "self_type" : "_ZTIRKNSt3__122__compressed_pair_elemIPFvPvELi1ELb0EEE",
   "size" : 4,
   "source_file" : "/external/libcxx/include/type_traits"
  },
  {
   "alignment" : 4,
   "linker_set_key" : "_ZTIRKNSt3__122__compressed_pair_elemIPcLi0ELb0EEE",
   "name" : "const std::__compressed_pair_elem<char *, 0, false> &",
   "referenced_type" : "_ZTIKNSt3__122__compressed_pair_elemIPcLi0ELb0EEE",
   "self_type" : "_ZTIRKNSt3__122__compressed_pair_elemIPcLi0ELb0EEE",
   "size" : 4,
   "source_file" : "/external/libcxx/include/type_traits"
  },
  {
   "alignment" : 4,
   "linker_set_key" : "_ZTIRKNSt3__122__compressed_pair_elemIPhLi0ELb0EEE",
   "name" : "const std::__compressed_pair_elem<unsigned char *, 0, false> &",
   "referenced_type" : "_ZTIKNSt3__122__compressed_pair_elemIPhLi0ELb0EEE",
   "self_type" : "_ZTIRKNSt3__122__compressed_pair_elemIPhLi0ELb0EEE",
   "size" : 4,
   "source_file" : "/external/libcxx/include/type_traits"
  },
  {
   "alignment" : 4,
   "linker_set_key" : "_ZTIRKNSt3__122__compressed_pair_elemIPjLi0ELb0EEE",
   "name" : "const std::__compressed_pair_elem<unsigned int *, 0, false> &",
   "referenced_type" : "_ZTIKNSt3__122__compressed_pair_elemIPjLi0ELb0EEE",
   "self_type" : "_ZTIRKNSt3__122__compressed_pair_elemIPjLi0ELb0EEE",
   "size" : 4,
   "source_file" : "/external/libcxx/include/type_traits"
  },
  {
   "linker_set_key" : "_ZTIRKNSt3__124uniform_int_distribution10param_typeE",
   "name" : "const class std::__1::uniform_int_distribution::param_type &",
   "referenced_type" : "_ZTIKNSt3__124uniform_int_distribution10param_typeE",
   "self_type" : "_ZTIRKNSt3__124uniform_int_distribution10param_typeE",
   "source_file" : "/external/libcxx/include/algorithm"
  },
  {
   "linker_set_key" : "_ZTIRKNSt3__124uniform_int_distributionIT_EE",
   "name" : "const uniform_int_distribution<_IntType> &",
   "referenced_type" : "_ZTIKNSt3__124uniform_int_distributionIT_EE",
   "self_type" : "_ZTIRKNSt3__124uniform_int_distributionIT_EE",
   "source_file" : "/external/libcxx/include/algorithm"
  },
  {
   "alignment" : 4,
   "linker_set_key" : "_ZTIRKNSt3__15ctypeIcEE",
   "name" : "const std::ctype<char> &",
   "referenced_type" : "_ZTIKNSt3__15ctypeIcEE",
   "self_type" : "_ZTIRKNSt3__15ctypeIcEE",
   "size" : 4,
   "source_file" : "/external/libcxx/include/__locale"
  },
  {
   "alignment" : 4,
   "linker_set_key" : "_ZTIRKNSt3__16chrono10time_pointINS0_12steady_clockENS0_8durationIxNS_5ratioILx1ELx1000000000EEEEEEE",
   "name" : "const std::chrono::time_point<std::chrono::steady_clock, std::chrono::duration<long long, std::ratio<1, 1000000000> > > &",
   "referenced_type" : "_ZTIKNSt3__16chrono10time_pointINS0_12steady_clockENS0_8durationIxNS_5ratioILx1ELx1000000000EEEEEEE",
   "self_type" : "_ZTIRKNSt3__16chrono10time_pointINS0_12steady_clockENS0_8durationIxNS_5ratioILx1ELx1000000000EEEEEEE",
   "size" : 4,
   "source_file" : "/external/libcxx/include/chrono"
  },
  {
   "alignment" : 4,
   "linker_set_key" : "_ZTIRKNSt3__16chrono10time_pointINS0_12system_clockENS0_8durationIxNS_5ratioILx1ELx1000000000EEEEEEE",
   "name" : "const std::chrono::time_point<std::chrono::system_clock, std::chrono::duration<long long, std::ratio<1, 1000000000> > > &",
   "referenced_type" : "_ZTIKNSt3__16chrono10time_pointINS0_12system_clockENS0_8durationIxNS_5ratioILx1ELx1000000000EEEEEEE",
   "self_type" : "_ZTIRKNSt3__16chrono10time_pointINS0_12system_clockENS0_8durationIxNS_5ratioILx1ELx1000000000EEEEEEE",
   "size" : 4,
   "source_file" : "/external/libcxx/include/chrono"
  },
  {
   "alignment" : 4,
   "linker_set_key" : "_ZTIRKNSt3__16chrono10time_pointINS_4__fs10filesystem16_FilesystemClockENS0_8durationIxNS_5ratioILx1ELx1000000000EEEEEEE",
   "name" : "const std::chrono::time_point<std::filesystem::_FilesystemClock, std::chrono::duration<long long, std::ratio<1, 1000000000> > > &",
   "referenced_type" : "_ZTIKNSt3__16chrono10time_pointINS_4__fs10filesystem16_FilesystemClockENS0_8durationIxNS_5ratioILx1ELx1000000000EEEEEEE",
   "self_type" : "_ZTIRKNSt3__16chrono10time_pointINS_4__fs10filesystem16_FilesystemClockENS0_8durationIxNS_5ratioILx1ELx1000000000EEEEEEE",
   "size" : 4,
   "source_file" : "/external/libcxx/include/chrono"
  },
  {
   "alignment" : 4,
   "linker_set_key" : "_ZTIRKNSt3__16chrono8durationIxNS_5ratioILx1ELx1000000000EEEEE",
   "name" : "const std::chrono::duration<long long, std::ratio<1, 1000000000> > &",
   "referenced_type" : "_ZTIKNSt3__16chrono8durationIxNS_5ratioILx1ELx1000000000EEEEE",
   "self_type" : "_ZTIRKNSt3__16chrono8durationIxNS_5ratioILx1ELx1000000000EEEEE",
   "size" : 4,
   "source_file" : "/external/libcxx/include/chrono"
  },
  {
   "alignment" : 4,
   "linker_set_key" : "_ZTIRKNSt3__16chrono8durationIxNS_5ratioILx1ELx1EEEEE",
   "name" : "const std::chrono::duration<long long, std::ratio<1, 1> > &",
   "referenced_type" : "_ZTIKNSt3__16chrono8durationIxNS_5ratioILx1ELx1EEEEE",
   "self_type" : "_ZTIRKNSt3__16chrono8durationIxNS_5ratioILx1ELx1EEEEE",
   "size" : 4,
   "source_file" : "/external/libcxx/include/chrono"
  },
  {
   "alignment" : 4,
   "linker_set_key" : "_ZTIRKNSt3__16localeE",
   "name" : "const std::locale &",
   "referenced_type" : "_ZTIKNSt3__16localeE",
   "self_type" : "_ZTIRKNSt3__16localeE",
   "size" : 4,
   "source_file" : "/external/libcxx/include/__locale"
  },
  {
   "alignment" : 4,
   "linker_set_key" : "_ZTIRKNSt3__16vectorINS_8functionIFvN7android8hardware7details16HidlInstrumentor20InstrumentationEventEPKcS8_S8_S8_PNS0_IPvNS_9allocatorIS9_EEEEEEENSA_ISF_EEEE",
   "name" : "const std::vector<std::function<void (InstrumentationEvent, const char *, const char *, const char *, const char *, vector<void *, allocator<void *> > *)>, std::allocator<std::function<void (InstrumentationEvent, const char *, const char *, const char *, const char *, vector<void *, allocator<void *> > *)> > > &",
   "referenced_type" : "_ZTIKNSt3__16vectorINS_8functionIFvN7android8hardware7details16HidlInstrumentor20InstrumentationEventEPKcS8_S8_S8_PNS0_IPvNS_9allocatorIS9_EEEEEEENSA_ISF_EEEE",
   "self_type" : "_ZTIRKNSt3__16vectorINS_8functionIFvN7android8hardware7details16HidlInstrumentor20InstrumentationEventEPKcS8_S8_S8_PNS0_IPvNS_9allocatorIS9_EEEEEEENSA_ISF_EEEE",
   "size" : 4,
   "source_file" : "/system/libhidl/base/include/hidl/HidlInternal.h"
  },
  {
   "alignment" : 4,
   "linker_set_key" : "_ZTIRKNSt3__18__bitsetILj0ELj0EEE",
   "name" : "const std::__bitset<0, 0> &",
   "referenced_type" : "_ZTIKNSt3__18__bitsetILj0ELj0EEE",
   "self_type" : "_ZTIRKNSt3__18__bitsetILj0ELj0EEE",
   "size" : 4,
   "source_file" : "/external/libcxx/include/bitset"
  },
  {
   "alignment" : 4,
   "linker_set_key" : "_ZTIRKNSt3__19allocatorIDiEE",
   "name" : "const std::allocator<char32_t> &",
   "referenced_type" : "_ZTIKNSt3__19allocatorIDiEE",
   "self_type" : "_ZTIRKNSt3__19allocatorIDiEE",
   "size" : 4,
   "source_file" : "/external/libcxx/include/string"
  },
  {
   "alignment" : 4,
   "linker_set_key" : "_ZTIRKNSt3__19allocatorIDsEE",
   "name" : "const std::allocator<char16_t> &",
   "referenced_type" : "_ZTIKNSt3__19allocatorIDsEE",
   "self_type" : "_ZTIRKNSt3__19allocatorIDsEE",
   "size" : 4,
   "source_file" : "/external/libcxx/include/string"
  },
  {
   "alignment" : 4,
   "linker_set_key" : "_ZTIRKNSt3__19allocatorIcEE",
   "name" : "const std::allocator<char> &",
   "referenced_type" : "_ZTIKNSt3__19allocatorIcEE",
   "self_type" : "_ZTIRKNSt3__19allocatorIcEE",
   "size" : 4,
   "source_file" : "/external/libcxx/include/type_traits"
  },
  {
   "alignment" : 4,
   "linker_set_key" : "_ZTIRKNSt3__19allocatorIwEE",
   "name" : "const std::allocator<wchar_t> &",
   "referenced_type" : "_ZTIKNSt3__19allocatorIwEE",
   "self_type" : "_ZTIRKNSt3__19allocatorIwEE",
   "size" : 4,
   "source_file" : "/external/libcxx/include/memory"
  },
  {
   "alignment" : 4,
   "linker_set_key" : "_ZTIRKPKDi",
   "name" : "const char32_t *const &",
   "referenced_type" : "_ZTIKPKDi",
   "self_type" : "_ZTIRKPKDi",
   "size" : 4,
   "source_file" : "/external/libcxx/include/type_traits"
  },
  {
   "alignment" : 4,
   "linker_set_key" : "_ZTIRKPKDs",
   "name" : "const char16_t *const &",
   "referenced_type" : "_ZTIKPKDs",
   "self_type" : "_ZTIRKPKDs",
   "size" : 4,
   "source_file" : "/external/libcxx/include/type_traits"
  },
  {
   "alignment" : 4,
   "linker_set_key" : "_ZTIRKPKc",
   "name" : "const char *const &",
   "referenced_type" : "_ZTIKPKc",
   "self_type" : "_ZTIRKPKc",
   "size" : 4,
   "source_file" : "/external/libcxx/include/type_traits"
  },
  {
   "alignment" : 4,
   "linker_set_key" : "_ZTIRKPKw",
   "name" : "const wchar_t *const &",
   "referenced_type" : "_ZTIKPKw",
   "self_type" : "_ZTIRKPKw",
   "size" : 4,
   "source_file" : "/external/libcxx/include/type_traits"
  },
  {
   "alignment" : 4,
   "linker_set_key" : "_ZTIRKPc",
   "name" : "char *const &",
   "referenced_type" : "_ZTIKPc",
   "self_type" : "_ZTIRKPc",
   "size" : 4,
   "source_file" : "/external/libcxx/include/type_traits"
  },
  {
   "alignment" : 4,
   "linker_set_key" : "_ZTIRKSt13exception_ptr",
   "name" : "const std::exception_ptr &",
   "referenced_type" : "_ZTIKSt13exception_ptr",
   "self_type" : "_ZTIRKSt13exception_ptr",
   "size" : 4,
   "source_file" : "/external/libcxx/include/exception"
  },
  {
   "alignment" : 4,
   "linker_set_key" : "_ZTIRKSt9type_info",
   "name" : "const std::type_info &",
   "referenced_type" : "_ZTIKSt9type_info",
   "self_type" : "_ZTIRKSt9type_info",
   "size" : 4,
   "source_file" : "/external/libcxx/include/typeinfo"
  },
  {
   "alignment" : 4,
   "linker_set_key" : "_ZTIRKa",
   "name" : "const signed char &",
   "referenced_type" : "_ZTIKa",
   "self_type" : "_ZTIRKa",
   "size" : 4,
   "source_file" : "/system/core/libutils/include/utils/TypeHelpers.h"
  },
  {
   "alignment" : 4,
   "linker_set_key" : "_ZTIRKb",
   "name" : "const bool &",
   "referenced_type" : "_ZTIKb",
   "self_type" : "_ZTIRKb",
   "size" : 4,
   "source_file" : "/system/core/libutils/include/utils/TypeHelpers.h"
  },
  {
   "alignment" : 4,
   "linker_set_key" : "_ZTIRKc",
   "name" : "const char &",
   "referenced_type" : "_ZTIKc",
   "self_type" : "_ZTIRKc",
   "size" : 4,
   "source_file" : "/external/libcxx/include/type_traits"
  },
  {
   "alignment" : 4,
   "linker_set_key" : "_ZTIRKd",
   "name" : "const double &",
   "referenced_type" : "_ZTIKd",
   "self_type" : "_ZTIRKd",
   "size" : 4,
   "source_file" : "/system/core/libutils/include/utils/TypeHelpers.h"
  },
  {
   "alignment" : 4,
   "linker_set_key" : "_ZTIRKe",
   "name" : "const long double &",
   "referenced_type" : "_ZTIKe",
   "self_type" : "_ZTIRKe",
   "size" : 4,
   "source_file" : "/external/libcxx/include/chrono"
  },
  {
   "alignment" : 4,
   "linker_set_key" : "_ZTIRKf",
   "name" : "const float &",
   "referenced_type" : "_ZTIKf",
   "self_type" : "_ZTIRKf",
   "size" : 4,
   "source_file" : "/system/core/libutils/include/utils/TypeHelpers.h"
  },
  {
   "alignment" : 4,
   "linker_set_key" : "_ZTIRKh",
   "name" : "const unsigned char &",
   "referenced_type" : "_ZTIKh",
   "self_type" : "_ZTIRKh",
   "size" : 4,
   "source_file" : "/system/core/libutils/include/utils/TypeHelpers.h"
  },
  {
   "alignment" : 4,
   "linker_set_key" : "_ZTIRKi",
   "name" : "const int &",
   "referenced_type" : "_ZTIKi",
   "self_type" : "_ZTIRKi",
   "size" : 4,
   "source_file" : "/external/libcxx/include/type_traits"
  },
  {
   "alignment" : 4,
   "linker_set_key" : "_ZTIRKj",
   "name" : "const unsigned int &",
   "referenced_type" : "_ZTIKj",
   "self_type" : "_ZTIRKj",
   "size" : 4,
   "source_file" : "/external/libcxx/include/algorithm"
  },
  {
   "alignment" : 4,
   "linker_set_key" : "_ZTIRKl",
   "name" : "const long &",
   "referenced_type" : "_ZTIKl",
   "self_type" : "_ZTIRKl",
   "size" : 4,
   "source_file" : "/external/libcxx/include/chrono"
  },
  {
   "alignment" : 4,
   "linker_set_key" : "_ZTIRKs",
   "name" : "const short &",
   "referenced_type" : "_ZTIKs",
   "self_type" : "_ZTIRKs",
   "size" : 4,
   "source_file" : "/system/core/libutils/include/utils/TypeHelpers.h"
  },
  {
   "alignment" : 4,
   "linker_set_key" : "_ZTIRKt",
   "name" : "const unsigned short &",
   "referenced_type" : "_ZTIKt",
   "self_type" : "_ZTIRKt",
   "size" : 4,
   "source_file" : "/system/core/libutils/include/utils/TypeHelpers.h"
  },
  {
   "alignment" : 4,
   "linker_set_key" : "_ZTIRKw",
   "name" : "const wchar_t &",
   "referenced_type" : "_ZTIKw",
   "self_type" : "_ZTIRKw",
   "size" : 4,
   "source_file" : "/external/libcxx/include/__string"
  },
  {
   "alignment" : 4,
   "linker_set_key" : "_ZTIRKx",
   "name" : "const long long &",
   "referenced_type" : "_ZTIKx",
   "self_type" : "_ZTIRKx",
   "size" : 4,
   "source_file" : "/external/libcxx/include/chrono"
  },
  {
   "alignment" : 4,
   "linker_set_key" : "_ZTIRKy",
   "name" : "const unsigned long long &",
   "referenced_type" : "_ZTIKy",
   "self_type" : "_ZTIRKy",
   "size" : 4,
   "source_file" : "/system/core/libutils/include/utils/TypeHelpers.h"
  },
  {
   "alignment" : 4,
   "linker_set_key" : "_ZTIRN7android8hardware11hidl_handleE",
   "name" : "android::hardware::hidl_handle &",
   "referenced_type" : "_ZTIN7android8hardware11hidl_handleE",
   "self_type" : "_ZTIRN7android8hardware11hidl_handleE",
   "size" : 4,
   "source_file" : "/external/libcxx/include/type_traits"
  },
  {
   "alignment" : 4,
   "linker_set_key" : "_ZTIRN7android8hardware11hidl_memoryE",
   "name" : "android::hardware::hidl_memory &",
   "referenced_type" : "_ZTIN7android8hardware11hidl_memoryE",
   "self_type" : "_ZTIRN7android8hardware11hidl_memoryE",
   "size" : 4,
   "source_file" : "/external/libcxx/include/type_traits"
  },
  {
   "alignment" : 4,
   "linker_set_key" : "_ZTIRN7android8hardware11hidl_stringE",
   "name" : "android::hardware::hidl_string &",
   "referenced_type" : "_ZTIN7android8hardware11hidl_stringE",
   "self_type" : "_ZTIRN7android8hardware11hidl_stringE",
   "size" : 4,
   "source_file" : "/external/libcxx/include/type_traits"
  },
  {
   "alignment" : 4,
   "linker_set_key" : "_ZTIRN7android8hardware6ReturnINS_2spINS_4hidl6memory4V1_07IMemoryEEEEE",
   "name" : "android::hardware::Return<android::sp<android::hidl::memory::V1_0::IMemory> > &",
   "referenced_type" : "_ZTIN7android8hardware6ReturnINS_2spINS_4hidl6memory4V1_07IMemoryEEEEE",
   "self_type" : "_ZTIRN7android8hardware6ReturnINS_2spINS_4hidl6memory4V1_07IMemoryEEEEE",
   "size" : 4,
   "source_file" : "/system/libhidl/base/include/hidl/Status.h"
  },
  {
   "alignment" : 4,
   "linker_set_key" : "_ZTIRN7android8hardware6ReturnIPvEE",
   "name" : "android::hardware::Return<void *> &",
   "referenced_type" : "_ZTIN7android8hardware6ReturnIPvEE",
   "self_type" : "_ZTIRN7android8hardware6ReturnIPvEE",
   "size" : 4,
   "source_file" : "/system/libhidl/base/include/hidl/Status.h"
  },
  {
   "alignment" : 4,
   "linker_set_key" : "_ZTIRN7android8hardware6ReturnIvEE",
   "name" : "android::hardware::Return<void> &",
   "referenced_type" : "_ZTIN7android8hardware6ReturnIvEE",
   "self_type" : "_ZTIRN7android8hardware6ReturnIvEE",
   "size" : 4,
   "source_file" : "/system/libhidl/base/include/hidl/Status.h"
  },
  {
   "alignment" : 4,
   "linker_set_key" : "_ZTIRN7android8hardware6ReturnIyEE",
   "name" : "android::hardware::Return<unsigned long long> &",
   "referenced_type" : "_ZTIN7android8hardware6ReturnIyEE",
   "self_type" : "_ZTIRN7android8hardware6ReturnIyEE",
   "size" : 4,
   "source_file" : "/system/libhidl/base/include/hidl/Status.h"
  },
  {
   "alignment" : 4,
   "linker_set_key" : "_ZTIRN7android8hardware6StatusE",
   "name" : "android::hardware::Status &",
   "referenced_type" : "_ZTIN7android8hardware6StatusE",
   "self_type" : "_ZTIRN7android8hardware6StatusE",
   "size" : 4,
   "source_file" : "/system/libhidl/base/include/hidl/Status.h"
  },
  {
   "alignment" : 4,
   "linker_set_key" : "_ZTIRN7android8hardware7details13return_statusE",
   "name" : "android::hardware::details::return_status &",
   "referenced_type" : "_ZTIN7android8hardware7details13return_statusE",
   "self_type" : "_ZTIRN7android8hardware7details13return_statusE",
   "size" : 4,
   "source_file" : "/external/libcxx/include/type_traits"
  },
  {
   "alignment" : 4,
   "linker_set_key" : "_ZTIRNSt3__110error_codeE",
   "name" : "std::error_code &",
   "referenced_type" : "_ZTINSt3__110error_codeE",
   "self_type" : "_ZTIRNSt3__110error_codeE",
   "size" : 4,
   "source_file" : "/external/libcxx/include/type_traits"
  },
  {
   "alignment" : 4,
   "linker_set_key" : "_ZTIRNSt3__112basic_stringIDiNS_11char_traitsIDiEENS_9allocatorIDiEEE5__repE",
   "name" : "std::basic_string<char32_t, char_traits<char32_t>, allocator<char32_t> >::__rep &",
   "referenced_type" : "_ZTINSt3__112basic_stringIDiNS_11char_traitsIDiEENS_9allocatorIDiEEE5__repE",
   "self_type" : "_ZTIRNSt3__112basic_stringIDiNS_11char_traitsIDiEENS_9allocatorIDiEEE5__repE",
   "size" : 4,
   "source_file" : "/external/libcxx/include/memory"
  },
  {
   "alignment" : 4,
   "linker_set_key" : "_ZTIRNSt3__112basic_stringIDsNS_11char_traitsIDsEENS_9allocatorIDsEEE5__repE",
   "name" : "std::basic_string<char16_t, char_traits<char16_t>, allocator<char16_t> >::__rep &",
   "referenced_type" : "_ZTINSt3__112basic_stringIDsNS_11char_traitsIDsEENS_9allocatorIDsEEE5__repE",
   "self_type" : "_ZTIRNSt3__112basic_stringIDsNS_11char_traitsIDsEENS_9allocatorIDsEEE5__repE",
   "size" : 4,
   "source_file" : "/external/libcxx/include/memory"
  },
  {
   "alignment" : 4,
   "linker_set_key" : "_ZTIRNSt3__112basic_stringIcNS_11char_traitsIcEENS_9allocatorIcEEE5__repE",
   "name" : "std::basic_string<char>::__rep &",
   "referenced_type" : "_ZTINSt3__112basic_stringIcNS_11char_traitsIcEENS_9allocatorIcEEE5__repE",
   "self_type" : "_ZTIRNSt3__112basic_stringIcNS_11char_traitsIcEENS_9allocatorIcEEE5__repE",
   "size" : 4,
   "source_file" : "/external/libcxx/include/memory"
  },
  {
   "alignment" : 4,
   "linker_set_key" : "_ZTIRNSt3__112basic_stringIcNS_11char_traitsIcEENS_9allocatorIcEEEE",
   "name" : "std::basic_string<char, std::char_traits<char>, std::allocator<char> > &",
   "referenced_type" : "_ZTINSt3__112basic_stringIcNS_11char_traitsIcEENS_9allocatorIcEEEE",
   "self_type" : "_ZTIRNSt3__112basic_stringIcNS_11char_traitsIcEENS_9allocatorIcEEEE",
   "size" : 4,
   "source_file" : "/external/libcxx/include/type_traits"
  },
  {
   "alignment" : 4,
   "linker_set_key" : "_ZTIRNSt3__112basic_stringIwNS_11char_traitsIwEENS_9allocatorIwEEE5__repE",
   "name" : "std::basic_string<wchar_t>::__rep &",
   "referenced_type" : "_ZTINSt3__112basic_stringIwNS_11char_traitsIwEENS_9allocatorIwEEE5__repE",
   "self_type" : "_ZTIRNSt3__112basic_stringIwNS_11char_traitsIwEENS_9allocatorIwEEE5__repE",
   "size" : 4,
   "source_file" : "/external/libcxx/include/memory"
  },
  {
   "alignment" : 4,
   "linker_set_key" : "_ZTIRNSt3__113basic_ostreamIcNS_11char_traitsIcEEEE",
   "name" : "std::basic_ostream<char, std::char_traits<char> > &",
   "referenced_type" : "_ZTINSt3__113basic_ostreamIcNS_11char_traitsIcEEEE",
   "self_type" : "_ZTIRNSt3__113basic_ostreamIcNS_11char_traitsIcEEEE",
   "size" : 4,
   "source_file" : "/external/libcxx/include/type_traits"
  },
  {
   "alignment" : 4,
   "linker_set_key" : "_ZTIRNSt3__113basic_ostreamIwNS_11char_traitsIwEEEE",
   "name" : "std::basic_ostream<wchar_t, std::char_traits<wchar_t> > &",
   "referenced_type" : "_ZTINSt3__113basic_ostreamIwNS_11char_traitsIwEEEE",
   "self_type" : "_ZTIRNSt3__113basic_ostreamIwNS_11char_traitsIwEEEE",
   "size" : 4,
   "source_file" : "/external/libcxx/include/ostream"
  },
  {
   "alignment" : 4,
   "linker_set_key" : "_ZTIRNSt3__117__compressed_pairINS_12basic_stringIcNS_11char_traitsIcEENS_9allocatorIcEEE5__repES5_EE",
   "name" : "std::__compressed_pair<std::basic_string<char>::__rep, std::allocator<char> > &",
   "referenced_type" : "_ZTINSt3__117__compressed_pairINS_12basic_stringIcNS_11char_traitsIcEENS_9allocatorIcEEE5__repES5_EE",
   "self_type" : "_ZTIRNSt3__117__compressed_pairINS_12basic_stringIcNS_11char_traitsIcEENS_9allocatorIcEEE5__repES5_EE",
   "size" : 4,
   "source_file" : "/external/libcxx/include/type_traits"
  },
  {
   "alignment" : 4,
   "linker_set_key" : "_ZTIRNSt3__117basic_string_viewIDiNS_11char_traitsIDiEEEE",
   "name" : "std::basic_string_view<char32_t, std::char_traits<char32_t> > &",
   "referenced_type" : "_ZTINSt3__117basic_string_viewIDiNS_11char_traitsIDiEEEE",
   "self_type" : "_ZTIRNSt3__117basic_string_viewIDiNS_11char_traitsIDiEEEE",
   "size" : 4,
   "source_file" : "/external/libcxx/include/string_view"
  },
  {
   "alignment" : 4,
   "linker_set_key" : "_ZTIRNSt3__117basic_string_viewIDsNS_11char_traitsIDsEEEE",
   "name" : "std::basic_string_view<char16_t, std::char_traits<char16_t> > &",
   "referenced_type" : "_ZTINSt3__117basic_string_viewIDsNS_11char_traitsIDsEEEE",
   "self_type" : "_ZTIRNSt3__117basic_string_viewIDsNS_11char_traitsIDsEEEE",
   "size" : 4,
   "source_file" : "/external/libcxx/include/string_view"
  },
  {
   "alignment" : 4,
   "linker_set_key" : "_ZTIRNSt3__117basic_string_viewIcNS_11char_traitsIcEEEE",
   "name" : "std::basic_string_view<char, std::char_traits<char> > &",
   "referenced_type" : "_ZTINSt3__117basic_string_viewIcNS_11char_traitsIcEEEE",
   "self_type" : "_ZTIRNSt3__117basic_string_viewIcNS_11char_traitsIcEEEE",
   "size" : 4,
   "source_file" : "/external/libcxx/include/string_view"
  },
  {
   "alignment" : 4,
   "linker_set_key" : "_ZTIRNSt3__117basic_string_viewIwNS_11char_traitsIwEEEE",
   "name" : "std::basic_string_view<wchar_t, std::char_traits<wchar_t> > &",
   "referenced_type" : "_ZTINSt3__117basic_string_viewIwNS_11char_traitsIwEEEE",
   "self_type" : "_ZTIRNSt3__117basic_string_viewIwNS_11char_traitsIwEEEE",
   "size" : 4,
   "source_file" : "/external/libcxx/include/string_view"
  },
  {
   "alignment" : 4,
   "linker_set_key" : "_ZTIRNSt3__118__sfinae_ctor_baseILb0ELb0EEE",
   "name" : "std::__sfinae_ctor_base<false, false> &",
   "referenced_type" : "_ZTINSt3__118__sfinae_ctor_baseILb0ELb0EEE",
   "self_type" : "_ZTIRNSt3__118__sfinae_ctor_baseILb0ELb0EEE",
   "size" : 4,
   "source_file" : "/external/libcxx/include/__tuple"
  },
  {
   "alignment" : 4,
   "linker_set_key" : "_ZTIRNSt3__118__sfinae_ctor_baseILb0ELb1EEE",
   "name" : "std::__sfinae_ctor_base<false, true> &",
   "referenced_type" : "_ZTINSt3__118__sfinae_ctor_baseILb0ELb1EEE",
   "self_type" : "_ZTIRNSt3__118__sfinae_ctor_baseILb0ELb1EEE",
   "size" : 4,
   "source_file" : "/external/libcxx/include/__tuple"
  },
  {
   "alignment" : 4,
   "linker_set_key" : "_ZTIRNSt3__118__sfinae_ctor_baseILb1ELb0EEE",
   "name" : "std::__sfinae_ctor_base<true, false> &",
   "referenced_type" : "_ZTINSt3__118__sfinae_ctor_baseILb1ELb0EEE",
   "self_type" : "_ZTIRNSt3__118__sfinae_ctor_baseILb1ELb0EEE",
   "size" : 4,
   "source_file" : "/external/libcxx/include/__tuple"
  },
  {
   "linker_set_key" : "_ZTIRNSt3__119__basic_node_handleIT_T0_T1_EE",
   "name" : "__basic_node_handle<_NodeType, _Alloc, _MapOrSetSpecifics> &",
   "referenced_type" : "_ZTINSt3__119__basic_node_handleIT_T0_T1_EE",
   "self_type" : "_ZTIRNSt3__119__basic_node_handleIT_T0_T1_EE",
   "source_file" : "/external/libcxx/include/__node_handle"
  },
  {
   "alignment" : 4,
   "linker_set_key" : "_ZTIRNSt3__119basic_ostringstreamIcNS_11char_traitsIcEENS_9allocatorIcEEEE",
   "name" : "std::basic_ostringstream<char, std::char_traits<char>, std::allocator<char> > &",
   "referenced_type" : "_ZTINSt3__119basic_ostringstreamIcNS_11char_traitsIcEENS_9allocatorIcEEEE",
   "self_type" : "_ZTIRNSt3__119basic_ostringstreamIcNS_11char_traitsIcEENS_9allocatorIcEEEE",
   "size" : 4,
   "source_file" : "/external/libcxx/include/type_traits"
  },
  {
   "alignment" : 4,
   "linker_set_key" : "_ZTIRNSt3__120__sfinae_assign_baseILb0ELb1EEE",
   "name" : "std::__sfinae_assign_base<false, true> &",
   "referenced_type" : "_ZTINSt3__120__sfinae_assign_baseILb0ELb1EEE",
   "self_type" : "_ZTIRNSt3__120__sfinae_assign_baseILb0ELb1EEE",
   "size" : 4,
   "source_file" : "/external/libcxx/include/__tuple"
  },
  {
   "alignment" : 4,
   "linker_set_key" : "_ZTIRNSt3__120__sfinae_assign_baseILb1ELb0EEE",
   "name" : "std::__sfinae_assign_base<true, false> &",
   "referenced_type" : "_ZTINSt3__120__sfinae_assign_baseILb1ELb0EEE",
   "self_type" : "_ZTIRNSt3__120__sfinae_assign_baseILb1ELb0EEE",
   "size" : 4,
   "source_file" : "/external/libcxx/include/__tuple"
  },
  {
   "alignment" : 4,
   "linker_set_key" : "_ZTIRNSt3__122__compressed_pair_elemINS_12basic_stringIDiNS_11char_traitsIDiEENS_9allocatorIDiEEE5__repELi0ELb0EEE",
   "name" : "std::__compressed_pair_elem<std::basic_string<char32_t, char_traits<char32_t>, allocator<char32_t> >::__rep, 0, false> &",
   "referenced_type" : "_ZTINSt3__122__compressed_pair_elemINS_12basic_stringIDiNS_11char_traitsIDiEENS_9allocatorIDiEEE5__repELi0ELb0EEE",
   "self_type" : "_ZTIRNSt3__122__compressed_pair_elemINS_12basic_stringIDiNS_11char_traitsIDiEENS_9allocatorIDiEEE5__repELi0ELb0EEE",
   "size" : 4,
   "source_file" : "/external/libcxx/include/type_traits"
  },
  {
   "alignment" : 4,
   "linker_set_key" : "_ZTIRNSt3__122__compressed_pair_elemINS_12basic_stringIDsNS_11char_traitsIDsEENS_9allocatorIDsEEE5__repELi0ELb0EEE",
   "name" : "std::__compressed_pair_elem<std::basic_string<char16_t, char_traits<char16_t>, allocator<char16_t> >::__rep, 0, false> &",
   "referenced_type" : "_ZTINSt3__122__compressed_pair_elemINS_12basic_stringIDsNS_11char_traitsIDsEENS_9allocatorIDsEEE5__repELi0ELb0EEE",
   "self_type" : "_ZTIRNSt3__122__compressed_pair_elemINS_12basic_stringIDsNS_11char_traitsIDsEENS_9allocatorIDsEEE5__repELi0ELb0EEE",
   "size" : 4,
   "source_file" : "/external/libcxx/include/type_traits"
  },
  {
   "alignment" : 4,
   "linker_set_key" : "_ZTIRNSt3__122__compressed_pair_elemINS_12basic_stringIcNS_11char_traitsIcEENS_9allocatorIcEEE5__repELi0ELb0EEE",
   "name" : "std::__compressed_pair_elem<std::basic_string<char>::__rep, 0, false> &",
   "referenced_type" : "_ZTINSt3__122__compressed_pair_elemINS_12basic_stringIcNS_11char_traitsIcEENS_9allocatorIcEEE5__repELi0ELb0EEE",
   "self_type" : "_ZTIRNSt3__122__compressed_pair_elemINS_12basic_stringIcNS_11char_traitsIcEENS_9allocatorIcEEE5__repELi0ELb0EEE",
   "size" : 4,
   "source_file" : "/external/libcxx/include/type_traits"
  },
  {
   "alignment" : 4,
   "linker_set_key" : "_ZTIRNSt3__122__compressed_pair_elemINS_12basic_stringIwNS_11char_traitsIwEENS_9allocatorIwEEE5__repELi0ELb0EEE",
   "name" : "std::__compressed_pair_elem<std::basic_string<wchar_t>::__rep, 0, false> &",
   "referenced_type" : "_ZTINSt3__122__compressed_pair_elemINS_12basic_stringIwNS_11char_traitsIwEENS_9allocatorIwEEE5__repELi0ELb0EEE",
   "self_type" : "_ZTIRNSt3__122__compressed_pair_elemINS_12basic_stringIwNS_11char_traitsIwEENS_9allocatorIwEEE5__repELi0ELb0EEE",
   "size" : 4,
   "source_file" : "/external/libcxx/include/type_traits"
  },
  {
   "alignment" : 4,
   "linker_set_key" : "_ZTIRNSt3__122__compressed_pair_elemINS_9allocatorIDiEELi1ELb1EEE",
   "name" : "std::__compressed_pair_elem<std::allocator<char32_t>, 1, true> &",
   "referenced_type" : "_ZTINSt3__122__compressed_pair_elemINS_9allocatorIDiEELi1ELb1EEE",
   "self_type" : "_ZTIRNSt3__122__compressed_pair_elemINS_9allocatorIDiEELi1ELb1EEE",
   "size" : 4,
   "source_file" : "/external/libcxx/include/type_traits"
  },
  {
   "alignment" : 4,
   "linker_set_key" : "_ZTIRNSt3__122__compressed_pair_elemINS_9allocatorIDsEELi1ELb1EEE",
   "name" : "std::__compressed_pair_elem<std::allocator<char16_t>, 1, true> &",
   "referenced_type" : "_ZTINSt3__122__compressed_pair_elemINS_9allocatorIDsEELi1ELb1EEE",
   "self_type" : "_ZTIRNSt3__122__compressed_pair_elemINS_9allocatorIDsEELi1ELb1EEE",
   "size" : 4,
   "source_file" : "/external/libcxx/include/type_traits"
  },
  {
   "alignment" : 4,
   "linker_set_key" : "_ZTIRNSt3__122__compressed_pair_elemINS_9allocatorIcEELi1ELb1EEE",
   "name" : "std::__compressed_pair_elem<std::allocator<char>, 1, true> &",
   "referenced_type" : "_ZTINSt3__122__compressed_pair_elemINS_9allocatorIcEELi1ELb1EEE",
   "self_type" : "_ZTIRNSt3__122__compressed_pair_elemINS_9allocatorIcEELi1ELb1EEE",
   "size" : 4,
   "source_file" : "/external/libcxx/include/type_traits"
  },
  {
   "alignment" : 4,
   "linker_set_key" : "_ZTIRNSt3__122__compressed_pair_elemINS_9allocatorIwEELi1ELb1EEE",
   "name" : "std::__compressed_pair_elem<std::allocator<wchar_t>, 1, true> &",
   "referenced_type" : "_ZTINSt3__122__compressed_pair_elemINS_9allocatorIwEELi1ELb1EEE",
   "self_type" : "_ZTIRNSt3__122__compressed_pair_elemINS_9allocatorIwEELi1ELb1EEE",
   "size" : 4,
   "source_file" : "/external/libcxx/include/type_traits"
  },
  {
   "alignment" : 4,
   "linker_set_key" : "_ZTIRNSt3__122__compressed_pair_elemIPFvPvELi1ELb0EEE",
   "name" : "std::__compressed_pair_elem<void (*)(void *), 1, false> &",
   "referenced_type" : "_ZTINSt3__122__compressed_pair_elemIPFvPvELi1ELb0EEE",
   "self_type" : "_ZTIRNSt3__122__compressed_pair_elemIPFvPvELi1ELb0EEE",
   "size" : 4,
   "source_file" : "/external/libcxx/include/type_traits"
  },
  {
   "alignment" : 4,
   "linker_set_key" : "_ZTIRNSt3__122__compressed_pair_elemIPcLi0ELb0EEE",
   "name" : "std::__compressed_pair_elem<char *, 0, false> &",
   "referenced_type" : "_ZTINSt3__122__compressed_pair_elemIPcLi0ELb0EEE",
   "self_type" : "_ZTIRNSt3__122__compressed_pair_elemIPcLi0ELb0EEE",
   "size" : 4,
   "source_file" : "/external/libcxx/include/type_traits"
  },
  {
   "alignment" : 4,
   "linker_set_key" : "_ZTIRNSt3__122__compressed_pair_elemIPhLi0ELb0EEE",
   "name" : "std::__compressed_pair_elem<unsigned char *, 0, false> &",
   "referenced_type" : "_ZTINSt3__122__compressed_pair_elemIPhLi0ELb0EEE",
   "self_type" : "_ZTIRNSt3__122__compressed_pair_elemIPhLi0ELb0EEE",
   "size" : 4,
   "source_file" : "/external/libcxx/include/type_traits"
  },
  {
   "alignment" : 4,
   "linker_set_key" : "_ZTIRNSt3__122__compressed_pair_elemIPjLi0ELb0EEE",
   "name" : "std::__compressed_pair_elem<unsigned int *, 0, false> &",
   "referenced_type" : "_ZTINSt3__122__compressed_pair_elemIPjLi0ELb0EEE",
   "self_type" : "_ZTIRNSt3__122__compressed_pair_elemIPjLi0ELb0EEE",
   "size" : 4,
   "source_file" : "/external/libcxx/include/type_traits"
  },
  {
   "alignment" : 4,
   "linker_set_key" : "_ZTIRNSt3__15tupleIJEEE",
   "name" : "std::tuple<> &",
   "referenced_type" : "_ZTINSt3__15tupleIJEEE",
   "self_type" : "_ZTIRNSt3__15tupleIJEEE",
   "size" : 4,
   "source_file" : "/external/libcxx/include/tuple"
  },
  {
   "alignment" : 4,
   "linker_set_key" : "_ZTIRNSt3__18ios_baseE",
   "name" : "std::ios_base &",
   "referenced_type" : "_ZTINSt3__18ios_baseE",
   "self_type" : "_ZTIRNSt3__18ios_baseE",
   "size" : 4,
   "source_file" : "/external/libcxx/include/system_error"
  },
  {
   "alignment" : 4,
   "linker_set_key" : "_ZTIRNSt3__19allocatorIDiEE",
   "name" : "std::allocator<char32_t> &",
   "referenced_type" : "_ZTINSt3__19allocatorIDiEE",
   "self_type" : "_ZTIRNSt3__19allocatorIDiEE",
   "size" : 4,
   "source_file" : "/external/libcxx/include/string"
  },
  {
   "alignment" : 4,
   "linker_set_key" : "_ZTIRNSt3__19allocatorIDsEE",
   "name" : "std::allocator<char16_t> &",
   "referenced_type" : "_ZTINSt3__19allocatorIDsEE",
   "self_type" : "_ZTIRNSt3__19allocatorIDsEE",
   "size" : 4,
   "source_file" : "/external/libcxx/include/string"
  },
  {
   "alignment" : 4,
   "linker_set_key" : "_ZTIRNSt3__19allocatorIcEE",
   "name" : "std::allocator<char> &",
   "referenced_type" : "_ZTINSt3__19allocatorIcEE",
   "self_type" : "_ZTIRNSt3__19allocatorIcEE",
   "size" : 4,
   "source_file" : "/external/libcxx/include/memory"
  },
  {
   "alignment" : 4,
   "linker_set_key" : "_ZTIRNSt3__19allocatorIwEE",
   "name" : "std::allocator<wchar_t> &",
   "referenced_type" : "_ZTINSt3__19allocatorIwEE",
   "self_type" : "_ZTIRNSt3__19allocatorIwEE",
   "size" : 4,
   "source_file" : "/external/libcxx/include/memory"
  },
  {
   "alignment" : 4,
   "linker_set_key" : "_ZTIRP10__locale_t",
   "name" : "__locale_t *&",
   "referenced_type" : "_ZTIP10__locale_t",
   "self_type" : "_ZTIRP10__locale_t",
   "size" : 4,
   "source_file" : "/external/libcxx/include/__locale"
  },
  {
   "alignment" : 4,
   "linker_set_key" : "_ZTIRPDi",
   "name" : "char32_t *&",
   "referenced_type" : "_ZTIPDi",
   "self_type" : "_ZTIRPDi",
   "size" : 4,
   "source_file" : "/external/libcxx/include/__locale"
  },
  {
   "alignment" : 4,
   "linker_set_key" : "_ZTIRPDs",
   "name" : "char16_t *&",
   "referenced_type" : "_ZTIPDs",
   "self_type" : "_ZTIRPDs",
   "size" : 4,
   "source_file" : "/external/libcxx/include/__locale"
  },
  {
   "alignment" : 4,
   "linker_set_key" : "_ZTIRPKDi",
   "name" : "const char32_t *&",
   "referenced_type" : "_ZTIPKDi",
   "self_type" : "_ZTIRPKDi",
   "size" : 4,
   "source_file" : "/external/libcxx/include/__locale"
  },
  {
   "alignment" : 4,
   "linker_set_key" : "_ZTIRPKDs",
   "name" : "const char16_t *&",
   "referenced_type" : "_ZTIPKDs",
   "self_type" : "_ZTIRPKDs",
   "size" : 4,
   "source_file" : "/external/libcxx/include/__locale"
  },
  {
   "alignment" : 4,
   "linker_set_key" : "_ZTIRPKc",
   "name" : "const char *&",
   "referenced_type" : "_ZTIPKc",
   "self_type" : "_ZTIRPKc",
   "size" : 4,
   "source_file" : "/external/libcxx/include/__locale"
  },
  {
   "alignment" : 4,
   "linker_set_key" : "_ZTIRPKw",
   "name" : "const wchar_t *&",
   "referenced_type" : "_ZTIPKw",
   "self_type" : "_ZTIRPKw",
   "size" : 4,
   "source_file" : "/external/libcxx/include/__locale"
  },
  {
   "alignment" : 4,
   "linker_set_key" : "_ZTIRPc",
   "name" : "char *&",
   "referenced_type" : "_ZTIPc",
   "self_type" : "_ZTIRPc",
   "size" : 4,
   "source_file" : "/external/libcxx/include/__locale"
  },
  {
   "alignment" : 4,
   "linker_set_key" : "_ZTIRPw",
   "name" : "wchar_t *&",
   "referenced_type" : "_ZTIPw",
   "self_type" : "_ZTIRPw",
   "size" : 4,
   "source_file" : "/external/libcxx/include/__locale"
  },
  {
   "alignment" : 4,
   "linker_set_key" : "_ZTIRSt4byte",
   "name" : "std::byte &",
   "referenced_type" : "_ZTISt4byte",
   "self_type" : "_ZTIRSt4byte",
   "size" : 4,
   "source_file" : "/external/libcxx/include/cstddef"
  },
  {
   "alignment" : 4,
   "linker_set_key" : "_ZTIRc",
   "name" : "char &",
   "referenced_type" : "_ZTIc",
   "self_type" : "_ZTIRc",
   "size" : 4,
   "source_file" : "/external/libcxx/include/type_traits"
  },
  {
   "alignment" : 4,
   "linker_set_key" : "_ZTIRe",
   "name" : "long double &",
   "referenced_type" : "_ZTIe",
   "self_type" : "_ZTIRe",
   "size" : 4,
   "source_file" : "/external/libcxx/include/type_traits"
  },
  {
   "alignment" : 4,
   "linker_set_key" : "_ZTIRh",
   "name" : "unsigned char &",
   "referenced_type" : "_ZTIh",
   "self_type" : "_ZTIRh",
   "size" : 4,
   "source_file" : "/external/libcxx/include/type_traits"
  },
  {
   "alignment" : 4,
   "linker_set_key" : "_ZTIRi",
   "name" : "int &",
   "referenced_type" : "_ZTIi",
   "self_type" : "_ZTIRi",
   "size" : 4,
   "source_file" : "/external/libcxx/include/type_traits"
  },
  {
   "alignment" : 4,
   "linker_set_key" : "_ZTIRj",
   "name" : "unsigned int &",
   "referenced_type" : "_ZTIj",
   "self_type" : "_ZTIRj",
   "size" : 4,
   "source_file" : "/external/libcxx/include/type_traits"
  },
  {
   "alignment" : 4,
   "linker_set_key" : "_ZTIRl",
   "name" : "long &",
   "referenced_type" : "_ZTIl",
   "self_type" : "_ZTIRl",
   "size" : 4,
   "source_file" : "/external/libcxx/include/type_traits"
  },
  {
   "alignment" : 4,
   "linker_set_key" : "_ZTIRw",
   "name" : "wchar_t &",
   "referenced_type" : "_ZTIw",
   "self_type" : "_ZTIRw",
   "size" : 4,
   "source_file" : "/external/libcxx/include/type_traits"
  },
  {
   "alignment" : 4,
   "linker_set_key" : "_ZTIRx",
   "name" : "long long &",
   "referenced_type" : "_ZTIx",
   "self_type" : "_ZTIRx",
   "size" : 4,
   "source_file" : "/external/libcxx/include/type_traits"
  }
 ],
 "pointer_types" :
 [
  {
   "alignment" : 4,
   "linker_set_key" : "_ZTIP10__locale_t",
   "name" : "__locale_t *",
   "referenced_type" : "_ZTI10__locale_t",
   "self_type" : "_ZTIP10__locale_t",
   "size" : 4,
   "source_file" : "/out/soong/.intermediates/bionic/libc/libc.llndk/android_vendor.30_arm_armv8-a_shared/gen/include/string.h"
  },
  {
   "alignment" : 4,
   "linker_set_key" : "_ZTIP11user_fpregs",
   "name" : "user_fpregs *",
   "referenced_type" : "_ZTI11user_fpregs",
   "self_type" : "_ZTIP11user_fpregs",
   "size" : 4,
   "source_file" : "/out/soong/.intermediates/bionic/libc/libc.llndk/android_vendor.30_arm_armv8-a_shared/gen/include/sys/user.h"
  },
  {
   "alignment" : 4,
   "linker_set_key" : "_ZTIP13native_handle",
   "name" : "native_handle *",
   "referenced_type" : "_ZTI13native_handle",
   "self_type" : "_ZTIP13native_handle",
   "size" : 4,
   "source_file" : "/system/libhidl/base/include/hidl/HidlInternal.h"
  },
  {
   "alignment" : 4,
   "linker_set_key" : "_ZTIP14pthread_cond_t",
   "name" : "pthread_cond_t *",
   "referenced_type" : "_ZTI14pthread_cond_t",
   "self_type" : "_ZTIP14pthread_cond_t",
   "size" : 4,
   "source_file" : "/external/libcxx/include/__threading_support"
  },
  {
   "alignment" : 4,
   "linker_set_key" : "_ZTIP15pthread_mutex_t",
   "name" : "pthread_mutex_t *",
   "referenced_type" : "_ZTI15pthread_mutex_t",
   "self_type" : "_ZTIP15pthread_mutex_t",
   "size" : 4,
   "source_file" : "/external/libcxx/include/__threading_support"
  },
  {
   "alignment" : 4,
   "linker_set_key" : "_ZTIP19__pthread_cleanup_t",
   "name" : "__pthread_cleanup_t *",
   "referenced_type" : "_ZTI19__pthread_cleanup_t",
   "self_type" : "_ZTIP19__pthread_cleanup_t",
   "size" : 4,
   "source_file" : "/out/soong/.intermediates/bionic/libc/libc.llndk/android_vendor.30_arm_armv8-a_shared/gen/include/pthread.h"
  },
  {
   "alignment" : 4,
   "linker_set_key" : "_ZTIP5lconv",
   "name" : "lconv *",
   "referenced_type" : "_ZTI5lconv",
   "self_type" : "_ZTIP5lconv",
   "size" : 4,
   "source_file" : "/external/libcxx/include/__bsd_locale_fallbacks.h"
  },
  {
   "alignment" : 4,
   "linker_set_key" : "_ZTIP7__sFILE",
   "name" : "__sFILE *",
   "referenced_type" : "_ZTI7__sFILE",
   "self_type" : "_ZTIP7__sFILE",
   "size" : 4,
   "source_file" : "/out/soong/.intermediates/bionic/libc/libc.llndk/android_vendor.30_arm_armv8-a_shared/gen/include/stdio.h"
  },
  {
   "alignment" : 4,
   "linker_set_key" : "_ZTIP7log_msg",
   "name" : "log_msg *",
   "referenced_type" : "_ZTI7log_msg",
   "self_type" : "_ZTIP7log_msg",
   "size" : 4,
   "source_file" : "/system/core/liblog/include/log/log_read.h"
  },
  {
   "alignment" : 4,
   "linker_set_key" : "_ZTIP7siginfo",
   "name" : "siginfo *",
   "referenced_type" : "_ZTI7siginfo",
   "self_type" : "_ZTIP7siginfo",
   "size" : 4,
   "source_file" : "/bionic/libc/kernel/uapi/asm-arm/asm/signal.h"
  },
  {
   "alignment" : 4,
   "linker_set_key" : "_ZTIP8timespec",
   "name" : "timespec *",
   "referenced_type" : "_ZTI8timespec",
   "self_type" : "_ZTIP8timespec",
   "size" : 4,
   "source_file" : "/external/libcxx/include/__threading_support"
  },
  {
   "alignment" : 4,
   "linker_set_key" : "_ZTIP8ucontext",
   "name" : "ucontext *",
   "referenced_type" : "_ZTI8ucontext",
   "self_type" : "_ZTIP8ucontext",
   "size" : 4,
   "source_file" : "/out/soong/.intermediates/bionic/libc/libc.llndk/android_vendor.30_arm_armv8-a_shared/gen/include/sys/ucontext.h"
  },
  {
   "alignment" : 4,
   "linker_set_key" : "_ZTIP9mbstate_t",
   "name" : "mbstate_t *",
   "referenced_type" : "_ZTI9mbstate_t",
   "self_type" : "_ZTIP9mbstate_t",
   "size" : 4,
   "source_file" : "/external/libcxx/include/__bsd_locale_fallbacks.h"
  },
  {
   "alignment" : 4,
   "linker_set_key" : "_ZTIP9user_regs",
   "name" : "user_regs *",
   "referenced_type" : "_ZTI9user_regs",
   "self_type" : "_ZTIP9user_regs",
   "size" : 4,
   "source_file" : "/out/soong/.intermediates/bionic/libc/libc.llndk/android_vendor.30_arm_armv8-a_shared/gen/include/sys/user.h"
  },
  {
   "alignment" : 4,
   "linker_set_key" : "_ZTIPDi",
   "name" : "char32_t *",
   "referenced_type" : "_ZTIDi",
   "self_type" : "_ZTIPDi",
   "size" : 4,
   "source_file" : "/external/libcxx/include/type_traits"
  },
  {
   "alignment" : 4,
   "linker_set_key" : "_ZTIPDs",
   "name" : "char16_t *",
   "referenced_type" : "_ZTIDs",
   "self_type" : "_ZTIPDs",
   "size" : 4,
   "source_file" : "/external/libcxx/include/type_traits"
  },
  {
   "alignment" : 4,
   "linker_set_key" : "_ZTIPFPvPKvE",
   "name" : "void *(*)(const void *)",
   "referenced_type" : "_ZTIFPvPKvE",
   "self_type" : "_ZTIPFPvPKvE",
   "size" : 4,
   "source_file" : "/external/libcxx/include/functional"
  },
  {
   "alignment" : 4,
   "linker_set_key" : "_ZTIPFPvS_E",
   "name" : "void *(*)(void *)",
   "referenced_type" : "_ZTIFPvS_E",
   "self_type" : "_ZTIPFPvS_E",
   "size" : 4,
   "source_file" : "/external/libcxx/include/__threading_support"
  },
  {
   "alignment" : 4,
   "linker_set_key" : "_ZTIPFPvS_jPKvE",
   "name" : "void *(*)(void *, unsigned int, const void *)",
   "referenced_type" : "_ZTIFPvS_jPKvE",
   "self_type" : "_ZTIPFPvS_jPKvE",
   "size" : 4,
   "source_file" : "/out/soong/.intermediates/bionic/libc/libc.llndk/android_vendor.30_arm_armv8-a_shared/gen/include/malloc.h"
  },
  {
   "alignment" : 4,
   "linker_set_key" : "_ZTIPFPvjPKvE",
   "name" : "void *(*)(unsigned int, const void *)",
   "referenced_type" : "_ZTIFPvjPKvE",
   "self_type" : "_ZTIPFPvjPKvE",
   "size" : 4,
   "source_file" : "/out/soong/.intermediates/bionic/libc/libc.llndk/android_vendor.30_arm_armv8-a_shared/gen/include/malloc.h"
  },
  {
   "alignment" : 4,
   "linker_set_key" : "_ZTIPFPvjjPKvE",
   "name" : "void *(*)(unsigned int, unsigned int, const void *)",
   "referenced_type" : "_ZTIFPvjjPKvE",
   "self_type" : "_ZTIPFPvjjPKvE",
   "size" : 4,
   "source_file" : "/out/soong/.intermediates/bionic/libc/libc.llndk/android_vendor.30_arm_armv8-a_shared/gen/include/malloc.h"
  },
  {
   "alignment" : 4,
   "linker_set_key" : "_ZTIPFRNSt3__18ios_baseES1_E",
   "name" : "std::__1::ios_base &(*)(std::__1::ios_base &)",
   "referenced_type" : "_ZTIFRNSt3__18ios_baseES1_E",
   "self_type" : "_ZTIPFRNSt3__18ios_baseES1_E",
   "size" : 4,
   "source_file" : "/external/libcxx/include/system_error"
  },
  {
   "alignment" : 4,
   "linker_set_key" : "_ZTIPFv6sigvalE",
   "name" : "void (*)(sigval)",
   "referenced_type" : "_ZTIFv6sigvalE",
   "self_type" : "_ZTIPFv6sigvalE",
   "size" : 4,
   "source_file" : "/bionic/libc/kernel/uapi/asm-generic/siginfo.h"
  },
  {
   "alignment" : 4,
   "linker_set_key" : "_ZTIPFvNSt3__18ios_base5eventERS0_iE",
   "name" : "void (*)(std::__1::ios_base::event, std::__1::ios_base &, int)",
   "referenced_type" : "_ZTIFvNSt3__18ios_base5eventERS0_iE",
   "self_type" : "_ZTIPFvNSt3__18ios_base5eventERS0_iE",
   "size" : 4,
   "source_file" : "/external/libcxx/include/ios"
  },
  {
   "alignment" : 4,
   "linker_set_key" : "_ZTIPFvPvE",
   "name" : "void (*)(void *)",
   "referenced_type" : "_ZTIFvPvE",
   "self_type" : "_ZTIPFvPvE",
   "size" : 4,
   "source_file" : "/external/libcxx/include/type_traits"
  },
  {
   "alignment" : 4,
   "linker_set_key" : "_ZTIPFvPvPKvE",
   "name" : "void (*)(void *, const void *)",
   "referenced_type" : "_ZTIFvPvPKvE",
   "self_type" : "_ZTIPFvPvPKvE",
   "size" : 4,
   "source_file" : "/out/soong/.intermediates/bionic/libc/libc.llndk/android_vendor.30_arm_armv8-a_shared/gen/include/malloc.h"
  },
  {
   "alignment" : 4,
   "linker_set_key" : "_ZTIPFvRKNSt3__119__libcpp_debug_infoEE",
   "name" : "void (*)(const std::__1::__libcpp_debug_info &)",
   "referenced_type" : "_ZTIFvRKNSt3__119__libcpp_debug_infoEE",
   "self_type" : "_ZTIPFvRKNSt3__119__libcpp_debug_infoEE",
   "size" : 4,
   "source_file" : "/external/libcxx/include/__debug"
  },
  {
   "alignment" : 4,
   "linker_set_key" : "_ZTIPFviE",
   "name" : "void (*)(int)",
   "referenced_type" : "_ZTIFviE",
   "self_type" : "_ZTIPFviE",
   "size" : 4,
   "source_file" : "/bionic/libc/kernel/uapi/asm-arm/asm/signal.h"
  },
  {
   "alignment" : 4,
   "linker_set_key" : "_ZTIPFviP7siginfoPvE",
   "name" : "void (*)(int, siginfo *, void *)",
   "referenced_type" : "_ZTIFviP7siginfoPvE",
   "self_type" : "_ZTIPFviP7siginfoPvE",
   "size" : 4,
   "source_file" : "/bionic/libc/kernel/uapi/asm-arm/asm/signal.h"
  },
  {
   "alignment" : 4,
   "linker_set_key" : "_ZTIPFvvE",
   "name" : "void (*)()",
   "referenced_type" : "_ZTIFvvE",
   "self_type" : "_ZTIPFvvE",
   "size" : 4,
   "source_file" : "/bionic/libc/kernel/uapi/asm-arm/asm/signal.h"
  },
  {
   "alignment" : 4,
   "linker_set_key" : "_ZTIPK13native_handle",
   "name" : "const native_handle *",
   "referenced_type" : "_ZTIK13native_handle",
   "self_type" : "_ZTIPK13native_handle",
   "size" : 4,
   "source_file" : "/external/libcxx/include/type_traits"
  },
  {
   "alignment" : 4,
   "linker_set_key" : "_ZTIPK2tm",
   "name" : "const tm *",
   "referenced_type" : "_ZTIK2tm",
   "self_type" : "_ZTIPK2tm",
   "size" : 4,
   "source_file" : "/out/soong/.intermediates/bionic/libc/libc.llndk/android_vendor.30_arm_armv8-a_shared/gen/include/time.h"
  },
  {
   "alignment" : 4,
   "linker_set_key" : "_ZTIPK7log_msg",
   "name" : "const log_msg *",
   "referenced_type" : "_ZTIK7log_msg",
   "self_type" : "_ZTIPK7log_msg",
   "size" : 4,
   "source_file" : "/system/core/liblog/include/log/log_read.h"
  },
  {
   "alignment" : 4,
   "linker_set_key" : "_ZTIPKDi",
   "name" : "const char32_t *",
   "referenced_type" : "_ZTIKDi",
   "self_type" : "_ZTIPKDi",
   "size" : 4,
   "source_file" : "/external/libcxx/include/type_traits"
  },
  {
   "alignment" : 4,
   "linker_set_key" : "_ZTIPKDs",
   "name" : "const char16_t *",
   "referenced_type" : "_ZTIKDs",
   "self_type" : "_ZTIPKDs",
   "size" : 4,
   "source_file" : "/external/libcxx/include/type_traits"
  },
  {
   "alignment" : 4,
   "linker_set_key" : "_ZTIPKN7android12NativeHandleE",
   "name" : "const android::NativeHandle *",
   "referenced_type" : "_ZTIKN7android12NativeHandleE",
   "self_type" : "_ZTIPKN7android12NativeHandleE",
   "size" : 4,
   "source_file" : "/system/core/libutils/include/utils/NativeHandle.h"
  },
  {
   "alignment" : 4,
   "linker_set_key" : "_ZTIPKN7android2spINS_4hidl4base4V1_05IBaseEEE",
   "name" : "const android::sp<android::hidl::base::V1_0::IBase> *",
   "referenced_type" : "_ZTIKN7android2spINS_4hidl4base4V1_05IBaseEEE",
   "self_type" : "_ZTIPKN7android2spINS_4hidl4base4V1_05IBaseEEE",
   "size" : 4,
   "source_file" : "/system/core/libutils/include/utils/StrongPointer.h"
  },
  {
   "alignment" : 4,
   "linker_set_key" : "_ZTIPKN7android2spINS_4hidl6memory4V1_07IMapperEEE",
   "name" : "const android::sp<android::hidl::memory::V1_0::IMapper> *",
   "referenced_type" : "_ZTIKN7android2spINS_4hidl6memory4V1_07IMapperEEE",
   "self_type" : "_ZTIPKN7android2spINS_4hidl6memory4V1_07IMapperEEE",
   "size" : 4,
   "source_file" : "/system/core/libutils/include/utils/StrongPointer.h"
  },
  {
   "alignment" : 4,
   "linker_set_key" : "_ZTIPKN7android2spINS_4hidl6memory4V1_07IMemoryEEE",
   "name" : "const android::sp<android::hidl::memory::V1_0::IMemory> *",
   "referenced_type" : "_ZTIKN7android2spINS_4hidl6memory4V1_07IMemoryEEE",
   "self_type" : "_ZTIPKN7android2spINS_4hidl6memory4V1_07IMemoryEEE",
   "size" : 4,
   "source_file" : "/system/core/libutils/include/utils/StrongPointer.h"
  },
  {
   "alignment" : 4,
   "linker_set_key" : "_ZTIPKN7android2spINS_4hidl7manager4V1_020IServiceNotificationEEE",
   "name" : "const android::sp<android::hidl::manager::V1_0::IServiceNotification> *",
   "referenced_type" : "_ZTIKN7android2spINS_4hidl7manager4V1_020IServiceNotificationEEE",
   "self_type" : "_ZTIPKN7android2spINS_4hidl7manager4V1_020IServiceNotificationEEE",
   "size" : 4,
   "source_file" : "/system/core/libutils/include/utils/StrongPointer.h"
  },
  {
   "alignment" : 4,
   "linker_set_key" : "_ZTIPKN7android2spINS_8hardware20hidl_death_recipientEEE",
   "name" : "const android::sp<android::hardware::hidl_death_recipient> *",
   "referenced_type" : "_ZTIKN7android2spINS_8hardware20hidl_death_recipientEEE",
   "self_type" : "_ZTIPKN7android2spINS_8hardware20hidl_death_recipientEEE",
   "size" : 4,
   "source_file" : "/system/core/libutils/include/utils/StrongPointer.h"
  },
  {
   "alignment" : 4,
   "linker_set_key" : "_ZTIPKN7android4hidl4base4V1_05IBaseE",
   "name" : "const android::hidl::base::V1_0::IBase *",
   "referenced_type" : "_ZTIKN7android4hidl4base4V1_05IBaseE",
   "self_type" : "_ZTIPKN7android4hidl4base4V1_05IBaseE",
   "size" : 4,
   "source_file" : "/out/soong/.intermediates/system/libhidl/transport/base/1.0/android.hidl.base@1.0_genc++_headers/gen/android/hidl/base/1.0/IBase.h"
  },
  {
   "alignment" : 4,
   "linker_set_key" : "_ZTIPKN7android4hidl6memory4V1_07IMapperE",
   "name" : "const android::hidl::memory::V1_0::IMapper *",
   "referenced_type" : "_ZTIKN7android4hidl6memory4V1_07IMapperE",
   "self_type" : "_ZTIPKN7android4hidl6memory4V1_07IMapperE",
   "size" : 4,
   "source_file" : "/out/soong/.intermediates/system/libhidl/transport/memory/1.0/android.hidl.memory@1.0_genc++_headers/gen/android/hidl/memory/1.0/IMapper.h"
  },
  {
   "alignment" : 4,
   "linker_set_key" : "_ZTIPKN7android4hidl6memory4V1_07IMemoryE",
   "name" : "const android::hidl::memory::V1_0::IMemory *",
   "referenced_type" : "_ZTIKN7android4hidl6memory4V1_07IMemoryE",
   "self_type" : "_ZTIPKN7android4hidl6memory4V1_07IMemoryE",
   "size" : 4,
   "source_file" : "/out/soong/.intermediates/system/libhidl/transport/memory/1.0/android.hidl.memory@1.0_genc++_headers/gen/android/hidl/memory/1.0/IMemory.h"
  },
  {
   "alignment" : 4,
   "linker_set_key" : "_ZTIPKN7android4hidl7manager4V1_020IServiceNotificationE",
   "name" : "const android::hidl::manager::V1_0::IServiceNotification *",
   "referenced_type" : "_ZTIKN7android4hidl7manager4V1_020IServiceNotificationE",
   "self_type" : "_ZTIPKN7android4hidl7manager4V1_020IServiceNotificationE",
   "size" : 4,
   "source_file" : "/out/soong/.intermediates/system/libhidl/transport/manager/1.0/android.hidl.manager@1.0_genc++_headers/gen/android/hidl/manager/1.0/IServiceNotification.h"
  },
  {
   "alignment" : 4,
   "linker_set_key" : "_ZTIPKN7android7RefBaseE",
   "name" : "const android::RefBase *",
   "referenced_type" : "_ZTIKN7android7RefBaseE",
   "self_type" : "_ZTIPKN7android7RefBaseE",
   "size" : 4,
   "source_file" : "/system/core/libutils/include/utils/RefBase.h"
  },
  {
   "alignment" : 4,
   "linker_set_key" : "_ZTIPKN7android8hardware11hidl_memoryE",
   "name" : "const android::hardware::hidl_memory *",
   "referenced_type" : "_ZTIKN7android8hardware11hidl_memoryE",
   "self_type" : "_ZTIPKN7android8hardware11hidl_memoryE",
   "size" : 4,
   "source_file" : "/system/libhidl/base/include/hidl/HidlSupport.h"
  },
  {
   "alignment" : 4,
   "linker_set_key" : "_ZTIPKN7android8hardware12hidl_versionE",
   "name" : "const android::hardware::hidl_version *",
   "referenced_type" : "_ZTIKN7android8hardware12hidl_versionE",
   "self_type" : "_ZTIPKN7android8hardware12hidl_versionE",
   "size" : 4,
   "source_file" : "/system/libhidl/base/include/hidl/HidlSupport.h"
  },
  {
   "alignment" : 4,
   "linker_set_key" : "_ZTIPKN7android8hardware17GrantorDescriptorE",
   "name" : "const android::hardware::GrantorDescriptor *",
   "referenced_type" : "_ZTIKN7android8hardware17GrantorDescriptorE",
   "self_type" : "_ZTIPKN7android8hardware17GrantorDescriptorE",
   "size" : 4,
   "source_file" : "/external/libcxx/include/type_traits"
  },
  {
   "alignment" : 4,
   "linker_set_key" : "_ZTIPKN7android8hardware6StatusE",
   "name" : "const android::hardware::Status *",
   "referenced_type" : "_ZTIKN7android8hardware6StatusE",
   "self_type" : "_ZTIPKN7android8hardware6StatusE",
   "size" : 4,
   "source_file" : "/system/libhidl/base/include/hidl/Status.h"
  },
  {
   "alignment" : 4,
   "linker_set_key" : "_ZTIPKN7android8hardware7details13return_statusE",
   "name" : "const android::hardware::details::return_status *",
   "referenced_type" : "_ZTIKN7android8hardware7details13return_statusE",
   "self_type" : "_ZTIPKN7android8hardware7details13return_statusE",
   "size" : 4,
   "source_file" : "/system/libhidl/base/include/hidl/Status.h"
  },
  {
   "alignment" : 4,
   "linker_set_key" : "_ZTIPKNSt3__110__function8__policyE",
   "name" : "const std::__function::__policy *",
   "referenced_type" : "_ZTIKNSt3__110__function8__policyE",
   "self_type" : "_ZTIPKNSt3__110__function8__policyE",
   "size" : 4,
   "source_file" : "/external/libcxx/include/functional"
  },
  {
   "alignment" : 4,
   "linker_set_key" : "_ZTIPKNSt3__110error_codeE",
   "name" : "const std::error_code *",
   "referenced_type" : "_ZTIKNSt3__110error_codeE",
   "self_type" : "_ZTIPKNSt3__110error_codeE",
   "size" : 4,
   "source_file" : "/external/libcxx/include/system_error"
  },
  {
   "alignment" : 4,
   "linker_set_key" : "_ZTIPKNSt3__112basic_stringIDiNS_11char_traitsIDiEENS_9allocatorIDiEEEE",
   "name" : "const std::basic_string<char32_t, std::char_traits<char32_t>, std::allocator<char32_t> > *",
   "referenced_type" : "_ZTIKNSt3__112basic_stringIDiNS_11char_traitsIDiEENS_9allocatorIDiEEEE",
   "self_type" : "_ZTIPKNSt3__112basic_stringIDiNS_11char_traitsIDiEENS_9allocatorIDiEEEE",
   "size" : 4,
   "source_file" : "/external/libcxx/include/string"
  },
  {
   "alignment" : 4,
   "linker_set_key" : "_ZTIPKNSt3__112basic_stringIDsNS_11char_traitsIDsEENS_9allocatorIDsEEEE",
   "name" : "const std::basic_string<char16_t, std::char_traits<char16_t>, std::allocator<char16_t> > *",
   "referenced_type" : "_ZTIKNSt3__112basic_stringIDsNS_11char_traitsIDsEENS_9allocatorIDsEEEE",
   "self_type" : "_ZTIPKNSt3__112basic_stringIDsNS_11char_traitsIDsEENS_9allocatorIDsEEEE",
   "size" : 4,
   "source_file" : "/external/libcxx/include/string"
  },
  {
   "alignment" : 4,
   "linker_set_key" : "_ZTIPKNSt3__112basic_stringIcNS_11char_traitsIcEENS_9allocatorIcEEEE",
   "name" : "const std::basic_string<char, std::char_traits<char>, std::allocator<char> > *",
   "referenced_type" : "_ZTIKNSt3__112basic_stringIcNS_11char_traitsIcEENS_9allocatorIcEEEE",
   "self_type" : "_ZTIPKNSt3__112basic_stringIcNS_11char_traitsIcEENS_9allocatorIcEEEE",
   "size" : 4,
   "source_file" : "/external/libcxx/include/string"
  },
  {
   "alignment" : 4,
   "linker_set_key" : "_ZTIPKNSt3__112basic_stringIwNS_11char_traitsIwEENS_9allocatorIwEEEE",
   "name" : "const std::basic_string<wchar_t, std::char_traits<wchar_t>, std::allocator<wchar_t> > *",
   "referenced_type" : "_ZTIKNSt3__112basic_stringIwNS_11char_traitsIwEENS_9allocatorIwEEEE",
   "self_type" : "_ZTIPKNSt3__112basic_stringIwNS_11char_traitsIwEENS_9allocatorIwEEEE",
   "size" : 4,
   "source_file" : "/external/libcxx/include/string"
  },
  {
   "alignment" : 4,
   "linker_set_key" : "_ZTIPKNSt3__112system_errorE",
   "name" : "const std::system_error *",
   "referenced_type" : "_ZTIKNSt3__112system_errorE",
   "self_type" : "_ZTIPKNSt3__112system_errorE",
   "size" : 4,
   "source_file" : "/external/libcxx/include/system_error"
  },
  {
   "alignment" : 4,
   "linker_set_key" : "_ZTIPKNSt3__113__scalar_hashINS_6_PairTELj2EEE",
   "name" : "const std::__scalar_hash<std::_PairT, 2> *",
   "referenced_type" : "_ZTIKNSt3__113__scalar_hashINS_6_PairTELj2EEE",
   "self_type" : "_ZTIPKNSt3__113__scalar_hashINS_6_PairTELj2EEE",
   "size" : 4,
   "source_file" : "/external/libcxx/include/utility"
  },
  {
   "alignment" : 4,
   "linker_set_key" : "_ZTIPKNSt3__113__scalar_hashIdLj2EEE",
   "name" : "const std::__scalar_hash<double, 2> *",
   "referenced_type" : "_ZTIKNSt3__113__scalar_hashIdLj2EEE",
   "self_type" : "_ZTIPKNSt3__113__scalar_hashIdLj2EEE",
   "size" : 4,
   "source_file" : "/external/libcxx/include/utility"
  },
  {
   "alignment" : 4,
   "linker_set_key" : "_ZTIPKNSt3__113__scalar_hashIeLj2EEE",
   "name" : "const std::__scalar_hash<long double, 2> *",
   "referenced_type" : "_ZTIKNSt3__113__scalar_hashIeLj2EEE",
   "self_type" : "_ZTIPKNSt3__113__scalar_hashIeLj2EEE",
   "size" : 4,
   "source_file" : "/external/libcxx/include/utility"
  },
  {
   "alignment" : 4,
   "linker_set_key" : "_ZTIPKNSt3__113__scalar_hashIfLj1EEE",
   "name" : "const std::__scalar_hash<float, 1> *",
   "referenced_type" : "_ZTIKNSt3__113__scalar_hashIfLj1EEE",
   "self_type" : "_ZTIPKNSt3__113__scalar_hashIfLj1EEE",
   "size" : 4,
   "source_file" : "/external/libcxx/include/utility"
  },
  {
   "alignment" : 4,
   "linker_set_key" : "_ZTIPKNSt3__113basic_ostreamIcNS_11char_traitsIcEEE6sentryE",
   "name" : "const std::basic_ostream<char>::sentry *",
   "referenced_type" : "_ZTIKNSt3__113basic_ostreamIcNS_11char_traitsIcEEE6sentryE",
   "self_type" : "_ZTIPKNSt3__113basic_ostreamIcNS_11char_traitsIcEEE6sentryE",
   "size" : 4,
   "source_file" : "/external/libcxx/include/ostream"
  },
  {
   "alignment" : 4,
   "linker_set_key" : "_ZTIPKNSt3__114__shared_countE",
   "name" : "const std::__shared_count *",
   "referenced_type" : "_ZTIKNSt3__114__shared_countE",
   "self_type" : "_ZTIPKNSt3__114__shared_countE",
   "size" : 4,
   "source_file" : "/external/libcxx/include/memory"
  },
  {
   "alignment" : 4,
   "linker_set_key" : "_ZTIPKNSt3__114error_categoryE",
   "name" : "const std::error_category *",
   "referenced_type" : "_ZTIKNSt3__114error_categoryE",
   "self_type" : "_ZTIPKNSt3__114error_categoryE",
   "size" : 4,
   "source_file" : "/external/libcxx/include/system_error"
  },
  {
   "alignment" : 4,
   "linker_set_key" : "_ZTIPKNSt3__114pointer_safetyE",
   "name" : "const std::pointer_safety *",
   "referenced_type" : "_ZTIKNSt3__114pointer_safetyE",
   "self_type" : "_ZTIPKNSt3__114pointer_safetyE",
   "size" : 4,
   "source_file" : "/external/libcxx/include/memory"
  },
  {
   "alignment" : 4,
   "linker_set_key" : "_ZTIPKNSt3__115basic_streambufIcNS_11char_traitsIcEEEE",
   "name" : "const std::basic_streambuf<char, std::char_traits<char> > *",
   "referenced_type" : "_ZTIKNSt3__115basic_streambufIcNS_11char_traitsIcEEEE",
   "self_type" : "_ZTIPKNSt3__115basic_streambufIcNS_11char_traitsIcEEEE",
   "size" : 4,
   "source_file" : "/external/libcxx/include/streambuf"
  },
  {
   "alignment" : 4,
   "linker_set_key" : "_ZTIPKNSt3__115basic_stringbufIcNS_11char_traitsIcEENS_9allocatorIcEEEE",
   "name" : "const std::basic_stringbuf<char, std::char_traits<char>, std::allocator<char> > *",
   "referenced_type" : "_ZTIKNSt3__115basic_stringbufIcNS_11char_traitsIcEENS_9allocatorIcEEEE",
   "self_type" : "_ZTIPKNSt3__115basic_stringbufIcNS_11char_traitsIcEENS_9allocatorIcEEEE",
   "size" : 4,
   "source_file" : "/external/libcxx/include/sstream"
  },
  {
   "alignment" : 4,
   "linker_set_key" : "_ZTIPKNSt3__115error_conditionE",
   "name" : "const std::error_condition *",
   "referenced_type" : "_ZTIKNSt3__115error_conditionE",
   "self_type" : "_ZTIPKNSt3__115error_conditionE",
   "size" : 4,
   "source_file" : "/external/libcxx/include/system_error"
  },
  {
   "alignment" : 4,
   "linker_set_key" : "_ZTIPKNSt3__117__compressed_pairINS_12basic_stringIDiNS_11char_traitsIDiEENS_9allocatorIDiEEE5__repES5_EE",
   "name" : "const std::__compressed_pair<std::basic_string<char32_t, char_traits<char32_t>, allocator<char32_t> >::__rep, std::allocator<char32_t> > *",
   "referenced_type" : "_ZTIKNSt3__117__compressed_pairINS_12basic_stringIDiNS_11char_traitsIDiEENS_9allocatorIDiEEE5__repES5_EE",
   "self_type" : "_ZTIPKNSt3__117__compressed_pairINS_12basic_stringIDiNS_11char_traitsIDiEENS_9allocatorIDiEEE5__repES5_EE",
   "size" : 4,
   "source_file" : "/external/libcxx/include/memory"
  },
  {
   "alignment" : 4,
   "linker_set_key" : "_ZTIPKNSt3__117__compressed_pairINS_12basic_stringIDsNS_11char_traitsIDsEENS_9allocatorIDsEEE5__repES5_EE",
   "name" : "const std::__compressed_pair<std::basic_string<char16_t, char_traits<char16_t>, allocator<char16_t> >::__rep, std::allocator<char16_t> > *",
   "referenced_type" : "_ZTIKNSt3__117__compressed_pairINS_12basic_stringIDsNS_11char_traitsIDsEENS_9allocatorIDsEEE5__repES5_EE",
   "self_type" : "_ZTIPKNSt3__117__compressed_pairINS_12basic_stringIDsNS_11char_traitsIDsEENS_9allocatorIDsEEE5__repES5_EE",
   "size" : 4,
   "source_file" : "/external/libcxx/include/memory"
  },
  {
   "alignment" : 4,
   "linker_set_key" : "_ZTIPKNSt3__117__compressed_pairINS_12basic_stringIcNS_11char_traitsIcEENS_9allocatorIcEEE5__repES5_EE",
   "name" : "const std::__compressed_pair<std::basic_string<char>::__rep, std::allocator<char> > *",
   "referenced_type" : "_ZTIKNSt3__117__compressed_pairINS_12basic_stringIcNS_11char_traitsIcEENS_9allocatorIcEEE5__repES5_EE",
   "self_type" : "_ZTIPKNSt3__117__compressed_pairINS_12basic_stringIcNS_11char_traitsIcEENS_9allocatorIcEEE5__repES5_EE",
   "size" : 4,
   "source_file" : "/external/libcxx/include/memory"
  },
  {
   "alignment" : 4,
   "linker_set_key" : "_ZTIPKNSt3__117__compressed_pairINS_12basic_stringIwNS_11char_traitsIwEENS_9allocatorIwEEE5__repES5_EE",
   "name" : "const std::__compressed_pair<std::basic_string<wchar_t>::__rep, std::allocator<wchar_t> > *",
   "referenced_type" : "_ZTIKNSt3__117__compressed_pairINS_12basic_stringIwNS_11char_traitsIwEENS_9allocatorIwEEE5__repES5_EE",
   "self_type" : "_ZTIPKNSt3__117__compressed_pairINS_12basic_stringIwNS_11char_traitsIwEENS_9allocatorIwEEE5__repES5_EE",
   "size" : 4,
   "source_file" : "/external/libcxx/include/memory"
  },
  {
   "alignment" : 4,
   "linker_set_key" : "_ZTIPKNSt3__117__compressed_pairIPcPFvPvEEE",
   "name" : "const std::__compressed_pair<char *, void (*)(void *)> *",
   "referenced_type" : "_ZTIKNSt3__117__compressed_pairIPcPFvPvEEE",
   "self_type" : "_ZTIPKNSt3__117__compressed_pairIPcPFvPvEEE",
   "size" : 4,
   "source_file" : "/external/libcxx/include/type_traits"
  },
  {
   "alignment" : 4,
   "linker_set_key" : "_ZTIPKNSt3__117__compressed_pairIPhPFvPvEEE",
   "name" : "const std::__compressed_pair<unsigned char *, void (*)(void *)> *",
   "referenced_type" : "_ZTIKNSt3__117__compressed_pairIPhPFvPvEEE",
   "self_type" : "_ZTIPKNSt3__117__compressed_pairIPhPFvPvEEE",
   "size" : 4,
   "source_file" : "/external/libcxx/include/type_traits"
  },
  {
   "alignment" : 4,
   "linker_set_key" : "_ZTIPKNSt3__117__compressed_pairIPjPFvPvEEE",
   "name" : "const std::__compressed_pair<unsigned int *, void (*)(void *)> *",
   "referenced_type" : "_ZTIKNSt3__117__compressed_pairIPjPFvPvEEE",
   "self_type" : "_ZTIPKNSt3__117__compressed_pairIPjPFvPvEEE",
   "size" : 4,
   "source_file" : "/external/libcxx/include/type_traits"
  },
  {
   "alignment" : 4,
   "linker_set_key" : "_ZTIPKNSt3__117basic_string_viewIcNS_11char_traitsIcEEEE",
   "name" : "const std::basic_string_view<char, std::char_traits<char> > *",
   "referenced_type" : "_ZTIKNSt3__117basic_string_viewIcNS_11char_traitsIcEEEE",
   "self_type" : "_ZTIPKNSt3__117basic_string_viewIcNS_11char_traitsIcEEEE",
   "size" : 4,
   "source_file" : "/external/libcxx/include/string_view"
  },
  {
   "alignment" : 4,
   "linker_set_key" : "_ZTIPKNSt3__118__libcpp_refstringE",
   "name" : "const std::__libcpp_refstring *",
   "referenced_type" : "_ZTIKNSt3__118__libcpp_refstringE",
   "self_type" : "_ZTIPKNSt3__118__libcpp_refstringE",
   "size" : 4,
   "source_file" : "/external/libcxx/include/stdexcept"
  },
  {
   "alignment" : 4,
   "linker_set_key" : "_ZTIPKNSt3__119__shared_weak_countE",
   "name" : "const std::__shared_weak_count *",
   "referenced_type" : "_ZTIKNSt3__119__shared_weak_countE",
   "self_type" : "_ZTIPKNSt3__119__shared_weak_countE",
   "size" : 4,
   "source_file" : "/external/libcxx/include/memory"
  },
  {
   "alignment" : 4,
   "linker_set_key" : "_ZTIPKNSt3__119basic_ostringstreamIcNS_11char_traitsIcEENS_9allocatorIcEEEE",
   "name" : "const std::basic_ostringstream<char, std::char_traits<char>, std::allocator<char> > *",
   "referenced_type" : "_ZTIKNSt3__119basic_ostringstreamIcNS_11char_traitsIcEENS_9allocatorIcEEEE",
   "self_type" : "_ZTIPKNSt3__119basic_ostringstreamIcNS_11char_traitsIcEENS_9allocatorIcEEEE",
   "size" : 4,
   "source_file" : "/external/libcxx/include/sstream"
  },
  {
   "alignment" : 4,
   "linker_set_key" : "_ZTIPKNSt3__119ostreambuf_iteratorIcNS_11char_traitsIcEEEE",
   "name" : "const std::ostreambuf_iterator<char, std::char_traits<char> > *",
   "referenced_type" : "_ZTIKNSt3__119ostreambuf_iteratorIcNS_11char_traitsIcEEEE",
   "self_type" : "_ZTIPKNSt3__119ostreambuf_iteratorIcNS_11char_traitsIcEEEE",
   "size" : 4,
   "source_file" : "/external/libcxx/include/iterator"
  },
  {
   "alignment" : 4,
   "linker_set_key" : "_ZTIPKNSt3__122__compressed_pair_elemINS_12basic_stringIDiNS_11char_traitsIDiEENS_9allocatorIDiEEE5__repELi0ELb0EEE",
   "name" : "const std::__compressed_pair_elem<std::basic_string<char32_t, char_traits<char32_t>, allocator<char32_t> >::__rep, 0, false> *",
   "referenced_type" : "_ZTIKNSt3__122__compressed_pair_elemINS_12basic_stringIDiNS_11char_traitsIDiEENS_9allocatorIDiEEE5__repELi0ELb0EEE",
   "self_type" : "_ZTIPKNSt3__122__compressed_pair_elemINS_12basic_stringIDiNS_11char_traitsIDiEENS_9allocatorIDiEEE5__repELi0ELb0EEE",
   "size" : 4,
   "source_file" : "/external/libcxx/include/type_traits"
  },
  {
   "alignment" : 4,
   "linker_set_key" : "_ZTIPKNSt3__122__compressed_pair_elemINS_12basic_stringIDsNS_11char_traitsIDsEENS_9allocatorIDsEEE5__repELi0ELb0EEE",
   "name" : "const std::__compressed_pair_elem<std::basic_string<char16_t, char_traits<char16_t>, allocator<char16_t> >::__rep, 0, false> *",
   "referenced_type" : "_ZTIKNSt3__122__compressed_pair_elemINS_12basic_stringIDsNS_11char_traitsIDsEENS_9allocatorIDsEEE5__repELi0ELb0EEE",
   "self_type" : "_ZTIPKNSt3__122__compressed_pair_elemINS_12basic_stringIDsNS_11char_traitsIDsEENS_9allocatorIDsEEE5__repELi0ELb0EEE",
   "size" : 4,
   "source_file" : "/external/libcxx/include/type_traits"
  },
  {
   "alignment" : 4,
   "linker_set_key" : "_ZTIPKNSt3__122__compressed_pair_elemINS_12basic_stringIcNS_11char_traitsIcEENS_9allocatorIcEEE5__repELi0ELb0EEE",
   "name" : "const std::__compressed_pair_elem<std::basic_string<char>::__rep, 0, false> *",
   "referenced_type" : "_ZTIKNSt3__122__compressed_pair_elemINS_12basic_stringIcNS_11char_traitsIcEENS_9allocatorIcEEE5__repELi0ELb0EEE",
   "self_type" : "_ZTIPKNSt3__122__compressed_pair_elemINS_12basic_stringIcNS_11char_traitsIcEENS_9allocatorIcEEE5__repELi0ELb0EEE",
   "size" : 4,
   "source_file" : "/external/libcxx/include/type_traits"
  },
  {
   "alignment" : 4,
   "linker_set_key" : "_ZTIPKNSt3__122__compressed_pair_elemINS_12basic_stringIwNS_11char_traitsIwEENS_9allocatorIwEEE5__repELi0ELb0EEE",
   "name" : "const std::__compressed_pair_elem<std::basic_string<wchar_t>::__rep, 0, false> *",
   "referenced_type" : "_ZTIKNSt3__122__compressed_pair_elemINS_12basic_stringIwNS_11char_traitsIwEENS_9allocatorIwEEE5__repELi0ELb0EEE",
   "self_type" : "_ZTIPKNSt3__122__compressed_pair_elemINS_12basic_stringIwNS_11char_traitsIwEENS_9allocatorIwEEE5__repELi0ELb0EEE",
   "size" : 4,
   "source_file" : "/external/libcxx/include/type_traits"
  },
  {
   "alignment" : 4,
   "linker_set_key" : "_ZTIPKNSt3__122__compressed_pair_elemINS_9allocatorIDiEELi1ELb1EEE",
   "name" : "const std::__compressed_pair_elem<std::allocator<char32_t>, 1, true> *",
   "referenced_type" : "_ZTIKNSt3__122__compressed_pair_elemINS_9allocatorIDiEELi1ELb1EEE",
   "self_type" : "_ZTIPKNSt3__122__compressed_pair_elemINS_9allocatorIDiEELi1ELb1EEE",
   "size" : 4,
   "source_file" : "/external/libcxx/include/type_traits"
  },
  {
   "alignment" : 4,
   "linker_set_key" : "_ZTIPKNSt3__122__compressed_pair_elemINS_9allocatorIDsEELi1ELb1EEE",
   "name" : "const std::__compressed_pair_elem<std::allocator<char16_t>, 1, true> *",
   "referenced_type" : "_ZTIKNSt3__122__compressed_pair_elemINS_9allocatorIDsEELi1ELb1EEE",
   "self_type" : "_ZTIPKNSt3__122__compressed_pair_elemINS_9allocatorIDsEELi1ELb1EEE",
   "size" : 4,
   "source_file" : "/external/libcxx/include/type_traits"
  },
  {
   "alignment" : 4,
   "linker_set_key" : "_ZTIPKNSt3__122__compressed_pair_elemINS_9allocatorIcEELi1ELb1EEE",
   "name" : "const std::__compressed_pair_elem<std::allocator<char>, 1, true> *",
   "referenced_type" : "_ZTIKNSt3__122__compressed_pair_elemINS_9allocatorIcEELi1ELb1EEE",
   "self_type" : "_ZTIPKNSt3__122__compressed_pair_elemINS_9allocatorIcEELi1ELb1EEE",
   "size" : 4,
   "source_file" : "/external/libcxx/include/type_traits"
  },
  {
   "alignment" : 4,
   "linker_set_key" : "_ZTIPKNSt3__122__compressed_pair_elemINS_9allocatorIwEELi1ELb1EEE",
   "name" : "const std::__compressed_pair_elem<std::allocator<wchar_t>, 1, true> *",
   "referenced_type" : "_ZTIKNSt3__122__compressed_pair_elemINS_9allocatorIwEELi1ELb1EEE",
   "self_type" : "_ZTIPKNSt3__122__compressed_pair_elemINS_9allocatorIwEELi1ELb1EEE",
   "size" : 4,
   "source_file" : "/external/libcxx/include/type_traits"
  },
  {
   "alignment" : 4,
   "linker_set_key" : "_ZTIPKNSt3__122__compressed_pair_elemIPFvPvELi1ELb0EEE",
   "name" : "const std::__compressed_pair_elem<void (*)(void *), 1, false> *",
   "referenced_type" : "_ZTIKNSt3__122__compressed_pair_elemIPFvPvELi1ELb0EEE",
   "self_type" : "_ZTIPKNSt3__122__compressed_pair_elemIPFvPvELi1ELb0EEE",
   "size" : 4,
   "source_file" : "/external/libcxx/include/type_traits"
  },
  {
   "alignment" : 4,
   "linker_set_key" : "_ZTIPKNSt3__122__compressed_pair_elemIPcLi0ELb0EEE",
   "name" : "const std::__compressed_pair_elem<char *, 0, false> *",
   "referenced_type" : "_ZTIKNSt3__122__compressed_pair_elemIPcLi0ELb0EEE",
   "self_type" : "_ZTIPKNSt3__122__compressed_pair_elemIPcLi0ELb0EEE",
   "size" : 4,
   "source_file" : "/external/libcxx/include/type_traits"
  },
  {
   "alignment" : 4,
   "linker_set_key" : "_ZTIPKNSt3__122__compressed_pair_elemIPhLi0ELb0EEE",
   "name" : "const std::__compressed_pair_elem<unsigned char *, 0, false> *",
   "referenced_type" : "_ZTIKNSt3__122__compressed_pair_elemIPhLi0ELb0EEE",
   "self_type" : "_ZTIPKNSt3__122__compressed_pair_elemIPhLi0ELb0EEE",
   "size" : 4,
   "source_file" : "/external/libcxx/include/type_traits"
  },
  {
   "alignment" : 4,
   "linker_set_key" : "_ZTIPKNSt3__122__compressed_pair_elemIPjLi0ELb0EEE",
   "name" : "const std::__compressed_pair_elem<unsigned int *, 0, false> *",
   "referenced_type" : "_ZTIKNSt3__122__compressed_pair_elemIPjLi0ELb0EEE",
   "self_type" : "_ZTIPKNSt3__122__compressed_pair_elemIPjLi0ELb0EEE",
   "size" : 4,
   "source_file" : "/external/libcxx/include/type_traits"
  },
  {
   "alignment" : 4,
   "linker_set_key" : "_ZTIPKNSt3__14fposI9mbstate_tEE",
   "name" : "const std::fpos<mbstate_t> *",
   "referenced_type" : "_ZTIKNSt3__14fposI9mbstate_tEE",
   "self_type" : "_ZTIPKNSt3__14fposI9mbstate_tEE",
   "size" : 4,
   "source_file" : "/external/libcxx/include/string"
  },
  {
   "alignment" : 4,
   "linker_set_key" : "_ZTIPKNSt3__14hashIDiEE",
   "name" : "const std::hash<char32_t> *",
   "referenced_type" : "_ZTIKNSt3__14hashIDiEE",
   "self_type" : "_ZTIPKNSt3__14hashIDiEE",
   "size" : 4,
   "source_file" : "/external/libcxx/include/utility"
  },
  {
   "alignment" : 4,
   "linker_set_key" : "_ZTIPKNSt3__14hashIDnEE",
   "name" : "const std::hash<nullptr_t> *",
   "referenced_type" : "_ZTIKNSt3__14hashIDnEE",
   "self_type" : "_ZTIPKNSt3__14hashIDnEE",
   "size" : 4,
   "source_file" : "/external/libcxx/include/utility"
  },
  {
   "alignment" : 4,
   "linker_set_key" : "_ZTIPKNSt3__14hashIDsEE",
   "name" : "const std::hash<char16_t> *",
   "referenced_type" : "_ZTIKNSt3__14hashIDsEE",
   "self_type" : "_ZTIPKNSt3__14hashIDsEE",
   "size" : 4,
   "source_file" : "/external/libcxx/include/utility"
  },
  {
   "alignment" : 4,
   "linker_set_key" : "_ZTIPKNSt3__14hashINS_10error_codeEEE",
   "name" : "const std::hash<std::error_code> *",
   "referenced_type" : "_ZTIKNSt3__14hashINS_10error_codeEEE",
   "self_type" : "_ZTIPKNSt3__14hashINS_10error_codeEEE",
   "size" : 4,
   "source_file" : "/external/libcxx/include/system_error"
  },
  {
   "alignment" : 4,
   "linker_set_key" : "_ZTIPKNSt3__14hashINS_15error_conditionEEE",
   "name" : "const std::hash<std::error_condition> *",
   "referenced_type" : "_ZTIKNSt3__14hashINS_15error_conditionEEE",
   "self_type" : "_ZTIPKNSt3__14hashINS_15error_conditionEEE",
   "size" : 4,
   "source_file" : "/external/libcxx/include/system_error"
  },
  {
   "alignment" : 4,
   "linker_set_key" : "_ZTIPKNSt3__14hashIaEE",
   "name" : "const std::hash<signed char> *",
   "referenced_type" : "_ZTIKNSt3__14hashIaEE",
   "self_type" : "_ZTIPKNSt3__14hashIaEE",
   "size" : 4,
   "source_file" : "/external/libcxx/include/utility"
  },
  {
   "alignment" : 4,
   "linker_set_key" : "_ZTIPKNSt3__14hashIbEE",
   "name" : "const std::hash<bool> *",
   "referenced_type" : "_ZTIKNSt3__14hashIbEE",
   "self_type" : "_ZTIPKNSt3__14hashIbEE",
   "size" : 4,
   "source_file" : "/external/libcxx/include/utility"
  },
  {
   "alignment" : 4,
   "linker_set_key" : "_ZTIPKNSt3__14hashIcEE",
   "name" : "const std::hash<char> *",
   "referenced_type" : "_ZTIKNSt3__14hashIcEE",
   "self_type" : "_ZTIPKNSt3__14hashIcEE",
   "size" : 4,
   "source_file" : "/external/libcxx/include/utility"
  },
  {
   "alignment" : 4,
   "linker_set_key" : "_ZTIPKNSt3__14hashIdEE",
   "name" : "const std::hash<double> *",
   "referenced_type" : "_ZTIKNSt3__14hashIdEE",
   "self_type" : "_ZTIPKNSt3__14hashIdEE",
   "size" : 4,
   "source_file" : "/external/libcxx/include/utility"
  },
  {
   "alignment" : 4,
   "linker_set_key" : "_ZTIPKNSt3__14hashIeEE",
   "name" : "const std::hash<long double> *",
   "referenced_type" : "_ZTIKNSt3__14hashIeEE",
   "self_type" : "_ZTIPKNSt3__14hashIeEE",
   "size" : 4,
   "source_file" : "/external/libcxx/include/utility"
  },
  {
   "alignment" : 4,
   "linker_set_key" : "_ZTIPKNSt3__14hashIfEE",
   "name" : "const std::hash<float> *",
   "referenced_type" : "_ZTIKNSt3__14hashIfEE",
   "self_type" : "_ZTIPKNSt3__14hashIfEE",
   "size" : 4,
   "source_file" : "/external/libcxx/include/utility"
  },
  {
   "alignment" : 4,
   "linker_set_key" : "_ZTIPKNSt3__14hashIhEE",
   "name" : "const std::hash<unsigned char> *",
   "referenced_type" : "_ZTIKNSt3__14hashIhEE",
   "self_type" : "_ZTIPKNSt3__14hashIhEE",
   "size" : 4,
   "source_file" : "/external/libcxx/include/utility"
  },
  {
   "alignment" : 4,
   "linker_set_key" : "_ZTIPKNSt3__14hashIiEE",
   "name" : "const std::hash<int> *",
   "referenced_type" : "_ZTIKNSt3__14hashIiEE",
   "self_type" : "_ZTIPKNSt3__14hashIiEE",
   "size" : 4,
   "source_file" : "/external/libcxx/include/utility"
  },
  {
   "alignment" : 4,
   "linker_set_key" : "_ZTIPKNSt3__14hashIjEE",
   "name" : "const std::hash<unsigned int> *",
   "referenced_type" : "_ZTIKNSt3__14hashIjEE",
   "self_type" : "_ZTIPKNSt3__14hashIjEE",
   "size" : 4,
   "source_file" : "/external/libcxx/include/utility"
  },
  {
   "alignment" : 4,
   "linker_set_key" : "_ZTIPKNSt3__14hashIlEE",
   "name" : "const std::hash<long> *",
   "referenced_type" : "_ZTIKNSt3__14hashIlEE",
   "self_type" : "_ZTIPKNSt3__14hashIlEE",
   "size" : 4,
   "source_file" : "/external/libcxx/include/utility"
  },
  {
   "alignment" : 4,
   "linker_set_key" : "_ZTIPKNSt3__14hashImEE",
   "name" : "const std::hash<unsigned long> *",
   "referenced_type" : "_ZTIKNSt3__14hashImEE",
   "self_type" : "_ZTIPKNSt3__14hashImEE",
   "size" : 4,
   "source_file" : "/external/libcxx/include/utility"
  },
  {
   "alignment" : 4,
   "linker_set_key" : "_ZTIPKNSt3__14hashIsEE",
   "name" : "const std::hash<short> *",
   "referenced_type" : "_ZTIKNSt3__14hashIsEE",
   "self_type" : "_ZTIPKNSt3__14hashIsEE",
   "size" : 4,
   "source_file" : "/external/libcxx/include/utility"
  },
  {
   "alignment" : 4,
   "linker_set_key" : "_ZTIPKNSt3__14hashItEE",
   "name" : "const std::hash<unsigned short> *",
   "referenced_type" : "_ZTIKNSt3__14hashItEE",
   "self_type" : "_ZTIPKNSt3__14hashItEE",
   "size" : 4,
   "source_file" : "/external/libcxx/include/utility"
  },
  {
   "alignment" : 4,
   "linker_set_key" : "_ZTIPKNSt3__14hashIwEE",
   "name" : "const std::hash<wchar_t> *",
   "referenced_type" : "_ZTIKNSt3__14hashIwEE",
   "self_type" : "_ZTIPKNSt3__14hashIwEE",
   "size" : 4,
   "source_file" : "/external/libcxx/include/utility"
  },
  {
   "alignment" : 4,
   "linker_set_key" : "_ZTIPKNSt3__15ctypeIcEE",
   "name" : "const std::ctype<char> *",
   "referenced_type" : "_ZTIKNSt3__15ctypeIcEE",
   "self_type" : "_ZTIPKNSt3__15ctypeIcEE",
   "size" : 4,
   "source_file" : "/external/libcxx/include/__locale"
  },
  {
   "alignment" : 4,
   "linker_set_key" : "_ZTIPKNSt3__15ctypeIwEE",
   "name" : "const std::ctype<wchar_t> *",
   "referenced_type" : "_ZTIKNSt3__15ctypeIwEE",
   "self_type" : "_ZTIPKNSt3__15ctypeIwEE",
   "size" : 4,
   "source_file" : "/external/libcxx/include/__locale"
  },
  {
   "alignment" : 4,
   "linker_set_key" : "_ZTIPKNSt3__16__lessIPcS1_EE",
   "name" : "const std::__less<char *, char *> *",
   "referenced_type" : "_ZTIKNSt3__16__lessIPcS1_EE",
   "self_type" : "_ZTIPKNSt3__16__lessIPcS1_EE",
   "size" : 4,
   "source_file" : "/external/libcxx/include/algorithm"
  },
  {
   "alignment" : 4,
   "linker_set_key" : "_ZTIPKNSt3__16__lessIiiEE",
   "name" : "const std::__less<int, int> *",
   "referenced_type" : "_ZTIKNSt3__16__lessIiiEE",
   "self_type" : "_ZTIPKNSt3__16__lessIiiEE",
   "size" : 4,
   "source_file" : "/external/libcxx/include/algorithm"
  },
  {
   "alignment" : 4,
   "linker_set_key" : "_ZTIPKNSt3__16__lessIjjEE",
   "name" : "const std::__less<unsigned int, unsigned int> *",
   "referenced_type" : "_ZTIKNSt3__16__lessIjjEE",
   "self_type" : "_ZTIPKNSt3__16__lessIjjEE",
   "size" : 4,
   "source_file" : "/external/libcxx/include/algorithm"
  },
  {
   "alignment" : 4,
   "linker_set_key" : "_ZTIPKNSt3__16chrono10time_pointINS0_12steady_clockENS0_8durationIxNS_5ratioILx1ELx1000000000EEEEEEE",
   "name" : "const std::chrono::time_point<std::chrono::steady_clock, std::chrono::duration<long long, std::ratio<1, 1000000000> > > *",
   "referenced_type" : "_ZTIKNSt3__16chrono10time_pointINS0_12steady_clockENS0_8durationIxNS_5ratioILx1ELx1000000000EEEEEEE",
   "self_type" : "_ZTIPKNSt3__16chrono10time_pointINS0_12steady_clockENS0_8durationIxNS_5ratioILx1ELx1000000000EEEEEEE",
   "size" : 4,
   "source_file" : "/external/libcxx/include/chrono"
  },
  {
   "alignment" : 4,
   "linker_set_key" : "_ZTIPKNSt3__16chrono10time_pointINS0_12system_clockENS0_8durationIxNS_5ratioILx1ELx1000000000EEEEEEE",
   "name" : "const std::chrono::time_point<std::chrono::system_clock, std::chrono::duration<long long, std::ratio<1, 1000000000> > > *",
   "referenced_type" : "_ZTIKNSt3__16chrono10time_pointINS0_12system_clockENS0_8durationIxNS_5ratioILx1ELx1000000000EEEEEEE",
   "self_type" : "_ZTIPKNSt3__16chrono10time_pointINS0_12system_clockENS0_8durationIxNS_5ratioILx1ELx1000000000EEEEEEE",
   "size" : 4,
   "source_file" : "/external/libcxx/include/chrono"
  },
  {
   "alignment" : 4,
   "linker_set_key" : "_ZTIPKNSt3__16chrono10time_pointINS_4__fs10filesystem16_FilesystemClockENS0_8durationIxNS_5ratioILx1ELx1000000000EEEEEEE",
   "name" : "const std::chrono::time_point<std::filesystem::_FilesystemClock, std::chrono::duration<long long, std::ratio<1, 1000000000> > > *",
   "referenced_type" : "_ZTIKNSt3__16chrono10time_pointINS_4__fs10filesystem16_FilesystemClockENS0_8durationIxNS_5ratioILx1ELx1000000000EEEEEEE",
   "self_type" : "_ZTIPKNSt3__16chrono10time_pointINS_4__fs10filesystem16_FilesystemClockENS0_8durationIxNS_5ratioILx1ELx1000000000EEEEEEE",
   "size" : 4,
   "source_file" : "/external/libcxx/include/chrono"
  },
  {
   "alignment" : 4,
   "linker_set_key" : "_ZTIPKNSt3__16chrono15__duration_castINS0_8durationIxNS_5ratioILx1ELx1000000000EEEEENS2_IeS4_EENS3_ILx1ELx1EEELb1ELb1EEE",
   "name" : "const std::chrono::__duration_cast<std::chrono::duration<long long, std::ratio<1, 1000000000> >, std::chrono::duration<long double, std::ratio<1, 1000000000> >, std::ratio<1, 1>, true, true> *",
   "referenced_type" : "_ZTIKNSt3__16chrono15__duration_castINS0_8durationIxNS_5ratioILx1ELx1000000000EEEEENS2_IeS4_EENS3_ILx1ELx1EEELb1ELb1EEE",
   "self_type" : "_ZTIPKNSt3__16chrono15__duration_castINS0_8durationIxNS_5ratioILx1ELx1000000000EEEEENS2_IeS4_EENS3_ILx1ELx1EEELb1ELb1EEE",
   "size" : 4,
   "source_file" : "/external/libcxx/include/chrono"
  },
  {
   "alignment" : 4,
   "linker_set_key" : "_ZTIPKNSt3__16chrono15__duration_castINS0_8durationIxNS_5ratioILx1ELx1000000000EEEEENS2_IxNS3_ILx1ELx1EEEEES4_Lb1ELb0EEE",
   "name" : "const std::chrono::__duration_cast<std::chrono::duration<long long, std::ratio<1, 1000000000> >, std::chrono::duration<long long, std::ratio<1, 1> >, std::ratio<1, 1000000000>, true, false> *",
   "referenced_type" : "_ZTIKNSt3__16chrono15__duration_castINS0_8durationIxNS_5ratioILx1ELx1000000000EEEEENS2_IxNS3_ILx1ELx1EEEEES4_Lb1ELb0EEE",
   "self_type" : "_ZTIPKNSt3__16chrono15__duration_castINS0_8durationIxNS_5ratioILx1ELx1000000000EEEEENS2_IxNS3_ILx1ELx1EEEEES4_Lb1ELb0EEE",
   "size" : 4,
   "source_file" : "/external/libcxx/include/chrono"
  },
  {
   "alignment" : 4,
   "linker_set_key" : "_ZTIPKNSt3__16chrono15__duration_castINS0_8durationIxNS_5ratioILx1ELx1EEEEENS2_IxNS3_ILx1ELx1000000000EEEEENS3_ILx1000000000ELx1EEELb0ELb1EEE",
   "name" : "const std::chrono::__duration_cast<std::chrono::duration<long long, std::ratio<1, 1> >, std::chrono::duration<long long, std::ratio<1, 1000000000> >, std::ratio<1000000000, 1>, false, true> *",
   "referenced_type" : "_ZTIKNSt3__16chrono15__duration_castINS0_8durationIxNS_5ratioILx1ELx1EEEEENS2_IxNS3_ILx1ELx1000000000EEEEENS3_ILx1000000000ELx1EEELb0ELb1EEE",
   "self_type" : "_ZTIPKNSt3__16chrono15__duration_castINS0_8durationIxNS_5ratioILx1ELx1EEEEENS2_IxNS3_ILx1ELx1000000000EEEEENS3_ILx1000000000ELx1EEELb0ELb1EEE",
   "size" : 4,
   "source_file" : "/external/libcxx/include/chrono"
  },
  {
   "alignment" : 4,
   "linker_set_key" : "_ZTIPKNSt3__16chrono8durationIeNS_5ratioILx1ELx1000000000EEEEE",
   "name" : "const std::chrono::duration<long double, std::ratio<1, 1000000000> > *",
   "referenced_type" : "_ZTIKNSt3__16chrono8durationIeNS_5ratioILx1ELx1000000000EEEEE",
   "self_type" : "_ZTIPKNSt3__16chrono8durationIeNS_5ratioILx1ELx1000000000EEEEE",
   "size" : 4,
   "source_file" : "/external/libcxx/include/chrono"
  },
  {
   "alignment" : 4,
   "linker_set_key" : "_ZTIPKNSt3__16chrono8durationIxNS_5ratioILx1ELx1000000000EEEEE",
   "name" : "const std::chrono::duration<long long, std::ratio<1, 1000000000> > *",
   "referenced_type" : "_ZTIKNSt3__16chrono8durationIxNS_5ratioILx1ELx1000000000EEEEE",
   "self_type" : "_ZTIPKNSt3__16chrono8durationIxNS_5ratioILx1ELx1000000000EEEEE",
   "size" : 4,
   "source_file" : "/external/libcxx/include/chrono"
  },
  {
   "alignment" : 4,
   "linker_set_key" : "_ZTIPKNSt3__16chrono8durationIxNS_5ratioILx1ELx1EEEEE",
   "name" : "const std::chrono::duration<long long, std::ratio<1, 1> > *",
   "referenced_type" : "_ZTIKNSt3__16chrono8durationIxNS_5ratioILx1ELx1EEEEE",
   "self_type" : "_ZTIPKNSt3__16chrono8durationIxNS_5ratioILx1ELx1EEEEE",
   "size" : 4,
   "source_file" : "/external/libcxx/include/chrono"
  },
  {
   "alignment" : 4,
   "linker_set_key" : "_ZTIPKNSt3__16localeE",
   "name" : "const std::locale *",
   "referenced_type" : "_ZTIKNSt3__16localeE",
   "self_type" : "_ZTIPKNSt3__16localeE",
   "size" : 4,
   "source_file" : "/external/libcxx/include/__locale"
  },
  {
   "alignment" : 4,
   "linker_set_key" : "_ZTIPKNSt3__17codecvtIDic9mbstate_tEE",
   "name" : "const std::codecvt<char32_t, char, mbstate_t> *",
   "referenced_type" : "_ZTIKNSt3__17codecvtIDic9mbstate_tEE",
   "self_type" : "_ZTIPKNSt3__17codecvtIDic9mbstate_tEE",
   "size" : 4,
   "source_file" : "/external/libcxx/include/__locale"
  },
  {
   "alignment" : 4,
   "linker_set_key" : "_ZTIPKNSt3__17codecvtIDsc9mbstate_tEE",
   "name" : "const std::codecvt<char16_t, char, mbstate_t> *",
   "referenced_type" : "_ZTIKNSt3__17codecvtIDsc9mbstate_tEE",
   "self_type" : "_ZTIPKNSt3__17codecvtIDsc9mbstate_tEE",
   "size" : 4,
   "source_file" : "/external/libcxx/include/__locale"
  },
  {
   "alignment" : 4,
   "linker_set_key" : "_ZTIPKNSt3__17codecvtIcc9mbstate_tEE",
   "name" : "const std::codecvt<char, char, mbstate_t> *",
   "referenced_type" : "_ZTIKNSt3__17codecvtIcc9mbstate_tEE",
   "self_type" : "_ZTIPKNSt3__17codecvtIcc9mbstate_tEE",
   "size" : 4,
   "source_file" : "/external/libcxx/include/__locale"
  },
  {
   "alignment" : 4,
   "linker_set_key" : "_ZTIPKNSt3__17codecvtIwc9mbstate_tEE",
   "name" : "const std::codecvt<wchar_t, char, mbstate_t> *",
   "referenced_type" : "_ZTIKNSt3__17codecvtIwc9mbstate_tEE",
   "self_type" : "_ZTIPKNSt3__17codecvtIwc9mbstate_tEE",
   "size" : 4,
   "source_file" : "/external/libcxx/include/__locale"
  },
  {
   "alignment" : 4,
   "linker_set_key" : "_ZTIPKNSt3__18__bitsetILj0ELj0EEE",
   "name" : "const std::__bitset<0, 0> *",
   "referenced_type" : "_ZTIKNSt3__18__bitsetILj0ELj0EEE",
   "self_type" : "_ZTIPKNSt3__18__bitsetILj0ELj0EEE",
   "size" : 4,
   "source_file" : "/external/libcxx/include/bitset"
  },
  {
   "alignment" : 4,
   "linker_set_key" : "_ZTIPKNSt3__18functionIFvN7android8hardware7details16HidlInstrumentor20InstrumentationEventEPKcS7_S7_S7_PNS_6vectorIPvNS_9allocatorIS9_EEEEEEE",
   "name" : "const std::function<void (InstrumentationEvent, const char *, const char *, const char *, const char *, vector<void *, allocator<void *> > *)> *",
   "referenced_type" : "_ZTIKNSt3__18functionIFvN7android8hardware7details16HidlInstrumentor20InstrumentationEventEPKcS7_S7_S7_PNS_6vectorIPvNS_9allocatorIS9_EEEEEEE",
   "self_type" : "_ZTIPKNSt3__18functionIFvN7android8hardware7details16HidlInstrumentor20InstrumentationEventEPKcS7_S7_S7_PNS_6vectorIPvNS_9allocatorIS9_EEEEEEE",
   "size" : 4,
   "source_file" : "/external/libcxx/include/type_traits"
  },
  {
   "alignment" : 4,
   "linker_set_key" : "_ZTIPKNSt3__18ios_baseE",
   "name" : "const std::ios_base *",
   "referenced_type" : "_ZTIKNSt3__18ios_baseE",
   "self_type" : "_ZTIPKNSt3__18ios_baseE",
   "size" : 4,
   "source_file" : "/external/libcxx/include/ios"
  },
  {
   "alignment" : 4,
   "linker_set_key" : "_ZTIPKNSt3__18numpunctIcEE",
   "name" : "const std::numpunct<char> *",
   "referenced_type" : "_ZTIKNSt3__18numpunctIcEE",
   "self_type" : "_ZTIPKNSt3__18numpunctIcEE",
   "size" : 4,
   "source_file" : "/external/libcxx/include/__locale"
  },
  {
   "alignment" : 4,
   "linker_set_key" : "_ZTIPKNSt3__18numpunctIwEE",
   "name" : "const std::numpunct<wchar_t> *",
   "referenced_type" : "_ZTIKNSt3__18numpunctIwEE",
   "self_type" : "_ZTIPKNSt3__18numpunctIwEE",
   "size" : 4,
   "source_file" : "/external/libcxx/include/__locale"
  },
  {
   "alignment" : 4,
   "linker_set_key" : "_ZTIPKNSt3__19allocatorIDiEE",
   "name" : "const std::allocator<char32_t> *",
   "referenced_type" : "_ZTIKNSt3__19allocatorIDiEE",
   "self_type" : "_ZTIPKNSt3__19allocatorIDiEE",
   "size" : 4,
   "source_file" : "/external/libcxx/include/memory"
  },
  {
   "alignment" : 4,
   "linker_set_key" : "_ZTIPKNSt3__19allocatorIDsEE",
   "name" : "const std::allocator<char16_t> *",
   "referenced_type" : "_ZTIKNSt3__19allocatorIDsEE",
   "self_type" : "_ZTIPKNSt3__19allocatorIDsEE",
   "size" : 4,
   "source_file" : "/external/libcxx/include/memory"
  },
  {
   "alignment" : 4,
   "linker_set_key" : "_ZTIPKNSt3__19allocatorIcEE",
   "name" : "const std::allocator<char> *",
   "referenced_type" : "_ZTIKNSt3__19allocatorIcEE",
   "self_type" : "_ZTIPKNSt3__19allocatorIcEE",
   "size" : 4,
   "source_file" : "/external/libcxx/include/type_traits"
  },
  {
   "alignment" : 4,
   "linker_set_key" : "_ZTIPKNSt3__19allocatorIwEE",
   "name" : "const std::allocator<wchar_t> *",
   "referenced_type" : "_ZTIKNSt3__19allocatorIwEE",
   "self_type" : "_ZTIPKNSt3__19allocatorIwEE",
   "size" : 4,
   "source_file" : "/external/libcxx/include/memory"
  },
  {
   "alignment" : 4,
   "linker_set_key" : "_ZTIPKNSt3__19basic_iosIcNS_11char_traitsIcEEEE",
   "name" : "const std::basic_ios<char, std::char_traits<char> > *",
   "referenced_type" : "_ZTIKNSt3__19basic_iosIcNS_11char_traitsIcEEEE",
   "self_type" : "_ZTIPKNSt3__19basic_iosIcNS_11char_traitsIcEEEE",
   "size" : 4,
   "source_file" : "/external/libcxx/include/ios"
  },
  {
   "alignment" : 4,
   "linker_set_key" : "_ZTIPKSt13exception_ptr",
   "name" : "const std::exception_ptr *",
   "referenced_type" : "_ZTIKSt13exception_ptr",
   "self_type" : "_ZTIPKSt13exception_ptr",
   "size" : 4,
   "source_file" : "/external/libcxx/include/exception"
  },
  {
   "alignment" : 4,
   "linker_set_key" : "_ZTIPKSt16initializer_listIbE",
   "name" : "const std::initializer_list<bool> *",
   "referenced_type" : "_ZTIKSt16initializer_listIbE",
   "self_type" : "_ZTIPKSt16initializer_listIbE",
   "size" : 4,
   "source_file" : "/external/libcxx/include/initializer_list"
  },
  {
   "alignment" : 4,
   "linker_set_key" : "_ZTIPKSt16nested_exception",
   "name" : "const std::nested_exception *",
   "referenced_type" : "_ZTIKSt16nested_exception",
   "self_type" : "_ZTIPKSt16nested_exception",
   "size" : 4,
   "source_file" : "/external/libcxx/include/exception"
  },
  {
   "alignment" : 4,
   "linker_set_key" : "_ZTIPKSt9type_info",
   "name" : "const std::type_info *",
   "referenced_type" : "_ZTIKSt9type_info",
   "self_type" : "_ZTIPKSt9type_info",
   "size" : 4,
   "source_file" : "/external/libcxx/include/typeinfo"
  },
  {
   "alignment" : 4,
   "linker_set_key" : "_ZTIPKb",
   "name" : "const bool *",
   "referenced_type" : "_ZTIKb",
   "self_type" : "_ZTIPKb",
   "size" : 4,
   "source_file" : "/external/libcxx/include/initializer_list"
  },
  {
   "alignment" : 4,
   "linker_set_key" : "_ZTIPKc",
   "name" : "const char *",
   "referenced_type" : "_ZTIKc",
   "self_type" : "_ZTIPKc",
   "size" : 4,
   "source_file" : "/external/libcxx/include/type_traits"
  },
  {
   "alignment" : 4,
   "linker_set_key" : "_ZTIPKi",
   "name" : "const int *",
   "referenced_type" : "_ZTIKi",
   "self_type" : "_ZTIPKi",
   "size" : 4,
   "source_file" : "/external/libcxx/include/initializer_list"
  },
  {
   "alignment" : 4,
   "linker_set_key" : "_ZTIPKj",
   "name" : "const unsigned int *",
   "referenced_type" : "_ZTIKj",
   "self_type" : "_ZTIPKj",
   "size" : 4,
   "source_file" : "/external/libcxx/include/type_traits"
  },
  {
   "alignment" : 4,
   "linker_set_key" : "_ZTIPKl",
   "name" : "const long *",
   "referenced_type" : "_ZTIKl",
   "self_type" : "_ZTIPKl",
   "size" : 4,
   "source_file" : "/external/libcxx/include/memory"
  },
  {
   "alignment" : 4,
   "linker_set_key" : "_ZTIPKm",
   "name" : "const unsigned long *",
   "referenced_type" : "_ZTIKm",
   "self_type" : "_ZTIPKm",
   "size" : 4,
   "source_file" : "/external/libcxx/include/__locale"
  },
  {
   "alignment" : 4,
   "linker_set_key" : "_ZTIPKv",
   "name" : "const void *",
   "referenced_type" : "_ZTIKv",
   "self_type" : "_ZTIPKv",
   "size" : 4,
   "source_file" : "/out/soong/.intermediates/bionic/libc/libc.llndk/android_vendor.30_arm_armv8-a_shared/gen/include/string.h"
  },
  {
   "alignment" : 4,
   "linker_set_key" : "_ZTIPKw",
   "name" : "const wchar_t *",
   "referenced_type" : "_ZTIKw",
   "self_type" : "_ZTIPKw",
   "size" : 4,
   "source_file" : "/external/libcxx/include/type_traits"
  },
  {
   "alignment" : 4,
   "linker_set_key" : "_ZTIPN7android16ReferenceRenamerE",
   "name" : "android::ReferenceRenamer *",
   "referenced_type" : "_ZTIN7android16ReferenceRenamerE",
   "self_type" : "_ZTIPN7android16ReferenceRenamerE",
   "size" : 4,
   "source_file" : "/system/core/libutils/include/utils/RefBase.h"
  },
  {
   "alignment" : 4,
   "linker_set_key" : "_ZTIPN7android19VirtualLightRefBaseE",
   "name" : "android::VirtualLightRefBase *",
   "referenced_type" : "_ZTIN7android19VirtualLightRefBaseE",
   "self_type" : "_ZTIPN7android19VirtualLightRefBaseE",
   "size" : 4,
   "source_file" : "/system/core/libutils/include/utils/LightRefBase.h"
  },
  {
   "alignment" : 4,
   "linker_set_key" : "_ZTIPN7android2spINS_4hidl6memory4V1_07IMapperEEE",
   "name" : "android::sp<android::hidl::memory::V1_0::IMapper> *",
   "referenced_type" : "_ZTIN7android2spINS_4hidl6memory4V1_07IMapperEEE",
   "self_type" : "_ZTIPN7android2spINS_4hidl6memory4V1_07IMapperEEE",
   "size" : 4,
   "source_file" : "/system/core/libutils/include/utils/StrongPointer.h"
  },
  {
   "alignment" : 4,
   "linker_set_key" : "_ZTIPN7android2spINS_4hidl6memory4V1_07IMemoryEEE",
   "name" : "android::sp<android::hidl::memory::V1_0::IMemory> *",
   "referenced_type" : "_ZTIN7android2spINS_4hidl6memory4V1_07IMemoryEEE",
   "self_type" : "_ZTIPN7android2spINS_4hidl6memory4V1_07IMemoryEEE",
   "size" : 4,
   "source_file" : "/system/core/libutils/include/utils/StrongPointer.h"
  },
  {
   "alignment" : 4,
   "linker_set_key" : "_ZTIPN7android2spINS_4hidl7manager4V1_020IServiceNotificationEEE",
   "name" : "android::sp<android::hidl::manager::V1_0::IServiceNotification> *",
   "referenced_type" : "_ZTIN7android2spINS_4hidl7manager4V1_020IServiceNotificationEEE",
   "self_type" : "_ZTIPN7android2spINS_4hidl7manager4V1_020IServiceNotificationEEE",
   "size" : 4,
   "source_file" : "/system/core/libutils/include/utils/StrongPointer.h"
  },
  {
   "alignment" : 4,
   "linker_set_key" : "_ZTIPN7android4hidl4base4V1_05IBaseE",
   "name" : "android::hidl::base::V1_0::IBase *",
   "referenced_type" : "_ZTIN7android4hidl4base4V1_05IBaseE",
   "self_type" : "_ZTIPN7android4hidl4base4V1_05IBaseE",
   "size" : 4,
   "source_file" : "/system/core/libutils/include/utils/StrongPointer.h"
  },
  {
   "alignment" : 4,
   "linker_set_key" : "_ZTIPN7android4hidl6memory4V1_014implementation12AshmemMapperE",
   "name" : "android::hidl::memory::V1_0::implementation::AshmemMapper *",
   "referenced_type" : "_ZTIN7android4hidl6memory4V1_014implementation12AshmemMapperE",
   "self_type" : "_ZTIPN7android4hidl6memory4V1_014implementation12AshmemMapperE",
   "size" : 4,
   "source_file" : "/system/libhidl/transport/memory/1.0/default/AshmemMapper.h"
  },
  {
   "alignment" : 4,
   "linker_set_key" : "_ZTIPN7android4hidl6memory4V1_014implementation12AshmemMemoryE",
   "name" : "android::hidl::memory::V1_0::implementation::AshmemMemory *",
   "referenced_type" : "_ZTIN7android4hidl6memory4V1_014implementation12AshmemMemoryE",
   "self_type" : "_ZTIPN7android4hidl6memory4V1_014implementation12AshmemMemoryE",
   "size" : 4,
   "source_file" : "/system/core/libutils/include/utils/StrongPointer.h"
  },
  {
   "alignment" : 4,
   "linker_set_key" : "_ZTIPN7android4hidl6memory4V1_07IMapperE",
   "name" : "android::hidl::memory::V1_0::IMapper *",
   "referenced_type" : "_ZTIN7android4hidl6memory4V1_07IMapperE",
   "self_type" : "_ZTIPN7android4hidl6memory4V1_07IMapperE",
   "size" : 4,
   "source_file" : "/system/core/libutils/include/utils/StrongPointer.h"
  },
  {
   "alignment" : 4,
   "linker_set_key" : "_ZTIPN7android4hidl6memory4V1_07IMemoryE",
   "name" : "android::hidl::memory::V1_0::IMemory *",
   "referenced_type" : "_ZTIN7android4hidl6memory4V1_07IMemoryE",
   "self_type" : "_ZTIPN7android4hidl6memory4V1_07IMemoryE",
   "size" : 4,
   "source_file" : "/system/core/libutils/include/utils/StrongPointer.h"
  },
  {
   "alignment" : 4,
   "linker_set_key" : "_ZTIPN7android4hidl7manager4V1_020IServiceNotificationE",
   "name" : "android::hidl::manager::V1_0::IServiceNotification *",
   "referenced_type" : "_ZTIN7android4hidl7manager4V1_020IServiceNotificationE",
   "self_type" : "_ZTIPN7android4hidl7manager4V1_020IServiceNotificationE",
   "size" : 4,
   "source_file" : "/system/core/libutils/include/utils/StrongPointer.h"
  },
  {
   "alignment" : 4,
   "linker_set_key" : "_ZTIPN7android7RefBase12weakref_implE",
   "name" : "android::RefBase::weakref_impl *",
   "referenced_type" : "_ZTIN7android7RefBase12weakref_implE",
   "self_type" : "_ZTIPN7android7RefBase12weakref_implE",
   "size" : 4,
   "source_file" : "/system/core/libutils/include/utils/RefBase.h"
  },
  {
   "alignment" : 4,
   "linker_set_key" : "_ZTIPN7android7RefBaseE",
   "name" : "android::RefBase *",
   "referenced_type" : "_ZTIN7android7RefBaseE",
   "self_type" : "_ZTIPN7android7RefBaseE",
   "size" : 4,
   "source_file" : "/system/core/libutils/include/utils/RefBase.h"
  },
  {
   "alignment" : 4,
   "linker_set_key" : "_ZTIPN7android8hardware11hidl_memoryE",
   "name" : "android::hardware::hidl_memory *",
   "referenced_type" : "_ZTIN7android8hardware11hidl_memoryE",
   "self_type" : "_ZTIPN7android8hardware11hidl_memoryE",
   "size" : 4,
   "source_file" : "/system/libhidl/base/include/hidl/HidlSupport.h"
  },
  {
   "alignment" : 4,
   "linker_set_key" : "_ZTIPN7android8hardware12hidl_versionE",
   "name" : "android::hardware::hidl_version *",
   "referenced_type" : "_ZTIN7android8hardware12hidl_versionE",
   "self_type" : "_ZTIPN7android8hardware12hidl_versionE",
   "size" : 4,
   "source_file" : "/system/libhidl/base/include/hidl/HidlSupport.h"
  },
  {
   "alignment" : 4,
   "linker_set_key" : "_ZTIPN7android8hardware17GrantorDescriptorE",
   "name" : "android::hardware::GrantorDescriptor *",
   "referenced_type" : "_ZTIN7android8hardware17GrantorDescriptorE",
   "self_type" : "_ZTIPN7android8hardware17GrantorDescriptorE",
   "size" : 4,
   "source_file" : "/external/libcxx/include/type_traits"
  },
  {
   "alignment" : 4,
   "linker_set_key" : "_ZTIPN7android8hardware20hidl_death_recipientE",
   "name" : "android::hardware::hidl_death_recipient *",
   "referenced_type" : "_ZTIN7android8hardware20hidl_death_recipientE",
   "self_type" : "_ZTIPN7android8hardware20hidl_death_recipientE",
   "size" : 4,
   "source_file" : "/external/libcxx/include/type_traits"
  },
  {
   "alignment" : 4,
   "linker_set_key" : "_ZTIPN7android8hardware6ReturnINS_2spINS_4hidl6memory4V1_07IMemoryEEEEE",
   "name" : "android::hardware::Return<android::sp<android::hidl::memory::V1_0::IMemory> > *",
   "referenced_type" : "_ZTIN7android8hardware6ReturnINS_2spINS_4hidl6memory4V1_07IMemoryEEEEE",
   "self_type" : "_ZTIPN7android8hardware6ReturnINS_2spINS_4hidl6memory4V1_07IMemoryEEEEE",
   "size" : 4,
   "source_file" : "/system/libhidl/base/include/hidl/Status.h"
  },
  {
   "alignment" : 4,
   "linker_set_key" : "_ZTIPN7android8hardware6ReturnIPvEE",
   "name" : "android::hardware::Return<void *> *",
   "referenced_type" : "_ZTIN7android8hardware6ReturnIPvEE",
   "self_type" : "_ZTIPN7android8hardware6ReturnIPvEE",
   "size" : 4,
   "source_file" : "/system/libhidl/base/include/hidl/Status.h"
  },
  {
   "alignment" : 4,
   "linker_set_key" : "_ZTIPN7android8hardware6ReturnIvEE",
   "name" : "android::hardware::Return<void> *",
   "referenced_type" : "_ZTIN7android8hardware6ReturnIvEE",
   "self_type" : "_ZTIPN7android8hardware6ReturnIvEE",
   "size" : 4,
   "source_file" : "/system/libhidl/base/include/hidl/Status.h"
  },
  {
   "alignment" : 4,
   "linker_set_key" : "_ZTIPN7android8hardware6ReturnIyEE",
   "name" : "android::hardware::Return<unsigned long long> *",
   "referenced_type" : "_ZTIN7android8hardware6ReturnIyEE",
   "self_type" : "_ZTIPN7android8hardware6ReturnIyEE",
   "size" : 4,
   "source_file" : "/system/libhidl/base/include/hidl/Status.h"
  },
  {
   "alignment" : 4,
   "linker_set_key" : "_ZTIPN7android8hardware6StatusE",
   "name" : "android::hardware::Status *",
   "referenced_type" : "_ZTIN7android8hardware6StatusE",
   "self_type" : "_ZTIPN7android8hardware6StatusE",
   "size" : 4,
   "source_file" : "/system/libhidl/base/include/hidl/Status.h"
  },
  {
   "alignment" : 4,
   "linker_set_key" : "_ZTIPN7android8hardware7details13return_statusE",
   "name" : "android::hardware::details::return_status *",
   "referenced_type" : "_ZTIN7android8hardware7details13return_statusE",
   "self_type" : "_ZTIPN7android8hardware7details13return_statusE",
   "size" : 4,
   "source_file" : "/system/libhidl/base/include/hidl/Status.h"
  },
  {
   "alignment" : 4,
   "linker_set_key" : "_ZTIPN7android8hardware7details16HidlInstrumentorE",
   "name" : "android::hardware::details::HidlInstrumentor *",
   "referenced_type" : "_ZTIN7android8hardware7details16HidlInstrumentorE",
   "self_type" : "_ZTIPN7android8hardware7details16HidlInstrumentorE",
   "size" : 4,
   "source_file" : "/system/libhidl/base/include/hidl/HidlInternal.h"
  },
  {
   "alignment" : 4,
   "linker_set_key" : "_ZTIPNSt3__110__time_putE",
   "name" : "std::__time_put *",
   "referenced_type" : "_ZTINSt3__110__time_putE",
   "self_type" : "_ZTIPNSt3__110__time_putE",
   "size" : 4,
   "source_file" : "/external/libcxx/include/locale"
  },
  {
   "alignment" : 4,
   "linker_set_key" : "_ZTIPNSt3__110ctype_baseE",
   "name" : "std::ctype_base *",
   "referenced_type" : "_ZTINSt3__110ctype_baseE",
   "self_type" : "_ZTIPNSt3__110ctype_baseE",
   "size" : 4,
   "source_file" : "/external/libcxx/include/__locale"
  },
  {
   "alignment" : 4,
   "linker_set_key" : "_ZTIPNSt3__110error_codeE",
   "name" : "std::error_code *",
   "referenced_type" : "_ZTINSt3__110error_codeE",
   "self_type" : "_ZTIPNSt3__110error_codeE",
   "size" : 4,
   "source_file" : "/external/libcxx/include/system_error"
  },
  {
   "alignment" : 4,
   "linker_set_key" : "_ZTIPNSt3__110in_place_tE",
   "name" : "std::in_place_t *",
   "referenced_type" : "_ZTINSt3__110in_place_tE",
   "self_type" : "_ZTIPNSt3__110in_place_tE",
   "size" : 4,
   "source_file" : "/external/libcxx/include/utility"
  },
  {
   "alignment" : 4,
   "linker_set_key" : "_ZTIPNSt3__110money_baseE",
   "name" : "std::money_base *",
   "referenced_type" : "_ZTINSt3__110money_baseE",
   "self_type" : "_ZTIPNSt3__110money_baseE",
   "size" : 4,
   "source_file" : "/external/libcxx/include/locale"
  },
  {
   "alignment" : 4,
   "linker_set_key" : "_ZTIPNSt3__111atomic_flagE",
   "name" : "std::atomic_flag *",
   "referenced_type" : "_ZTINSt3__111atomic_flagE",
   "self_type" : "_ZTIPNSt3__111atomic_flagE",
   "size" : 4,
   "source_file" : "/external/libcxx/include/atomic"
  },
  {
   "alignment" : 4,
   "linker_set_key" : "_ZTIPNSt3__111scoped_lockIJEEE",
   "name" : "std::scoped_lock<> *",
   "referenced_type" : "_ZTINSt3__111scoped_lockIJEEE",
   "self_type" : "_ZTIPNSt3__111scoped_lockIJEEE",
   "size" : 4,
   "source_file" : "/external/libcxx/include/mutex"
  },
  {
   "alignment" : 4,
   "linker_set_key" : "_ZTIPNSt3__112__destruct_nE",
   "name" : "std::__destruct_n *",
   "referenced_type" : "_ZTINSt3__112__destruct_nE",
   "self_type" : "_ZTIPNSt3__112__destruct_nE",
   "size" : 4,
   "source_file" : "/external/libcxx/include/memory"
  },
  {
   "alignment" : 4,
   "linker_set_key" : "_ZTIPNSt3__112basic_stringIDiNS_11char_traitsIDiEENS_9allocatorIDiEEEE",
   "name" : "std::basic_string<char32_t, std::char_traits<char32_t>, std::allocator<char32_t> > *",
   "referenced_type" : "_ZTINSt3__112basic_stringIDiNS_11char_traitsIDiEENS_9allocatorIDiEEEE",
   "self_type" : "_ZTIPNSt3__112basic_stringIDiNS_11char_traitsIDiEENS_9allocatorIDiEEEE",
   "size" : 4,
   "source_file" : "/external/libcxx/include/string"
  },
  {
   "alignment" : 4,
   "linker_set_key" : "_ZTIPNSt3__112basic_stringIDsNS_11char_traitsIDsEENS_9allocatorIDsEEEE",
   "name" : "std::basic_string<char16_t, std::char_traits<char16_t>, std::allocator<char16_t> > *",
   "referenced_type" : "_ZTINSt3__112basic_stringIDsNS_11char_traitsIDsEENS_9allocatorIDsEEEE",
   "self_type" : "_ZTIPNSt3__112basic_stringIDsNS_11char_traitsIDsEENS_9allocatorIDsEEEE",
   "size" : 4,
   "source_file" : "/external/libcxx/include/string"
  },
  {
   "alignment" : 4,
   "linker_set_key" : "_ZTIPNSt3__112basic_stringIcNS_11char_traitsIcEENS_9allocatorIcEEEE",
   "name" : "std::basic_string<char, std::char_traits<char>, std::allocator<char> > *",
   "referenced_type" : "_ZTINSt3__112basic_stringIcNS_11char_traitsIcEENS_9allocatorIcEEEE",
   "self_type" : "_ZTIPNSt3__112basic_stringIcNS_11char_traitsIcEENS_9allocatorIcEEEE",
   "size" : 4,
   "source_file" : "/external/libcxx/include/string"
  },
  {
   "alignment" : 4,
   "linker_set_key" : "_ZTIPNSt3__112basic_stringIwNS_11char_traitsIwEENS_9allocatorIwEEEE",
   "name" : "std::basic_string<wchar_t, std::char_traits<wchar_t>, std::allocator<wchar_t> > *",
   "referenced_type" : "_ZTINSt3__112basic_stringIwNS_11char_traitsIwEENS_9allocatorIwEEEE",
   "self_type" : "_ZTIPNSt3__112basic_stringIwNS_11char_traitsIwEENS_9allocatorIwEEEE",
   "size" : 4,
   "source_file" : "/external/libcxx/include/string"
  },
  {
   "alignment" : 4,
   "linker_set_key" : "_ZTIPNSt3__112codecvt_baseE",
   "name" : "std::codecvt_base *",
   "referenced_type" : "_ZTINSt3__112codecvt_baseE",
   "self_type" : "_ZTIPNSt3__112codecvt_baseE",
   "size" : 4,
   "source_file" : "/external/libcxx/include/__locale"
  },
  {
   "alignment" : 4,
   "linker_set_key" : "_ZTIPNSt3__113__atomic_baseIiLb0EEE",
   "name" : "std::__atomic_base<int, false> *",
   "referenced_type" : "_ZTINSt3__113__atomic_baseIiLb0EEE",
   "self_type" : "_ZTIPNSt3__113__atomic_baseIiLb0EEE",
   "size" : 4,
   "source_file" : "/external/libcxx/include/atomic"
  },
  {
   "alignment" : 4,
   "linker_set_key" : "_ZTIPNSt3__113__atomic_baseIiLb1EEE",
   "name" : "std::__atomic_base<int, true> *",
   "referenced_type" : "_ZTINSt3__113__atomic_baseIiLb1EEE",
   "self_type" : "_ZTIPNSt3__113__atomic_baseIiLb1EEE",
   "size" : 4,
   "source_file" : "/external/libcxx/include/atomic"
  },
  {
   "alignment" : 4,
   "linker_set_key" : "_ZTIPNSt3__113__atomic_baseIjLb0EEE",
   "name" : "std::__atomic_base<unsigned int, false> *",
   "referenced_type" : "_ZTINSt3__113__atomic_baseIjLb0EEE",
   "self_type" : "_ZTIPNSt3__113__atomic_baseIjLb0EEE",
   "size" : 4,
   "source_file" : "/external/libcxx/include/atomic"
  },
  {
   "alignment" : 4,
   "linker_set_key" : "_ZTIPNSt3__113__atomic_baseIjLb1EEE",
   "name" : "std::__atomic_base<unsigned int, true> *",
   "referenced_type" : "_ZTINSt3__113__atomic_baseIjLb1EEE",
   "self_type" : "_ZTIPNSt3__113__atomic_baseIjLb1EEE",
   "size" : 4,
   "source_file" : "/external/libcxx/include/atomic"
  },
  {
   "alignment" : 4,
   "linker_set_key" : "_ZTIPNSt3__113basic_ostreamIcNS_11char_traitsIcEEEE",
   "name" : "std::basic_ostream<char, std::char_traits<char> > *",
   "referenced_type" : "_ZTINSt3__113basic_ostreamIcNS_11char_traitsIcEEEE",
   "self_type" : "_ZTIPNSt3__113basic_ostreamIcNS_11char_traitsIcEEEE",
   "size" : 4,
   "source_file" : "/external/libcxx/include/streambuf"
  },
  {
   "alignment" : 4,
   "linker_set_key" : "_ZTIPNSt3__113basic_ostreamIwNS_11char_traitsIwEEEE",
   "name" : "std::basic_ostream<wchar_t, std::char_traits<wchar_t> > *",
   "referenced_type" : "_ZTINSt3__113basic_ostreamIwNS_11char_traitsIwEEEE",
   "self_type" : "_ZTIPNSt3__113basic_ostreamIwNS_11char_traitsIwEEEE",
   "size" : 4,
   "source_file" : "/external/libcxx/include/streambuf"
  },
  {
   "alignment" : 4,
   "linker_set_key" : "_ZTIPNSt3__113messages_baseE",
   "name" : "std::messages_base *",
   "referenced_type" : "_ZTINSt3__113messages_baseE",
   "self_type" : "_ZTIPNSt3__113messages_baseE",
   "size" : 4,
   "source_file" : "/external/libcxx/include/locale"
  },
  {
   "alignment" : 4,
   "linker_set_key" : "_ZTIPNSt3__114__bit_iteratorINS_8__bitsetILj0ELj0EEELb0ELj0EEE",
   "name" : "std::__bit_iterator<std::__bitset<0, 0>, false, 0> *",
   "referenced_type" : "_ZTINSt3__114__bit_iteratorINS_8__bitsetILj0ELj0EEELb0ELj0EEE",
   "self_type" : "_ZTIPNSt3__114__bit_iteratorINS_8__bitsetILj0ELj0EEELb0ELj0EEE",
   "size" : 4,
   "source_file" : "/external/libcxx/include/__bit_reference"
  },
  {
   "alignment" : 4,
   "linker_set_key" : "_ZTIPNSt3__114__bit_iteratorINS_8__bitsetILj0ELj0EEELb1ELj0EEE",
   "name" : "std::__bit_iterator<std::__bitset<0, 0>, true, 0> *",
   "referenced_type" : "_ZTINSt3__114__bit_iteratorINS_8__bitsetILj0ELj0EEELb1ELj0EEE",
   "self_type" : "_ZTIPNSt3__114__bit_iteratorINS_8__bitsetILj0ELj0EEELb1ELj0EEE",
   "size" : 4,
   "source_file" : "/external/libcxx/include/__bit_reference"
  },
  {
   "alignment" : 4,
   "linker_set_key" : "_ZTIPNSt3__114__shared_countE",
   "name" : "std::__shared_count *",
   "referenced_type" : "_ZTINSt3__114__shared_countE",
   "self_type" : "_ZTIPNSt3__114__shared_countE",
   "size" : 4,
   "source_file" : "/external/libcxx/include/memory"
  },
  {
   "alignment" : 4,
   "linker_set_key" : "_ZTIPNSt3__114error_categoryE",
   "name" : "std::error_category *",
   "referenced_type" : "_ZTINSt3__114error_categoryE",
   "self_type" : "_ZTIPNSt3__114error_categoryE",
   "size" : 4,
   "source_file" : "/external/libcxx/include/system_error"
  },
  {
   "alignment" : 4,
   "linker_set_key" : "_ZTIPNSt3__114pointer_safetyE",
   "name" : "std::pointer_safety *",
   "referenced_type" : "_ZTINSt3__114pointer_safetyE",
   "self_type" : "_ZTIPNSt3__114pointer_safetyE",
   "size" : 4,
   "source_file" : "/external/libcxx/include/memory"
  },
  {
   "alignment" : 4,
   "linker_set_key" : "_ZTIPNSt3__115__bit_referenceINS_8__bitsetILj0ELj0EEELb1EEE",
   "name" : "std::__bit_reference<std::__bitset<0, 0>, true> *",
   "referenced_type" : "_ZTINSt3__115__bit_referenceINS_8__bitsetILj0ELj0EEELb1EEE",
   "self_type" : "_ZTIPNSt3__115__bit_referenceINS_8__bitsetILj0ELj0EEELb1EEE",
   "size" : 4,
   "source_file" : "/external/libcxx/include/__bit_reference"
  },
  {
   "alignment" : 4,
   "linker_set_key" : "_ZTIPNSt3__115basic_streambufIcNS_11char_traitsIcEEEE",
   "name" : "std::basic_streambuf<char, std::char_traits<char> > *",
   "referenced_type" : "_ZTINSt3__115basic_streambufIcNS_11char_traitsIcEEEE",
   "self_type" : "_ZTIPNSt3__115basic_streambufIcNS_11char_traitsIcEEEE",
   "size" : 4,
   "source_file" : "/external/libcxx/include/iterator"
  },
  {
   "alignment" : 4,
   "linker_set_key" : "_ZTIPNSt3__115basic_stringbufIcNS_11char_traitsIcEENS_9allocatorIcEEEE",
   "name" : "std::basic_stringbuf<char, std::char_traits<char>, std::allocator<char> > *",
   "referenced_type" : "_ZTINSt3__115basic_stringbufIcNS_11char_traitsIcEENS_9allocatorIcEEEE",
   "self_type" : "_ZTIPNSt3__115basic_stringbufIcNS_11char_traitsIcEENS_9allocatorIcEEEE",
   "size" : 4,
   "source_file" : "/external/libcxx/include/sstream"
  },
  {
   "alignment" : 4,
   "linker_set_key" : "_ZTIPNSt3__115error_conditionE",
   "name" : "std::error_condition *",
   "referenced_type" : "_ZTINSt3__115error_conditionE",
   "self_type" : "_ZTIPNSt3__115error_conditionE",
   "size" : 4,
   "source_file" : "/external/libcxx/include/system_error"
  },
  {
   "alignment" : 4,
   "linker_set_key" : "_ZTIPNSt3__115recursive_mutexE",
   "name" : "std::recursive_mutex *",
   "referenced_type" : "_ZTINSt3__115recursive_mutexE",
   "self_type" : "_ZTIPNSt3__115recursive_mutexE",
   "size" : 4,
   "source_file" : "/external/libcxx/include/mutex"
  },
  {
   "alignment" : 4,
   "linker_set_key" : "_ZTIPNSt3__116__narrow_to_utf8ILj16EEE",
   "name" : "std::__narrow_to_utf8<16> *",
   "referenced_type" : "_ZTINSt3__116__narrow_to_utf8ILj16EEE",
   "self_type" : "_ZTIPNSt3__116__narrow_to_utf8ILj16EEE",
   "size" : 4,
   "source_file" : "/external/libcxx/include/__locale"
  },
  {
   "alignment" : 4,
   "linker_set_key" : "_ZTIPNSt3__116__narrow_to_utf8ILj32EEE",
   "name" : "std::__narrow_to_utf8<32> *",
   "referenced_type" : "_ZTINSt3__116__narrow_to_utf8ILj32EEE",
   "self_type" : "_ZTIPNSt3__116__narrow_to_utf8ILj32EEE",
   "size" : 4,
   "source_file" : "/external/libcxx/include/__locale"
  },
  {
   "alignment" : 4,
   "linker_set_key" : "_ZTIPNSt3__117__compressed_pairINS_12basic_stringIDiNS_11char_traitsIDiEENS_9allocatorIDiEEE5__repES5_EE",
   "name" : "std::__compressed_pair<std::basic_string<char32_t, char_traits<char32_t>, allocator<char32_t> >::__rep, std::allocator<char32_t> > *",
   "referenced_type" : "_ZTINSt3__117__compressed_pairINS_12basic_stringIDiNS_11char_traitsIDiEENS_9allocatorIDiEEE5__repES5_EE",
   "self_type" : "_ZTIPNSt3__117__compressed_pairINS_12basic_stringIDiNS_11char_traitsIDiEENS_9allocatorIDiEEE5__repES5_EE",
   "size" : 4,
   "source_file" : "/external/libcxx/include/memory"
  },
  {
   "alignment" : 4,
   "linker_set_key" : "_ZTIPNSt3__117__compressed_pairINS_12basic_stringIDsNS_11char_traitsIDsEENS_9allocatorIDsEEE5__repES5_EE",
   "name" : "std::__compressed_pair<std::basic_string<char16_t, char_traits<char16_t>, allocator<char16_t> >::__rep, std::allocator<char16_t> > *",
   "referenced_type" : "_ZTINSt3__117__compressed_pairINS_12basic_stringIDsNS_11char_traitsIDsEENS_9allocatorIDsEEE5__repES5_EE",
   "self_type" : "_ZTIPNSt3__117__compressed_pairINS_12basic_stringIDsNS_11char_traitsIDsEENS_9allocatorIDsEEE5__repES5_EE",
   "size" : 4,
   "source_file" : "/external/libcxx/include/memory"
  },
  {
   "alignment" : 4,
   "linker_set_key" : "_ZTIPNSt3__117__compressed_pairINS_12basic_stringIcNS_11char_traitsIcEENS_9allocatorIcEEE5__repES5_EE",
   "name" : "std::__compressed_pair<std::basic_string<char>::__rep, std::allocator<char> > *",
   "referenced_type" : "_ZTINSt3__117__compressed_pairINS_12basic_stringIcNS_11char_traitsIcEENS_9allocatorIcEEE5__repES5_EE",
   "self_type" : "_ZTIPNSt3__117__compressed_pairINS_12basic_stringIcNS_11char_traitsIcEENS_9allocatorIcEEE5__repES5_EE",
   "size" : 4,
   "source_file" : "/external/libcxx/include/type_traits"
  },
  {
   "alignment" : 4,
   "linker_set_key" : "_ZTIPNSt3__117__compressed_pairINS_12basic_stringIwNS_11char_traitsIwEENS_9allocatorIwEEE5__repES5_EE",
   "name" : "std::__compressed_pair<std::basic_string<wchar_t>::__rep, std::allocator<wchar_t> > *",
   "referenced_type" : "_ZTINSt3__117__compressed_pairINS_12basic_stringIwNS_11char_traitsIwEENS_9allocatorIwEEE5__repES5_EE",
   "self_type" : "_ZTIPNSt3__117__compressed_pairINS_12basic_stringIwNS_11char_traitsIwEENS_9allocatorIwEEE5__repES5_EE",
   "size" : 4,
   "source_file" : "/external/libcxx/include/memory"
  },
  {
   "alignment" : 4,
   "linker_set_key" : "_ZTIPNSt3__117__widen_from_utf8ILj16EEE",
   "name" : "std::__widen_from_utf8<16> *",
   "referenced_type" : "_ZTINSt3__117__widen_from_utf8ILj16EEE",
   "self_type" : "_ZTIPNSt3__117__widen_from_utf8ILj16EEE",
   "size" : 4,
   "source_file" : "/external/libcxx/include/__locale"
  },
  {
   "alignment" : 4,
   "linker_set_key" : "_ZTIPNSt3__117__widen_from_utf8ILj32EEE",
   "name" : "std::__widen_from_utf8<32> *",
   "referenced_type" : "_ZTINSt3__117__widen_from_utf8ILj32EEE",
   "self_type" : "_ZTIPNSt3__117__widen_from_utf8ILj32EEE",
   "size" : 4,
   "source_file" : "/external/libcxx/include/__locale"
  },
  {
   "alignment" : 4,
   "linker_set_key" : "_ZTIPNSt3__117basic_string_viewIDiNS_11char_traitsIDiEEEE",
   "name" : "std::basic_string_view<char32_t, std::char_traits<char32_t> > *",
   "referenced_type" : "_ZTINSt3__117basic_string_viewIDiNS_11char_traitsIDiEEEE",
   "self_type" : "_ZTIPNSt3__117basic_string_viewIDiNS_11char_traitsIDiEEEE",
   "size" : 4,
   "source_file" : "/external/libcxx/include/string_view"
  },
  {
   "alignment" : 4,
   "linker_set_key" : "_ZTIPNSt3__117basic_string_viewIDsNS_11char_traitsIDsEEEE",
   "name" : "std::basic_string_view<char16_t, std::char_traits<char16_t> > *",
   "referenced_type" : "_ZTINSt3__117basic_string_viewIDsNS_11char_traitsIDsEEEE",
   "self_type" : "_ZTIPNSt3__117basic_string_viewIDsNS_11char_traitsIDsEEEE",
   "size" : 4,
   "source_file" : "/external/libcxx/include/string_view"
  },
  {
   "alignment" : 4,
   "linker_set_key" : "_ZTIPNSt3__117basic_string_viewIcNS_11char_traitsIcEEEE",
   "name" : "std::basic_string_view<char, std::char_traits<char> > *",
   "referenced_type" : "_ZTINSt3__117basic_string_viewIcNS_11char_traitsIcEEEE",
   "self_type" : "_ZTIPNSt3__117basic_string_viewIcNS_11char_traitsIcEEEE",
   "size" : 4,
   "source_file" : "/external/libcxx/include/string_view"
  },
  {
   "alignment" : 4,
   "linker_set_key" : "_ZTIPNSt3__117basic_string_viewIwNS_11char_traitsIwEEEE",
   "name" : "std::basic_string_view<wchar_t, std::char_traits<wchar_t> > *",
   "referenced_type" : "_ZTINSt3__117basic_string_viewIwNS_11char_traitsIwEEEE",
   "self_type" : "_ZTIPNSt3__117basic_string_viewIwNS_11char_traitsIwEEEE",
   "size" : 4,
   "source_file" : "/external/libcxx/include/string_view"
  },
  {
   "alignment" : 4,
   "linker_set_key" : "_ZTIPNSt3__118__sfinae_ctor_baseILb0ELb0EEE",
   "name" : "std::__sfinae_ctor_base<false, false> *",
   "referenced_type" : "_ZTINSt3__118__sfinae_ctor_baseILb0ELb0EEE",
   "self_type" : "_ZTIPNSt3__118__sfinae_ctor_baseILb0ELb0EEE",
   "size" : 4,
   "source_file" : "/external/libcxx/include/__tuple"
  },
  {
   "alignment" : 4,
   "linker_set_key" : "_ZTIPNSt3__118__sfinae_ctor_baseILb0ELb1EEE",
   "name" : "std::__sfinae_ctor_base<false, true> *",
   "referenced_type" : "_ZTINSt3__118__sfinae_ctor_baseILb0ELb1EEE",
   "self_type" : "_ZTIPNSt3__118__sfinae_ctor_baseILb0ELb1EEE",
   "size" : 4,
   "source_file" : "/external/libcxx/include/__tuple"
  },
  {
   "alignment" : 4,
   "linker_set_key" : "_ZTIPNSt3__118__sfinae_ctor_baseILb1ELb0EEE",
   "name" : "std::__sfinae_ctor_base<true, false> *",
   "referenced_type" : "_ZTINSt3__118__sfinae_ctor_baseILb1ELb0EEE",
   "self_type" : "_ZTIPNSt3__118__sfinae_ctor_baseILb1ELb0EEE",
   "size" : 4,
   "source_file" : "/external/libcxx/include/__tuple"
  },
  {
   "alignment" : 4,
   "linker_set_key" : "_ZTIPNSt3__118condition_variableE",
   "name" : "std::condition_variable *",
   "referenced_type" : "_ZTINSt3__118condition_variableE",
   "self_type" : "_ZTIPNSt3__118condition_variableE",
   "size" : 4,
   "source_file" : "/external/libcxx/include/__mutex_base"
  },
  {
   "alignment" : 4,
   "linker_set_key" : "_ZTIPNSt3__119__libcpp_debug_infoE",
   "name" : "std::__libcpp_debug_info *",
   "referenced_type" : "_ZTINSt3__119__libcpp_debug_infoE",
   "self_type" : "_ZTIPNSt3__119__libcpp_debug_infoE",
   "size" : 4,
   "source_file" : "/external/libcxx/include/__debug"
  },
  {
   "alignment" : 4,
   "linker_set_key" : "_ZTIPNSt3__119__shared_weak_countE",
   "name" : "std::__shared_weak_count *",
   "referenced_type" : "_ZTINSt3__119__shared_weak_countE",
   "self_type" : "_ZTIPNSt3__119__shared_weak_countE",
   "size" : 4,
   "source_file" : "/external/libcxx/include/memory"
  },
  {
   "alignment" : 4,
   "linker_set_key" : "_ZTIPNSt3__119basic_ostringstreamIcNS_11char_traitsIcEENS_9allocatorIcEEEE",
   "name" : "std::basic_ostringstream<char, std::char_traits<char>, std::allocator<char> > *",
   "referenced_type" : "_ZTINSt3__119basic_ostringstreamIcNS_11char_traitsIcEENS_9allocatorIcEEEE",
   "self_type" : "_ZTIPNSt3__119basic_ostringstreamIcNS_11char_traitsIcEENS_9allocatorIcEEEE",
   "size" : 4,
   "source_file" : "/external/libcxx/include/sstream"
  },
  {
   "alignment" : 4,
   "linker_set_key" : "_ZTIPNSt3__119ostreambuf_iteratorIcNS_11char_traitsIcEEEE",
   "name" : "std::ostreambuf_iterator<char, std::char_traits<char> > *",
   "referenced_type" : "_ZTINSt3__119ostreambuf_iteratorIcNS_11char_traitsIcEEEE",
   "self_type" : "_ZTIPNSt3__119ostreambuf_iteratorIcNS_11char_traitsIcEEEE",
   "size" : 4,
   "source_file" : "/external/libcxx/include/iterator"
  },
  {
   "alignment" : 4,
   "linker_set_key" : "_ZTIPNSt3__120__sfinae_assign_baseILb0ELb0EEE",
   "name" : "std::__sfinae_assign_base<false, false> *",
   "referenced_type" : "_ZTINSt3__120__sfinae_assign_baseILb0ELb0EEE",
   "self_type" : "_ZTIPNSt3__120__sfinae_assign_baseILb0ELb0EEE",
   "size" : 4,
   "source_file" : "/external/libcxx/include/__tuple"
  },
  {
   "alignment" : 4,
   "linker_set_key" : "_ZTIPNSt3__120__sfinae_assign_baseILb0ELb1EEE",
   "name" : "std::__sfinae_assign_base<false, true> *",
   "referenced_type" : "_ZTINSt3__120__sfinae_assign_baseILb0ELb1EEE",
   "self_type" : "_ZTIPNSt3__120__sfinae_assign_baseILb0ELb1EEE",
   "size" : 4,
   "source_file" : "/external/libcxx/include/__tuple"
  },
  {
   "alignment" : 4,
   "linker_set_key" : "_ZTIPNSt3__120__sfinae_assign_baseILb1ELb0EEE",
   "name" : "std::__sfinae_assign_base<true, false> *",
   "referenced_type" : "_ZTINSt3__120__sfinae_assign_baseILb1ELb0EEE",
   "self_type" : "_ZTIPNSt3__120__sfinae_assign_baseILb1ELb0EEE",
   "size" : 4,
   "source_file" : "/external/libcxx/include/__tuple"
  },
  {
   "alignment" : 4,
   "linker_set_key" : "_ZTIPNSt3__121__bit_const_referenceINS_8__bitsetILj0ELj0EEEEE",
   "name" : "std::__bit_const_reference<std::__bitset<0, 0> > *",
   "referenced_type" : "_ZTINSt3__121__bit_const_referenceINS_8__bitsetILj0ELj0EEEEE",
   "self_type" : "_ZTIPNSt3__121__bit_const_referenceINS_8__bitsetILj0ELj0EEEEE",
   "size" : 4,
   "source_file" : "/external/libcxx/include/__bit_reference"
  },
  {
   "alignment" : 4,
   "linker_set_key" : "_ZTIPNSt3__121__libcpp_locale_guardE",
   "name" : "std::__libcpp_locale_guard *",
   "referenced_type" : "_ZTINSt3__121__libcpp_locale_guardE",
   "self_type" : "_ZTIPNSt3__121__libcpp_locale_guardE",
   "size" : 4,
   "source_file" : "/external/libcxx/include/__locale"
  },
  {
   "alignment" : 4,
   "linker_set_key" : "_ZTIPNSt3__121__murmur2_or_cityhashIjLj32EEE",
   "name" : "std::__murmur2_or_cityhash<unsigned int, 32> *",
   "referenced_type" : "_ZTINSt3__121__murmur2_or_cityhashIjLj32EEE",
   "self_type" : "_ZTIPNSt3__121__murmur2_or_cityhashIjLj32EEE",
   "size" : 4,
   "source_file" : "/external/libcxx/include/utility"
  },
  {
   "alignment" : 4,
   "linker_set_key" : "_ZTIPNSt3__122__compressed_pair_elemINS_12basic_stringIDiNS_11char_traitsIDiEENS_9allocatorIDiEEE5__repELi0ELb0EEE",
   "name" : "std::__compressed_pair_elem<std::basic_string<char32_t, char_traits<char32_t>, allocator<char32_t> >::__rep, 0, false> *",
   "referenced_type" : "_ZTINSt3__122__compressed_pair_elemINS_12basic_stringIDiNS_11char_traitsIDiEENS_9allocatorIDiEEE5__repELi0ELb0EEE",
   "self_type" : "_ZTIPNSt3__122__compressed_pair_elemINS_12basic_stringIDiNS_11char_traitsIDiEENS_9allocatorIDiEEE5__repELi0ELb0EEE",
   "size" : 4,
   "source_file" : "/external/libcxx/include/type_traits"
  },
  {
   "alignment" : 4,
   "linker_set_key" : "_ZTIPNSt3__122__compressed_pair_elemINS_12basic_stringIDsNS_11char_traitsIDsEENS_9allocatorIDsEEE5__repELi0ELb0EEE",
   "name" : "std::__compressed_pair_elem<std::basic_string<char16_t, char_traits<char16_t>, allocator<char16_t> >::__rep, 0, false> *",
   "referenced_type" : "_ZTINSt3__122__compressed_pair_elemINS_12basic_stringIDsNS_11char_traitsIDsEENS_9allocatorIDsEEE5__repELi0ELb0EEE",
   "self_type" : "_ZTIPNSt3__122__compressed_pair_elemINS_12basic_stringIDsNS_11char_traitsIDsEENS_9allocatorIDsEEE5__repELi0ELb0EEE",
   "size" : 4,
   "source_file" : "/external/libcxx/include/type_traits"
  },
  {
   "alignment" : 4,
   "linker_set_key" : "_ZTIPNSt3__122__compressed_pair_elemINS_12basic_stringIcNS_11char_traitsIcEENS_9allocatorIcEEE5__repELi0ELb0EEE",
   "name" : "std::__compressed_pair_elem<std::basic_string<char>::__rep, 0, false> *",
   "referenced_type" : "_ZTINSt3__122__compressed_pair_elemINS_12basic_stringIcNS_11char_traitsIcEENS_9allocatorIcEEE5__repELi0ELb0EEE",
   "self_type" : "_ZTIPNSt3__122__compressed_pair_elemINS_12basic_stringIcNS_11char_traitsIcEENS_9allocatorIcEEE5__repELi0ELb0EEE",
   "size" : 4,
   "source_file" : "/external/libcxx/include/type_traits"
  },
  {
   "alignment" : 4,
   "linker_set_key" : "_ZTIPNSt3__122__compressed_pair_elemINS_12basic_stringIwNS_11char_traitsIwEENS_9allocatorIwEEE5__repELi0ELb0EEE",
   "name" : "std::__compressed_pair_elem<std::basic_string<wchar_t>::__rep, 0, false> *",
   "referenced_type" : "_ZTINSt3__122__compressed_pair_elemINS_12basic_stringIwNS_11char_traitsIwEENS_9allocatorIwEEE5__repELi0ELb0EEE",
   "self_type" : "_ZTIPNSt3__122__compressed_pair_elemINS_12basic_stringIwNS_11char_traitsIwEENS_9allocatorIwEEE5__repELi0ELb0EEE",
   "size" : 4,
   "source_file" : "/external/libcxx/include/type_traits"
  },
  {
   "alignment" : 4,
   "linker_set_key" : "_ZTIPNSt3__122__compressed_pair_elemINS_9allocatorIDiEELi1ELb1EEE",
   "name" : "std::__compressed_pair_elem<std::allocator<char32_t>, 1, true> *",
   "referenced_type" : "_ZTINSt3__122__compressed_pair_elemINS_9allocatorIDiEELi1ELb1EEE",
   "self_type" : "_ZTIPNSt3__122__compressed_pair_elemINS_9allocatorIDiEELi1ELb1EEE",
   "size" : 4,
   "source_file" : "/external/libcxx/include/type_traits"
  },
  {
   "alignment" : 4,
   "linker_set_key" : "_ZTIPNSt3__122__compressed_pair_elemINS_9allocatorIDsEELi1ELb1EEE",
   "name" : "std::__compressed_pair_elem<std::allocator<char16_t>, 1, true> *",
   "referenced_type" : "_ZTINSt3__122__compressed_pair_elemINS_9allocatorIDsEELi1ELb1EEE",
   "self_type" : "_ZTIPNSt3__122__compressed_pair_elemINS_9allocatorIDsEELi1ELb1EEE",
   "size" : 4,
   "source_file" : "/external/libcxx/include/type_traits"
  },
  {
   "alignment" : 4,
   "linker_set_key" : "_ZTIPNSt3__122__compressed_pair_elemINS_9allocatorIN7android8hardware17GrantorDescriptorEEELi1ELb1EEE",
   "name" : "std::__compressed_pair_elem<std::allocator<android::hardware::GrantorDescriptor>, 1, true> *",
   "referenced_type" : "_ZTINSt3__122__compressed_pair_elemINS_9allocatorIN7android8hardware17GrantorDescriptorEEELi1ELb1EEE",
   "self_type" : "_ZTIPNSt3__122__compressed_pair_elemINS_9allocatorIN7android8hardware17GrantorDescriptorEEELi1ELb1EEE",
   "size" : 4,
   "source_file" : "/external/libcxx/include/memory"
  },
  {
   "alignment" : 4,
   "linker_set_key" : "_ZTIPNSt3__122__compressed_pair_elemINS_9allocatorINS_8functionIFvN7android8hardware7details16HidlInstrumentor20InstrumentationEventEPKcS9_S9_S9_PNS_6vectorIPvNS1_ISB_EEEEEEEEELi1ELb1EEE",
   "name" : "std::__compressed_pair_elem<std::allocator<std::function<void (InstrumentationEvent, const char *, const char *, const char *, const char *, vector<void *, allocator<void *> > *)> >, 1, true> *",
   "referenced_type" : "_ZTINSt3__122__compressed_pair_elemINS_9allocatorINS_8functionIFvN7android8hardware7details16HidlInstrumentor20InstrumentationEventEPKcS9_S9_S9_PNS_6vectorIPvNS1_ISB_EEEEEEEEELi1ELb1EEE",
   "self_type" : "_ZTIPNSt3__122__compressed_pair_elemINS_9allocatorINS_8functionIFvN7android8hardware7details16HidlInstrumentor20InstrumentationEventEPKcS9_S9_S9_PNS_6vectorIPvNS1_ISB_EEEEEEEEELi1ELb1EEE",
   "size" : 4,
   "source_file" : "/external/libcxx/include/memory"
  },
  {
   "alignment" : 4,
   "linker_set_key" : "_ZTIPNSt3__122__compressed_pair_elemINS_9allocatorIcEELi1ELb1EEE",
   "name" : "std::__compressed_pair_elem<std::allocator<char>, 1, true> *",
   "referenced_type" : "_ZTINSt3__122__compressed_pair_elemINS_9allocatorIcEELi1ELb1EEE",
   "self_type" : "_ZTIPNSt3__122__compressed_pair_elemINS_9allocatorIcEELi1ELb1EEE",
   "size" : 4,
   "source_file" : "/external/libcxx/include/type_traits"
  },
  {
   "alignment" : 4,
   "linker_set_key" : "_ZTIPNSt3__122__compressed_pair_elemINS_9allocatorIwEELi1ELb1EEE",
   "name" : "std::__compressed_pair_elem<std::allocator<wchar_t>, 1, true> *",
   "referenced_type" : "_ZTINSt3__122__compressed_pair_elemINS_9allocatorIwEELi1ELb1EEE",
   "self_type" : "_ZTIPNSt3__122__compressed_pair_elemINS_9allocatorIwEELi1ELb1EEE",
   "size" : 4,
   "source_file" : "/external/libcxx/include/type_traits"
  },
  {
   "alignment" : 4,
   "linker_set_key" : "_ZTIPNSt3__122__compressed_pair_elemIPFvPvELi1ELb0EEE",
   "name" : "std::__compressed_pair_elem<void (*)(void *), 1, false> *",
   "referenced_type" : "_ZTINSt3__122__compressed_pair_elemIPFvPvELi1ELb0EEE",
   "self_type" : "_ZTIPNSt3__122__compressed_pair_elemIPFvPvELi1ELb0EEE",
   "size" : 4,
   "source_file" : "/external/libcxx/include/type_traits"
  },
  {
   "alignment" : 4,
   "linker_set_key" : "_ZTIPNSt3__122__compressed_pair_elemIPcLi0ELb0EEE",
   "name" : "std::__compressed_pair_elem<char *, 0, false> *",
   "referenced_type" : "_ZTINSt3__122__compressed_pair_elemIPcLi0ELb0EEE",
   "self_type" : "_ZTIPNSt3__122__compressed_pair_elemIPcLi0ELb0EEE",
   "size" : 4,
   "source_file" : "/external/libcxx/include/type_traits"
  },
  {
   "alignment" : 4,
   "linker_set_key" : "_ZTIPNSt3__122__compressed_pair_elemIPhLi0ELb0EEE",
   "name" : "std::__compressed_pair_elem<unsigned char *, 0, false> *",
   "referenced_type" : "_ZTINSt3__122__compressed_pair_elemIPhLi0ELb0EEE",
   "self_type" : "_ZTIPNSt3__122__compressed_pair_elemIPhLi0ELb0EEE",
   "size" : 4,
   "source_file" : "/external/libcxx/include/type_traits"
  },
  {
   "alignment" : 4,
   "linker_set_key" : "_ZTIPNSt3__122__compressed_pair_elemIPjLi0ELb0EEE",
   "name" : "std::__compressed_pair_elem<unsigned int *, 0, false> *",
   "referenced_type" : "_ZTINSt3__122__compressed_pair_elemIPjLi0ELb0EEE",
   "self_type" : "_ZTIPNSt3__122__compressed_pair_elemIPjLi0ELb0EEE",
   "size" : 4,
   "source_file" : "/external/libcxx/include/type_traits"
  },
  {
   "alignment" : 4,
   "linker_set_key" : "_ZTIPNSt3__14fposI9mbstate_tEE",
   "name" : "std::fpos<mbstate_t> *",
   "referenced_type" : "_ZTINSt3__14fposI9mbstate_tEE",
   "self_type" : "_ZTIPNSt3__14fposI9mbstate_tEE",
   "size" : 4,
   "source_file" : "/external/libcxx/include/string"
  },
  {
   "alignment" : 4,
   "linker_set_key" : "_ZTIPNSt3__15ctypeIwEE",
   "name" : "std::ctype<wchar_t> *",
   "referenced_type" : "_ZTINSt3__15ctypeIwEE",
   "self_type" : "_ZTIPNSt3__15ctypeIwEE",
   "size" : 4,
   "source_file" : "/external/libcxx/include/__locale"
  },
  {
   "alignment" : 4,
   "linker_set_key" : "_ZTIPNSt3__15mutexE",
   "name" : "std::mutex *",
   "referenced_type" : "_ZTINSt3__15mutexE",
   "self_type" : "_ZTIPNSt3__15mutexE",
   "size" : 4,
   "source_file" : "/external/libcxx/include/__mutex_base"
  },
  {
   "alignment" : 4,
   "linker_set_key" : "_ZTIPNSt3__15tupleIJEEE",
   "name" : "std::tuple<> *",
   "referenced_type" : "_ZTINSt3__15tupleIJEEE",
   "self_type" : "_ZTIPNSt3__15tupleIJEEE",
   "size" : 4,
   "source_file" : "/external/libcxx/include/tuple"
  },
  {
   "alignment" : 4,
   "linker_set_key" : "_ZTIPNSt3__16atomicIiEE",
   "name" : "std::atomic<int> *",
   "referenced_type" : "_ZTINSt3__16atomicIiEE",
   "self_type" : "_ZTIPNSt3__16atomicIiEE",
   "size" : 4,
   "source_file" : "/external/libcxx/include/atomic"
  },
  {
   "alignment" : 4,
   "linker_set_key" : "_ZTIPNSt3__16atomicIjEE",
   "name" : "std::atomic<unsigned int> *",
   "referenced_type" : "_ZTINSt3__16atomicIjEE",
   "self_type" : "_ZTIPNSt3__16atomicIjEE",
   "size" : 4,
   "source_file" : "/external/libcxx/include/atomic"
  },
  {
   "alignment" : 4,
   "linker_set_key" : "_ZTIPNSt3__16chrono10time_pointINS0_12system_clockENS0_8durationIeNS_5ratioILx1ELx1000000000EEEEEEE",
   "name" : "std::chrono::time_point<std::chrono::system_clock, std::chrono::duration<long double, std::ratio<1, 1000000000> > > *",
   "referenced_type" : "_ZTINSt3__16chrono10time_pointINS0_12system_clockENS0_8durationIeNS_5ratioILx1ELx1000000000EEEEEEE",
   "self_type" : "_ZTIPNSt3__16chrono10time_pointINS0_12system_clockENS0_8durationIeNS_5ratioILx1ELx1000000000EEEEEEE",
   "size" : 4,
   "source_file" : "/external/libcxx/include/chrono"
  },
  {
   "alignment" : 4,
   "linker_set_key" : "_ZTIPNSt3__16chrono10time_pointINS0_12system_clockENS0_8durationIxNS_5ratioILx1ELx1000000000EEEEEEE",
   "name" : "std::chrono::time_point<std::chrono::system_clock, std::chrono::duration<long long, std::ratio<1, 1000000000> > > *",
   "referenced_type" : "_ZTINSt3__16chrono10time_pointINS0_12system_clockENS0_8durationIxNS_5ratioILx1ELx1000000000EEEEEEE",
   "self_type" : "_ZTIPNSt3__16chrono10time_pointINS0_12system_clockENS0_8durationIxNS_5ratioILx1ELx1000000000EEEEEEE",
   "size" : 4,
   "source_file" : "/external/libcxx/include/chrono"
  },
  {
   "alignment" : 4,
   "linker_set_key" : "_ZTIPNSt3__16chrono10time_pointINS_4__fs10filesystem16_FilesystemClockENS0_8durationIxNS_5ratioILx1ELx1000000000EEEEEEE",
   "name" : "std::chrono::time_point<std::filesystem::_FilesystemClock, std::chrono::duration<long long, std::ratio<1, 1000000000> > > *",
   "referenced_type" : "_ZTINSt3__16chrono10time_pointINS_4__fs10filesystem16_FilesystemClockENS0_8durationIxNS_5ratioILx1ELx1000000000EEEEEEE",
   "self_type" : "_ZTIPNSt3__16chrono10time_pointINS_4__fs10filesystem16_FilesystemClockENS0_8durationIxNS_5ratioILx1ELx1000000000EEEEEEE",
   "size" : 4,
   "source_file" : "/external/libcxx/include/chrono"
  },
  {
   "alignment" : 4,
   "linker_set_key" : "_ZTIPNSt3__16chrono8durationIeNS_5ratioILx1ELx1000000000EEEEE",
   "name" : "std::chrono::duration<long double, std::ratio<1, 1000000000> > *",
   "referenced_type" : "_ZTINSt3__16chrono8durationIeNS_5ratioILx1ELx1000000000EEEEE",
   "self_type" : "_ZTIPNSt3__16chrono8durationIeNS_5ratioILx1ELx1000000000EEEEE",
   "size" : 4,
   "source_file" : "/external/libcxx/include/chrono"
  },
  {
   "alignment" : 4,
   "linker_set_key" : "_ZTIPNSt3__16chrono8durationIeNS_5ratioILx1ELx1000000EEEEE",
   "name" : "std::chrono::duration<long double, std::ratio<1, 1000000> > *",
   "referenced_type" : "_ZTINSt3__16chrono8durationIeNS_5ratioILx1ELx1000000EEEEE",
   "self_type" : "_ZTIPNSt3__16chrono8durationIeNS_5ratioILx1ELx1000000EEEEE",
   "size" : 4,
   "source_file" : "/external/libcxx/include/chrono"
  },
  {
   "alignment" : 4,
   "linker_set_key" : "_ZTIPNSt3__16chrono8durationIeNS_5ratioILx1ELx1000EEEEE",
   "name" : "std::chrono::duration<long double, std::ratio<1, 1000> > *",
   "referenced_type" : "_ZTINSt3__16chrono8durationIeNS_5ratioILx1ELx1000EEEEE",
   "self_type" : "_ZTIPNSt3__16chrono8durationIeNS_5ratioILx1ELx1000EEEEE",
   "size" : 4,
   "source_file" : "/external/libcxx/include/chrono"
  },
  {
   "alignment" : 4,
   "linker_set_key" : "_ZTIPNSt3__16chrono8durationIeNS_5ratioILx1ELx1EEEEE",
   "name" : "std::chrono::duration<long double, std::ratio<1, 1> > *",
   "referenced_type" : "_ZTINSt3__16chrono8durationIeNS_5ratioILx1ELx1EEEEE",
   "self_type" : "_ZTIPNSt3__16chrono8durationIeNS_5ratioILx1ELx1EEEEE",
   "size" : 4,
   "source_file" : "/external/libcxx/include/chrono"
  },
  {
   "alignment" : 4,
   "linker_set_key" : "_ZTIPNSt3__16chrono8durationIeNS_5ratioILx3600ELx1EEEEE",
   "name" : "std::chrono::duration<long double, std::ratio<3600, 1> > *",
   "referenced_type" : "_ZTINSt3__16chrono8durationIeNS_5ratioILx3600ELx1EEEEE",
   "self_type" : "_ZTIPNSt3__16chrono8durationIeNS_5ratioILx3600ELx1EEEEE",
   "size" : 4,
   "source_file" : "/external/libcxx/include/chrono"
  },
  {
   "alignment" : 4,
   "linker_set_key" : "_ZTIPNSt3__16chrono8durationIeNS_5ratioILx60ELx1EEEEE",
   "name" : "std::chrono::duration<long double, std::ratio<60, 1> > *",
   "referenced_type" : "_ZTINSt3__16chrono8durationIeNS_5ratioILx60ELx1EEEEE",
   "self_type" : "_ZTIPNSt3__16chrono8durationIeNS_5ratioILx60ELx1EEEEE",
   "size" : 4,
   "source_file" : "/external/libcxx/include/chrono"
  },
  {
   "alignment" : 4,
   "linker_set_key" : "_ZTIPNSt3__16chrono8durationIlNS_5ratioILx3600ELx1EEEEE",
   "name" : "std::chrono::duration<long, std::ratio<3600, 1> > *",
   "referenced_type" : "_ZTINSt3__16chrono8durationIlNS_5ratioILx3600ELx1EEEEE",
   "self_type" : "_ZTIPNSt3__16chrono8durationIlNS_5ratioILx3600ELx1EEEEE",
   "size" : 4,
   "source_file" : "/external/libcxx/include/chrono"
  },
  {
   "alignment" : 4,
   "linker_set_key" : "_ZTIPNSt3__16chrono8durationIlNS_5ratioILx60ELx1EEEEE",
   "name" : "std::chrono::duration<long, std::ratio<60, 1> > *",
   "referenced_type" : "_ZTINSt3__16chrono8durationIlNS_5ratioILx60ELx1EEEEE",
   "self_type" : "_ZTIPNSt3__16chrono8durationIlNS_5ratioILx60ELx1EEEEE",
   "size" : 4,
   "source_file" : "/external/libcxx/include/chrono"
  },
  {
   "alignment" : 4,
   "linker_set_key" : "_ZTIPNSt3__16chrono8durationIxNS_5ratioILx1ELx1000000000EEEEE",
   "name" : "std::chrono::duration<long long, std::ratio<1, 1000000000> > *",
   "referenced_type" : "_ZTINSt3__16chrono8durationIxNS_5ratioILx1ELx1000000000EEEEE",
   "self_type" : "_ZTIPNSt3__16chrono8durationIxNS_5ratioILx1ELx1000000000EEEEE",
   "size" : 4,
   "source_file" : "/external/libcxx/include/chrono"
  },
  {
   "alignment" : 4,
   "linker_set_key" : "_ZTIPNSt3__16chrono8durationIxNS_5ratioILx1ELx1000000EEEEE",
   "name" : "std::chrono::duration<long long, std::ratio<1, 1000000> > *",
   "referenced_type" : "_ZTINSt3__16chrono8durationIxNS_5ratioILx1ELx1000000EEEEE",
   "self_type" : "_ZTIPNSt3__16chrono8durationIxNS_5ratioILx1ELx1000000EEEEE",
   "size" : 4,
   "source_file" : "/external/libcxx/include/chrono"
  },
  {
   "alignment" : 4,
   "linker_set_key" : "_ZTIPNSt3__16chrono8durationIxNS_5ratioILx1ELx1000EEEEE",
   "name" : "std::chrono::duration<long long, std::ratio<1, 1000> > *",
   "referenced_type" : "_ZTINSt3__16chrono8durationIxNS_5ratioILx1ELx1000EEEEE",
   "self_type" : "_ZTIPNSt3__16chrono8durationIxNS_5ratioILx1ELx1000EEEEE",
   "size" : 4,
   "source_file" : "/external/libcxx/include/chrono"
  },
  {
   "alignment" : 4,
   "linker_set_key" : "_ZTIPNSt3__16chrono8durationIxNS_5ratioILx1ELx1EEEEE",
   "name" : "std::chrono::duration<long long, std::ratio<1, 1> > *",
   "referenced_type" : "_ZTINSt3__16chrono8durationIxNS_5ratioILx1ELx1EEEEE",
   "self_type" : "_ZTIPNSt3__16chrono8durationIxNS_5ratioILx1ELx1EEEEE",
   "size" : 4,
   "source_file" : "/external/libcxx/include/chrono"
  },
  {
   "alignment" : 4,
   "linker_set_key" : "_ZTIPNSt3__16locale2idE",
   "name" : "std::locale::id *",
   "referenced_type" : "_ZTINSt3__16locale2idE",
   "self_type" : "_ZTIPNSt3__16locale2idE",
   "size" : 4,
   "source_file" : "/external/libcxx/include/__locale"
  },
  {
   "alignment" : 4,
   "linker_set_key" : "_ZTIPNSt3__16locale5__impE",
   "name" : "std::locale::__imp *",
   "referenced_type" : "_ZTINSt3__16locale5__impE",
   "self_type" : "_ZTIPNSt3__16locale5__impE",
   "size" : 4,
   "source_file" : "/external/libcxx/include/__locale"
  },
  {
   "alignment" : 4,
   "linker_set_key" : "_ZTIPNSt3__16locale5facetE",
   "name" : "std::locale::facet *",
   "referenced_type" : "_ZTINSt3__16locale5facetE",
   "self_type" : "_ZTIPNSt3__16locale5facetE",
   "size" : 4,
   "source_file" : "/external/libcxx/include/__locale"
  },
  {
   "alignment" : 4,
   "linker_set_key" : "_ZTIPNSt3__17codecvtIDic9mbstate_tEE",
   "name" : "std::codecvt<char32_t, char, mbstate_t> *",
   "referenced_type" : "_ZTINSt3__17codecvtIDic9mbstate_tEE",
   "self_type" : "_ZTIPNSt3__17codecvtIDic9mbstate_tEE",
   "size" : 4,
   "source_file" : "/external/libcxx/include/__locale"
  },
  {
   "alignment" : 4,
   "linker_set_key" : "_ZTIPNSt3__17codecvtIDsc9mbstate_tEE",
   "name" : "std::codecvt<char16_t, char, mbstate_t> *",
   "referenced_type" : "_ZTINSt3__17codecvtIDsc9mbstate_tEE",
   "self_type" : "_ZTIPNSt3__17codecvtIDsc9mbstate_tEE",
   "size" : 4,
   "source_file" : "/external/libcxx/include/__locale"
  },
  {
   "alignment" : 4,
   "linker_set_key" : "_ZTIPNSt3__17codecvtIcc9mbstate_tEE",
   "name" : "std::codecvt<char, char, mbstate_t> *",
   "referenced_type" : "_ZTINSt3__17codecvtIcc9mbstate_tEE",
   "self_type" : "_ZTIPNSt3__17codecvtIcc9mbstate_tEE",
   "size" : 4,
   "source_file" : "/external/libcxx/include/__locale"
  },
  {
   "alignment" : 4,
   "linker_set_key" : "_ZTIPNSt3__18__bitsetILj0ELj0EEE",
   "name" : "std::__bitset<0, 0> *",
   "referenced_type" : "_ZTINSt3__18__bitsetILj0ELj0EEE",
   "self_type" : "_ZTIPNSt3__18__bitsetILj0ELj0EEE",
   "size" : 4,
   "source_file" : "/external/libcxx/include/bitset"
  },
  {
   "alignment" : 4,
   "linker_set_key" : "_ZTIPNSt3__18functionIFvN7android8hardware7details16HidlInstrumentor20InstrumentationEventEPKcS7_S7_S7_PNS_6vectorIPvNS_9allocatorIS9_EEEEEEE",
   "name" : "std::function<void (InstrumentationEvent, const char *, const char *, const char *, const char *, vector<void *, allocator<void *> > *)> *",
   "referenced_type" : "_ZTINSt3__18functionIFvN7android8hardware7details16HidlInstrumentor20InstrumentationEventEPKcS7_S7_S7_PNS_6vectorIPvNS_9allocatorIS9_EEEEEEE",
   "self_type" : "_ZTIPNSt3__18functionIFvN7android8hardware7details16HidlInstrumentor20InstrumentationEventEPKcS7_S7_S7_PNS_6vectorIPvNS_9allocatorIS9_EEEEEEE",
   "size" : 4,
   "source_file" : "/external/libcxx/include/type_traits"
  },
  {
   "alignment" : 4,
   "linker_set_key" : "_ZTIPNSt3__18ios_baseE",
   "name" : "std::ios_base *",
   "referenced_type" : "_ZTINSt3__18ios_baseE",
   "self_type" : "_ZTIPNSt3__18ios_baseE",
   "size" : 4,
   "source_file" : "/external/libcxx/include/ios"
  },
  {
   "alignment" : 4,
   "linker_set_key" : "_ZTIPNSt3__19allocatorIDiEE",
   "name" : "std::allocator<char32_t> *",
   "referenced_type" : "_ZTINSt3__19allocatorIDiEE",
   "self_type" : "_ZTIPNSt3__19allocatorIDiEE",
   "size" : 4,
   "source_file" : "/external/libcxx/include/memory"
  },
  {
   "alignment" : 4,
   "linker_set_key" : "_ZTIPNSt3__19allocatorIDsEE",
   "name" : "std::allocator<char16_t> *",
   "referenced_type" : "_ZTINSt3__19allocatorIDsEE",
   "self_type" : "_ZTIPNSt3__19allocatorIDsEE",
   "size" : 4,
   "source_file" : "/external/libcxx/include/memory"
  },
  {
   "alignment" : 4,
   "linker_set_key" : "_ZTIPNSt3__19allocatorIcEE",
   "name" : "std::allocator<char> *",
   "referenced_type" : "_ZTINSt3__19allocatorIcEE",
   "self_type" : "_ZTIPNSt3__19allocatorIcEE",
   "size" : 4,
   "source_file" : "/external/libcxx/include/memory"
  },
  {
   "alignment" : 4,
   "linker_set_key" : "_ZTIPNSt3__19allocatorIwEE",
   "name" : "std::allocator<wchar_t> *",
   "referenced_type" : "_ZTINSt3__19allocatorIwEE",
   "self_type" : "_ZTIPNSt3__19allocatorIwEE",
   "size" : 4,
   "source_file" : "/external/libcxx/include/memory"
  },
  {
   "alignment" : 4,
   "linker_set_key" : "_ZTIPNSt3__19basic_iosIcNS_11char_traitsIcEEEE",
   "name" : "std::basic_ios<char, std::char_traits<char> > *",
   "referenced_type" : "_ZTINSt3__19basic_iosIcNS_11char_traitsIcEEEE",
   "self_type" : "_ZTIPNSt3__19basic_iosIcNS_11char_traitsIcEEEE",
   "size" : 4,
   "source_file" : "/external/libcxx/include/ios"
  },
  {
   "alignment" : 4,
   "linker_set_key" : "_ZTIPNSt3__19nullopt_t12__secret_tagE",
   "name" : "std::nullopt_t::__secret_tag *",
   "referenced_type" : "_ZTINSt3__19nullopt_t12__secret_tagE",
   "self_type" : "_ZTIPNSt3__19nullopt_t12__secret_tagE",
   "size" : 4,
   "source_file" : "/external/libcxx/include/optional"
  },
  {
   "alignment" : 4,
   "linker_set_key" : "_ZTIPNSt3__19nullopt_tE",
   "name" : "std::nullopt_t *",
   "referenced_type" : "_ZTINSt3__19nullopt_tE",
   "self_type" : "_ZTIPNSt3__19nullopt_tE",
   "size" : 4,
   "source_file" : "/external/libcxx/include/optional"
  },
  {
   "alignment" : 4,
   "linker_set_key" : "_ZTIPNSt3__19once_flagE",
   "name" : "std::once_flag *",
   "referenced_type" : "_ZTINSt3__19once_flagE",
   "self_type" : "_ZTIPNSt3__19once_flagE",
   "size" : 4,
   "source_file" : "/external/libcxx/include/mutex"
  },
  {
   "alignment" : 4,
   "linker_set_key" : "_ZTIPPFvNSt3__18ios_base5eventERS0_iE",
   "name" : "void (**)(std::__1::ios_base::event, std::__1::ios_base &, int)",
   "referenced_type" : "_ZTIPFvNSt3__18ios_base5eventERS0_iE",
   "self_type" : "_ZTIPPFvNSt3__18ios_base5eventERS0_iE",
   "size" : 4,
   "source_file" : "/external/libcxx/include/ios"
  },
  {
   "alignment" : 4,
   "linker_set_key" : "_ZTIPPKc",
   "name" : "const char **",
   "referenced_type" : "_ZTIPKc",
   "self_type" : "_ZTIPPKc",
   "size" : 4,
   "source_file" : "/external/libcxx/include/__bsd_locale_fallbacks.h"
  },
  {
   "alignment" : 4,
   "linker_set_key" : "_ZTIPPKw",
   "name" : "const wchar_t **",
   "referenced_type" : "_ZTIPKw",
   "self_type" : "_ZTIPPKw",
   "size" : 4,
   "source_file" : "/external/libcxx/include/__bsd_locale_fallbacks.h"
  },
  {
   "alignment" : 4,
   "linker_set_key" : "_ZTIPPc",
   "name" : "char **",
   "referenced_type" : "_ZTIPc",
   "self_type" : "_ZTIPPc",
   "size" : 4,
   "source_file" : "/external/libcxx/include/__bsd_locale_fallbacks.h"
  },
  {
   "alignment" : 4,
   "linker_set_key" : "_ZTIPPv",
   "name" : "void **",
   "referenced_type" : "_ZTIPv",
   "self_type" : "_ZTIPPv",
   "size" : 4,
   "source_file" : "/external/libcxx/include/ios"
  },
  {
   "alignment" : 4,
   "linker_set_key" : "_ZTIPSt11range_error",
   "name" : "std::range_error *",
   "referenced_type" : "_ZTISt11range_error",
   "self_type" : "_ZTIPSt11range_error",
   "size" : 4,
   "source_file" : "/external/libcxx/include/stdexcept"
  },
  {
   "alignment" : 4,
   "linker_set_key" : "_ZTIPSt12domain_error",
   "name" : "std::domain_error *",
   "referenced_type" : "_ZTISt12domain_error",
   "self_type" : "_ZTIPSt12domain_error",
   "size" : 4,
   "source_file" : "/external/libcxx/include/stdexcept"
  },
  {
   "alignment" : 4,
   "linker_set_key" : "_ZTIPSt12length_error",
   "name" : "std::length_error *",
   "referenced_type" : "_ZTISt12length_error",
   "self_type" : "_ZTIPSt12length_error",
   "size" : 4,
   "source_file" : "/external/libcxx/include/stdexcept"
  },
  {
   "alignment" : 4,
   "linker_set_key" : "_ZTIPSt12out_of_range",
   "name" : "std::out_of_range *",
   "referenced_type" : "_ZTISt12out_of_range",
   "self_type" : "_ZTIPSt12out_of_range",
   "size" : 4,
   "source_file" : "/external/libcxx/include/stdexcept"
  },
  {
   "alignment" : 4,
   "linker_set_key" : "_ZTIPSt13bad_exception",
   "name" : "std::bad_exception *",
   "referenced_type" : "_ZTISt13bad_exception",
   "self_type" : "_ZTIPSt13bad_exception",
   "size" : 4,
   "source_file" : "/external/libcxx/include/exception"
  },
  {
   "alignment" : 4,
   "linker_set_key" : "_ZTIPSt13exception_ptr",
   "name" : "std::exception_ptr *",
   "referenced_type" : "_ZTISt13exception_ptr",
   "self_type" : "_ZTIPSt13exception_ptr",
   "size" : 4,
   "source_file" : "/external/libcxx/include/exception"
  },
  {
   "alignment" : 4,
   "linker_set_key" : "_ZTIPSt14overflow_error",
   "name" : "std::overflow_error *",
   "referenced_type" : "_ZTISt14overflow_error",
   "self_type" : "_ZTIPSt14overflow_error",
   "size" : 4,
   "source_file" : "/external/libcxx/include/stdexcept"
  },
  {
   "alignment" : 4,
   "linker_set_key" : "_ZTIPSt15underflow_error",
   "name" : "std::underflow_error *",
   "referenced_type" : "_ZTISt15underflow_error",
   "self_type" : "_ZTIPSt15underflow_error",
   "size" : 4,
   "source_file" : "/external/libcxx/include/stdexcept"
  },
  {
   "alignment" : 4,
   "linker_set_key" : "_ZTIPSt16invalid_argument",
   "name" : "std::invalid_argument *",
   "referenced_type" : "_ZTISt16invalid_argument",
   "self_type" : "_ZTIPSt16invalid_argument",
   "size" : 4,
   "source_file" : "/external/libcxx/include/stdexcept"
  },
  {
   "alignment" : 4,
   "linker_set_key" : "_ZTIPSt9exception",
   "name" : "std::exception *",
   "referenced_type" : "_ZTISt9exception",
   "self_type" : "_ZTIPSt9exception",
   "size" : 4,
   "source_file" : "/external/libcxx/include/exception"
  },
  {
   "alignment" : 4,
   "linker_set_key" : "_ZTIPSt9type_info",
   "name" : "std::type_info *",
   "referenced_type" : "_ZTISt9type_info",
   "self_type" : "_ZTIPSt9type_info",
   "size" : 4,
   "source_file" : "/external/libcxx/include/typeinfo"
  },
  {
   "alignment" : 4,
   "linker_set_key" : "_ZTIPVNSt3__111atomic_flagE",
   "name" : "volatile std::atomic_flag *",
   "referenced_type" : "_ZTIVNSt3__111atomic_flagE",
   "self_type" : "_ZTIPVNSt3__111atomic_flagE",
   "size" : 4,
   "source_file" : "/external/libcxx/include/atomic"
  },
  {
   "alignment" : 4,
   "linker_set_key" : "_ZTIPc",
   "name" : "char *",
   "referenced_type" : "_ZTIc",
   "self_type" : "_ZTIPc",
   "size" : 4,
   "source_file" : "/external/libcxx/include/type_traits"
  },
  {
   "alignment" : 4,
   "linker_set_key" : "_ZTIPe",
   "name" : "long double *",
   "referenced_type" : "_ZTIe",
   "self_type" : "_ZTIPe",
   "size" : 4,
   "source_file" : "/external/libcxx/include/type_traits"
  },
  {
   "alignment" : 4,
   "linker_set_key" : "_ZTIPh",
   "name" : "unsigned char *",
   "referenced_type" : "_ZTIh",
   "self_type" : "_ZTIPh",
   "size" : 4,
   "source_file" : "/external/libcxx/include/type_traits"
  },
  {
   "alignment" : 4,
   "linker_set_key" : "_ZTIPi",
   "name" : "int *",
   "referenced_type" : "_ZTIi",
   "self_type" : "_ZTIPi",
   "size" : 4,
   "source_file" : "/external/libcxx/include/type_traits"
  },
  {
   "alignment" : 4,
   "linker_set_key" : "_ZTIPj",
   "name" : "unsigned int *",
   "referenced_type" : "_ZTIj",
   "self_type" : "_ZTIPj",
   "size" : 4,
   "source_file" : "/external/libcxx/include/type_traits"
  },
  {
   "alignment" : 4,
   "linker_set_key" : "_ZTIPl",
   "name" : "long *",
   "referenced_type" : "_ZTIl",
   "self_type" : "_ZTIPl",
   "size" : 4,
   "source_file" : "/external/libcxx/include/type_traits"
  },
  {
   "alignment" : 4,
   "linker_set_key" : "_ZTIPm",
   "name" : "unsigned long *",
   "referenced_type" : "_ZTIm",
   "self_type" : "_ZTIPm",
   "size" : 4,
   "source_file" : "/external/libcxx/include/__locale"
  },
  {
   "alignment" : 4,
   "linker_set_key" : "_ZTIPv",
   "name" : "void *",
   "referenced_type" : "_ZTIv",
   "self_type" : "_ZTIPv",
   "size" : 4,
   "source_file" : "/external/libcxx/include/type_traits"
  },
  {
   "alignment" : 4,
   "linker_set_key" : "_ZTIPw",
   "name" : "wchar_t *",
   "referenced_type" : "_ZTIw",
   "self_type" : "_ZTIPw",
   "size" : 4,
   "source_file" : "/external/libcxx/include/type_traits"
  },
  {
   "alignment" : 4,
   "linker_set_key" : "_ZTIPx",
   "name" : "long long *",
   "referenced_type" : "_ZTIx",
   "self_type" : "_ZTIPx",
   "size" : 4,
   "source_file" : "/external/libcxx/include/type_traits"
  }
 ],
 "qualified_types" :
 [
  {
   "alignment" : 1,
   "is_const" : true,
   "linker_set_key" : "_ZTIA10_Kc",
   "name" : "char const[10]",
   "referenced_type" : "_ZTIA10_c",
   "self_type" : "_ZTIA10_Kc",
   "size" : 10,
   "source_file" : "/external/libcxx/include/type_traits"
  },
  {
   "alignment" : 1,
   "is_const" : true,
   "linker_set_key" : "_ZTIA11_Kc",
   "name" : "char const[11]",
   "referenced_type" : "_ZTIA11_c",
   "self_type" : "_ZTIA11_Kc",
   "size" : 11,
   "source_file" : "/external/libcxx/include/type_traits"
  },
  {
   "alignment" : 1,
   "is_const" : true,
   "linker_set_key" : "_ZTIA17_Kc",
   "name" : "char const[17]",
   "referenced_type" : "_ZTIA17_c",
   "self_type" : "_ZTIA17_Kc",
   "size" : 17,
   "source_file" : "/external/libcxx/include/type_traits"
  },
  {
   "alignment" : 1,
   "is_const" : true,
   "linker_set_key" : "_ZTIA2_Kc",
   "name" : "char const[2]",
   "referenced_type" : "_ZTIA2_c",
   "self_type" : "_ZTIA2_Kc",
   "size" : 2,
   "source_file" : "/external/libcxx/include/type_traits"
  },
  {
   "alignment" : 1,
   "is_const" : true,
   "linker_set_key" : "_ZTIA33_Kc",
   "name" : "char const[33]",
   "referenced_type" : "_ZTIA33_c",
   "self_type" : "_ZTIA33_Kc",
   "size" : 33,
   "source_file" : "/external/libcxx/include/locale"
  },
  {
   "alignment" : 1,
   "is_const" : true,
   "linker_set_key" : "_ZTIA3_Kc",
   "name" : "char const[3]",
   "referenced_type" : "_ZTIA3_c",
   "self_type" : "_ZTIA3_Kc",
   "size" : 3,
   "source_file" : "/external/libcxx/include/type_traits"
  },
  {
   "alignment" : 4,
   "is_const" : true,
   "linker_set_key" : "_ZTIA65_KPKc",
   "name" : "const char *const[65]",
   "referenced_type" : "_ZTIA65_PKc",
   "self_type" : "_ZTIA65_KPKc",
   "size" : 260,
   "source_file" : "/out/soong/.intermediates/bionic/libc/libc.llndk/android_vendor.30_arm_armv8-a_shared/gen/include/signal.h"
  },
  {
   "alignment" : 1,
   "is_const" : true,
   "linker_set_key" : "_ZTIA8_Kc",
   "name" : "char const[8]",
   "referenced_type" : "_ZTIA8_c",
   "self_type" : "_ZTIA8_Kc",
   "size" : 8,
   "source_file" : "/external/libcxx/include/type_traits"
  },
  {
   "alignment" : 1,
   "is_const" : true,
   "linker_set_key" : "_ZTIA9_Kc",
   "name" : "char const[9]",
   "referenced_type" : "_ZTIA9_c",
   "self_type" : "_ZTIA9_Kc",
   "size" : 9,
   "source_file" : "/external/libcxx/include/type_traits"
  },
  {
   "alignment" : 4,
   "is_const" : true,
   "linker_set_key" : "_ZTIK13native_handle",
   "name" : "const native_handle",
   "referenced_type" : "_ZTI13native_handle",
   "self_type" : "_ZTIK13native_handle",
   "size" : 12,
   "source_file" : "/external/libcxx/include/type_traits"
  },
  {
   "alignment" : 4,
   "is_const" : true,
   "linker_set_key" : "_ZTIK2tm",
   "name" : "const tm",
   "referenced_type" : "_ZTI2tm",
   "self_type" : "_ZTIK2tm",
   "size" : 44,
   "source_file" : "/out/soong/.intermediates/bionic/libc/libc.llndk/android_vendor.30_arm_armv8-a_shared/gen/include/time.h"
  },
  {
   "alignment" : 4,
   "is_const" : true,
   "linker_set_key" : "_ZTIK7log_msg",
   "name" : "const log_msg",
   "referenced_type" : "_ZTI7log_msg",
   "self_type" : "_ZTIK7log_msg",
   "size" : 5124,
   "source_file" : "/system/core/liblog/include/log/log_read.h"
  },
  {
   "alignment" : 4,
   "is_const" : true,
   "linker_set_key" : "_ZTIKDi",
   "name" : "const char32_t",
   "referenced_type" : "_ZTIDi",
   "self_type" : "_ZTIKDi",
   "size" : 4,
   "source_file" : "/external/libcxx/include/type_traits"
  },
  {
   "alignment" : 2,
   "is_const" : true,
   "linker_set_key" : "_ZTIKDs",
   "name" : "const char16_t",
   "referenced_type" : "_ZTIDs",
   "self_type" : "_ZTIKDs",
   "size" : 2,
   "source_file" : "/external/libcxx/include/type_traits"
  },
  {
   "alignment" : 4,
   "is_const" : true,
   "linker_set_key" : "_ZTIKN7android12NativeHandleE",
   "name" : "const android::NativeHandle",
   "referenced_type" : "_ZTIN7android12NativeHandleE",
   "self_type" : "_ZTIKN7android12NativeHandleE",
   "size" : 12,
   "source_file" : "/system/core/libutils/include/utils/NativeHandle.h"
  },
  {
   "alignment" : 4,
   "is_const" : true,
   "linker_set_key" : "_ZTIKN7android2spINS_4hidl4base4V1_05IBaseEEE",
   "name" : "const android::sp<android::hidl::base::V1_0::IBase>",
   "referenced_type" : "_ZTIN7android2spINS_4hidl4base4V1_05IBaseEEE",
   "self_type" : "_ZTIKN7android2spINS_4hidl4base4V1_05IBaseEEE",
   "size" : 4,
   "source_file" : "/system/core/libutils/include/utils/StrongPointer.h"
  },
  {
   "alignment" : 4,
   "is_const" : true,
   "linker_set_key" : "_ZTIKN7android2spINS_4hidl6memory4V1_07IMapperEEE",
   "name" : "const android::sp<android::hidl::memory::V1_0::IMapper>",
   "referenced_type" : "_ZTIN7android2spINS_4hidl6memory4V1_07IMapperEEE",
   "self_type" : "_ZTIKN7android2spINS_4hidl6memory4V1_07IMapperEEE",
   "size" : 4,
   "source_file" : "/system/core/libutils/include/utils/StrongPointer.h"
  },
  {
   "alignment" : 4,
   "is_const" : true,
   "linker_set_key" : "_ZTIKN7android2spINS_4hidl6memory4V1_07IMemoryEEE",
   "name" : "const android::sp<android::hidl::memory::V1_0::IMemory>",
   "referenced_type" : "_ZTIN7android2spINS_4hidl6memory4V1_07IMemoryEEE",
   "self_type" : "_ZTIKN7android2spINS_4hidl6memory4V1_07IMemoryEEE",
   "size" : 4,
   "source_file" : "/system/core/libutils/include/utils/StrongPointer.h"
  },
  {
   "alignment" : 4,
   "is_const" : true,
   "linker_set_key" : "_ZTIKN7android2spINS_4hidl7manager4V1_020IServiceNotificationEEE",
   "name" : "const android::sp<android::hidl::manager::V1_0::IServiceNotification>",
   "referenced_type" : "_ZTIN7android2spINS_4hidl7manager4V1_020IServiceNotificationEEE",
   "self_type" : "_ZTIKN7android2spINS_4hidl7manager4V1_020IServiceNotificationEEE",
   "size" : 4,
   "source_file" : "/system/core/libutils/include/utils/StrongPointer.h"
  },
  {
   "alignment" : 4,
   "is_const" : true,
   "linker_set_key" : "_ZTIKN7android2spINS_8hardware20hidl_death_recipientEEE",
   "name" : "const android::sp<android::hardware::hidl_death_recipient>",
   "referenced_type" : "_ZTIN7android2spINS_8hardware20hidl_death_recipientEEE",
   "self_type" : "_ZTIKN7android2spINS_8hardware20hidl_death_recipientEEE",
   "size" : 4,
   "source_file" : "/system/core/libutils/include/utils/StrongPointer.h"
  },
  {
   "alignment" : 4,
   "is_const" : true,
   "linker_set_key" : "_ZTIKN7android4hidl4base4V1_05IBaseE",
   "name" : "const android::hidl::base::V1_0::IBase",
   "referenced_type" : "_ZTIN7android4hidl4base4V1_05IBaseE",
   "self_type" : "_ZTIKN7android4hidl4base4V1_05IBaseE",
   "size" : 12,
   "source_file" : "/out/soong/.intermediates/system/libhidl/transport/base/1.0/android.hidl.base@1.0_genc++_headers/gen/android/hidl/base/1.0/IBase.h"
  },
  {
   "alignment" : 4,
   "is_const" : true,
   "linker_set_key" : "_ZTIKN7android4hidl4base4V1_09DebugInfo12ArchitectureE",
   "name" : "const android::hidl::base::V1_0::DebugInfo::Architecture",
   "referenced_type" : "_ZTIN7android4hidl4base4V1_09DebugInfo12ArchitectureE",
   "self_type" : "_ZTIKN7android4hidl4base4V1_09DebugInfo12ArchitectureE",
   "size" : 4,
   "source_file" : "/out/soong/.intermediates/system/libhidl/transport/base/1.0/android.hidl.base@1.0_genc++_headers/gen/android/hidl/base/1.0/types.h"
  },
  {
   "alignment" : 4,
   "is_const" : true,
   "linker_set_key" : "_ZTIKN7android4hidl6memory4V1_07IMapperE",
   "name" : "const android::hidl::memory::V1_0::IMapper",
   "referenced_type" : "_ZTIN7android4hidl6memory4V1_07IMapperE",
   "self_type" : "_ZTIKN7android4hidl6memory4V1_07IMapperE",
   "size" : 12,
   "source_file" : "/out/soong/.intermediates/system/libhidl/transport/memory/1.0/android.hidl.memory@1.0_genc++_headers/gen/android/hidl/memory/1.0/IMapper.h"
  },
  {
   "alignment" : 4,
   "is_const" : true,
   "linker_set_key" : "_ZTIKN7android4hidl6memory4V1_07IMemoryE",
   "name" : "const android::hidl::memory::V1_0::IMemory",
   "referenced_type" : "_ZTIN7android4hidl6memory4V1_07IMemoryE",
   "self_type" : "_ZTIKN7android4hidl6memory4V1_07IMemoryE",
   "size" : 12,
   "source_file" : "/out/soong/.intermediates/system/libhidl/transport/memory/1.0/android.hidl.memory@1.0_genc++_headers/gen/android/hidl/memory/1.0/IMemory.h"
  },
  {
   "alignment" : 4,
   "is_const" : true,
   "linker_set_key" : "_ZTIKN7android4hidl7manager4V1_020IServiceNotificationE",
   "name" : "const android::hidl::manager::V1_0::IServiceNotification",
   "referenced_type" : "_ZTIN7android4hidl7manager4V1_020IServiceNotificationE",
   "self_type" : "_ZTIKN7android4hidl7manager4V1_020IServiceNotificationE",
   "size" : 12,
   "source_file" : "/out/soong/.intermediates/system/libhidl/transport/manager/1.0/android.hidl.manager@1.0_genc++_headers/gen/android/hidl/manager/1.0/IServiceNotification.h"
  },
  {
   "alignment" : 4,
   "is_const" : true,
   "linker_set_key" : "_ZTIKN7android7RefBaseE",
   "name" : "const android::RefBase",
   "referenced_type" : "_ZTIN7android7RefBaseE",
   "self_type" : "_ZTIKN7android7RefBaseE",
   "size" : 8,
   "source_file" : "/system/core/libutils/include/utils/RefBase.h"
  },
  {
   "alignment" : 8,
   "is_const" : true,
   "linker_set_key" : "_ZTIKN7android8hardware11hidl_handleE",
   "name" : "const android::hardware::hidl_handle",
   "referenced_type" : "_ZTIN7android8hardware11hidl_handleE",
   "self_type" : "_ZTIKN7android8hardware11hidl_handleE",
   "size" : 16,
   "source_file" : "/system/libhidl/base/include/hidl/HidlSupport.h"
  },
  {
   "alignment" : 8,
   "is_const" : true,
   "linker_set_key" : "_ZTIKN7android8hardware11hidl_memoryE",
   "name" : "const android::hardware::hidl_memory",
   "referenced_type" : "_ZTIN7android8hardware11hidl_memoryE",
   "self_type" : "_ZTIKN7android8hardware11hidl_memoryE",
   "size" : 40,
   "source_file" : "/system/libhidl/base/include/hidl/HidlSupport.h"
  },
  {
   "alignment" : 8,
   "is_const" : true,
   "linker_set_key" : "_ZTIKN7android8hardware11hidl_stringE",
   "name" : "const android::hardware::hidl_string",
   "referenced_type" : "_ZTIN7android8hardware11hidl_stringE",
   "self_type" : "_ZTIKN7android8hardware11hidl_stringE",
   "size" : 16,
   "source_file" : "/system/libhidl/base/include/hidl/HidlSupport.h"
  },
  {
   "alignment" : 2,
   "is_const" : true,
   "linker_set_key" : "_ZTIKN7android8hardware12hidl_versionE",
   "name" : "const android::hardware::hidl_version",
   "referenced_type" : "_ZTIN7android8hardware12hidl_versionE",
   "self_type" : "_ZTIKN7android8hardware12hidl_versionE",
   "size" : 4,
   "source_file" : "/system/libhidl/base/include/hidl/HidlSupport.h"
  },
  {
   "alignment" : 8,
   "is_const" : true,
   "linker_set_key" : "_ZTIKN7android8hardware17GrantorDescriptorE",
   "name" : "const android::hardware::GrantorDescriptor",
   "referenced_type" : "_ZTIN7android8hardware17GrantorDescriptorE",
   "self_type" : "_ZTIKN7android8hardware17GrantorDescriptorE",
   "size" : 24,
   "source_file" : "/external/libcxx/include/type_traits"
  },
  {
   "alignment" : 4,
   "is_const" : true,
   "linker_set_key" : "_ZTIKN7android8hardware6StatusE",
   "name" : "const android::hardware::Status",
   "referenced_type" : "_ZTIN7android8hardware6StatusE",
   "self_type" : "_ZTIKN7android8hardware6StatusE",
   "size" : 20,
   "source_file" : "/system/libhidl/base/include/hidl/Status.h"
  },
  {
   "alignment" : 4,
   "is_const" : true,
   "linker_set_key" : "_ZTIKN7android8hardware7details13return_statusE",
   "name" : "const android::hardware::details::return_status",
   "referenced_type" : "_ZTIN7android8hardware7details13return_statusE",
   "self_type" : "_ZTIKN7android8hardware7details13return_statusE",
   "size" : 24,
   "source_file" : "/system/libhidl/base/include/hidl/Status.h"
  },
  {
   "is_const" : true,
   "linker_set_key" : "_ZTIKN7android8hardware8hidl_vec4iterIXTL0__EEE",
   "name" : "const iter<is_const>",
   "referenced_type" : "_ZTIN7android8hardware8hidl_vec4iterIXTL0__EEE",
   "self_type" : "_ZTIKN7android8hardware8hidl_vec4iterIXTL0__EEE",
   "source_file" : "/system/libhidl/base/include/hidl/HidlSupport.h"
  },
  {
   "alignment" : 4,
   "is_const" : true,
   "linker_set_key" : "_ZTIKNSt3__110__function8__policyE",
   "name" : "const std::__function::__policy",
   "referenced_type" : "_ZTINSt3__110__function8__policyE",
   "self_type" : "_ZTIKNSt3__110__function8__policyE",
   "size" : 16,
   "source_file" : "/external/libcxx/include/functional"
  },
  {
   "alignment" : 1,
   "is_const" : true,
   "linker_set_key" : "_ZTIKNSt3__110__ignore_tIhEE",
   "name" : "const std::__ignore_t<unsigned char>",
   "referenced_type" : "_ZTINSt3__110__ignore_tIhEE",
   "self_type" : "_ZTIKNSt3__110__ignore_tIhEE",
   "size" : 1,
   "source_file" : "/external/libcxx/include/tuple"
  },
  {
   "alignment" : 4,
   "is_const" : true,
   "linker_set_key" : "_ZTIKNSt3__110error_codeE",
   "name" : "const std::error_code",
   "referenced_type" : "_ZTINSt3__110error_codeE",
   "self_type" : "_ZTIKNSt3__110error_codeE",
   "size" : 8,
   "source_file" : "/external/libcxx/include/system_error"
  },
  {
   "alignment" : 1,
   "is_const" : true,
   "linker_set_key" : "_ZTIKNSt3__110in_place_tE",
   "name" : "const std::in_place_t",
   "referenced_type" : "_ZTINSt3__110in_place_tE",
   "self_type" : "_ZTIKNSt3__110in_place_tE",
   "size" : 1,
   "source_file" : "/external/libcxx/include/utility"
  },
  {
   "alignment" : 1,
   "is_const" : true,
   "linker_set_key" : "_ZTIKNSt3__112adopt_lock_tE",
   "name" : "const std::adopt_lock_t",
   "referenced_type" : "_ZTINSt3__112adopt_lock_tE",
   "self_type" : "_ZTIKNSt3__112adopt_lock_tE",
   "size" : 1,
   "source_file" : "/external/libcxx/include/__mutex_base"
  },
  {
   "alignment" : 4,
   "is_const" : true,
   "linker_set_key" : "_ZTIKNSt3__112basic_stringIDiNS_11char_traitsIDiEENS_9allocatorIDiEEE5__repE",
   "name" : "const std::basic_string<char32_t, char_traits<char32_t>, allocator<char32_t> >::__rep",
   "referenced_type" : "_ZTINSt3__112basic_stringIDiNS_11char_traitsIDiEENS_9allocatorIDiEEE5__repE",
   "self_type" : "_ZTIKNSt3__112basic_stringIDiNS_11char_traitsIDiEENS_9allocatorIDiEEE5__repE",
   "size" : 12,
   "source_file" : "/external/libcxx/include/memory"
  },
  {
   "alignment" : 4,
   "is_const" : true,
   "linker_set_key" : "_ZTIKNSt3__112basic_stringIDiNS_11char_traitsIDiEENS_9allocatorIDiEEEE",
   "name" : "const std::basic_string<char32_t, std::char_traits<char32_t>, std::allocator<char32_t> >",
   "referenced_type" : "_ZTINSt3__112basic_stringIDiNS_11char_traitsIDiEENS_9allocatorIDiEEEE",
   "self_type" : "_ZTIKNSt3__112basic_stringIDiNS_11char_traitsIDiEENS_9allocatorIDiEEEE",
   "size" : 12,
   "source_file" : "/external/libcxx/include/string"
  },
  {
   "alignment" : 4,
   "is_const" : true,
   "linker_set_key" : "_ZTIKNSt3__112basic_stringIDsNS_11char_traitsIDsEENS_9allocatorIDsEEE5__repE",
   "name" : "const std::basic_string<char16_t, char_traits<char16_t>, allocator<char16_t> >::__rep",
   "referenced_type" : "_ZTINSt3__112basic_stringIDsNS_11char_traitsIDsEENS_9allocatorIDsEEE5__repE",
   "self_type" : "_ZTIKNSt3__112basic_stringIDsNS_11char_traitsIDsEENS_9allocatorIDsEEE5__repE",
   "size" : 12,
   "source_file" : "/external/libcxx/include/memory"
  },
  {
   "alignment" : 4,
   "is_const" : true,
   "linker_set_key" : "_ZTIKNSt3__112basic_stringIDsNS_11char_traitsIDsEENS_9allocatorIDsEEEE",
   "name" : "const std::basic_string<char16_t, std::char_traits<char16_t>, std::allocator<char16_t> >",
   "referenced_type" : "_ZTINSt3__112basic_stringIDsNS_11char_traitsIDsEENS_9allocatorIDsEEEE",
   "self_type" : "_ZTIKNSt3__112basic_stringIDsNS_11char_traitsIDsEENS_9allocatorIDsEEEE",
   "size" : 12,
   "source_file" : "/external/libcxx/include/string"
  },
  {
   "alignment" : 4,
   "is_const" : true,
   "linker_set_key" : "_ZTIKNSt3__112basic_stringIcNS_11char_traitsIcEENS_9allocatorIcEEE5__repE",
   "name" : "const std::basic_string<char>::__rep",
   "referenced_type" : "_ZTINSt3__112basic_stringIcNS_11char_traitsIcEENS_9allocatorIcEEE5__repE",
   "self_type" : "_ZTIKNSt3__112basic_stringIcNS_11char_traitsIcEENS_9allocatorIcEEE5__repE",
   "size" : 12,
   "source_file" : "/external/libcxx/include/memory"
  },
  {
   "alignment" : 4,
   "is_const" : true,
   "linker_set_key" : "_ZTIKNSt3__112basic_stringIcNS_11char_traitsIcEENS_9allocatorIcEEEE",
   "name" : "const std::basic_string<char, std::char_traits<char>, std::allocator<char> >",
   "referenced_type" : "_ZTINSt3__112basic_stringIcNS_11char_traitsIcEENS_9allocatorIcEEEE",
   "self_type" : "_ZTIKNSt3__112basic_stringIcNS_11char_traitsIcEENS_9allocatorIcEEEE",
   "size" : 12,
   "source_file" : "/external/libcxx/include/type_traits"
  },
  {
   "alignment" : 4,
   "is_const" : true,
   "linker_set_key" : "_ZTIKNSt3__112basic_stringIwNS_11char_traitsIwEENS_9allocatorIwEEE5__repE",
   "name" : "const std::basic_string<wchar_t>::__rep",
   "referenced_type" : "_ZTINSt3__112basic_stringIwNS_11char_traitsIwEENS_9allocatorIwEEE5__repE",
   "self_type" : "_ZTIKNSt3__112basic_stringIwNS_11char_traitsIwEENS_9allocatorIwEEE5__repE",
   "size" : 12,
   "source_file" : "/external/libcxx/include/memory"
  },
  {
   "alignment" : 4,
   "is_const" : true,
   "linker_set_key" : "_ZTIKNSt3__112basic_stringIwNS_11char_traitsIwEENS_9allocatorIwEEEE",
   "name" : "const std::basic_string<wchar_t, std::char_traits<wchar_t>, std::allocator<wchar_t> >",
   "referenced_type" : "_ZTINSt3__112basic_stringIwNS_11char_traitsIwEENS_9allocatorIwEEEE",
   "self_type" : "_ZTIKNSt3__112basic_stringIwNS_11char_traitsIwEENS_9allocatorIwEEEE",
   "size" : 12,
   "source_file" : "/external/libcxx/include/type_traits"
  },
  {
   "alignment" : 1,
   "is_const" : true,
   "linker_set_key" : "_ZTIKNSt3__112defer_lock_tE",
   "name" : "const std::defer_lock_t",
   "referenced_type" : "_ZTINSt3__112defer_lock_tE",
   "self_type" : "_ZTIKNSt3__112defer_lock_tE",
   "size" : 1,
   "source_file" : "/external/libcxx/include/__mutex_base"
  },
  {
   "alignment" : 1,
   "is_const" : true,
   "linker_set_key" : "_ZTIKNSt3__112placeholders4__phILi10EEE",
   "name" : "const std::placeholders::__ph<10>",
   "referenced_type" : "_ZTINSt3__112placeholders4__phILi10EEE",
   "self_type" : "_ZTIKNSt3__112placeholders4__phILi10EEE",
   "size" : 1,
   "source_file" : "/external/libcxx/include/functional"
  },
  {
   "alignment" : 1,
   "is_const" : true,
   "linker_set_key" : "_ZTIKNSt3__112placeholders4__phILi1EEE",
   "name" : "const std::placeholders::__ph<1>",
   "referenced_type" : "_ZTINSt3__112placeholders4__phILi1EEE",
   "self_type" : "_ZTIKNSt3__112placeholders4__phILi1EEE",
   "size" : 1,
   "source_file" : "/external/libcxx/include/functional"
  },
  {
   "alignment" : 1,
   "is_const" : true,
   "linker_set_key" : "_ZTIKNSt3__112placeholders4__phILi2EEE",
   "name" : "const std::placeholders::__ph<2>",
   "referenced_type" : "_ZTINSt3__112placeholders4__phILi2EEE",
   "self_type" : "_ZTIKNSt3__112placeholders4__phILi2EEE",
   "size" : 1,
   "source_file" : "/external/libcxx/include/functional"
  },
  {
   "alignment" : 1,
   "is_const" : true,
   "linker_set_key" : "_ZTIKNSt3__112placeholders4__phILi3EEE",
   "name" : "const std::placeholders::__ph<3>",
   "referenced_type" : "_ZTINSt3__112placeholders4__phILi3EEE",
   "self_type" : "_ZTIKNSt3__112placeholders4__phILi3EEE",
   "size" : 1,
   "source_file" : "/external/libcxx/include/functional"
  },
  {
   "alignment" : 1,
   "is_const" : true,
   "linker_set_key" : "_ZTIKNSt3__112placeholders4__phILi4EEE",
   "name" : "const std::placeholders::__ph<4>",
   "referenced_type" : "_ZTINSt3__112placeholders4__phILi4EEE",
   "self_type" : "_ZTIKNSt3__112placeholders4__phILi4EEE",
   "size" : 1,
   "source_file" : "/external/libcxx/include/functional"
  },
  {
   "alignment" : 1,
   "is_const" : true,
   "linker_set_key" : "_ZTIKNSt3__112placeholders4__phILi5EEE",
   "name" : "const std::placeholders::__ph<5>",
   "referenced_type" : "_ZTINSt3__112placeholders4__phILi5EEE",
   "self_type" : "_ZTIKNSt3__112placeholders4__phILi5EEE",
   "size" : 1,
   "source_file" : "/external/libcxx/include/functional"
  },
  {
   "alignment" : 1,
   "is_const" : true,
   "linker_set_key" : "_ZTIKNSt3__112placeholders4__phILi6EEE",
   "name" : "const std::placeholders::__ph<6>",
   "referenced_type" : "_ZTINSt3__112placeholders4__phILi6EEE",
   "self_type" : "_ZTIKNSt3__112placeholders4__phILi6EEE",
   "size" : 1,
   "source_file" : "/external/libcxx/include/functional"
  },
  {
   "alignment" : 1,
   "is_const" : true,
   "linker_set_key" : "_ZTIKNSt3__112placeholders4__phILi7EEE",
   "name" : "const std::placeholders::__ph<7>",
   "referenced_type" : "_ZTINSt3__112placeholders4__phILi7EEE",
   "self_type" : "_ZTIKNSt3__112placeholders4__phILi7EEE",
   "size" : 1,
   "source_file" : "/external/libcxx/include/functional"
  },
  {
   "alignment" : 1,
   "is_const" : true,
   "linker_set_key" : "_ZTIKNSt3__112placeholders4__phILi8EEE",
   "name" : "const std::placeholders::__ph<8>",
   "referenced_type" : "_ZTINSt3__112placeholders4__phILi8EEE",
   "self_type" : "_ZTIKNSt3__112placeholders4__phILi8EEE",
   "size" : 1,
   "source_file" : "/external/libcxx/include/functional"
  },
  {
   "alignment" : 1,
   "is_const" : true,
   "linker_set_key" : "_ZTIKNSt3__112placeholders4__phILi9EEE",
   "name" : "const std::placeholders::__ph<9>",
   "referenced_type" : "_ZTINSt3__112placeholders4__phILi9EEE",
   "self_type" : "_ZTIKNSt3__112placeholders4__phILi9EEE",
   "size" : 1,
   "source_file" : "/external/libcxx/include/functional"
  },
  {
   "alignment" : 4,
   "is_const" : true,
   "linker_set_key" : "_ZTIKNSt3__112system_errorE",
   "name" : "const std::system_error",
   "referenced_type" : "_ZTINSt3__112system_errorE",
   "self_type" : "_ZTIKNSt3__112system_errorE",
   "size" : 16,
   "source_file" : "/external/libcxx/include/system_error"
  },
  {
   "alignment" : 1,
   "is_const" : true,
   "linker_set_key" : "_ZTIKNSt3__113__scalar_hashINS_6_PairTELj2EEE",
   "name" : "const std::__scalar_hash<std::_PairT, 2>",
   "referenced_type" : "_ZTINSt3__113__scalar_hashINS_6_PairTELj2EEE",
   "self_type" : "_ZTIKNSt3__113__scalar_hashINS_6_PairTELj2EEE",
   "size" : 1,
   "source_file" : "/external/libcxx/include/utility"
  },
  {
   "alignment" : 1,
   "is_const" : true,
   "linker_set_key" : "_ZTIKNSt3__113__scalar_hashIdLj2EEE",
   "name" : "const std::__scalar_hash<double, 2>",
   "referenced_type" : "_ZTINSt3__113__scalar_hashIdLj2EEE",
   "self_type" : "_ZTIKNSt3__113__scalar_hashIdLj2EEE",
   "size" : 1,
   "source_file" : "/external/libcxx/include/utility"
  },
  {
   "alignment" : 1,
   "is_const" : true,
   "linker_set_key" : "_ZTIKNSt3__113__scalar_hashIeLj2EEE",
   "name" : "const std::__scalar_hash<long double, 2>",
   "referenced_type" : "_ZTINSt3__113__scalar_hashIeLj2EEE",
   "self_type" : "_ZTIKNSt3__113__scalar_hashIeLj2EEE",
   "size" : 1,
   "source_file" : "/external/libcxx/include/utility"
  },
  {
   "alignment" : 1,
   "is_const" : true,
   "linker_set_key" : "_ZTIKNSt3__113__scalar_hashIfLj1EEE",
   "name" : "const std::__scalar_hash<float, 1>",
   "referenced_type" : "_ZTINSt3__113__scalar_hashIfLj1EEE",
   "self_type" : "_ZTIKNSt3__113__scalar_hashIfLj1EEE",
   "size" : 1,
   "source_file" : "/external/libcxx/include/utility"
  },
  {
   "alignment" : 4,
   "is_const" : true,
   "linker_set_key" : "_ZTIKNSt3__113basic_ostreamIcNS_11char_traitsIcEEE6sentryE",
   "name" : "const std::basic_ostream<char>::sentry",
   "referenced_type" : "_ZTINSt3__113basic_ostreamIcNS_11char_traitsIcEEE6sentryE",
   "self_type" : "_ZTIKNSt3__113basic_ostreamIcNS_11char_traitsIcEEE6sentryE",
   "size" : 8,
   "source_file" : "/external/libcxx/include/ostream"
  },
  {
   "alignment" : 1,
   "is_const" : true,
   "linker_set_key" : "_ZTIKNSt3__113try_to_lock_tE",
   "name" : "const std::try_to_lock_t",
   "referenced_type" : "_ZTINSt3__113try_to_lock_tE",
   "self_type" : "_ZTIKNSt3__113try_to_lock_tE",
   "size" : 1,
   "source_file" : "/external/libcxx/include/__mutex_base"
  },
  {
   "is_const" : true,
   "linker_set_key" : "_ZTIKNSt3__114__bit_iteratorIT_XT0_EXT1_EEE",
   "name" : "const __bit_iterator<_Cp, _IsConst, >",
   "referenced_type" : "_ZTINSt3__114__bit_iteratorIT_XT0_EXT1_EEE",
   "self_type" : "_ZTIKNSt3__114__bit_iteratorIT_XT0_EXT1_EEE",
   "source_file" : "/external/libcxx/include/__bit_reference"
  },
  {
   "is_const" : true,
   "linker_set_key" : "_ZTIKNSt3__114__map_iteratorIT_EE",
   "name" : "const __map_iterator<_TreeIterator>",
   "referenced_type" : "_ZTINSt3__114__map_iteratorIT_EE",
   "self_type" : "_ZTIKNSt3__114__map_iteratorIT_EE",
   "source_file" : "/external/libcxx/include/map"
  },
  {
   "alignment" : 4,
   "is_const" : true,
   "linker_set_key" : "_ZTIKNSt3__114__shared_countE",
   "name" : "const std::__shared_count",
   "referenced_type" : "_ZTINSt3__114__shared_countE",
   "self_type" : "_ZTIKNSt3__114__shared_countE",
   "size" : 8,
   "source_file" : "/external/libcxx/include/memory"
  },
  {
   "alignment" : 4,
   "is_const" : true,
   "linker_set_key" : "_ZTIKNSt3__114error_categoryE",
   "name" : "const std::error_category",
   "referenced_type" : "_ZTINSt3__114error_categoryE",
   "self_type" : "_ZTIKNSt3__114error_categoryE",
   "size" : 4,
   "source_file" : "/external/libcxx/include/system_error"
  },
  {
   "alignment" : 4,
   "is_const" : true,
   "linker_set_key" : "_ZTIKNSt3__114pointer_safetyE",
   "name" : "const std::pointer_safety",
   "referenced_type" : "_ZTINSt3__114pointer_safetyE",
   "self_type" : "_ZTIKNSt3__114pointer_safetyE",
   "size" : 4,
   "source_file" : "/external/libcxx/include/memory"
  },
  {
   "is_const" : true,
   "linker_set_key" : "_ZTIKNSt3__115__tree_iteratorIT_T0_T1_EE",
   "name" : "const __tree_iterator<_Tp, _NodePtr, _DiffType>",
   "referenced_type" : "_ZTINSt3__115__tree_iteratorIT_T0_T1_EE",
   "self_type" : "_ZTIKNSt3__115__tree_iteratorIT_T0_T1_EE",
   "source_file" : "/external/libcxx/include/__tree"
  },
  {
   "alignment" : 1,
   "is_const" : true,
   "linker_set_key" : "_ZTIKNSt3__115allocator_arg_tE",
   "name" : "const std::allocator_arg_t",
   "referenced_type" : "_ZTINSt3__115allocator_arg_tE",
   "self_type" : "_ZTIKNSt3__115allocator_arg_tE",
   "size" : 1,
   "source_file" : "/external/libcxx/include/__functional_base"
  },
  {
   "alignment" : 4,
   "is_const" : true,
   "linker_set_key" : "_ZTIKNSt3__115basic_streambufIcNS_11char_traitsIcEEEE",
   "name" : "const std::basic_streambuf<char, std::char_traits<char> >",
   "referenced_type" : "_ZTINSt3__115basic_streambufIcNS_11char_traitsIcEEEE",
   "self_type" : "_ZTIKNSt3__115basic_streambufIcNS_11char_traitsIcEEEE",
   "size" : 32,
   "source_file" : "/external/libcxx/include/streambuf"
  },
  {
   "alignment" : 4,
   "is_const" : true,
   "linker_set_key" : "_ZTIKNSt3__115basic_stringbufIcNS_11char_traitsIcEENS_9allocatorIcEEEE",
   "name" : "const std::basic_stringbuf<char, std::char_traits<char>, std::allocator<char> >",
   "referenced_type" : "_ZTINSt3__115basic_stringbufIcNS_11char_traitsIcEENS_9allocatorIcEEEE",
   "self_type" : "_ZTIKNSt3__115basic_stringbufIcNS_11char_traitsIcEENS_9allocatorIcEEEE",
   "size" : 52,
   "source_file" : "/external/libcxx/include/sstream"
  },
  {
   "alignment" : 4,
   "is_const" : true,
   "linker_set_key" : "_ZTIKNSt3__115error_conditionE",
   "name" : "const std::error_condition",
   "referenced_type" : "_ZTINSt3__115error_conditionE",
   "self_type" : "_ZTIKNSt3__115error_conditionE",
   "size" : 8,
   "source_file" : "/external/libcxx/include/system_error"
  },
  {
   "alignment" : 4,
   "is_const" : true,
   "linker_set_key" : "_ZTIKNSt3__117__compressed_pairINS_12basic_stringIDiNS_11char_traitsIDiEENS_9allocatorIDiEEE5__repES5_EE",
   "name" : "const std::__compressed_pair<std::basic_string<char32_t, char_traits<char32_t>, allocator<char32_t> >::__rep, std::allocator<char32_t> >",
   "referenced_type" : "_ZTINSt3__117__compressed_pairINS_12basic_stringIDiNS_11char_traitsIDiEENS_9allocatorIDiEEE5__repES5_EE",
   "self_type" : "_ZTIKNSt3__117__compressed_pairINS_12basic_stringIDiNS_11char_traitsIDiEENS_9allocatorIDiEEE5__repES5_EE",
   "size" : 12,
   "source_file" : "/external/libcxx/include/memory"
  },
  {
   "alignment" : 4,
   "is_const" : true,
   "linker_set_key" : "_ZTIKNSt3__117__compressed_pairINS_12basic_stringIDsNS_11char_traitsIDsEENS_9allocatorIDsEEE5__repES5_EE",
   "name" : "const std::__compressed_pair<std::basic_string<char16_t, char_traits<char16_t>, allocator<char16_t> >::__rep, std::allocator<char16_t> >",
   "referenced_type" : "_ZTINSt3__117__compressed_pairINS_12basic_stringIDsNS_11char_traitsIDsEENS_9allocatorIDsEEE5__repES5_EE",
   "self_type" : "_ZTIKNSt3__117__compressed_pairINS_12basic_stringIDsNS_11char_traitsIDsEENS_9allocatorIDsEEE5__repES5_EE",
   "size" : 12,
   "source_file" : "/external/libcxx/include/memory"
  },
  {
   "alignment" : 4,
   "is_const" : true,
   "linker_set_key" : "_ZTIKNSt3__117__compressed_pairINS_12basic_stringIcNS_11char_traitsIcEENS_9allocatorIcEEE5__repES5_EE",
   "name" : "const std::__compressed_pair<std::basic_string<char>::__rep, std::allocator<char> >",
   "referenced_type" : "_ZTINSt3__117__compressed_pairINS_12basic_stringIcNS_11char_traitsIcEENS_9allocatorIcEEE5__repES5_EE",
   "self_type" : "_ZTIKNSt3__117__compressed_pairINS_12basic_stringIcNS_11char_traitsIcEENS_9allocatorIcEEE5__repES5_EE",
   "size" : 12,
   "source_file" : "/external/libcxx/include/memory"
  },
  {
   "alignment" : 4,
   "is_const" : true,
   "linker_set_key" : "_ZTIKNSt3__117__compressed_pairINS_12basic_stringIwNS_11char_traitsIwEENS_9allocatorIwEEE5__repES5_EE",
   "name" : "const std::__compressed_pair<std::basic_string<wchar_t>::__rep, std::allocator<wchar_t> >",
   "referenced_type" : "_ZTINSt3__117__compressed_pairINS_12basic_stringIwNS_11char_traitsIwEENS_9allocatorIwEEE5__repES5_EE",
   "self_type" : "_ZTIKNSt3__117__compressed_pairINS_12basic_stringIwNS_11char_traitsIwEENS_9allocatorIwEEE5__repES5_EE",
   "size" : 12,
   "source_file" : "/external/libcxx/include/memory"
  },
  {
   "alignment" : 4,
   "is_const" : true,
   "linker_set_key" : "_ZTIKNSt3__117__compressed_pairIPcPFvPvEEE",
   "name" : "const std::__compressed_pair<char *, void (*)(void *)>",
   "referenced_type" : "_ZTINSt3__117__compressed_pairIPcPFvPvEEE",
   "self_type" : "_ZTIKNSt3__117__compressed_pairIPcPFvPvEEE",
   "size" : 8,
   "source_file" : "/external/libcxx/include/type_traits"
  },
  {
   "alignment" : 4,
   "is_const" : true,
   "linker_set_key" : "_ZTIKNSt3__117__compressed_pairIPhPFvPvEEE",
   "name" : "const std::__compressed_pair<unsigned char *, void (*)(void *)>",
   "referenced_type" : "_ZTINSt3__117__compressed_pairIPhPFvPvEEE",
   "self_type" : "_ZTIKNSt3__117__compressed_pairIPhPFvPvEEE",
   "size" : 8,
   "source_file" : "/external/libcxx/include/type_traits"
  },
  {
   "alignment" : 4,
   "is_const" : true,
   "linker_set_key" : "_ZTIKNSt3__117__compressed_pairIPjPFvPvEEE",
   "name" : "const std::__compressed_pair<unsigned int *, void (*)(void *)>",
   "referenced_type" : "_ZTINSt3__117__compressed_pairIPjPFvPvEEE",
   "self_type" : "_ZTIKNSt3__117__compressed_pairIPjPFvPvEEE",
   "size" : 8,
   "source_file" : "/external/libcxx/include/type_traits"
  },
  {
   "alignment" : 4,
   "is_const" : true,
   "linker_set_key" : "_ZTIKNSt3__117basic_string_viewIDiNS_11char_traitsIDiEEEE",
   "name" : "const std::basic_string_view<char32_t, std::char_traits<char32_t> >",
   "referenced_type" : "_ZTINSt3__117basic_string_viewIDiNS_11char_traitsIDiEEEE",
   "self_type" : "_ZTIKNSt3__117basic_string_viewIDiNS_11char_traitsIDiEEEE",
   "size" : 8,
   "source_file" : "/external/libcxx/include/string_view"
  },
  {
   "alignment" : 4,
   "is_const" : true,
   "linker_set_key" : "_ZTIKNSt3__117basic_string_viewIDsNS_11char_traitsIDsEEEE",
   "name" : "const std::basic_string_view<char16_t, std::char_traits<char16_t> >",
   "referenced_type" : "_ZTINSt3__117basic_string_viewIDsNS_11char_traitsIDsEEEE",
   "self_type" : "_ZTIKNSt3__117basic_string_viewIDsNS_11char_traitsIDsEEEE",
   "size" : 8,
   "source_file" : "/external/libcxx/include/string_view"
  },
  {
   "alignment" : 4,
   "is_const" : true,
   "linker_set_key" : "_ZTIKNSt3__117basic_string_viewIcNS_11char_traitsIcEEEE",
   "name" : "const std::basic_string_view<char, std::char_traits<char> >",
   "referenced_type" : "_ZTINSt3__117basic_string_viewIcNS_11char_traitsIcEEEE",
   "self_type" : "_ZTIKNSt3__117basic_string_viewIcNS_11char_traitsIcEEEE",
   "size" : 8,
   "source_file" : "/external/libcxx/include/string_view"
  },
  {
   "alignment" : 4,
   "is_const" : true,
   "linker_set_key" : "_ZTIKNSt3__117basic_string_viewIwNS_11char_traitsIwEEEE",
   "name" : "const std::basic_string_view<wchar_t, std::char_traits<wchar_t> >",
   "referenced_type" : "_ZTINSt3__117basic_string_viewIwNS_11char_traitsIwEEEE",
   "self_type" : "_ZTIKNSt3__117basic_string_viewIwNS_11char_traitsIwEEEE",
   "size" : 8,
   "source_file" : "/external/libcxx/include/string_view"
  },
  {
   "alignment" : 4,
   "is_const" : true,
   "linker_set_key" : "_ZTIKNSt3__117float_round_styleE",
   "name" : "const std::float_round_style",
   "referenced_type" : "_ZTINSt3__117float_round_styleE",
   "self_type" : "_ZTIKNSt3__117float_round_styleE",
   "size" : 4,
   "source_file" : "/external/libcxx/include/limits"
  },
  {
   "alignment" : 4,
   "is_const" : true,
   "linker_set_key" : "_ZTIKNSt3__118__libcpp_refstringE",
   "name" : "const std::__libcpp_refstring",
   "referenced_type" : "_ZTINSt3__118__libcpp_refstringE",
   "self_type" : "_ZTIKNSt3__118__libcpp_refstringE",
   "size" : 4,
   "source_file" : "/external/libcxx/include/stdexcept"
  },
  {
   "alignment" : 1,
   "is_const" : true,
   "linker_set_key" : "_ZTIKNSt3__118__sfinae_ctor_baseILb0ELb0EEE",
   "name" : "const std::__sfinae_ctor_base<false, false>",
   "referenced_type" : "_ZTINSt3__118__sfinae_ctor_baseILb0ELb0EEE",
   "self_type" : "_ZTIKNSt3__118__sfinae_ctor_baseILb0ELb0EEE",
   "size" : 1,
   "source_file" : "/external/libcxx/include/__tuple"
  },
  {
   "alignment" : 1,
   "is_const" : true,
   "linker_set_key" : "_ZTIKNSt3__118__sfinae_ctor_baseILb0ELb1EEE",
   "name" : "const std::__sfinae_ctor_base<false, true>",
   "referenced_type" : "_ZTINSt3__118__sfinae_ctor_baseILb0ELb1EEE",
   "self_type" : "_ZTIKNSt3__118__sfinae_ctor_baseILb0ELb1EEE",
   "size" : 1,
   "source_file" : "/external/libcxx/include/__tuple"
  },
  {
   "alignment" : 1,
   "is_const" : true,
   "linker_set_key" : "_ZTIKNSt3__118__sfinae_ctor_baseILb1ELb0EEE",
   "name" : "const std::__sfinae_ctor_base<true, false>",
   "referenced_type" : "_ZTINSt3__118__sfinae_ctor_baseILb1ELb0EEE",
   "self_type" : "_ZTIKNSt3__118__sfinae_ctor_baseILb1ELb0EEE",
   "size" : 1,
   "source_file" : "/external/libcxx/include/__tuple"
  },
  {
   "alignment" : 4,
   "is_const" : true,
   "linker_set_key" : "_ZTIKNSt3__118float_denorm_styleE",
   "name" : "const std::float_denorm_style",
   "referenced_type" : "_ZTINSt3__118float_denorm_styleE",
   "self_type" : "_ZTIKNSt3__118float_denorm_styleE",
   "size" : 4,
   "source_file" : "/external/libcxx/include/limits"
  },
  {
   "alignment" : 4,
   "is_const" : true,
   "linker_set_key" : "_ZTIKNSt3__119__libcpp_debug_infoE",
   "name" : "const std::__libcpp_debug_info",
   "referenced_type" : "_ZTINSt3__119__libcpp_debug_infoE",
   "self_type" : "_ZTIKNSt3__119__libcpp_debug_infoE",
   "size" : 16,
   "source_file" : "/external/libcxx/include/__debug"
  },
  {
   "alignment" : 4,
   "is_const" : true,
   "linker_set_key" : "_ZTIKNSt3__119__shared_weak_countE",
   "name" : "const std::__shared_weak_count",
   "referenced_type" : "_ZTINSt3__119__shared_weak_countE",
   "self_type" : "_ZTIKNSt3__119__shared_weak_countE",
   "size" : 12,
   "source_file" : "/external/libcxx/include/memory"
  },
  {
   "alignment" : 4,
   "is_const" : true,
   "linker_set_key" : "_ZTIKNSt3__119basic_ostringstreamIcNS_11char_traitsIcEENS_9allocatorIcEEEE",
   "name" : "const std::basic_ostringstream<char, std::char_traits<char>, std::allocator<char> >",
   "referenced_type" : "_ZTINSt3__119basic_ostringstreamIcNS_11char_traitsIcEENS_9allocatorIcEEEE",
   "self_type" : "_ZTIKNSt3__119basic_ostringstreamIcNS_11char_traitsIcEENS_9allocatorIcEEEE",
   "size" : 136,
   "source_file" : "/external/libcxx/include/sstream"
  },
  {
   "alignment" : 4,
   "is_const" : true,
   "linker_set_key" : "_ZTIKNSt3__119ostreambuf_iteratorIcNS_11char_traitsIcEEEE",
   "name" : "const std::ostreambuf_iterator<char, std::char_traits<char> >",
   "referenced_type" : "_ZTINSt3__119ostreambuf_iteratorIcNS_11char_traitsIcEEEE",
   "self_type" : "_ZTIKNSt3__119ostreambuf_iteratorIcNS_11char_traitsIcEEEE",
   "size" : 4,
   "source_file" : "/external/libcxx/include/iterator"
  },
  {
   "is_const" : true,
   "linker_set_key" : "_ZTIKNSt3__120__map_const_iteratorIT_EE",
   "name" : "const __map_const_iterator<_TreeIterator>",
   "referenced_type" : "_ZTINSt3__120__map_const_iteratorIT_EE",
   "self_type" : "_ZTIKNSt3__120__map_const_iteratorIT_EE",
   "source_file" : "/external/libcxx/include/map"
  },
  {
   "alignment" : 1,
   "is_const" : true,
   "linker_set_key" : "_ZTIKNSt3__120__sfinae_assign_baseILb0ELb0EEE",
   "name" : "const std::__sfinae_assign_base<false, false>",
   "referenced_type" : "_ZTINSt3__120__sfinae_assign_baseILb0ELb0EEE",
   "self_type" : "_ZTIKNSt3__120__sfinae_assign_baseILb0ELb0EEE",
   "size" : 1,
   "source_file" : "/external/libcxx/include/__tuple"
  },
  {
   "alignment" : 1,
   "is_const" : true,
   "linker_set_key" : "_ZTIKNSt3__120__sfinae_assign_baseILb0ELb1EEE",
   "name" : "const std::__sfinae_assign_base<false, true>",
   "referenced_type" : "_ZTINSt3__120__sfinae_assign_baseILb0ELb1EEE",
   "self_type" : "_ZTIKNSt3__120__sfinae_assign_baseILb0ELb1EEE",
   "size" : 1,
   "source_file" : "/external/libcxx/include/__tuple"
  },
  {
   "alignment" : 1,
   "is_const" : true,
   "linker_set_key" : "_ZTIKNSt3__120__sfinae_assign_baseILb1ELb0EEE",
   "name" : "const std::__sfinae_assign_base<true, false>",
   "referenced_type" : "_ZTINSt3__120__sfinae_assign_baseILb1ELb0EEE",
   "self_type" : "_ZTIKNSt3__120__sfinae_assign_baseILb1ELb0EEE",
   "size" : 1,
   "source_file" : "/external/libcxx/include/__tuple"
  },
  {
   "is_const" : true,
   "linker_set_key" : "_ZTIKNSt3__121__tree_const_iteratorIT_T0_T1_EE",
   "name" : "const __tree_const_iterator<_Tp, _ConstNodePtr, _DiffType>",
   "referenced_type" : "_ZTINSt3__121__tree_const_iteratorIT_T0_T1_EE",
   "self_type" : "_ZTIKNSt3__121__tree_const_iteratorIT_T0_T1_EE",
   "source_file" : "/external/libcxx/include/__tree"
  },
  {
   "alignment" : 1,
   "is_const" : true,
   "linker_set_key" : "_ZTIKNSt3__121piecewise_construct_tE",
   "name" : "const std::piecewise_construct_t",
   "referenced_type" : "_ZTINSt3__121piecewise_construct_tE",
   "self_type" : "_ZTIKNSt3__121piecewise_construct_tE",
   "size" : 1,
   "source_file" : "/external/libcxx/include/utility"
  },
  {
   "alignment" : 4,
   "is_const" : true,
   "linker_set_key" : "_ZTIKNSt3__122__compressed_pair_elemINS_12basic_stringIDiNS_11char_traitsIDiEENS_9allocatorIDiEEE5__repELi0ELb0EEE",
   "name" : "const std::__compressed_pair_elem<std::basic_string<char32_t, char_traits<char32_t>, allocator<char32_t> >::__rep, 0, false>",
   "referenced_type" : "_ZTINSt3__122__compressed_pair_elemINS_12basic_stringIDiNS_11char_traitsIDiEENS_9allocatorIDiEEE5__repELi0ELb0EEE",
   "self_type" : "_ZTIKNSt3__122__compressed_pair_elemINS_12basic_stringIDiNS_11char_traitsIDiEENS_9allocatorIDiEEE5__repELi0ELb0EEE",
   "size" : 12,
   "source_file" : "/external/libcxx/include/type_traits"
  },
  {
   "alignment" : 4,
   "is_const" : true,
   "linker_set_key" : "_ZTIKNSt3__122__compressed_pair_elemINS_12basic_stringIDsNS_11char_traitsIDsEENS_9allocatorIDsEEE5__repELi0ELb0EEE",
   "name" : "const std::__compressed_pair_elem<std::basic_string<char16_t, char_traits<char16_t>, allocator<char16_t> >::__rep, 0, false>",
   "referenced_type" : "_ZTINSt3__122__compressed_pair_elemINS_12basic_stringIDsNS_11char_traitsIDsEENS_9allocatorIDsEEE5__repELi0ELb0EEE",
   "self_type" : "_ZTIKNSt3__122__compressed_pair_elemINS_12basic_stringIDsNS_11char_traitsIDsEENS_9allocatorIDsEEE5__repELi0ELb0EEE",
   "size" : 12,
   "source_file" : "/external/libcxx/include/type_traits"
  },
  {
   "alignment" : 4,
   "is_const" : true,
   "linker_set_key" : "_ZTIKNSt3__122__compressed_pair_elemINS_12basic_stringIcNS_11char_traitsIcEENS_9allocatorIcEEE5__repELi0ELb0EEE",
   "name" : "const std::__compressed_pair_elem<std::basic_string<char>::__rep, 0, false>",
   "referenced_type" : "_ZTINSt3__122__compressed_pair_elemINS_12basic_stringIcNS_11char_traitsIcEENS_9allocatorIcEEE5__repELi0ELb0EEE",
   "self_type" : "_ZTIKNSt3__122__compressed_pair_elemINS_12basic_stringIcNS_11char_traitsIcEENS_9allocatorIcEEE5__repELi0ELb0EEE",
   "size" : 12,
   "source_file" : "/external/libcxx/include/type_traits"
  },
  {
   "alignment" : 4,
   "is_const" : true,
   "linker_set_key" : "_ZTIKNSt3__122__compressed_pair_elemINS_12basic_stringIwNS_11char_traitsIwEENS_9allocatorIwEEE5__repELi0ELb0EEE",
   "name" : "const std::__compressed_pair_elem<std::basic_string<wchar_t>::__rep, 0, false>",
   "referenced_type" : "_ZTINSt3__122__compressed_pair_elemINS_12basic_stringIwNS_11char_traitsIwEENS_9allocatorIwEEE5__repELi0ELb0EEE",
   "self_type" : "_ZTIKNSt3__122__compressed_pair_elemINS_12basic_stringIwNS_11char_traitsIwEENS_9allocatorIwEEE5__repELi0ELb0EEE",
   "size" : 12,
   "source_file" : "/external/libcxx/include/type_traits"
  },
  {
   "alignment" : 1,
   "is_const" : true,
   "linker_set_key" : "_ZTIKNSt3__122__compressed_pair_elemINS_9allocatorIDiEELi1ELb1EEE",
   "name" : "const std::__compressed_pair_elem<std::allocator<char32_t>, 1, true>",
   "referenced_type" : "_ZTINSt3__122__compressed_pair_elemINS_9allocatorIDiEELi1ELb1EEE",
   "self_type" : "_ZTIKNSt3__122__compressed_pair_elemINS_9allocatorIDiEELi1ELb1EEE",
   "size" : 1,
   "source_file" : "/external/libcxx/include/type_traits"
  },
  {
   "alignment" : 1,
   "is_const" : true,
   "linker_set_key" : "_ZTIKNSt3__122__compressed_pair_elemINS_9allocatorIDsEELi1ELb1EEE",
   "name" : "const std::__compressed_pair_elem<std::allocator<char16_t>, 1, true>",
   "referenced_type" : "_ZTINSt3__122__compressed_pair_elemINS_9allocatorIDsEELi1ELb1EEE",
   "self_type" : "_ZTIKNSt3__122__compressed_pair_elemINS_9allocatorIDsEELi1ELb1EEE",
   "size" : 1,
   "source_file" : "/external/libcxx/include/type_traits"
  },
  {
   "alignment" : 1,
   "is_const" : true,
   "linker_set_key" : "_ZTIKNSt3__122__compressed_pair_elemINS_9allocatorIcEELi1ELb1EEE",
   "name" : "const std::__compressed_pair_elem<std::allocator<char>, 1, true>",
   "referenced_type" : "_ZTINSt3__122__compressed_pair_elemINS_9allocatorIcEELi1ELb1EEE",
   "self_type" : "_ZTIKNSt3__122__compressed_pair_elemINS_9allocatorIcEELi1ELb1EEE",
   "size" : 1,
   "source_file" : "/external/libcxx/include/type_traits"
  },
  {
   "alignment" : 1,
   "is_const" : true,
   "linker_set_key" : "_ZTIKNSt3__122__compressed_pair_elemINS_9allocatorIwEELi1ELb1EEE",
   "name" : "const std::__compressed_pair_elem<std::allocator<wchar_t>, 1, true>",
   "referenced_type" : "_ZTINSt3__122__compressed_pair_elemINS_9allocatorIwEELi1ELb1EEE",
   "self_type" : "_ZTIKNSt3__122__compressed_pair_elemINS_9allocatorIwEELi1ELb1EEE",
   "size" : 1,
   "source_file" : "/external/libcxx/include/type_traits"
  },
  {
   "alignment" : 4,
   "is_const" : true,
   "linker_set_key" : "_ZTIKNSt3__122__compressed_pair_elemIPFvPvELi1ELb0EEE",
   "name" : "const std::__compressed_pair_elem<void (*)(void *), 1, false>",
   "referenced_type" : "_ZTINSt3__122__compressed_pair_elemIPFvPvELi1ELb0EEE",
   "self_type" : "_ZTIKNSt3__122__compressed_pair_elemIPFvPvELi1ELb0EEE",
   "size" : 4,
   "source_file" : "/external/libcxx/include/type_traits"
  },
  {
   "alignment" : 4,
   "is_const" : true,
   "linker_set_key" : "_ZTIKNSt3__122__compressed_pair_elemIPcLi0ELb0EEE",
   "name" : "const std::__compressed_pair_elem<char *, 0, false>",
   "referenced_type" : "_ZTINSt3__122__compressed_pair_elemIPcLi0ELb0EEE",
   "self_type" : "_ZTIKNSt3__122__compressed_pair_elemIPcLi0ELb0EEE",
   "size" : 4,
   "source_file" : "/external/libcxx/include/type_traits"
  },
  {
   "alignment" : 4,
   "is_const" : true,
   "linker_set_key" : "_ZTIKNSt3__122__compressed_pair_elemIPhLi0ELb0EEE",
   "name" : "const std::__compressed_pair_elem<unsigned char *, 0, false>",
   "referenced_type" : "_ZTINSt3__122__compressed_pair_elemIPhLi0ELb0EEE",
   "self_type" : "_ZTIKNSt3__122__compressed_pair_elemIPhLi0ELb0EEE",
   "size" : 4,
   "source_file" : "/external/libcxx/include/type_traits"
  },
  {
   "alignment" : 4,
   "is_const" : true,
   "linker_set_key" : "_ZTIKNSt3__122__compressed_pair_elemIPjLi0ELb0EEE",
   "name" : "const std::__compressed_pair_elem<unsigned int *, 0, false>",
   "referenced_type" : "_ZTINSt3__122__compressed_pair_elemIPjLi0ELb0EEE",
   "self_type" : "_ZTIKNSt3__122__compressed_pair_elemIPjLi0ELb0EEE",
   "size" : 4,
   "source_file" : "/external/libcxx/include/type_traits"
  },
  {
   "is_const" : true,
   "linker_set_key" : "_ZTIKNSt3__124uniform_int_distribution10param_typeE",
   "name" : "const class std::__1::uniform_int_distribution::param_type",
   "referenced_type" : "_ZTINSt3__124uniform_int_distribution10param_typeE",
   "self_type" : "_ZTIKNSt3__124uniform_int_distribution10param_typeE",
   "source_file" : "/external/libcxx/include/algorithm"
  },
  {
   "is_const" : true,
   "linker_set_key" : "_ZTIKNSt3__124uniform_int_distributionIT_EE",
   "name" : "const uniform_int_distribution<_IntType>",
   "referenced_type" : "_ZTINSt3__124uniform_int_distributionIT_EE",
   "self_type" : "_ZTIKNSt3__124uniform_int_distributionIT_EE",
   "source_file" : "/external/libcxx/include/algorithm"
  },
  {
   "alignment" : 8,
   "is_const" : true,
   "linker_set_key" : "_ZTIKNSt3__14fposI9mbstate_tEE",
   "name" : "const std::fpos<mbstate_t>",
   "referenced_type" : "_ZTINSt3__14fposI9mbstate_tEE",
   "self_type" : "_ZTIKNSt3__14fposI9mbstate_tEE",
   "size" : 16,
   "source_file" : "/external/libcxx/include/string"
  },
  {
   "alignment" : 1,
   "is_const" : true,
   "linker_set_key" : "_ZTIKNSt3__14hashIDiEE",
   "name" : "const std::hash<char32_t>",
   "referenced_type" : "_ZTINSt3__14hashIDiEE",
   "self_type" : "_ZTIKNSt3__14hashIDiEE",
   "size" : 1,
   "source_file" : "/external/libcxx/include/utility"
  },
  {
   "alignment" : 1,
   "is_const" : true,
   "linker_set_key" : "_ZTIKNSt3__14hashIDnEE",
   "name" : "const std::hash<nullptr_t>",
   "referenced_type" : "_ZTINSt3__14hashIDnEE",
   "self_type" : "_ZTIKNSt3__14hashIDnEE",
   "size" : 1,
   "source_file" : "/external/libcxx/include/utility"
  },
  {
   "alignment" : 1,
   "is_const" : true,
   "linker_set_key" : "_ZTIKNSt3__14hashIDsEE",
   "name" : "const std::hash<char16_t>",
   "referenced_type" : "_ZTINSt3__14hashIDsEE",
   "self_type" : "_ZTIKNSt3__14hashIDsEE",
   "size" : 1,
   "source_file" : "/external/libcxx/include/utility"
  },
  {
   "alignment" : 1,
   "is_const" : true,
   "linker_set_key" : "_ZTIKNSt3__14hashINS_10error_codeEEE",
   "name" : "const std::hash<std::error_code>",
   "referenced_type" : "_ZTINSt3__14hashINS_10error_codeEEE",
   "self_type" : "_ZTIKNSt3__14hashINS_10error_codeEEE",
   "size" : 1,
   "source_file" : "/external/libcxx/include/system_error"
  },
  {
   "alignment" : 1,
   "is_const" : true,
   "linker_set_key" : "_ZTIKNSt3__14hashINS_15error_conditionEEE",
   "name" : "const std::hash<std::error_condition>",
   "referenced_type" : "_ZTINSt3__14hashINS_15error_conditionEEE",
   "self_type" : "_ZTIKNSt3__14hashINS_15error_conditionEEE",
   "size" : 1,
   "source_file" : "/external/libcxx/include/system_error"
  },
  {
   "alignment" : 1,
   "is_const" : true,
   "linker_set_key" : "_ZTIKNSt3__14hashIaEE",
   "name" : "const std::hash<signed char>",
   "referenced_type" : "_ZTINSt3__14hashIaEE",
   "self_type" : "_ZTIKNSt3__14hashIaEE",
   "size" : 1,
   "source_file" : "/external/libcxx/include/utility"
  },
  {
   "alignment" : 1,
   "is_const" : true,
   "linker_set_key" : "_ZTIKNSt3__14hashIbEE",
   "name" : "const std::hash<bool>",
   "referenced_type" : "_ZTINSt3__14hashIbEE",
   "self_type" : "_ZTIKNSt3__14hashIbEE",
   "size" : 1,
   "source_file" : "/external/libcxx/include/utility"
  },
  {
   "alignment" : 1,
   "is_const" : true,
   "linker_set_key" : "_ZTIKNSt3__14hashIcEE",
   "name" : "const std::hash<char>",
   "referenced_type" : "_ZTINSt3__14hashIcEE",
   "self_type" : "_ZTIKNSt3__14hashIcEE",
   "size" : 1,
   "source_file" : "/external/libcxx/include/utility"
  },
  {
   "alignment" : 1,
   "is_const" : true,
   "linker_set_key" : "_ZTIKNSt3__14hashIdEE",
   "name" : "const std::hash<double>",
   "referenced_type" : "_ZTINSt3__14hashIdEE",
   "self_type" : "_ZTIKNSt3__14hashIdEE",
   "size" : 1,
   "source_file" : "/external/libcxx/include/utility"
  },
  {
   "alignment" : 1,
   "is_const" : true,
   "linker_set_key" : "_ZTIKNSt3__14hashIeEE",
   "name" : "const std::hash<long double>",
   "referenced_type" : "_ZTINSt3__14hashIeEE",
   "self_type" : "_ZTIKNSt3__14hashIeEE",
   "size" : 1,
   "source_file" : "/external/libcxx/include/utility"
  },
  {
   "alignment" : 1,
   "is_const" : true,
   "linker_set_key" : "_ZTIKNSt3__14hashIfEE",
   "name" : "const std::hash<float>",
   "referenced_type" : "_ZTINSt3__14hashIfEE",
   "self_type" : "_ZTIKNSt3__14hashIfEE",
   "size" : 1,
   "source_file" : "/external/libcxx/include/utility"
  },
  {
   "alignment" : 1,
   "is_const" : true,
   "linker_set_key" : "_ZTIKNSt3__14hashIhEE",
   "name" : "const std::hash<unsigned char>",
   "referenced_type" : "_ZTINSt3__14hashIhEE",
   "self_type" : "_ZTIKNSt3__14hashIhEE",
   "size" : 1,
   "source_file" : "/external/libcxx/include/utility"
  },
  {
   "alignment" : 1,
   "is_const" : true,
   "linker_set_key" : "_ZTIKNSt3__14hashIiEE",
   "name" : "const std::hash<int>",
   "referenced_type" : "_ZTINSt3__14hashIiEE",
   "self_type" : "_ZTIKNSt3__14hashIiEE",
   "size" : 1,
   "source_file" : "/external/libcxx/include/utility"
  },
  {
   "alignment" : 1,
   "is_const" : true,
   "linker_set_key" : "_ZTIKNSt3__14hashIjEE",
   "name" : "const std::hash<unsigned int>",
   "referenced_type" : "_ZTINSt3__14hashIjEE",
   "self_type" : "_ZTIKNSt3__14hashIjEE",
   "size" : 1,
   "source_file" : "/external/libcxx/include/utility"
  },
  {
   "alignment" : 1,
   "is_const" : true,
   "linker_set_key" : "_ZTIKNSt3__14hashIlEE",
   "name" : "const std::hash<long>",
   "referenced_type" : "_ZTINSt3__14hashIlEE",
   "self_type" : "_ZTIKNSt3__14hashIlEE",
   "size" : 1,
   "source_file" : "/external/libcxx/include/utility"
  },
  {
   "alignment" : 1,
   "is_const" : true,
   "linker_set_key" : "_ZTIKNSt3__14hashImEE",
   "name" : "const std::hash<unsigned long>",
   "referenced_type" : "_ZTINSt3__14hashImEE",
   "self_type" : "_ZTIKNSt3__14hashImEE",
   "size" : 1,
   "source_file" : "/external/libcxx/include/utility"
  },
  {
   "alignment" : 1,
   "is_const" : true,
   "linker_set_key" : "_ZTIKNSt3__14hashIsEE",
   "name" : "const std::hash<short>",
   "referenced_type" : "_ZTINSt3__14hashIsEE",
   "self_type" : "_ZTIKNSt3__14hashIsEE",
   "size" : 1,
   "source_file" : "/external/libcxx/include/utility"
  },
  {
   "alignment" : 1,
   "is_const" : true,
   "linker_set_key" : "_ZTIKNSt3__14hashItEE",
   "name" : "const std::hash<unsigned short>",
   "referenced_type" : "_ZTINSt3__14hashItEE",
   "self_type" : "_ZTIKNSt3__14hashItEE",
   "size" : 1,
   "source_file" : "/external/libcxx/include/utility"
  },
  {
   "alignment" : 1,
   "is_const" : true,
   "linker_set_key" : "_ZTIKNSt3__14hashIwEE",
   "name" : "const std::hash<wchar_t>",
   "referenced_type" : "_ZTINSt3__14hashIwEE",
   "self_type" : "_ZTIKNSt3__14hashIwEE",
   "size" : 1,
   "source_file" : "/external/libcxx/include/utility"
  },
  {
   "alignment" : 4,
   "is_const" : true,
   "linker_set_key" : "_ZTIKNSt3__15arrayIN7android4hidl4base4V1_09DebugInfo12ArchitectureELj3EEE",
   "name" : "const std::array<android::hidl::base::V1_0::DebugInfo::Architecture, 3>",
   "referenced_type" : "_ZTINSt3__15arrayIN7android4hidl4base4V1_09DebugInfo12ArchitectureELj3EEE",
   "self_type" : "_ZTIKNSt3__15arrayIN7android4hidl4base4V1_09DebugInfo12ArchitectureELj3EEE",
   "size" : 12,
   "source_file" : "/out/soong/.intermediates/system/libhidl/transport/base/1.0/android.hidl.base@1.0_genc++_headers/gen/android/hidl/base/1.0/types.h"
  },
  {
   "alignment" : 4,
   "is_const" : true,
   "linker_set_key" : "_ZTIKNSt3__15ctypeIcEE",
   "name" : "const std::ctype<char>",
   "referenced_type" : "_ZTINSt3__15ctypeIcEE",
   "self_type" : "_ZTIKNSt3__15ctypeIcEE",
   "size" : 16,
   "source_file" : "/external/libcxx/include/__locale"
  },
  {
   "alignment" : 4,
   "is_const" : true,
   "linker_set_key" : "_ZTIKNSt3__15ctypeIwEE",
   "name" : "const std::ctype<wchar_t>",
   "referenced_type" : "_ZTINSt3__15ctypeIwEE",
   "self_type" : "_ZTIKNSt3__15ctypeIwEE",
   "size" : 8,
   "source_file" : "/external/libcxx/include/__locale"
  },
  {
   "alignment" : 1,
   "is_const" : true,
   "linker_set_key" : "_ZTIKNSt3__16__lessIPcS1_EE",
   "name" : "const std::__less<char *, char *>",
   "referenced_type" : "_ZTINSt3__16__lessIPcS1_EE",
   "self_type" : "_ZTIKNSt3__16__lessIPcS1_EE",
   "size" : 1,
   "source_file" : "/external/libcxx/include/algorithm"
  },
  {
   "alignment" : 1,
   "is_const" : true,
   "linker_set_key" : "_ZTIKNSt3__16__lessIiiEE",
   "name" : "const std::__less<int, int>",
   "referenced_type" : "_ZTINSt3__16__lessIiiEE",
   "self_type" : "_ZTIKNSt3__16__lessIiiEE",
   "size" : 1,
   "source_file" : "/external/libcxx/include/algorithm"
  },
  {
   "alignment" : 1,
   "is_const" : true,
   "linker_set_key" : "_ZTIKNSt3__16__lessIjjEE",
   "name" : "const std::__less<unsigned int, unsigned int>",
   "referenced_type" : "_ZTINSt3__16__lessIjjEE",
   "self_type" : "_ZTIKNSt3__16__lessIjjEE",
   "size" : 1,
   "source_file" : "/external/libcxx/include/algorithm"
  },
  {
   "alignment" : 8,
   "is_const" : true,
   "linker_set_key" : "_ZTIKNSt3__16chrono10time_pointINS0_12steady_clockENS0_8durationIxNS_5ratioILx1ELx1000000000EEEEEEE",
   "name" : "const std::chrono::time_point<std::chrono::steady_clock, std::chrono::duration<long long, std::ratio<1, 1000000000> > >",
   "referenced_type" : "_ZTINSt3__16chrono10time_pointINS0_12steady_clockENS0_8durationIxNS_5ratioILx1ELx1000000000EEEEEEE",
   "self_type" : "_ZTIKNSt3__16chrono10time_pointINS0_12steady_clockENS0_8durationIxNS_5ratioILx1ELx1000000000EEEEEEE",
   "size" : 8,
   "source_file" : "/external/libcxx/include/chrono"
  },
  {
   "alignment" : 8,
   "is_const" : true,
   "linker_set_key" : "_ZTIKNSt3__16chrono10time_pointINS0_12system_clockENS0_8durationIxNS_5ratioILx1ELx1000000000EEEEEEE",
   "name" : "const std::chrono::time_point<std::chrono::system_clock, std::chrono::duration<long long, std::ratio<1, 1000000000> > >",
   "referenced_type" : "_ZTINSt3__16chrono10time_pointINS0_12system_clockENS0_8durationIxNS_5ratioILx1ELx1000000000EEEEEEE",
   "self_type" : "_ZTIKNSt3__16chrono10time_pointINS0_12system_clockENS0_8durationIxNS_5ratioILx1ELx1000000000EEEEEEE",
   "size" : 8,
   "source_file" : "/external/libcxx/include/chrono"
  },
  {
   "alignment" : 8,
   "is_const" : true,
   "linker_set_key" : "_ZTIKNSt3__16chrono10time_pointINS_4__fs10filesystem16_FilesystemClockENS0_8durationIxNS_5ratioILx1ELx1000000000EEEEEEE",
   "name" : "const std::chrono::time_point<std::filesystem::_FilesystemClock, std::chrono::duration<long long, std::ratio<1, 1000000000> > >",
   "referenced_type" : "_ZTINSt3__16chrono10time_pointINS_4__fs10filesystem16_FilesystemClockENS0_8durationIxNS_5ratioILx1ELx1000000000EEEEEEE",
   "self_type" : "_ZTIKNSt3__16chrono10time_pointINS_4__fs10filesystem16_FilesystemClockENS0_8durationIxNS_5ratioILx1ELx1000000000EEEEEEE",
   "size" : 8,
   "source_file" : "/external/libcxx/include/chrono"
  },
  {
   "alignment" : 1,
   "is_const" : true,
   "linker_set_key" : "_ZTIKNSt3__16chrono15__duration_castINS0_8durationIxNS_5ratioILx1ELx1000000000EEEEENS2_IeS4_EENS3_ILx1ELx1EEELb1ELb1EEE",
   "name" : "const std::chrono::__duration_cast<std::chrono::duration<long long, std::ratio<1, 1000000000> >, std::chrono::duration<long double, std::ratio<1, 1000000000> >, std::ratio<1, 1>, true, true>",
   "referenced_type" : "_ZTINSt3__16chrono15__duration_castINS0_8durationIxNS_5ratioILx1ELx1000000000EEEEENS2_IeS4_EENS3_ILx1ELx1EEELb1ELb1EEE",
   "self_type" : "_ZTIKNSt3__16chrono15__duration_castINS0_8durationIxNS_5ratioILx1ELx1000000000EEEEENS2_IeS4_EENS3_ILx1ELx1EEELb1ELb1EEE",
   "size" : 1,
   "source_file" : "/external/libcxx/include/chrono"
  },
  {
   "alignment" : 1,
   "is_const" : true,
   "linker_set_key" : "_ZTIKNSt3__16chrono15__duration_castINS0_8durationIxNS_5ratioILx1ELx1000000000EEEEENS2_IxNS3_ILx1ELx1EEEEES4_Lb1ELb0EEE",
   "name" : "const std::chrono::__duration_cast<std::chrono::duration<long long, std::ratio<1, 1000000000> >, std::chrono::duration<long long, std::ratio<1, 1> >, std::ratio<1, 1000000000>, true, false>",
   "referenced_type" : "_ZTINSt3__16chrono15__duration_castINS0_8durationIxNS_5ratioILx1ELx1000000000EEEEENS2_IxNS3_ILx1ELx1EEEEES4_Lb1ELb0EEE",
   "self_type" : "_ZTIKNSt3__16chrono15__duration_castINS0_8durationIxNS_5ratioILx1ELx1000000000EEEEENS2_IxNS3_ILx1ELx1EEEEES4_Lb1ELb0EEE",
   "size" : 1,
   "source_file" : "/external/libcxx/include/chrono"
  },
  {
   "alignment" : 1,
   "is_const" : true,
   "linker_set_key" : "_ZTIKNSt3__16chrono15__duration_castINS0_8durationIxNS_5ratioILx1ELx1EEEEENS2_IxNS3_ILx1ELx1000000000EEEEENS3_ILx1000000000ELx1EEELb0ELb1EEE",
   "name" : "const std::chrono::__duration_cast<std::chrono::duration<long long, std::ratio<1, 1> >, std::chrono::duration<long long, std::ratio<1, 1000000000> >, std::ratio<1000000000, 1>, false, true>",
   "referenced_type" : "_ZTINSt3__16chrono15__duration_castINS0_8durationIxNS_5ratioILx1ELx1EEEEENS2_IxNS3_ILx1ELx1000000000EEEEENS3_ILx1000000000ELx1EEELb0ELb1EEE",
   "self_type" : "_ZTIKNSt3__16chrono15__duration_castINS0_8durationIxNS_5ratioILx1ELx1EEEEENS2_IxNS3_ILx1ELx1000000000EEEEENS3_ILx1000000000ELx1EEELb0ELb1EEE",
   "size" : 1,
   "source_file" : "/external/libcxx/include/chrono"
  },
  {
   "alignment" : 8,
   "is_const" : true,
   "linker_set_key" : "_ZTIKNSt3__16chrono8durationIeNS_5ratioILx1ELx1000000000EEEEE",
   "name" : "const std::chrono::duration<long double, std::ratio<1, 1000000000> >",
   "referenced_type" : "_ZTINSt3__16chrono8durationIeNS_5ratioILx1ELx1000000000EEEEE",
   "self_type" : "_ZTIKNSt3__16chrono8durationIeNS_5ratioILx1ELx1000000000EEEEE",
   "size" : 8,
   "source_file" : "/external/libcxx/include/chrono"
  },
  {
   "alignment" : 8,
   "is_const" : true,
   "linker_set_key" : "_ZTIKNSt3__16chrono8durationIxNS_5ratioILx1ELx1000000000EEEEE",
   "name" : "const std::chrono::duration<long long, std::ratio<1, 1000000000> >",
   "referenced_type" : "_ZTINSt3__16chrono8durationIxNS_5ratioILx1ELx1000000000EEEEE",
   "self_type" : "_ZTIKNSt3__16chrono8durationIxNS_5ratioILx1ELx1000000000EEEEE",
   "size" : 8,
   "source_file" : "/external/libcxx/include/chrono"
  },
  {
   "alignment" : 8,
   "is_const" : true,
   "linker_set_key" : "_ZTIKNSt3__16chrono8durationIxNS_5ratioILx1ELx1EEEEE",
   "name" : "const std::chrono::duration<long long, std::ratio<1, 1> >",
   "referenced_type" : "_ZTINSt3__16chrono8durationIxNS_5ratioILx1ELx1EEEEE",
   "self_type" : "_ZTIKNSt3__16chrono8durationIxNS_5ratioILx1ELx1EEEEE",
   "size" : 8,
   "source_file" : "/external/libcxx/include/chrono"
  },
  {
   "alignment" : 4,
   "is_const" : true,
   "linker_set_key" : "_ZTIKNSt3__16localeE",
   "name" : "const std::locale",
   "referenced_type" : "_ZTINSt3__16localeE",
   "self_type" : "_ZTIKNSt3__16localeE",
   "size" : 4,
   "source_file" : "/external/libcxx/include/__locale"
  },
  {
   "alignment" : 4,
   "is_const" : true,
   "linker_set_key" : "_ZTIKNSt3__16vectorINS_8functionIFvN7android8hardware7details16HidlInstrumentor20InstrumentationEventEPKcS8_S8_S8_PNS0_IPvNS_9allocatorIS9_EEEEEEENSA_ISF_EEEE",
   "name" : "const std::vector<std::function<void (InstrumentationEvent, const char *, const char *, const char *, const char *, vector<void *, allocator<void *> > *)>, std::allocator<std::function<void (InstrumentationEvent, const char *, const char *, const char *, const char *, vector<void *, allocator<void *> > *)> > >",
   "referenced_type" : "_ZTINSt3__16vectorINS_8functionIFvN7android8hardware7details16HidlInstrumentor20InstrumentationEventEPKcS8_S8_S8_PNS0_IPvNS_9allocatorIS9_EEEEEEENSA_ISF_EEEE",
   "self_type" : "_ZTIKNSt3__16vectorINS_8functionIFvN7android8hardware7details16HidlInstrumentor20InstrumentationEventEPKcS8_S8_S8_PNS0_IPvNS_9allocatorIS9_EEEEEEENSA_ISF_EEEE",
   "size" : 12,
   "source_file" : "/system/libhidl/base/include/hidl/HidlInternal.h"
  },
  {
   "alignment" : 4,
   "is_const" : true,
   "linker_set_key" : "_ZTIKNSt3__17codecvtIDic9mbstate_tEE",
   "name" : "const std::codecvt<char32_t, char, mbstate_t>",
   "referenced_type" : "_ZTINSt3__17codecvtIDic9mbstate_tEE",
   "self_type" : "_ZTIKNSt3__17codecvtIDic9mbstate_tEE",
   "size" : 8,
   "source_file" : "/external/libcxx/include/__locale"
  },
  {
   "alignment" : 4,
   "is_const" : true,
   "linker_set_key" : "_ZTIKNSt3__17codecvtIDsc9mbstate_tEE",
   "name" : "const std::codecvt<char16_t, char, mbstate_t>",
   "referenced_type" : "_ZTINSt3__17codecvtIDsc9mbstate_tEE",
   "self_type" : "_ZTIKNSt3__17codecvtIDsc9mbstate_tEE",
   "size" : 8,
   "source_file" : "/external/libcxx/include/__locale"
  },
  {
   "alignment" : 4,
   "is_const" : true,
   "linker_set_key" : "_ZTIKNSt3__17codecvtIcc9mbstate_tEE",
   "name" : "const std::codecvt<char, char, mbstate_t>",
   "referenced_type" : "_ZTINSt3__17codecvtIcc9mbstate_tEE",
   "self_type" : "_ZTIKNSt3__17codecvtIcc9mbstate_tEE",
   "size" : 8,
   "source_file" : "/external/libcxx/include/__locale"
  },
  {
   "alignment" : 4,
   "is_const" : true,
   "linker_set_key" : "_ZTIKNSt3__17codecvtIwc9mbstate_tEE",
   "name" : "const std::codecvt<wchar_t, char, mbstate_t>",
   "referenced_type" : "_ZTINSt3__17codecvtIwc9mbstate_tEE",
   "self_type" : "_ZTIKNSt3__17codecvtIwc9mbstate_tEE",
   "size" : 12,
   "source_file" : "/external/libcxx/include/__locale"
  },
  {
   "alignment" : 1,
   "is_const" : true,
   "linker_set_key" : "_ZTIKNSt3__18__bitsetILj0ELj0EEE",
   "name" : "const std::__bitset<0, 0>",
   "referenced_type" : "_ZTINSt3__18__bitsetILj0ELj0EEE",
   "self_type" : "_ZTIKNSt3__18__bitsetILj0ELj0EEE",
   "size" : 1,
   "source_file" : "/external/libcxx/include/bitset"
  },
  {
   "is_const" : true,
   "linker_set_key" : "_ZTIKNSt3__18functionIFvN7android8hardware7details16HidlInstrumentor20InstrumentationEventEPKcS7_S7_S7_PNS_6vectorIPvNS_9allocatorIS9_EEEEEEE",
   "name" : "const std::function<void (InstrumentationEvent, const char *, const char *, const char *, const char *, vector<void *, allocator<void *> > *)>",
   "referenced_type" : "_ZTINSt3__18functionIFvN7android8hardware7details16HidlInstrumentor20InstrumentationEventEPKcS7_S7_S7_PNS_6vectorIPvNS_9allocatorIS9_EEEEEEE",
   "self_type" : "_ZTIKNSt3__18functionIFvN7android8hardware7details16HidlInstrumentor20InstrumentationEventEPKcS7_S7_S7_PNS_6vectorIPvNS_9allocatorIS9_EEEEEEE",
   "source_file" : "/external/libcxx/include/type_traits"
  },
  {
   "alignment" : 4,
   "is_const" : true,
   "linker_set_key" : "_ZTIKNSt3__18ios_baseE",
   "name" : "const std::ios_base",
   "referenced_type" : "_ZTINSt3__18ios_baseE",
   "self_type" : "_ZTIKNSt3__18ios_baseE",
   "size" : 72,
   "source_file" : "/external/libcxx/include/ios"
  },
  {
   "alignment" : 4,
   "is_const" : true,
   "linker_set_key" : "_ZTIKNSt3__18numpunctIcEE",
   "name" : "const std::numpunct<char>",
   "referenced_type" : "_ZTINSt3__18numpunctIcEE",
   "self_type" : "_ZTIKNSt3__18numpunctIcEE",
   "size" : 24,
   "source_file" : "/external/libcxx/include/__locale"
  },
  {
   "alignment" : 4,
   "is_const" : true,
   "linker_set_key" : "_ZTIKNSt3__18numpunctIwEE",
   "name" : "const std::numpunct<wchar_t>",
   "referenced_type" : "_ZTINSt3__18numpunctIwEE",
   "self_type" : "_ZTIKNSt3__18numpunctIwEE",
   "size" : 28,
   "source_file" : "/external/libcxx/include/__locale"
  },
  {
   "alignment" : 1,
   "is_const" : true,
   "linker_set_key" : "_ZTIKNSt3__19allocatorIDiEE",
   "name" : "const std::allocator<char32_t>",
   "referenced_type" : "_ZTINSt3__19allocatorIDiEE",
   "self_type" : "_ZTIKNSt3__19allocatorIDiEE",
   "size" : 1,
   "source_file" : "/external/libcxx/include/memory"
  },
  {
   "alignment" : 1,
   "is_const" : true,
   "linker_set_key" : "_ZTIKNSt3__19allocatorIDsEE",
   "name" : "const std::allocator<char16_t>",
   "referenced_type" : "_ZTINSt3__19allocatorIDsEE",
   "self_type" : "_ZTIKNSt3__19allocatorIDsEE",
   "size" : 1,
   "source_file" : "/external/libcxx/include/memory"
  },
  {
   "alignment" : 1,
   "is_const" : true,
   "linker_set_key" : "_ZTIKNSt3__19allocatorIcEE",
   "name" : "const std::allocator<char>",
   "referenced_type" : "_ZTINSt3__19allocatorIcEE",
   "self_type" : "_ZTIKNSt3__19allocatorIcEE",
   "size" : 1,
   "source_file" : "/external/libcxx/include/type_traits"
  },
  {
   "alignment" : 1,
   "is_const" : true,
   "linker_set_key" : "_ZTIKNSt3__19allocatorIwEE",
   "name" : "const std::allocator<wchar_t>",
   "referenced_type" : "_ZTINSt3__19allocatorIwEE",
   "self_type" : "_ZTIKNSt3__19allocatorIwEE",
   "size" : 1,
   "source_file" : "/external/libcxx/include/memory"
  },
  {
   "alignment" : 4,
   "is_const" : true,
   "linker_set_key" : "_ZTIKNSt3__19basic_iosIcNS_11char_traitsIcEEEE",
   "name" : "const std::basic_ios<char, std::char_traits<char> >",
   "referenced_type" : "_ZTINSt3__19basic_iosIcNS_11char_traitsIcEEEE",
   "self_type" : "_ZTIKNSt3__19basic_iosIcNS_11char_traitsIcEEEE",
   "size" : 80,
   "source_file" : "/external/libcxx/include/ios"
  },
  {
   "alignment" : 1,
   "is_const" : true,
   "linker_set_key" : "_ZTIKNSt3__19nullopt_tE",
   "name" : "const std::nullopt_t",
   "referenced_type" : "_ZTINSt3__19nullopt_tE",
   "self_type" : "_ZTIKNSt3__19nullopt_tE",
   "size" : 1,
   "source_file" : "/external/libcxx/include/optional"
  },
  {
   "alignment" : 4,
   "is_const" : true,
   "linker_set_key" : "_ZTIKPFPvPKvE",
   "name" : "void *(*const)(const void *)",
   "referenced_type" : "_ZTIPFPvPKvE",
   "self_type" : "_ZTIKPFPvPKvE",
   "size" : 4,
   "source_file" : "/external/libcxx/include/functional"
  },
  {
   "alignment" : 4,
   "is_const" : true,
   "linker_set_key" : "_ZTIKPFvPvE",
   "name" : "void (*const)(void *)",
   "referenced_type" : "_ZTIPFvPvE",
   "self_type" : "_ZTIKPFvPvE",
   "size" : 4,
   "source_file" : "/external/libcxx/include/functional"
  },
  {
   "alignment" : 4,
   "is_const" : true,
   "linker_set_key" : "_ZTIKPKDi",
   "name" : "const char32_t *const",
   "referenced_type" : "_ZTIPKDi",
   "self_type" : "_ZTIKPKDi",
   "size" : 4,
   "source_file" : "/external/libcxx/include/type_traits"
  },
  {
   "alignment" : 4,
   "is_const" : true,
   "linker_set_key" : "_ZTIKPKDs",
   "name" : "const char16_t *const",
   "referenced_type" : "_ZTIPKDs",
   "self_type" : "_ZTIKPKDs",
   "size" : 4,
   "source_file" : "/external/libcxx/include/type_traits"
  },
  {
   "alignment" : 4,
   "is_const" : true,
   "linker_set_key" : "_ZTIKPKSt9type_info",
   "name" : "const std::type_info *const",
   "referenced_type" : "_ZTIPKSt9type_info",
   "self_type" : "_ZTIKPKSt9type_info",
   "size" : 4,
   "source_file" : "/external/libcxx/include/functional"
  },
  {
   "alignment" : 4,
   "is_const" : true,
   "linker_set_key" : "_ZTIKPKc",
   "name" : "const char *const",
   "referenced_type" : "_ZTIPKc",
   "self_type" : "_ZTIKPKc",
   "size" : 4,
   "source_file" : "/external/libcxx/include/type_traits"
  },
  {
   "alignment" : 4,
   "is_const" : true,
   "linker_set_key" : "_ZTIKPKv",
   "name" : "const void *const",
   "referenced_type" : "_ZTIPKv",
   "self_type" : "_ZTIKPKv",
   "size" : 4,
   "source_file" : "/out/soong/.intermediates/bionic/libc/libc.llndk/android_vendor.30_arm_armv8-a_shared/gen/include/string.h"
  },
  {
   "alignment" : 4,
   "is_const" : true,
   "linker_set_key" : "_ZTIKPKw",
   "name" : "const wchar_t *const",
   "referenced_type" : "_ZTIPKw",
   "self_type" : "_ZTIKPKw",
   "size" : 4,
   "source_file" : "/external/libcxx/include/type_traits"
  },
  {
   "alignment" : 4,
   "is_const" : true,
   "linker_set_key" : "_ZTIKPN7android7RefBase12weakref_implE",
   "name" : "android::RefBase::weakref_impl *const",
   "referenced_type" : "_ZTIPN7android7RefBase12weakref_implE",
   "self_type" : "_ZTIKPN7android7RefBase12weakref_implE",
   "size" : 4,
   "source_file" : "/system/core/libutils/include/utils/RefBase.h"
  },
  {
   "alignment" : 4,
   "is_const" : true,
   "linker_set_key" : "_ZTIKPc",
   "name" : "char *const",
   "referenced_type" : "_ZTIPc",
   "self_type" : "_ZTIKPc",
   "size" : 4,
   "source_file" : "/external/libcxx/include/type_traits"
  },
  {
   "alignment" : 4,
   "is_const" : true,
   "linker_set_key" : "_ZTIKPv",
   "name" : "void *const",
   "referenced_type" : "_ZTIPv",
   "self_type" : "_ZTIKPv",
   "size" : 4,
   "source_file" : "/out/soong/.intermediates/bionic/libc/libc.llndk/android_vendor.30_arm_armv8-a_shared/gen/include/string.h"
  },
  {
   "alignment" : 4,
   "is_const" : true,
   "linker_set_key" : "_ZTIKSt13exception_ptr",
   "name" : "const std::exception_ptr",
   "referenced_type" : "_ZTISt13exception_ptr",
   "self_type" : "_ZTIKSt13exception_ptr",
   "size" : 4,
   "source_file" : "/external/libcxx/include/exception"
  },
  {
   "alignment" : 4,
   "is_const" : true,
   "linker_set_key" : "_ZTIKSt16initializer_listIbE",
   "name" : "const std::initializer_list<bool>",
   "referenced_type" : "_ZTISt16initializer_listIbE",
   "self_type" : "_ZTIKSt16initializer_listIbE",
   "size" : 8,
   "source_file" : "/external/libcxx/include/initializer_list"
  },
  {
   "alignment" : 4,
   "is_const" : true,
   "linker_set_key" : "_ZTIKSt16nested_exception",
   "name" : "const std::nested_exception",
   "referenced_type" : "_ZTISt16nested_exception",
   "self_type" : "_ZTIKSt16nested_exception",
   "size" : 8,
   "source_file" : "/external/libcxx/include/exception"
  },
  {
   "alignment" : 1,
   "is_const" : true,
   "linker_set_key" : "_ZTIKSt9nothrow_t",
   "name" : "const std::nothrow_t",
   "referenced_type" : "_ZTISt9nothrow_t",
   "self_type" : "_ZTIKSt9nothrow_t",
   "size" : 1,
   "source_file" : "/external/libcxx/include/new"
  },
  {
   "alignment" : 4,
   "is_const" : true,
   "linker_set_key" : "_ZTIKSt9type_info",
   "name" : "const std::type_info",
   "referenced_type" : "_ZTISt9type_info",
   "self_type" : "_ZTIKSt9type_info",
   "size" : 8,
   "source_file" : "/external/libcxx/include/typeinfo"
  },
  {
   "alignment" : 1,
   "is_const" : true,
   "linker_set_key" : "_ZTIKa",
   "name" : "const signed char",
   "referenced_type" : "_ZTIa",
   "self_type" : "_ZTIKa",
   "size" : 1,
   "source_file" : "/system/core/libutils/include/utils/TypeHelpers.h"
  },
  {
   "alignment" : 1,
   "is_const" : true,
   "linker_set_key" : "_ZTIKb",
   "name" : "const bool",
   "referenced_type" : "_ZTIb",
   "self_type" : "_ZTIKb",
   "size" : 1,
   "source_file" : "/external/libcxx/include/type_traits"
  },
  {
   "alignment" : 1,
   "is_const" : true,
   "linker_set_key" : "_ZTIKc",
   "name" : "const char",
   "referenced_type" : "_ZTIc",
   "self_type" : "_ZTIKc",
   "size" : 1,
   "source_file" : "/external/libcxx/include/type_traits"
  },
  {
   "alignment" : 8,
   "is_const" : true,
   "linker_set_key" : "_ZTIKd",
   "name" : "const double",
   "referenced_type" : "_ZTId",
   "self_type" : "_ZTIKd",
   "size" : 8,
   "source_file" : "/system/core/libutils/include/utils/TypeHelpers.h"
  },
  {
   "alignment" : 8,
   "is_const" : true,
   "linker_set_key" : "_ZTIKe",
   "name" : "const long double",
   "referenced_type" : "_ZTIe",
   "self_type" : "_ZTIKe",
   "size" : 8,
   "source_file" : "/external/libcxx/include/chrono"
  },
  {
   "alignment" : 4,
   "is_const" : true,
   "linker_set_key" : "_ZTIKf",
   "name" : "const float",
   "referenced_type" : "_ZTIf",
   "self_type" : "_ZTIKf",
   "size" : 4,
   "source_file" : "/system/core/libutils/include/utils/TypeHelpers.h"
  },
  {
   "alignment" : 1,
   "is_const" : true,
   "linker_set_key" : "_ZTIKh",
   "name" : "const unsigned char",
   "referenced_type" : "_ZTIh",
   "self_type" : "_ZTIKh",
   "size" : 1,
   "source_file" : "/system/core/libutils/include/utils/TypeHelpers.h"
  },
  {
   "alignment" : 4,
   "is_const" : true,
   "linker_set_key" : "_ZTIKi",
   "name" : "const int",
   "referenced_type" : "_ZTIi",
   "self_type" : "_ZTIKi",
   "size" : 4,
   "source_file" : "/external/libcxx/include/type_traits"
  },
  {
   "alignment" : 4,
   "is_const" : true,
   "linker_set_key" : "_ZTIKj",
   "name" : "const unsigned int",
   "referenced_type" : "_ZTIj",
   "self_type" : "_ZTIKj",
   "size" : 4,
   "source_file" : "/external/libcxx/include/type_traits"
  },
  {
   "alignment" : 4,
   "is_const" : true,
   "linker_set_key" : "_ZTIKl",
   "name" : "const long",
   "referenced_type" : "_ZTIl",
   "self_type" : "_ZTIKl",
   "size" : 4,
   "source_file" : "/external/libcxx/include/limits"
  },
  {
   "alignment" : 4,
   "is_const" : true,
   "linker_set_key" : "_ZTIKm",
   "name" : "const unsigned long",
   "referenced_type" : "_ZTIm",
   "self_type" : "_ZTIKm",
   "size" : 4,
   "source_file" : "/external/libcxx/include/limits"
  },
  {
   "alignment" : 2,
   "is_const" : true,
   "linker_set_key" : "_ZTIKs",
   "name" : "const short",
   "referenced_type" : "_ZTIs",
   "self_type" : "_ZTIKs",
   "size" : 2,
   "source_file" : "/system/core/libutils/include/utils/TypeHelpers.h"
  },
  {
   "alignment" : 2,
   "is_const" : true,
   "linker_set_key" : "_ZTIKt",
   "name" : "const unsigned short",
   "referenced_type" : "_ZTIt",
   "self_type" : "_ZTIKt",
   "size" : 2,
   "source_file" : "/system/core/libutils/include/utils/TypeHelpers.h"
  },
  {
   "is_const" : true,
   "linker_set_key" : "_ZTIKv",
   "name" : "const void",
   "referenced_type" : "_ZTIv",
   "self_type" : "_ZTIKv",
   "source_file" : "/out/soong/.intermediates/bionic/libc/libc.llndk/android_vendor.30_arm_armv8-a_shared/gen/include/string.h"
  },
  {
   "alignment" : 4,
   "is_const" : true,
   "linker_set_key" : "_ZTIKw",
   "name" : "const wchar_t",
   "referenced_type" : "_ZTIw",
   "self_type" : "_ZTIKw",
   "size" : 4,
   "source_file" : "/external/libcxx/include/type_traits"
  },
  {
   "alignment" : 8,
   "is_const" : true,
   "linker_set_key" : "_ZTIKx",
   "name" : "const long long",
   "referenced_type" : "_ZTIx",
   "self_type" : "_ZTIKx",
   "size" : 8,
   "source_file" : "/external/libcxx/include/limits"
  },
  {
   "alignment" : 8,
   "is_const" : true,
   "linker_set_key" : "_ZTIKy",
   "name" : "const unsigned long long",
   "referenced_type" : "_ZTIy",
   "self_type" : "_ZTIKy",
   "size" : 8,
   "source_file" : "/external/libcxx/include/limits"
  },
  {
   "alignment" : 1,
   "is_volatile" : true,
   "linker_set_key" : "_ZTIVNSt3__111atomic_flagE",
   "name" : "volatile std::atomic_flag",
   "referenced_type" : "_ZTINSt3__111atomic_flagE",
   "self_type" : "_ZTIVNSt3__111atomic_flagE",
   "size" : 1,
   "source_file" : "/external/libcxx/include/atomic"
  },
  {
   "alignment" : 4,
   "is_volatile" : true,
   "linker_set_key" : "_ZTIVPFPvS_jPKvE",
   "name" : "void *(*volatile)(void *, unsigned int, const void *)",
   "referenced_type" : "_ZTIPFPvS_jPKvE",
   "self_type" : "_ZTIVPFPvS_jPKvE",
   "size" : 4,
   "source_file" : "/out/soong/.intermediates/bionic/libc/libc.llndk/android_vendor.30_arm_armv8-a_shared/gen/include/malloc.h"
  },
  {
   "alignment" : 4,
   "is_volatile" : true,
   "linker_set_key" : "_ZTIVPFPvjPKvE",
   "name" : "void *(*volatile)(unsigned int, const void *)",
   "referenced_type" : "_ZTIPFPvjPKvE",
   "self_type" : "_ZTIVPFPvjPKvE",
   "size" : 4,
   "source_file" : "/out/soong/.intermediates/bionic/libc/libc.llndk/android_vendor.30_arm_armv8-a_shared/gen/include/malloc.h"
  },
  {
   "alignment" : 4,
   "is_volatile" : true,
   "linker_set_key" : "_ZTIVPFPvjjPKvE",
   "name" : "void *(*volatile)(unsigned int, unsigned int, const void *)",
   "referenced_type" : "_ZTIPFPvjjPKvE",
   "self_type" : "_ZTIVPFPvjjPKvE",
   "size" : 4,
   "source_file" : "/out/soong/.intermediates/bionic/libc/libc.llndk/android_vendor.30_arm_armv8-a_shared/gen/include/malloc.h"
  },
  {
   "alignment" : 4,
   "is_volatile" : true,
   "linker_set_key" : "_ZTIVPFvPvPKvE",
   "name" : "void (*volatile)(void *, const void *)",
   "referenced_type" : "_ZTIPFvPvPKvE",
   "self_type" : "_ZTIVPFvPvPKvE",
   "size" : 4,
   "source_file" : "/out/soong/.intermediates/bionic/libc/libc.llndk/android_vendor.30_arm_armv8-a_shared/gen/include/malloc.h"
  }
 ],
 "record_types" :
 [
  {
   "alignment" : 4,
   "fields" :
   [
    {
     "field_name" : "_kill",
     "referenced_type" : "_ZTIN10__sifieldsUt_E"
    },
    {
     "field_name" : "_timer",
     "referenced_type" : "_ZTIN10__sifieldsUt0_E"
    },
    {
     "field_name" : "_rt",
     "referenced_type" : "_ZTIN10__sifieldsUt1_E"
    },
    {
     "field_name" : "_sigchld",
     "referenced_type" : "_ZTIN10__sifieldsUt2_E"
    },
    {
     "field_name" : "_sigfault",
     "referenced_type" : "_ZTIN10__sifieldsUt3_E"
    },
    {
     "field_name" : "_sigpoll",
     "referenced_type" : "_ZTIN10__sifieldsUt4_E"
    },
    {
     "field_name" : "_sigsys",
     "referenced_type" : "_ZTIN10__sifieldsUt5_E"
    }
   ],
   "linker_set_key" : "_ZTI10__sifields",
   "name" : "__sifields",
   "record_kind" : "union",
   "referenced_type" : "_ZTI10__sifields",
   "self_type" : "_ZTI10__sifields",
   "size" : 20,
   "source_file" : "/bionic/libc/kernel/uapi/asm-generic/siginfo.h"
  },
  {
   "alignment" : 8,
   "fields" :
   [
    {
     "field_name" : "flags",
     "referenced_type" : "_ZTIy"
    },
    {
     "field_name" : "pidfd",
     "field_offset" : 64,
     "referenced_type" : "_ZTIy"
    },
    {
     "field_name" : "child_tid",
     "field_offset" : 128,
     "referenced_type" : "_ZTIy"
    },
    {
     "field_name" : "parent_tid",
     "field_offset" : 192,
     "referenced_type" : "_ZTIy"
    },
    {
     "field_name" : "exit_signal",
     "field_offset" : 256,
     "referenced_type" : "_ZTIy"
    },
    {
     "field_name" : "stack",
     "field_offset" : 320,
     "referenced_type" : "_ZTIy"
    },
    {
     "field_name" : "stack_size",
     "field_offset" : 384,
     "referenced_type" : "_ZTIy"
    },
    {
     "field_name" : "tls",
     "field_offset" : 448,
     "referenced_type" : "_ZTIy"
    },
    {
     "field_name" : "set_tid",
     "field_offset" : 512,
     "referenced_type" : "_ZTIy"
    },
    {
     "field_name" : "set_tid_size",
     "field_offset" : 576,
     "referenced_type" : "_ZTIy"
    }
   ],
   "linker_set_key" : "_ZTI10clone_args",
   "name" : "clone_args",
   "referenced_type" : "_ZTI10clone_args",
   "self_type" : "_ZTI10clone_args",
   "size" : 80,
   "source_file" : "/bionic/libc/kernel/uapi/linux/sched.h"
  },
  {
   "alignment" : 4,
   "fields" :
   [
    {
     "field_name" : "type",
     "referenced_type" : "_ZTIi"
    },
    {
     "field_name" : "pid",
     "field_offset" : 32,
     "referenced_type" : "_ZTIi"
    }
   ],
   "linker_set_key" : "_ZTI10f_owner_ex",
   "name" : "f_owner_ex",
   "referenced_type" : "_ZTI10f_owner_ex",
   "self_type" : "_ZTI10f_owner_ex",
   "size" : 8,
   "source_file" : "/bionic/libc/kernel/uapi/asm-generic/fcntl.h"
  },
  {
   "alignment" : 4,
   "fields" :
   [
    {
     "field_name" : "it_interval",
     "referenced_type" : "_ZTI8timespec"
    },
    {
     "field_name" : "it_value",
     "field_offset" : 64,
     "referenced_type" : "_ZTI8timespec"
    }
   ],
   "linker_set_key" : "_ZTI10itimerspec",
   "name" : "itimerspec",
   "referenced_type" : "_ZTI10itimerspec",
   "self_type" : "_ZTI10itimerspec",
   "size" : 16,
   "source_file" : "/bionic/libc/kernel/uapi/linux/time.h"
  },
  {
   "alignment" : 4,
   "fields" :
   [
    {
     "field_name" : "trap_no",
     "referenced_type" : "_ZTIm"
    },
    {
     "field_name" : "error_code",
     "field_offset" : 32,
     "referenced_type" : "_ZTIm"
    },
    {
     "field_name" : "oldmask",
     "field_offset" : 64,
     "referenced_type" : "_ZTIm"
    },
    {
     "field_name" : "arm_r0",
     "field_offset" : 96,
     "referenced_type" : "_ZTIm"
    },
    {
     "field_name" : "arm_r1",
     "field_offset" : 128,
     "referenced_type" : "_ZTIm"
    },
    {
     "field_name" : "arm_r2",
     "field_offset" : 160,
     "referenced_type" : "_ZTIm"
    },
    {
     "field_name" : "arm_r3",
     "field_offset" : 192,
     "referenced_type" : "_ZTIm"
    },
    {
     "field_name" : "arm_r4",
     "field_offset" : 224,
     "referenced_type" : "_ZTIm"
    },
    {
     "field_name" : "arm_r5",
     "field_offset" : 256,
     "referenced_type" : "_ZTIm"
    },
    {
     "field_name" : "arm_r6",
     "field_offset" : 288,
     "referenced_type" : "_ZTIm"
    },
    {
     "field_name" : "arm_r7",
     "field_offset" : 320,
     "referenced_type" : "_ZTIm"
    },
    {
     "field_name" : "arm_r8",
     "field_offset" : 352,
     "referenced_type" : "_ZTIm"
    },
    {
     "field_name" : "arm_r9",
     "field_offset" : 384,
     "referenced_type" : "_ZTIm"
    },
    {
     "field_name" : "arm_r10",
     "field_offset" : 416,
     "referenced_type" : "_ZTIm"
    },
    {
     "field_name" : "arm_fp",
     "field_offset" : 448,
     "referenced_type" : "_ZTIm"
    },
    {
     "field_name" : "arm_ip",
     "field_offset" : 480,
     "referenced_type" : "_ZTIm"
    },
    {
     "field_name" : "arm_sp",
     "field_offset" : 512,
     "referenced_type" : "_ZTIm"
    },
    {
     "field_name" : "arm_lr",
     "field_offset" : 544,
     "referenced_type" : "_ZTIm"
    },
    {
     "field_name" : "arm_pc",
     "field_offset" : 576,
     "referenced_type" : "_ZTIm"
    },
    {
     "field_name" : "arm_cpsr",
     "field_offset" : 608,
     "referenced_type" : "_ZTIm"
    },
    {
     "field_name" : "fault_address",
     "field_offset" : 640,
     "referenced_type" : "_ZTIm"
    }
   ],
   "linker_set_key" : "_ZTI10sigcontext",
   "name" : "sigcontext",
   "referenced_type" : "_ZTI10sigcontext",
   "self_type" : "_ZTI10sigcontext",
   "size" : 84,
   "source_file" : "/bionic/libc/kernel/uapi/asm-arm/asm/sigcontext.h"
  },
  {
   "alignment" : 4,
   "fields" :
   [
    {
     "field_name" : "__bits",
     "referenced_type" : "_ZTIA2_m"
    }
   ],
   "linker_set_key" : "_ZTI10sigset64_t",
   "name" : "sigset64_t",
   "referenced_type" : "_ZTI10sigset64_t",
   "self_type" : "_ZTI10sigset64_t",
   "size" : 8,
   "source_file" : "/out/soong/.intermediates/bionic/libc/libc.llndk/android_vendor.30_arm_armv8-a_shared/gen/include/bits/signal_types.h"
  },
  {
   "alignment" : 8,
   "fields" :
   [
    {
     "field_name" : "__clang_max_align_nonce1",
     "referenced_type" : "_ZTIx"
    },
    {
     "field_name" : "__clang_max_align_nonce2",
     "field_offset" : 64,
     "referenced_type" : "_ZTIe"
    }
   ],
   "linker_set_key" : "_ZTI11max_align_t",
   "name" : "max_align_t",
   "referenced_type" : "_ZTI11max_align_t",
   "self_type" : "_ZTI11max_align_t",
   "size" : 16,
   "source_file" : "/prebuilts/clang-tools/linux-x86/lib64/clang/10.0.5/include/__stddef_max_align_t.h"
  },
  {
   "alignment" : 4,
   "fields" :
   [
    {
     "field_name" : "sched_priority",
     "referenced_type" : "_ZTIi"
    }
   ],
   "linker_set_key" : "_ZTI11sched_param",
   "name" : "sched_param",
   "referenced_type" : "_ZTI11sched_param",
   "self_type" : "_ZTI11sched_param",
   "size" : 4,
   "source_file" : "/out/soong/.intermediates/bionic/libc/libc.llndk/android_vendor.30_arm_armv8-a_shared/gen/include/sched.h"
  },
  {
   "alignment" : 4,
   "fields" :
   [
    {
     "referenced_type" : "_ZTIN11sigaction64Ut_E"
    },
    {
     "field_name" : "sa_flags",
     "field_offset" : 32,
     "referenced_type" : "_ZTIi"
    },
    {
     "field_name" : "sa_restorer",
     "field_offset" : 64,
     "referenced_type" : "_ZTIPFvvE"
    },
    {
     "field_name" : "sa_mask",
     "field_offset" : 96,
     "referenced_type" : "_ZTI10sigset64_t"
    }
   ],
   "linker_set_key" : "_ZTI11sigaction64",
   "name" : "sigaction64",
   "referenced_type" : "_ZTI11sigaction64",
   "self_type" : "_ZTI11sigaction64",
   "size" : 20,
   "source_file" : "/out/soong/.intermediates/bionic/libc/libc.llndk/android_vendor.30_arm_armv8-a_shared/gen/include/bits/signal_types.h"
  },
  {
   "alignment" : 4,
   "fields" :
   [
    {
     "field_name" : "ss_sp",
     "referenced_type" : "_ZTIPv"
    },
    {
     "field_name" : "ss_flags",
     "field_offset" : 32,
     "referenced_type" : "_ZTIi"
    },
    {
     "field_name" : "ss_size",
     "field_offset" : 64,
     "referenced_type" : "_ZTIj"
    }
   ],
   "linker_set_key" : "_ZTI11sigaltstack",
   "name" : "sigaltstack",
   "referenced_type" : "_ZTI11sigaltstack",
   "self_type" : "_ZTI11sigaltstack",
   "size" : 12,
   "source_file" : "/bionic/libc/kernel/uapi/asm-arm/asm/signal.h"
  },
  {
   "alignment" : 4,
   "fields" :
   [
    {
     "field_name" : "fpregs",
     "referenced_type" : "_ZTIA8_N11user_fpregs6fp_regE"
    },
    {
     "field_name" : "fpsr",
     "field_offset" : 768,
     "referenced_type" : "_ZTIj"
    },
    {
     "field_name" : "fpcr",
     "field_offset" : 800,
     "referenced_type" : "_ZTIj"
    },
    {
     "field_name" : "ftype",
     "field_offset" : 832,
     "referenced_type" : "_ZTIA8_h"
    },
    {
     "field_name" : "init_flag",
     "field_offset" : 896,
     "referenced_type" : "_ZTIj"
    }
   ],
   "linker_set_key" : "_ZTI11user_fpregs",
   "name" : "user_fpregs",
   "referenced_type" : "_ZTI11user_fpregs",
   "self_type" : "_ZTI11user_fpregs",
   "size" : 116,
   "source_file" : "/out/soong/.intermediates/bionic/libc/libc.llndk/android_vendor.30_arm_armv8-a_shared/gen/include/sys/user.h"
  },
  {
   "alignment" : 4,
   "fields" :
   [
    {
     "field_name" : "len",
     "referenced_type" : "_ZTIt"
    },
    {
     "field_name" : "hdr_size",
     "field_offset" : 16,
     "referenced_type" : "_ZTIt"
    },
    {
     "field_name" : "pid",
     "field_offset" : 32,
     "referenced_type" : "_ZTIi"
    },
    {
     "field_name" : "tid",
     "field_offset" : 64,
     "referenced_type" : "_ZTIj"
    },
    {
     "field_name" : "sec",
     "field_offset" : 96,
     "referenced_type" : "_ZTIj"
    },
    {
     "field_name" : "nsec",
     "field_offset" : 128,
     "referenced_type" : "_ZTIj"
    },
    {
     "field_name" : "lid",
     "field_offset" : 160,
     "referenced_type" : "_ZTIj"
    },
    {
     "field_name" : "uid",
     "field_offset" : 192,
     "referenced_type" : "_ZTIj"
    }
   ],
   "linker_set_key" : "_ZTI12logger_entry",
   "name" : "logger_entry",
   "referenced_type" : "_ZTI12logger_entry",
   "self_type" : "_ZTI12logger_entry",
   "size" : 28,
   "source_file" : "/system/core/liblog/include/log/log_read.h"
  },
  {
   "alignment" : 4,
   "fields" :
   [
    {
     "field_name" : "fpexc",
     "referenced_type" : "_ZTIm"
    },
    {
     "field_name" : "fpinst",
     "field_offset" : 32,
     "referenced_type" : "_ZTIm"
    },
    {
     "field_name" : "fpinst2",
     "field_offset" : 64,
     "referenced_type" : "_ZTIm"
    }
   ],
   "linker_set_key" : "_ZTI12user_vfp_exc",
   "name" : "user_vfp_exc",
   "referenced_type" : "_ZTI12user_vfp_exc",
   "self_type" : "_ZTI12user_vfp_exc",
   "size" : 12,
   "source_file" : "/out/soong/.intermediates/bionic/libc/libc.llndk/android_vendor.30_arm_armv8-a_shared/gen/include/sys/user.h"
  },
  {
   "alignment" : 4,
   "fields" :
   [
    {
     "field_name" : "version",
     "referenced_type" : "_ZTIi"
    },
    {
     "field_name" : "numFds",
     "field_offset" : 32,
     "referenced_type" : "_ZTIi"
    },
    {
     "field_name" : "numInts",
     "field_offset" : 64,
     "referenced_type" : "_ZTIi"
    },
    {
     "field_name" : "data",
     "field_offset" : 96,
     "referenced_type" : "_ZTIA0_i"
    }
   ],
   "linker_set_key" : "_ZTI13native_handle",
   "name" : "native_handle",
   "referenced_type" : "_ZTI13native_handle",
   "self_type" : "_ZTI13native_handle",
   "size" : 12,
   "source_file" : "/system/core/libcutils/include/cutils/native_handle.h"
  },
  {
   "alignment" : 4,
   "fields" :
   [
    {
     "field_name" : "flags",
     "referenced_type" : "_ZTIj"
    },
    {
     "field_name" : "stack_base",
     "field_offset" : 32,
     "referenced_type" : "_ZTIPv"
    },
    {
     "field_name" : "stack_size",
     "field_offset" : 64,
     "referenced_type" : "_ZTIj"
    },
    {
     "field_name" : "guard_size",
     "field_offset" : 96,
     "referenced_type" : "_ZTIj"
    },
    {
     "field_name" : "sched_policy",
     "field_offset" : 128,
     "referenced_type" : "_ZTIi"
    },
    {
     "field_name" : "sched_priority",
     "field_offset" : 160,
     "referenced_type" : "_ZTIi"
    }
   ],
   "linker_set_key" : "_ZTI14pthread_attr_t",
   "name" : "pthread_attr_t",
   "referenced_type" : "_ZTI14pthread_attr_t",
   "self_type" : "_ZTI14pthread_attr_t",
   "size" : 24,
   "source_file" : "/out/soong/.intermediates/bionic/libc/libc.llndk/android_vendor.30_arm_armv8-a_shared/gen/include/bits/pthread_types.h"
  },
  {
   "alignment" : 4,
   "fields" :
   [
    {
     "field_name" : "__private",
     "referenced_type" : "_ZTIA1_i"
    }
   ],
   "linker_set_key" : "_ZTI14pthread_cond_t",
   "name" : "pthread_cond_t",
   "referenced_type" : "_ZTI14pthread_cond_t",
   "self_type" : "_ZTI14pthread_cond_t",
   "size" : 4,
   "source_file" : "/out/soong/.intermediates/bionic/libc/libc.llndk/android_vendor.30_arm_armv8-a_shared/gen/include/bits/pthread_types.h"
  },
  {
   "alignment" : 4,
   "fields" :
   [
    {
     "field_name" : "fds_bits",
     "referenced_type" : "_ZTIA32_m"
    }
   ],
   "linker_set_key" : "_ZTI15__kernel_fd_set",
   "name" : "__kernel_fd_set",
   "referenced_type" : "_ZTI15__kernel_fd_set",
   "self_type" : "_ZTI15__kernel_fd_set",
   "size" : 128,
   "source_file" : "/bionic/libc/kernel/uapi/linux/posix_types.h"
  },
  {
   "alignment" : 4,
   "fields" :
   [
    {
     "field_name" : "val",
     "referenced_type" : "_ZTIA2_i"
    }
   ],
   "linker_set_key" : "_ZTI15__kernel_fsid_t",
   "name" : "__kernel_fsid_t",
   "referenced_type" : "_ZTI15__kernel_fsid_t",
   "self_type" : "_ZTI15__kernel_fsid_t",
   "size" : 8,
   "source_file" : "/bionic/libc/kernel/uapi/asm-generic/posix_types.h"
  },
  {
   "alignment" : 4,
   "fields" :
   [
    {
     "field_name" : "__private",
     "referenced_type" : "_ZTIA1_i"
    }
   ],
   "linker_set_key" : "_ZTI15pthread_mutex_t",
   "name" : "pthread_mutex_t",
   "referenced_type" : "_ZTI15pthread_mutex_t",
   "self_type" : "_ZTI15pthread_mutex_t",
   "size" : 4,
   "source_file" : "/out/soong/.intermediates/bionic/libc/libc.llndk/android_vendor.30_arm_armv8-a_shared/gen/include/bits/pthread_types.h"
  },
  {
   "alignment" : 8,
   "fields" :
   [
    {
     "field_name" : "tv_sec",
     "referenced_type" : "_ZTIx"
    },
    {
     "field_name" : "tv_nsec",
     "field_offset" : 64,
     "referenced_type" : "_ZTIj"
    },
    {
     "field_name" : "__reserved",
     "field_offset" : 96,
     "referenced_type" : "_ZTIi"
    }
   ],
   "linker_set_key" : "_ZTI15statx_timestamp",
   "name" : "statx_timestamp",
   "referenced_type" : "_ZTI15statx_timestamp",
   "self_type" : "_ZTI15statx_timestamp",
   "size" : 16,
   "source_file" : "/bionic/libc/kernel/uapi/linux/stat.h"
  },
  {
   "alignment" : 4,
   "fields" :
   [
    {
     "field_name" : "__private",
     "referenced_type" : "_ZTIA10_i"
    }
   ],
   "linker_set_key" : "_ZTI16pthread_rwlock_t",
   "name" : "pthread_rwlock_t",
   "referenced_type" : "_ZTI16pthread_rwlock_t",
   "self_type" : "_ZTI16pthread_rwlock_t",
   "size" : 40,
   "source_file" : "/out/soong/.intermediates/bionic/libc/libc.llndk/android_vendor.30_arm_armv8-a_shared/gen/include/bits/pthread_types.h"
  },
  {
   "alignment" : 8,
   "fields" :
   [
    {
     "field_name" : "tv_sec",
     "referenced_type" : "_ZTIx"
    },
    {
     "field_name" : "tv_nsec",
     "field_offset" : 64,
     "referenced_type" : "_ZTIx"
    }
   ],
   "linker_set_key" : "_ZTI17__kernel_timespec",
   "name" : "__kernel_timespec",
   "referenced_type" : "_ZTI17__kernel_timespec",
   "self_type" : "_ZTI17__kernel_timespec",
   "size" : 16,
   "source_file" : "/bionic/libc/kernel/uapi/linux/time_types.h"
  },
  {
   "alignment" : 4,
   "fields" :
   [
    {
     "field_name" : "__private",
     "referenced_type" : "_ZTIA8_i"
    }
   ],
   "linker_set_key" : "_ZTI17pthread_barrier_t",
   "name" : "pthread_barrier_t",
   "referenced_type" : "_ZTI17pthread_barrier_t",
   "self_type" : "_ZTI17pthread_barrier_t",
   "size" : 32,
   "source_file" : "/out/soong/.intermediates/bionic/libc/libc.llndk/android_vendor.30_arm_armv8-a_shared/gen/include/bits/pthread_types.h"
  },
  {
   "alignment" : 4,
   "fields" :
   [
    {
     "field_name" : "_u",
     "referenced_type" : "_ZTIN18__kernel_sigactionUt_E"
    },
    {
     "field_name" : "sa_mask",
     "field_offset" : 32,
     "referenced_type" : "_ZTIm"
    },
    {
     "field_name" : "sa_flags",
     "field_offset" : 64,
     "referenced_type" : "_ZTIm"
    },
    {
     "field_name" : "sa_restorer",
     "field_offset" : 96,
     "referenced_type" : "_ZTIPFvvE"
    }
   ],
   "linker_set_key" : "_ZTI18__kernel_sigaction",
   "name" : "__kernel_sigaction",
   "referenced_type" : "_ZTI18__kernel_sigaction",
   "self_type" : "_ZTI18__kernel_sigaction",
   "size" : 16,
   "source_file" : "/bionic/libc/kernel/uapi/asm-arm/asm/signal.h"
  },
  {
   "alignment" : 4,
   "fields" :
   [
    {
     "field_name" : "__private",
     "referenced_type" : "_ZTIA2_i"
    }
   ],
   "linker_set_key" : "_ZTI18pthread_spinlock_t",
   "name" : "pthread_spinlock_t",
   "referenced_type" : "_ZTI18pthread_spinlock_t",
   "self_type" : "_ZTI18pthread_spinlock_t",
   "size" : 8,
   "source_file" : "/out/soong/.intermediates/bionic/libc/libc.llndk/android_vendor.30_arm_armv8-a_shared/gen/include/bits/pthread_types.h"
  },
  {
   "alignment" : 8,
   "fields" :
   [
    {
     "field_name" : "it_interval",
     "referenced_type" : "_ZTI17__kernel_timespec"
    },
    {
     "field_name" : "it_value",
     "field_offset" : 128,
     "referenced_type" : "_ZTI17__kernel_timespec"
    }
   ],
   "linker_set_key" : "_ZTI19__kernel_itimerspec",
   "name" : "__kernel_itimerspec",
   "referenced_type" : "_ZTI19__kernel_itimerspec",
   "self_type" : "_ZTI19__kernel_itimerspec",
   "size" : 32,
   "source_file" : "/bionic/libc/kernel/uapi/linux/time_types.h"
  },
  {
   "alignment" : 4,
   "fields" :
   [
    {
     "field_name" : "__cleanup_prev",
     "referenced_type" : "_ZTIP19__pthread_cleanup_t"
    },
    {
     "field_name" : "__cleanup_routine",
     "field_offset" : 32,
     "referenced_type" : "_ZTIPFvPvE"
    },
    {
     "field_name" : "__cleanup_arg",
     "field_offset" : 64,
     "referenced_type" : "_ZTIPv"
    }
   ],
   "linker_set_key" : "_ZTI19__pthread_cleanup_t",
   "name" : "__pthread_cleanup_t",
   "referenced_type" : "_ZTI19__pthread_cleanup_t",
   "self_type" : "_ZTI19__pthread_cleanup_t",
   "size" : 12,
   "source_file" : "/out/soong/.intermediates/bionic/libc/libc.llndk/android_vendor.30_arm_armv8-a_shared/gen/include/pthread.h"
  },
  {
   "alignment" : 4,
   "fields" :
   [
    {
     "field_name" : "struct_size",
     "referenced_type" : "_ZTIj"
    },
    {
     "field_name" : "buffer_id",
     "field_offset" : 32,
     "referenced_type" : "_ZTIi"
    },
    {
     "field_name" : "priority",
     "field_offset" : 64,
     "referenced_type" : "_ZTIi"
    },
    {
     "field_name" : "tag",
     "field_offset" : 96,
     "referenced_type" : "_ZTIPKc"
    },
    {
     "field_name" : "file",
     "field_offset" : 128,
     "referenced_type" : "_ZTIPKc"
    },
    {
     "field_name" : "line",
     "field_offset" : 160,
     "referenced_type" : "_ZTIj"
    },
    {
     "field_name" : "message",
     "field_offset" : 192,
     "referenced_type" : "_ZTIPKc"
    }
   ],
   "linker_set_key" : "_ZTI21__android_log_message",
   "name" : "__android_log_message",
   "referenced_type" : "_ZTI21__android_log_message",
   "self_type" : "_ZTI21__android_log_message",
   "size" : 28,
   "source_file" : "/system/core/liblog/include/android/log.h"
  },
  {
   "alignment" : 4,
   "fields" :
   [
    {
     "field_name" : "tv_sec",
     "referenced_type" : "_ZTIl"
    },
    {
     "field_name" : "tv_nsec",
     "field_offset" : 32,
     "referenced_type" : "_ZTIl"
    }
   ],
   "linker_set_key" : "_ZTI21__kernel_old_timespec",
   "name" : "__kernel_old_timespec",
   "referenced_type" : "_ZTI21__kernel_old_timespec",
   "self_type" : "_ZTI21__kernel_old_timespec",
   "size" : 8,
   "source_file" : "/bionic/libc/kernel/uapi/linux/time_types.h"
  },
  {
   "alignment" : 8,
   "fields" :
   [
    {
     "field_name" : "tv_sec",
     "referenced_type" : "_ZTIx"
    },
    {
     "field_name" : "tv_usec",
     "field_offset" : 64,
     "referenced_type" : "_ZTIx"
    }
   ],
   "linker_set_key" : "_ZTI21__kernel_sock_timeval",
   "name" : "__kernel_sock_timeval",
   "referenced_type" : "_ZTI21__kernel_sock_timeval",
   "self_type" : "_ZTI21__kernel_sock_timeval",
   "size" : 16,
   "source_file" : "/bionic/libc/kernel/uapi/linux/time_types.h"
  },
  {
   "alignment" : 4,
   "fields" :
   [
    {
     "field_name" : "tm_sec",
     "referenced_type" : "_ZTIi"
    },
    {
     "field_name" : "tm_min",
     "field_offset" : 32,
     "referenced_type" : "_ZTIi"
    },
    {
     "field_name" : "tm_hour",
     "field_offset" : 64,
     "referenced_type" : "_ZTIi"
    },
    {
     "field_name" : "tm_mday",
     "field_offset" : 96,
     "referenced_type" : "_ZTIi"
    },
    {
     "field_name" : "tm_mon",
     "field_offset" : 128,
     "referenced_type" : "_ZTIi"
    },
    {
     "field_name" : "tm_year",
     "field_offset" : 160,
     "referenced_type" : "_ZTIi"
    },
    {
     "field_name" : "tm_wday",
     "field_offset" : 192,
     "referenced_type" : "_ZTIi"
    },
    {
     "field_name" : "tm_yday",
     "field_offset" : 224,
     "referenced_type" : "_ZTIi"
    },
    {
     "field_name" : "tm_isdst",
     "field_offset" : 256,
     "referenced_type" : "_ZTIi"
    },
    {
     "field_name" : "tm_gmtoff",
     "field_offset" : 288,
     "referenced_type" : "_ZTIl"
    },
    {
     "field_name" : "tm_zone",
     "field_offset" : 320,
     "referenced_type" : "_ZTIPKc"
    }
   ],
   "linker_set_key" : "_ZTI2tm",
   "name" : "tm",
   "referenced_type" : "_ZTI2tm",
   "self_type" : "_ZTI2tm",
   "size" : 44,
   "source_file" : "/out/soong/.intermediates/bionic/libc/libc.llndk/android_vendor.30_arm_armv8-a_shared/gen/include/time.h"
  },
  {
   "alignment" : 4,
   "fields" :
   [
    {
     "field_name" : "regs",
     "referenced_type" : "_ZTI9user_regs"
    },
    {
     "field_name" : "u_fpvalid",
     "field_offset" : 576,
     "referenced_type" : "_ZTIi"
    },
    {
     "field_name" : "u_tsize",
     "field_offset" : 608,
     "referenced_type" : "_ZTIm"
    },
    {
     "field_name" : "u_dsize",
     "field_offset" : 640,
     "referenced_type" : "_ZTIm"
    },
    {
     "field_name" : "u_ssize",
     "field_offset" : 672,
     "referenced_type" : "_ZTIm"
    },
    {
     "field_name" : "start_code",
     "field_offset" : 704,
     "referenced_type" : "_ZTIm"
    },
    {
     "field_name" : "start_stack",
     "field_offset" : 736,
     "referenced_type" : "_ZTIm"
    },
    {
     "field_name" : "signal",
     "field_offset" : 768,
     "referenced_type" : "_ZTIl"
    },
    {
     "field_name" : "reserved",
     "field_offset" : 800,
     "referenced_type" : "_ZTIi"
    },
    {
     "field_name" : "u_ar0",
     "field_offset" : 832,
     "referenced_type" : "_ZTIP9user_regs"
    },
    {
     "field_name" : "magic",
     "field_offset" : 864,
     "referenced_type" : "_ZTIm"
    },
    {
     "field_name" : "u_comm",
     "field_offset" : 896,
     "referenced_type" : "_ZTIA32_c"
    },
    {
     "field_name" : "u_debugreg",
     "field_offset" : 1152,
     "referenced_type" : "_ZTIA8_i"
    },
    {
     "field_name" : "u_fp",
     "field_offset" : 1408,
     "referenced_type" : "_ZTI11user_fpregs"
    },
    {
     "field_name" : "u_fp0",
     "field_offset" : 2336,
     "referenced_type" : "_ZTIP11user_fpregs"
    }
   ],
   "linker_set_key" : "_ZTI4user",
   "name" : "user",
   "referenced_type" : "_ZTI4user",
   "self_type" : "_ZTI4user",
   "size" : 296,
   "source_file" : "/out/soong/.intermediates/bionic/libc/libc.llndk/android_vendor.30_arm_armv8-a_shared/gen/include/sys/user.h"
  },
  {
   "alignment" : 4,
   "fields" :
   [
    {
     "field_name" : "quot",
     "referenced_type" : "_ZTIi"
    },
    {
     "field_name" : "rem",
     "field_offset" : 32,
     "referenced_type" : "_ZTIi"
    }
   ],
   "linker_set_key" : "_ZTI5div_t",
   "name" : "div_t",
   "referenced_type" : "_ZTI5div_t",
   "self_type" : "_ZTI5div_t",
   "size" : 8,
   "source_file" : "/out/soong/.intermediates/bionic/libc/libc.llndk/android_vendor.30_arm_armv8-a_shared/gen/include/stdlib.h"
  },
  {
   "alignment" : 4,
   "fields" :
   [
    {
     "field_name" : "l_type",
     "referenced_type" : "_ZTIs"
    },
    {
     "field_name" : "l_whence",
     "field_offset" : 16,
     "referenced_type" : "_ZTIs"
    },
    {
     "field_name" : "l_start",
     "field_offset" : 32,
     "referenced_type" : "_ZTIl"
    },
    {
     "field_name" : "l_len",
     "field_offset" : 64,
     "referenced_type" : "_ZTIl"
    },
    {
     "field_name" : "l_pid",
     "field_offset" : 96,
     "referenced_type" : "_ZTIi"
    }
   ],
   "linker_set_key" : "_ZTI5flock",
   "name" : "flock",
   "referenced_type" : "_ZTI5flock",
   "self_type" : "_ZTI5flock",
   "size" : 16,
   "source_file" : "/out/soong/.intermediates/bionic/libc/libc.llndk/android_vendor.30_arm_armv8-a_shared/gen/include/bits/flock.h"
  },
  {
   "alignment" : 4,
   "fields" :
   [
    {
     "field_name" : "iov_base",
     "referenced_type" : "_ZTIPv"
    },
    {
     "field_name" : "iov_len",
     "field_offset" : 32,
     "referenced_type" : "_ZTIj"
    }
   ],
   "linker_set_key" : "_ZTI5iovec",
   "name" : "iovec",
   "referenced_type" : "_ZTI5iovec",
   "self_type" : "_ZTI5iovec",
   "size" : 8,
   "source_file" : "/bionic/libc/kernel/uapi/linux/uio.h"
  },
  {
   "alignment" : 4,
   "fields" :
   [
    {
     "field_name" : "decimal_point",
     "referenced_type" : "_ZTIPc"
    },
    {
     "field_name" : "thousands_sep",
     "field_offset" : 32,
     "referenced_type" : "_ZTIPc"
    },
    {
     "field_name" : "grouping",
     "field_offset" : 64,
     "referenced_type" : "_ZTIPc"
    },
    {
     "field_name" : "int_curr_symbol",
     "field_offset" : 96,
     "referenced_type" : "_ZTIPc"
    },
    {
     "field_name" : "currency_symbol",
     "field_offset" : 128,
     "referenced_type" : "_ZTIPc"
    },
    {
     "field_name" : "mon_decimal_point",
     "field_offset" : 160,
     "referenced_type" : "_ZTIPc"
    },
    {
     "field_name" : "mon_thousands_sep",
     "field_offset" : 192,
     "referenced_type" : "_ZTIPc"
    },
    {
     "field_name" : "mon_grouping",
     "field_offset" : 224,
     "referenced_type" : "_ZTIPc"
    },
    {
     "field_name" : "positive_sign",
     "field_offset" : 256,
     "referenced_type" : "_ZTIPc"
    },
    {
     "field_name" : "negative_sign",
     "field_offset" : 288,
     "referenced_type" : "_ZTIPc"
    },
    {
     "field_name" : "int_frac_digits",
     "field_offset" : 320,
     "referenced_type" : "_ZTIc"
    },
    {
     "field_name" : "frac_digits",
     "field_offset" : 328,
     "referenced_type" : "_ZTIc"
    },
    {
     "field_name" : "p_cs_precedes",
     "field_offset" : 336,
     "referenced_type" : "_ZTIc"
    },
    {
     "field_name" : "p_sep_by_space",
     "field_offset" : 344,
     "referenced_type" : "_ZTIc"
    },
    {
     "field_name" : "n_cs_precedes",
     "field_offset" : 352,
     "referenced_type" : "_ZTIc"
    },
    {
     "field_name" : "n_sep_by_space",
     "field_offset" : 360,
     "referenced_type" : "_ZTIc"
    },
    {
     "field_name" : "p_sign_posn",
     "field_offset" : 368,
     "referenced_type" : "_ZTIc"
    },
    {
     "field_name" : "n_sign_posn",
     "field_offset" : 376,
     "referenced_type" : "_ZTIc"
    },
    {
     "field_name" : "int_p_cs_precedes",
     "field_offset" : 384,
     "referenced_type" : "_ZTIc"
    },
    {
     "field_name" : "int_p_sep_by_space",
     "field_offset" : 392,
     "referenced_type" : "_ZTIc"
    },
    {
     "field_name" : "int_n_cs_precedes",
     "field_offset" : 400,
     "referenced_type" : "_ZTIc"
    },
    {
     "field_name" : "int_n_sep_by_space",
     "field_offset" : 408,
     "referenced_type" : "_ZTIc"
    },
    {
     "field_name" : "int_p_sign_posn",
     "field_offset" : 416,
     "referenced_type" : "_ZTIc"
    },
    {
     "field_name" : "int_n_sign_posn",
     "field_offset" : 424,
     "referenced_type" : "_ZTIc"
    }
   ],
   "linker_set_key" : "_ZTI5lconv",
   "name" : "lconv",
   "referenced_type" : "_ZTI5lconv",
   "self_type" : "_ZTI5lconv",
   "size" : 56,
   "source_file" : "/out/soong/.intermediates/bionic/libc/libc.llndk/android_vendor.30_arm_armv8-a_shared/gen/include/locale.h"
  },
  {
   "alignment" : 8,
   "fields" :
   [
    {
     "field_name" : "stx_mask",
     "referenced_type" : "_ZTIj"
    },
    {
     "field_name" : "stx_blksize",
     "field_offset" : 32,
     "referenced_type" : "_ZTIj"
    },
    {
     "field_name" : "stx_attributes",
     "field_offset" : 64,
     "referenced_type" : "_ZTIy"
    },
    {
     "field_name" : "stx_nlink",
     "field_offset" : 128,
     "referenced_type" : "_ZTIj"
    },
    {
     "field_name" : "stx_uid",
     "field_offset" : 160,
     "referenced_type" : "_ZTIj"
    },
    {
     "field_name" : "stx_gid",
     "field_offset" : 192,
     "referenced_type" : "_ZTIj"
    },
    {
     "field_name" : "stx_mode",
     "field_offset" : 224,
     "referenced_type" : "_ZTIt"
    },
    {
     "field_name" : "__spare0",
     "field_offset" : 240,
     "referenced_type" : "_ZTIA1_t"
    },
    {
     "field_name" : "stx_ino",
     "field_offset" : 256,
     "referenced_type" : "_ZTIy"
    },
    {
     "field_name" : "stx_size",
     "field_offset" : 320,
     "referenced_type" : "_ZTIy"
    },
    {
     "field_name" : "stx_blocks",
     "field_offset" : 384,
     "referenced_type" : "_ZTIy"
    },
    {
     "field_name" : "stx_attributes_mask",
     "field_offset" : 448,
     "referenced_type" : "_ZTIy"
    },
    {
     "field_name" : "stx_atime",
     "field_offset" : 512,
     "referenced_type" : "_ZTI15statx_timestamp"
    },
    {
     "field_name" : "stx_btime",
     "field_offset" : 640,
     "referenced_type" : "_ZTI15statx_timestamp"
    },
    {
     "field_name" : "stx_ctime",
     "field_offset" : 768,
     "referenced_type" : "_ZTI15statx_timestamp"
    },
    {
     "field_name" : "stx_mtime",
     "field_offset" : 896,
     "referenced_type" : "_ZTI15statx_timestamp"
    },
    {
     "field_name" : "stx_rdev_major",
     "field_offset" : 1024,
     "referenced_type" : "_ZTIj"
    },
    {
     "field_name" : "stx_rdev_minor",
     "field_offset" : 1056,
     "referenced_type" : "_ZTIj"
    },
    {
     "field_name" : "stx_dev_major",
     "field_offset" : 1088,
     "referenced_type" : "_ZTIj"
    },
    {
     "field_name" : "stx_dev_minor",
     "field_offset" : 1120,
     "referenced_type" : "_ZTIj"
    },
    {
     "field_name" : "__spare2",
     "field_offset" : 1152,
     "referenced_type" : "_ZTIA14_y"
    }
   ],
   "linker_set_key" : "_ZTI5statx",
   "name" : "statx",
   "referenced_type" : "_ZTI5statx",
   "self_type" : "_ZTI5statx",
   "size" : 256,
   "source_file" : "/bionic/libc/kernel/uapi/linux/stat.h"
  },
  {
   "alignment" : 8,
   "fields" :
   [
    {
     "field_name" : "d_ino",
     "referenced_type" : "_ZTIy"
    },
    {
     "field_name" : "d_off",
     "field_offset" : 64,
     "referenced_type" : "_ZTIx"
    },
    {
     "field_name" : "d_reclen",
     "field_offset" : 128,
     "referenced_type" : "_ZTIt"
    },
    {
     "field_name" : "d_type",
     "field_offset" : 144,
     "referenced_type" : "_ZTIh"
    },
    {
     "field_name" : "d_name",
     "field_offset" : 152,
     "referenced_type" : "_ZTIA256_c"
    }
   ],
   "linker_set_key" : "_ZTI6dirent",
   "name" : "dirent",
   "referenced_type" : "_ZTI6dirent",
   "self_type" : "_ZTI6dirent",
   "size" : 280,
   "source_file" : "/out/soong/.intermediates/bionic/libc/libc.llndk/android_vendor.30_arm_armv8-a_shared/gen/include/dirent.h"
  },
  {
   "alignment" : 4,
   "fields" :
   [
    {
     "field_name" : "fds_bits",
     "referenced_type" : "_ZTIA32_m"
    }
   ],
   "linker_set_key" : "_ZTI6fd_set",
   "name" : "fd_set",
   "referenced_type" : "_ZTI6fd_set",
   "self_type" : "_ZTI6fd_set",
   "size" : 128,
   "source_file" : "/out/soong/.intermediates/bionic/libc/libc.llndk/android_vendor.30_arm_armv8-a_shared/gen/include/sys/select.h"
  },
  {
   "alignment" : 4,
   "fields" :
   [
    {
     "field_name" : "quot",
     "referenced_type" : "_ZTIl"
    },
    {
     "field_name" : "rem",
     "field_offset" : 32,
     "referenced_type" : "_ZTIl"
    }
   ],
   "linker_set_key" : "_ZTI6ldiv_t",
   "name" : "ldiv_t",
   "referenced_type" : "_ZTI6ldiv_t",
   "self_type" : "_ZTI6ldiv_t",
   "size" : 8,
   "source_file" : "/out/soong/.intermediates/bionic/libc/libc.llndk/android_vendor.30_arm_armv8-a_shared/gen/include/stdlib.h"
  },
  {
   "alignment" : 4,
   "fields" :
   [
    {
     "field_name" : "sival_int",
     "referenced_type" : "_ZTIi"
    },
    {
     "field_name" : "sival_ptr",
     "referenced_type" : "_ZTIPv"
    }
   ],
   "linker_set_key" : "_ZTI6sigval",
   "name" : "sigval",
   "record_kind" : "union",
   "referenced_type" : "_ZTI6sigval",
   "self_type" : "_ZTI6sigval",
   "size" : 4,
   "source_file" : "/bionic/libc/kernel/uapi/asm-generic/siginfo.h"
  },
  {
   "alignment" : 8,
   "fields" :
   [
    {
     "field_name" : "l_type",
     "referenced_type" : "_ZTIs"
    },
    {
     "field_name" : "l_whence",
     "field_offset" : 16,
     "referenced_type" : "_ZTIs"
    },
    {
     "field_name" : "l_start",
     "field_offset" : 64,
     "referenced_type" : "_ZTIx"
    },
    {
     "field_name" : "l_len",
     "field_offset" : 128,
     "referenced_type" : "_ZTIx"
    },
    {
     "field_name" : "l_pid",
     "field_offset" : 192,
     "referenced_type" : "_ZTIi"
    }
   ],
   "linker_set_key" : "_ZTI7flock64",
   "name" : "flock64",
   "referenced_type" : "_ZTI7flock64",
   "self_type" : "_ZTI7flock64",
   "size" : 32,
   "source_file" : "/out/soong/.intermediates/bionic/libc/libc.llndk/android_vendor.30_arm_armv8-a_shared/gen/include/bits/flock.h"
  },
  {
   "alignment" : 8,
   "fields" :
   [
    {
     "field_name" : "quot",
     "referenced_type" : "_ZTIx"
    },
    {
     "field_name" : "rem",
     "field_offset" : 64,
     "referenced_type" : "_ZTIx"
    }
   ],
   "linker_set_key" : "_ZTI7lldiv_t",
   "name" : "lldiv_t",
   "referenced_type" : "_ZTI7lldiv_t",
   "self_type" : "_ZTI7lldiv_t",
   "size" : 16,
   "source_file" : "/out/soong/.intermediates/bionic/libc/libc.llndk/android_vendor.30_arm_armv8-a_shared/gen/include/stdlib.h"
  },
  {
   "alignment" : 4,
   "fields" :
   [
    {
     "referenced_type" : "_ZTIN7log_msgUt_E"
    }
   ],
   "linker_set_key" : "_ZTI7log_msg",
   "name" : "log_msg",
   "referenced_type" : "_ZTI7log_msg",
   "self_type" : "_ZTI7log_msg",
   "size" : 5124,
   "source_file" : "/system/core/liblog/include/log/log_read.h"
  },
  {
   "alignment" : 4,
   "fields" :
   [
    {
     "referenced_type" : "_ZTIN7siginfoUt_E"
    }
   ],
   "linker_set_key" : "_ZTI7siginfo",
   "name" : "siginfo",
   "referenced_type" : "_ZTI7siginfo",
   "self_type" : "_ZTI7siginfo",
   "size" : 128,
   "source_file" : "/bionic/libc/kernel/uapi/asm-generic/siginfo.h"
  },
  {
   "alignment" : 4,
   "fields" :
   [
    {
     "field_name" : "tv_sec",
     "referenced_type" : "_ZTIl"
    },
    {
     "field_name" : "tv_usec",
     "field_offset" : 32,
     "referenced_type" : "_ZTIl"
    }
   ],
   "linker_set_key" : "_ZTI7timeval",
   "name" : "timeval",
   "referenced_type" : "_ZTI7timeval",
   "self_type" : "_ZTI7timeval",
   "size" : 8,
   "source_file" : "/bionic/libc/kernel/uapi/linux/time.h"
  },
  {
   "alignment" : 8,
   "fields" :
   [
    {
     "field_name" : "d_ino",
     "referenced_type" : "_ZTIy"
    },
    {
     "field_name" : "d_off",
     "field_offset" : 64,
     "referenced_type" : "_ZTIx"
    },
    {
     "field_name" : "d_reclen",
     "field_offset" : 128,
     "referenced_type" : "_ZTIt"
    },
    {
     "field_name" : "d_type",
     "field_offset" : 144,
     "referenced_type" : "_ZTIh"
    },
    {
     "field_name" : "d_name",
     "field_offset" : 152,
     "referenced_type" : "_ZTIA256_c"
    }
   ],
   "linker_set_key" : "_ZTI8dirent64",
   "name" : "dirent64",
   "referenced_type" : "_ZTI8dirent64",
   "self_type" : "_ZTI8dirent64",
   "size" : 280,
   "source_file" : "/out/soong/.intermediates/bionic/libc/libc.llndk/android_vendor.30_arm_armv8-a_shared/gen/include/dirent.h"
  },
  {
   "alignment" : 1,
   "fields" :
   [
    {
     "field_name" : "tv_sec",
     "referenced_type" : "_ZTIj"
    },
    {
     "field_name" : "tv_nsec",
     "field_offset" : 32,
     "referenced_type" : "_ZTIj"
    }
   ],
   "linker_set_key" : "_ZTI8log_time",
   "name" : "log_time",
   "referenced_type" : "_ZTI8log_time",
   "self_type" : "_ZTI8log_time",
   "size" : 8,
   "source_file" : "/system/core/liblog/include_vndk/log/log_time.h"
  },
  {
   "alignment" : 4,
   "fields" :
   [
    {
     "field_name" : "arena",
     "referenced_type" : "_ZTIj"
    },
    {
     "field_name" : "ordblks",
     "field_offset" : 32,
     "referenced_type" : "_ZTIj"
    },
    {
     "field_name" : "smblks",
     "field_offset" : 64,
     "referenced_type" : "_ZTIj"
    },
    {
     "field_name" : "hblks",
     "field_offset" : 96,
     "referenced_type" : "_ZTIj"
    },
    {
     "field_name" : "hblkhd",
     "field_offset" : 128,
     "referenced_type" : "_ZTIj"
    },
    {
     "field_name" : "usmblks",
     "field_offset" : 160,
     "referenced_type" : "_ZTIj"
    },
    {
     "field_name" : "fsmblks",
     "field_offset" : 192,
     "referenced_type" : "_ZTIj"
    },
    {
     "field_name" : "uordblks",
     "field_offset" : 224,
     "referenced_type" : "_ZTIj"
    },
    {
     "field_name" : "fordblks",
     "field_offset" : 256,
     "referenced_type" : "_ZTIj"
    },
    {
     "field_name" : "keepcost",
     "field_offset" : 288,
     "referenced_type" : "_ZTIj"
    }
   ],
   "linker_set_key" : "_ZTI8mallinfo",
   "name" : "mallinfo",
   "referenced_type" : "_ZTI8mallinfo",
   "self_type" : "_ZTI8mallinfo",
   "size" : 40,
   "source_file" : "/out/soong/.intermediates/bionic/libc/libc.llndk/android_vendor.30_arm_armv8-a_shared/gen/include/malloc.h"
  },
  {
   "alignment" : 4,
   "fields" :
   [
    {
     "field_name" : "sigev_value",
     "referenced_type" : "_ZTI6sigval"
    },
    {
     "field_name" : "sigev_signo",
     "field_offset" : 32,
     "referenced_type" : "_ZTIi"
    },
    {
     "field_name" : "sigev_notify",
     "field_offset" : 64,
     "referenced_type" : "_ZTIi"
    },
    {
     "field_name" : "_sigev_un",
     "field_offset" : 96,
     "referenced_type" : "_ZTIN8sigeventUt_E"
    }
   ],
   "linker_set_key" : "_ZTI8sigevent",
   "name" : "sigevent",
   "referenced_type" : "_ZTI8sigevent",
   "self_type" : "_ZTI8sigevent",
   "size" : 64,
   "source_file" : "/bionic/libc/kernel/uapi/asm-generic/siginfo.h"
  },
  {
   "alignment" : 4,
   "fields" :
   [
    {
     "field_name" : "tv_sec",
     "referenced_type" : "_ZTIl"
    },
    {
     "field_name" : "tv_nsec",
     "field_offset" : 32,
     "referenced_type" : "_ZTIl"
    }
   ],
   "linker_set_key" : "_ZTI8timespec",
   "name" : "timespec",
   "referenced_type" : "_ZTI8timespec",
   "self_type" : "_ZTI8timespec",
   "size" : 8,
   "source_file" : "/bionic/libc/kernel/uapi/linux/time.h"
  },
  {
   "alignment" : 4,
   "fields" :
   [
    {
     "field_name" : "tz_minuteswest",
     "referenced_type" : "_ZTIi"
    },
    {
     "field_name" : "tz_dsttime",
     "field_offset" : 32,
     "referenced_type" : "_ZTIi"
    }
   ],
   "linker_set_key" : "_ZTI8timezone",
   "name" : "timezone",
   "referenced_type" : "_ZTI8timezone",
   "self_type" : "_ZTI8timezone",
   "size" : 8,
   "source_file" : "/bionic/libc/kernel/uapi/linux/time.h"
  },
  {
   "alignment" : 8,
   "fields" :
   [
    {
     "field_name" : "uc_flags",
     "referenced_type" : "_ZTIm"
    },
    {
     "field_name" : "uc_link",
     "field_offset" : 32,
     "referenced_type" : "_ZTIP8ucontext"
    },
    {
     "field_name" : "uc_stack",
     "field_offset" : 64,
     "referenced_type" : "_ZTI11sigaltstack"
    },
    {
     "field_name" : "uc_mcontext",
     "field_offset" : 160,
     "referenced_type" : "_ZTI10sigcontext"
    },
    {
     "field_offset" : 832,
     "referenced_type" : "_ZTIN8ucontextUt_E"
    },
    {
     "field_name" : "__padding",
     "field_offset" : 896,
     "referenced_type" : "_ZTIA120_c"
    },
    {
     "field_name" : "uc_regspace",
     "field_offset" : 1856,
     "referenced_type" : "_ZTIA128_m"
    }
   ],
   "linker_set_key" : "_ZTI8ucontext",
   "name" : "ucontext",
   "referenced_type" : "_ZTI8ucontext",
   "self_type" : "_ZTI8ucontext",
   "size" : 744,
   "source_file" : "/out/soong/.intermediates/bionic/libc/libc.llndk/android_vendor.30_arm_armv8-a_shared/gen/include/sys/ucontext.h"
  },
  {
   "alignment" : 8,
   "fields" :
   [
    {
     "field_name" : "fpregs",
     "referenced_type" : "_ZTIA32_y"
    },
    {
     "field_name" : "fpscr",
     "field_offset" : 2048,
     "referenced_type" : "_ZTIm"
    }
   ],
   "linker_set_key" : "_ZTI8user_vfp",
   "name" : "user_vfp",
   "referenced_type" : "_ZTI8user_vfp",
   "self_type" : "_ZTI8user_vfp",
   "size" : 264,
   "source_file" : "/out/soong/.intermediates/bionic/libc/libc.llndk/android_vendor.30_arm_armv8-a_shared/gen/include/sys/user.h"
  },
  {
   "alignment" : 4,
   "fields" :
   [
    {
     "field_name" : "__bits",
     "referenced_type" : "_ZTIA1_m"
    }
   ],
   "linker_set_key" : "_ZTI9cpu_set_t",
   "name" : "cpu_set_t",
   "referenced_type" : "_ZTI9cpu_set_t",
   "self_type" : "_ZTI9cpu_set_t",
   "size" : 4,
   "source_file" : "/out/soong/.intermediates/bionic/libc/libc.llndk/android_vendor.30_arm_armv8-a_shared/gen/include/sched.h"
  },
  {
   "alignment" : 8,
   "fields" :
   [
    {
     "field_name" : "quot",
     "referenced_type" : "_ZTIx"
    },
    {
     "field_name" : "rem",
     "field_offset" : 64,
     "referenced_type" : "_ZTIx"
    }
   ],
   "linker_set_key" : "_ZTI9imaxdiv_t",
   "name" : "imaxdiv_t",
   "referenced_type" : "_ZTI9imaxdiv_t",
   "self_type" : "_ZTI9imaxdiv_t",
   "size" : 16,
   "source_file" : "/out/soong/.intermediates/bionic/libc/libc.llndk/android_vendor.30_arm_armv8-a_shared/gen/include/inttypes.h"
  },
  {
   "alignment" : 4,
   "fields" :
   [
    {
     "field_name" : "it_interval",
     "referenced_type" : "_ZTI7timeval"
    },
    {
     "field_name" : "it_value",
     "field_offset" : 64,
     "referenced_type" : "_ZTI7timeval"
    }
   ],
   "linker_set_key" : "_ZTI9itimerval",
   "name" : "itimerval",
   "referenced_type" : "_ZTI9itimerval",
   "self_type" : "_ZTI9itimerval",
   "size" : 16,
   "source_file" : "/bionic/libc/kernel/uapi/linux/time.h"
  },
  {
   "alignment" : 1,
   "fields" :
   [
    {
     "field_name" : "__seq",
     "referenced_type" : "_ZTIA4_h"
    }
   ],
   "linker_set_key" : "_ZTI9mbstate_t",
   "name" : "mbstate_t",
   "referenced_type" : "_ZTI9mbstate_t",
   "self_type" : "_ZTI9mbstate_t",
   "size" : 4,
   "source_file" : "/out/soong/.intermediates/bionic/libc/libc.llndk/android_vendor.30_arm_armv8-a_shared/gen/include/bits/mbstate_t.h"
  },
  {
   "alignment" : 4,
   "fields" :
   [
    {
     "referenced_type" : "_ZTIN9sigactionUt_E"
    },
    {
     "field_name" : "sa_mask",
     "field_offset" : 32,
     "referenced_type" : "_ZTIm"
    },
    {
     "field_name" : "sa_flags",
     "field_offset" : 64,
     "referenced_type" : "_ZTIi"
    },
    {
     "field_name" : "sa_restorer",
     "field_offset" : 96,
     "referenced_type" : "_ZTIPFvvE"
    }
   ],
   "linker_set_key" : "_ZTI9sigaction",
   "name" : "sigaction",
   "referenced_type" : "_ZTI9sigaction",
   "self_type" : "_ZTI9sigaction",
   "size" : 16,
   "source_file" : "/out/soong/.intermediates/bionic/libc/libc.llndk/android_vendor.30_arm_armv8-a_shared/gen/include/bits/signal_types.h"
  },
  {
   "alignment" : 4,
   "fields" :
   [
    {
     "field_name" : "uregs",
     "referenced_type" : "_ZTIA18_m"
    }
   ],
   "linker_set_key" : "_ZTI9user_regs",
   "name" : "user_regs",
   "referenced_type" : "_ZTI9user_regs",
   "self_type" : "_ZTI9user_regs",
   "size" : 72,
   "source_file" : "/out/soong/.intermediates/bionic/libc/libc.llndk/android_vendor.30_arm_armv8-a_shared/gen/include/sys/user.h"
  },
  {
   "alignment" : 4,
   "fields" :
   [
    {
     "field_name" : "_tid",
     "referenced_type" : "_ZTIi"
    },
    {
     "field_name" : "_overrun",
     "field_offset" : 32,
     "referenced_type" : "_ZTIi"
    },
    {
     "field_name" : "_sigval",
     "field_offset" : 64,
     "referenced_type" : "_ZTI6sigval"
    },
    {
     "field_name" : "_sys_private",
     "field_offset" : 96,
     "referenced_type" : "_ZTIi"
    }
   ],
   "is_anonymous" : true,
   "linker_set_key" : "_ZTIN10__sifieldsUt0_E",
   "name" : "__sifields::(anonymous struct at bionic/libc/kernel/uapi/asm-generic/siginfo.h:42:3)",
   "referenced_type" : "_ZTIN10__sifieldsUt0_E",
   "self_type" : "_ZTIN10__sifieldsUt0_E",
   "size" : 16,
   "source_file" : "/bionic/libc/kernel/uapi/asm-generic/siginfo.h"
  },
  {
   "alignment" : 4,
   "fields" :
   [
    {
     "field_name" : "_pid",
     "referenced_type" : "_ZTIi"
    },
    {
     "field_name" : "_uid",
     "field_offset" : 32,
     "referenced_type" : "_ZTIj"
    },
    {
     "field_name" : "_sigval",
     "field_offset" : 64,
     "referenced_type" : "_ZTI6sigval"
    }
   ],
   "is_anonymous" : true,
   "linker_set_key" : "_ZTIN10__sifieldsUt1_E",
   "name" : "__sifields::(anonymous struct at bionic/libc/kernel/uapi/asm-generic/siginfo.h:48:3)",
   "referenced_type" : "_ZTIN10__sifieldsUt1_E",
   "self_type" : "_ZTIN10__sifieldsUt1_E",
   "size" : 12,
   "source_file" : "/bionic/libc/kernel/uapi/asm-generic/siginfo.h"
  },
  {
   "alignment" : 4,
   "fields" :
   [
    {
     "field_name" : "_pid",
     "referenced_type" : "_ZTIi"
    },
    {
     "field_name" : "_uid",
     "field_offset" : 32,
     "referenced_type" : "_ZTIj"
    },
    {
     "field_name" : "_status",
     "field_offset" : 64,
     "referenced_type" : "_ZTIi"
    },
    {
     "field_name" : "_utime",
     "field_offset" : 96,
     "referenced_type" : "_ZTIl"
    },
    {
     "field_name" : "_stime",
     "field_offset" : 128,
     "referenced_type" : "_ZTIl"
    }
   ],
   "is_anonymous" : true,
   "linker_set_key" : "_ZTIN10__sifieldsUt2_E",
   "name" : "__sifields::(anonymous struct at bionic/libc/kernel/uapi/asm-generic/siginfo.h:53:3)",
   "referenced_type" : "_ZTIN10__sifieldsUt2_E",
   "self_type" : "_ZTIN10__sifieldsUt2_E",
   "size" : 20,
   "source_file" : "/bionic/libc/kernel/uapi/asm-generic/siginfo.h"
  },
  {
   "alignment" : 4,
   "fields" :
   [
    {
     "field_name" : "_addr",
     "referenced_type" : "_ZTIPv"
    },
    {
     "field_offset" : 32,
     "referenced_type" : "_ZTIN10__sifieldsUt3_Ut_E"
    }
   ],
   "is_anonymous" : true,
   "linker_set_key" : "_ZTIN10__sifieldsUt3_E",
   "name" : "__sifields::(anonymous struct at bionic/libc/kernel/uapi/asm-generic/siginfo.h:60:3)",
   "referenced_type" : "_ZTIN10__sifieldsUt3_E",
   "self_type" : "_ZTIN10__sifieldsUt3_E",
   "size" : 16,
   "source_file" : "/bionic/libc/kernel/uapi/asm-generic/siginfo.h"
  },
  {
   "alignment" : 4,
   "fields" :
   [
    {
     "field_name" : "_addr_lsb",
     "referenced_type" : "_ZTIs"
    },
    {
     "field_name" : "_addr_bnd",
     "referenced_type" : "_ZTIN10__sifieldsUt3_Ut_Ut_E"
    },
    {
     "field_name" : "_addr_pkey",
     "referenced_type" : "_ZTIN10__sifieldsUt3_Ut_Ut0_E"
    }
   ],
   "is_anonymous" : true,
   "linker_set_key" : "_ZTIN10__sifieldsUt3_Ut_E",
   "name" : "__sifields::(anonymous struct at bionic/libc/kernel/uapi/asm-generic/siginfo.h:60:3)::(anonymous union at bionic/libc/kernel/uapi/asm-generic/siginfo.h:71:5)",
   "record_kind" : "union",
   "referenced_type" : "_ZTIN10__sifieldsUt3_Ut_E",
   "self_type" : "_ZTIN10__sifieldsUt3_Ut_E",
   "size" : 12,
   "source_file" : "/bionic/libc/kernel/uapi/asm-generic/siginfo.h"
  },
  {
   "alignment" : 4,
   "fields" :
   [
    {
     "field_name" : "_dummy_pkey",
     "referenced_type" : "_ZTIA4_c"
    },
    {
     "field_name" : "_pkey",
     "field_offset" : 32,
     "referenced_type" : "_ZTIj"
    }
   ],
   "is_anonymous" : true,
   "linker_set_key" : "_ZTIN10__sifieldsUt3_Ut_Ut0_E",
   "name" : "__sifields::(anonymous struct at bionic/libc/kernel/uapi/asm-generic/siginfo.h:60:3)::(anonymous union at bionic/libc/kernel/uapi/asm-generic/siginfo.h:71:5)::(anonymous struct at bionic/libc/kernel/uapi/asm-generic/siginfo.h:78:7)",
   "referenced_type" : "_ZTIN10__sifieldsUt3_Ut_Ut0_E",
   "self_type" : "_ZTIN10__sifieldsUt3_Ut_Ut0_E",
   "size" : 8,
   "source_file" : "/bionic/libc/kernel/uapi/asm-generic/siginfo.h"
  },
  {
   "alignment" : 4,
   "fields" :
   [
    {
     "field_name" : "_dummy_bnd",
     "referenced_type" : "_ZTIA4_c"
    },
    {
     "field_name" : "_lower",
     "field_offset" : 32,
     "referenced_type" : "_ZTIPv"
    },
    {
     "field_name" : "_upper",
     "field_offset" : 64,
     "referenced_type" : "_ZTIPv"
    }
   ],
   "is_anonymous" : true,
   "linker_set_key" : "_ZTIN10__sifieldsUt3_Ut_Ut_E",
   "name" : "__sifields::(anonymous struct at bionic/libc/kernel/uapi/asm-generic/siginfo.h:60:3)::(anonymous union at bionic/libc/kernel/uapi/asm-generic/siginfo.h:71:5)::(anonymous struct at bionic/libc/kernel/uapi/asm-generic/siginfo.h:73:7)",
   "referenced_type" : "_ZTIN10__sifieldsUt3_Ut_Ut_E",
   "self_type" : "_ZTIN10__sifieldsUt3_Ut_Ut_E",
   "size" : 12,
   "source_file" : "/bionic/libc/kernel/uapi/asm-generic/siginfo.h"
  },
  {
   "alignment" : 4,
   "fields" :
   [
    {
     "field_name" : "_band",
     "referenced_type" : "_ZTIl"
    },
    {
     "field_name" : "_fd",
     "field_offset" : 32,
     "referenced_type" : "_ZTIi"
    }
   ],
   "is_anonymous" : true,
   "linker_set_key" : "_ZTIN10__sifieldsUt4_E",
   "name" : "__sifields::(anonymous struct at bionic/libc/kernel/uapi/asm-generic/siginfo.h:84:3)",
   "referenced_type" : "_ZTIN10__sifieldsUt4_E",
   "self_type" : "_ZTIN10__sifieldsUt4_E",
   "size" : 8,
   "source_file" : "/bionic/libc/kernel/uapi/asm-generic/siginfo.h"
  },
  {
   "alignment" : 4,
   "fields" :
   [
    {
     "field_name" : "_call_addr",
     "referenced_type" : "_ZTIPv"
    },
    {
     "field_name" : "_syscall",
     "field_offset" : 32,
     "referenced_type" : "_ZTIi"
    },
    {
     "field_name" : "_arch",
     "field_offset" : 64,
     "referenced_type" : "_ZTIj"
    }
   ],
   "is_anonymous" : true,
   "linker_set_key" : "_ZTIN10__sifieldsUt5_E",
   "name" : "__sifields::(anonymous struct at bionic/libc/kernel/uapi/asm-generic/siginfo.h:88:3)",
   "referenced_type" : "_ZTIN10__sifieldsUt5_E",
   "self_type" : "_ZTIN10__sifieldsUt5_E",
   "size" : 12,
   "source_file" : "/bionic/libc/kernel/uapi/asm-generic/siginfo.h"
  },
  {
   "alignment" : 4,
   "fields" :
   [
    {
     "field_name" : "_pid",
     "referenced_type" : "_ZTIi"
    },
    {
     "field_name" : "_uid",
     "field_offset" : 32,
     "referenced_type" : "_ZTIj"
    }
   ],
   "is_anonymous" : true,
   "linker_set_key" : "_ZTIN10__sifieldsUt_E",
   "name" : "__sifields::(anonymous struct at bionic/libc/kernel/uapi/asm-generic/siginfo.h:38:3)",
   "referenced_type" : "_ZTIN10__sifieldsUt_E",
   "self_type" : "_ZTIN10__sifieldsUt_E",
   "size" : 8,
   "source_file" : "/bionic/libc/kernel/uapi/asm-generic/siginfo.h"
  },
  {
   "alignment" : 4,
   "fields" :
   [
    {
     "field_name" : "sa_handler",
     "referenced_type" : "_ZTIPFviE"
    },
    {
     "field_name" : "sa_sigaction",
     "referenced_type" : "_ZTIPFviP7siginfoPvE"
    }
   ],
   "is_anonymous" : true,
   "linker_set_key" : "_ZTIN11sigaction64Ut_E",
   "name" : "sigaction64::(anonymous union at out/soong/.intermediates/bionic/libc/libc.llndk/android_vendor.30_arm_armv8-a_shared/gen/include/bits/signal_types.h:100:3)",
   "record_kind" : "union",
   "referenced_type" : "_ZTIN11sigaction64Ut_E",
   "self_type" : "_ZTIN11sigaction64Ut_E",
   "size" : 4,
   "source_file" : "/out/soong/.intermediates/bionic/libc/libc.llndk/android_vendor.30_arm_armv8-a_shared/gen/include/bits/signal_types.h"
  },
  {
   "alignment" : 4,
   "fields" :
   [
    {
     "field_name" : "sign1",
     "referenced_type" : "_ZTIj"
    },
    {
     "field_name" : "unused",
     "field_offset" : 1,
     "referenced_type" : "_ZTIj"
    },
    {
     "field_name" : "sign2",
     "field_offset" : 16,
     "referenced_type" : "_ZTIj"
    },
    {
     "field_name" : "exponent",
     "field_offset" : 17,
     "referenced_type" : "_ZTIj"
    },
    {
     "field_name" : "j",
     "field_offset" : 31,
     "referenced_type" : "_ZTIj"
    },
    {
     "field_name" : "mantissa1",
     "field_offset" : 32,
     "referenced_type" : "_ZTIj"
    },
    {
     "field_name" : "mantissa0",
     "field_offset" : 64,
     "referenced_type" : "_ZTIj"
    }
   ],
   "linker_set_key" : "_ZTIN11user_fpregs6fp_regE",
   "name" : "user_fpregs::fp_reg",
   "referenced_type" : "_ZTIN11user_fpregs6fp_regE",
   "self_type" : "_ZTIN11user_fpregs6fp_regE",
   "size" : 12,
   "source_file" : "/out/soong/.intermediates/bionic/libc/libc.llndk/android_vendor.30_arm_armv8-a_shared/gen/include/sys/user.h"
  },
  {
   "alignment" : 4,
   "fields" :
   [
    {
     "field_name" : "_sa_handler",
     "referenced_type" : "_ZTIPFviE"
    },
    {
     "field_name" : "_sa_sigaction",
     "referenced_type" : "_ZTIPFviP7siginfoPvE"
    }
   ],
   "is_anonymous" : true,
   "linker_set_key" : "_ZTIN18__kernel_sigactionUt_E",
   "name" : "__kernel_sigaction::(anonymous union at bionic/libc/kernel/uapi/asm-arm/asm/signal.h:77:3)",
   "record_kind" : "union",
   "referenced_type" : "_ZTIN18__kernel_sigactionUt_E",
   "self_type" : "_ZTIN18__kernel_sigactionUt_E",
   "size" : 4,
   "source_file" : "/bionic/libc/kernel/uapi/asm-arm/asm/signal.h"
  },
  {
   "alignment" : 4,
   "fields" :
   [
    {
     "access" : "private",
     "field_name" : "mCount",
     "referenced_type" : "_ZTINSt3__16atomicIiEE"
    }
   ],
   "linker_set_key" : "_ZTIN7android12LightRefBaseINS_12NativeHandleEEE",
   "name" : "android::LightRefBase<android::NativeHandle>",
   "record_kind" : "class",
   "referenced_type" : "_ZTIN7android12LightRefBaseINS_12NativeHandleEEE",
   "self_type" : "_ZTIN7android12LightRefBaseINS_12NativeHandleEEE",
   "size" : 4,
   "source_file" : "/system/core/libutils/include/utils/LightRefBase.h",
   "template_args" : [ "_ZTIN7android12NativeHandleE" ]
  },
  {
   "alignment" : 4,
   "fields" :
   [
    {
     "access" : "private",
     "field_name" : "mCount",
     "referenced_type" : "_ZTINSt3__16atomicIiEE"
    }
   ],
   "linker_set_key" : "_ZTIN7android12LightRefBaseINS_19VirtualLightRefBaseEEE",
   "name" : "android::LightRefBase<android::VirtualLightRefBase>",
   "record_kind" : "class",
   "referenced_type" : "_ZTIN7android12LightRefBaseINS_19VirtualLightRefBaseEEE",
   "self_type" : "_ZTIN7android12LightRefBaseINS_19VirtualLightRefBaseEEE",
   "size" : 4,
   "source_file" : "/system/core/libutils/include/utils/LightRefBase.h",
   "template_args" : [ "_ZTIN7android19VirtualLightRefBaseE" ]
  },
  {
   "alignment" : 4,
   "base_specifiers" :
   [
    {
     "referenced_type" : "_ZTIN7android12LightRefBaseINS_12NativeHandleEEE"
    }
   ],
   "fields" :
   [
    {
     "access" : "private",
     "field_name" : "mHandle",
     "field_offset" : 32,
     "referenced_type" : "_ZTIP13native_handle"
    },
    {
     "access" : "private",
     "field_name" : "mOwnsHandle",
     "field_offset" : 64,
     "referenced_type" : "_ZTIb"
    }
   ],
   "linker_set_key" : "_ZTIN7android12NativeHandleE",
   "name" : "android::NativeHandle",
   "record_kind" : "class",
   "referenced_type" : "_ZTIN7android12NativeHandleE",
   "self_type" : "_ZTIN7android12NativeHandleE",
   "size" : 12,
   "source_file" : "/system/core/libutils/include/utils/NativeHandle.h"
  },
  {
   "alignment" : 1,
   "linker_set_key" : "_ZTIN7android14ReferenceMoverE",
   "name" : "android::ReferenceMover",
   "record_kind" : "class",
   "referenced_type" : "_ZTIN7android14ReferenceMoverE",
   "self_type" : "_ZTIN7android14ReferenceMoverE",
   "size" : 1,
   "source_file" : "/system/core/libutils/include/utils/RefBase.h"
  },
  {
   "alignment" : 4,
   "linker_set_key" : "_ZTIN7android16ReferenceRenamerE",
   "name" : "android::ReferenceRenamer",
   "record_kind" : "class",
   "referenced_type" : "_ZTIN7android16ReferenceRenamerE",
   "self_type" : "_ZTIN7android16ReferenceRenamerE",
   "size" : 4,
   "source_file" : "/system/core/libutils/include/utils/RefBase.h",
   "vtable_components" :
   [
    {
     "kind" : "offset_to_top"
    },
    {
     "kind" : "rtti",
     "mangled_component_name" : "_ZTIN7android16ReferenceRenamerE"
    },
    {
     "is_pure" : true,
     "mangled_component_name" : "_ZNK7android16ReferenceRenamerclEj"
    }
   ]
  },
  {
   "alignment" : 1,
   "linker_set_key" : "_ZTIN7android18trait_trivial_copyIbEE",
   "name" : "android::trait_trivial_copy<bool>",
   "referenced_type" : "_ZTIN7android18trait_trivial_copyIbEE",
   "self_type" : "_ZTIN7android18trait_trivial_copyIbEE",
   "size" : 1,
   "source_file" : "/system/core/libutils/include/utils/TypeHelpers.h",
   "template_args" : [ "_ZTIb" ]
  },
  {
   "alignment" : 1,
   "linker_set_key" : "_ZTIN7android18trait_trivial_copyIcEE",
   "name" : "android::trait_trivial_copy<char>",
   "referenced_type" : "_ZTIN7android18trait_trivial_copyIcEE",
   "self_type" : "_ZTIN7android18trait_trivial_copyIcEE",
   "size" : 1,
   "source_file" : "/system/core/libutils/include/utils/TypeHelpers.h",
   "template_args" : [ "_ZTIc" ]
  },
  {
   "alignment" : 1,
   "linker_set_key" : "_ZTIN7android18trait_trivial_copyIdEE",
   "name" : "android::trait_trivial_copy<double>",
   "referenced_type" : "_ZTIN7android18trait_trivial_copyIdEE",
   "self_type" : "_ZTIN7android18trait_trivial_copyIdEE",
   "size" : 1,
   "source_file" : "/system/core/libutils/include/utils/TypeHelpers.h",
   "template_args" : [ "_ZTId" ]
  },
  {
   "alignment" : 1,
   "linker_set_key" : "_ZTIN7android18trait_trivial_copyIfEE",
   "name" : "android::trait_trivial_copy<float>",
   "referenced_type" : "_ZTIN7android18trait_trivial_copyIfEE",
   "self_type" : "_ZTIN7android18trait_trivial_copyIfEE",
   "size" : 1,
   "source_file" : "/system/core/libutils/include/utils/TypeHelpers.h",
   "template_args" : [ "_ZTIf" ]
  },
  {
   "alignment" : 1,
   "linker_set_key" : "_ZTIN7android18trait_trivial_copyIhEE",
   "name" : "android::trait_trivial_copy<unsigned char>",
   "referenced_type" : "_ZTIN7android18trait_trivial_copyIhEE",
   "self_type" : "_ZTIN7android18trait_trivial_copyIhEE",
   "size" : 1,
   "source_file" : "/system/core/libutils/include/utils/TypeHelpers.h",
   "template_args" : [ "_ZTIh" ]
  },
  {
   "alignment" : 1,
   "linker_set_key" : "_ZTIN7android18trait_trivial_copyIiEE",
   "name" : "android::trait_trivial_copy<int>",
   "referenced_type" : "_ZTIN7android18trait_trivial_copyIiEE",
   "self_type" : "_ZTIN7android18trait_trivial_copyIiEE",
   "size" : 1,
   "source_file" : "/system/core/libutils/include/utils/TypeHelpers.h",
   "template_args" : [ "_ZTIi" ]
  },
  {
   "alignment" : 1,
   "linker_set_key" : "_ZTIN7android18trait_trivial_copyIjEE",
   "name" : "android::trait_trivial_copy<unsigned int>",
   "referenced_type" : "_ZTIN7android18trait_trivial_copyIjEE",
   "self_type" : "_ZTIN7android18trait_trivial_copyIjEE",
   "size" : 1,
   "source_file" : "/system/core/libutils/include/utils/TypeHelpers.h",
   "template_args" : [ "_ZTIj" ]
  },
  {
   "alignment" : 1,
   "linker_set_key" : "_ZTIN7android18trait_trivial_copyIlEE",
   "name" : "android::trait_trivial_copy<long>",
   "referenced_type" : "_ZTIN7android18trait_trivial_copyIlEE",
   "self_type" : "_ZTIN7android18trait_trivial_copyIlEE",
   "size" : 1,
   "source_file" : "/system/core/libutils/include/utils/TypeHelpers.h",
   "template_args" : [ "_ZTIl" ]
  },
  {
   "alignment" : 1,
   "linker_set_key" : "_ZTIN7android18trait_trivial_copyImEE",
   "name" : "android::trait_trivial_copy<unsigned long>",
   "referenced_type" : "_ZTIN7android18trait_trivial_copyImEE",
   "self_type" : "_ZTIN7android18trait_trivial_copyImEE",
   "size" : 1,
   "source_file" : "/system/core/libutils/include/utils/TypeHelpers.h",
   "template_args" : [ "_ZTIm" ]
  },
  {
   "alignment" : 1,
   "linker_set_key" : "_ZTIN7android18trait_trivial_copyIsEE",
   "name" : "android::trait_trivial_copy<short>",
   "referenced_type" : "_ZTIN7android18trait_trivial_copyIsEE",
   "self_type" : "_ZTIN7android18trait_trivial_copyIsEE",
   "size" : 1,
   "source_file" : "/system/core/libutils/include/utils/TypeHelpers.h",
   "template_args" : [ "_ZTIs" ]
  },
  {
   "alignment" : 1,
   "linker_set_key" : "_ZTIN7android18trait_trivial_copyItEE",
   "name" : "android::trait_trivial_copy<unsigned short>",
   "referenced_type" : "_ZTIN7android18trait_trivial_copyItEE",
   "self_type" : "_ZTIN7android18trait_trivial_copyItEE",
   "size" : 1,
   "source_file" : "/system/core/libutils/include/utils/TypeHelpers.h",
   "template_args" : [ "_ZTIt" ]
  },
  {
   "alignment" : 1,
   "linker_set_key" : "_ZTIN7android18trait_trivial_copyIvEE",
   "name" : "android::trait_trivial_copy<void>",
   "referenced_type" : "_ZTIN7android18trait_trivial_copyIvEE",
   "self_type" : "_ZTIN7android18trait_trivial_copyIvEE",
   "size" : 1,
   "source_file" : "/system/core/libutils/include/utils/TypeHelpers.h",
   "template_args" : [ "_ZTIv" ]
  },
  {
   "alignment" : 1,
   "linker_set_key" : "_ZTIN7android18trait_trivial_copyIxEE",
   "name" : "android::trait_trivial_copy<long long>",
   "referenced_type" : "_ZTIN7android18trait_trivial_copyIxEE",
   "self_type" : "_ZTIN7android18trait_trivial_copyIxEE",
   "size" : 1,
   "source_file" : "/system/core/libutils/include/utils/TypeHelpers.h",
   "template_args" : [ "_ZTIx" ]
  },
  {
   "alignment" : 1,
   "linker_set_key" : "_ZTIN7android18trait_trivial_copyIyEE",
   "name" : "android::trait_trivial_copy<unsigned long long>",
   "referenced_type" : "_ZTIN7android18trait_trivial_copyIyEE",
   "self_type" : "_ZTIN7android18trait_trivial_copyIyEE",
   "size" : 1,
   "source_file" : "/system/core/libutils/include/utils/TypeHelpers.h",
   "template_args" : [ "_ZTIy" ]
  },
  {
   "alignment" : 1,
   "linker_set_key" : "_ZTIN7android18trait_trivial_ctorIbEE",
   "name" : "android::trait_trivial_ctor<bool>",
   "referenced_type" : "_ZTIN7android18trait_trivial_ctorIbEE",
   "self_type" : "_ZTIN7android18trait_trivial_ctorIbEE",
   "size" : 1,
   "source_file" : "/system/core/libutils/include/utils/TypeHelpers.h",
   "template_args" : [ "_ZTIb" ]
  },
  {
   "alignment" : 1,
   "linker_set_key" : "_ZTIN7android18trait_trivial_ctorIcEE",
   "name" : "android::trait_trivial_ctor<char>",
   "referenced_type" : "_ZTIN7android18trait_trivial_ctorIcEE",
   "self_type" : "_ZTIN7android18trait_trivial_ctorIcEE",
   "size" : 1,
   "source_file" : "/system/core/libutils/include/utils/TypeHelpers.h",
   "template_args" : [ "_ZTIc" ]
  },
  {
   "alignment" : 1,
   "linker_set_key" : "_ZTIN7android18trait_trivial_ctorIdEE",
   "name" : "android::trait_trivial_ctor<double>",
   "referenced_type" : "_ZTIN7android18trait_trivial_ctorIdEE",
   "self_type" : "_ZTIN7android18trait_trivial_ctorIdEE",
   "size" : 1,
   "source_file" : "/system/core/libutils/include/utils/TypeHelpers.h",
   "template_args" : [ "_ZTId" ]
  },
  {
   "alignment" : 1,
   "linker_set_key" : "_ZTIN7android18trait_trivial_ctorIfEE",
   "name" : "android::trait_trivial_ctor<float>",
   "referenced_type" : "_ZTIN7android18trait_trivial_ctorIfEE",
   "self_type" : "_ZTIN7android18trait_trivial_ctorIfEE",
   "size" : 1,
   "source_file" : "/system/core/libutils/include/utils/TypeHelpers.h",
   "template_args" : [ "_ZTIf" ]
  },
  {
   "alignment" : 1,
   "linker_set_key" : "_ZTIN7android18trait_trivial_ctorIhEE",
   "name" : "android::trait_trivial_ctor<unsigned char>",
   "referenced_type" : "_ZTIN7android18trait_trivial_ctorIhEE",
   "self_type" : "_ZTIN7android18trait_trivial_ctorIhEE",
   "size" : 1,
   "source_file" : "/system/core/libutils/include/utils/TypeHelpers.h",
   "template_args" : [ "_ZTIh" ]
  },
  {
   "alignment" : 1,
   "linker_set_key" : "_ZTIN7android18trait_trivial_ctorIiEE",
   "name" : "android::trait_trivial_ctor<int>",
   "referenced_type" : "_ZTIN7android18trait_trivial_ctorIiEE",
   "self_type" : "_ZTIN7android18trait_trivial_ctorIiEE",
   "size" : 1,
   "source_file" : "/system/core/libutils/include/utils/TypeHelpers.h",
   "template_args" : [ "_ZTIi" ]
  },
  {
   "alignment" : 1,
   "linker_set_key" : "_ZTIN7android18trait_trivial_ctorIjEE",
   "name" : "android::trait_trivial_ctor<unsigned int>",
   "referenced_type" : "_ZTIN7android18trait_trivial_ctorIjEE",
   "self_type" : "_ZTIN7android18trait_trivial_ctorIjEE",
   "size" : 1,
   "source_file" : "/system/core/libutils/include/utils/TypeHelpers.h",
   "template_args" : [ "_ZTIj" ]
  },
  {
   "alignment" : 1,
   "linker_set_key" : "_ZTIN7android18trait_trivial_ctorIlEE",
   "name" : "android::trait_trivial_ctor<long>",
   "referenced_type" : "_ZTIN7android18trait_trivial_ctorIlEE",
   "self_type" : "_ZTIN7android18trait_trivial_ctorIlEE",
   "size" : 1,
   "source_file" : "/system/core/libutils/include/utils/TypeHelpers.h",
   "template_args" : [ "_ZTIl" ]
  },
  {
   "alignment" : 1,
   "linker_set_key" : "_ZTIN7android18trait_trivial_ctorImEE",
   "name" : "android::trait_trivial_ctor<unsigned long>",
   "referenced_type" : "_ZTIN7android18trait_trivial_ctorImEE",
   "self_type" : "_ZTIN7android18trait_trivial_ctorImEE",
   "size" : 1,
   "source_file" : "/system/core/libutils/include/utils/TypeHelpers.h",
   "template_args" : [ "_ZTIm" ]
  },
  {
   "alignment" : 1,
   "linker_set_key" : "_ZTIN7android18trait_trivial_ctorIsEE",
   "name" : "android::trait_trivial_ctor<short>",
   "referenced_type" : "_ZTIN7android18trait_trivial_ctorIsEE",
   "self_type" : "_ZTIN7android18trait_trivial_ctorIsEE",
   "size" : 1,
   "source_file" : "/system/core/libutils/include/utils/TypeHelpers.h",
   "template_args" : [ "_ZTIs" ]
  },
  {
   "alignment" : 1,
   "linker_set_key" : "_ZTIN7android18trait_trivial_ctorItEE",
   "name" : "android::trait_trivial_ctor<unsigned short>",
   "referenced_type" : "_ZTIN7android18trait_trivial_ctorItEE",
   "self_type" : "_ZTIN7android18trait_trivial_ctorItEE",
   "size" : 1,
   "source_file" : "/system/core/libutils/include/utils/TypeHelpers.h",
   "template_args" : [ "_ZTIt" ]
  },
  {
   "alignment" : 1,
   "linker_set_key" : "_ZTIN7android18trait_trivial_ctorIvEE",
   "name" : "android::trait_trivial_ctor<void>",
   "referenced_type" : "_ZTIN7android18trait_trivial_ctorIvEE",
   "self_type" : "_ZTIN7android18trait_trivial_ctorIvEE",
   "size" : 1,
   "source_file" : "/system/core/libutils/include/utils/TypeHelpers.h",
   "template_args" : [ "_ZTIv" ]
  },
  {
   "alignment" : 1,
   "linker_set_key" : "_ZTIN7android18trait_trivial_ctorIxEE",
   "name" : "android::trait_trivial_ctor<long long>",
   "referenced_type" : "_ZTIN7android18trait_trivial_ctorIxEE",
   "self_type" : "_ZTIN7android18trait_trivial_ctorIxEE",
   "size" : 1,
   "source_file" : "/system/core/libutils/include/utils/TypeHelpers.h",
   "template_args" : [ "_ZTIx" ]
  },
  {
   "alignment" : 1,
   "linker_set_key" : "_ZTIN7android18trait_trivial_ctorIyEE",
   "name" : "android::trait_trivial_ctor<unsigned long long>",
   "referenced_type" : "_ZTIN7android18trait_trivial_ctorIyEE",
   "self_type" : "_ZTIN7android18trait_trivial_ctorIyEE",
   "size" : 1,
   "source_file" : "/system/core/libutils/include/utils/TypeHelpers.h",
   "template_args" : [ "_ZTIy" ]
  },
  {
   "alignment" : 1,
   "linker_set_key" : "_ZTIN7android18trait_trivial_dtorIbEE",
   "name" : "android::trait_trivial_dtor<bool>",
   "referenced_type" : "_ZTIN7android18trait_trivial_dtorIbEE",
   "self_type" : "_ZTIN7android18trait_trivial_dtorIbEE",
   "size" : 1,
   "source_file" : "/system/core/libutils/include/utils/TypeHelpers.h",
   "template_args" : [ "_ZTIb" ]
  },
  {
   "alignment" : 1,
   "linker_set_key" : "_ZTIN7android18trait_trivial_dtorIcEE",
   "name" : "android::trait_trivial_dtor<char>",
   "referenced_type" : "_ZTIN7android18trait_trivial_dtorIcEE",
   "self_type" : "_ZTIN7android18trait_trivial_dtorIcEE",
   "size" : 1,
   "source_file" : "/system/core/libutils/include/utils/TypeHelpers.h",
   "template_args" : [ "_ZTIc" ]
  },
  {
   "alignment" : 1,
   "linker_set_key" : "_ZTIN7android18trait_trivial_dtorIdEE",
   "name" : "android::trait_trivial_dtor<double>",
   "referenced_type" : "_ZTIN7android18trait_trivial_dtorIdEE",
   "self_type" : "_ZTIN7android18trait_trivial_dtorIdEE",
   "size" : 1,
   "source_file" : "/system/core/libutils/include/utils/TypeHelpers.h",
   "template_args" : [ "_ZTId" ]
  },
  {
   "alignment" : 1,
   "linker_set_key" : "_ZTIN7android18trait_trivial_dtorIfEE",
   "name" : "android::trait_trivial_dtor<float>",
   "referenced_type" : "_ZTIN7android18trait_trivial_dtorIfEE",
   "self_type" : "_ZTIN7android18trait_trivial_dtorIfEE",
   "size" : 1,
   "source_file" : "/system/core/libutils/include/utils/TypeHelpers.h",
   "template_args" : [ "_ZTIf" ]
  },
  {
   "alignment" : 1,
   "linker_set_key" : "_ZTIN7android18trait_trivial_dtorIhEE",
   "name" : "android::trait_trivial_dtor<unsigned char>",
   "referenced_type" : "_ZTIN7android18trait_trivial_dtorIhEE",
   "self_type" : "_ZTIN7android18trait_trivial_dtorIhEE",
   "size" : 1,
   "source_file" : "/system/core/libutils/include/utils/TypeHelpers.h",
   "template_args" : [ "_ZTIh" ]
  },
  {
   "alignment" : 1,
   "linker_set_key" : "_ZTIN7android18trait_trivial_dtorIiEE",
   "name" : "android::trait_trivial_dtor<int>",
   "referenced_type" : "_ZTIN7android18trait_trivial_dtorIiEE",
   "self_type" : "_ZTIN7android18trait_trivial_dtorIiEE",
   "size" : 1,
   "source_file" : "/system/core/libutils/include/utils/TypeHelpers.h",
   "template_args" : [ "_ZTIi" ]
  },
  {
   "alignment" : 1,
   "linker_set_key" : "_ZTIN7android18trait_trivial_dtorIjEE",
   "name" : "android::trait_trivial_dtor<unsigned int>",
   "referenced_type" : "_ZTIN7android18trait_trivial_dtorIjEE",
   "self_type" : "_ZTIN7android18trait_trivial_dtorIjEE",
   "size" : 1,
   "source_file" : "/system/core/libutils/include/utils/TypeHelpers.h",
   "template_args" : [ "_ZTIj" ]
  },
  {
   "alignment" : 1,
   "linker_set_key" : "_ZTIN7android18trait_trivial_dtorIlEE",
   "name" : "android::trait_trivial_dtor<long>",
   "referenced_type" : "_ZTIN7android18trait_trivial_dtorIlEE",
   "self_type" : "_ZTIN7android18trait_trivial_dtorIlEE",
   "size" : 1,
   "source_file" : "/system/core/libutils/include/utils/TypeHelpers.h",
   "template_args" : [ "_ZTIl" ]
  },
  {
   "alignment" : 1,
   "linker_set_key" : "_ZTIN7android18trait_trivial_dtorImEE",
   "name" : "android::trait_trivial_dtor<unsigned long>",
   "referenced_type" : "_ZTIN7android18trait_trivial_dtorImEE",
   "self_type" : "_ZTIN7android18trait_trivial_dtorImEE",
   "size" : 1,
   "source_file" : "/system/core/libutils/include/utils/TypeHelpers.h",
   "template_args" : [ "_ZTIm" ]
  },
  {
   "alignment" : 1,
   "linker_set_key" : "_ZTIN7android18trait_trivial_dtorIsEE",
   "name" : "android::trait_trivial_dtor<short>",
   "referenced_type" : "_ZTIN7android18trait_trivial_dtorIsEE",
   "self_type" : "_ZTIN7android18trait_trivial_dtorIsEE",
   "size" : 1,
   "source_file" : "/system/core/libutils/include/utils/TypeHelpers.h",
   "template_args" : [ "_ZTIs" ]
  },
  {
   "alignment" : 1,
   "linker_set_key" : "_ZTIN7android18trait_trivial_dtorItEE",
   "name" : "android::trait_trivial_dtor<unsigned short>",
   "referenced_type" : "_ZTIN7android18trait_trivial_dtorItEE",
   "self_type" : "_ZTIN7android18trait_trivial_dtorItEE",
   "size" : 1,
   "source_file" : "/system/core/libutils/include/utils/TypeHelpers.h",
   "template_args" : [ "_ZTIt" ]
  },
  {
   "alignment" : 1,
   "linker_set_key" : "_ZTIN7android18trait_trivial_dtorIvEE",
   "name" : "android::trait_trivial_dtor<void>",
   "referenced_type" : "_ZTIN7android18trait_trivial_dtorIvEE",
   "self_type" : "_ZTIN7android18trait_trivial_dtorIvEE",
   "size" : 1,
   "source_file" : "/system/core/libutils/include/utils/TypeHelpers.h",
   "template_args" : [ "_ZTIv" ]
  },
  {
   "alignment" : 1,
   "linker_set_key" : "_ZTIN7android18trait_trivial_dtorIxEE",
   "name" : "android::trait_trivial_dtor<long long>",
   "referenced_type" : "_ZTIN7android18trait_trivial_dtorIxEE",
   "self_type" : "_ZTIN7android18trait_trivial_dtorIxEE",
   "size" : 1,
   "source_file" : "/system/core/libutils/include/utils/TypeHelpers.h",
   "template_args" : [ "_ZTIx" ]
  },
  {
   "alignment" : 1,
   "linker_set_key" : "_ZTIN7android18trait_trivial_dtorIyEE",
   "name" : "android::trait_trivial_dtor<unsigned long long>",
   "referenced_type" : "_ZTIN7android18trait_trivial_dtorIyEE",
   "self_type" : "_ZTIN7android18trait_trivial_dtorIyEE",
   "size" : 1,
   "source_file" : "/system/core/libutils/include/utils/TypeHelpers.h",
   "template_args" : [ "_ZTIy" ]
  },
  {
   "alignment" : 1,
   "linker_set_key" : "_ZTIN7android18trait_trivial_moveIbEE",
   "name" : "android::trait_trivial_move<bool>",
   "referenced_type" : "_ZTIN7android18trait_trivial_moveIbEE",
   "self_type" : "_ZTIN7android18trait_trivial_moveIbEE",
   "size" : 1,
   "source_file" : "/system/core/libutils/include/utils/TypeHelpers.h",
   "template_args" : [ "_ZTIb" ]
  },
  {
   "alignment" : 1,
   "linker_set_key" : "_ZTIN7android18trait_trivial_moveIcEE",
   "name" : "android::trait_trivial_move<char>",
   "referenced_type" : "_ZTIN7android18trait_trivial_moveIcEE",
   "self_type" : "_ZTIN7android18trait_trivial_moveIcEE",
   "size" : 1,
   "source_file" : "/system/core/libutils/include/utils/TypeHelpers.h",
   "template_args" : [ "_ZTIc" ]
  },
  {
   "alignment" : 1,
   "linker_set_key" : "_ZTIN7android18trait_trivial_moveIdEE",
   "name" : "android::trait_trivial_move<double>",
   "referenced_type" : "_ZTIN7android18trait_trivial_moveIdEE",
   "self_type" : "_ZTIN7android18trait_trivial_moveIdEE",
   "size" : 1,
   "source_file" : "/system/core/libutils/include/utils/TypeHelpers.h",
   "template_args" : [ "_ZTId" ]
  },
  {
   "alignment" : 1,
   "linker_set_key" : "_ZTIN7android18trait_trivial_moveIfEE",
   "name" : "android::trait_trivial_move<float>",
   "referenced_type" : "_ZTIN7android18trait_trivial_moveIfEE",
   "self_type" : "_ZTIN7android18trait_trivial_moveIfEE",
   "size" : 1,
   "source_file" : "/system/core/libutils/include/utils/TypeHelpers.h",
   "template_args" : [ "_ZTIf" ]
  },
  {
   "alignment" : 1,
   "linker_set_key" : "_ZTIN7android18trait_trivial_moveIhEE",
   "name" : "android::trait_trivial_move<unsigned char>",
   "referenced_type" : "_ZTIN7android18trait_trivial_moveIhEE",
   "self_type" : "_ZTIN7android18trait_trivial_moveIhEE",
   "size" : 1,
   "source_file" : "/system/core/libutils/include/utils/TypeHelpers.h",
   "template_args" : [ "_ZTIh" ]
  },
  {
   "alignment" : 1,
   "linker_set_key" : "_ZTIN7android18trait_trivial_moveIiEE",
   "name" : "android::trait_trivial_move<int>",
   "referenced_type" : "_ZTIN7android18trait_trivial_moveIiEE",
   "self_type" : "_ZTIN7android18trait_trivial_moveIiEE",
   "size" : 1,
   "source_file" : "/system/core/libutils/include/utils/TypeHelpers.h",
   "template_args" : [ "_ZTIi" ]
  },
  {
   "alignment" : 1,
   "linker_set_key" : "_ZTIN7android18trait_trivial_moveIjEE",
   "name" : "android::trait_trivial_move<unsigned int>",
   "referenced_type" : "_ZTIN7android18trait_trivial_moveIjEE",
   "self_type" : "_ZTIN7android18trait_trivial_moveIjEE",
   "size" : 1,
   "source_file" : "/system/core/libutils/include/utils/TypeHelpers.h",
   "template_args" : [ "_ZTIj" ]
  },
  {
   "alignment" : 1,
   "linker_set_key" : "_ZTIN7android18trait_trivial_moveIlEE",
   "name" : "android::trait_trivial_move<long>",
   "referenced_type" : "_ZTIN7android18trait_trivial_moveIlEE",
   "self_type" : "_ZTIN7android18trait_trivial_moveIlEE",
   "size" : 1,
   "source_file" : "/system/core/libutils/include/utils/TypeHelpers.h",
   "template_args" : [ "_ZTIl" ]
  },
  {
   "alignment" : 1,
   "linker_set_key" : "_ZTIN7android18trait_trivial_moveImEE",
   "name" : "android::trait_trivial_move<unsigned long>",
   "referenced_type" : "_ZTIN7android18trait_trivial_moveImEE",
   "self_type" : "_ZTIN7android18trait_trivial_moveImEE",
   "size" : 1,
   "source_file" : "/system/core/libutils/include/utils/TypeHelpers.h",
   "template_args" : [ "_ZTIm" ]
  },
  {
   "alignment" : 1,
   "linker_set_key" : "_ZTIN7android18trait_trivial_moveIsEE",
   "name" : "android::trait_trivial_move<short>",
   "referenced_type" : "_ZTIN7android18trait_trivial_moveIsEE",
   "self_type" : "_ZTIN7android18trait_trivial_moveIsEE",
   "size" : 1,
   "source_file" : "/system/core/libutils/include/utils/TypeHelpers.h",
   "template_args" : [ "_ZTIs" ]
  },
  {
   "alignment" : 1,
   "linker_set_key" : "_ZTIN7android18trait_trivial_moveItEE",
   "name" : "android::trait_trivial_move<unsigned short>",
   "referenced_type" : "_ZTIN7android18trait_trivial_moveItEE",
   "self_type" : "_ZTIN7android18trait_trivial_moveItEE",
   "size" : 1,
   "source_file" : "/system/core/libutils/include/utils/TypeHelpers.h",
   "template_args" : [ "_ZTIt" ]
  },
  {
   "alignment" : 1,
   "linker_set_key" : "_ZTIN7android18trait_trivial_moveIvEE",
   "name" : "android::trait_trivial_move<void>",
   "referenced_type" : "_ZTIN7android18trait_trivial_moveIvEE",
   "self_type" : "_ZTIN7android18trait_trivial_moveIvEE",
   "size" : 1,
   "source_file" : "/system/core/libutils/include/utils/TypeHelpers.h",
   "template_args" : [ "_ZTIv" ]
  },
  {
   "alignment" : 1,
   "linker_set_key" : "_ZTIN7android18trait_trivial_moveIxEE",
   "name" : "android::trait_trivial_move<long long>",
   "referenced_type" : "_ZTIN7android18trait_trivial_moveIxEE",
   "self_type" : "_ZTIN7android18trait_trivial_moveIxEE",
   "size" : 1,
   "source_file" : "/system/core/libutils/include/utils/TypeHelpers.h",
   "template_args" : [ "_ZTIx" ]
  },
  {
   "alignment" : 1,
   "linker_set_key" : "_ZTIN7android18trait_trivial_moveIyEE",
   "name" : "android::trait_trivial_move<unsigned long long>",
   "referenced_type" : "_ZTIN7android18trait_trivial_moveIyEE",
   "self_type" : "_ZTIN7android18trait_trivial_moveIyEE",
   "size" : 1,
   "source_file" : "/system/core/libutils/include/utils/TypeHelpers.h",
   "template_args" : [ "_ZTIy" ]
  },
  {
   "alignment" : 4,
   "base_specifiers" :
   [
    {
     "referenced_type" : "_ZTIN7android12LightRefBaseINS_19VirtualLightRefBaseEEE"
    }
   ],
   "linker_set_key" : "_ZTIN7android19VirtualLightRefBaseE",
   "name" : "android::VirtualLightRefBase",
   "record_kind" : "class",
   "referenced_type" : "_ZTIN7android19VirtualLightRefBaseE",
   "self_type" : "_ZTIN7android19VirtualLightRefBaseE",
   "size" : 8,
   "source_file" : "/system/core/libutils/include/utils/LightRefBase.h",
   "vtable_components" :
   [
    {
     "kind" : "offset_to_top"
    },
    {
     "kind" : "rtti",
     "mangled_component_name" : "_ZTIN7android19VirtualLightRefBaseE"
    },
    {
     "kind" : "complete_dtor_pointer",
     "mangled_component_name" : "_ZN7android19VirtualLightRefBaseD1Ev"
    },
    {
     "kind" : "deleting_dtor_pointer",
     "mangled_component_name" : "_ZN7android19VirtualLightRefBaseD0Ev"
    }
   ]
  },
  {
   "alignment" : 4,
   "fields" :
   [
    {
     "access" : "private",
     "field_name" : "m_ptr",
     "referenced_type" : "_ZTIPN7android4hidl4base4V1_05IBaseE"
    }
   ],
   "linker_set_key" : "_ZTIN7android2spINS_4hidl4base4V1_05IBaseEEE",
   "name" : "android::sp<android::hidl::base::V1_0::IBase>",
   "record_kind" : "class",
   "referenced_type" : "_ZTIN7android2spINS_4hidl4base4V1_05IBaseEEE",
   "self_type" : "_ZTIN7android2spINS_4hidl4base4V1_05IBaseEEE",
   "size" : 4,
   "source_file" : "/system/core/libutils/include/utils/StrongPointer.h",
   "template_args" : [ "_ZTIN7android4hidl4base4V1_05IBaseE" ]
  },
  {
   "alignment" : 4,
   "fields" :
   [
    {
     "access" : "private",
     "field_name" : "m_ptr",
     "referenced_type" : "_ZTIPN7android4hidl6memory4V1_07IMapperE"
    }
   ],
   "linker_set_key" : "_ZTIN7android2spINS_4hidl6memory4V1_07IMapperEEE",
   "name" : "android::sp<android::hidl::memory::V1_0::IMapper>",
   "record_kind" : "class",
   "referenced_type" : "_ZTIN7android2spINS_4hidl6memory4V1_07IMapperEEE",
   "self_type" : "_ZTIN7android2spINS_4hidl6memory4V1_07IMapperEEE",
   "size" : 4,
   "source_file" : "/system/core/libutils/include/utils/StrongPointer.h",
   "template_args" : [ "_ZTIN7android4hidl6memory4V1_07IMapperE" ]
  },
  {
   "alignment" : 4,
   "fields" :
   [
    {
     "access" : "private",
     "field_name" : "m_ptr",
     "referenced_type" : "_ZTIPN7android4hidl6memory4V1_07IMemoryE"
    }
   ],
   "linker_set_key" : "_ZTIN7android2spINS_4hidl6memory4V1_07IMemoryEEE",
   "name" : "android::sp<android::hidl::memory::V1_0::IMemory>",
   "record_kind" : "class",
   "referenced_type" : "_ZTIN7android2spINS_4hidl6memory4V1_07IMemoryEEE",
   "self_type" : "_ZTIN7android2spINS_4hidl6memory4V1_07IMemoryEEE",
   "size" : 4,
   "source_file" : "/system/core/libutils/include/utils/StrongPointer.h",
   "template_args" : [ "_ZTIN7android4hidl6memory4V1_07IMemoryE" ]
  },
  {
   "alignment" : 4,
   "fields" :
   [
    {
     "access" : "private",
     "field_name" : "m_ptr",
     "referenced_type" : "_ZTIPN7android4hidl7manager4V1_020IServiceNotificationE"
    }
   ],
   "linker_set_key" : "_ZTIN7android2spINS_4hidl7manager4V1_020IServiceNotificationEEE",
   "name" : "android::sp<android::hidl::manager::V1_0::IServiceNotification>",
   "record_kind" : "class",
   "referenced_type" : "_ZTIN7android2spINS_4hidl7manager4V1_020IServiceNotificationEEE",
   "self_type" : "_ZTIN7android2spINS_4hidl7manager4V1_020IServiceNotificationEEE",
   "size" : 4,
   "source_file" : "/system/core/libutils/include/utils/StrongPointer.h",
   "template_args" : [ "_ZTIN7android4hidl7manager4V1_020IServiceNotificationE" ]
  },
  {
   "alignment" : 4,
   "fields" :
   [
    {
     "access" : "private",
     "field_name" : "m_ptr",
     "referenced_type" : "_ZTIPN7android8hardware20hidl_death_recipientE"
    }
   ],
   "linker_set_key" : "_ZTIN7android2spINS_8hardware20hidl_death_recipientEEE",
   "name" : "android::sp<android::hardware::hidl_death_recipient>",
   "record_kind" : "class",
   "referenced_type" : "_ZTIN7android2spINS_8hardware20hidl_death_recipientEEE",
   "self_type" : "_ZTIN7android2spINS_8hardware20hidl_death_recipientEEE",
   "size" : 4,
   "source_file" : "/system/core/libutils/include/utils/StrongPointer.h",
   "template_args" : [ "_ZTIN7android8hardware20hidl_death_recipientE" ]
  },
  {
   "alignment" : 4,
   "base_specifiers" :
   [
    {
     "is_virtual" : true,
     "referenced_type" : "_ZTIN7android7RefBaseE"
    }
   ],
   "linker_set_key" : "_ZTIN7android4hidl4base4V1_05IBaseE",
   "name" : "android::hidl::base::V1_0::IBase",
   "referenced_type" : "_ZTIN7android4hidl4base4V1_05IBaseE",
   "self_type" : "_ZTIN7android4hidl4base4V1_05IBaseE",
   "size" : 12,
   "source_file" : "/out/soong/.intermediates/system/libhidl/transport/base/1.0/android.hidl.base@1.0_genc++_headers/gen/android/hidl/base/1.0/IBase.h",
   "vtable_components" :
   [
    {
     "component_value" : 4,
     "kind" : "vbase_offset"
    },
    {
     "kind" : "offset_to_top"
    },
    {
     "kind" : "rtti",
     "mangled_component_name" : "_ZTIN7android4hidl4base4V1_05IBaseE"
    },
    {
     "mangled_component_name" : "_ZNK7android4hidl4base4V1_05IBase8isRemoteEv"
    },
    {
     "mangled_component_name" : "_ZN7android4hidl4base4V1_05IBase14interfaceChainENSt3__18functionIFvRKNS_8hardware8hidl_vecINS6_11hidl_stringEEEEEE"
    },
    {
     "mangled_component_name" : "_ZN7android4hidl4base4V1_05IBase5debugERKNS_8hardware11hidl_handleERKNS4_8hidl_vecINS4_11hidl_stringEEE"
    },
    {
     "mangled_component_name" : "_ZN7android4hidl4base4V1_05IBase19interfaceDescriptorENSt3__18functionIFvRKNS_8hardware11hidl_stringEEEE"
    },
    {
     "mangled_component_name" : "_ZN7android4hidl4base4V1_05IBase12getHashChainENSt3__18functionIFvRKNS_8hardware8hidl_vecINS6_10hidl_arrayIhLj32EJEEEEEEEE"
    },
    {
     "mangled_component_name" : "_ZN7android4hidl4base4V1_05IBase21setHALInstrumentationEv"
    },
    {
     "mangled_component_name" : "_ZN7android4hidl4base4V1_05IBase11linkToDeathERKNS_2spINS_8hardware20hidl_death_recipientEEEy"
    },
    {
     "mangled_component_name" : "_ZN7android4hidl4base4V1_05IBase4pingEv"
    },
    {
     "mangled_component_name" : "_ZN7android4hidl4base4V1_05IBase12getDebugInfoENSt3__18functionIFvRKNS2_9DebugInfoEEEE"
    },
    {
     "mangled_component_name" : "_ZN7android4hidl4base4V1_05IBase21notifySyspropsChangedEv"
    },
    {
     "mangled_component_name" : "_ZN7android4hidl4base4V1_05IBase13unlinkToDeathERKNS_2spINS_8hardware20hidl_death_recipientEEE"
    },
    {
     "kind" : "complete_dtor_pointer",
     "mangled_component_name" : "_ZN7android4hidl4base4V1_05IBaseD1Ev"
    },
    {
     "kind" : "deleting_dtor_pointer",
     "mangled_component_name" : "_ZN7android4hidl4base4V1_05IBaseD0Ev"
    },
    {
     "kind" : "vcall_offset"
    },
    {
     "kind" : "vcall_offset"
    },
    {
     "kind" : "vcall_offset"
    },
    {
     "kind" : "vcall_offset"
    },
    {
     "component_value" : -4,
     "kind" : "vcall_offset"
    },
    {
     "component_value" : -4,
     "kind" : "offset_to_top"
    },
    {
     "kind" : "rtti",
     "mangled_component_name" : "_ZTIN7android4hidl4base4V1_05IBaseE"
    },
    {
     "kind" : "complete_dtor_pointer",
     "mangled_component_name" : "_ZTv0_n12_N7android4hidl4base4V1_05IBaseD1Ev"
    },
    {
     "kind" : "deleting_dtor_pointer",
     "mangled_component_name" : "_ZTv0_n12_N7android4hidl4base4V1_05IBaseD0Ev"
    },
    {
     "mangled_component_name" : "_ZN7android7RefBase10onFirstRefEv"
    },
    {
     "mangled_component_name" : "_ZN7android7RefBase15onLastStrongRefEPKv"
    },
    {
     "mangled_component_name" : "_ZN7android7RefBase20onIncStrongAttemptedEjPKv"
    },
    {
     "mangled_component_name" : "_ZN7android7RefBase13onLastWeakRefEPKv"
    }
   ]
  },
  {
   "alignment" : 8,
   "fields" :
   [
    {
     "field_name" : "pid",
     "referenced_type" : "_ZTIi"
    },
    {
     "field_name" : "ptr",
     "field_offset" : 64,
     "referenced_type" : "_ZTIy"
    },
    {
     "field_name" : "arch",
     "field_offset" : 128,
     "referenced_type" : "_ZTIN7android4hidl4base4V1_09DebugInfo12ArchitectureE"
    }
   ],
   "linker_set_key" : "_ZTIN7android4hidl4base4V1_09DebugInfoE",
   "name" : "android::hidl::base::V1_0::DebugInfo",
   "referenced_type" : "_ZTIN7android4hidl4base4V1_09DebugInfoE",
   "self_type" : "_ZTIN7android4hidl4base4V1_09DebugInfoE",
   "size" : 24,
   "source_file" : "/out/soong/.intermediates/system/libhidl/transport/base/1.0/android.hidl.base@1.0_genc++_headers/gen/android/hidl/base/1.0/types.h"
  },
  {
   "alignment" : 4,
   "base_specifiers" :
   [
    {
     "referenced_type" : "_ZTIN7android4hidl6memory4V1_07IMapperE"
    }
   ],
   "linker_set_key" : "_ZTIN7android4hidl6memory4V1_014implementation12AshmemMapperE",
   "name" : "android::hidl::memory::V1_0::implementation::AshmemMapper",
   "referenced_type" : "_ZTIN7android4hidl6memory4V1_014implementation12AshmemMapperE",
   "self_type" : "_ZTIN7android4hidl6memory4V1_014implementation12AshmemMapperE",
   "size" : 12,
   "source_file" : "/system/libhidl/transport/memory/1.0/default/AshmemMapper.h",
   "vtable_components" :
   [
    {
     "component_value" : 4,
     "kind" : "vbase_offset"
    },
    {
     "kind" : "offset_to_top"
    },
    {
     "kind" : "rtti",
     "mangled_component_name" : "_ZTIN7android4hidl6memory4V1_014implementation12AshmemMapperE"
    },
    {
     "mangled_component_name" : "_ZNK7android4hidl6memory4V1_07IMapper8isRemoteEv"
    },
    {
     "mangled_component_name" : "_ZN7android4hidl6memory4V1_07IMapper14interfaceChainENSt3__18functionIFvRKNS_8hardware8hidl_vecINS6_11hidl_stringEEEEEE"
    },
    {
     "mangled_component_name" : "_ZN7android4hidl6memory4V1_07IMapper5debugERKNS_8hardware11hidl_handleERKNS4_8hidl_vecINS4_11hidl_stringEEE"
    },
    {
     "mangled_component_name" : "_ZN7android4hidl6memory4V1_07IMapper19interfaceDescriptorENSt3__18functionIFvRKNS_8hardware11hidl_stringEEEE"
    },
    {
     "mangled_component_name" : "_ZN7android4hidl6memory4V1_07IMapper12getHashChainENSt3__18functionIFvRKNS_8hardware8hidl_vecINS6_10hidl_arrayIhLj32EJEEEEEEEE"
    },
    {
     "mangled_component_name" : "_ZN7android4hidl6memory4V1_07IMapper21setHALInstrumentationEv"
    },
    {
     "mangled_component_name" : "_ZN7android4hidl6memory4V1_07IMapper11linkToDeathERKNS_2spINS_8hardware20hidl_death_recipientEEEy"
    },
    {
     "mangled_component_name" : "_ZN7android4hidl6memory4V1_07IMapper4pingEv"
    },
    {
     "mangled_component_name" : "_ZN7android4hidl6memory4V1_07IMapper12getDebugInfoENSt3__18functionIFvRKNS0_4base4V1_09DebugInfoEEEE"
    },
    {
     "mangled_component_name" : "_ZN7android4hidl6memory4V1_07IMapper21notifySyspropsChangedEv"
    },
    {
     "mangled_component_name" : "_ZN7android4hidl6memory4V1_07IMapper13unlinkToDeathERKNS_2spINS_8hardware20hidl_death_recipientEEE"
    },
    {
     "kind" : "complete_dtor_pointer",
     "mangled_component_name" : "_ZN7android4hidl6memory4V1_014implementation12AshmemMapperD1Ev"
    },
    {
     "kind" : "deleting_dtor_pointer",
     "mangled_component_name" : "_ZN7android4hidl6memory4V1_014implementation12AshmemMapperD0Ev"
    },
    {
     "mangled_component_name" : "_ZN7android4hidl6memory4V1_014implementation12AshmemMapper9mapMemoryERKNS_8hardware11hidl_memoryE"
    },
    {
     "kind" : "vcall_offset"
    },
    {
     "kind" : "vcall_offset"
    },
    {
     "kind" : "vcall_offset"
    },
    {
     "kind" : "vcall_offset"
    },
    {
     "component_value" : -4,
     "kind" : "vcall_offset"
    },
    {
     "component_value" : -4,
     "kind" : "offset_to_top"
    },
    {
     "kind" : "rtti",
     "mangled_component_name" : "_ZTIN7android4hidl6memory4V1_014implementation12AshmemMapperE"
    },
    {
     "kind" : "complete_dtor_pointer",
     "mangled_component_name" : "_ZTv0_n12_N7android4hidl6memory4V1_014implementation12AshmemMapperD1Ev"
    },
    {
     "kind" : "deleting_dtor_pointer",
     "mangled_component_name" : "_ZTv0_n12_N7android4hidl6memory4V1_014implementation12AshmemMapperD0Ev"
    },
    {
     "mangled_component_name" : "_ZN7android7RefBase10onFirstRefEv"
    },
    {
     "mangled_component_name" : "_ZN7android7RefBase15onLastStrongRefEPKv"
    },
    {
     "mangled_component_name" : "_ZN7android7RefBase20onIncStrongAttemptedEjPKv"
    },
    {
     "mangled_component_name" : "_ZN7android7RefBase13onLastWeakRefEPKv"
    }
   ]
  },
  {
   "alignment" : 8,
   "base_specifiers" :
   [
    {
     "referenced_type" : "_ZTIN7android4hidl6memory4V1_07IMemoryE"
    }
   ],
   "fields" :
   [
    {
     "access" : "private",
     "field_name" : "mMemory",
     "field_offset" : 64,
     "referenced_type" : "_ZTIN7android8hardware11hidl_memoryE"
    },
    {
     "access" : "private",
     "field_name" : "mData",
     "field_offset" : 384,
     "referenced_type" : "_ZTIPv"
    }
   ],
   "linker_set_key" : "_ZTIN7android4hidl6memory4V1_014implementation12AshmemMemoryE",
   "name" : "android::hidl::memory::V1_0::implementation::AshmemMemory",
   "referenced_type" : "_ZTIN7android4hidl6memory4V1_014implementation12AshmemMemoryE",
   "self_type" : "_ZTIN7android4hidl6memory4V1_014implementation12AshmemMemoryE",
   "size" : 64,
   "source_file" : "/system/libhidl/transport/memory/1.0/default/AshmemMemory.h",
   "vtable_components" :
   [
    {
     "component_value" : 52,
     "kind" : "vbase_offset"
    },
    {
     "kind" : "offset_to_top"
    },
    {
     "kind" : "rtti",
     "mangled_component_name" : "_ZTIN7android4hidl6memory4V1_014implementation12AshmemMemoryE"
    },
    {
     "mangled_component_name" : "_ZNK7android4hidl6memory4V1_07IMemory8isRemoteEv"
    },
    {
     "mangled_component_name" : "_ZN7android4hidl6memory4V1_07IMemory14interfaceChainENSt3__18functionIFvRKNS_8hardware8hidl_vecINS6_11hidl_stringEEEEEE"
    },
    {
     "mangled_component_name" : "_ZN7android4hidl6memory4V1_07IMemory5debugERKNS_8hardware11hidl_handleERKNS4_8hidl_vecINS4_11hidl_stringEEE"
    },
    {
     "mangled_component_name" : "_ZN7android4hidl6memory4V1_07IMemory19interfaceDescriptorENSt3__18functionIFvRKNS_8hardware11hidl_stringEEEE"
    },
    {
     "mangled_component_name" : "_ZN7android4hidl6memory4V1_07IMemory12getHashChainENSt3__18functionIFvRKNS_8hardware8hidl_vecINS6_10hidl_arrayIhLj32EJEEEEEEEE"
    },
    {
     "mangled_component_name" : "_ZN7android4hidl6memory4V1_07IMemory21setHALInstrumentationEv"
    },
    {
     "mangled_component_name" : "_ZN7android4hidl6memory4V1_07IMemory11linkToDeathERKNS_2spINS_8hardware20hidl_death_recipientEEEy"
    },
    {
     "mangled_component_name" : "_ZN7android4hidl6memory4V1_07IMemory4pingEv"
    },
    {
     "mangled_component_name" : "_ZN7android4hidl6memory4V1_07IMemory12getDebugInfoENSt3__18functionIFvRKNS0_4base4V1_09DebugInfoEEEE"
    },
    {
     "mangled_component_name" : "_ZN7android4hidl6memory4V1_07IMemory21notifySyspropsChangedEv"
    },
    {
     "mangled_component_name" : "_ZN7android4hidl6memory4V1_07IMemory13unlinkToDeathERKNS_2spINS_8hardware20hidl_death_recipientEEE"
    },
    {
     "kind" : "complete_dtor_pointer",
     "mangled_component_name" : "_ZN7android4hidl6memory4V1_014implementation12AshmemMemoryD1Ev"
    },
    {
     "kind" : "deleting_dtor_pointer",
     "mangled_component_name" : "_ZN7android4hidl6memory4V1_014implementation12AshmemMemoryD0Ev"
    },
    {
     "mangled_component_name" : "_ZN7android4hidl6memory4V1_014implementation12AshmemMemory6updateEv"
    },
    {
     "mangled_component_name" : "_ZN7android4hidl6memory4V1_014implementation12AshmemMemory11updateRangeEyy"
    },
    {
     "mangled_component_name" : "_ZN7android4hidl6memory4V1_014implementation12AshmemMemory4readEv"
    },
    {
     "mangled_component_name" : "_ZN7android4hidl6memory4V1_014implementation12AshmemMemory9readRangeEyy"
    },
    {
     "mangled_component_name" : "_ZN7android4hidl6memory4V1_014implementation12AshmemMemory6commitEv"
    },
    {
     "mangled_component_name" : "_ZN7android4hidl6memory4V1_014implementation12AshmemMemory10getPointerEv"
    },
    {
     "mangled_component_name" : "_ZN7android4hidl6memory4V1_014implementation12AshmemMemory7getSizeEv"
    },
    {
     "kind" : "vcall_offset"
    },
    {
     "kind" : "vcall_offset"
    },
    {
     "kind" : "vcall_offset"
    },
    {
     "kind" : "vcall_offset"
    },
    {
     "component_value" : -52,
     "kind" : "vcall_offset"
    },
    {
     "component_value" : -52,
     "kind" : "offset_to_top"
    },
    {
     "kind" : "rtti",
     "mangled_component_name" : "_ZTIN7android4hidl6memory4V1_014implementation12AshmemMemoryE"
    },
    {
     "kind" : "complete_dtor_pointer",
     "mangled_component_name" : "_ZTv0_n12_N7android4hidl6memory4V1_014implementation12AshmemMemoryD1Ev"
    },
    {
     "kind" : "deleting_dtor_pointer",
     "mangled_component_name" : "_ZTv0_n12_N7android4hidl6memory4V1_014implementation12AshmemMemoryD0Ev"
    },
    {
     "mangled_component_name" : "_ZN7android7RefBase10onFirstRefEv"
    },
    {
     "mangled_component_name" : "_ZN7android7RefBase15onLastStrongRefEPKv"
    },
    {
     "mangled_component_name" : "_ZN7android7RefBase20onIncStrongAttemptedEjPKv"
    },
    {
     "mangled_component_name" : "_ZN7android7RefBase13onLastWeakRefEPKv"
    }
   ]
  },
  {
   "alignment" : 4,
   "base_specifiers" :
   [
    {
     "referenced_type" : "_ZTIN7android4hidl4base4V1_05IBaseE"
    }
   ],
   "linker_set_key" : "_ZTIN7android4hidl6memory4V1_07IMapperE",
   "name" : "android::hidl::memory::V1_0::IMapper",
   "referenced_type" : "_ZTIN7android4hidl6memory4V1_07IMapperE",
   "self_type" : "_ZTIN7android4hidl6memory4V1_07IMapperE",
   "size" : 12,
   "source_file" : "/out/soong/.intermediates/system/libhidl/transport/memory/1.0/android.hidl.memory@1.0_genc++_headers/gen/android/hidl/memory/1.0/IMapper.h",
   "vtable_components" :
   [
    {
     "component_value" : 4,
     "kind" : "vbase_offset"
    },
    {
     "kind" : "offset_to_top"
    },
    {
     "kind" : "rtti",
     "mangled_component_name" : "_ZTIN7android4hidl6memory4V1_07IMapperE"
    },
    {
     "mangled_component_name" : "_ZNK7android4hidl6memory4V1_07IMapper8isRemoteEv"
    },
    {
     "mangled_component_name" : "_ZN7android4hidl6memory4V1_07IMapper14interfaceChainENSt3__18functionIFvRKNS_8hardware8hidl_vecINS6_11hidl_stringEEEEEE"
    },
    {
     "mangled_component_name" : "_ZN7android4hidl6memory4V1_07IMapper5debugERKNS_8hardware11hidl_handleERKNS4_8hidl_vecINS4_11hidl_stringEEE"
    },
    {
     "mangled_component_name" : "_ZN7android4hidl6memory4V1_07IMapper19interfaceDescriptorENSt3__18functionIFvRKNS_8hardware11hidl_stringEEEE"
    },
    {
     "mangled_component_name" : "_ZN7android4hidl6memory4V1_07IMapper12getHashChainENSt3__18functionIFvRKNS_8hardware8hidl_vecINS6_10hidl_arrayIhLj32EJEEEEEEEE"
    },
    {
     "mangled_component_name" : "_ZN7android4hidl6memory4V1_07IMapper21setHALInstrumentationEv"
    },
    {
     "mangled_component_name" : "_ZN7android4hidl6memory4V1_07IMapper11linkToDeathERKNS_2spINS_8hardware20hidl_death_recipientEEEy"
    },
    {
     "mangled_component_name" : "_ZN7android4hidl6memory4V1_07IMapper4pingEv"
    },
    {
     "mangled_component_name" : "_ZN7android4hidl6memory4V1_07IMapper12getDebugInfoENSt3__18functionIFvRKNS0_4base4V1_09DebugInfoEEEE"
    },
    {
     "mangled_component_name" : "_ZN7android4hidl6memory4V1_07IMapper21notifySyspropsChangedEv"
    },
    {
     "mangled_component_name" : "_ZN7android4hidl6memory4V1_07IMapper13unlinkToDeathERKNS_2spINS_8hardware20hidl_death_recipientEEE"
    },
    {
     "kind" : "complete_dtor_pointer",
     "mangled_component_name" : "_ZN7android4hidl6memory4V1_07IMapperD1Ev"
    },
    {
     "kind" : "deleting_dtor_pointer",
     "mangled_component_name" : "_ZN7android4hidl6memory4V1_07IMapperD0Ev"
    },
    {
     "is_pure" : true,
     "mangled_component_name" : "_ZN7android4hidl6memory4V1_07IMapper9mapMemoryERKNS_8hardware11hidl_memoryE"
    },
    {
     "kind" : "vcall_offset"
    },
    {
     "kind" : "vcall_offset"
    },
    {
     "kind" : "vcall_offset"
    },
    {
     "kind" : "vcall_offset"
    },
    {
     "component_value" : -4,
     "kind" : "vcall_offset"
    },
    {
     "component_value" : -4,
     "kind" : "offset_to_top"
    },
    {
     "kind" : "rtti",
     "mangled_component_name" : "_ZTIN7android4hidl6memory4V1_07IMapperE"
    },
    {
     "kind" : "complete_dtor_pointer",
     "mangled_component_name" : "_ZTv0_n12_N7android4hidl6memory4V1_07IMapperD1Ev"
    },
    {
     "kind" : "deleting_dtor_pointer",
     "mangled_component_name" : "_ZTv0_n12_N7android4hidl6memory4V1_07IMapperD0Ev"
    },
    {
     "mangled_component_name" : "_ZN7android7RefBase10onFirstRefEv"
    },
    {
     "mangled_component_name" : "_ZN7android7RefBase15onLastStrongRefEPKv"
    },
    {
     "mangled_component_name" : "_ZN7android7RefBase20onIncStrongAttemptedEjPKv"
    },
    {
     "mangled_component_name" : "_ZN7android7RefBase13onLastWeakRefEPKv"
    }
   ]
  },
  {
   "alignment" : 4,
   "base_specifiers" :
   [
    {
     "referenced_type" : "_ZTIN7android4hidl4base4V1_05IBaseE"
    }
   ],
   "linker_set_key" : "_ZTIN7android4hidl6memory4V1_07IMemoryE",
   "name" : "android::hidl::memory::V1_0::IMemory",
   "referenced_type" : "_ZTIN7android4hidl6memory4V1_07IMemoryE",
   "self_type" : "_ZTIN7android4hidl6memory4V1_07IMemoryE",
   "size" : 12,
   "source_file" : "/out/soong/.intermediates/system/libhidl/transport/memory/1.0/android.hidl.memory@1.0_genc++_headers/gen/android/hidl/memory/1.0/IMemory.h",
   "vtable_components" :
   [
    {
     "component_value" : 4,
     "kind" : "vbase_offset"
    },
    {
     "kind" : "offset_to_top"
    },
    {
     "kind" : "rtti",
     "mangled_component_name" : "_ZTIN7android4hidl6memory4V1_07IMemoryE"
    },
    {
     "mangled_component_name" : "_ZNK7android4hidl6memory4V1_07IMemory8isRemoteEv"
    },
    {
     "mangled_component_name" : "_ZN7android4hidl6memory4V1_07IMemory14interfaceChainENSt3__18functionIFvRKNS_8hardware8hidl_vecINS6_11hidl_stringEEEEEE"
    },
    {
     "mangled_component_name" : "_ZN7android4hidl6memory4V1_07IMemory5debugERKNS_8hardware11hidl_handleERKNS4_8hidl_vecINS4_11hidl_stringEEE"
    },
    {
     "mangled_component_name" : "_ZN7android4hidl6memory4V1_07IMemory19interfaceDescriptorENSt3__18functionIFvRKNS_8hardware11hidl_stringEEEE"
    },
    {
     "mangled_component_name" : "_ZN7android4hidl6memory4V1_07IMemory12getHashChainENSt3__18functionIFvRKNS_8hardware8hidl_vecINS6_10hidl_arrayIhLj32EJEEEEEEEE"
    },
    {
     "mangled_component_name" : "_ZN7android4hidl6memory4V1_07IMemory21setHALInstrumentationEv"
    },
    {
     "mangled_component_name" : "_ZN7android4hidl6memory4V1_07IMemory11linkToDeathERKNS_2spINS_8hardware20hidl_death_recipientEEEy"
    },
    {
     "mangled_component_name" : "_ZN7android4hidl6memory4V1_07IMemory4pingEv"
    },
    {
     "mangled_component_name" : "_ZN7android4hidl6memory4V1_07IMemory12getDebugInfoENSt3__18functionIFvRKNS0_4base4V1_09DebugInfoEEEE"
    },
    {
     "mangled_component_name" : "_ZN7android4hidl6memory4V1_07IMemory21notifySyspropsChangedEv"
    },
    {
     "mangled_component_name" : "_ZN7android4hidl6memory4V1_07IMemory13unlinkToDeathERKNS_2spINS_8hardware20hidl_death_recipientEEE"
    },
    {
     "kind" : "complete_dtor_pointer",
     "mangled_component_name" : "_ZN7android4hidl6memory4V1_07IMemoryD1Ev"
    },
    {
     "kind" : "deleting_dtor_pointer",
     "mangled_component_name" : "_ZN7android4hidl6memory4V1_07IMemoryD0Ev"
    },
    {
     "is_pure" : true,
     "mangled_component_name" : "_ZN7android4hidl6memory4V1_07IMemory6updateEv"
    },
    {
     "is_pure" : true,
     "mangled_component_name" : "_ZN7android4hidl6memory4V1_07IMemory11updateRangeEyy"
    },
    {
     "is_pure" : true,
     "mangled_component_name" : "_ZN7android4hidl6memory4V1_07IMemory4readEv"
    },
    {
     "is_pure" : true,
     "mangled_component_name" : "_ZN7android4hidl6memory4V1_07IMemory9readRangeEyy"
    },
    {
     "is_pure" : true,
     "mangled_component_name" : "_ZN7android4hidl6memory4V1_07IMemory6commitEv"
    },
    {
     "is_pure" : true,
     "mangled_component_name" : "_ZN7android4hidl6memory4V1_07IMemory10getPointerEv"
    },
    {
     "is_pure" : true,
     "mangled_component_name" : "_ZN7android4hidl6memory4V1_07IMemory7getSizeEv"
    },
    {
     "kind" : "vcall_offset"
    },
    {
     "kind" : "vcall_offset"
    },
    {
     "kind" : "vcall_offset"
    },
    {
     "kind" : "vcall_offset"
    },
    {
     "component_value" : -4,
     "kind" : "vcall_offset"
    },
    {
     "component_value" : -4,
     "kind" : "offset_to_top"
    },
    {
     "kind" : "rtti",
     "mangled_component_name" : "_ZTIN7android4hidl6memory4V1_07IMemoryE"
    },
    {
     "kind" : "complete_dtor_pointer",
     "mangled_component_name" : "_ZTv0_n12_N7android4hidl6memory4V1_07IMemoryD1Ev"
    },
    {
     "kind" : "deleting_dtor_pointer",
     "mangled_component_name" : "_ZTv0_n12_N7android4hidl6memory4V1_07IMemoryD0Ev"
    },
    {
     "mangled_component_name" : "_ZN7android7RefBase10onFirstRefEv"
    },
    {
     "mangled_component_name" : "_ZN7android7RefBase15onLastStrongRefEPKv"
    },
    {
     "mangled_component_name" : "_ZN7android7RefBase20onIncStrongAttemptedEjPKv"
    },
    {
     "mangled_component_name" : "_ZN7android7RefBase13onLastWeakRefEPKv"
    }
   ]
  },
  {
   "alignment" : 4,
   "base_specifiers" :
   [
    {
     "referenced_type" : "_ZTIN7android4hidl4base4V1_05IBaseE"
    }
   ],
   "linker_set_key" : "_ZTIN7android4hidl7manager4V1_020IServiceNotificationE",
   "name" : "android::hidl::manager::V1_0::IServiceNotification",
   "referenced_type" : "_ZTIN7android4hidl7manager4V1_020IServiceNotificationE",
   "self_type" : "_ZTIN7android4hidl7manager4V1_020IServiceNotificationE",
   "size" : 12,
   "source_file" : "/out/soong/.intermediates/system/libhidl/transport/manager/1.0/android.hidl.manager@1.0_genc++_headers/gen/android/hidl/manager/1.0/IServiceNotification.h",
   "vtable_components" :
   [
    {
     "component_value" : 4,
     "kind" : "vbase_offset"
    },
    {
     "kind" : "offset_to_top"
    },
    {
     "kind" : "rtti",
     "mangled_component_name" : "_ZTIN7android4hidl7manager4V1_020IServiceNotificationE"
    },
    {
     "mangled_component_name" : "_ZNK7android4hidl7manager4V1_020IServiceNotification8isRemoteEv"
    },
    {
     "mangled_component_name" : "_ZN7android4hidl7manager4V1_020IServiceNotification14interfaceChainENSt3__18functionIFvRKNS_8hardware8hidl_vecINS6_11hidl_stringEEEEEE"
    },
    {
     "mangled_component_name" : "_ZN7android4hidl7manager4V1_020IServiceNotification5debugERKNS_8hardware11hidl_handleERKNS4_8hidl_vecINS4_11hidl_stringEEE"
    },
    {
     "mangled_component_name" : "_ZN7android4hidl7manager4V1_020IServiceNotification19interfaceDescriptorENSt3__18functionIFvRKNS_8hardware11hidl_stringEEEE"
    },
    {
     "mangled_component_name" : "_ZN7android4hidl7manager4V1_020IServiceNotification12getHashChainENSt3__18functionIFvRKNS_8hardware8hidl_vecINS6_10hidl_arrayIhLj32EJEEEEEEEE"
    },
    {
     "mangled_component_name" : "_ZN7android4hidl7manager4V1_020IServiceNotification21setHALInstrumentationEv"
    },
    {
     "mangled_component_name" : "_ZN7android4hidl7manager4V1_020IServiceNotification11linkToDeathERKNS_2spINS_8hardware20hidl_death_recipientEEEy"
    },
    {
     "mangled_component_name" : "_ZN7android4hidl7manager4V1_020IServiceNotification4pingEv"
    },
    {
     "mangled_component_name" : "_ZN7android4hidl7manager4V1_020IServiceNotification12getDebugInfoENSt3__18functionIFvRKNS0_4base4V1_09DebugInfoEEEE"
    },
    {
     "mangled_component_name" : "_ZN7android4hidl7manager4V1_020IServiceNotification21notifySyspropsChangedEv"
    },
    {
     "mangled_component_name" : "_ZN7android4hidl7manager4V1_020IServiceNotification13unlinkToDeathERKNS_2spINS_8hardware20hidl_death_recipientEEE"
    },
    {
     "kind" : "complete_dtor_pointer",
     "mangled_component_name" : "_ZN7android4hidl7manager4V1_020IServiceNotificationD1Ev"
    },
    {
     "kind" : "deleting_dtor_pointer",
     "mangled_component_name" : "_ZN7android4hidl7manager4V1_020IServiceNotificationD0Ev"
    },
    {
     "is_pure" : true,
     "mangled_component_name" : "_ZN7android4hidl7manager4V1_020IServiceNotification14onRegistrationERKNS_8hardware11hidl_stringES7_b"
    },
    {
     "kind" : "vcall_offset"
    },
    {
     "kind" : "vcall_offset"
    },
    {
     "kind" : "vcall_offset"
    },
    {
     "kind" : "vcall_offset"
    },
    {
     "component_value" : -4,
     "kind" : "vcall_offset"
    },
    {
     "component_value" : -4,
     "kind" : "offset_to_top"
    },
    {
     "kind" : "rtti",
     "mangled_component_name" : "_ZTIN7android4hidl7manager4V1_020IServiceNotificationE"
    },
    {
     "kind" : "complete_dtor_pointer",
     "mangled_component_name" : "_ZTv0_n12_N7android4hidl7manager4V1_020IServiceNotificationD1Ev"
    },
    {
     "kind" : "deleting_dtor_pointer",
     "mangled_component_name" : "_ZTv0_n12_N7android4hidl7manager4V1_020IServiceNotificationD0Ev"
    },
    {
     "mangled_component_name" : "_ZN7android7RefBase10onFirstRefEv"
    },
    {
     "mangled_component_name" : "_ZN7android7RefBase15onLastStrongRefEPKv"
    },
    {
     "mangled_component_name" : "_ZN7android7RefBase20onIncStrongAttemptedEjPKv"
    },
    {
     "mangled_component_name" : "_ZN7android7RefBase13onLastWeakRefEPKv"
    }
   ]
  },
  {
   "alignment" : 1,
   "linker_set_key" : "_ZTIN7android7RefBase12weakref_typeE",
   "name" : "android::RefBase::weakref_type",
   "record_kind" : "class",
   "referenced_type" : "_ZTIN7android7RefBase12weakref_typeE",
   "self_type" : "_ZTIN7android7RefBase12weakref_typeE",
   "size" : 1,
   "source_file" : "/system/core/libutils/include/utils/RefBase.h"
  },
  {
   "alignment" : 4,
   "fields" :
   [
    {
     "access" : "private",
     "field_name" : "mRefs",
     "field_offset" : 32,
     "referenced_type" : "_ZTIKPN7android7RefBase12weakref_implE"
    }
   ],
   "linker_set_key" : "_ZTIN7android7RefBaseE",
   "name" : "android::RefBase",
   "record_kind" : "class",
   "referenced_type" : "_ZTIN7android7RefBaseE",
   "self_type" : "_ZTIN7android7RefBaseE",
   "size" : 8,
   "source_file" : "/system/core/libutils/include/utils/RefBase.h",
   "vtable_components" :
   [
    {
     "kind" : "offset_to_top"
    },
    {
     "kind" : "rtti",
     "mangled_component_name" : "_ZTIN7android7RefBaseE"
    },
    {
     "kind" : "complete_dtor_pointer",
     "mangled_component_name" : "_ZN7android7RefBaseD1Ev"
    },
    {
     "kind" : "deleting_dtor_pointer",
     "mangled_component_name" : "_ZN7android7RefBaseD0Ev"
    },
    {
     "mangled_component_name" : "_ZN7android7RefBase10onFirstRefEv"
    },
    {
     "mangled_component_name" : "_ZN7android7RefBase15onLastStrongRefEPKv"
    },
    {
     "mangled_component_name" : "_ZN7android7RefBase20onIncStrongAttemptedEjPKv"
    },
    {
     "mangled_component_name" : "_ZN7android7RefBase13onLastWeakRefEPKv"
    }
   ]
  },
  {
   "alignment" : 8,
   "base_specifiers" :
   [
    {
     "is_virtual" : true,
     "referenced_type" : "_ZTIN7android8hardware11hidl_memoryE"
    },
    {
     "is_virtual" : true,
     "referenced_type" : "_ZTIN7android7RefBaseE"
    }
   ],
   "linker_set_key" : "_ZTIN7android8hardware10HidlMemoryE",
   "name" : "android::hardware::HidlMemory",
   "record_kind" : "class",
   "referenced_type" : "_ZTIN7android8hardware10HidlMemoryE",
   "self_type" : "_ZTIN7android8hardware10HidlMemoryE",
   "size" : 56,
   "source_file" : "/system/libhidl/base/include/hidl/HidlSupport.h",
   "vtable_components" :
   [
    {
     "component_value" : 48,
     "kind" : "vbase_offset"
    },
    {
     "component_value" : 8,
     "kind" : "vbase_offset"
    },
    {
     "kind" : "offset_to_top"
    },
    {
     "kind" : "rtti",
     "mangled_component_name" : "_ZTIN7android8hardware10HidlMemoryE"
    },
    {
     "kind" : "complete_dtor_pointer",
     "mangled_component_name" : "_ZN7android8hardware10HidlMemoryD1Ev"
    },
    {
     "kind" : "deleting_dtor_pointer",
     "mangled_component_name" : "_ZN7android8hardware10HidlMemoryD0Ev"
    },
    {
     "kind" : "vcall_offset"
    },
    {
     "kind" : "vcall_offset"
    },
    {
     "kind" : "vcall_offset"
    },
    {
     "kind" : "vcall_offset"
    },
    {
     "component_value" : -48,
     "kind" : "vcall_offset"
    },
    {
     "component_value" : -48,
     "kind" : "offset_to_top"
    },
    {
     "kind" : "rtti",
     "mangled_component_name" : "_ZTIN7android8hardware10HidlMemoryE"
    },
    {
     "kind" : "complete_dtor_pointer",
     "mangled_component_name" : "_ZTv0_n12_N7android8hardware10HidlMemoryD1Ev"
    },
    {
     "kind" : "deleting_dtor_pointer",
     "mangled_component_name" : "_ZTv0_n12_N7android8hardware10HidlMemoryD0Ev"
    },
    {
     "mangled_component_name" : "_ZN7android7RefBase10onFirstRefEv"
    },
    {
     "mangled_component_name" : "_ZN7android7RefBase15onLastStrongRefEPKv"
    },
    {
     "mangled_component_name" : "_ZN7android7RefBase20onIncStrongAttemptedEjPKv"
    },
    {
     "mangled_component_name" : "_ZN7android7RefBase13onLastWeakRefEPKv"
    }
   ]
  },
  {
   "alignment" : 8,
   "fields" :
   [
    {
     "access" : "private",
     "field_name" : "mHandle",
     "referenced_type" : "_ZTIN7android8hardware7details12hidl_pointerIK13native_handleEE"
    },
    {
     "access" : "private",
     "field_name" : "mOwnsHandle",
     "field_offset" : 64,
     "referenced_type" : "_ZTIb"
    },
    {
     "access" : "private",
     "field_name" : "mPad",
     "field_offset" : 72,
     "referenced_type" : "_ZTIA7_h"
    }
   ],
   "linker_set_key" : "_ZTIN7android8hardware11hidl_handleE",
   "name" : "android::hardware::hidl_handle",
   "referenced_type" : "_ZTIN7android8hardware11hidl_handleE",
   "self_type" : "_ZTIN7android8hardware11hidl_handleE",
   "size" : 16,
   "source_file" : "/system/libhidl/base/include/hidl/HidlSupport.h"
  },
  {
   "alignment" : 8,
   "fields" :
   [
    {
     "access" : "private",
     "field_name" : "mHandle",
     "referenced_type" : "_ZTIN7android8hardware11hidl_handleE"
    },
    {
     "access" : "private",
     "field_name" : "mSize",
     "field_offset" : 128,
     "referenced_type" : "_ZTIy"
    },
    {
     "access" : "private",
     "field_name" : "mName",
     "field_offset" : 192,
     "referenced_type" : "_ZTIN7android8hardware11hidl_stringE"
    }
   ],
   "linker_set_key" : "_ZTIN7android8hardware11hidl_memoryE",
   "name" : "android::hardware::hidl_memory",
   "referenced_type" : "_ZTIN7android8hardware11hidl_memoryE",
   "self_type" : "_ZTIN7android8hardware11hidl_memoryE",
   "size" : 40,
   "source_file" : "/system/libhidl/base/include/hidl/HidlSupport.h"
  },
  {
   "alignment" : 8,
   "fields" :
   [
    {
     "access" : "private",
     "field_name" : "mBuffer",
     "referenced_type" : "_ZTIN7android8hardware7details12hidl_pointerIKcEE"
    },
    {
     "access" : "private",
     "field_name" : "mSize",
     "field_offset" : 64,
     "referenced_type" : "_ZTIj"
    },
    {
     "access" : "private",
     "field_name" : "mOwnsBuffer",
     "field_offset" : 96,
     "referenced_type" : "_ZTIb"
    },
    {
     "access" : "private",
     "field_name" : "mPad",
     "field_offset" : 104,
     "referenced_type" : "_ZTIA3_h"
    }
   ],
   "linker_set_key" : "_ZTIN7android8hardware11hidl_stringE",
   "name" : "android::hardware::hidl_string",
   "referenced_type" : "_ZTIN7android8hardware11hidl_stringE",
   "self_type" : "_ZTIN7android8hardware11hidl_stringE",
   "size" : 16,
   "source_file" : "/system/libhidl/base/include/hidl/HidlSupport.h"
  },
  {
   "alignment" : 2,
   "fields" :
   [
    {
     "access" : "private",
     "field_name" : "mMajor",
     "referenced_type" : "_ZTIt"
    },
    {
     "access" : "private",
     "field_name" : "mMinor",
     "field_offset" : 16,
     "referenced_type" : "_ZTIt"
    }
   ],
   "linker_set_key" : "_ZTIN7android8hardware12hidl_versionE",
   "name" : "android::hardware::hidl_version",
   "referenced_type" : "_ZTIN7android8hardware12hidl_versionE",
   "self_type" : "_ZTIN7android8hardware12hidl_versionE",
   "size" : 4,
   "source_file" : "/system/libhidl/base/include/hidl/HidlSupport.h"
  },
  {
   "alignment" : 8,
   "fields" :
   [
    {
     "field_name" : "flags",
     "referenced_type" : "_ZTIj"
    },
    {
     "field_name" : "fdIndex",
     "field_offset" : 32,
     "referenced_type" : "_ZTIj"
    },
    {
     "field_name" : "offset",
     "field_offset" : 64,
     "referenced_type" : "_ZTIj"
    },
    {
     "field_name" : "extent",
     "field_offset" : 128,
     "referenced_type" : "_ZTIy"
    }
   ],
   "linker_set_key" : "_ZTIN7android8hardware17GrantorDescriptorE",
   "name" : "android::hardware::GrantorDescriptor",
   "referenced_type" : "_ZTIN7android8hardware17GrantorDescriptorE",
   "self_type" : "_ZTIN7android8hardware17GrantorDescriptorE",
   "size" : 24,
   "source_file" : "/system/libhidl/base/include/hidl/MQDescriptor.h"
  },
  {
   "alignment" : 4,
   "base_specifiers" :
   [
    {
     "is_virtual" : true,
     "referenced_type" : "_ZTIN7android7RefBaseE"
    }
   ],
   "linker_set_key" : "_ZTIN7android8hardware20hidl_death_recipientE",
   "name" : "android::hardware::hidl_death_recipient",
   "referenced_type" : "_ZTIN7android8hardware20hidl_death_recipientE",
   "self_type" : "_ZTIN7android8hardware20hidl_death_recipientE",
   "size" : 12,
   "source_file" : "/system/libhidl/base/include/hidl/HidlSupport.h",
   "vtable_components" :
   [
    {
     "component_value" : 4,
     "kind" : "vbase_offset"
    },
    {
     "kind" : "offset_to_top"
    },
    {
     "kind" : "rtti",
     "mangled_component_name" : "_ZTIN7android8hardware20hidl_death_recipientE"
    },
    {
     "is_pure" : true,
     "mangled_component_name" : "_ZN7android8hardware20hidl_death_recipient11serviceDiedEyRKNS_2wpINS_4hidl4base4V1_05IBaseEEE"
    },
    {
     "kind" : "complete_dtor_pointer",
     "mangled_component_name" : "_ZN7android8hardware20hidl_death_recipientD1Ev"
    },
    {
     "kind" : "deleting_dtor_pointer",
     "mangled_component_name" : "_ZN7android8hardware20hidl_death_recipientD0Ev"
    },
    {
     "kind" : "vcall_offset"
    },
    {
     "kind" : "vcall_offset"
    },
    {
     "kind" : "vcall_offset"
    },
    {
     "kind" : "vcall_offset"
    },
    {
     "component_value" : -4,
     "kind" : "vcall_offset"
    },
    {
     "component_value" : -4,
     "kind" : "offset_to_top"
    },
    {
     "kind" : "rtti",
     "mangled_component_name" : "_ZTIN7android8hardware20hidl_death_recipientE"
    },
    {
     "kind" : "complete_dtor_pointer",
     "mangled_component_name" : "_ZTv0_n12_N7android8hardware20hidl_death_recipientD1Ev"
    },
    {
     "kind" : "deleting_dtor_pointer",
     "mangled_component_name" : "_ZTv0_n12_N7android8hardware20hidl_death_recipientD0Ev"
    },
    {
     "mangled_component_name" : "_ZN7android7RefBase10onFirstRefEv"
    },
    {
     "mangled_component_name" : "_ZN7android7RefBase15onLastStrongRefEPKv"
    },
    {
     "mangled_component_name" : "_ZN7android7RefBase20onIncStrongAttemptedEjPKv"
    },
    {
     "mangled_component_name" : "_ZN7android7RefBase13onLastWeakRefEPKv"
    }
   ]
  },
  {
   "alignment" : 4,
   "base_specifiers" :
   [
    {
     "referenced_type" : "_ZTIN7android8hardware7details13return_statusE"
    }
   ],
   "fields" :
   [
    {
     "access" : "private",
     "field_name" : "mVal",
     "field_offset" : 192,
     "referenced_type" : "_ZTIN7android2spINS_4hidl6memory4V1_07IMemoryEEE"
    }
   ],
   "linker_set_key" : "_ZTIN7android8hardware6ReturnINS_2spINS_4hidl6memory4V1_07IMemoryEEEEE",
   "name" : "android::hardware::Return<android::sp<android::hidl::memory::V1_0::IMemory> >",
   "record_kind" : "class",
   "referenced_type" : "_ZTIN7android8hardware6ReturnINS_2spINS_4hidl6memory4V1_07IMemoryEEEEE",
   "self_type" : "_ZTIN7android8hardware6ReturnINS_2spINS_4hidl6memory4V1_07IMemoryEEEEE",
   "size" : 28,
   "source_file" : "/system/libhidl/base/include/hidl/Status.h",
   "template_args" : [ "_ZTIN7android2spINS_4hidl6memory4V1_07IMemoryEEE" ]
  },
  {
   "alignment" : 4,
   "base_specifiers" :
   [
    {
     "referenced_type" : "_ZTIN7android8hardware7details13return_statusE"
    }
   ],
   "fields" :
   [
    {
     "access" : "private",
     "field_name" : "mVal",
     "field_offset" : 192,
     "referenced_type" : "_ZTIPv"
    }
   ],
   "linker_set_key" : "_ZTIN7android8hardware6ReturnIPvEE",
   "name" : "android::hardware::Return<void *>",
   "record_kind" : "class",
   "referenced_type" : "_ZTIN7android8hardware6ReturnIPvEE",
   "self_type" : "_ZTIN7android8hardware6ReturnIPvEE",
   "size" : 28,
   "source_file" : "/system/libhidl/base/include/hidl/Status.h",
   "template_args" : [ "_ZTIPv" ]
  },
  {
   "alignment" : 4,
   "base_specifiers" :
   [
    {
     "referenced_type" : "_ZTIN7android8hardware7details13return_statusE"
    }
   ],
   "linker_set_key" : "_ZTIN7android8hardware6ReturnIvEE",
   "name" : "android::hardware::Return<void>",
   "record_kind" : "class",
   "referenced_type" : "_ZTIN7android8hardware6ReturnIvEE",
   "self_type" : "_ZTIN7android8hardware6ReturnIvEE",
   "size" : 24,
   "source_file" : "/system/libhidl/base/include/hidl/Status.h",
   "template_args" : [ "_ZTIv" ]
  },
  {
   "alignment" : 8,
   "base_specifiers" :
   [
    {
     "referenced_type" : "_ZTIN7android8hardware7details13return_statusE"
    }
   ],
   "fields" :
   [
    {
     "access" : "private",
     "field_name" : "mVal",
     "field_offset" : 192,
     "referenced_type" : "_ZTIy"
    }
   ],
   "linker_set_key" : "_ZTIN7android8hardware6ReturnIyEE",
   "name" : "android::hardware::Return<unsigned long long>",
   "record_kind" : "class",
   "referenced_type" : "_ZTIN7android8hardware6ReturnIyEE",
   "self_type" : "_ZTIN7android8hardware6ReturnIyEE",
   "size" : 32,
   "source_file" : "/system/libhidl/base/include/hidl/Status.h",
   "template_args" : [ "_ZTIy" ]
  },
  {
   "alignment" : 4,
   "fields" :
   [
    {
     "access" : "private",
     "field_name" : "mException",
     "referenced_type" : "_ZTIi"
    },
    {
     "access" : "private",
     "field_name" : "mErrorCode",
     "field_offset" : 32,
     "referenced_type" : "_ZTIi"
    },
    {
     "access" : "private",
     "field_name" : "mMessage",
     "field_offset" : 64,
     "referenced_type" : "_ZTINSt3__112basic_stringIcNS_11char_traitsIcEENS_9allocatorIcEEEE"
    }
   ],
   "linker_set_key" : "_ZTIN7android8hardware6StatusE",
   "name" : "android::hardware::Status",
   "record_kind" : "class",
   "referenced_type" : "_ZTIN7android8hardware6StatusE",
   "self_type" : "_ZTIN7android8hardware6StatusE",
   "size" : 20,
   "source_file" : "/system/libhidl/base/include/hidl/Status.h"
  },
  {
   "alignment" : 8,
   "fields" :
   [
    {
     "access" : "private",
     "referenced_type" : "_ZTIN7android8hardware7details12hidl_pointerI13native_handleEUt_E"
    }
   ],
   "linker_set_key" : "_ZTIN7android8hardware7details12hidl_pointerI13native_handleEE",
   "name" : "android::hardware::details::hidl_pointer<native_handle>",
   "referenced_type" : "_ZTIN7android8hardware7details12hidl_pointerI13native_handleEE",
   "self_type" : "_ZTIN7android8hardware7details12hidl_pointerI13native_handleEE",
   "size" : 8,
   "source_file" : "/system/libhidl/base/include/hidl/HidlInternal.h",
   "template_args" : [ "_ZTI13native_handle" ]
  },
  {
   "access" : "private",
   "alignment" : 8,
   "fields" :
   [
    {
     "field_name" : "mPointer",
     "referenced_type" : "_ZTIP13native_handle"
    },
    {
     "field_name" : "_pad",
     "referenced_type" : "_ZTIy"
    }
   ],
   "is_anonymous" : true,
   "linker_set_key" : "_ZTIN7android8hardware7details12hidl_pointerI13native_handleEUt_E",
   "name" : "android::hardware::details::hidl_pointer<native_handle>::(anonymous union at system/libhidl/base/include/hidl/HidlInternal.h:110:5)",
   "record_kind" : "union",
   "referenced_type" : "_ZTIN7android8hardware7details12hidl_pointerI13native_handleEUt_E",
   "self_type" : "_ZTIN7android8hardware7details12hidl_pointerI13native_handleEUt_E",
   "size" : 8,
   "source_file" : "/system/libhidl/base/include/hidl/HidlInternal.h"
  },
  {
   "alignment" : 8,
   "fields" :
   [
    {
     "access" : "private",
     "referenced_type" : "_ZTIN7android8hardware7details12hidl_pointerIK13native_handleEUt_E"
    }
   ],
   "linker_set_key" : "_ZTIN7android8hardware7details12hidl_pointerIK13native_handleEE",
   "name" : "android::hardware::details::hidl_pointer<const native_handle>",
   "referenced_type" : "_ZTIN7android8hardware7details12hidl_pointerIK13native_handleEE",
   "self_type" : "_ZTIN7android8hardware7details12hidl_pointerIK13native_handleEE",
   "size" : 8,
   "source_file" : "/system/libhidl/base/include/hidl/HidlInternal.h",
   "template_args" : [ "_ZTIK13native_handle" ]
  },
  {
   "access" : "private",
   "alignment" : 8,
   "fields" :
   [
    {
     "field_name" : "mPointer",
     "referenced_type" : "_ZTIPK13native_handle"
    },
    {
     "field_name" : "_pad",
     "referenced_type" : "_ZTIy"
    }
   ],
   "is_anonymous" : true,
   "linker_set_key" : "_ZTIN7android8hardware7details12hidl_pointerIK13native_handleEUt_E",
   "name" : "android::hardware::details::hidl_pointer<const native_handle>::(anonymous union at system/libhidl/base/include/hidl/HidlInternal.h:110:5)",
   "record_kind" : "union",
   "referenced_type" : "_ZTIN7android8hardware7details12hidl_pointerIK13native_handleEUt_E",
   "self_type" : "_ZTIN7android8hardware7details12hidl_pointerIK13native_handleEUt_E",
   "size" : 8,
   "source_file" : "/system/libhidl/base/include/hidl/HidlInternal.h"
  },
  {
   "alignment" : 8,
   "fields" :
   [
    {
     "access" : "private",
     "referenced_type" : "_ZTIN7android8hardware7details12hidl_pointerIKcEUt_E"
    }
   ],
   "linker_set_key" : "_ZTIN7android8hardware7details12hidl_pointerIKcEE",
   "name" : "android::hardware::details::hidl_pointer<const char>",
   "referenced_type" : "_ZTIN7android8hardware7details12hidl_pointerIKcEE",
   "self_type" : "_ZTIN7android8hardware7details12hidl_pointerIKcEE",
   "size" : 8,
   "source_file" : "/system/libhidl/base/include/hidl/HidlInternal.h",
   "template_args" : [ "_ZTIKc" ]
  },
  {
   "access" : "private",
   "alignment" : 8,
   "fields" :
   [
    {
     "field_name" : "mPointer",
     "referenced_type" : "_ZTIPKc"
    },
    {
     "field_name" : "_pad",
     "referenced_type" : "_ZTIy"
    }
   ],
   "is_anonymous" : true,
   "linker_set_key" : "_ZTIN7android8hardware7details12hidl_pointerIKcEUt_E",
   "name" : "android::hardware::details::hidl_pointer<const char>::(anonymous union at system/libhidl/base/include/hidl/HidlInternal.h:110:5)",
   "record_kind" : "union",
   "referenced_type" : "_ZTIN7android8hardware7details12hidl_pointerIKcEUt_E",
   "self_type" : "_ZTIN7android8hardware7details12hidl_pointerIKcEUt_E",
   "size" : 8,
   "source_file" : "/system/libhidl/base/include/hidl/HidlInternal.h"
  },
  {
   "alignment" : 8,
   "fields" :
   [
    {
     "access" : "private",
     "referenced_type" : "_ZTIN7android8hardware7details12hidl_pointerINS0_17GrantorDescriptorEEUt_E"
    }
   ],
   "linker_set_key" : "_ZTIN7android8hardware7details12hidl_pointerINS0_17GrantorDescriptorEEE",
   "name" : "android::hardware::details::hidl_pointer<android::hardware::GrantorDescriptor>",
   "referenced_type" : "_ZTIN7android8hardware7details12hidl_pointerINS0_17GrantorDescriptorEEE",
   "self_type" : "_ZTIN7android8hardware7details12hidl_pointerINS0_17GrantorDescriptorEEE",
   "size" : 8,
   "source_file" : "/system/libhidl/base/include/hidl/HidlInternal.h",
   "template_args" : [ "_ZTIN7android8hardware17GrantorDescriptorE" ]
  },
  {
   "access" : "private",
   "alignment" : 8,
   "fields" :
   [
    {
     "field_name" : "mPointer",
     "referenced_type" : "_ZTIPN7android8hardware17GrantorDescriptorE"
    },
    {
     "field_name" : "_pad",
     "referenced_type" : "_ZTIy"
    }
   ],
   "is_anonymous" : true,
   "linker_set_key" : "_ZTIN7android8hardware7details12hidl_pointerINS0_17GrantorDescriptorEEUt_E",
   "name" : "android::hardware::details::hidl_pointer<GrantorDescriptor>::(anonymous union at system/libhidl/base/include/hidl/HidlInternal.h:110:5)",
   "record_kind" : "union",
   "referenced_type" : "_ZTIN7android8hardware7details12hidl_pointerINS0_17GrantorDescriptorEEUt_E",
   "self_type" : "_ZTIN7android8hardware7details12hidl_pointerINS0_17GrantorDescriptorEEUt_E",
   "size" : 8,
   "source_file" : "/system/libhidl/base/include/hidl/HidlInternal.h"
  },
  {
   "alignment" : 4,
   "fields" :
   [
    {
     "access" : "private",
     "field_name" : "mStatus",
     "referenced_type" : "_ZTIN7android8hardware6StatusE"
    },
    {
     "access" : "private",
     "field_name" : "mCheckedStatus",
     "field_offset" : 160,
     "referenced_type" : "_ZTIb"
    }
   ],
   "linker_set_key" : "_ZTIN7android8hardware7details13return_statusE",
   "name" : "android::hardware::details::return_status",
   "record_kind" : "class",
   "referenced_type" : "_ZTIN7android8hardware7details13return_statusE",
   "self_type" : "_ZTIN7android8hardware7details13return_statusE",
   "size" : 24,
   "source_file" : "/system/libhidl/base/include/hidl/Status.h"
  },
  {
   "alignment" : 4,
   "fields" :
   [
    {
     "access" : "protected",
     "field_name" : "mInstrumentationCallbacks",
     "field_offset" : 32,
     "referenced_type" : "_ZTINSt3__16vectorINS_8functionIFvN7android8hardware7details16HidlInstrumentor20InstrumentationEventEPKcS8_S8_S8_PNS0_IPvNS_9allocatorIS9_EEEEEEENSA_ISF_EEEE"
    },
    {
     "access" : "protected",
     "field_name" : "mEnableInstrumentation",
     "field_offset" : 128,
     "referenced_type" : "_ZTIb"
    },
    {
     "access" : "protected",
     "field_name" : "mInstrumentationLibPackage",
     "field_offset" : 160,
     "referenced_type" : "_ZTINSt3__112basic_stringIcNS_11char_traitsIcEENS_9allocatorIcEEEE"
    },
    {
     "access" : "protected",
     "field_name" : "mInterfaceName",
     "field_offset" : 256,
     "referenced_type" : "_ZTINSt3__112basic_stringIcNS_11char_traitsIcEENS_9allocatorIcEEEE"
    }
   ],
   "linker_set_key" : "_ZTIN7android8hardware7details16HidlInstrumentorE",
   "name" : "android::hardware::details::HidlInstrumentor",
   "referenced_type" : "_ZTIN7android8hardware7details16HidlInstrumentorE",
   "self_type" : "_ZTIN7android8hardware7details16HidlInstrumentorE",
   "size" : 44,
   "source_file" : "/system/libhidl/base/include/hidl/HidlInternal.h",
   "vtable_components" :
   [
    {
     "kind" : "offset_to_top"
    },
    {
     "kind" : "rtti",
     "mangled_component_name" : "_ZTIN7android8hardware7details16HidlInstrumentorE"
    },
    {
     "kind" : "complete_dtor_pointer",
     "mangled_component_name" : "_ZN7android8hardware7details16HidlInstrumentorD1Ev"
    },
    {
     "kind" : "deleting_dtor_pointer",
     "mangled_component_name" : "_ZN7android8hardware7details16HidlInstrumentorD0Ev"
    }
   ]
  },
  {
   "alignment" : 1,
   "linker_set_key" : "_ZTIN7android8hardware7details5i_tagE",
   "name" : "android::hardware::details::i_tag",
   "referenced_type" : "_ZTIN7android8hardware7details5i_tagE",
   "self_type" : "_ZTIN7android8hardware7details5i_tagE",
   "size" : 1,
   "source_file" : "/system/libhidl/base/include/hidl/HidlInternal.h"
  },
  {
   "alignment" : 1,
   "linker_set_key" : "_ZTIN7android8hardware7details6bs_tagE",
   "name" : "android::hardware::details::bs_tag",
   "referenced_type" : "_ZTIN7android8hardware7details6bs_tagE",
   "self_type" : "_ZTIN7android8hardware7details6bs_tagE",
   "size" : 1,
   "source_file" : "/system/libhidl/base/include/hidl/HidlInternal.h"
  },
  {
   "alignment" : 1,
   "linker_set_key" : "_ZTIN7android8hardware7details8bnhw_tagE",
   "name" : "android::hardware::details::bnhw_tag",
   "referenced_type" : "_ZTIN7android8hardware7details8bnhw_tagE",
   "self_type" : "_ZTIN7android8hardware7details8bnhw_tagE",
   "size" : 1,
   "source_file" : "/system/libhidl/base/include/hidl/HidlInternal.h"
  },
  {
   "alignment" : 1,
   "linker_set_key" : "_ZTIN7android8hardware7details8bphw_tagE",
   "name" : "android::hardware::details::bphw_tag",
   "referenced_type" : "_ZTIN7android8hardware7details8bphw_tagE",
   "self_type" : "_ZTIN7android8hardware7details8bphw_tagE",
   "size" : 1,
   "source_file" : "/system/libhidl/base/include/hidl/HidlInternal.h"
  },
  {
   "alignment" : 8,
   "fields" :
   [
    {
     "access" : "private",
     "field_name" : "mBuffer",
     "referenced_type" : "_ZTIN7android8hardware7details12hidl_pointerINS0_17GrantorDescriptorEEE"
    },
    {
     "access" : "private",
     "field_name" : "mSize",
     "field_offset" : 64,
     "referenced_type" : "_ZTIj"
    },
    {
     "access" : "private",
     "field_name" : "mOwnsBuffer",
     "field_offset" : 96,
     "referenced_type" : "_ZTIb"
    },
    {
     "access" : "private",
     "field_name" : "mPad",
     "field_offset" : 104,
     "referenced_type" : "_ZTIA3_h"
    }
   ],
   "linker_set_key" : "_ZTIN7android8hardware8hidl_vecINS0_17GrantorDescriptorEEE",
   "name" : "android::hardware::hidl_vec<android::hardware::GrantorDescriptor>",
   "referenced_type" : "_ZTIN7android8hardware8hidl_vecINS0_17GrantorDescriptorEEE",
   "self_type" : "_ZTIN7android8hardware8hidl_vecINS0_17GrantorDescriptorEEE",
   "size" : 16,
   "source_file" : "/system/libhidl/base/include/hidl/HidlSupport.h",
   "template_args" : [ "_ZTIN7android8hardware17GrantorDescriptorE" ]
  },
  {
   "alignment" : 4,
   "fields" :
   [
    {
     "field_name" : "buf",
     "referenced_type" : "_ZTIA5121_h"
    },
    {
     "field_name" : "entry",
     "referenced_type" : "_ZTI12logger_entry"
    }
   ],
   "is_anonymous" : true,
   "linker_set_key" : "_ZTIN7log_msgUt_E",
   "name" : "log_msg::(anonymous union at system/core/liblog/include_vndk/log/log_read.h:77:3)",
   "record_kind" : "union",
   "referenced_type" : "_ZTIN7log_msgUt_E",
   "self_type" : "_ZTIN7log_msgUt_E",
   "size" : 5124,
   "source_file" : "/system/core/liblog/include/log/log_read.h"
  },
  {
   "alignment" : 4,
   "fields" :
   [
    {
     "referenced_type" : "_ZTIN7siginfoUt_Ut_E"
    },
    {
     "field_name" : "_si_pad",
     "referenced_type" : "_ZTIA32_i"
    }
   ],
   "is_anonymous" : true,
   "linker_set_key" : "_ZTIN7siginfoUt_E",
   "name" : "siginfo::(anonymous union at bionic/libc/kernel/uapi/asm-generic/siginfo.h:102:3)",
   "record_kind" : "union",
   "referenced_type" : "_ZTIN7siginfoUt_E",
   "self_type" : "_ZTIN7siginfoUt_E",
   "size" : 128,
   "source_file" : "/bionic/libc/kernel/uapi/asm-generic/siginfo.h"
  },
  {
   "alignment" : 4,
   "fields" :
   [
    {
     "field_name" : "si_signo",
     "referenced_type" : "_ZTIi"
    },
    {
     "field_name" : "si_errno",
     "field_offset" : 32,
     "referenced_type" : "_ZTIi"
    },
    {
     "field_name" : "si_code",
     "field_offset" : 64,
     "referenced_type" : "_ZTIi"
    },
    {
     "field_name" : "_sifields",
     "field_offset" : 96,
     "referenced_type" : "_ZTI10__sifields"
    }
   ],
   "is_anonymous" : true,
   "linker_set_key" : "_ZTIN7siginfoUt_Ut_E",
   "name" : "siginfo::(anonymous union at bionic/libc/kernel/uapi/asm-generic/siginfo.h:102:3)::(anonymous struct at bionic/libc/kernel/uapi/asm-generic/siginfo.h:103:5)",
   "referenced_type" : "_ZTIN7siginfoUt_Ut_E",
   "self_type" : "_ZTIN7siginfoUt_Ut_E",
   "size" : 32,
   "source_file" : "/bionic/libc/kernel/uapi/asm-generic/siginfo.h"
  },
  {
   "alignment" : 4,
   "fields" :
   [
    {
     "field_name" : "_pad",
     "referenced_type" : "_ZTIA13_i"
    },
    {
     "field_name" : "_tid",
     "referenced_type" : "_ZTIi"
    },
    {
     "field_name" : "_sigev_thread",
     "referenced_type" : "_ZTIN8sigeventUt_Ut_E"
    }
   ],
   "is_anonymous" : true,
   "linker_set_key" : "_ZTIN8sigeventUt_E",
   "name" : "sigevent::(anonymous union at bionic/libc/kernel/uapi/asm-generic/siginfo.h:226:3)",
   "record_kind" : "union",
   "referenced_type" : "_ZTIN8sigeventUt_E",
   "self_type" : "_ZTIN8sigeventUt_E",
   "size" : 52,
   "source_file" : "/bionic/libc/kernel/uapi/asm-generic/siginfo.h"
  },
  {
   "alignment" : 4,
   "fields" :
   [
    {
     "field_name" : "_function",
     "referenced_type" : "_ZTIPFv6sigvalE"
    },
    {
     "field_name" : "_attribute",
     "field_offset" : 32,
     "referenced_type" : "_ZTIPv"
    }
   ],
   "is_anonymous" : true,
   "linker_set_key" : "_ZTIN8sigeventUt_Ut_E",
   "name" : "sigevent::(anonymous union at bionic/libc/kernel/uapi/asm-generic/siginfo.h:226:3)::(anonymous struct at bionic/libc/kernel/uapi/asm-generic/siginfo.h:229:5)",
   "referenced_type" : "_ZTIN8sigeventUt_Ut_E",
   "self_type" : "_ZTIN8sigeventUt_Ut_E",
   "size" : 8,
   "source_file" : "/bionic/libc/kernel/uapi/asm-generic/siginfo.h"
  },
  {
   "alignment" : 4,
   "fields" :
   [
    {
     "referenced_type" : "_ZTIN8ucontextUt_Ut_E"
    },
    {
     "field_name" : "uc_sigmask64",
     "referenced_type" : "_ZTI10sigset64_t"
    }
   ],
   "is_anonymous" : true,
   "linker_set_key" : "_ZTIN8ucontextUt_E",
   "name" : "ucontext::(anonymous union at out/soong/.intermediates/bionic/libc/libc.llndk/android_vendor.30_arm_armv8-a_shared/gen/include/sys/ucontext.h:90:3)",
   "record_kind" : "union",
   "referenced_type" : "_ZTIN8ucontextUt_E",
   "self_type" : "_ZTIN8ucontextUt_E",
   "size" : 8,
   "source_file" : "/out/soong/.intermediates/bionic/libc/libc.llndk/android_vendor.30_arm_armv8-a_shared/gen/include/sys/ucontext.h"
  },
  {
   "alignment" : 4,
   "fields" :
   [
    {
     "field_name" : "uc_sigmask",
     "referenced_type" : "_ZTIm"
    },
    {
     "field_name" : "__padding_rt_sigset",
     "field_offset" : 32,
     "referenced_type" : "_ZTIj"
    }
   ],
   "is_anonymous" : true,
   "linker_set_key" : "_ZTIN8ucontextUt_Ut_E",
   "name" : "ucontext::(anonymous union at out/soong/.intermediates/bionic/libc/libc.llndk/android_vendor.30_arm_armv8-a_shared/gen/include/sys/ucontext.h:90:3)::(anonymous struct at out/soong/.intermediates/bionic/libc/libc.llndk/android_vendor.30_arm_armv8-a_shared/gen/include/sys/ucontext.h:91:5)",
   "referenced_type" : "_ZTIN8ucontextUt_Ut_E",
   "self_type" : "_ZTIN8ucontextUt_Ut_E",
   "size" : 8,
   "source_file" : "/out/soong/.intermediates/bionic/libc/libc.llndk/android_vendor.30_arm_armv8-a_shared/gen/include/sys/ucontext.h"
  },
  {
   "alignment" : 4,
   "fields" :
   [
    {
     "field_name" : "sa_handler",
     "referenced_type" : "_ZTIPFviE"
    },
    {
     "field_name" : "sa_sigaction",
     "referenced_type" : "_ZTIPFviP7siginfoPvE"
    }
   ],
   "is_anonymous" : true,
   "linker_set_key" : "_ZTIN9sigactionUt_E",
   "name" : "sigaction::(anonymous union at out/soong/.intermediates/bionic/libc/libc.llndk/android_vendor.30_arm_armv8-a_shared/gen/include/bits/signal_types.h:89:3)",
   "record_kind" : "union",
   "referenced_type" : "_ZTIN9sigactionUt_E",
   "self_type" : "_ZTIN9sigactionUt_E",
   "size" : 4,
   "source_file" : "/out/soong/.intermediates/bionic/libc/libc.llndk/android_vendor.30_arm_armv8-a_shared/gen/include/bits/signal_types.h"
  },
  {
   "alignment" : 4,
   "fields" :
   [
    {
     "field_name" : "__small",
     "referenced_type" : "_ZTIA8_c"
    },
    {
     "field_name" : "__large",
     "referenced_type" : "_ZTIPv"
    }
   ],
   "linker_set_key" : "_ZTINSt3__110__function16__policy_storageE",
   "name" : "std::__function::__policy_storage",
   "record_kind" : "union",
   "referenced_type" : "_ZTINSt3__110__function16__policy_storageE",
   "self_type" : "_ZTINSt3__110__function16__policy_storageE",
   "size" : 8,
   "source_file" : "/external/libcxx/include/functional"
  },
  {
   "alignment" : 4,
   "fields" :
   [
    {
     "field_name" : "__clone",
     "referenced_type" : "_ZTIKPFPvPKvE"
    },
    {
     "field_name" : "__destroy",
     "field_offset" : 32,
     "referenced_type" : "_ZTIKPFvPvE"
    },
    {
     "field_name" : "__is_null",
     "field_offset" : 64,
     "referenced_type" : "_ZTIKb"
    },
    {
     "field_name" : "__type_info",
     "field_offset" : 96,
     "referenced_type" : "_ZTIKPKSt9type_info"
    }
   ],
   "linker_set_key" : "_ZTINSt3__110__function8__policyE",
   "name" : "std::__function::__policy",
   "referenced_type" : "_ZTINSt3__110__function8__policyE",
   "self_type" : "_ZTINSt3__110__function8__policyE",
   "size" : 16,
   "source_file" : "/external/libcxx/include/functional"
  },
  {
   "alignment" : 1,
   "linker_set_key" : "_ZTINSt3__110__get_pairILj0EEE",
   "name" : "std::__get_pair<0>",
   "referenced_type" : "_ZTINSt3__110__get_pairILj0EEE",
   "self_type" : "_ZTINSt3__110__get_pairILj0EEE",
   "size" : 1,
   "source_file" : "/external/libcxx/include/utility"
  },
  {
   "alignment" : 1,
   "linker_set_key" : "_ZTINSt3__110__get_pairILj1EEE",
   "name" : "std::__get_pair<1>",
   "referenced_type" : "_ZTINSt3__110__get_pairILj1EEE",
   "self_type" : "_ZTINSt3__110__get_pairILj1EEE",
   "size" : 1,
   "source_file" : "/external/libcxx/include/utility"
  },
  {
   "alignment" : 1,
   "linker_set_key" : "_ZTINSt3__110__ignore_tIhEE",
   "name" : "std::__ignore_t<unsigned char>",
   "referenced_type" : "_ZTINSt3__110__ignore_tIhEE",
   "self_type" : "_ZTINSt3__110__ignore_tIhEE",
   "size" : 1,
   "source_file" : "/external/libcxx/include/tuple",
   "template_args" : [ "_ZTIh" ]
  },
  {
   "alignment" : 1,
   "base_specifiers" :
   [
    {
     "referenced_type" : "_ZTINSt3__117integral_constantIbLb1EEE"
    }
   ],
   "linker_set_key" : "_ZTINSt3__110__is_ratioINS_5ratioILx1ELx1000000000EEEEE",
   "name" : "std::__is_ratio<std::ratio<1, 1000000000> >",
   "referenced_type" : "_ZTINSt3__110__is_ratioINS_5ratioILx1ELx1000000000EEEEE",
   "self_type" : "_ZTINSt3__110__is_ratioINS_5ratioILx1ELx1000000000EEEEE",
   "size" : 1,
   "source_file" : "/external/libcxx/include/ratio",
   "template_args" : [ "_ZTINSt3__15ratioILx1ELx1000000000EEE" ]
  },
  {
   "alignment" : 1,
   "base_specifiers" :
   [
    {
     "referenced_type" : "_ZTINSt3__117integral_constantIbLb1EEE"
    }
   ],
   "linker_set_key" : "_ZTINSt3__110__is_ratioINS_5ratioILx1ELx1000000EEEEE",
   "name" : "std::__is_ratio<std::ratio<1, 1000000> >",
   "referenced_type" : "_ZTINSt3__110__is_ratioINS_5ratioILx1ELx1000000EEEEE",
   "self_type" : "_ZTINSt3__110__is_ratioINS_5ratioILx1ELx1000000EEEEE",
   "size" : 1,
   "source_file" : "/external/libcxx/include/ratio",
   "template_args" : [ "_ZTINSt3__15ratioILx1ELx1000000EEE" ]
  },
  {
   "alignment" : 1,
   "base_specifiers" :
   [
    {
     "referenced_type" : "_ZTINSt3__117integral_constantIbLb1EEE"
    }
   ],
   "linker_set_key" : "_ZTINSt3__110__is_ratioINS_5ratioILx1ELx1000EEEEE",
   "name" : "std::__is_ratio<std::ratio<1, 1000> >",
   "referenced_type" : "_ZTINSt3__110__is_ratioINS_5ratioILx1ELx1000EEEEE",
   "self_type" : "_ZTINSt3__110__is_ratioINS_5ratioILx1ELx1000EEEEE",
   "size" : 1,
   "source_file" : "/external/libcxx/include/ratio",
   "template_args" : [ "_ZTINSt3__15ratioILx1ELx1000EEE" ]
  },
  {
   "alignment" : 1,
   "base_specifiers" :
   [
    {
     "referenced_type" : "_ZTINSt3__117integral_constantIbLb1EEE"
    }
   ],
   "linker_set_key" : "_ZTINSt3__110__is_ratioINS_5ratioILx1ELx1EEEEE",
   "name" : "std::__is_ratio<std::ratio<1, 1> >",
   "referenced_type" : "_ZTINSt3__110__is_ratioINS_5ratioILx1ELx1EEEEE",
   "self_type" : "_ZTINSt3__110__is_ratioINS_5ratioILx1ELx1EEEEE",
   "size" : 1,
   "source_file" : "/external/libcxx/include/ratio",
   "template_args" : [ "_ZTINSt3__15ratioILx1ELx1EEE" ]
  },
  {
   "alignment" : 1,
   "base_specifiers" :
   [
    {
     "referenced_type" : "_ZTINSt3__117integral_constantIbLb1EEE"
    }
   ],
   "linker_set_key" : "_ZTINSt3__110__is_ratioINS_5ratioILx3600ELx1EEEEE",
   "name" : "std::__is_ratio<std::ratio<3600, 1> >",
   "referenced_type" : "_ZTINSt3__110__is_ratioINS_5ratioILx3600ELx1EEEEE",
   "self_type" : "_ZTINSt3__110__is_ratioINS_5ratioILx3600ELx1EEEEE",
   "size" : 1,
   "source_file" : "/external/libcxx/include/ratio",
   "template_args" : [ "_ZTINSt3__15ratioILx3600ELx1EEE" ]
  },
  {
   "alignment" : 1,
   "base_specifiers" :
   [
    {
     "referenced_type" : "_ZTINSt3__117integral_constantIbLb1EEE"
    }
   ],
   "linker_set_key" : "_ZTINSt3__110__is_ratioINS_5ratioILx60ELx1EEEEE",
   "name" : "std::__is_ratio<std::ratio<60, 1> >",
   "referenced_type" : "_ZTINSt3__110__is_ratioINS_5ratioILx60ELx1EEEEE",
   "self_type" : "_ZTINSt3__110__is_ratioINS_5ratioILx60ELx1EEEEE",
   "size" : 1,
   "source_file" : "/external/libcxx/include/ratio",
   "template_args" : [ "_ZTINSt3__15ratioILx60ELx1EEE" ]
  },
  {
   "alignment" : 4,
   "fields" :
   [
    {
     "access" : "protected",
     "field_name" : "__loc_",
     "referenced_type" : "_ZTIP10__locale_t"
    }
   ],
   "linker_set_key" : "_ZTINSt3__110__time_getE",
   "name" : "std::__time_get",
   "record_kind" : "class",
   "referenced_type" : "_ZTINSt3__110__time_getE",
   "self_type" : "_ZTINSt3__110__time_getE",
   "size" : 4,
   "source_file" : "/external/libcxx/include/locale"
  },
  {
   "alignment" : 4,
   "fields" :
   [
    {
     "access" : "private",
     "field_name" : "__loc_",
     "referenced_type" : "_ZTIP10__locale_t"
    }
   ],
   "linker_set_key" : "_ZTINSt3__110__time_putE",
   "name" : "std::__time_put",
   "record_kind" : "class",
   "referenced_type" : "_ZTINSt3__110__time_putE",
   "self_type" : "_ZTINSt3__110__time_putE",
