{
 "array_types" :
 [
  {
   "alignment" : 4,
   "linker_set_key" : "_ZTIA0_i",
   "name" : "int [0]",
   "referenced_type" : "_ZTIi",
   "self_type" : "_ZTIA0_i",
   "source_file" : "/system/core/libcutils/include/cutils/native_handle.h"
  },
  {
   "alignment" : 4,
   "linker_set_key" : "_ZTIA10_j",
   "name" : "unsigned int [10]",
   "referenced_type" : "_ZTIj",
   "self_type" : "_ZTIA10_j",
   "size" : 40,
   "source_file" : "/system/libhidl/base/include/hidl/HidlSupport.h"
  },
  {
   "alignment" : 1,
   "linker_set_key" : "_ZTIA16_c",
   "name" : "char [16]",
   "referenced_type" : "_ZTIc",
   "self_type" : "_ZTIA16_c",
   "size" : 16,
   "source_file" : "/system/libhidl/transport/include/hidl/ConcurrentMap.h"
  },
  {
   "alignment" : 1,
   "linker_set_key" : "_ZTIA32_h",
   "name" : "unsigned char [32]",
   "referenced_type" : "_ZTIh",
   "self_type" : "_ZTIA32_h",
   "size" : 32,
   "source_file" : "/system/libhidl/base/include/hidl/HidlSupport.h"
  },
  {
   "alignment" : 1,
   "linker_set_key" : "_ZTIA3_h",
   "name" : "unsigned char [3]",
   "referenced_type" : "_ZTIh",
   "self_type" : "_ZTIA3_h",
   "size" : 3,
   "source_file" : "/system/libhidl/base/include/hidl/HidlSupport.h"
  },
  {
   "alignment" : 1,
   "linker_set_key" : "_ZTIA5121_h",
   "name" : "unsigned char [5121]",
   "referenced_type" : "_ZTIh",
   "self_type" : "_ZTIA5121_h",
   "size" : 5121,
   "source_file" : "/system/core/liblog/include/log/log_read.h"
  },
  {
   "alignment" : 1,
   "linker_set_key" : "_ZTIA7_h",
   "name" : "unsigned char [7]",
   "referenced_type" : "_ZTIh",
   "self_type" : "_ZTIA7_h",
   "size" : 7,
   "source_file" : "/system/libhidl/base/include/hidl/HidlSupport.h"
  },
  {
   "alignment" : 4,
   "linker_set_key" : "_ZTIA8_j",
   "name" : "unsigned int [8]",
   "referenced_type" : "_ZTIj",
   "self_type" : "_ZTIA8_j",
   "size" : 32,
   "source_file" : "/system/core/libsystem/include/system/graphics.h"
  },
  {
   "linker_set_key" : "_ZTIA_f",
   "name" : "float []",
   "referenced_type" : "_ZTIf",
   "self_type" : "_ZTIA_f",
   "source_file" : "/system/core/libsystem/include/system/graphics.h"
  }
 ],
 "builtin_types" :
 [
  {
   "alignment" : 2,
   "is_integral" : true,
   "is_unsigned" : true,
   "linker_set_key" : "_ZTIDs",
   "name" : "char16_t",
   "referenced_type" : "_ZTIDs",
   "self_type" : "_ZTIDs",
   "size" : 2
  },
  {
   "alignment" : 1,
   "is_integral" : true,
   "linker_set_key" : "_ZTIa",
   "name" : "signed char",
   "referenced_type" : "_ZTIa",
   "self_type" : "_ZTIa",
   "size" : 1
  },
  {
   "alignment" : 1,
   "is_integral" : true,
   "is_unsigned" : true,
   "linker_set_key" : "_ZTIb",
   "name" : "bool",
   "referenced_type" : "_ZTIb",
   "self_type" : "_ZTIb",
   "size" : 1
  },
  {
   "alignment" : 1,
   "is_integral" : true,
   "is_unsigned" : true,
   "linker_set_key" : "_ZTIc",
   "name" : "char",
   "referenced_type" : "_ZTIc",
   "self_type" : "_ZTIc",
   "size" : 1
  },
  {
   "alignment" : 8,
   "linker_set_key" : "_ZTId",
   "name" : "double",
   "referenced_type" : "_ZTId",
   "self_type" : "_ZTId",
   "size" : 8
  },
  {
   "alignment" : 4,
   "linker_set_key" : "_ZTIf",
   "name" : "float",
   "referenced_type" : "_ZTIf",
   "self_type" : "_ZTIf",
   "size" : 4
  },
  {
   "alignment" : 1,
   "is_integral" : true,
   "is_unsigned" : true,
   "linker_set_key" : "_ZTIh",
   "name" : "unsigned char",
   "referenced_type" : "_ZTIh",
   "self_type" : "_ZTIh",
   "size" : 1
  },
  {
   "alignment" : 4,
   "is_integral" : true,
   "linker_set_key" : "_ZTIi",
   "name" : "int",
   "referenced_type" : "_ZTIi",
   "self_type" : "_ZTIi",
   "size" : 4
  },
  {
   "alignment" : 4,
   "is_integral" : true,
   "is_unsigned" : true,
   "linker_set_key" : "_ZTIj",
   "name" : "unsigned int",
   "referenced_type" : "_ZTIj",
   "self_type" : "_ZTIj",
   "size" : 4
  },
  {
   "alignment" : 4,
   "is_integral" : true,
   "linker_set_key" : "_ZTIl",
   "name" : "long",
   "referenced_type" : "_ZTIl",
   "self_type" : "_ZTIl",
   "size" : 4
  },
  {
   "alignment" : 4,
   "is_integral" : true,
   "is_unsigned" : true,
   "linker_set_key" : "_ZTIm",
   "name" : "unsigned long",
   "referenced_type" : "_ZTIm",
   "self_type" : "_ZTIm",
   "size" : 4
  },
  {
   "alignment" : 2,
   "is_integral" : true,
   "linker_set_key" : "_ZTIs",
   "name" : "short",
   "referenced_type" : "_ZTIs",
   "self_type" : "_ZTIs",
   "size" : 2
  },
  {
   "alignment" : 2,
   "is_integral" : true,
   "is_unsigned" : true,
   "linker_set_key" : "_ZTIt",
   "name" : "unsigned short",
   "referenced_type" : "_ZTIt",
   "self_type" : "_ZTIt",
   "size" : 2
  },
  {
   "linker_set_key" : "_ZTIv",
   "name" : "void",
   "referenced_type" : "_ZTIv",
   "self_type" : "_ZTIv"
  },
  {
   "alignment" : 8,
   "is_integral" : true,
   "linker_set_key" : "_ZTIx",
   "name" : "long long",
   "referenced_type" : "_ZTIx",
   "self_type" : "_ZTIx",
   "size" : 8
  },
  {
   "alignment" : 8,
   "is_integral" : true,
   "is_unsigned" : true,
   "linker_set_key" : "_ZTIy",
   "name" : "unsigned long long",
   "referenced_type" : "_ZTIy",
   "self_type" : "_ZTIy",
   "size" : 8
  }
 ],
 "elf_functions" :
 [
  {
   "name" : "_ZN7android8hardware10automotive2sv4V1_019ISurroundViewStream10getServiceERKNSt3__112basic_stringIcNS5_11char_traitsIcEENS5_9allocatorIcEEEEb"
  },
  {
   "name" : "_ZN7android8hardware10automotive2sv4V1_019ISurroundViewStream11linkToDeathERKNS_2spINS0_20hidl_death_recipientEEEy"
  },
  {
   "name" : "_ZN7android8hardware10automotive2sv4V1_019ISurroundViewStream12getDebugInfoENSt3__18functionIFvRKNS_4hidl4base4V1_09DebugInfoEEEE"
  },
  {
   "name" : "_ZN7android8hardware10automotive2sv4V1_019ISurroundViewStream12getHashChainENSt3__18functionIFvRKNS0_8hidl_vecINS0_10hidl_arrayIhLj32EJEEEEEEEE"
  },
  {
   "name" : "_ZN7android8hardware10automotive2sv4V1_019ISurroundViewStream13tryGetServiceERKNSt3__112basic_stringIcNS5_11char_traitsIcEENS5_9allocatorIcEEEEb"
  },
  {
   "name" : "_ZN7android8hardware10automotive2sv4V1_019ISurroundViewStream13unlinkToDeathERKNS_2spINS0_20hidl_death_recipientEEE"
  },
  {
   "name" : "_ZN7android8hardware10automotive2sv4V1_019ISurroundViewStream14interfaceChainENSt3__18functionIFvRKNS0_8hidl_vecINS0_11hidl_stringEEEEEE"
  },
  {
   "name" : "_ZN7android8hardware10automotive2sv4V1_019ISurroundViewStream17registerAsServiceERKNSt3__112basic_stringIcNS5_11char_traitsIcEENS5_9allocatorIcEEEE"
  },
  {
   "name" : "_ZN7android8hardware10automotive2sv4V1_019ISurroundViewStream19interfaceDescriptorENSt3__18functionIFvRKNS0_11hidl_stringEEEE"
  },
  {
   "name" : "_ZN7android8hardware10automotive2sv4V1_019ISurroundViewStream21notifySyspropsChangedEv"
  },
  {
   "name" : "_ZN7android8hardware10automotive2sv4V1_019ISurroundViewStream21setHALInstrumentationEv"
  },
  {
   "name" : "_ZN7android8hardware10automotive2sv4V1_019ISurroundViewStream24registerForNotificationsERKNSt3__112basic_stringIcNS5_11char_traitsIcEENS5_9allocatorIcEEEERKNS_2spINS_4hidl7manager4V1_020IServiceNotificationEEE"
  },
  {
   "name" : "_ZN7android8hardware10automotive2sv4V1_019ISurroundViewStream4pingEv"
  },
  {
   "name" : "_ZN7android8hardware10automotive2sv4V1_019ISurroundViewStream5debugERKNS0_11hidl_handleERKNS0_8hidl_vecINS0_11hidl_stringEEE"
  },
  {
   "name" : "_ZN7android8hardware10automotive2sv4V1_019ISurroundViewStream8castFromERKNS_2spINS_4hidl4base4V1_05IBaseEEEb"
  },
  {
   "name" : "_ZN7android8hardware10automotive2sv4V1_019ISurroundViewStream8castFromERKNS_2spIS4_EEb"
  },
  {
   "name" : "_ZN7android8hardware10automotive2sv4V1_020BsSurroundViewStream13addOnewayTaskENSt3__18functionIFvvEEE"
  },
  {
   "name" : "_ZN7android8hardware10automotive2sv4V1_020BsSurroundViewStreamC1ENS_2spINS3_19ISurroundViewStreamEEE"
  },
  {
   "name" : "_ZN7android8hardware10automotive2sv4V1_020BsSurroundViewStreamC2ENS_2spINS3_19ISurroundViewStreamEEE"
  },
  {
   "name" : "_ZN7android8hardware10automotive2sv4V1_020ISurroundViewService10getServiceERKNSt3__112basic_stringIcNS5_11char_traitsIcEENS5_9allocatorIcEEEEb"
  },
  {
   "name" : "_ZN7android8hardware10automotive2sv4V1_020ISurroundViewService11linkToDeathERKNS_2spINS0_20hidl_death_recipientEEEy"
  },
  {
   "name" : "_ZN7android8hardware10automotive2sv4V1_020ISurroundViewService12getDebugInfoENSt3__18functionIFvRKNS_4hidl4base4V1_09DebugInfoEEEE"
  },
  {
   "name" : "_ZN7android8hardware10automotive2sv4V1_020ISurroundViewService12getHashChainENSt3__18functionIFvRKNS0_8hidl_vecINS0_10hidl_arrayIhLj32EJEEEEEEEE"
  },
  {
   "name" : "_ZN7android8hardware10automotive2sv4V1_020ISurroundViewService13tryGetServiceERKNSt3__112basic_stringIcNS5_11char_traitsIcEENS5_9allocatorIcEEEEb"
  },
  {
   "name" : "_ZN7android8hardware10automotive2sv4V1_020ISurroundViewService13unlinkToDeathERKNS_2spINS0_20hidl_death_recipientEEE"
  },
  {
   "name" : "_ZN7android8hardware10automotive2sv4V1_020ISurroundViewService14interfaceChainENSt3__18functionIFvRKNS0_8hidl_vecINS0_11hidl_stringEEEEEE"
  },
  {
   "name" : "_ZN7android8hardware10automotive2sv4V1_020ISurroundViewService17registerAsServiceERKNSt3__112basic_stringIcNS5_11char_traitsIcEENS5_9allocatorIcEEEE"
  },
  {
   "name" : "_ZN7android8hardware10automotive2sv4V1_020ISurroundViewService19interfaceDescriptorENSt3__18functionIFvRKNS0_11hidl_stringEEEE"
  },
  {
   "name" : "_ZN7android8hardware10automotive2sv4V1_020ISurroundViewService21notifySyspropsChangedEv"
  },
  {
   "name" : "_ZN7android8hardware10automotive2sv4V1_020ISurroundViewService21setHALInstrumentationEv"
  },
  {
   "name" : "_ZN7android8hardware10automotive2sv4V1_020ISurroundViewService24registerForNotificationsERKNSt3__112basic_stringIcNS5_11char_traitsIcEENS5_9allocatorIcEEEERKNS_2spINS_4hidl7manager4V1_020IServiceNotificationEEE"
  },
  {
   "name" : "_ZN7android8hardware10automotive2sv4V1_020ISurroundViewService4pingEv"
  },
  {
   "name" : "_ZN7android8hardware10automotive2sv4V1_020ISurroundViewService5debugERKNS0_11hidl_handleERKNS0_8hidl_vecINS0_11hidl_stringEEE"
  },
  {
   "name" : "_ZN7android8hardware10automotive2sv4V1_020ISurroundViewService8castFromERKNS_2spINS_4hidl4base4V1_05IBaseEEEb"
  },
  {
   "name" : "_ZN7android8hardware10automotive2sv4V1_020ISurroundViewService8castFromERKNS_2spIS4_EEb"
  },
  {
   "name" : "_ZN7android8hardware10automotive2sv4V1_020ISurroundViewSession10getServiceERKNSt3__112basic_stringIcNS5_11char_traitsIcEENS5_9allocatorIcEEEEb"
  },
  {
   "name" : "_ZN7android8hardware10automotive2sv4V1_020ISurroundViewSession11linkToDeathERKNS_2spINS0_20hidl_death_recipientEEEy"
  },
  {
   "name" : "_ZN7android8hardware10automotive2sv4V1_020ISurroundViewSession12getDebugInfoENSt3__18functionIFvRKNS_4hidl4base4V1_09DebugInfoEEEE"
  },
  {
   "name" : "_ZN7android8hardware10automotive2sv4V1_020ISurroundViewSession12getHashChainENSt3__18functionIFvRKNS0_8hidl_vecINS0_10hidl_arrayIhLj32EJEEEEEEEE"
  },
  {
   "name" : "_ZN7android8hardware10automotive2sv4V1_020ISurroundViewSession13tryGetServiceERKNSt3__112basic_stringIcNS5_11char_traitsIcEENS5_9allocatorIcEEEEb"
  },
  {
   "name" : "_ZN7android8hardware10automotive2sv4V1_020ISurroundViewSession13unlinkToDeathERKNS_2spINS0_20hidl_death_recipientEEE"
  },
  {
   "name" : "_ZN7android8hardware10automotive2sv4V1_020ISurroundViewSession14interfaceChainENSt3__18functionIFvRKNS0_8hidl_vecINS0_11hidl_stringEEEEEE"
  },
  {
   "name" : "_ZN7android8hardware10automotive2sv4V1_020ISurroundViewSession17registerAsServiceERKNSt3__112basic_stringIcNS5_11char_traitsIcEENS5_9allocatorIcEEEE"
  },
  {
   "name" : "_ZN7android8hardware10automotive2sv4V1_020ISurroundViewSession19interfaceDescriptorENSt3__18functionIFvRKNS0_11hidl_stringEEEE"
  },
  {
   "name" : "_ZN7android8hardware10automotive2sv4V1_020ISurroundViewSession21notifySyspropsChangedEv"
  },
  {
   "name" : "_ZN7android8hardware10automotive2sv4V1_020ISurroundViewSession21setHALInstrumentationEv"
  },
  {
   "name" : "_ZN7android8hardware10automotive2sv4V1_020ISurroundViewSession24registerForNotificationsERKNSt3__112basic_stringIcNS5_11char_traitsIcEENS5_9allocatorIcEEEERKNS_2spINS_4hidl7manager4V1_020IServiceNotificationEEE"
  },
  {
   "name" : "_ZN7android8hardware10automotive2sv4V1_020ISurroundViewSession4pingEv"
  },
  {
   "name" : "_ZN7android8hardware10automotive2sv4V1_020ISurroundViewSession5debugERKNS0_11hidl_handleERKNS0_8hidl_vecINS0_11hidl_stringEEE"
  },
  {
   "name" : "_ZN7android8hardware10automotive2sv4V1_020ISurroundViewSession8castFromERKNS_2spINS_4hidl4base4V1_05IBaseEEEb"
  },
  {
   "name" : "_ZN7android8hardware10automotive2sv4V1_020ISurroundViewSession8castFromERKNS_2spIS4_EEb"
  },
  {
   "name" : "_ZN7android8hardware10automotive2sv4V1_021BsSurroundViewService13addOnewayTaskENSt3__18functionIFvvEEE"
  },
  {
   "name" : "_ZN7android8hardware10automotive2sv4V1_021BsSurroundViewServiceC1ENS_2spINS3_20ISurroundViewServiceEEE"
  },
  {
   "name" : "_ZN7android8hardware10automotive2sv4V1_021BsSurroundViewServiceC2ENS_2spINS3_20ISurroundViewServiceEEE"
  },
  {
   "name" : "_ZN7android8hardware10automotive2sv4V1_021BsSurroundViewSession13addOnewayTaskENSt3__18functionIFvvEEE"
  },
  {
   "name" : "_ZN7android8hardware10automotive2sv4V1_021BsSurroundViewSessionC1ENS_2spINS3_20ISurroundViewSessionEEE"
  },
  {
   "name" : "_ZN7android8hardware10automotive2sv4V1_021BsSurroundViewSessionC2ENS_2spINS3_20ISurroundViewSessionEEE"
  },
  {
   "name" : "_ZN7android8hardware10automotive2sv4V1_021writeEmbeddedToParcelERKNS3_12OverlaysDataEPNS0_6ParcelEjj"
  },
  {
   "name" : "_ZN7android8hardware10automotive2sv4V1_021writeEmbeddedToParcelERKNS3_12SvFramesDescEPNS0_6ParcelEjj"
  },
  {
   "name" : "_ZN7android8hardware10automotive2sv4V1_021writeEmbeddedToParcelERKNS3_8SvBufferEPNS0_6ParcelEjj"
  },
  {
   "name" : "_ZN7android8hardware10automotive2sv4V1_022BnHwSurroundViewStream10onTransactEjRKNS0_6ParcelEPS5_jNSt3__18functionIFvRS5_EEE"
  },
  {
   "name" : "_ZN7android8hardware10automotive2sv4V1_022BnHwSurroundViewStream12_hidl_notifyEPNS_4hidl4base4V1_08BnHwBaseERKNS0_6ParcelEPSA_NSt3__18functionIFvRSA_EEE"
  },
  {
   "name" : "_ZN7android8hardware10automotive2sv4V1_022BnHwSurroundViewStream12getDebugInfoENSt3__18functionIFvRKNS_4hidl4base4V1_09DebugInfoEEEE"
  },
  {
   "name" : "_ZN7android8hardware10automotive2sv4V1_022BnHwSurroundViewStream19_hidl_receiveFramesEPNS_4hidl4base4V1_08BnHwBaseERKNS0_6ParcelEPSA_NSt3__18functionIFvRSA_EEE"
  },
  {
   "name" : "_ZN7android8hardware10automotive2sv4V1_022BnHwSurroundViewStream4pingEv"
  },
  {
   "name" : "_ZN7android8hardware10automotive2sv4V1_022BnHwSurroundViewStreamC1ERKNS_2spINS3_19ISurroundViewStreamEEE"
  },
  {
   "name" : "_ZN7android8hardware10automotive2sv4V1_022BnHwSurroundViewStreamC2ERKNS_2spINS3_19ISurroundViewStreamEEE"
  },
  {
   "name" : "_ZN7android8hardware10automotive2sv4V1_022BnHwSurroundViewStreamD0Ev"
  },
  {
   "name" : "_ZN7android8hardware10automotive2sv4V1_022BnHwSurroundViewStreamD1Ev"
  },
  {
   "name" : "_ZN7android8hardware10automotive2sv4V1_022BnHwSurroundViewStreamD2Ev"
  },
  {
   "name" : "_ZN7android8hardware10automotive2sv4V1_022BpHwSurroundViewStream11linkToDeathERKNS_2spINS0_20hidl_death_recipientEEEy"
  },
  {
   "name" : "_ZN7android8hardware10automotive2sv4V1_022BpHwSurroundViewStream12_hidl_notifyEPNS0_10IInterfaceEPNS0_7details16HidlInstrumentorENS3_7SvEventE"
  },
  {
   "name" : "_ZN7android8hardware10automotive2sv4V1_022BpHwSurroundViewStream12getDebugInfoENSt3__18functionIFvRKNS_4hidl4base4V1_09DebugInfoEEEE"
  },
  {
   "name" : "_ZN7android8hardware10automotive2sv4V1_022BpHwSurroundViewStream12getHashChainENSt3__18functionIFvRKNS0_8hidl_vecINS0_10hidl_arrayIhLj32EJEEEEEEEE"
  },
  {
   "name" : "_ZN7android8hardware10automotive2sv4V1_022BpHwSurroundViewStream13receiveFramesERKNS3_12SvFramesDescE"
  },
  {
   "name" : "_ZN7android8hardware10automotive2sv4V1_022BpHwSurroundViewStream13unlinkToDeathERKNS_2spINS0_20hidl_death_recipientEEE"
  },
  {
   "name" : "_ZN7android8hardware10automotive2sv4V1_022BpHwSurroundViewStream14interfaceChainENSt3__18functionIFvRKNS0_8hidl_vecINS0_11hidl_stringEEEEEE"
  },
  {
   "name" : "_ZN7android8hardware10automotive2sv4V1_022BpHwSurroundViewStream15onLastStrongRefEPKv"
  },
  {
   "name" : "_ZN7android8hardware10automotive2sv4V1_022BpHwSurroundViewStream19_hidl_receiveFramesEPNS0_10IInterfaceEPNS0_7details16HidlInstrumentorERKNS3_12SvFramesDescE"
  },
  {
   "name" : "_ZN7android8hardware10automotive2sv4V1_022BpHwSurroundViewStream19interfaceDescriptorENSt3__18functionIFvRKNS0_11hidl_stringEEEE"
  },
  {
   "name" : "_ZN7android8hardware10automotive2sv4V1_022BpHwSurroundViewStream21notifySyspropsChangedEv"
  },
  {
   "name" : "_ZN7android8hardware10automotive2sv4V1_022BpHwSurroundViewStream21setHALInstrumentationEv"
  },
  {
   "name" : "_ZN7android8hardware10automotive2sv4V1_022BpHwSurroundViewStream4pingEv"
  },
  {
   "name" : "_ZN7android8hardware10automotive2sv4V1_022BpHwSurroundViewStream5debugERKNS0_11hidl_handleERKNS0_8hidl_vecINS0_11hidl_stringEEE"
  },
  {
   "name" : "_ZN7android8hardware10automotive2sv4V1_022BpHwSurroundViewStream6notifyENS3_7SvEventE"
  },
  {
   "name" : "_ZN7android8hardware10automotive2sv4V1_022BpHwSurroundViewStreamC1ERKNS_2spINS0_7IBinderEEE"
  },
  {
   "name" : "_ZN7android8hardware10automotive2sv4V1_022BpHwSurroundViewStreamC2ERKNS_2spINS0_7IBinderEEE"
  },
  {
   "name" : "_ZN7android8hardware10automotive2sv4V1_022ISurroundView2dSession10getServiceERKNSt3__112basic_stringIcNS5_11char_traitsIcEENS5_9allocatorIcEEEEb"
  },
  {
   "name" : "_ZN7android8hardware10automotive2sv4V1_022ISurroundView2dSession11linkToDeathERKNS_2spINS0_20hidl_death_recipientEEEy"
  },
  {
   "name" : "_ZN7android8hardware10automotive2sv4V1_022ISurroundView2dSession12getDebugInfoENSt3__18functionIFvRKNS_4hidl4base4V1_09DebugInfoEEEE"
  },
  {
   "name" : "_ZN7android8hardware10automotive2sv4V1_022ISurroundView2dSession12getHashChainENSt3__18functionIFvRKNS0_8hidl_vecINS0_10hidl_arrayIhLj32EJEEEEEEEE"
  },
  {
   "name" : "_ZN7android8hardware10automotive2sv4V1_022ISurroundView2dSession13tryGetServiceERKNSt3__112basic_stringIcNS5_11char_traitsIcEENS5_9allocatorIcEEEEb"
  },
  {
   "name" : "_ZN7android8hardware10automotive2sv4V1_022ISurroundView2dSession13unlinkToDeathERKNS_2spINS0_20hidl_death_recipientEEE"
  },
  {
   "name" : "_ZN7android8hardware10automotive2sv4V1_022ISurroundView2dSession14interfaceChainENSt3__18functionIFvRKNS0_8hidl_vecINS0_11hidl_stringEEEEEE"
  },
  {
   "name" : "_ZN7android8hardware10automotive2sv4V1_022ISurroundView2dSession17registerAsServiceERKNSt3__112basic_stringIcNS5_11char_traitsIcEENS5_9allocatorIcEEEE"
  },
  {
   "name" : "_ZN7android8hardware10automotive2sv4V1_022ISurroundView2dSession19interfaceDescriptorENSt3__18functionIFvRKNS0_11hidl_stringEEEE"
  },
  {
   "name" : "_ZN7android8hardware10automotive2sv4V1_022ISurroundView2dSession21notifySyspropsChangedEv"
  },
  {
   "name" : "_ZN7android8hardware10automotive2sv4V1_022ISurroundView2dSession21setHALInstrumentationEv"
  },
  {
   "name" : "_ZN7android8hardware10automotive2sv4V1_022ISurroundView2dSession24registerForNotificationsERKNSt3__112basic_stringIcNS5_11char_traitsIcEENS5_9allocatorIcEEEERKNS_2spINS_4hidl7manager4V1_020IServiceNotificationEEE"
  },
  {
   "name" : "_ZN7android8hardware10automotive2sv4V1_022ISurroundView2dSession4pingEv"
  },
  {
   "name" : "_ZN7android8hardware10automotive2sv4V1_022ISurroundView2dSession5debugERKNS0_11hidl_handleERKNS0_8hidl_vecINS0_11hidl_stringEEE"
  },
  {
   "name" : "_ZN7android8hardware10automotive2sv4V1_022ISurroundView2dSession8castFromERKNS_2spINS3_20ISurroundViewSessionEEEb"
  },
  {
   "name" : "_ZN7android8hardware10automotive2sv4V1_022ISurroundView2dSession8castFromERKNS_2spINS_4hidl4base4V1_05IBaseEEEb"
  },
  {
   "name" : "_ZN7android8hardware10automotive2sv4V1_022ISurroundView2dSession8castFromERKNS_2spIS4_EEb"
  },
  {
   "name" : "_ZN7android8hardware10automotive2sv4V1_022ISurroundView3dSession10getServiceERKNSt3__112basic_stringIcNS5_11char_traitsIcEENS5_9allocatorIcEEEEb"
  },
  {
   "name" : "_ZN7android8hardware10automotive2sv4V1_022ISurroundView3dSession11linkToDeathERKNS_2spINS0_20hidl_death_recipientEEEy"
  },
  {
   "name" : "_ZN7android8hardware10automotive2sv4V1_022ISurroundView3dSession12getDebugInfoENSt3__18functionIFvRKNS_4hidl4base4V1_09DebugInfoEEEE"
  },
  {
   "name" : "_ZN7android8hardware10automotive2sv4V1_022ISurroundView3dSession12getHashChainENSt3__18functionIFvRKNS0_8hidl_vecINS0_10hidl_arrayIhLj32EJEEEEEEEE"
  },
  {
   "name" : "_ZN7android8hardware10automotive2sv4V1_022ISurroundView3dSession13tryGetServiceERKNSt3__112basic_stringIcNS5_11char_traitsIcEENS5_9allocatorIcEEEEb"
  },
  {
   "name" : "_ZN7android8hardware10automotive2sv4V1_022ISurroundView3dSession13unlinkToDeathERKNS_2spINS0_20hidl_death_recipientEEE"
  },
  {
   "name" : "_ZN7android8hardware10automotive2sv4V1_022ISurroundView3dSession14interfaceChainENSt3__18functionIFvRKNS0_8hidl_vecINS0_11hidl_stringEEEEEE"
  },
  {
   "name" : "_ZN7android8hardware10automotive2sv4V1_022ISurroundView3dSession17registerAsServiceERKNSt3__112basic_stringIcNS5_11char_traitsIcEENS5_9allocatorIcEEEE"
  },
  {
   "name" : "_ZN7android8hardware10automotive2sv4V1_022ISurroundView3dSession19interfaceDescriptorENSt3__18functionIFvRKNS0_11hidl_stringEEEE"
  },
  {
   "name" : "_ZN7android8hardware10automotive2sv4V1_022ISurroundView3dSession21notifySyspropsChangedEv"
  },
  {
   "name" : "_ZN7android8hardware10automotive2sv4V1_022ISurroundView3dSession21setHALInstrumentationEv"
  },
  {
   "name" : "_ZN7android8hardware10automotive2sv4V1_022ISurroundView3dSession24registerForNotificationsERKNSt3__112basic_stringIcNS5_11char_traitsIcEENS5_9allocatorIcEEEERKNS_2spINS_4hidl7manager4V1_020IServiceNotificationEEE"
  },
  {
   "name" : "_ZN7android8hardware10automotive2sv4V1_022ISurroundView3dSession4pingEv"
  },
  {
   "name" : "_ZN7android8hardware10automotive2sv4V1_022ISurroundView3dSession5debugERKNS0_11hidl_handleERKNS0_8hidl_vecINS0_11hidl_stringEEE"
  },
  {
   "name" : "_ZN7android8hardware10automotive2sv4V1_022ISurroundView3dSession8castFromERKNS_2spINS3_20ISurroundViewSessionEEEb"
  },
  {
   "name" : "_ZN7android8hardware10automotive2sv4V1_022ISurroundView3dSession8castFromERKNS_2spINS_4hidl4base4V1_05IBaseEEEb"
  },
  {
   "name" : "_ZN7android8hardware10automotive2sv4V1_022ISurroundView3dSession8castFromERKNS_2spIS4_EEb"
  },
  {
   "name" : "_ZN7android8hardware10automotive2sv4V1_022readEmbeddedFromParcelERKNS3_12OverlaysDataERKNS0_6ParcelEjj"
  },
  {
   "name" : "_ZN7android8hardware10automotive2sv4V1_022readEmbeddedFromParcelERKNS3_12SvFramesDescERKNS0_6ParcelEjj"
  },
  {
   "name" : "_ZN7android8hardware10automotive2sv4V1_022readEmbeddedFromParcelERKNS3_8SvBufferERKNS0_6ParcelEjj"
  },
  {
   "name" : "_ZN7android8hardware10automotive2sv4V1_023BnHwSurroundViewService10onTransactEjRKNS0_6ParcelEPS5_jNSt3__18functionIFvRS5_EEE"
  },
  {
   "name" : "_ZN7android8hardware10automotive2sv4V1_023BnHwSurroundViewService12getDebugInfoENSt3__18functionIFvRKNS_4hidl4base4V1_09DebugInfoEEEE"
  },
  {
   "name" : "_ZN7android8hardware10automotive2sv4V1_023BnHwSurroundViewService18_hidl_getCameraIdsEPNS_4hidl4base4V1_08BnHwBaseERKNS0_6ParcelEPSA_NSt3__18functionIFvRSA_EEE"
  },
  {
   "name" : "_ZN7android8hardware10automotive2sv4V1_023BnHwSurroundViewService19_hidl_stop2dSessionEPNS_4hidl4base4V1_08BnHwBaseERKNS0_6ParcelEPSA_NSt3__18functionIFvRSA_EEE"
  },
  {
   "name" : "_ZN7android8hardware10automotive2sv4V1_023BnHwSurroundViewService19_hidl_stop3dSessionEPNS_4hidl4base4V1_08BnHwBaseERKNS0_6ParcelEPSA_NSt3__18functionIFvRSA_EEE"
  },
  {
   "name" : "_ZN7android8hardware10automotive2sv4V1_023BnHwSurroundViewService20_hidl_start2dSessionEPNS_4hidl4base4V1_08BnHwBaseERKNS0_6ParcelEPSA_NSt3__18functionIFvRSA_EEE"
  },
  {
   "name" : "_ZN7android8hardware10automotive2sv4V1_023BnHwSurroundViewService20_hidl_start3dSessionEPNS_4hidl4base4V1_08BnHwBaseERKNS0_6ParcelEPSA_NSt3__18functionIFvRSA_EEE"
  },
  {
   "name" : "_ZN7android8hardware10automotive2sv4V1_023BnHwSurroundViewService4pingEv"
  },
  {
   "name" : "_ZN7android8hardware10automotive2sv4V1_023BnHwSurroundViewServiceC1ERKNS_2spINS3_20ISurroundViewServiceEEE"
  },
  {
   "name" : "_ZN7android8hardware10automotive2sv4V1_023BnHwSurroundViewServiceC2ERKNS_2spINS3_20ISurroundViewServiceEEE"
  },
  {
   "name" : "_ZN7android8hardware10automotive2sv4V1_023BnHwSurroundViewServiceD0Ev"
  },
  {
   "name" : "_ZN7android8hardware10automotive2sv4V1_023BnHwSurroundViewServiceD1Ev"
  },
  {
   "name" : "_ZN7android8hardware10automotive2sv4V1_023BnHwSurroundViewServiceD2Ev"
  },
  {
   "name" : "_ZN7android8hardware10automotive2sv4V1_023BnHwSurroundViewSession10onTransactEjRKNS0_6ParcelEPS5_jNSt3__18functionIFvRS5_EEE"
  },
  {
   "name" : "_ZN7android8hardware10automotive2sv4V1_023BnHwSurroundViewSession12getDebugInfoENSt3__18functionIFvRKNS_4hidl4base4V1_09DebugInfoEEEE"
  },
  {
   "name" : "_ZN7android8hardware10automotive2sv4V1_023BnHwSurroundViewSession16_hidl_stopStreamEPNS_4hidl4base4V1_08BnHwBaseERKNS0_6ParcelEPSA_NSt3__18functionIFvRSA_EEE"
  },
  {
   "name" : "_ZN7android8hardware10automotive2sv4V1_023BnHwSurroundViewSession17_hidl_startStreamEPNS_4hidl4base4V1_08BnHwBaseERKNS0_6ParcelEPSA_NSt3__18functionIFvRSA_EEE"
  },
  {
   "name" : "_ZN7android8hardware10automotive2sv4V1_023BnHwSurroundViewSession20_hidl_doneWithFramesEPNS_4hidl4base4V1_08BnHwBaseERKNS0_6ParcelEPSA_NSt3__18functionIFvRSA_EEE"
  },
  {
   "name" : "_ZN7android8hardware10automotive2sv4V1_023BnHwSurroundViewSession4pingEv"
  },
  {
   "name" : "_ZN7android8hardware10automotive2sv4V1_023BnHwSurroundViewSessionC1ERKNS_2spINS3_20ISurroundViewSessionEEE"
  },
  {
   "name" : "_ZN7android8hardware10automotive2sv4V1_023BnHwSurroundViewSessionC2ERKNS_2spINS3_20ISurroundViewSessionEEE"
  },
  {
   "name" : "_ZN7android8hardware10automotive2sv4V1_023BnHwSurroundViewSessionD0Ev"
  },
  {
   "name" : "_ZN7android8hardware10automotive2sv4V1_023BnHwSurroundViewSessionD1Ev"
  },
  {
   "name" : "_ZN7android8hardware10automotive2sv4V1_023BnHwSurroundViewSessionD2Ev"
  },
  {
   "name" : "_ZN7android8hardware10automotive2sv4V1_023BpHwSurroundViewService11linkToDeathERKNS_2spINS0_20hidl_death_recipientEEEy"
  },
  {
   "name" : "_ZN7android8hardware10automotive2sv4V1_023BpHwSurroundViewService12getCameraIdsENSt3__18functionIFvRKNS0_8hidl_vecINS0_11hidl_stringEEEEEE"
  },
  {
   "name" : "_ZN7android8hardware10automotive2sv4V1_023BpHwSurroundViewService12getDebugInfoENSt3__18functionIFvRKNS_4hidl4base4V1_09DebugInfoEEEE"
  },
  {
   "name" : "_ZN7android8hardware10automotive2sv4V1_023BpHwSurroundViewService12getHashChainENSt3__18functionIFvRKNS0_8hidl_vecINS0_10hidl_arrayIhLj32EJEEEEEEEE"
  },
  {
   "name" : "_ZN7android8hardware10automotive2sv4V1_023BpHwSurroundViewService13stop2dSessionERKNS_2spINS3_22ISurroundView2dSessionEEE"
  },
  {
   "name" : "_ZN7android8hardware10automotive2sv4V1_023BpHwSurroundViewService13stop3dSessionERKNS_2spINS3_22ISurroundView3dSessionEEE"
  },
  {
   "name" : "_ZN7android8hardware10automotive2sv4V1_023BpHwSurroundViewService13unlinkToDeathERKNS_2spINS0_20hidl_death_recipientEEE"
  },
  {
   "name" : "_ZN7android8hardware10automotive2sv4V1_023BpHwSurroundViewService14interfaceChainENSt3__18functionIFvRKNS0_8hidl_vecINS0_11hidl_stringEEEEEE"
  },
  {
   "name" : "_ZN7android8hardware10automotive2sv4V1_023BpHwSurroundViewService14start2dSessionENSt3__18functionIFvRKNS_2spINS3_22ISurroundView2dSessionEEENS3_8SvResultEEEE"
  },
  {
   "name" : "_ZN7android8hardware10automotive2sv4V1_023BpHwSurroundViewService14start3dSessionENSt3__18functionIFvRKNS_2spINS3_22ISurroundView3dSessionEEENS3_8SvResultEEEE"
  },
  {
   "name" : "_ZN7android8hardware10automotive2sv4V1_023BpHwSurroundViewService15onLastStrongRefEPKv"
  },
  {
   "name" : "_ZN7android8hardware10automotive2sv4V1_023BpHwSurroundViewService18_hidl_getCameraIdsEPNS0_10IInterfaceEPNS0_7details16HidlInstrumentorENSt3__18functionIFvRKNS0_8hidl_vecINS0_11hidl_stringEEEEEE"
  },
  {
   "name" : "_ZN7android8hardware10automotive2sv4V1_023BpHwSurroundViewService19_hidl_stop2dSessionEPNS0_10IInterfaceEPNS0_7details16HidlInstrumentorERKNS_2spINS3_22ISurroundView2dSessionEEE"
  },
  {
   "name" : "_ZN7android8hardware10automotive2sv4V1_023BpHwSurroundViewService19_hidl_stop3dSessionEPNS0_10IInterfaceEPNS0_7details16HidlInstrumentorERKNS_2spINS3_22ISurroundView3dSessionEEE"
  },
  {
   "name" : "_ZN7android8hardware10automotive2sv4V1_023BpHwSurroundViewService19interfaceDescriptorENSt3__18functionIFvRKNS0_11hidl_stringEEEE"
  },
  {
   "name" : "_ZN7android8hardware10automotive2sv4V1_023BpHwSurroundViewService20_hidl_start2dSessionEPNS0_10IInterfaceEPNS0_7details16HidlInstrumentorENSt3__18functionIFvRKNS_2spINS3_22ISurroundView2dSessionEEENS3_8SvResultEEEE"
  },
  {
   "name" : "_ZN7android8hardware10automotive2sv4V1_023BpHwSurroundViewService20_hidl_start3dSessionEPNS0_10IInterfaceEPNS0_7details16HidlInstrumentorENSt3__18functionIFvRKNS_2spINS3_22ISurroundView3dSessionEEENS3_8SvResultEEEE"
  },
  {
   "name" : "_ZN7android8hardware10automotive2sv4V1_023BpHwSurroundViewService21notifySyspropsChangedEv"
  },
  {
   "name" : "_ZN7android8hardware10automotive2sv4V1_023BpHwSurroundViewService21setHALInstrumentationEv"
  },
  {
   "name" : "_ZN7android8hardware10automotive2sv4V1_023BpHwSurroundViewService4pingEv"
  },
  {
   "name" : "_ZN7android8hardware10automotive2sv4V1_023BpHwSurroundViewService5debugERKNS0_11hidl_handleERKNS0_8hidl_vecINS0_11hidl_stringEEE"
  },
  {
   "name" : "_ZN7android8hardware10automotive2sv4V1_023BpHwSurroundViewServiceC1ERKNS_2spINS0_7IBinderEEE"
  },
  {
   "name" : "_ZN7android8hardware10automotive2sv4V1_023BpHwSurroundViewServiceC2ERKNS_2spINS0_7IBinderEEE"
  },
  {
   "name" : "_ZN7android8hardware10automotive2sv4V1_023BpHwSurroundViewSession10stopStreamEv"
  },
  {
   "name" : "_ZN7android8hardware10automotive2sv4V1_023BpHwSurroundViewSession11linkToDeathERKNS_2spINS0_20hidl_death_recipientEEEy"
  },
  {
   "name" : "_ZN7android8hardware10automotive2sv4V1_023BpHwSurroundViewSession11startStreamERKNS_2spINS3_19ISurroundViewStreamEEE"
  },
  {
   "name" : "_ZN7android8hardware10automotive2sv4V1_023BpHwSurroundViewSession12getDebugInfoENSt3__18functionIFvRKNS_4hidl4base4V1_09DebugInfoEEEE"
  },
  {
   "name" : "_ZN7android8hardware10automotive2sv4V1_023BpHwSurroundViewSession12getHashChainENSt3__18functionIFvRKNS0_8hidl_vecINS0_10hidl_arrayIhLj32EJEEEEEEEE"
  },
  {
   "name" : "_ZN7android8hardware10automotive2sv4V1_023BpHwSurroundViewSession13unlinkToDeathERKNS_2spINS0_20hidl_death_recipientEEE"
  },
  {
   "name" : "_ZN7android8hardware10automotive2sv4V1_023BpHwSurroundViewSession14doneWithFramesERKNS3_12SvFramesDescE"
  },
  {
   "name" : "_ZN7android8hardware10automotive2sv4V1_023BpHwSurroundViewSession14interfaceChainENSt3__18functionIFvRKNS0_8hidl_vecINS0_11hidl_stringEEEEEE"
  },
  {
   "name" : "_ZN7android8hardware10automotive2sv4V1_023BpHwSurroundViewSession15onLastStrongRefEPKv"
  },
  {
   "name" : "_ZN7android8hardware10automotive2sv4V1_023BpHwSurroundViewSession16_hidl_stopStreamEPNS0_10IInterfaceEPNS0_7details16HidlInstrumentorE"
  },
  {
   "name" : "_ZN7android8hardware10automotive2sv4V1_023BpHwSurroundViewSession17_hidl_startStreamEPNS0_10IInterfaceEPNS0_7details16HidlInstrumentorERKNS_2spINS3_19ISurroundViewStreamEEE"
  },
  {
   "name" : "_ZN7android8hardware10automotive2sv4V1_023BpHwSurroundViewSession19interfaceDescriptorENSt3__18functionIFvRKNS0_11hidl_stringEEEE"
  },
  {
   "name" : "_ZN7android8hardware10automotive2sv4V1_023BpHwSurroundViewSession20_hidl_doneWithFramesEPNS0_10IInterfaceEPNS0_7details16HidlInstrumentorERKNS3_12SvFramesDescE"
  },
  {
   "name" : "_ZN7android8hardware10automotive2sv4V1_023BpHwSurroundViewSession21notifySyspropsChangedEv"
  },
  {
   "name" : "_ZN7android8hardware10automotive2sv4V1_023BpHwSurroundViewSession21setHALInstrumentationEv"
  },
  {
   "name" : "_ZN7android8hardware10automotive2sv4V1_023BpHwSurroundViewSession4pingEv"
  },
  {
   "name" : "_ZN7android8hardware10automotive2sv4V1_023BpHwSurroundViewSession5debugERKNS0_11hidl_handleERKNS0_8hidl_vecINS0_11hidl_stringEEE"
  },
  {
   "name" : "_ZN7android8hardware10automotive2sv4V1_023BpHwSurroundViewSessionC1ERKNS_2spINS0_7IBinderEEE"
  },
  {
   "name" : "_ZN7android8hardware10automotive2sv4V1_023BpHwSurroundViewSessionC2ERKNS_2spINS0_7IBinderEEE"
  },
  {
   "name" : "_ZN7android8hardware10automotive2sv4V1_023BsSurroundView2dSession13addOnewayTaskENSt3__18functionIFvvEEE"
  },
  {
   "name" : "_ZN7android8hardware10automotive2sv4V1_023BsSurroundView2dSessionC1ENS_2spINS3_22ISurroundView2dSessionEEE"
  },
  {
   "name" : "_ZN7android8hardware10automotive2sv4V1_023BsSurroundView2dSessionC2ENS_2spINS3_22ISurroundView2dSessionEEE"
  },
  {
   "name" : "_ZN7android8hardware10automotive2sv4V1_023BsSurroundView3dSession13addOnewayTaskENSt3__18functionIFvvEEE"
  },
  {
   "name" : "_ZN7android8hardware10automotive2sv4V1_023BsSurroundView3dSessionC1ENS_2spINS3_22ISurroundView3dSessionEEE"
  },
  {
   "name" : "_ZN7android8hardware10automotive2sv4V1_023BsSurroundView3dSessionC2ENS_2spINS3_22ISurroundView3dSessionEEE"
  },
  {
   "name" : "_ZN7android8hardware10automotive2sv4V1_025BnHwSurroundView2dSession10onTransactEjRKNS0_6ParcelEPS5_jNSt3__18functionIFvRS5_EEE"
  },
  {
   "name" : "_ZN7android8hardware10automotive2sv4V1_025BnHwSurroundView2dSession12getDebugInfoENSt3__18functionIFvRKNS_4hidl4base4V1_09DebugInfoEEEE"
  },
  {
   "name" : "_ZN7android8hardware10automotive2sv4V1_025BnHwSurroundView2dSession17_hidl_get2dConfigEPNS_4hidl4base4V1_08BnHwBaseERKNS0_6ParcelEPSA_NSt3__18functionIFvRSA_EEE"
  },
  {
   "name" : "_ZN7android8hardware10automotive2sv4V1_025BnHwSurroundView2dSession17_hidl_set2dConfigEPNS_4hidl4base4V1_08BnHwBaseERKNS0_6ParcelEPSA_NSt3__18functionIFvRSA_EEE"
  },
  {
   "name" : "_ZN7android8hardware10automotive2sv4V1_025BnHwSurroundView2dSession22_hidl_get2dMappingInfoEPNS_4hidl4base4V1_08BnHwBaseERKNS0_6ParcelEPSA_NSt3__18functionIFvRSA_EEE"
  },
  {
   "name" : "_ZN7android8hardware10automotive2sv4V1_025BnHwSurroundView2dSession25_hidl_projectCameraPointsEPNS_4hidl4base4V1_08BnHwBaseERKNS0_6ParcelEPSA_NSt3__18functionIFvRSA_EEE"
  },
  {
   "name" : "_ZN7android8hardware10automotive2sv4V1_025BnHwSurroundView2dSession4pingEv"
  },
  {
   "name" : "_ZN7android8hardware10automotive2sv4V1_025BnHwSurroundView2dSessionC1ERKNS_2spINS3_22ISurroundView2dSessionEEE"
  },
  {
   "name" : "_ZN7android8hardware10automotive2sv4V1_025BnHwSurroundView2dSessionC2ERKNS_2spINS3_22ISurroundView2dSessionEEE"
  },
  {
   "name" : "_ZN7android8hardware10automotive2sv4V1_025BnHwSurroundView2dSessionD0Ev"
  },
  {
   "name" : "_ZN7android8hardware10automotive2sv4V1_025BnHwSurroundView2dSessionD1Ev"
  },
  {
   "name" : "_ZN7android8hardware10automotive2sv4V1_025BnHwSurroundView2dSessionD2Ev"
  },
  {
   "name" : "_ZN7android8hardware10automotive2sv4V1_025BnHwSurroundView3dSession10onTransactEjRKNS0_6ParcelEPS5_jNSt3__18functionIFvRS5_EEE"
  },
  {
   "name" : "_ZN7android8hardware10automotive2sv4V1_025BnHwSurroundView3dSession12getDebugInfoENSt3__18functionIFvRKNS_4hidl4base4V1_09DebugInfoEEEE"
  },
  {
   "name" : "_ZN7android8hardware10automotive2sv4V1_025BnHwSurroundView3dSession14_hidl_setViewsEPNS_4hidl4base4V1_08BnHwBaseERKNS0_6ParcelEPSA_NSt3__18functionIFvRSA_EEE"
  },
  {
   "name" : "_ZN7android8hardware10automotive2sv4V1_025BnHwSurroundView3dSession17_hidl_get3dConfigEPNS_4hidl4base4V1_08BnHwBaseERKNS0_6ParcelEPSA_NSt3__18functionIFvRSA_EEE"
  },
  {
   "name" : "_ZN7android8hardware10automotive2sv4V1_025BnHwSurroundView3dSession17_hidl_set3dConfigEPNS_4hidl4base4V1_08BnHwBaseERKNS0_6ParcelEPSA_NSt3__18functionIFvRSA_EEE"
  },
  {
   "name" : "_ZN7android8hardware10automotive2sv4V1_025BnHwSurroundView3dSession20_hidl_updateOverlaysEPNS_4hidl4base4V1_08BnHwBaseERKNS0_6ParcelEPSA_NSt3__18functionIFvRSA_EEE"
  },
  {
   "name" : "_ZN7android8hardware10automotive2sv4V1_025BnHwSurroundView3dSession36_hidl_projectCameraPointsTo3dSurfaceEPNS_4hidl4base4V1_08BnHwBaseERKNS0_6ParcelEPSA_NSt3__18functionIFvRSA_EEE"
  },
  {
   "name" : "_ZN7android8hardware10automotive2sv4V1_025BnHwSurroundView3dSession4pingEv"
  },
  {
   "name" : "_ZN7android8hardware10automotive2sv4V1_025BnHwSurroundView3dSessionC1ERKNS_2spINS3_22ISurroundView3dSessionEEE"
  },
  {
   "name" : "_ZN7android8hardware10automotive2sv4V1_025BnHwSurroundView3dSessionC2ERKNS_2spINS3_22ISurroundView3dSessionEEE"
  },
  {
   "name" : "_ZN7android8hardware10automotive2sv4V1_025BnHwSurroundView3dSessionD0Ev"
  },
  {
   "name" : "_ZN7android8hardware10automotive2sv4V1_025BnHwSurroundView3dSessionD1Ev"
  },
  {
   "name" : "_ZN7android8hardware10automotive2sv4V1_025BnHwSurroundView3dSessionD2Ev"
  },
  {
   "name" : "_ZN7android8hardware10automotive2sv4V1_025BpHwSurroundView2dSession10stopStreamEv"
  },
  {
   "name" : "_ZN7android8hardware10automotive2sv4V1_025BpHwSurroundView2dSession11get2dConfigENSt3__18functionIFvRKNS3_10Sv2dConfigEEEE"
  },
  {
   "name" : "_ZN7android8hardware10automotive2sv4V1_025BpHwSurroundView2dSession11linkToDeathERKNS_2spINS0_20hidl_death_recipientEEEy"
  },
  {
   "name" : "_ZN7android8hardware10automotive2sv4V1_025BpHwSurroundView2dSession11set2dConfigERKNS3_10Sv2dConfigE"
  },
  {
   "name" : "_ZN7android8hardware10automotive2sv4V1_025BpHwSurroundView2dSession11startStreamERKNS_2spINS3_19ISurroundViewStreamEEE"
  },
  {
   "name" : "_ZN7android8hardware10automotive2sv4V1_025BpHwSurroundView2dSession12getDebugInfoENSt3__18functionIFvRKNS_4hidl4base4V1_09DebugInfoEEEE"
  },
  {
   "name" : "_ZN7android8hardware10automotive2sv4V1_025BpHwSurroundView2dSession12getHashChainENSt3__18functionIFvRKNS0_8hidl_vecINS0_10hidl_arrayIhLj32EJEEEEEEEE"
  },
  {
   "name" : "_ZN7android8hardware10automotive2sv4V1_025BpHwSurroundView2dSession13unlinkToDeathERKNS_2spINS0_20hidl_death_recipientEEE"
  },
  {
   "name" : "_ZN7android8hardware10automotive2sv4V1_025BpHwSurroundView2dSession14doneWithFramesERKNS3_12SvFramesDescE"
  },
  {
   "name" : "_ZN7android8hardware10automotive2sv4V1_025BpHwSurroundView2dSession14interfaceChainENSt3__18functionIFvRKNS0_8hidl_vecINS0_11hidl_stringEEEEEE"
  },
  {
   "name" : "_ZN7android8hardware10automotive2sv4V1_025BpHwSurroundView2dSession15onLastStrongRefEPKv"
  },
  {
   "name" : "_ZN7android8hardware10automotive2sv4V1_025BpHwSurroundView2dSession16get2dMappingInfoENSt3__18functionIFvRKNS3_15Sv2dMappingInfoEEEE"
  },
  {
   "name" : "_ZN7android8hardware10automotive2sv4V1_025BpHwSurroundView2dSession17_hidl_get2dConfigEPNS0_10IInterfaceEPNS0_7details16HidlInstrumentorENSt3__18functionIFvRKNS3_10Sv2dConfigEEEE"
  },
  {
   "name" : "_ZN7android8hardware10automotive2sv4V1_025BpHwSurroundView2dSession17_hidl_set2dConfigEPNS0_10IInterfaceEPNS0_7details16HidlInstrumentorERKNS3_10Sv2dConfigE"
  },
  {
   "name" : "_ZN7android8hardware10automotive2sv4V1_025BpHwSurroundView2dSession19interfaceDescriptorENSt3__18functionIFvRKNS0_11hidl_stringEEEE"
  },
  {
   "name" : "_ZN7android8hardware10automotive2sv4V1_025BpHwSurroundView2dSession19projectCameraPointsERKNS0_8hidl_vecINS3_10Point2dIntEEERKNS0_11hidl_stringENSt3__18functionIFvRKNS5_INS3_12Point2dFloatEEEEEE"
  },
  {
   "name" : "_ZN7android8hardware10automotive2sv4V1_025BpHwSurroundView2dSession21notifySyspropsChangedEv"
  },
  {
   "name" : "_ZN7android8hardware10automotive2sv4V1_025BpHwSurroundView2dSession21setHALInstrumentationEv"
  },
  {
   "name" : "_ZN7android8hardware10automotive2sv4V1_025BpHwSurroundView2dSession22_hidl_get2dMappingInfoEPNS0_10IInterfaceEPNS0_7details16HidlInstrumentorENSt3__18functionIFvRKNS3_15Sv2dMappingInfoEEEE"
  },
  {
   "name" : "_ZN7android8hardware10automotive2sv4V1_025BpHwSurroundView2dSession25_hidl_projectCameraPointsEPNS0_10IInterfaceEPNS0_7details16HidlInstrumentorERKNS0_8hidl_vecINS3_10Point2dIntEEERKNS0_11hidl_stringENSt3__18functionIFvRKNSA_INS3_12Point2dFloatEEEEEE"
  },
  {
   "name" : "_ZN7android8hardware10automotive2sv4V1_025BpHwSurroundView2dSession4pingEv"
  },
  {
   "name" : "_ZN7android8hardware10automotive2sv4V1_025BpHwSurroundView2dSession5debugERKNS0_11hidl_handleERKNS0_8hidl_vecINS0_11hidl_stringEEE"
  },
  {
   "name" : "_ZN7android8hardware10automotive2sv4V1_025BpHwSurroundView2dSessionC1ERKNS_2spINS0_7IBinderEEE"
  },
  {
   "name" : "_ZN7android8hardware10automotive2sv4V1_025BpHwSurroundView2dSessionC2ERKNS_2spINS0_7IBinderEEE"
  },
  {
   "name" : "_ZN7android8hardware10automotive2sv4V1_025BpHwSurroundView3dSession10stopStreamEv"
  },
  {
   "name" : "_ZN7android8hardware10automotive2sv4V1_025BpHwSurroundView3dSession11get3dConfigENSt3__18functionIFvRKNS3_10Sv3dConfigEEEE"
  },
  {
   "name" : "_ZN7android8hardware10automotive2sv4V1_025BpHwSurroundView3dSession11linkToDeathERKNS_2spINS0_20hidl_death_recipientEEEy"
  },
  {
   "name" : "_ZN7android8hardware10automotive2sv4V1_025BpHwSurroundView3dSession11set3dConfigERKNS3_10Sv3dConfigE"
  },
  {
   "name" : "_ZN7android8hardware10automotive2sv4V1_025BpHwSurroundView3dSession11startStreamERKNS_2spINS3_19ISurroundViewStreamEEE"
  },
  {
   "name" : "_ZN7android8hardware10automotive2sv4V1_025BpHwSurroundView3dSession12getDebugInfoENSt3__18functionIFvRKNS_4hidl4base4V1_09DebugInfoEEEE"
  },
  {
   "name" : "_ZN7android8hardware10automotive2sv4V1_025BpHwSurroundView3dSession12getHashChainENSt3__18functionIFvRKNS0_8hidl_vecINS0_10hidl_arrayIhLj32EJEEEEEEEE"
  },
  {
   "name" : "_ZN7android8hardware10automotive2sv4V1_025BpHwSurroundView3dSession13unlinkToDeathERKNS_2spINS0_20hidl_death_recipientEEE"
  },
  {
   "name" : "_ZN7android8hardware10automotive2sv4V1_025BpHwSurroundView3dSession14_hidl_setViewsEPNS0_10IInterfaceEPNS0_7details16HidlInstrumentorERKNS0_8hidl_vecINS3_6View3dEEE"
  },
  {
   "name" : "_ZN7android8hardware10automotive2sv4V1_025BpHwSurroundView3dSession14doneWithFramesERKNS3_12SvFramesDescE"
  },
  {
   "name" : "_ZN7android8hardware10automotive2sv4V1_025BpHwSurroundView3dSession14interfaceChainENSt3__18functionIFvRKNS0_8hidl_vecINS0_11hidl_stringEEEEEE"
  },
  {
   "name" : "_ZN7android8hardware10automotive2sv4V1_025BpHwSurroundView3dSession14updateOverlaysERKNS3_12OverlaysDataE"
  },
  {
   "name" : "_ZN7android8hardware10automotive2sv4V1_025BpHwSurroundView3dSession15onLastStrongRefEPKv"
  },
  {
   "name" : "_ZN7android8hardware10automotive2sv4V1_025BpHwSurroundView3dSession17_hidl_get3dConfigEPNS0_10IInterfaceEPNS0_7details16HidlInstrumentorENSt3__18functionIFvRKNS3_10Sv3dConfigEEEE"
  },
  {
   "name" : "_ZN7android8hardware10automotive2sv4V1_025BpHwSurroundView3dSession17_hidl_set3dConfigEPNS0_10IInterfaceEPNS0_7details16HidlInstrumentorERKNS3_10Sv3dConfigE"
  },
  {
   "name" : "_ZN7android8hardware10automotive2sv4V1_025BpHwSurroundView3dSession19interfaceDescriptorENSt3__18functionIFvRKNS0_11hidl_stringEEEE"
  },
  {
   "name" : "_ZN7android8hardware10automotive2sv4V1_025BpHwSurroundView3dSession20_hidl_updateOverlaysEPNS0_10IInterfaceEPNS0_7details16HidlInstrumentorERKNS3_12OverlaysDataE"
  },
  {
   "name" : "_ZN7android8hardware10automotive2sv4V1_025BpHwSurroundView3dSession21notifySyspropsChangedEv"
  },
  {
   "name" : "_ZN7android8hardware10automotive2sv4V1_025BpHwSurroundView3dSession21setHALInstrumentationEv"
  },
  {
   "name" : "_ZN7android8hardware10automotive2sv4V1_025BpHwSurroundView3dSession30projectCameraPointsTo3dSurfaceERKNS0_8hidl_vecINS3_10Point2dIntEEERKNS0_11hidl_stringENSt3__18functionIFvRKNS5_INS3_12Point3dFloatEEEEEE"
  },
  {
   "name" : "_ZN7android8hardware10automotive2sv4V1_025BpHwSurroundView3dSession36_hidl_projectCameraPointsTo3dSurfaceEPNS0_10IInterfaceEPNS0_7details16HidlInstrumentorERKNS0_8hidl_vecINS3_10Point2dIntEEERKNS0_11hidl_stringENSt3__18functionIFvRKNSA_INS3_12Point3dFloatEEEEEE"
  },
  {
   "name" : "_ZN7android8hardware10automotive2sv4V1_025BpHwSurroundView3dSession4pingEv"
  },
  {
   "name" : "_ZN7android8hardware10automotive2sv4V1_025BpHwSurroundView3dSession5debugERKNS0_11hidl_handleERKNS0_8hidl_vecINS0_11hidl_stringEEE"
  },
  {
   "name" : "_ZN7android8hardware10automotive2sv4V1_025BpHwSurroundView3dSession8setViewsERKNS0_8hidl_vecINS3_6View3dEEE"
  },
  {
   "name" : "_ZN7android8hardware10automotive2sv4V1_025BpHwSurroundView3dSessionC1ERKNS_2spINS0_7IBinderEEE"
  },
  {
   "name" : "_ZN7android8hardware10automotive2sv4V1_025BpHwSurroundView3dSessionC2ERKNS_2spINS0_7IBinderEEE"
  },
  {
   "binding" : "weak",
   "name" : "_ZN7android8hardware10fromBinderINS0_10automotive2sv4V1_019ISurroundViewStreamENS4_22BpHwSurroundViewStreamENS4_22BnHwSurroundViewStreamEEENS_2spIT_EERKNS8_INS0_7IBinderEEE"
  },
  {
   "binding" : "weak",
   "name" : "_ZN7android8hardware10fromBinderINS0_10automotive2sv4V1_022ISurroundView2dSessionENS4_25BpHwSurroundView2dSessionENS4_25BnHwSurroundView2dSessionEEENS_2spIT_EERKNS8_INS0_7IBinderEEE"
  },
  {
   "binding" : "weak",
   "name" : "_ZN7android8hardware10fromBinderINS0_10automotive2sv4V1_022ISurroundView3dSessionENS4_25BpHwSurroundView3dSessionENS4_25BnHwSurroundView3dSessionEEENS_2spIT_EERKNS8_INS0_7IBinderEEE"
  },
  {
   "binding" : "weak",
   "name" : "_ZN7android8hardware7details13castInterfaceINS0_10automotive2sv4V1_019ISurroundViewStreamENS_4hidl4base4V1_05IBaseENS5_22BpHwSurroundViewStreamEEENS0_6ReturnINS_2spIT_EEEENSD_IT0_EEPKcb"
  },
  {
   "binding" : "weak",
   "name" : "_ZN7android8hardware7details13castInterfaceINS0_10automotive2sv4V1_020ISurroundViewServiceENS_4hidl4base4V1_05IBaseENS5_23BpHwSurroundViewServiceEEENS0_6ReturnINS_2spIT_EEEENSD_IT0_EEPKcb"
  },
  {
   "binding" : "weak",
   "name" : "_ZN7android8hardware7details13castInterfaceINS0_10automotive2sv4V1_020ISurroundViewSessionENS_4hidl4base4V1_05IBaseENS5_23BpHwSurroundViewSessionEEENS0_6ReturnINS_2spIT_EEEENSD_IT0_EEPKcb"
  },
  {
   "binding" : "weak",
   "name" : "_ZN7android8hardware7details13castInterfaceINS0_10automotive2sv4V1_022ISurroundView2dSessionENS5_20ISurroundViewSessionENS5_25BpHwSurroundView2dSessionEEENS0_6ReturnINS_2spIT_EEEENSA_IT0_EEPKcb"
  },
  {
   "binding" : "weak",
   "name" : "_ZN7android8hardware7details13castInterfaceINS0_10automotive2sv4V1_022ISurroundView2dSessionENS_4hidl4base4V1_05IBaseENS5_25BpHwSurroundView2dSessionEEENS0_6ReturnINS_2spIT_EEEENSD_IT0_EEPKcb"
  },
  {
   "binding" : "weak",
   "name" : "_ZN7android8hardware7details13castInterfaceINS0_10automotive2sv4V1_022ISurroundView3dSessionENS5_20ISurroundViewSessionENS5_25BpHwSurroundView3dSessionEEENS0_6ReturnINS_2spIT_EEEENSA_IT0_EEPKcb"
  },
  {
   "binding" : "weak",
   "name" : "_ZN7android8hardware7details13castInterfaceINS0_10automotive2sv4V1_022ISurroundView3dSessionENS_4hidl4base4V1_05IBaseENS5_25BpHwSurroundView3dSessionEEENS0_6ReturnINS_2spIT_EEEENSD_IT0_EEPKcb"
  },
  {
   "binding" : "weak",
   "name" : "_ZN7android8hardware7details15wrapPassthroughINS0_10automotive2sv4V1_019ISurroundViewStreamEvEENS_2spIT_EES9_"
  },
  {
   "binding" : "weak",
   "name" : "_ZN7android8hardware7details15wrapPassthroughINS0_10automotive2sv4V1_022ISurroundView2dSessionEvEENS_2spIT_EES9_"
  },
  {
   "binding" : "weak",
   "name" : "_ZN7android8hardware7details15wrapPassthroughINS0_10automotive2sv4V1_022ISurroundView3dSessionEvEENS_2spIT_EES9_"
  },
  {
   "binding" : "weak",
   "name" : "_ZN7android8hardware7details18getServiceInternalINS0_10automotive2sv4V1_022BpHwSurroundViewStreamENS5_19ISurroundViewStreamEvvEENS_2spIT0_EERKNSt3__112basic_stringIcNSB_11char_traitsIcEENSB_9allocatorIcEEEEbb"
  },
  {
   "binding" : "weak",
   "name" : "_ZN7android8hardware7details18getServiceInternalINS0_10automotive2sv4V1_023BpHwSurroundViewServiceENS5_20ISurroundViewServiceEvvEENS_2spIT0_EERKNSt3__112basic_stringIcNSB_11char_traitsIcEENSB_9allocatorIcEEEEbb"
  },
  {
   "binding" : "weak",
   "name" : "_ZN7android8hardware7details18getServiceInternalINS0_10automotive2sv4V1_023BpHwSurroundViewSessionENS5_20ISurroundViewSessionEvvEENS_2spIT0_EERKNSt3__112basic_stringIcNSB_11char_traitsIcEENSB_9allocatorIcEEEEbb"
  },
  {
   "binding" : "weak",
   "name" : "_ZN7android8hardware7details18getServiceInternalINS0_10automotive2sv4V1_025BpHwSurroundView2dSessionENS5_22ISurroundView2dSessionEvvEENS_2spIT0_EERKNSt3__112basic_stringIcNSB_11char_traitsIcEENSB_9allocatorIcEEEEbb"
  },
  {
   "binding" : "weak",
   "name" : "_ZN7android8hardware7details18getServiceInternalINS0_10automotive2sv4V1_025BpHwSurroundView3dSessionENS5_22ISurroundView3dSessionEvvEENS_2spIT0_EERKNSt3__112basic_stringIcNSB_11char_traitsIcEENSB_9allocatorIcEEEEbb"
  },
  {
   "binding" : "weak",
   "name" : "_ZNKSt3__18functionIFvN7android8hardware7details16HidlInstrumentor20InstrumentationEventEPKcS7_S7_S7_PNS_6vectorIPvNS_9allocatorIS9_EEEEEEclES5_S7_S7_S7_S7_SD_"
  },
  {
   "binding" : "weak",
   "name" : "_ZNSt3__113__tree_removeIPNS_16__tree_node_baseIPvEEEEvT_S5_"
  },
  {
   "binding" : "weak",
   "name" : "_ZNSt3__127__tree_balance_after_insertIPNS_16__tree_node_baseIPvEEEEvT_S5_"
  },
  {
   "binding" : "weak",
   "name" : "_ZNSt3__16__treeINS_12__value_typeINS_12basic_stringIcNS_11char_traitsIcEENS_9allocatorIcEEEENS_8functionIFN7android2spINS9_4hidl4base4V1_05IBaseEEEPvEEEEENS_19__map_value_compareIS7_SJ_NS_4lessIS7_EELb1EEENS5_ISJ_EEE12__find_equalIS7_EERPNS_16__tree_node_baseISG_EERPNS_15__tree_end_nodeIST_EERKT_"
  },
  {
   "binding" : "weak",
   "name" : "_ZNSt3__16__treeINS_12__value_typeINS_12basic_stringIcNS_11char_traitsIcEENS_9allocatorIcEEEENS_8functionIFN7android2spINS9_4hidl4base4V1_05IBaseEEEPvEEEEENS_19__map_value_compareIS7_SJ_NS_4lessIS7_EELb1EEENS5_ISJ_EEE4findIS7_EENS_15__tree_iteratorISJ_PNS_11__tree_nodeISJ_SG_EEiEERKT_"
  },
  {
   "binding" : "weak",
   "name" : "_ZNSt3__16__treeINS_12__value_typeINS_12basic_stringIcNS_11char_traitsIcEENS_9allocatorIcEEEENS_8functionIFN7android2spINS9_4hidl4base4V1_05IBaseEEEPvEEEEENS_19__map_value_compareIS7_SJ_NS_4lessIS7_EELb1EEENS5_ISJ_EEE5eraseENS_21__tree_const_iteratorISJ_PNS_11__tree_nodeISJ_SG_EEiEE"
  },
  {
   "binding" : "weak",
   "name" : "_ZNSt3__16__treeINS_12__value_typeINS_12basic_stringIcNS_11char_traitsIcEENS_9allocatorIcEEEENS_8functionIFN7android2spINS9_8hardware7IBinderEEEPvEEEEENS_19__map_value_compareIS7_SH_NS_4lessIS7_EELb1EEENS5_ISH_EEE12__find_equalIS7_EERPNS_16__tree_node_baseISE_EERPNS_15__tree_end_nodeISR_EERKT_"
  },
  {
   "binding" : "weak",
   "name" : "_ZNSt3__16__treeINS_12__value_typeINS_12basic_stringIcNS_11char_traitsIcEENS_9allocatorIcEEEENS_8functionIFN7android2spINS9_8hardware7IBinderEEEPvEEEEENS_19__map_value_compareIS7_SH_NS_4lessIS7_EELb1EEENS5_ISH_EEE4findIS7_EENS_15__tree_iteratorISH_PNS_11__tree_nodeISH_SE_EEiEERKT_"
  },
  {
   "binding" : "weak",
   "name" : "_ZNSt3__16__treeINS_12__value_typeINS_12basic_stringIcNS_11char_traitsIcEENS_9allocatorIcEEEENS_8functionIFN7android2spINS9_8hardware7IBinderEEEPvEEEEENS_19__map_value_compareIS7_SH_NS_4lessIS7_EELb1EEENS5_ISH_EEE5eraseENS_21__tree_const_iteratorISH_PNS_11__tree_nodeISH_SE_EEiEE"
  },
  {
   "binding" : "weak",
   "name" : "_ZNSt3__16vectorIN7android2spINS1_8hardware27hidl_binder_death_recipientEEENS_9allocatorIS5_EEE21__push_back_slow_pathIS5_EEvOT_"
  },
  {
   "binding" : "weak",
   "name" : "_ZNSt3__16vectorINS_8functionIFvN7android8hardware7details16HidlInstrumentor20InstrumentationEventEPKcS8_S8_S8_PNS0_IPvNS_9allocatorIS9_EEEEEEENSA_ISF_EEEC2ERKSH_"
  },
  {
   "binding" : "weak",
   "name" : "_ZNSt3__16vectorIPvNS_9allocatorIS1_EEE21__push_back_slow_pathIS1_EEvOT_"
  },
  {
   "name" : "_ZThn20_N7android8hardware10automotive2sv4V1_022BnHwSurroundViewStreamD0Ev"
  },
  {
   "name" : "_ZThn20_N7android8hardware10automotive2sv4V1_022BnHwSurroundViewStreamD1Ev"
  },
  {
   "name" : "_ZThn20_N7android8hardware10automotive2sv4V1_023BnHwSurroundViewServiceD0Ev"
  },
  {
   "name" : "_ZThn20_N7android8hardware10automotive2sv4V1_023BnHwSurroundViewServiceD1Ev"
  },
  {
   "name" : "_ZThn20_N7android8hardware10automotive2sv4V1_023BnHwSurroundViewSessionD0Ev"
  },
  {
   "name" : "_ZThn20_N7android8hardware10automotive2sv4V1_023BnHwSurroundViewSessionD1Ev"
  },
  {
   "name" : "_ZThn20_N7android8hardware10automotive2sv4V1_025BnHwSurroundView2dSessionD0Ev"
  },
  {
   "name" : "_ZThn20_N7android8hardware10automotive2sv4V1_025BnHwSurroundView2dSessionD1Ev"
  },
  {
   "name" : "_ZThn20_N7android8hardware10automotive2sv4V1_025BnHwSurroundView3dSessionD0Ev"
  },
  {
   "name" : "_ZThn20_N7android8hardware10automotive2sv4V1_025BnHwSurroundView3dSessionD1Ev"
  },
  {
   "name" : "_ZThn8_N7android8hardware10automotive2sv4V1_022BpHwSurroundViewStream15onLastStrongRefEPKv"
  },
  {
   "name" : "_ZThn8_N7android8hardware10automotive2sv4V1_023BpHwSurroundViewService15onLastStrongRefEPKv"
  },
  {
   "name" : "_ZThn8_N7android8hardware10automotive2sv4V1_023BpHwSurroundViewSession15onLastStrongRefEPKv"
  },
  {
   "name" : "_ZThn8_N7android8hardware10automotive2sv4V1_025BpHwSurroundView2dSession15onLastStrongRefEPKv"
  },
  {
   "name" : "_ZThn8_N7android8hardware10automotive2sv4V1_025BpHwSurroundView3dSession15onLastStrongRefEPKv"
  },
  {
   "name" : "_ZTv0_n12_N7android8hardware10automotive2sv4V1_022BnHwSurroundViewStreamD0Ev"
  },
  {
   "name" : "_ZTv0_n12_N7android8hardware10automotive2sv4V1_022BnHwSurroundViewStreamD1Ev"
  },
  {
   "name" : "_ZTv0_n12_N7android8hardware10automotive2sv4V1_023BnHwSurroundViewServiceD0Ev"
  },
  {
   "name" : "_ZTv0_n12_N7android8hardware10automotive2sv4V1_023BnHwSurroundViewServiceD1Ev"
  },
  {
   "name" : "_ZTv0_n12_N7android8hardware10automotive2sv4V1_023BnHwSurroundViewSessionD0Ev"
  },
  {
   "name" : "_ZTv0_n12_N7android8hardware10automotive2sv4V1_023BnHwSurroundViewSessionD1Ev"
  },
  {
   "name" : "_ZTv0_n12_N7android8hardware10automotive2sv4V1_025BnHwSurroundView2dSessionD0Ev"
  },
  {
   "name" : "_ZTv0_n12_N7android8hardware10automotive2sv4V1_025BnHwSurroundView2dSessionD1Ev"
  },
  {
   "name" : "_ZTv0_n12_N7android8hardware10automotive2sv4V1_025BnHwSurroundView3dSessionD0Ev"
  },
  {
   "name" : "_ZTv0_n12_N7android8hardware10automotive2sv4V1_025BnHwSurroundView3dSessionD1Ev"
  },
  {
   "name" : "_ZTv0_n20_N7android8hardware10automotive2sv4V1_022BpHwSurroundViewStream15onLastStrongRefEPKv"
  },
  {
   "name" : "_ZTv0_n20_N7android8hardware10automotive2sv4V1_023BpHwSurroundViewService15onLastStrongRefEPKv"
  },
  {
   "name" : "_ZTv0_n20_N7android8hardware10automotive2sv4V1_023BpHwSurroundViewSession15onLastStrongRefEPKv"
  },
  {
   "name" : "_ZTv0_n20_N7android8hardware10automotive2sv4V1_025BpHwSurroundView2dSession15onLastStrongRefEPKv"
  },
  {
   "name" : "_ZTv0_n20_N7android8hardware10automotive2sv4V1_025BpHwSurroundView3dSession15onLastStrongRefEPKv"
  }
 ],
 "elf_objects" :
 [
  {
   "name" : "_ZN7android8hardware10automotive2sv4V1_019ISurroundViewStream10descriptorE"
  },
  {
   "name" : "_ZN7android8hardware10automotive2sv4V1_020ISurroundViewService10descriptorE"
  },
  {
   "name" : "_ZN7android8hardware10automotive2sv4V1_020ISurroundViewSession10descriptorE"
  },
  {
   "name" : "_ZN7android8hardware10automotive2sv4V1_022ISurroundView2dSession10descriptorE"
  },
  {
   "name" : "_ZN7android8hardware10automotive2sv4V1_022ISurroundView3dSession10descriptorE"
  },
  {
   "name" : "_ZTCN7android8hardware10automotive2sv4V1_019ISurroundViewStreamE0_NS_4hidl4base4V1_05IBaseE"
  },
  {
   "binding" : "weak",
   "name" : "_ZTCN7android8hardware10automotive2sv4V1_020BsSurroundViewStreamE0_NS3_19ISurroundViewStreamE"
  },
  {
   "name" : "_ZTCN7android8hardware10automotive2sv4V1_020ISurroundViewServiceE0_NS_4hidl4base4V1_05IBaseE"
  },
  {
   "name" : "_ZTCN7android8hardware10automotive2sv4V1_020ISurroundViewSessionE0_NS_4hidl4base4V1_05IBaseE"
  },
  {
   "binding" : "weak",
   "name" : "_ZTCN7android8hardware10automotive2sv4V1_021BsSurroundViewServiceE0_NS3_20ISurroundViewServiceE"
  },
  {
   "binding" : "weak",
   "name" : "_ZTCN7android8hardware10automotive2sv4V1_021BsSurroundViewSessionE0_NS3_20ISurroundViewSessionE"
  },
  {
   "name" : "_ZTCN7android8hardware10automotive2sv4V1_022BnHwSurroundViewStreamE0_NS0_7IBinderE"
  },
  {
   "name" : "_ZTCN7android8hardware10automotive2sv4V1_022BnHwSurroundViewStreamE0_NS0_9BHwBinderE"
  },
  {
   "name" : "_ZTCN7android8hardware10automotive2sv4V1_022BnHwSurroundViewStreamE0_NS_4hidl4base4V1_08BnHwBaseE"
  },
  {
   "name" : "_ZTCN7android8hardware10automotive2sv4V1_022BpHwSurroundViewStreamE0_NS0_11BpInterfaceINS3_19ISurroundViewStreamEEE"
  },
  {
   "name" : "_ZTCN7android8hardware10automotive2sv4V1_022BpHwSurroundViewStreamE0_NS3_19ISurroundViewStreamE"
  },
  {
   "name" : "_ZTCN7android8hardware10automotive2sv4V1_022BpHwSurroundViewStreamE0_NS_4hidl4base4V1_05IBaseE"
  },
  {
   "name" : "_ZTCN7android8hardware10automotive2sv4V1_022BpHwSurroundViewStreamE4_NS0_10IInterfaceE"
  },
  {
   "name" : "_ZTCN7android8hardware10automotive2sv4V1_022BpHwSurroundViewStreamE8_NS0_11BpHwRefBaseE"
  },
  {
   "name" : "_ZTCN7android8hardware10automotive2sv4V1_022ISurroundView2dSessionE0_NS3_20ISurroundViewSessionE"
  },
  {
   "name" : "_ZTCN7android8hardware10automotive2sv4V1_022ISurroundView2dSessionE0_NS_4hidl4base4V1_05IBaseE"
  },
  {
   "name" : "_ZTCN7android8hardware10automotive2sv4V1_022ISurroundView3dSessionE0_NS3_20ISurroundViewSessionE"
  },
  {
   "name" : "_ZTCN7android8hardware10automotive2sv4V1_022ISurroundView3dSessionE0_NS_4hidl4base4V1_05IBaseE"
  },
  {
   "name" : "_ZTCN7android8hardware10automotive2sv4V1_023BnHwSurroundViewServiceE0_NS0_7IBinderE"
  },
  {
   "name" : "_ZTCN7android8hardware10automotive2sv4V1_023BnHwSurroundViewServiceE0_NS0_9BHwBinderE"
  },
  {
   "name" : "_ZTCN7android8hardware10automotive2sv4V1_023BnHwSurroundViewServiceE0_NS_4hidl4base4V1_08BnHwBaseE"
  },
  {
   "name" : "_ZTCN7android8hardware10automotive2sv4V1_023BnHwSurroundViewSessionE0_NS0_7IBinderE"
  },
  {
   "name" : "_ZTCN7android8hardware10automotive2sv4V1_023BnHwSurroundViewSessionE0_NS0_9BHwBinderE"
  },
  {
   "name" : "_ZTCN7android8hardware10automotive2sv4V1_023BnHwSurroundViewSessionE0_NS_4hidl4base4V1_08BnHwBaseE"
  },
  {
   "name" : "_ZTCN7android8hardware10automotive2sv4V1_023BpHwSurroundViewServiceE0_NS0_11BpInterfaceINS3_20ISurroundViewServiceEEE"
  },
  {
   "name" : "_ZTCN7android8hardware10automotive2sv4V1_023BpHwSurroundViewServiceE0_NS3_20ISurroundViewServiceE"
  },
  {
   "name" : "_ZTCN7android8hardware10automotive2sv4V1_023BpHwSurroundViewServiceE0_NS_4hidl4base4V1_05IBaseE"
  },
  {
   "name" : "_ZTCN7android8hardware10automotive2sv4V1_023BpHwSurroundViewServiceE4_NS0_10IInterfaceE"
  },
  {
   "name" : "_ZTCN7android8hardware10automotive2sv4V1_023BpHwSurroundViewServiceE8_NS0_11BpHwRefBaseE"
  },
  {
   "name" : "_ZTCN7android8hardware10automotive2sv4V1_023BpHwSurroundViewSessionE0_NS0_11BpInterfaceINS3_20ISurroundViewSessionEEE"
  },
  {
   "name" : "_ZTCN7android8hardware10automotive2sv4V1_023BpHwSurroundViewSessionE0_NS3_20ISurroundViewSessionE"
  },
  {
   "name" : "_ZTCN7android8hardware10automotive2sv4V1_023BpHwSurroundViewSessionE0_NS_4hidl4base4V1_05IBaseE"
  },
  {
   "name" : "_ZTCN7android8hardware10automotive2sv4V1_023BpHwSurroundViewSessionE4_NS0_10IInterfaceE"
  },
  {
   "name" : "_ZTCN7android8hardware10automotive2sv4V1_023BpHwSurroundViewSessionE8_NS0_11BpHwRefBaseE"
  },
  {
   "binding" : "weak",
   "name" : "_ZTCN7android8hardware10automotive2sv4V1_023BsSurroundView2dSessionE0_NS3_22ISurroundView2dSessionE"
  },
  {
   "binding" : "weak",
   "name" : "_ZTCN7android8hardware10automotive2sv4V1_023BsSurroundView3dSessionE0_NS3_22ISurroundView3dSessionE"
  },
  {
   "name" : "_ZTCN7android8hardware10automotive2sv4V1_025BnHwSurroundView2dSessionE0_NS0_7IBinderE"
  },
  {
   "name" : "_ZTCN7android8hardware10automotive2sv4V1_025BnHwSurroundView2dSessionE0_NS0_9BHwBinderE"
  },
  {
   "name" : "_ZTCN7android8hardware10automotive2sv4V1_025BnHwSurroundView2dSessionE0_NS_4hidl4base4V1_08BnHwBaseE"
  },
  {
   "name" : "_ZTCN7android8hardware10automotive2sv4V1_025BnHwSurroundView3dSessionE0_NS0_7IBinderE"
  },
  {
   "name" : "_ZTCN7android8hardware10automotive2sv4V1_025BnHwSurroundView3dSessionE0_NS0_9BHwBinderE"
  },
  {
   "name" : "_ZTCN7android8hardware10automotive2sv4V1_025BnHwSurroundView3dSessionE0_NS_4hidl4base4V1_08BnHwBaseE"
  },
  {
   "name" : "_ZTCN7android8hardware10automotive2sv4V1_025BpHwSurroundView2dSessionE0_NS0_11BpInterfaceINS3_22ISurroundView2dSessionEEE"
  },
  {
   "name" : "_ZTCN7android8hardware10automotive2sv4V1_025BpHwSurroundView2dSessionE0_NS3_20ISurroundViewSessionE"
  },
  {
   "name" : "_ZTCN7android8hardware10automotive2sv4V1_025BpHwSurroundView2dSessionE0_NS3_22ISurroundView2dSessionE"
  },
  {
   "name" : "_ZTCN7android8hardware10automotive2sv4V1_025BpHwSurroundView2dSessionE0_NS_4hidl4base4V1_05IBaseE"
  },
  {
   "name" : "_ZTCN7android8hardware10automotive2sv4V1_025BpHwSurroundView2dSessionE4_NS0_10IInterfaceE"
  },
  {
   "name" : "_ZTCN7android8hardware10automotive2sv4V1_025BpHwSurroundView2dSessionE8_NS0_11BpHwRefBaseE"
  },
  {
   "name" : "_ZTCN7android8hardware10automotive2sv4V1_025BpHwSurroundView3dSessionE0_NS0_11BpInterfaceINS3_22ISurroundView3dSessionEEE"
  },
  {
   "name" : "_ZTCN7android8hardware10automotive2sv4V1_025BpHwSurroundView3dSessionE0_NS3_20ISurroundViewSessionE"
  },
  {
   "name" : "_ZTCN7android8hardware10automotive2sv4V1_025BpHwSurroundView3dSessionE0_NS3_22ISurroundView3dSessionE"
  },
  {
   "name" : "_ZTCN7android8hardware10automotive2sv4V1_025BpHwSurroundView3dSessionE0_NS_4hidl4base4V1_05IBaseE"
  },
  {
   "name" : "_ZTCN7android8hardware10automotive2sv4V1_025BpHwSurroundView3dSessionE4_NS0_10IInterfaceE"
  },
  {
   "name" : "_ZTCN7android8hardware10automotive2sv4V1_025BpHwSurroundView3dSessionE8_NS0_11BpHwRefBaseE"
  },
  {
   "name" : "_ZTTN7android8hardware10automotive2sv4V1_019ISurroundViewStreamE"
  },
  {
   "name" : "_ZTTN7android8hardware10automotive2sv4V1_020ISurroundViewServiceE"
  },
  {
   "name" : "_ZTTN7android8hardware10automotive2sv4V1_020ISurroundViewSessionE"
  },
  {
   "name" : "_ZTTN7android8hardware10automotive2sv4V1_022BnHwSurroundViewStreamE"
  },
  {
   "name" : "_ZTTN7android8hardware10automotive2sv4V1_022BpHwSurroundViewStreamE"
  },
  {
   "name" : "_ZTTN7android8hardware10automotive2sv4V1_022ISurroundView2dSessionE"
  },
  {
   "name" : "_ZTTN7android8hardware10automotive2sv4V1_022ISurroundView3dSessionE"
  },
  {
   "name" : "_ZTTN7android8hardware10automotive2sv4V1_023BnHwSurroundViewServiceE"
  },
  {
   "name" : "_ZTTN7android8hardware10automotive2sv4V1_023BnHwSurroundViewSessionE"
  },
  {
   "name" : "_ZTTN7android8hardware10automotive2sv4V1_023BpHwSurroundViewServiceE"
  },
  {
   "name" : "_ZTTN7android8hardware10automotive2sv4V1_023BpHwSurroundViewSessionE"
  },
  {
   "name" : "_ZTTN7android8hardware10automotive2sv4V1_025BnHwSurroundView2dSessionE"
  },
  {
   "name" : "_ZTTN7android8hardware10automotive2sv4V1_025BnHwSurroundView3dSessionE"
  },
  {
   "name" : "_ZTTN7android8hardware10automotive2sv4V1_025BpHwSurroundView2dSessionE"
  },
  {
   "name" : "_ZTTN7android8hardware10automotive2sv4V1_025BpHwSurroundView3dSessionE"
  },
  {
   "name" : "_ZTVN7android8hardware10automotive2sv4V1_019ISurroundViewStreamE"
  },
  {
   "binding" : "weak",
   "name" : "_ZTVN7android8hardware10automotive2sv4V1_020BsSurroundViewStreamE"
  },
  {
   "name" : "_ZTVN7android8hardware10automotive2sv4V1_020ISurroundViewServiceE"
  },
  {
   "name" : "_ZTVN7android8hardware10automotive2sv4V1_020ISurroundViewSessionE"
  },
  {
   "binding" : "weak",
   "name" : "_ZTVN7android8hardware10automotive2sv4V1_021BsSurroundViewServiceE"
  },
  {
   "binding" : "weak",
   "name" : "_ZTVN7android8hardware10automotive2sv4V1_021BsSurroundViewSessionE"
  },
  {
   "name" : "_ZTVN7android8hardware10automotive2sv4V1_022BnHwSurroundViewStreamE"
  },
  {
   "name" : "_ZTVN7android8hardware10automotive2sv4V1_022BpHwSurroundViewStreamE"
  },
  {
   "name" : "_ZTVN7android8hardware10automotive2sv4V1_022ISurroundView2dSessionE"
  },
  {
   "name" : "_ZTVN7android8hardware10automotive2sv4V1_022ISurroundView3dSessionE"
  },
  {
   "name" : "_ZTVN7android8hardware10automotive2sv4V1_023BnHwSurroundViewServiceE"
  },
  {
   "name" : "_ZTVN7android8hardware10automotive2sv4V1_023BnHwSurroundViewSessionE"
  },
  {
   "name" : "_ZTVN7android8hardware10automotive2sv4V1_023BpHwSurroundViewServiceE"
  },
  {
   "name" : "_ZTVN7android8hardware10automotive2sv4V1_023BpHwSurroundViewSessionE"
  },
  {
   "binding" : "weak",
   "name" : "_ZTVN7android8hardware10automotive2sv4V1_023BsSurroundView2dSessionE"
  },
  {
   "binding" : "weak",
   "name" : "_ZTVN7android8hardware10automotive2sv4V1_023BsSurroundView3dSessionE"
  },
  {
   "name" : "_ZTVN7android8hardware10automotive2sv4V1_025BnHwSurroundView2dSessionE"
  },
  {
   "name" : "_ZTVN7android8hardware10automotive2sv4V1_025BnHwSurroundView3dSessionE"
  },
  {
   "name" : "_ZTVN7android8hardware10automotive2sv4V1_025BpHwSurroundView2dSessionE"
  },
  {
   "name" : "_ZTVN7android8hardware10automotive2sv4V1_025BpHwSurroundView3dSessionE"
  }
 ],
 "enum_types" :
 [
  {
   "alignment" : 4,
   "enum_fields" :
   [
    {
     "enum_field_value" : 1,
     "name" : "HAL_HDR_DOLBY_VISION"
    },
    {
     "enum_field_value" : 2,
     "name" : "HAL_HDR_HDR10"
    },
    {
     "enum_field_value" : 3,
     "name" : "HAL_HDR_HLG"
    }
   ],
   "linker_set_key" : "_ZTI13android_hdr_t",
   "name" : "android_hdr_t",
   "referenced_type" : "_ZTI13android_hdr_t",
   "self_type" : "_ZTI13android_hdr_t",
   "size" : 4,
   "source_file" : "/system/core/libsystem/include/system/graphics-base-v1.0.h",
   "underlying_type" : "_ZTIj"
  },
  {
   "alignment" : 4,
   "enum_fields" :
   [
    {
     "enum_field_value" : 4,
     "name" : "HAL_HDR_HDR10_PLUS"
    }
   ],
   "linker_set_key" : "_ZTI18android_hdr_v1_2_t",
   "name" : "android_hdr_v1_2_t",
   "referenced_type" : "_ZTI18android_hdr_v1_2_t",
   "self_type" : "_ZTI18android_hdr_v1_2_t",
   "size" : 4,
   "source_file" : "/system/core/libsystem/include/system/graphics-base-v1.2.h",
   "underlying_type" : "_ZTIj"
  },
  {
   "alignment" : 4,
   "enum_fields" :
   [
    {
     "enum_field_value" : 0,
     "name" : "ANDROID_LOG_UNKNOWN"
    },
    {
     "enum_field_value" : 1,
     "name" : "ANDROID_LOG_DEFAULT"
    },
    {
     "enum_field_value" : 2,
     "name" : "ANDROID_LOG_VERBOSE"
    },
    {
     "enum_field_value" : 3,
     "name" : "ANDROID_LOG_DEBUG"
    },
    {
     "enum_field_value" : 4,
     "name" : "ANDROID_LOG_INFO"
    },
    {
     "enum_field_value" : 5,
     "name" : "ANDROID_LOG_WARN"
    },
    {
     "enum_field_value" : 6,
     "name" : "ANDROID_LOG_ERROR"
    },
    {
     "enum_field_value" : 7,
     "name" : "ANDROID_LOG_FATAL"
    },
    {
     "enum_field_value" : 8,
     "name" : "ANDROID_LOG_SILENT"
    }
   ],
   "linker_set_key" : "_ZTI19android_LogPriority",
   "name" : "android_LogPriority",
   "referenced_type" : "_ZTI19android_LogPriority",
   "self_type" : "_ZTI19android_LogPriority",
   "size" : 4,
   "source_file" : "/system/core/liblog/include/android/log.h",
   "underlying_type" : "_ZTIj"
  },
  {
   "alignment" : 4,
   "enum_fields" :
   [
    {
     "enum_field_value" : 0,
     "name" : "HAL_DATASPACE_UNKNOWN"
    },
    {
     "enum_field_value" : 1,
     "name" : "HAL_DATASPACE_ARBITRARY"
    },
    {
     "enum_field_value" : 16,
     "name" : "HAL_DATASPACE_STANDARD_SHIFT"
    },
    {
     "enum_field_value" : 4128768,
     "name" : "HAL_DATASPACE_STANDARD_MASK"
    },
    {
     "enum_field_value" : 0,
     "name" : "HAL_DATASPACE_STANDARD_UNSPECIFIED"
    },
    {
     "enum_field_value" : 65536,
     "name" : "HAL_DATASPACE_STANDARD_BT709"
    },
    {
     "enum_field_value" : 131072,
     "name" : "HAL_DATASPACE_STANDARD_BT601_625"
    },
    {
     "enum_field_value" : 196608,
     "name" : "HAL_DATASPACE_STANDARD_BT601_625_UNADJUSTED"
    },
    {
     "enum_field_value" : 262144,
     "name" : "HAL_DATASPACE_STANDARD_BT601_525"
    },
    {
     "enum_field_value" : 327680,
     "name" : "HAL_DATASPACE_STANDARD_BT601_525_UNADJUSTED"
    },
    {
     "enum_field_value" : 393216,
     "name" : "HAL_DATASPACE_STANDARD_BT2020"
    },
    {
     "enum_field_value" : 458752,
     "name" : "HAL_DATASPACE_STANDARD_BT2020_CONSTANT_LUMINANCE"
    },
    {
     "enum_field_value" : 524288,
     "name" : "HAL_DATASPACE_STANDARD_BT470M"
    },
    {
     "enum_field_value" : 589824,
     "name" : "HAL_DATASPACE_STANDARD_FILM"
    },
    {
     "enum_field_value" : 655360,
     "name" : "HAL_DATASPACE_STANDARD_DCI_P3"
    },
    {
     "enum_field_value" : 720896,
     "name" : "HAL_DATASPACE_STANDARD_ADOBE_RGB"
    },
    {
     "enum_field_value" : 22,
     "name" : "HAL_DATASPACE_TRANSFER_SHIFT"
    },
    {
     "enum_field_value" : 130023424,
     "name" : "HAL_DATASPACE_TRANSFER_MASK"
    },
    {
     "enum_field_value" : 0,
     "name" : "HAL_DATASPACE_TRANSFER_UNSPECIFIED"
    },
    {
     "enum_field_value" : 4194304,
     "name" : "HAL_DATASPACE_TRANSFER_LINEAR"
    },
    {
     "enum_field_value" : 8388608,
     "name" : "HAL_DATASPACE_TRANSFER_SRGB"
    },
    {
     "enum_field_value" : 12582912,
     "name" : "HAL_DATASPACE_TRANSFER_SMPTE_170M"
    },
    {
     "enum_field_value" : 16777216,
     "name" : "HAL_DATASPACE_TRANSFER_GAMMA2_2"
    },
    {
     "enum_field_value" : 20971520,
     "name" : "HAL_DATASPACE_TRANSFER_GAMMA2_6"
    },
    {
     "enum_field_value" : 25165824,
     "name" : "HAL_DATASPACE_TRANSFER_GAMMA2_8"
    },
    {
     "enum_field_value" : 29360128,
     "name" : "HAL_DATASPACE_TRANSFER_ST2084"
    },
    {
     "enum_field_value" : 33554432,
     "name" : "HAL_DATASPACE_TRANSFER_HLG"
    },
    {
     "enum_field_value" : 27,
     "name" : "HAL_DATASPACE_RANGE_SHIFT"
    },
    {
     "enum_field_value" : 939524096,
     "name" : "HAL_DATASPACE_RANGE_MASK"
    },
    {
     "enum_field_value" : 0,
     "name" : "HAL_DATASPACE_RANGE_UNSPECIFIED"
    },
    {
     "enum_field_value" : 134217728,
     "name" : "HAL_DATASPACE_RANGE_FULL"
    },
    {
     "enum_field_value" : 268435456,
     "name" : "HAL_DATASPACE_RANGE_LIMITED"
    },
    {
     "enum_field_value" : 402653184,
     "name" : "HAL_DATASPACE_RANGE_EXTENDED"
    },
    {
     "enum_field_value" : 512,
     "name" : "HAL_DATASPACE_SRGB_LINEAR"
    },
    {
     "enum_field_value" : 138477568,
     "name" : "HAL_DATASPACE_V0_SRGB_LINEAR"
    },
    {
     "enum_field_value" : 406913024,
     "name" : "HAL_DATASPACE_V0_SCRGB_LINEAR"
    },
    {
     "enum_field_value" : 513,
     "name" : "HAL_DATASPACE_SRGB"
    },
    {
     "enum_field_value" : 142671872,
     "name" : "HAL_DATASPACE_V0_SRGB"
    },
    {
     "enum_field_value" : 411107328,
     "name" : "HAL_DATASPACE_V0_SCRGB"
    },
    {
     "enum_field_value" : 257,
     "name" : "HAL_DATASPACE_JFIF"
    },
    {
     "enum_field_value" : 146931712,
     "name" : "HAL_DATASPACE_V0_JFIF"
    },
    {
     "enum_field_value" : 258,
     "name" : "HAL_DATASPACE_BT601_625"
    },
    {
     "enum_field_value" : 281149440,
     "name" : "HAL_DATASPACE_V0_BT601_625"
    },
    {
     "enum_field_value" : 259,
     "name" : "HAL_DATASPACE_BT601_525"
    },
    {
     "enum_field_value" : 281280512,
     "name" : "HAL_DATASPACE_V0_BT601_525"
    },
    {
     "enum_field_value" : 260,
     "name" : "HAL_DATASPACE_BT709"
    },
    {
     "enum_field_value" : 281083904,
     "name" : "HAL_DATASPACE_V0_BT709"
    },
    {
     "enum_field_value" : 139067392,
     "name" : "HAL_DATASPACE_DCI_P3_LINEAR"
    },
    {
     "enum_field_value" : 155844608,
     "name" : "HAL_DATASPACE_DCI_P3"
    },
    {
     "enum_field_value" : 139067392,
     "name" : "HAL_DATASPACE_DISPLAY_P3_LINEAR"
    },
    {
     "enum_field_value" : 143261696,
     "name" : "HAL_DATASPACE_DISPLAY_P3"
    },
    {
     "enum_field_value" : 151715840,
     "name" : "HAL_DATASPACE_ADOBE_RGB"
    },
    {
     "enum_field_value" : 138805248,
     "name" : "HAL_DATASPACE_BT2020_LINEAR"
    },
    {
     "enum_field_value" : 147193856,
     "name" : "HAL_DATASPACE_BT2020"
    },
    {
     "enum_field_value" : 163971072,
     "name" : "HAL_DATASPACE_BT2020_PQ"
    },
    {
     "enum_field_value" : 4096,
     "name" : "HAL_DATASPACE_DEPTH"
    },
    {
     "enum_field_value" : 4097,
     "name" : "HAL_DATASPACE_SENSOR"
    }
   ],
   "linker_set_key" : "_ZTI19android_dataspace_t",
   "name" : "android_dataspace_t",
   "referenced_type" : "_ZTI19android_dataspace_t",
   "self_type" : "_ZTI19android_dataspace_t",
   "size" : 4,
   "source_file" : "/system/core/libsystem/include/system/graphics-base-v1.0.h",
   "underlying_type" : "_ZTIj"
  },
  {
   "alignment" : 4,
   "enum_fields" :
   [
    {
     "enum_field_value" : 0,
     "name" : "FLEX_FORMAT_INVALID"
    },
    {
     "enum_field_value" : 1,
     "name" : "FLEX_FORMAT_Y"
    },
    {
     "enum_field_value" : 7,
     "name" : "FLEX_FORMAT_YCbCr"
    },
    {
     "enum_field_value" : 1073741831,
     "name" : "FLEX_FORMAT_YCbCrA"
    },
    {
     "enum_field_value" : 7168,
     "name" : "FLEX_FORMAT_RGB"
    },
    {
     "enum_field_value" : 1073748992,
     "name" : "FLEX_FORMAT_RGBA"
    }
   ],
   "linker_set_key" : "_ZTI19android_flex_format",
   "name" : "android_flex_format",
   "referenced_type" : "_ZTI19android_flex_format",
   "self_type" : "_ZTI19android_flex_format",
   "size" : 4,
   "source_file" : "/system/core/libsystem/include/system/graphics.h",
   "underlying_type" : "_ZTIj"
  },
  {
   "alignment" : 4,
   "enum_fields" :
   [
    {
     "enum_field_value" : 1,
     "name" : "HAL_TRANSFORM_FLIP_H"
    },
    {
     "enum_field_value" : 2,
     "name" : "HAL_TRANSFORM_FLIP_V"
    },
    {
     "enum_field_value" : 4,
     "name" : "HAL_TRANSFORM_ROT_90"
    },
    {
     "enum_field_value" : 3,
     "name" : "HAL_TRANSFORM_ROT_180"
    },
    {
     "enum_field_value" : 7,
     "name" : "HAL_TRANSFORM_ROT_270"
    }
   ],
   "linker_set_key" : "_ZTI19android_transform_t",
   "name" : "android_transform_t",
   "referenced_type" : "_ZTI19android_transform_t",
   "self_type" : "_ZTI19android_transform_t",
   "size" : 4,
   "source_file" : "/system/core/libsystem/include/system/graphics-base-v1.0.h",
   "underlying_type" : "_ZTIj"
  },
  {
   "alignment" : 4,
   "enum_fields" :
   [
    {
     "enum_field_value" : 0,
     "name" : "HAL_COLOR_MODE_NATIVE"
    },
    {
     "enum_field_value" : 1,
     "name" : "HAL_COLOR_MODE_STANDARD_BT601_625"
    },
    {
     "enum_field_value" : 2,
     "name" : "HAL_COLOR_MODE_STANDARD_BT601_625_UNADJUSTED"
    },
    {
     "enum_field_value" : 3,
     "name" : "HAL_COLOR_MODE_STANDARD_BT601_525"
    },
    {
     "enum_field_value" : 4,
     "name" : "HAL_COLOR_MODE_STANDARD_BT601_525_UNADJUSTED"
    },
    {
     "enum_field_value" : 5,
     "name" : "HAL_COLOR_MODE_STANDARD_BT709"
    },
    {
     "enum_field_value" : 6,
     "name" : "HAL_COLOR_MODE_DCI_P3"
    },
    {
     "enum_field_value" : 7,
     "name" : "HAL_COLOR_MODE_SRGB"
    },
    {
     "enum_field_value" : 8,
     "name" : "HAL_COLOR_MODE_ADOBE_RGB"
    },
    {
     "enum_field_value" : 9,
     "name" : "HAL_COLOR_MODE_DISPLAY_P3"
    }
   ],
   "linker_set_key" : "_ZTI20android_color_mode_t",
   "name" : "android_color_mode_t",
   "referenced_type" : "_ZTI20android_color_mode_t",
   "self_type" : "_ZTI20android_color_mode_t",
   "size" : 4,
   "source_file" : "/system/core/libsystem/include/system/graphics-base-v1.0.h",
   "underlying_type" : "_ZTIj"
  },
  {
   "alignment" : 4,
   "enum_fields" :
   [
    {
     "enum_field_value" : 0,
     "name" : "SYSTEM_TIME_REALTIME"
    },
    {
     "enum_field_value" : 1,
     "name" : "SYSTEM_TIME_MONOTONIC"
    },
    {
     "enum_field_value" : 2,
     "name" : "SYSTEM_TIME_PROCESS"
    },
    {
     "enum_field_value" : 3,
     "name" : "SYSTEM_TIME_THREAD"
    },
    {
     "enum_field_value" : 4,
     "name" : "SYSTEM_TIME_BOOTTIME"
    }
   ],
   "linker_set_key" : "_ZTI21$SYSTEM_TIME_BOOTTIME",
   "name" : "(anonymous enum at system/core/libutils/include/utils/Timers.h:79:1)",
   "referenced_type" : "_ZTI21$SYSTEM_TIME_BOOTTIME",
   "self_type" : "_ZTI21$SYSTEM_TIME_BOOTTIME",
   "size" : 4,
   "source_file" : "/system/core/libutils/include/utils/Timers.h",
   "underlying_type" : "_ZTIj"
  },
  {
   "alignment" : 4,
   "enum_fields" :
   [
    {
     "enum_field_value" : 1,
     "name" : "FLEX_COMPONENT_Y"
    },
    {
     "enum_field_value" : 2,
     "name" : "FLEX_COMPONENT_Cb"
    },
    {
     "enum_field_value" : 4,
     "name" : "FLEX_COMPONENT_Cr"
    },
    {
     "enum_field_value" : 1024,
     "name" : "FLEX_COMPONENT_R"
    },
    {
     "enum_field_value" : 2048,
     "name" : "FLEX_COMPONENT_G"
    },
    {
     "enum_field_value" : 4096,
     "name" : "FLEX_COMPONENT_B"
    },
    {
     "enum_field_value" : 1073741824,
     "name" : "FLEX_COMPONENT_A"
    }
   ],
   "linker_set_key" : "_ZTI22android_flex_component",
   "name" : "android_flex_component",
   "referenced_type" : "_ZTI22android_flex_component",
   "self_type" : "_ZTI22android_flex_component",
   "size" : 4,
   "source_file" : "/system/core/libsystem/include/system/graphics.h",
   "underlying_type" : "_ZTIj"
  },
  {
   "alignment" : 4,
   "enum_fields" :
   [
    {
     "enum_field_value" : 1,
     "name" : "HAL_PIXEL_FORMAT_RGBA_8888"
    },
    {
     "enum_field_value" : 2,
     "name" : "HAL_PIXEL_FORMAT_RGBX_8888"
    },
    {
     "enum_field_value" : 3,
     "name" : "HAL_PIXEL_FORMAT_RGB_888"
    },
    {
     "enum_field_value" : 4,
     "name" : "HAL_PIXEL_FORMAT_RGB_565"
    },
    {
     "enum_field_value" : 5,
     "name" : "HAL_PIXEL_FORMAT_BGRA_8888"
    },
    {
     "enum_field_value" : 16,
     "name" : "HAL_PIXEL_FORMAT_YCBCR_422_SP"
    },
    {
     "enum_field_value" : 17,
     "name" : "HAL_PIXEL_FORMAT_YCRCB_420_SP"
    },
    {
     "enum_field_value" : 20,
     "name" : "HAL_PIXEL_FORMAT_YCBCR_422_I"
    },
    {
     "enum_field_value" : 22,
     "name" : "HAL_PIXEL_FORMAT_RGBA_FP16"
    },
    {
     "enum_field_value" : 32,
     "name" : "HAL_PIXEL_FORMAT_RAW16"
    },
    {
     "enum_field_value" : 33,
     "name" : "HAL_PIXEL_FORMAT_BLOB"
    },
    {
     "enum_field_value" : 34,
     "name" : "HAL_PIXEL_FORMAT_IMPLEMENTATION_DEFINED"
    },
    {
     "enum_field_value" : 35,
     "name" : "HAL_PIXEL_FORMAT_YCBCR_420_888"
    },
    {
     "enum_field_value" : 36,
     "name" : "HAL_PIXEL_FORMAT_RAW_OPAQUE"
    },
    {
     "enum_field_value" : 37,
     "name" : "HAL_PIXEL_FORMAT_RAW10"
    },
    {
     "enum_field_value" : 38,
     "name" : "HAL_PIXEL_FORMAT_RAW12"
    },
    {
     "enum_field_value" : 43,
     "name" : "HAL_PIXEL_FORMAT_RGBA_1010102"
    },
    {
     "enum_field_value" : 538982489,
     "name" : "HAL_PIXEL_FORMAT_Y8"
    },
    {
     "enum_field_value" : 540422489,
     "name" : "HAL_PIXEL_FORMAT_Y16"
    },
    {
     "enum_field_value" : 842094169,
     "name" : "HAL_PIXEL_FORMAT_YV12"
    }
   ],
   "linker_set_key" : "_ZTI22android_pixel_format_t",
   "name" : "android_pixel_format_t",
   "referenced_type" : "_ZTI22android_pixel_format_t",
   "self_type" : "_ZTI22android_pixel_format_t",
   "size" : 4,
   "source_file" : "/system/core/libsystem/include/system/graphics-base-v1.0.h",
   "underlying_type" : "_ZTIj"
  },
  {
   "alignment" : 4,
   "enum_fields" :
   [
    {
     "enum_field_value" : 19,
     "name" : "ANDROID_PRIORITY_LOWEST"
    },
    {
     "enum_field_value" : 10,
     "name" : "ANDROID_PRIORITY_BACKGROUND"
    },
    {
     "enum_field_value" : 0,
     "name" : "ANDROID_PRIORITY_NORMAL"
    },
    {
     "enum_field_value" : -2,
     "name" : "ANDROID_PRIORITY_FOREGROUND"
    },
    {
     "enum_field_value" : -4,
     "name" : "ANDROID_PRIORITY_DISPLAY"
    },
    {
     "enum_field_value" : -8,
     "name" : "ANDROID_PRIORITY_URGENT_DISPLAY"
    },
    {
     "enum_field_value" : -10,
     "name" : "ANDROID_PRIORITY_VIDEO"
    },
    {
     "enum_field_value" : -16,
     "name" : "ANDROID_PRIORITY_AUDIO"
    },
    {
     "enum_field_value" : -19,
     "name" : "ANDROID_PRIORITY_URGENT_AUDIO"
    },
    {
     "enum_field_value" : -20,
     "name" : "ANDROID_PRIORITY_HIGHEST"
    },
    {
     "enum_field_value" : 0,
     "name" : "ANDROID_PRIORITY_DEFAULT"
    },
    {
     "enum_field_value" : -1,
     "name" : "ANDROID_PRIORITY_MORE_FAVORABLE"
    },
    {
     "enum_field_value" : 1,
     "name" : "ANDROID_PRIORITY_LESS_FAVORABLE"
    }
   ],
   "linker_set_key" : "_ZTI23$ANDROID_PRIORITY_AUDIO",
   "name" : "(anonymous enum at system/core/libsystem/include/system/thread_defs.h:26:1)",
   "referenced_type" : "_ZTI23$ANDROID_PRIORITY_AUDIO",
   "self_type" : "_ZTI23$ANDROID_PRIORITY_AUDIO",
   "size" : 4,
   "source_file" : "/system/core/libsystem/include/system/thread_defs.h",
   "underlying_type" : "_ZTIi"
  },
  {
   "alignment" : 4,
   "enum_fields" :
   [
    {
     "enum_field_value" : 281411584,
     "name" : "HAL_DATASPACE_BT2020_ITU"
    },
    {
     "enum_field_value" : 298188800,
     "name" : "HAL_DATASPACE_BT2020_ITU_PQ"
    },
    {
     "enum_field_value" : 302383104,
     "name" : "HAL_DATASPACE_BT2020_ITU_HLG"
    },
    {
     "enum_field_value" : 168165376,
     "name" : "HAL_DATASPACE_BT2020_HLG"
    }
   ],
   "linker_set_key" : "_ZTI24android_dataspace_v1_1_t",
   "name" : "android_dataspace_v1_1_t",
   "referenced_type" : "_ZTI24android_dataspace_v1_1_t",
   "self_type" : "_ZTI24android_dataspace_v1_1_t",
   "size" : 4,
   "source_file" : "/system/core/libsystem/include/system/graphics-base-v1.1.h",
   "underlying_type" : "_ZTIj"
  },
  {
   "alignment" : 4,
   "enum_fields" :
   [
    {
     "enum_field_value" : 142999552,
     "name" : "HAL_DATASPACE_DISPLAY_BT2020"
    },
    {
     "enum_field_value" : 4098,
     "name" : "HAL_DATASPACE_DYNAMIC_DEPTH"
    },
    {
     "enum_field_value" : 4099,
     "name" : "HAL_DATASPACE_JPEG_APP_SEGMENTS"
    },
    {
     "enum_field_value" : 4100,
     "name" : "HAL_DATASPACE_HEIF"
    }
   ],
   "linker_set_key" : "_ZTI24android_dataspace_v1_2_t",
   "name" : "android_dataspace_v1_2_t",
   "referenced_type" : "_ZTI24android_dataspace_v1_2_t",
   "self_type" : "_ZTI24android_dataspace_v1_2_t",
   "size" : 4,
   "source_file" : "/system/core/libsystem/include/system/graphics-base-v1.2.h",
   "underlying_type" : "_ZTIj"
  },
  {
   "alignment" : 4,
   "enum_fields" :
   [
    {
     "enum_field_value" : 10,
     "name" : "HAL_COLOR_MODE_BT2020"
    },
    {
     "enum_field_value" : 11,
     "name" : "HAL_COLOR_MODE_BT2100_PQ"
    },
    {
     "enum_field_value" : 12,
     "name" : "HAL_COLOR_MODE_BT2100_HLG"
    }
   ],
   "linker_set_key" : "_ZTI25android_color_mode_v1_1_t",
   "name" : "android_color_mode_v1_1_t",
   "referenced_type" : "_ZTI25android_color_mode_v1_1_t",
   "self_type" : "_ZTI25android_color_mode_v1_1_t",
   "size" : 4,
   "source_file" : "/system/core/libsystem/include/system/graphics-base-v1.1.h",
   "underlying_type" : "_ZTIj"
  },
  {
   "alignment" : 4,
   "enum_fields" :
   [
    {
     "enum_field_value" : 0,
     "name" : "HAL_COLOR_TRANSFORM_IDENTITY"
    },
    {
     "enum_field_value" : 1,
     "name" : "HAL_COLOR_TRANSFORM_ARBITRARY_MATRIX"
    },
    {
     "enum_field_value" : 2,
     "name" : "HAL_COLOR_TRANSFORM_VALUE_INVERSE"
    },
    {
     "enum_field_value" : 3,
     "name" : "HAL_COLOR_TRANSFORM_GRAYSCALE"
    },
    {
     "enum_field_value" : 4,
     "name" : "HAL_COLOR_TRANSFORM_CORRECT_PROTANOPIA"
    },
    {
     "enum_field_value" : 5,
     "name" : "HAL_COLOR_TRANSFORM_CORRECT_DEUTERANOPIA"
    },
    {
     "enum_field_value" : 6,
     "name" : "HAL_COLOR_TRANSFORM_CORRECT_TRITANOPIA"
    }
   ],
   "linker_set_key" : "_ZTI25android_color_transform_t",
   "name" : "android_color_transform_t",
   "referenced_type" : "_ZTI25android_color_transform_t",
   "self_type" : "_ZTI25android_color_transform_t",
   "size" : 4,
   "source_file" : "/system/core/libsystem/include/system/graphics-base-v1.0.h",
   "underlying_type" : "_ZTIj"
  },
  {
   "alignment" : 4,
   "enum_fields" :
   [
    {
     "enum_field_value" : 39,
     "name" : "HAL_PIXEL_FORMAT_YCBCR_422_888"
    },
    {
     "enum_field_value" : 40,
     "name" : "HAL_PIXEL_FORMAT_YCBCR_444_888"
    },
    {
     "enum_field_value" : 41,
     "name" : "HAL_PIXEL_FORMAT_FLEX_RGB_888"
    },
    {
     "enum_field_value" : 42,
     "name" : "HAL_PIXEL_FORMAT_FLEX_RGBA_8888"
    }
   ],
   "linker_set_key" : "_ZTI25android_pixel_format_sw_t",
   "name" : "android_pixel_format_sw_t",
   "referenced_type" : "_ZTI25android_pixel_format_sw_t",
   "self_type" : "_ZTI25android_pixel_format_sw_t",
   "size" : 4,
   "source_file" : "/system/core/libsystem/include/system/graphics-sw.h",
   "underlying_type" : "_ZTIj"
  },
  {
   "alignment" : 4,
   "enum_fields" :
   [
    {
     "enum_field_value" : 48,
     "name" : "HAL_PIXEL_FORMAT_DEPTH_16"
    },
    {
     "enum_field_value" : 49,
     "name" : "HAL_PIXEL_FORMAT_DEPTH_24"
    },
    {
     "enum_field_value" : 50,
     "name" : "HAL_PIXEL_FORMAT_DEPTH_24_STENCIL_8"
    },
    {
     "enum_field_value" : 51,
     "name" : "HAL_PIXEL_FORMAT_DEPTH_32F"
    },
    {
     "enum_field_value" : 52,
     "name" : "HAL_PIXEL_FORMAT_DEPTH_32F_STENCIL_8"
    },
    {
     "enum_field_value" : 53,
     "name" : "HAL_PIXEL_FORMAT_STENCIL_8"
    },
    {
     "enum_field_value" : 54,
     "name" : "HAL_PIXEL_FORMAT_YCBCR_P010"
    }
   ],
   "linker_set_key" : "_ZTI27android_pixel_format_v1_1_t",
   "name" : "android_pixel_format_v1_1_t",
   "referenced_type" : "_ZTI27android_pixel_format_v1_1_t",
   "self_type" : "_ZTI27android_pixel_format_v1_1_t",
   "size" : 4,
   "source_file" : "/system/core/libsystem/include/system/graphics-base-v1.1.h",
   "underlying_type" : "_ZTIj"
  },
  {
   "alignment" : 4,
   "enum_fields" :
   [
    {
     "enum_field_value" : 55,
     "name" : "HAL_PIXEL_FORMAT_HSV_888"
    }
   ],
   "linker_set_key" : "_ZTI27android_pixel_format_v1_2_t",
   "name" : "android_pixel_format_v1_2_t",
   "referenced_type" : "_ZTI27android_pixel_format_v1_2_t",
   "self_type" : "_ZTI27android_pixel_format_v1_2_t",
   "size" : 4,
   "source_file" : "/system/core/libsystem/include/system/graphics-base-v1.2.h",
   "underlying_type" : "_ZTIj"
  },
  {
   "alignment" : 4,
   "enum_fields" :
   [
    {
     "enum_field_value" : 0,
     "name" : "HAL_RENDER_INTENT_COLORIMETRIC"
    },
    {
     "enum_field_value" : 1,
     "name" : "HAL_RENDER_INTENT_ENHANCE"
    },
    {
     "enum_field_value" : 2,
     "name" : "HAL_RENDER_INTENT_TONE_MAP_COLORIMETRIC"
    },
    {
     "enum_field_value" : 3,
     "name" : "HAL_RENDER_INTENT_TONE_MAP_ENHANCE"
    }
   ],
   "linker_set_key" : "_ZTI28android_render_intent_v1_1_t",
   "name" : "android_render_intent_v1_1_t",
   "referenced_type" : "_ZTI28android_render_intent_v1_1_t",
   "self_type" : "_ZTI28android_render_intent_v1_1_t",
   "size" : 4,
   "source_file" : "/system/core/libsystem/include/system/graphics-base-v1.1.h",
   "underlying_type" : "_ZTIj"
  },
  {
   "alignment" : 4,
   "enum_fields" :
   [
    {
     "enum_field_value" : 0,
     "name" : "LOG_ID_MIN"
    },
    {
     "enum_field_value" : 0,
     "name" : "LOG_ID_MAIN"
    },
    {
     "enum_field_value" : 1,
     "name" : "LOG_ID_RADIO"
    },
    {
     "enum_field_value" : 2,
     "name" : "LOG_ID_EVENTS"
    },
    {
     "enum_field_value" : 3,
     "name" : "LOG_ID_SYSTEM"
    },
    {
     "enum_field_value" : 4,
     "name" : "LOG_ID_CRASH"
    },
    {
     "enum_field_value" : 5,
     "name" : "LOG_ID_STATS"
    },
    {
     "enum_field_value" : 6,
     "name" : "LOG_ID_SECURITY"
    },
    {
     "enum_field_value" : 7,
     "name" : "LOG_ID_KERNEL"
    },
    {
     "enum_field_value" : 8,
     "name" : "LOG_ID_MAX"
    },
    {
     "enum_field_value" : 2147483647,
     "name" : "LOG_ID_DEFAULT"
    }
   ],
   "linker_set_key" : "_ZTI6log_id",
   "name" : "log_id",
   "referenced_type" : "_ZTI6log_id",
   "self_type" : "_ZTI6log_id",
   "size" : 4,
   "source_file" : "/system/core/liblog/include/android/log.h",
   "underlying_type" : "_ZTIj"
  },
  {
   "alignment" : 4,
   "enum_fields" :
   [
    {
     "enum_field_value" : 1,
     "name" : "android::VectorImpl::HAS_TRIVIAL_CTOR"
    },
    {
     "enum_field_value" : 2,
     "name" : "android::VectorImpl::HAS_TRIVIAL_DTOR"
    },
    {
     "enum_field_value" : 4,
     "name" : "android::VectorImpl::HAS_TRIVIAL_COPY"
    }
   ],
   "linker_set_key" : "_ZTIN7android10VectorImpl17$HAS_TRIVIAL_COPYE",
   "name" : "android::VectorImpl::(anonymous enum at system/core/libutils/include/utils/VectorImpl.h:43:5)",
   "referenced_type" : "_ZTIN7android10VectorImpl17$HAS_TRIVIAL_COPYE",
   "self_type" : "_ZTIN7android10VectorImpl17$HAS_TRIVIAL_COPYE",
   "size" : 4,
   "source_file" : "/system/core/libutils/include/utils/VectorImpl.h",
   "underlying_type" : "_ZTIj"
  },
  {
   "alignment" : 4,
   "enum_fields" :
   [
    {
     "enum_field_value" : 0,
     "name" : "android::OK"
    },
    {
     "enum_field_value" : 0,
     "name" : "android::NO_ERROR"
    },
    {
     "enum_field_value" : -2147483648,
     "name" : "android::UNKNOWN_ERROR"
    },
    {
     "enum_field_value" : -12,
     "name" : "android::NO_MEMORY"
    },
    {
     "enum_field_value" : -38,
     "name" : "android::INVALID_OPERATION"
    },
    {
     "enum_field_value" : -22,
     "name" : "android::BAD_VALUE"
    },
    {
     "enum_field_value" : -2147483647,
     "name" : "android::BAD_TYPE"
    },
    {
     "enum_field_value" : -2,
     "name" : "android::NAME_NOT_FOUND"
    },
    {
     "enum_field_value" : -1,
     "name" : "android::PERMISSION_DENIED"
    },
    {
     "enum_field_value" : -19,
     "name" : "android::NO_INIT"
    },
    {
     "enum_field_value" : -17,
     "name" : "android::ALREADY_EXISTS"
    },
    {
     "enum_field_value" : -32,
     "name" : "android::DEAD_OBJECT"
    },
    {
     "enum_field_value" : -2147483646,
     "name" : "android::FAILED_TRANSACTION"
    },
    {
     "enum_field_value" : -75,
     "name" : "android::BAD_INDEX"
    },
    {
     "enum_field_value" : -61,
     "name" : "android::NOT_ENOUGH_DATA"
    },
    {
     "enum_field_value" : -11,
     "name" : "android::WOULD_BLOCK"
    },
    {
     "enum_field_value" : -110,
     "name" : "android::TIMED_OUT"
    },
    {
     "enum_field_value" : -74,
     "name" : "android::UNKNOWN_TRANSACTION"
    },
    {
     "enum_field_value" : -2147483641,
     "name" : "android::FDS_NOT_ALLOWED"
    },
    {
     "enum_field_value" : -2147483640,
     "name" : "android::UNEXPECTED_NULL"
    }
   ],
   "linker_set_key" : "_ZTIN7android15$ALREADY_EXISTSE",
   "name" : "android::(anonymous enum at system/core/libutils/include/utils/Errors.h:43:1)",
   "referenced_type" : "_ZTIN7android15$ALREADY_EXISTSE",
   "self_type" : "_ZTIN7android15$ALREADY_EXISTSE",
   "size" : 4,
   "source_file" : "/system/core/libutils/include/utils/Errors.h",
   "underlying_type" : "_ZTIi"
  },
  {
   "alignment" : 4,
   "enum_fields" :
   [
    {
     "enum_field_value" : 19,
     "name" : "android::PRIORITY_LOWEST"
    },
    {
     "enum_field_value" : 10,
     "name" : "android::PRIORITY_BACKGROUND"
    },
    {
     "enum_field_value" : 0,
     "name" : "android::PRIORITY_NORMAL"
    },
    {
     "enum_field_value" : -2,
     "name" : "android::PRIORITY_FOREGROUND"
    },
    {
     "enum_field_value" : -4,
     "name" : "android::PRIORITY_DISPLAY"
    },
    {
     "enum_field_value" : -8,
     "name" : "android::PRIORITY_URGENT_DISPLAY"
    },
    {
     "enum_field_value" : -16,
     "name" : "android::PRIORITY_AUDIO"
    },
    {
     "enum_field_value" : -19,
     "name" : "android::PRIORITY_URGENT_AUDIO"
    },
    {
     "enum_field_value" : -20,
     "name" : "android::PRIORITY_HIGHEST"
    },
    {
     "enum_field_value" : 0,
     "name" : "android::PRIORITY_DEFAULT"
    },
    {
     "enum_field_value" : -1,
     "name" : "android::PRIORITY_MORE_FAVORABLE"
    },
    {
     "enum_field_value" : 1,
     "name" : "android::PRIORITY_LESS_FAVORABLE"
    }
   ],
   "linker_set_key" : "_ZTIN7android15$PRIORITY_AUDIOE",
   "name" : "android::(anonymous enum at system/core/libutils/include/utils/ThreadDefs.h:53:1)",
   "referenced_type" : "_ZTIN7android15$PRIORITY_AUDIOE",
   "self_type" : "_ZTIN7android15$PRIORITY_AUDIOE",
   "size" : 4,
   "source_file" : "/system/core/libutils/include/utils/ThreadDefs.h",
   "underlying_type" : "_ZTIi"
  },
  {
   "alignment" : 4,
   "enum_fields" :
   [
    {
     "enum_field_value" : 1,
     "name" : "android::trait_trivial_copy<bool>::value"
    }
   ],
   "linker_set_key" : "_ZTIN7android18trait_trivial_copyIbE6$valueE",
   "name" : "android::trait_trivial_copy<bool>::(anonymous enum at system/core/libutils/include/utils/TypeHelpers.h:98:1)",
   "referenced_type" : "_ZTIN7android18trait_trivial_copyIbE6$valueE",
   "self_type" : "_ZTIN7android18trait_trivial_copyIbE6$valueE",
   "size" : 4,
   "source_file" : "/system/core/libutils/include/utils/TypeHelpers.h",
   "underlying_type" : "_ZTIj"
  },
  {
   "alignment" : 4,
   "enum_fields" :
   [
    {
     "enum_field_value" : 1,
     "name" : "android::trait_trivial_copy<char>::value"
    }
   ],
   "linker_set_key" : "_ZTIN7android18trait_trivial_copyIcE6$valueE",
   "name" : "android::trait_trivial_copy<char>::(anonymous enum at system/core/libutils/include/utils/TypeHelpers.h:99:1)",
   "referenced_type" : "_ZTIN7android18trait_trivial_copyIcE6$valueE",
   "self_type" : "_ZTIN7android18trait_trivial_copyIcE6$valueE",
   "size" : 4,
   "source_file" : "/system/core/libutils/include/utils/TypeHelpers.h",
   "underlying_type" : "_ZTIj"
  },
  {
   "alignment" : 4,
   "enum_fields" :
   [
    {
     "enum_field_value" : 1,
     "name" : "android::trait_trivial_copy<double>::value"
    }
   ],
   "linker_set_key" : "_ZTIN7android18trait_trivial_copyIdE6$valueE",
   "name" : "android::trait_trivial_copy<double>::(anonymous enum at system/core/libutils/include/utils/TypeHelpers.h:110:1)",
   "referenced_type" : "_ZTIN7android18trait_trivial_copyIdE6$valueE",
   "self_type" : "_ZTIN7android18trait_trivial_copyIdE6$valueE",
   "size" : 4,
   "source_file" : "/system/core/libutils/include/utils/TypeHelpers.h",
   "underlying_type" : "_ZTIj"
  },
  {
   "alignment" : 4,
   "enum_fields" :
   [
    {
     "enum_field_value" : 1,
     "name" : "android::trait_trivial_copy<float>::value"
    }
   ],
   "linker_set_key" : "_ZTIN7android18trait_trivial_copyIfE6$valueE",
   "name" : "android::trait_trivial_copy<float>::(anonymous enum at system/core/libutils/include/utils/TypeHelpers.h:109:1)",
   "referenced_type" : "_ZTIN7android18trait_trivial_copyIfE6$valueE",
   "self_type" : "_ZTIN7android18trait_trivial_copyIfE6$valueE",
   "size" : 4,
   "source_file" : "/system/core/libutils/include/utils/TypeHelpers.h",
   "underlying_type" : "_ZTIj"
  },
  {
   "alignment" : 4,
   "enum_fields" :
   [
    {
     "enum_field_value" : 1,
     "name" : "android::trait_trivial_copy<unsigned char>::value"
    }
   ],
   "linker_set_key" : "_ZTIN7android18trait_trivial_copyIhE6$valueE",
   "name" : "android::trait_trivial_copy<unsigned char>::(anonymous enum at system/core/libutils/include/utils/TypeHelpers.h:100:1)",
   "referenced_type" : "_ZTIN7android18trait_trivial_copyIhE6$valueE",
   "self_type" : "_ZTIN7android18trait_trivial_copyIhE6$valueE",
   "size" : 4,
   "source_file" : "/system/core/libutils/include/utils/TypeHelpers.h",
   "underlying_type" : "_ZTIj"
  },
  {
   "alignment" : 4,
   "enum_fields" :
   [
    {
     "enum_field_value" : 1,
     "name" : "android::trait_trivial_copy<int>::value"
    }
   ],
   "linker_set_key" : "_ZTIN7android18trait_trivial_copyIiE6$valueE",
   "name" : "android::trait_trivial_copy<int>::(anonymous enum at system/core/libutils/include/utils/TypeHelpers.h:103:1)",
   "referenced_type" : "_ZTIN7android18trait_trivial_copyIiE6$valueE",
   "self_type" : "_ZTIN7android18trait_trivial_copyIiE6$valueE",
   "size" : 4,
   "source_file" : "/system/core/libutils/include/utils/TypeHelpers.h",
   "underlying_type" : "_ZTIj"
  },
  {
   "alignment" : 4,
   "enum_fields" :
   [
    {
     "enum_field_value" : 1,
     "name" : "android::trait_trivial_copy<unsigned int>::value"
    }
   ],
   "linker_set_key" : "_ZTIN7android18trait_trivial_copyIjE6$valueE",
   "name" : "android::trait_trivial_copy<unsigned int>::(anonymous enum at system/core/libutils/include/utils/TypeHelpers.h:104:1)",
   "referenced_type" : "_ZTIN7android18trait_trivial_copyIjE6$valueE",
   "self_type" : "_ZTIN7android18trait_trivial_copyIjE6$valueE",
   "size" : 4,
   "source_file" : "/system/core/libutils/include/utils/TypeHelpers.h",
   "underlying_type" : "_ZTIj"
  },
  {
   "alignment" : 4,
   "enum_fields" :
   [
    {
     "enum_field_value" : 1,
     "name" : "android::trait_trivial_copy<long>::value"
    }
   ],
   "linker_set_key" : "_ZTIN7android18trait_trivial_copyIlE6$valueE",
   "name" : "android::trait_trivial_copy<long>::(anonymous enum at system/core/libutils/include/utils/TypeHelpers.h:105:1)",
   "referenced_type" : "_ZTIN7android18trait_trivial_copyIlE6$valueE",
   "self_type" : "_ZTIN7android18trait_trivial_copyIlE6$valueE",
   "size" : 4,
   "source_file" : "/system/core/libutils/include/utils/TypeHelpers.h",
   "underlying_type" : "_ZTIj"
  },
  {
   "alignment" : 4,
   "enum_fields" :
   [
    {
     "enum_field_value" : 1,
     "name" : "android::trait_trivial_copy<unsigned long>::value"
    }
   ],
   "linker_set_key" : "_ZTIN7android18trait_trivial_copyImE6$valueE",
   "name" : "android::trait_trivial_copy<unsigned long>::(anonymous enum at system/core/libutils/include/utils/TypeHelpers.h:106:1)",
   "referenced_type" : "_ZTIN7android18trait_trivial_copyImE6$valueE",
   "self_type" : "_ZTIN7android18trait_trivial_copyImE6$valueE",
   "size" : 4,
   "source_file" : "/system/core/libutils/include/utils/TypeHelpers.h",
   "underlying_type" : "_ZTIj"
  },
  {
   "alignment" : 4,
   "enum_fields" :
   [
    {
     "enum_field_value" : 1,
     "name" : "android::trait_trivial_copy<short>::value"
    }
   ],
   "linker_set_key" : "_ZTIN7android18trait_trivial_copyIsE6$valueE",
   "name" : "android::trait_trivial_copy<short>::(anonymous enum at system/core/libutils/include/utils/TypeHelpers.h:101:1)",
   "referenced_type" : "_ZTIN7android18trait_trivial_copyIsE6$valueE",
   "self_type" : "_ZTIN7android18trait_trivial_copyIsE6$valueE",
   "size" : 4,
   "source_file" : "/system/core/libutils/include/utils/TypeHelpers.h",
   "underlying_type" : "_ZTIj"
  },
  {
   "alignment" : 4,
   "enum_fields" :
   [
    {
     "enum_field_value" : 1,
     "name" : "android::trait_trivial_copy<unsigned short>::value"
    }
   ],
   "linker_set_key" : "_ZTIN7android18trait_trivial_copyItE6$valueE",
   "name" : "android::trait_trivial_copy<unsigned short>::(anonymous enum at system/core/libutils/include/utils/TypeHelpers.h:102:1)",
   "referenced_type" : "_ZTIN7android18trait_trivial_copyItE6$valueE",
   "self_type" : "_ZTIN7android18trait_trivial_copyItE6$valueE",
   "size" : 4,
   "source_file" : "/system/core/libutils/include/utils/TypeHelpers.h",
   "underlying_type" : "_ZTIj"
  },
  {
   "alignment" : 4,
   "enum_fields" :
   [
    {
     "enum_field_value" : 1,
     "name" : "android::trait_trivial_copy<void>::value"
    }
   ],
   "linker_set_key" : "_ZTIN7android18trait_trivial_copyIvE6$valueE",
   "name" : "android::trait_trivial_copy<void>::(anonymous enum at system/core/libutils/include/utils/TypeHelpers.h:97:1)",
   "referenced_type" : "_ZTIN7android18trait_trivial_copyIvE6$valueE",
   "self_type" : "_ZTIN7android18trait_trivial_copyIvE6$valueE",
   "size" : 4,
   "source_file" : "/system/core/libutils/include/utils/TypeHelpers.h",
   "underlying_type" : "_ZTIj"
  },
  {
   "alignment" : 4,
   "enum_fields" :
   [
    {
     "enum_field_value" : 1,
     "name" : "android::trait_trivial_copy<long long>::value"
    }
   ],
   "linker_set_key" : "_ZTIN7android18trait_trivial_copyIxE6$valueE",
   "name" : "android::trait_trivial_copy<long long>::(anonymous enum at system/core/libutils/include/utils/TypeHelpers.h:107:1)",
   "referenced_type" : "_ZTIN7android18trait_trivial_copyIxE6$valueE",
   "self_type" : "_ZTIN7android18trait_trivial_copyIxE6$valueE",
   "size" : 4,
   "source_file" : "/system/core/libutils/include/utils/TypeHelpers.h",
   "underlying_type" : "_ZTIj"
  },
  {
   "alignment" : 4,
   "enum_fields" :
   [
    {
     "enum_field_value" : 1,
     "name" : "android::trait_trivial_copy<unsigned long long>::value"
    }
   ],
   "linker_set_key" : "_ZTIN7android18trait_trivial_copyIyE6$valueE",
   "name" : "android::trait_trivial_copy<unsigned long long>::(anonymous enum at system/core/libutils/include/utils/TypeHelpers.h:108:1)",
   "referenced_type" : "_ZTIN7android18trait_trivial_copyIyE6$valueE",
   "self_type" : "_ZTIN7android18trait_trivial_copyIyE6$valueE",
   "size" : 4,
   "source_file" : "/system/core/libutils/include/utils/TypeHelpers.h",
   "underlying_type" : "_ZTIj"
  },
  {
   "alignment" : 4,
   "enum_fields" :
   [
    {
     "enum_field_value" : 1,
     "name" : "android::trait_trivial_ctor<bool>::value"
    }
   ],
   "linker_set_key" : "_ZTIN7android18trait_trivial_ctorIbE6$valueE",
   "name" : "android::trait_trivial_ctor<bool>::(anonymous enum at system/core/libutils/include/utils/TypeHelpers.h:98:1)",
   "referenced_type" : "_ZTIN7android18trait_trivial_ctorIbE6$valueE",
   "self_type" : "_ZTIN7android18trait_trivial_ctorIbE6$valueE",
   "size" : 4,
   "source_file" : "/system/core/libutils/include/utils/TypeHelpers.h",
   "underlying_type" : "_ZTIj"
  },
  {
   "alignment" : 4,
   "enum_fields" :
   [
    {
     "enum_field_value" : 1,
     "name" : "android::trait_trivial_ctor<char>::value"
    }
   ],
   "linker_set_key" : "_ZTIN7android18trait_trivial_ctorIcE6$valueE",
   "name" : "android::trait_trivial_ctor<char>::(anonymous enum at system/core/libutils/include/utils/TypeHelpers.h:99:1)",
   "referenced_type" : "_ZTIN7android18trait_trivial_ctorIcE6$valueE",
   "self_type" : "_ZTIN7android18trait_trivial_ctorIcE6$valueE",
   "size" : 4,
   "source_file" : "/system/core/libutils/include/utils/TypeHelpers.h",
   "underlying_type" : "_ZTIj"
  },
  {
   "alignment" : 4,
   "enum_fields" :
   [
    {
     "enum_field_value" : 1,
     "name" : "android::trait_trivial_ctor<double>::value"
    }
   ],
   "linker_set_key" : "_ZTIN7android18trait_trivial_ctorIdE6$valueE",
   "name" : "android::trait_trivial_ctor<double>::(anonymous enum at system/core/libutils/include/utils/TypeHelpers.h:110:1)",
   "referenced_type" : "_ZTIN7android18trait_trivial_ctorIdE6$valueE",
   "self_type" : "_ZTIN7android18trait_trivial_ctorIdE6$valueE",
   "size" : 4,
   "source_file" : "/system/core/libutils/include/utils/TypeHelpers.h",
   "underlying_type" : "_ZTIj"
  },
  {
   "alignment" : 4,
   "enum_fields" :
   [
    {
     "enum_field_value" : 1,
     "name" : "android::trait_trivial_ctor<float>::value"
    }
   ],
   "linker_set_key" : "_ZTIN7android18trait_trivial_ctorIfE6$valueE",
   "name" : "android::trait_trivial_ctor<float>::(anonymous enum at system/core/libutils/include/utils/TypeHelpers.h:109:1)",
   "referenced_type" : "_ZTIN7android18trait_trivial_ctorIfE6$valueE",
   "self_type" : "_ZTIN7android18trait_trivial_ctorIfE6$valueE",
   "size" : 4,
   "source_file" : "/system/core/libutils/include/utils/TypeHelpers.h",
   "underlying_type" : "_ZTIj"
  },
  {
   "alignment" : 4,
   "enum_fields" :
   [
    {
     "enum_field_value" : 1,
     "name" : "android::trait_trivial_ctor<unsigned char>::value"
    }
   ],
   "linker_set_key" : "_ZTIN7android18trait_trivial_ctorIhE6$valueE",
   "name" : "android::trait_trivial_ctor<unsigned char>::(anonymous enum at system/core/libutils/include/utils/TypeHelpers.h:100:1)",
   "referenced_type" : "_ZTIN7android18trait_trivial_ctorIhE6$valueE",
   "self_type" : "_ZTIN7android18trait_trivial_ctorIhE6$valueE",
   "size" : 4,
   "source_file" : "/system/core/libutils/include/utils/TypeHelpers.h",
   "underlying_type" : "_ZTIj"
  },
  {
   "alignment" : 4,
   "enum_fields" :
   [
    {
     "enum_field_value" : 1,
     "name" : "android::trait_trivial_ctor<int>::value"
    }
   ],
   "linker_set_key" : "_ZTIN7android18trait_trivial_ctorIiE6$valueE",
   "name" : "android::trait_trivial_ctor<int>::(anonymous enum at system/core/libutils/include/utils/TypeHelpers.h:103:1)",
   "referenced_type" : "_ZTIN7android18trait_trivial_ctorIiE6$valueE",
   "self_type" : "_ZTIN7android18trait_trivial_ctorIiE6$valueE",
   "size" : 4,
   "source_file" : "/system/core/libutils/include/utils/TypeHelpers.h",
   "underlying_type" : "_ZTIj"
  },
  {
   "alignment" : 4,
   "enum_fields" :
   [
    {
     "enum_field_value" : 1,
     "name" : "android::trait_trivial_ctor<unsigned int>::value"
    }
   ],
   "linker_set_key" : "_ZTIN7android18trait_trivial_ctorIjE6$valueE",
   "name" : "android::trait_trivial_ctor<unsigned int>::(anonymous enum at system/core/libutils/include/utils/TypeHelpers.h:104:1)",
   "referenced_type" : "_ZTIN7android18trait_trivial_ctorIjE6$valueE",
   "self_type" : "_ZTIN7android18trait_trivial_ctorIjE6$valueE",
   "size" : 4,
   "source_file" : "/system/core/libutils/include/utils/TypeHelpers.h",
   "underlying_type" : "_ZTIj"
  },
  {
   "alignment" : 4,
   "enum_fields" :
   [
    {
     "enum_field_value" : 1,
     "name" : "android::trait_trivial_ctor<long>::value"
    }
   ],
   "linker_set_key" : "_ZTIN7android18trait_trivial_ctorIlE6$valueE",
   "name" : "android::trait_trivial_ctor<long>::(anonymous enum at system/core/libutils/include/utils/TypeHelpers.h:105:1)",
   "referenced_type" : "_ZTIN7android18trait_trivial_ctorIlE6$valueE",
   "self_type" : "_ZTIN7android18trait_trivial_ctorIlE6$valueE",
   "size" : 4,
   "source_file" : "/system/core/libutils/include/utils/TypeHelpers.h",
   "underlying_type" : "_ZTIj"
  },
  {
   "alignment" : 4,
   "enum_fields" :
   [
    {
     "enum_field_value" : 1,
     "name" : "android::trait_trivial_ctor<unsigned long>::value"
    }
   ],
   "linker_set_key" : "_ZTIN7android18trait_trivial_ctorImE6$valueE",
   "name" : "android::trait_trivial_ctor<unsigned long>::(anonymous enum at system/core/libutils/include/utils/TypeHelpers.h:106:1)",
   "referenced_type" : "_ZTIN7android18trait_trivial_ctorImE6$valueE",
   "self_type" : "_ZTIN7android18trait_trivial_ctorImE6$valueE",
   "size" : 4,
   "source_file" : "/system/core/libutils/include/utils/TypeHelpers.h",
   "underlying_type" : "_ZTIj"
  },
  {
   "alignment" : 4,
   "enum_fields" :
   [
    {
     "enum_field_value" : 1,
     "name" : "android::trait_trivial_ctor<short>::value"
    }
   ],
   "linker_set_key" : "_ZTIN7android18trait_trivial_ctorIsE6$valueE",
   "name" : "android::trait_trivial_ctor<short>::(anonymous enum at system/core/libutils/include/utils/TypeHelpers.h:101:1)",
   "referenced_type" : "_ZTIN7android18trait_trivial_ctorIsE6$valueE",
   "self_type" : "_ZTIN7android18trait_trivial_ctorIsE6$valueE",
   "size" : 4,
   "source_file" : "/system/core/libutils/include/utils/TypeHelpers.h",
   "underlying_type" : "_ZTIj"
  },
  {
   "alignment" : 4,
   "enum_fields" :
   [
    {
     "enum_field_value" : 1,
     "name" : "android::trait_trivial_ctor<unsigned short>::value"
    }
   ],
   "linker_set_key" : "_ZTIN7android18trait_trivial_ctorItE6$valueE",
   "name" : "android::trait_trivial_ctor<unsigned short>::(anonymous enum at system/core/libutils/include/utils/TypeHelpers.h:102:1)",
   "referenced_type" : "_ZTIN7android18trait_trivial_ctorItE6$valueE",
   "self_type" : "_ZTIN7android18trait_trivial_ctorItE6$valueE",
   "size" : 4,
   "source_file" : "/system/core/libutils/include/utils/TypeHelpers.h",
   "underlying_type" : "_ZTIj"
  },
  {
   "alignment" : 4,
   "enum_fields" :
   [
    {
     "enum_field_value" : 1,
     "name" : "android::trait_trivial_ctor<void>::value"
    }
   ],
   "linker_set_key" : "_ZTIN7android18trait_trivial_ctorIvE6$valueE",
   "name" : "android::trait_trivial_ctor<void>::(anonymous enum at system/core/libutils/include/utils/TypeHelpers.h:97:1)",
   "referenced_type" : "_ZTIN7android18trait_trivial_ctorIvE6$valueE",
   "self_type" : "_ZTIN7android18trait_trivial_ctorIvE6$valueE",
   "size" : 4,
   "source_file" : "/system/core/libutils/include/utils/TypeHelpers.h",
   "underlying_type" : "_ZTIj"
  },
  {
   "alignment" : 4,
   "enum_fields" :
   [
    {
     "enum_field_value" : 1,
     "name" : "android::trait_trivial_ctor<long long>::value"
    }
   ],
   "linker_set_key" : "_ZTIN7android18trait_trivial_ctorIxE6$valueE",
   "name" : "android::trait_trivial_ctor<long long>::(anonymous enum at system/core/libutils/include/utils/TypeHelpers.h:107:1)",
   "referenced_type" : "_ZTIN7android18trait_trivial_ctorIxE6$valueE",
   "self_type" : "_ZTIN7android18trait_trivial_ctorIxE6$valueE",
   "size" : 4,
   "source_file" : "/system/core/libutils/include/utils/TypeHelpers.h",
   "underlying_type" : "_ZTIj"
  },
  {
   "alignment" : 4,
   "enum_fields" :
   [
    {
     "enum_field_value" : 1,
     "name" : "android::trait_trivial_ctor<unsigned long long>::value"
    }
   ],
   "linker_set_key" : "_ZTIN7android18trait_trivial_ctorIyE6$valueE",
   "name" : "android::trait_trivial_ctor<unsigned long long>::(anonymous enum at system/core/libutils/include/utils/TypeHelpers.h:108:1)",
   "referenced_type" : "_ZTIN7android18trait_trivial_ctorIyE6$valueE",
   "self_type" : "_ZTIN7android18trait_trivial_ctorIyE6$valueE",
   "size" : 4,
   "source_file" : "/system/core/libutils/include/utils/TypeHelpers.h",
   "underlying_type" : "_ZTIj"
  },
  {
   "alignment" : 4,
   "enum_fields" :
   [
    {
     "enum_field_value" : 1,
     "name" : "android::trait_trivial_dtor<bool>::value"
    }
   ],
   "linker_set_key" : "_ZTIN7android18trait_trivial_dtorIbE6$valueE",
   "name" : "android::trait_trivial_dtor<bool>::(anonymous enum at system/core/libutils/include/utils/TypeHelpers.h:98:1)",
   "referenced_type" : "_ZTIN7android18trait_trivial_dtorIbE6$valueE",
   "self_type" : "_ZTIN7android18trait_trivial_dtorIbE6$valueE",
   "size" : 4,
   "source_file" : "/system/core/libutils/include/utils/TypeHelpers.h",
   "underlying_type" : "_ZTIj"
  },
  {
   "alignment" : 4,
   "enum_fields" :
   [
    {
     "enum_field_value" : 1,
     "name" : "android::trait_trivial_dtor<char>::value"
    }
   ],
   "linker_set_key" : "_ZTIN7android18trait_trivial_dtorIcE6$valueE",
   "name" : "android::trait_trivial_dtor<char>::(anonymous enum at system/core/libutils/include/utils/TypeHelpers.h:99:1)",
   "referenced_type" : "_ZTIN7android18trait_trivial_dtorIcE6$valueE",
   "self_type" : "_ZTIN7android18trait_trivial_dtorIcE6$valueE",
   "size" : 4,
   "source_file" : "/system/core/libutils/include/utils/TypeHelpers.h",
   "underlying_type" : "_ZTIj"
  },
  {
   "alignment" : 4,
   "enum_fields" :
   [
    {
     "enum_field_value" : 1,
     "name" : "android::trait_trivial_dtor<double>::value"
    }
   ],
   "linker_set_key" : "_ZTIN7android18trait_trivial_dtorIdE6$valueE",
   "name" : "android::trait_trivial_dtor<double>::(anonymous enum at system/core/libutils/include/utils/TypeHelpers.h:110:1)",
   "referenced_type" : "_ZTIN7android18trait_trivial_dtorIdE6$valueE",
   "self_type" : "_ZTIN7android18trait_trivial_dtorIdE6$valueE",
   "size" : 4,
   "source_file" : "/system/core/libutils/include/utils/TypeHelpers.h",
   "underlying_type" : "_ZTIj"
  },
  {
   "alignment" : 4,
   "enum_fields" :
   [
    {
     "enum_field_value" : 1,
     "name" : "android::trait_trivial_dtor<float>::value"
    }
   ],
   "linker_set_key" : "_ZTIN7android18trait_trivial_dtorIfE6$valueE",
   "name" : "android::trait_trivial_dtor<float>::(anonymous enum at system/core/libutils/include/utils/TypeHelpers.h:109:1)",
   "referenced_type" : "_ZTIN7android18trait_trivial_dtorIfE6$valueE",
   "self_type" : "_ZTIN7android18trait_trivial_dtorIfE6$valueE",
   "size" : 4,
   "source_file" : "/system/core/libutils/include/utils/TypeHelpers.h",
   "underlying_type" : "_ZTIj"
  },
  {
   "alignment" : 4,
   "enum_fields" :
   [
    {
     "enum_field_value" : 1,
     "name" : "android::trait_trivial_dtor<unsigned char>::value"
    }
   ],
   "linker_set_key" : "_ZTIN7android18trait_trivial_dtorIhE6$valueE",
   "name" : "android::trait_trivial_dtor<unsigned char>::(anonymous enum at system/core/libutils/include/utils/TypeHelpers.h:100:1)",
   "referenced_type" : "_ZTIN7android18trait_trivial_dtorIhE6$valueE",
   "self_type" : "_ZTIN7android18trait_trivial_dtorIhE6$valueE",
   "size" : 4,
   "source_file" : "/system/core/libutils/include/utils/TypeHelpers.h",
   "underlying_type" : "_ZTIj"
  },
  {
   "alignment" : 4,
   "enum_fields" :
   [
    {
     "enum_field_value" : 1,
     "name" : "android::trait_trivial_dtor<int>::value"
    }
   ],
   "linker_set_key" : "_ZTIN7android18trait_trivial_dtorIiE6$valueE",
   "name" : "android::trait_trivial_dtor<int>::(anonymous enum at system/core/libutils/include/utils/TypeHelpers.h:103:1)",
   "referenced_type" : "_ZTIN7android18trait_trivial_dtorIiE6$valueE",
   "self_type" : "_ZTIN7android18trait_trivial_dtorIiE6$valueE",
   "size" : 4,
   "source_file" : "/system/core/libutils/include/utils/TypeHelpers.h",
   "underlying_type" : "_ZTIj"
  },
  {
   "alignment" : 4,
   "enum_fields" :
   [
    {
     "enum_field_value" : 1,
     "name" : "android::trait_trivial_dtor<unsigned int>::value"
    }
   ],
   "linker_set_key" : "_ZTIN7android18trait_trivial_dtorIjE6$valueE",
   "name" : "android::trait_trivial_dtor<unsigned int>::(anonymous enum at system/core/libutils/include/utils/TypeHelpers.h:104:1)",
   "referenced_type" : "_ZTIN7android18trait_trivial_dtorIjE6$valueE",
   "self_type" : "_ZTIN7android18trait_trivial_dtorIjE6$valueE",
   "size" : 4,
   "source_file" : "/system/core/libutils/include/utils/TypeHelpers.h",
   "underlying_type" : "_ZTIj"
  },
  {
   "alignment" : 4,
   "enum_fields" :
   [
    {
     "enum_field_value" : 1,
     "name" : "android::trait_trivial_dtor<long>::value"
    }
   ],
   "linker_set_key" : "_ZTIN7android18trait_trivial_dtorIlE6$valueE",
   "name" : "android::trait_trivial_dtor<long>::(anonymous enum at system/core/libutils/include/utils/TypeHelpers.h:105:1)",
   "referenced_type" : "_ZTIN7android18trait_trivial_dtorIlE6$valueE",
   "self_type" : "_ZTIN7android18trait_trivial_dtorIlE6$valueE",
   "size" : 4,
   "source_file" : "/system/core/libutils/include/utils/TypeHelpers.h",
   "underlying_type" : "_ZTIj"
  },
  {
   "alignment" : 4,
   "enum_fields" :
   [
    {
     "enum_field_value" : 1,
     "name" : "android::trait_trivial_dtor<unsigned long>::value"
    }
   ],
   "linker_set_key" : "_ZTIN7android18trait_trivial_dtorImE6$valueE",
   "name" : "android::trait_trivial_dtor<unsigned long>::(anonymous enum at system/core/libutils/include/utils/TypeHelpers.h:106:1)",
   "referenced_type" : "_ZTIN7android18trait_trivial_dtorImE6$valueE",
   "self_type" : "_ZTIN7android18trait_trivial_dtorImE6$valueE",
   "size" : 4,
   "source_file" : "/system/core/libutils/include/utils/TypeHelpers.h",
   "underlying_type" : "_ZTIj"
  },
  {
   "alignment" : 4,
   "enum_fields" :
   [
    {
     "enum_field_value" : 1,
     "name" : "android::trait_trivial_dtor<short>::value"
    }
   ],
   "linker_set_key" : "_ZTIN7android18trait_trivial_dtorIsE6$valueE",
   "name" : "android::trait_trivial_dtor<short>::(anonymous enum at system/core/libutils/include/utils/TypeHelpers.h:101:1)",
   "referenced_type" : "_ZTIN7android18trait_trivial_dtorIsE6$valueE",
   "self_type" : "_ZTIN7android18trait_trivial_dtorIsE6$valueE",
   "size" : 4,
   "source_file" : "/system/core/libutils/include/utils/TypeHelpers.h",
   "underlying_type" : "_ZTIj"
  },
  {
   "alignment" : 4,
   "enum_fields" :
   [
    {
     "enum_field_value" : 1,
     "name" : "android::trait_trivial_dtor<unsigned short>::value"
    }
   ],
   "linker_set_key" : "_ZTIN7android18trait_trivial_dtorItE6$valueE",
   "name" : "android::trait_trivial_dtor<unsigned short>::(anonymous enum at system/core/libutils/include/utils/TypeHelpers.h:102:1)",
   "referenced_type" : "_ZTIN7android18trait_trivial_dtorItE6$valueE",
   "self_type" : "_ZTIN7android18trait_trivial_dtorItE6$valueE",
   "size" : 4,
   "source_file" : "/system/core/libutils/include/utils/TypeHelpers.h",
   "underlying_type" : "_ZTIj"
  },
  {
   "alignment" : 4,
   "enum_fields" :
   [
    {
     "enum_field_value" : 1,
     "name" : "android::trait_trivial_dtor<void>::value"
    }
   ],
   "linker_set_key" : "_ZTIN7android18trait_trivial_dtorIvE6$valueE",
   "name" : "android::trait_trivial_dtor<void>::(anonymous enum at system/core/libutils/include/utils/TypeHelpers.h:97:1)",
   "referenced_type" : "_ZTIN7android18trait_trivial_dtorIvE6$valueE",
   "self_type" : "_ZTIN7android18trait_trivial_dtorIvE6$valueE",
   "size" : 4,
   "source_file" : "/system/core/libutils/include/utils/TypeHelpers.h",
   "underlying_type" : "_ZTIj"
  },
  {
   "alignment" : 4,
   "enum_fields" :
   [
    {
     "enum_field_value" : 1,
     "name" : "android::trait_trivial_dtor<long long>::value"
    }
   ],
   "linker_set_key" : "_ZTIN7android18trait_trivial_dtorIxE6$valueE",
   "name" : "android::trait_trivial_dtor<long long>::(anonymous enum at system/core/libutils/include/utils/TypeHelpers.h:107:1)",
   "referenced_type" : "_ZTIN7android18trait_trivial_dtorIxE6$valueE",
   "self_type" : "_ZTIN7android18trait_trivial_dtorIxE6$valueE",
   "size" : 4,
   "source_file" : "/system/core/libutils/include/utils/TypeHelpers.h",
   "underlying_type" : "_ZTIj"
  },
  {
   "alignment" : 4,
   "enum_fields" :
   [
    {
     "enum_field_value" : 1,
     "name" : "android::trait_trivial_dtor<unsigned long long>::value"
    }
   ],
   "linker_set_key" : "_ZTIN7android18trait_trivial_dtorIyE6$valueE",
   "name" : "android::trait_trivial_dtor<unsigned long long>::(anonymous enum at system/core/libutils/include/utils/TypeHelpers.h:108:1)",
   "referenced_type" : "_ZTIN7android18trait_trivial_dtorIyE6$valueE",
   "self_type" : "_ZTIN7android18trait_trivial_dtorIyE6$valueE",
   "size" : 4,
   "source_file" : "/system/core/libutils/include/utils/TypeHelpers.h",
   "underlying_type" : "_ZTIj"
  },
  {
   "alignment" : 4,
   "enum_fields" :
   [
    {
     "enum_field_value" : 1,
     "name" : "android::trait_trivial_move<android::String8>::value"
    }
   ],
   "linker_set_key" : "_ZTIN7android18trait_trivial_moveINS_7String8EE6$valueE",
   "name" : "android::trait_trivial_move<String8>::(anonymous enum at system/core/libutils/include/utils/String8.h:242:1)",
   "referenced_type" : "_ZTIN7android18trait_trivial_moveINS_7String8EE6$valueE",
   "self_type" : "_ZTIN7android18trait_trivial_moveINS_7String8EE6$valueE",
   "size" : 4,
   "source_file" : "/system/core/libutils/include/utils/String8.h",
   "underlying_type" : "_ZTIj"
  },
  {
   "alignment" : 4,
   "enum_fields" :
   [
    {
     "enum_field_value" : 1,
     "name" : "android::trait_trivial_move<android::String16>::value"
    }
   ],
   "linker_set_key" : "_ZTIN7android18trait_trivial_moveINS_8String16EE6$valueE",
   "name" : "android::trait_trivial_move<String16>::(anonymous enum at system/core/libutils/include/utils/String16.h:197:1)",
   "referenced_type" : "_ZTIN7android18trait_trivial_moveINS_8String16EE6$valueE",
   "self_type" : "_ZTIN7android18trait_trivial_moveINS_8String16EE6$valueE",
   "size" : 4,
   "source_file" : "/system/core/libutils/include/utils/String16.h",
   "underlying_type" : "_ZTIj"
  },
  {
   "alignment" : 4,
   "enum_fields" :
   [
    {
     "enum_field_value" : 1,
     "name" : "android::trait_trivial_move<bool>::value"
    }
   ],
   "linker_set_key" : "_ZTIN7android18trait_trivial_moveIbE6$valueE",
   "name" : "android::trait_trivial_move<bool>::(anonymous enum at system/core/libutils/include/utils/TypeHelpers.h:98:1)",
   "referenced_type" : "_ZTIN7android18trait_trivial_moveIbE6$valueE",
   "self_type" : "_ZTIN7android18trait_trivial_moveIbE6$valueE",
   "size" : 4,
   "source_file" : "/system/core/libutils/include/utils/TypeHelpers.h",
   "underlying_type" : "_ZTIj"
  },
  {
   "alignment" : 4,
   "enum_fields" :
   [
    {
     "enum_field_value" : 1,
     "name" : "android::trait_trivial_move<char>::value"
    }
   ],
   "linker_set_key" : "_ZTIN7android18trait_trivial_moveIcE6$valueE",
   "name" : "android::trait_trivial_move<char>::(anonymous enum at system/core/libutils/include/utils/TypeHelpers.h:99:1)",
   "referenced_type" : "_ZTIN7android18trait_trivial_moveIcE6$valueE",
   "self_type" : "_ZTIN7android18trait_trivial_moveIcE6$valueE",
   "size" : 4,
   "source_file" : "/system/core/libutils/include/utils/TypeHelpers.h",
   "underlying_type" : "_ZTIj"
  },
  {
   "alignment" : 4,
   "enum_fields" :
   [
    {
     "enum_field_value" : 1,
     "name" : "android::trait_trivial_move<double>::value"
    }
   ],
   "linker_set_key" : "_ZTIN7android18trait_trivial_moveIdE6$valueE",
   "name" : "android::trait_trivial_move<double>::(anonymous enum at system/core/libutils/include/utils/TypeHelpers.h:110:1)",
   "referenced_type" : "_ZTIN7android18trait_trivial_moveIdE6$valueE",
   "self_type" : "_ZTIN7android18trait_trivial_moveIdE6$valueE",
   "size" : 4,
   "source_file" : "/system/core/libutils/include/utils/TypeHelpers.h",
   "underlying_type" : "_ZTIj"
  },
  {
   "alignment" : 4,
   "enum_fields" :
   [
    {
     "enum_field_value" : 1,
     "name" : "android::trait_trivial_move<float>::value"
    }
   ],
   "linker_set_key" : "_ZTIN7android18trait_trivial_moveIfE6$valueE",
   "name" : "android::trait_trivial_move<float>::(anonymous enum at system/core/libutils/include/utils/TypeHelpers.h:109:1)",
   "referenced_type" : "_ZTIN7android18trait_trivial_moveIfE6$valueE",
   "self_type" : "_ZTIN7android18trait_trivial_moveIfE6$valueE",
   "size" : 4,
   "source_file" : "/system/core/libutils/include/utils/TypeHelpers.h",
   "underlying_type" : "_ZTIj"
  },
  {
   "alignment" : 4,
   "enum_fields" :
   [
    {
     "enum_field_value" : 1,
     "name" : "android::trait_trivial_move<unsigned char>::value"
    }
   ],
   "linker_set_key" : "_ZTIN7android18trait_trivial_moveIhE6$valueE",
   "name" : "android::trait_trivial_move<unsigned char>::(anonymous enum at system/core/libutils/include/utils/TypeHelpers.h:100:1)",
   "referenced_type" : "_ZTIN7android18trait_trivial_moveIhE6$valueE",
   "self_type" : "_ZTIN7android18trait_trivial_moveIhE6$valueE",
   "size" : 4,
   "source_file" : "/system/core/libutils/include/utils/TypeHelpers.h",
   "underlying_type" : "_ZTIj"
  },
  {
   "alignment" : 4,
   "enum_fields" :
   [
    {
     "enum_field_value" : 1,
     "name" : "android::trait_trivial_move<int>::value"
    }
   ],
   "linker_set_key" : "_ZTIN7android18trait_trivial_moveIiE6$valueE",
   "name" : "android::trait_trivial_move<int>::(anonymous enum at system/core/libutils/include/utils/TypeHelpers.h:103:1)",
   "referenced_type" : "_ZTIN7android18trait_trivial_moveIiE6$valueE",
   "self_type" : "_ZTIN7android18trait_trivial_moveIiE6$valueE",
   "size" : 4,
   "source_file" : "/system/core/libutils/include/utils/TypeHelpers.h",
   "underlying_type" : "_ZTIj"
  },
  {
   "alignment" : 4,
   "enum_fields" :
   [
    {
     "enum_field_value" : 1,
     "name" : "android::trait_trivial_move<unsigned int>::value"
    }
   ],
   "linker_set_key" : "_ZTIN7android18trait_trivial_moveIjE6$valueE",
   "name" : "android::trait_trivial_move<unsigned int>::(anonymous enum at system/core/libutils/include/utils/TypeHelpers.h:104:1)",
   "referenced_type" : "_ZTIN7android18trait_trivial_moveIjE6$valueE",
   "self_type" : "_ZTIN7android18trait_trivial_moveIjE6$valueE",
   "size" : 4,
   "source_file" : "/system/core/libutils/include/utils/TypeHelpers.h",
   "underlying_type" : "_ZTIj"
  },
  {
   "alignment" : 4,
   "enum_fields" :
   [
    {
     "enum_field_value" : 1,
     "name" : "android::trait_trivial_move<long>::value"
    }
   ],
   "linker_set_key" : "_ZTIN7android18trait_trivial_moveIlE6$valueE",
   "name" : "android::trait_trivial_move<long>::(anonymous enum at system/core/libutils/include/utils/TypeHelpers.h:105:1)",
   "referenced_type" : "_ZTIN7android18trait_trivial_moveIlE6$valueE",
   "self_type" : "_ZTIN7android18trait_trivial_moveIlE6$valueE",
   "size" : 4,
   "source_file" : "/system/core/libutils/include/utils/TypeHelpers.h",
   "underlying_type" : "_ZTIj"
  },
  {
   "alignment" : 4,
   "enum_fields" :
   [
    {
     "enum_field_value" : 1,
     "name" : "android::trait_trivial_move<unsigned long>::value"
    }
   ],
   "linker_set_key" : "_ZTIN7android18trait_trivial_moveImE6$valueE",
   "name" : "android::trait_trivial_move<unsigned long>::(anonymous enum at system/core/libutils/include/utils/TypeHelpers.h:106:1)",
   "referenced_type" : "_ZTIN7android18trait_trivial_moveImE6$valueE",
   "self_type" : "_ZTIN7android18trait_trivial_moveImE6$valueE",
   "size" : 4,
   "source_file" : "/system/core/libutils/include/utils/TypeHelpers.h",
   "underlying_type" : "_ZTIj"
  },
  {
   "alignment" : 4,
   "enum_fields" :
   [
    {
     "enum_field_value" : 1,
     "name" : "android::trait_trivial_move<short>::value"
    }
   ],
   "linker_set_key" : "_ZTIN7android18trait_trivial_moveIsE6$valueE",
   "name" : "android::trait_trivial_move<short>::(anonymous enum at system/core/libutils/include/utils/TypeHelpers.h:101:1)",
   "referenced_type" : "_ZTIN7android18trait_trivial_moveIsE6$valueE",
   "self_type" : "_ZTIN7android18trait_trivial_moveIsE6$valueE",
   "size" : 4,
   "source_file" : "/system/core/libutils/include/utils/TypeHelpers.h",
   "underlying_type" : "_ZTIj"
  },
  {
   "alignment" : 4,
   "enum_fields" :
   [
    {
     "enum_field_value" : 1,
     "name" : "android::trait_trivial_move<unsigned short>::value"
    }
   ],
   "linker_set_key" : "_ZTIN7android18trait_trivial_moveItE6$valueE",
   "name" : "android::trait_trivial_move<unsigned short>::(anonymous enum at system/core/libutils/include/utils/TypeHelpers.h:102:1)",
   "referenced_type" : "_ZTIN7android18trait_trivial_moveItE6$valueE",
   "self_type" : "_ZTIN7android18trait_trivial_moveItE6$valueE",
   "size" : 4,
   "source_file" : "/system/core/libutils/include/utils/TypeHelpers.h",
   "underlying_type" : "_ZTIj"
  },
  {
   "alignment" : 4,
   "enum_fields" :
   [
    {
     "enum_field_value" : 1,
     "name" : "android::trait_trivial_move<void>::value"
    }
   ],
   "linker_set_key" : "_ZTIN7android18trait_trivial_moveIvE6$valueE",
   "name" : "android::trait_trivial_move<void>::(anonymous enum at system/core/libutils/include/utils/TypeHelpers.h:97:1)",
   "referenced_type" : "_ZTIN7android18trait_trivial_moveIvE6$valueE",
   "self_type" : "_ZTIN7android18trait_trivial_moveIvE6$valueE",
   "size" : 4,
   "source_file" : "/system/core/libutils/include/utils/TypeHelpers.h",
   "underlying_type" : "_ZTIj"
  },
  {
   "alignment" : 4,
   "enum_fields" :
   [
    {
     "enum_field_value" : 1,
     "name" : "android::trait_trivial_move<long long>::value"
    }
   ],
   "linker_set_key" : "_ZTIN7android18trait_trivial_moveIxE6$valueE",
   "name" : "android::trait_trivial_move<long long>::(anonymous enum at system/core/libutils/include/utils/TypeHelpers.h:107:1)",
   "referenced_type" : "_ZTIN7android18trait_trivial_moveIxE6$valueE",
   "self_type" : "_ZTIN7android18trait_trivial_moveIxE6$valueE",
   "size" : 4,
   "source_file" : "/system/core/libutils/include/utils/TypeHelpers.h",
   "underlying_type" : "_ZTIj"
  },
  {
   "alignment" : 4,
   "enum_fields" :
   [
    {
     "enum_field_value" : 1,
     "name" : "android::trait_trivial_move<unsigned long long>::value"
    }
   ],
   "linker_set_key" : "_ZTIN7android18trait_trivial_moveIyE6$valueE",
   "name" : "android::trait_trivial_move<unsigned long long>::(anonymous enum at system/core/libutils/include/utils/TypeHelpers.h:108:1)",
   "referenced_type" : "_ZTIN7android18trait_trivial_moveIyE6$valueE",
   "self_type" : "_ZTIN7android18trait_trivial_moveIyE6$valueE",
   "size" : 4,
   "source_file" : "/system/core/libutils/include/utils/TypeHelpers.h",
   "underlying_type" : "_ZTIj"
  },
  {
   "alignment" : 4,
   "enum_fields" :
   [
    {
     "enum_field_value" : 0,
     "name" : "android::hidl::base::V1_0::DebugInfo::Architecture::UNKNOWN"
    },
    {
     "enum_field_value" : 1,
     "name" : "android::hidl::base::V1_0::DebugInfo::Architecture::IS_64BIT"
    },
    {
     "enum_field_value" : 2,
     "name" : "android::hidl::base::V1_0::DebugInfo::Architecture::IS_32BIT"
    }
   ],
   "linker_set_key" : "_ZTIN7android4hidl4base4V1_09DebugInfo12ArchitectureE",
   "name" : "android::hidl::base::V1_0::DebugInfo::Architecture",
   "referenced_type" : "_ZTIN7android4hidl4base4V1_09DebugInfo12ArchitectureE",
   "self_type" : "_ZTIN7android4hidl4base4V1_09DebugInfo12ArchitectureE",
   "size" : 4,
   "source_file" : "/out/soong/.intermediates/system/libhidl/transport/base/1.0/android.hidl.base@1.0_genc++_headers/gen/android/hidl/base/1.0/types.h",
   "underlying_type" : "_ZTIi"
  },
  {
   "alignment" : 4,
   "enum_fields" :
   [
    {
     "enum_field_value" : -1,
     "name" : "android::hidl::manager::V1_0::IServiceManager::PidConstant::NO_PID"
    }
   ],
   "linker_set_key" : "_ZTIN7android4hidl7manager4V1_015IServiceManager11PidConstantE",
   "name" : "android::hidl::manager::V1_0::IServiceManager::PidConstant",
   "referenced_type" : "_ZTIN7android4hidl7manager4V1_015IServiceManager11PidConstantE",
   "self_type" : "_ZTIN7android4hidl7manager4V1_015IServiceManager11PidConstantE",
   "size" : 4,
   "source_file" : "/out/soong/.intermediates/system/libhidl/transport/manager/1.0/android.hidl.manager@1.0_genc++_headers/gen/android/hidl/manager/1.0/IServiceManager.h",
   "underlying_type" : "_ZTIi"
  },
  {
   "alignment" : 1,
   "enum_fields" :
   [
    {
     "enum_field_value" : 0,
     "name" : "android::hidl::manager::V1_0::IServiceManager::Transport::EMPTY"
    },
    {
     "enum_field_value" : 1,
     "name" : "android::hidl::manager::V1_0::IServiceManager::Transport::HWBINDER"
    },
    {
     "enum_field_value" : 2,
     "name" : "android::hidl::manager::V1_0::IServiceManager::Transport::PASSTHROUGH"
    }
   ],
   "linker_set_key" : "_ZTIN7android4hidl7manager4V1_015IServiceManager9TransportE",
   "name" : "android::hidl::manager::V1_0::IServiceManager::Transport",
   "referenced_type" : "_ZTIN7android4hidl7manager4V1_015IServiceManager9TransportE",
   "self_type" : "_ZTIN7android4hidl7manager4V1_015IServiceManager9TransportE",
   "size" : 1,
   "source_file" : "/out/soong/.intermediates/system/libhidl/transport/manager/1.0/android.hidl.manager@1.0_genc++_headers/gen/android/hidl/manager/1.0/IServiceManager.h",
   "underlying_type" : "_ZTIh"
  },
  {
   "alignment" : 4,
   "enum_fields" :
   [
    {
     "enum_field_value" : 0,
     "name" : "android::Mutex::PRIVATE"
    },
    {
     "enum_field_value" : 1,
     "name" : "android::Mutex::SHARED"
    }
   ],
   "linker_set_key" : "_ZTIN7android5Mutex8$PRIVATEE",
   "name" : "android::Mutex::(anonymous enum at system/core/libutils/include/utils/Mutex.h:96:5)",
   "referenced_type" : "_ZTIN7android5Mutex8$PRIVATEE",
   "self_type" : "_ZTIN7android5Mutex8$PRIVATEE",
   "size" : 4,
   "source_file" : "/system/core/libutils/include/utils/Mutex.h",
   "underlying_type" : "_ZTIj"
  },
  {
   "alignment" : 4,
   "enum_fields" :
   [
    {
     "enum_field_value" : 0,
     "name" : "android::RWLock::PRIVATE"
    },
    {
     "enum_field_value" : 1,
     "name" : "android::RWLock::SHARED"
    }
   ],
   "linker_set_key" : "_ZTIN7android6RWLock8$PRIVATEE",
   "name" : "android::RWLock::(anonymous enum at system/core/libutils/include/utils/RWLock.h:44:5)",
   "referenced_type" : "_ZTIN7android6RWLock8$PRIVATEE",
   "self_type" : "_ZTIN7android6RWLock8$PRIVATEE",
   "size" : 4,
   "source_file" : "/system/core/libutils/include/utils/RWLock.h",
   "underlying_type" : "_ZTIj"
  },
  {
   "access" : "protected",
   "alignment" : 4,
   "enum_fields" :
   [
    {
     "enum_field_value" : 1,
     "name" : "android::RefBase::FIRST_INC_STRONG"
    }
   ],
   "linker_set_key" : "_ZTIN7android7RefBase17$FIRST_INC_STRONGE",
   "name" : "android::RefBase::(anonymous enum at system/core/libutils/include/utils/RefBase.h:313:5)",
   "referenced_type" : "_ZTIN7android7RefBase17$FIRST_INC_STRONGE",
   "self_type" : "_ZTIN7android7RefBase17$FIRST_INC_STRONGE",
   "size" : 4,
   "source_file" : "/system/core/libutils/include/utils/RefBase.h",
   "underlying_type" : "_ZTIj"
  },
  {
   "access" : "protected",
   "alignment" : 4,
   "enum_fields" :
   [
    {
     "enum_field_value" : 0,
     "name" : "android::RefBase::OBJECT_LIFETIME_STRONG"
    },
    {
     "enum_field_value" : 1,
     "name" : "android::RefBase::OBJECT_LIFETIME_WEAK"
    },
    {
     "enum_field_value" : 1,
     "name" : "android::RefBase::OBJECT_LIFETIME_MASK"
    }
   ],
   "linker_set_key" : "_ZTIN7android7RefBase21$OBJECT_LIFETIME_MASKE",
   "name" : "android::RefBase::(anonymous enum at system/core/libutils/include/utils/RefBase.h:304:5)",
   "referenced_type" : "_ZTIN7android7RefBase21$OBJECT_LIFETIME_MASKE",
   "self_type" : "_ZTIN7android7RefBase21$OBJECT_LIFETIME_MASKE",
   "size" : 4,
   "source_file" : "/system/core/libutils/include/utils/RefBase.h",
   "underlying_type" : "_ZTIj"
  },
  {
   "alignment" : 4,
   "enum_fields" :
   [
    {
     "enum_field_value" : 0,
     "name" : "android::String8::kEmptyString"
    }
   ],
   "linker_set_key" : "_ZTIN7android7String813StaticLinkageE",
   "name" : "android::String8::StaticLinkage",
   "referenced_type" : "_ZTIN7android7String813StaticLinkageE",
   "self_type" : "_ZTIN7android7String813StaticLinkageE",
   "size" : 4,
   "source_file" : "/system/core/libutils/include/utils/String8.h",
   "underlying_type" : "_ZTIj"
  },
  {
   "alignment" : 4,
   "enum_fields" :
   [
    {
     "enum_field_value" : 0,
     "name" : "android::String16::kEmptyString"
    }
   ],
   "linker_set_key" : "_ZTIN7android8String1613StaticLinkageE",
   "name" : "android::String16::StaticLinkage",
   "referenced_type" : "_ZTIN7android8String1613StaticLinkageE",
   "self_type" : "_ZTIN7android8String1613StaticLinkageE",
   "size" : 4,
   "source_file" : "/system/core/libutils/include/utils/String16.h",
   "underlying_type" : "_ZTIj"
  },
  {
   "alignment" : 4,
   "enum_fields" :
   [
    {
     "enum_field_value" : 0,
     "name" : "android::hardware::automotive::sv::V1_0::OverlayPrimitive::TRIANGLES"
    },
    {
     "enum_field_value" : 1,
     "name" : "android::hardware::automotive::sv::V1_0::OverlayPrimitive::TRIANGLES_STRIP"
    }
   ],
   "linker_set_key" : "_ZTIN7android8hardware10automotive2sv4V1_016OverlayPrimitiveE",
   "name" : "android::hardware::automotive::sv::V1_0::OverlayPrimitive",
   "referenced_type" : "_ZTIN7android8hardware10automotive2sv4V1_016OverlayPrimitiveE",
   "self_type" : "_ZTIN7android8hardware10automotive2sv4V1_016OverlayPrimitiveE",
   "size" : 4,
   "source_file" : "/out/soong/.intermediates/hardware/interfaces/automotive/sv/1.0/android.hardware.automotive.sv@1.0_genc++_headers/gen/android/hardware/automotive/sv/1.0/types.h",
   "underlying_type" : "_ZTIj"
  },
  {
   "alignment" : 4,
   "enum_fields" :
   [
    {
     "enum_field_value" : 1,
     "name" : "android::hardware::automotive::sv::V1_0::SvEvent::STREAM_STARTED"
    },
    {
     "enum_field_value" : 2,
     "name" : "android::hardware::automotive::sv::V1_0::SvEvent::STREAM_STOPPED"
    },
    {
     "enum_field_value" : 3,
     "name" : "android::hardware::automotive::sv::V1_0::SvEvent::CONFIG_UPDATED"
    },
    {
     "enum_field_value" : 4,
     "name" : "android::hardware::automotive::sv::V1_0::SvEvent::FRAME_DROPPED"
    },
    {
     "enum_field_value" : 5,
     "name" : "android::hardware::automotive::sv::V1_0::SvEvent::TIMEOUT"
    }
   ],
   "linker_set_key" : "_ZTIN7android8hardware10automotive2sv4V1_07SvEventE",
   "name" : "android::hardware::automotive::sv::V1_0::SvEvent",
   "referenced_type" : "_ZTIN7android8hardware10automotive2sv4V1_07SvEventE",
   "self_type" : "_ZTIN7android8hardware10automotive2sv4V1_07SvEventE",
   "size" : 4,
   "source_file" : "/out/soong/.intermediates/hardware/interfaces/automotive/sv/1.0/android.hardware.automotive.sv@1.0_genc++_headers/gen/android/hardware/automotive/sv/1.0/types.h",
   "underlying_type" : "_ZTIj"
  },
  {
   "alignment" : 4,
   "enum_fields" :
   [
    {
     "enum_field_value" : 0,
     "name" : "android::hardware::automotive::sv::V1_0::SvResult::OK"
    },
    {
     "enum_field_value" : 1,
     "name" : "android::hardware::automotive::sv::V1_0::SvResult::INVALID_ARG"
    },
    {
     "enum_field_value" : 2,
     "name" : "android::hardware::automotive::sv::V1_0::SvResult::NOT_SUPPORTED"
    },
    {
     "enum_field_value" : 3,
     "name" : "android::hardware::automotive::sv::V1_0::SvResult::VIEW_NOT_SET"
    },
    {
     "enum_field_value" : 4,
     "name" : "android::hardware::automotive::sv::V1_0::SvResult::NO_RESOURCE"
    },
    {
     "enum_field_value" : 5,
     "name" : "android::hardware::automotive::sv::V1_0::SvResult::INTERNAL_ERROR"
    }
   ],
   "linker_set_key" : "_ZTIN7android8hardware10automotive2sv4V1_08SvResultE",
   "name" : "android::hardware::automotive::sv::V1_0::SvResult",
   "referenced_type" : "_ZTIN7android8hardware10automotive2sv4V1_08SvResultE",
   "self_type" : "_ZTIN7android8hardware10automotive2sv4V1_08SvResultE",
   "size" : 4,
   "source_file" : "/out/soong/.intermediates/hardware/interfaces/automotive/sv/1.0/android.hardware.automotive.sv@1.0_genc++_headers/gen/android/hardware/automotive/sv/1.0/types.h",
   "underlying_type" : "_ZTIj"
  },
  {
   "alignment" : 4,
   "enum_fields" :
   [
    {
     "enum_field_value" : 0,
     "name" : "android::hardware::automotive::sv::V1_0::SvQuality::HIGH"
    },
    {
     "enum_field_value" : 1,
     "name" : "android::hardware::automotive::sv::V1_0::SvQuality::LOW"
    }
   ],
   "linker_set_key" : "_ZTIN7android8hardware10automotive2sv4V1_09SvQualityE",
   "name" : "android::hardware::automotive::sv::V1_0::SvQuality",
   "referenced_type" : "_ZTIN7android8hardware10automotive2sv4V1_09SvQualityE",
   "self_type" : "_ZTIN7android8hardware10automotive2sv4V1_09SvQualityE",
   "size" : 4,
   "source_file" : "/out/soong/.intermediates/hardware/interfaces/automotive/sv/1.0/android.hardware.automotive.sv@1.0_genc++_headers/gen/android/hardware/automotive/sv/1.0/types.h",
   "underlying_type" : "_ZTIj"
  },
  {
   "alignment" : 4,
   "enum_fields" :
   [
    {
     "enum_field_value" : 0,
     "name" : "android::hardware::MQDescriptor<char, android::hardware::kSynchronizedReadWrite>::READPTRPOS"
    },
    {
     "enum_field_value" : 1,
     "name" : "android::hardware::MQDescriptor<char, android::hardware::kSynchronizedReadWrite>::WRITEPTRPOS"
    },
    {
     "enum_field_value" : 2,
     "name" : "android::hardware::MQDescriptor<char, android::hardware::kSynchronizedReadWrite>::DATAPTRPOS"
    },
    {
     "enum_field_value" : 3,
     "name" : "android::hardware::MQDescriptor<char, android::hardware::kSynchronizedReadWrite>::EVFLAGWORDPOS"
    }
   ],
   "linker_set_key" : "_ZTIN7android8hardware12MQDescriptorIcLNS0_8MQFlavorE1EE11GrantorTypeE",
   "name" : "android::hardware::MQDescriptor<char, android::hardware::kSynchronizedReadWrite>::GrantorType",
   "referenced_type" : "_ZTIN7android8hardware12MQDescriptorIcLNS0_8MQFlavorE1EE11GrantorTypeE",
   "self_type" : "_ZTIN7android8hardware12MQDescriptorIcLNS0_8MQFlavorE1EE11GrantorTypeE",
   "size" : 4,
   "source_file" : "/system/libhidl/base/include/hidl/MQDescriptor.h",
   "underlying_type" : "_ZTIi"
  },
  {
   "alignment" : 4,
   "enum_fields" :
   [
    {
     "enum_field_value" : 0,
     "name" : "android::hardware::ProcessState::CallRestriction::NONE"
    },
    {
     "enum_field_value" : 1,
     "name" : "android::hardware::ProcessState::CallRestriction::ERROR_IF_NOT_ONEWAY"
    },
    {
     "enum_field_value" : 2,
     "name" : "android::hardware::ProcessState::CallRestriction::FATAL_IF_NOT_ONEWAY"
    }
   ],
   "linker_set_key" : "_ZTIN7android8hardware12ProcessState15CallRestrictionE",
   "name" : "android::hardware::ProcessState::CallRestriction",
   "referenced_type" : "_ZTIN7android8hardware12ProcessState15CallRestrictionE",
   "self_type" : "_ZTIN7android8hardware12ProcessState15CallRestrictionE",
   "size" : 4,
   "source_file" : "/system/libhwbinder/include/hwbinder/ProcessState.h",
   "underlying_type" : "_ZTIi"
  },
  {
   "alignment" : 4,
   "enum_fields" :
   [
    {
     "enum_field_value" : 0,
     "name" : "android::hardware::HidlReturnRestriction::NONE"
    },
    {
     "enum_field_value" : 1,
     "name" : "android::hardware::HidlReturnRestriction::ERROR_IF_UNCHECKED"
    },
    {
     "enum_field_value" : 2,
     "name" : "android::hardware::HidlReturnRestriction::FATAL_IF_UNCHECKED"
    }
   ],
   "linker_set_key" : "_ZTIN7android8hardware21HidlReturnRestrictionE",
   "name" : "android::hardware::HidlReturnRestriction",
   "referenced_type" : "_ZTIN7android8hardware21HidlReturnRestrictionE",
   "self_type" : "_ZTIN7android8hardware21HidlReturnRestrictionE",
   "size" : 4,
   "source_file" : "/system/libhidl/base/include/hidl/Status.h",
   "underlying_type" : "_ZTIi"
  },
  {
   "alignment" : 4,
   "enum_fields" :
   [
    {
     "enum_field_value" : 0,
     "name" : "android::hardware::Status::EX_NONE"
    },
    {
     "enum_field_value" : -1,
     "name" : "android::hardware::Status::EX_SECURITY"
    },
    {
     "enum_field_value" : -2,
     "name" : "android::hardware::Status::EX_BAD_PARCELABLE"
    },
    {
     "enum_field_value" : -3,
     "name" : "android::hardware::Status::EX_ILLEGAL_ARGUMENT"
    },
    {
     "enum_field_value" : -4,
     "name" : "android::hardware::Status::EX_NULL_POINTER"
    },
    {
     "enum_field_value" : -5,
     "name" : "android::hardware::Status::EX_ILLEGAL_STATE"
    },
    {
     "enum_field_value" : -6,
     "name" : "android::hardware::Status::EX_NETWORK_MAIN_THREAD"
    },
    {
     "enum_field_value" : -7,
     "name" : "android::hardware::Status::EX_UNSUPPORTED_OPERATION"
    },
    {
     "enum_field_value" : -128,
     "name" : "android::hardware::Status::EX_HAS_REPLY_HEADER"
    },
    {
     "enum_field_value" : -129,
     "name" : "android::hardware::Status::EX_TRANSACTION_FAILED"
    }
   ],
   "linker_set_key" : "_ZTIN7android8hardware6Status9ExceptionE",
   "name" : "android::hardware::Status::Exception",
   "referenced_type" : "_ZTIN7android8hardware6Status9ExceptionE",
   "self_type" : "_ZTIN7android8hardware6Status9ExceptionE",
   "size" : 4,
   "source_file" : "/system/libhidl/base/include/hidl/Status.h",
   "underlying_type" : "_ZTIi"
  },
  {
   "alignment" : 4,
   "enum_fields" :
   [
    {
     "enum_field_value" : 1,
     "name" : "android::hardware::IBinder::FLAG_ONEWAY"
    }
   ],
   "linker_set_key" : "_ZTIN7android8hardware7IBinder12$FLAG_ONEWAYE",
   "name" : "android::hardware::IBinder::(anonymous enum at system/libhwbinder/include/hwbinder/IBinder.h:47:5)",
   "referenced_type" : "_ZTIN7android8hardware7IBinder12$FLAG_ONEWAYE",
   "self_type" : "_ZTIN7android8hardware7IBinder12$FLAG_ONEWAYE",
   "size" : 4,
   "source_file" : "/system/libhwbinder/include/hwbinder/IBinder.h",
   "underlying_type" : "_ZTIj"
  },
  {
   "alignment" : 4,
   "enum_fields" :
   [
    {
     "enum_field_value" : 0,
     "name" : "android::hardware::details::HidlInstrumentor::SERVER_API_ENTRY"
    },
    {
     "enum_field_value" : 1,
     "name" : "android::hardware::details::HidlInstrumentor::SERVER_API_EXIT"
    },
    {
     "enum_field_value" : 2,
     "name" : "android::hardware::details::HidlInstrumentor::CLIENT_API_ENTRY"
    },
    {
     "enum_field_value" : 3,
     "name" : "android::hardware::details::HidlInstrumentor::CLIENT_API_EXIT"
    },
    {
     "enum_field_value" : 4,
     "name" : "android::hardware::details::HidlInstrumentor::SYNC_CALLBACK_ENTRY"
    },
    {
     "enum_field_value" : 5,
     "name" : "android::hardware::details::HidlInstrumentor::SYNC_CALLBACK_EXIT"
    },
    {
     "enum_field_value" : 6,
     "name" : "android::hardware::details::HidlInstrumentor::ASYNC_CALLBACK_ENTRY"
    },
    {
     "enum_field_value" : 7,
     "name" : "android::hardware::details::HidlInstrumentor::ASYNC_CALLBACK_EXIT"
    },
    {
     "enum_field_value" : 8,
     "name" : "android::hardware::details::HidlInstrumentor::PASSTHROUGH_ENTRY"
    },
    {
     "enum_field_value" : 9,
     "name" : "android::hardware::details::HidlInstrumentor::PASSTHROUGH_EXIT"
    }
   ],
   "linker_set_key" : "_ZTIN7android8hardware7details16HidlInstrumentor20InstrumentationEventE",
   "name" : "android::hardware::details::HidlInstrumentor::InstrumentationEvent",
   "referenced_type" : "_ZTIN7android8hardware7details16HidlInstrumentor20InstrumentationEventE",
   "self_type" : "_ZTIN7android8hardware7details16HidlInstrumentor20InstrumentationEventE",
   "size" : 4,
   "source_file" : "/system/libhidl/base/include/hidl/HidlInternal.h",
   "underlying_type" : "_ZTIj"
  },
  {
   "alignment" : 4,
   "enum_fields" :
   [
    {
     "enum_field_value" : 1,
     "name" : "android::hardware::kSynchronizedReadWrite"
    },
    {
     "enum_field_value" : 2,
     "name" : "android::hardware::kUnsynchronizedWrite"
    }
   ],
   "linker_set_key" : "_ZTIN7android8hardware8MQFlavorE",
   "name" : "android::hardware::MQFlavor",
   "referenced_type" : "_ZTIN7android8hardware8MQFlavorE",
   "self_type" : "_ZTIN7android8hardware8MQFlavorE",
   "size" : 4,
   "source_file" : "/system/libhidl/base/include/hidl/MQDescriptor.h",
   "underlying_type" : "_ZTIj"
  },
  {
   "alignment" : 8,
   "enum_fields" :
   [
    {
     "enum_field_value" : 15,
     "name" : "android::hardware::graphics::common::V1_0::BufferUsage::CPU_READ_MASK"
    },
    {
     "enum_field_value" : 0,
     "name" : "android::hardware::graphics::common::V1_0::BufferUsage::CPU_READ_NEVER"
    },
    {
     "enum_field_value" : 2,
     "name" : "android::hardware::graphics::common::V1_0::BufferUsage::CPU_READ_RARELY"
    },
    {
     "enum_field_value" : 3,
     "name" : "android::hardware::graphics::common::V1_0::BufferUsage::CPU_READ_OFTEN"
    },
    {
     "enum_field_value" : 240,
     "name" : "android::hardware::graphics::common::V1_0::BufferUsage::CPU_WRITE_MASK"
    },
    {
     "enum_field_value" : 0,
     "name" : "android::hardware::graphics::common::V1_0::BufferUsage::CPU_WRITE_NEVER"
    },
    {
     "enum_field_value" : 32,
     "name" : "android::hardware::graphics::common::V1_0::BufferUsage::CPU_WRITE_RARELY"
    },
    {
     "enum_field_value" : 48,
     "name" : "android::hardware::graphics::common::V1_0::BufferUsage::CPU_WRITE_OFTEN"
    },
    {
     "enum_field_value" : 256,
     "name" : "android::hardware::graphics::common::V1_0::BufferUsage::GPU_TEXTURE"
    },
    {
     "enum_field_value" : 512,
     "name" : "android::hardware::graphics::common::V1_0::BufferUsage::GPU_RENDER_TARGET"
    },
    {
     "enum_field_value" : 2048,
     "name" : "android::hardware::graphics::common::V1_0::BufferUsage::COMPOSER_OVERLAY"
    },
    {
     "enum_field_value" : 4096,
     "name" : "android::hardware::graphics::common::V1_0::BufferUsage::COMPOSER_CLIENT_TARGET"
    },
    {
     "enum_field_value" : 16384,
     "name" : "android::hardware::graphics::common::V1_0::BufferUsage::PROTECTED"
    },
    {
     "enum_field_value" : 32768,
     "name" : "android::hardware::graphics::common::V1_0::BufferUsage::COMPOSER_CURSOR"
    },
    {
     "enum_field_value" : 65536,
     "name" : "android::hardware::graphics::common::V1_0::BufferUsage::VIDEO_ENCODER"
    },
    {
     "enum_field_value" : 131072,
     "name" : "android::hardware::graphics::common::V1_0::BufferUsage::CAMERA_OUTPUT"
    },
    {
     "enum_field_value" : 262144,
     "name" : "android::hardware::graphics::common::V1_0::BufferUsage::CAMERA_INPUT"
    },
    {
     "enum_field_value" : 1048576,
     "name" : "android::hardware::graphics::common::V1_0::BufferUsage::RENDERSCRIPT"
    },
    {
     "enum_field_value" : 4194304,
     "name" : "android::hardware::graphics::common::V1_0::BufferUsage::VIDEO_DECODER"
    },
    {
     "enum_field_value" : 8388608,
     "name" : "android::hardware::graphics::common::V1_0::BufferUsage::SENSOR_DIRECT_DATA"
    },
    {
     "enum_field_value" : 16777216,
     "name" : "android::hardware::graphics::common::V1_0::BufferUsage::GPU_DATA_BUFFER"
    },
    {
     "enum_field_value" : -268435456,
     "name" : "android::hardware::graphics::common::V1_0::BufferUsage::VENDOR_MASK"
    },
    {
     "enum_field_value" : 0,
     "name" : "android::hardware::graphics::common::V1_0::BufferUsage::VENDOR_MASK_HI"
    }
   ],
   "linker_set_key" : "_ZTIN7android8hardware8graphics6common4V1_011BufferUsageE",
   "name" : "android::hardware::graphics::common::V1_0::BufferUsage",
   "referenced_type" : "_ZTIN7android8hardware8graphics6common4V1_011BufferUsageE",
   "self_type" : "_ZTIN7android8hardware8graphics6common4V1_011BufferUsageE",
   "size" : 8,
   "source_file" : "/out/soong/.intermediates/hardware/interfaces/graphics/common/1.0/android.hardware.graphics.common@1.0_genc++_headers/gen/android/hardware/graphics/common/1.0/types.h",
   "underlying_type" : "_ZTIy"
  },
  {
   "alignment" : 4,
   "enum_fields" :
   [
    {
     "enum_field_value" : 1,
     "name" : "android::hardware::graphics::common::V1_0::PixelFormat::RGBA_8888"
    },
    {
     "enum_field_value" : 2,
     "name" : "android::hardware::graphics::common::V1_0::PixelFormat::RGBX_8888"
    },
    {
     "enum_field_value" : 3,
     "name" : "android::hardware::graphics::common::V1_0::PixelFormat::RGB_888"
    },
    {
     "enum_field_value" : 4,
     "name" : "android::hardware::graphics::common::V1_0::PixelFormat::RGB_565"
    },
    {
     "enum_field_value" : 5,
     "name" : "android::hardware::graphics::common::V1_0::PixelFormat::BGRA_8888"
    },
    {
     "enum_field_value" : 16,
     "name" : "android::hardware::graphics::common::V1_0::PixelFormat::YCBCR_422_SP"
    },
    {
     "enum_field_value" : 17,
     "name" : "android::hardware::graphics::common::V1_0::PixelFormat::YCRCB_420_SP"
    },
    {
     "enum_field_value" : 20,
     "name" : "android::hardware::graphics::common::V1_0::PixelFormat::YCBCR_422_I"
    },
    {
     "enum_field_value" : 22,
     "name" : "android::hardware::graphics::common::V1_0::PixelFormat::RGBA_FP16"
    },
    {
     "enum_field_value" : 32,
     "name" : "android::hardware::graphics::common::V1_0::PixelFormat::RAW16"
    },
    {
     "enum_field_value" : 33,
     "name" : "android::hardware::graphics::common::V1_0::PixelFormat::BLOB"
    },
    {
     "enum_field_value" : 34,
     "name" : "android::hardware::graphics::common::V1_0::PixelFormat::IMPLEMENTATION_DEFINED"
    },
    {
     "enum_field_value" : 35,
     "name" : "android::hardware::graphics::common::V1_0::PixelFormat::YCBCR_420_888"
    },
    {
     "enum_field_value" : 36,
     "name" : "android::hardware::graphics::common::V1_0::PixelFormat::RAW_OPAQUE"
    },
    {
     "enum_field_value" : 37,
     "name" : "android::hardware::graphics::common::V1_0::PixelFormat::RAW10"
    },
    {
     "enum_field_value" : 38,
     "name" : "android::hardware::graphics::common::V1_0::PixelFormat::RAW12"
    },
    {
     "enum_field_value" : 43,
     "name" : "android::hardware::graphics::common::V1_0::PixelFormat::RGBA_1010102"
    },
    {
     "enum_field_value" : 538982489,
     "name" : "android::hardware::graphics::common::V1_0::PixelFormat::Y8"
    },
    {
     "enum_field_value" : 540422489,
     "name" : "android::hardware::graphics::common::V1_0::PixelFormat::Y16"
    },
    {
     "enum_field_value" : 842094169,
     "name" : "android::hardware::graphics::common::V1_0::PixelFormat::YV12"
    }
   ],
   "linker_set_key" : "_ZTIN7android8hardware8graphics6common4V1_011PixelFormatE",
   "name" : "android::hardware::graphics::common::V1_0::PixelFormat",
   "referenced_type" : "_ZTIN7android8hardware8graphics6common4V1_011PixelFormatE",
   "self_type" : "_ZTIN7android8hardware8graphics6common4V1_011PixelFormatE",
   "size" : 4,
   "source_file" : "/out/soong/.intermediates/hardware/interfaces/graphics/common/1.0/android.hardware.graphics.common@1.0_genc++_headers/gen/android/hardware/graphics/common/1.0/types.h",
   "underlying_type" : "_ZTIi"
  },
  {
   "alignment" : 4,
   "enum_fields" :
   [
    {
     "enum_field_value" : 0,
     "name" : "android::hardware::graphics::common::V1_0::ColorTransform::IDENTITY"
    },
    {
     "enum_field_value" : 1,
     "name" : "android::hardware::graphics::common::V1_0::ColorTransform::ARBITRARY_MATRIX"
    },
    {
     "enum_field_value" : 2,
     "name" : "android::hardware::graphics::common::V1_0::ColorTransform::VALUE_INVERSE"
    },
    {
     "enum_field_value" : 3,
     "name" : "android::hardware::graphics::common::V1_0::ColorTransform::GRAYSCALE"
    },
    {
     "enum_field_value" : 4,
     "name" : "android::hardware::graphics::common::V1_0::ColorTransform::CORRECT_PROTANOPIA"
    },
    {
     "enum_field_value" : 5,
     "name" : "android::hardware::graphics::common::V1_0::ColorTransform::CORRECT_DEUTERANOPIA"
    },
    {
     "enum_field_value" : 6,
     "name" : "android::hardware::graphics::common::V1_0::ColorTransform::CORRECT_TRITANOPIA"
    }
   ],
   "linker_set_key" : "_ZTIN7android8hardware8graphics6common4V1_014ColorTransformE",
   "name" : "android::hardware::graphics::common::V1_0::ColorTransform",
   "referenced_type" : "_ZTIN7android8hardware8graphics6common4V1_014ColorTransformE",
   "self_type" : "_ZTIN7android8hardware8graphics6common4V1_014ColorTransformE",
   "size" : 4,
   "source_file" : "/out/soong/.intermediates/hardware/interfaces/graphics/common/1.0/android.hardware.graphics.common@1.0_genc++_headers/gen/android/hardware/graphics/common/1.0/types.h",
   "underlying_type" : "_ZTIi"
  },
  {
   "alignment" : 4,
   "enum_fields" :
   [
    {
     "enum_field_value" : 1,
     "name" : "android::hardware::graphics::common::V1_0::Hdr::DOLBY_VISION"
    },
    {
     "enum_field_value" : 2,
     "name" : "android::hardware::graphics::common::V1_0::Hdr::HDR10"
    },
    {
     "enum_field_value" : 3,
     "name" : "android::hardware::graphics::common::V1_0::Hdr::HLG"
    }
   ],
   "linker_set_key" : "_ZTIN7android8hardware8graphics6common4V1_03HdrE",
   "name" : "android::hardware::graphics::common::V1_0::Hdr",
   "referenced_type" : "_ZTIN7android8hardware8graphics6common4V1_03HdrE",
   "self_type" : "_ZTIN7android8hardware8graphics6common4V1_03HdrE",
   "size" : 4,
   "source_file" : "/out/soong/.intermediates/hardware/interfaces/graphics/common/1.0/android.hardware.graphics.common@1.0_genc++_headers/gen/android/hardware/graphics/common/1.0/types.h",
   "underlying_type" : "_ZTIi"
  },
  {
   "alignment" : 4,
   "enum_fields" :
   [
    {
     "enum_field_value" : 0,
     "name" : "android::hardware::graphics::common::V1_0::ColorMode::NATIVE"
    },
    {
     "enum_field_value" : 1,
     "name" : "android::hardware::graphics::common::V1_0::ColorMode::STANDARD_BT601_625"
    },
    {
     "enum_field_value" : 2,
     "name" : "android::hardware::graphics::common::V1_0::ColorMode::STANDARD_BT601_625_UNADJUSTED"
    },
    {
     "enum_field_value" : 3,
     "name" : "android::hardware::graphics::common::V1_0::ColorMode::STANDARD_BT601_525"
    },
    {
     "enum_field_value" : 4,
     "name" : "android::hardware::graphics::common::V1_0::ColorMode::STANDARD_BT601_525_UNADJUSTED"
    },
    {
     "enum_field_value" : 5,
     "name" : "android::hardware::graphics::common::V1_0::ColorMode::STANDARD_BT709"
    },
    {
     "enum_field_value" : 6,
     "name" : "android::hardware::graphics::common::V1_0::ColorMode::DCI_P3"
    },
    {
     "enum_field_value" : 7,
     "name" : "android::hardware::graphics::common::V1_0::ColorMode::SRGB"
    },
    {
     "enum_field_value" : 8,
     "name" : "android::hardware::graphics::common::V1_0::ColorMode::ADOBE_RGB"
    },
    {
     "enum_field_value" : 9,
     "name" : "android::hardware::graphics::common::V1_0::ColorMode::DISPLAY_P3"
    }
   ],
   "linker_set_key" : "_ZTIN7android8hardware8graphics6common4V1_09ColorModeE",
   "name" : "android::hardware::graphics::common::V1_0::ColorMode",
   "referenced_type" : "_ZTIN7android8hardware8graphics6common4V1_09ColorModeE",
   "self_type" : "_ZTIN7android8hardware8graphics6common4V1_09ColorModeE",
   "size" : 4,
   "source_file" : "/out/soong/.intermediates/hardware/interfaces/graphics/common/1.0/android.hardware.graphics.common@1.0_genc++_headers/gen/android/hardware/graphics/common/1.0/types.h",
   "underlying_type" : "_ZTIi"
  },
  {
   "alignment" : 4,
   "enum_fields" :
   [
    {
     "enum_field_value" : 0,
     "name" : "android::hardware::graphics::common::V1_0::Dataspace::UNKNOWN"
    },
    {
     "enum_field_value" : 1,
     "name" : "android::hardware::graphics::common::V1_0::Dataspace::ARBITRARY"
    },
    {
     "enum_field_value" : 16,
     "name" : "android::hardware::graphics::common::V1_0::Dataspace::STANDARD_SHIFT"
    },
    {
     "enum_field_value" : 4128768,
     "name" : "android::hardware::graphics::common::V1_0::Dataspace::STANDARD_MASK"
    },
    {
     "enum_field_value" : 0,
     "name" : "android::hardware::graphics::common::V1_0::Dataspace::STANDARD_UNSPECIFIED"
    },
    {
     "enum_field_value" : 65536,
     "name" : "android::hardware::graphics::common::V1_0::Dataspace::STANDARD_BT709"
    },
    {
     "enum_field_value" : 131072,
     "name" : "android::hardware::graphics::common::V1_0::Dataspace::STANDARD_BT601_625"
    },
    {
     "enum_field_value" : 196608,
     "name" : "android::hardware::graphics::common::V1_0::Dataspace::STANDARD_BT601_625_UNADJUSTED"
    },
    {
     "enum_field_value" : 262144,
     "name" : "android::hardware::graphics::common::V1_0::Dataspace::STANDARD_BT601_525"
    },
    {
     "enum_field_value" : 327680,
     "name" : "android::hardware::graphics::common::V1_0::Dataspace::STANDARD_BT601_525_UNADJUSTED"
    },
    {
     "enum_field_value" : 393216,
     "name" : "android::hardware::graphics::common::V1_0::Dataspace::STANDARD_BT2020"
    },
    {
     "enum_field_value" : 458752,
     "name" : "android::hardware::graphics::common::V1_0::Dataspace::STANDARD_BT2020_CONSTANT_LUMINANCE"
    },
    {
     "enum_field_value" : 524288,
     "name" : "android::hardware::graphics::common::V1_0::Dataspace::STANDARD_BT470M"
    },
    {
     "enum_field_value" : 589824,
     "name" : "android::hardware::graphics::common::V1_0::Dataspace::STANDARD_FILM"
    },
    {
     "enum_field_value" : 655360,
     "name" : "android::hardware::graphics::common::V1_0::Dataspace::STANDARD_DCI_P3"
    },
    {
     "enum_field_value" : 720896,
     "name" : "android::hardware::graphics::common::V1_0::Dataspace::STANDARD_ADOBE_RGB"
    },
    {
     "enum_field_value" : 22,
     "name" : "android::hardware::graphics::common::V1_0::Dataspace::TRANSFER_SHIFT"
    },
    {
     "enum_field_value" : 130023424,
     "name" : "android::hardware::graphics::common::V1_0::Dataspace::TRANSFER_MASK"
    },
    {
     "enum_field_value" : 0,
     "name" : "android::hardware::graphics::common::V1_0::Dataspace::TRANSFER_UNSPECIFIED"
    },
    {
     "enum_field_value" : 4194304,
     "name" : "android::hardware::graphics::common::V1_0::Dataspace::TRANSFER_LINEAR"
    },
    {
     "enum_field_value" : 8388608,
     "name" : "android::hardware::graphics::common::V1_0::Dataspace::TRANSFER_SRGB"
    },
    {
     "enum_field_value" : 12582912,
     "name" : "android::hardware::graphics::common::V1_0::Dataspace::TRANSFER_SMPTE_170M"
    },
    {
     "enum_field_value" : 16777216,
     "name" : "android::hardware::graphics::common::V1_0::Dataspace::TRANSFER_GAMMA2_2"
    },
    {
     "enum_field_value" : 20971520,
     "name" : "android::hardware::graphics::common::V1_0::Dataspace::TRANSFER_GAMMA2_6"
    },
    {
     "enum_field_value" : 25165824,
     "name" : "android::hardware::graphics::common::V1_0::Dataspace::TRANSFER_GAMMA2_8"
    },
    {
     "enum_field_value" : 29360128,
     "name" : "android::hardware::graphics::common::V1_0::Dataspace::TRANSFER_ST2084"
    },
    {
     "enum_field_value" : 33554432,
     "name" : "android::hardware::graphics::common::V1_0::Dataspace::TRANSFER_HLG"
    },
    {
     "enum_field_value" : 27,
     "name" : "android::hardware::graphics::common::V1_0::Dataspace::RANGE_SHIFT"
    },
    {
     "enum_field_value" : 939524096,
     "name" : "android::hardware::graphics::common::V1_0::Dataspace::RANGE_MASK"
    },
    {
     "enum_field_value" : 0,
     "name" : "android::hardware::graphics::common::V1_0::Dataspace::RANGE_UNSPECIFIED"
    },
    {
     "enum_field_value" : 134217728,
     "name" : "android::hardware::graphics::common::V1_0::Dataspace::RANGE_FULL"
    },
    {
     "enum_field_value" : 268435456,
     "name" : "android::hardware::graphics::common::V1_0::Dataspace::RANGE_LIMITED"
    },
    {
     "enum_field_value" : 402653184,
     "name" : "android::hardware::graphics::common::V1_0::Dataspace::RANGE_EXTENDED"
    },
    {
     "enum_field_value" : 512,
     "name" : "android::hardware::graphics::common::V1_0::Dataspace::SRGB_LINEAR"
    },
    {
     "enum_field_value" : 138477568,
     "name" : "android::hardware::graphics::common::V1_0::Dataspace::V0_SRGB_LINEAR"
    },
    {
     "enum_field_value" : 406913024,
     "name" : "android::hardware::graphics::common::V1_0::Dataspace::V0_SCRGB_LINEAR"
    },
    {
     "enum_field_value" : 513,
     "name" : "android::hardware::graphics::common::V1_0::Dataspace::SRGB"
    },
    {
     "enum_field_value" : 142671872,
     "name" : "android::hardware::graphics::common::V1_0::Dataspace::V0_SRGB"
    },
    {
     "enum_field_value" : 411107328,
     "name" : "android::hardware::graphics::common::V1_0::Dataspace::V0_SCRGB"
    },
    {
     "enum_field_value" : 257,
     "name" : "android::hardware::graphics::common::V1_0::Dataspace::JFIF"
    },
    {
     "enum_field_value" : 146931712,
     "name" : "android::hardware::graphics::common::V1_0::Dataspace::V0_JFIF"
    },
    {
     "enum_field_value" : 258,
     "name" : "android::hardware::graphics::common::V1_0::Dataspace::BT601_625"
    },
    {
     "enum_field_value" : 281149440,
     "name" : "android::hardware::graphics::common::V1_0::Dataspace::V0_BT601_625"
    },
    {
     "enum_field_value" : 259,
     "name" : "android::hardware::graphics::common::V1_0::Dataspace::BT601_525"
    },
    {
     "enum_field_value" : 281280512,
     "name" : "android::hardware::graphics::common::V1_0::Dataspace::V0_BT601_525"
    },
    {
     "enum_field_value" : 260,
     "name" : "android::hardware::graphics::common::V1_0::Dataspace::BT709"
    },
    {
     "enum_field_value" : 281083904,
     "name" : "android::hardware::graphics::common::V1_0::Dataspace::V0_BT709"
    },
    {
     "enum_field_value" : 139067392,
     "name" : "android::hardware::graphics::common::V1_0::Dataspace::DCI_P3_LINEAR"
    },
    {
     "enum_field_value" : 155844608,
     "name" : "android::hardware::graphics::common::V1_0::Dataspace::DCI_P3"
    },
    {
     "enum_field_value" : 139067392,
     "name" : "android::hardware::graphics::common::V1_0::Dataspace::DISPLAY_P3_LINEAR"
    },
    {
     "enum_field_value" : 143261696,
     "name" : "android::hardware::graphics::common::V1_0::Dataspace::DISPLAY_P3"
    },
    {
     "enum_field_value" : 151715840,
     "name" : "android::hardware::graphics::common::V1_0::Dataspace::ADOBE_RGB"
    },
    {
     "enum_field_value" : 138805248,
     "name" : "android::hardware::graphics::common::V1_0::Dataspace::BT2020_LINEAR"
    },
    {
     "enum_field_value" : 147193856,
     "name" : "android::hardware::graphics::common::V1_0::Dataspace::BT2020"
    },
    {
     "enum_field_value" : 163971072,
     "name" : "android::hardware::graphics::common::V1_0::Dataspace::BT2020_PQ"
    },
    {
     "enum_field_value" : 4096,
     "name" : "android::hardware::graphics::common::V1_0::Dataspace::DEPTH"
    },
    {
     "enum_field_value" : 4097,
     "name" : "android::hardware::graphics::common::V1_0::Dataspace::SENSOR"
    }
   ],
   "linker_set_key" : "_ZTIN7android8hardware8graphics6common4V1_09DataspaceE",
   "name" : "android::hardware::graphics::common::V1_0::Dataspace",
   "referenced_type" : "_ZTIN7android8hardware8graphics6common4V1_09DataspaceE",
   "self_type" : "_ZTIN7android8hardware8graphics6common4V1_09DataspaceE",
   "size" : 4,
   "source_file" : "/out/soong/.intermediates/hardware/interfaces/graphics/common/1.0/android.hardware.graphics.common@1.0_genc++_headers/gen/android/hardware/graphics/common/1.0/types.h",
   "underlying_type" : "_ZTIi"
  },
  {
   "alignment" : 4,
   "enum_fields" :
   [
    {
     "enum_field_value" : 1,
     "name" : "android::hardware::graphics::common::V1_0::Transform::FLIP_H"
    },
    {
     "enum_field_value" : 2,
     "name" : "android::hardware::graphics::common::V1_0::Transform::FLIP_V"
    },
    {
     "enum_field_value" : 4,
     "name" : "android::hardware::graphics::common::V1_0::Transform::ROT_90"
    },
    {
     "enum_field_value" : 3,
     "name" : "android::hardware::graphics::common::V1_0::Transform::ROT_180"
    },
    {
     "enum_field_value" : 7,
     "name" : "android::hardware::graphics::common::V1_0::Transform::ROT_270"
    }
   ],
   "linker_set_key" : "_ZTIN7android8hardware8graphics6common4V1_09TransformE",
   "name" : "android::hardware::graphics::common::V1_0::Transform",
   "referenced_type" : "_ZTIN7android8hardware8graphics6common4V1_09TransformE",
   "self_type" : "_ZTIN7android8hardware8graphics6common4V1_09TransformE",
   "size" : 4,
   "source_file" : "/out/soong/.intermediates/hardware/interfaces/graphics/common/1.0/android.hardware.graphics.common@1.0_genc++_headers/gen/android/hardware/graphics/common/1.0/types.h",
   "underlying_type" : "_ZTIi"
  },
  {
   "alignment" : 8,
   "enum_fields" :
   [
    {
     "enum_field_value" : 15,
     "name" : "android::hardware::graphics::common::V1_1::BufferUsage::CPU_READ_MASK"
    },
    {
     "enum_field_value" : 0,
     "name" : "android::hardware::graphics::common::V1_1::BufferUsage::CPU_READ_NEVER"
    },
    {
     "enum_field_value" : 2,
     "name" : "android::hardware::graphics::common::V1_1::BufferUsage::CPU_READ_RARELY"
    },
    {
     "enum_field_value" : 3,
     "name" : "android::hardware::graphics::common::V1_1::BufferUsage::CPU_READ_OFTEN"
    },
    {
     "enum_field_value" : 240,
     "name" : "android::hardware::graphics::common::V1_1::BufferUsage::CPU_WRITE_MASK"
    },
    {
     "enum_field_value" : 0,
     "name" : "android::hardware::graphics::common::V1_1::BufferUsage::CPU_WRITE_NEVER"
    },
    {
     "enum_field_value" : 32,
     "name" : "android::hardware::graphics::common::V1_1::BufferUsage::CPU_WRITE_RARELY"
    },
    {
     "enum_field_value" : 48,
     "name" : "android::hardware::graphics::common::V1_1::BufferUsage::CPU_WRITE_OFTEN"
    },
    {
     "enum_field_value" : 256,
     "name" : "android::hardware::graphics::common::V1_1::BufferUsage::GPU_TEXTURE"
    },
    {
     "enum_field_value" : 512,
     "name" : "android::hardware::graphics::common::V1_1::BufferUsage::GPU_RENDER_TARGET"
    },
    {
     "enum_field_value" : 2048,
     "name" : "android::hardware::graphics::common::V1_1::BufferUsage::COMPOSER_OVERLAY"
    },
    {
     "enum_field_value" : 4096,
     "name" : "android::hardware::graphics::common::V1_1::BufferUsage::COMPOSER_CLIENT_TARGET"
    },
    {
     "enum_field_value" : 16384,
     "name" : "android::hardware::graphics::common::V1_1::BufferUsage::PROTECTED"
    },
    {
     "enum_field_value" : 32768,
     "name" : "android::hardware::graphics::common::V1_1::BufferUsage::COMPOSER_CURSOR"
    },
    {
     "enum_field_value" : 65536,
     "name" : "android::hardware::graphics::common::V1_1::BufferUsage::VIDEO_ENCODER"
    },
    {
     "enum_field_value" : 131072,
     "name" : "android::hardware::graphics::common::V1_1::BufferUsage::CAMERA_OUTPUT"
    },
    {
     "enum_field_value" : 262144,
     "name" : "android::hardware::graphics::common::V1_1::BufferUsage::CAMERA_INPUT"
    },
    {
     "enum_field_value" : 1048576,
     "name" : "android::hardware::graphics::common::V1_1::BufferUsage::RENDERSCRIPT"
    },
    {
     "enum_field_value" : 4194304,
     "name" : "android::hardware::graphics::common::V1_1::BufferUsage::VIDEO_DECODER"
    },
    {
     "enum_field_value" : 8388608,
     "name" : "android::hardware::graphics::common::V1_1::BufferUsage::SENSOR_DIRECT_DATA"
    },
    {
     "enum_field_value" : 16777216,
     "name" : "android::hardware::graphics::common::V1_1::BufferUsage::GPU_DATA_BUFFER"
    },
    {
     "enum_field_value" : -268435456,
     "name" : "android::hardware::graphics::common::V1_1::BufferUsage::VENDOR_MASK"
    },
    {
     "enum_field_value" : 0,
     "name" : "android::hardware::graphics::common::V1_1::BufferUsage::VENDOR_MASK_HI"
    },
    {
     "enum_field_value" : 33554432,
     "name" : "android::hardware::graphics::common::V1_1::BufferUsage::GPU_CUBE_MAP"
    },
    {
     "enum_field_value" : 67108864,
     "name" : "android::hardware::graphics::common::V1_1::BufferUsage::GPU_MIPMAP_COMPLETE"
    }
   ],
   "linker_set_key" : "_ZTIN7android8hardware8graphics6common4V1_111BufferUsageE",
   "name" : "android::hardware::graphics::common::V1_1::BufferUsage",
   "referenced_type" : "_ZTIN7android8hardware8graphics6common4V1_111BufferUsageE",
   "self_type" : "_ZTIN7android8hardware8graphics6common4V1_111BufferUsageE",
   "size" : 8,
   "source_file" : "/out/soong/.intermediates/hardware/interfaces/graphics/common/1.1/android.hardware.graphics.common@1.1_genc++_headers/gen/android/hardware/graphics/common/1.1/types.h",
   "underlying_type" : "_ZTIy"
  },
  {
   "alignment" : 4,
   "enum_fields" :
   [
    {
     "enum_field_value" : 1,
     "name" : "android::hardware::graphics::common::V1_1::PixelFormat::RGBA_8888"
    },
    {
     "enum_field_value" : 2,
     "name" : "android::hardware::graphics::common::V1_1::PixelFormat::RGBX_8888"
    },
    {
     "enum_field_value" : 3,
     "name" : "android::hardware::graphics::common::V1_1::PixelFormat::RGB_888"
    },
    {
     "enum_field_value" : 4,
     "name" : "android::hardware::graphics::common::V1_1::PixelFormat::RGB_565"
    },
    {
     "enum_field_value" : 5,
     "name" : "android::hardware::graphics::common::V1_1::PixelFormat::BGRA_8888"
    },
    {
     "enum_field_value" : 16,
     "name" : "android::hardware::graphics::common::V1_1::PixelFormat::YCBCR_422_SP"
    },
    {
     "enum_field_value" : 17,
     "name" : "android::hardware::graphics::common::V1_1::PixelFormat::YCRCB_420_SP"
    },
    {
     "enum_field_value" : 20,
     "name" : "android::hardware::graphics::common::V1_1::PixelFormat::YCBCR_422_I"
    },
    {
     "enum_field_value" : 22,
     "name" : "android::hardware::graphics::common::V1_1::PixelFormat::RGBA_FP16"
    },
    {
     "enum_field_value" : 32,
     "name" : "android::hardware::graphics::common::V1_1::PixelFormat::RAW16"
    },
    {
     "enum_field_value" : 33,
     "name" : "android::hardware::graphics::common::V1_1::PixelFormat::BLOB"
    },
    {
     "enum_field_value" : 34,
     "name" : "android::hardware::graphics::common::V1_1::PixelFormat::IMPLEMENTATION_DEFINED"
    },
    {
     "enum_field_value" : 35,
     "name" : "android::hardware::graphics::common::V1_1::PixelFormat::YCBCR_420_888"
    },
    {
     "enum_field_value" : 36,
     "name" : "android::hardware::graphics::common::V1_1::PixelFormat::RAW_OPAQUE"
    },
    {
     "enum_field_value" : 37,
     "name" : "android::hardware::graphics::common::V1_1::PixelFormat::RAW10"
    },
    {
     "enum_field_value" : 38,
     "name" : "android::hardware::graphics::common::V1_1::PixelFormat::RAW12"
    },
    {
     "enum_field_value" : 43,
     "name" : "android::hardware::graphics::common::V1_1::PixelFormat::RGBA_1010102"
    },
    {
     "enum_field_value" : 538982489,
     "name" : "android::hardware::graphics::common::V1_1::PixelFormat::Y8"
    },
    {
     "enum_field_value" : 540422489,
     "name" : "android::hardware::graphics::common::V1_1::PixelFormat::Y16"
    },
    {
     "enum_field_value" : 842094169,
     "name" : "android::hardware::graphics::common::V1_1::PixelFormat::YV12"
    },
    {
     "enum_field_value" : 48,
     "name" : "android::hardware::graphics::common::V1_1::PixelFormat::DEPTH_16"
    },
    {
     "enum_field_value" : 49,
     "name" : "android::hardware::graphics::common::V1_1::PixelFormat::DEPTH_24"
    },
    {
     "enum_field_value" : 50,
     "name" : "android::hardware::graphics::common::V1_1::PixelFormat::DEPTH_24_STENCIL_8"
    },
    {
     "enum_field_value" : 51,
     "name" : "android::hardware::graphics::common::V1_1::PixelFormat::DEPTH_32F"
    },
    {
     "enum_field_value" : 52,
     "name" : "android::hardware::graphics::common::V1_1::PixelFormat::DEPTH_32F_STENCIL_8"
    },
    {
     "enum_field_value" : 53,
     "name" : "android::hardware::graphics::common::V1_1::PixelFormat::STENCIL_8"
    },
    {
     "enum_field_value" : 54,
     "name" : "android::hardware::graphics::common::V1_1::PixelFormat::YCBCR_P010"
    }
   ],
   "linker_set_key" : "_ZTIN7android8hardware8graphics6common4V1_111PixelFormatE",
   "name" : "android::hardware::graphics::common::V1_1::PixelFormat",
   "referenced_type" : "_ZTIN7android8hardware8graphics6common4V1_111PixelFormatE",
   "self_type" : "_ZTIN7android8hardware8graphics6common4V1_111PixelFormatE",
   "size" : 4,
   "source_file" : "/out/soong/.intermediates/hardware/interfaces/graphics/common/1.1/android.hardware.graphics.common@1.1_genc++_headers/gen/android/hardware/graphics/common/1.1/types.h",
   "underlying_type" : "_ZTIi"
  },
  {
   "alignment" : 4,
   "enum_fields" :
   [
    {
     "enum_field_value" : 0,
     "name" : "android::hardware::graphics::common::V1_1::RenderIntent::COLORIMETRIC"
    },
    {
     "enum_field_value" : 1,
     "name" : "android::hardware::graphics::common::V1_1::RenderIntent::ENHANCE"
    },
    {
     "enum_field_value" : 2,
     "name" : "android::hardware::graphics::common::V1_1::RenderIntent::TONE_MAP_COLORIMETRIC"
    },
    {
     "enum_field_value" : 3,
     "name" : "android::hardware::graphics::common::V1_1::RenderIntent::TONE_MAP_ENHANCE"
    }
   ],
   "linker_set_key" : "_ZTIN7android8hardware8graphics6common4V1_112RenderIntentE",
   "name" : "android::hardware::graphics::common::V1_1::RenderIntent",
   "referenced_type" : "_ZTIN7android8hardware8graphics6common4V1_112RenderIntentE",
   "self_type" : "_ZTIN7android8hardware8graphics6common4V1_112RenderIntentE",
   "size" : 4,
   "source_file" : "/out/soong/.intermediates/hardware/interfaces/graphics/common/1.1/android.hardware.graphics.common@1.1_genc++_headers/gen/android/hardware/graphics/common/1.1/types.h",
   "underlying_type" : "_ZTIi"
  },
  {
   "alignment" : 4,
   "enum_fields" :
   [
    {
     "enum_field_value" : 0,
     "name" : "android::hardware::graphics::common::V1_1::ColorMode::NATIVE"
    },
    {
     "enum_field_value" : 1,
     "name" : "android::hardware::graphics::common::V1_1::ColorMode::STANDARD_BT601_625"
    },
    {
     "enum_field_value" : 2,
     "name" : "android::hardware::graphics::common::V1_1::ColorMode::STANDARD_BT601_625_UNADJUSTED"
    },
    {
     "enum_field_value" : 3,
     "name" : "android::hardware::graphics::common::V1_1::ColorMode::STANDARD_BT601_525"
    },
    {
     "enum_field_value" : 4,
     "name" : "android::hardware::graphics::common::V1_1::ColorMode::STANDARD_BT601_525_UNADJUSTED"
    },
    {
     "enum_field_value" : 5,
     "name" : "android::hardware::graphics::common::V1_1::ColorMode::STANDARD_BT709"
    },
    {
     "enum_field_value" : 6,
     "name" : "android::hardware::graphics::common::V1_1::ColorMode::DCI_P3"
    },
    {
     "enum_field_value" : 7,
     "name" : "android::hardware::graphics::common::V1_1::ColorMode::SRGB"
    },
    {
     "enum_field_value" : 8,
     "name" : "android::hardware::graphics::common::V1_1::ColorMode::ADOBE_RGB"
    },
    {
     "enum_field_value" : 9,
     "name" : "android::hardware::graphics::common::V1_1::ColorMode::DISPLAY_P3"
    },
    {
     "enum_field_value" : 10,
     "name" : "android::hardware::graphics::common::V1_1::ColorMode::BT2020"
    },
    {
     "enum_field_value" : 11,
     "name" : "android::hardware::graphics::common::V1_1::ColorMode::BT2100_PQ"
    },
    {
     "enum_field_value" : 12,
     "name" : "android::hardware::graphics::common::V1_1::ColorMode::BT2100_HLG"
    }
   ],
   "linker_set_key" : "_ZTIN7android8hardware8graphics6common4V1_19ColorModeE",
   "name" : "android::hardware::graphics::common::V1_1::ColorMode",
   "referenced_type" : "_ZTIN7android8hardware8graphics6common4V1_19ColorModeE",
   "self_type" : "_ZTIN7android8hardware8graphics6common4V1_19ColorModeE",
   "size" : 4,
   "source_file" : "/out/soong/.intermediates/hardware/interfaces/graphics/common/1.1/android.hardware.graphics.common@1.1_genc++_headers/gen/android/hardware/graphics/common/1.1/types.h",
   "underlying_type" : "_ZTIi"
  },
  {
   "alignment" : 4,
   "enum_fields" :
   [
    {
     "enum_field_value" : 0,
     "name" : "android::hardware::graphics::common::V1_1::Dataspace::UNKNOWN"
    },
    {
     "enum_field_value" : 1,
     "name" : "android::hardware::graphics::common::V1_1::Dataspace::ARBITRARY"
    },
    {
     "enum_field_value" : 16,
     "name" : "android::hardware::graphics::common::V1_1::Dataspace::STANDARD_SHIFT"
    },
    {
     "enum_field_value" : 4128768,
     "name" : "android::hardware::graphics::common::V1_1::Dataspace::STANDARD_MASK"
    },
    {
     "enum_field_value" : 0,
     "name" : "android::hardware::graphics::common::V1_1::Dataspace::STANDARD_UNSPECIFIED"
    },
    {
     "enum_field_value" : 65536,
     "name" : "android::hardware::graphics::common::V1_1::Dataspace::STANDARD_BT709"
    },
    {
     "enum_field_value" : 131072,
     "name" : "android::hardware::graphics::common::V1_1::Dataspace::STANDARD_BT601_625"
    },
    {
     "enum_field_value" : 196608,
     "name" : "android::hardware::graphics::common::V1_1::Dataspace::STANDARD_BT601_625_UNADJUSTED"
    },
    {
     "enum_field_value" : 262144,
     "name" : "android::hardware::graphics::common::V1_1::Dataspace::STANDARD_BT601_525"
    },
    {
     "enum_field_value" : 327680,
     "name" : "android::hardware::graphics::common::V1_1::Dataspace::STANDARD_BT601_525_UNADJUSTED"
    },
    {
     "enum_field_value" : 393216,
     "name" : "android::hardware::graphics::common::V1_1::Dataspace::STANDARD_BT2020"
    },
    {
     "enum_field_value" : 458752,
     "name" : "android::hardware::graphics::common::V1_1::Dataspace::STANDARD_BT2020_CONSTANT_LUMINANCE"
    },
    {
     "enum_field_value" : 524288,
     "name" : "android::hardware::graphics::common::V1_1::Dataspace::STANDARD_BT470M"
    },
    {
     "enum_field_value" : 589824,
     "name" : "android::hardware::graphics::common::V1_1::Dataspace::STANDARD_FILM"
    },
    {
     "enum_field_value" : 655360,
     "name" : "android::hardware::graphics::common::V1_1::Dataspace::STANDARD_DCI_P3"
    },
    {
     "enum_field_value" : 720896,
     "name" : "android::hardware::graphics::common::V1_1::Dataspace::STANDARD_ADOBE_RGB"
    },
    {
     "enum_field_value" : 22,
     "name" : "android::hardware::graphics::common::V1_1::Dataspace::TRANSFER_SHIFT"
    },
    {
     "enum_field_value" : 130023424,
     "name" : "android::hardware::graphics::common::V1_1::Dataspace::TRANSFER_MASK"
    },
    {
     "enum_field_value" : 0,
     "name" : "android::hardware::graphics::common::V1_1::Dataspace::TRANSFER_UNSPECIFIED"
    },
    {
     "enum_field_value" : 4194304,
     "name" : "android::hardware::graphics::common::V1_1::Dataspace::TRANSFER_LINEAR"
    },
    {
     "enum_field_value" : 8388608,
     "name" : "android::hardware::graphics::common::V1_1::Dataspace::TRANSFER_SRGB"
    },
    {
     "enum_field_value" : 12582912,
     "name" : "android::hardware::graphics::common::V1_1::Dataspace::TRANSFER_SMPTE_170M"
    },
    {
     "enum_field_value" : 16777216,
     "name" : "android::hardware::graphics::common::V1_1::Dataspace::TRANSFER_GAMMA2_2"
    },
    {
     "enum_field_value" : 20971520,
     "name" : "android::hardware::graphics::common::V1_1::Dataspace::TRANSFER_GAMMA2_6"
    },
    {
     "enum_field_value" : 25165824,
     "name" : "android::hardware::graphics::common::V1_1::Dataspace::TRANSFER_GAMMA2_8"
    },
    {
     "enum_field_value" : 29360128,
     "name" : "android::hardware::graphics::common::V1_1::Dataspace::TRANSFER_ST2084"
    },
    {
     "enum_field_value" : 33554432,
     "name" : "android::hardware::graphics::common::V1_1::Dataspace::TRANSFER_HLG"
    },
    {
     "enum_field_value" : 27,
     "name" : "android::hardware::graphics::common::V1_1::Dataspace::RANGE_SHIFT"
    },
    {
     "enum_field_value" : 939524096,
     "name" : "android::hardware::graphics::common::V1_1::Dataspace::RANGE_MASK"
    },
    {
     "enum_field_value" : 0,
     "name" : "android::hardware::graphics::common::V1_1::Dataspace::RANGE_UNSPECIFIED"
    },
    {
     "enum_field_value" : 134217728,
     "name" : "android::hardware::graphics::common::V1_1::Dataspace::RANGE_FULL"
    },
    {
     "enum_field_value" : 268435456,
     "name" : "android::hardware::graphics::common::V1_1::Dataspace::RANGE_LIMITED"
    },
    {
     "enum_field_value" : 402653184,
     "name" : "android::hardware::graphics::common::V1_1::Dataspace::RANGE_EXTENDED"
    },
    {
     "enum_field_value" : 512,
     "name" : "android::hardware::graphics::common::V1_1::Dataspace::SRGB_LINEAR"
    },
    {
     "enum_field_value" : 138477568,
     "name" : "android::hardware::graphics::common::V1_1::Dataspace::V0_SRGB_LINEAR"
    },
    {
     "enum_field_value" : 406913024,
     "name" : "android::hardware::graphics::common::V1_1::Dataspace::V0_SCRGB_LINEAR"
    },
    {
     "enum_field_value" : 513,
     "name" : "android::hardware::graphics::common::V1_1::Dataspace::SRGB"
    },
    {
     "enum_field_value" : 142671872,
     "name" : "android::hardware::graphics::common::V1_1::Dataspace::V0_SRGB"
    },
    {
     "enum_field_value" : 411107328,
     "name" : "android::hardware::graphics::common::V1_1::Dataspace::V0_SCRGB"
    },
    {
     "enum_field_value" : 257,
     "name" : "android::hardware::graphics::common::V1_1::Dataspace::JFIF"
    },
    {
     "enum_field_value" : 146931712,
     "name" : "android::hardware::graphics::common::V1_1::Dataspace::V0_JFIF"
    },
    {
     "enum_field_value" : 258,
     "name" : "android::hardware::graphics::common::V1_1::Dataspace::BT601_625"
    },
    {
     "enum_field_value" : 281149440,
     "name" : "android::hardware::graphics::common::V1_1::Dataspace::V0_BT601_625"
    },
    {
     "enum_field_value" : 259,
     "name" : "android::hardware::graphics::common::V1_1::Dataspace::BT601_525"
    },
    {
     "enum_field_value" : 281280512,
     "name" : "android::hardware::graphics::common::V1_1::Dataspace::V0_BT601_525"
    },
    {
     "enum_field_value" : 260,
     "name" : "android::hardware::graphics::common::V1_1::Dataspace::BT709"
    },
    {
     "enum_field_value" : 281083904,
     "name" : "android::hardware::graphics::common::V1_1::Dataspace::V0_BT709"
    },
    {
     "enum_field_value" : 139067392,
     "name" : "android::hardware::graphics::common::V1_1::Dataspace::DCI_P3_LINEAR"
    },
    {
     "enum_field_value" : 155844608,
     "name" : "android::hardware::graphics::common::V1_1::Dataspace::DCI_P3"
    },
    {
     "enum_field_value" : 139067392,
     "name" : "android::hardware::graphics::common::V1_1::Dataspace::DISPLAY_P3_LINEAR"
    },
    {
     "enum_field_value" : 143261696,
     "name" : "android::hardware::graphics::common::V1_1::Dataspace::DISPLAY_P3"
    },
    {
     "enum_field_value" : 151715840,
     "name" : "android::hardware::graphics::common::V1_1::Dataspace::ADOBE_RGB"
    },
    {
     "enum_field_value" : 138805248,
     "name" : "android::hardware::graphics::common::V1_1::Dataspace::BT2020_LINEAR"
    },
    {
     "enum_field_value" : 147193856,
     "name" : "android::hardware::graphics::common::V1_1::Dataspace::BT2020"
    },
    {
     "enum_field_value" : 163971072,
     "name" : "android::hardware::graphics::common::V1_1::Dataspace::BT2020_PQ"
    },
    {
     "enum_field_value" : 4096,
     "name" : "android::hardware::graphics::common::V1_1::Dataspace::DEPTH"
    },
    {
     "enum_field_value" : 4097,
     "name" : "android::hardware::graphics::common::V1_1::Dataspace::SENSOR"
    },
    {
     "enum_field_value" : 281411584,
     "name" : "android::hardware::graphics::common::V1_1::Dataspace::BT2020_ITU"
    },
    {
     "enum_field_value" : 298188800,
     "name" : "android::hardware::graphics::common::V1_1::Dataspace::BT2020_ITU_PQ"
    },
    {
     "enum_field_value" : 302383104,
     "name" : "android::hardware::graphics::common::V1_1::Dataspace::BT2020_ITU_HLG"
    },
    {
     "enum_field_value" : 168165376,
     "name" : "android::hardware::graphics::common::V1_1::Dataspace::BT2020_HLG"
    }
   ],
   "linker_set_key" : "_ZTIN7android8hardware8graphics6common4V1_19DataspaceE",
   "name" : "android::hardware::graphics::common::V1_1::Dataspace",
   "referenced_type" : "_ZTIN7android8hardware8graphics6common4V1_19DataspaceE",
   "self_type" : "_ZTIN7android8hardware8graphics6common4V1_19DataspaceE",
   "size" : 4,
   "source_file" : "/out/soong/.intermediates/hardware/interfaces/graphics/common/1.1/android.hardware.graphics.common@1.1_genc++_headers/gen/android/hardware/graphics/common/1.1/types.h",
   "underlying_type" : "_ZTIi"
  },
  {
   "alignment" : 8,
   "enum_fields" :
   [
    {
     "enum_field_value" : 15,
     "name" : "android::hardware::graphics::common::V1_2::BufferUsage::CPU_READ_MASK"
    },
    {
     "enum_field_value" : 0,
     "name" : "android::hardware::graphics::common::V1_2::BufferUsage::CPU_READ_NEVER"
    },
    {
     "enum_field_value" : 2,
     "name" : "android::hardware::graphics::common::V1_2::BufferUsage::CPU_READ_RARELY"
    },
    {
     "enum_field_value" : 3,
     "name" : "android::hardware::graphics::common::V1_2::BufferUsage::CPU_READ_OFTEN"
    },
    {
     "enum_field_value" : 240,
     "name" : "android::hardware::graphics::common::V1_2::BufferUsage::CPU_WRITE_MASK"
    },
    {
     "enum_field_value" : 0,
     "name" : "android::hardware::graphics::common::V1_2::BufferUsage::CPU_WRITE_NEVER"
    },
    {
     "enum_field_value" : 32,
     "name" : "android::hardware::graphics::common::V1_2::BufferUsage::CPU_WRITE_RARELY"
    },
    {
     "enum_field_value" : 48,
     "name" : "android::hardware::graphics::common::V1_2::BufferUsage::CPU_WRITE_OFTEN"
    },
    {
     "enum_field_value" : 256,
     "name" : "android::hardware::graphics::common::V1_2::BufferUsage::GPU_TEXTURE"
    },
    {
     "enum_field_value" : 512,
     "name" : "android::hardware::graphics::common::V1_2::BufferUsage::GPU_RENDER_TARGET"
    },
    {
     "enum_field_value" : 2048,
     "name" : "android::hardware::graphics::common::V1_2::BufferUsage::COMPOSER_OVERLAY"
    },
    {
     "enum_field_value" : 4096,
     "name" : "android::hardware::graphics::common::V1_2::BufferUsage::COMPOSER_CLIENT_TARGET"
    },
    {
     "enum_field_value" : 16384,
     "name" : "android::hardware::graphics::common::V1_2::BufferUsage::PROTECTED"
    },
    {
     "enum_field_value" : 32768,
     "name" : "android::hardware::graphics::common::V1_2::BufferUsage::COMPOSER_CURSOR"
    },
    {
     "enum_field_value" : 65536,
     "name" : "android::hardware::graphics::common::V1_2::BufferUsage::VIDEO_ENCODER"
    },
    {
     "enum_field_value" : 131072,
     "name" : "android::hardware::graphics::common::V1_2::BufferUsage::CAMERA_OUTPUT"
    },
    {
     "enum_field_value" : 262144,
     "name" : "android::hardware::graphics::common::V1_2::BufferUsage::CAMERA_INPUT"
    },
    {
     "enum_field_value" : 1048576,
     "name" : "android::hardware::graphics::common::V1_2::BufferUsage::RENDERSCRIPT"
    },
    {
     "enum_field_value" : 4194304,
     "name" : "android::hardware::graphics::common::V1_2::BufferUsage::VIDEO_DECODER"
    },
    {
     "enum_field_value" : 8388608,
     "name" : "android::hardware::graphics::common::V1_2::BufferUsage::SENSOR_DIRECT_DATA"
    },
    {
     "enum_field_value" : 16777216,
     "name" : "android::hardware::graphics::common::V1_2::BufferUsage::GPU_DATA_BUFFER"
    },
    {
     "enum_field_value" : -268435456,
     "name" : "android::hardware::graphics::common::V1_2::BufferUsage::VENDOR_MASK"
    },
    {
     "enum_field_value" : 0,
     "name" : "android::hardware::graphics::common::V1_2::BufferUsage::VENDOR_MASK_HI"
    },
    {
     "enum_field_value" : 33554432,
     "name" : "android::hardware::graphics::common::V1_2::BufferUsage::GPU_CUBE_MAP"
    },
    {
     "enum_field_value" : 67108864,
     "name" : "android::hardware::graphics::common::V1_2::BufferUsage::GPU_MIPMAP_COMPLETE"
    },
    {
     "enum_field_value" : 134217728,
     "name" : "android::hardware::graphics::common::V1_2::BufferUsage::HW_IMAGE_ENCODER"
    }
   ],
   "linker_set_key" : "_ZTIN7android8hardware8graphics6common4V1_211BufferUsageE",
   "name" : "android::hardware::graphics::common::V1_2::BufferUsage",
   "referenced_type" : "_ZTIN7android8hardware8graphics6common4V1_211BufferUsageE",
   "self_type" : "_ZTIN7android8hardware8graphics6common4V1_211BufferUsageE",
   "size" : 8,
   "source_file" : "/out/soong/.intermediates/hardware/interfaces/graphics/common/1.2/android.hardware.graphics.common@1.2_genc++_headers/gen/android/hardware/graphics/common/1.2/types.h",
   "underlying_type" : "_ZTIy"
  },
  {
   "alignment" : 4,
   "enum_fields" :
   [
    {
     "enum_field_value" : 1,
     "name" : "android::hardware::graphics::common::V1_2::PixelFormat::RGBA_8888"
    },
    {
     "enum_field_value" : 2,
     "name" : "android::hardware::graphics::common::V1_2::PixelFormat::RGBX_8888"
    },
    {
     "enum_field_value" : 3,
     "name" : "android::hardware::graphics::common::V1_2::PixelFormat::RGB_888"
    },
    {
     "enum_field_value" : 4,
     "name" : "android::hardware::graphics::common::V1_2::PixelFormat::RGB_565"
    },
    {
     "enum_field_value" : 5,
     "name" : "android::hardware::graphics::common::V1_2::PixelFormat::BGRA_8888"
    },
    {
     "enum_field_value" : 16,
     "name" : "android::hardware::graphics::common::V1_2::PixelFormat::YCBCR_422_SP"
    },
    {
     "enum_field_value" : 17,
     "name" : "android::hardware::graphics::common::V1_2::PixelFormat::YCRCB_420_SP"
    },
    {
     "enum_field_value" : 20,
     "name" : "android::hardware::graphics::common::V1_2::PixelFormat::YCBCR_422_I"
    },
    {
     "enum_field_value" : 22,
     "name" : "android::hardware::graphics::common::V1_2::PixelFormat::RGBA_FP16"
    },
    {
     "enum_field_value" : 32,
     "name" : "android::hardware::graphics::common::V1_2::PixelFormat::RAW16"
    },
    {
     "enum_field_value" : 33,
     "name" : "android::hardware::graphics::common::V1_2::PixelFormat::BLOB"
    },
    {
     "enum_field_value" : 34,
     "name" : "android::hardware::graphics::common::V1_2::PixelFormat::IMPLEMENTATION_DEFINED"
    },
    {
     "enum_field_value" : 35,
     "name" : "android::hardware::graphics::common::V1_2::PixelFormat::YCBCR_420_888"
    },
    {
     "enum_field_value" : 36,
     "name" : "android::hardware::graphics::common::V1_2::PixelFormat::RAW_OPAQUE"
    },
    {
     "enum_field_value" : 37,
     "name" : "android::hardware::graphics::common::V1_2::PixelFormat::RAW10"
    },
    {
     "enum_field_value" : 38,
     "name" : "android::hardware::graphics::common::V1_2::PixelFormat::RAW12"
    },
    {
     "enum_field_value" : 43,
     "name" : "android::hardware::graphics::common::V1_2::PixelFormat::RGBA_1010102"
    },
    {
     "enum_field_value" : 538982489,
     "name" : "android::hardware::graphics::common::V1_2::PixelFormat::Y8"
    },
    {
     "enum_field_value" : 540422489,
     "name" : "android::hardware::graphics::common::V1_2::PixelFormat::Y16"
    },
    {
     "enum_field_value" : 842094169,
     "name" : "android::hardware::graphics::common::V1_2::PixelFormat::YV12"
    },
    {
     "enum_field_value" : 48,
     "name" : "android::hardware::graphics::common::V1_2::PixelFormat::DEPTH_16"
    },
    {
     "enum_field_value" : 49,
     "name" : "android::hardware::graphics::common::V1_2::PixelFormat::DEPTH_24"
    },
    {
     "enum_field_value" : 50,
     "name" : "android::hardware::graphics::common::V1_2::PixelFormat::DEPTH_24_STENCIL_8"
    },
    {
     "enum_field_value" : 51,
     "name" : "android::hardware::graphics::common::V1_2::PixelFormat::DEPTH_32F"
    },
    {
     "enum_field_value" : 52,
     "name" : "android::hardware::graphics::common::V1_2::PixelFormat::DEPTH_32F_STENCIL_8"
    },
    {
     "enum_field_value" : 53,
     "name" : "android::hardware::graphics::common::V1_2::PixelFormat::STENCIL_8"
    },
    {
     "enum_field_value" : 54,
     "name" : "android::hardware::graphics::common::V1_2::PixelFormat::YCBCR_P010"
    },
    {
     "enum_field_value" : 55,
     "name" : "android::hardware::graphics::common::V1_2::PixelFormat::HSV_888"
    }
   ],
   "linker_set_key" : "_ZTIN7android8hardware8graphics6common4V1_211PixelFormatE",
   "name" : "android::hardware::graphics::common::V1_2::PixelFormat",
   "referenced_type" : "_ZTIN7android8hardware8graphics6common4V1_211PixelFormatE",
   "self_type" : "_ZTIN7android8hardware8graphics6common4V1_211PixelFormatE",
   "size" : 4,
   "source_file" : "/out/soong/.intermediates/hardware/interfaces/graphics/common/1.2/android.hardware.graphics.common@1.2_genc++_headers/gen/android/hardware/graphics/common/1.2/types.h",
   "underlying_type" : "_ZTIi"
  },
  {
   "alignment" : 4,
   "enum_fields" :
   [
    {
     "enum_field_value" : 1,
     "name" : "android::hardware::graphics::common::V1_2::Hdr::DOLBY_VISION"
    },
    {
     "enum_field_value" : 2,
     "name" : "android::hardware::graphics::common::V1_2::Hdr::HDR10"
    },
    {
     "enum_field_value" : 3,
     "name" : "android::hardware::graphics::common::V1_2::Hdr::HLG"
    },
    {
     "enum_field_value" : 4,
     "name" : "android::hardware::graphics::common::V1_2::Hdr::HDR10_PLUS"
    }
   ],
   "linker_set_key" : "_ZTIN7android8hardware8graphics6common4V1_23HdrE",
   "name" : "android::hardware::graphics::common::V1_2::Hdr",
   "referenced_type" : "_ZTIN7android8hardware8graphics6common4V1_23HdrE",
   "self_type" : "_ZTIN7android8hardware8graphics6common4V1_23HdrE",
   "size" : 4,
   "source_file" : "/out/soong/.intermediates/hardware/interfaces/graphics/common/1.2/android.hardware.graphics.common@1.2_genc++_headers/gen/android/hardware/graphics/common/1.2/types.h",
   "underlying_type" : "_ZTIi"
  },
  {
   "alignment" : 4,
   "enum_fields" :
   [
    {
     "enum_field_value" : 0,
     "name" : "android::hardware::graphics::common::V1_2::ColorMode::NATIVE"
    },
    {
     "enum_field_value" : 1,
     "name" : "android::hardware::graphics::common::V1_2::ColorMode::STANDARD_BT601_625"
    },
    {
     "enum_field_value" : 2,
     "name" : "android::hardware::graphics::common::V1_2::ColorMode::STANDARD_BT601_625_UNADJUSTED"
    },
    {
     "enum_field_value" : 3,
     "name" : "android::hardware::graphics::common::V1_2::ColorMode::STANDARD_BT601_525"
    },
    {
     "enum_field_value" : 4,
     "name" : "android::hardware::graphics::common::V1_2::ColorMode::STANDARD_BT601_525_UNADJUSTED"
    },
    {
     "enum_field_value" : 5,
     "name" : "android::hardware::graphics::common::V1_2::ColorMode::STANDARD_BT709"
    },
    {
     "enum_field_value" : 6,
     "name" : "android::hardware::graphics::common::V1_2::ColorMode::DCI_P3"
    },
    {
     "enum_field_value" : 7,
     "name" : "android::hardware::graphics::common::V1_2::ColorMode::SRGB"
    },
    {
     "enum_field_value" : 8,
     "name" : "android::hardware::graphics::common::V1_2::ColorMode::ADOBE_RGB"
    },
    {
     "enum_field_value" : 9,
     "name" : "android::hardware::graphics::common::V1_2::ColorMode::DISPLAY_P3"
    },
    {
     "enum_field_value" : 10,
     "name" : "android::hardware::graphics::common::V1_2::ColorMode::BT2020"
    },
    {
     "enum_field_value" : 11,
     "name" : "android::hardware::graphics::common::V1_2::ColorMode::BT2100_PQ"
    },
    {
     "enum_field_value" : 12,
     "name" : "android::hardware::graphics::common::V1_2::ColorMode::BT2100_HLG"
    },
    {
     "enum_field_value" : 13,
     "name" : "android::hardware::graphics::common::V1_2::ColorMode::DISPLAY_BT2020"
    }
   ],
   "linker_set_key" : "_ZTIN7android8hardware8graphics6common4V1_29ColorModeE",
   "name" : "android::hardware::graphics::common::V1_2::ColorMode",
   "referenced_type" : "_ZTIN7android8hardware8graphics6common4V1_29ColorModeE",
   "self_type" : "_ZTIN7android8hardware8graphics6common4V1_29ColorModeE",
   "size" : 4,
   "source_file" : "/out/soong/.intermediates/hardware/interfaces/graphics/common/1.2/android.hardware.graphics.common@1.2_genc++_headers/gen/android/hardware/graphics/common/1.2/types.h",
   "underlying_type" : "_ZTIi"
  },
  {
   "alignment" : 4,
   "enum_fields" :
   [
    {
     "enum_field_value" : 0,
     "name" : "android::hardware::graphics::common::V1_2::Dataspace::UNKNOWN"
    },
    {
     "enum_field_value" : 1,
     "name" : "android::hardware::graphics::common::V1_2::Dataspace::ARBITRARY"
    },
    {
     "enum_field_value" : 16,
     "name" : "android::hardware::graphics::common::V1_2::Dataspace::STANDARD_SHIFT"
    },
    {
     "enum_field_value" : 4128768,
     "name" : "android::hardware::graphics::common::V1_2::Dataspace::STANDARD_MASK"
    },
    {
     "enum_field_value" : 0,
     "name" : "android::hardware::graphics::common::V1_2::Dataspace::STANDARD_UNSPECIFIED"
    },
    {
     "enum_field_value" : 65536,
     "name" : "android::hardware::graphics::common::V1_2::Dataspace::STANDARD_BT709"
    },
    {
     "enum_field_value" : 131072,
     "name" : "android::hardware::graphics::common::V1_2::Dataspace::STANDARD_BT601_625"
    },
    {
     "enum_field_value" : 196608,
     "name" : "android::hardware::graphics::common::V1_2::Dataspace::STANDARD_BT601_625_UNADJUSTED"
    },
    {
     "enum_field_value" : 262144,
     "name" : "android::hardware::graphics::common::V1_2::Dataspace::STANDARD_BT601_525"
    },
    {
     "enum_field_value" : 327680,
     "name" : "android::hardware::graphics::common::V1_2::Dataspace::STANDARD_BT601_525_UNADJUSTED"
    },
    {
     "enum_field_value" : 393216,
     "name" : "android::hardware::graphics::common::V1_2::Dataspace::STANDARD_BT2020"
    },
    {
     "enum_field_value" : 458752,
     "name" : "android::hardware::graphics::common::V1_2::Dataspace::STANDARD_BT2020_CONSTANT_LUMINANCE"
    },
    {
     "enum_field_value" : 524288,
     "name" : "android::hardware::graphics::common::V1_2::Dataspace::STANDARD_BT470M"
    },
    {
     "enum_field_value" : 589824,
     "name" : "android::hardware::graphics::common::V1_2::Dataspace::STANDARD_FILM"
    },
    {
     "enum_field_value" : 655360,
     "name" : "android::hardware::graphics::common::V1_2::Dataspace::STANDARD_DCI_P3"
    },
    {
     "enum_field_value" : 720896,
     "name" : "android::hardware::graphics::common::V1_2::Dataspace::STANDARD_ADOBE_RGB"
    },
    {
     "enum_field_value" : 22,
     "name" : "android::hardware::graphics::common::V1_2::Dataspace::TRANSFER_SHIFT"
    },
    {
     "enum_field_value" : 130023424,
     "name" : "android::hardware::graphics::common::V1_2::Dataspace::TRANSFER_MASK"
    },
    {
     "enum_field_value" : 0,
     "name" : "android::hardware::graphics::common::V1_2::Dataspace::TRANSFER_UNSPECIFIED"
    },
    {
     "enum_field_value" : 4194304,
     "name" : "android::hardware::graphics::common::V1_2::Dataspace::TRANSFER_LINEAR"
    },
    {
     "enum_field_value" : 8388608,
     "name" : "android::hardware::graphics::common::V1_2::Dataspace::TRANSFER_SRGB"
    },
    {
     "enum_field_value" : 12582912,
     "name" : "android::hardware::graphics::common::V1_2::Dataspace::TRANSFER_SMPTE_170M"
    },
    {
     "enum_field_value" : 16777216,
     "name" : "android::hardware::graphics::common::V1_2::Dataspace::TRANSFER_GAMMA2_2"
    },
    {
     "enum_field_value" : 20971520,
     "name" : "android::hardware::graphics::common::V1_2::Dataspace::TRANSFER_GAMMA2_6"
    },
    {
     "enum_field_value" : 25165824,
     "name" : "android::hardware::graphics::common::V1_2::Dataspace::TRANSFER_GAMMA2_8"
    },
    {
     "enum_field_value" : 29360128,
     "name" : "android::hardware::graphics::common::V1_2::Dataspace::TRANSFER_ST2084"
    },
    {
     "enum_field_value" : 33554432,
     "name" : "android::hardware::graphics::common::V1_2::Dataspace::TRANSFER_HLG"
    },
    {
     "enum_field_value" : 27,
     "name" : "android::hardware::graphics::common::V1_2::Dataspace::RANGE_SHIFT"
    },
    {
     "enum_field_value" : 939524096,
     "name" : "android::hardware::graphics::common::V1_2::Dataspace::RANGE_MASK"
    },
    {
     "enum_field_value" : 0,
     "name" : "android::hardware::graphics::common::V1_2::Dataspace::RANGE_UNSPECIFIED"
    },
    {
     "enum_field_value" : 134217728,
     "name" : "android::hardware::graphics::common::V1_2::Dataspace::RANGE_FULL"
    },
    {
     "enum_field_value" : 268435456,
     "name" : "android::hardware::graphics::common::V1_2::Dataspace::RANGE_LIMITED"
    },
    {
     "enum_field_value" : 402653184,
     "name" : "android::hardware::graphics::common::V1_2::Dataspace::RANGE_EXTENDED"
    },
    {
     "enum_field_value" : 512,
     "name" : "android::hardware::graphics::common::V1_2::Dataspace::SRGB_LINEAR"
    },
    {
     "enum_field_value" : 138477568,
     "name" : "android::hardware::graphics::common::V1_2::Dataspace::V0_SRGB_LINEAR"
    },
    {
     "enum_field_value" : 406913024,
     "name" : "android::hardware::graphics::common::V1_2::Dataspace::V0_SCRGB_LINEAR"
    },
    {
     "enum_field_value" : 513,
     "name" : "android::hardware::graphics::common::V1_2::Dataspace::SRGB"
    },
    {
     "enum_field_value" : 142671872,
     "name" : "android::hardware::graphics::common::V1_2::Dataspace::V0_SRGB"
    },
    {
     "enum_field_value" : 411107328,
     "name" : "android::hardware::graphics::common::V1_2::Dataspace::V0_SCRGB"
    },
    {
     "enum_field_value" : 257,
     "name" : "android::hardware::graphics::common::V1_2::Dataspace::JFIF"
    },
    {
     "enum_field_value" : 146931712,
     "name" : "android::hardware::graphics::common::V1_2::Dataspace::V0_JFIF"
    },
    {
     "enum_field_value" : 258,
     "name" : "android::hardware::graphics::common::V1_2::Dataspace::BT601_625"
    },
    {
     "enum_field_value" : 281149440,
     "name" : "android::hardware::graphics::common::V1_2::Dataspace::V0_BT601_625"
    },
    {
     "enum_field_value" : 259,
     "name" : "android::hardware::graphics::common::V1_2::Dataspace::BT601_525"
    },
    {
     "enum_field_value" : 281280512,
     "name" : "android::hardware::graphics::common::V1_2::Dataspace::V0_BT601_525"
    },
    {
     "enum_field_value" : 260,
     "name" : "android::hardware::graphics::common::V1_2::Dataspace::BT709"
    },
    {
     "enum_field_value" : 281083904,
     "name" : "android::hardware::graphics::common::V1_2::Dataspace::V0_BT709"
    },
    {
     "enum_field_value" : 139067392,
     "name" : "android::hardware::graphics::common::V1_2::Dataspace::DCI_P3_LINEAR"
    },
    {
     "enum_field_value" : 155844608,
     "name" : "android::hardware::graphics::common::V1_2::Dataspace::DCI_P3"
    },
    {
     "enum_field_value" : 139067392,
     "name" : "android::hardware::graphics::common::V1_2::Dataspace::DISPLAY_P3_LINEAR"
    },
    {
     "enum_field_value" : 143261696,
     "name" : "android::hardware::graphics::common::V1_2::Dataspace::DISPLAY_P3"
    },
    {
     "enum_field_value" : 151715840,
     "name" : "android::hardware::graphics::common::V1_2::Dataspace::ADOBE_RGB"
    },
    {
     "enum_field_value" : 138805248,
     "name" : "android::hardware::graphics::common::V1_2::Dataspace::BT2020_LINEAR"
    },
    {
     "enum_field_value" : 147193856,
     "name" : "android::hardware::graphics::common::V1_2::Dataspace::BT2020"
    },
    {
     "enum_field_value" : 163971072,
     "name" : "android::hardware::graphics::common::V1_2::Dataspace::BT2020_PQ"
    },
    {
     "enum_field_value" : 4096,
     "name" : "android::hardware::graphics::common::V1_2::Dataspace::DEPTH"
    },
    {
     "enum_field_value" : 4097,
     "name" : "android::hardware::graphics::common::V1_2::Dataspace::SENSOR"
    },
    {
     "enum_field_value" : 281411584,
     "name" : "android::hardware::graphics::common::V1_2::Dataspace::BT2020_ITU"
    },
    {
     "enum_field_value" : 298188800,
     "name" : "android::hardware::graphics::common::V1_2::Dataspace::BT2020_ITU_PQ"
    },
    {
     "enum_field_value" : 302383104,
     "name" : "android::hardware::graphics::common::V1_2::Dataspace::BT2020_ITU_HLG"
    },
    {
     "enum_field_value" : 168165376,
     "name" : "android::hardware::graphics::common::V1_2::Dataspace::BT2020_HLG"
    },
    {
     "enum_field_value" : 142999552,
     "name" : "android::hardware::graphics::common::V1_2::Dataspace::DISPLAY_BT2020"
    },
    {
     "enum_field_value" : 4098,
     "name" : "android::hardware::graphics::common::V1_2::Dataspace::DYNAMIC_DEPTH"
    },
    {
     "enum_field_value" : 4099,
     "name" : "android::hardware::graphics::common::V1_2::Dataspace::JPEG_APP_SEGMENTS"
    },
    {
     "enum_field_value" : 4100,
     "name" : "android::hardware::graphics::common::V1_2::Dataspace::HEIF"
    }
   ],
   "linker_set_key" : "_ZTIN7android8hardware8graphics6common4V1_29DataspaceE",
   "name" : "android::hardware::graphics::common::V1_2::Dataspace",
   "referenced_type" : "_ZTIN7android8hardware8graphics6common4V1_29DataspaceE",
   "self_type" : "_ZTIN7android8hardware8graphics6common4V1_29DataspaceE",
   "size" : 4,
   "source_file" : "/out/soong/.intermediates/hardware/interfaces/graphics/common/1.2/android.hardware.graphics.common@1.2_genc++_headers/gen/android/hardware/graphics/common/1.2/types.h",
   "underlying_type" : "_ZTIi"
  },
  {
   "alignment" : 4,
   "enum_fields" :
   [
    {
     "enum_field_value" : 0,
     "name" : "android::Condition::WAKE_UP_ONE"
    },
    {
     "enum_field_value" : 1,
     "name" : "android::Condition::WAKE_UP_ALL"
    }
   ],
   "linker_set_key" : "_ZTIN7android9Condition10WakeUpTypeE",
   "name" : "android::Condition::WakeUpType",
   "referenced_type" : "_ZTIN7android9Condition10WakeUpTypeE",
   "self_type" : "_ZTIN7android9Condition10WakeUpTypeE",
   "size" : 4,
   "source_file" : "/system/core/libutils/include/utils/Condition.h",
   "underlying_type" : "_ZTIj"
  },
  {
   "alignment" : 4,
   "enum_fields" :
   [
    {
     "enum_field_value" : 0,
     "name" : "android::Condition::PRIVATE"
    },
    {
     "enum_field_value" : 1,
     "name" : "android::Condition::SHARED"
    }
   ],
   "linker_set_key" : "_ZTIN7android9Condition8$PRIVATEE",
   "name" : "android::Condition::(anonymous enum at system/core/libutils/include/utils/Condition.h:54:5)",
   "referenced_type" : "_ZTIN7android9Condition8$PRIVATEE",
   "self_type" : "_ZTIN7android9Condition8$PRIVATEE",
   "size" : 4,
   "source_file" : "/system/core/libutils/include/utils/Condition.h",
   "underlying_type" : "_ZTIj"
  }
 ],
 "function_types" :
 [
  {
   "alignment" : 4,
   "linker_set_key" : "_ZTIFbRKN7android8String16ERKNS_2spINS_8hardware7IBinderEEEPvE",
   "name" : "bool (const android::String16 &, const android::sp<android::hardware::IBinder> &, void *)",
   "parameters" :
   [
    {
     "referenced_type" : "_ZTIRKN7android8String16E"
    },
    {
     "referenced_type" : "_ZTIRKN7android2spINS_8hardware7IBinderEEE"
    },
    {
     "referenced_type" : "_ZTIPv"
    }
   ],
   "referenced_type" : "_ZTIFbRKN7android8String16ERKNS_2spINS_8hardware7IBinderEEEPvE",
   "return_type" : "_ZTIb",
   "self_type" : "_ZTIFbRKN7android8String16ERKNS_2spINS_8hardware7IBinderEEEPvE",
   "source_file" : "/system/libhwbinder/include/hwbinder/ProcessState.h"
  },
  {
   "alignment" : 4,
   "linker_set_key" : "_ZTIFiPvE",
   "name" : "int (void *)",
   "parameters" :
   [
    {
     "referenced_type" : "_ZTIPv"
    }
   ],
   "referenced_type" : "_ZTIFiPvE",
   "return_type" : "_ZTIi",
   "self_type" : "_ZTIFiPvE",
   "source_file" : "/system/core/libutils/include/utils/AndroidThreads.h"
  },
  {
   "alignment" : 4,
   "linker_set_key" : "_ZTIFvPN7android8hardware6ParcelEPKhjPKyjPvE",
   "name" : "void (android::hardware::Parcel *, const unsigned char *, unsigned int, const unsigned long long *, unsigned int, void *)",
   "parameters" :
   [
    {
     "referenced_type" : "_ZTIPN7android8hardware6ParcelE"
    },
    {
     "referenced_type" : "_ZTIPKh"
    },
    {
     "referenced_type" : "_ZTIj"
    },
    {
     "referenced_type" : "_ZTIPKy"
    },
    {
     "referenced_type" : "_ZTIj"
    },
    {
     "referenced_type" : "_ZTIPv"
    }
   ],
   "referenced_type" : "_ZTIFvPN7android8hardware6ParcelEPKhjPKyjPvE",
   "return_type" : "_ZTIv",
   "self_type" : "_ZTIFvPN7android8hardware6ParcelEPKhjPKyjPvE",
   "source_file" : "/system/libhwbinder/include/hwbinder/Parcel.h"
  }
 ],
 "functions" :
 [
  {
   "function_name" : "android::hardware::automotive::sv::V1_0::ISurroundViewStream::getService",
   "linker_set_key" : "_ZN7android8hardware10automotive2sv4V1_019ISurroundViewStream10getServiceERKNSt3__112basic_stringIcNS5_11char_traitsIcEENS5_9allocatorIcEEEEb",
   "parameters" :
   [
    {
     "default_arg" : true,
     "referenced_type" : "_ZTIRKNSt3__112basic_stringIcNS_11char_traitsIcEENS_9allocatorIcEEEE"
    },
    {
     "default_arg" : true,
     "referenced_type" : "_ZTIb"
    }
   ],
   "return_type" : "_ZTIN7android2spINS_8hardware10automotive2sv4V1_019ISurroundViewStreamEEE",
   "source_file" : "/out/soong/.intermediates/hardware/interfaces/automotive/sv/1.0/android.hardware.automotive.sv@1.0_genc++_headers/gen/android/hardware/automotive/sv/1.0/ISurroundViewStream.h"
  },
  {
   "function_name" : "android::hardware::automotive::sv::V1_0::ISurroundViewStream::linkToDeath",
   "linker_set_key" : "_ZN7android8hardware10automotive2sv4V1_019ISurroundViewStream11linkToDeathERKNS_2spINS0_20hidl_death_recipientEEEy",
   "parameters" :
   [
    {
     "is_this_ptr" : true,
     "referenced_type" : "_ZTIPN7android8hardware10automotive2sv4V1_019ISurroundViewStreamE"
    },
    {
     "referenced_type" : "_ZTIRKN7android2spINS_8hardware20hidl_death_recipientEEE"
    },
    {
     "referenced_type" : "_ZTIy"
    }
   ],
   "return_type" : "_ZTIN7android8hardware6ReturnIbEE",
   "source_file" : "/out/soong/.intermediates/hardware/interfaces/automotive/sv/1.0/android.hardware.automotive.sv@1.0_genc++_headers/gen/android/hardware/automotive/sv/1.0/ISurroundViewStream.h"
  },
  {
   "function_name" : "android::hardware::automotive::sv::V1_0::ISurroundViewStream::getDebugInfo",
   "linker_set_key" : "_ZN7android8hardware10automotive2sv4V1_019ISurroundViewStream12getDebugInfoENSt3__18functionIFvRKNS_4hidl4base4V1_09DebugInfoEEEE",
   "parameters" :
   [
    {
     "is_this_ptr" : true,
     "referenced_type" : "_ZTIPN7android8hardware10automotive2sv4V1_019ISurroundViewStreamE"
    },
    {
     "referenced_type" : "_ZTINSt3__18functionIFvRKN7android4hidl4base4V1_09DebugInfoEEEE"
    }
   ],
   "return_type" : "_ZTIN7android8hardware6ReturnIvEE",
   "source_file" : "/out/soong/.intermediates/hardware/interfaces/automotive/sv/1.0/android.hardware.automotive.sv@1.0_genc++_headers/gen/android/hardware/automotive/sv/1.0/ISurroundViewStream.h"
  },
  {
   "function_name" : "android::hardware::automotive::sv::V1_0::ISurroundViewStream::getHashChain",
   "linker_set_key" : "_ZN7android8hardware10automotive2sv4V1_019ISurroundViewStream12getHashChainENSt3__18functionIFvRKNS0_8hidl_vecINS0_10hidl_arrayIhLj32EJEEEEEEEE",
   "parameters" :
   [
    {
     "is_this_ptr" : true,
     "referenced_type" : "_ZTIPN7android8hardware10automotive2sv4V1_019ISurroundViewStreamE"
    },
    {
     "referenced_type" : "_ZTINSt3__18functionIFvRKN7android8hardware8hidl_vecINS2_10hidl_arrayIhLj32EJEEEEEEEE"
    }
   ],
   "return_type" : "_ZTIN7android8hardware6ReturnIvEE",
   "source_file" : "/out/soong/.intermediates/hardware/interfaces/automotive/sv/1.0/android.hardware.automotive.sv@1.0_genc++_headers/gen/android/hardware/automotive/sv/1.0/ISurroundViewStream.h"
  },
  {
   "function_name" : "android::hardware::automotive::sv::V1_0::ISurroundViewStream::tryGetService",
   "linker_set_key" : "_ZN7android8hardware10automotive2sv4V1_019ISurroundViewStream13tryGetServiceERKNSt3__112basic_stringIcNS5_11char_traitsIcEENS5_9allocatorIcEEEEb",
   "parameters" :
   [
    {
     "default_arg" : true,
     "referenced_type" : "_ZTIRKNSt3__112basic_stringIcNS_11char_traitsIcEENS_9allocatorIcEEEE"
    },
    {
     "default_arg" : true,
     "referenced_type" : "_ZTIb"
    }
   ],
   "return_type" : "_ZTIN7android2spINS_8hardware10automotive2sv4V1_019ISurroundViewStreamEEE",
   "source_file" : "/out/soong/.intermediates/hardware/interfaces/automotive/sv/1.0/android.hardware.automotive.sv@1.0_genc++_headers/gen/android/hardware/automotive/sv/1.0/ISurroundViewStream.h"
  },
  {
   "function_name" : "android::hardware::automotive::sv::V1_0::ISurroundViewStream::unlinkToDeath",
   "linker_set_key" : "_ZN7android8hardware10automotive2sv4V1_019ISurroundViewStream13unlinkToDeathERKNS_2spINS0_20hidl_death_recipientEEE",
   "parameters" :
   [
    {
     "is_this_ptr" : true,
     "referenced_type" : "_ZTIPN7android8hardware10automotive2sv4V1_019ISurroundViewStreamE"
    },
    {
     "referenced_type" : "_ZTIRKN7android2spINS_8hardware20hidl_death_recipientEEE"
    }
   ],
   "return_type" : "_ZTIN7android8hardware6ReturnIbEE",
   "source_file" : "/out/soong/.intermediates/hardware/interfaces/automotive/sv/1.0/android.hardware.automotive.sv@1.0_genc++_headers/gen/android/hardware/automotive/sv/1.0/ISurroundViewStream.h"
  },
  {
   "function_name" : "android::hardware::automotive::sv::V1_0::ISurroundViewStream::interfaceChain",
   "linker_set_key" : "_ZN7android8hardware10automotive2sv4V1_019ISurroundViewStream14interfaceChainENSt3__18functionIFvRKNS0_8hidl_vecINS0_11hidl_stringEEEEEE",
   "parameters" :
   [
    {
     "is_this_ptr" : true,
     "referenced_type" : "_ZTIPN7android8hardware10automotive2sv4V1_019ISurroundViewStreamE"
    },
    {
     "referenced_type" : "_ZTINSt3__18functionIFvRKN7android8hardware8hidl_vecINS2_11hidl_stringEEEEEE"
    }
   ],
   "return_type" : "_ZTIN7android8hardware6ReturnIvEE",
   "source_file" : "/out/soong/.intermediates/hardware/interfaces/automotive/sv/1.0/android.hardware.automotive.sv@1.0_genc++_headers/gen/android/hardware/automotive/sv/1.0/ISurroundViewStream.h"
  },
  {
   "function_name" : "android::hardware::automotive::sv::V1_0::ISurroundViewStream::registerAsService",
   "linker_set_key" : "_ZN7android8hardware10automotive2sv4V1_019ISurroundViewStream17registerAsServiceERKNSt3__112basic_stringIcNS5_11char_traitsIcEENS5_9allocatorIcEEEE",
   "parameters" :
   [
    {
     "is_this_ptr" : true,
     "referenced_type" : "_ZTIPN7android8hardware10automotive2sv4V1_019ISurroundViewStreamE"
    },
    {
     "default_arg" : true,
     "referenced_type" : "_ZTIRKNSt3__112basic_stringIcNS_11char_traitsIcEENS_9allocatorIcEEEE"
    }
   ],
   "return_type" : "_ZTIi",
   "source_file" : "/out/soong/.intermediates/hardware/interfaces/automotive/sv/1.0/android.hardware.automotive.sv@1.0_genc++_headers/gen/android/hardware/automotive/sv/1.0/ISurroundViewStream.h"
  },
  {
   "function_name" : "android::hardware::automotive::sv::V1_0::ISurroundViewStream::interfaceDescriptor",
   "linker_set_key" : "_ZN7android8hardware10automotive2sv4V1_019ISurroundViewStream19interfaceDescriptorENSt3__18functionIFvRKNS0_11hidl_stringEEEE",
   "parameters" :
   [
    {
     "is_this_ptr" : true,
     "referenced_type" : "_ZTIPN7android8hardware10automotive2sv4V1_019ISurroundViewStreamE"
    },
    {
     "referenced_type" : "_ZTINSt3__18functionIFvRKN7android8hardware11hidl_stringEEEE"
    }
   ],
   "return_type" : "_ZTIN7android8hardware6ReturnIvEE",
   "source_file" : "/out/soong/.intermediates/hardware/interfaces/automotive/sv/1.0/android.hardware.automotive.sv@1.0_genc++_headers/gen/android/hardware/automotive/sv/1.0/ISurroundViewStream.h"
  },
  {
   "function_name" : "android::hardware::automotive::sv::V1_0::ISurroundViewStream::notifySyspropsChanged",
   "linker_set_key" : "_ZN7android8hardware10automotive2sv4V1_019ISurroundViewStream21notifySyspropsChangedEv",
   "parameters" :
   [
    {
     "is_this_ptr" : true,
     "referenced_type" : "_ZTIPN7android8hardware10automotive2sv4V1_019ISurroundViewStreamE"
    }
   ],
   "return_type" : "_ZTIN7android8hardware6ReturnIvEE",
   "source_file" : "/out/soong/.intermediates/hardware/interfaces/automotive/sv/1.0/android.hardware.automotive.sv@1.0_genc++_headers/gen/android/hardware/automotive/sv/1.0/ISurroundViewStream.h"
  },
  {
   "function_name" : "android::hardware::automotive::sv::V1_0::ISurroundViewStream::setHALInstrumentation",
   "linker_set_key" : "_ZN7android8hardware10automotive2sv4V1_019ISurroundViewStream21setHALInstrumentationEv",
   "parameters" :
   [
    {
     "is_this_ptr" : true,
     "referenced_type" : "_ZTIPN7android8hardware10automotive2sv4V1_019ISurroundViewStreamE"
    }
   ],
   "return_type" : "_ZTIN7android8hardware6ReturnIvEE",
   "source_file" : "/out/soong/.intermediates/hardware/interfaces/automotive/sv/1.0/android.hardware.automotive.sv@1.0_genc++_headers/gen/android/hardware/automotive/sv/1.0/ISurroundViewStream.h"
  },
  {
   "function_name" : "android::hardware::automotive::sv::V1_0::ISurroundViewStream::registerForNotifications",
   "linker_set_key" : "_ZN7android8hardware10automotive2sv4V1_019ISurroundViewStream24registerForNotificationsERKNSt3__112basic_stringIcNS5_11char_traitsIcEENS5_9allocatorIcEEEERKNS_2spINS_4hidl7manager4V1_020IServiceNotificationEEE",
   "parameters" :
   [
    {
     "referenced_type" : "_ZTIRKNSt3__112basic_stringIcNS_11char_traitsIcEENS_9allocatorIcEEEE"
    },
    {
     "referenced_type" : "_ZTIRKN7android2spINS_4hidl7manager4V1_020IServiceNotificationEEE"
    }
   ],
   "return_type" : "_ZTIb",
   "source_file" : "/out/soong/.intermediates/hardware/interfaces/automotive/sv/1.0/android.hardware.automotive.sv@1.0_genc++_headers/gen/android/hardware/automotive/sv/1.0/ISurroundViewStream.h"
  },
  {
   "function_name" : "android::hardware::automotive::sv::V1_0::ISurroundViewStream::ping",
   "linker_set_key" : "_ZN7android8hardware10automotive2sv4V1_019ISurroundViewStream4pingEv",
   "parameters" :
   [
    {
     "is_this_ptr" : true,
     "referenced_type" : "_ZTIPN7android8hardware10automotive2sv4V1_019ISurroundViewStreamE"
    }
   ],
   "return_type" : "_ZTIN7android8hardware6ReturnIvEE",
   "source_file" : "/out/soong/.intermediates/hardware/interfaces/automotive/sv/1.0/android.hardware.automotive.sv@1.0_genc++_headers/gen/android/hardware/automotive/sv/1.0/ISurroundViewStream.h"
  },
  {
   "function_name" : "android::hardware::automotive::sv::V1_0::ISurroundViewStream::debug",
   "linker_set_key" : "_ZN7android8hardware10automotive2sv4V1_019ISurroundViewStream5debugERKNS0_11hidl_handleERKNS0_8hidl_vecINS0_11hidl_stringEEE",
   "parameters" :
   [
    {
     "is_this_ptr" : true,
     "referenced_type" : "_ZTIPN7android8hardware10automotive2sv4V1_019ISurroundViewStreamE"
    },
    {
     "referenced_type" : "_ZTIRKN7android8hardware11hidl_handleE"
    },
    {
     "referenced_type" : "_ZTIRKN7android8hardware8hidl_vecINS0_11hidl_stringEEE"
    }
   ],
   "return_type" : "_ZTIN7android8hardware6ReturnIvEE",
   "source_file" : "/out/soong/.intermediates/hardware/interfaces/automotive/sv/1.0/android.hardware.automotive.sv@1.0_genc++_headers/gen/android/hardware/automotive/sv/1.0/ISurroundViewStream.h"
  },
  {
   "function_name" : "android::hardware::automotive::sv::V1_0::ISurroundViewStream::castFrom",
   "linker_set_key" : "_ZN7android8hardware10automotive2sv4V1_019ISurroundViewStream8castFromERKNS_2spINS_4hidl4base4V1_05IBaseEEEb",
   "parameters" :
   [
    {
     "referenced_type" : "_ZTIRKN7android2spINS_4hidl4base4V1_05IBaseEEE"
    },
    {
     "default_arg" : true,
     "referenced_type" : "_ZTIb"
    }
   ],
   "return_type" : "_ZTIN7android8hardware6ReturnINS_2spINS0_10automotive2sv4V1_019ISurroundViewStreamEEEEE",
   "source_file" : "/out/soong/.intermediates/hardware/interfaces/automotive/sv/1.0/android.hardware.automotive.sv@1.0_genc++_headers/gen/android/hardware/automotive/sv/1.0/ISurroundViewStream.h"
  },
  {
   "function_name" : "android::hardware::automotive::sv::V1_0::ISurroundViewStream::castFrom",
   "linker_set_key" : "_ZN7android8hardware10automotive2sv4V1_019ISurroundViewStream8castFromERKNS_2spIS4_EEb",
   "parameters" :
   [
    {
     "referenced_type" : "_ZTIRKN7android2spINS_8hardware10automotive2sv4V1_019ISurroundViewStreamEEE"
    },
    {
     "default_arg" : true,
     "referenced_type" : "_ZTIb"
    }
   ],
   "return_type" : "_ZTIN7android8hardware6ReturnINS_2spINS0_10automotive2sv4V1_019ISurroundViewStreamEEEEE",
   "source_file" : "/out/soong/.intermediates/hardware/interfaces/automotive/sv/1.0/android.hardware.automotive.sv@1.0_genc++_headers/gen/android/hardware/automotive/sv/1.0/ISurroundViewStream.h"
  },
  {
   "access" : "private",
   "function_name" : "android::hardware::automotive::sv::V1_0::BsSurroundViewStream::addOnewayTask",
   "linker_set_key" : "_ZN7android8hardware10automotive2sv4V1_020BsSurroundViewStream13addOnewayTaskENSt3__18functionIFvvEEE",
   "parameters" :
   [
    {
     "is_this_ptr" : true,
     "referenced_type" : "_ZTIPN7android8hardware10automotive2sv4V1_020BsSurroundViewStreamE"
    },
    {
     "referenced_type" : "_ZTINSt3__18functionIFvvEEE"
    }
   ],
   "return_type" : "_ZTIN7android8hardware6ReturnIvEE",
   "source_file" : "/out/soong/.intermediates/hardware/interfaces/automotive/sv/1.0/android.hardware.automotive.sv@1.0_genc++_headers/gen/android/hardware/automotive/sv/1.0/BsSurroundViewStream.h"
  },
  {
   "function_name" : "android::hardware::automotive::sv::V1_0::BsSurroundViewStream::BsSurroundViewStream",
   "linker_set_key" : "_ZN7android8hardware10automotive2sv4V1_020BsSurroundViewStreamC1ENS_2spINS3_19ISurroundViewStreamEEE",
   "parameters" :
   [
    {
     "is_this_ptr" : true,
     "referenced_type" : "_ZTIPN7android8hardware10automotive2sv4V1_020BsSurroundViewStreamE"
    },
    {
     "referenced_type" : "_ZTIKN7android2spINS_8hardware10automotive2sv4V1_019ISurroundViewStreamEEE"
    }
   ],
   "return_type" : "_ZTIv",
   "source_file" : "/out/soong/.intermediates/hardware/interfaces/automotive/sv/1.0/android.hardware.automotive.sv@1.0_genc++_headers/gen/android/hardware/automotive/sv/1.0/BsSurroundViewStream.h"
  },
  {
   "function_name" : "android::hardware::automotive::sv::V1_0::BsSurroundViewStream::BsSurroundViewStream",
   "linker_set_key" : "_ZN7android8hardware10automotive2sv4V1_020BsSurroundViewStreamC2ENS_2spINS3_19ISurroundViewStreamEEE",
   "parameters" :
   [
    {
     "is_this_ptr" : true,
     "referenced_type" : "_ZTIPN7android8hardware10automotive2sv4V1_020BsSurroundViewStreamE"
    },
    {
     "referenced_type" : "_ZTIKN7android2spINS_8hardware10automotive2sv4V1_019ISurroundViewStreamEEE"
    }
   ],
   "return_type" : "_ZTIv",
   "source_file" : "/out/soong/.intermediates/hardware/interfaces/automotive/sv/1.0/android.hardware.automotive.sv@1.0_genc++_headers/gen/android/hardware/automotive/sv/1.0/BsSurroundViewStream.h"
  },
  {
   "function_name" : "android::hardware::automotive::sv::V1_0::ISurroundViewService::getService",
   "linker_set_key" : "_ZN7android8hardware10automotive2sv4V1_020ISurroundViewService10getServiceERKNSt3__112basic_stringIcNS5_11char_traitsIcEENS5_9allocatorIcEEEEb",
   "parameters" :
   [
    {
     "default_arg" : true,
     "referenced_type" : "_ZTIRKNSt3__112basic_stringIcNS_11char_traitsIcEENS_9allocatorIcEEEE"
    },
    {
     "default_arg" : true,
     "referenced_type" : "_ZTIb"
    }
   ],
   "return_type" : "_ZTIN7android2spINS_8hardware10automotive2sv4V1_020ISurroundViewServiceEEE",
   "source_file" : "/out/soong/.intermediates/hardware/interfaces/automotive/sv/1.0/android.hardware.automotive.sv@1.0_genc++_headers/gen/android/hardware/automotive/sv/1.0/ISurroundViewService.h"
  },
  {
   "function_name" : "android::hardware::automotive::sv::V1_0::ISurroundViewService::linkToDeath",
   "linker_set_key" : "_ZN7android8hardware10automotive2sv4V1_020ISurroundViewService11linkToDeathERKNS_2spINS0_20hidl_death_recipientEEEy",
   "parameters" :
   [
    {
     "is_this_ptr" : true,
     "referenced_type" : "_ZTIPN7android8hardware10automotive2sv4V1_020ISurroundViewServiceE"
    },
    {
     "referenced_type" : "_ZTIRKN7android2spINS_8hardware20hidl_death_recipientEEE"
    },
    {
     "referenced_type" : "_ZTIy"
    }
   ],
   "return_type" : "_ZTIN7android8hardware6ReturnIbEE",
   "source_file" : "/out/soong/.intermediates/hardware/interfaces/automotive/sv/1.0/android.hardware.automotive.sv@1.0_genc++_headers/gen/android/hardware/automotive/sv/1.0/ISurroundViewService.h"
  },
  {
   "function_name" : "android::hardware::automotive::sv::V1_0::ISurroundViewService::getDebugInfo",
   "linker_set_key" : "_ZN7android8hardware10automotive2sv4V1_020ISurroundViewService12getDebugInfoENSt3__18functionIFvRKNS_4hidl4base4V1_09DebugInfoEEEE",
   "parameters" :
   [
    {
     "is_this_ptr" : true,
     "referenced_type" : "_ZTIPN7android8hardware10automotive2sv4V1_020ISurroundViewServiceE"
    },
    {
     "referenced_type" : "_ZTINSt3__18functionIFvRKN7android4hidl4base4V1_09DebugInfoEEEE"
    }
   ],
   "return_type" : "_ZTIN7android8hardware6ReturnIvEE",
   "source_file" : "/out/soong/.intermediates/hardware/interfaces/automotive/sv/1.0/android.hardware.automotive.sv@1.0_genc++_headers/gen/android/hardware/automotive/sv/1.0/ISurroundViewService.h"
  },
  {
   "function_name" : "android::hardware::automotive::sv::V1_0::ISurroundViewService::getHashChain",
   "linker_set_key" : "_ZN7android8hardware10automotive2sv4V1_020ISurroundViewService12getHashChainENSt3__18functionIFvRKNS0_8hidl_vecINS0_10hidl_arrayIhLj32EJEEEEEEEE",
   "parameters" :
   [
    {
     "is_this_ptr" : true,
     "referenced_type" : "_ZTIPN7android8hardware10automotive2sv4V1_020ISurroundViewServiceE"
    },
    {
     "referenced_type" : "_ZTINSt3__18functionIFvRKN7android8hardware8hidl_vecINS2_10hidl_arrayIhLj32EJEEEEEEEE"
    }
   ],
   "return_type" : "_ZTIN7android8hardware6ReturnIvEE",
   "source_file" : "/out/soong/.intermediates/hardware/interfaces/automotive/sv/1.0/android.hardware.automotive.sv@1.0_genc++_headers/gen/android/hardware/automotive/sv/1.0/ISurroundViewService.h"
  },
  {
   "function_name" : "android::hardware::automotive::sv::V1_0::ISurroundViewService::tryGetService",
   "linker_set_key" : "_ZN7android8hardware10automotive2sv4V1_020ISurroundViewService13tryGetServiceERKNSt3__112basic_stringIcNS5_11char_traitsIcEENS5_9allocatorIcEEEEb",
   "parameters" :
   [
    {
     "default_arg" : true,
     "referenced_type" : "_ZTIRKNSt3__112basic_stringIcNS_11char_traitsIcEENS_9allocatorIcEEEE"
    },
    {
     "default_arg" : true,
     "referenced_type" : "_ZTIb"
    }
   ],
   "return_type" : "_ZTIN7android2spINS_8hardware10automotive2sv4V1_020ISurroundViewServiceEEE",
   "source_file" : "/out/soong/.intermediates/hardware/interfaces/automotive/sv/1.0/android.hardware.automotive.sv@1.0_genc++_headers/gen/android/hardware/automotive/sv/1.0/ISurroundViewService.h"
  },
  {
   "function_name" : "android::hardware::automotive::sv::V1_0::ISurroundViewService::unlinkToDeath",
   "linker_set_key" : "_ZN7android8hardware10automotive2sv4V1_020ISurroundViewService13unlinkToDeathERKNS_2spINS0_20hidl_death_recipientEEE",
   "parameters" :
   [
    {
     "is_this_ptr" : true,
     "referenced_type" : "_ZTIPN7android8hardware10automotive2sv4V1_020ISurroundViewServiceE"
    },
    {
     "referenced_type" : "_ZTIRKN7android2spINS_8hardware20hidl_death_recipientEEE"
    }
   ],
   "return_type" : "_ZTIN7android8hardware6ReturnIbEE",
   "source_file" : "/out/soong/.intermediates/hardware/interfaces/automotive/sv/1.0/android.hardware.automotive.sv@1.0_genc++_headers/gen/android/hardware/automotive/sv/1.0/ISurroundViewService.h"
  },
  {
   "function_name" : "android::hardware::automotive::sv::V1_0::ISurroundViewService::interfaceChain",
   "linker_set_key" : "_ZN7android8hardware10automotive2sv4V1_020ISurroundViewService14interfaceChainENSt3__18functionIFvRKNS0_8hidl_vecINS0_11hidl_stringEEEEEE",
   "parameters" :
   [
    {
     "is_this_ptr" : true,
     "referenced_type" : "_ZTIPN7android8hardware10automotive2sv4V1_020ISurroundViewServiceE"
    },
    {
     "referenced_type" : "_ZTINSt3__18functionIFvRKN7android8hardware8hidl_vecINS2_11hidl_stringEEEEEE"
    }
   ],
   "return_type" : "_ZTIN7android8hardware6ReturnIvEE",
   "source_file" : "/out/soong/.intermediates/hardware/interfaces/automotive/sv/1.0/android.hardware.automotive.sv@1.0_genc++_headers/gen/android/hardware/automotive/sv/1.0/ISurroundViewService.h"
  },
  {
   "function_name" : "android::hardware::automotive::sv::V1_0::ISurroundViewService::registerAsService",
   "linker_set_key" : "_ZN7android8hardware10automotive2sv4V1_020ISurroundViewService17registerAsServiceERKNSt3__112basic_stringIcNS5_11char_traitsIcEENS5_9allocatorIcEEEE",
   "parameters" :
   [
    {
     "is_this_ptr" : true,
     "referenced_type" : "_ZTIPN7android8hardware10automotive2sv4V1_020ISurroundViewServiceE"
    },
    {
     "default_arg" : true,
     "referenced_type" : "_ZTIRKNSt3__112basic_stringIcNS_11char_traitsIcEENS_9allocatorIcEEEE"
    }
   ],
   "return_type" : "_ZTIi",
   "source_file" : "/out/soong/.intermediates/hardware/interfaces/automotive/sv/1.0/android.hardware.automotive.sv@1.0_genc++_headers/gen/android/hardware/automotive/sv/1.0/ISurroundViewService.h"
  },
  {
   "function_name" : "android::hardware::automotive::sv::V1_0::ISurroundViewService::interfaceDescriptor",
   "linker_set_key" : "_ZN7android8hardware10automotive2sv4V1_020ISurroundViewService19interfaceDescriptorENSt3__18functionIFvRKNS0_11hidl_stringEEEE",
   "parameters" :
   [
    {
     "is_this_ptr" : true,
     "referenced_type" : "_ZTIPN7android8hardware10automotive2sv4V1_020ISurroundViewServiceE"
    },
    {
     "referenced_type" : "_ZTINSt3__18functionIFvRKN7android8hardware11hidl_stringEEEE"
    }
   ],
   "return_type" : "_ZTIN7android8hardware6ReturnIvEE",
   "source_file" : "/out/soong/.intermediates/hardware/interfaces/automotive/sv/1.0/android.hardware.automotive.sv@1.0_genc++_headers/gen/android/hardware/automotive/sv/1.0/ISurroundViewService.h"
  },
  {
   "function_name" : "android::hardware::automotive::sv::V1_0::ISurroundViewService::notifySyspropsChanged",
   "linker_set_key" : "_ZN7android8hardware10automotive2sv4V1_020ISurroundViewService21notifySyspropsChangedEv",
   "parameters" :
   [
    {
     "is_this_ptr" : true,
     "referenced_type" : "_ZTIPN7android8hardware10automotive2sv4V1_020ISurroundViewServiceE"
    }
   ],
   "return_type" : "_ZTIN7android8hardware6ReturnIvEE",
   "source_file" : "/out/soong/.intermediates/hardware/interfaces/automotive/sv/1.0/android.hardware.automotive.sv@1.0_genc++_headers/gen/android/hardware/automotive/sv/1.0/ISurroundViewService.h"
  },
  {
   "function_name" : "android::hardware::automotive::sv::V1_0::ISurroundViewService::setHALInstrumentation",
   "linker_set_key" : "_ZN7android8hardware10automotive2sv4V1_020ISurroundViewService21setHALInstrumentationEv",
   "parameters" :
   [
    {
     "is_this_ptr" : true,
     "referenced_type" : "_ZTIPN7android8hardware10automotive2sv4V1_020ISurroundViewServiceE"
    }
   ],
   "return_type" : "_ZTIN7android8hardware6ReturnIvEE",
   "source_file" : "/out/soong/.intermediates/hardware/interfaces/automotive/sv/1.0/android.hardware.automotive.sv@1.0_genc++_headers/gen/android/hardware/automotive/sv/1.0/ISurroundViewService.h"
  },
  {
   "function_name" : "android::hardware::automotive::sv::V1_0::ISurroundViewService::registerForNotifications",
   "linker_set_key" : "_ZN7android8hardware10automotive2sv4V1_020ISurroundViewService24registerForNotificationsERKNSt3__112basic_stringIcNS5_11char_traitsIcEENS5_9allocatorIcEEEERKNS_2spINS_4hidl7manager4V1_020IServiceNotificationEEE",
   "parameters" :
   [
    {
     "referenced_type" : "_ZTIRKNSt3__112basic_stringIcNS_11char_traitsIcEENS_9allocatorIcEEEE"
    },
    {
     "referenced_type" : "_ZTIRKN7android2spINS_4hidl7manager4V1_020IServiceNotificationEEE"
    }
   ],
   "return_type" : "_ZTIb",
   "source_file" : "/out/soong/.intermediates/hardware/interfaces/automotive/sv/1.0/android.hardware.automotive.sv@1.0_genc++_headers/gen/android/hardware/automotive/sv/1.0/ISurroundViewService.h"
  },
  {
   "function_name" : "android::hardware::automotive::sv::V1_0::ISurroundViewService::ping",
   "linker_set_key" : "_ZN7android8hardware10automotive2sv4V1_020ISurroundViewService4pingEv",
   "parameters" :
   [
    {
     "is_this_ptr" : true,
     "referenced_type" : "_ZTIPN7android8hardware10automotive2sv4V1_020ISurroundViewServiceE"
    }
   ],
   "return_type" : "_ZTIN7android8hardware6ReturnIvEE",
   "source_file" : "/out/soong/.intermediates/hardware/interfaces/automotive/sv/1.0/android.hardware.automotive.sv@1.0_genc++_headers/gen/android/hardware/automotive/sv/1.0/ISurroundViewService.h"
  },
  {
   "function_name" : "android::hardware::automotive::sv::V1_0::ISurroundViewService::debug",
   "linker_set_key" : "_ZN7android8hardware10automotive2sv4V1_020ISurroundViewService5debugERKNS0_11hidl_handleERKNS0_8hidl_vecINS0_11hidl_stringEEE",
   "parameters" :
   [
    {
     "is_this_ptr" : true,
     "referenced_type" : "_ZTIPN7android8hardware10automotive2sv4V1_020ISurroundViewServiceE"
    },
    {
     "referenced_type" : "_ZTIRKN7android8hardware11hidl_handleE"
    },
    {
     "referenced_type" : "_ZTIRKN7android8hardware8hidl_vecINS0_11hidl_stringEEE"
    }
   ],
   "return_type" : "_ZTIN7android8hardware6ReturnIvEE",
   "source_file" : "/out/soong/.intermediates/hardware/interfaces/automotive/sv/1.0/android.hardware.automotive.sv@1.0_genc++_headers/gen/android/hardware/automotive/sv/1.0/ISurroundViewService.h"
  },
  {
   "function_name" : "android::hardware::automotive::sv::V1_0::ISurroundViewService::castFrom",
   "linker_set_key" : "_ZN7android8hardware10automotive2sv4V1_020ISurroundViewService8castFromERKNS_2spINS_4hidl4base4V1_05IBaseEEEb",
   "parameters" :
   [
    {
     "referenced_type" : "_ZTIRKN7android2spINS_4hidl4base4V1_05IBaseEEE"
    },
    {
     "default_arg" : true,
     "referenced_type" : "_ZTIb"
    }
   ],
   "return_type" : "_ZTIN7android8hardware6ReturnINS_2spINS0_10automotive2sv4V1_020ISurroundViewServiceEEEEE",
   "source_file" : "/out/soong/.intermediates/hardware/interfaces/automotive/sv/1.0/android.hardware.automotive.sv@1.0_genc++_headers/gen/android/hardware/automotive/sv/1.0/ISurroundViewService.h"
  },
  {
   "function_name" : "android::hardware::automotive::sv::V1_0::ISurroundViewService::castFrom",
   "linker_set_key" : "_ZN7android8hardware10automotive2sv4V1_020ISurroundViewService8castFromERKNS_2spIS4_EEb",
   "parameters" :
   [
    {
     "referenced_type" : "_ZTIRKN7android2spINS_8hardware10automotive2sv4V1_020ISurroundViewServiceEEE"
    },
    {
     "default_arg" : true,
     "referenced_type" : "_ZTIb"
    }
   ],
   "return_type" : "_ZTIN7android8hardware6ReturnINS_2spINS0_10automotive2sv4V1_020ISurroundViewServiceEEEEE",
   "source_file" : "/out/soong/.intermediates/hardware/interfaces/automotive/sv/1.0/android.hardware.automotive.sv@1.0_genc++_headers/gen/android/hardware/automotive/sv/1.0/ISurroundViewService.h"
  },
  {
   "function_name" : "android::hardware::automotive::sv::V1_0::ISurroundViewSession::getService",
   "linker_set_key" : "_ZN7android8hardware10automotive2sv4V1_020ISurroundViewSession10getServiceERKNSt3__112basic_stringIcNS5_11char_traitsIcEENS5_9allocatorIcEEEEb",
   "parameters" :
   [
    {
     "default_arg" : true,
     "referenced_type" : "_ZTIRKNSt3__112basic_stringIcNS_11char_traitsIcEENS_9allocatorIcEEEE"
    },
    {
     "default_arg" : true,
     "referenced_type" : "_ZTIb"
    }
   ],
   "return_type" : "_ZTIN7android2spINS_8hardware10automotive2sv4V1_020ISurroundViewSessionEEE",
   "source_file" : "/out/soong/.intermediates/hardware/interfaces/automotive/sv/1.0/android.hardware.automotive.sv@1.0_genc++_headers/gen/android/hardware/automotive/sv/1.0/ISurroundViewSession.h"
  },
  {
   "function_name" : "android::hardware::automotive::sv::V1_0::ISurroundViewSession::linkToDeath",
   "linker_set_key" : "_ZN7android8hardware10automotive2sv4V1_020ISurroundViewSession11linkToDeathERKNS_2spINS0_20hidl_death_recipientEEEy",
   "parameters" :
   [
    {
     "is_this_ptr" : true,
     "referenced_type" : "_ZTIPN7android8hardware10automotive2sv4V1_020ISurroundViewSessionE"
    },
    {
     "referenced_type" : "_ZTIRKN7android2spINS_8hardware20hidl_death_recipientEEE"
    },
    {
     "referenced_type" : "_ZTIy"
    }
   ],
   "return_type" : "_ZTIN7android8hardware6ReturnIbEE",
   "source_file" : "/out/soong/.intermediates/hardware/interfaces/automotive/sv/1.0/android.hardware.automotive.sv@1.0_genc++_headers/gen/android/hardware/automotive/sv/1.0/ISurroundViewSession.h"
  },
  {
   "function_name" : "android::hardware::automotive::sv::V1_0::ISurroundViewSession::getDebugInfo",
   "linker_set_key" : "_ZN7android8hardware10automotive2sv4V1_020ISurroundViewSession12getDebugInfoENSt3__18functionIFvRKNS_4hidl4base4V1_09DebugInfoEEEE",
   "parameters" :
   [
    {
     "is_this_ptr" : true,
     "referenced_type" : "_ZTIPN7android8hardware10automotive2sv4V1_020ISurroundViewSessionE"
    },
    {
     "referenced_type" : "_ZTINSt3__18functionIFvRKN7android4hidl4base4V1_09DebugInfoEEEE"
    }
   ],
   "return_type" : "_ZTIN7android8hardware6ReturnIvEE",
   "source_file" : "/out/soong/.intermediates/hardware/interfaces/automotive/sv/1.0/android.hardware.automotive.sv@1.0_genc++_headers/gen/android/hardware/automotive/sv/1.0/ISurroundViewSession.h"
  },
  {
   "function_name" : "android::hardware::automotive::sv::V1_0::ISurroundViewSession::getHashChain",
   "linker_set_key" : "_ZN7android8hardware10automotive2sv4V1_020ISurroundViewSession12getHashChainENSt3__18functionIFvRKNS0_8hidl_vecINS0_10hidl_arrayIhLj32EJEEEEEEEE",
   "parameters" :
   [
    {
     "is_this_ptr" : true,
     "referenced_type" : "_ZTIPN7android8hardware10automotive2sv4V1_020ISurroundViewSessionE"
    },
    {
     "referenced_type" : "_ZTINSt3__18functionIFvRKN7android8hardware8hidl_vecINS2_10hidl_arrayIhLj32EJEEEEEEEE"
    }
   ],
   "return_type" : "_ZTIN7android8hardware6ReturnIvEE",
   "source_file" : "/out/soong/.intermediates/hardware/interfaces/automotive/sv/1.0/android.hardware.automotive.sv@1.0_genc++_headers/gen/android/hardware/automotive/sv/1.0/ISurroundViewSession.h"
  },
  {
   "function_name" : "android::hardware::automotive::sv::V1_0::ISurroundViewSession::tryGetService",
   "linker_set_key" : "_ZN7android8hardware10automotive2sv4V1_020ISurroundViewSession13tryGetServiceERKNSt3__112basic_stringIcNS5_11char_traitsIcEENS5_9allocatorIcEEEEb",
   "parameters" :
   [
    {
     "default_arg" : true,
     "referenced_type" : "_ZTIRKNSt3__112basic_stringIcNS_11char_traitsIcEENS_9allocatorIcEEEE"
    },
    {
     "default_arg" : true,
     "referenced_type" : "_ZTIb"
    }
   ],
   "return_type" : "_ZTIN7android2spINS_8hardware10automotive2sv4V1_020ISurroundViewSessionEEE",
   "source_file" : "/out/soong/.intermediates/hardware/interfaces/automotive/sv/1.0/android.hardware.automotive.sv@1.0_genc++_headers/gen/android/hardware/automotive/sv/1.0/ISurroundViewSession.h"
  },
  {
   "function_name" : "android::hardware::automotive::sv::V1_0::ISurroundViewSession::unlinkToDeath",
   "linker_set_key" : "_ZN7android8hardware10automotive2sv4V1_020ISurroundViewSession13unlinkToDeathERKNS_2spINS0_20hidl_death_recipientEEE",
   "parameters" :
   [
    {
     "is_this_ptr" : true,
     "referenced_type" : "_ZTIPN7android8hardware10automotive2sv4V1_020ISurroundViewSessionE"
    },
    {
     "referenced_type" : "_ZTIRKN7android2spINS_8hardware20hidl_death_recipientEEE"
    }
   ],
   "return_type" : "_ZTIN7android8hardware6ReturnIbEE",
   "source_file" : "/out/soong/.intermediates/hardware/interfaces/automotive/sv/1.0/android.hardware.automotive.sv@1.0_genc++_headers/gen/android/hardware/automotive/sv/1.0/ISurroundViewSession.h"
  },
  {
   "function_name" : "android::hardware::automotive::sv::V1_0::ISurroundViewSession::interfaceChain",
   "linker_set_key" : "_ZN7android8hardware10automotive2sv4V1_020ISurroundViewSession14interfaceChainENSt3__18functionIFvRKNS0_8hidl_vecINS0_11hidl_stringEEEEEE",
   "parameters" :
   [
    {
     "is_this_ptr" : true,
     "referenced_type" : "_ZTIPN7android8hardware10automotive2sv4V1_020ISurroundViewSessionE"
    },
    {
     "referenced_type" : "_ZTINSt3__18functionIFvRKN7android8hardware8hidl_vecINS2_11hidl_stringEEEEEE"
    }
   ],
   "return_type" : "_ZTIN7android8hardware6ReturnIvEE",
   "source_file" : "/out/soong/.intermediates/hardware/interfaces/automotive/sv/1.0/android.hardware.automotive.sv@1.0_genc++_headers/gen/android/hardware/automotive/sv/1.0/ISurroundViewSession.h"
  },
  {
   "function_name" : "android::hardware::automotive::sv::V1_0::ISurroundViewSession::registerAsService",
   "linker_set_key" : "_ZN7android8hardware10automotive2sv4V1_020ISurroundViewSession17registerAsServiceERKNSt3__112basic_stringIcNS5_11char_traitsIcEENS5_9allocatorIcEEEE",
   "parameters" :
   [
    {
     "is_this_ptr" : true,
     "referenced_type" : "_ZTIPN7android8hardware10automotive2sv4V1_020ISurroundViewSessionE"
    },
    {
     "default_arg" : true,
     "referenced_type" : "_ZTIRKNSt3__112basic_stringIcNS_11char_traitsIcEENS_9allocatorIcEEEE"
    }
   ],
   "return_type" : "_ZTIi",
   "source_file" : "/out/soong/.intermediates/hardware/interfaces/automotive/sv/1.0/android.hardware.automotive.sv@1.0_genc++_headers/gen/android/hardware/automotive/sv/1.0/ISurroundViewSession.h"
  },
  {
   "function_name" : "android::hardware::automotive::sv::V1_0::ISurroundViewSession::interfaceDescriptor",
   "linker_set_key" : "_ZN7android8hardware10automotive2sv4V1_020ISurroundViewSession19interfaceDescriptorENSt3__18functionIFvRKNS0_11hidl_stringEEEE",
   "parameters" :
   [
    {
     "is_this_ptr" : true,
     "referenced_type" : "_ZTIPN7android8hardware10automotive2sv4V1_020ISurroundViewSessionE"
    },
    {
     "referenced_type" : "_ZTINSt3__18functionIFvRKN7android8hardware11hidl_stringEEEE"
    }
   ],
   "return_type" : "_ZTIN7android8hardware6ReturnIvEE",
   "source_file" : "/out/soong/.intermediates/hardware/interfaces/automotive/sv/1.0/android.hardware.automotive.sv@1.0_genc++_headers/gen/android/hardware/automotive/sv/1.0/ISurroundViewSession.h"
  },
  {
   "function_name" : "android::hardware::automotive::sv::V1_0::ISurroundViewSession::notifySyspropsChanged",
   "linker_set_key" : "_ZN7android8hardware10automotive2sv4V1_020ISurroundViewSession21notifySyspropsChangedEv",
   "parameters" :
   [
    {
     "is_this_ptr" : true,
     "referenced_type" : "_ZTIPN7android8hardware10automotive2sv4V1_020ISurroundViewSessionE"
    }
   ],
   "return_type" : "_ZTIN7android8hardware6ReturnIvEE",
   "source_file" : "/out/soong/.intermediates/hardware/interfaces/automotive/sv/1.0/android.hardware.automotive.sv@1.0_genc++_headers/gen/android/hardware/automotive/sv/1.0/ISurroundViewSession.h"
  },
  {
   "function_name" : "android::hardware::automotive::sv::V1_0::ISurroundViewSession::setHALInstrumentation",
   "linker_set_key" : "_ZN7android8hardware10automotive2sv4V1_020ISurroundViewSession21setHALInstrumentationEv",
   "parameters" :
   [
    {
     "is_this_ptr" : true,
     "referenced_type" : "_ZTIPN7android8hardware10automotive2sv4V1_020ISurroundViewSessionE"
    }
   ],
   "return_type" : "_ZTIN7android8hardware6ReturnIvEE",
   "source_file" : "/out/soong/.intermediates/hardware/interfaces/automotive/sv/1.0/android.hardware.automotive.sv@1.0_genc++_headers/gen/android/hardware/automotive/sv/1.0/ISurroundViewSession.h"
  },
  {
   "function_name" : "android::hardware::automotive::sv::V1_0::ISurroundViewSession::registerForNotifications",
   "linker_set_key" : "_ZN7android8hardware10automotive2sv4V1_020ISurroundViewSession24registerForNotificationsERKNSt3__112basic_stringIcNS5_11char_traitsIcEENS5_9allocatorIcEEEERKNS_2spINS_4hidl7manager4V1_020IServiceNotificationEEE",
   "parameters" :
   [
    {
     "referenced_type" : "_ZTIRKNSt3__112basic_stringIcNS_11char_traitsIcEENS_9allocatorIcEEEE"
    },
    {
     "referenced_type" : "_ZTIRKN7android2spINS_4hidl7manager4V1_020IServiceNotificationEEE"
    }
   ],
   "return_type" : "_ZTIb",
   "source_file" : "/out/soong/.intermediates/hardware/interfaces/automotive/sv/1.0/android.hardware.automotive.sv@1.0_genc++_headers/gen/android/hardware/automotive/sv/1.0/ISurroundViewSession.h"
  },
  {
   "function_name" : "android::hardware::automotive::sv::V1_0::ISurroundViewSession::ping",
   "linker_set_key" : "_ZN7android8hardware10automotive2sv4V1_020ISurroundViewSession4pingEv",
   "parameters" :
   [
    {
     "is_this_ptr" : true,
     "referenced_type" : "_ZTIPN7android8hardware10automotive2sv4V1_020ISurroundViewSessionE"
    }
   ],
   "return_type" : "_ZTIN7android8hardware6ReturnIvEE",
   "source_file" : "/out/soong/.intermediates/hardware/interfaces/automotive/sv/1.0/android.hardware.automotive.sv@1.0_genc++_headers/gen/android/hardware/automotive/sv/1.0/ISurroundViewSession.h"
  },
  {
   "function_name" : "android::hardware::automotive::sv::V1_0::ISurroundViewSession::debug",
   "linker_set_key" : "_ZN7android8hardware10automotive2sv4V1_020ISurroundViewSession5debugERKNS0_11hidl_handleERKNS0_8hidl_vecINS0_11hidl_stringEEE",
   "parameters" :
   [
    {
     "is_this_ptr" : true,
     "referenced_type" : "_ZTIPN7android8hardware10automotive2sv4V1_020ISurroundViewSessionE"
    },
    {
     "referenced_type" : "_ZTIRKN7android8hardware11hidl_handleE"
    },
    {
     "referenced_type" : "_ZTIRKN7android8hardware8hidl_vecINS0_11hidl_stringEEE"
    }
   ],
   "return_type" : "_ZTIN7android8hardware6ReturnIvEE",
   "source_file" : "/out/soong/.intermediates/hardware/interfaces/automotive/sv/1.0/android.hardware.automotive.sv@1.0_genc++_headers/gen/android/hardware/automotive/sv/1.0/ISurroundViewSession.h"
  },
  {
   "function_name" : "android::hardware::automotive::sv::V1_0::ISurroundViewSession::castFrom",
   "linker_set_key" : "_ZN7android8hardware10automotive2sv4V1_020ISurroundViewSession8castFromERKNS_2spINS_4hidl4base4V1_05IBaseEEEb",
   "parameters" :
   [
    {
     "referenced_type" : "_ZTIRKN7android2spINS_4hidl4base4V1_05IBaseEEE"
    },
    {
     "default_arg" : true,
     "referenced_type" : "_ZTIb"
    }
   ],
   "return_type" : "_ZTIN7android8hardware6ReturnINS_2spINS0_10automotive2sv4V1_020ISurroundViewSessionEEEEE",
   "source_file" : "/out/soong/.intermediates/hardware/interfaces/automotive/sv/1.0/android.hardware.automotive.sv@1.0_genc++_headers/gen/android/hardware/automotive/sv/1.0/ISurroundViewSession.h"
  },
  {
   "function_name" : "android::hardware::automotive::sv::V1_0::ISurroundViewSession::castFrom",
   "linker_set_key" : "_ZN7android8hardware10automotive2sv4V1_020ISurroundViewSession8castFromERKNS_2spIS4_EEb",
   "parameters" :
   [
    {
     "referenced_type" : "_ZTIRKN7android2spINS_8hardware10automotive2sv4V1_020ISurroundViewSessionEEE"
    },
    {
     "default_arg" : true,
     "referenced_type" : "_ZTIb"
    }
   ],
   "return_type" : "_ZTIN7android8hardware6ReturnINS_2spINS0_10automotive2sv4V1_020ISurroundViewSessionEEEEE",
   "source_file" : "/out/soong/.intermediates/hardware/interfaces/automotive/sv/1.0/android.hardware.automotive.sv@1.0_genc++_headers/gen/android/hardware/automotive/sv/1.0/ISurroundViewSession.h"
  },
  {
   "access" : "private",
   "function_name" : "android::hardware::automotive::sv::V1_0::BsSurroundViewService::addOnewayTask",
   "linker_set_key" : "_ZN7android8hardware10automotive2sv4V1_021BsSurroundViewService13addOnewayTaskENSt3__18functionIFvvEEE",
   "parameters" :
   [
    {
     "is_this_ptr" : true,
     "referenced_type" : "_ZTIPN7android8hardware10automotive2sv4V1_021BsSurroundViewServiceE"
    },
    {
     "referenced_type" : "_ZTINSt3__18functionIFvvEEE"
    }
   ],
   "return_type" : "_ZTIN7android8hardware6ReturnIvEE",
   "source_file" : "/out/soong/.intermediates/hardware/interfaces/automotive/sv/1.0/android.hardware.automotive.sv@1.0_genc++_headers/gen/android/hardware/automotive/sv/1.0/BsSurroundViewService.h"
  },
  {
   "function_name" : "android::hardware::automotive::sv::V1_0::BsSurroundViewService::BsSurroundViewService",
   "linker_set_key" : "_ZN7android8hardware10automotive2sv4V1_021BsSurroundViewServiceC1ENS_2spINS3_20ISurroundViewServiceEEE",
   "parameters" :
   [
    {
     "is_this_ptr" : true,
     "referenced_type" : "_ZTIPN7android8hardware10automotive2sv4V1_021BsSurroundViewServiceE"
    },
    {
     "referenced_type" : "_ZTIKN7android2spINS_8hardware10automotive2sv4V1_020ISurroundViewServiceEEE"
    }
   ],
   "return_type" : "_ZTIv",
   "source_file" : "/out/soong/.intermediates/hardware/interfaces/automotive/sv/1.0/android.hardware.automotive.sv@1.0_genc++_headers/gen/android/hardware/automotive/sv/1.0/BsSurroundViewService.h"
  },
  {
   "function_name" : "android::hardware::automotive::sv::V1_0::BsSurroundViewService::BsSurroundViewService",
   "linker_set_key" : "_ZN7android8hardware10automotive2sv4V1_021BsSurroundViewServiceC2ENS_2spINS3_20ISurroundViewServiceEEE",
   "parameters" :
   [
    {
     "is_this_ptr" : true,
     "referenced_type" : "_ZTIPN7android8hardware10automotive2sv4V1_021BsSurroundViewServiceE"
    },
    {
     "referenced_type" : "_ZTIKN7android2spINS_8hardware10automotive2sv4V1_020ISurroundViewServiceEEE"
    }
   ],
   "return_type" : "_ZTIv",
   "source_file" : "/out/soong/.intermediates/hardware/interfaces/automotive/sv/1.0/android.hardware.automotive.sv@1.0_genc++_headers/gen/android/hardware/automotive/sv/1.0/BsSurroundViewService.h"
  },
  {
   "access" : "private",
   "function_name" : "android::hardware::automotive::sv::V1_0::BsSurroundViewSession::addOnewayTask",
   "linker_set_key" : "_ZN7android8hardware10automotive2sv4V1_021BsSurroundViewSession13addOnewayTaskENSt3__18functionIFvvEEE",
   "parameters" :
   [
    {
     "is_this_ptr" : true,
     "referenced_type" : "_ZTIPN7android8hardware10automotive2sv4V1_021BsSurroundViewSessionE"
    },
    {
     "referenced_type" : "_ZTINSt3__18functionIFvvEEE"
    }
   ],
   "return_type" : "_ZTIN7android8hardware6ReturnIvEE",
   "source_file" : "/out/soong/.intermediates/hardware/interfaces/automotive/sv/1.0/android.hardware.automotive.sv@1.0_genc++_headers/gen/android/hardware/automotive/sv/1.0/BsSurroundViewSession.h"
  },
  {
   "function_name" : "android::hardware::automotive::sv::V1_0::BsSurroundViewSession::BsSurroundViewSession",
   "linker_set_key" : "_ZN7android8hardware10automotive2sv4V1_021BsSurroundViewSessionC1ENS_2spINS3_20ISurroundViewSessionEEE",
   "parameters" :
   [
    {
     "is_this_ptr" : true,
     "referenced_type" : "_ZTIPN7android8hardware10automotive2sv4V1_021BsSurroundViewSessionE"
    },
    {
     "referenced_type" : "_ZTIKN7android2spINS_8hardware10automotive2sv4V1_020ISurroundViewSessionEEE"
    }
   ],
   "return_type" : "_ZTIv",
   "source_file" : "/out/soong/.intermediates/hardware/interfaces/automotive/sv/1.0/android.hardware.automotive.sv@1.0_genc++_headers/gen/android/hardware/automotive/sv/1.0/BsSurroundViewSession.h"
  },
  {
   "function_name" : "android::hardware::automotive::sv::V1_0::BsSurroundViewSession::BsSurroundViewSession",
   "linker_set_key" : "_ZN7android8hardware10automotive2sv4V1_021BsSurroundViewSessionC2ENS_2spINS3_20ISurroundViewSessionEEE",
   "parameters" :
   [
    {
     "is_this_ptr" : true,
     "referenced_type" : "_ZTIPN7android8hardware10automotive2sv4V1_021BsSurroundViewSessionE"
    },
    {
     "referenced_type" : "_ZTIKN7android2spINS_8hardware10automotive2sv4V1_020ISurroundViewSessionEEE"
    }
   ],
   "return_type" : "_ZTIv",
   "source_file" : "/out/soong/.intermediates/hardware/interfaces/automotive/sv/1.0/android.hardware.automotive.sv@1.0_genc++_headers/gen/android/hardware/automotive/sv/1.0/BsSurroundViewSession.h"
  },
  {
   "function_name" : "android::hardware::automotive::sv::V1_0::writeEmbeddedToParcel",
   "linker_set_key" : "_ZN7android8hardware10automotive2sv4V1_021writeEmbeddedToParcelERKNS3_12OverlaysDataEPNS0_6ParcelEjj",
   "parameters" :
   [
    {
     "referenced_type" : "_ZTIRKN7android8hardware10automotive2sv4V1_012OverlaysDataE"
    },
    {
     "referenced_type" : "_ZTIPN7android8hardware6ParcelE"
    },
    {
     "referenced_type" : "_ZTIj"
    },
    {
     "referenced_type" : "_ZTIj"
    }
   ],
   "return_type" : "_ZTIi",
   "source_file" : "/out/soong/.intermediates/hardware/interfaces/automotive/sv/1.0/android.hardware.automotive.sv@1.0_genc++_headers/gen/android/hardware/automotive/sv/1.0/hwtypes.h"
  },
  {
   "function_name" : "android::hardware::automotive::sv::V1_0::writeEmbeddedToParcel",
   "linker_set_key" : "_ZN7android8hardware10automotive2sv4V1_021writeEmbeddedToParcelERKNS3_12SvFramesDescEPNS0_6ParcelEjj",
   "parameters" :
   [
    {
     "referenced_type" : "_ZTIRKN7android8hardware10automotive2sv4V1_012SvFramesDescE"
    },
    {
     "referenced_type" : "_ZTIPN7android8hardware6ParcelE"
    },
    {
     "referenced_type" : "_ZTIj"
    },
    {
     "referenced_type" : "_ZTIj"
    }
   ],
   "return_type" : "_ZTIi",
   "source_file" : "/out/soong/.intermediates/hardware/interfaces/automotive/sv/1.0/android.hardware.automotive.sv@1.0_genc++_headers/gen/android/hardware/automotive/sv/1.0/hwtypes.h"
  },
  {
   "function_name" : "android::hardware::automotive::sv::V1_0::writeEmbeddedToParcel",
   "linker_set_key" : "_ZN7android8hardware10automotive2sv4V1_021writeEmbeddedToParcelERKNS3_8SvBufferEPNS0_6ParcelEjj",
   "parameters" :
   [
    {
     "referenced_type" : "_ZTIRKN7android8hardware10automotive2sv4V1_08SvBufferE"
    },
    {
     "referenced_type" : "_ZTIPN7android8hardware6ParcelE"
    },
    {
     "referenced_type" : "_ZTIj"
    },
    {
     "referenced_type" : "_ZTIj"
    }
   ],
   "return_type" : "_ZTIi",
   "source_file" : "/out/soong/.intermediates/hardware/interfaces/automotive/sv/1.0/android.hardware.automotive.sv@1.0_genc++_headers/gen/android/hardware/automotive/sv/1.0/hwtypes.h"
  },
  {
   "function_name" : "android::hardware::automotive::sv::V1_0::BnHwSurroundViewStream::onTransact",
   "linker_set_key" : "_ZN7android8hardware10automotive2sv4V1_022BnHwSurroundViewStream10onTransactEjRKNS0_6ParcelEPS5_jNSt3__18functionIFvRS5_EEE",
   "parameters" :
   [
    {
     "is_this_ptr" : true,
     "referenced_type" : "_ZTIPN7android8hardware10automotive2sv4V1_022BnHwSurroundViewStreamE"
    },
    {
     "referenced_type" : "_ZTIj"
    },
    {
     "referenced_type" : "_ZTIRKN7android8hardware6ParcelE"
    },
    {
     "referenced_type" : "_ZTIPN7android8hardware6ParcelE"
    },
    {
     "default_arg" : true,
     "referenced_type" : "_ZTIj"
    },
    {
     "default_arg" : true,
     "referenced_type" : "_ZTINSt3__18functionIFvRN7android8hardware6ParcelEEEE"
    }
   ],
   "return_type" : "_ZTIi",
   "source_file" : "/out/soong/.intermediates/hardware/interfaces/automotive/sv/1.0/android.hardware.automotive.sv@1.0_genc++_headers/gen/android/hardware/automotive/sv/1.0/BnHwSurroundViewStream.h"
  },
  {
   "function_name" : "android::hardware::automotive::sv::V1_0::BnHwSurroundViewStream::_hidl_notify",
   "linker_set_key" : "_ZN7android8hardware10automotive2sv4V1_022BnHwSurroundViewStream12_hidl_notifyEPNS_4hidl4base4V1_08BnHwBaseERKNS0_6ParcelEPSA_NSt3__18functionIFvRSA_EEE",
   "parameters" :
   [
    {
     "referenced_type" : "_ZTIPN7android4hidl4base4V1_08BnHwBaseE"
    },
    {
     "referenced_type" : "_ZTIRKN7android8hardware6ParcelE"
    },
    {
     "referenced_type" : "_ZTIPN7android8hardware6ParcelE"
    },
    {
     "referenced_type" : "_ZTINSt3__18functionIFvRN7android8hardware6ParcelEEEE"
    }
   ],
   "return_type" : "_ZTIi",
   "source_file" : "/out/soong/.intermediates/hardware/interfaces/automotive/sv/1.0/android.hardware.automotive.sv@1.0_genc++_headers/gen/android/hardware/automotive/sv/1.0/BnHwSurroundViewStream.h"
  },
  {
   "access" : "private",
   "function_name" : "android::hardware::automotive::sv::V1_0::BnHwSurroundViewStream::getDebugInfo",
   "linker_set_key" : "_ZN7android8hardware10automotive2sv4V1_022BnHwSurroundViewStream12getDebugInfoENSt3__18functionIFvRKNS_4hidl4base4V1_09DebugInfoEEEE",
   "parameters" :
   [
    {
     "is_this_ptr" : true,
     "referenced_type" : "_ZTIPN7android8hardware10automotive2sv4V1_022BnHwSurroundViewStreamE"
    },
    {
     "referenced_type" : "_ZTINSt3__18functionIFvRKN7android4hidl4base4V1_09DebugInfoEEEE"
    }
   ],
   "return_type" : "_ZTIN7android8hardware6ReturnIvEE",
   "source_file" : "/out/soong/.intermediates/hardware/interfaces/automotive/sv/1.0/android.hardware.automotive.sv@1.0_genc++_headers/gen/android/hardware/automotive/sv/1.0/BnHwSurroundViewStream.h"
  },
  {
   "function_name" : "android::hardware::automotive::sv::V1_0::BnHwSurroundViewStream::_hidl_receiveFrames",
   "linker_set_key" : "_ZN7android8hardware10automotive2sv4V1_022BnHwSurroundViewStream19_hidl_receiveFramesEPNS_4hidl4base4V1_08BnHwBaseERKNS0_6ParcelEPSA_NSt3__18functionIFvRSA_EEE",
   "parameters" :
   [
    {
     "referenced_type" : "_ZTIPN7android4hidl4base4V1_08BnHwBaseE"
    },
    {
     "referenced_type" : "_ZTIRKN7android8hardware6ParcelE"
    },
    {
     "referenced_type" : "_ZTIPN7android8hardware6ParcelE"
    },
    {
     "referenced_type" : "_ZTINSt3__18functionIFvRN7android8hardware6ParcelEEEE"
    }
   ],
   "return_type" : "_ZTIi",
   "source_file" : "/out/soong/.intermediates/hardware/interfaces/automotive/sv/1.0/android.hardware.automotive.sv@1.0_genc++_headers/gen/android/hardware/automotive/sv/1.0/BnHwSurroundViewStream.h"
  },
  {
   "access" : "private",
   "function_name" : "android::hardware::automotive::sv::V1_0::BnHwSurroundViewStream::ping",
   "linker_set_key" : "_ZN7android8hardware10automotive2sv4V1_022BnHwSurroundViewStream4pingEv",
   "parameters" :
   [
    {
     "is_this_ptr" : true,
     "referenced_type" : "_ZTIPN7android8hardware10automotive2sv4V1_022BnHwSurroundViewStreamE"
    }
   ],
   "return_type" : "_ZTIN7android8hardware6ReturnIvEE",
   "source_file" : "/out/soong/.intermediates/hardware/interfaces/automotive/sv/1.0/android.hardware.automotive.sv@1.0_genc++_headers/gen/android/hardware/automotive/sv/1.0/BnHwSurroundViewStream.h"
  },
  {
   "function_name" : "android::hardware::automotive::sv::V1_0::BnHwSurroundViewStream::BnHwSurroundViewStream",
   "linker_set_key" : "_ZN7android8hardware10automotive2sv4V1_022BnHwSurroundViewStreamC1ERKNS_2spINS3_19ISurroundViewStreamEEE",
   "parameters" :
   [
    {
     "is_this_ptr" : true,
     "referenced_type" : "_ZTIPN7android8hardware10automotive2sv4V1_022BnHwSurroundViewStreamE"
    },
    {
     "referenced_type" : "_ZTIRKN7android2spINS_8hardware10automotive2sv4V1_019ISurroundViewStreamEEE"
    }
   ],
   "return_type" : "_ZTIv",
   "source_file" : "/out/soong/.intermediates/hardware/interfaces/automotive/sv/1.0/android.hardware.automotive.sv@1.0_genc++_headers/gen/android/hardware/automotive/sv/1.0/BnHwSurroundViewStream.h"
  },
  {
   "function_name" : "android::hardware::automotive::sv::V1_0::BnHwSurroundViewStream::BnHwSurroundViewStream",
   "linker_set_key" : "_ZN7android8hardware10automotive2sv4V1_022BnHwSurroundViewStreamC2ERKNS_2spINS3_19ISurroundViewStreamEEE",
   "parameters" :
   [
    {
     "is_this_ptr" : true,
     "referenced_type" : "_ZTIPN7android8hardware10automotive2sv4V1_022BnHwSurroundViewStreamE"
    },
    {
     "referenced_type" : "_ZTIRKN7android2spINS_8hardware10automotive2sv4V1_019ISurroundViewStreamEEE"
    }
   ],
   "return_type" : "_ZTIv",
   "source_file" : "/out/soong/.intermediates/hardware/interfaces/automotive/sv/1.0/android.hardware.automotive.sv@1.0_genc++_headers/gen/android/hardware/automotive/sv/1.0/BnHwSurroundViewStream.h"
  },
  {
   "function_name" : "android::hardware::automotive::sv::V1_0::BnHwSurroundViewStream::~BnHwSurroundViewStream",
   "linker_set_key" : "_ZN7android8hardware10automotive2sv4V1_022BnHwSurroundViewStreamD0Ev",
   "parameters" :
   [
    {
     "is_this_ptr" : true,
     "referenced_type" : "_ZTIPN7android8hardware10automotive2sv4V1_022BnHwSurroundViewStreamE"
    }
   ],
   "return_type" : "_ZTIv",
   "source_file" : "/out/soong/.intermediates/hardware/interfaces/automotive/sv/1.0/android.hardware.automotive.sv@1.0_genc++_headers/gen/android/hardware/automotive/sv/1.0/BnHwSurroundViewStream.h"
  },
  {
   "function_name" : "android::hardware::automotive::sv::V1_0::BnHwSurroundViewStream::~BnHwSurroundViewStream",
   "linker_set_key" : "_ZN7android8hardware10automotive2sv4V1_022BnHwSurroundViewStreamD1Ev",
   "parameters" :
   [
    {
     "is_this_ptr" : true,
     "referenced_type" : "_ZTIPN7android8hardware10automotive2sv4V1_022BnHwSurroundViewStreamE"
    }
   ],
   "return_type" : "_ZTIv",
   "source_file" : "/out/soong/.intermediates/hardware/interfaces/automotive/sv/1.0/android.hardware.automotive.sv@1.0_genc++_headers/gen/android/hardware/automotive/sv/1.0/BnHwSurroundViewStream.h"
  },
  {
   "function_name" : "android::hardware::automotive::sv::V1_0::BnHwSurroundViewStream::~BnHwSurroundViewStream",
   "linker_set_key" : "_ZN7android8hardware10automotive2sv4V1_022BnHwSurroundViewStreamD2Ev",
   "parameters" :
   [
    {
     "is_this_ptr" : true,
     "referenced_type" : "_ZTIPN7android8hardware10automotive2sv4V1_022BnHwSurroundViewStreamE"
    }
   ],
   "return_type" : "_ZTIv",
   "source_file" : "/out/soong/.intermediates/hardware/interfaces/automotive/sv/1.0/android.hardware.automotive.sv@1.0_genc++_headers/gen/android/hardware/automotive/sv/1.0/BnHwSurroundViewStream.h"
  },
  {
   "function_name" : "android::hardware::automotive::sv::V1_0::BpHwSurroundViewStream::linkToDeath",
   "linker_set_key" : "_ZN7android8hardware10automotive2sv4V1_022BpHwSurroundViewStream11linkToDeathERKNS_2spINS0_20hidl_death_recipientEEEy",
   "parameters" :
   [
    {
     "is_this_ptr" : true,
     "referenced_type" : "_ZTIPN7android8hardware10automotive2sv4V1_022BpHwSurroundViewStreamE"
    },
    {
     "referenced_type" : "_ZTIRKN7android2spINS_8hardware20hidl_death_recipientEEE"
    },
    {
     "referenced_type" : "_ZTIy"
    }
   ],
   "return_type" : "_ZTIN7android8hardware6ReturnIbEE",
   "source_file" : "/out/soong/.intermediates/hardware/interfaces/automotive/sv/1.0/android.hardware.automotive.sv@1.0_genc++_headers/gen/android/hardware/automotive/sv/1.0/BpHwSurroundViewStream.h"
  },
  {
   "function_name" : "android::hardware::automotive::sv::V1_0::BpHwSurroundViewStream::_hidl_notify",
   "linker_set_key" : "_ZN7android8hardware10automotive2sv4V1_022BpHwSurroundViewStream12_hidl_notifyEPNS0_10IInterfaceEPNS0_7details16HidlInstrumentorENS3_7SvEventE",
   "parameters" :
   [
    {
     "referenced_type" : "_ZTIPN7android8hardware10IInterfaceE"
    },
    {
     "referenced_type" : "_ZTIPN7android8hardware7details16HidlInstrumentorE"
    },
    {
     "referenced_type" : "_ZTIN7android8hardware10automotive2sv4V1_07SvEventE"
    }
   ],
   "return_type" : "_ZTIN7android8hardware6ReturnIvEE",
   "source_file" : "/out/soong/.intermediates/hardware/interfaces/automotive/sv/1.0/android.hardware.automotive.sv@1.0_genc++_headers/gen/android/hardware/automotive/sv/1.0/BpHwSurroundViewStream.h"
  },
  {
   "function_name" : "android::hardware::automotive::sv::V1_0::BpHwSurroundViewStream::getDebugInfo",
   "linker_set_key" : "_ZN7android8hardware10automotive2sv4V1_022BpHwSurroundViewStream12getDebugInfoENSt3__18functionIFvRKNS_4hidl4base4V1_09DebugInfoEEEE",
   "parameters" :
   [
    {
     "is_this_ptr" : true,
     "referenced_type" : "_ZTIPN7android8hardware10automotive2sv4V1_022BpHwSurroundViewStreamE"
    },
    {
     "referenced_type" : "_ZTINSt3__18functionIFvRKN7android4hidl4base4V1_09DebugInfoEEEE"
    }
   ],
   "return_type" : "_ZTIN7android8hardware6ReturnIvEE",
   "source_file" : "/out/soong/.intermediates/hardware/interfaces/automotive/sv/1.0/android.hardware.automotive.sv@1.0_genc++_headers/gen/android/hardware/automotive/sv/1.0/BpHwSurroundViewStream.h"
  },
  {
   "function_name" : "android::hardware::automotive::sv::V1_0::BpHwSurroundViewStream::getHashChain",
   "linker_set_key" : "_ZN7android8hardware10automotive2sv4V1_022BpHwSurroundViewStream12getHashChainENSt3__18functionIFvRKNS0_8hidl_vecINS0_10hidl_arrayIhLj32EJEEEEEEEE",
   "parameters" :
   [
    {
     "is_this_ptr" : true,
     "referenced_type" : "_ZTIPN7android8hardware10automotive2sv4V1_022BpHwSurroundViewStreamE"
    },
    {
     "referenced_type" : "_ZTINSt3__18functionIFvRKN7android8hardware8hidl_vecINS2_10hidl_arrayIhLj32EJEEEEEEEE"
    }
   ],
   "return_type" : "_ZTIN7android8hardware6ReturnIvEE",
   "source_file" : "/out/soong/.intermediates/hardware/interfaces/automotive/sv/1.0/android.hardware.automotive.sv@1.0_genc++_headers/gen/android/hardware/automotive/sv/1.0/BpHwSurroundViewStream.h"
  },
  {
   "function_name" : "android::hardware::automotive::sv::V1_0::BpHwSurroundViewStream::receiveFrames",
   "linker_set_key" : "_ZN7android8hardware10automotive2sv4V1_022BpHwSurroundViewStream13receiveFramesERKNS3_12SvFramesDescE",
   "parameters" :
   [
    {
     "is_this_ptr" : true,
     "referenced_type" : "_ZTIPN7android8hardware10automotive2sv4V1_022BpHwSurroundViewStreamE"
    },
    {
     "referenced_type" : "_ZTIRKN7android8hardware10automotive2sv4V1_012SvFramesDescE"
    }
   ],
   "return_type" : "_ZTIN7android8hardware6ReturnIvEE",
   "source_file" : "/out/soong/.intermediates/hardware/interfaces/automotive/sv/1.0/android.hardware.automotive.sv@1.0_genc++_headers/gen/android/hardware/automotive/sv/1.0/BpHwSurroundViewStream.h"
  },
  {
   "function_name" : "android::hardware::automotive::sv::V1_0::BpHwSurroundViewStream::unlinkToDeath",
   "linker_set_key" : "_ZN7android8hardware10automotive2sv4V1_022BpHwSurroundViewStream13unlinkToDeathERKNS_2spINS0_20hidl_death_recipientEEE",
   "parameters" :
   [
    {
     "is_this_ptr" : true,
     "referenced_type" : "_ZTIPN7android8hardware10automotive2sv4V1_022BpHwSurroundViewStreamE"
    },
    {
     "referenced_type" : "_ZTIRKN7android2spINS_8hardware20hidl_death_recipientEEE"
    }
   ],
   "return_type" : "_ZTIN7android8hardware6ReturnIbEE",
   "source_file" : "/out/soong/.intermediates/hardware/interfaces/automotive/sv/1.0/android.hardware.automotive.sv@1.0_genc++_headers/gen/android/hardware/automotive/sv/1.0/BpHwSurroundViewStream.h"
  },
  {
   "function_name" : "android::hardware::automotive::sv::V1_0::BpHwSurroundViewStream::interfaceChain",
   "linker_set_key" : "_ZN7android8hardware10automotive2sv4V1_022BpHwSurroundViewStream14interfaceChainENSt3__18functionIFvRKNS0_8hidl_vecINS0_11hidl_stringEEEEEE",
   "parameters" :
   [
    {
     "is_this_ptr" : true,
     "referenced_type" : "_ZTIPN7android8hardware10automotive2sv4V1_022BpHwSurroundViewStreamE"
    },
    {
     "referenced_type" : "_ZTINSt3__18functionIFvRKN7android8hardware8hidl_vecINS2_11hidl_stringEEEEEE"
    }
   ],
   "return_type" : "_ZTIN7android8hardware6ReturnIvEE",
   "source_file" : "/out/soong/.intermediates/hardware/interfaces/automotive/sv/1.0/android.hardware.automotive.sv@1.0_genc++_headers/gen/android/hardware/automotive/sv/1.0/BpHwSurroundViewStream.h"
  },
  {
   "function_name" : "android::hardware::automotive::sv::V1_0::BpHwSurroundViewStream::onLastStrongRef",
   "linker_set_key" : "_ZN7android8hardware10automotive2sv4V1_022BpHwSurroundViewStream15onLastStrongRefEPKv",
   "parameters" :
   [
    {
     "is_this_ptr" : true,
     "referenced_type" : "_ZTIPN7android8hardware10automotive2sv4V1_022BpHwSurroundViewStreamE"
    },
    {
     "referenced_type" : "_ZTIPKv"
    }
   ],
   "return_type" : "_ZTIv",
   "source_file" : "/out/soong/.intermediates/hardware/interfaces/automotive/sv/1.0/android.hardware.automotive.sv@1.0_genc++_headers/gen/android/hardware/automotive/sv/1.0/BpHwSurroundViewStream.h"
  },
  {
   "function_name" : "android::hardware::automotive::sv::V1_0::BpHwSurroundViewStream::_hidl_receiveFrames",
   "linker_set_key" : "_ZN7android8hardware10automotive2sv4V1_022BpHwSurroundViewStream19_hidl_receiveFramesEPNS0_10IInterfaceEPNS0_7details16HidlInstrumentorERKNS3_12SvFramesDescE",
   "parameters" :
   [
    {
     "referenced_type" : "_ZTIPN7android8hardware10IInterfaceE"
    },
    {
     "referenced_type" : "_ZTIPN7android8hardware7details16HidlInstrumentorE"
    },
    {
     "referenced_type" : "_ZTIRKN7android8hardware10automotive2sv4V1_012SvFramesDescE"
    }
   ],
   "return_type" : "_ZTIN7android8hardware6ReturnIvEE",
   "source_file" : "/out/soong/.intermediates/hardware/interfaces/automotive/sv/1.0/android.hardware.automotive.sv@1.0_genc++_headers/gen/android/hardware/automotive/sv/1.0/BpHwSurroundViewStream.h"
  },
  {
   "function_name" : "android::hardware::automotive::sv::V1_0::BpHwSurroundViewStream::interfaceDescriptor",
   "linker_set_key" : "_ZN7android8hardware10automotive2sv4V1_022BpHwSurroundViewStream19interfaceDescriptorENSt3__18functionIFvRKNS0_11hidl_stringEEEE",
   "parameters" :
   [
    {
     "is_this_ptr" : true,
     "referenced_type" : "_ZTIPN7android8hardware10automotive2sv4V1_022BpHwSurroundViewStreamE"
    },
    {
     "referenced_type" : "_ZTINSt3__18functionIFvRKN7android8hardware11hidl_stringEEEE"
    }
   ],
   "return_type" : "_ZTIN7android8hardware6ReturnIvEE",
   "source_file" : "/out/soong/.intermediates/hardware/interfaces/automotive/sv/1.0/android.hardware.automotive.sv@1.0_genc++_headers/gen/android/hardware/automotive/sv/1.0/BpHwSurroundViewStream.h"
  },
  {
   "function_name" : "android::hardware::automotive::sv::V1_0::BpHwSurroundViewStream::notifySyspropsChanged",
   "linker_set_key" : "_ZN7android8hardware10automotive2sv4V1_022BpHwSurroundViewStream21notifySyspropsChangedEv",
   "parameters" :
   [
    {
     "is_this_ptr" : true,
     "referenced_type" : "_ZTIPN7android8hardware10automotive2sv4V1_022BpHwSurroundViewStreamE"
    }
   ],
   "return_type" : "_ZTIN7android8hardware6ReturnIvEE",
   "source_file" : "/out/soong/.intermediates/hardware/interfaces/automotive/sv/1.0/android.hardware.automotive.sv@1.0_genc++_headers/gen/android/hardware/automotive/sv/1.0/BpHwSurroundViewStream.h"
  },
  {
   "function_name" : "android::hardware::automotive::sv::V1_0::BpHwSurroundViewStream::setHALInstrumentation",
   "linker_set_key" : "_ZN7android8hardware10automotive2sv4V1_022BpHwSurroundViewStream21setHALInstrumentationEv",
   "parameters" :
   [
    {
     "is_this_ptr" : true,
     "referenced_type" : "_ZTIPN7android8hardware10automotive2sv4V1_022BpHwSurroundViewStreamE"
    }
   ],
   "return_type" : "_ZTIN7android8hardware6ReturnIvEE",
   "source_file" : "/out/soong/.intermediates/hardware/interfaces/automotive/sv/1.0/android.hardware.automotive.sv@1.0_genc++_headers/gen/android/hardware/automotive/sv/1.0/BpHwSurroundViewStream.h"
  },
  {
   "function_name" : "android::hardware::automotive::sv::V1_0::BpHwSurroundViewStream::ping",
   "linker_set_key" : "_ZN7android8hardware10automotive2sv4V1_022BpHwSurroundViewStream4pingEv",
   "parameters" :
   [
    {
     "is_this_ptr" : true,
     "referenced_type" : "_ZTIPN7android8hardware10automotive2sv4V1_022BpHwSurroundViewStreamE"
    }
   ],
   "return_type" : "_ZTIN7android8hardware6ReturnIvEE",
   "source_file" : "/out/soong/.intermediates/hardware/interfaces/automotive/sv/1.0/android.hardware.automotive.sv@1.0_genc++_headers/gen/android/hardware/automotive/sv/1.0/BpHwSurroundViewStream.h"
  },
  {
   "function_name" : "android::hardware::automotive::sv::V1_0::BpHwSurroundViewStream::debug",
   "linker_set_key" : "_ZN7android8hardware10automotive2sv4V1_022BpHwSurroundViewStream5debugERKNS0_11hidl_handleERKNS0_8hidl_vecINS0_11hidl_stringEEE",
   "parameters" :
   [
    {
     "is_this_ptr" : true,
     "referenced_type" : "_ZTIPN7android8hardware10automotive2sv4V1_022BpHwSurroundViewStreamE"
    },
    {
     "referenced_type" : "_ZTIRKN7android8hardware11hidl_handleE"
    },
    {
     "referenced_type" : "_ZTIRKN7android8hardware8hidl_vecINS0_11hidl_stringEEE"
    }
   ],
   "return_type" : "_ZTIN7android8hardware6ReturnIvEE",
   "source_file" : "/out/soong/.intermediates/hardware/interfaces/automotive/sv/1.0/android.hardware.automotive.sv@1.0_genc++_headers/gen/android/hardware/automotive/sv/1.0/BpHwSurroundViewStream.h"
  },
  {
   "function_name" : "android::hardware::automotive::sv::V1_0::BpHwSurroundViewStream::notify",
   "linker_set_key" : "_ZN7android8hardware10automotive2sv4V1_022BpHwSurroundViewStream6notifyENS3_7SvEventE",
   "parameters" :
   [
    {
     "is_this_ptr" : true,
     "referenced_type" : "_ZTIPN7android8hardware10automotive2sv4V1_022BpHwSurroundViewStreamE"
    },
    {
     "referenced_type" : "_ZTIN7android8hardware10automotive2sv4V1_07SvEventE"
    }
   ],
   "return_type" : "_ZTIN7android8hardware6ReturnIvEE",
   "source_file" : "/out/soong/.intermediates/hardware/interfaces/automotive/sv/1.0/android.hardware.automotive.sv@1.0_genc++_headers/gen/android/hardware/automotive/sv/1.0/BpHwSurroundViewStream.h"
  },
  {
   "function_name" : "android::hardware::automotive::sv::V1_0::BpHwSurroundViewStream::BpHwSurroundViewStream",
   "linker_set_key" : "_ZN7android8hardware10automotive2sv4V1_022BpHwSurroundViewStreamC1ERKNS_2spINS0_7IBinderEEE",
   "parameters" :
   [
    {
     "is_this_ptr" : true,
     "referenced_type" : "_ZTIPN7android8hardware10automotive2sv4V1_022BpHwSurroundViewStreamE"
    },
    {
     "referenced_type" : "_ZTIRKN7android2spINS_8hardware7IBinderEEE"
    }
   ],
   "return_type" : "_ZTIv",
   "source_file" : "/out/soong/.intermediates/hardware/interfaces/automotive/sv/1.0/android.hardware.automotive.sv@1.0_genc++_headers/gen/android/hardware/automotive/sv/1.0/BpHwSurroundViewStream.h"
  },
  {
   "function_name" : "android::hardware::automotive::sv::V1_0::BpHwSurroundViewStream::BpHwSurroundViewStream",
   "linker_set_key" : "_ZN7android8hardware10automotive2sv4V1_022BpHwSurroundViewStreamC2ERKNS_2spINS0_7IBinderEEE",
   "parameters" :
   [
    {
     "is_this_ptr" : true,
     "referenced_type" : "_ZTIPN7android8hardware10automotive2sv4V1_022BpHwSurroundViewStreamE"
    },
    {
     "referenced_type" : "_ZTIRKN7android2spINS_8hardware7IBinderEEE"
    }
   ],
   "return_type" : "_ZTIv",
   "source_file" : "/out/soong/.intermediates/hardware/interfaces/automotive/sv/1.0/android.hardware.automotive.sv@1.0_genc++_headers/gen/android/hardware/automotive/sv/1.0/BpHwSurroundViewStream.h"
  },
  {
   "function_name" : "android::hardware::automotive::sv::V1_0::ISurroundView2dSession::getService",
   "linker_set_key" : "_ZN7android8hardware10automotive2sv4V1_022ISurroundView2dSession10getServiceERKNSt3__112basic_stringIcNS5_11char_traitsIcEENS5_9allocatorIcEEEEb",
   "parameters" :
   [
    {
     "default_arg" : true,
     "referenced_type" : "_ZTIRKNSt3__112basic_stringIcNS_11char_traitsIcEENS_9allocatorIcEEEE"
    },
    {
     "default_arg" : true,
     "referenced_type" : "_ZTIb"
    }
   ],
   "return_type" : "_ZTIN7android2spINS_8hardware10automotive2sv4V1_022ISurroundView2dSessionEEE",
   "source_file" : "/out/soong/.intermediates/hardware/interfaces/automotive/sv/1.0/android.hardware.automotive.sv@1.0_genc++_headers/gen/android/hardware/automotive/sv/1.0/ISurroundView2dSession.h"
  },
  {
   "function_name" : "android::hardware::automotive::sv::V1_0::ISurroundView2dSession::linkToDeath",
   "linker_set_key" : "_ZN7android8hardware10automotive2sv4V1_022ISurroundView2dSession11linkToDeathERKNS_2spINS0_20hidl_death_recipientEEEy",
   "parameters" :
   [
    {
     "is_this_ptr" : true,
     "referenced_type" : "_ZTIPN7android8hardware10automotive2sv4V1_022ISurroundView2dSessionE"
    },
    {
     "referenced_type" : "_ZTIRKN7android2spINS_8hardware20hidl_death_recipientEEE"
    },
    {
     "referenced_type" : "_ZTIy"
    }
   ],
   "return_type" : "_ZTIN7android8hardware6ReturnIbEE",
   "source_file" : "/out/soong/.intermediates/hardware/interfaces/automotive/sv/1.0/android.hardware.automotive.sv@1.0_genc++_headers/gen/android/hardware/automotive/sv/1.0/ISurroundView2dSession.h"
  },
  {
   "function_name" : "android::hardware::automotive::sv::V1_0::ISurroundView2dSession::getDebugInfo",
   "linker_set_key" : "_ZN7android8hardware10automotive2sv4V1_022ISurroundView2dSession12getDebugInfoENSt3__18functionIFvRKNS_4hidl4base4V1_09DebugInfoEEEE",
   "parameters" :
   [
    {
     "is_this_ptr" : true,
     "referenced_type" : "_ZTIPN7android8hardware10automotive2sv4V1_022ISurroundView2dSessionE"
    },
    {
     "referenced_type" : "_ZTINSt3__18functionIFvRKN7android4hidl4base4V1_09DebugInfoEEEE"
    }
   ],
   "return_type" : "_ZTIN7android8hardware6ReturnIvEE",
   "source_file" : "/out/soong/.intermediates/hardware/interfaces/automotive/sv/1.0/android.hardware.automotive.sv@1.0_genc++_headers/gen/android/hardware/automotive/sv/1.0/ISurroundView2dSession.h"
  },
  {
   "function_name" : "android::hardware::automotive::sv::V1_0::ISurroundView2dSession::getHashChain",
   "linker_set_key" : "_ZN7android8hardware10automotive2sv4V1_022ISurroundView2dSession12getHashChainENSt3__18functionIFvRKNS0_8hidl_vecINS0_10hidl_arrayIhLj32EJEEEEEEEE",
   "parameters" :
   [
    {
     "is_this_ptr" : true,
     "referenced_type" : "_ZTIPN7android8hardware10automotive2sv4V1_022ISurroundView2dSessionE"
    },
    {
     "referenced_type" : "_ZTINSt3__18functionIFvRKN7android8hardware8hidl_vecINS2_10hidl_arrayIhLj32EJEEEEEEEE"
    }
   ],
   "return_type" : "_ZTIN7android8hardware6ReturnIvEE",
   "source_file" : "/out/soong/.intermediates/hardware/interfaces/automotive/sv/1.0/android.hardware.automotive.sv@1.0_genc++_headers/gen/android/hardware/automotive/sv/1.0/ISurroundView2dSession.h"
  },
  {
   "function_name" : "android::hardware::automotive::sv::V1_0::ISurroundView2dSession::tryGetService",
   "linker_set_key" : "_ZN7android8hardware10automotive2sv4V1_022ISurroundView2dSession13tryGetServiceERKNSt3__112basic_stringIcNS5_11char_traitsIcEENS5_9allocatorIcEEEEb",
   "parameters" :
   [
    {
     "default_arg" : true,
     "referenced_type" : "_ZTIRKNSt3__112basic_stringIcNS_11char_traitsIcEENS_9allocatorIcEEEE"
    },
    {
     "default_arg" : true,
     "referenced_type" : "_ZTIb"
    }
   ],
   "return_type" : "_ZTIN7android2spINS_8hardware10automotive2sv4V1_022ISurroundView2dSessionEEE",
   "source_file" : "/out/soong/.intermediates/hardware/interfaces/automotive/sv/1.0/android.hardware.automotive.sv@1.0_genc++_headers/gen/android/hardware/automotive/sv/1.0/ISurroundView2dSession.h"
  },
  {
   "function_name" : "android::hardware::automotive::sv::V1_0::ISurroundView2dSession::unlinkToDeath",
   "linker_set_key" : "_ZN7android8hardware10automotive2sv4V1_022ISurroundView2dSession13unlinkToDeathERKNS_2spINS0_20hidl_death_recipientEEE",
   "parameters" :
   [
    {
     "is_this_ptr" : true,
     "referenced_type" : "_ZTIPN7android8hardware10automotive2sv4V1_022ISurroundView2dSessionE"
    },
    {
     "referenced_type" : "_ZTIRKN7android2spINS_8hardware20hidl_death_recipientEEE"
    }
   ],
   "return_type" : "_ZTIN7android8hardware6ReturnIbEE",
   "source_file" : "/out/soong/.intermediates/hardware/interfaces/automotive/sv/1.0/android.hardware.automotive.sv@1.0_genc++_headers/gen/android/hardware/automotive/sv/1.0/ISurroundView2dSession.h"
  },
  {
   "function_name" : "android::hardware::automotive::sv::V1_0::ISurroundView2dSession::interfaceChain",
   "linker_set_key" : "_ZN7android8hardware10automotive2sv4V1_022ISurroundView2dSession14interfaceChainENSt3__18functionIFvRKNS0_8hidl_vecINS0_11hidl_stringEEEEEE",
   "parameters" :
   [
    {
     "is_this_ptr" : true,
     "referenced_type" : "_ZTIPN7android8hardware10automotive2sv4V1_022ISurroundView2dSessionE"
    },
    {
     "referenced_type" : "_ZTINSt3__18functionIFvRKN7android8hardware8hidl_vecINS2_11hidl_stringEEEEEE"
    }
   ],
   "return_type" : "_ZTIN7android8hardware6ReturnIvEE",
   "source_file" : "/out/soong/.intermediates/hardware/interfaces/automotive/sv/1.0/android.hardware.automotive.sv@1.0_genc++_headers/gen/android/hardware/automotive/sv/1.0/ISurroundView2dSession.h"
  },
  {
   "function_name" : "android::hardware::automotive::sv::V1_0::ISurroundView2dSession::registerAsService",
   "linker_set_key" : "_ZN7android8hardware10automotive2sv4V1_022ISurroundView2dSession17registerAsServiceERKNSt3__112basic_stringIcNS5_11char_traitsIcEENS5_9allocatorIcEEEE",
   "parameters" :
   [
    {
     "is_this_ptr" : true,
     "referenced_type" : "_ZTIPN7android8hardware10automotive2sv4V1_022ISurroundView2dSessionE"
    },
    {
     "default_arg" : true,
     "referenced_type" : "_ZTIRKNSt3__112basic_stringIcNS_11char_traitsIcEENS_9allocatorIcEEEE"
    }
   ],
   "return_type" : "_ZTIi",
   "source_file" : "/out/soong/.intermediates/hardware/interfaces/automotive/sv/1.0/android.hardware.automotive.sv@1.0_genc++_headers/gen/android/hardware/automotive/sv/1.0/ISurroundView2dSession.h"
  },
  {
   "function_name" : "android::hardware::automotive::sv::V1_0::ISurroundView2dSession::interfaceDescriptor",
   "linker_set_key" : "_ZN7android8hardware10automotive2sv4V1_022ISurroundView2dSession19interfaceDescriptorENSt3__18functionIFvRKNS0_11hidl_stringEEEE",
   "parameters" :
   [
    {
     "is_this_ptr" : true,
     "referenced_type" : "_ZTIPN7android8hardware10automotive2sv4V1_022ISurroundView2dSessionE"
    },
    {
     "referenced_type" : "_ZTINSt3__18functionIFvRKN7android8hardware11hidl_stringEEEE"
    }
   ],
   "return_type" : "_ZTIN7android8hardware6ReturnIvEE",
   "source_file" : "/out/soong/.intermediates/hardware/interfaces/automotive/sv/1.0/android.hardware.automotive.sv@1.0_genc++_headers/gen/android/hardware/automotive/sv/1.0/ISurroundView2dSession.h"
  },
  {
   "function_name" : "android::hardware::automotive::sv::V1_0::ISurroundView2dSession::notifySyspropsChanged",
   "linker_set_key" : "_ZN7android8hardware10automotive2sv4V1_022ISurroundView2dSession21notifySyspropsChangedEv",
   "parameters" :
   [
    {
     "is_this_ptr" : true,
     "referenced_type" : "_ZTIPN7android8hardware10automotive2sv4V1_022ISurroundView2dSessionE"
    }
   ],
   "return_type" : "_ZTIN7android8hardware6ReturnIvEE",
   "source_file" : "/out/soong/.intermediates/hardware/interfaces/automotive/sv/1.0/android.hardware.automotive.sv@1.0_genc++_headers/gen/android/hardware/automotive/sv/1.0/ISurroundView2dSession.h"
  },
  {
   "function_name" : "android::hardware::automotive::sv::V1_0::ISurroundView2dSession::setHALInstrumentation",
   "linker_set_key" : "_ZN7android8hardware10automotive2sv4V1_022ISurroundView2dSession21setHALInstrumentationEv",
   "parameters" :
   [
    {
     "is_this_ptr" : true,
     "referenced_type" : "_ZTIPN7android8hardware10automotive2sv4V1_022ISurroundView2dSessionE"
    }
   ],
   "return_type" : "_ZTIN7android8hardware6ReturnIvEE",
   "source_file" : "/out/soong/.intermediates/hardware/interfaces/automotive/sv/1.0/android.hardware.automotive.sv@1.0_genc++_headers/gen/android/hardware/automotive/sv/1.0/ISurroundView2dSession.h"
  },
  {
   "function_name" : "android::hardware::automotive::sv::V1_0::ISurroundView2dSession::registerForNotifications",
   "linker_set_key" : "_ZN7android8hardware10automotive2sv4V1_022ISurroundView2dSession24registerForNotificationsERKNSt3__112basic_stringIcNS5_11char_traitsIcEENS5_9allocatorIcEEEERKNS_2spINS_4hidl7manager4V1_020IServiceNotificationEEE",
   "parameters" :
   [
    {
     "referenced_type" : "_ZTIRKNSt3__112basic_stringIcNS_11char_traitsIcEENS_9allocatorIcEEEE"
    },
    {
     "referenced_type" : "_ZTIRKN7android2spINS_4hidl7manager4V1_020IServiceNotificationEEE"
    }
   ],
   "return_type" : "_ZTIb",
   "source_file" : "/out/soong/.intermediates/hardware/interfaces/automotive/sv/1.0/android.hardware.automotive.sv@1.0_genc++_headers/gen/android/hardware/automotive/sv/1.0/ISurroundView2dSession.h"
  },
  {
   "function_name" : "android::hardware::automotive::sv::V1_0::ISurroundView2dSession::ping",
   "linker_set_key" : "_ZN7android8hardware10automotive2sv4V1_022ISurroundView2dSession4pingEv",
   "parameters" :
   [
    {
     "is_this_ptr" : true,
     "referenced_type" : "_ZTIPN7android8hardware10automotive2sv4V1_022ISurroundView2dSessionE"
    }
   ],
   "return_type" : "_ZTIN7android8hardware6ReturnIvEE",
   "source_file" : "/out/soong/.intermediates/hardware/interfaces/automotive/sv/1.0/android.hardware.automotive.sv@1.0_genc++_headers/gen/android/hardware/automotive/sv/1.0/ISurroundView2dSession.h"
  },
  {
   "function_name" : "android::hardware::automotive::sv::V1_0::ISurroundView2dSession::debug",
   "linker_set_key" : "_ZN7android8hardware10automotive2sv4V1_022ISurroundView2dSession5debugERKNS0_11hidl_handleERKNS0_8hidl_vecINS0_11hidl_stringEEE",
   "parameters" :
   [
    {
     "is_this_ptr" : true,
     "referenced_type" : "_ZTIPN7android8hardware10automotive2sv4V1_022ISurroundView2dSessionE"
    },
    {
     "referenced_type" : "_ZTIRKN7android8hardware11hidl_handleE"
    },
    {
     "referenced_type" : "_ZTIRKN7android8hardware8hidl_vecINS0_11hidl_stringEEE"
    }
   ],
   "return_type" : "_ZTIN7android8hardware6ReturnIvEE",
   "source_file" : "/out/soong/.intermediates/hardware/interfaces/automotive/sv/1.0/android.hardware.automotive.sv@1.0_genc++_headers/gen/android/hardware/automotive/sv/1.0/ISurroundView2dSession.h"
  },
  {
   "function_name" : "android::hardware::automotive::sv::V1_0::ISurroundView2dSession::castFrom",
   "linker_set_key" : "_ZN7android8hardware10automotive2sv4V1_022ISurroundView2dSession8castFromERKNS_2spINS3_20ISurroundViewSessionEEEb",
   "parameters" :
   [
    {
     "referenced_type" : "_ZTIRKN7android2spINS_8hardware10automotive2sv4V1_020ISurroundViewSessionEEE"
    },
    {
     "default_arg" : true,
     "referenced_type" : "_ZTIb"
    }
   ],
   "return_type" : "_ZTIN7android8hardware6ReturnINS_2spINS0_10automotive2sv4V1_022ISurroundView2dSessionEEEEE",
   "source_file" : "/out/soong/.intermediates/hardware/interfaces/automotive/sv/1.0/android.hardware.automotive.sv@1.0_genc++_headers/gen/android/hardware/automotive/sv/1.0/ISurroundView2dSession.h"
  },
  {
   "function_name" : "android::hardware::automotive::sv::V1_0::ISurroundView2dSession::castFrom",
   "linker_set_key" : "_ZN7android8hardware10automotive2sv4V1_022ISurroundView2dSession8castFromERKNS_2spINS_4hidl4base4V1_05IBaseEEEb",
   "parameters" :
   [
    {
     "referenced_type" : "_ZTIRKN7android2spINS_4hidl4base4V1_05IBaseEEE"
    },
    {
     "default_arg" : true,
     "referenced_type" : "_ZTIb"
    }
   ],
   "return_type" : "_ZTIN7android8hardware6ReturnINS_2spINS0_10automotive2sv4V1_022ISurroundView2dSessionEEEEE",
   "source_file" : "/out/soong/.intermediates/hardware/interfaces/automotive/sv/1.0/android.hardware.automotive.sv@1.0_genc++_headers/gen/android/hardware/automotive/sv/1.0/ISurroundView2dSession.h"
  },
  {
   "function_name" : "android::hardware::automotive::sv::V1_0::ISurroundView2dSession::castFrom",
   "linker_set_key" : "_ZN7android8hardware10automotive2sv4V1_022ISurroundView2dSession8castFromERKNS_2spIS4_EEb",
   "parameters" :
   [
    {
     "referenced_type" : "_ZTIRKN7android2spINS_8hardware10automotive2sv4V1_022ISurroundView2dSessionEEE"
    },
    {
     "default_arg" : true,
     "referenced_type" : "_ZTIb"
    }
   ],
   "return_type" : "_ZTIN7android8hardware6ReturnINS_2spINS0_10automotive2sv4V1_022ISurroundView2dSessionEEEEE",
   "source_file" : "/out/soong/.intermediates/hardware/interfaces/automotive/sv/1.0/android.hardware.automotive.sv@1.0_genc++_headers/gen/android/hardware/automotive/sv/1.0/ISurroundView2dSession.h"
  },
  {
   "function_name" : "android::hardware::automotive::sv::V1_0::ISurroundView3dSession::getService",
   "linker_set_key" : "_ZN7android8hardware10automotive2sv4V1_022ISurroundView3dSession10getServiceERKNSt3__112basic_stringIcNS5_11char_traitsIcEENS5_9allocatorIcEEEEb",
   "parameters" :
   [
    {
     "default_arg" : true,
     "referenced_type" : "_ZTIRKNSt3__112basic_stringIcNS_11char_traitsIcEENS_9allocatorIcEEEE"
    },
    {
     "default_arg" : true,
     "referenced_type" : "_ZTIb"
    }
   ],
   "return_type" : "_ZTIN7android2spINS_8hardware10automotive2sv4V1_022ISurroundView3dSessionEEE",
   "source_file" : "/out/soong/.intermediates/hardware/interfaces/automotive/sv/1.0/android.hardware.automotive.sv@1.0_genc++_headers/gen/android/hardware/automotive/sv/1.0/ISurroundView3dSession.h"
  },
  {
   "function_name" : "android::hardware::automotive::sv::V1_0::ISurroundView3dSession::linkToDeath",
   "linker_set_key" : "_ZN7android8hardware10automotive2sv4V1_022ISurroundView3dSession11linkToDeathERKNS_2spINS0_20hidl_death_recipientEEEy",
   "parameters" :
   [
    {
     "is_this_ptr" : true,
     "referenced_type" : "_ZTIPN7android8hardware10automotive2sv4V1_022ISurroundView3dSessionE"
    },
    {
     "referenced_type" : "_ZTIRKN7android2spINS_8hardware20hidl_death_recipientEEE"
    },
    {
     "referenced_type" : "_ZTIy"
    }
   ],
   "return_type" : "_ZTIN7android8hardware6ReturnIbEE",
   "source_file" : "/out/soong/.intermediates/hardware/interfaces/automotive/sv/1.0/android.hardware.automotive.sv@1.0_genc++_headers/gen/android/hardware/automotive/sv/1.0/ISurroundView3dSession.h"
  },
  {
   "function_name" : "android::hardware::automotive::sv::V1_0::ISurroundView3dSession::getDebugInfo",
   "linker_set_key" : "_ZN7android8hardware10automotive2sv4V1_022ISurroundView3dSession12getDebugInfoENSt3__18functionIFvRKNS_4hidl4base4V1_09DebugInfoEEEE",
   "parameters" :
   [
    {
     "is_this_ptr" : true,
     "referenced_type" : "_ZTIPN7android8hardware10automotive2sv4V1_022ISurroundView3dSessionE"
    },
    {
     "referenced_type" : "_ZTINSt3__18functionIFvRKN7android4hidl4base4V1_09DebugInfoEEEE"
    }
   ],
   "return_type" : "_ZTIN7android8hardware6ReturnIvEE",
   "source_file" : "/out/soong/.intermediates/hardware/interfaces/automotive/sv/1.0/android.hardware.automotive.sv@1.0_genc++_headers/gen/android/hardware/automotive/sv/1.0/ISurroundView3dSession.h"
  },
  {
   "function_name" : "android::hardware::automotive::sv::V1_0::ISurroundView3dSession::getHashChain",
   "linker_set_key" : "_ZN7android8hardware10automotive2sv4V1_022ISurroundView3dSession12getHashChainENSt3__18functionIFvRKNS0_8hidl_vecINS0_10hidl_arrayIhLj32EJEEEEEEEE",
   "parameters" :
   [
    {
     "is_this_ptr" : true,
     "referenced_type" : "_ZTIPN7android8hardware10automotive2sv4V1_022ISurroundView3dSessionE"
    },
    {
     "referenced_type" : "_ZTINSt3__18functionIFvRKN7android8hardware8hidl_vecINS2_10hidl_arrayIhLj32EJEEEEEEEE"
    }
   ],
   "return_type" : "_ZTIN7android8hardware6ReturnIvEE",
   "source_file" : "/out/soong/.intermediates/hardware/interfaces/automotive/sv/1.0/android.hardware.automotive.sv@1.0_genc++_headers/gen/android/hardware/automotive/sv/1.0/ISurroundView3dSession.h"
  },
  {
   "function_name" : "android::hardware::automotive::sv::V1_0::ISurroundView3dSession::tryGetService",
   "linker_set_key" : "_ZN7android8hardware10automotive2sv4V1_022ISurroundView3dSession13tryGetServiceERKNSt3__112basic_stringIcNS5_11char_traitsIcEENS5_9allocatorIcEEEEb",
   "parameters" :
   [
    {
     "default_arg" : true,
     "referenced_type" : "_ZTIRKNSt3__112basic_stringIcNS_11char_traitsIcEENS_9allocatorIcEEEE"
    },
    {
     "default_arg" : true,
     "referenced_type" : "_ZTIb"
    }
   ],
   "return_type" : "_ZTIN7android2spINS_8hardware10automotive2sv4V1_022ISurroundView3dSessionEEE",
   "source_file" : "/out/soong/.intermediates/hardware/interfaces/automotive/sv/1.0/android.hardware.automotive.sv@1.0_genc++_headers/gen/android/hardware/automotive/sv/1.0/ISurroundView3dSession.h"
  },
  {
   "function_name" : "android::hardware::automotive::sv::V1_0::ISurroundView3dSession::unlinkToDeath",
   "linker_set_key" : "_ZN7android8hardware10automotive2sv4V1_022ISurroundView3dSession13unlinkToDeathERKNS_2spINS0_20hidl_death_recipientEEE",
   "parameters" :
   [
    {
     "is_this_ptr" : true,
     "referenced_type" : "_ZTIPN7android8hardware10automotive2sv4V1_022ISurroundView3dSessionE"
    },
    {
     "referenced_type" : "_ZTIRKN7android2spINS_8hardware20hidl_death_recipientEEE"
    }
   ],
   "return_type" : "_ZTIN7android8hardware6ReturnIbEE",
   "source_file" : "/out/soong/.intermediates/hardware/interfaces/automotive/sv/1.0/android.hardware.automotive.sv@1.0_genc++_headers/gen/android/hardware/automotive/sv/1.0/ISurroundView3dSession.h"
  },
  {
   "function_name" : "android::hardware::automotive::sv::V1_0::ISurroundView3dSession::interfaceChain",
   "linker_set_key" : "_ZN7android8hardware10automotive2sv4V1_022ISurroundView3dSession14interfaceChainENSt3__18functionIFvRKNS0_8hidl_vecINS0_11hidl_stringEEEEEE",
   "parameters" :
   [
    {
     "is_this_ptr" : true,
     "referenced_type" : "_ZTIPN7android8hardware10automotive2sv4V1_022ISurroundView3dSessionE"
    },
    {
     "referenced_type" : "_ZTINSt3__18functionIFvRKN7android8hardware8hidl_vecINS2_11hidl_stringEEEEEE"
    }
   ],
   "return_type" : "_ZTIN7android8hardware6ReturnIvEE",
   "source_file" : "/out/soong/.intermediates/hardware/interfaces/automotive/sv/1.0/android.hardware.automotive.sv@1.0_genc++_headers/gen/android/hardware/automotive/sv/1.0/ISurroundView3dSession.h"
  },
  {
   "function_name" : "android::hardware::automotive::sv::V1_0::ISurroundView3dSession::registerAsService",
   "linker_set_key" : "_ZN7android8hardware10automotive2sv4V1_022ISurroundView3dSession17registerAsServiceERKNSt3__112basic_stringIcNS5_11char_traitsIcEENS5_9allocatorIcEEEE",
   "parameters" :
   [
    {
     "is_this_ptr" : true,
     "referenced_type" : "_ZTIPN7android8hardware10automotive2sv4V1_022ISurroundView3dSessionE"
    },
    {
     "default_arg" : true,
     "referenced_type" : "_ZTIRKNSt3__112basic_stringIcNS_11char_traitsIcEENS_9allocatorIcEEEE"
    }
   ],
   "return_type" : "_ZTIi",
   "source_file" : "/out/soong/.intermediates/hardware/interfaces/automotive/sv/1.0/android.hardware.automotive.sv@1.0_genc++_headers/gen/android/hardware/automotive/sv/1.0/ISurroundView3dSession.h"
  },
  {
   "function_name" : "android::hardware::automotive::sv::V1_0::ISurroundView3dSession::interfaceDescriptor",
   "linker_set_key" : "_ZN7android8hardware10automotive2sv4V1_022ISurroundView3dSession19interfaceDescriptorENSt3__18functionIFvRKNS0_11hidl_stringEEEE",
   "parameters" :
   [
    {
     "is_this_ptr" : true,
     "referenced_type" : "_ZTIPN7android8hardware10automotive2sv4V1_022ISurroundView3dSessionE"
    },
    {
     "referenced_type" : "_ZTINSt3__18functionIFvRKN7android8hardware11hidl_stringEEEE"
    }
   ],
   "return_type" : "_ZTIN7android8hardware6ReturnIvEE",
   "source_file" : "/out/soong/.intermediates/hardware/interfaces/automotive/sv/1.0/android.hardware.automotive.sv@1.0_genc++_headers/gen/android/hardware/automotive/sv/1.0/ISurroundView3dSession.h"
  },
  {
   "function_name" : "android::hardware::automotive::sv::V1_0::ISurroundView3dSession::notifySyspropsChanged",
   "linker_set_key" : "_ZN7android8hardware10automotive2sv4V1_022ISurroundView3dSession21notifySyspropsChangedEv",
   "parameters" :
   [
    {
     "is_this_ptr" : true,
     "referenced_type" : "_ZTIPN7android8hardware10automotive2sv4V1_022ISurroundView3dSessionE"
    }
   ],
   "return_type" : "_ZTIN7android8hardware6ReturnIvEE",
   "source_file" : "/out/soong/.intermediates/hardware/interfaces/automotive/sv/1.0/android.hardware.automotive.sv@1.0_genc++_headers/gen/android/hardware/automotive/sv/1.0/ISurroundView3dSession.h"
  },
  {
   "function_name" : "android::hardware::automotive::sv::V1_0::ISurroundView3dSession::setHALInstrumentation",
   "linker_set_key" : "_ZN7android8hardware10automotive2sv4V1_022ISurroundView3dSession21setHALInstrumentationEv",
   "parameters" :
   [
    {
     "is_this_ptr" : true,
     "referenced_type" : "_ZTIPN7android8hardware10automotive2sv4V1_022ISurroundView3dSessionE"
    }
   ],
   "return_type" : "_ZTIN7android8hardware6ReturnIvEE",
   "source_file" : "/out/soong/.intermediates/hardware/interfaces/automotive/sv/1.0/android.hardware.automotive.sv@1.0_genc++_headers/gen/android/hardware/automotive/sv/1.0/ISurroundView3dSession.h"
  },
  {
   "function_name" : "android::hardware::automotive::sv::V1_0::ISurroundView3dSession::registerForNotifications",
   "linker_set_key" : "_ZN7android8hardware10automotive2sv4V1_022ISurroundView3dSession24registerForNotificationsERKNSt3__112basic_stringIcNS5_11char_traitsIcEENS5_9allocatorIcEEEERKNS_2spINS_4hidl7manager4V1_020IServiceNotificationEEE",
   "parameters" :
   [
    {
     "referenced_type" : "_ZTIRKNSt3__112basic_stringIcNS_11char_traitsIcEENS_9allocatorIcEEEE"
    },
    {
     "referenced_type" : "_ZTIRKN7android2spINS_4hidl7manager4V1_020IServiceNotificationEEE"
    }
   ],
   "return_type" : "_ZTIb",
   "source_file" : "/out/soong/.intermediates/hardware/interfaces/automotive/sv/1.0/android.hardware.automotive.sv@1.0_genc++_headers/gen/android/hardware/automotive/sv/1.0/ISurroundView3dSession.h"
  },
  {
   "function_name" : "android::hardware::automotive::sv::V1_0::ISurroundView3dSession::ping",
   "linker_set_key" : "_ZN7android8hardware10automotive2sv4V1_022ISurroundView3dSession4pingEv",
   "parameters" :
   [
    {
     "is_this_ptr" : true,
     "referenced_type" : "_ZTIPN7android8hardware10automotive2sv4V1_022ISurroundView3dSessionE"
    }
   ],
   "return_type" : "_ZTIN7android8hardware6ReturnIvEE",
   "source_file" : "/out/soong/.intermediates/hardware/interfaces/automotive/sv/1.0/android.hardware.automotive.sv@1.0_genc++_headers/gen/android/hardware/automotive/sv/1.0/ISurroundView3dSession.h"
  },
  {
   "function_name" : "android::hardware::automotive::sv::V1_0::ISurroundView3dSession::debug",
   "linker_set_key" : "_ZN7android8hardware10automotive2sv4V1_022ISurroundView3dSession5debugERKNS0_11hidl_handleERKNS0_8hidl_vecINS0_11hidl_stringEEE",
   "parameters" :
   [
    {
     "is_this_ptr" : true,
     "referenced_type" : "_ZTIPN7android8hardware10automotive2sv4V1_022ISurroundView3dSessionE"
    },
    {
     "referenced_type" : "_ZTIRKN7android8hardware11hidl_handleE"
    },
    {
     "referenced_type" : "_ZTIRKN7android8hardware8hidl_vecINS0_11hidl_stringEEE"
    }
   ],
   "return_type" : "_ZTIN7android8hardware6ReturnIvEE",
   "source_file" : "/out/soong/.intermediates/hardware/interfaces/automotive/sv/1.0/android.hardware.automotive.sv@1.0_genc++_headers/gen/android/hardware/automotive/sv/1.0/ISurroundView3dSession.h"
  },
  {
   "function_name" : "android::hardware::automotive::sv::V1_0::ISurroundView3dSession::castFrom",
   "linker_set_key" : "_ZN7android8hardware10automotive2sv4V1_022ISurroundView3dSession8castFromERKNS_2spINS3_20ISurroundViewSessionEEEb",
   "parameters" :
   [
    {
     "referenced_type" : "_ZTIRKN7android2spINS_8hardware10automotive2sv4V1_020ISurroundViewSessionEEE"
    },
    {
     "default_arg" : true,
     "referenced_type" : "_ZTIb"
    }
   ],
   "return_type" : "_ZTIN7android8hardware6ReturnINS_2spINS0_10automotive2sv4V1_022ISurroundView3dSessionEEEEE",
   "source_file" : "/out/soong/.intermediates/hardware/interfaces/automotive/sv/1.0/android.hardware.automotive.sv@1.0_genc++_headers/gen/android/hardware/automotive/sv/1.0/ISurroundView3dSession.h"
  },
  {
   "function_name" : "android::hardware::automotive::sv::V1_0::ISurroundView3dSession::castFrom",
   "linker_set_key" : "_ZN7android8hardware10automotive2sv4V1_022ISurroundView3dSession8castFromERKNS_2spINS_4hidl4base4V1_05IBaseEEEb",
   "parameters" :
   [
    {
     "referenced_type" : "_ZTIRKN7android2spINS_4hidl4base4V1_05IBaseEEE"
    },
    {
     "default_arg" : true,
     "referenced_type" : "_ZTIb"
    }
   ],
   "return_type" : "_ZTIN7android8hardware6ReturnINS_2spINS0_10automotive2sv4V1_022ISurroundView3dSessionEEEEE",
   "source_file" : "/out/soong/.intermediates/hardware/interfaces/automotive/sv/1.0/android.hardware.automotive.sv@1.0_genc++_headers/gen/android/hardware/automotive/sv/1.0/ISurroundView3dSession.h"
  },
  {
   "function_name" : "android::hardware::automotive::sv::V1_0::ISurroundView3dSession::castFrom",
   "linker_set_key" : "_ZN7android8hardware10automotive2sv4V1_022ISurroundView3dSession8castFromERKNS_2spIS4_EEb",
   "parameters" :
   [
    {
     "referenced_type" : "_ZTIRKN7android2spINS_8hardware10automotive2sv4V1_022ISurroundView3dSessionEEE"
    },
    {
     "default_arg" : true,
     "referenced_type" : "_ZTIb"
    }
   ],
   "return_type" : "_ZTIN7android8hardware6ReturnINS_2spINS0_10automotive2sv4V1_022ISurroundView3dSessionEEEEE",
   "source_file" : "/out/soong/.intermediates/hardware/interfaces/automotive/sv/1.0/android.hardware.automotive.sv@1.0_genc++_headers/gen/android/hardware/automotive/sv/1.0/ISurroundView3dSession.h"
  },
  {
   "function_name" : "android::hardware::automotive::sv::V1_0::readEmbeddedFromParcel",
   "linker_set_key" : "_ZN7android8hardware10automotive2sv4V1_022readEmbeddedFromParcelERKNS3_12OverlaysDataERKNS0_6ParcelEjj",
   "parameters" :
   [
    {
     "referenced_type" : "_ZTIRKN7android8hardware10automotive2sv4V1_012OverlaysDataE"
    },
    {
     "referenced_type" : "_ZTIRKN7android8hardware6ParcelE"
    },
    {
     "referenced_type" : "_ZTIj"
    },
    {
     "referenced_type" : "_ZTIj"
    }
   ],
   "return_type" : "_ZTIi",
   "source_file" : "/out/soong/.intermediates/hardware/interfaces/automotive/sv/1.0/android.hardware.automotive.sv@1.0_genc++_headers/gen/android/hardware/automotive/sv/1.0/hwtypes.h"
  },
  {
   "function_name" : "android::hardware::automotive::sv::V1_0::readEmbeddedFromParcel",
   "linker_set_key" : "_ZN7android8hardware10automotive2sv4V1_022readEmbeddedFromParcelERKNS3_12SvFramesDescERKNS0_6ParcelEjj",
   "parameters" :
   [
    {
     "referenced_type" : "_ZTIRKN7android8hardware10automotive2sv4V1_012SvFramesDescE"
    },
    {
     "referenced_type" : "_ZTIRKN7android8hardware6ParcelE"
    },
    {
     "referenced_type" : "_ZTIj"
    },
    {
     "referenced_type" : "_ZTIj"
    }
   ],
   "return_type" : "_ZTIi",
   "source_file" : "/out/soong/.intermediates/hardware/interfaces/automotive/sv/1.0/android.hardware.automotive.sv@1.0_genc++_headers/gen/android/hardware/automotive/sv/1.0/hwtypes.h"
  },
  {
   "function_name" : "android::hardware::automotive::sv::V1_0::readEmbeddedFromParcel",
   "linker_set_key" : "_ZN7android8hardware10automotive2sv4V1_022readEmbeddedFromParcelERKNS3_8SvBufferERKNS0_6ParcelEjj",
   "parameters" :
   [
    {
     "referenced_type" : "_ZTIRKN7android8hardware10automotive2sv4V1_08SvBufferE"
    },
    {
     "referenced_type" : "_ZTIRKN7android8hardware6ParcelE"
    },
    {
     "referenced_type" : "_ZTIj"
    },
    {
     "referenced_type" : "_ZTIj"
    }
   ],
   "return_type" : "_ZTIi",
   "source_file" : "/out/soong/.intermediates/hardware/interfaces/automotive/sv/1.0/android.hardware.automotive.sv@1.0_genc++_headers/gen/android/hardware/automotive/sv/1.0/hwtypes.h"
  },
  {
   "function_name" : "android::hardware::automotive::sv::V1_0::BnHwSurroundViewService::onTransact",
   "linker_set_key" : "_ZN7android8hardware10automotive2sv4V1_023BnHwSurroundViewService10onTransactEjRKNS0_6ParcelEPS5_jNSt3__18functionIFvRS5_EEE",
   "parameters" :
   [
    {
     "is_this_ptr" : true,
     "referenced_type" : "_ZTIPN7android8hardware10automotive2sv4V1_023BnHwSurroundViewServiceE"
    },
    {
     "referenced_type" : "_ZTIj"
    },
    {
     "referenced_type" : "_ZTIRKN7android8hardware6ParcelE"
    },
    {
     "referenced_type" : "_ZTIPN7android8hardware6ParcelE"
    },
    {
     "default_arg" : true,
     "referenced_type" : "_ZTIj"
    },
    {
     "default_arg" : true,
     "referenced_type" : "_ZTINSt3__18functionIFvRN7android8hardware6ParcelEEEE"
    }
   ],
   "return_type" : "_ZTIi",
   "source_file" : "/out/soong/.intermediates/hardware/interfaces/automotive/sv/1.0/android.hardware.automotive.sv@1.0_genc++_headers/gen/android/hardware/automotive/sv/1.0/BnHwSurroundViewService.h"
  },
  {
   "access" : "private",
   "function_name" : "android::hardware::automotive::sv::V1_0::BnHwSurroundViewService::getDebugInfo",
   "linker_set_key" : "_ZN7android8hardware10automotive2sv4V1_023BnHwSurroundViewService12getDebugInfoENSt3__18functionIFvRKNS_4hidl4base4V1_09DebugInfoEEEE",
   "parameters" :
   [
    {
     "is_this_ptr" : true,
     "referenced_type" : "_ZTIPN7android8hardware10automotive2sv4V1_023BnHwSurroundViewServiceE"
    },
    {
     "referenced_type" : "_ZTINSt3__18functionIFvRKN7android4hidl4base4V1_09DebugInfoEEEE"
    }
   ],
   "return_type" : "_ZTIN7android8hardware6ReturnIvEE",
   "source_file" : "/out/soong/.intermediates/hardware/interfaces/automotive/sv/1.0/android.hardware.automotive.sv@1.0_genc++_headers/gen/android/hardware/automotive/sv/1.0/BnHwSurroundViewService.h"
  },
  {
   "function_name" : "android::hardware::automotive::sv::V1_0::BnHwSurroundViewService::_hidl_getCameraIds",
   "linker_set_key" : "_ZN7android8hardware10automotive2sv4V1_023BnHwSurroundViewService18_hidl_getCameraIdsEPNS_4hidl4base4V1_08BnHwBaseERKNS0_6ParcelEPSA_NSt3__18functionIFvRSA_EEE",
   "parameters" :
   [
    {
     "referenced_type" : "_ZTIPN7android4hidl4base4V1_08BnHwBaseE"
    },
    {
     "referenced_type" : "_ZTIRKN7android8hardware6ParcelE"
    },
    {
     "referenced_type" : "_ZTIPN7android8hardware6ParcelE"
    },
    {
     "referenced_type" : "_ZTINSt3__18functionIFvRN7android8hardware6ParcelEEEE"
    }
   ],
   "return_type" : "_ZTIi",
   "source_file" : "/out/soong/.intermediates/hardware/interfaces/automotive/sv/1.0/android.hardware.automotive.sv@1.0_genc++_headers/gen/android/hardware/automotive/sv/1.0/BnHwSurroundViewService.h"
  },
  {
   "function_name" : "android::hardware::automotive::sv::V1_0::BnHwSurroundViewService::_hidl_stop2dSession",
   "linker_set_key" : "_ZN7android8hardware10automotive2sv4V1_023BnHwSurroundViewService19_hidl_stop2dSessionEPNS_4hidl4base4V1_08BnHwBaseERKNS0_6ParcelEPSA_NSt3__18functionIFvRSA_EEE",
   "parameters" :
   [
    {
     "referenced_type" : "_ZTIPN7android4hidl4base4V1_08BnHwBaseE"
    },
    {
     "referenced_type" : "_ZTIRKN7android8hardware6ParcelE"
    },
    {
     "referenced_type" : "_ZTIPN7android8hardware6ParcelE"
    },
    {
     "referenced_type" : "_ZTINSt3__18functionIFvRN7android8hardware6ParcelEEEE"
    }
   ],
   "return_type" : "_ZTIi",
   "source_file" : "/out/soong/.intermediates/hardware/interfaces/automotive/sv/1.0/android.hardware.automotive.sv@1.0_genc++_headers/gen/android/hardware/automotive/sv/1.0/BnHwSurroundViewService.h"
  },
  {
   "function_name" : "android::hardware::automotive::sv::V1_0::BnHwSurroundViewService::_hidl_stop3dSession",
   "linker_set_key" : "_ZN7android8hardware10automotive2sv4V1_023BnHwSurroundViewService19_hidl_stop3dSessionEPNS_4hidl4base4V1_08BnHwBaseERKNS0_6ParcelEPSA_NSt3__18functionIFvRSA_EEE",
   "parameters" :
   [
    {
     "referenced_type" : "_ZTIPN7android4hidl4base4V1_08BnHwBaseE"
    },
    {
     "referenced_type" : "_ZTIRKN7android8hardware6ParcelE"
    },
    {
     "referenced_type" : "_ZTIPN7android8hardware6ParcelE"
    },
    {
     "referenced_type" : "_ZTINSt3__18functionIFvRN7android8hardware6ParcelEEEE"
    }
   ],
   "return_type" : "_ZTIi",
   "source_file" : "/out/soong/.intermediates/hardware/interfaces/automotive/sv/1.0/android.hardware.automotive.sv@1.0_genc++_headers/gen/android/hardware/automotive/sv/1.0/BnHwSurroundViewService.h"
  },
  {
   "function_name" : "android::hardware::automotive::sv::V1_0::BnHwSurroundViewService::_hidl_start2dSession",
   "linker_set_key" : "_ZN7android8hardware10automotive2sv4V1_023BnHwSurroundViewService20_hidl_start2dSessionEPNS_4hidl4base4V1_08BnHwBaseERKNS0_6ParcelEPSA_NSt3__18functionIFvRSA_EEE",
   "parameters" :
   [
    {
     "referenced_type" : "_ZTIPN7android4hidl4base4V1_08BnHwBaseE"
    },
    {
     "referenced_type" : "_ZTIRKN7android8hardware6ParcelE"
    },
    {
     "referenced_type" : "_ZTIPN7android8hardware6ParcelE"
    },
    {
     "referenced_type" : "_ZTINSt3__18functionIFvRN7android8hardware6ParcelEEEE"
    }
   ],
   "return_type" : "_ZTIi",
   "source_file" : "/out/soong/.intermediates/hardware/interfaces/automotive/sv/1.0/android.hardware.automotive.sv@1.0_genc++_headers/gen/android/hardware/automotive/sv/1.0/BnHwSurroundViewService.h"
  },
  {
   "function_name" : "android::hardware::automotive::sv::V1_0::BnHwSurroundViewService::_hidl_start3dSession",
   "linker_set_key" : "_ZN7android8hardware10automotive2sv4V1_023BnHwSurroundViewService20_hidl_start3dSessionEPNS_4hidl4base4V1_08BnHwBaseERKNS0_6ParcelEPSA_NSt3__18functionIFvRSA_EEE",
   "parameters" :
   [
    {
     "referenced_type" : "_ZTIPN7android4hidl4base4V1_08BnHwBaseE"
    },
    {
     "referenced_type" : "_ZTIRKN7android8hardware6ParcelE"
    },
    {
     "referenced_type" : "_ZTIPN7android8hardware6ParcelE"
    },
    {
     "referenced_type" : "_ZTINSt3__18functionIFvRN7android8hardware6ParcelEEEE"
    }
   ],
   "return_type" : "_ZTIi",
   "source_file" : "/out/soong/.intermediates/hardware/interfaces/automotive/sv/1.0/android.hardware.automotive.sv@1.0_genc++_headers/gen/android/hardware/automotive/sv/1.0/BnHwSurroundViewService.h"
  },
  {
   "access" : "private",
   "function_name" : "android::hardware::automotive::sv::V1_0::BnHwSurroundViewService::ping",
   "linker_set_key" : "_ZN7android8hardware10automotive2sv4V1_023BnHwSurroundViewService4pingEv",
   "parameters" :
   [
    {
     "is_this_ptr" : true,
     "referenced_type" : "_ZTIPN7android8hardware10automotive2sv4V1_023BnHwSurroundViewServiceE"
    }
   ],
   "return_type" : "_ZTIN7android8hardware6ReturnIvEE",
   "source_file" : "/out/soong/.intermediates/hardware/interfaces/automotive/sv/1.0/android.hardware.automotive.sv@1.0_genc++_headers/gen/android/hardware/automotive/sv/1.0/BnHwSurroundViewService.h"
  },
  {
   "function_name" : "android::hardware::automotive::sv::V1_0::BnHwSurroundViewService::BnHwSurroundViewService",
   "linker_set_key" : "_ZN7android8hardware10automotive2sv4V1_023BnHwSurroundViewServiceC1ERKNS_2spINS3_20ISurroundViewServiceEEE",
   "parameters" :
   [
    {
     "is_this_ptr" : true,
     "referenced_type" : "_ZTIPN7android8hardware10automotive2sv4V1_023BnHwSurroundViewServiceE"
    },
    {
     "referenced_type" : "_ZTIRKN7android2spINS_8hardware10automotive2sv4V1_020ISurroundViewServiceEEE"
    }
   ],
   "return_type" : "_ZTIv",
   "source_file" : "/out/soong/.intermediates/hardware/interfaces/automotive/sv/1.0/android.hardware.automotive.sv@1.0_genc++_headers/gen/android/hardware/automotive/sv/1.0/BnHwSurroundViewService.h"
  },
  {
   "function_name" : "android::hardware::automotive::sv::V1_0::BnHwSurroundViewService::BnHwSurroundViewService",
   "linker_set_key" : "_ZN7android8hardware10automotive2sv4V1_023BnHwSurroundViewServiceC2ERKNS_2spINS3_20ISurroundViewServiceEEE",
   "parameters" :
   [
    {
     "is_this_ptr" : true,
     "referenced_type" : "_ZTIPN7android8hardware10automotive2sv4V1_023BnHwSurroundViewServiceE"
    },
    {
     "referenced_type" : "_ZTIRKN7android2spINS_8hardware10automotive2sv4V1_020ISurroundViewServiceEEE"
    }
   ],
   "return_type" : "_ZTIv",
   "source_file" : "/out/soong/.intermediates/hardware/interfaces/automotive/sv/1.0/android.hardware.automotive.sv@1.0_genc++_headers/gen/android/hardware/automotive/sv/1.0/BnHwSurroundViewService.h"
  },
  {
   "function_name" : "android::hardware::automotive::sv::V1_0::BnHwSurroundViewService::~BnHwSurroundViewService",
   "linker_set_key" : "_ZN7android8hardware10automotive2sv4V1_023BnHwSurroundViewServiceD0Ev",
   "parameters" :
   [
    {
     "is_this_ptr" : true,
     "referenced_type" : "_ZTIPN7android8hardware10automotive2sv4V1_023BnHwSurroundViewServiceE"
    }
   ],
   "return_type" : "_ZTIv",
   "source_file" : "/out/soong/.intermediates/hardware/interfaces/automotive/sv/1.0/android.hardware.automotive.sv@1.0_genc++_headers/gen/android/hardware/automotive/sv/1.0/BnHwSurroundViewService.h"
  },
  {
   "function_name" : "android::hardware::automotive::sv::V1_0::BnHwSurroundViewService::~BnHwSurroundViewService",
   "linker_set_key" : "_ZN7android8hardware10automotive2sv4V1_023BnHwSurroundViewServiceD1Ev",
   "parameters" :
   [
    {
     "is_this_ptr" : true,
     "referenced_type" : "_ZTIPN7android8hardware10automotive2sv4V1_023BnHwSurroundViewServiceE"
    }
   ],
   "return_type" : "_ZTIv",
   "source_file" : "/out/soong/.intermediates/hardware/interfaces/automotive/sv/1.0/android.hardware.automotive.sv@1.0_genc++_headers/gen/android/hardware/automotive/sv/1.0/BnHwSurroundViewService.h"
  },
  {
   "function_name" : "android::hardware::automotive::sv::V1_0::BnHwSurroundViewService::~BnHwSurroundViewService",
   "linker_set_key" : "_ZN7android8hardware10automotive2sv4V1_023BnHwSurroundViewServiceD2Ev",
   "parameters" :
   [
    {
     "is_this_ptr" : true,
     "referenced_type" : "_ZTIPN7android8hardware10automotive2sv4V1_023BnHwSurroundViewServiceE"
    }
   ],
   "return_type" : "_ZTIv",
   "source_file" : "/out/soong/.intermediates/hardware/interfaces/automotive/sv/1.0/android.hardware.automotive.sv@1.0_genc++_headers/gen/android/hardware/automotive/sv/1.0/BnHwSurroundViewService.h"
  },
  {
   "function_name" : "android::hardware::automotive::sv::V1_0::BnHwSurroundViewSession::onTransact",
   "linker_set_key" : "_ZN7android8hardware10automotive2sv4V1_023BnHwSurroundViewSession10onTransactEjRKNS0_6ParcelEPS5_jNSt3__18functionIFvRS5_EEE",
   "parameters" :
   [
    {
     "is_this_ptr" : true,
     "referenced_type" : "_ZTIPN7android8hardware10automotive2sv4V1_023BnHwSurroundViewSessionE"
    },
    {
     "referenced_type" : "_ZTIj"
    },
    {
     "referenced_type" : "_ZTIRKN7android8hardware6ParcelE"
    },
    {
     "referenced_type" : "_ZTIPN7android8hardware6ParcelE"
    },
    {
     "default_arg" : true,
     "referenced_type" : "_ZTIj"
    },
    {
     "default_arg" : true,
     "referenced_type" : "_ZTINSt3__18functionIFvRN7android8hardware6ParcelEEEE"
    }
   ],
   "return_type" : "_ZTIi",
   "source_file" : "/out/soong/.intermediates/hardware/interfaces/automotive/sv/1.0/android.hardware.automotive.sv@1.0_genc++_headers/gen/android/hardware/automotive/sv/1.0/BnHwSurroundViewSession.h"
  },
  {
   "access" : "private",
   "function_name" : "android::hardware::automotive::sv::V1_0::BnHwSurroundViewSession::getDebugInfo",
   "linker_set_key" : "_ZN7android8hardware10automotive2sv4V1_023BnHwSurroundViewSession12getDebugInfoENSt3__18functionIFvRKNS_4hidl4base4V1_09DebugInfoEEEE",
   "parameters" :
   [
    {
     "is_this_ptr" : true,
     "referenced_type" : "_ZTIPN7android8hardware10automotive2sv4V1_023BnHwSurroundViewSessionE"
    },
    {
     "referenced_type" : "_ZTINSt3__18functionIFvRKN7android4hidl4base4V1_09DebugInfoEEEE"
    }
   ],
   "return_type" : "_ZTIN7android8hardware6ReturnIvEE",
   "source_file" : "/out/soong/.intermediates/hardware/interfaces/automotive/sv/1.0/android.hardware.automotive.sv@1.0_genc++_headers/gen/android/hardware/automotive/sv/1.0/BnHwSurroundViewSession.h"
  },
  {
   "function_name" : "android::hardware::automotive::sv::V1_0::BnHwSurroundViewSession::_hidl_stopStream",
   "linker_set_key" : "_ZN7android8hardware10automotive2sv4V1_023BnHwSurroundViewSession16_hidl_stopStreamEPNS_4hidl4base4V1_08BnHwBaseERKNS0_6ParcelEPSA_NSt3__18functionIFvRSA_EEE",
   "parameters" :
   [
    {
     "referenced_type" : "_ZTIPN7android4hidl4base4V1_08BnHwBaseE"
    },
    {
     "referenced_type" : "_ZTIRKN7android8hardware6ParcelE"
    },
    {
     "referenced_type" : "_ZTIPN7android8hardware6ParcelE"
    },
    {
     "referenced_type" : "_ZTINSt3__18functionIFvRN7android8hardware6ParcelEEEE"
    }
   ],
   "return_type" : "_ZTIi",
   "source_file" : "/out/soong/.intermediates/hardware/interfaces/automotive/sv/1.0/android.hardware.automotive.sv@1.0_genc++_headers/gen/android/hardware/automotive/sv/1.0/BnHwSurroundViewSession.h"
  },
  {
   "function_name" : "android::hardware::automotive::sv::V1_0::BnHwSurroundViewSession::_hidl_startStream",
   "linker_set_key" : "_ZN7android8hardware10automotive2sv4V1_023BnHwSurroundViewSession17_hidl_startStreamEPNS_4hidl4base4V1_08BnHwBaseERKNS0_6ParcelEPSA_NSt3__18functionIFvRSA_EEE",
   "parameters" :
   [
    {
     "referenced_type" : "_ZTIPN7android4hidl4base4V1_08BnHwBaseE"
    },
    {
     "referenced_type" : "_ZTIRKN7android8hardware6ParcelE"
    },
    {
     "referenced_type" : "_ZTIPN7android8hardware6ParcelE"
    },
    {
     "referenced_type" : "_ZTINSt3__18functionIFvRN7android8hardware6ParcelEEEE"
    }
   ],
   "return_type" : "_ZTIi",
   "source_file" : "/out/soong/.intermediates/hardware/interfaces/automotive/sv/1.0/android.hardware.automotive.sv@1.0_genc++_headers/gen/android/hardware/automotive/sv/1.0/BnHwSurroundViewSession.h"
  },
  {
   "function_name" : "android::hardware::automotive::sv::V1_0::BnHwSurroundViewSession::_hidl_doneWithFrames",
   "linker_set_key" : "_ZN7android8hardware10automotive2sv4V1_023BnHwSurroundViewSession20_hidl_doneWithFramesEPNS_4hidl4base4V1_08BnHwBaseERKNS0_6ParcelEPSA_NSt3__18functionIFvRSA_EEE",
   "parameters" :
   [
    {
     "referenced_type" : "_ZTIPN7android4hidl4base4V1_08BnHwBaseE"
    },
    {
     "referenced_type" : "_ZTIRKN7android8hardware6ParcelE"
    },
    {
     "referenced_type" : "_ZTIPN7android8hardware6ParcelE"
    },
    {
     "referenced_type" : "_ZTINSt3__18functionIFvRN7android8hardware6ParcelEEEE"
    }
   ],
   "return_type" : "_ZTIi",
   "source_file" : "/out/soong/.intermediates/hardware/interfaces/automotive/sv/1.0/android.hardware.automotive.sv@1.0_genc++_headers/gen/android/hardware/automotive/sv/1.0/BnHwSurroundViewSession.h"
  },
  {
   "access" : "private",
   "function_name" : "android::hardware::automotive::sv::V1_0::BnHwSurroundViewSession::ping",
   "linker_set_key" : "_ZN7android8hardware10automotive2sv4V1_023BnHwSurroundViewSession4pingEv",
   "parameters" :
   [
    {
     "is_this_ptr" : true,
     "referenced_type" : "_ZTIPN7android8hardware10automotive2sv4V1_023BnHwSurroundViewSessionE"
    }
   ],
   "return_type" : "_ZTIN7android8hardware6ReturnIvEE",
   "source_file" : "/out/soong/.intermediates/hardware/interfaces/automotive/sv/1.0/android.hardware.automotive.sv@1.0_genc++_headers/gen/android/hardware/automotive/sv/1.0/BnHwSurroundViewSession.h"
  },
  {
   "function_name" : "android::hardware::automotive::sv::V1_0::BnHwSurroundViewSession::BnHwSurroundViewSession",
   "linker_set_key" : "_ZN7android8hardware10automotive2sv4V1_023BnHwSurroundViewSessionC1ERKNS_2spINS3_20ISurroundViewSessionEEE",
   "parameters" :
   [
    {
     "is_this_ptr" : true,
     "referenced_type" : "_ZTIPN7android8hardware10automotive2sv4V1_023BnHwSurroundViewSessionE"
    },
    {
     "referenced_type" : "_ZTIRKN7android2spINS_8hardware10automotive2sv4V1_020ISurroundViewSessionEEE"
    }
   ],
   "return_type" : "_ZTIv",
   "source_file" : "/out/soong/.intermediates/hardware/interfaces/automotive/sv/1.0/android.hardware.automotive.sv@1.0_genc++_headers/gen/android/hardware/automotive/sv/1.0/BnHwSurroundViewSession.h"
  },
  {
   "function_name" : "android::hardware::automotive::sv::V1_0::BnHwSurroundViewSession::BnHwSurroundViewSession",
   "linker_set_key" : "_ZN7android8hardware10automotive2sv4V1_023BnHwSurroundViewSessionC2ERKNS_2spINS3_20ISurroundViewSessionEEE",
   "parameters" :
   [
    {
     "is_this_ptr" : true,
     "referenced_type" : "_ZTIPN7android8hardware10automotive2sv4V1_023BnHwSurroundViewSessionE"
    },
    {
     "referenced_type" : "_ZTIRKN7android2spINS_8hardware10automotive2sv4V1_020ISurroundViewSessionEEE"
    }
   ],
   "return_type" : "_ZTIv",
   "source_file" : "/out/soong/.intermediates/hardware/interfaces/automotive/sv/1.0/android.hardware.automotive.sv@1.0_genc++_headers/gen/android/hardware/automotive/sv/1.0/BnHwSurroundViewSession.h"
  },
  {
   "function_name" : "android::hardware::automotive::sv::V1_0::BnHwSurroundViewSession::~BnHwSurroundViewSession",
   "linker_set_key" : "_ZN7android8hardware10automotive2sv4V1_023BnHwSurroundViewSessionD0Ev",
   "parameters" :
   [
    {
     "is_this_ptr" : true,
     "referenced_type" : "_ZTIPN7android8hardware10automotive2sv4V1_023BnHwSurroundViewSessionE"
    }
   ],
   "return_type" : "_ZTIv",
   "source_file" : "/out/soong/.intermediates/hardware/interfaces/automotive/sv/1.0/android.hardware.automotive.sv@1.0_genc++_headers/gen/android/hardware/automotive/sv/1.0/BnHwSurroundViewSession.h"
  },
  {
   "function_name" : "android::hardware::automotive::sv::V1_0::BnHwSurroundViewSession::~BnHwSurroundViewSession",
   "linker_set_key" : "_ZN7android8hardware10automotive2sv4V1_023BnHwSurroundViewSessionD1Ev",
   "parameters" :
   [
    {
     "is_this_ptr" : true,
     "referenced_type" : "_ZTIPN7android8hardware10automotive2sv4V1_023BnHwSurroundViewSessionE"
    }
   ],
   "return_type" : "_ZTIv",
   "source_file" : "/out/soong/.intermediates/hardware/interfaces/automotive/sv/1.0/android.hardware.automotive.sv@1.0_genc++_headers/gen/android/hardware/automotive/sv/1.0/BnHwSurroundViewSession.h"
  },
  {
   "function_name" : "android::hardware::automotive::sv::V1_0::BnHwSurroundViewSession::~BnHwSurroundViewSession",
   "linker_set_key" : "_ZN7android8hardware10automotive2sv4V1_023BnHwSurroundViewSessionD2Ev",
   "parameters" :
   [
    {
     "is_this_ptr" : true,
     "referenced_type" : "_ZTIPN7android8hardware10automotive2sv4V1_023BnHwSurroundViewSessionE"
    }
   ],
   "return_type" : "_ZTIv",
   "source_file" : "/out/soong/.intermediates/hardware/interfaces/automotive/sv/1.0/android.hardware.automotive.sv@1.0_genc++_headers/gen/android/hardware/automotive/sv/1.0/BnHwSurroundViewSession.h"
  },
  {
   "function_name" : "android::hardware::automotive::sv::V1_0::BpHwSurroundViewService::linkToDeath",
   "linker_set_key" : "_ZN7android8hardware10automotive2sv4V1_023BpHwSurroundViewService11linkToDeathERKNS_2spINS0_20hidl_death_recipientEEEy",
   "parameters" :
   [
    {
     "is_this_ptr" : true,
     "referenced_type" : "_ZTIPN7android8hardware10automotive2sv4V1_023BpHwSurroundViewServiceE"
    },
    {
     "referenced_type" : "_ZTIRKN7android2spINS_8hardware20hidl_death_recipientEEE"
    },
    {
     "referenced_type" : "_ZTIy"
    }
   ],
   "return_type" : "_ZTIN7android8hardware6ReturnIbEE",
   "source_file" : "/out/soong/.intermediates/hardware/interfaces/automotive/sv/1.0/android.hardware.automotive.sv@1.0_genc++_headers/gen/android/hardware/automotive/sv/1.0/BpHwSurroundViewService.h"
  },
  {
   "function_name" : "android::hardware::automotive::sv::V1_0::BpHwSurroundViewService::getCameraIds",
   "linker_set_key" : "_ZN7android8hardware10automotive2sv4V1_023BpHwSurroundViewService12getCameraIdsENSt3__18functionIFvRKNS0_8hidl_vecINS0_11hidl_stringEEEEEE",
   "parameters" :
   [
    {
     "is_this_ptr" : true,
     "referenced_type" : "_ZTIPN7android8hardware10automotive2sv4V1_023BpHwSurroundViewServiceE"
    },
    {
     "referenced_type" : "_ZTINSt3__18functionIFvRKN7android8hardware8hidl_vecINS2_11hidl_stringEEEEEE"
    }
   ],
   "return_type" : "_ZTIN7android8hardware6ReturnIvEE",
   "source_file" : "/out/soong/.intermediates/hardware/interfaces/automotive/sv/1.0/android.hardware.automotive.sv@1.0_genc++_headers/gen/android/hardware/automotive/sv/1.0/BpHwSurroundViewService.h"
  },
  {
   "function_name" : "android::hardware::automotive::sv::V1_0::BpHwSurroundViewService::getDebugInfo",
   "linker_set_key" : "_ZN7android8hardware10automotive2sv4V1_023BpHwSurroundViewService12getDebugInfoENSt3__18functionIFvRKNS_4hidl4base4V1_09DebugInfoEEEE",
   "parameters" :
   [
    {
     "is_this_ptr" : true,
     "referenced_type" : "_ZTIPN7android8hardware10automotive2sv4V1_023BpHwSurroundViewServiceE"
    },
    {
     "referenced_type" : "_ZTINSt3__18functionIFvRKN7android4hidl4base4V1_09DebugInfoEEEE"
    }
   ],
   "return_type" : "_ZTIN7android8hardware6ReturnIvEE",
   "source_file" : "/out/soong/.intermediates/hardware/interfaces/automotive/sv/1.0/android.hardware.automotive.sv@1.0_genc++_headers/gen/android/hardware/automotive/sv/1.0/BpHwSurroundViewService.h"
  },
  {
   "function_name" : "android::hardware::automotive::sv::V1_0::BpHwSurroundViewService::getHashChain",
   "linker_set_key" : "_ZN7android8hardware10automotive2sv4V1_023BpHwSurroundViewService12getHashChainENSt3__18functionIFvRKNS0_8hidl_vecINS0_10hidl_arrayIhLj32EJEEEEEEEE",
   "parameters" :
   [
    {
     "is_this_ptr" : true,
     "referenced_type" : "_ZTIPN7android8hardware10automotive2sv4V1_023BpHwSurroundViewServiceE"
    },
    {
     "referenced_type" : "_ZTINSt3__18functionIFvRKN7android8hardware8hidl_vecINS2_10hidl_arrayIhLj32EJEEEEEEEE"
    }
   ],
   "return_type" : "_ZTIN7android8hardware6ReturnIvEE",
   "source_file" : "/out/soong/.intermediates/hardware/interfaces/automotive/sv/1.0/android.hardware.automotive.sv@1.0_genc++_headers/gen/android/hardware/automotive/sv/1.0/BpHwSurroundViewService.h"
  },
  {
   "function_name" : "android::hardware::automotive::sv::V1_0::BpHwSurroundViewService::stop2dSession",
   "linker_set_key" : "_ZN7android8hardware10automotive2sv4V1_023BpHwSurroundViewService13stop2dSessionERKNS_2spINS3_22ISurroundView2dSessionEEE",
   "parameters" :
   [
    {
     "is_this_ptr" : true,
     "referenced_type" : "_ZTIPN7android8hardware10automotive2sv4V1_023BpHwSurroundViewServiceE"
    },
    {
     "referenced_type" : "_ZTIRKN7android2spINS_8hardware10automotive2sv4V1_022ISurroundView2dSessionEEE"
    }
   ],
   "return_type" : "_ZTIN7android8hardware6ReturnINS0_10automotive2sv4V1_08SvResultEEE",
   "source_file" : "/out/soong/.intermediates/hardware/interfaces/automotive/sv/1.0/android.hardware.automotive.sv@1.0_genc++_headers/gen/android/hardware/automotive/sv/1.0/BpHwSurroundViewService.h"
  },
  {
   "function_name" : "android::hardware::automotive::sv::V1_0::BpHwSurroundViewService::stop3dSession",
   "linker_set_key" : "_ZN7android8hardware10automotive2sv4V1_023BpHwSurroundViewService13stop3dSessionERKNS_2spINS3_22ISurroundView3dSessionEEE",
   "parameters" :
   [
    {
     "is_this_ptr" : true,
     "referenced_type" : "_ZTIPN7android8hardware10automotive2sv4V1_023BpHwSurroundViewServiceE"
    },
    {
     "referenced_type" : "_ZTIRKN7android2spINS_8hardware10automotive2sv4V1_022ISurroundView3dSessionEEE"
    }
   ],
   "return_type" : "_ZTIN7android8hardware6ReturnINS0_10automotive2sv4V1_08SvResultEEE",
   "source_file" : "/out/soong/.intermediates/hardware/interfaces/automotive/sv/1.0/android.hardware.automotive.sv@1.0_genc++_headers/gen/android/hardware/automotive/sv/1.0/BpHwSurroundViewService.h"
  },
  {
   "function_name" : "android::hardware::automotive::sv::V1_0::BpHwSurroundViewService::unlinkToDeath",
   "linker_set_key" : "_ZN7android8hardware10automotive2sv4V1_023BpHwSurroundViewService13unlinkToDeathERKNS_2spINS0_20hidl_death_recipientEEE",
   "parameters" :
   [
    {
     "is_this_ptr" : true,
     "referenced_type" : "_ZTIPN7android8hardware10automotive2sv4V1_023BpHwSurroundViewServiceE"
    },
    {
     "referenced_type" : "_ZTIRKN7android2spINS_8hardware20hidl_death_recipientEEE"
    }
   ],
   "return_type" : "_ZTIN7android8hardware6ReturnIbEE",
   "source_file" : "/out/soong/.intermediates/hardware/interfaces/automotive/sv/1.0/android.hardware.automotive.sv@1.0_genc++_headers/gen/android/hardware/automotive/sv/1.0/BpHwSurroundViewService.h"
  },
  {
   "function_name" : "android::hardware::automotive::sv::V1_0::BpHwSurroundViewService::interfaceChain",
   "linker_set_key" : "_ZN7android8hardware10automotive2sv4V1_023BpHwSurroundViewService14interfaceChainENSt3__18functionIFvRKNS0_8hidl_vecINS0_11hidl_stringEEEEEE",
   "parameters" :
   [
    {
     "is_this_ptr" : true,
     "referenced_type" : "_ZTIPN7android8hardware10automotive2sv4V1_023BpHwSurroundViewServiceE"
    },
    {
     "referenced_type" : "_ZTINSt3__18functionIFvRKN7android8hardware8hidl_vecINS2_11hidl_stringEEEEEE"
    }
   ],
   "return_type" : "_ZTIN7android8hardware6ReturnIvEE",
   "source_file" : "/out/soong/.intermediates/hardware/interfaces/automotive/sv/1.0/android.hardware.automotive.sv@1.0_genc++_headers/gen/android/hardware/automotive/sv/1.0/BpHwSurroundViewService.h"
  },
  {
   "function_name" : "android::hardware::automotive::sv::V1_0::BpHwSurroundViewService::start2dSession",
   "linker_set_key" : "_ZN7android8hardware10automotive2sv4V1_023BpHwSurroundViewService14start2dSessionENSt3__18functionIFvRKNS_2spINS3_22ISurroundView2dSessionEEENS3_8SvResultEEEE",
   "parameters" :
   [
    {
     "is_this_ptr" : true,
     "referenced_type" : "_ZTIPN7android8hardware10automotive2sv4V1_023BpHwSurroundViewServiceE"
    },
    {
     "referenced_type" : "_ZTINSt3__18functionIFvRKN7android2spINS1_8hardware10automotive2sv4V1_022ISurroundView2dSessionEEENS6_8SvResultEEEE"
    }
   ],
   "return_type" : "_ZTIN7android8hardware6ReturnIvEE",
   "source_file" : "/out/soong/.intermediates/hardware/interfaces/automotive/sv/1.0/android.hardware.automotive.sv@1.0_genc++_headers/gen/android/hardware/automotive/sv/1.0/BpHwSurroundViewService.h"
  },
  {
   "function_name" : "android::hardware::automotive::sv::V1_0::BpHwSurroundViewService::start3dSession",
   "linker_set_key" : "_ZN7android8hardware10automotive2sv4V1_023BpHwSurroundViewService14start3dSessionENSt3__18functionIFvRKNS_2spINS3_22ISurroundView3dSessionEEENS3_8SvResultEEEE",
   "parameters" :
   [
    {
     "is_this_ptr" : true,
     "referenced_type" : "_ZTIPN7android8hardware10automotive2sv4V1_023BpHwSurroundViewServiceE"
    },
    {
     "referenced_type" : "_ZTINSt3__18functionIFvRKN7android2spINS1_8hardware10automotive2sv4V1_022ISurroundView3dSessionEEENS6_8SvResultEEEE"
    }
   ],
   "return_type" : "_ZTIN7android8hardware6ReturnIvEE",
   "source_file" : "/out/soong/.intermediates/hardware/interfaces/automotive/sv/1.0/android.hardware.automotive.sv@1.0_genc++_headers/gen/android/hardware/automotive/sv/1.0/BpHwSurroundViewService.h"
  },
  {
   "function_name" : "android::hardware::automotive::sv::V1_0::BpHwSurroundViewService::onLastStrongRef",
   "linker_set_key" : "_ZN7android8hardware10automotive2sv4V1_023BpHwSurroundViewService15onLastStrongRefEPKv",
   "parameters" :
   [
    {
     "is_this_ptr" : true,
     "referenced_type" : "_ZTIPN7android8hardware10automotive2sv4V1_023BpHwSurroundViewServiceE"
    },
    {
     "referenced_type" : "_ZTIPKv"
    }
   ],
   "return_type" : "_ZTIv",
   "source_file" : "/out/soong/.intermediates/hardware/interfaces/automotive/sv/1.0/android.hardware.automotive.sv@1.0_genc++_headers/gen/android/hardware/automotive/sv/1.0/BpHwSurroundViewService.h"
  },
  {
   "function_name" : "android::hardware::automotive::sv::V1_0::BpHwSurroundViewService::_hidl_getCameraIds",
   "linker_set_key" : "_ZN7android8hardware10automotive2sv4V1_023BpHwSurroundViewService18_hidl_getCameraIdsEPNS0_10IInterfaceEPNS0_7details16HidlInstrumentorENSt3__18functionIFvRKNS0_8hidl_vecINS0_11hidl_stringEEEEEE",
   "parameters" :
   [
    {
     "referenced_type" : "_ZTIPN7android8hardware10IInterfaceE"
    },
    {
     "referenced_type" : "_ZTIPN7android8hardware7details16HidlInstrumentorE"
    },
    {
     "referenced_type" : "_ZTINSt3__18functionIFvRKN7android8hardware8hidl_vecINS2_11hidl_stringEEEEEE"
    }
   ],
   "return_type" : "_ZTIN7android8hardware6ReturnIvEE",
   "source_file" : "/out/soong/.intermediates/hardware/interfaces/automotive/sv/1.0/android.hardware.automotive.sv@1.0_genc++_headers/gen/android/hardware/automotive/sv/1.0/BpHwSurroundViewService.h"
  },
  {
   "function_name" : "android::hardware::automotive::sv::V1_0::BpHwSurroundViewService::_hidl_stop2dSession",
   "linker_set_key" : "_ZN7android8hardware10automotive2sv4V1_023BpHwSurroundViewService19_hidl_stop2dSessionEPNS0_10IInterfaceEPNS0_7details16HidlInstrumentorERKNS_2spINS3_22ISurroundView2dSessionEEE",
   "parameters" :
   [
    {
     "referenced_type" : "_ZTIPN7android8hardware10IInterfaceE"
    },
    {
     "referenced_type" : "_ZTIPN7android8hardware7details16HidlInstrumentorE"
    },
    {
     "referenced_type" : "_ZTIRKN7android2spINS_8hardware10automotive2sv4V1_022ISurroundView2dSessionEEE"
    }
   ],
   "return_type" : "_ZTIN7android8hardware6ReturnINS0_10automotive2sv4V1_08SvResultEEE",
   "source_file" : "/out/soong/.intermediates/hardware/interfaces/automotive/sv/1.0/android.hardware.automotive.sv@1.0_genc++_headers/gen/android/hardware/automotive/sv/1.0/BpHwSurroundViewService.h"
  },
  {
   "function_name" : "android::hardware::automotive::sv::V1_0::BpHwSurroundViewService::_hidl_stop3dSession",
   "linker_set_key" : "_ZN7android8hardware10automotive2sv4V1_023BpHwSurroundViewService19_hidl_stop3dSessionEPNS0_10IInterfaceEPNS0_7details16HidlInstrumentorERKNS_2spINS3_22ISurroundView3dSessionEEE",
   "parameters" :
   [
    {
     "referenced_type" : "_ZTIPN7android8hardware10IInterfaceE"
    },
    {
     "referenced_type" : "_ZTIPN7android8hardware7details16HidlInstrumentorE"
    },
    {
     "referenced_type" : "_ZTIRKN7android2spINS_8hardware10automotive2sv4V1_022ISurroundView3dSessionEEE"
    }
   ],
   "return_type" : "_ZTIN7android8hardware6ReturnINS0_10automotive2sv4V1_08SvResultEEE",
   "source_file" : "/out/soong/.intermediates/hardware/interfaces/automotive/sv/1.0/android.hardware.automotive.sv@1.0_genc++_headers/gen/android/hardware/automotive/sv/1.0/BpHwSurroundViewService.h"
  },
  {
   "function_name" : "android::hardware::automotive::sv::V1_0::BpHwSurroundViewService::interfaceDescriptor",
   "linker_set_key" : "_ZN7android8hardware10automotive2sv4V1_023BpHwSurroundViewService19interfaceDescriptorENSt3__18functionIFvRKNS0_11hidl_stringEEEE",
   "parameters" :
   [
    {
     "is_this_ptr" : true,
     "referenced_type" : "_ZTIPN7android8hardware10automotive2sv4V1_023BpHwSurroundViewServiceE"
    },
    {
     "referenced_type" : "_ZTINSt3__18functionIFvRKN7android8hardware11hidl_stringEEEE"
    }
   ],
   "return_type" : "_ZTIN7android8hardware6ReturnIvEE",
   "source_file" : "/out/soong/.intermediates/hardware/interfaces/automotive/sv/1.0/android.hardware.automotive.sv@1.0_genc++_headers/gen/android/hardware/automotive/sv/1.0/BpHwSurroundViewService.h"
  },
  {
   "function_name" : "android::hardware::automotive::sv::V1_0::BpHwSurroundViewService::_hidl_start2dSession",
   "linker_set_key" : "_ZN7android8hardware10automotive2sv4V1_023BpHwSurroundViewService20_hidl_start2dSessionEPNS0_10IInterfaceEPNS0_7details16HidlInstrumentorENSt3__18functionIFvRKNS_2spINS3_22ISurroundView2dSessionEEENS3_8SvResultEEEE",
   "parameters" :
   [
    {
     "referenced_type" : "_ZTIPN7android8hardware10IInterfaceE"
    },
    {
     "referenced_type" : "_ZTIPN7android8hardware7details16HidlInstrumentorE"
    },
    {
     "referenced_type" : "_ZTINSt3__18functionIFvRKN7android2spINS1_8hardware10automotive2sv4V1_022ISurroundView2dSessionEEENS6_8SvResultEEEE"
    }
   ],
   "return_type" : "_ZTIN7android8hardware6ReturnIvEE",
   "source_file" : "/out/soong/.intermediates/hardware/interfaces/automotive/sv/1.0/android.hardware.automotive.sv@1.0_genc++_headers/gen/android/hardware/automotive/sv/1.0/BpHwSurroundViewService.h"
  },
  {
   "function_name" : "android::hardware::automotive::sv::V1_0::BpHwSurroundViewService::_hidl_start3dSession",
   "linker_set_key" : "_ZN7android8hardware10automotive2sv4V1_023BpHwSurroundViewService20_hidl_start3dSessionEPNS0_10IInterfaceEPNS0_7details16HidlInstrumentorENSt3__18functionIFvRKNS_2spINS3_22ISurroundView3dSessionEEENS3_8SvResultEEEE",
   "parameters" :
   [
    {
     "referenced_type" : "_ZTIPN7android8hardware10IInterfaceE"
    },
    {
     "referenced_type" : "_ZTIPN7android8hardware7details16HidlInstrumentorE"
    },
    {
     "referenced_type" : "_ZTINSt3__18functionIFvRKN7android2spINS1_8hardware10automotive2sv4V1_022ISurroundView3dSessionEEENS6_8SvResultEEEE"
    }
   ],
   "return_type" : "_ZTIN7android8hardware6ReturnIvEE",
   "source_file" : "/out/soong/.intermediates/hardware/interfaces/automotive/sv/1.0/android.hardware.automotive.sv@1.0_genc++_headers/gen/android/hardware/automotive/sv/1.0/BpHwSurroundViewService.h"
  },
  {
   "function_name" : "android::hardware::automotive::sv::V1_0::BpHwSurroundViewService::notifySyspropsChanged",
   "linker_set_key" : "_ZN7android8hardware10automotive2sv4V1_023BpHwSurroundViewService21notifySyspropsChangedEv",
   "parameters" :
   [
    {
     "is_this_ptr" : true,
     "referenced_type" : "_ZTIPN7android8hardware10automotive2sv4V1_023BpHwSurroundViewServiceE"
    }
   ],
   "return_type" : "_ZTIN7android8hardware6ReturnIvEE",
   "source_file" : "/out/soong/.intermediates/hardware/interfaces/automotive/sv/1.0/android.hardware.automotive.sv@1.0_genc++_headers/gen/android/hardware/automotive/sv/1.0/BpHwSurroundViewService.h"
  },
  {
   "function_name" : "android::hardware::automotive::sv::V1_0::BpHwSurroundViewService::setHALInstrumentation",
   "linker_set_key" : "_ZN7android8hardware10automotive2sv4V1_023BpHwSurroundViewService21setHALInstrumentationEv",
   "parameters" :
   [
    {
     "is_this_ptr" : true,
     "referenced_type" : "_ZTIPN7android8hardware10automotive2sv4V1_023BpHwSurroundViewServiceE"
    }
   ],
   "return_type" : "_ZTIN7android8hardware6ReturnIvEE",
   "source_file" : "/out/soong/.intermediates/hardware/interfaces/automotive/sv/1.0/android.hardware.automotive.sv@1.0_genc++_headers/gen/android/hardware/automotive/sv/1.0/BpHwSurroundViewService.h"
  },
  {
   "function_name" : "android::hardware::automotive::sv::V1_0::BpHwSurroundViewService::ping",
   "linker_set_key" : "_ZN7android8hardware10automotive2sv4V1_023BpHwSurroundViewService4pingEv",
   "parameters" :
   [
    {
     "is_this_ptr" : true,
     "referenced_type" : "_ZTIPN7android8hardware10automotive2sv4V1_023BpHwSurroundViewServiceE"
    }
   ],
   "return_type" : "_ZTIN7android8hardware6ReturnIvEE",
   "source_file" : "/out/soong/.intermediates/hardware/interfaces/automotive/sv/1.0/android.hardware.automotive.sv@1.0_genc++_headers/gen/android/hardware/automotive/sv/1.0/BpHwSurroundViewService.h"
  },
  {
   "function_name" : "android::hardware::automotive::sv::V1_0::BpHwSurroundViewService::debug",
   "linker_set_key" : "_ZN7android8hardware10automotive2sv4V1_023BpHwSurroundViewService5debugERKNS0_11hidl_handleERKNS0_8hidl_vecINS0_11hidl_stringEEE",
   "parameters" :
   [
    {
     "is_this_ptr" : true,
     "referenced_type" : "_ZTIPN7android8hardware10automotive2sv4V1_023BpHwSurroundViewServiceE"
    },
    {
     "referenced_type" : "_ZTIRKN7android8hardware11hidl_handleE"
    },
    {
     "referenced_type" : "_ZTIRKN7android8hardware8hidl_vecINS0_11hidl_stringEEE"
    }
   ],
   "return_type" : "_ZTIN7android8hardware6ReturnIvEE",
   "source_file" : "/out/soong/.intermediates/hardware/interfaces/automotive/sv/1.0/android.hardware.automotive.sv@1.0_genc++_headers/gen/android/hardware/automotive/sv/1.0/BpHwSurroundViewService.h"
  },
  {
   "function_name" : "android::hardware::automotive::sv::V1_0::BpHwSurroundViewService::BpHwSurroundViewService",
   "linker_set_key" : "_ZN7android8hardware10automotive2sv4V1_023BpHwSurroundViewServiceC1ERKNS_2spINS0_7IBinderEEE",
   "parameters" :
   [
    {
     "is_this_ptr" : true,
     "referenced_type" : "_ZTIPN7android8hardware10automotive2sv4V1_023BpHwSurroundViewServiceE"
    },
    {
     "referenced_type" : "_ZTIRKN7android2spINS_8hardware7IBinderEEE"
    }
   ],
   "return_type" : "_ZTIv",
   "source_file" : "/out/soong/.intermediates/hardware/interfaces/automotive/sv/1.0/android.hardware.automotive.sv@1.0_genc++_headers/gen/android/hardware/automotive/sv/1.0/BpHwSurroundViewService.h"
  },
  {
   "function_name" : "android::hardware::automotive::sv::V1_0::BpHwSurroundViewService::BpHwSurroundViewService",
   "linker_set_key" : "_ZN7android8hardware10automotive2sv4V1_023BpHwSurroundViewServiceC2ERKNS_2spINS0_7IBinderEEE",
   "parameters" :
   [
    {
     "is_this_ptr" : true,
     "referenced_type" : "_ZTIPN7android8hardware10automotive2sv4V1_023BpHwSurroundViewServiceE"
    },
    {
     "referenced_type" : "_ZTIRKN7android2spINS_8hardware7IBinderEEE"
    }
   ],
   "return_type" : "_ZTIv",
   "source_file" : "/out/soong/.intermediates/hardware/interfaces/automotive/sv/1.0/android.hardware.automotive.sv@1.0_genc++_headers/gen/android/hardware/automotive/sv/1.0/BpHwSurroundViewService.h"
  },
  {
   "function_name" : "android::hardware::automotive::sv::V1_0::BpHwSurroundViewSession::stopStream",
   "linker_set_key" : "_ZN7android8hardware10automotive2sv4V1_023BpHwSurroundViewSession10stopStreamEv",
   "parameters" :
   [
    {
     "is_this_ptr" : true,
     "referenced_type" : "_ZTIPN7android8hardware10automotive2sv4V1_023BpHwSurroundViewSessionE"
    }
   ],
   "return_type" : "_ZTIN7android8hardware6ReturnIvEE",
   "source_file" : "/out/soong/.intermediates/hardware/interfaces/automotive/sv/1.0/android.hardware.automotive.sv@1.0_genc++_headers/gen/android/hardware/automotive/sv/1.0/BpHwSurroundViewSession.h"
  },
  {
   "function_name" : "android::hardware::automotive::sv::V1_0::BpHwSurroundViewSession::linkToDeath",
   "linker_set_key" : "_ZN7android8hardware10automotive2sv4V1_023BpHwSurroundViewSession11linkToDeathERKNS_2spINS0_20hidl_death_recipientEEEy",
   "parameters" :
   [
    {
     "is_this_ptr" : true,
     "referenced_type" : "_ZTIPN7android8hardware10automotive2sv4V1_023BpHwSurroundViewSessionE"
    },
    {
     "referenced_type" : "_ZTIRKN7android2spINS_8hardware20hidl_death_recipientEEE"
    },
    {
     "referenced_type" : "_ZTIy"
    }
   ],
   "return_type" : "_ZTIN7android8hardware6ReturnIbEE",
   "source_file" : "/out/soong/.intermediates/hardware/interfaces/automotive/sv/1.0/android.hardware.automotive.sv@1.0_genc++_headers/gen/android/hardware/automotive/sv/1.0/BpHwSurroundViewSession.h"
  },
  {
   "function_name" : "android::hardware::automotive::sv::V1_0::BpHwSurroundViewSession::startStream",
   "linker_set_key" : "_ZN7android8hardware10automotive2sv4V1_023BpHwSurroundViewSession11startStreamERKNS_2spINS3_19ISurroundViewStreamEEE",
   "parameters" :
   [
    {
     "is_this_ptr" : true,
     "referenced_type" : "_ZTIPN7android8hardware10automotive2sv4V1_023BpHwSurroundViewSessionE"
    },
    {
     "referenced_type" : "_ZTIRKN7android2spINS_8hardware10automotive2sv4V1_019ISurroundViewStreamEEE"
    }
   ],
   "return_type" : "_ZTIN7android8hardware6ReturnINS0_10automotive2sv4V1_08SvResultEEE",
   "source_file" : "/out/soong/.intermediates/hardware/interfaces/automotive/sv/1.0/android.hardware.automotive.sv@1.0_genc++_headers/gen/android/hardware/automotive/sv/1.0/BpHwSurroundViewSession.h"
  },
  {
   "function_name" : "android::hardware::automotive::sv::V1_0::BpHwSurroundViewSession::getDebugInfo",
   "linker_set_key" : "_ZN7android8hardware10automotive2sv4V1_023BpHwSurroundViewSession12getDebugInfoENSt3__18functionIFvRKNS_4hidl4base4V1_09DebugInfoEEEE",
   "parameters" :
   [
    {
     "is_this_ptr" : true,
     "referenced_type" : "_ZTIPN7android8hardware10automotive2sv4V1_023BpHwSurroundViewSessionE"
    },
    {
     "referenced_type" : "_ZTINSt3__18functionIFvRKN7android4hidl4base4V1_09DebugInfoEEEE"
    }
   ],
   "return_type" : "_ZTIN7android8hardware6ReturnIvEE",
   "source_file" : "/out/soong/.intermediates/hardware/interfaces/automotive/sv/1.0/android.hardware.automotive.sv@1.0_genc++_headers/gen/android/hardware/automotive/sv/1.0/BpHwSurroundViewSession.h"
  },
  {
   "function_name" : "android::hardware::automotive::sv::V1_0::BpHwSurroundViewSession::getHashChain",
   "linker_set_key" : "_ZN7android8hardware10automotive2sv4V1_023BpHwSurroundViewSession12getHashChainENSt3__18functionIFvRKNS0_8hidl_vecINS0_10hidl_arrayIhLj32EJEEEEEEEE",
   "parameters" :
   [
    {
     "is_this_ptr" : true,
     "referenced_type" : "_ZTIPN7android8hardware10automotive2sv4V1_023BpHwSurroundViewSessionE"
    },
    {
     "referenced_type" : "_ZTINSt3__18functionIFvRKN7android8hardware8hidl_vecINS2_10hidl_arrayIhLj32EJEEEEEEEE"
    }
   ],
   "return_type" : "_ZTIN7android8hardware6ReturnIvEE",
   "source_file" : "/out/soong/.intermediates/hardware/interfaces/automotive/sv/1.0/android.hardware.automotive.sv@1.0_genc++_headers/gen/android/hardware/automotive/sv/1.0/BpHwSurroundViewSession.h"
  },
  {
   "function_name" : "android::hardware::automotive::sv::V1_0::BpHwSurroundViewSession::unlinkToDeath",
   "linker_set_key" : "_ZN7android8hardware10automotive2sv4V1_023BpHwSurroundViewSession13unlinkToDeathERKNS_2spINS0_20hidl_death_recipientEEE",
   "parameters" :
   [
    {
     "is_this_ptr" : true,
     "referenced_type" : "_ZTIPN7android8hardware10automotive2sv4V1_023BpHwSurroundViewSessionE"
    },
    {
     "referenced_type" : "_ZTIRKN7android2spINS_8hardware20hidl_death_recipientEEE"
    }
   ],
   "return_type" : "_ZTIN7android8hardware6ReturnIbEE",
   "source_file" : "/out/soong/.intermediates/hardware/interfaces/automotive/sv/1.0/android.hardware.automotive.sv@1.0_genc++_headers/gen/android/hardware/automotive/sv/1.0/BpHwSurroundViewSession.h"
  },
  {
   "function_name" : "android::hardware::automotive::sv::V1_0::BpHwSurroundViewSession::doneWithFrames",
   "linker_set_key" : "_ZN7android8hardware10automotive2sv4V1_023BpHwSurroundViewSession14doneWithFramesERKNS3_12SvFramesDescE",
   "parameters" :
   [
    {
     "is_this_ptr" : true,
     "referenced_type" : "_ZTIPN7android8hardware10automotive2sv4V1_023BpHwSurroundViewSessionE"
    },
    {
     "referenced_type" : "_ZTIRKN7android8hardware10automotive2sv4V1_012SvFramesDescE"
    }
   ],
   "return_type" : "_ZTIN7android8hardware6ReturnIvEE",
   "source_file" : "/out/soong/.intermediates/hardware/interfaces/automotive/sv/1.0/android.hardware.automotive.sv@1.0_genc++_headers/gen/android/hardware/automotive/sv/1.0/BpHwSurroundViewSession.h"
  },
  {
   "function_name" : "android::hardware::automotive::sv::V1_0::BpHwSurroundViewSession::interfaceChain",
   "linker_set_key" : "_ZN7android8hardware10automotive2sv4V1_023BpHwSurroundViewSession14interfaceChainENSt3__18functionIFvRKNS0_8hidl_vecINS0_11hidl_stringEEEEEE",
   "parameters" :
   [
    {
     "is_this_ptr" : true,
     "referenced_type" : "_ZTIPN7android8hardware10automotive2sv4V1_023BpHwSurroundViewSessionE"
    },
    {
     "referenced_type" : "_ZTINSt3__18functionIFvRKN7android8hardware8hidl_vecINS2_11hidl_stringEEEEEE"
    }
   ],
   "return_type" : "_ZTIN7android8hardware6ReturnIvEE",
   "source_file" : "/out/soong/.intermediates/hardware/interfaces/automotive/sv/1.0/android.hardware.automotive.sv@1.0_genc++_headers/gen/android/hardware/automotive/sv/1.0/BpHwSurroundViewSession.h"
  },
  {
   "function_name" : "android::hardware::automotive::sv::V1_0::BpHwSurroundViewSession::onLastStrongRef",
   "linker_set_key" : "_ZN7android8hardware10automotive2sv4V1_023BpHwSurroundViewSession15onLastStrongRefEPKv",
   "parameters" :
   [
    {
     "is_this_ptr" : true,
     "referenced_type" : "_ZTIPN7android8hardware10automotive2sv4V1_023BpHwSurroundViewSessionE"
    },
    {
     "referenced_type" : "_ZTIPKv"
    }
   ],
   "return_type" : "_ZTIv",
   "source_file" : "/out/soong/.intermediates/hardware/interfaces/automotive/sv/1.0/android.hardware.automotive.sv@1.0_genc++_headers/gen/android/hardware/automotive/sv/1.0/BpHwSurroundViewSession.h"
  },
  {
   "function_name" : "android::hardware::automotive::sv::V1_0::BpHwSurroundViewSession::_hidl_stopStream",
   "linker_set_key" : "_ZN7android8hardware10automotive2sv4V1_023BpHwSurroundViewSession16_hidl_stopStreamEPNS0_10IInterfaceEPNS0_7details16HidlInstrumentorE",
   "parameters" :
   [
    {
     "referenced_type" : "_ZTIPN7android8hardware10IInterfaceE"
    },
    {
     "referenced_type" : "_ZTIPN7android8hardware7details16HidlInstrumentorE"
    }
   ],
   "return_type" : "_ZTIN7android8hardware6ReturnIvEE",
   "source_file" : "/out/soong/.intermediates/hardware/interfaces/automotive/sv/1.0/android.hardware.automotive.sv@1.0_genc++_headers/gen/android/hardware/automotive/sv/1.0/BpHwSurroundViewSession.h"
  },
  {
   "function_name" : "android::hardware::automotive::sv::V1_0::BpHwSurroundViewSession::_hidl_startStream",
   "linker_set_key" : "_ZN7android8hardware10automotive2sv4V1_023BpHwSurroundViewSession17_hidl_startStreamEPNS0_10IInterfaceEPNS0_7details16HidlInstrumentorERKNS_2spINS3_19ISurroundViewStreamEEE",
   "parameters" :
   [
    {
     "referenced_type" : "_ZTIPN7android8hardware10IInterfaceE"
    },
    {
     "referenced_type" : "_ZTIPN7android8hardware7details16HidlInstrumentorE"
    },
    {
     "referenced_type" : "_ZTIRKN7android2spINS_8hardware10automotive2sv4V1_019ISurroundViewStreamEEE"
    }
   ],
   "return_type" : "_ZTIN7android8hardware6ReturnINS0_10automotive2sv4V1_08SvResultEEE",
   "source_file" : "/out/soong/.intermediates/hardware/interfaces/automotive/sv/1.0/android.hardware.automotive.sv@1.0_genc++_headers/gen/android/hardware/automotive/sv/1.0/BpHwSurroundViewSession.h"
  },
  {
   "function_name" : "android::hardware::automotive::sv::V1_0::BpHwSurroundViewSession::interfaceDescriptor",
   "linker_set_key" : "_ZN7android8hardware10automotive2sv4V1_023BpHwSurroundViewSession19interfaceDescriptorENSt3__18functionIFvRKNS0_11hidl_stringEEEE",
   "parameters" :
   [
    {
     "is_this_ptr" : true,
     "referenced_type" : "_ZTIPN7android8hardware10automotive2sv4V1_023BpHwSurroundViewSessionE"
    },
    {
     "referenced_type" : "_ZTINSt3__18functionIFvRKN7android8hardware11hidl_stringEEEE"
    }
   ],
   "return_type" : "_ZTIN7android8hardware6ReturnIvEE",
   "source_file" : "/out/soong/.intermediates/hardware/interfaces/automotive/sv/1.0/android.hardware.automotive.sv@1.0_genc++_headers/gen/android/hardware/automotive/sv/1.0/BpHwSurroundViewSession.h"
  },
  {
   "function_name" : "android::hardware::automotive::sv::V1_0::BpHwSurroundViewSession::_hidl_doneWithFrames",
   "linker_set_key" : "_ZN7android8hardware10automotive2sv4V1_023BpHwSurroundViewSession20_hidl_doneWithFramesEPNS0_10IInterfaceEPNS0_7details16HidlInstrumentorERKNS3_12SvFramesDescE",
   "parameters" :
   [
    {
     "referenced_type" : "_ZTIPN7android8hardware10IInterfaceE"
    },
    {
     "referenced_type" : "_ZTIPN7android8hardware7details16HidlInstrumentorE"
    },
    {
     "referenced_type" : "_ZTIRKN7android8hardware10automotive2sv4V1_012SvFramesDescE"
    }
   ],
   "return_type" : "_ZTIN7android8hardware6ReturnIvEE",
   "source_file" : "/out/soong/.intermediates/hardware/interfaces/automotive/sv/1.0/android.hardware.automotive.sv@1.0_genc++_headers/gen/android/hardware/automotive/sv/1.0/BpHwSurroundViewSession.h"
  },
  {
   "function_name" : "android::hardware::automotive::sv::V1_0::BpHwSurroundViewSession::notifySyspropsChanged",
   "linker_set_key" : "_ZN7android8hardware10automotive2sv4V1_023BpHwSurroundViewSession21notifySyspropsChangedEv",
   "parameters" :
   [
    {
     "is_this_ptr" : true,
     "referenced_type" : "_ZTIPN7android8hardware10automotive2sv4V1_023BpHwSurroundViewSessionE"
    }
   ],
   "return_type" : "_ZTIN7android8hardware6ReturnIvEE",
   "source_file" : "/out/soong/.intermediates/hardware/interfaces/automotive/sv/1.0/android.hardware.automotive.sv@1.0_genc++_headers/gen/android/hardware/automotive/sv/1.0/BpHwSurroundViewSession.h"
  },
  {
   "function_name" : "android::hardware::automotive::sv::V1_0::BpHwSurroundViewSession::setHALInstrumentation",
   "linker_set_key" : "_ZN7android8hardware10automotive2sv4V1_023BpHwSurroundViewSession21setHALInstrumentationEv",
   "parameters" :
   [
    {
     "is_this_ptr" : true,
     "referenced_type" : "_ZTIPN7android8hardware10automotive2sv4V1_023BpHwSurroundViewSessionE"
    }
   ],
   "return_type" : "_ZTIN7android8hardware6ReturnIvEE",
   "source_file" : "/out/soong/.intermediates/hardware/interfaces/automotive/sv/1.0/android.hardware.automotive.sv@1.0_genc++_headers/gen/android/hardware/automotive/sv/1.0/BpHwSurroundViewSession.h"
  },
  {
   "function_name" : "android::hardware::automotive::sv::V1_0::BpHwSurroundViewSession::ping",
   "linker_set_key" : "_ZN7android8hardware10automotive2sv4V1_023BpHwSurroundViewSession4pingEv",
   "parameters" :
   [
    {
     "is_this_ptr" : true,
     "referenced_type" : "_ZTIPN7android8hardware10automotive2sv4V1_023BpHwSurroundViewSessionE"
    }
   ],
   "return_type" : "_ZTIN7android8hardware6ReturnIvEE",
   "source_file" : "/out/soong/.intermediates/hardware/interfaces/automotive/sv/1.0/android.hardware.automotive.sv@1.0_genc++_headers/gen/android/hardware/automotive/sv/1.0/BpHwSurroundViewSession.h"
  },
  {
   "function_name" : "android::hardware::automotive::sv::V1_0::BpHwSurroundViewSession::debug",
   "linker_set_key" : "_ZN7android8hardware10automotive2sv4V1_023BpHwSurroundViewSession5debugERKNS0_11hidl_handleERKNS0_8hidl_vecINS0_11hidl_stringEEE",
   "parameters" :
   [
    {
     "is_this_ptr" : true,
     "referenced_type" : "_ZTIPN7android8hardware10automotive2sv4V1_023BpHwSurroundViewSessionE"
    },
    {
     "referenced_type" : "_ZTIRKN7android8hardware11hidl_handleE"
    },
    {
     "referenced_type" : "_ZTIRKN7android8hardware8hidl_vecINS0_11hidl_stringEEE"
    }
   ],
   "return_type" : "_ZTIN7android8hardware6ReturnIvEE",
   "source_file" : "/out/soong/.intermediates/hardware/interfaces/automotive/sv/1.0/android.hardware.automotive.sv@1.0_genc++_headers/gen/android/hardware/automotive/sv/1.0/BpHwSurroundViewSession.h"
  },
  {
   "function_name" : "android::hardware::automotive::sv::V1_0::BpHwSurroundViewSession::BpHwSurroundViewSession",
   "linker_set_key" : "_ZN7android8hardware10automotive2sv4V1_023BpHwSurroundViewSessionC1ERKNS_2spINS0_7IBinderEEE",
   "parameters" :
   [
    {
     "is_this_ptr" : true,
     "referenced_type" : "_ZTIPN7android8hardware10automotive2sv4V1_023BpHwSurroundViewSessionE"
    },
    {
     "referenced_type" : "_ZTIRKN7android2spINS_8hardware7IBinderEEE"
    }
   ],
   "return_type" : "_ZTIv",
   "source_file" : "/out/soong/.intermediates/hardware/interfaces/automotive/sv/1.0/android.hardware.automotive.sv@1.0_genc++_headers/gen/android/hardware/automotive/sv/1.0/BpHwSurroundViewSession.h"
  },
  {
   "function_name" : "android::hardware::automotive::sv::V1_0::BpHwSurroundViewSession::BpHwSurroundViewSession",
   "linker_set_key" : "_ZN7android8hardware10automotive2sv4V1_023BpHwSurroundViewSessionC2ERKNS_2spINS0_7IBinderEEE",
   "parameters" :
   [
    {
     "is_this_ptr" : true,
     "referenced_type" : "_ZTIPN7android8hardware10automotive2sv4V1_023BpHwSurroundViewSessionE"
    },
    {
     "referenced_type" : "_ZTIRKN7android2spINS_8hardware7IBinderEEE"
    }
   ],
   "return_type" : "_ZTIv",
   "source_file" : "/out/soong/.intermediates/hardware/interfaces/automotive/sv/1.0/android.hardware.automotive.sv@1.0_genc++_headers/gen/android/hardware/automotive/sv/1.0/BpHwSurroundViewSession.h"
  },
  {
   "access" : "private",
   "function_name" : "android::hardware::automotive::sv::V1_0::BsSurroundView2dSession::addOnewayTask",
   "linker_set_key" : "_ZN7android8hardware10automotive2sv4V1_023BsSurroundView2dSession13addOnewayTaskENSt3__18functionIFvvEEE",
   "parameters" :
   [
    {
     "is_this_ptr" : true,
     "referenced_type" : "_ZTIPN7android8hardware10automotive2sv4V1_023BsSurroundView2dSessionE"
    },
    {
     "referenced_type" : "_ZTINSt3__18functionIFvvEEE"
    }
   ],
   "return_type" : "_ZTIN7android8hardware6ReturnIvEE",
   "source_file" : "/out/soong/.intermediates/hardware/interfaces/automotive/sv/1.0/android.hardware.automotive.sv@1.0_genc++_headers/gen/android/hardware/automotive/sv/1.0/BsSurroundView2dSession.h"
  },
  {
   "function_name" : "android::hardware::automotive::sv::V1_0::BsSurroundView2dSession::BsSurroundView2dSession",
   "linker_set_key" : "_ZN7android8hardware10automotive2sv4V1_023BsSurroundView2dSessionC1ENS_2spINS3_22ISurroundView2dSessionEEE",
   "parameters" :
   [
    {
     "is_this_ptr" : true,
     "referenced_type" : "_ZTIPN7android8hardware10automotive2sv4V1_023BsSurroundView2dSessionE"
    },
    {
     "referenced_type" : "_ZTIKN7android2spINS_8hardware10automotive2sv4V1_022ISurroundView2dSessionEEE"
    }
   ],
   "return_type" : "_ZTIv",
   "source_file" : "/out/soong/.intermediates/hardware/interfaces/automotive/sv/1.0/android.hardware.automotive.sv@1.0_genc++_headers/gen/android/hardware/automotive/sv/1.0/BsSurroundView2dSession.h"
  },
  {
   "function_name" : "android::hardware::automotive::sv::V1_0::BsSurroundView2dSession::BsSurroundView2dSession",
   "linker_set_key" : "_ZN7android8hardware10automotive2sv4V1_023BsSurroundView2dSessionC2ENS_2spINS3_22ISurroundView2dSessionEEE",
   "parameters" :
   [
    {
     "is_this_ptr" : true,
     "referenced_type" : "_ZTIPN7android8hardware10automotive2sv4V1_023BsSurroundView2dSessionE"
    },
    {
     "referenced_type" : "_ZTIKN7android2spINS_8hardware10automotive2sv4V1_022ISurroundView2dSessionEEE"
    }
   ],
   "return_type" : "_ZTIv",
   "source_file" : "/out/soong/.intermediates/hardware/interfaces/automotive/sv/1.0/android.hardware.automotive.sv@1.0_genc++_headers/gen/android/hardware/automotive/sv/1.0/BsSurroundView2dSession.h"
  },
  {
   "access" : "private",
   "function_name" : "android::hardware::automotive::sv::V1_0::BsSurroundView3dSession::addOnewayTask",
   "linker_set_key" : "_ZN7android8hardware10automotive2sv4V1_023BsSurroundView3dSession13addOnewayTaskENSt3__18functionIFvvEEE",
   "parameters" :
   [
    {
     "is_this_ptr" : true,
     "referenced_type" : "_ZTIPN7android8hardware10automotive2sv4V1_023BsSurroundView3dSessionE"
    },
    {
     "referenced_type" : "_ZTINSt3__18functionIFvvEEE"
    }
   ],
   "return_type" : "_ZTIN7android8hardware6ReturnIvEE",
   "source_file" : "/out/soong/.intermediates/hardware/interfaces/automotive/sv/1.0/android.hardware.automotive.sv@1.0_genc++_headers/gen/android/hardware/automotive/sv/1.0/BsSurroundView3dSession.h"
  },
  {
   "function_name" : "android::hardware::automotive::sv::V1_0::BsSurroundView3dSession::BsSurroundView3dSession",
   "linker_set_key" : "_ZN7android8hardware10automotive2sv4V1_023BsSurroundView3dSessionC1ENS_2spINS3_22ISurroundView3dSessionEEE",
   "parameters" :
   [
    {
     "is_this_ptr" : true,
     "referenced_type" : "_ZTIPN7android8hardware10automotive2sv4V1_023BsSurroundView3dSessionE"
    },
    {
     "referenced_type" : "_ZTIKN7android2spINS_8hardware10automotive2sv4V1_022ISurroundView3dSessionEEE"
    }
   ],
   "return_type" : "_ZTIv",
   "source_file" : "/out/soong/.intermediates/hardware/interfaces/automotive/sv/1.0/android.hardware.automotive.sv@1.0_genc++_headers/gen/android/hardware/automotive/sv/1.0/BsSurroundView3dSession.h"
  },
  {
   "function_name" : "android::hardware::automotive::sv::V1_0::BsSurroundView3dSession::BsSurroundView3dSession",
   "linker_set_key" : "_ZN7android8hardware10automotive2sv4V1_023BsSurroundView3dSessionC2ENS_2spINS3_22ISurroundView3dSessionEEE",
   "parameters" :
   [
    {
     "is_this_ptr" : true,
     "referenced_type" : "_ZTIPN7android8hardware10automotive2sv4V1_023BsSurroundView3dSessionE"
    },
    {
     "referenced_type" : "_ZTIKN7android2spINS_8hardware10automotive2sv4V1_022ISurroundView3dSessionEEE"
    }
   ],
   "return_type" : "_ZTIv",
   "source_file" : "/out/soong/.intermediates/hardware/interfaces/automotive/sv/1.0/android.hardware.automotive.sv@1.0_genc++_headers/gen/android/hardware/automotive/sv/1.0/BsSurroundView3dSession.h"
  },
  {
   "function_name" : "android::hardware::automotive::sv::V1_0::BnHwSurroundView2dSession::onTransact",
   "linker_set_key" : "_ZN7android8hardware10automotive2sv4V1_025BnHwSurroundView2dSession10onTransactEjRKNS0_6ParcelEPS5_jNSt3__18functionIFvRS5_EEE",
   "parameters" :
   [
    {
     "is_this_ptr" : true,
     "referenced_type" : "_ZTIPN7android8hardware10automotive2sv4V1_025BnHwSurroundView2dSessionE"
    },
    {
     "referenced_type" : "_ZTIj"
    },
    {
     "referenced_type" : "_ZTIRKN7android8hardware6ParcelE"
    },
    {
     "referenced_type" : "_ZTIPN7android8hardware6ParcelE"
    },
    {
     "default_arg" : true,
     "referenced_type" : "_ZTIj"
    },
    {
     "default_arg" : true,
     "referenced_type" : "_ZTINSt3__18functionIFvRN7android8hardware6ParcelEEEE"
    }
   ],
   "return_type" : "_ZTIi",
   "source_file" : "/out/soong/.intermediates/hardware/interfaces/automotive/sv/1.0/android.hardware.automotive.sv@1.0_genc++_headers/gen/android/hardware/automotive/sv/1.0/BnHwSurroundView2dSession.h"
  },
  {
   "access" : "private",
   "function_name" : "android::hardware::automotive::sv::V1_0::BnHwSurroundView2dSession::getDebugInfo",
   "linker_set_key" : "_ZN7android8hardware10automotive2sv4V1_025BnHwSurroundView2dSession12getDebugInfoENSt3__18functionIFvRKNS_4hidl4base4V1_09DebugInfoEEEE",
   "parameters" :
   [
    {
     "is_this_ptr" : true,
     "referenced_type" : "_ZTIPN7android8hardware10automotive2sv4V1_025BnHwSurroundView2dSessionE"
    },
    {
     "referenced_type" : "_ZTINSt3__18functionIFvRKN7android4hidl4base4V1_09DebugInfoEEEE"
    }
   ],
   "return_type" : "_ZTIN7android8hardware6ReturnIvEE",
   "source_file" : "/out/soong/.intermediates/hardware/interfaces/automotive/sv/1.0/android.hardware.automotive.sv@1.0_genc++_headers/gen/android/hardware/automotive/sv/1.0/BnHwSurroundView2dSession.h"
  },
  {
   "function_name" : "android::hardware::automotive::sv::V1_0::BnHwSurroundView2dSession::_hidl_get2dConfig",
   "linker_set_key" : "_ZN7android8hardware10automotive2sv4V1_025BnHwSurroundView2dSession17_hidl_get2dConfigEPNS_4hidl4base4V1_08BnHwBaseERKNS0_6ParcelEPSA_NSt3__18functionIFvRSA_EEE",
   "parameters" :
   [
    {
     "referenced_type" : "_ZTIPN7android4hidl4base4V1_08BnHwBaseE"
    },
    {
     "referenced_type" : "_ZTIRKN7android8hardware6ParcelE"
    },
    {
     "referenced_type" : "_ZTIPN7android8hardware6ParcelE"
    },
    {
     "referenced_type" : "_ZTINSt3__18functionIFvRN7android8hardware6ParcelEEEE"
    }
   ],
   "return_type" : "_ZTIi",
   "source_file" : "/out/soong/.intermediates/hardware/interfaces/automotive/sv/1.0/android.hardware.automotive.sv@1.0_genc++_headers/gen/android/hardware/automotive/sv/1.0/BnHwSurroundView2dSession.h"
  },
  {
   "function_name" : "android::hardware::automotive::sv::V1_0::BnHwSurroundView2dSession::_hidl_set2dConfig",
   "linker_set_key" : "_ZN7android8hardware10automotive2sv4V1_025BnHwSurroundView2dSession17_hidl_set2dConfigEPNS_4hidl4base4V1_08BnHwBaseERKNS0_6ParcelEPSA_NSt3__18functionIFvRSA_EEE",
   "parameters" :
   [
    {
     "referenced_type" : "_ZTIPN7android4hidl4base4V1_08BnHwBaseE"
    },
    {
     "referenced_type" : "_ZTIRKN7android8hardware6ParcelE"
    },
    {
     "referenced_type" : "_ZTIPN7android8hardware6ParcelE"
    },
    {
     "referenced_type" : "_ZTINSt3__18functionIFvRN7android8hardware6ParcelEEEE"
    }
   ],
   "return_type" : "_ZTIi",
   "source_file" : "/out/soong/.intermediates/hardware/interfaces/automotive/sv/1.0/android.hardware.automotive.sv@1.0_genc++_headers/gen/android/hardware/automotive/sv/1.0/BnHwSurroundView2dSession.h"
  },
  {
   "function_name" : "android::hardware::automotive::sv::V1_0::BnHwSurroundView2dSession::_hidl_get2dMappingInfo",
   "linker_set_key" : "_ZN7android8hardware10automotive2sv4V1_025BnHwSurroundView2dSession22_hidl_get2dMappingInfoEPNS_4hidl4base4V1_08BnHwBaseERKNS0_6ParcelEPSA_NSt3__18functionIFvRSA_EEE",
   "parameters" :
   [
    {
     "referenced_type" : "_ZTIPN7android4hidl4base4V1_08BnHwBaseE"
    },
    {
     "referenced_type" : "_ZTIRKN7android8hardware6ParcelE"
    },
    {
     "referenced_type" : "_ZTIPN7android8hardware6ParcelE"
    },
    {
     "referenced_type" : "_ZTINSt3__18functionIFvRN7android8hardware6ParcelEEEE"
    }
   ],
   "return_type" : "_ZTIi",
   "source_file" : "/out/soong/.intermediates/hardware/interfaces/automotive/sv/1.0/android.hardware.automotive.sv@1.0_genc++_headers/gen/android/hardware/automotive/sv/1.0/BnHwSurroundView2dSession.h"
  },
  {
   "function_name" : "android::hardware::automotive::sv::V1_0::BnHwSurroundView2dSession::_hidl_projectCameraPoints",
   "linker_set_key" : "_ZN7android8hardware10automotive2sv4V1_025BnHwSurroundView2dSession25_hidl_projectCameraPointsEPNS_4hidl4base4V1_08BnHwBaseERKNS0_6ParcelEPSA_NSt3__18functionIFvRSA_EEE",
   "parameters" :
   [
    {
     "referenced_type" : "_ZTIPN7android4hidl4base4V1_08BnHwBaseE"
    },
    {
     "referenced_type" : "_ZTIRKN7android8hardware6ParcelE"
    },
    {
     "referenced_type" : "_ZTIPN7android8hardware6ParcelE"
    },
    {
     "referenced_type" : "_ZTINSt3__18functionIFvRN7android8hardware6ParcelEEEE"
    }
   ],
   "return_type" : "_ZTIi",
   "source_file" : "/out/soong/.intermediates/hardware/interfaces/automotive/sv/1.0/android.hardware.automotive.sv@1.0_genc++_headers/gen/android/hardware/automotive/sv/1.0/BnHwSurroundView2dSession.h"
  },
  {
   "access" : "private",
   "function_name" : "android::hardware::automotive::sv::V1_0::BnHwSurroundView2dSession::ping",
   "linker_set_key" : "_ZN7android8hardware10automotive2sv4V1_025BnHwSurroundView2dSession4pingEv",
   "parameters" :
   [
    {
     "is_this_ptr" : true,
     "referenced_type" : "_ZTIPN7android8hardware10automotive2sv4V1_025BnHwSurroundView2dSessionE"
    }
   ],
   "return_type" : "_ZTIN7android8hardware6ReturnIvEE",
   "source_file" : "/out/soong/.intermediates/hardware/interfaces/automotive/sv/1.0/android.hardware.automotive.sv@1.0_genc++_headers/gen/android/hardware/automotive/sv/1.0/BnHwSurroundView2dSession.h"
  },
  {
   "function_name" : "android::hardware::automotive::sv::V1_0::BnHwSurroundView2dSession::BnHwSurroundView2dSession",
   "linker_set_key" : "_ZN7android8hardware10automotive2sv4V1_025BnHwSurroundView2dSessionC1ERKNS_2spINS3_22ISurroundView2dSessionEEE",
   "parameters" :
   [
    {
     "is_this_ptr" : true,
     "referenced_type" : "_ZTIPN7android8hardware10automotive2sv4V1_025BnHwSurroundView2dSessionE"
    },
    {
     "referenced_type" : "_ZTIRKN7android2spINS_8hardware10automotive2sv4V1_022ISurroundView2dSessionEEE"
    }
   ],
   "return_type" : "_ZTIv",
   "source_file" : "/out/soong/.intermediates/hardware/interfaces/automotive/sv/1.0/android.hardware.automotive.sv@1.0_genc++_headers/gen/android/hardware/automotive/sv/1.0/BnHwSurroundView2dSession.h"
  },
  {
   "function_name" : "android::hardware::automotive::sv::V1_0::BnHwSurroundView2dSession::BnHwSurroundView2dSession",
   "linker_set_key" : "_ZN7android8hardware10automotive2sv4V1_025BnHwSurroundView2dSessionC2ERKNS_2spINS3_22ISurroundView2dSessionEEE",
   "parameters" :
   [
    {
     "is_this_ptr" : true,
     "referenced_type" : "_ZTIPN7android8hardware10automotive2sv4V1_025BnHwSurroundView2dSessionE"
    },
    {
     "referenced_type" : "_ZTIRKN7android2spINS_8hardware10automotive2sv4V1_022ISurroundView2dSessionEEE"
    }
   ],
   "return_type" : "_ZTIv",
   "source_file" : "/out/soong/.intermediates/hardware/interfaces/automotive/sv/1.0/android.hardware.automotive.sv@1.0_genc++_headers/gen/android/hardware/automotive/sv/1.0/BnHwSurroundView2dSession.h"
  },
  {
   "function_name" : "android::hardware::automotive::sv::V1_0::BnHwSurroundView2dSession::~BnHwSurroundView2dSession",
   "linker_set_key" : "_ZN7android8hardware10automotive2sv4V1_025BnHwSurroundView2dSessionD0Ev",
   "parameters" :
   [
    {
     "is_this_ptr" : true,
     "referenced_type" : "_ZTIPN7android8hardware10automotive2sv4V1_025BnHwSurroundView2dSessionE"
    }
   ],
   "return_type" : "_ZTIv",
   "source_file" : "/out/soong/.intermediates/hardware/interfaces/automotive/sv/1.0/android.hardware.automotive.sv@1.0_genc++_headers/gen/android/hardware/automotive/sv/1.0/BnHwSurroundView2dSession.h"
  },
  {
   "function_name" : "android::hardware::automotive::sv::V1_0::BnHwSurroundView2dSession::~BnHwSurroundView2dSession",
   "linker_set_key" : "_ZN7android8hardware10automotive2sv4V1_025BnHwSurroundView2dSessionD1Ev",
   "parameters" :
   [
    {
     "is_this_ptr" : true,
     "referenced_type" : "_ZTIPN7android8hardware10automotive2sv4V1_025BnHwSurroundView2dSessionE"
    }
   ],
   "return_type" : "_ZTIv",
   "source_file" : "/out/soong/.intermediates/hardware/interfaces/automotive/sv/1.0/android.hardware.automotive.sv@1.0_genc++_headers/gen/android/hardware/automotive/sv/1.0/BnHwSurroundView2dSession.h"
  },
  {
   "function_name" : "android::hardware::automotive::sv::V1_0::BnHwSurroundView2dSession::~BnHwSurroundView2dSession",
   "linker_set_key" : "_ZN7android8hardware10automotive2sv4V1_025BnHwSurroundView2dSessionD2Ev",
   "parameters" :
   [
    {
     "is_this_ptr" : true,
     "referenced_type" : "_ZTIPN7android8hardware10automotive2sv4V1_025BnHwSurroundView2dSessionE"
    }
   ],
   "return_type" : "_ZTIv",
   "source_file" : "/out/soong/.intermediates/hardware/interfaces/automotive/sv/1.0/android.hardware.automotive.sv@1.0_genc++_headers/gen/android/hardware/automotive/sv/1.0/BnHwSurroundView2dSession.h"
  },
  {
   "function_name" : "android::hardware::automotive::sv::V1_0::BnHwSurroundView3dSession::onTransact",
   "linker_set_key" : "_ZN7android8hardware10automotive2sv4V1_025BnHwSurroundView3dSession10onTransactEjRKNS0_6ParcelEPS5_jNSt3__18functionIFvRS5_EEE",
   "parameters" :
   [
    {
     "is_this_ptr" : true,
     "referenced_type" : "_ZTIPN7android8hardware10automotive2sv4V1_025BnHwSurroundView3dSessionE"
    },
    {
     "referenced_type" : "_ZTIj"
    },
    {
     "referenced_type" : "_ZTIRKN7android8hardware6ParcelE"
    },
    {
     "referenced_type" : "_ZTIPN7android8hardware6ParcelE"
    },
    {
     "default_arg" : true,
     "referenced_type" : "_ZTIj"
    },
    {
     "default_arg" : true,
     "referenced_type" : "_ZTINSt3__18functionIFvRN7android8hardware6ParcelEEEE"
    }
   ],
   "return_type" : "_ZTIi",
   "source_file" : "/out/soong/.intermediates/hardware/interfaces/automotive/sv/1.0/android.hardware.automotive.sv@1.0_genc++_headers/gen/android/hardware/automotive/sv/1.0/BnHwSurroundView3dSession.h"
  },
  {
   "access" : "private",
   "function_name" : "android::hardware::automotive::sv::V1_0::BnHwSurroundView3dSession::getDebugInfo",
   "linker_set_key" : "_ZN7android8hardware10automotive2sv4V1_025BnHwSurroundView3dSession12getDebugInfoENSt3__18functionIFvRKNS_4hidl4base4V1_09DebugInfoEEEE",
   "parameters" :
   [
    {
     "is_this_ptr" : true,
     "referenced_type" : "_ZTIPN7android8hardware10automotive2sv4V1_025BnHwSurroundView3dSessionE"
    },
    {
     "referenced_type" : "_ZTINSt3__18functionIFvRKN7android4hidl4base4V1_09DebugInfoEEEE"
    }
   ],
   "return_type" : "_ZTIN7android8hardware6ReturnIvEE",
   "source_file" : "/out/soong/.intermediates/hardware/interfaces/automotive/sv/1.0/android.hardware.automotive.sv@1.0_genc++_headers/gen/android/hardware/automotive/sv/1.0/BnHwSurroundView3dSession.h"
  },
  {
   "function_name" : "android::hardware::automotive::sv::V1_0::BnHwSurroundView3dSession::_hidl_setViews",
   "linker_set_key" : "_ZN7android8hardware10automotive2sv4V1_025BnHwSurroundView3dSession14_hidl_setViewsEPNS_4hidl4base4V1_08BnHwBaseERKNS0_6ParcelEPSA_NSt3__18functionIFvRSA_EEE",
   "parameters" :
   [
    {
     "referenced_type" : "_ZTIPN7android4hidl4base4V1_08BnHwBaseE"
    },
    {
     "referenced_type" : "_ZTIRKN7android8hardware6ParcelE"
    },
    {
     "referenced_type" : "_ZTIPN7android8hardware6ParcelE"
    },
    {
     "referenced_type" : "_ZTINSt3__18functionIFvRN7android8hardware6ParcelEEEE"
    }
   ],
   "return_type" : "_ZTIi",
   "source_file" : "/out/soong/.intermediates/hardware/interfaces/automotive/sv/1.0/android.hardware.automotive.sv@1.0_genc++_headers/gen/android/hardware/automotive/sv/1.0/BnHwSurroundView3dSession.h"
  },
  {
   "function_name" : "android::hardware::automotive::sv::V1_0::BnHwSurroundView3dSession::_hidl_get3dConfig",
   "linker_set_key" : "_ZN7android8hardware10automotive2sv4V1_025BnHwSurroundView3dSession17_hidl_get3dConfigEPNS_4hidl4base4V1_08BnHwBaseERKNS0_6ParcelEPSA_NSt3__18functionIFvRSA_EEE",
   "parameters" :
   [
    {
     "referenced_type" : "_ZTIPN7android4hidl4base4V1_08BnHwBaseE"
    },
    {
     "referenced_type" : "_ZTIRKN7android8hardware6ParcelE"
    },
    {
     "referenced_type" : "_ZTIPN7android8hardware6ParcelE"
    },
    {
     "referenced_type" : "_ZTINSt3__18functionIFvRN7android8hardware6ParcelEEEE"
    }
   ],
   "return_type" : "_ZTIi",
   "source_file" : "/out/soong/.intermediates/hardware/interfaces/automotive/sv/1.0/android.hardware.automotive.sv@1.0_genc++_headers/gen/android/hardware/automotive/sv/1.0/BnHwSurroundView3dSession.h"
  },
  {
   "function_name" : "android::hardware::automotive::sv::V1_0::BnHwSurroundView3dSession::_hidl_set3dConfig",
   "linker_set_key" : "_ZN7android8hardware10automotive2sv4V1_025BnHwSurroundView3dSession17_hidl_set3dConfigEPNS_4hidl4base4V1_08BnHwBaseERKNS0_6ParcelEPSA_NSt3__18functionIFvRSA_EEE",
   "parameters" :
   [
    {
     "referenced_type" : "_ZTIPN7android4hidl4base4V1_08BnHwBaseE"
    },
    {
     "referenced_type" : "_ZTIRKN7android8hardware6ParcelE"
    },
    {
     "referenced_type" : "_ZTIPN7android8hardware6ParcelE"
    },
    {
     "referenced_type" : "_ZTINSt3__18functionIFvRN7android8hardware6ParcelEEEE"
    }
   ],
   "return_type" : "_ZTIi",
   "source_file" : "/out/soong/.intermediates/hardware/interfaces/automotive/sv/1.0/android.hardware.automotive.sv@1.0_genc++_headers/gen/android/hardware/automotive/sv/1.0/BnHwSurroundView3dSession.h"
  },
  {
   "function_name" : "android::hardware::automotive::sv::V1_0::BnHwSurroundView3dSession::_hidl_updateOverlays",
   "linker_set_key" : "_ZN7android8hardware10automotive2sv4V1_025BnHwSurroundView3dSession20_hidl_updateOverlaysEPNS_4hidl4base4V1_08BnHwBaseERKNS0_6ParcelEPSA_NSt3__18functionIFvRSA_EEE",
   "parameters" :
   [
    {
     "referenced_type" : "_ZTIPN7android4hidl4base4V1_08BnHwBaseE"
    },
    {
     "referenced_type" : "_ZTIRKN7android8hardware6ParcelE"
    },
    {
     "referenced_type" : "_ZTIPN7android8hardware6ParcelE"
    },
    {
     "referenced_type" : "_ZTINSt3__18functionIFvRN7android8hardware6ParcelEEEE"
    }
   ],
   "return_type" : "_ZTIi",
   "source_file" : "/out/soong/.intermediates/hardware/interfaces/automotive/sv/1.0/android.hardware.automotive.sv@1.0_genc++_headers/gen/android/hardware/automotive/sv/1.0/BnHwSurroundView3dSession.h"
  },
  {
   "function_name" : "android::hardware::automotive::sv::V1_0::BnHwSurroundView3dSession::_hidl_projectCameraPointsTo3dSurface",
   "linker_set_key" : "_ZN7android8hardware10automotive2sv4V1_025BnHwSurroundView3dSession36_hidl_projectCameraPointsTo3dSurfaceEPNS_4hidl4base4V1_08BnHwBaseERKNS0_6ParcelEPSA_NSt3__18functionIFvRSA_EEE",
   "parameters" :
   [
    {
     "referenced_type" : "_ZTIPN7android4hidl4base4V1_08BnHwBaseE"
    },
    {
     "referenced_type" : "_ZTIRKN7android8hardware6ParcelE"
    },
    {
     "referenced_type" : "_ZTIPN7android8hardware6ParcelE"
    },
    {
     "referenced_type" : "_ZTINSt3__18functionIFvRN7android8hardware6ParcelEEEE"
    }
   ],
   "return_type" : "_ZTIi",
   "source_file" : "/out/soong/.intermediates/hardware/interfaces/automotive/sv/1.0/android.hardware.automotive.sv@1.0_genc++_headers/gen/android/hardware/automotive/sv/1.0/BnHwSurroundView3dSession.h"
  },
  {
   "access" : "private",
   "function_name" : "android::hardware::automotive::sv::V1_0::BnHwSurroundView3dSession::ping",
   "linker_set_key" : "_ZN7android8hardware10automotive2sv4V1_025BnHwSurroundView3dSession4pingEv",
   "parameters" :
   [
    {
     "is_this_ptr" : true,
     "referenced_type" : "_ZTIPN7android8hardware10automotive2sv4V1_025BnHwSurroundView3dSessionE"
    }
   ],
   "return_type" : "_ZTIN7android8hardware6ReturnIvEE",
   "source_file" : "/out/soong/.intermediates/hardware/interfaces/automotive/sv/1.0/android.hardware.automotive.sv@1.0_genc++_headers/gen/android/hardware/automotive/sv/1.0/BnHwSurroundView3dSession.h"
  },
  {
   "function_name" : "android::hardware::automotive::sv::V1_0::BnHwSurroundView3dSession::BnHwSurroundView3dSession",
   "linker_set_key" : "_ZN7android8hardware10automotive2sv4V1_025BnHwSurroundView3dSessionC1ERKNS_2spINS3_22ISurroundView3dSessionEEE",
   "parameters" :
   [
    {
     "is_this_ptr" : true,
     "referenced_type" : "_ZTIPN7android8hardware10automotive2sv4V1_025BnHwSurroundView3dSessionE"
    },
    {
     "referenced_type" : "_ZTIRKN7android2spINS_8hardware10automotive2sv4V1_022ISurroundView3dSessionEEE"
    }
   ],
   "return_type" : "_ZTIv",
   "source_file" : "/out/soong/.intermediates/hardware/interfaces/automotive/sv/1.0/android.hardware.automotive.sv@1.0_genc++_headers/gen/android/hardware/automotive/sv/1.0/BnHwSurroundView3dSession.h"
  },
  {
   "function_name" : "android::hardware::automotive::sv::V1_0::BnHwSurroundView3dSession::BnHwSurroundView3dSession",
   "linker_set_key" : "_ZN7android8hardware10automotive2sv4V1_025BnHwSurroundView3dSessionC2ERKNS_2spINS3_22ISurroundView3dSessionEEE",
   "parameters" :
   [
    {
     "is_this_ptr" : true,
     "referenced_type" : "_ZTIPN7android8hardware10automotive2sv4V1_025BnHwSurroundView3dSessionE"
    },
    {
     "referenced_type" : "_ZTIRKN7android2spINS_8hardware10automotive2sv4V1_022ISurroundView3dSessionEEE"
    }
   ],
   "return_type" : "_ZTIv",
   "source_file" : "/out/soong/.intermediates/hardware/interfaces/automotive/sv/1.0/android.hardware.automotive.sv@1.0_genc++_headers/gen/android/hardware/automotive/sv/1.0/BnHwSurroundView3dSession.h"
  },
  {
   "function_name" : "android::hardware::automotive::sv::V1_0::BnHwSurroundView3dSession::~BnHwSurroundView3dSession",
   "linker_set_key" : "_ZN7android8hardware10automotive2sv4V1_025BnHwSurroundView3dSessionD0Ev",
   "parameters" :
   [
    {
     "is_this_ptr" : true,
     "referenced_type" : "_ZTIPN7android8hardware10automotive2sv4V1_025BnHwSurroundView3dSessionE"
    }
   ],
   "return_type" : "_ZTIv",
   "source_file" : "/out/soong/.intermediates/hardware/interfaces/automotive/sv/1.0/android.hardware.automotive.sv@1.0_genc++_headers/gen/android/hardware/automotive/sv/1.0/BnHwSurroundView3dSession.h"
  },
  {
   "function_name" : "android::hardware::automotive::sv::V1_0::BnHwSurroundView3dSession::~BnHwSurroundView3dSession",
   "linker_set_key" : "_ZN7android8hardware10automotive2sv4V1_025BnHwSurroundView3dSessionD1Ev",
   "parameters" :
   [
    {
     "is_this_ptr" : true,
     "referenced_type" : "_ZTIPN7android8hardware10automotive2sv4V1_025BnHwSurroundView3dSessionE"
    }
   ],
   "return_type" : "_ZTIv",
   "source_file" : "/out/soong/.intermediates/hardware/interfaces/automotive/sv/1.0/android.hardware.automotive.sv@1.0_genc++_headers/gen/android/hardware/automotive/sv/1.0/BnHwSurroundView3dSession.h"
  },
  {
   "function_name" : "android::hardware::automotive::sv::V1_0::BnHwSurroundView3dSession::~BnHwSurroundView3dSession",
   "linker_set_key" : "_ZN7android8hardware10automotive2sv4V1_025BnHwSurroundView3dSessionD2Ev",
   "parameters" :
   [
    {
     "is_this_ptr" : true,
     "referenced_type" : "_ZTIPN7android8hardware10automotive2sv4V1_025BnHwSurroundView3dSessionE"
    }
   ],
   "return_type" : "_ZTIv",
   "source_file" : "/out/soong/.intermediates/hardware/interfaces/automotive/sv/1.0/android.hardware.automotive.sv@1.0_genc++_headers/gen/android/hardware/automotive/sv/1.0/BnHwSurroundView3dSession.h"
  },
  {
   "function_name" : "android::hardware::automotive::sv::V1_0::BpHwSurroundView2dSession::stopStream",
   "linker_set_key" : "_ZN7android8hardware10automotive2sv4V1_025BpHwSurroundView2dSession10stopStreamEv",
   "parameters" :
   [
    {
     "is_this_ptr" : true,
     "referenced_type" : "_ZTIPN7android8hardware10automotive2sv4V1_025BpHwSurroundView2dSessionE"
    }
   ],
   "return_type" : "_ZTIN7android8hardware6ReturnIvEE",
   "source_file" : "/out/soong/.intermediates/hardware/interfaces/automotive/sv/1.0/android.hardware.automotive.sv@1.0_genc++_headers/gen/android/hardware/automotive/sv/1.0/BpHwSurroundView2dSession.h"
  },
  {
   "function_name" : "android::hardware::automotive::sv::V1_0::BpHwSurroundView2dSession::get2dConfig",
   "linker_set_key" : "_ZN7android8hardware10automotive2sv4V1_025BpHwSurroundView2dSession11get2dConfigENSt3__18functionIFvRKNS3_10Sv2dConfigEEEE",
   "parameters" :
   [
    {
     "is_this_ptr" : true,
     "referenced_type" : "_ZTIPN7android8hardware10automotive2sv4V1_025BpHwSurroundView2dSessionE"
    },
    {
     "referenced_type" : "_ZTINSt3__18functionIFvRKN7android8hardware10automotive2sv4V1_010Sv2dConfigEEEE"
    }
   ],
   "return_type" : "_ZTIN7android8hardware6ReturnIvEE",
   "source_file" : "/out/soong/.intermediates/hardware/interfaces/automotive/sv/1.0/android.hardware.automotive.sv@1.0_genc++_headers/gen/android/hardware/automotive/sv/1.0/BpHwSurroundView2dSession.h"
  },
  {
   "function_name" : "android::hardware::automotive::sv::V1_0::BpHwSurroundView2dSession::linkToDeath",
   "linker_set_key" : "_ZN7android8hardware10automotive2sv4V1_025BpHwSurroundView2dSession11linkToDeathERKNS_2spINS0_20hidl_death_recipientEEEy",
   "parameters" :
   [
    {
     "is_this_ptr" : true,
     "referenced_type" : "_ZTIPN7android8hardware10automotive2sv4V1_025BpHwSurroundView2dSessionE"
    },
    {
     "referenced_type" : "_ZTIRKN7android2spINS_8hardware20hidl_death_recipientEEE"
    },
    {
     "referenced_type" : "_ZTIy"
    }
   ],
   "return_type" : "_ZTIN7android8hardware6ReturnIbEE",
   "source_file" : "/out/soong/.intermediates/hardware/interfaces/automotive/sv/1.0/android.hardware.automotive.sv@1.0_genc++_headers/gen/android/hardware/automotive/sv/1.0/BpHwSurroundView2dSession.h"
  },
  {
   "function_name" : "android::hardware::automotive::sv::V1_0::BpHwSurroundView2dSession::set2dConfig",
   "linker_set_key" : "_ZN7android8hardware10automotive2sv4V1_025BpHwSurroundView2dSession11set2dConfigERKNS3_10Sv2dConfigE",
   "parameters" :
   [
    {
     "is_this_ptr" : true,
     "referenced_type" : "_ZTIPN7android8hardware10automotive2sv4V1_025BpHwSurroundView2dSessionE"
    },
    {
     "referenced_type" : "_ZTIRKN7android8hardware10automotive2sv4V1_010Sv2dConfigE"
    }
   ],
   "return_type" : "_ZTIN7android8hardware6ReturnINS0_10automotive2sv4V1_08SvResultEEE",
   "source_file" : "/out/soong/.intermediates/hardware/interfaces/automotive/sv/1.0/android.hardware.automotive.sv@1.0_genc++_headers/gen/android/hardware/automotive/sv/1.0/BpHwSurroundView2dSession.h"
  },
  {
   "function_name" : "android::hardware::automotive::sv::V1_0::BpHwSurroundView2dSession::startStream",
   "linker_set_key" : "_ZN7android8hardware10automotive2sv4V1_025BpHwSurroundView2dSession11startStreamERKNS_2spINS3_19ISurroundViewStreamEEE",
   "parameters" :
   [
    {
     "is_this_ptr" : true,
     "referenced_type" : "_ZTIPN7android8hardware10automotive2sv4V1_025BpHwSurroundView2dSessionE"
    },
    {
     "referenced_type" : "_ZTIRKN7android2spINS_8hardware10automotive2sv4V1_019ISurroundViewStreamEEE"
    }
   ],
   "return_type" : "_ZTIN7android8hardware6ReturnINS0_10automotive2sv4V1_08SvResultEEE",
   "source_file" : "/out/soong/.intermediates/hardware/interfaces/automotive/sv/1.0/android.hardware.automotive.sv@1.0_genc++_headers/gen/android/hardware/automotive/sv/1.0/BpHwSurroundView2dSession.h"
  },
  {
   "function_name" : "android::hardware::automotive::sv::V1_0::BpHwSurroundView2dSession::getDebugInfo",
   "linker_set_key" : "_ZN7android8hardware10automotive2sv4V1_025BpHwSurroundView2dSession12getDebugInfoENSt3__18functionIFvRKNS_4hidl4base4V1_09DebugInfoEEEE",
   "parameters" :
   [
    {
     "is_this_ptr" : true,
     "referenced_type" : "_ZTIPN7android8hardware10automotive2sv4V1_025BpHwSurroundView2dSessionE"
    },
    {
     "referenced_type" : "_ZTINSt3__18functionIFvRKN7android4hidl4base4V1_09DebugInfoEEEE"
    }
   ],
   "return_type" : "_ZTIN7android8hardware6ReturnIvEE",
   "source_file" : "/out/soong/.intermediates/hardware/interfaces/automotive/sv/1.0/android.hardware.automotive.sv@1.0_genc++_headers/gen/android/hardware/automotive/sv/1.0/BpHwSurroundView2dSession.h"
  },
  {
   "function_name" : "android::hardware::automotive::sv::V1_0::BpHwSurroundView2dSession::getHashChain",
   "linker_set_key" : "_ZN7android8hardware10automotive2sv4V1_025BpHwSurroundView2dSession12getHashChainENSt3__18functionIFvRKNS0_8hidl_vecINS0_10hidl_arrayIhLj32EJEEEEEEEE",
   "parameters" :
   [
    {
     "is_this_ptr" : true,
     "referenced_type" : "_ZTIPN7android8hardware10automotive2sv4V1_025BpHwSurroundView2dSessionE"
    },
    {
     "referenced_type" : "_ZTINSt3__18functionIFvRKN7android8hardware8hidl_vecINS2_10hidl_arrayIhLj32EJEEEEEEEE"
    }
   ],
   "return_type" : "_ZTIN7android8hardware6ReturnIvEE",
   "source_file" : "/out/soong/.intermediates/hardware/interfaces/automotive/sv/1.0/android.hardware.automotive.sv@1.0_genc++_headers/gen/android/hardware/automotive/sv/1.0/BpHwSurroundView2dSession.h"
  },
  {
   "function_name" : "android::hardware::automotive::sv::V1_0::BpHwSurroundView2dSession::unlinkToDeath",
   "linker_set_key" : "_ZN7android8hardware10automotive2sv4V1_025BpHwSurroundView2dSession13unlinkToDeathERKNS_2spINS0_20hidl_death_recipientEEE",
   "parameters" :
   [
    {
     "is_this_ptr" : true,
     "referenced_type" : "_ZTIPN7android8hardware10automotive2sv4V1_025BpHwSurroundView2dSessionE"
    },
    {
     "referenced_type" : "_ZTIRKN7android2spINS_8hardware20hidl_death_recipientEEE"
    }
   ],
   "return_type" : "_ZTIN7android8hardware6ReturnIbEE",
   "source_file" : "/out/soong/.intermediates/hardware/interfaces/automotive/sv/1.0/android.hardware.automotive.sv@1.0_genc++_headers/gen/android/hardware/automotive/sv/1.0/BpHwSurroundView2dSession.h"
  },
  {
   "function_name" : "android::hardware::automotive::sv::V1_0::BpHwSurroundView2dSession::doneWithFrames",
   "linker_set_key" : "_ZN7android8hardware10automotive2sv4V1_025BpHwSurroundView2dSession14doneWithFramesERKNS3_12SvFramesDescE",
   "parameters" :
   [
    {
     "is_this_ptr" : true,
     "referenced_type" : "_ZTIPN7android8hardware10automotive2sv4V1_025BpHwSurroundView2dSessionE"
    },
    {
     "referenced_type" : "_ZTIRKN7android8hardware10automotive2sv4V1_012SvFramesDescE"
    }
   ],
   "return_type" : "_ZTIN7android8hardware6ReturnIvEE",
   "source_file" : "/out/soong/.intermediates/hardware/interfaces/automotive/sv/1.0/android.hardware.automotive.sv@1.0_genc++_headers/gen/android/hardware/automotive/sv/1.0/BpHwSurroundView2dSession.h"
  },
  {
   "function_name" : "android::hardware::automotive::sv::V1_0::BpHwSurroundView2dSession::interfaceChain",
   "linker_set_key" : "_ZN7android8hardware10automotive2sv4V1_025BpHwSurroundView2dSession14interfaceChainENSt3__18functionIFvRKNS0_8hidl_vecINS0_11hidl_stringEEEEEE",
   "parameters" :
   [
    {
     "is_this_ptr" : true,
     "referenced_type" : "_ZTIPN7android8hardware10automotive2sv4V1_025BpHwSurroundView2dSessionE"
    },
    {
     "referenced_type" : "_ZTINSt3__18functionIFvRKN7android8hardware8hidl_vecINS2_11hidl_stringEEEEEE"
    }
   ],
   "return_type" : "_ZTIN7android8hardware6ReturnIvEE",
   "source_file" : "/out/soong/.intermediates/hardware/interfaces/automotive/sv/1.0/android.hardware.automotive.sv@1.0_genc++_headers/gen/android/hardware/automotive/sv/1.0/BpHwSurroundView2dSession.h"
  },
  {
   "function_name" : "android::hardware::automotive::sv::V1_0::BpHwSurroundView2dSession::onLastStrongRef",
   "linker_set_key" : "_ZN7android8hardware10automotive2sv4V1_025BpHwSurroundView2dSession15onLastStrongRefEPKv",
   "parameters" :
   [
    {
     "is_this_ptr" : true,
     "referenced_type" : "_ZTIPN7android8hardware10automotive2sv4V1_025BpHwSurroundView2dSessionE"
    },
    {
     "referenced_type" : "_ZTIPKv"
    }
   ],
   "return_type" : "_ZTIv",
   "source_file" : "/out/soong/.intermediates/hardware/interfaces/automotive/sv/1.0/android.hardware.automotive.sv@1.0_genc++_headers/gen/android/hardware/automotive/sv/1.0/BpHwSurroundView2dSession.h"
  },
  {
   "function_name" : "android::hardware::automotive::sv::V1_0::BpHwSurroundView2dSession::get2dMappingInfo",
   "linker_set_key" : "_ZN7android8hardware10automotive2sv4V1_025BpHwSurroundView2dSession16get2dMappingInfoENSt3__18functionIFvRKNS3_15Sv2dMappingInfoEEEE",
   "parameters" :
   [
    {
     "is_this_ptr" : true,
     "referenced_type" : "_ZTIPN7android8hardware10automotive2sv4V1_025BpHwSurroundView2dSessionE"
    },
    {
     "referenced_type" : "_ZTINSt3__18functionIFvRKN7android8hardware10automotive2sv4V1_015Sv2dMappingInfoEEEE"
    }
   ],
   "return_type" : "_ZTIN7android8hardware6ReturnIvEE",
   "source_file" : "/out/soong/.intermediates/hardware/interfaces/automotive/sv/1.0/android.hardware.automotive.sv@1.0_genc++_headers/gen/android/hardware/automotive/sv/1.0/BpHwSurroundView2dSession.h"
  },
  {
   "function_name" : "android::hardware::automotive::sv::V1_0::BpHwSurroundView2dSession::_hidl_get2dConfig",
   "linker_set_key" : "_ZN7android8hardware10automotive2sv4V1_025BpHwSurroundView2dSession17_hidl_get2dConfigEPNS0_10IInterfaceEPNS0_7details16HidlInstrumentorENSt3__18functionIFvRKNS3_10Sv2dConfigEEEE",
   "parameters" :
   [
    {
     "referenced_type" : "_ZTIPN7android8hardware10IInterfaceE"
    },
    {
     "referenced_type" : "_ZTIPN7android8hardware7details16HidlInstrumentorE"
    },
    {
     "referenced_type" : "_ZTINSt3__18functionIFvRKN7android8hardware10automotive2sv4V1_010Sv2dConfigEEEE"
    }
   ],
   "return_type" : "_ZTIN7android8hardware6ReturnIvEE",
   "source_file" : "/out/soong/.intermediates/hardware/interfaces/automotive/sv/1.0/android.hardware.automotive.sv@1.0_genc++_headers/gen/android/hardware/automotive/sv/1.0/BpHwSurroundView2dSession.h"
  },
  {
   "function_name" : "android::hardware::automotive::sv::V1_0::BpHwSurroundView2dSession::_hidl_set2dConfig",
   "linker_set_key" : "_ZN7android8hardware10automotive2sv4V1_025BpHwSurroundView2dSession17_hidl_set2dConfigEPNS0_10IInterfaceEPNS0_7details16HidlInstrumentorERKNS3_10Sv2dConfigE",
   "parameters" :
   [
    {
     "referenced_type" : "_ZTIPN7android8hardware10IInterfaceE"
    },
    {
     "referenced_type" : "_ZTIPN7android8hardware7details16HidlInstrumentorE"
    },
    {
     "referenced_type" : "_ZTIRKN7android8hardware10automotive2sv4V1_010Sv2dConfigE"
    }
   ],
   "return_type" : "_ZTIN7android8hardware6ReturnINS0_10automotive2sv4V1_08SvResultEEE",
   "source_file" : "/out/soong/.intermediates/hardware/interfaces/automotive/sv/1.0/android.hardware.automotive.sv@1.0_genc++_headers/gen/android/hardware/automotive/sv/1.0/BpHwSurroundView2dSession.h"
  },
  {
   "function_name" : "android::hardware::automotive::sv::V1_0::BpHwSurroundView2dSession::interfaceDescriptor",
   "linker_set_key" : "_ZN7android8hardware10automotive2sv4V1_025BpHwSurroundView2dSession19interfaceDescriptorENSt3__18functionIFvRKNS0_11hidl_stringEEEE",
   "parameters" :
   [
    {
     "is_this_ptr" : true,
     "referenced_type" : "_ZTIPN7android8hardware10automotive2sv4V1_025BpHwSurroundView2dSessionE"
    },
    {
     "referenced_type" : "_ZTINSt3__18functionIFvRKN7android8hardware11hidl_stringEEEE"
    }
   ],
   "return_type" : "_ZTIN7android8hardware6ReturnIvEE",
   "source_file" : "/out/soong/.intermediates/hardware/interfaces/automotive/sv/1.0/android.hardware.automotive.sv@1.0_genc++_headers/gen/android/hardware/automotive/sv/1.0/BpHwSurroundView2dSession.h"
  },
  {
   "function_name" : "android::hardware::automotive::sv::V1_0::BpHwSurroundView2dSession::projectCameraPoints",
   "linker_set_key" : "_ZN7android8hardware10automotive2sv4V1_025BpHwSurroundView2dSession19projectCameraPointsERKNS0_8hidl_vecINS3_10Point2dIntEEERKNS0_11hidl_stringENSt3__18functionIFvRKNS5_INS3_12Point2dFloatEEEEEE",
   "parameters" :
   [
    {
     "is_this_ptr" : true,
     "referenced_type" : "_ZTIPN7android8hardware10automotive2sv4V1_025BpHwSurroundView2dSessionE"
    },
    {
     "referenced_type" : "_ZTIRKN7android8hardware8hidl_vecINS0_10automotive2sv4V1_010Point2dIntEEE"
    },
    {
     "referenced_type" : "_ZTIRKN7android8hardware11hidl_stringE"
    },
    {
     "referenced_type" : "_ZTINSt3__18functionIFvRKN7android8hardware8hidl_vecINS2_10automotive2sv4V1_012Point2dFloatEEEEEE"
    }
   ],
   "return_type" : "_ZTIN7android8hardware6ReturnIvEE",
   "source_file" : "/out/soong/.intermediates/hardware/interfaces/automotive/sv/1.0/android.hardware.automotive.sv@1.0_genc++_headers/gen/android/hardware/automotive/sv/1.0/BpHwSurroundView2dSession.h"
  },
  {
   "function_name" : "android::hardware::automotive::sv::V1_0::BpHwSurroundView2dSession::notifySyspropsChanged",
   "linker_set_key" : "_ZN7android8hardware10automotive2sv4V1_025BpHwSurroundView2dSession21notifySyspropsChangedEv",
   "parameters" :
   [
    {
     "is_this_ptr" : true,
     "referenced_type" : "_ZTIPN7android8hardware10automotive2sv4V1_025BpHwSurroundView2dSessionE"
    }
   ],
   "return_type" : "_ZTIN7android8hardware6ReturnIvEE",
   "source_file" : "/out/soong/.intermediates/hardware/interfaces/automotive/sv/1.0/android.hardware.automotive.sv@1.0_genc++_headers/gen/android/hardware/automotive/sv/1.0/BpHwSurroundView2dSession.h"
  },
  {
   "function_name" : "android::hardware::automotive::sv::V1_0::BpHwSurroundView2dSession::setHALInstrumentation",
   "linker_set_key" : "_ZN7android8hardware10automotive2sv4V1_025BpHwSurroundView2dSession21setHALInstrumentationEv",
   "parameters" :
   [
    {
     "is_this_ptr" : true,
     "referenced_type" : "_ZTIPN7android8hardware10automotive2sv4V1_025BpHwSurroundView2dSessionE"
    }
   ],
   "return_type" : "_ZTIN7android8hardware6ReturnIvEE",
   "source_file" : "/out/soong/.intermediates/hardware/interfaces/automotive/sv/1.0/android.hardware.automotive.sv@1.0_genc++_headers/gen/android/hardware/automotive/sv/1.0/BpHwSurroundView2dSession.h"
  },
  {
   "function_name" : "android::hardware::automotive::sv::V1_0::BpHwSurroundView2dSession::_hidl_get2dMappingInfo",
   "linker_set_key" : "_ZN7android8hardware10automotive2sv4V1_025BpHwSurroundView2dSession22_hidl_get2dMappingInfoEPNS0_10IInterfaceEPNS0_7details16HidlInstrumentorENSt3__18functionIFvRKNS3_15Sv2dMappingInfoEEEE",
   "parameters" :
   [
    {
     "referenced_type" : "_ZTIPN7android8hardware10IInterfaceE"
    },
    {
     "referenced_type" : "_ZTIPN7android8hardware7details16HidlInstrumentorE"
    },
    {
     "referenced_type" : "_ZTINSt3__18functionIFvRKN7android8hardware10automotive2sv4V1_015Sv2dMappingInfoEEEE"
    }
   ],
   "return_type" : "_ZTIN7android8hardware6ReturnIvEE",
   "source_file" : "/out/soong/.intermediates/hardware/interfaces/automotive/sv/1.0/android.hardware.automotive.sv@1.0_genc++_headers/gen/android/hardware/automotive/sv/1.0/BpHwSurroundView2dSession.h"
  },
  {
   "function_name" : "android::hardware::automotive::sv::V1_0::BpHwSurroundView2dSession::_hidl_projectCameraPoints",
   "linker_set_key" : "_ZN7android8hardware10automotive2sv4V1_025BpHwSurroundView2dSession25_hidl_projectCameraPointsEPNS0_10IInterfaceEPNS0_7details16HidlInstrumentorERKNS0_8hidl_vecINS3_10Point2dIntEEERKNS0_11hidl_stringENSt3__18functionIFvRKNSA_INS3_12Point2dFloatEEEEEE",
   "parameters" :
   [
    {
     "referenced_type" : "_ZTIPN7android8hardware10IInterfaceE"
    },
    {
     "referenced_type" : "_ZTIPN7android8hardware7details16HidlInstrumentorE"
    },
    {
     "referenced_type" : "_ZTIRKN7android8hardware8hidl_vecINS0_10automotive2sv4V1_010Point2dIntEEE"
    },
    {
     "referenced_type" : "_ZTIRKN7android8hardware11hidl_stringE"
    },
    {
     "referenced_type" : "_ZTINSt3__18functionIFvRKN7android8hardware8hidl_vecINS2_10automotive2sv4V1_012Point2dFloatEEEEEE"
    }
   ],
   "return_type" : "_ZTIN7android8hardware6ReturnIvEE",
   "source_file" : "/out/soong/.intermediates/hardware/interfaces/automotive/sv/1.0/android.hardware.automotive.sv@1.0_genc++_headers/gen/android/hardware/automotive/sv/1.0/BpHwSurroundView2dSession.h"
  },
  {
   "function_name" : "android::hardware::automotive::sv::V1_0::BpHwSurroundView2dSession::ping",
   "linker_set_key" : "_ZN7android8hardware10automotive2sv4V1_025BpHwSurroundView2dSession4pingEv",
   "parameters" :
   [
    {
     "is_this_ptr" : true,
     "referenced_type" : "_ZTIPN7android8hardware10automotive2sv4V1_025BpHwSurroundView2dSessionE"
    }
   ],
   "return_type" : "_ZTIN7android8hardware6ReturnIvEE",
   "source_file" : "/out/soong/.intermediates/hardware/interfaces/automotive/sv/1.0/android.hardware.automotive.sv@1.0_genc++_headers/gen/android/hardware/automotive/sv/1.0/BpHwSurroundView2dSession.h"
  },
  {
   "function_name" : "android::hardware::automotive::sv::V1_0::BpHwSurroundView2dSession::debug",
   "linker_set_key" : "_ZN7android8hardware10automotive2sv4V1_025BpHwSurroundView2dSession5debugERKNS0_11hidl_handleERKNS0_8hidl_vecINS0_11hidl_stringEEE",
   "parameters" :
   [
    {
     "is_this_ptr" : true,
     "referenced_type" : "_ZTIPN7android8hardware10automotive2sv4V1_025BpHwSurroundView2dSessionE"
    },
    {
     "referenced_type" : "_ZTIRKN7android8hardware11hidl_handleE"
    },
    {
     "referenced_type" : "_ZTIRKN7android8hardware8hidl_vecINS0_11hidl_stringEEE"
    }
   ],
   "return_type" : "_ZTIN7android8hardware6ReturnIvEE",
   "source_file" : "/out/soong/.intermediates/hardware/interfaces/automotive/sv/1.0/android.hardware.automotive.sv@1.0_genc++_headers/gen/android/hardware/automotive/sv/1.0/BpHwSurroundView2dSession.h"
  },
  {
   "function_name" : "android::hardware::automotive::sv::V1_0::BpHwSurroundView2dSession::BpHwSurroundView2dSession",
   "linker_set_key" : "_ZN7android8hardware10automotive2sv4V1_025BpHwSurroundView2dSessionC1ERKNS_2spINS0_7IBinderEEE",
   "parameters" :
   [
    {
     "is_this_ptr" : true,
     "referenced_type" : "_ZTIPN7android8hardware10automotive2sv4V1_025BpHwSurroundView2dSessionE"
    },
    {
     "referenced_type" : "_ZTIRKN7android2spINS_8hardware7IBinderEEE"
    }
   ],
   "return_type" : "_ZTIv",
   "source_file" : "/out/soong/.intermediates/hardware/interfaces/automotive/sv/1.0/android.hardware.automotive.sv@1.0_genc++_headers/gen/android/hardware/automotive/sv/1.0/BpHwSurroundView2dSession.h"
  },
  {
   "function_name" : "android::hardware::automotive::sv::V1_0::BpHwSurroundView2dSession::BpHwSurroundView2dSession",
   "linker_set_key" : "_ZN7android8hardware10automotive2sv4V1_025BpHwSurroundView2dSessionC2ERKNS_2spINS0_7IBinderEEE",
   "parameters" :
   [
    {
     "is_this_ptr" : true,
     "referenced_type" : "_ZTIPN7android8hardware10automotive2sv4V1_025BpHwSurroundView2dSessionE"
    },
    {
     "referenced_type" : "_ZTIRKN7android2spINS_8hardware7IBinderEEE"
    }
   ],
   "return_type" : "_ZTIv",
   "source_file" : "/out/soong/.intermediates/hardware/interfaces/automotive/sv/1.0/android.hardware.automotive.sv@1.0_genc++_headers/gen/android/hardware/automotive/sv/1.0/BpHwSurroundView2dSession.h"
  },
  {
   "function_name" : "android::hardware::automotive::sv::V1_0::BpHwSurroundView3dSession::stopStream",
   "linker_set_key" : "_ZN7android8hardware10automotive2sv4V1_025BpHwSurroundView3dSession10stopStreamEv",
   "parameters" :
   [
    {
     "is_this_ptr" : true,
     "referenced_type" : "_ZTIPN7android8hardware10automotive2sv4V1_025BpHwSurroundView3dSessionE"
    }
   ],
   "return_type" : "_ZTIN7android8hardware6ReturnIvEE",
   "source_file" : "/out/soong/.intermediates/hardware/interfaces/automotive/sv/1.0/android.hardware.automotive.sv@1.0_genc++_headers/gen/android/hardware/automotive/sv/1.0/BpHwSurroundView3dSession.h"
  },
  {
   "function_name" : "android::hardware::automotive::sv::V1_0::BpHwSurroundView3dSession::get3dConfig",
   "linker_set_key" : "_ZN7android8hardware10automotive2sv4V1_025BpHwSurroundView3dSession11get3dConfigENSt3__18functionIFvRKNS3_10Sv3dConfigEEEE",
   "parameters" :
   [
    {
     "is_this_ptr" : true,
     "referenced_type" : "_ZTIPN7android8hardware10automotive2sv4V1_025BpHwSurroundView3dSessionE"
    },
    {
     "referenced_type" : "_ZTINSt3__18functionIFvRKN7android8hardware10automotive2sv4V1_010Sv3dConfigEEEE"
    }
   ],
   "return_type" : "_ZTIN7android8hardware6ReturnIvEE",
   "source_file" : "/out/soong/.intermediates/hardware/interfaces/automotive/sv/1.0/android.hardware.automotive.sv@1.0_genc++_headers/gen/android/hardware/automotive/sv/1.0/BpHwSurroundView3dSession.h"
  },
  {
   "function_name" : "android::hardware::automotive::sv::V1_0::BpHwSurroundView3dSession::linkToDeath",
   "linker_set_key" : "_ZN7android8hardware10automotive2sv4V1_025BpHwSurroundView3dSession11linkToDeathERKNS_2spINS0_20hidl_death_recipientEEEy",
   "parameters" :
   [
    {
     "is_this_ptr" : true,
     "referenced_type" : "_ZTIPN7android8hardware10automotive2sv4V1_025BpHwSurroundView3dSessionE"
    },
    {
     "referenced_type" : "_ZTIRKN7android2spINS_8hardware20hidl_death_recipientEEE"
    },
    {
     "referenced_type" : "_ZTIy"
    }
   ],
   "return_type" : "_ZTIN7android8hardware6ReturnIbEE",
   "source_file" : "/out/soong/.intermediates/hardware/interfaces/automotive/sv/1.0/android.hardware.automotive.sv@1.0_genc++_headers/gen/android/hardware/automotive/sv/1.0/BpHwSurroundView3dSession.h"
  },
  {
   "function_name" : "android::hardware::automotive::sv::V1_0::BpHwSurroundView3dSession::set3dConfig",
   "linker_set_key" : "_ZN7android8hardware10automotive2sv4V1_025BpHwSurroundView3dSession11set3dConfigERKNS3_10Sv3dConfigE",
   "parameters" :
   [
    {
     "is_this_ptr" : true,
     "referenced_type" : "_ZTIPN7android8hardware10automotive2sv4V1_025BpHwSurroundView3dSessionE"
    },
    {
     "referenced_type" : "_ZTIRKN7android8hardware10automotive2sv4V1_010Sv3dConfigE"
    }
   ],
   "return_type" : "_ZTIN7android8hardware6ReturnINS0_10automotive2sv4V1_08SvResultEEE",
   "source_file" : "/out/soong/.intermediates/hardware/interfaces/automotive/sv/1.0/android.hardware.automotive.sv@1.0_genc++_headers/gen/android/hardware/automotive/sv/1.0/BpHwSurroundView3dSession.h"
  },
  {
   "function_name" : "android::hardware::automotive::sv::V1_0::BpHwSurroundView3dSession::startStream",
   "linker_set_key" : "_ZN7android8hardware10automotive2sv4V1_025BpHwSurroundView3dSession11startStreamERKNS_2spINS3_19ISurroundViewStreamEEE",
   "parameters" :
   [
    {
     "is_this_ptr" : true,
     "referenced_type" : "_ZTIPN7android8hardware10automotive2sv4V1_025BpHwSurroundView3dSessionE"
    },
    {
     "referenced_type" : "_ZTIRKN7android2spINS_8hardware10automotive2sv4V1_019ISurroundViewStreamEEE"
    }
   ],
   "return_type" : "_ZTIN7android8hardware6ReturnINS0_10automotive2sv4V1_08SvResultEEE",
   "source_file" : "/out/soong/.intermediates/hardware/interfaces/automotive/sv/1.0/android.hardware.automotive.sv@1.0_genc++_headers/gen/android/hardware/automotive/sv/1.0/BpHwSurroundView3dSession.h"
  },
  {
   "function_name" : "android::hardware::automotive::sv::V1_0::BpHwSurroundView3dSession::getDebugInfo",
   "linker_set_key" : "_ZN7android8hardware10automotive2sv4V1_025BpHwSurroundView3dSession12getDebugInfoENSt3__18functionIFvRKNS_4hidl4base4V1_09DebugInfoEEEE",
   "parameters" :
   [
    {
     "is_this_ptr" : true,
     "referenced_type" : "_ZTIPN7android8hardware10automotive2sv4V1_025BpHwSurroundView3dSessionE"
    },
    {
     "referenced_type" : "_ZTINSt3__18functionIFvRKN7android4hidl4base4V1_09DebugInfoEEEE"
    }
   ],
   "return_type" : "_ZTIN7android8hardware6ReturnIvEE",
   "source_file" : "/out/soong/.intermediates/hardware/interfaces/automotive/sv/1.0/android.hardware.automotive.sv@1.0_genc++_headers/gen/android/hardware/automotive/sv/1.0/BpHwSurroundView3dSession.h"
  },
  {
   "function_name" : "android::hardware::automotive::sv::V1_0::BpHwSurroundView3dSession::getHashChain",
   "linker_set_key" : "_ZN7android8hardware10automotive2sv4V1_025BpHwSurroundView3dSession12getHashChainENSt3__18functionIFvRKNS0_8hidl_vecINS0_10hidl_arrayIhLj32EJEEEEEEEE",
   "parameters" :
   [
    {
     "is_this_ptr" : true,
     "referenced_type" : "_ZTIPN7android8hardware10automotive2sv4V1_025BpHwSurroundView3dSessionE"
    },
    {
     "referenced_type" : "_ZTINSt3__18functionIFvRKN7android8hardware8hidl_vecINS2_10hidl_arrayIhLj32EJEEEEEEEE"
    }
   ],
   "return_type" : "_ZTIN7android8hardware6ReturnIvEE",
   "source_file" : "/out/soong/.intermediates/hardware/interfaces/automotive/sv/1.0/android.hardware.automotive.sv@1.0_genc++_headers/gen/android/hardware/automotive/sv/1.0/BpHwSurroundView3dSession.h"
  },
  {
   "function_name" : "android::hardware::automotive::sv::V1_0::BpHwSurroundView3dSession::unlinkToDeath",
   "linker_set_key" : "_ZN7android8hardware10automotive2sv4V1_025BpHwSurroundView3dSession13unlinkToDeathERKNS_2spINS0_20hidl_death_recipientEEE",
   "parameters" :
   [
    {
     "is_this_ptr" : true,
     "referenced_type" : "_ZTIPN7android8hardware10automotive2sv4V1_025BpHwSurroundView3dSessionE"
    },
    {
     "referenced_type" : "_ZTIRKN7android2spINS_8hardware20hidl_death_recipientEEE"
    }
   ],
   "return_type" : "_ZTIN7android8hardware6ReturnIbEE",
   "source_file" : "/out/soong/.intermediates/hardware/interfaces/automotive/sv/1.0/android.hardware.automotive.sv@1.0_genc++_headers/gen/android/hardware/automotive/sv/1.0/BpHwSurroundView3dSession.h"
  },
  {
   "function_name" : "android::hardware::automotive::sv::V1_0::BpHwSurroundView3dSession::_hidl_setViews",
   "linker_set_key" : "_ZN7android8hardware10automotive2sv4V1_025BpHwSurroundView3dSession14_hidl_setViewsEPNS0_10IInterfaceEPNS0_7details16HidlInstrumentorERKNS0_8hidl_vecINS3_6View3dEEE",
   "parameters" :
   [
    {
     "referenced_type" : "_ZTIPN7android8hardware10IInterfaceE"
    },
    {
     "referenced_type" : "_ZTIPN7android8hardware7details16HidlInstrumentorE"
    },
    {
     "referenced_type" : "_ZTIRKN7android8hardware8hidl_vecINS0_10automotive2sv4V1_06View3dEEE"
    }
   ],
   "return_type" : "_ZTIN7android8hardware6ReturnINS0_10automotive2sv4V1_08SvResultEEE",
   "source_file" : "/out/soong/.intermediates/hardware/interfaces/automotive/sv/1.0/android.hardware.automotive.sv@1.0_genc++_headers/gen/android/hardware/automotive/sv/1.0/BpHwSurroundView3dSession.h"
  },
  {
   "function_name" : "android::hardware::automotive::sv::V1_0::BpHwSurroundView3dSession::doneWithFrames",
   "linker_set_key" : "_ZN7android8hardware10automotive2sv4V1_025BpHwSurroundView3dSession14doneWithFramesERKNS3_12SvFramesDescE",
   "parameters" :
   [
    {
     "is_this_ptr" : true,
     "referenced_type" : "_ZTIPN7android8hardware10automotive2sv4V1_025BpHwSurroundView3dSessionE"
    },
    {
     "referenced_type" : "_ZTIRKN7android8hardware10automotive2sv4V1_012SvFramesDescE"
    }
   ],
   "return_type" : "_ZTIN7android8hardware6ReturnIvEE",
   "source_file" : "/out/soong/.intermediates/hardware/interfaces/automotive/sv/1.0/android.hardware.automotive.sv@1.0_genc++_headers/gen/android/hardware/automotive/sv/1.0/BpHwSurroundView3dSession.h"
  },
  {
   "function_name" : "android::hardware::automotive::sv::V1_0::BpHwSurroundView3dSession::interfaceChain",
   "linker_set_key" : "_ZN7android8hardware10automotive2sv4V1_025BpHwSurroundView3dSession14interfaceChainENSt3__18functionIFvRKNS0_8hidl_vecINS0_11hidl_stringEEEEEE",
   "parameters" :
   [
    {
     "is_this_ptr" : true,
     "referenced_type" : "_ZTIPN7android8hardware10automotive2sv4V1_025BpHwSurroundView3dSessionE"
    },
    {
     "referenced_type" : "_ZTINSt3__18functionIFvRKN7android8hardware8hidl_vecINS2_11hidl_stringEEEEEE"
    }
   ],
   "return_type" : "_ZTIN7android8hardware6ReturnIvEE",
   "source_file" : "/out/soong/.intermediates/hardware/interfaces/automotive/sv/1.0/android.hardware.automotive.sv@1.0_genc++_headers/gen/android/hardware/automotive/sv/1.0/BpHwSurroundView3dSession.h"
  },
  {
   "function_name" : "android::hardware::automotive::sv::V1_0::BpHwSurroundView3dSession::updateOverlays",
   "linker_set_key" : "_ZN7android8hardware10automotive2sv4V1_025BpHwSurroundView3dSession14updateOverlaysERKNS3_12OverlaysDataE",
   "parameters" :
   [
    {
     "is_this_ptr" : true,
     "referenced_type" : "_ZTIPN7android8hardware10automotive2sv4V1_025BpHwSurroundView3dSessionE"
    },
    {
     "referenced_type" : "_ZTIRKN7android8hardware10automotive2sv4V1_012OverlaysDataE"
    }
   ],
   "return_type" : "_ZTIN7android8hardware6ReturnINS0_10automotive2sv4V1_08SvResultEEE",
   "source_file" : "/out/soong/.intermediates/hardware/interfaces/automotive/sv/1.0/android.hardware.automotive.sv@1.0_genc++_headers/gen/android/hardware/automotive/sv/1.0/BpHwSurroundView3dSession.h"
  },
  {
   "function_name" : "android::hardware::automotive::sv::V1_0::BpHwSurroundView3dSession::onLastStrongRef",
   "linker_set_key" : "_ZN7android8hardware10automotive2sv4V1_025BpHwSurroundView3dSession15onLastStrongRefEPKv",
   "parameters" :
   [
    {
     "is_this_ptr" : true,
     "referenced_type" : "_ZTIPN7android8hardware10automotive2sv4V1_025BpHwSurroundView3dSessionE"
    },
    {
     "referenced_type" : "_ZTIPKv"
    }
   ],
   "return_type" : "_ZTIv",
   "source_file" : "/out/soong/.intermediates/hardware/interfaces/automotive/sv/1.0/android.hardware.automotive.sv@1.0_genc++_headers/gen/android/hardware/automotive/sv/1.0/BpHwSurroundView3dSession.h"
  },
  {
   "function_name" : "android::hardware::automotive::sv::V1_0::BpHwSurroundView3dSession::_hidl_get3dConfig",
   "linker_set_key" : "_ZN7android8hardware10automotive2sv4V1_025BpHwSurroundView3dSession17_hidl_get3dConfigEPNS0_10IInterfaceEPNS0_7details16HidlInstrumentorENSt3__18functionIFvRKNS3_10Sv3dConfigEEEE",
   "parameters" :
   [
    {
     "referenced_type" : "_ZTIPN7android8hardware10IInterfaceE"
    },
    {
     "referenced_type" : "_ZTIPN7android8hardware7details16HidlInstrumentorE"
    },
    {
     "referenced_type" : "_ZTINSt3__18functionIFvRKN7android8hardware10automotive2sv4V1_010Sv3dConfigEEEE"
    }
   ],
   "return_type" : "_ZTIN7android8hardware6ReturnIvEE",
   "source_file" : "/out/soong/.intermediates/hardware/interfaces/automotive/sv/1.0/android.hardware.automotive.sv@1.0_genc++_headers/gen/android/hardware/automotive/sv/1.0/BpHwSurroundView3dSession.h"
  },
  {
   "function_name" : "android::hardware::automotive::sv::V1_0::BpHwSurroundView3dSession::_hidl_set3dConfig",
   "linker_set_key" : "_ZN7android8hardware10automotive2sv4V1_025BpHwSurroundView3dSession17_hidl_set3dConfigEPNS0_10IInterfaceEPNS0_7details16HidlInstrumentorERKNS3_10Sv3dConfigE",
   "parameters" :
   [
    {
     "referenced_type" : "_ZTIPN7android8hardware10IInterfaceE"
    },
    {
     "referenced_type" : "_ZTIPN7android8hardware7details16HidlInstrumentorE"
    },
    {
     "referenced_type" : "_ZTIRKN7android8hardware10automotive2sv4V1_010Sv3dConfigE"
    }
   ],
   "return_type" : "_ZTIN7android8hardware6ReturnINS0_10automotive2sv4V1_08SvResultEEE",
   "source_file" : "/out/soong/.intermediates/hardware/interfaces/automotive/sv/1.0/android.hardware.automotive.sv@1.0_genc++_headers/gen/android/hardware/automotive/sv/1.0/BpHwSurroundView3dSession.h"
  },
  {
   "function_name" : "android::hardware::automotive::sv::V1_0::BpHwSurroundView3dSession::interfaceDescriptor",
   "linker_set_key" : "_ZN7android8hardware10automotive2sv4V1_025BpHwSurroundView3dSession19interfaceDescriptorENSt3__18functionIFvRKNS0_11hidl_stringEEEE",
   "parameters" :
   [
    {
     "is_this_ptr" : true,
     "referenced_type" : "_ZTIPN7android8hardware10automotive2sv4V1_025BpHwSurroundView3dSessionE"
    },
    {
     "referenced_type" : "_ZTINSt3__18functionIFvRKN7android8hardware11hidl_stringEEEE"
    }
   ],
   "return_type" : "_ZTIN7android8hardware6ReturnIvEE",
   "source_file" : "/out/soong/.intermediates/hardware/interfaces/automotive/sv/1.0/android.hardware.automotive.sv@1.0_genc++_headers/gen/android/hardware/automotive/sv/1.0/BpHwSurroundView3dSession.h"
  },
  {
   "function_name" : "android::hardware::automotive::sv::V1_0::BpHwSurroundView3dSession::_hidl_updateOverlays",
   "linker_set_key" : "_ZN7android8hardware10automotive2sv4V1_025BpHwSurroundView3dSession20_hidl_updateOverlaysEPNS0_10IInterfaceEPNS0_7details16HidlInstrumentorERKNS3_12OverlaysDataE",
   "parameters" :
   [
    {
     "referenced_type" : "_ZTIPN7android8hardware10IInterfaceE"
    },
    {
     "referenced_type" : "_ZTIPN7android8hardware7details16HidlInstrumentorE"
    },
    {
     "referenced_type" : "_ZTIRKN7android8hardware10automotive2sv4V1_012OverlaysDataE"
    }
   ],
   "return_type" : "_ZTIN7android8hardware6ReturnINS0_10automotive2sv4V1_08SvResultEEE",
   "source_file" : "/out/soong/.intermediates/hardware/interfaces/automotive/sv/1.0/android.hardware.automotive.sv@1.0_genc++_headers/gen/android/hardware/automotive/sv/1.0/BpHwSurroundView3dSession.h"
  },
  {
   "function_name" : "android::hardware::automotive::sv::V1_0::BpHwSurroundView3dSession::notifySyspropsChanged",
   "linker_set_key" : "_ZN7android8hardware10automotive2sv4V1_025BpHwSurroundView3dSession21notifySyspropsChangedEv",
   "parameters" :
   [
    {
     "is_this_ptr" : true,
     "referenced_type" : "_ZTIPN7android8hardware10automotive2sv4V1_025BpHwSurroundView3dSessionE"
    }
   ],
   "return_type" : "_ZTIN7android8hardware6ReturnIvEE",
   "source_file" : "/out/soong/.intermediates/hardware/interfaces/automotive/sv/1.0/android.hardware.automotive.sv@1.0_genc++_headers/gen/android/hardware/automotive/sv/1.0/BpHwSurroundView3dSession.h"
  },
  {
   "function_name" : "android::hardware::automotive::sv::V1_0::BpHwSurroundView3dSession::setHALInstrumentation",
   "linker_set_key" : "_ZN7android8hardware10automotive2sv4V1_025BpHwSurroundView3dSession21setHALInstrumentationEv",
   "parameters" :
   [
    {
     "is_this_ptr" : true,
     "referenced_type" : "_ZTIPN7android8hardware10automotive2sv4V1_025BpHwSurroundView3dSessionE"
    }
   ],
   "return_type" : "_ZTIN7android8hardware6ReturnIvEE",
   "source_file" : "/out/soong/.intermediates/hardware/interfaces/automotive/sv/1.0/android.hardware.automotive.sv@1.0_genc++_headers/gen/android/hardware/automotive/sv/1.0/BpHwSurroundView3dSession.h"
  },
  {
   "function_name" : "android::hardware::automotive::sv::V1_0::BpHwSurroundView3dSession::projectCameraPointsTo3dSurface",
   "linker_set_key" : "_ZN7android8hardware10automotive2sv4V1_025BpHwSurroundView3dSession30projectCameraPointsTo3dSurfaceERKNS0_8hidl_vecINS3_10Point2dIntEEERKNS0_11hidl_stringENSt3__18functionIFvRKNS5_INS3_12Point3dFloatEEEEEE",
   "parameters" :
   [
    {
     "is_this_ptr" : true,
     "referenced_type" : "_ZTIPN7android8hardware10automotive2sv4V1_025BpHwSurroundView3dSessionE"
    },
    {
     "referenced_type" : "_ZTIRKN7android8hardware8hidl_vecINS0_10automotive2sv4V1_010Point2dIntEEE"
    },
    {
     "referenced_type" : "_ZTIRKN7android8hardware11hidl_stringE"
    },
    {
     "referenced_type" : "_ZTINSt3__18functionIFvRKN7android8hardware8hidl_vecINS2_10automotive2sv4V1_012Point3dFloatEEEEEE"
    }
   ],
   "return_type" : "_ZTIN7android8hardware6ReturnIvEE",
   "source_file" : "/out/soong/.intermediates/hardware/interfaces/automotive/sv/1.0/android.hardware.automotive.sv@1.0_genc++_headers/gen/android/hardware/automotive/sv/1.0/BpHwSurroundView3dSession.h"
  },
  {
   "function_name" : "android::hardware::automotive::sv::V1_0::BpHwSurroundView3dSession::_hidl_projectCameraPointsTo3dSurface",
   "linker_set_key" : "_ZN7android8hardware10automotive2sv4V1_025BpHwSurroundView3dSession36_hidl_projectCameraPointsTo3dSurfaceEPNS0_10IInterfaceEPNS0_7details16HidlInstrumentorERKNS0_8hidl_vecINS3_10Point2dIntEEERKNS0_11hidl_stringENSt3__18functionIFvRKNSA_INS3_12Point3dFloatEEEEEE",
   "parameters" :
   [
    {
     "referenced_type" : "_ZTIPN7android8hardware10IInterfaceE"
    },
    {
     "referenced_type" : "_ZTIPN7android8hardware7details16HidlInstrumentorE"
    },
    {
     "referenced_type" : "_ZTIRKN7android8hardware8hidl_vecINS0_10automotive2sv4V1_010Point2dIntEEE"
    },
    {
     "referenced_type" : "_ZTIRKN7android8hardware11hidl_stringE"
    },
    {
     "referenced_type" : "_ZTINSt3__18functionIFvRKN7android8hardware8hidl_vecINS2_10automotive2sv4V1_012Point3dFloatEEEEEE"
    }
   ],
   "return_type" : "_ZTIN7android8hardware6ReturnIvEE",
   "source_file" : "/out/soong/.intermediates/hardware/interfaces/automotive/sv/1.0/android.hardware.automotive.sv@1.0_genc++_headers/gen/android/hardware/automotive/sv/1.0/BpHwSurroundView3dSession.h"
  },
  {
   "function_name" : "android::hardware::automotive::sv::V1_0::BpHwSurroundView3dSession::ping",
   "linker_set_key" : "_ZN7android8hardware10automotive2sv4V1_025BpHwSurroundView3dSession4pingEv",
   "parameters" :
   [
    {
     "is_this_ptr" : true,
     "referenced_type" : "_ZTIPN7android8hardware10automotive2sv4V1_025BpHwSurroundView3dSessionE"
    }
   ],
   "return_type" : "_ZTIN7android8hardware6ReturnIvEE",
   "source_file" : "/out/soong/.intermediates/hardware/interfaces/automotive/sv/1.0/android.hardware.automotive.sv@1.0_genc++_headers/gen/android/hardware/automotive/sv/1.0/BpHwSurroundView3dSession.h"
  },
  {
   "function_name" : "android::hardware::automotive::sv::V1_0::BpHwSurroundView3dSession::debug",
   "linker_set_key" : "_ZN7android8hardware10automotive2sv4V1_025BpHwSurroundView3dSession5debugERKNS0_11hidl_handleERKNS0_8hidl_vecINS0_11hidl_stringEEE",
   "parameters" :
   [
    {
     "is_this_ptr" : true,
     "referenced_type" : "_ZTIPN7android8hardware10automotive2sv4V1_025BpHwSurroundView3dSessionE"
    },
    {
     "referenced_type" : "_ZTIRKN7android8hardware11hidl_handleE"
    },
    {
     "referenced_type" : "_ZTIRKN7android8hardware8hidl_vecINS0_11hidl_stringEEE"
    }
   ],
   "return_type" : "_ZTIN7android8hardware6ReturnIvEE",
   "source_file" : "/out/soong/.intermediates/hardware/interfaces/automotive/sv/1.0/android.hardware.automotive.sv@1.0_genc++_headers/gen/android/hardware/automotive/sv/1.0/BpHwSurroundView3dSession.h"
  },
  {
   "function_name" : "android::hardware::automotive::sv::V1_0::BpHwSurroundView3dSession::setViews",
   "linker_set_key" : "_ZN7android8hardware10automotive2sv4V1_025BpHwSurroundView3dSession8setViewsERKNS0_8hidl_vecINS3_6View3dEEE",
   "parameters" :
   [
    {
     "is_this_ptr" : true,
     "referenced_type" : "_ZTIPN7android8hardware10automotive2sv4V1_025BpHwSurroundView3dSessionE"
    },
    {
     "referenced_type" : "_ZTIRKN7android8hardware8hidl_vecINS0_10automotive2sv4V1_06View3dEEE"
    }
   ],
   "return_type" : "_ZTIN7android8hardware6ReturnINS0_10automotive2sv4V1_08SvResultEEE",
   "source_file" : "/out/soong/.intermediates/hardware/interfaces/automotive/sv/1.0/android.hardware.automotive.sv@1.0_genc++_headers/gen/android/hardware/automotive/sv/1.0/BpHwSurroundView3dSession.h"
  },
  {
   "function_name" : "android::hardware::automotive::sv::V1_0::BpHwSurroundView3dSession::BpHwSurroundView3dSession",
   "linker_set_key" : "_ZN7android8hardware10automotive2sv4V1_025BpHwSurroundView3dSessionC1ERKNS_2spINS0_7IBinderEEE",
   "parameters" :
   [
    {
     "is_this_ptr" : true,
     "referenced_type" : "_ZTIPN7android8hardware10automotive2sv4V1_025BpHwSurroundView3dSessionE"
    },
    {
     "referenced_type" : "_ZTIRKN7android2spINS_8hardware7IBinderEEE"
    }
   ],
   "return_type" : "_ZTIv",
   "source_file" : "/out/soong/.intermediates/hardware/interfaces/automotive/sv/1.0/android.hardware.automotive.sv@1.0_genc++_headers/gen/android/hardware/automotive/sv/1.0/BpHwSurroundView3dSession.h"
  },
  {
   "function_name" : "android::hardware::automotive::sv::V1_0::BpHwSurroundView3dSession::BpHwSurroundView3dSession",
   "linker_set_key" : "_ZN7android8hardware10automotive2sv4V1_025BpHwSurroundView3dSessionC2ERKNS_2spINS0_7IBinderEEE",
   "parameters" :
   [
    {
     "is_this_ptr" : true,
     "referenced_type" : "_ZTIPN7android8hardware10automotive2sv4V1_025BpHwSurroundView3dSessionE"
    },
    {
     "referenced_type" : "_ZTIRKN7android2spINS_8hardware7IBinderEEE"
    }
   ],
   "return_type" : "_ZTIv",
   "source_file" : "/out/soong/.intermediates/hardware/interfaces/automotive/sv/1.0/android.hardware.automotive.sv@1.0_genc++_headers/gen/android/hardware/automotive/sv/1.0/BpHwSurroundView3dSession.h"
  },
  {
   "function_name" : "android::hardware::fromBinder",
   "linker_set_key" : "_ZN7android8hardware10fromBinderINS0_10automotive2sv4V1_019ISurroundViewStreamENS4_22BpHwSurroundViewStreamENS4_22BnHwSurroundViewStreamEEENS_2spIT_EERKNS8_INS0_7IBinderEEE",
   "parameters" :
   [
    {
     "referenced_type" : "_ZTIRKN7android2spINS_8hardware7IBinderEEE"
    }
   ],
   "return_type" : "_ZTIN7android2spINS_8hardware10automotive2sv4V1_019ISurroundViewStreamEEE",
   "source_file" : "/system/libhidl/transport/include/hidl/HidlBinderSupport.h",
   "template_args" :
   [
    "_ZTIN7android8hardware10automotive2sv4V1_019ISurroundViewStreamE",
    "_ZTIN7android8hardware10automotive2sv4V1_022BpHwSurroundViewStreamE",
    "_ZTIN7android8hardware10automotive2sv4V1_022BnHwSurroundViewStreamE"
   ]
  },
  {
   "function_name" : "android::hardware::fromBinder",
   "linker_set_key" : "_ZN7android8hardware10fromBinderINS0_10automotive2sv4V1_022ISurroundView2dSessionENS4_25BpHwSurroundView2dSessionENS4_25BnHwSurroundView2dSessionEEENS_2spIT_EERKNS8_INS0_7IBinderEEE",
   "parameters" :
   [
    {
     "referenced_type" : "_ZTIRKN7android2spINS_8hardware7IBinderEEE"
    }
   ],
   "return_type" : "_ZTIN7android2spINS_8hardware10automotive2sv4V1_022ISurroundView2dSessionEEE",
   "source_file" : "/system/libhidl/transport/include/hidl/HidlBinderSupport.h",
   "template_args" :
   [
    "_ZTIN7android8hardware10automotive2sv4V1_022ISurroundView2dSessionE",
    "_ZTIN7android8hardware10automotive2sv4V1_025BpHwSurroundView2dSessionE",
    "_ZTIN7android8hardware10automotive2sv4V1_025BnHwSurroundView2dSessionE"
   ]
  },
  {
   "function_name" : "android::hardware::fromBinder",
   "linker_set_key" : "_ZN7android8hardware10fromBinderINS0_10automotive2sv4V1_022ISurroundView3dSessionENS4_25BpHwSurroundView3dSessionENS4_25BnHwSurroundView3dSessionEEENS_2spIT_EERKNS8_INS0_7IBinderEEE",
   "parameters" :
   [
    {
     "referenced_type" : "_ZTIRKN7android2spINS_8hardware7IBinderEEE"
    }
   ],
   "return_type" : "_ZTIN7android2spINS_8hardware10automotive2sv4V1_022ISurroundView3dSessionEEE",
   "source_file" : "/system/libhidl/transport/include/hidl/HidlBinderSupport.h",
   "template_args" :
   [
    "_ZTIN7android8hardware10automotive2sv4V1_022ISurroundView3dSessionE",
    "_ZTIN7android8hardware10automotive2sv4V1_025BpHwSurroundView3dSessionE",
    "_ZTIN7android8hardware10automotive2sv4V1_025BnHwSurroundView3dSessionE"
   ]
  },
  {
   "function_name" : "android::hardware::details::castInterface",
   "linker_set_key" : "_ZN7android8hardware7details13castInterfaceINS0_10automotive2sv4V1_019ISurroundViewStreamENS_4hidl4base4V1_05IBaseENS5_22BpHwSurroundViewStreamEEENS0_6ReturnINS_2spIT_EEEENSD_IT0_EEPKcb",
   "parameters" :
   [
    {
     "referenced_type" : "_ZTIN7android2spINS_4hidl4base4V1_05IBaseEEE"
    },
    {
     "referenced_type" : "_ZTIPKc"
    },
    {
     "referenced_type" : "_ZTIb"
    }
   ],
   "return_type" : "_ZTIN7android8hardware6ReturnINS_2spINS0_10automotive2sv4V1_019ISurroundViewStreamEEEEE",
   "source_file" : "/system/libhidl/transport/include/hidl/HidlTransportSupport.h",
   "template_args" :
   [
    "_ZTIN7android8hardware10automotive2sv4V1_019ISurroundViewStreamE",
    "_ZTIN7android4hidl4base4V1_05IBaseE",
    "_ZTIN7android8hardware10automotive2sv4V1_022BpHwSurroundViewStreamE"
   ]
  },
  {
   "function_name" : "android::hardware::details::castInterface",
   "linker_set_key" : "_ZN7android8hardware7details13castInterfaceINS0_10automotive2sv4V1_020ISurroundViewServiceENS_4hidl4base4V1_05IBaseENS5_23BpHwSurroundViewServiceEEENS0_6ReturnINS_2spIT_EEEENSD_IT0_EEPKcb",
   "parameters" :
   [
    {
     "referenced_type" : "_ZTIN7android2spINS_4hidl4base4V1_05IBaseEEE"
    },
    {
     "referenced_type" : "_ZTIPKc"
    },
    {
     "referenced_type" : "_ZTIb"
    }
   ],
   "return_type" : "_ZTIN7android8hardware6ReturnINS_2spINS0_10automotive2sv4V1_020ISurroundViewServiceEEEEE",
   "source_file" : "/system/libhidl/transport/include/hidl/HidlTransportSupport.h",
   "template_args" :
   [
    "_ZTIN7android8hardware10automotive2sv4V1_020ISurroundViewServiceE",
    "_ZTIN7android4hidl4base4V1_05IBaseE",
    "_ZTIN7android8hardware10automotive2sv4V1_023BpHwSurroundViewServiceE"
   ]
  },
  {
   "function_name" : "android::hardware::details::castInterface",
   "linker_set_key" : "_ZN7android8hardware7details13castInterfaceINS0_10automotive2sv4V1_020ISurroundViewSessionENS_4hidl4base4V1_05IBaseENS5_23BpHwSurroundViewSessionEEENS0_6ReturnINS_2spIT_EEEENSD_IT0_EEPKcb",
   "parameters" :
   [
    {
     "referenced_type" : "_ZTIN7android2spINS_4hidl4base4V1_05IBaseEEE"
    },
    {
     "referenced_type" : "_ZTIPKc"
    },
    {
     "referenced_type" : "_ZTIb"
    }
   ],
   "return_type" : "_ZTIN7android8hardware6ReturnINS_2spINS0_10automotive2sv4V1_020ISurroundViewSessionEEEEE",
   "source_file" : "/system/libhidl/transport/include/hidl/HidlTransportSupport.h",
   "template_args" :
   [
    "_ZTIN7android8hardware10automotive2sv4V1_020ISurroundViewSessionE",
    "_ZTIN7android4hidl4base4V1_05IBaseE",
    "_ZTIN7android8hardware10automotive2sv4V1_023BpHwSurroundViewSessionE"
   ]
  },
  {
   "function_name" : "android::hardware::details::castInterface",
   "linker_set_key" : "_ZN7android8hardware7details13castInterfaceINS0_10automotive2sv4V1_022ISurroundView2dSessionENS5_20ISurroundViewSessionENS5_25BpHwSurroundView2dSessionEEENS0_6ReturnINS_2spIT_EEEENSA_IT0_EEPKcb",
   "parameters" :
   [
    {
     "referenced_type" : "_ZTIN7android2spINS_8hardware10automotive2sv4V1_020ISurroundViewSessionEEE"
    },
    {
     "referenced_type" : "_ZTIPKc"
    },
    {
     "referenced_type" : "_ZTIb"
    }
   ],
   "return_type" : "_ZTIN7android8hardware6ReturnINS_2spINS0_10automotive2sv4V1_022ISurroundView2dSessionEEEEE",
   "source_file" : "/system/libhidl/transport/include/hidl/HidlTransportSupport.h",
   "template_args" :
   [
    "_ZTIN7android8hardware10automotive2sv4V1_022ISurroundView2dSessionE",
    "_ZTIN7android8hardware10automotive2sv4V1_020ISurroundViewSessionE",
    "_ZTIN7android8hardware10automotive2sv4V1_025BpHwSurroundView2dSessionE"
   ]
  },
  {
   "function_name" : "android::hardware::details::castInterface",
   "linker_set_key" : "_ZN7android8hardware7details13castInterfaceINS0_10automotive2sv4V1_022ISurroundView2dSessionENS_4hidl4base4V1_05IBaseENS5_25BpHwSurroundView2dSessionEEENS0_6ReturnINS_2spIT_EEEENSD_IT0_EEPKcb",
   "parameters" :
   [
    {
     "referenced_type" : "_ZTIN7android2spINS_4hidl4base4V1_05IBaseEEE"
    },
    {
     "referenced_type" : "_ZTIPKc"
    },
    {
     "referenced_type" : "_ZTIb"
    }
   ],
   "return_type" : "_ZTIN7android8hardware6ReturnINS_2spINS0_10automotive2sv4V1_022ISurroundView2dSessionEEEEE",
   "source_file" : "/system/libhidl/transport/include/hidl/HidlTransportSupport.h",
   "template_args" :
   [
    "_ZTIN7android8hardware10automotive2sv4V1_022ISurroundView2dSessionE",
    "_ZTIN7android4hidl4base4V1_05IBaseE",
    "_ZTIN7android8hardware10automotive2sv4V1_025BpHwSurroundView2dSessionE"
   ]
  },
  {
   "function_name" : "android::hardware::details::castInterface",
   "linker_set_key" : "_ZN7android8hardware7details13castInterfaceINS0_10automotive2sv4V1_022ISurroundView3dSessionENS5_20ISurroundViewSessionENS5_25BpHwSurroundView3dSessionEEENS0_6ReturnINS_2spIT_EEEENSA_IT0_EEPKcb",
   "parameters" :
   [
    {
     "referenced_type" : "_ZTIN7android2spINS_8hardware10automotive2sv4V1_020ISurroundViewSessionEEE"
    },
    {
     "referenced_type" : "_ZTIPKc"
    },
    {
     "referenced_type" : "_ZTIb"
    }
   ],
   "return_type" : "_ZTIN7android8hardware6ReturnINS_2spINS0_10automotive2sv4V1_022ISurroundView3dSessionEEEEE",
   "source_file" : "/system/libhidl/transport/include/hidl/HidlTransportSupport.h",
   "template_args" :
   [
    "_ZTIN7android8hardware10automotive2sv4V1_022ISurroundView3dSessionE",
    "_ZTIN7android8hardware10automotive2sv4V1_020ISurroundViewSessionE",
    "_ZTIN7android8hardware10automotive2sv4V1_025BpHwSurroundView3dSessionE"
   ]
  },
  {
   "function_name" : "android::hardware::details::castInterface",
   "linker_set_key" : "_ZN7android8hardware7details13castInterfaceINS0_10automotive2sv4V1_022ISurroundView3dSessionENS_4hidl4base4V1_05IBaseENS5_25BpHwSurroundView3dSessionEEENS0_6ReturnINS_2spIT_EEEENSD_IT0_EEPKcb",
   "parameters" :
   [
    {
     "referenced_type" : "_ZTIN7android2spINS_4hidl4base4V1_05IBaseEEE"
    },
    {
     "referenced_type" : "_ZTIPKc"
    },
    {
     "referenced_type" : "_ZTIb"
    }
   ],
   "return_type" : "_ZTIN7android8hardware6ReturnINS_2spINS0_10automotive2sv4V1_022ISurroundView3dSessionEEEEE",
   "source_file" : "/system/libhidl/transport/include/hidl/HidlTransportSupport.h",
   "template_args" :
   [
    "_ZTIN7android8hardware10automotive2sv4V1_022ISurroundView3dSessionE",
    "_ZTIN7android4hidl4base4V1_05IBaseE",
    "_ZTIN7android8hardware10automotive2sv4V1_025BpHwSurroundView3dSessionE"
   ]
  },
  {
   "function_name" : "android::hardware::details::wrapPassthrough",
   "linker_set_key" : "_ZN7android8hardware7details15wrapPassthroughINS0_10automotive2sv4V1_019ISurroundViewStreamEvEENS_2spIT_EES9_",
   "parameters" :
   [
    {
     "referenced_type" : "_ZTIN7android2spINS_8hardware10automotive2sv4V1_019ISurroundViewStreamEEE"
    }
   ],
   "return_type" : "_ZTIN7android2spINS_8hardware10automotive2sv4V1_019ISurroundViewStreamEEE",
   "source_file" : "/system/libhidl/transport/include/hidl/HidlPassthroughSupport.h",
   "template_args" :
   [
    "_ZTIN7android8hardware10automotive2sv4V1_019ISurroundViewStreamE",
    "_ZTIv"
   ]
  },
  {
   "function_name" : "android::hardware::details::wrapPassthrough",
   "linker_set_key" : "_ZN7android8hardware7details15wrapPassthroughINS0_10automotive2sv4V1_022ISurroundView2dSessionEvEENS_2spIT_EES9_",
   "parameters" :
   [
    {
     "referenced_type" : "_ZTIN7android2spINS_8hardware10automotive2sv4V1_022ISurroundView2dSessionEEE"
    }
   ],
   "return_type" : "_ZTIN7android2spINS_8hardware10automotive2sv4V1_022ISurroundView2dSessionEEE",
   "source_file" : "/system/libhidl/transport/include/hidl/HidlPassthroughSupport.h",
   "template_args" :
   [
    "_ZTIN7android8hardware10automotive2sv4V1_022ISurroundView2dSessionE",
    "_ZTIv"
   ]
  },
  {
   "function_name" : "android::hardware::details::wrapPassthrough",
   "linker_set_key" : "_ZN7android8hardware7details15wrapPassthroughINS0_10automotive2sv4V1_022ISurroundView3dSessionEvEENS_2spIT_EES9_",
   "parameters" :
   [
    {
     "referenced_type" : "_ZTIN7android2spINS_8hardware10automotive2sv4V1_022ISurroundView3dSessionEEE"
    }
   ],
   "return_type" : "_ZTIN7android2spINS_8hardware10automotive2sv4V1_022ISurroundView3dSessionEEE",
   "source_file" : "/system/libhidl/transport/include/hidl/HidlPassthroughSupport.h",
   "template_args" :
   [
    "_ZTIN7android8hardware10automotive2sv4V1_022ISurroundView3dSessionE",
    "_ZTIv"
   ]
  },
  {
   "function_name" : "android::hardware::details::getServiceInternal",
   "linker_set_key" : "_ZN7android8hardware7details18getServiceInternalINS0_10automotive2sv4V1_022BpHwSurroundViewStreamENS5_19ISurroundViewStreamEvvEENS_2spIT0_EERKNSt3__112basic_stringIcNSB_11char_traitsIcEENSB_9allocatorIcEEEEbb",
   "parameters" :
   [
    {
     "referenced_type" : "_ZTIRKNSt3__112basic_stringIcNS_11char_traitsIcEENS_9allocatorIcEEEE"
    },
    {
     "referenced_type" : "_ZTIb"
    },
    {
     "referenced_type" : "_ZTIb"
    }
   ],
   "return_type" : "_ZTIN7android2spINS_8hardware10automotive2sv4V1_019ISurroundViewStreamEEE",
   "source_file" : "/system/libhidl/transport/include/hidl/HidlTransportSupport.h",
   "template_args" :
   [
    "_ZTIN7android8hardware10automotive2sv4V1_022BpHwSurroundViewStreamE",
    "_ZTIN7android8hardware10automotive2sv4V1_019ISurroundViewStreamE",
    "_ZTIv",
    "_ZTIv"
   ]
  },
  {
   "function_name" : "android::hardware::details::getServiceInternal",
   "linker_set_key" : "_ZN7android8hardware7details18getServiceInternalINS0_10automotive2sv4V1_023BpHwSurroundViewServiceENS5_20ISurroundViewServiceEvvEENS_2spIT0_EERKNSt3__112basic_stringIcNSB_11char_traitsIcEENSB_9allocatorIcEEEEbb",
   "parameters" :
   [
    {
     "referenced_type" : "_ZTIRKNSt3__112basic_stringIcNS_11char_traitsIcEENS_9allocatorIcEEEE"
    },
    {
     "referenced_type" : "_ZTIb"
    },
    {
     "referenced_type" : "_ZTIb"
    }
   ],
   "return_type" : "_ZTIN7android2spINS_8hardware10automotive2sv4V1_020ISurroundViewServiceEEE",
   "source_file" : "/system/libhidl/transport/include/hidl/HidlTransportSupport.h",
   "template_args" :
   [
    "_ZTIN7android8hardware10automotive2sv4V1_023BpHwSurroundViewServiceE",
    "_ZTIN7android8hardware10automotive2sv4V1_020ISurroundViewServiceE",
    "_ZTIv",
    "_ZTIv"
   ]
  },
  {
   "function_name" : "android::hardware::details::getServiceInternal",
   "linker_set_key" : "_ZN7android8hardware7details18getServiceInternalINS0_10automotive2sv4V1_023BpHwSurroundViewSessionENS5_20ISurroundViewSessionEvvEENS_2spIT0_EERKNSt3__112basic_stringIcNSB_11char_traitsIcEENSB_9allocatorIcEEEEbb",
   "parameters" :
   [
    {
     "referenced_type" : "_ZTIRKNSt3__112basic_stringIcNS_11char_traitsIcEENS_9allocatorIcEEEE"
    },
    {
     "referenced_type" : "_ZTIb"
    },
    {
     "referenced_type" : "_ZTIb"
    }
   ],
   "return_type" : "_ZTIN7android2spINS_8hardware10automotive2sv4V1_020ISurroundViewSessionEEE",
   "source_file" : "/system/libhidl/transport/include/hidl/HidlTransportSupport.h",
   "template_args" :
   [
    "_ZTIN7android8hardware10automotive2sv4V1_023BpHwSurroundViewSessionE",
    "_ZTIN7android8hardware10automotive2sv4V1_020ISurroundViewSessionE",
    "_ZTIv",
    "_ZTIv"
   ]
  },
  {
   "function_name" : "android::hardware::details::getServiceInternal",
   "linker_set_key" : "_ZN7android8hardware7details18getServiceInternalINS0_10automotive2sv4V1_025BpHwSurroundView2dSessionENS5_22ISurroundView2dSessionEvvEENS_2spIT0_EERKNSt3__112basic_stringIcNSB_11char_traitsIcEENSB_9allocatorIcEEEEbb",
   "parameters" :
   [
    {
     "referenced_type" : "_ZTIRKNSt3__112basic_stringIcNS_11char_traitsIcEENS_9allocatorIcEEEE"
    },
    {
     "referenced_type" : "_ZTIb"
    },
    {
     "referenced_type" : "_ZTIb"
    }
   ],
   "return_type" : "_ZTIN7android2spINS_8hardware10automotive2sv4V1_022ISurroundView2dSessionEEE",
   "source_file" : "/system/libhidl/transport/include/hidl/HidlTransportSupport.h",
   "template_args" :
   [
    "_ZTIN7android8hardware10automotive2sv4V1_025BpHwSurroundView2dSessionE",
    "_ZTIN7android8hardware10automotive2sv4V1_022ISurroundView2dSessionE",
    "_ZTIv",
    "_ZTIv"
   ]
  },
  {
   "function_name" : "android::hardware::details::getServiceInternal",
   "linker_set_key" : "_ZN7android8hardware7details18getServiceInternalINS0_10automotive2sv4V1_025BpHwSurroundView3dSessionENS5_22ISurroundView3dSessionEvvEENS_2spIT0_EERKNSt3__112basic_stringIcNSB_11char_traitsIcEENSB_9allocatorIcEEEEbb",
   "parameters" :
   [
    {
     "referenced_type" : "_ZTIRKNSt3__112basic_stringIcNS_11char_traitsIcEENS_9allocatorIcEEEE"
    },
    {
     "referenced_type" : "_ZTIb"
    },
    {
     "referenced_type" : "_ZTIb"
    }
   ],
   "return_type" : "_ZTIN7android2spINS_8hardware10automotive2sv4V1_022ISurroundView3dSessionEEE",
   "source_file" : "/system/libhidl/transport/include/hidl/HidlTransportSupport.h",
   "template_args" :
   [
    "_ZTIN7android8hardware10automotive2sv4V1_025BpHwSurroundView3dSessionE",
    "_ZTIN7android8hardware10automotive2sv4V1_022ISurroundView3dSessionE",
    "_ZTIv",
    "_ZTIv"
   ]
  },
  {
   "function_name" : "android::hardware::automotive::sv::V1_0::BpHwSurroundViewStream::onLastStrongRef",
   "linker_set_key" : "_ZThn8_N7android8hardware10automotive2sv4V1_022BpHwSurroundViewStream15onLastStrongRefEPKv",
   "parameters" :
   [
    {
     "is_this_ptr" : true,
     "referenced_type" : "_ZTIPN7android8hardware10automotive2sv4V1_022BpHwSurroundViewStreamE"
    },
    {
     "referenced_type" : "_ZTIPKv"
    }
   ],
   "return_type" : "_ZTIv",
   "source_file" : "/out/soong/.intermediates/hardware/interfaces/automotive/sv/1.0/android.hardware.automotive.sv@1.0_genc++_headers/gen/android/hardware/automotive/sv/1.0/BpHwSurroundViewStream.h"
  },
  {
   "function_name" : "android::hardware::automotive::sv::V1_0::BpHwSurroundViewService::onLastStrongRef",
   "linker_set_key" : "_ZThn8_N7android8hardware10automotive2sv4V1_023BpHwSurroundViewService15onLastStrongRefEPKv",
   "parameters" :
   [
    {
     "is_this_ptr" : true,
     "referenced_type" : "_ZTIPN7android8hardware10automotive2sv4V1_023BpHwSurroundViewServiceE"
    },
    {
     "referenced_type" : "_ZTIPKv"
    }
   ],
   "return_type" : "_ZTIv",
   "source_file" : "/out/soong/.intermediates/hardware/interfaces/automotive/sv/1.0/android.hardware.automotive.sv@1.0_genc++_headers/gen/android/hardware/automotive/sv/1.0/BpHwSurroundViewService.h"
  },
  {
   "function_name" : "android::hardware::automotive::sv::V1_0::BpHwSurroundViewSession::onLastStrongRef",
   "linker_set_key" : "_ZThn8_N7android8hardware10automotive2sv4V1_023BpHwSurroundViewSession15onLastStrongRefEPKv",
   "parameters" :
   [
    {
     "is_this_ptr" : true,
     "referenced_type" : "_ZTIPN7android8hardware10automotive2sv4V1_023BpHwSurroundViewSessionE"
    },
    {
     "referenced_type" : "_ZTIPKv"
    }
   ],
   "return_type" : "_ZTIv",
   "source_file" : "/out/soong/.intermediates/hardware/interfaces/automotive/sv/1.0/android.hardware.automotive.sv@1.0_genc++_headers/gen/android/hardware/automotive/sv/1.0/BpHwSurroundViewSession.h"
  },
  {
   "function_name" : "android::hardware::automotive::sv::V1_0::BpHwSurroundView2dSession::onLastStrongRef",
   "linker_set_key" : "_ZThn8_N7android8hardware10automotive2sv4V1_025BpHwSurroundView2dSession15onLastStrongRefEPKv",
   "parameters" :
   [
    {
     "is_this_ptr" : true,
     "referenced_type" : "_ZTIPN7android8hardware10automotive2sv4V1_025BpHwSurroundView2dSessionE"
    },
    {
     "referenced_type" : "_ZTIPKv"
    }
   ],
   "return_type" : "_ZTIv",
   "source_file" : "/out/soong/.intermediates/hardware/interfaces/automotive/sv/1.0/android.hardware.automotive.sv@1.0_genc++_headers/gen/android/hardware/automotive/sv/1.0/BpHwSurroundView2dSession.h"
  },
  {
   "function_name" : "android::hardware::automotive::sv::V1_0::BpHwSurroundView3dSession::onLastStrongRef",
   "linker_set_key" : "_ZThn8_N7android8hardware10automotive2sv4V1_025BpHwSurroundView3dSession15onLastStrongRefEPKv",
   "parameters" :
   [
    {
     "is_this_ptr" : true,
     "referenced_type" : "_ZTIPN7android8hardware10automotive2sv4V1_025BpHwSurroundView3dSessionE"
    },
    {
     "referenced_type" : "_ZTIPKv"
    }
   ],
   "return_type" : "_ZTIv",
   "source_file" : "/out/soong/.intermediates/hardware/interfaces/automotive/sv/1.0/android.hardware.automotive.sv@1.0_genc++_headers/gen/android/hardware/automotive/sv/1.0/BpHwSurroundView3dSession.h"
  },
  {
   "function_name" : "android::hardware::automotive::sv::V1_0::BpHwSurroundViewStream::onLastStrongRef",
   "linker_set_key" : "_ZTv0_n20_N7android8hardware10automotive2sv4V1_022BpHwSurroundViewStream15onLastStrongRefEPKv",
   "parameters" :
   [
    {
     "is_this_ptr" : true,
     "referenced_type" : "_ZTIPN7android8hardware10automotive2sv4V1_022BpHwSurroundViewStreamE"
    },
    {
     "referenced_type" : "_ZTIPKv"
    }
   ],
   "return_type" : "_ZTIv",
   "source_file" : "/out/soong/.intermediates/hardware/interfaces/automotive/sv/1.0/android.hardware.automotive.sv@1.0_genc++_headers/gen/android/hardware/automotive/sv/1.0/BpHwSurroundViewStream.h"
  },
  {
   "function_name" : "android::hardware::automotive::sv::V1_0::BpHwSurroundViewService::onLastStrongRef",
   "linker_set_key" : "_ZTv0_n20_N7android8hardware10automotive2sv4V1_023BpHwSurroundViewService15onLastStrongRefEPKv",
   "parameters" :
   [
    {
     "is_this_ptr" : true,
     "referenced_type" : "_ZTIPN7android8hardware10automotive2sv4V1_023BpHwSurroundViewServiceE"
    },
    {
     "referenced_type" : "_ZTIPKv"
    }
   ],
   "return_type" : "_ZTIv",
   "source_file" : "/out/soong/.intermediates/hardware/interfaces/automotive/sv/1.0/android.hardware.automotive.sv@1.0_genc++_headers/gen/android/hardware/automotive/sv/1.0/BpHwSurroundViewService.h"
  },
  {
   "function_name" : "android::hardware::automotive::sv::V1_0::BpHwSurroundViewSession::onLastStrongRef",
   "linker_set_key" : "_ZTv0_n20_N7android8hardware10automotive2sv4V1_023BpHwSurroundViewSession15onLastStrongRefEPKv",
   "parameters" :
   [
    {
     "is_this_ptr" : true,
     "referenced_type" : "_ZTIPN7android8hardware10automotive2sv4V1_023BpHwSurroundViewSessionE"
    },
    {
     "referenced_type" : "_ZTIPKv"
    }
   ],
   "return_type" : "_ZTIv",
   "source_file" : "/out/soong/.intermediates/hardware/interfaces/automotive/sv/1.0/android.hardware.automotive.sv@1.0_genc++_headers/gen/android/hardware/automotive/sv/1.0/BpHwSurroundViewSession.h"
  },
  {
   "function_name" : "android::hardware::automotive::sv::V1_0::BpHwSurroundView2dSession::onLastStrongRef",
   "linker_set_key" : "_ZTv0_n20_N7android8hardware10automotive2sv4V1_025BpHwSurroundView2dSession15onLastStrongRefEPKv",
   "parameters" :
   [
    {
     "is_this_ptr" : true,
     "referenced_type" : "_ZTIPN7android8hardware10automotive2sv4V1_025BpHwSurroundView2dSessionE"
    },
    {
     "referenced_type" : "_ZTIPKv"
    }
   ],
   "return_type" : "_ZTIv",
   "source_file" : "/out/soong/.intermediates/hardware/interfaces/automotive/sv/1.0/android.hardware.automotive.sv@1.0_genc++_headers/gen/android/hardware/automotive/sv/1.0/BpHwSurroundView2dSession.h"
  },
  {
   "function_name" : "android::hardware::automotive::sv::V1_0::BpHwSurroundView3dSession::onLastStrongRef",
   "linker_set_key" : "_ZTv0_n20_N7android8hardware10automotive2sv4V1_025BpHwSurroundView3dSession15onLastStrongRefEPKv",
   "parameters" :
   [
    {
     "is_this_ptr" : true,
     "referenced_type" : "_ZTIPN7android8hardware10automotive2sv4V1_025BpHwSurroundView3dSessionE"
    },
    {
     "referenced_type" : "_ZTIPKv"
    }
   ],
   "return_type" : "_ZTIv",
   "source_file" : "/out/soong/.intermediates/hardware/interfaces/automotive/sv/1.0/android.hardware.automotive.sv@1.0_genc++_headers/gen/android/hardware/automotive/sv/1.0/BpHwSurroundView3dSession.h"
  }
 ],
 "global_vars" :
 [
  {
   "linker_set_key" : "_ZN7android8hardware10automotive2sv4V1_019ISurroundViewStream10descriptorE",
   "name" : "android::hardware::automotive::sv::V1_0::ISurroundViewStream::descriptor",
   "referenced_type" : "_ZTIPKc",
   "source_file" : "/out/soong/.intermediates/hardware/interfaces/automotive/sv/1.0/android.hardware.automotive.sv@1.0_genc++_headers/gen/android/hardware/automotive/sv/1.0/ISurroundViewStream.h"
  },
  {
   "linker_set_key" : "_ZN7android8hardware10automotive2sv4V1_020ISurroundViewService10descriptorE",
   "name" : "android::hardware::automotive::sv::V1_0::ISurroundViewService::descriptor",
   "referenced_type" : "_ZTIPKc",
   "source_file" : "/out/soong/.intermediates/hardware/interfaces/automotive/sv/1.0/android.hardware.automotive.sv@1.0_genc++_headers/gen/android/hardware/automotive/sv/1.0/ISurroundViewService.h"
  },
  {
   "linker_set_key" : "_ZN7android8hardware10automotive2sv4V1_020ISurroundViewSession10descriptorE",
   "name" : "android::hardware::automotive::sv::V1_0::ISurroundViewSession::descriptor",
   "referenced_type" : "_ZTIPKc",
   "source_file" : "/out/soong/.intermediates/hardware/interfaces/automotive/sv/1.0/android.hardware.automotive.sv@1.0_genc++_headers/gen/android/hardware/automotive/sv/1.0/ISurroundViewSession.h"
  },
  {
   "linker_set_key" : "_ZN7android8hardware10automotive2sv4V1_022ISurroundView2dSession10descriptorE",
   "name" : "android::hardware::automotive::sv::V1_0::ISurroundView2dSession::descriptor",
   "referenced_type" : "_ZTIPKc",
   "source_file" : "/out/soong/.intermediates/hardware/interfaces/automotive/sv/1.0/android.hardware.automotive.sv@1.0_genc++_headers/gen/android/hardware/automotive/sv/1.0/ISurroundView2dSession.h"
  },
  {
   "linker_set_key" : "_ZN7android8hardware10automotive2sv4V1_022ISurroundView3dSession10descriptorE",
   "name" : "android::hardware::automotive::sv::V1_0::ISurroundView3dSession::descriptor",
   "referenced_type" : "_ZTIPKc",
   "source_file" : "/out/soong/.intermediates/hardware/interfaces/automotive/sv/1.0/android.hardware.automotive.sv@1.0_genc++_headers/gen/android/hardware/automotive/sv/1.0/ISurroundView3dSession.h"
  }
 ],
 "lvalue_reference_types" :
 [
  {
   "alignment" : 4,
   "linker_set_key" : "_ZTIRK7log_msg",
   "name" : "const log_msg &",
   "referenced_type" : "_ZTIK7log_msg",
   "self_type" : "_ZTIRK7log_msg",
   "size" : 4,
   "source_file" : "/system/core/liblog/include/log/log_read.h"
  },
  {
   "alignment" : 4,
   "linker_set_key" : "_ZTIRKN7android2spINS_4hidl4base4V1_05IBaseEEE",
   "name" : "const android::sp<android::hidl::base::V1_0::IBase> &",
   "referenced_type" : "_ZTIKN7android2spINS_4hidl4base4V1_05IBaseEEE",
   "self_type" : "_ZTIRKN7android2spINS_4hidl4base4V1_05IBaseEEE",
   "size" : 4,
   "source_file" : "/system/core/libutils/include/utils/StrongPointer.h"
  },
  {
   "alignment" : 4,
   "linker_set_key" : "_ZTIRKN7android2spINS_4hidl7manager4V1_020IServiceNotificationEEE",
   "name" : "const android::sp<android::hidl::manager::V1_0::IServiceNotification> &",
   "referenced_type" : "_ZTIKN7android2spINS_4hidl7manager4V1_020IServiceNotificationEEE",
   "self_type" : "_ZTIRKN7android2spINS_4hidl7manager4V1_020IServiceNotificationEEE",
   "size" : 4,
   "source_file" : "/out/soong/.intermediates/hardware/interfaces/automotive/sv/1.0/android.hardware.automotive.sv@1.0_genc++_headers/gen/android/hardware/automotive/sv/1.0/ISurroundViewStream.h"
  },
  {
   "alignment" : 4,
   "linker_set_key" : "_ZTIRKN7android2spINS_8hardware10automotive2sv4V1_019ISurroundViewStreamEEE",
   "name" : "const android::sp<android::hardware::automotive::sv::V1_0::ISurroundViewStream> &",
   "referenced_type" : "_ZTIKN7android2spINS_8hardware10automotive2sv4V1_019ISurroundViewStreamEEE",
   "self_type" : "_ZTIRKN7android2spINS_8hardware10automotive2sv4V1_019ISurroundViewStreamEEE",
   "size" : 4,
   "source_file" : "/system/core/libutils/include/utils/StrongPointer.h"
  },
  {
   "alignment" : 4,
   "linker_set_key" : "_ZTIRKN7android2spINS_8hardware10automotive2sv4V1_020ISurroundViewServiceEEE",
   "name" : "const android::sp<android::hardware::automotive::sv::V1_0::ISurroundViewService> &",
   "referenced_type" : "_ZTIKN7android2spINS_8hardware10automotive2sv4V1_020ISurroundViewServiceEEE",
   "self_type" : "_ZTIRKN7android2spINS_8hardware10automotive2sv4V1_020ISurroundViewServiceEEE",
   "size" : 4,
   "source_file" : "/system/core/libutils/include/utils/StrongPointer.h"
  },
  {
   "alignment" : 4,
   "linker_set_key" : "_ZTIRKN7android2spINS_8hardware10automotive2sv4V1_020ISurroundViewSessionEEE",
   "name" : "const android::sp<android::hardware::automotive::sv::V1_0::ISurroundViewSession> &",
   "referenced_type" : "_ZTIKN7android2spINS_8hardware10automotive2sv4V1_020ISurroundViewSessionEEE",
   "self_type" : "_ZTIRKN7android2spINS_8hardware10automotive2sv4V1_020ISurroundViewSessionEEE",
   "size" : 4,
   "source_file" : "/system/core/libutils/include/utils/StrongPointer.h"
  },
  {
   "alignment" : 4,
   "linker_set_key" : "_ZTIRKN7android2spINS_8hardware10automotive2sv4V1_022ISurroundView2dSessionEEE",
   "name" : "const android::sp<android::hardware::automotive::sv::V1_0::ISurroundView2dSession> &",
   "referenced_type" : "_ZTIKN7android2spINS_8hardware10automotive2sv4V1_022ISurroundView2dSessionEEE",
   "self_type" : "_ZTIRKN7android2spINS_8hardware10automotive2sv4V1_022ISurroundView2dSessionEEE",
   "size" : 4,
   "source_file" : "/system/core/libutils/include/utils/StrongPointer.h"
  },
  {
   "alignment" : 4,
   "linker_set_key" : "_ZTIRKN7android2spINS_8hardware10automotive2sv4V1_022ISurroundView3dSessionEEE",
   "name" : "const android::sp<android::hardware::automotive::sv::V1_0::ISurroundView3dSession> &",
   "referenced_type" : "_ZTIKN7android2spINS_8hardware10automotive2sv4V1_022ISurroundView3dSessionEEE",
   "self_type" : "_ZTIRKN7android2spINS_8hardware10automotive2sv4V1_022ISurroundView3dSessionEEE",
   "size" : 4,
   "source_file" : "/system/core/libutils/include/utils/StrongPointer.h"
  },
  {
   "alignment" : 4,
   "linker_set_key" : "_ZTIRKN7android2spINS_8hardware20hidl_death_recipientEEE",
   "name" : "const android::sp<android::hardware::hidl_death_recipient> &",
   "referenced_type" : "_ZTIKN7android2spINS_8hardware20hidl_death_recipientEEE",
   "self_type" : "_ZTIRKN7android2spINS_8hardware20hidl_death_recipientEEE",
   "size" : 4,
   "source_file" : "/system/core/libutils/include/utils/RefBase.h"
  },
  {
   "alignment" : 4,
   "linker_set_key" : "_ZTIRKN7android2spINS_8hardware27hidl_binder_death_recipientEEE",
   "name" : "const android::sp<android::hardware::hidl_binder_death_recipient> &",
   "referenced_type" : "_ZTIKN7android2spINS_8hardware27hidl_binder_death_recipientEEE",
   "self_type" : "_ZTIRKN7android2spINS_8hardware27hidl_binder_death_recipientEEE",
   "size" : 4,
   "source_file" : "/system/core/libutils/include/utils/RefBase.h"
  },
  {
   "alignment" : 4,
   "linker_set_key" : "_ZTIRKN7android2spINS_8hardware7IBinderEEE",
   "name" : "const android::sp<android::hardware::IBinder> &",
   "referenced_type" : "_ZTIKN7android2spINS_8hardware7IBinderEEE",
   "self_type" : "_ZTIRKN7android2spINS_8hardware7IBinderEEE",
   "size" : 4,
   "source_file" : "/system/libhwbinder/include/hwbinder/IInterface.h"
  },
  {
   "alignment" : 4,
   "linker_set_key" : "_ZTIRKN7android2wpINS_8hardware9BHwBinderEEE",
   "name" : "const android::wp<android::hardware::BHwBinder> &",
   "referenced_type" : "_ZTIKN7android2wpINS_8hardware9BHwBinderEEE",
   "self_type" : "_ZTIRKN7android2wpINS_8hardware9BHwBinderEEE",
   "size" : 4,
   "source_file" : "/system/core/libutils/include/utils/RefBase.h"
  },
  {
   "alignment" : 4,
   "linker_set_key" : "_ZTIRKN7android7String8E",
   "name" : "const android::String8 &",
   "referenced_type" : "_ZTIKN7android7String8E",
   "self_type" : "_ZTIRKN7android7String8E",
   "size" : 4,
   "source_file" : "/system/core/libutils/include/utils/String8.h"
  },
  {
   "alignment" : 4,
   "linker_set_key" : "_ZTIRKN7android8String16E",
   "name" : "const android::String16 &",
   "referenced_type" : "_ZTIKN7android8String16E",
   "self_type" : "_ZTIRKN7android8String16E",
   "size" : 4,
   "source_file" : "/system/core/libutils/include/utils/String16.h"
  },
  {
   "alignment" : 4,
   "linker_set_key" : "_ZTIRKN7android8hardware10automotive2sv4V1_010Sv2dConfigE",
   "name" : "const android::hardware::automotive::sv::V1_0::Sv2dConfig &",
   "referenced_type" : "_ZTIKN7android8hardware10automotive2sv4V1_010Sv2dConfigE",
   "self_type" : "_ZTIRKN7android8hardware10automotive2sv4V1_010Sv2dConfigE",
   "size" : 4,
   "source_file" : "/out/soong/.intermediates/hardware/interfaces/automotive/sv/1.0/android.hardware.automotive.sv@1.0_genc++_headers/gen/android/hardware/automotive/sv/1.0/BpHwSurroundView2dSession.h"
  },
  {
   "alignment" : 4,
   "linker_set_key" : "_ZTIRKN7android8hardware10automotive2sv4V1_010Sv3dConfigE",
   "name" : "const android::hardware::automotive::sv::V1_0::Sv3dConfig &",
   "referenced_type" : "_ZTIKN7android8hardware10automotive2sv4V1_010Sv3dConfigE",
   "self_type" : "_ZTIRKN7android8hardware10automotive2sv4V1_010Sv3dConfigE",
   "size" : 4,
   "source_file" : "/out/soong/.intermediates/hardware/interfaces/automotive/sv/1.0/android.hardware.automotive.sv@1.0_genc++_headers/gen/android/hardware/automotive/sv/1.0/BpHwSurroundView3dSession.h"
  },
  {
   "alignment" : 4,
   "linker_set_key" : "_ZTIRKN7android8hardware10automotive2sv4V1_012OverlaysDataE",
   "name" : "const android::hardware::automotive::sv::V1_0::OverlaysData &",
   "referenced_type" : "_ZTIKN7android8hardware10automotive2sv4V1_012OverlaysDataE",
   "self_type" : "_ZTIRKN7android8hardware10automotive2sv4V1_012OverlaysDataE",
   "size" : 4,
   "source_file" : "/out/soong/.intermediates/hardware/interfaces/automotive/sv/1.0/android.hardware.automotive.sv@1.0_genc++_headers/gen/android/hardware/automotive/sv/1.0/BpHwSurroundView3dSession.h"
  },
  {
   "alignment" : 4,
   "linker_set_key" : "_ZTIRKN7android8hardware10automotive2sv4V1_012SvFramesDescE",
   "name" : "const android::hardware::automotive::sv::V1_0::SvFramesDesc &",
   "referenced_type" : "_ZTIKN7android8hardware10automotive2sv4V1_012SvFramesDescE",
   "self_type" : "_ZTIRKN7android8hardware10automotive2sv4V1_012SvFramesDescE",
   "size" : 4,
   "source_file" : "/out/soong/.intermediates/hardware/interfaces/automotive/sv/1.0/android.hardware.automotive.sv@1.0_genc++_headers/gen/android/hardware/automotive/sv/1.0/BpHwSurroundViewStream.h"
  },
  {
   "alignment" : 4,
   "linker_set_key" : "_ZTIRKN7android8hardware10automotive2sv4V1_017OverlayMemoryDescE",
   "name" : "const android::hardware::automotive::sv::V1_0::OverlayMemoryDesc &",
   "referenced_type" : "_ZTIKN7android8hardware10automotive2sv4V1_017OverlayMemoryDescE",
   "self_type" : "_ZTIRKN7android8hardware10automotive2sv4V1_017OverlayMemoryDescE",
   "size" : 4,
   "source_file" : "/system/libhidl/base/include/hidl/HidlInternal.h"
  },
  {
   "alignment" : 4,
   "linker_set_key" : "_ZTIRKN7android8hardware10automotive2sv4V1_08SvBufferE",
   "name" : "const android::hardware::automotive::sv::V1_0::SvBuffer &",
   "referenced_type" : "_ZTIKN7android8hardware10automotive2sv4V1_08SvBufferE",
   "self_type" : "_ZTIRKN7android8hardware10automotive2sv4V1_08SvBufferE",
   "size" : 4,
   "source_file" : "/system/libhidl/base/include/hidl/HidlInternal.h"
  },
  {
   "alignment" : 4,
   "linker_set_key" : "_ZTIRKN7android8hardware10hidl_arrayIhLj32EJEEE",
   "name" : "const android::hardware::hidl_array<unsigned char, 32> &",
   "referenced_type" : "_ZTIKN7android8hardware10hidl_arrayIhLj32EJEEE",
   "self_type" : "_ZTIRKN7android8hardware10hidl_arrayIhLj32EJEEE",
   "size" : 4,
   "source_file" : "/system/libhidl/base/include/hidl/HidlSupport.h"
  },
  {
   "alignment" : 4,
   "linker_set_key" : "_ZTIRKN7android8hardware10hidl_arrayIjLj10EJEEE",
   "name" : "const android::hardware::hidl_array<unsigned int, 10> &",
   "referenced_type" : "_ZTIKN7android8hardware10hidl_arrayIjLj10EJEEE",
   "self_type" : "_ZTIRKN7android8hardware10hidl_arrayIjLj10EJEEE",
   "size" : 4,
   "source_file" : "/system/libhidl/base/include/hidl/HidlSupport.h"
  },
  {
   "alignment" : 4,
   "linker_set_key" : "_ZTIRKN7android8hardware11hidl_handleE",
   "name" : "const android::hardware::hidl_handle &",
   "referenced_type" : "_ZTIKN7android8hardware11hidl_handleE",
   "self_type" : "_ZTIRKN7android8hardware11hidl_handleE",
   "size" : 4,
   "source_file" : "/system/libhidl/base/include/hidl/HidlSupport.h"
  },
  {
   "alignment" : 4,
   "linker_set_key" : "_ZTIRKN7android8hardware11hidl_memoryE",
   "name" : "const android::hardware::hidl_memory &",
   "referenced_type" : "_ZTIKN7android8hardware11hidl_memoryE",
   "self_type" : "_ZTIRKN7android8hardware11hidl_memoryE",
   "size" : 4,
   "source_file" : "/system/libhidl/base/include/hidl/HidlSupport.h"
  },
  {
   "alignment" : 4,
   "linker_set_key" : "_ZTIRKN7android8hardware11hidl_stringE",
   "name" : "const android::hardware::hidl_string &",
   "referenced_type" : "_ZTIKN7android8hardware11hidl_stringE",
   "self_type" : "_ZTIRKN7android8hardware11hidl_stringE",
   "size" : 4,
   "source_file" : "/system/libhidl/base/include/hidl/HidlSupport.h"
  },
  {
   "alignment" : 4,
   "linker_set_key" : "_ZTIRKN7android8hardware12hidl_versionE",
   "name" : "const android::hardware::hidl_version &",
   "referenced_type" : "_ZTIKN7android8hardware12hidl_versionE",
   "self_type" : "_ZTIRKN7android8hardware12hidl_versionE",
   "size" : 4,
   "source_file" : "/system/libhidl/base/include/hidl/HidlSupport.h"
  },
  {
   "alignment" : 4,
   "linker_set_key" : "_ZTIRKN7android8hardware6ParcelE",
   "name" : "const android::hardware::Parcel &",
   "referenced_type" : "_ZTIKN7android8hardware6ParcelE",
   "self_type" : "_ZTIRKN7android8hardware6ParcelE",
   "size" : 4,
   "source_file" : "/system/libhwbinder/include/hwbinder/Parcel.h"
  },
  {
   "alignment" : 4,
   "linker_set_key" : "_ZTIRKN7android8hardware6ReturnIbEE",
   "name" : "const android::hardware::Return<bool> &",
   "referenced_type" : "_ZTIKN7android8hardware6ReturnIbEE",
   "self_type" : "_ZTIRKN7android8hardware6ReturnIbEE",
   "size" : 4,
   "source_file" : "/system/libhidl/base/include/hidl/Status.h"
  },
  {
   "alignment" : 4,
   "linker_set_key" : "_ZTIRKN7android8hardware6StatusE",
   "name" : "const android::hardware::Status &",
   "referenced_type" : "_ZTIKN7android8hardware6StatusE",
   "self_type" : "_ZTIRKN7android8hardware6StatusE",
   "size" : 4,
   "source_file" : "/system/libhidl/base/include/hidl/Status.h"
  },
  {
   "alignment" : 4,
   "linker_set_key" : "_ZTIRKN7android8hardware7details14const_accessorIjLj10EJEEE",
   "name" : "const android::hardware::details::const_accessor<unsigned int, 10> &",
   "referenced_type" : "_ZTIKN7android8hardware7details14const_accessorIjLj10EJEEE",
   "self_type" : "_ZTIRKN7android8hardware7details14const_accessorIjLj10EJEEE",
   "size" : 4,
   "source_file" : "/system/libhidl/base/include/hidl/HidlSupport.h"
  },
  {
   "linker_set_key" : "_ZTIRKN7android8hardware8hidl_vec4iterIXTL0__EEE",
   "name" : "const iter<is_const> &",
   "referenced_type" : "_ZTIKN7android8hardware8hidl_vec4iterIXTL0__EEE",
   "self_type" : "_ZTIRKN7android8hardware8hidl_vec4iterIXTL0__EEE",
   "source_file" : "/system/libhidl/base/include/hidl/HidlSupport.h"
  },
  {
   "alignment" : 4,
   "linker_set_key" : "_ZTIRKN7android8hardware8hidl_vecINS0_10automotive2sv4V1_010Point2dIntEEE",
   "name" : "const android::hardware::hidl_vec<android::hardware::automotive::sv::V1_0::Point2dInt> &",
   "referenced_type" : "_ZTIKN7android8hardware8hidl_vecINS0_10automotive2sv4V1_010Point2dIntEEE",
   "self_type" : "_ZTIRKN7android8hardware8hidl_vecINS0_10automotive2sv4V1_010Point2dIntEEE",
   "size" : 4,
   "source_file" : "/system/libhidl/transport/include/hidl/HidlBinderSupport.h"
  },
  {
   "alignment" : 4,
   "linker_set_key" : "_ZTIRKN7android8hardware8hidl_vecINS0_10automotive2sv4V1_012Point2dFloatEEE",
   "name" : "const android::hardware::hidl_vec<android::hardware::automotive::sv::V1_0::Point2dFloat> &",
   "referenced_type" : "_ZTIKN7android8hardware8hidl_vecINS0_10automotive2sv4V1_012Point2dFloatEEE",
   "self_type" : "_ZTIRKN7android8hardware8hidl_vecINS0_10automotive2sv4V1_012Point2dFloatEEE",
   "size" : 4,
   "source_file" : "/system/libhidl/transport/include/hidl/HidlBinderSupport.h"
  },
  {
   "alignment" : 4,
   "linker_set_key" : "_ZTIRKN7android8hardware8hidl_vecINS0_10automotive2sv4V1_012Point3dFloatEEE",
   "name" : "const android::hardware::hidl_vec<android::hardware::automotive::sv::V1_0::Point3dFloat> &",
   "referenced_type" : "_ZTIKN7android8hardware8hidl_vecINS0_10automotive2sv4V1_012Point3dFloatEEE",
   "self_type" : "_ZTIRKN7android8hardware8hidl_vecINS0_10automotive2sv4V1_012Point3dFloatEEE",
   "size" : 4,
   "source_file" : "/system/libhidl/transport/include/hidl/HidlBinderSupport.h"
  },
  {
   "alignment" : 4,
   "linker_set_key" : "_ZTIRKN7android8hardware8hidl_vecINS0_10automotive2sv4V1_017OverlayMemoryDescEEE",
   "name" : "const android::hardware::hidl_vec<android::hardware::automotive::sv::V1_0::OverlayMemoryDesc> &",
   "referenced_type" : "_ZTIKN7android8hardware8hidl_vecINS0_10automotive2sv4V1_017OverlayMemoryDescEEE",
   "self_type" : "_ZTIRKN7android8hardware8hidl_vecINS0_10automotive2sv4V1_017OverlayMemoryDescEEE",
   "size" : 4,
   "source_file" : "/system/libhidl/base/include/hidl/HidlSupport.h"
  },
  {
   "alignment" : 4,
   "linker_set_key" : "_ZTIRKN7android8hardware8hidl_vecINS0_10automotive2sv4V1_06View3dEEE",
   "name" : "const android::hardware::hidl_vec<android::hardware::automotive::sv::V1_0::View3d> &",
   "referenced_type" : "_ZTIKN7android8hardware8hidl_vecINS0_10automotive2sv4V1_06View3dEEE",
   "self_type" : "_ZTIRKN7android8hardware8hidl_vecINS0_10automotive2sv4V1_06View3dEEE",
   "size" : 4,
   "source_file" : "/system/libhidl/transport/include/hidl/HidlBinderSupport.h"
  },
  {
   "alignment" : 4,
   "linker_set_key" : "_ZTIRKN7android8hardware8hidl_vecINS0_10automotive2sv4V1_08SvBufferEEE",
   "name" : "const android::hardware::hidl_vec<android::hardware::automotive::sv::V1_0::SvBuffer> &",
   "referenced_type" : "_ZTIKN7android8hardware8hidl_vecINS0_10automotive2sv4V1_08SvBufferEEE",
   "self_type" : "_ZTIRKN7android8hardware8hidl_vecINS0_10automotive2sv4V1_08SvBufferEEE",
   "size" : 4,
   "source_file" : "/system/libhidl/base/include/hidl/HidlSupport.h"
  },
  {
   "alignment" : 4,
   "linker_set_key" : "_ZTIRKN7android8hardware8hidl_vecINS0_11hidl_stringEEE",
   "name" : "const android::hardware::hidl_vec<android::hardware::hidl_string> &",
   "referenced_type" : "_ZTIKN7android8hardware8hidl_vecINS0_11hidl_stringEEE",
   "self_type" : "_ZTIRKN7android8hardware8hidl_vecINS0_11hidl_stringEEE",
   "size" : 4,
   "source_file" : "/out/soong/.intermediates/hardware/interfaces/automotive/sv/1.0/android.hardware.automotive.sv@1.0_genc++_headers/gen/android/hardware/automotive/sv/1.0/ISurroundViewStream.h"
  },
  {
   "alignment" : 4,
   "linker_set_key" : "_ZTIRKN7android8hardware8hidl_vecIiEE",
   "name" : "const android::hardware::hidl_vec<int> &",
   "referenced_type" : "_ZTIKN7android8hardware8hidl_vecIiEE",
   "self_type" : "_ZTIRKN7android8hardware8hidl_vecIiEE",
   "size" : 4,
   "source_file" : "/system/libhidl/base/include/hidl/HidlSupport.h"
  },
  {
   "alignment" : 4,
   "linker_set_key" : "_ZTIRKNSt3__112basic_stringIcNS_11char_traitsIcEENS_9allocatorIcEEEE",
   "name" : "const std::basic_string<char, std::char_traits<char>, std::allocator<char> > &",
   "referenced_type" : "_ZTIKNSt3__112basic_stringIcNS_11char_traitsIcEENS_9allocatorIcEEEE",
   "self_type" : "_ZTIRKNSt3__112basic_stringIcNS_11char_traitsIcEENS_9allocatorIcEEEE",
   "size" : 4,
   "source_file" : "/system/libhidl/transport/include/hidl/HidlTransportSupport.h"
  },
  {
   "alignment" : 4,
   "linker_set_key" : "_ZTIRKNSt3__16vectorINS_8functionIFvN7android8hardware7details16HidlInstrumentor20InstrumentationEventEPKcS8_S8_S8_PNS0_IPvNS_9allocatorIS9_EEEEEEENSA_ISF_EEEE",
   "name" : "const std::vector<std::function<void (InstrumentationEvent, const char *, const char *, const char *, const char *, vector<void *, allocator<void *> > *)>, std::allocator<std::function<void (InstrumentationEvent, const char *, const char *, const char *, const char *, vector<void *, allocator<void *> > *)> > > &",
   "referenced_type" : "_ZTIKNSt3__16vectorINS_8functionIFvN7android8hardware7details16HidlInstrumentor20InstrumentationEventEPKcS8_S8_S8_PNS0_IPvNS_9allocatorIS9_EEEEEEENSA_ISF_EEEE",
   "self_type" : "_ZTIRKNSt3__16vectorINS_8functionIFvN7android8hardware7details16HidlInstrumentor20InstrumentationEventEPKcS8_S8_S8_PNS0_IPvNS_9allocatorIS9_EEEEEEENSA_ISF_EEEE",
   "size" : 4,
   "source_file" : "/system/libhidl/base/include/hidl/HidlInternal.h"
  },
  {
   "alignment" : 4,
   "linker_set_key" : "_ZTIRKPKN7android4hidl4base4V1_05IBaseE",
   "name" : "const android::hidl::base::V1_0::IBase *const &",
   "referenced_type" : "_ZTIKPKN7android4hidl4base4V1_05IBaseE",
   "self_type" : "_ZTIRKPKN7android4hidl4base4V1_05IBaseE",
   "size" : 4,
   "source_file" : "/system/libhidl/transport/include/hidl/ConcurrentMap.h"
  },
  {
   "alignment" : 4,
   "linker_set_key" : "_ZTIRKa",
   "name" : "const signed char &",
   "referenced_type" : "_ZTIKa",
   "self_type" : "_ZTIRKa",
   "size" : 4,
   "source_file" : "/system/core/libutils/include/utils/TypeHelpers.h"
  },
  {
   "alignment" : 4,
   "linker_set_key" : "_ZTIRKb",
   "name" : "const bool &",
   "referenced_type" : "_ZTIKb",
   "self_type" : "_ZTIRKb",
   "size" : 4,
   "source_file" : "/system/core/libutils/include/utils/TypeHelpers.h"
  },
  {
   "alignment" : 4,
   "linker_set_key" : "_ZTIRKd",
   "name" : "const double &",
   "referenced_type" : "_ZTIKd",
   "self_type" : "_ZTIRKd",
   "size" : 4,
   "source_file" : "/system/core/libutils/include/utils/TypeHelpers.h"
  },
  {
   "alignment" : 4,
   "linker_set_key" : "_ZTIRKf",
   "name" : "const float &",
   "referenced_type" : "_ZTIKf",
   "self_type" : "_ZTIRKf",
   "size" : 4,
   "source_file" : "/system/core/libutils/include/utils/TypeHelpers.h"
  },
  {
   "alignment" : 4,
   "linker_set_key" : "_ZTIRKh",
   "name" : "const unsigned char &",
   "referenced_type" : "_ZTIKh",
   "self_type" : "_ZTIRKh",
   "size" : 4,
   "source_file" : "/system/core/libutils/include/utils/TypeHelpers.h"
  },
  {
   "alignment" : 4,
   "linker_set_key" : "_ZTIRKi",
   "name" : "const int &",
   "referenced_type" : "_ZTIKi",
   "self_type" : "_ZTIRKi",
   "size" : 4,
   "source_file" : "/system/libhidl/base/include/hidl/HidlInternal.h"
  },
  {
   "alignment" : 4,
   "linker_set_key" : "_ZTIRKj",
   "name" : "const unsigned int &",
   "referenced_type" : "_ZTIKj",
   "self_type" : "_ZTIRKj",
   "size" : 4,
   "source_file" : "/system/core/libutils/include/utils/TypeHelpers.h"
  },
  {
   "alignment" : 4,
   "linker_set_key" : "_ZTIRKs",
   "name" : "const short &",
   "referenced_type" : "_ZTIKs",
   "self_type" : "_ZTIRKs",
   "size" : 4,
   "source_file" : "/system/core/libutils/include/utils/TypeHelpers.h"
  },
  {
   "alignment" : 4,
   "linker_set_key" : "_ZTIRKt",
   "name" : "const unsigned short &",
   "referenced_type" : "_ZTIKt",
   "self_type" : "_ZTIRKt",
   "size" : 4,
   "source_file" : "/system/core/libutils/include/utils/TypeHelpers.h"
  },
  {
   "alignment" : 4,
   "linker_set_key" : "_ZTIRKx",
   "name" : "const long long &",
   "referenced_type" : "_ZTIKx",
   "self_type" : "_ZTIRKx",
   "size" : 4,
   "source_file" : "/system/core/libutils/include/utils/TypeHelpers.h"
  },
  {
   "alignment" : 4,
   "linker_set_key" : "_ZTIRKy",
   "name" : "const unsigned long long &",
   "referenced_type" : "_ZTIKy",
   "self_type" : "_ZTIRKy",
   "size" : 4,
   "source_file" : "/system/core/libutils/include/utils/TypeHelpers.h"
  },
  {
   "alignment" : 4,
   "linker_set_key" : "_ZTIRN7android2spINS_8hardware10automotive2sv4V1_019ISurroundViewStreamEEE",
   "name" : "android::sp<android::hardware::automotive::sv::V1_0::ISurroundViewStream> &",
   "referenced_type" : "_ZTIN7android2spINS_8hardware10automotive2sv4V1_019ISurroundViewStreamEEE",
   "self_type" : "_ZTIRN7android2spINS_8hardware10automotive2sv4V1_019ISurroundViewStreamEEE",
   "size" : 4,
   "source_file" : "/system/core/libutils/include/utils/StrongPointer.h"
  },
  {
   "alignment" : 4,
   "linker_set_key" : "_ZTIRN7android2spINS_8hardware10automotive2sv4V1_020ISurroundViewServiceEEE",
   "name" : "android::sp<android::hardware::automotive::sv::V1_0::ISurroundViewService> &",
   "referenced_type" : "_ZTIN7android2spINS_8hardware10automotive2sv4V1_020ISurroundViewServiceEEE",
   "self_type" : "_ZTIRN7android2spINS_8hardware10automotive2sv4V1_020ISurroundViewServiceEEE",
   "size" : 4,
   "source_file" : "/system/core/libutils/include/utils/StrongPointer.h"
  },
  {
   "alignment" : 4,
   "linker_set_key" : "_ZTIRN7android2spINS_8hardware10automotive2sv4V1_020ISurroundViewSessionEEE",
   "name" : "android::sp<android::hardware::automotive::sv::V1_0::ISurroundViewSession> &",
   "referenced_type" : "_ZTIN7android2spINS_8hardware10automotive2sv4V1_020ISurroundViewSessionEEE",
   "self_type" : "_ZTIRN7android2spINS_8hardware10automotive2sv4V1_020ISurroundViewSessionEEE",
   "size" : 4,
   "source_file" : "/system/core/libutils/include/utils/StrongPointer.h"
  },
  {
   "alignment" : 4,
   "linker_set_key" : "_ZTIRN7android2spINS_8hardware10automotive2sv4V1_022ISurroundView2dSessionEEE",
   "name" : "android::sp<android::hardware::automotive::sv::V1_0::ISurroundView2dSession> &",
   "referenced_type" : "_ZTIN7android2spINS_8hardware10automotive2sv4V1_022ISurroundView2dSessionEEE",
   "self_type" : "_ZTIRN7android2spINS_8hardware10automotive2sv4V1_022ISurroundView2dSessionEEE",
   "size" : 4,
   "source_file" : "/system/core/libutils/include/utils/StrongPointer.h"
  },
  {
   "alignment" : 4,
   "linker_set_key" : "_ZTIRN7android2spINS_8hardware10automotive2sv4V1_022ISurroundView3dSessionEEE",
   "name" : "android::sp<android::hardware::automotive::sv::V1_0::ISurroundView3dSession> &",
   "referenced_type" : "_ZTIN7android2spINS_8hardware10automotive2sv4V1_022ISurroundView3dSessionEEE",
   "self_type" : "_ZTIRN7android2spINS_8hardware10automotive2sv4V1_022ISurroundView3dSessionEEE",
   "size" : 4,
   "source_file" : "/system/core/libutils/include/utils/StrongPointer.h"
  },
  {
   "alignment" : 4,
   "linker_set_key" : "_ZTIRN7android2spINS_8hardware27hidl_binder_death_recipientEEE",
   "name" : "android::sp<android::hardware::hidl_binder_death_recipient> &",
   "referenced_type" : "_ZTIN7android2spINS_8hardware27hidl_binder_death_recipientEEE",
   "self_type" : "_ZTIRN7android2spINS_8hardware27hidl_binder_death_recipientEEE",
   "size" : 4,
   "source_file" : "/system/core/libutils/include/utils/StrongPointer.h"
  },
  {
   "alignment" : 4,
   "linker_set_key" : "_ZTIRN7android5MutexE",
   "name" : "android::Mutex &",
   "referenced_type" : "_ZTIN7android5MutexE",
   "self_type" : "_ZTIRN7android5MutexE",
   "size" : 4,
   "source_file" : "/system/core/libutils/include/utils/Mutex.h"
  },
  {
   "alignment" : 4,
   "linker_set_key" : "_ZTIRN7android6RWLockE",
   "name" : "android::RWLock &",
   "referenced_type" : "_ZTIN7android6RWLockE",
   "self_type" : "_ZTIRN7android6RWLockE",
   "size" : 4,
   "source_file" : "/system/core/libutils/include/utils/RWLock.h"
  },
  {
   "alignment" : 4,
   "linker_set_key" : "_ZTIRN7android7String8E",
   "name" : "android::String8 &",
   "referenced_type" : "_ZTIN7android7String8E",
   "self_type" : "_ZTIRN7android7String8E",
   "size" : 4,
   "source_file" : "/system/core/libutils/include/utils/String8.h"
  },
  {
   "alignment" : 4,
   "linker_set_key" : "_ZTIRN7android8String16E",
   "name" : "android::String16 &",
   "referenced_type" : "_ZTIN7android8String16E",
   "self_type" : "_ZTIRN7android8String16E",
   "size" : 4,
   "source_file" : "/system/core/libutils/include/utils/String16.h"
  },
  {
   "alignment" : 4,
   "linker_set_key" : "_ZTIRN7android8hardware10TextOutputE",
   "name" : "android::hardware::TextOutput &",
   "referenced_type" : "_ZTIN7android8hardware10TextOutputE",
   "self_type" : "_ZTIRN7android8hardware10TextOutputE",
   "size" : 4,
   "source_file" : "/system/libhwbinder/include/hwbinder/Parcel.h"
  },
  {
   "alignment" : 4,
   "linker_set_key" : "_ZTIRN7android8hardware10automotive2sv4V1_08SvBufferE",
   "name" : "android::hardware::automotive::sv::V1_0::SvBuffer &",
   "referenced_type" : "_ZTIN7android8hardware10automotive2sv4V1_08SvBufferE",
   "self_type" : "_ZTIRN7android8hardware10automotive2sv4V1_08SvBufferE",
   "size" : 4,
   "source_file" : "/system/libhidl/base/include/hidl/HidlInternal.h"
  },
  {
   "alignment" : 4,
   "linker_set_key" : "_ZTIRN7android8hardware10hidl_arrayIhLj32EJEEE",
   "name" : "android::hardware::hidl_array<unsigned char, 32> &",
   "referenced_type" : "_ZTIN7android8hardware10hidl_arrayIhLj32EJEEE",
   "self_type" : "_ZTIRN7android8hardware10hidl_arrayIhLj32EJEEE",
   "size" : 4,
   "source_file" : "/system/libhidl/base/include/hidl/HidlInternal.h"
  },
  {
   "alignment" : 4,
   "linker_set_key" : "_ZTIRN7android8hardware10hidl_arrayIjLj10EJEEE",
   "name" : "android::hardware::hidl_array<unsigned int, 10> &",
   "referenced_type" : "_ZTIN7android8hardware10hidl_arrayIjLj10EJEEE",
   "self_type" : "_ZTIRN7android8hardware10hidl_arrayIjLj10EJEEE",
   "size" : 4,
   "source_file" : "/system/libhidl/base/include/hidl/HidlSupport.h"
  },
  {
   "alignment" : 4,
   "linker_set_key" : "_ZTIRN7android8hardware11hidl_memoryE",
   "name" : "android::hardware::hidl_memory &",
   "referenced_type" : "_ZTIN7android8hardware11hidl_memoryE",
   "self_type" : "_ZTIRN7android8hardware11hidl_memoryE",
   "size" : 4,
   "source_file" : "/system/libhidl/base/include/hidl/HidlSupport.h"
  },
  {
   "alignment" : 4,
   "linker_set_key" : "_ZTIRN7android8hardware11hidl_stringE",
   "name" : "android::hardware::hidl_string &",
   "referenced_type" : "_ZTIN7android8hardware11hidl_stringE",
   "self_type" : "_ZTIRN7android8hardware11hidl_stringE",
   "size" : 4,
   "source_file" : "/system/libhidl/base/include/hidl/HidlInternal.h"
  },
  {
   "alignment" : 4,
   "linker_set_key" : "_ZTIRN7android8hardware6ReturnINS0_10automotive2sv4V1_08SvResultEEE",
   "name" : "android::hardware::Return<android::hardware::automotive::sv::V1_0::SvResult> &",
   "referenced_type" : "_ZTIN7android8hardware6ReturnINS0_10automotive2sv4V1_08SvResultEEE",
   "self_type" : "_ZTIRN7android8hardware6ReturnINS0_10automotive2sv4V1_08SvResultEEE",
   "size" : 4,
   "source_file" : "/system/libhidl/base/include/hidl/Status.h"
  },
  {
   "alignment" : 4,
   "linker_set_key" : "_ZTIRN7android8hardware6ReturnINS_2spINS0_10automotive2sv4V1_019ISurroundViewStreamEEEEE",
   "name" : "android::hardware::Return<android::sp<android::hardware::automotive::sv::V1_0::ISurroundViewStream> > &",
   "referenced_type" : "_ZTIN7android8hardware6ReturnINS_2spINS0_10automotive2sv4V1_019ISurroundViewStreamEEEEE",
   "self_type" : "_ZTIRN7android8hardware6ReturnINS_2spINS0_10automotive2sv4V1_019ISurroundViewStreamEEEEE",
   "size" : 4,
   "source_file" : "/system/libhidl/base/include/hidl/Status.h"
  },
  {
   "alignment" : 4,
   "linker_set_key" : "_ZTIRN7android8hardware6ReturnINS_2spINS0_10automotive2sv4V1_020ISurroundViewServiceEEEEE",
   "name" : "android::hardware::Return<android::sp<android::hardware::automotive::sv::V1_0::ISurroundViewService> > &",
   "referenced_type" : "_ZTIN7android8hardware6ReturnINS_2spINS0_10automotive2sv4V1_020ISurroundViewServiceEEEEE",
   "self_type" : "_ZTIRN7android8hardware6ReturnINS_2spINS0_10automotive2sv4V1_020ISurroundViewServiceEEEEE",
   "size" : 4,
   "source_file" : "/system/libhidl/base/include/hidl/Status.h"
  },
  {
   "alignment" : 4,
   "linker_set_key" : "_ZTIRN7android8hardware6ReturnINS_2spINS0_10automotive2sv4V1_020ISurroundViewSessionEEEEE",
   "name" : "android::hardware::Return<android::sp<android::hardware::automotive::sv::V1_0::ISurroundViewSession> > &",
   "referenced_type" : "_ZTIN7android8hardware6ReturnINS_2spINS0_10automotive2sv4V1_020ISurroundViewSessionEEEEE",
   "self_type" : "_ZTIRN7android8hardware6ReturnINS_2spINS0_10automotive2sv4V1_020ISurroundViewSessionEEEEE",
   "size" : 4,
   "source_file" : "/system/libhidl/base/include/hidl/Status.h"
  },
  {
   "alignment" : 4,
   "linker_set_key" : "_ZTIRN7android8hardware6ReturnINS_2spINS0_10automotive2sv4V1_022ISurroundView2dSessionEEEEE",
   "name" : "android::hardware::Return<android::sp<android::hardware::automotive::sv::V1_0::ISurroundView2dSession> > &",
   "referenced_type" : "_ZTIN7android8hardware6ReturnINS_2spINS0_10automotive2sv4V1_022ISurroundView2dSessionEEEEE",
   "self_type" : "_ZTIRN7android8hardware6ReturnINS_2spINS0_10automotive2sv4V1_022ISurroundView2dSessionEEEEE",
   "size" : 4,
   "source_file" : "/system/libhidl/base/include/hidl/Status.h"
  },
  {
   "alignment" : 4,
   "linker_set_key" : "_ZTIRN7android8hardware6ReturnINS_2spINS0_10automotive2sv4V1_022ISurroundView3dSessionEEEEE",
   "name" : "android::hardware::Return<android::sp<android::hardware::automotive::sv::V1_0::ISurroundView3dSession> > &",
   "referenced_type" : "_ZTIN7android8hardware6ReturnINS_2spINS0_10automotive2sv4V1_022ISurroundView3dSessionEEEEE",
   "self_type" : "_ZTIRN7android8hardware6ReturnINS_2spINS0_10automotive2sv4V1_022ISurroundView3dSessionEEEEE",
   "size" : 4,
   "source_file" : "/system/libhidl/base/include/hidl/Status.h"
  },
  {
   "alignment" : 4,
   "linker_set_key" : "_ZTIRN7android8hardware6ReturnIbEE",
   "name" : "android::hardware::Return<bool> &",
   "referenced_type" : "_ZTIN7android8hardware6ReturnIbEE",
   "self_type" : "_ZTIRN7android8hardware6ReturnIbEE",
   "size" : 4,
   "source_file" : "/system/libhidl/base/include/hidl/Status.h"
  },
  {
   "alignment" : 4,
   "linker_set_key" : "_ZTIRN7android8hardware6ReturnIvEE",
   "name" : "android::hardware::Return<void> &",
   "referenced_type" : "_ZTIN7android8hardware6ReturnIvEE",
   "self_type" : "_ZTIRN7android8hardware6ReturnIvEE",
   "size" : 4,
   "source_file" : "/system/libhidl/base/include/hidl/Status.h"
  },
  {
   "alignment" : 4,
   "linker_set_key" : "_ZTIRN7android8hardware6StatusE",
   "name" : "android::hardware::Status &",
   "referenced_type" : "_ZTIN7android8hardware6StatusE",
   "self_type" : "_ZTIRN7android8hardware6StatusE",
   "size" : 4,
   "source_file" : "/system/libhidl/base/include/hidl/Status.h"
  },
  {
   "alignment" : 4,
   "linker_set_key" : "_ZTIRN7android8hardware7details12hidl_pointerINS0_10automotive2sv4V1_08SvBufferEEE",
   "name" : "android::hardware::details::hidl_pointer<android::hardware::automotive::sv::V1_0::SvBuffer> &",
   "referenced_type" : "_ZTIN7android8hardware7details12hidl_pointerINS0_10automotive2sv4V1_08SvBufferEEE",
   "self_type" : "_ZTIRN7android8hardware7details12hidl_pointerINS0_10automotive2sv4V1_08SvBufferEEE",
   "size" : 4,
   "source_file" : "/system/libhidl/base/include/hidl/HidlInternal.h"
  },
  {
   "alignment" : 4,
   "linker_set_key" : "_ZTIRN7android8hardware7details12hidl_pointerINS0_10hidl_arrayIhLj32EJEEEEE",
   "name" : "android::hardware::details::hidl_pointer<android::hardware::hidl_array<unsigned char, 32> > &",
   "referenced_type" : "_ZTIN7android8hardware7details12hidl_pointerINS0_10hidl_arrayIhLj32EJEEEEE",
   "self_type" : "_ZTIRN7android8hardware7details12hidl_pointerINS0_10hidl_arrayIhLj32EJEEEEE",
   "size" : 4,
   "source_file" : "/system/libhidl/base/include/hidl/HidlInternal.h"
  },
  {
   "alignment" : 4,
   "linker_set_key" : "_ZTIRN7android8hardware7details12hidl_pointerINS0_11hidl_stringEEE",
   "name" : "android::hardware::details::hidl_pointer<android::hardware::hidl_string> &",
   "referenced_type" : "_ZTIN7android8hardware7details12hidl_pointerINS0_11hidl_stringEEE",
   "self_type" : "_ZTIRN7android8hardware7details12hidl_pointerINS0_11hidl_stringEEE",
   "size" : 4,
   "source_file" : "/system/libhidl/base/include/hidl/HidlInternal.h"
  },
  {
   "alignment" : 4,
   "linker_set_key" : "_ZTIRN7android8hardware8hidl_vecINS0_10automotive2sv4V1_08SvBufferEEE",
   "name" : "android::hardware::hidl_vec<android::hardware::automotive::sv::V1_0::SvBuffer> &",
   "referenced_type" : "_ZTIN7android8hardware8hidl_vecINS0_10automotive2sv4V1_08SvBufferEEE",
   "self_type" : "_ZTIRN7android8hardware8hidl_vecINS0_10automotive2sv4V1_08SvBufferEEE",
   "size" : 4,
   "source_file" : "/system/libhidl/base/include/hidl/HidlSupport.h"
  },
  {
   "alignment" : 4,
   "linker_set_key" : "_ZTIRN7android8hardware8hidl_vecINS0_10hidl_arrayIhLj32EJEEEEE",
   "name" : "android::hardware::hidl_vec<android::hardware::hidl_array<unsigned char, 32> > &",
   "referenced_type" : "_ZTIN7android8hardware8hidl_vecINS0_10hidl_arrayIhLj32EJEEEEE",
   "self_type" : "_ZTIRN7android8hardware8hidl_vecINS0_10hidl_arrayIhLj32EJEEEEE",
   "size" : 4,
   "source_file" : "/system/libhidl/base/include/hidl/HidlSupport.h"
  },
  {
   "alignment" : 4,
   "linker_set_key" : "_ZTIRN7android8hardware8hidl_vecINS0_11hidl_stringEEE",
   "name" : "android::hardware::hidl_vec<android::hardware::hidl_string> &",
   "referenced_type" : "_ZTIN7android8hardware8hidl_vecINS0_11hidl_stringEEE",
   "self_type" : "_ZTIRN7android8hardware8hidl_vecINS0_11hidl_stringEEE",
   "size" : 4,
   "source_file" : "/system/libhidl/base/include/hidl/HidlSupport.h"
  },
  {
   "alignment" : 4,
   "linker_set_key" : "_ZTIRh",
   "name" : "unsigned char &",
   "referenced_type" : "_ZTIh",
   "self_type" : "_ZTIRh",
   "size" : 4,
   "source_file" : "/out/soong/.intermediates/system/libhidl/transport/manager/1.0/android.hidl.manager@1.0_genc++_headers/gen/android/hidl/manager/1.0/IServiceManager.h"
  },
  {
   "alignment" : 4,
   "linker_set_key" : "_ZTIRi",
   "name" : "int &",
   "referenced_type" : "_ZTIi",
   "self_type" : "_ZTIRi",
   "size" : 4,
   "source_file" : "/out/soong/.intermediates/system/libhidl/transport/base/1.0/android.hidl.base@1.0_genc++_headers/gen/android/hidl/base/1.0/types.h"
  },
  {
   "alignment" : 4,
   "linker_set_key" : "_ZTIRj",
   "name" : "unsigned int &",
   "referenced_type" : "_ZTIj",
   "self_type" : "_ZTIRj",
   "size" : 4,
   "source_file" : "/out/soong/.intermediates/hardware/interfaces/automotive/sv/1.0/android.hardware.automotive.sv@1.0_genc++_headers/gen/android/hardware/automotive/sv/1.0/types.h"
  },
  {
   "alignment" : 4,
   "linker_set_key" : "_ZTIRy",
   "name" : "unsigned long long &",
   "referenced_type" : "_ZTIy",
   "self_type" : "_ZTIRy",
   "size" : 4,
   "source_file" : "/out/soong/.intermediates/hardware/interfaces/graphics/common/1.0/android.hardware.graphics.common@1.0_genc++_headers/gen/android/hardware/graphics/common/1.0/types.h"
  }
 ],
 "pointer_types" :
 [
  {
   "alignment" : 4,
   "linker_set_key" : "_ZTIP13native_handle",
   "name" : "native_handle *",
   "referenced_type" : "_ZTI13native_handle",
   "self_type" : "_ZTIP13native_handle",
   "size" : 4,
   "source_file" : "/system/libhidl/base/include/hidl/HidlInternal.h"
  },
  {
   "alignment" : 4,
   "linker_set_key" : "_ZTIP18android_flex_plane",
   "name" : "android_flex_plane *",
   "referenced_type" : "_ZTI18android_flex_plane",
   "self_type" : "_ZTIP18android_flex_plane",
   "size" : 4,
   "source_file" : "/system/core/libsystem/include/system/graphics.h"
  },
  {
   "alignment" : 4,
   "linker_set_key" : "_ZTIP7log_msg",
   "name" : "log_msg *",
   "referenced_type" : "_ZTI7log_msg",
   "self_type" : "_ZTIP7log_msg",
   "size" : 4,
   "source_file" : "/system/core/liblog/include/log/log_read.h"
  },
  {
   "alignment" : 4,
   "linker_set_key" : "_ZTIPFbRKN7android8String16ERKNS_2spINS_8hardware7IBinderEEEPvE",
   "name" : "bool (*)(const android::String16 &, const android::sp<android::hardware::IBinder> &, void *)",
   "referenced_type" : "_ZTIFbRKN7android8String16ERKNS_2spINS_8hardware7IBinderEEEPvE",
   "self_type" : "_ZTIPFbRKN7android8String16ERKNS_2spINS_8hardware7IBinderEEEPvE",
   "size" : 4,
   "source_file" : "/system/libhwbinder/include/hwbinder/ProcessState.h"
  },
  {
   "alignment" : 4,
   "linker_set_key" : "_ZTIPFiPvE",
   "name" : "int (*)(void *)",
   "referenced_type" : "_ZTIFiPvE",
   "self_type" : "_ZTIPFiPvE",
   "size" : 4,
   "source_file" : "/system/core/libutils/include/utils/AndroidThreads.h"
  },
  {
   "alignment" : 4,
   "linker_set_key" : "_ZTIPFvPN7android8hardware6ParcelEPKhjPKyjPvE",
   "name" : "void (*)(android::hardware::Parcel *, const unsigned char *, unsigned int, const unsigned long long *, unsigned int, void *)",
   "referenced_type" : "_ZTIFvPN7android8hardware6ParcelEPKhjPKyjPvE",
   "self_type" : "_ZTIPFvPN7android8hardware6ParcelEPKhjPKyjPvE",
   "size" : 4,
   "source_file" : "/system/libhwbinder/include/hwbinder/Parcel.h"
  },
  {
   "alignment" : 4,
   "linker_set_key" : "_ZTIPK13native_handle",
   "name" : "const native_handle *",
   "referenced_type" : "_ZTIK13native_handle",
   "self_type" : "_ZTIPK13native_handle",
   "size" : 4,
   "source_file" : "/system/libhidl/base/include/hidl/HidlInternal.h"
  },
  {
   "alignment" : 4,
   "linker_set_key" : "_ZTIPK7log_msg",
   "name" : "const log_msg *",
   "referenced_type" : "_ZTIK7log_msg",
   "self_type" : "_ZTIPK7log_msg",
   "size" : 4,
   "source_file" : "/system/core/liblog/include/log/log_read.h"
  },
  {
   "alignment" : 4,
   "linker_set_key" : "_ZTIPKDs",
   "name" : "const char16_t *",
   "referenced_type" : "_ZTIKDs",
   "self_type" : "_ZTIPKDs",
   "size" : 4,
   "source_file" : "/system/core/libutils/include/utils/String16.h"
  },
  {
   "alignment" : 4,
   "linker_set_key" : "_ZTIPKN7android10VectorImplE",
   "name" : "const android::VectorImpl *",
   "referenced_type" : "_ZTIKN7android10VectorImplE",
   "self_type" : "_ZTIPKN7android10VectorImplE",
   "size" : 4,
   "source_file" : "/system/core/libutils/include/utils/VectorImpl.h"
  },
  {
   "alignment" : 4,
   "linker_set_key" : "_ZTIPKN7android12NativeHandleE",
   "name" : "const android::NativeHandle *",
   "referenced_type" : "_ZTIKN7android12NativeHandleE",
   "self_type" : "_ZTIPKN7android12NativeHandleE",
   "size" : 4,
   "source_file" : "/system/core/libutils/include/utils/NativeHandle.h"
  },
  {
   "alignment" : 4,
   "linker_set_key" : "_ZTIPKN7android2spINS_4hidl4base4V1_05IBaseEEE",
   "name" : "const android::sp<android::hidl::base::V1_0::IBase> *",
   "referenced_type" : "_ZTIKN7android2spINS_4hidl4base4V1_05IBaseEEE",
   "self_type" : "_ZTIPKN7android2spINS_4hidl4base4V1_05IBaseEEE",
   "size" : 4,
   "source_file" : "/system/core/libutils/include/utils/StrongPointer.h"
  },
  {
   "alignment" : 4,
   "linker_set_key" : "_ZTIPKN7android2spINS_4hidl7manager4V1_015IServiceManagerEEE",
   "name" : "const android::sp<android::hidl::manager::V1_0::IServiceManager> *",
   "referenced_type" : "_ZTIKN7android2spINS_4hidl7manager4V1_015IServiceManagerEEE",
   "self_type" : "_ZTIPKN7android2spINS_4hidl7manager4V1_015IServiceManagerEEE",
   "size" : 4,
   "source_file" : "/system/core/libutils/include/utils/StrongPointer.h"
  },
  {
   "alignment" : 4,
   "linker_set_key" : "_ZTIPKN7android2spINS_4hidl7manager4V1_020IServiceNotificationEEE",
   "name" : "const android::sp<android::hidl::manager::V1_0::IServiceNotification> *",
   "referenced_type" : "_ZTIKN7android2spINS_4hidl7manager4V1_020IServiceNotificationEEE",
   "self_type" : "_ZTIPKN7android2spINS_4hidl7manager4V1_020IServiceNotificationEEE",
   "size" : 4,
   "source_file" : "/system/core/libutils/include/utils/StrongPointer.h"
  },
  {
   "alignment" : 4,
   "linker_set_key" : "_ZTIPKN7android2spINS_8hardware10automotive2sv4V1_019ISurroundViewStreamEEE",
   "name" : "const android::sp<android::hardware::automotive::sv::V1_0::ISurroundViewStream> *",
   "referenced_type" : "_ZTIKN7android2spINS_8hardware10automotive2sv4V1_019ISurroundViewStreamEEE",
   "self_type" : "_ZTIPKN7android2spINS_8hardware10automotive2sv4V1_019ISurroundViewStreamEEE",
   "size" : 4,
   "source_file" : "/system/core/libutils/include/utils/StrongPointer.h"
  },
  {
   "alignment" : 4,
   "linker_set_key" : "_ZTIPKN7android2spINS_8hardware10automotive2sv4V1_020ISurroundViewServiceEEE",
   "name" : "const android::sp<android::hardware::automotive::sv::V1_0::ISurroundViewService> *",
   "referenced_type" : "_ZTIKN7android2spINS_8hardware10automotive2sv4V1_020ISurroundViewServiceEEE",
   "self_type" : "_ZTIPKN7android2spINS_8hardware10automotive2sv4V1_020ISurroundViewServiceEEE",
   "size" : 4,
   "source_file" : "/system/core/libutils/include/utils/StrongPointer.h"
  },
  {
   "alignment" : 4,
   "linker_set_key" : "_ZTIPKN7android2spINS_8hardware10automotive2sv4V1_020ISurroundViewSessionEEE",
   "name" : "const android::sp<android::hardware::automotive::sv::V1_0::ISurroundViewSession> *",
   "referenced_type" : "_ZTIKN7android2spINS_8hardware10automotive2sv4V1_020ISurroundViewSessionEEE",
   "self_type" : "_ZTIPKN7android2spINS_8hardware10automotive2sv4V1_020ISurroundViewSessionEEE",
   "size" : 4,
   "source_file" : "/system/core/libutils/include/utils/StrongPointer.h"
  },
  {
   "alignment" : 4,
   "linker_set_key" : "_ZTIPKN7android2spINS_8hardware10automotive2sv4V1_022ISurroundView2dSessionEEE",
   "name" : "const android::sp<android::hardware::automotive::sv::V1_0::ISurroundView2dSession> *",
   "referenced_type" : "_ZTIKN7android2spINS_8hardware10automotive2sv4V1_022ISurroundView2dSessionEEE",
   "self_type" : "_ZTIPKN7android2spINS_8hardware10automotive2sv4V1_022ISurroundView2dSessionEEE",
   "size" : 4,
   "source_file" : "/system/core/libutils/include/utils/StrongPointer.h"
  },
  {
   "alignment" : 4,
   "linker_set_key" : "_ZTIPKN7android2spINS_8hardware10automotive2sv4V1_022ISurroundView3dSessionEEE",
   "name" : "const android::sp<android::hardware::automotive::sv::V1_0::ISurroundView3dSession> *",
   "referenced_type" : "_ZTIKN7android2spINS_8hardware10automotive2sv4V1_022ISurroundView3dSessionEEE",
   "self_type" : "_ZTIPKN7android2spINS_8hardware10automotive2sv4V1_022ISurroundView3dSessionEEE",
   "size" : 4,
   "source_file" : "/system/core/libutils/include/utils/StrongPointer.h"
  },
  {
   "alignment" : 4,
   "linker_set_key" : "_ZTIPKN7android2spINS_8hardware12ProcessStateEEE",
   "name" : "const android::sp<android::hardware::ProcessState> *",
   "referenced_type" : "_ZTIKN7android2spINS_8hardware12ProcessStateEEE",
   "self_type" : "_ZTIPKN7android2spINS_8hardware12ProcessStateEEE",
   "size" : 4,
   "source_file" : "/system/core/libutils/include/utils/StrongPointer.h"
  },
  {
   "alignment" : 4,
   "linker_set_key" : "_ZTIPKN7android2spINS_8hardware20hidl_death_recipientEEE",
   "name" : "const android::sp<android::hardware::hidl_death_recipient> *",
   "referenced_type" : "_ZTIKN7android2spINS_8hardware20hidl_death_recipientEEE",
   "self_type" : "_ZTIPKN7android2spINS_8hardware20hidl_death_recipientEEE",
   "size" : 4,
   "source_file" : "/system/core/libutils/include/utils/StrongPointer.h"
  },
  {
   "alignment" : 4,
   "linker_set_key" : "_ZTIPKN7android2spINS_8hardware27hidl_binder_death_recipientEEE",
   "name" : "const android::sp<android::hardware::hidl_binder_death_recipient> *",
   "referenced_type" : "_ZTIKN7android2spINS_8hardware27hidl_binder_death_recipientEEE",
   "self_type" : "_ZTIPKN7android2spINS_8hardware27hidl_binder_death_recipientEEE",
   "size" : 4,
   "source_file" : "/system/core/libutils/include/utils/StrongPointer.h"
  },
  {
   "alignment" : 4,
   "linker_set_key" : "_ZTIPKN7android2spINS_8hardware7IBinderEEE",
   "name" : "const android::sp<android::hardware::IBinder> *",
   "referenced_type" : "_ZTIKN7android2spINS_8hardware7IBinderEEE",
   "self_type" : "_ZTIPKN7android2spINS_8hardware7IBinderEEE",
   "size" : 4,
   "source_file" : "/system/core/libutils/include/utils/StrongPointer.h"
  },
  {
   "alignment" : 4,
   "linker_set_key" : "_ZTIPKN7android2wpINS_8hardware20hidl_death_recipientEEE",
   "name" : "const android::wp<android::hardware::hidl_death_recipient> *",
   "referenced_type" : "_ZTIKN7android2wpINS_8hardware20hidl_death_recipientEEE",
   "self_type" : "_ZTIPKN7android2wpINS_8hardware20hidl_death_recipientEEE",
   "size" : 4,
   "source_file" : "/system/core/libutils/include/utils/RefBase.h"
  },
  {
   "alignment" : 4,
   "linker_set_key" : "_ZTIPKN7android2wpINS_8hardware9BHwBinderEEE",
   "name" : "const android::wp<android::hardware::BHwBinder> *",
   "referenced_type" : "_ZTIKN7android2wpINS_8hardware9BHwBinderEEE",
   "self_type" : "_ZTIPKN7android2wpINS_8hardware9BHwBinderEEE",
   "size" : 4,
   "source_file" : "/system/core/libutils/include/utils/RefBase.h"
  },
  {
   "alignment" : 4,
   "linker_set_key" : "_ZTIPKN7android4hidl4base4V1_05IBaseE",
   "name" : "const android::hidl::base::V1_0::IBase *",
   "referenced_type" : "_ZTIKN7android4hidl4base4V1_05IBaseE",
   "self_type" : "_ZTIPKN7android4hidl4base4V1_05IBaseE",
   "size" : 4,
   "source_file" : "/out/soong/.intermediates/system/libhidl/transport/base/1.0/android.hidl.base@1.0_genc++_headers/gen/android/hidl/base/1.0/IBase.h"
  },
  {
   "alignment" : 4,
   "linker_set_key" : "_ZTIPKN7android4hidl4base4V1_08BpHwBaseE",
   "name" : "const android::hidl::base::V1_0::BpHwBase *",
   "referenced_type" : "_ZTIKN7android4hidl4base4V1_08BpHwBaseE",
   "self_type" : "_ZTIPKN7android4hidl4base4V1_08BpHwBaseE",
   "size" : 4,
   "source_file" : "/out/soong/.intermediates/system/libhidl/transport/base/1.0/android.hidl.base@1.0_genc++_headers/gen/android/hidl/base/1.0/BpHwBase.h"
  },
  {
   "alignment" : 4,
   "linker_set_key" : "_ZTIPKN7android4hidl7manager4V1_015IServiceManagerE",
   "name" : "const android::hidl::manager::V1_0::IServiceManager *",
   "referenced_type" : "_ZTIKN7android4hidl7manager4V1_015IServiceManagerE",
   "self_type" : "_ZTIPKN7android4hidl7manager4V1_015IServiceManagerE",
   "size" : 4,
   "source_file" : "/out/soong/.intermediates/system/libhidl/transport/manager/1.0/android.hidl.manager@1.0_genc++_headers/gen/android/hidl/manager/1.0/IServiceManager.h"
  },
  {
   "alignment" : 4,
   "linker_set_key" : "_ZTIPKN7android4hidl7manager4V1_020IServiceNotificationE",
   "name" : "const android::hidl::manager::V1_0::IServiceNotification *",
   "referenced_type" : "_ZTIKN7android4hidl7manager4V1_020IServiceNotificationE",
   "self_type" : "_ZTIPKN7android4hidl7manager4V1_020IServiceNotificationE",
   "size" : 4,
   "source_file" : "/out/soong/.intermediates/system/libhidl/transport/manager/1.0/android.hidl.manager@1.0_genc++_headers/gen/android/hidl/manager/1.0/IServiceNotification.h"
  },
  {
   "alignment" : 4,
   "linker_set_key" : "_ZTIPKN7android7RefBaseE",
   "name" : "const android::RefBase *",
   "referenced_type" : "_ZTIKN7android7RefBaseE",
   "self_type" : "_ZTIPKN7android7RefBaseE",
   "size" : 4,
   "source_file" : "/system/core/libutils/include/utils/RefBase.h"
  },
  {
   "alignment" : 4,
   "linker_set_key" : "_ZTIPKN7android7String8E",
   "name" : "const android::String8 *",
   "referenced_type" : "_ZTIKN7android7String8E",
   "self_type" : "_ZTIPKN7android7String8E",
   "size" : 4,
   "source_file" : "/system/core/libutils/include/utils/String8.h"
  },
  {
   "alignment" : 4,
   "linker_set_key" : "_ZTIPKN7android8String16E",
   "name" : "const android::String16 *",
   "referenced_type" : "_ZTIKN7android8String16E",
   "self_type" : "_ZTIPKN7android8String16E",
   "size" : 4,
   "source_file" : "/system/core/libutils/include/utils/String16.h"
  },
  {
   "alignment" : 4,
   "linker_set_key" : "_ZTIPKN7android8hardware10automotive2sv4V1_010Point2dIntE",
   "name" : "const android::hardware::automotive::sv::V1_0::Point2dInt *",
   "referenced_type" : "_ZTIKN7android8hardware10automotive2sv4V1_010Point2dIntE",
   "self_type" : "_ZTIPKN7android8hardware10automotive2sv4V1_010Point2dIntE",
   "size" : 4,
   "source_file" : "/system/libhidl/base/include/hidl/HidlSupport.h"
  },
  {
   "alignment" : 4,
   "linker_set_key" : "_ZTIPKN7android8hardware10automotive2sv4V1_012Point2dFloatE",
   "name" : "const android::hardware::automotive::sv::V1_0::Point2dFloat *",
   "referenced_type" : "_ZTIKN7android8hardware10automotive2sv4V1_012Point2dFloatE",
   "self_type" : "_ZTIPKN7android8hardware10automotive2sv4V1_012Point2dFloatE",
   "size" : 4,
   "source_file" : "/system/libhidl/base/include/hidl/HidlSupport.h"
  },
  {
   "alignment" : 4,
   "linker_set_key" : "_ZTIPKN7android8hardware10automotive2sv4V1_012Point3dFloatE",
   "name" : "const android::hardware::automotive::sv::V1_0::Point3dFloat *",
   "referenced_type" : "_ZTIKN7android8hardware10automotive2sv4V1_012Point3dFloatE",
   "self_type" : "_ZTIPKN7android8hardware10automotive2sv4V1_012Point3dFloatE",
   "size" : 4,
   "source_file" : "/system/libhidl/base/include/hidl/HidlSupport.h"
  },
  {
   "alignment" : 4,
   "linker_set_key" : "_ZTIPKN7android8hardware10automotive2sv4V1_017OverlayMemoryDescE",
   "name" : "const android::hardware::automotive::sv::V1_0::OverlayMemoryDesc *",
   "referenced_type" : "_ZTIKN7android8hardware10automotive2sv4V1_017OverlayMemoryDescE",
   "self_type" : "_ZTIPKN7android8hardware10automotive2sv4V1_017OverlayMemoryDescE",
   "size" : 4,
   "source_file" : "/system/libhidl/base/include/hidl/HidlSupport.h"
  },
  {
   "alignment" : 4,
   "linker_set_key" : "_ZTIPKN7android8hardware10automotive2sv4V1_019ISurroundViewStreamE",
   "name" : "const android::hardware::automotive::sv::V1_0::ISurroundViewStream *",
   "referenced_type" : "_ZTIKN7android8hardware10automotive2sv4V1_019ISurroundViewStreamE",
   "self_type" : "_ZTIPKN7android8hardware10automotive2sv4V1_019ISurroundViewStreamE",
   "size" : 4,
   "source_file" : "/out/soong/.intermediates/hardware/interfaces/automotive/sv/1.0/android.hardware.automotive.sv@1.0_genc++_headers/gen/android/hardware/automotive/sv/1.0/ISurroundViewStream.h"
  },
  {
   "alignment" : 4,
   "linker_set_key" : "_ZTIPKN7android8hardware10automotive2sv4V1_020ISurroundViewServiceE",
   "name" : "const android::hardware::automotive::sv::V1_0::ISurroundViewService *",
   "referenced_type" : "_ZTIKN7android8hardware10automotive2sv4V1_020ISurroundViewServiceE",
   "self_type" : "_ZTIPKN7android8hardware10automotive2sv4V1_020ISurroundViewServiceE",
   "size" : 4,
   "source_file" : "/out/soong/.intermediates/hardware/interfaces/automotive/sv/1.0/android.hardware.automotive.sv@1.0_genc++_headers/gen/android/hardware/automotive/sv/1.0/ISurroundViewService.h"
  },
  {
   "alignment" : 4,
   "linker_set_key" : "_ZTIPKN7android8hardware10automotive2sv4V1_020ISurroundViewSessionE",
   "name" : "const android::hardware::automotive::sv::V1_0::ISurroundViewSession *",
   "referenced_type" : "_ZTIKN7android8hardware10automotive2sv4V1_020ISurroundViewSessionE",
   "self_type" : "_ZTIPKN7android8hardware10automotive2sv4V1_020ISurroundViewSessionE",
   "size" : 4,
   "source_file" : "/out/soong/.intermediates/hardware/interfaces/automotive/sv/1.0/android.hardware.automotive.sv@1.0_genc++_headers/gen/android/hardware/automotive/sv/1.0/ISurroundViewSession.h"
  },
  {
   "alignment" : 4,
   "linker_set_key" : "_ZTIPKN7android8hardware10automotive2sv4V1_022BpHwSurroundViewStreamE",
   "name" : "const android::hardware::automotive::sv::V1_0::BpHwSurroundViewStream *",
   "referenced_type" : "_ZTIKN7android8hardware10automotive2sv4V1_022BpHwSurroundViewStreamE",
   "self_type" : "_ZTIPKN7android8hardware10automotive2sv4V1_022BpHwSurroundViewStreamE",
   "size" : 4,
   "source_file" : "/out/soong/.intermediates/hardware/interfaces/automotive/sv/1.0/android.hardware.automotive.sv@1.0_genc++_headers/gen/android/hardware/automotive/sv/1.0/BpHwSurroundViewStream.h"
  },
  {
   "alignment" : 4,
   "linker_set_key" : "_ZTIPKN7android8hardware10automotive2sv4V1_022ISurroundView2dSessionE",
   "name" : "const android::hardware::automotive::sv::V1_0::ISurroundView2dSession *",
