{
 "array_types" :
 [
  {
   "alignment" : 4,
   "linker_set_key" : "_ZTIA0_i",
   "name" : "int [0]",
   "referenced_type" : "_ZTIi",
   "self_type" : "_ZTIA0_i",
   "source_file" : "/system/core/libcutils/include/cutils/native_handle.h"
  },
  {
   "alignment" : 1,
   "linker_set_key" : "_ZTIA16_c",
   "name" : "char [16]",
   "referenced_type" : "_ZTIc",
   "self_type" : "_ZTIA16_c",
   "size" : 16,
   "source_file" : "/system/libhidl/transport/include/hidl/ConcurrentMap.h"
  },
  {
   "alignment" : 1,
   "linker_set_key" : "_ZTIA32_h",
   "name" : "unsigned char [32]",
   "referenced_type" : "_ZTIh",
   "self_type" : "_ZTIA32_h",
   "size" : 32,
   "source_file" : "/system/libhidl/base/include/hidl/HidlSupport.h"
  },
  {
   "alignment" : 1,
   "linker_set_key" : "_ZTIA3_h",
   "name" : "unsigned char [3]",
   "referenced_type" : "_ZTIh",
   "self_type" : "_ZTIA3_h",
   "size" : 3,
   "source_file" : "/system/libhidl/base/include/hidl/HidlSupport.h"
  },
  {
   "alignment" : 1,
   "linker_set_key" : "_ZTIA5121_h",
   "name" : "unsigned char [5121]",
   "referenced_type" : "_ZTIh",
   "self_type" : "_ZTIA5121_h",
   "size" : 5121,
   "source_file" : "/system/core/liblog/include/log/log_read.h"
  },
  {
   "alignment" : 1,
   "linker_set_key" : "_ZTIA7_h",
   "name" : "unsigned char [7]",
   "referenced_type" : "_ZTIh",
   "self_type" : "_ZTIA7_h",
   "size" : 7,
   "source_file" : "/system/libhidl/base/include/hidl/HidlSupport.h"
  },
  {
   "alignment" : 4,
   "linker_set_key" : "_ZTIA8_j",
   "name" : "unsigned int [8]",
   "referenced_type" : "_ZTIj",
   "self_type" : "_ZTIA8_j",
   "size" : 32,
   "source_file" : "/system/core/libsystem/include/system/graphics.h"
  },
  {
   "linker_set_key" : "_ZTIA_f",
   "name" : "float []",
   "referenced_type" : "_ZTIf",
   "self_type" : "_ZTIA_f",
   "source_file" : "/system/core/libsystem/include/system/graphics.h"
  }
 ],
 "builtin_types" :
 [
  {
   "alignment" : 2,
   "is_integral" : true,
   "is_unsigned" : true,
   "linker_set_key" : "_ZTIDs",
   "name" : "char16_t",
   "referenced_type" : "_ZTIDs",
   "self_type" : "_ZTIDs",
   "size" : 2
  },
  {
   "alignment" : 1,
   "is_integral" : true,
   "linker_set_key" : "_ZTIa",
   "name" : "signed char",
   "referenced_type" : "_ZTIa",
   "self_type" : "_ZTIa",
   "size" : 1
  },
  {
   "alignment" : 1,
   "is_integral" : true,
   "is_unsigned" : true,
   "linker_set_key" : "_ZTIb",
   "name" : "bool",
   "referenced_type" : "_ZTIb",
   "self_type" : "_ZTIb",
   "size" : 1
  },
  {
   "alignment" : 1,
   "is_integral" : true,
   "is_unsigned" : true,
   "linker_set_key" : "_ZTIc",
   "name" : "char",
   "referenced_type" : "_ZTIc",
   "self_type" : "_ZTIc",
   "size" : 1
  },
  {
   "alignment" : 8,
   "linker_set_key" : "_ZTId",
   "name" : "double",
   "referenced_type" : "_ZTId",
   "self_type" : "_ZTId",
   "size" : 8
  },
  {
   "alignment" : 4,
   "linker_set_key" : "_ZTIf",
   "name" : "float",
   "referenced_type" : "_ZTIf",
   "self_type" : "_ZTIf",
   "size" : 4
  },
  {
   "alignment" : 1,
   "is_integral" : true,
   "is_unsigned" : true,
   "linker_set_key" : "_ZTIh",
   "name" : "unsigned char",
   "referenced_type" : "_ZTIh",
   "self_type" : "_ZTIh",
   "size" : 1
  },
  {
   "alignment" : 4,
   "is_integral" : true,
   "linker_set_key" : "_ZTIi",
   "name" : "int",
   "referenced_type" : "_ZTIi",
   "self_type" : "_ZTIi",
   "size" : 4
  },
  {
   "alignment" : 4,
   "is_integral" : true,
   "is_unsigned" : true,
   "linker_set_key" : "_ZTIj",
   "name" : "unsigned int",
   "referenced_type" : "_ZTIj",
   "self_type" : "_ZTIj",
   "size" : 4
  },
  {
   "alignment" : 4,
   "is_integral" : true,
   "linker_set_key" : "_ZTIl",
   "name" : "long",
   "referenced_type" : "_ZTIl",
   "self_type" : "_ZTIl",
   "size" : 4
  },
  {
   "alignment" : 4,
   "is_integral" : true,
   "is_unsigned" : true,
   "linker_set_key" : "_ZTIm",
   "name" : "unsigned long",
   "referenced_type" : "_ZTIm",
   "self_type" : "_ZTIm",
   "size" : 4
  },
  {
   "alignment" : 2,
   "is_integral" : true,
   "linker_set_key" : "_ZTIs",
   "name" : "short",
   "referenced_type" : "_ZTIs",
   "self_type" : "_ZTIs",
   "size" : 2
  },
  {
   "alignment" : 2,
   "is_integral" : true,
   "is_unsigned" : true,
   "linker_set_key" : "_ZTIt",
   "name" : "unsigned short",
   "referenced_type" : "_ZTIt",
   "self_type" : "_ZTIt",
   "size" : 2
  },
  {
   "linker_set_key" : "_ZTIv",
   "name" : "void",
   "referenced_type" : "_ZTIv",
   "self_type" : "_ZTIv"
  },
  {
   "alignment" : 8,
   "is_integral" : true,
   "linker_set_key" : "_ZTIx",
   "name" : "long long",
   "referenced_type" : "_ZTIx",
   "self_type" : "_ZTIx",
   "size" : 8
  },
  {
   "alignment" : 8,
   "is_integral" : true,
   "is_unsigned" : true,
   "linker_set_key" : "_ZTIy",
   "name" : "unsigned long long",
   "referenced_type" : "_ZTIy",
   "self_type" : "_ZTIy",
   "size" : 8
  }
 ],
 "elf_functions" :
 [
  {
   "binding" : "weak",
   "name" : "_ZN7android2spINS_8hardware14neuralnetworks4V1_318IExecutionCallbackEEaSEOS5_"
  },
  {
   "binding" : "weak",
   "name" : "_ZN7android2spINS_8hardware14neuralnetworks4V1_322IPreparedModelCallbackEEaSEOS5_"
  },
  {
   "binding" : "weak",
   "name" : "_ZN7android8hardware10fromBinderINS0_14neuralnetworks4V1_314IPreparedModelENS3_17BpHwPreparedModelENS3_17BnHwPreparedModelEEENS_2spIT_EERKNS7_INS0_7IBinderEEE"
  },
  {
   "binding" : "weak",
   "name" : "_ZN7android8hardware10fromBinderINS0_14neuralnetworks4V1_318IExecutionCallbackENS3_21BpHwExecutionCallbackENS3_21BnHwExecutionCallbackEEENS_2spIT_EERKNS7_INS0_7IBinderEEE"
  },
  {
   "binding" : "weak",
   "name" : "_ZN7android8hardware10fromBinderINS0_14neuralnetworks4V1_322IPreparedModelCallbackENS3_25BpHwPreparedModelCallbackENS3_25BnHwPreparedModelCallbackEEENS_2spIT_EERKNS7_INS0_7IBinderEEE"
  },
  {
   "binding" : "weak",
   "name" : "_ZN7android8hardware10fromBinderINS0_14neuralnetworks4V1_324IFencedExecutionCallbackENS3_27BpHwFencedExecutionCallbackENS3_27BnHwFencedExecutionCallbackEEENS_2spIT_EERKNS7_INS0_7IBinderEEE"
  },
  {
   "binding" : "weak",
   "name" : "_ZN7android8hardware10fromBinderINS0_14neuralnetworks4V1_37IBufferENS3_10BpHwBufferENS3_10BnHwBufferEEENS_2spIT_EERKNS7_INS0_7IBinderEEE"
  },
  {
   "name" : "_ZN7android8hardware14neuralnetworks4V1_310BnHwBuffer10onTransactEjRKNS0_6ParcelEPS4_jNSt3__18functionIFvRS4_EEE"
  },
  {
   "name" : "_ZN7android8hardware14neuralnetworks4V1_310BnHwBuffer12_hidl_copyToEPNS_4hidl4base4V1_08BnHwBaseERKNS0_6ParcelEPS9_NSt3__18functionIFvRS9_EEE"
  },
  {
   "name" : "_ZN7android8hardware14neuralnetworks4V1_310BnHwBuffer12getDebugInfoENSt3__18functionIFvRKNS_4hidl4base4V1_09DebugInfoEEEE"
  },
  {
   "name" : "_ZN7android8hardware14neuralnetworks4V1_310BnHwBuffer14_hidl_copyFromEPNS_4hidl4base4V1_08BnHwBaseERKNS0_6ParcelEPS9_NSt3__18functionIFvRS9_EEE"
  },
  {
   "name" : "_ZN7android8hardware14neuralnetworks4V1_310BnHwBuffer4pingEv"
  },
  {
   "name" : "_ZN7android8hardware14neuralnetworks4V1_310BnHwBufferC1ERKNS_2spINS2_7IBufferEEE"
  },
  {
   "name" : "_ZN7android8hardware14neuralnetworks4V1_310BnHwBufferC2ERKNS_2spINS2_7IBufferEEE"
  },
  {
   "name" : "_ZN7android8hardware14neuralnetworks4V1_310BnHwBufferD0Ev"
  },
  {
   "name" : "_ZN7android8hardware14neuralnetworks4V1_310BnHwBufferD1Ev"
  },
  {
   "name" : "_ZN7android8hardware14neuralnetworks4V1_310BnHwBufferD2Ev"
  },
  {
   "name" : "_ZN7android8hardware14neuralnetworks4V1_310BnHwDevice10onTransactEjRKNS0_6ParcelEPS4_jNSt3__18functionIFvRS4_EEE"
  },
  {
   "name" : "_ZN7android8hardware14neuralnetworks4V1_310BnHwDevice12getDebugInfoENSt3__18functionIFvRKNS_4hidl4base4V1_09DebugInfoEEEE"
  },
  {
   "name" : "_ZN7android8hardware14neuralnetworks4V1_310BnHwDevice14_hidl_allocateEPNS_4hidl4base4V1_08BnHwBaseERKNS0_6ParcelEPS9_NSt3__18functionIFvRS9_EEE"
  },
  {
   "name" : "_ZN7android8hardware14neuralnetworks4V1_310BnHwDevice22_hidl_prepareModel_1_3EPNS_4hidl4base4V1_08BnHwBaseERKNS0_6ParcelEPS9_NSt3__18functionIFvRS9_EEE"
  },
  {
   "name" : "_ZN7android8hardware14neuralnetworks4V1_310BnHwDevice25_hidl_getCapabilities_1_3EPNS_4hidl4base4V1_08BnHwBaseERKNS0_6ParcelEPS9_NSt3__18functionIFvRS9_EEE"
  },
  {
   "name" : "_ZN7android8hardware14neuralnetworks4V1_310BnHwDevice31_hidl_prepareModelFromCache_1_3EPNS_4hidl4base4V1_08BnHwBaseERKNS0_6ParcelEPS9_NSt3__18functionIFvRS9_EEE"
  },
  {
   "name" : "_ZN7android8hardware14neuralnetworks4V1_310BnHwDevice32_hidl_getSupportedOperations_1_3EPNS_4hidl4base4V1_08BnHwBaseERKNS0_6ParcelEPS9_NSt3__18functionIFvRS9_EEE"
  },
  {
   "name" : "_ZN7android8hardware14neuralnetworks4V1_310BnHwDevice4pingEv"
  },
  {
   "name" : "_ZN7android8hardware14neuralnetworks4V1_310BnHwDeviceC1ERKNS_2spINS2_7IDeviceEEE"
  },
  {
   "name" : "_ZN7android8hardware14neuralnetworks4V1_310BnHwDeviceC2ERKNS_2spINS2_7IDeviceEEE"
  },
  {
   "name" : "_ZN7android8hardware14neuralnetworks4V1_310BnHwDeviceD0Ev"
  },
  {
   "name" : "_ZN7android8hardware14neuralnetworks4V1_310BnHwDeviceD1Ev"
  },
  {
   "name" : "_ZN7android8hardware14neuralnetworks4V1_310BnHwDeviceD2Ev"
  },
  {
   "name" : "_ZN7android8hardware14neuralnetworks4V1_310BpHwBuffer11linkToDeathERKNS_2spINS0_20hidl_death_recipientEEEy"
  },
  {
   "name" : "_ZN7android8hardware14neuralnetworks4V1_310BpHwBuffer12_hidl_copyToEPNS0_10IInterfaceEPNS0_7details16HidlInstrumentorERKNS0_11hidl_memoryE"
  },
  {
   "name" : "_ZN7android8hardware14neuralnetworks4V1_310BpHwBuffer12getDebugInfoENSt3__18functionIFvRKNS_4hidl4base4V1_09DebugInfoEEEE"
  },
  {
   "name" : "_ZN7android8hardware14neuralnetworks4V1_310BpHwBuffer12getHashChainENSt3__18functionIFvRKNS0_8hidl_vecINS0_10hidl_arrayIhLj32EJEEEEEEEE"
  },
  {
   "name" : "_ZN7android8hardware14neuralnetworks4V1_310BpHwBuffer13unlinkToDeathERKNS_2spINS0_20hidl_death_recipientEEE"
  },
  {
   "name" : "_ZN7android8hardware14neuralnetworks4V1_310BpHwBuffer14_hidl_copyFromEPNS0_10IInterfaceEPNS0_7details16HidlInstrumentorERKNS0_11hidl_memoryERKNS0_8hidl_vecIjEE"
  },
  {
   "name" : "_ZN7android8hardware14neuralnetworks4V1_310BpHwBuffer14interfaceChainENSt3__18functionIFvRKNS0_8hidl_vecINS0_11hidl_stringEEEEEE"
  },
  {
   "name" : "_ZN7android8hardware14neuralnetworks4V1_310BpHwBuffer15onLastStrongRefEPKv"
  },
  {
   "name" : "_ZN7android8hardware14neuralnetworks4V1_310BpHwBuffer19interfaceDescriptorENSt3__18functionIFvRKNS0_11hidl_stringEEEE"
  },
  {
   "name" : "_ZN7android8hardware14neuralnetworks4V1_310BpHwBuffer21notifySyspropsChangedEv"
  },
  {
   "name" : "_ZN7android8hardware14neuralnetworks4V1_310BpHwBuffer21setHALInstrumentationEv"
  },
  {
   "name" : "_ZN7android8hardware14neuralnetworks4V1_310BpHwBuffer4pingEv"
  },
  {
   "name" : "_ZN7android8hardware14neuralnetworks4V1_310BpHwBuffer5debugERKNS0_11hidl_handleERKNS0_8hidl_vecINS0_11hidl_stringEEE"
  },
  {
   "name" : "_ZN7android8hardware14neuralnetworks4V1_310BpHwBuffer6copyToERKNS0_11hidl_memoryE"
  },
  {
   "name" : "_ZN7android8hardware14neuralnetworks4V1_310BpHwBuffer8copyFromERKNS0_11hidl_memoryERKNS0_8hidl_vecIjEE"
  },
  {
   "name" : "_ZN7android8hardware14neuralnetworks4V1_310BpHwBufferC1ERKNS_2spINS0_7IBinderEEE"
  },
  {
   "name" : "_ZN7android8hardware14neuralnetworks4V1_310BpHwBufferC2ERKNS_2spINS0_7IBinderEEE"
  },
  {
   "name" : "_ZN7android8hardware14neuralnetworks4V1_310BpHwDevice11linkToDeathERKNS_2spINS0_20hidl_death_recipientEEEy"
  },
  {
   "name" : "_ZN7android8hardware14neuralnetworks4V1_310BpHwDevice12getDebugInfoENSt3__18functionIFvRKNS_4hidl4base4V1_09DebugInfoEEEE"
  },
  {
   "name" : "_ZN7android8hardware14neuralnetworks4V1_310BpHwDevice12getHashChainENSt3__18functionIFvRKNS0_8hidl_vecINS0_10hidl_arrayIhLj32EJEEEEEEEE"
  },
  {
   "name" : "_ZN7android8hardware14neuralnetworks4V1_310BpHwDevice12prepareModelERKNS1_4V1_05ModelERKNS_2spINS4_22IPreparedModelCallbackEEE"
  },
  {
   "name" : "_ZN7android8hardware14neuralnetworks4V1_310BpHwDevice13unlinkToDeathERKNS_2spINS0_20hidl_death_recipientEEE"
  },
  {
   "name" : "_ZN7android8hardware14neuralnetworks4V1_310BpHwDevice14_hidl_allocateEPNS0_10IInterfaceEPNS0_7details16HidlInstrumentorERKNS2_10BufferDescERKNS0_8hidl_vecINS_2spINS2_14IPreparedModelEEEEERKNSC_INS2_10BufferRoleEEESM_NSt3__18functionIFvNS2_11ErrorStatusERKNSD_INS2_7IBufferEEEjEEE"
  },
  {
   "name" : "_ZN7android8hardware14neuralnetworks4V1_310BpHwDevice14interfaceChainENSt3__18functionIFvRKNS0_8hidl_vecINS0_11hidl_stringEEEEEE"
  },
  {
   "name" : "_ZN7android8hardware14neuralnetworks4V1_310BpHwDevice15getCapabilitiesENSt3__18functionIFvNS1_4V1_011ErrorStatusERKNS6_12CapabilitiesEEEE"
  },
  {
   "name" : "_ZN7android8hardware14neuralnetworks4V1_310BpHwDevice15onLastStrongRefEPKv"
  },
  {
   "name" : "_ZN7android8hardware14neuralnetworks4V1_310BpHwDevice16getVersionStringENSt3__18functionIFvNS1_4V1_011ErrorStatusERKNS0_11hidl_stringEEEE"
  },
  {
   "name" : "_ZN7android8hardware14neuralnetworks4V1_310BpHwDevice16prepareModel_1_1ERKNS1_4V1_15ModelENS4_19ExecutionPreferenceERKNS_2spINS1_4V1_022IPreparedModelCallbackEEE"
  },
  {
   "name" : "_ZN7android8hardware14neuralnetworks4V1_310BpHwDevice16prepareModel_1_2ERKNS1_4V1_25ModelENS1_4V1_119ExecutionPreferenceERKNS0_8hidl_vecINS0_11hidl_handleEEESE_RKNS0_10hidl_arrayIhLj32EJEEERKNS_2spINS4_22IPreparedModelCallbackEEE"
  },
  {
   "name" : "_ZN7android8hardware14neuralnetworks4V1_310BpHwDevice16prepareModel_1_3ERKNS2_5ModelENS1_4V1_119ExecutionPreferenceENS2_8PriorityERKNS2_17OptionalTimePointERKNS0_8hidl_vecINS0_11hidl_handleEEESH_RKNS0_10hidl_arrayIhLj32EJEEERKNS_2spINS2_22IPreparedModelCallbackEEE"
  },
  {
   "name" : "_ZN7android8hardware14neuralnetworks4V1_310BpHwDevice19getCapabilities_1_1ENSt3__18functionIFvNS1_4V1_011ErrorStatusERKNS1_4V1_112CapabilitiesEEEE"
  },
  {
   "name" : "_ZN7android8hardware14neuralnetworks4V1_310BpHwDevice19getCapabilities_1_2ENSt3__18functionIFvNS1_4V1_011ErrorStatusERKNS1_4V1_212CapabilitiesEEEE"
  },
  {
   "name" : "_ZN7android8hardware14neuralnetworks4V1_310BpHwDevice19getCapabilities_1_3ENSt3__18functionIFvNS2_11ErrorStatusERKNS2_12CapabilitiesEEEE"
  },
  {
   "name" : "_ZN7android8hardware14neuralnetworks4V1_310BpHwDevice19interfaceDescriptorENSt3__18functionIFvRKNS0_11hidl_stringEEEE"
  },
  {
   "name" : "_ZN7android8hardware14neuralnetworks4V1_310BpHwDevice21notifySyspropsChangedEv"
  },
  {
   "name" : "_ZN7android8hardware14neuralnetworks4V1_310BpHwDevice21prepareModelFromCacheERKNS0_8hidl_vecINS0_11hidl_handleEEES8_RKNS0_10hidl_arrayIhLj32EJEEERKNS_2spINS1_4V1_222IPreparedModelCallbackEEE"
  },
  {
   "name" : "_ZN7android8hardware14neuralnetworks4V1_310BpHwDevice21setHALInstrumentationEv"
  },
  {
   "name" : "_ZN7android8hardware14neuralnetworks4V1_310BpHwDevice22_hidl_prepareModel_1_3EPNS0_10IInterfaceEPNS0_7details16HidlInstrumentorERKNS2_5ModelENS1_4V1_119ExecutionPreferenceENS2_8PriorityERKNS2_17OptionalTimePointERKNS0_8hidl_vecINS0_11hidl_handleEEESM_RKNS0_10hidl_arrayIhLj32EJEEERKNS_2spINS2_22IPreparedModelCallbackEEE"
  },
  {
   "name" : "_ZN7android8hardware14neuralnetworks4V1_310BpHwDevice22getSupportedExtensionsENSt3__18functionIFvNS1_4V1_011ErrorStatusERKNS0_8hidl_vecINS1_4V1_29ExtensionEEEEEE"
  },
  {
   "name" : "_ZN7android8hardware14neuralnetworks4V1_310BpHwDevice22getSupportedOperationsERKNS1_4V1_05ModelENSt3__18functionIFvNS4_11ErrorStatusERKNS0_8hidl_vecIbEEEEE"
  },
  {
   "name" : "_ZN7android8hardware14neuralnetworks4V1_310BpHwDevice25_hidl_getCapabilities_1_3EPNS0_10IInterfaceEPNS0_7details16HidlInstrumentorENSt3__18functionIFvNS2_11ErrorStatusERKNS2_12CapabilitiesEEEE"
  },
  {
   "name" : "_ZN7android8hardware14neuralnetworks4V1_310BpHwDevice25prepareModelFromCache_1_3ERKNS2_17OptionalTimePointERKNS0_8hidl_vecINS0_11hidl_handleEEESB_RKNS0_10hidl_arrayIhLj32EJEEERKNS_2spINS2_22IPreparedModelCallbackEEE"
  },
  {
   "name" : "_ZN7android8hardware14neuralnetworks4V1_310BpHwDevice26getSupportedOperations_1_1ERKNS1_4V1_15ModelENSt3__18functionIFvNS1_4V1_011ErrorStatusERKNS0_8hidl_vecIbEEEEE"
  },
  {
   "name" : "_ZN7android8hardware14neuralnetworks4V1_310BpHwDevice26getSupportedOperations_1_2ERKNS1_4V1_25ModelENSt3__18functionIFvNS1_4V1_011ErrorStatusERKNS0_8hidl_vecIbEEEEE"
  },
  {
   "name" : "_ZN7android8hardware14neuralnetworks4V1_310BpHwDevice26getSupportedOperations_1_3ERKNS2_5ModelENSt3__18functionIFvNS2_11ErrorStatusERKNS0_8hidl_vecIbEEEEE"
  },
  {
   "name" : "_ZN7android8hardware14neuralnetworks4V1_310BpHwDevice27getNumberOfCacheFilesNeededENSt3__18functionIFvNS1_4V1_011ErrorStatusEjjEEE"
  },
  {
   "name" : "_ZN7android8hardware14neuralnetworks4V1_310BpHwDevice31_hidl_prepareModelFromCache_1_3EPNS0_10IInterfaceEPNS0_7details16HidlInstrumentorERKNS2_17OptionalTimePointERKNS0_8hidl_vecINS0_11hidl_handleEEESG_RKNS0_10hidl_arrayIhLj32EJEEERKNS_2spINS2_22IPreparedModelCallbackEEE"
  },
  {
   "name" : "_ZN7android8hardware14neuralnetworks4V1_310BpHwDevice32_hidl_getSupportedOperations_1_3EPNS0_10IInterfaceEPNS0_7details16HidlInstrumentorERKNS2_5ModelENSt3__18functionIFvNS2_11ErrorStatusERKNS0_8hidl_vecIbEEEEE"
  },
  {
   "name" : "_ZN7android8hardware14neuralnetworks4V1_310BpHwDevice4pingEv"
  },
  {
   "name" : "_ZN7android8hardware14neuralnetworks4V1_310BpHwDevice5debugERKNS0_11hidl_handleERKNS0_8hidl_vecINS0_11hidl_stringEEE"
  },
  {
   "name" : "_ZN7android8hardware14neuralnetworks4V1_310BpHwDevice7getTypeENSt3__18functionIFvNS1_4V1_011ErrorStatusENS1_4V1_210DeviceTypeEEEE"
  },
  {
   "name" : "_ZN7android8hardware14neuralnetworks4V1_310BpHwDevice8allocateERKNS2_10BufferDescERKNS0_8hidl_vecINS_2spINS2_14IPreparedModelEEEEERKNS7_INS2_10BufferRoleEEESH_NSt3__18functionIFvNS2_11ErrorStatusERKNS8_INS2_7IBufferEEEjEEE"
  },
  {
   "name" : "_ZN7android8hardware14neuralnetworks4V1_310BpHwDevice9getStatusEv"
  },
  {
   "name" : "_ZN7android8hardware14neuralnetworks4V1_310BpHwDeviceC1ERKNS_2spINS0_7IBinderEEE"
  },
  {
   "name" : "_ZN7android8hardware14neuralnetworks4V1_310BpHwDeviceC2ERKNS_2spINS0_7IBinderEEE"
  },
  {
   "name" : "_ZN7android8hardware14neuralnetworks4V1_314IPreparedModel10getServiceERKNSt3__112basic_stringIcNS4_11char_traitsIcEENS4_9allocatorIcEEEEb"
  },
  {
   "name" : "_ZN7android8hardware14neuralnetworks4V1_314IPreparedModel11linkToDeathERKNS_2spINS0_20hidl_death_recipientEEEy"
  },
  {
   "name" : "_ZN7android8hardware14neuralnetworks4V1_314IPreparedModel12getDebugInfoENSt3__18functionIFvRKNS_4hidl4base4V1_09DebugInfoEEEE"
  },
  {
   "name" : "_ZN7android8hardware14neuralnetworks4V1_314IPreparedModel12getHashChainENSt3__18functionIFvRKNS0_8hidl_vecINS0_10hidl_arrayIhLj32EJEEEEEEEE"
  },
  {
   "name" : "_ZN7android8hardware14neuralnetworks4V1_314IPreparedModel13tryGetServiceERKNSt3__112basic_stringIcNS4_11char_traitsIcEENS4_9allocatorIcEEEEb"
  },
  {
   "name" : "_ZN7android8hardware14neuralnetworks4V1_314IPreparedModel13unlinkToDeathERKNS_2spINS0_20hidl_death_recipientEEE"
  },
  {
   "name" : "_ZN7android8hardware14neuralnetworks4V1_314IPreparedModel14interfaceChainENSt3__18functionIFvRKNS0_8hidl_vecINS0_11hidl_stringEEEEEE"
  },
  {
   "name" : "_ZN7android8hardware14neuralnetworks4V1_314IPreparedModel17registerAsServiceERKNSt3__112basic_stringIcNS4_11char_traitsIcEENS4_9allocatorIcEEEE"
  },
  {
   "name" : "_ZN7android8hardware14neuralnetworks4V1_314IPreparedModel19interfaceDescriptorENSt3__18functionIFvRKNS0_11hidl_stringEEEE"
  },
  {
   "name" : "_ZN7android8hardware14neuralnetworks4V1_314IPreparedModel21notifySyspropsChangedEv"
  },
  {
   "name" : "_ZN7android8hardware14neuralnetworks4V1_314IPreparedModel21setHALInstrumentationEv"
  },
  {
   "name" : "_ZN7android8hardware14neuralnetworks4V1_314IPreparedModel24registerForNotificationsERKNSt3__112basic_stringIcNS4_11char_traitsIcEENS4_9allocatorIcEEEERKNS_2spINS_4hidl7manager4V1_020IServiceNotificationEEE"
  },
  {
   "name" : "_ZN7android8hardware14neuralnetworks4V1_314IPreparedModel4pingEv"
  },
  {
   "name" : "_ZN7android8hardware14neuralnetworks4V1_314IPreparedModel5debugERKNS0_11hidl_handleERKNS0_8hidl_vecINS0_11hidl_stringEEE"
  },
  {
   "name" : "_ZN7android8hardware14neuralnetworks4V1_314IPreparedModel8castFromERKNS_2spINS1_4V1_014IPreparedModelEEEb"
  },
  {
   "name" : "_ZN7android8hardware14neuralnetworks4V1_314IPreparedModel8castFromERKNS_2spINS1_4V1_214IPreparedModelEEEb"
  },
  {
   "name" : "_ZN7android8hardware14neuralnetworks4V1_314IPreparedModel8castFromERKNS_2spINS_4hidl4base4V1_05IBaseEEEb"
  },
  {
   "name" : "_ZN7android8hardware14neuralnetworks4V1_314IPreparedModel8castFromERKNS_2spIS3_EEb"
  },
  {
   "name" : "_ZN7android8hardware14neuralnetworks4V1_315BsPreparedModel13addOnewayTaskENSt3__18functionIFvvEEE"
  },
  {
   "name" : "_ZN7android8hardware14neuralnetworks4V1_315BsPreparedModelC1ENS_2spINS2_14IPreparedModelEEE"
  },
  {
   "name" : "_ZN7android8hardware14neuralnetworks4V1_315BsPreparedModelC2ENS_2spINS2_14IPreparedModelEEE"
  },
  {
   "name" : "_ZN7android8hardware14neuralnetworks4V1_317BnHwPreparedModel10onTransactEjRKNS0_6ParcelEPS4_jNSt3__18functionIFvRS4_EEE"
  },
  {
   "name" : "_ZN7android8hardware14neuralnetworks4V1_317BnHwPreparedModel12getDebugInfoENSt3__18functionIFvRKNS_4hidl4base4V1_09DebugInfoEEEE"
  },
  {
   "name" : "_ZN7android8hardware14neuralnetworks4V1_317BnHwPreparedModel17_hidl_execute_1_3EPNS_4hidl4base4V1_08BnHwBaseERKNS0_6ParcelEPS9_NSt3__18functionIFvRS9_EEE"
  },
  {
   "name" : "_ZN7android8hardware14neuralnetworks4V1_317BnHwPreparedModel19_hidl_executeFencedEPNS_4hidl4base4V1_08BnHwBaseERKNS0_6ParcelEPS9_NSt3__18functionIFvRS9_EEE"
  },
  {
   "name" : "_ZN7android8hardware14neuralnetworks4V1_317BnHwPreparedModel30_hidl_executeSynchronously_1_3EPNS_4hidl4base4V1_08BnHwBaseERKNS0_6ParcelEPS9_NSt3__18functionIFvRS9_EEE"
  },
  {
   "name" : "_ZN7android8hardware14neuralnetworks4V1_317BnHwPreparedModel4pingEv"
  },
  {
   "name" : "_ZN7android8hardware14neuralnetworks4V1_317BnHwPreparedModelC1ERKNS_2spINS2_14IPreparedModelEEE"
  },
  {
   "name" : "_ZN7android8hardware14neuralnetworks4V1_317BnHwPreparedModelC2ERKNS_2spINS2_14IPreparedModelEEE"
  },
  {
   "name" : "_ZN7android8hardware14neuralnetworks4V1_317BnHwPreparedModelD0Ev"
  },
  {
   "name" : "_ZN7android8hardware14neuralnetworks4V1_317BnHwPreparedModelD1Ev"
  },
  {
   "name" : "_ZN7android8hardware14neuralnetworks4V1_317BnHwPreparedModelD2Ev"
  },
  {
   "name" : "_ZN7android8hardware14neuralnetworks4V1_317BpHwPreparedModel11execute_1_2ERKNS1_4V1_07RequestENS1_4V1_213MeasureTimingERKNS_2spINS8_18IExecutionCallbackEEE"
  },
  {
   "name" : "_ZN7android8hardware14neuralnetworks4V1_317BpHwPreparedModel11execute_1_3ERKNS2_7RequestENS1_4V1_213MeasureTimingERKNS2_17OptionalTimePointERKNS2_23OptionalTimeoutDurationERKNS_2spINS2_18IExecutionCallbackEEE"
  },
  {
   "name" : "_ZN7android8hardware14neuralnetworks4V1_317BpHwPreparedModel11linkToDeathERKNS_2spINS0_20hidl_death_recipientEEEy"
  },
  {
   "name" : "_ZN7android8hardware14neuralnetworks4V1_317BpHwPreparedModel12getDebugInfoENSt3__18functionIFvRKNS_4hidl4base4V1_09DebugInfoEEEE"
  },
  {
   "name" : "_ZN7android8hardware14neuralnetworks4V1_317BpHwPreparedModel12getHashChainENSt3__18functionIFvRKNS0_8hidl_vecINS0_10hidl_arrayIhLj32EJEEEEEEEE"
  },
  {
   "name" : "_ZN7android8hardware14neuralnetworks4V1_317BpHwPreparedModel13executeFencedERKNS2_7RequestERKNS0_8hidl_vecINS0_11hidl_handleEEENS1_4V1_213MeasureTimingERKNS2_17OptionalTimePointERKNS2_23OptionalTimeoutDurationESJ_NSt3__18functionIFvNS2_11ErrorStatusERKS8_RKNS_2spINS2_24IFencedExecutionCallbackEEEEEE"
  },
  {
   "name" : "_ZN7android8hardware14neuralnetworks4V1_317BpHwPreparedModel13unlinkToDeathERKNS_2spINS0_20hidl_death_recipientEEE"
  },
  {
   "name" : "_ZN7android8hardware14neuralnetworks4V1_317BpHwPreparedModel14interfaceChainENSt3__18functionIFvRKNS0_8hidl_vecINS0_11hidl_stringEEEEEE"
  },
  {
   "name" : "_ZN7android8hardware14neuralnetworks4V1_317BpHwPreparedModel15onLastStrongRefEPKv"
  },
  {
   "name" : "_ZN7android8hardware14neuralnetworks4V1_317BpHwPreparedModel17_hidl_execute_1_3EPNS0_10IInterfaceEPNS0_7details16HidlInstrumentorERKNS2_7RequestENS1_4V1_213MeasureTimingERKNS2_17OptionalTimePointERKNS2_23OptionalTimeoutDurationERKNS_2spINS2_18IExecutionCallbackEEE"
  },
  {
   "name" : "_ZN7android8hardware14neuralnetworks4V1_317BpHwPreparedModel19_hidl_executeFencedEPNS0_10IInterfaceEPNS0_7details16HidlInstrumentorERKNS2_7RequestERKNS0_8hidl_vecINS0_11hidl_handleEEENS1_4V1_213MeasureTimingERKNS2_17OptionalTimePointERKNS2_23OptionalTimeoutDurationESO_NSt3__18functionIFvNS2_11ErrorStatusERKSD_RKNS_2spINS2_24IFencedExecutionCallbackEEEEEE"
  },
  {
   "name" : "_ZN7android8hardware14neuralnetworks4V1_317BpHwPreparedModel19interfaceDescriptorENSt3__18functionIFvRKNS0_11hidl_stringEEEE"
  },
  {
   "name" : "_ZN7android8hardware14neuralnetworks4V1_317BpHwPreparedModel20executeSynchronouslyERKNS1_4V1_07RequestENS1_4V1_213MeasureTimingENSt3__18functionIFvNS4_11ErrorStatusERKNS0_8hidl_vecINS8_11OutputShapeEEERKNS8_6TimingEEEE"
  },
  {
   "name" : "_ZN7android8hardware14neuralnetworks4V1_317BpHwPreparedModel21notifySyspropsChangedEv"
  },
  {
   "name" : "_ZN7android8hardware14neuralnetworks4V1_317BpHwPreparedModel21setHALInstrumentationEv"
  },
  {
   "name" : "_ZN7android8hardware14neuralnetworks4V1_317BpHwPreparedModel23configureExecutionBurstERKNS_2spINS1_4V1_214IBurstCallbackEEERKNS0_12MQDescriptorINS5_15FmqRequestDatumELNS0_8MQFlavorE1EEERKNSA_INS5_14FmqResultDatumELSC_1EEENSt3__18functionIFvNS1_4V1_011ErrorStatusERKNS4_INS5_13IBurstContextEEEEEE"
  },
  {
   "name" : "_ZN7android8hardware14neuralnetworks4V1_317BpHwPreparedModel24executeSynchronously_1_3ERKNS2_7RequestENS1_4V1_213MeasureTimingERKNS2_17OptionalTimePointERKNS2_23OptionalTimeoutDurationENSt3__18functionIFvNS2_11ErrorStatusERKNS0_8hidl_vecINS7_11OutputShapeEEERKNS7_6TimingEEEE"
  },
  {
   "name" : "_ZN7android8hardware14neuralnetworks4V1_317BpHwPreparedModel30_hidl_executeSynchronously_1_3EPNS0_10IInterfaceEPNS0_7details16HidlInstrumentorERKNS2_7RequestENS1_4V1_213MeasureTimingERKNS2_17OptionalTimePointERKNS2_23OptionalTimeoutDurationENSt3__18functionIFvNS2_11ErrorStatusERKNS0_8hidl_vecINSC_11OutputShapeEEERKNSC_6TimingEEEE"
  },
  {
   "name" : "_ZN7android8hardware14neuralnetworks4V1_317BpHwPreparedModel4pingEv"
  },
  {
   "name" : "_ZN7android8hardware14neuralnetworks4V1_317BpHwPreparedModel5debugERKNS0_11hidl_handleERKNS0_8hidl_vecINS0_11hidl_stringEEE"
  },
  {
   "name" : "_ZN7android8hardware14neuralnetworks4V1_317BpHwPreparedModel7executeERKNS1_4V1_07RequestERKNS_2spINS4_18IExecutionCallbackEEE"
  },
  {
   "name" : "_ZN7android8hardware14neuralnetworks4V1_317BpHwPreparedModelC1ERKNS_2spINS0_7IBinderEEE"
  },
  {
   "name" : "_ZN7android8hardware14neuralnetworks4V1_317BpHwPreparedModelC2ERKNS_2spINS0_7IBinderEEE"
  },
  {
   "name" : "_ZN7android8hardware14neuralnetworks4V1_317OptionalTimePoint10hidl_unionC1Ev"
  },
  {
   "name" : "_ZN7android8hardware14neuralnetworks4V1_317OptionalTimePoint10hidl_unionC2Ev"
  },
  {
   "name" : "_ZN7android8hardware14neuralnetworks4V1_317OptionalTimePoint10hidl_unionD1Ev"
  },
  {
   "name" : "_ZN7android8hardware14neuralnetworks4V1_317OptionalTimePoint10hidl_unionD2Ev"
  },
  {
   "name" : "_ZN7android8hardware14neuralnetworks4V1_317OptionalTimePoint18hidl_destructUnionEv"
  },
  {
   "name" : "_ZN7android8hardware14neuralnetworks4V1_317OptionalTimePoint21nanosecondsSinceEpochEv"
  },
  {
   "name" : "_ZN7android8hardware14neuralnetworks4V1_317OptionalTimePoint21nanosecondsSinceEpochEy"
  },
  {
   "name" : "_ZN7android8hardware14neuralnetworks4V1_317OptionalTimePoint4noneEONS_4hidl10safe_union4V1_09MonostateE"
  },
  {
   "name" : "_ZN7android8hardware14neuralnetworks4V1_317OptionalTimePoint4noneERKNS_4hidl10safe_union4V1_09MonostateE"
  },
  {
   "name" : "_ZN7android8hardware14neuralnetworks4V1_317OptionalTimePoint4noneEv"
  },
  {
   "name" : "_ZN7android8hardware14neuralnetworks4V1_317OptionalTimePointC1EOS3_"
  },
  {
   "name" : "_ZN7android8hardware14neuralnetworks4V1_317OptionalTimePointC1ERKS3_"
  },
  {
   "name" : "_ZN7android8hardware14neuralnetworks4V1_317OptionalTimePointC1Ev"
  },
  {
   "name" : "_ZN7android8hardware14neuralnetworks4V1_317OptionalTimePointC2EOS3_"
  },
  {
   "name" : "_ZN7android8hardware14neuralnetworks4V1_317OptionalTimePointC2ERKS3_"
  },
  {
   "name" : "_ZN7android8hardware14neuralnetworks4V1_317OptionalTimePointC2Ev"
  },
  {
   "name" : "_ZN7android8hardware14neuralnetworks4V1_317OptionalTimePointD1Ev"
  },
  {
   "name" : "_ZN7android8hardware14neuralnetworks4V1_317OptionalTimePointD2Ev"
  },
  {
   "name" : "_ZN7android8hardware14neuralnetworks4V1_317OptionalTimePointaSEOS3_"
  },
  {
   "name" : "_ZN7android8hardware14neuralnetworks4V1_317OptionalTimePointaSERKS3_"
  },
  {
   "name" : "_ZN7android8hardware14neuralnetworks4V1_318IExecutionCallback10getServiceERKNSt3__112basic_stringIcNS4_11char_traitsIcEENS4_9allocatorIcEEEEb"
  },
  {
   "name" : "_ZN7android8hardware14neuralnetworks4V1_318IExecutionCallback11linkToDeathERKNS_2spINS0_20hidl_death_recipientEEEy"
  },
  {
   "name" : "_ZN7android8hardware14neuralnetworks4V1_318IExecutionCallback12getDebugInfoENSt3__18functionIFvRKNS_4hidl4base4V1_09DebugInfoEEEE"
  },
  {
   "name" : "_ZN7android8hardware14neuralnetworks4V1_318IExecutionCallback12getHashChainENSt3__18functionIFvRKNS0_8hidl_vecINS0_10hidl_arrayIhLj32EJEEEEEEEE"
  },
  {
   "name" : "_ZN7android8hardware14neuralnetworks4V1_318IExecutionCallback13tryGetServiceERKNSt3__112basic_stringIcNS4_11char_traitsIcEENS4_9allocatorIcEEEEb"
  },
  {
   "name" : "_ZN7android8hardware14neuralnetworks4V1_318IExecutionCallback13unlinkToDeathERKNS_2spINS0_20hidl_death_recipientEEE"
  },
  {
   "name" : "_ZN7android8hardware14neuralnetworks4V1_318IExecutionCallback14interfaceChainENSt3__18functionIFvRKNS0_8hidl_vecINS0_11hidl_stringEEEEEE"
  },
  {
   "name" : "_ZN7android8hardware14neuralnetworks4V1_318IExecutionCallback17registerAsServiceERKNSt3__112basic_stringIcNS4_11char_traitsIcEENS4_9allocatorIcEEEE"
  },
  {
   "name" : "_ZN7android8hardware14neuralnetworks4V1_318IExecutionCallback19interfaceDescriptorENSt3__18functionIFvRKNS0_11hidl_stringEEEE"
  },
  {
   "name" : "_ZN7android8hardware14neuralnetworks4V1_318IExecutionCallback21notifySyspropsChangedEv"
  },
  {
   "name" : "_ZN7android8hardware14neuralnetworks4V1_318IExecutionCallback21setHALInstrumentationEv"
  },
  {
   "name" : "_ZN7android8hardware14neuralnetworks4V1_318IExecutionCallback24registerForNotificationsERKNSt3__112basic_stringIcNS4_11char_traitsIcEENS4_9allocatorIcEEEERKNS_2spINS_4hidl7manager4V1_020IServiceNotificationEEE"
  },
  {
   "name" : "_ZN7android8hardware14neuralnetworks4V1_318IExecutionCallback4pingEv"
  },
  {
   "name" : "_ZN7android8hardware14neuralnetworks4V1_318IExecutionCallback5debugERKNS0_11hidl_handleERKNS0_8hidl_vecINS0_11hidl_stringEEE"
  },
  {
   "name" : "_ZN7android8hardware14neuralnetworks4V1_318IExecutionCallback8castFromERKNS_2spINS1_4V1_018IExecutionCallbackEEEb"
  },
  {
   "name" : "_ZN7android8hardware14neuralnetworks4V1_318IExecutionCallback8castFromERKNS_2spINS1_4V1_218IExecutionCallbackEEEb"
  },
  {
   "name" : "_ZN7android8hardware14neuralnetworks4V1_318IExecutionCallback8castFromERKNS_2spINS_4hidl4base4V1_05IBaseEEEb"
  },
  {
   "name" : "_ZN7android8hardware14neuralnetworks4V1_318IExecutionCallback8castFromERKNS_2spIS3_EEb"
  },
  {
   "name" : "_ZN7android8hardware14neuralnetworks4V1_319BsExecutionCallback13addOnewayTaskENSt3__18functionIFvvEEE"
  },
  {
   "name" : "_ZN7android8hardware14neuralnetworks4V1_319BsExecutionCallbackC1ENS_2spINS2_18IExecutionCallbackEEE"
  },
  {
   "name" : "_ZN7android8hardware14neuralnetworks4V1_319BsExecutionCallbackC2ENS_2spINS2_18IExecutionCallbackEEE"
  },
  {
   "name" : "_ZN7android8hardware14neuralnetworks4V1_321BnHwExecutionCallback10onTransactEjRKNS0_6ParcelEPS4_jNSt3__18functionIFvRS4_EEE"
  },
  {
   "name" : "_ZN7android8hardware14neuralnetworks4V1_321BnHwExecutionCallback12getDebugInfoENSt3__18functionIFvRKNS_4hidl4base4V1_09DebugInfoEEEE"
  },
  {
   "name" : "_ZN7android8hardware14neuralnetworks4V1_321BnHwExecutionCallback16_hidl_notify_1_3EPNS_4hidl4base4V1_08BnHwBaseERKNS0_6ParcelEPS9_NSt3__18functionIFvRS9_EEE"
  },
  {
   "name" : "_ZN7android8hardware14neuralnetworks4V1_321BnHwExecutionCallback4pingEv"
  },
  {
   "name" : "_ZN7android8hardware14neuralnetworks4V1_321BnHwExecutionCallbackC1ERKNS_2spINS2_18IExecutionCallbackEEE"
  },
  {
   "name" : "_ZN7android8hardware14neuralnetworks4V1_321BnHwExecutionCallbackC2ERKNS_2spINS2_18IExecutionCallbackEEE"
  },
  {
   "name" : "_ZN7android8hardware14neuralnetworks4V1_321BnHwExecutionCallbackD0Ev"
  },
  {
   "name" : "_ZN7android8hardware14neuralnetworks4V1_321BnHwExecutionCallbackD1Ev"
  },
  {
   "name" : "_ZN7android8hardware14neuralnetworks4V1_321BnHwExecutionCallbackD2Ev"
  },
  {
   "name" : "_ZN7android8hardware14neuralnetworks4V1_321BpHwExecutionCallback10notify_1_2ENS1_4V1_011ErrorStatusERKNS0_8hidl_vecINS1_4V1_211OutputShapeEEERKNS7_6TimingE"
  },
  {
   "name" : "_ZN7android8hardware14neuralnetworks4V1_321BpHwExecutionCallback10notify_1_3ENS2_11ErrorStatusERKNS0_8hidl_vecINS1_4V1_211OutputShapeEEERKNS6_6TimingE"
  },
  {
   "name" : "_ZN7android8hardware14neuralnetworks4V1_321BpHwExecutionCallback11linkToDeathERKNS_2spINS0_20hidl_death_recipientEEEy"
  },
  {
   "name" : "_ZN7android8hardware14neuralnetworks4V1_321BpHwExecutionCallback12getDebugInfoENSt3__18functionIFvRKNS_4hidl4base4V1_09DebugInfoEEEE"
  },
  {
   "name" : "_ZN7android8hardware14neuralnetworks4V1_321BpHwExecutionCallback12getHashChainENSt3__18functionIFvRKNS0_8hidl_vecINS0_10hidl_arrayIhLj32EJEEEEEEEE"
  },
  {
   "name" : "_ZN7android8hardware14neuralnetworks4V1_321BpHwExecutionCallback13unlinkToDeathERKNS_2spINS0_20hidl_death_recipientEEE"
  },
  {
   "name" : "_ZN7android8hardware14neuralnetworks4V1_321BpHwExecutionCallback14interfaceChainENSt3__18functionIFvRKNS0_8hidl_vecINS0_11hidl_stringEEEEEE"
  },
  {
   "name" : "_ZN7android8hardware14neuralnetworks4V1_321BpHwExecutionCallback15onLastStrongRefEPKv"
  },
  {
   "name" : "_ZN7android8hardware14neuralnetworks4V1_321BpHwExecutionCallback16_hidl_notify_1_3EPNS0_10IInterfaceEPNS0_7details16HidlInstrumentorENS2_11ErrorStatusERKNS0_8hidl_vecINS1_4V1_211OutputShapeEEERKNSB_6TimingE"
  },
  {
   "name" : "_ZN7android8hardware14neuralnetworks4V1_321BpHwExecutionCallback19interfaceDescriptorENSt3__18functionIFvRKNS0_11hidl_stringEEEE"
  },
  {
   "name" : "_ZN7android8hardware14neuralnetworks4V1_321BpHwExecutionCallback21notifySyspropsChangedEv"
  },
  {
   "name" : "_ZN7android8hardware14neuralnetworks4V1_321BpHwExecutionCallback21setHALInstrumentationEv"
  },
  {
   "name" : "_ZN7android8hardware14neuralnetworks4V1_321BpHwExecutionCallback4pingEv"
  },
  {
   "name" : "_ZN7android8hardware14neuralnetworks4V1_321BpHwExecutionCallback5debugERKNS0_11hidl_handleERKNS0_8hidl_vecINS0_11hidl_stringEEE"
  },
  {
   "name" : "_ZN7android8hardware14neuralnetworks4V1_321BpHwExecutionCallback6notifyENS1_4V1_011ErrorStatusE"
  },
  {
   "name" : "_ZN7android8hardware14neuralnetworks4V1_321BpHwExecutionCallbackC1ERKNS_2spINS0_7IBinderEEE"
  },
  {
   "name" : "_ZN7android8hardware14neuralnetworks4V1_321BpHwExecutionCallbackC2ERKNS_2spINS0_7IBinderEEE"
  },
  {
   "name" : "_ZN7android8hardware14neuralnetworks4V1_321writeEmbeddedToParcelERKNS2_10BufferDescEPNS0_6ParcelEjj"
  },
  {
   "name" : "_ZN7android8hardware14neuralnetworks4V1_321writeEmbeddedToParcelERKNS2_12CapabilitiesEPNS0_6ParcelEjj"
  },
  {
   "name" : "_ZN7android8hardware14neuralnetworks4V1_321writeEmbeddedToParcelERKNS2_5ModelEPNS0_6ParcelEjj"
  },
  {
   "name" : "_ZN7android8hardware14neuralnetworks4V1_321writeEmbeddedToParcelERKNS2_7OperandEPNS0_6ParcelEjj"
  },
  {
   "name" : "_ZN7android8hardware14neuralnetworks4V1_321writeEmbeddedToParcelERKNS2_7Request10MemoryPoolEPNS0_6ParcelEjj"
  },
  {
   "name" : "_ZN7android8hardware14neuralnetworks4V1_321writeEmbeddedToParcelERKNS2_7RequestEPNS0_6ParcelEjj"
  },
  {
   "name" : "_ZN7android8hardware14neuralnetworks4V1_321writeEmbeddedToParcelERKNS2_8SubgraphEPNS0_6ParcelEjj"
  },
  {
   "name" : "_ZN7android8hardware14neuralnetworks4V1_321writeEmbeddedToParcelERKNS2_9OperationEPNS0_6ParcelEjj"
  },
  {
   "name" : "_ZN7android8hardware14neuralnetworks4V1_322IPreparedModelCallback10getServiceERKNSt3__112basic_stringIcNS4_11char_traitsIcEENS4_9allocatorIcEEEEb"
  },
  {
   "name" : "_ZN7android8hardware14neuralnetworks4V1_322IPreparedModelCallback11linkToDeathERKNS_2spINS0_20hidl_death_recipientEEEy"
  },
  {
   "name" : "_ZN7android8hardware14neuralnetworks4V1_322IPreparedModelCallback12getDebugInfoENSt3__18functionIFvRKNS_4hidl4base4V1_09DebugInfoEEEE"
  },
  {
   "name" : "_ZN7android8hardware14neuralnetworks4V1_322IPreparedModelCallback12getHashChainENSt3__18functionIFvRKNS0_8hidl_vecINS0_10hidl_arrayIhLj32EJEEEEEEEE"
  },
  {
   "name" : "_ZN7android8hardware14neuralnetworks4V1_322IPreparedModelCallback13tryGetServiceERKNSt3__112basic_stringIcNS4_11char_traitsIcEENS4_9allocatorIcEEEEb"
  },
  {
   "name" : "_ZN7android8hardware14neuralnetworks4V1_322IPreparedModelCallback13unlinkToDeathERKNS_2spINS0_20hidl_death_recipientEEE"
  },
  {
   "name" : "_ZN7android8hardware14neuralnetworks4V1_322IPreparedModelCallback14interfaceChainENSt3__18functionIFvRKNS0_8hidl_vecINS0_11hidl_stringEEEEEE"
  },
  {
   "name" : "_ZN7android8hardware14neuralnetworks4V1_322IPreparedModelCallback17registerAsServiceERKNSt3__112basic_stringIcNS4_11char_traitsIcEENS4_9allocatorIcEEEE"
  },
  {
   "name" : "_ZN7android8hardware14neuralnetworks4V1_322IPreparedModelCallback19interfaceDescriptorENSt3__18functionIFvRKNS0_11hidl_stringEEEE"
  },
  {
   "name" : "_ZN7android8hardware14neuralnetworks4V1_322IPreparedModelCallback21notifySyspropsChangedEv"
  },
  {
   "name" : "_ZN7android8hardware14neuralnetworks4V1_322IPreparedModelCallback21setHALInstrumentationEv"
  },
  {
   "name" : "_ZN7android8hardware14neuralnetworks4V1_322IPreparedModelCallback24registerForNotificationsERKNSt3__112basic_stringIcNS4_11char_traitsIcEENS4_9allocatorIcEEEERKNS_2spINS_4hidl7manager4V1_020IServiceNotificationEEE"
  },
  {
   "name" : "_ZN7android8hardware14neuralnetworks4V1_322IPreparedModelCallback4pingEv"
  },
  {
   "name" : "_ZN7android8hardware14neuralnetworks4V1_322IPreparedModelCallback5debugERKNS0_11hidl_handleERKNS0_8hidl_vecINS0_11hidl_stringEEE"
  },
  {
   "name" : "_ZN7android8hardware14neuralnetworks4V1_322IPreparedModelCallback8castFromERKNS_2spINS1_4V1_022IPreparedModelCallbackEEEb"
  },
  {
   "name" : "_ZN7android8hardware14neuralnetworks4V1_322IPreparedModelCallback8castFromERKNS_2spINS1_4V1_222IPreparedModelCallbackEEEb"
  },
  {
   "name" : "_ZN7android8hardware14neuralnetworks4V1_322IPreparedModelCallback8castFromERKNS_2spINS_4hidl4base4V1_05IBaseEEEb"
  },
  {
   "name" : "_ZN7android8hardware14neuralnetworks4V1_322IPreparedModelCallback8castFromERKNS_2spIS3_EEb"
  },
  {
   "name" : "_ZN7android8hardware14neuralnetworks4V1_322readEmbeddedFromParcelERKNS2_10BufferDescERKNS0_6ParcelEjj"
  },
  {
   "name" : "_ZN7android8hardware14neuralnetworks4V1_322readEmbeddedFromParcelERKNS2_12CapabilitiesERKNS0_6ParcelEjj"
  },
  {
   "name" : "_ZN7android8hardware14neuralnetworks4V1_322readEmbeddedFromParcelERKNS2_5ModelERKNS0_6ParcelEjj"
  },
  {
   "name" : "_ZN7android8hardware14neuralnetworks4V1_322readEmbeddedFromParcelERKNS2_7OperandERKNS0_6ParcelEjj"
  },
  {
   "name" : "_ZN7android8hardware14neuralnetworks4V1_322readEmbeddedFromParcelERKNS2_7Request10MemoryPoolERKNS0_6ParcelEjj"
  },
  {
   "name" : "_ZN7android8hardware14neuralnetworks4V1_322readEmbeddedFromParcelERKNS2_7RequestERKNS0_6ParcelEjj"
  },
  {
   "name" : "_ZN7android8hardware14neuralnetworks4V1_322readEmbeddedFromParcelERKNS2_8SubgraphERKNS0_6ParcelEjj"
  },
  {
   "name" : "_ZN7android8hardware14neuralnetworks4V1_322readEmbeddedFromParcelERKNS2_9OperationERKNS0_6ParcelEjj"
  },
  {
   "name" : "_ZN7android8hardware14neuralnetworks4V1_323BsPreparedModelCallback13addOnewayTaskENSt3__18functionIFvvEEE"
  },
  {
   "name" : "_ZN7android8hardware14neuralnetworks4V1_323BsPreparedModelCallbackC1ENS_2spINS2_22IPreparedModelCallbackEEE"
  },
  {
   "name" : "_ZN7android8hardware14neuralnetworks4V1_323BsPreparedModelCallbackC2ENS_2spINS2_22IPreparedModelCallbackEEE"
  },
  {
   "name" : "_ZN7android8hardware14neuralnetworks4V1_323OptionalTimeoutDuration10hidl_unionC1Ev"
  },
  {
   "name" : "_ZN7android8hardware14neuralnetworks4V1_323OptionalTimeoutDuration10hidl_unionC2Ev"
  },
  {
   "name" : "_ZN7android8hardware14neuralnetworks4V1_323OptionalTimeoutDuration10hidl_unionD1Ev"
  },
  {
   "name" : "_ZN7android8hardware14neuralnetworks4V1_323OptionalTimeoutDuration10hidl_unionD2Ev"
  },
  {
   "name" : "_ZN7android8hardware14neuralnetworks4V1_323OptionalTimeoutDuration11nanosecondsEv"
  },
  {
   "name" : "_ZN7android8hardware14neuralnetworks4V1_323OptionalTimeoutDuration11nanosecondsEy"
  },
  {
   "name" : "_ZN7android8hardware14neuralnetworks4V1_323OptionalTimeoutDuration18hidl_destructUnionEv"
  },
  {
   "name" : "_ZN7android8hardware14neuralnetworks4V1_323OptionalTimeoutDuration4noneEONS_4hidl10safe_union4V1_09MonostateE"
  },
  {
   "name" : "_ZN7android8hardware14neuralnetworks4V1_323OptionalTimeoutDuration4noneERKNS_4hidl10safe_union4V1_09MonostateE"
  },
  {
   "name" : "_ZN7android8hardware14neuralnetworks4V1_323OptionalTimeoutDuration4noneEv"
  },
  {
   "name" : "_ZN7android8hardware14neuralnetworks4V1_323OptionalTimeoutDurationC1EOS3_"
  },
  {
   "name" : "_ZN7android8hardware14neuralnetworks4V1_323OptionalTimeoutDurationC1ERKS3_"
  },
  {
   "name" : "_ZN7android8hardware14neuralnetworks4V1_323OptionalTimeoutDurationC1Ev"
  },
  {
   "name" : "_ZN7android8hardware14neuralnetworks4V1_323OptionalTimeoutDurationC2EOS3_"
  },
  {
   "name" : "_ZN7android8hardware14neuralnetworks4V1_323OptionalTimeoutDurationC2ERKS3_"
  },
  {
   "name" : "_ZN7android8hardware14neuralnetworks4V1_323OptionalTimeoutDurationC2Ev"
  },
  {
   "name" : "_ZN7android8hardware14neuralnetworks4V1_323OptionalTimeoutDurationD1Ev"
  },
  {
   "name" : "_ZN7android8hardware14neuralnetworks4V1_323OptionalTimeoutDurationD2Ev"
  },
  {
   "name" : "_ZN7android8hardware14neuralnetworks4V1_323OptionalTimeoutDurationaSEOS3_"
  },
  {
   "name" : "_ZN7android8hardware14neuralnetworks4V1_323OptionalTimeoutDurationaSERKS3_"
  },
  {
   "name" : "_ZN7android8hardware14neuralnetworks4V1_324IFencedExecutionCallback10getServiceERKNSt3__112basic_stringIcNS4_11char_traitsIcEENS4_9allocatorIcEEEEb"
  },
  {
   "name" : "_ZN7android8hardware14neuralnetworks4V1_324IFencedExecutionCallback11linkToDeathERKNS_2spINS0_20hidl_death_recipientEEEy"
  },
  {
   "name" : "_ZN7android8hardware14neuralnetworks4V1_324IFencedExecutionCallback12getDebugInfoENSt3__18functionIFvRKNS_4hidl4base4V1_09DebugInfoEEEE"
  },
  {
   "name" : "_ZN7android8hardware14neuralnetworks4V1_324IFencedExecutionCallback12getHashChainENSt3__18functionIFvRKNS0_8hidl_vecINS0_10hidl_arrayIhLj32EJEEEEEEEE"
  },
  {
   "name" : "_ZN7android8hardware14neuralnetworks4V1_324IFencedExecutionCallback13tryGetServiceERKNSt3__112basic_stringIcNS4_11char_traitsIcEENS4_9allocatorIcEEEEb"
  },
  {
   "name" : "_ZN7android8hardware14neuralnetworks4V1_324IFencedExecutionCallback13unlinkToDeathERKNS_2spINS0_20hidl_death_recipientEEE"
  },
  {
   "name" : "_ZN7android8hardware14neuralnetworks4V1_324IFencedExecutionCallback14interfaceChainENSt3__18functionIFvRKNS0_8hidl_vecINS0_11hidl_stringEEEEEE"
  },
  {
   "name" : "_ZN7android8hardware14neuralnetworks4V1_324IFencedExecutionCallback17registerAsServiceERKNSt3__112basic_stringIcNS4_11char_traitsIcEENS4_9allocatorIcEEEE"
  },
  {
   "name" : "_ZN7android8hardware14neuralnetworks4V1_324IFencedExecutionCallback19interfaceDescriptorENSt3__18functionIFvRKNS0_11hidl_stringEEEE"
  },
  {
   "name" : "_ZN7android8hardware14neuralnetworks4V1_324IFencedExecutionCallback21notifySyspropsChangedEv"
  },
  {
   "name" : "_ZN7android8hardware14neuralnetworks4V1_324IFencedExecutionCallback21setHALInstrumentationEv"
  },
  {
   "name" : "_ZN7android8hardware14neuralnetworks4V1_324IFencedExecutionCallback24registerForNotificationsERKNSt3__112basic_stringIcNS4_11char_traitsIcEENS4_9allocatorIcEEEERKNS_2spINS_4hidl7manager4V1_020IServiceNotificationEEE"
  },
  {
   "name" : "_ZN7android8hardware14neuralnetworks4V1_324IFencedExecutionCallback4pingEv"
  },
  {
   "name" : "_ZN7android8hardware14neuralnetworks4V1_324IFencedExecutionCallback5debugERKNS0_11hidl_handleERKNS0_8hidl_vecINS0_11hidl_stringEEE"
  },
  {
   "name" : "_ZN7android8hardware14neuralnetworks4V1_324IFencedExecutionCallback8castFromERKNS_2spINS_4hidl4base4V1_05IBaseEEEb"
  },
  {
   "name" : "_ZN7android8hardware14neuralnetworks4V1_324IFencedExecutionCallback8castFromERKNS_2spIS3_EEb"
  },
  {
   "name" : "_ZN7android8hardware14neuralnetworks4V1_325BnHwPreparedModelCallback10onTransactEjRKNS0_6ParcelEPS4_jNSt3__18functionIFvRS4_EEE"
  },
  {
   "name" : "_ZN7android8hardware14neuralnetworks4V1_325BnHwPreparedModelCallback12getDebugInfoENSt3__18functionIFvRKNS_4hidl4base4V1_09DebugInfoEEEE"
  },
  {
   "name" : "_ZN7android8hardware14neuralnetworks4V1_325BnHwPreparedModelCallback16_hidl_notify_1_3EPNS_4hidl4base4V1_08BnHwBaseERKNS0_6ParcelEPS9_NSt3__18functionIFvRS9_EEE"
  },
  {
   "name" : "_ZN7android8hardware14neuralnetworks4V1_325BnHwPreparedModelCallback4pingEv"
  },
  {
   "name" : "_ZN7android8hardware14neuralnetworks4V1_325BnHwPreparedModelCallbackC1ERKNS_2spINS2_22IPreparedModelCallbackEEE"
  },
  {
   "name" : "_ZN7android8hardware14neuralnetworks4V1_325BnHwPreparedModelCallbackC2ERKNS_2spINS2_22IPreparedModelCallbackEEE"
  },
  {
   "name" : "_ZN7android8hardware14neuralnetworks4V1_325BnHwPreparedModelCallbackD0Ev"
  },
  {
   "name" : "_ZN7android8hardware14neuralnetworks4V1_325BnHwPreparedModelCallbackD1Ev"
  },
  {
   "name" : "_ZN7android8hardware14neuralnetworks4V1_325BnHwPreparedModelCallbackD2Ev"
  },
  {
   "name" : "_ZN7android8hardware14neuralnetworks4V1_325BpHwPreparedModelCallback10notify_1_2ENS1_4V1_011ErrorStatusERKNS_2spINS1_4V1_214IPreparedModelEEE"
  },
  {
   "name" : "_ZN7android8hardware14neuralnetworks4V1_325BpHwPreparedModelCallback10notify_1_3ENS2_11ErrorStatusERKNS_2spINS2_14IPreparedModelEEE"
  },
  {
   "name" : "_ZN7android8hardware14neuralnetworks4V1_325BpHwPreparedModelCallback11linkToDeathERKNS_2spINS0_20hidl_death_recipientEEEy"
  },
  {
   "name" : "_ZN7android8hardware14neuralnetworks4V1_325BpHwPreparedModelCallback12getDebugInfoENSt3__18functionIFvRKNS_4hidl4base4V1_09DebugInfoEEEE"
  },
  {
   "name" : "_ZN7android8hardware14neuralnetworks4V1_325BpHwPreparedModelCallback12getHashChainENSt3__18functionIFvRKNS0_8hidl_vecINS0_10hidl_arrayIhLj32EJEEEEEEEE"
  },
  {
   "name" : "_ZN7android8hardware14neuralnetworks4V1_325BpHwPreparedModelCallback13unlinkToDeathERKNS_2spINS0_20hidl_death_recipientEEE"
  },
  {
   "name" : "_ZN7android8hardware14neuralnetworks4V1_325BpHwPreparedModelCallback14interfaceChainENSt3__18functionIFvRKNS0_8hidl_vecINS0_11hidl_stringEEEEEE"
  },
  {
   "name" : "_ZN7android8hardware14neuralnetworks4V1_325BpHwPreparedModelCallback15onLastStrongRefEPKv"
  },
  {
   "name" : "_ZN7android8hardware14neuralnetworks4V1_325BpHwPreparedModelCallback16_hidl_notify_1_3EPNS0_10IInterfaceEPNS0_7details16HidlInstrumentorENS2_11ErrorStatusERKNS_2spINS2_14IPreparedModelEEE"
  },
  {
   "name" : "_ZN7android8hardware14neuralnetworks4V1_325BpHwPreparedModelCallback19interfaceDescriptorENSt3__18functionIFvRKNS0_11hidl_stringEEEE"
  },
  {
   "name" : "_ZN7android8hardware14neuralnetworks4V1_325BpHwPreparedModelCallback21notifySyspropsChangedEv"
  },
  {
   "name" : "_ZN7android8hardware14neuralnetworks4V1_325BpHwPreparedModelCallback21setHALInstrumentationEv"
  },
  {
   "name" : "_ZN7android8hardware14neuralnetworks4V1_325BpHwPreparedModelCallback4pingEv"
  },
  {
   "name" : "_ZN7android8hardware14neuralnetworks4V1_325BpHwPreparedModelCallback5debugERKNS0_11hidl_handleERKNS0_8hidl_vecINS0_11hidl_stringEEE"
  },
  {
   "name" : "_ZN7android8hardware14neuralnetworks4V1_325BpHwPreparedModelCallback6notifyENS1_4V1_011ErrorStatusERKNS_2spINS4_14IPreparedModelEEE"
  },
  {
   "name" : "_ZN7android8hardware14neuralnetworks4V1_325BpHwPreparedModelCallbackC1ERKNS_2spINS0_7IBinderEEE"
  },
  {
   "name" : "_ZN7android8hardware14neuralnetworks4V1_325BpHwPreparedModelCallbackC2ERKNS_2spINS0_7IBinderEEE"
  },
  {
   "name" : "_ZN7android8hardware14neuralnetworks4V1_325BsFencedExecutionCallback13addOnewayTaskENSt3__18functionIFvvEEE"
  },
  {
   "name" : "_ZN7android8hardware14neuralnetworks4V1_325BsFencedExecutionCallbackC1ENS_2spINS2_24IFencedExecutionCallbackEEE"
  },
  {
   "name" : "_ZN7android8hardware14neuralnetworks4V1_325BsFencedExecutionCallbackC2ENS_2spINS2_24IFencedExecutionCallbackEEE"
  },
  {
   "name" : "_ZN7android8hardware14neuralnetworks4V1_327BnHwFencedExecutionCallback10onTransactEjRKNS0_6ParcelEPS4_jNSt3__18functionIFvRS4_EEE"
  },
  {
   "name" : "_ZN7android8hardware14neuralnetworks4V1_327BnHwFencedExecutionCallback12getDebugInfoENSt3__18functionIFvRKNS_4hidl4base4V1_09DebugInfoEEEE"
  },
  {
   "name" : "_ZN7android8hardware14neuralnetworks4V1_327BnHwFencedExecutionCallback22_hidl_getExecutionInfoEPNS_4hidl4base4V1_08BnHwBaseERKNS0_6ParcelEPS9_NSt3__18functionIFvRS9_EEE"
  },
  {
   "name" : "_ZN7android8hardware14neuralnetworks4V1_327BnHwFencedExecutionCallback4pingEv"
  },
  {
   "name" : "_ZN7android8hardware14neuralnetworks4V1_327BnHwFencedExecutionCallbackC1ERKNS_2spINS2_24IFencedExecutionCallbackEEE"
  },
  {
   "name" : "_ZN7android8hardware14neuralnetworks4V1_327BnHwFencedExecutionCallbackC2ERKNS_2spINS2_24IFencedExecutionCallbackEEE"
  },
  {
   "name" : "_ZN7android8hardware14neuralnetworks4V1_327BnHwFencedExecutionCallbackD0Ev"
  },
  {
   "name" : "_ZN7android8hardware14neuralnetworks4V1_327BnHwFencedExecutionCallbackD1Ev"
  },
  {
   "name" : "_ZN7android8hardware14neuralnetworks4V1_327BnHwFencedExecutionCallbackD2Ev"
  },
  {
   "name" : "_ZN7android8hardware14neuralnetworks4V1_327BpHwFencedExecutionCallback11linkToDeathERKNS_2spINS0_20hidl_death_recipientEEEy"
  },
  {
   "name" : "_ZN7android8hardware14neuralnetworks4V1_327BpHwFencedExecutionCallback12getDebugInfoENSt3__18functionIFvRKNS_4hidl4base4V1_09DebugInfoEEEE"
  },
  {
   "name" : "_ZN7android8hardware14neuralnetworks4V1_327BpHwFencedExecutionCallback12getHashChainENSt3__18functionIFvRKNS0_8hidl_vecINS0_10hidl_arrayIhLj32EJEEEEEEEE"
  },
  {
   "name" : "_ZN7android8hardware14neuralnetworks4V1_327BpHwFencedExecutionCallback13unlinkToDeathERKNS_2spINS0_20hidl_death_recipientEEE"
  },
  {
   "name" : "_ZN7android8hardware14neuralnetworks4V1_327BpHwFencedExecutionCallback14interfaceChainENSt3__18functionIFvRKNS0_8hidl_vecINS0_11hidl_stringEEEEEE"
  },
  {
   "name" : "_ZN7android8hardware14neuralnetworks4V1_327BpHwFencedExecutionCallback15onLastStrongRefEPKv"
  },
  {
   "name" : "_ZN7android8hardware14neuralnetworks4V1_327BpHwFencedExecutionCallback16getExecutionInfoENSt3__18functionIFvNS2_11ErrorStatusERKNS1_4V1_26TimingESA_EEE"
  },
  {
   "name" : "_ZN7android8hardware14neuralnetworks4V1_327BpHwFencedExecutionCallback19interfaceDescriptorENSt3__18functionIFvRKNS0_11hidl_stringEEEE"
  },
  {
   "name" : "_ZN7android8hardware14neuralnetworks4V1_327BpHwFencedExecutionCallback21notifySyspropsChangedEv"
  },
  {
   "name" : "_ZN7android8hardware14neuralnetworks4V1_327BpHwFencedExecutionCallback21setHALInstrumentationEv"
  },
  {
   "name" : "_ZN7android8hardware14neuralnetworks4V1_327BpHwFencedExecutionCallback22_hidl_getExecutionInfoEPNS0_10IInterfaceEPNS0_7details16HidlInstrumentorENSt3__18functionIFvNS2_11ErrorStatusERKNS1_4V1_26TimingESF_EEE"
  },
  {
   "name" : "_ZN7android8hardware14neuralnetworks4V1_327BpHwFencedExecutionCallback4pingEv"
  },
  {
   "name" : "_ZN7android8hardware14neuralnetworks4V1_327BpHwFencedExecutionCallback5debugERKNS0_11hidl_handleERKNS0_8hidl_vecINS0_11hidl_stringEEE"
  },
  {
   "name" : "_ZN7android8hardware14neuralnetworks4V1_327BpHwFencedExecutionCallbackC1ERKNS_2spINS0_7IBinderEEE"
  },
  {
   "name" : "_ZN7android8hardware14neuralnetworks4V1_327BpHwFencedExecutionCallbackC2ERKNS_2spINS0_7IBinderEEE"
  },
  {
   "name" : "_ZN7android8hardware14neuralnetworks4V1_37IBuffer10getServiceERKNSt3__112basic_stringIcNS4_11char_traitsIcEENS4_9allocatorIcEEEEb"
  },
  {
   "name" : "_ZN7android8hardware14neuralnetworks4V1_37IBuffer11linkToDeathERKNS_2spINS0_20hidl_death_recipientEEEy"
  },
  {
   "name" : "_ZN7android8hardware14neuralnetworks4V1_37IBuffer12getDebugInfoENSt3__18functionIFvRKNS_4hidl4base4V1_09DebugInfoEEEE"
  },
  {
   "name" : "_ZN7android8hardware14neuralnetworks4V1_37IBuffer12getHashChainENSt3__18functionIFvRKNS0_8hidl_vecINS0_10hidl_arrayIhLj32EJEEEEEEEE"
  },
  {
   "name" : "_ZN7android8hardware14neuralnetworks4V1_37IBuffer13tryGetServiceERKNSt3__112basic_stringIcNS4_11char_traitsIcEENS4_9allocatorIcEEEEb"
  },
  {
   "name" : "_ZN7android8hardware14neuralnetworks4V1_37IBuffer13unlinkToDeathERKNS_2spINS0_20hidl_death_recipientEEE"
  },
  {
   "name" : "_ZN7android8hardware14neuralnetworks4V1_37IBuffer14interfaceChainENSt3__18functionIFvRKNS0_8hidl_vecINS0_11hidl_stringEEEEEE"
  },
  {
   "name" : "_ZN7android8hardware14neuralnetworks4V1_37IBuffer17registerAsServiceERKNSt3__112basic_stringIcNS4_11char_traitsIcEENS4_9allocatorIcEEEE"
  },
  {
   "name" : "_ZN7android8hardware14neuralnetworks4V1_37IBuffer19interfaceDescriptorENSt3__18functionIFvRKNS0_11hidl_stringEEEE"
  },
  {
   "name" : "_ZN7android8hardware14neuralnetworks4V1_37IBuffer21notifySyspropsChangedEv"
  },
  {
   "name" : "_ZN7android8hardware14neuralnetworks4V1_37IBuffer21setHALInstrumentationEv"
  },
  {
   "name" : "_ZN7android8hardware14neuralnetworks4V1_37IBuffer24registerForNotificationsERKNSt3__112basic_stringIcNS4_11char_traitsIcEENS4_9allocatorIcEEEERKNS_2spINS_4hidl7manager4V1_020IServiceNotificationEEE"
  },
  {
   "name" : "_ZN7android8hardware14neuralnetworks4V1_37IBuffer4pingEv"
  },
  {
   "name" : "_ZN7android8hardware14neuralnetworks4V1_37IBuffer5debugERKNS0_11hidl_handleERKNS0_8hidl_vecINS0_11hidl_stringEEE"
  },
  {
   "name" : "_ZN7android8hardware14neuralnetworks4V1_37IBuffer8castFromERKNS_2spINS_4hidl4base4V1_05IBaseEEEb"
  },
  {
   "name" : "_ZN7android8hardware14neuralnetworks4V1_37IBuffer8castFromERKNS_2spIS3_EEb"
  },
  {
   "name" : "_ZN7android8hardware14neuralnetworks4V1_37IDevice10getServiceERKNSt3__112basic_stringIcNS4_11char_traitsIcEENS4_9allocatorIcEEEEb"
  },
  {
   "name" : "_ZN7android8hardware14neuralnetworks4V1_37IDevice11linkToDeathERKNS_2spINS0_20hidl_death_recipientEEEy"
  },
  {
   "name" : "_ZN7android8hardware14neuralnetworks4V1_37IDevice12getDebugInfoENSt3__18functionIFvRKNS_4hidl4base4V1_09DebugInfoEEEE"
  },
  {
   "name" : "_ZN7android8hardware14neuralnetworks4V1_37IDevice12getHashChainENSt3__18functionIFvRKNS0_8hidl_vecINS0_10hidl_arrayIhLj32EJEEEEEEEE"
  },
  {
   "name" : "_ZN7android8hardware14neuralnetworks4V1_37IDevice13tryGetServiceERKNSt3__112basic_stringIcNS4_11char_traitsIcEENS4_9allocatorIcEEEEb"
  },
  {
   "name" : "_ZN7android8hardware14neuralnetworks4V1_37IDevice13unlinkToDeathERKNS_2spINS0_20hidl_death_recipientEEE"
  },
  {
   "name" : "_ZN7android8hardware14neuralnetworks4V1_37IDevice14interfaceChainENSt3__18functionIFvRKNS0_8hidl_vecINS0_11hidl_stringEEEEEE"
  },
  {
   "name" : "_ZN7android8hardware14neuralnetworks4V1_37IDevice17registerAsServiceERKNSt3__112basic_stringIcNS4_11char_traitsIcEENS4_9allocatorIcEEEE"
  },
  {
   "name" : "_ZN7android8hardware14neuralnetworks4V1_37IDevice19interfaceDescriptorENSt3__18functionIFvRKNS0_11hidl_stringEEEE"
  },
  {
   "name" : "_ZN7android8hardware14neuralnetworks4V1_37IDevice21notifySyspropsChangedEv"
  },
  {
   "name" : "_ZN7android8hardware14neuralnetworks4V1_37IDevice21setHALInstrumentationEv"
  },
  {
   "name" : "_ZN7android8hardware14neuralnetworks4V1_37IDevice24registerForNotificationsERKNSt3__112basic_stringIcNS4_11char_traitsIcEENS4_9allocatorIcEEEERKNS_2spINS_4hidl7manager4V1_020IServiceNotificationEEE"
  },
  {
   "name" : "_ZN7android8hardware14neuralnetworks4V1_37IDevice4pingEv"
  },
  {
   "name" : "_ZN7android8hardware14neuralnetworks4V1_37IDevice5debugERKNS0_11hidl_handleERKNS0_8hidl_vecINS0_11hidl_stringEEE"
  },
  {
   "name" : "_ZN7android8hardware14neuralnetworks4V1_37IDevice8castFromERKNS_2spINS1_4V1_07IDeviceEEEb"
  },
  {
   "name" : "_ZN7android8hardware14neuralnetworks4V1_37IDevice8castFromERKNS_2spINS1_4V1_17IDeviceEEEb"
  },
  {
   "name" : "_ZN7android8hardware14neuralnetworks4V1_37IDevice8castFromERKNS_2spINS1_4V1_27IDeviceEEEb"
  },
  {
   "name" : "_ZN7android8hardware14neuralnetworks4V1_37IDevice8castFromERKNS_2spINS_4hidl4base4V1_05IBaseEEEb"
  },
  {
   "name" : "_ZN7android8hardware14neuralnetworks4V1_37IDevice8castFromERKNS_2spIS3_EEb"
  },
  {
   "name" : "_ZN7android8hardware14neuralnetworks4V1_37Request10MemoryPool10hidlMemoryEONS0_11hidl_memoryE"
  },
  {
   "name" : "_ZN7android8hardware14neuralnetworks4V1_37Request10MemoryPool10hidlMemoryERKNS0_11hidl_memoryE"
  },
  {
   "name" : "_ZN7android8hardware14neuralnetworks4V1_37Request10MemoryPool10hidlMemoryEv"
  },
  {
   "name" : "_ZN7android8hardware14neuralnetworks4V1_37Request10MemoryPool10hidl_unionC1Ev"
  },
  {
   "name" : "_ZN7android8hardware14neuralnetworks4V1_37Request10MemoryPool10hidl_unionC2Ev"
  },
  {
   "name" : "_ZN7android8hardware14neuralnetworks4V1_37Request10MemoryPool10hidl_unionD1Ev"
  },
  {
   "name" : "_ZN7android8hardware14neuralnetworks4V1_37Request10MemoryPool10hidl_unionD2Ev"
  },
  {
   "name" : "_ZN7android8hardware14neuralnetworks4V1_37Request10MemoryPool18hidl_destructUnionEv"
  },
  {
   "name" : "_ZN7android8hardware14neuralnetworks4V1_37Request10MemoryPool5tokenEj"
  },
  {
   "name" : "_ZN7android8hardware14neuralnetworks4V1_37Request10MemoryPool5tokenEv"
  },
  {
   "name" : "_ZN7android8hardware14neuralnetworks4V1_37Request10MemoryPoolC1EOS4_"
  },
  {
   "name" : "_ZN7android8hardware14neuralnetworks4V1_37Request10MemoryPoolC1ERKS4_"
  },
  {
   "name" : "_ZN7android8hardware14neuralnetworks4V1_37Request10MemoryPoolC1Ev"
  },
  {
   "name" : "_ZN7android8hardware14neuralnetworks4V1_37Request10MemoryPoolC2EOS4_"
  },
  {
   "name" : "_ZN7android8hardware14neuralnetworks4V1_37Request10MemoryPoolC2ERKS4_"
  },
  {
   "name" : "_ZN7android8hardware14neuralnetworks4V1_37Request10MemoryPoolC2Ev"
  },
  {
   "name" : "_ZN7android8hardware14neuralnetworks4V1_37Request10MemoryPoolD1Ev"
  },
  {
   "name" : "_ZN7android8hardware14neuralnetworks4V1_37Request10MemoryPoolD2Ev"
  },
  {
   "name" : "_ZN7android8hardware14neuralnetworks4V1_37Request10MemoryPoolaSEOS4_"
  },
  {
   "name" : "_ZN7android8hardware14neuralnetworks4V1_37Request10MemoryPoolaSERKS4_"
  },
  {
   "name" : "_ZN7android8hardware14neuralnetworks4V1_38BsBuffer13addOnewayTaskENSt3__18functionIFvvEEE"
  },
  {
   "name" : "_ZN7android8hardware14neuralnetworks4V1_38BsBufferC1ENS_2spINS2_7IBufferEEE"
  },
  {
   "name" : "_ZN7android8hardware14neuralnetworks4V1_38BsBufferC2ENS_2spINS2_7IBufferEEE"
  },
  {
   "name" : "_ZN7android8hardware14neuralnetworks4V1_38BsDevice13addOnewayTaskENSt3__18functionIFvvEEE"
  },
  {
   "name" : "_ZN7android8hardware14neuralnetworks4V1_38BsDeviceC1ENS_2spINS2_7IDeviceEEE"
  },
  {
   "name" : "_ZN7android8hardware14neuralnetworks4V1_38BsDeviceC2ENS_2spINS2_7IDeviceEEE"
  },
  {
   "binding" : "weak",
   "name" : "_ZN7android8hardware7details13castInterfaceINS0_14neuralnetworks4V1_314IPreparedModelENS3_4V1_014IPreparedModelENS4_17BpHwPreparedModelEEENS0_6ReturnINS_2spIT_EEEENSA_IT0_EEPKcb"
  },
  {
   "binding" : "weak",
   "name" : "_ZN7android8hardware7details13castInterfaceINS0_14neuralnetworks4V1_314IPreparedModelENS3_4V1_214IPreparedModelENS4_17BpHwPreparedModelEEENS0_6ReturnINS_2spIT_EEEENSA_IT0_EEPKcb"
  },
  {
   "binding" : "weak",
   "name" : "_ZN7android8hardware7details13castInterfaceINS0_14neuralnetworks4V1_314IPreparedModelENS_4hidl4base4V1_05IBaseENS4_17BpHwPreparedModelEEENS0_6ReturnINS_2spIT_EEEENSC_IT0_EEPKcb"
  },
  {
   "binding" : "weak",
   "name" : "_ZN7android8hardware7details13castInterfaceINS0_14neuralnetworks4V1_318IExecutionCallbackENS3_4V1_018IExecutionCallbackENS4_21BpHwExecutionCallbackEEENS0_6ReturnINS_2spIT_EEEENSA_IT0_EEPKcb"
  },
  {
   "binding" : "weak",
   "name" : "_ZN7android8hardware7details13castInterfaceINS0_14neuralnetworks4V1_318IExecutionCallbackENS3_4V1_218IExecutionCallbackENS4_21BpHwExecutionCallbackEEENS0_6ReturnINS_2spIT_EEEENSA_IT0_EEPKcb"
  },
  {
   "binding" : "weak",
   "name" : "_ZN7android8hardware7details13castInterfaceINS0_14neuralnetworks4V1_318IExecutionCallbackENS_4hidl4base4V1_05IBaseENS4_21BpHwExecutionCallbackEEENS0_6ReturnINS_2spIT_EEEENSC_IT0_EEPKcb"
  },
  {
   "binding" : "weak",
   "name" : "_ZN7android8hardware7details13castInterfaceINS0_14neuralnetworks4V1_322IPreparedModelCallbackENS3_4V1_022IPreparedModelCallbackENS4_25BpHwPreparedModelCallbackEEENS0_6ReturnINS_2spIT_EEEENSA_IT0_EEPKcb"
  },
  {
   "binding" : "weak",
   "name" : "_ZN7android8hardware7details13castInterfaceINS0_14neuralnetworks4V1_322IPreparedModelCallbackENS3_4V1_222IPreparedModelCallbackENS4_25BpHwPreparedModelCallbackEEENS0_6ReturnINS_2spIT_EEEENSA_IT0_EEPKcb"
  },
  {
   "binding" : "weak",
   "name" : "_ZN7android8hardware7details13castInterfaceINS0_14neuralnetworks4V1_322IPreparedModelCallbackENS_4hidl4base4V1_05IBaseENS4_25BpHwPreparedModelCallbackEEENS0_6ReturnINS_2spIT_EEEENSC_IT0_EEPKcb"
  },
  {
   "binding" : "weak",
   "name" : "_ZN7android8hardware7details13castInterfaceINS0_14neuralnetworks4V1_324IFencedExecutionCallbackENS_4hidl4base4V1_05IBaseENS4_27BpHwFencedExecutionCallbackEEENS0_6ReturnINS_2spIT_EEEENSC_IT0_EEPKcb"
  },
  {
   "binding" : "weak",
   "name" : "_ZN7android8hardware7details13castInterfaceINS0_14neuralnetworks4V1_37IBufferENS_4hidl4base4V1_05IBaseENS4_10BpHwBufferEEENS0_6ReturnINS_2spIT_EEEENSC_IT0_EEPKcb"
  },
  {
   "binding" : "weak",
   "name" : "_ZN7android8hardware7details13castInterfaceINS0_14neuralnetworks4V1_37IDeviceENS3_4V1_07IDeviceENS4_10BpHwDeviceEEENS0_6ReturnINS_2spIT_EEEENSA_IT0_EEPKcb"
  },
  {
   "binding" : "weak",
   "name" : "_ZN7android8hardware7details13castInterfaceINS0_14neuralnetworks4V1_37IDeviceENS3_4V1_17IDeviceENS4_10BpHwDeviceEEENS0_6ReturnINS_2spIT_EEEENSA_IT0_EEPKcb"
  },
  {
   "binding" : "weak",
   "name" : "_ZN7android8hardware7details13castInterfaceINS0_14neuralnetworks4V1_37IDeviceENS3_4V1_27IDeviceENS4_10BpHwDeviceEEENS0_6ReturnINS_2spIT_EEEENSA_IT0_EEPKcb"
  },
  {
   "binding" : "weak",
   "name" : "_ZN7android8hardware7details13castInterfaceINS0_14neuralnetworks4V1_37IDeviceENS_4hidl4base4V1_05IBaseENS4_10BpHwDeviceEEENS0_6ReturnINS_2spIT_EEEENSC_IT0_EEPKcb"
  },
  {
   "binding" : "weak",
   "name" : "_ZN7android8hardware7details15wrapPassthroughINS0_14neuralnetworks4V1_014IPreparedModelEvEENS_2spIT_EES8_"
  },
  {
   "binding" : "weak",
   "name" : "_ZN7android8hardware7details15wrapPassthroughINS0_14neuralnetworks4V1_018IExecutionCallbackEvEENS_2spIT_EES8_"
  },
  {
   "binding" : "weak",
   "name" : "_ZN7android8hardware7details15wrapPassthroughINS0_14neuralnetworks4V1_022IPreparedModelCallbackEvEENS_2spIT_EES8_"
  },
  {
   "binding" : "weak",
   "name" : "_ZN7android8hardware7details15wrapPassthroughINS0_14neuralnetworks4V1_213IBurstContextEvEENS_2spIT_EES8_"
  },
  {
   "binding" : "weak",
   "name" : "_ZN7android8hardware7details15wrapPassthroughINS0_14neuralnetworks4V1_214IBurstCallbackEvEENS_2spIT_EES8_"
  },
  {
   "binding" : "weak",
   "name" : "_ZN7android8hardware7details15wrapPassthroughINS0_14neuralnetworks4V1_214IPreparedModelEvEENS_2spIT_EES8_"
  },
  {
   "binding" : "weak",
   "name" : "_ZN7android8hardware7details15wrapPassthroughINS0_14neuralnetworks4V1_218IExecutionCallbackEvEENS_2spIT_EES8_"
  },
  {
   "binding" : "weak",
   "name" : "_ZN7android8hardware7details15wrapPassthroughINS0_14neuralnetworks4V1_222IPreparedModelCallbackEvEENS_2spIT_EES8_"
  },
  {
   "binding" : "weak",
   "name" : "_ZN7android8hardware7details15wrapPassthroughINS0_14neuralnetworks4V1_314IPreparedModelEvEENS_2spIT_EES8_"
  },
  {
   "binding" : "weak",
   "name" : "_ZN7android8hardware7details15wrapPassthroughINS0_14neuralnetworks4V1_318IExecutionCallbackEvEENS_2spIT_EES8_"
  },
  {
   "binding" : "weak",
   "name" : "_ZN7android8hardware7details15wrapPassthroughINS0_14neuralnetworks4V1_322IPreparedModelCallbackEvEENS_2spIT_EES8_"
  },
  {
   "binding" : "weak",
   "name" : "_ZN7android8hardware7details15wrapPassthroughINS0_14neuralnetworks4V1_324IFencedExecutionCallbackEvEENS_2spIT_EES8_"
  },
  {
   "binding" : "weak",
   "name" : "_ZN7android8hardware7details15wrapPassthroughINS0_14neuralnetworks4V1_37IBufferEvEENS_2spIT_EES8_"
  },
  {
   "binding" : "weak",
   "name" : "_ZN7android8hardware7details18getServiceInternalINS0_14neuralnetworks4V1_310BpHwBufferENS4_7IBufferEvvEENS_2spIT0_EERKNSt3__112basic_stringIcNSA_11char_traitsIcEENSA_9allocatorIcEEEEbb"
  },
  {
   "binding" : "weak",
   "name" : "_ZN7android8hardware7details18getServiceInternalINS0_14neuralnetworks4V1_310BpHwDeviceENS4_7IDeviceEvvEENS_2spIT0_EERKNSt3__112basic_stringIcNSA_11char_traitsIcEENSA_9allocatorIcEEEEbb"
  },
  {
   "binding" : "weak",
   "name" : "_ZN7android8hardware7details18getServiceInternalINS0_14neuralnetworks4V1_317BpHwPreparedModelENS4_14IPreparedModelEvvEENS_2spIT0_EERKNSt3__112basic_stringIcNSA_11char_traitsIcEENSA_9allocatorIcEEEEbb"
  },
  {
   "binding" : "weak",
   "name" : "_ZN7android8hardware7details18getServiceInternalINS0_14neuralnetworks4V1_321BpHwExecutionCallbackENS4_18IExecutionCallbackEvvEENS_2spIT0_EERKNSt3__112basic_stringIcNSA_11char_traitsIcEENSA_9allocatorIcEEEEbb"
  },
  {
   "binding" : "weak",
   "name" : "_ZN7android8hardware7details18getServiceInternalINS0_14neuralnetworks4V1_325BpHwPreparedModelCallbackENS4_22IPreparedModelCallbackEvvEENS_2spIT0_EERKNSt3__112basic_stringIcNSA_11char_traitsIcEENSA_9allocatorIcEEEEbb"
  },
  {
   "binding" : "weak",
   "name" : "_ZN7android8hardware7details18getServiceInternalINS0_14neuralnetworks4V1_327BpHwFencedExecutionCallbackENS4_24IFencedExecutionCallbackEvvEENS_2spIT0_EERKNSt3__112basic_stringIcNSA_11char_traitsIcEENSA_9allocatorIcEEEEbb"
  },
  {
   "name" : "_ZNK7android8hardware14neuralnetworks4V1_317OptionalTimePoint16getDiscriminatorEv"
  },
  {
   "name" : "_ZNK7android8hardware14neuralnetworks4V1_317OptionalTimePoint21nanosecondsSinceEpochEv"
  },
  {
   "name" : "_ZNK7android8hardware14neuralnetworks4V1_317OptionalTimePoint4noneEv"
  },
  {
   "name" : "_ZNK7android8hardware14neuralnetworks4V1_323OptionalTimeoutDuration11nanosecondsEv"
  },
  {
   "name" : "_ZNK7android8hardware14neuralnetworks4V1_323OptionalTimeoutDuration16getDiscriminatorEv"
  },
  {
   "name" : "_ZNK7android8hardware14neuralnetworks4V1_323OptionalTimeoutDuration4noneEv"
  },
  {
   "name" : "_ZNK7android8hardware14neuralnetworks4V1_37Request10MemoryPool10hidlMemoryEv"
  },
  {
   "name" : "_ZNK7android8hardware14neuralnetworks4V1_37Request10MemoryPool16getDiscriminatorEv"
  },
  {
   "name" : "_ZNK7android8hardware14neuralnetworks4V1_37Request10MemoryPool5tokenEv"
  },
  {
   "binding" : "weak",
   "name" : "_ZNKSt3__18functionIFvN7android8hardware7details16HidlInstrumentor20InstrumentationEventEPKcS7_S7_S7_PNS_6vectorIPvNS_9allocatorIS9_EEEEEEclES5_S7_S7_S7_S7_SD_"
  },
  {
   "binding" : "weak",
   "name" : "_ZNSt3__113__tree_removeIPNS_16__tree_node_baseIPvEEEEvT_S5_"
  },
  {
   "binding" : "weak",
   "name" : "_ZNSt3__127__tree_balance_after_insertIPNS_16__tree_node_baseIPvEEEEvT_S5_"
  },
  {
   "binding" : "weak",
   "name" : "_ZNSt3__16__treeINS_12__value_typeINS_12basic_stringIcNS_11char_traitsIcEENS_9allocatorIcEEEENS_8functionIFN7android2spINS9_4hidl4base4V1_05IBaseEEEPvEEEEENS_19__map_value_compareIS7_SJ_NS_4lessIS7_EELb1EEENS5_ISJ_EEE12__find_equalIS7_EERPNS_16__tree_node_baseISG_EERPNS_15__tree_end_nodeIST_EERKT_"
  },
  {
   "binding" : "weak",
   "name" : "_ZNSt3__16__treeINS_12__value_typeINS_12basic_stringIcNS_11char_traitsIcEENS_9allocatorIcEEEENS_8functionIFN7android2spINS9_4hidl4base4V1_05IBaseEEEPvEEEEENS_19__map_value_compareIS7_SJ_NS_4lessIS7_EELb1EEENS5_ISJ_EEE4findIS7_EENS_15__tree_iteratorISJ_PNS_11__tree_nodeISJ_SG_EEiEERKT_"
  },
  {
   "binding" : "weak",
   "name" : "_ZNSt3__16__treeINS_12__value_typeINS_12basic_stringIcNS_11char_traitsIcEENS_9allocatorIcEEEENS_8functionIFN7android2spINS9_4hidl4base4V1_05IBaseEEEPvEEEEENS_19__map_value_compareIS7_SJ_NS_4lessIS7_EELb1EEENS5_ISJ_EEE5eraseENS_21__tree_const_iteratorISJ_PNS_11__tree_nodeISJ_SG_EEiEE"
  },
  {
   "binding" : "weak",
   "name" : "_ZNSt3__16__treeINS_12__value_typeINS_12basic_stringIcNS_11char_traitsIcEENS_9allocatorIcEEEENS_8functionIFN7android2spINS9_8hardware7IBinderEEEPvEEEEENS_19__map_value_compareIS7_SH_NS_4lessIS7_EELb1EEENS5_ISH_EEE12__find_equalIS7_EERPNS_16__tree_node_baseISE_EERPNS_15__tree_end_nodeISR_EERKT_"
  },
  {
   "binding" : "weak",
   "name" : "_ZNSt3__16__treeINS_12__value_typeINS_12basic_stringIcNS_11char_traitsIcEENS_9allocatorIcEEEENS_8functionIFN7android2spINS9_8hardware7IBinderEEEPvEEEEENS_19__map_value_compareIS7_SH_NS_4lessIS7_EELb1EEENS5_ISH_EEE4findIS7_EENS_15__tree_iteratorISH_PNS_11__tree_nodeISH_SE_EEiEERKT_"
  },
  {
   "binding" : "weak",
   "name" : "_ZNSt3__16__treeINS_12__value_typeINS_12basic_stringIcNS_11char_traitsIcEENS_9allocatorIcEEEENS_8functionIFN7android2spINS9_8hardware7IBinderEEEPvEEEEENS_19__map_value_compareIS7_SH_NS_4lessIS7_EELb1EEENS5_ISH_EEE5eraseENS_21__tree_const_iteratorISH_PNS_11__tree_nodeISH_SE_EEiEE"
  },
  {
   "binding" : "weak",
   "name" : "_ZNSt3__16vectorIN7android2spINS1_8hardware27hidl_binder_death_recipientEEENS_9allocatorIS5_EEE21__push_back_slow_pathIS5_EEvOT_"
  },
  {
   "binding" : "weak",
   "name" : "_ZNSt3__16vectorINS_8functionIFvN7android8hardware7details16HidlInstrumentor20InstrumentationEventEPKcS8_S8_S8_PNS0_IPvNS_9allocatorIS9_EEEEEEENSA_ISF_EEEC2ERKSH_"
  },
  {
   "binding" : "weak",
   "name" : "_ZNSt3__16vectorIPvNS_9allocatorIS1_EEE21__push_back_slow_pathIS1_EEvOT_"
  },
  {
   "name" : "_ZThn20_N7android8hardware14neuralnetworks4V1_310BnHwBufferD0Ev"
  },
  {
   "name" : "_ZThn20_N7android8hardware14neuralnetworks4V1_310BnHwBufferD1Ev"
  },
  {
   "name" : "_ZThn20_N7android8hardware14neuralnetworks4V1_310BnHwDeviceD0Ev"
  },
  {
   "name" : "_ZThn20_N7android8hardware14neuralnetworks4V1_310BnHwDeviceD1Ev"
  },
  {
   "name" : "_ZThn20_N7android8hardware14neuralnetworks4V1_317BnHwPreparedModelD0Ev"
  },
  {
   "name" : "_ZThn20_N7android8hardware14neuralnetworks4V1_317BnHwPreparedModelD1Ev"
  },
  {
   "name" : "_ZThn20_N7android8hardware14neuralnetworks4V1_321BnHwExecutionCallbackD0Ev"
  },
  {
   "name" : "_ZThn20_N7android8hardware14neuralnetworks4V1_321BnHwExecutionCallbackD1Ev"
  },
  {
   "name" : "_ZThn20_N7android8hardware14neuralnetworks4V1_325BnHwPreparedModelCallbackD0Ev"
  },
  {
   "name" : "_ZThn20_N7android8hardware14neuralnetworks4V1_325BnHwPreparedModelCallbackD1Ev"
  },
  {
   "name" : "_ZThn20_N7android8hardware14neuralnetworks4V1_327BnHwFencedExecutionCallbackD0Ev"
  },
  {
   "name" : "_ZThn20_N7android8hardware14neuralnetworks4V1_327BnHwFencedExecutionCallbackD1Ev"
  },
  {
   "name" : "_ZThn8_N7android8hardware14neuralnetworks4V1_310BpHwBuffer15onLastStrongRefEPKv"
  },
  {
   "name" : "_ZThn8_N7android8hardware14neuralnetworks4V1_310BpHwDevice15onLastStrongRefEPKv"
  },
  {
   "name" : "_ZThn8_N7android8hardware14neuralnetworks4V1_317BpHwPreparedModel15onLastStrongRefEPKv"
  },
  {
   "name" : "_ZThn8_N7android8hardware14neuralnetworks4V1_321BpHwExecutionCallback15onLastStrongRefEPKv"
  },
  {
   "name" : "_ZThn8_N7android8hardware14neuralnetworks4V1_325BpHwPreparedModelCallback15onLastStrongRefEPKv"
  },
  {
   "name" : "_ZThn8_N7android8hardware14neuralnetworks4V1_327BpHwFencedExecutionCallback15onLastStrongRefEPKv"
  },
  {
   "name" : "_ZTv0_n12_N7android8hardware14neuralnetworks4V1_310BnHwBufferD0Ev"
  },
  {
   "name" : "_ZTv0_n12_N7android8hardware14neuralnetworks4V1_310BnHwBufferD1Ev"
  },
  {
   "name" : "_ZTv0_n12_N7android8hardware14neuralnetworks4V1_310BnHwDeviceD0Ev"
  },
  {
   "name" : "_ZTv0_n12_N7android8hardware14neuralnetworks4V1_310BnHwDeviceD1Ev"
  },
  {
   "name" : "_ZTv0_n12_N7android8hardware14neuralnetworks4V1_317BnHwPreparedModelD0Ev"
  },
  {
   "name" : "_ZTv0_n12_N7android8hardware14neuralnetworks4V1_317BnHwPreparedModelD1Ev"
  },
  {
   "name" : "_ZTv0_n12_N7android8hardware14neuralnetworks4V1_321BnHwExecutionCallbackD0Ev"
  },
  {
   "name" : "_ZTv0_n12_N7android8hardware14neuralnetworks4V1_321BnHwExecutionCallbackD1Ev"
  },
  {
   "name" : "_ZTv0_n12_N7android8hardware14neuralnetworks4V1_325BnHwPreparedModelCallbackD0Ev"
  },
  {
   "name" : "_ZTv0_n12_N7android8hardware14neuralnetworks4V1_325BnHwPreparedModelCallbackD1Ev"
  },
  {
   "name" : "_ZTv0_n12_N7android8hardware14neuralnetworks4V1_327BnHwFencedExecutionCallbackD0Ev"
  },
  {
   "name" : "_ZTv0_n12_N7android8hardware14neuralnetworks4V1_327BnHwFencedExecutionCallbackD1Ev"
  },
  {
   "name" : "_ZTv0_n20_N7android8hardware14neuralnetworks4V1_310BpHwBuffer15onLastStrongRefEPKv"
  },
  {
   "name" : "_ZTv0_n20_N7android8hardware14neuralnetworks4V1_310BpHwDevice15onLastStrongRefEPKv"
  },
  {
   "name" : "_ZTv0_n20_N7android8hardware14neuralnetworks4V1_317BpHwPreparedModel15onLastStrongRefEPKv"
  },
  {
   "name" : "_ZTv0_n20_N7android8hardware14neuralnetworks4V1_321BpHwExecutionCallback15onLastStrongRefEPKv"
  },
  {
   "name" : "_ZTv0_n20_N7android8hardware14neuralnetworks4V1_325BpHwPreparedModelCallback15onLastStrongRefEPKv"
  },
  {
   "name" : "_ZTv0_n20_N7android8hardware14neuralnetworks4V1_327BpHwFencedExecutionCallback15onLastStrongRefEPKv"
  }
 ],
 "elf_objects" :
 [
  {
   "name" : "_ZN7android8hardware14neuralnetworks4V1_314IPreparedModel10descriptorE"
  },
  {
   "name" : "_ZN7android8hardware14neuralnetworks4V1_318IExecutionCallback10descriptorE"
  },
  {
   "name" : "_ZN7android8hardware14neuralnetworks4V1_322IPreparedModelCallback10descriptorE"
  },
  {
   "name" : "_ZN7android8hardware14neuralnetworks4V1_324IFencedExecutionCallback10descriptorE"
  },
  {
   "name" : "_ZN7android8hardware14neuralnetworks4V1_37IBuffer10descriptorE"
  },
  {
   "name" : "_ZN7android8hardware14neuralnetworks4V1_37IDevice10descriptorE"
  },
  {
   "name" : "_ZTCN7android8hardware14neuralnetworks4V1_310BnHwBufferE0_NS0_7IBinderE"
  },
  {
   "name" : "_ZTCN7android8hardware14neuralnetworks4V1_310BnHwBufferE0_NS0_9BHwBinderE"
  },
  {
   "name" : "_ZTCN7android8hardware14neuralnetworks4V1_310BnHwBufferE0_NS_4hidl4base4V1_08BnHwBaseE"
  },
  {
   "name" : "_ZTCN7android8hardware14neuralnetworks4V1_310BnHwDeviceE0_NS0_7IBinderE"
  },
  {
   "name" : "_ZTCN7android8hardware14neuralnetworks4V1_310BnHwDeviceE0_NS0_9BHwBinderE"
  },
  {
   "name" : "_ZTCN7android8hardware14neuralnetworks4V1_310BnHwDeviceE0_NS_4hidl4base4V1_08BnHwBaseE"
  },
  {
   "name" : "_ZTCN7android8hardware14neuralnetworks4V1_310BpHwBufferE0_NS0_11BpInterfaceINS2_7IBufferEEE"
  },
  {
   "name" : "_ZTCN7android8hardware14neuralnetworks4V1_310BpHwBufferE0_NS2_7IBufferE"
  },
  {
   "name" : "_ZTCN7android8hardware14neuralnetworks4V1_310BpHwBufferE0_NS_4hidl4base4V1_05IBaseE"
  },
  {
   "name" : "_ZTCN7android8hardware14neuralnetworks4V1_310BpHwBufferE4_NS0_10IInterfaceE"
  },
  {
   "name" : "_ZTCN7android8hardware14neuralnetworks4V1_310BpHwBufferE8_NS0_11BpHwRefBaseE"
  },
  {
   "name" : "_ZTCN7android8hardware14neuralnetworks4V1_310BpHwDeviceE0_NS0_11BpInterfaceINS2_7IDeviceEEE"
  },
  {
   "name" : "_ZTCN7android8hardware14neuralnetworks4V1_310BpHwDeviceE0_NS1_4V1_07IDeviceE"
  },
  {
   "name" : "_ZTCN7android8hardware14neuralnetworks4V1_310BpHwDeviceE0_NS1_4V1_17IDeviceE"
  },
  {
   "name" : "_ZTCN7android8hardware14neuralnetworks4V1_310BpHwDeviceE0_NS1_4V1_27IDeviceE"
  },
  {
   "name" : "_ZTCN7android8hardware14neuralnetworks4V1_310BpHwDeviceE0_NS2_7IDeviceE"
  },
  {
   "name" : "_ZTCN7android8hardware14neuralnetworks4V1_310BpHwDeviceE0_NS_4hidl4base4V1_05IBaseE"
  },
  {
   "name" : "_ZTCN7android8hardware14neuralnetworks4V1_310BpHwDeviceE4_NS0_10IInterfaceE"
  },
  {
   "name" : "_ZTCN7android8hardware14neuralnetworks4V1_310BpHwDeviceE8_NS0_11BpHwRefBaseE"
  },
  {
   "name" : "_ZTCN7android8hardware14neuralnetworks4V1_314IPreparedModelE0_NS1_4V1_014IPreparedModelE"
  },
  {
   "name" : "_ZTCN7android8hardware14neuralnetworks4V1_314IPreparedModelE0_NS1_4V1_214IPreparedModelE"
  },
  {
   "name" : "_ZTCN7android8hardware14neuralnetworks4V1_314IPreparedModelE0_NS_4hidl4base4V1_05IBaseE"
  },
  {
   "binding" : "weak",
   "name" : "_ZTCN7android8hardware14neuralnetworks4V1_315BsPreparedModelE0_NS2_14IPreparedModelE"
  },
  {
   "name" : "_ZTCN7android8hardware14neuralnetworks4V1_317BnHwPreparedModelE0_NS0_7IBinderE"
  },
  {
   "name" : "_ZTCN7android8hardware14neuralnetworks4V1_317BnHwPreparedModelE0_NS0_9BHwBinderE"
  },
  {
   "name" : "_ZTCN7android8hardware14neuralnetworks4V1_317BnHwPreparedModelE0_NS_4hidl4base4V1_08BnHwBaseE"
  },
  {
   "name" : "_ZTCN7android8hardware14neuralnetworks4V1_317BpHwPreparedModelE0_NS0_11BpInterfaceINS2_14IPreparedModelEEE"
  },
  {
   "name" : "_ZTCN7android8hardware14neuralnetworks4V1_317BpHwPreparedModelE0_NS1_4V1_014IPreparedModelE"
  },
  {
   "name" : "_ZTCN7android8hardware14neuralnetworks4V1_317BpHwPreparedModelE0_NS1_4V1_214IPreparedModelE"
  },
  {
   "name" : "_ZTCN7android8hardware14neuralnetworks4V1_317BpHwPreparedModelE0_NS2_14IPreparedModelE"
  },
  {
   "name" : "_ZTCN7android8hardware14neuralnetworks4V1_317BpHwPreparedModelE0_NS_4hidl4base4V1_05IBaseE"
  },
  {
   "name" : "_ZTCN7android8hardware14neuralnetworks4V1_317BpHwPreparedModelE4_NS0_10IInterfaceE"
  },
  {
   "name" : "_ZTCN7android8hardware14neuralnetworks4V1_317BpHwPreparedModelE8_NS0_11BpHwRefBaseE"
  },
  {
   "name" : "_ZTCN7android8hardware14neuralnetworks4V1_318IExecutionCallbackE0_NS1_4V1_018IExecutionCallbackE"
  },
  {
   "name" : "_ZTCN7android8hardware14neuralnetworks4V1_318IExecutionCallbackE0_NS1_4V1_218IExecutionCallbackE"
  },
  {
   "name" : "_ZTCN7android8hardware14neuralnetworks4V1_318IExecutionCallbackE0_NS_4hidl4base4V1_05IBaseE"
  },
  {
   "binding" : "weak",
   "name" : "_ZTCN7android8hardware14neuralnetworks4V1_319BsExecutionCallbackE0_NS2_18IExecutionCallbackE"
  },
  {
   "name" : "_ZTCN7android8hardware14neuralnetworks4V1_321BnHwExecutionCallbackE0_NS0_7IBinderE"
  },
  {
   "name" : "_ZTCN7android8hardware14neuralnetworks4V1_321BnHwExecutionCallbackE0_NS0_9BHwBinderE"
  },
  {
   "name" : "_ZTCN7android8hardware14neuralnetworks4V1_321BnHwExecutionCallbackE0_NS_4hidl4base4V1_08BnHwBaseE"
  },
  {
   "name" : "_ZTCN7android8hardware14neuralnetworks4V1_321BpHwExecutionCallbackE0_NS0_11BpInterfaceINS2_18IExecutionCallbackEEE"
  },
  {
   "name" : "_ZTCN7android8hardware14neuralnetworks4V1_321BpHwExecutionCallbackE0_NS1_4V1_018IExecutionCallbackE"
  },
  {
   "name" : "_ZTCN7android8hardware14neuralnetworks4V1_321BpHwExecutionCallbackE0_NS1_4V1_218IExecutionCallbackE"
  },
  {
   "name" : "_ZTCN7android8hardware14neuralnetworks4V1_321BpHwExecutionCallbackE0_NS2_18IExecutionCallbackE"
  },
  {
   "name" : "_ZTCN7android8hardware14neuralnetworks4V1_321BpHwExecutionCallbackE0_NS_4hidl4base4V1_05IBaseE"
  },
  {
   "name" : "_ZTCN7android8hardware14neuralnetworks4V1_321BpHwExecutionCallbackE4_NS0_10IInterfaceE"
  },
  {
   "name" : "_ZTCN7android8hardware14neuralnetworks4V1_321BpHwExecutionCallbackE8_NS0_11BpHwRefBaseE"
  },
  {
   "name" : "_ZTCN7android8hardware14neuralnetworks4V1_322IPreparedModelCallbackE0_NS1_4V1_022IPreparedModelCallbackE"
  },
  {
   "name" : "_ZTCN7android8hardware14neuralnetworks4V1_322IPreparedModelCallbackE0_NS1_4V1_222IPreparedModelCallbackE"
  },
  {
   "name" : "_ZTCN7android8hardware14neuralnetworks4V1_322IPreparedModelCallbackE0_NS_4hidl4base4V1_05IBaseE"
  },
  {
   "binding" : "weak",
   "name" : "_ZTCN7android8hardware14neuralnetworks4V1_323BsPreparedModelCallbackE0_NS2_22IPreparedModelCallbackE"
  },
  {
   "name" : "_ZTCN7android8hardware14neuralnetworks4V1_324IFencedExecutionCallbackE0_NS_4hidl4base4V1_05IBaseE"
  },
  {
   "name" : "_ZTCN7android8hardware14neuralnetworks4V1_325BnHwPreparedModelCallbackE0_NS0_7IBinderE"
  },
  {
   "name" : "_ZTCN7android8hardware14neuralnetworks4V1_325BnHwPreparedModelCallbackE0_NS0_9BHwBinderE"
  },
  {
   "name" : "_ZTCN7android8hardware14neuralnetworks4V1_325BnHwPreparedModelCallbackE0_NS_4hidl4base4V1_08BnHwBaseE"
  },
  {
   "name" : "_ZTCN7android8hardware14neuralnetworks4V1_325BpHwPreparedModelCallbackE0_NS0_11BpInterfaceINS2_22IPreparedModelCallbackEEE"
  },
  {
   "name" : "_ZTCN7android8hardware14neuralnetworks4V1_325BpHwPreparedModelCallbackE0_NS1_4V1_022IPreparedModelCallbackE"
  },
  {
   "name" : "_ZTCN7android8hardware14neuralnetworks4V1_325BpHwPreparedModelCallbackE0_NS1_4V1_222IPreparedModelCallbackE"
  },
  {
   "name" : "_ZTCN7android8hardware14neuralnetworks4V1_325BpHwPreparedModelCallbackE0_NS2_22IPreparedModelCallbackE"
  },
  {
   "name" : "_ZTCN7android8hardware14neuralnetworks4V1_325BpHwPreparedModelCallbackE0_NS_4hidl4base4V1_05IBaseE"
  },
  {
   "name" : "_ZTCN7android8hardware14neuralnetworks4V1_325BpHwPreparedModelCallbackE4_NS0_10IInterfaceE"
  },
  {
   "name" : "_ZTCN7android8hardware14neuralnetworks4V1_325BpHwPreparedModelCallbackE8_NS0_11BpHwRefBaseE"
  },
  {
   "binding" : "weak",
   "name" : "_ZTCN7android8hardware14neuralnetworks4V1_325BsFencedExecutionCallbackE0_NS2_24IFencedExecutionCallbackE"
  },
  {
   "name" : "_ZTCN7android8hardware14neuralnetworks4V1_327BnHwFencedExecutionCallbackE0_NS0_7IBinderE"
  },
  {
   "name" : "_ZTCN7android8hardware14neuralnetworks4V1_327BnHwFencedExecutionCallbackE0_NS0_9BHwBinderE"
  },
  {
   "name" : "_ZTCN7android8hardware14neuralnetworks4V1_327BnHwFencedExecutionCallbackE0_NS_4hidl4base4V1_08BnHwBaseE"
  },
  {
   "name" : "_ZTCN7android8hardware14neuralnetworks4V1_327BpHwFencedExecutionCallbackE0_NS0_11BpInterfaceINS2_24IFencedExecutionCallbackEEE"
  },
  {
   "name" : "_ZTCN7android8hardware14neuralnetworks4V1_327BpHwFencedExecutionCallbackE0_NS2_24IFencedExecutionCallbackE"
  },
  {
   "name" : "_ZTCN7android8hardware14neuralnetworks4V1_327BpHwFencedExecutionCallbackE0_NS_4hidl4base4V1_05IBaseE"
  },
  {
   "name" : "_ZTCN7android8hardware14neuralnetworks4V1_327BpHwFencedExecutionCallbackE4_NS0_10IInterfaceE"
  },
  {
   "name" : "_ZTCN7android8hardware14neuralnetworks4V1_327BpHwFencedExecutionCallbackE8_NS0_11BpHwRefBaseE"
  },
  {
   "name" : "_ZTCN7android8hardware14neuralnetworks4V1_37IBufferE0_NS_4hidl4base4V1_05IBaseE"
  },
  {
   "name" : "_ZTCN7android8hardware14neuralnetworks4V1_37IDeviceE0_NS1_4V1_07IDeviceE"
  },
  {
   "name" : "_ZTCN7android8hardware14neuralnetworks4V1_37IDeviceE0_NS1_4V1_17IDeviceE"
  },
  {
   "name" : "_ZTCN7android8hardware14neuralnetworks4V1_37IDeviceE0_NS1_4V1_27IDeviceE"
  },
  {
   "name" : "_ZTCN7android8hardware14neuralnetworks4V1_37IDeviceE0_NS_4hidl4base4V1_05IBaseE"
  },
  {
   "binding" : "weak",
   "name" : "_ZTCN7android8hardware14neuralnetworks4V1_38BsBufferE0_NS2_7IBufferE"
  },
  {
   "binding" : "weak",
   "name" : "_ZTCN7android8hardware14neuralnetworks4V1_38BsDeviceE0_NS2_7IDeviceE"
  },
  {
   "name" : "_ZTTN7android8hardware14neuralnetworks4V1_310BnHwBufferE"
  },
  {
   "name" : "_ZTTN7android8hardware14neuralnetworks4V1_310BnHwDeviceE"
  },
  {
   "name" : "_ZTTN7android8hardware14neuralnetworks4V1_310BpHwBufferE"
  },
  {
   "name" : "_ZTTN7android8hardware14neuralnetworks4V1_310BpHwDeviceE"
  },
  {
   "name" : "_ZTTN7android8hardware14neuralnetworks4V1_314IPreparedModelE"
  },
  {
   "name" : "_ZTTN7android8hardware14neuralnetworks4V1_317BnHwPreparedModelE"
  },
  {
   "name" : "_ZTTN7android8hardware14neuralnetworks4V1_317BpHwPreparedModelE"
  },
  {
   "name" : "_ZTTN7android8hardware14neuralnetworks4V1_318IExecutionCallbackE"
  },
  {
   "name" : "_ZTTN7android8hardware14neuralnetworks4V1_321BnHwExecutionCallbackE"
  },
  {
   "name" : "_ZTTN7android8hardware14neuralnetworks4V1_321BpHwExecutionCallbackE"
  },
  {
   "name" : "_ZTTN7android8hardware14neuralnetworks4V1_322IPreparedModelCallbackE"
  },
  {
   "name" : "_ZTTN7android8hardware14neuralnetworks4V1_324IFencedExecutionCallbackE"
  },
  {
   "name" : "_ZTTN7android8hardware14neuralnetworks4V1_325BnHwPreparedModelCallbackE"
  },
  {
   "name" : "_ZTTN7android8hardware14neuralnetworks4V1_325BpHwPreparedModelCallbackE"
  },
  {
   "name" : "_ZTTN7android8hardware14neuralnetworks4V1_327BnHwFencedExecutionCallbackE"
  },
  {
   "name" : "_ZTTN7android8hardware14neuralnetworks4V1_327BpHwFencedExecutionCallbackE"
  },
  {
   "name" : "_ZTTN7android8hardware14neuralnetworks4V1_37IBufferE"
  },
  {
   "name" : "_ZTTN7android8hardware14neuralnetworks4V1_37IDeviceE"
  },
  {
   "name" : "_ZTVN7android8hardware14neuralnetworks4V1_310BnHwBufferE"
  },
  {
   "name" : "_ZTVN7android8hardware14neuralnetworks4V1_310BnHwDeviceE"
  },
  {
   "name" : "_ZTVN7android8hardware14neuralnetworks4V1_310BpHwBufferE"
  },
  {
   "name" : "_ZTVN7android8hardware14neuralnetworks4V1_310BpHwDeviceE"
  },
  {
   "name" : "_ZTVN7android8hardware14neuralnetworks4V1_314IPreparedModelE"
  },
  {
   "binding" : "weak",
   "name" : "_ZTVN7android8hardware14neuralnetworks4V1_315BsPreparedModelE"
  },
  {
   "name" : "_ZTVN7android8hardware14neuralnetworks4V1_317BnHwPreparedModelE"
  },
  {
   "name" : "_ZTVN7android8hardware14neuralnetworks4V1_317BpHwPreparedModelE"
  },
  {
   "name" : "_ZTVN7android8hardware14neuralnetworks4V1_318IExecutionCallbackE"
  },
  {
   "binding" : "weak",
   "name" : "_ZTVN7android8hardware14neuralnetworks4V1_319BsExecutionCallbackE"
  },
  {
   "name" : "_ZTVN7android8hardware14neuralnetworks4V1_321BnHwExecutionCallbackE"
  },
  {
   "name" : "_ZTVN7android8hardware14neuralnetworks4V1_321BpHwExecutionCallbackE"
  },
  {
   "name" : "_ZTVN7android8hardware14neuralnetworks4V1_322IPreparedModelCallbackE"
  },
  {
   "binding" : "weak",
   "name" : "_ZTVN7android8hardware14neuralnetworks4V1_323BsPreparedModelCallbackE"
  },
  {
   "name" : "_ZTVN7android8hardware14neuralnetworks4V1_324IFencedExecutionCallbackE"
  },
  {
   "name" : "_ZTVN7android8hardware14neuralnetworks4V1_325BnHwPreparedModelCallbackE"
  },
  {
   "name" : "_ZTVN7android8hardware14neuralnetworks4V1_325BpHwPreparedModelCallbackE"
  },
  {
   "binding" : "weak",
   "name" : "_ZTVN7android8hardware14neuralnetworks4V1_325BsFencedExecutionCallbackE"
  },
  {
   "name" : "_ZTVN7android8hardware14neuralnetworks4V1_327BnHwFencedExecutionCallbackE"
  },
  {
   "name" : "_ZTVN7android8hardware14neuralnetworks4V1_327BpHwFencedExecutionCallbackE"
  },
  {
   "name" : "_ZTVN7android8hardware14neuralnetworks4V1_37IBufferE"
  },
  {
   "name" : "_ZTVN7android8hardware14neuralnetworks4V1_37IDeviceE"
  },
  {
   "binding" : "weak",
   "name" : "_ZTVN7android8hardware14neuralnetworks4V1_38BsBufferE"
  },
  {
   "binding" : "weak",
   "name" : "_ZTVN7android8hardware14neuralnetworks4V1_38BsDeviceE"
  }
 ],
 "enum_types" :
 [
  {
   "alignment" : 4,
   "enum_fields" :
   [
    {
     "enum_field_value" : 1,
     "name" : "HAL_HDR_DOLBY_VISION"
    },
    {
     "enum_field_value" : 2,
     "name" : "HAL_HDR_HDR10"
    },
    {
     "enum_field_value" : 3,
     "name" : "HAL_HDR_HLG"
    }
   ],
   "linker_set_key" : "_ZTI13android_hdr_t",
   "name" : "android_hdr_t",
   "referenced_type" : "_ZTI13android_hdr_t",
   "self_type" : "_ZTI13android_hdr_t",
   "size" : 4,
   "source_file" : "/system/core/libsystem/include/system/graphics-base-v1.0.h",
   "underlying_type" : "_ZTIj"
  },
  {
   "alignment" : 4,
   "enum_fields" :
   [
    {
     "enum_field_value" : 4,
     "name" : "HAL_HDR_HDR10_PLUS"
    }
   ],
   "linker_set_key" : "_ZTI18android_hdr_v1_2_t",
   "name" : "android_hdr_v1_2_t",
   "referenced_type" : "_ZTI18android_hdr_v1_2_t",
   "self_type" : "_ZTI18android_hdr_v1_2_t",
   "size" : 4,
   "source_file" : "/system/core/libsystem/include/system/graphics-base-v1.2.h",
   "underlying_type" : "_ZTIj"
  },
  {
   "alignment" : 4,
   "enum_fields" :
   [
    {
     "enum_field_value" : 0,
     "name" : "ANDROID_LOG_UNKNOWN"
    },
    {
     "enum_field_value" : 1,
     "name" : "ANDROID_LOG_DEFAULT"
    },
    {
     "enum_field_value" : 2,
     "name" : "ANDROID_LOG_VERBOSE"
    },
    {
     "enum_field_value" : 3,
     "name" : "ANDROID_LOG_DEBUG"
    },
    {
     "enum_field_value" : 4,
     "name" : "ANDROID_LOG_INFO"
    },
    {
     "enum_field_value" : 5,
     "name" : "ANDROID_LOG_WARN"
    },
    {
     "enum_field_value" : 6,
     "name" : "ANDROID_LOG_ERROR"
    },
    {
     "enum_field_value" : 7,
     "name" : "ANDROID_LOG_FATAL"
    },
    {
     "enum_field_value" : 8,
     "name" : "ANDROID_LOG_SILENT"
    }
   ],
   "linker_set_key" : "_ZTI19android_LogPriority",
   "name" : "android_LogPriority",
   "referenced_type" : "_ZTI19android_LogPriority",
   "self_type" : "_ZTI19android_LogPriority",
   "size" : 4,
   "source_file" : "/system/core/liblog/include/android/log.h",
   "underlying_type" : "_ZTIj"
  },
  {
   "alignment" : 4,
   "enum_fields" :
   [
    {
     "enum_field_value" : 0,
     "name" : "HAL_DATASPACE_UNKNOWN"
    },
    {
     "enum_field_value" : 1,
     "name" : "HAL_DATASPACE_ARBITRARY"
    },
    {
     "enum_field_value" : 16,
     "name" : "HAL_DATASPACE_STANDARD_SHIFT"
    },
    {
     "enum_field_value" : 4128768,
     "name" : "HAL_DATASPACE_STANDARD_MASK"
    },
    {
     "enum_field_value" : 0,
     "name" : "HAL_DATASPACE_STANDARD_UNSPECIFIED"
    },
    {
     "enum_field_value" : 65536,
     "name" : "HAL_DATASPACE_STANDARD_BT709"
    },
    {
     "enum_field_value" : 131072,
     "name" : "HAL_DATASPACE_STANDARD_BT601_625"
    },
    {
     "enum_field_value" : 196608,
     "name" : "HAL_DATASPACE_STANDARD_BT601_625_UNADJUSTED"
    },
    {
     "enum_field_value" : 262144,
     "name" : "HAL_DATASPACE_STANDARD_BT601_525"
    },
    {
     "enum_field_value" : 327680,
     "name" : "HAL_DATASPACE_STANDARD_BT601_525_UNADJUSTED"
    },
    {
     "enum_field_value" : 393216,
     "name" : "HAL_DATASPACE_STANDARD_BT2020"
    },
    {
     "enum_field_value" : 458752,
     "name" : "HAL_DATASPACE_STANDARD_BT2020_CONSTANT_LUMINANCE"
    },
    {
     "enum_field_value" : 524288,
     "name" : "HAL_DATASPACE_STANDARD_BT470M"
    },
    {
     "enum_field_value" : 589824,
     "name" : "HAL_DATASPACE_STANDARD_FILM"
    },
    {
     "enum_field_value" : 655360,
     "name" : "HAL_DATASPACE_STANDARD_DCI_P3"
    },
    {
     "enum_field_value" : 720896,
     "name" : "HAL_DATASPACE_STANDARD_ADOBE_RGB"
    },
    {
     "enum_field_value" : 22,
     "name" : "HAL_DATASPACE_TRANSFER_SHIFT"
    },
    {
     "enum_field_value" : 130023424,
     "name" : "HAL_DATASPACE_TRANSFER_MASK"
    },
    {
     "enum_field_value" : 0,
     "name" : "HAL_DATASPACE_TRANSFER_UNSPECIFIED"
    },
    {
     "enum_field_value" : 4194304,
     "name" : "HAL_DATASPACE_TRANSFER_LINEAR"
    },
    {
     "enum_field_value" : 8388608,
     "name" : "HAL_DATASPACE_TRANSFER_SRGB"
    },
    {
     "enum_field_value" : 12582912,
     "name" : "HAL_DATASPACE_TRANSFER_SMPTE_170M"
    },
    {
     "enum_field_value" : 16777216,
     "name" : "HAL_DATASPACE_TRANSFER_GAMMA2_2"
    },
    {
     "enum_field_value" : 20971520,
     "name" : "HAL_DATASPACE_TRANSFER_GAMMA2_6"
    },
    {
     "enum_field_value" : 25165824,
     "name" : "HAL_DATASPACE_TRANSFER_GAMMA2_8"
    },
    {
     "enum_field_value" : 29360128,
     "name" : "HAL_DATASPACE_TRANSFER_ST2084"
    },
    {
     "enum_field_value" : 33554432,
     "name" : "HAL_DATASPACE_TRANSFER_HLG"
    },
    {
     "enum_field_value" : 27,
     "name" : "HAL_DATASPACE_RANGE_SHIFT"
    },
    {
     "enum_field_value" : 939524096,
     "name" : "HAL_DATASPACE_RANGE_MASK"
    },
    {
     "enum_field_value" : 0,
     "name" : "HAL_DATASPACE_RANGE_UNSPECIFIED"
    },
    {
     "enum_field_value" : 134217728,
     "name" : "HAL_DATASPACE_RANGE_FULL"
    },
    {
     "enum_field_value" : 268435456,
     "name" : "HAL_DATASPACE_RANGE_LIMITED"
    },
    {
     "enum_field_value" : 402653184,
     "name" : "HAL_DATASPACE_RANGE_EXTENDED"
    },
    {
     "enum_field_value" : 512,
     "name" : "HAL_DATASPACE_SRGB_LINEAR"
    },
    {
     "enum_field_value" : 138477568,
     "name" : "HAL_DATASPACE_V0_SRGB_LINEAR"
    },
    {
     "enum_field_value" : 406913024,
     "name" : "HAL_DATASPACE_V0_SCRGB_LINEAR"
    },
    {
     "enum_field_value" : 513,
     "name" : "HAL_DATASPACE_SRGB"
    },
    {
     "enum_field_value" : 142671872,
     "name" : "HAL_DATASPACE_V0_SRGB"
    },
    {
     "enum_field_value" : 411107328,
     "name" : "HAL_DATASPACE_V0_SCRGB"
    },
    {
     "enum_field_value" : 257,
     "name" : "HAL_DATASPACE_JFIF"
    },
    {
     "enum_field_value" : 146931712,
     "name" : "HAL_DATASPACE_V0_JFIF"
    },
    {
     "enum_field_value" : 258,
     "name" : "HAL_DATASPACE_BT601_625"
    },
    {
     "enum_field_value" : 281149440,
     "name" : "HAL_DATASPACE_V0_BT601_625"
    },
    {
     "enum_field_value" : 259,
     "name" : "HAL_DATASPACE_BT601_525"
    },
    {
     "enum_field_value" : 281280512,
     "name" : "HAL_DATASPACE_V0_BT601_525"
    },
    {
     "enum_field_value" : 260,
     "name" : "HAL_DATASPACE_BT709"
    },
    {
     "enum_field_value" : 281083904,
     "name" : "HAL_DATASPACE_V0_BT709"
    },
    {
     "enum_field_value" : 139067392,
     "name" : "HAL_DATASPACE_DCI_P3_LINEAR"
    },
    {
     "enum_field_value" : 155844608,
     "name" : "HAL_DATASPACE_DCI_P3"
    },
    {
     "enum_field_value" : 139067392,
     "name" : "HAL_DATASPACE_DISPLAY_P3_LINEAR"
    },
    {
     "enum_field_value" : 143261696,
     "name" : "HAL_DATASPACE_DISPLAY_P3"
    },
    {
     "enum_field_value" : 151715840,
     "name" : "HAL_DATASPACE_ADOBE_RGB"
    },
    {
     "enum_field_value" : 138805248,
     "name" : "HAL_DATASPACE_BT2020_LINEAR"
    },
    {
     "enum_field_value" : 147193856,
     "name" : "HAL_DATASPACE_BT2020"
    },
    {
     "enum_field_value" : 163971072,
     "name" : "HAL_DATASPACE_BT2020_PQ"
    },
    {
     "enum_field_value" : 4096,
     "name" : "HAL_DATASPACE_DEPTH"
    },
    {
     "enum_field_value" : 4097,
     "name" : "HAL_DATASPACE_SENSOR"
    }
   ],
   "linker_set_key" : "_ZTI19android_dataspace_t",
   "name" : "android_dataspace_t",
   "referenced_type" : "_ZTI19android_dataspace_t",
   "self_type" : "_ZTI19android_dataspace_t",
   "size" : 4,
   "source_file" : "/system/core/libsystem/include/system/graphics-base-v1.0.h",
   "underlying_type" : "_ZTIj"
  },
  {
   "alignment" : 4,
   "enum_fields" :
   [
    {
     "enum_field_value" : 0,
     "name" : "FLEX_FORMAT_INVALID"
    },
    {
     "enum_field_value" : 1,
     "name" : "FLEX_FORMAT_Y"
    },
    {
     "enum_field_value" : 7,
     "name" : "FLEX_FORMAT_YCbCr"
    },
    {
     "enum_field_value" : 1073741831,
     "name" : "FLEX_FORMAT_YCbCrA"
    },
    {
     "enum_field_value" : 7168,
     "name" : "FLEX_FORMAT_RGB"
    },
    {
     "enum_field_value" : 1073748992,
     "name" : "FLEX_FORMAT_RGBA"
    }
   ],
   "linker_set_key" : "_ZTI19android_flex_format",
   "name" : "android_flex_format",
   "referenced_type" : "_ZTI19android_flex_format",
   "self_type" : "_ZTI19android_flex_format",
   "size" : 4,
   "source_file" : "/system/core/libsystem/include/system/graphics.h",
   "underlying_type" : "_ZTIj"
  },
  {
   "alignment" : 4,
   "enum_fields" :
   [
    {
     "enum_field_value" : 1,
     "name" : "HAL_TRANSFORM_FLIP_H"
    },
    {
     "enum_field_value" : 2,
     "name" : "HAL_TRANSFORM_FLIP_V"
    },
    {
     "enum_field_value" : 4,
     "name" : "HAL_TRANSFORM_ROT_90"
    },
    {
     "enum_field_value" : 3,
     "name" : "HAL_TRANSFORM_ROT_180"
    },
    {
     "enum_field_value" : 7,
     "name" : "HAL_TRANSFORM_ROT_270"
    }
   ],
   "linker_set_key" : "_ZTI19android_transform_t",
   "name" : "android_transform_t",
   "referenced_type" : "_ZTI19android_transform_t",
   "self_type" : "_ZTI19android_transform_t",
   "size" : 4,
   "source_file" : "/system/core/libsystem/include/system/graphics-base-v1.0.h",
   "underlying_type" : "_ZTIj"
  },
  {
   "alignment" : 4,
   "enum_fields" :
   [
    {
     "enum_field_value" : 0,
     "name" : "HAL_COLOR_MODE_NATIVE"
    },
    {
     "enum_field_value" : 1,
     "name" : "HAL_COLOR_MODE_STANDARD_BT601_625"
    },
    {
     "enum_field_value" : 2,
     "name" : "HAL_COLOR_MODE_STANDARD_BT601_625_UNADJUSTED"
    },
    {
     "enum_field_value" : 3,
     "name" : "HAL_COLOR_MODE_STANDARD_BT601_525"
    },
    {
     "enum_field_value" : 4,
     "name" : "HAL_COLOR_MODE_STANDARD_BT601_525_UNADJUSTED"
    },
    {
     "enum_field_value" : 5,
     "name" : "HAL_COLOR_MODE_STANDARD_BT709"
    },
    {
     "enum_field_value" : 6,
     "name" : "HAL_COLOR_MODE_DCI_P3"
    },
    {
     "enum_field_value" : 7,
     "name" : "HAL_COLOR_MODE_SRGB"
    },
    {
     "enum_field_value" : 8,
     "name" : "HAL_COLOR_MODE_ADOBE_RGB"
    },
    {
     "enum_field_value" : 9,
     "name" : "HAL_COLOR_MODE_DISPLAY_P3"
    }
   ],
   "linker_set_key" : "_ZTI20android_color_mode_t",
   "name" : "android_color_mode_t",
   "referenced_type" : "_ZTI20android_color_mode_t",
   "self_type" : "_ZTI20android_color_mode_t",
   "size" : 4,
   "source_file" : "/system/core/libsystem/include/system/graphics-base-v1.0.h",
   "underlying_type" : "_ZTIj"
  },
  {
   "alignment" : 4,
   "enum_fields" :
   [
    {
     "enum_field_value" : 0,
     "name" : "SYSTEM_TIME_REALTIME"
    },
    {
     "enum_field_value" : 1,
     "name" : "SYSTEM_TIME_MONOTONIC"
    },
    {
     "enum_field_value" : 2,
     "name" : "SYSTEM_TIME_PROCESS"
    },
    {
     "enum_field_value" : 3,
     "name" : "SYSTEM_TIME_THREAD"
    },
    {
     "enum_field_value" : 4,
     "name" : "SYSTEM_TIME_BOOTTIME"
    }
   ],
   "linker_set_key" : "_ZTI21$SYSTEM_TIME_BOOTTIME",
   "name" : "(anonymous enum at system/core/libutils/include/utils/Timers.h:79:1)",
   "referenced_type" : "_ZTI21$SYSTEM_TIME_BOOTTIME",
   "self_type" : "_ZTI21$SYSTEM_TIME_BOOTTIME",
   "size" : 4,
   "source_file" : "/system/core/libutils/include/utils/Timers.h",
   "underlying_type" : "_ZTIj"
  },
  {
   "alignment" : 4,
   "enum_fields" :
   [
    {
     "enum_field_value" : 1,
     "name" : "FLEX_COMPONENT_Y"
    },
    {
     "enum_field_value" : 2,
     "name" : "FLEX_COMPONENT_Cb"
    },
    {
     "enum_field_value" : 4,
     "name" : "FLEX_COMPONENT_Cr"
    },
    {
     "enum_field_value" : 1024,
     "name" : "FLEX_COMPONENT_R"
    },
    {
     "enum_field_value" : 2048,
     "name" : "FLEX_COMPONENT_G"
    },
    {
     "enum_field_value" : 4096,
     "name" : "FLEX_COMPONENT_B"
    },
    {
     "enum_field_value" : 1073741824,
     "name" : "FLEX_COMPONENT_A"
    }
   ],
   "linker_set_key" : "_ZTI22android_flex_component",
   "name" : "android_flex_component",
   "referenced_type" : "_ZTI22android_flex_component",
   "self_type" : "_ZTI22android_flex_component",
   "size" : 4,
   "source_file" : "/system/core/libsystem/include/system/graphics.h",
   "underlying_type" : "_ZTIj"
  },
  {
   "alignment" : 4,
   "enum_fields" :
   [
    {
     "enum_field_value" : 1,
     "name" : "HAL_PIXEL_FORMAT_RGBA_8888"
    },
    {
     "enum_field_value" : 2,
     "name" : "HAL_PIXEL_FORMAT_RGBX_8888"
    },
    {
     "enum_field_value" : 3,
     "name" : "HAL_PIXEL_FORMAT_RGB_888"
    },
    {
     "enum_field_value" : 4,
     "name" : "HAL_PIXEL_FORMAT_RGB_565"
    },
    {
     "enum_field_value" : 5,
     "name" : "HAL_PIXEL_FORMAT_BGRA_8888"
    },
    {
     "enum_field_value" : 16,
     "name" : "HAL_PIXEL_FORMAT_YCBCR_422_SP"
    },
    {
     "enum_field_value" : 17,
     "name" : "HAL_PIXEL_FORMAT_YCRCB_420_SP"
    },
    {
     "enum_field_value" : 20,
     "name" : "HAL_PIXEL_FORMAT_YCBCR_422_I"
    },
    {
     "enum_field_value" : 22,
     "name" : "HAL_PIXEL_FORMAT_RGBA_FP16"
    },
    {
     "enum_field_value" : 32,
     "name" : "HAL_PIXEL_FORMAT_RAW16"
    },
    {
     "enum_field_value" : 33,
     "name" : "HAL_PIXEL_FORMAT_BLOB"
    },
    {
     "enum_field_value" : 34,
     "name" : "HAL_PIXEL_FORMAT_IMPLEMENTATION_DEFINED"
    },
    {
     "enum_field_value" : 35,
     "name" : "HAL_PIXEL_FORMAT_YCBCR_420_888"
    },
    {
     "enum_field_value" : 36,
     "name" : "HAL_PIXEL_FORMAT_RAW_OPAQUE"
    },
    {
     "enum_field_value" : 37,
     "name" : "HAL_PIXEL_FORMAT_RAW10"
    },
    {
     "enum_field_value" : 38,
     "name" : "HAL_PIXEL_FORMAT_RAW12"
    },
    {
     "enum_field_value" : 43,
     "name" : "HAL_PIXEL_FORMAT_RGBA_1010102"
    },
    {
     "enum_field_value" : 538982489,
     "name" : "HAL_PIXEL_FORMAT_Y8"
    },
    {
     "enum_field_value" : 540422489,
     "name" : "HAL_PIXEL_FORMAT_Y16"
    },
    {
     "enum_field_value" : 842094169,
     "name" : "HAL_PIXEL_FORMAT_YV12"
    }
   ],
   "linker_set_key" : "_ZTI22android_pixel_format_t",
   "name" : "android_pixel_format_t",
   "referenced_type" : "_ZTI22android_pixel_format_t",
   "self_type" : "_ZTI22android_pixel_format_t",
   "size" : 4,
   "source_file" : "/system/core/libsystem/include/system/graphics-base-v1.0.h",
   "underlying_type" : "_ZTIj"
  },
  {
   "alignment" : 4,
   "enum_fields" :
   [
    {
     "enum_field_value" : 19,
     "name" : "ANDROID_PRIORITY_LOWEST"
    },
    {
     "enum_field_value" : 10,
     "name" : "ANDROID_PRIORITY_BACKGROUND"
    },
    {
     "enum_field_value" : 0,
     "name" : "ANDROID_PRIORITY_NORMAL"
    },
    {
     "enum_field_value" : -2,
     "name" : "ANDROID_PRIORITY_FOREGROUND"
    },
    {
     "enum_field_value" : -4,
     "name" : "ANDROID_PRIORITY_DISPLAY"
    },
    {
     "enum_field_value" : -8,
     "name" : "ANDROID_PRIORITY_URGENT_DISPLAY"
    },
    {
     "enum_field_value" : -10,
     "name" : "ANDROID_PRIORITY_VIDEO"
    },
    {
     "enum_field_value" : -16,
     "name" : "ANDROID_PRIORITY_AUDIO"
    },
    {
     "enum_field_value" : -19,
     "name" : "ANDROID_PRIORITY_URGENT_AUDIO"
    },
    {
     "enum_field_value" : -20,
     "name" : "ANDROID_PRIORITY_HIGHEST"
    },
    {
     "enum_field_value" : 0,
     "name" : "ANDROID_PRIORITY_DEFAULT"
    },
    {
     "enum_field_value" : -1,
     "name" : "ANDROID_PRIORITY_MORE_FAVORABLE"
    },
    {
     "enum_field_value" : 1,
     "name" : "ANDROID_PRIORITY_LESS_FAVORABLE"
    }
   ],
   "linker_set_key" : "_ZTI23$ANDROID_PRIORITY_AUDIO",
   "name" : "(anonymous enum at system/core/libsystem/include/system/thread_defs.h:26:1)",
   "referenced_type" : "_ZTI23$ANDROID_PRIORITY_AUDIO",
   "self_type" : "_ZTI23$ANDROID_PRIORITY_AUDIO",
   "size" : 4,
   "source_file" : "/system/core/libsystem/include/system/thread_defs.h",
   "underlying_type" : "_ZTIi"
  },
  {
   "alignment" : 4,
   "enum_fields" :
   [
    {
     "enum_field_value" : 281411584,
     "name" : "HAL_DATASPACE_BT2020_ITU"
    },
    {
     "enum_field_value" : 298188800,
     "name" : "HAL_DATASPACE_BT2020_ITU_PQ"
    },
    {
     "enum_field_value" : 302383104,
     "name" : "HAL_DATASPACE_BT2020_ITU_HLG"
    },
    {
     "enum_field_value" : 168165376,
     "name" : "HAL_DATASPACE_BT2020_HLG"
    }
   ],
   "linker_set_key" : "_ZTI24android_dataspace_v1_1_t",
   "name" : "android_dataspace_v1_1_t",
   "referenced_type" : "_ZTI24android_dataspace_v1_1_t",
   "self_type" : "_ZTI24android_dataspace_v1_1_t",
   "size" : 4,
   "source_file" : "/system/core/libsystem/include/system/graphics-base-v1.1.h",
   "underlying_type" : "_ZTIj"
  },
  {
   "alignment" : 4,
   "enum_fields" :
   [
    {
     "enum_field_value" : 142999552,
     "name" : "HAL_DATASPACE_DISPLAY_BT2020"
    },
    {
     "enum_field_value" : 4098,
     "name" : "HAL_DATASPACE_DYNAMIC_DEPTH"
    },
    {
     "enum_field_value" : 4099,
     "name" : "HAL_DATASPACE_JPEG_APP_SEGMENTS"
    },
    {
     "enum_field_value" : 4100,
     "name" : "HAL_DATASPACE_HEIF"
    }
   ],
   "linker_set_key" : "_ZTI24android_dataspace_v1_2_t",
   "name" : "android_dataspace_v1_2_t",
   "referenced_type" : "_ZTI24android_dataspace_v1_2_t",
   "self_type" : "_ZTI24android_dataspace_v1_2_t",
   "size" : 4,
   "source_file" : "/system/core/libsystem/include/system/graphics-base-v1.2.h",
   "underlying_type" : "_ZTIj"
  },
  {
   "alignment" : 4,
   "enum_fields" :
   [
    {
     "enum_field_value" : 10,
     "name" : "HAL_COLOR_MODE_BT2020"
    },
    {
     "enum_field_value" : 11,
     "name" : "HAL_COLOR_MODE_BT2100_PQ"
    },
    {
     "enum_field_value" : 12,
     "name" : "HAL_COLOR_MODE_BT2100_HLG"
    }
   ],
   "linker_set_key" : "_ZTI25android_color_mode_v1_1_t",
   "name" : "android_color_mode_v1_1_t",
   "referenced_type" : "_ZTI25android_color_mode_v1_1_t",
   "self_type" : "_ZTI25android_color_mode_v1_1_t",
   "size" : 4,
   "source_file" : "/system/core/libsystem/include/system/graphics-base-v1.1.h",
   "underlying_type" : "_ZTIj"
  },
  {
   "alignment" : 4,
   "enum_fields" :
   [
    {
     "enum_field_value" : 0,
     "name" : "HAL_COLOR_TRANSFORM_IDENTITY"
    },
    {
     "enum_field_value" : 1,
     "name" : "HAL_COLOR_TRANSFORM_ARBITRARY_MATRIX"
    },
    {
     "enum_field_value" : 2,
     "name" : "HAL_COLOR_TRANSFORM_VALUE_INVERSE"
    },
    {
     "enum_field_value" : 3,
     "name" : "HAL_COLOR_TRANSFORM_GRAYSCALE"
    },
    {
     "enum_field_value" : 4,
     "name" : "HAL_COLOR_TRANSFORM_CORRECT_PROTANOPIA"
    },
    {
     "enum_field_value" : 5,
     "name" : "HAL_COLOR_TRANSFORM_CORRECT_DEUTERANOPIA"
    },
    {
     "enum_field_value" : 6,
     "name" : "HAL_COLOR_TRANSFORM_CORRECT_TRITANOPIA"
    }
   ],
   "linker_set_key" : "_ZTI25android_color_transform_t",
   "name" : "android_color_transform_t",
   "referenced_type" : "_ZTI25android_color_transform_t",
   "self_type" : "_ZTI25android_color_transform_t",
   "size" : 4,
   "source_file" : "/system/core/libsystem/include/system/graphics-base-v1.0.h",
   "underlying_type" : "_ZTIj"
  },
  {
   "alignment" : 4,
   "enum_fields" :
   [
    {
     "enum_field_value" : 39,
     "name" : "HAL_PIXEL_FORMAT_YCBCR_422_888"
    },
    {
     "enum_field_value" : 40,
     "name" : "HAL_PIXEL_FORMAT_YCBCR_444_888"
    },
    {
     "enum_field_value" : 41,
     "name" : "HAL_PIXEL_FORMAT_FLEX_RGB_888"
    },
    {
     "enum_field_value" : 42,
     "name" : "HAL_PIXEL_FORMAT_FLEX_RGBA_8888"
    }
   ],
   "linker_set_key" : "_ZTI25android_pixel_format_sw_t",
   "name" : "android_pixel_format_sw_t",
   "referenced_type" : "_ZTI25android_pixel_format_sw_t",
   "self_type" : "_ZTI25android_pixel_format_sw_t",
   "size" : 4,
   "source_file" : "/system/core/libsystem/include/system/graphics-sw.h",
   "underlying_type" : "_ZTIj"
  },
  {
   "alignment" : 4,
   "enum_fields" :
   [
    {
     "enum_field_value" : 48,
     "name" : "HAL_PIXEL_FORMAT_DEPTH_16"
    },
    {
     "enum_field_value" : 49,
     "name" : "HAL_PIXEL_FORMAT_DEPTH_24"
    },
    {
     "enum_field_value" : 50,
     "name" : "HAL_PIXEL_FORMAT_DEPTH_24_STENCIL_8"
    },
    {
     "enum_field_value" : 51,
     "name" : "HAL_PIXEL_FORMAT_DEPTH_32F"
    },
    {
     "enum_field_value" : 52,
     "name" : "HAL_PIXEL_FORMAT_DEPTH_32F_STENCIL_8"
    },
    {
     "enum_field_value" : 53,
     "name" : "HAL_PIXEL_FORMAT_STENCIL_8"
    },
    {
     "enum_field_value" : 54,
     "name" : "HAL_PIXEL_FORMAT_YCBCR_P010"
    }
   ],
   "linker_set_key" : "_ZTI27android_pixel_format_v1_1_t",
   "name" : "android_pixel_format_v1_1_t",
   "referenced_type" : "_ZTI27android_pixel_format_v1_1_t",
   "self_type" : "_ZTI27android_pixel_format_v1_1_t",
   "size" : 4,
   "source_file" : "/system/core/libsystem/include/system/graphics-base-v1.1.h",
   "underlying_type" : "_ZTIj"
  },
  {
   "alignment" : 4,
   "enum_fields" :
   [
    {
     "enum_field_value" : 55,
     "name" : "HAL_PIXEL_FORMAT_HSV_888"
    }
   ],
   "linker_set_key" : "_ZTI27android_pixel_format_v1_2_t",
   "name" : "android_pixel_format_v1_2_t",
   "referenced_type" : "_ZTI27android_pixel_format_v1_2_t",
   "self_type" : "_ZTI27android_pixel_format_v1_2_t",
   "size" : 4,
   "source_file" : "/system/core/libsystem/include/system/graphics-base-v1.2.h",
   "underlying_type" : "_ZTIj"
  },
  {
   "alignment" : 4,
   "enum_fields" :
   [
    {
     "enum_field_value" : 0,
     "name" : "HAL_RENDER_INTENT_COLORIMETRIC"
    },
    {
     "enum_field_value" : 1,
     "name" : "HAL_RENDER_INTENT_ENHANCE"
    },
    {
     "enum_field_value" : 2,
     "name" : "HAL_RENDER_INTENT_TONE_MAP_COLORIMETRIC"
    },
    {
     "enum_field_value" : 3,
     "name" : "HAL_RENDER_INTENT_TONE_MAP_ENHANCE"
    }
   ],
   "linker_set_key" : "_ZTI28android_render_intent_v1_1_t",
   "name" : "android_render_intent_v1_1_t",
   "referenced_type" : "_ZTI28android_render_intent_v1_1_t",
   "self_type" : "_ZTI28android_render_intent_v1_1_t",
   "size" : 4,
   "source_file" : "/system/core/libsystem/include/system/graphics-base-v1.1.h",
   "underlying_type" : "_ZTIj"
  },
  {
   "alignment" : 4,
   "enum_fields" :
   [
    {
     "enum_field_value" : 0,
     "name" : "LOG_ID_MIN"
    },
    {
     "enum_field_value" : 0,
     "name" : "LOG_ID_MAIN"
    },
    {
     "enum_field_value" : 1,
     "name" : "LOG_ID_RADIO"
    },
    {
     "enum_field_value" : 2,
     "name" : "LOG_ID_EVENTS"
    },
    {
     "enum_field_value" : 3,
     "name" : "LOG_ID_SYSTEM"
    },
    {
     "enum_field_value" : 4,
     "name" : "LOG_ID_CRASH"
    },
    {
     "enum_field_value" : 5,
     "name" : "LOG_ID_STATS"
    },
    {
     "enum_field_value" : 6,
     "name" : "LOG_ID_SECURITY"
    },
    {
     "enum_field_value" : 7,
     "name" : "LOG_ID_KERNEL"
    },
    {
     "enum_field_value" : 8,
     "name" : "LOG_ID_MAX"
    },
    {
     "enum_field_value" : 2147483647,
     "name" : "LOG_ID_DEFAULT"
    }
   ],
   "linker_set_key" : "_ZTI6log_id",
   "name" : "log_id",
   "referenced_type" : "_ZTI6log_id",
   "self_type" : "_ZTI6log_id",
   "size" : 4,
   "source_file" : "/system/core/liblog/include/android/log.h",
   "underlying_type" : "_ZTIj"
  },
  {
   "alignment" : 4,
   "enum_fields" :
   [
    {
     "enum_field_value" : 1,
     "name" : "android::VectorImpl::HAS_TRIVIAL_CTOR"
    },
    {
     "enum_field_value" : 2,
     "name" : "android::VectorImpl::HAS_TRIVIAL_DTOR"
    },
    {
     "enum_field_value" : 4,
     "name" : "android::VectorImpl::HAS_TRIVIAL_COPY"
    }
   ],
   "linker_set_key" : "_ZTIN7android10VectorImpl17$HAS_TRIVIAL_COPYE",
   "name" : "android::VectorImpl::(anonymous enum at system/core/libutils/include/utils/VectorImpl.h:43:5)",
   "referenced_type" : "_ZTIN7android10VectorImpl17$HAS_TRIVIAL_COPYE",
   "self_type" : "_ZTIN7android10VectorImpl17$HAS_TRIVIAL_COPYE",
   "size" : 4,
   "source_file" : "/system/core/libutils/include/utils/VectorImpl.h",
   "underlying_type" : "_ZTIj"
  },
  {
   "alignment" : 4,
   "enum_fields" :
   [
    {
     "enum_field_value" : 0,
     "name" : "android::OK"
    },
    {
     "enum_field_value" : 0,
     "name" : "android::NO_ERROR"
    },
    {
     "enum_field_value" : -2147483648,
     "name" : "android::UNKNOWN_ERROR"
    },
    {
     "enum_field_value" : -12,
     "name" : "android::NO_MEMORY"
    },
    {
     "enum_field_value" : -38,
     "name" : "android::INVALID_OPERATION"
    },
    {
     "enum_field_value" : -22,
     "name" : "android::BAD_VALUE"
    },
    {
     "enum_field_value" : -2147483647,
     "name" : "android::BAD_TYPE"
    },
    {
     "enum_field_value" : -2,
     "name" : "android::NAME_NOT_FOUND"
    },
    {
     "enum_field_value" : -1,
     "name" : "android::PERMISSION_DENIED"
    },
    {
     "enum_field_value" : -19,
     "name" : "android::NO_INIT"
    },
    {
     "enum_field_value" : -17,
     "name" : "android::ALREADY_EXISTS"
    },
    {
     "enum_field_value" : -32,
     "name" : "android::DEAD_OBJECT"
    },
    {
     "enum_field_value" : -2147483646,
     "name" : "android::FAILED_TRANSACTION"
    },
    {
     "enum_field_value" : -75,
     "name" : "android::BAD_INDEX"
    },
    {
     "enum_field_value" : -61,
     "name" : "android::NOT_ENOUGH_DATA"
    },
    {
     "enum_field_value" : -11,
     "name" : "android::WOULD_BLOCK"
    },
    {
     "enum_field_value" : -110,
     "name" : "android::TIMED_OUT"
    },
    {
     "enum_field_value" : -74,
     "name" : "android::UNKNOWN_TRANSACTION"
    },
    {
     "enum_field_value" : -2147483641,
     "name" : "android::FDS_NOT_ALLOWED"
    },
    {
     "enum_field_value" : -2147483640,
     "name" : "android::UNEXPECTED_NULL"
    }
   ],
   "linker_set_key" : "_ZTIN7android15$ALREADY_EXISTSE",
   "name" : "android::(anonymous enum at system/core/libutils/include/utils/Errors.h:43:1)",
   "referenced_type" : "_ZTIN7android15$ALREADY_EXISTSE",
   "self_type" : "_ZTIN7android15$ALREADY_EXISTSE",
   "size" : 4,
   "source_file" : "/system/core/libutils/include/utils/Errors.h",
   "underlying_type" : "_ZTIi"
  },
  {
   "alignment" : 4,
   "enum_fields" :
   [
    {
     "enum_field_value" : 19,
     "name" : "android::PRIORITY_LOWEST"
    },
    {
     "enum_field_value" : 10,
     "name" : "android::PRIORITY_BACKGROUND"
    },
    {
     "enum_field_value" : 0,
     "name" : "android::PRIORITY_NORMAL"
    },
    {
     "enum_field_value" : -2,
     "name" : "android::PRIORITY_FOREGROUND"
    },
    {
     "enum_field_value" : -4,
     "name" : "android::PRIORITY_DISPLAY"
    },
    {
     "enum_field_value" : -8,
     "name" : "android::PRIORITY_URGENT_DISPLAY"
    },
    {
     "enum_field_value" : -16,
     "name" : "android::PRIORITY_AUDIO"
    },
    {
     "enum_field_value" : -19,
     "name" : "android::PRIORITY_URGENT_AUDIO"
    },
    {
     "enum_field_value" : -20,
     "name" : "android::PRIORITY_HIGHEST"
    },
    {
     "enum_field_value" : 0,
     "name" : "android::PRIORITY_DEFAULT"
    },
    {
     "enum_field_value" : -1,
     "name" : "android::PRIORITY_MORE_FAVORABLE"
    },
    {
     "enum_field_value" : 1,
     "name" : "android::PRIORITY_LESS_FAVORABLE"
    }
   ],
   "linker_set_key" : "_ZTIN7android15$PRIORITY_AUDIOE",
   "name" : "android::(anonymous enum at system/core/libutils/include/utils/ThreadDefs.h:53:1)",
   "referenced_type" : "_ZTIN7android15$PRIORITY_AUDIOE",
   "self_type" : "_ZTIN7android15$PRIORITY_AUDIOE",
   "size" : 4,
   "source_file" : "/system/core/libutils/include/utils/ThreadDefs.h",
   "underlying_type" : "_ZTIi"
  },
  {
   "alignment" : 4,
   "enum_fields" :
   [
    {
     "enum_field_value" : 1,
     "name" : "android::trait_trivial_copy<bool>::value"
    }
   ],
   "linker_set_key" : "_ZTIN7android18trait_trivial_copyIbE6$valueE",
   "name" : "android::trait_trivial_copy<bool>::(anonymous enum at system/core/libutils/include/utils/TypeHelpers.h:98:1)",
   "referenced_type" : "_ZTIN7android18trait_trivial_copyIbE6$valueE",
   "self_type" : "_ZTIN7android18trait_trivial_copyIbE6$valueE",
   "size" : 4,
   "source_file" : "/system/core/libutils/include/utils/TypeHelpers.h",
   "underlying_type" : "_ZTIj"
  },
  {
   "alignment" : 4,
   "enum_fields" :
   [
    {
     "enum_field_value" : 1,
     "name" : "android::trait_trivial_copy<char>::value"
    }
   ],
   "linker_set_key" : "_ZTIN7android18trait_trivial_copyIcE6$valueE",
   "name" : "android::trait_trivial_copy<char>::(anonymous enum at system/core/libutils/include/utils/TypeHelpers.h:99:1)",
   "referenced_type" : "_ZTIN7android18trait_trivial_copyIcE6$valueE",
   "self_type" : "_ZTIN7android18trait_trivial_copyIcE6$valueE",
   "size" : 4,
   "source_file" : "/system/core/libutils/include/utils/TypeHelpers.h",
   "underlying_type" : "_ZTIj"
  },
  {
   "alignment" : 4,
   "enum_fields" :
   [
    {
     "enum_field_value" : 1,
     "name" : "android::trait_trivial_copy<double>::value"
    }
   ],
   "linker_set_key" : "_ZTIN7android18trait_trivial_copyIdE6$valueE",
   "name" : "android::trait_trivial_copy<double>::(anonymous enum at system/core/libutils/include/utils/TypeHelpers.h:110:1)",
   "referenced_type" : "_ZTIN7android18trait_trivial_copyIdE6$valueE",
   "self_type" : "_ZTIN7android18trait_trivial_copyIdE6$valueE",
   "size" : 4,
   "source_file" : "/system/core/libutils/include/utils/TypeHelpers.h",
   "underlying_type" : "_ZTIj"
  },
  {
   "alignment" : 4,
   "enum_fields" :
   [
    {
     "enum_field_value" : 1,
     "name" : "android::trait_trivial_copy<float>::value"
    }
   ],
   "linker_set_key" : "_ZTIN7android18trait_trivial_copyIfE6$valueE",
   "name" : "android::trait_trivial_copy<float>::(anonymous enum at system/core/libutils/include/utils/TypeHelpers.h:109:1)",
   "referenced_type" : "_ZTIN7android18trait_trivial_copyIfE6$valueE",
   "self_type" : "_ZTIN7android18trait_trivial_copyIfE6$valueE",
   "size" : 4,
   "source_file" : "/system/core/libutils/include/utils/TypeHelpers.h",
   "underlying_type" : "_ZTIj"
  },
  {
   "alignment" : 4,
   "enum_fields" :
   [
    {
     "enum_field_value" : 1,
     "name" : "android::trait_trivial_copy<unsigned char>::value"
    }
   ],
   "linker_set_key" : "_ZTIN7android18trait_trivial_copyIhE6$valueE",
   "name" : "android::trait_trivial_copy<unsigned char>::(anonymous enum at system/core/libutils/include/utils/TypeHelpers.h:100:1)",
   "referenced_type" : "_ZTIN7android18trait_trivial_copyIhE6$valueE",
   "self_type" : "_ZTIN7android18trait_trivial_copyIhE6$valueE",
   "size" : 4,
   "source_file" : "/system/core/libutils/include/utils/TypeHelpers.h",
   "underlying_type" : "_ZTIj"
  },
  {
   "alignment" : 4,
   "enum_fields" :
   [
    {
     "enum_field_value" : 1,
     "name" : "android::trait_trivial_copy<int>::value"
    }
   ],
   "linker_set_key" : "_ZTIN7android18trait_trivial_copyIiE6$valueE",
   "name" : "android::trait_trivial_copy<int>::(anonymous enum at system/core/libutils/include/utils/TypeHelpers.h:103:1)",
   "referenced_type" : "_ZTIN7android18trait_trivial_copyIiE6$valueE",
   "self_type" : "_ZTIN7android18trait_trivial_copyIiE6$valueE",
   "size" : 4,
   "source_file" : "/system/core/libutils/include/utils/TypeHelpers.h",
   "underlying_type" : "_ZTIj"
  },
  {
   "alignment" : 4,
   "enum_fields" :
   [
    {
     "enum_field_value" : 1,
     "name" : "android::trait_trivial_copy<unsigned int>::value"
    }
   ],
   "linker_set_key" : "_ZTIN7android18trait_trivial_copyIjE6$valueE",
   "name" : "android::trait_trivial_copy<unsigned int>::(anonymous enum at system/core/libutils/include/utils/TypeHelpers.h:104:1)",
   "referenced_type" : "_ZTIN7android18trait_trivial_copyIjE6$valueE",
   "self_type" : "_ZTIN7android18trait_trivial_copyIjE6$valueE",
   "size" : 4,
   "source_file" : "/system/core/libutils/include/utils/TypeHelpers.h",
   "underlying_type" : "_ZTIj"
  },
  {
   "alignment" : 4,
   "enum_fields" :
   [
    {
     "enum_field_value" : 1,
     "name" : "android::trait_trivial_copy<long>::value"
    }
   ],
   "linker_set_key" : "_ZTIN7android18trait_trivial_copyIlE6$valueE",
   "name" : "android::trait_trivial_copy<long>::(anonymous enum at system/core/libutils/include/utils/TypeHelpers.h:105:1)",
   "referenced_type" : "_ZTIN7android18trait_trivial_copyIlE6$valueE",
   "self_type" : "_ZTIN7android18trait_trivial_copyIlE6$valueE",
   "size" : 4,
   "source_file" : "/system/core/libutils/include/utils/TypeHelpers.h",
   "underlying_type" : "_ZTIj"
  },
  {
   "alignment" : 4,
   "enum_fields" :
   [
    {
     "enum_field_value" : 1,
     "name" : "android::trait_trivial_copy<unsigned long>::value"
    }
   ],
   "linker_set_key" : "_ZTIN7android18trait_trivial_copyImE6$valueE",
   "name" : "android::trait_trivial_copy<unsigned long>::(anonymous enum at system/core/libutils/include/utils/TypeHelpers.h:106:1)",
   "referenced_type" : "_ZTIN7android18trait_trivial_copyImE6$valueE",
   "self_type" : "_ZTIN7android18trait_trivial_copyImE6$valueE",
   "size" : 4,
   "source_file" : "/system/core/libutils/include/utils/TypeHelpers.h",
   "underlying_type" : "_ZTIj"
  },
  {
   "alignment" : 4,
   "enum_fields" :
   [
    {
     "enum_field_value" : 1,
     "name" : "android::trait_trivial_copy<short>::value"
    }
   ],
   "linker_set_key" : "_ZTIN7android18trait_trivial_copyIsE6$valueE",
   "name" : "android::trait_trivial_copy<short>::(anonymous enum at system/core/libutils/include/utils/TypeHelpers.h:101:1)",
   "referenced_type" : "_ZTIN7android18trait_trivial_copyIsE6$valueE",
   "self_type" : "_ZTIN7android18trait_trivial_copyIsE6$valueE",
   "size" : 4,
   "source_file" : "/system/core/libutils/include/utils/TypeHelpers.h",
   "underlying_type" : "_ZTIj"
  },
  {
   "alignment" : 4,
   "enum_fields" :
   [
    {
     "enum_field_value" : 1,
     "name" : "android::trait_trivial_copy<unsigned short>::value"
    }
   ],
   "linker_set_key" : "_ZTIN7android18trait_trivial_copyItE6$valueE",
   "name" : "android::trait_trivial_copy<unsigned short>::(anonymous enum at system/core/libutils/include/utils/TypeHelpers.h:102:1)",
   "referenced_type" : "_ZTIN7android18trait_trivial_copyItE6$valueE",
   "self_type" : "_ZTIN7android18trait_trivial_copyItE6$valueE",
   "size" : 4,
   "source_file" : "/system/core/libutils/include/utils/TypeHelpers.h",
   "underlying_type" : "_ZTIj"
  },
  {
   "alignment" : 4,
   "enum_fields" :
   [
    {
     "enum_field_value" : 1,
     "name" : "android::trait_trivial_copy<void>::value"
    }
   ],
   "linker_set_key" : "_ZTIN7android18trait_trivial_copyIvE6$valueE",
   "name" : "android::trait_trivial_copy<void>::(anonymous enum at system/core/libutils/include/utils/TypeHelpers.h:97:1)",
   "referenced_type" : "_ZTIN7android18trait_trivial_copyIvE6$valueE",
   "self_type" : "_ZTIN7android18trait_trivial_copyIvE6$valueE",
   "size" : 4,
   "source_file" : "/system/core/libutils/include/utils/TypeHelpers.h",
   "underlying_type" : "_ZTIj"
  },
  {
   "alignment" : 4,
   "enum_fields" :
   [
    {
     "enum_field_value" : 1,
     "name" : "android::trait_trivial_copy<long long>::value"
    }
   ],
   "linker_set_key" : "_ZTIN7android18trait_trivial_copyIxE6$valueE",
   "name" : "android::trait_trivial_copy<long long>::(anonymous enum at system/core/libutils/include/utils/TypeHelpers.h:107:1)",
   "referenced_type" : "_ZTIN7android18trait_trivial_copyIxE6$valueE",
   "self_type" : "_ZTIN7android18trait_trivial_copyIxE6$valueE",
   "size" : 4,
   "source_file" : "/system/core/libutils/include/utils/TypeHelpers.h",
   "underlying_type" : "_ZTIj"
  },
  {
   "alignment" : 4,
   "enum_fields" :
   [
    {
     "enum_field_value" : 1,
     "name" : "android::trait_trivial_copy<unsigned long long>::value"
    }
   ],
   "linker_set_key" : "_ZTIN7android18trait_trivial_copyIyE6$valueE",
   "name" : "android::trait_trivial_copy<unsigned long long>::(anonymous enum at system/core/libutils/include/utils/TypeHelpers.h:108:1)",
   "referenced_type" : "_ZTIN7android18trait_trivial_copyIyE6$valueE",
   "self_type" : "_ZTIN7android18trait_trivial_copyIyE6$valueE",
   "size" : 4,
   "source_file" : "/system/core/libutils/include/utils/TypeHelpers.h",
   "underlying_type" : "_ZTIj"
  },
  {
   "alignment" : 4,
   "enum_fields" :
   [
    {
     "enum_field_value" : 1,
     "name" : "android::trait_trivial_ctor<bool>::value"
    }
   ],
   "linker_set_key" : "_ZTIN7android18trait_trivial_ctorIbE6$valueE",
   "name" : "android::trait_trivial_ctor<bool>::(anonymous enum at system/core/libutils/include/utils/TypeHelpers.h:98:1)",
   "referenced_type" : "_ZTIN7android18trait_trivial_ctorIbE6$valueE",
   "self_type" : "_ZTIN7android18trait_trivial_ctorIbE6$valueE",
   "size" : 4,
   "source_file" : "/system/core/libutils/include/utils/TypeHelpers.h",
   "underlying_type" : "_ZTIj"
  },
  {
   "alignment" : 4,
   "enum_fields" :
   [
    {
     "enum_field_value" : 1,
     "name" : "android::trait_trivial_ctor<char>::value"
    }
   ],
   "linker_set_key" : "_ZTIN7android18trait_trivial_ctorIcE6$valueE",
   "name" : "android::trait_trivial_ctor<char>::(anonymous enum at system/core/libutils/include/utils/TypeHelpers.h:99:1)",
   "referenced_type" : "_ZTIN7android18trait_trivial_ctorIcE6$valueE",
   "self_type" : "_ZTIN7android18trait_trivial_ctorIcE6$valueE",
   "size" : 4,
   "source_file" : "/system/core/libutils/include/utils/TypeHelpers.h",
   "underlying_type" : "_ZTIj"
  },
  {
   "alignment" : 4,
   "enum_fields" :
   [
    {
     "enum_field_value" : 1,
     "name" : "android::trait_trivial_ctor<double>::value"
    }
   ],
   "linker_set_key" : "_ZTIN7android18trait_trivial_ctorIdE6$valueE",
   "name" : "android::trait_trivial_ctor<double>::(anonymous enum at system/core/libutils/include/utils/TypeHelpers.h:110:1)",
   "referenced_type" : "_ZTIN7android18trait_trivial_ctorIdE6$valueE",
   "self_type" : "_ZTIN7android18trait_trivial_ctorIdE6$valueE",
   "size" : 4,
   "source_file" : "/system/core/libutils/include/utils/TypeHelpers.h",
   "underlying_type" : "_ZTIj"
  },
  {
   "alignment" : 4,
   "enum_fields" :
   [
    {
     "enum_field_value" : 1,
     "name" : "android::trait_trivial_ctor<float>::value"
    }
   ],
   "linker_set_key" : "_ZTIN7android18trait_trivial_ctorIfE6$valueE",
   "name" : "android::trait_trivial_ctor<float>::(anonymous enum at system/core/libutils/include/utils/TypeHelpers.h:109:1)",
   "referenced_type" : "_ZTIN7android18trait_trivial_ctorIfE6$valueE",
   "self_type" : "_ZTIN7android18trait_trivial_ctorIfE6$valueE",
   "size" : 4,
   "source_file" : "/system/core/libutils/include/utils/TypeHelpers.h",
   "underlying_type" : "_ZTIj"
  },
  {
   "alignment" : 4,
   "enum_fields" :
   [
    {
     "enum_field_value" : 1,
     "name" : "android::trait_trivial_ctor<unsigned char>::value"
    }
   ],
   "linker_set_key" : "_ZTIN7android18trait_trivial_ctorIhE6$valueE",
   "name" : "android::trait_trivial_ctor<unsigned char>::(anonymous enum at system/core/libutils/include/utils/TypeHelpers.h:100:1)",
   "referenced_type" : "_ZTIN7android18trait_trivial_ctorIhE6$valueE",
   "self_type" : "_ZTIN7android18trait_trivial_ctorIhE6$valueE",
   "size" : 4,
   "source_file" : "/system/core/libutils/include/utils/TypeHelpers.h",
   "underlying_type" : "_ZTIj"
  },
  {
   "alignment" : 4,
   "enum_fields" :
   [
    {
     "enum_field_value" : 1,
     "name" : "android::trait_trivial_ctor<int>::value"
    }
   ],
   "linker_set_key" : "_ZTIN7android18trait_trivial_ctorIiE6$valueE",
   "name" : "android::trait_trivial_ctor<int>::(anonymous enum at system/core/libutils/include/utils/TypeHelpers.h:103:1)",
   "referenced_type" : "_ZTIN7android18trait_trivial_ctorIiE6$valueE",
   "self_type" : "_ZTIN7android18trait_trivial_ctorIiE6$valueE",
   "size" : 4,
   "source_file" : "/system/core/libutils/include/utils/TypeHelpers.h",
   "underlying_type" : "_ZTIj"
  },
  {
   "alignment" : 4,
   "enum_fields" :
   [
    {
     "enum_field_value" : 1,
     "name" : "android::trait_trivial_ctor<unsigned int>::value"
    }
   ],
   "linker_set_key" : "_ZTIN7android18trait_trivial_ctorIjE6$valueE",
   "name" : "android::trait_trivial_ctor<unsigned int>::(anonymous enum at system/core/libutils/include/utils/TypeHelpers.h:104:1)",
   "referenced_type" : "_ZTIN7android18trait_trivial_ctorIjE6$valueE",
   "self_type" : "_ZTIN7android18trait_trivial_ctorIjE6$valueE",
   "size" : 4,
   "source_file" : "/system/core/libutils/include/utils/TypeHelpers.h",
   "underlying_type" : "_ZTIj"
  },
  {
   "alignment" : 4,
   "enum_fields" :
   [
    {
     "enum_field_value" : 1,
     "name" : "android::trait_trivial_ctor<long>::value"
    }
   ],
   "linker_set_key" : "_ZTIN7android18trait_trivial_ctorIlE6$valueE",
   "name" : "android::trait_trivial_ctor<long>::(anonymous enum at system/core/libutils/include/utils/TypeHelpers.h:105:1)",
   "referenced_type" : "_ZTIN7android18trait_trivial_ctorIlE6$valueE",
   "self_type" : "_ZTIN7android18trait_trivial_ctorIlE6$valueE",
   "size" : 4,
   "source_file" : "/system/core/libutils/include/utils/TypeHelpers.h",
   "underlying_type" : "_ZTIj"
  },
  {
   "alignment" : 4,
   "enum_fields" :
   [
    {
     "enum_field_value" : 1,
     "name" : "android::trait_trivial_ctor<unsigned long>::value"
    }
   ],
   "linker_set_key" : "_ZTIN7android18trait_trivial_ctorImE6$valueE",
   "name" : "android::trait_trivial_ctor<unsigned long>::(anonymous enum at system/core/libutils/include/utils/TypeHelpers.h:106:1)",
   "referenced_type" : "_ZTIN7android18trait_trivial_ctorImE6$valueE",
   "self_type" : "_ZTIN7android18trait_trivial_ctorImE6$valueE",
   "size" : 4,
   "source_file" : "/system/core/libutils/include/utils/TypeHelpers.h",
   "underlying_type" : "_ZTIj"
  },
  {
   "alignment" : 4,
   "enum_fields" :
   [
    {
     "enum_field_value" : 1,
     "name" : "android::trait_trivial_ctor<short>::value"
    }
   ],
   "linker_set_key" : "_ZTIN7android18trait_trivial_ctorIsE6$valueE",
   "name" : "android::trait_trivial_ctor<short>::(anonymous enum at system/core/libutils/include/utils/TypeHelpers.h:101:1)",
   "referenced_type" : "_ZTIN7android18trait_trivial_ctorIsE6$valueE",
   "self_type" : "_ZTIN7android18trait_trivial_ctorIsE6$valueE",
   "size" : 4,
   "source_file" : "/system/core/libutils/include/utils/TypeHelpers.h",
   "underlying_type" : "_ZTIj"
  },
  {
   "alignment" : 4,
   "enum_fields" :
   [
    {
     "enum_field_value" : 1,
     "name" : "android::trait_trivial_ctor<unsigned short>::value"
    }
   ],
   "linker_set_key" : "_ZTIN7android18trait_trivial_ctorItE6$valueE",
   "name" : "android::trait_trivial_ctor<unsigned short>::(anonymous enum at system/core/libutils/include/utils/TypeHelpers.h:102:1)",
   "referenced_type" : "_ZTIN7android18trait_trivial_ctorItE6$valueE",
   "self_type" : "_ZTIN7android18trait_trivial_ctorItE6$valueE",
   "size" : 4,
   "source_file" : "/system/core/libutils/include/utils/TypeHelpers.h",
   "underlying_type" : "_ZTIj"
  },
  {
   "alignment" : 4,
   "enum_fields" :
   [
    {
     "enum_field_value" : 1,
     "name" : "android::trait_trivial_ctor<void>::value"
    }
   ],
   "linker_set_key" : "_ZTIN7android18trait_trivial_ctorIvE6$valueE",
   "name" : "android::trait_trivial_ctor<void>::(anonymous enum at system/core/libutils/include/utils/TypeHelpers.h:97:1)",
   "referenced_type" : "_ZTIN7android18trait_trivial_ctorIvE6$valueE",
   "self_type" : "_ZTIN7android18trait_trivial_ctorIvE6$valueE",
   "size" : 4,
   "source_file" : "/system/core/libutils/include/utils/TypeHelpers.h",
   "underlying_type" : "_ZTIj"
  },
  {
   "alignment" : 4,
   "enum_fields" :
   [
    {
     "enum_field_value" : 1,
     "name" : "android::trait_trivial_ctor<long long>::value"
    }
   ],
   "linker_set_key" : "_ZTIN7android18trait_trivial_ctorIxE6$valueE",
   "name" : "android::trait_trivial_ctor<long long>::(anonymous enum at system/core/libutils/include/utils/TypeHelpers.h:107:1)",
   "referenced_type" : "_ZTIN7android18trait_trivial_ctorIxE6$valueE",
   "self_type" : "_ZTIN7android18trait_trivial_ctorIxE6$valueE",
   "size" : 4,
   "source_file" : "/system/core/libutils/include/utils/TypeHelpers.h",
   "underlying_type" : "_ZTIj"
  },
  {
   "alignment" : 4,
   "enum_fields" :
   [
    {
     "enum_field_value" : 1,
     "name" : "android::trait_trivial_ctor<unsigned long long>::value"
    }
   ],
   "linker_set_key" : "_ZTIN7android18trait_trivial_ctorIyE6$valueE",
   "name" : "android::trait_trivial_ctor<unsigned long long>::(anonymous enum at system/core/libutils/include/utils/TypeHelpers.h:108:1)",
   "referenced_type" : "_ZTIN7android18trait_trivial_ctorIyE6$valueE",
   "self_type" : "_ZTIN7android18trait_trivial_ctorIyE6$valueE",
   "size" : 4,
   "source_file" : "/system/core/libutils/include/utils/TypeHelpers.h",
   "underlying_type" : "_ZTIj"
  },
  {
   "alignment" : 4,
   "enum_fields" :
   [
    {
     "enum_field_value" : 1,
     "name" : "android::trait_trivial_dtor<bool>::value"
    }
   ],
   "linker_set_key" : "_ZTIN7android18trait_trivial_dtorIbE6$valueE",
   "name" : "android::trait_trivial_dtor<bool>::(anonymous enum at system/core/libutils/include/utils/TypeHelpers.h:98:1)",
   "referenced_type" : "_ZTIN7android18trait_trivial_dtorIbE6$valueE",
   "self_type" : "_ZTIN7android18trait_trivial_dtorIbE6$valueE",
   "size" : 4,
   "source_file" : "/system/core/libutils/include/utils/TypeHelpers.h",
   "underlying_type" : "_ZTIj"
  },
  {
   "alignment" : 4,
   "enum_fields" :
   [
    {
     "enum_field_value" : 1,
     "name" : "android::trait_trivial_dtor<char>::value"
    }
   ],
   "linker_set_key" : "_ZTIN7android18trait_trivial_dtorIcE6$valueE",
   "name" : "android::trait_trivial_dtor<char>::(anonymous enum at system/core/libutils/include/utils/TypeHelpers.h:99:1)",
   "referenced_type" : "_ZTIN7android18trait_trivial_dtorIcE6$valueE",
   "self_type" : "_ZTIN7android18trait_trivial_dtorIcE6$valueE",
   "size" : 4,
   "source_file" : "/system/core/libutils/include/utils/TypeHelpers.h",
   "underlying_type" : "_ZTIj"
  },
  {
   "alignment" : 4,
   "enum_fields" :
   [
    {
     "enum_field_value" : 1,
     "name" : "android::trait_trivial_dtor<double>::value"
    }
   ],
   "linker_set_key" : "_ZTIN7android18trait_trivial_dtorIdE6$valueE",
   "name" : "android::trait_trivial_dtor<double>::(anonymous enum at system/core/libutils/include/utils/TypeHelpers.h:110:1)",
   "referenced_type" : "_ZTIN7android18trait_trivial_dtorIdE6$valueE",
   "self_type" : "_ZTIN7android18trait_trivial_dtorIdE6$valueE",
   "size" : 4,
   "source_file" : "/system/core/libutils/include/utils/TypeHelpers.h",
   "underlying_type" : "_ZTIj"
  },
  {
   "alignment" : 4,
   "enum_fields" :
   [
    {
     "enum_field_value" : 1,
     "name" : "android::trait_trivial_dtor<float>::value"
    }
   ],
   "linker_set_key" : "_ZTIN7android18trait_trivial_dtorIfE6$valueE",
   "name" : "android::trait_trivial_dtor<float>::(anonymous enum at system/core/libutils/include/utils/TypeHelpers.h:109:1)",
   "referenced_type" : "_ZTIN7android18trait_trivial_dtorIfE6$valueE",
   "self_type" : "_ZTIN7android18trait_trivial_dtorIfE6$valueE",
   "size" : 4,
   "source_file" : "/system/core/libutils/include/utils/TypeHelpers.h",
   "underlying_type" : "_ZTIj"
  },
  {
   "alignment" : 4,
   "enum_fields" :
   [
    {
     "enum_field_value" : 1,
     "name" : "android::trait_trivial_dtor<unsigned char>::value"
    }
   ],
   "linker_set_key" : "_ZTIN7android18trait_trivial_dtorIhE6$valueE",
   "name" : "android::trait_trivial_dtor<unsigned char>::(anonymous enum at system/core/libutils/include/utils/TypeHelpers.h:100:1)",
   "referenced_type" : "_ZTIN7android18trait_trivial_dtorIhE6$valueE",
   "self_type" : "_ZTIN7android18trait_trivial_dtorIhE6$valueE",
   "size" : 4,
   "source_file" : "/system/core/libutils/include/utils/TypeHelpers.h",
   "underlying_type" : "_ZTIj"
  },
  {
   "alignment" : 4,
   "enum_fields" :
   [
    {
     "enum_field_value" : 1,
     "name" : "android::trait_trivial_dtor<int>::value"
    }
   ],
   "linker_set_key" : "_ZTIN7android18trait_trivial_dtorIiE6$valueE",
   "name" : "android::trait_trivial_dtor<int>::(anonymous enum at system/core/libutils/include/utils/TypeHelpers.h:103:1)",
   "referenced_type" : "_ZTIN7android18trait_trivial_dtorIiE6$valueE",
   "self_type" : "_ZTIN7android18trait_trivial_dtorIiE6$valueE",
   "size" : 4,
   "source_file" : "/system/core/libutils/include/utils/TypeHelpers.h",
   "underlying_type" : "_ZTIj"
  },
  {
   "alignment" : 4,
   "enum_fields" :
   [
    {
     "enum_field_value" : 1,
     "name" : "android::trait_trivial_dtor<unsigned int>::value"
    }
   ],
   "linker_set_key" : "_ZTIN7android18trait_trivial_dtorIjE6$valueE",
   "name" : "android::trait_trivial_dtor<unsigned int>::(anonymous enum at system/core/libutils/include/utils/TypeHelpers.h:104:1)",
   "referenced_type" : "_ZTIN7android18trait_trivial_dtorIjE6$valueE",
   "self_type" : "_ZTIN7android18trait_trivial_dtorIjE6$valueE",
   "size" : 4,
   "source_file" : "/system/core/libutils/include/utils/TypeHelpers.h",
   "underlying_type" : "_ZTIj"
  },
  {
   "alignment" : 4,
   "enum_fields" :
   [
    {
     "enum_field_value" : 1,
     "name" : "android::trait_trivial_dtor<long>::value"
    }
   ],
   "linker_set_key" : "_ZTIN7android18trait_trivial_dtorIlE6$valueE",
   "name" : "android::trait_trivial_dtor<long>::(anonymous enum at system/core/libutils/include/utils/TypeHelpers.h:105:1)",
   "referenced_type" : "_ZTIN7android18trait_trivial_dtorIlE6$valueE",
   "self_type" : "_ZTIN7android18trait_trivial_dtorIlE6$valueE",
   "size" : 4,
   "source_file" : "/system/core/libutils/include/utils/TypeHelpers.h",
   "underlying_type" : "_ZTIj"
  },
  {
   "alignment" : 4,
   "enum_fields" :
   [
    {
     "enum_field_value" : 1,
     "name" : "android::trait_trivial_dtor<unsigned long>::value"
    }
   ],
   "linker_set_key" : "_ZTIN7android18trait_trivial_dtorImE6$valueE",
   "name" : "android::trait_trivial_dtor<unsigned long>::(anonymous enum at system/core/libutils/include/utils/TypeHelpers.h:106:1)",
   "referenced_type" : "_ZTIN7android18trait_trivial_dtorImE6$valueE",
   "self_type" : "_ZTIN7android18trait_trivial_dtorImE6$valueE",
   "size" : 4,
   "source_file" : "/system/core/libutils/include/utils/TypeHelpers.h",
   "underlying_type" : "_ZTIj"
  },
  {
   "alignment" : 4,
   "enum_fields" :
   [
    {
     "enum_field_value" : 1,
     "name" : "android::trait_trivial_dtor<short>::value"
    }
   ],
   "linker_set_key" : "_ZTIN7android18trait_trivial_dtorIsE6$valueE",
   "name" : "android::trait_trivial_dtor<short>::(anonymous enum at system/core/libutils/include/utils/TypeHelpers.h:101:1)",
   "referenced_type" : "_ZTIN7android18trait_trivial_dtorIsE6$valueE",
   "self_type" : "_ZTIN7android18trait_trivial_dtorIsE6$valueE",
   "size" : 4,
   "source_file" : "/system/core/libutils/include/utils/TypeHelpers.h",
   "underlying_type" : "_ZTIj"
  },
  {
   "alignment" : 4,
   "enum_fields" :
   [
    {
     "enum_field_value" : 1,
     "name" : "android::trait_trivial_dtor<unsigned short>::value"
    }
   ],
   "linker_set_key" : "_ZTIN7android18trait_trivial_dtorItE6$valueE",
   "name" : "android::trait_trivial_dtor<unsigned short>::(anonymous enum at system/core/libutils/include/utils/TypeHelpers.h:102:1)",
   "referenced_type" : "_ZTIN7android18trait_trivial_dtorItE6$valueE",
   "self_type" : "_ZTIN7android18trait_trivial_dtorItE6$valueE",
   "size" : 4,
   "source_file" : "/system/core/libutils/include/utils/TypeHelpers.h",
   "underlying_type" : "_ZTIj"
  },
  {
   "alignment" : 4,
   "enum_fields" :
   [
    {
     "enum_field_value" : 1,
     "name" : "android::trait_trivial_dtor<void>::value"
    }
   ],
   "linker_set_key" : "_ZTIN7android18trait_trivial_dtorIvE6$valueE",
   "name" : "android::trait_trivial_dtor<void>::(anonymous enum at system/core/libutils/include/utils/TypeHelpers.h:97:1)",
   "referenced_type" : "_ZTIN7android18trait_trivial_dtorIvE6$valueE",
   "self_type" : "_ZTIN7android18trait_trivial_dtorIvE6$valueE",
   "size" : 4,
   "source_file" : "/system/core/libutils/include/utils/TypeHelpers.h",
   "underlying_type" : "_ZTIj"
  },
  {
   "alignment" : 4,
   "enum_fields" :
   [
    {
     "enum_field_value" : 1,
     "name" : "android::trait_trivial_dtor<long long>::value"
    }
   ],
   "linker_set_key" : "_ZTIN7android18trait_trivial_dtorIxE6$valueE",
   "name" : "android::trait_trivial_dtor<long long>::(anonymous enum at system/core/libutils/include/utils/TypeHelpers.h:107:1)",
   "referenced_type" : "_ZTIN7android18trait_trivial_dtorIxE6$valueE",
   "self_type" : "_ZTIN7android18trait_trivial_dtorIxE6$valueE",
   "size" : 4,
   "source_file" : "/system/core/libutils/include/utils/TypeHelpers.h",
   "underlying_type" : "_ZTIj"
  },
  {
   "alignment" : 4,
   "enum_fields" :
   [
    {
     "enum_field_value" : 1,
     "name" : "android::trait_trivial_dtor<unsigned long long>::value"
    }
   ],
   "linker_set_key" : "_ZTIN7android18trait_trivial_dtorIyE6$valueE",
   "name" : "android::trait_trivial_dtor<unsigned long long>::(anonymous enum at system/core/libutils/include/utils/TypeHelpers.h:108:1)",
   "referenced_type" : "_ZTIN7android18trait_trivial_dtorIyE6$valueE",
   "self_type" : "_ZTIN7android18trait_trivial_dtorIyE6$valueE",
   "size" : 4,
   "source_file" : "/system/core/libutils/include/utils/TypeHelpers.h",
   "underlying_type" : "_ZTIj"
  },
  {
   "alignment" : 4,
   "enum_fields" :
   [
    {
     "enum_field_value" : 1,
     "name" : "android::trait_trivial_move<android::String8>::value"
    }
   ],
   "linker_set_key" : "_ZTIN7android18trait_trivial_moveINS_7String8EE6$valueE",
   "name" : "android::trait_trivial_move<String8>::(anonymous enum at system/core/libutils/include/utils/String8.h:242:1)",
   "referenced_type" : "_ZTIN7android18trait_trivial_moveINS_7String8EE6$valueE",
   "self_type" : "_ZTIN7android18trait_trivial_moveINS_7String8EE6$valueE",
   "size" : 4,
   "source_file" : "/system/core/libutils/include/utils/String8.h",
   "underlying_type" : "_ZTIj"
  },
  {
   "alignment" : 4,
   "enum_fields" :
   [
    {
     "enum_field_value" : 1,
     "name" : "android::trait_trivial_move<android::String16>::value"
    }
   ],
   "linker_set_key" : "_ZTIN7android18trait_trivial_moveINS_8String16EE6$valueE",
   "name" : "android::trait_trivial_move<String16>::(anonymous enum at system/core/libutils/include/utils/String16.h:197:1)",
   "referenced_type" : "_ZTIN7android18trait_trivial_moveINS_8String16EE6$valueE",
   "self_type" : "_ZTIN7android18trait_trivial_moveINS_8String16EE6$valueE",
   "size" : 4,
   "source_file" : "/system/core/libutils/include/utils/String16.h",
   "underlying_type" : "_ZTIj"
  },
  {
   "alignment" : 4,
   "enum_fields" :
   [
    {
     "enum_field_value" : 1,
     "name" : "android::trait_trivial_move<bool>::value"
    }
   ],
   "linker_set_key" : "_ZTIN7android18trait_trivial_moveIbE6$valueE",
   "name" : "android::trait_trivial_move<bool>::(anonymous enum at system/core/libutils/include/utils/TypeHelpers.h:98:1)",
   "referenced_type" : "_ZTIN7android18trait_trivial_moveIbE6$valueE",
   "self_type" : "_ZTIN7android18trait_trivial_moveIbE6$valueE",
   "size" : 4,
   "source_file" : "/system/core/libutils/include/utils/TypeHelpers.h",
   "underlying_type" : "_ZTIj"
  },
  {
   "alignment" : 4,
   "enum_fields" :
   [
    {
     "enum_field_value" : 1,
     "name" : "android::trait_trivial_move<char>::value"
    }
   ],
   "linker_set_key" : "_ZTIN7android18trait_trivial_moveIcE6$valueE",
   "name" : "android::trait_trivial_move<char>::(anonymous enum at system/core/libutils/include/utils/TypeHelpers.h:99:1)",
   "referenced_type" : "_ZTIN7android18trait_trivial_moveIcE6$valueE",
   "self_type" : "_ZTIN7android18trait_trivial_moveIcE6$valueE",
   "size" : 4,
   "source_file" : "/system/core/libutils/include/utils/TypeHelpers.h",
   "underlying_type" : "_ZTIj"
  },
  {
   "alignment" : 4,
   "enum_fields" :
   [
    {
     "enum_field_value" : 1,
     "name" : "android::trait_trivial_move<double>::value"
    }
   ],
   "linker_set_key" : "_ZTIN7android18trait_trivial_moveIdE6$valueE",
   "name" : "android::trait_trivial_move<double>::(anonymous enum at system/core/libutils/include/utils/TypeHelpers.h:110:1)",
   "referenced_type" : "_ZTIN7android18trait_trivial_moveIdE6$valueE",
   "self_type" : "_ZTIN7android18trait_trivial_moveIdE6$valueE",
   "size" : 4,
   "source_file" : "/system/core/libutils/include/utils/TypeHelpers.h",
   "underlying_type" : "_ZTIj"
  },
  {
   "alignment" : 4,
   "enum_fields" :
   [
    {
     "enum_field_value" : 1,
     "name" : "android::trait_trivial_move<float>::value"
    }
   ],
   "linker_set_key" : "_ZTIN7android18trait_trivial_moveIfE6$valueE",
   "name" : "android::trait_trivial_move<float>::(anonymous enum at system/core/libutils/include/utils/TypeHelpers.h:109:1)",
   "referenced_type" : "_ZTIN7android18trait_trivial_moveIfE6$valueE",
   "self_type" : "_ZTIN7android18trait_trivial_moveIfE6$valueE",
   "size" : 4,
   "source_file" : "/system/core/libutils/include/utils/TypeHelpers.h",
   "underlying_type" : "_ZTIj"
  },
  {
   "alignment" : 4,
   "enum_fields" :
   [
    {
     "enum_field_value" : 1,
     "name" : "android::trait_trivial_move<unsigned char>::value"
    }
   ],
   "linker_set_key" : "_ZTIN7android18trait_trivial_moveIhE6$valueE",
   "name" : "android::trait_trivial_move<unsigned char>::(anonymous enum at system/core/libutils/include/utils/TypeHelpers.h:100:1)",
   "referenced_type" : "_ZTIN7android18trait_trivial_moveIhE6$valueE",
   "self_type" : "_ZTIN7android18trait_trivial_moveIhE6$valueE",
   "size" : 4,
   "source_file" : "/system/core/libutils/include/utils/TypeHelpers.h",
   "underlying_type" : "_ZTIj"
  },
  {
   "alignment" : 4,
   "enum_fields" :
   [
    {
     "enum_field_value" : 1,
     "name" : "android::trait_trivial_move<int>::value"
    }
   ],
   "linker_set_key" : "_ZTIN7android18trait_trivial_moveIiE6$valueE",
   "name" : "android::trait_trivial_move<int>::(anonymous enum at system/core/libutils/include/utils/TypeHelpers.h:103:1)",
   "referenced_type" : "_ZTIN7android18trait_trivial_moveIiE6$valueE",
   "self_type" : "_ZTIN7android18trait_trivial_moveIiE6$valueE",
   "size" : 4,
   "source_file" : "/system/core/libutils/include/utils/TypeHelpers.h",
   "underlying_type" : "_ZTIj"
  },
  {
   "alignment" : 4,
   "enum_fields" :
   [
    {
     "enum_field_value" : 1,
     "name" : "android::trait_trivial_move<unsigned int>::value"
    }
   ],
   "linker_set_key" : "_ZTIN7android18trait_trivial_moveIjE6$valueE",
   "name" : "android::trait_trivial_move<unsigned int>::(anonymous enum at system/core/libutils/include/utils/TypeHelpers.h:104:1)",
   "referenced_type" : "_ZTIN7android18trait_trivial_moveIjE6$valueE",
   "self_type" : "_ZTIN7android18trait_trivial_moveIjE6$valueE",
   "size" : 4,
   "source_file" : "/system/core/libutils/include/utils/TypeHelpers.h",
   "underlying_type" : "_ZTIj"
  },
  {
   "alignment" : 4,
   "enum_fields" :
   [
    {
     "enum_field_value" : 1,
     "name" : "android::trait_trivial_move<long>::value"
    }
   ],
   "linker_set_key" : "_ZTIN7android18trait_trivial_moveIlE6$valueE",
   "name" : "android::trait_trivial_move<long>::(anonymous enum at system/core/libutils/include/utils/TypeHelpers.h:105:1)",
   "referenced_type" : "_ZTIN7android18trait_trivial_moveIlE6$valueE",
   "self_type" : "_ZTIN7android18trait_trivial_moveIlE6$valueE",
   "size" : 4,
   "source_file" : "/system/core/libutils/include/utils/TypeHelpers.h",
   "underlying_type" : "_ZTIj"
  },
  {
   "alignment" : 4,
   "enum_fields" :
   [
    {
     "enum_field_value" : 1,
     "name" : "android::trait_trivial_move<unsigned long>::value"
    }
   ],
   "linker_set_key" : "_ZTIN7android18trait_trivial_moveImE6$valueE",
   "name" : "android::trait_trivial_move<unsigned long>::(anonymous enum at system/core/libutils/include/utils/TypeHelpers.h:106:1)",
   "referenced_type" : "_ZTIN7android18trait_trivial_moveImE6$valueE",
   "self_type" : "_ZTIN7android18trait_trivial_moveImE6$valueE",
   "size" : 4,
   "source_file" : "/system/core/libutils/include/utils/TypeHelpers.h",
   "underlying_type" : "_ZTIj"
  },
  {
   "alignment" : 4,
   "enum_fields" :
   [
    {
     "enum_field_value" : 1,
     "name" : "android::trait_trivial_move<short>::value"
    }
   ],
   "linker_set_key" : "_ZTIN7android18trait_trivial_moveIsE6$valueE",
   "name" : "android::trait_trivial_move<short>::(anonymous enum at system/core/libutils/include/utils/TypeHelpers.h:101:1)",
   "referenced_type" : "_ZTIN7android18trait_trivial_moveIsE6$valueE",
   "self_type" : "_ZTIN7android18trait_trivial_moveIsE6$valueE",
   "size" : 4,
   "source_file" : "/system/core/libutils/include/utils/TypeHelpers.h",
   "underlying_type" : "_ZTIj"
  },
  {
   "alignment" : 4,
   "enum_fields" :
   [
    {
     "enum_field_value" : 1,
     "name" : "android::trait_trivial_move<unsigned short>::value"
    }
   ],
   "linker_set_key" : "_ZTIN7android18trait_trivial_moveItE6$valueE",
   "name" : "android::trait_trivial_move<unsigned short>::(anonymous enum at system/core/libutils/include/utils/TypeHelpers.h:102:1)",
   "referenced_type" : "_ZTIN7android18trait_trivial_moveItE6$valueE",
   "self_type" : "_ZTIN7android18trait_trivial_moveItE6$valueE",
   "size" : 4,
   "source_file" : "/system/core/libutils/include/utils/TypeHelpers.h",
   "underlying_type" : "_ZTIj"
  },
  {
   "alignment" : 4,
   "enum_fields" :
   [
    {
     "enum_field_value" : 1,
     "name" : "android::trait_trivial_move<void>::value"
    }
   ],
   "linker_set_key" : "_ZTIN7android18trait_trivial_moveIvE6$valueE",
   "name" : "android::trait_trivial_move<void>::(anonymous enum at system/core/libutils/include/utils/TypeHelpers.h:97:1)",
   "referenced_type" : "_ZTIN7android18trait_trivial_moveIvE6$valueE",
   "self_type" : "_ZTIN7android18trait_trivial_moveIvE6$valueE",
   "size" : 4,
   "source_file" : "/system/core/libutils/include/utils/TypeHelpers.h",
   "underlying_type" : "_ZTIj"
  },
  {
   "alignment" : 4,
   "enum_fields" :
   [
    {
     "enum_field_value" : 1,
     "name" : "android::trait_trivial_move<long long>::value"
    }
   ],
   "linker_set_key" : "_ZTIN7android18trait_trivial_moveIxE6$valueE",
   "name" : "android::trait_trivial_move<long long>::(anonymous enum at system/core/libutils/include/utils/TypeHelpers.h:107:1)",
   "referenced_type" : "_ZTIN7android18trait_trivial_moveIxE6$valueE",
   "self_type" : "_ZTIN7android18trait_trivial_moveIxE6$valueE",
   "size" : 4,
   "source_file" : "/system/core/libutils/include/utils/TypeHelpers.h",
   "underlying_type" : "_ZTIj"
  },
  {
   "alignment" : 4,
   "enum_fields" :
   [
    {
     "enum_field_value" : 1,
     "name" : "android::trait_trivial_move<unsigned long long>::value"
    }
   ],
   "linker_set_key" : "_ZTIN7android18trait_trivial_moveIyE6$valueE",
   "name" : "android::trait_trivial_move<unsigned long long>::(anonymous enum at system/core/libutils/include/utils/TypeHelpers.h:108:1)",
   "referenced_type" : "_ZTIN7android18trait_trivial_moveIyE6$valueE",
   "self_type" : "_ZTIN7android18trait_trivial_moveIyE6$valueE",
   "size" : 4,
   "source_file" : "/system/core/libutils/include/utils/TypeHelpers.h",
   "underlying_type" : "_ZTIj"
  },
  {
   "alignment" : 4,
   "enum_fields" :
   [
    {
     "enum_field_value" : 0,
     "name" : "android::hidl::base::V1_0::DebugInfo::Architecture::UNKNOWN"
    },
    {
     "enum_field_value" : 1,
     "name" : "android::hidl::base::V1_0::DebugInfo::Architecture::IS_64BIT"
    },
    {
     "enum_field_value" : 2,
     "name" : "android::hidl::base::V1_0::DebugInfo::Architecture::IS_32BIT"
    }
   ],
   "linker_set_key" : "_ZTIN7android4hidl4base4V1_09DebugInfo12ArchitectureE",
   "name" : "android::hidl::base::V1_0::DebugInfo::Architecture",
   "referenced_type" : "_ZTIN7android4hidl4base4V1_09DebugInfo12ArchitectureE",
   "self_type" : "_ZTIN7android4hidl4base4V1_09DebugInfo12ArchitectureE",
   "size" : 4,
   "source_file" : "/out/soong/.intermediates/system/libhidl/transport/base/1.0/android.hidl.base@1.0_genc++_headers/gen/android/hidl/base/1.0/types.h",
   "underlying_type" : "_ZTIi"
  },
  {
   "alignment" : 4,
   "enum_fields" :
   [
    {
     "enum_field_value" : -1,
     "name" : "android::hidl::manager::V1_0::IServiceManager::PidConstant::NO_PID"
    }
   ],
   "linker_set_key" : "_ZTIN7android4hidl7manager4V1_015IServiceManager11PidConstantE",
   "name" : "android::hidl::manager::V1_0::IServiceManager::PidConstant",
   "referenced_type" : "_ZTIN7android4hidl7manager4V1_015IServiceManager11PidConstantE",
   "self_type" : "_ZTIN7android4hidl7manager4V1_015IServiceManager11PidConstantE",
   "size" : 4,
   "source_file" : "/out/soong/.intermediates/system/libhidl/transport/manager/1.0/android.hidl.manager@1.0_genc++_headers/gen/android/hidl/manager/1.0/IServiceManager.h",
   "underlying_type" : "_ZTIi"
  },
  {
   "alignment" : 1,
   "enum_fields" :
   [
    {
     "enum_field_value" : 0,
     "name" : "android::hidl::manager::V1_0::IServiceManager::Transport::EMPTY"
    },
    {
     "enum_field_value" : 1,
     "name" : "android::hidl::manager::V1_0::IServiceManager::Transport::HWBINDER"
    },
    {
     "enum_field_value" : 2,
     "name" : "android::hidl::manager::V1_0::IServiceManager::Transport::PASSTHROUGH"
    }
   ],
   "linker_set_key" : "_ZTIN7android4hidl7manager4V1_015IServiceManager9TransportE",
   "name" : "android::hidl::manager::V1_0::IServiceManager::Transport",
   "referenced_type" : "_ZTIN7android4hidl7manager4V1_015IServiceManager9TransportE",
   "self_type" : "_ZTIN7android4hidl7manager4V1_015IServiceManager9TransportE",
   "size" : 1,
   "source_file" : "/out/soong/.intermediates/system/libhidl/transport/manager/1.0/android.hidl.manager@1.0_genc++_headers/gen/android/hidl/manager/1.0/IServiceManager.h",
   "underlying_type" : "_ZTIh"
  },
  {
   "alignment" : 4,
   "enum_fields" :
   [
    {
     "enum_field_value" : 0,
     "name" : "android::Mutex::PRIVATE"
    },
    {
     "enum_field_value" : 1,
     "name" : "android::Mutex::SHARED"
    }
   ],
   "linker_set_key" : "_ZTIN7android5Mutex8$PRIVATEE",
   "name" : "android::Mutex::(anonymous enum at system/core/libutils/include/utils/Mutex.h:96:5)",
   "referenced_type" : "_ZTIN7android5Mutex8$PRIVATEE",
   "self_type" : "_ZTIN7android5Mutex8$PRIVATEE",
   "size" : 4,
   "source_file" : "/system/core/libutils/include/utils/Mutex.h",
   "underlying_type" : "_ZTIj"
  },
  {
   "alignment" : 4,
   "enum_fields" :
   [
    {
     "enum_field_value" : 0,
     "name" : "android::RWLock::PRIVATE"
    },
    {
     "enum_field_value" : 1,
     "name" : "android::RWLock::SHARED"
    }
   ],
   "linker_set_key" : "_ZTIN7android6RWLock8$PRIVATEE",
   "name" : "android::RWLock::(anonymous enum at system/core/libutils/include/utils/RWLock.h:44:5)",
   "referenced_type" : "_ZTIN7android6RWLock8$PRIVATEE",
   "self_type" : "_ZTIN7android6RWLock8$PRIVATEE",
   "size" : 4,
   "source_file" : "/system/core/libutils/include/utils/RWLock.h",
   "underlying_type" : "_ZTIj"
  },
  {
   "access" : "protected",
   "alignment" : 4,
   "enum_fields" :
   [
    {
     "enum_field_value" : 1,
     "name" : "android::RefBase::FIRST_INC_STRONG"
    }
   ],
   "linker_set_key" : "_ZTIN7android7RefBase17$FIRST_INC_STRONGE",
   "name" : "android::RefBase::(anonymous enum at system/core/libutils/include/utils/RefBase.h:313:5)",
   "referenced_type" : "_ZTIN7android7RefBase17$FIRST_INC_STRONGE",
   "self_type" : "_ZTIN7android7RefBase17$FIRST_INC_STRONGE",
   "size" : 4,
   "source_file" : "/system/core/libutils/include/utils/RefBase.h",
   "underlying_type" : "_ZTIj"
  },
  {
   "access" : "protected",
   "alignment" : 4,
   "enum_fields" :
   [
    {
     "enum_field_value" : 0,
     "name" : "android::RefBase::OBJECT_LIFETIME_STRONG"
    },
    {
     "enum_field_value" : 1,
     "name" : "android::RefBase::OBJECT_LIFETIME_WEAK"
    },
    {
     "enum_field_value" : 1,
     "name" : "android::RefBase::OBJECT_LIFETIME_MASK"
    }
   ],
   "linker_set_key" : "_ZTIN7android7RefBase21$OBJECT_LIFETIME_MASKE",
   "name" : "android::RefBase::(anonymous enum at system/core/libutils/include/utils/RefBase.h:304:5)",
   "referenced_type" : "_ZTIN7android7RefBase21$OBJECT_LIFETIME_MASKE",
   "self_type" : "_ZTIN7android7RefBase21$OBJECT_LIFETIME_MASKE",
   "size" : 4,
   "source_file" : "/system/core/libutils/include/utils/RefBase.h",
   "underlying_type" : "_ZTIj"
  },
  {
   "alignment" : 4,
   "enum_fields" :
   [
    {
     "enum_field_value" : 0,
     "name" : "android::String8::kEmptyString"
    }
   ],
   "linker_set_key" : "_ZTIN7android7String813StaticLinkageE",
   "name" : "android::String8::StaticLinkage",
   "referenced_type" : "_ZTIN7android7String813StaticLinkageE",
   "self_type" : "_ZTIN7android7String813StaticLinkageE",
   "size" : 4,
   "source_file" : "/system/core/libutils/include/utils/String8.h",
   "underlying_type" : "_ZTIj"
  },
  {
   "alignment" : 4,
   "enum_fields" :
   [
    {
     "enum_field_value" : 0,
     "name" : "android::String16::kEmptyString"
    }
   ],
   "linker_set_key" : "_ZTIN7android8String1613StaticLinkageE",
   "name" : "android::String16::StaticLinkage",
   "referenced_type" : "_ZTIN7android8String1613StaticLinkageE",
   "self_type" : "_ZTIN7android8String1613StaticLinkageE",
   "size" : 4,
   "source_file" : "/system/core/libutils/include/utils/String16.h",
   "underlying_type" : "_ZTIj"
  },
  {
   "alignment" : 4,
   "enum_fields" :
   [
    {
     "enum_field_value" : 0,
     "name" : "android::hardware::MQDescriptor<android::hardware::neuralnetworks::V1_2::FmqResultDatum, android::hardware::kSynchronizedReadWrite>::READPTRPOS"
    },
    {
     "enum_field_value" : 1,
     "name" : "android::hardware::MQDescriptor<android::hardware::neuralnetworks::V1_2::FmqResultDatum, android::hardware::kSynchronizedReadWrite>::WRITEPTRPOS"
    },
    {
     "enum_field_value" : 2,
     "name" : "android::hardware::MQDescriptor<android::hardware::neuralnetworks::V1_2::FmqResultDatum, android::hardware::kSynchronizedReadWrite>::DATAPTRPOS"
    },
    {
     "enum_field_value" : 3,
     "name" : "android::hardware::MQDescriptor<android::hardware::neuralnetworks::V1_2::FmqResultDatum, android::hardware::kSynchronizedReadWrite>::EVFLAGWORDPOS"
    }
   ],
   "linker_set_key" : "_ZTIN7android8hardware12MQDescriptorINS0_14neuralnetworks4V1_214FmqResultDatumELNS0_8MQFlavorE1EE11GrantorTypeE",
   "name" : "android::hardware::MQDescriptor<FmqResultDatum, android::hardware::kSynchronizedReadWrite>::GrantorType",
   "referenced_type" : "_ZTIN7android8hardware12MQDescriptorINS0_14neuralnetworks4V1_214FmqResultDatumELNS0_8MQFlavorE1EE11GrantorTypeE",
   "self_type" : "_ZTIN7android8hardware12MQDescriptorINS0_14neuralnetworks4V1_214FmqResultDatumELNS0_8MQFlavorE1EE11GrantorTypeE",
   "size" : 4,
   "source_file" : "/system/libhidl/base/include/hidl/MQDescriptor.h",
   "underlying_type" : "_ZTIi"
  },
  {
   "alignment" : 4,
   "enum_fields" :
   [
    {
     "enum_field_value" : 0,
     "name" : "android::hardware::MQDescriptor<android::hardware::neuralnetworks::V1_2::FmqRequestDatum, android::hardware::kSynchronizedReadWrite>::READPTRPOS"
    },
    {
     "enum_field_value" : 1,
     "name" : "android::hardware::MQDescriptor<android::hardware::neuralnetworks::V1_2::FmqRequestDatum, android::hardware::kSynchronizedReadWrite>::WRITEPTRPOS"
    },
    {
     "enum_field_value" : 2,
     "name" : "android::hardware::MQDescriptor<android::hardware::neuralnetworks::V1_2::FmqRequestDatum, android::hardware::kSynchronizedReadWrite>::DATAPTRPOS"
    },
    {
     "enum_field_value" : 3,
     "name" : "android::hardware::MQDescriptor<android::hardware::neuralnetworks::V1_2::FmqRequestDatum, android::hardware::kSynchronizedReadWrite>::EVFLAGWORDPOS"
    }
   ],
   "linker_set_key" : "_ZTIN7android8hardware12MQDescriptorINS0_14neuralnetworks4V1_215FmqRequestDatumELNS0_8MQFlavorE1EE11GrantorTypeE",
   "name" : "android::hardware::MQDescriptor<FmqRequestDatum, android::hardware::kSynchronizedReadWrite>::GrantorType",
   "referenced_type" : "_ZTIN7android8hardware12MQDescriptorINS0_14neuralnetworks4V1_215FmqRequestDatumELNS0_8MQFlavorE1EE11GrantorTypeE",
   "self_type" : "_ZTIN7android8hardware12MQDescriptorINS0_14neuralnetworks4V1_215FmqRequestDatumELNS0_8MQFlavorE1EE11GrantorTypeE",
   "size" : 4,
   "source_file" : "/system/libhidl/base/include/hidl/MQDescriptor.h",
   "underlying_type" : "_ZTIi"
  },
  {
   "alignment" : 4,
   "enum_fields" :
   [
    {
     "enum_field_value" : 0,
     "name" : "android::hardware::MQDescriptor<char, android::hardware::kSynchronizedReadWrite>::READPTRPOS"
    },
    {
     "enum_field_value" : 1,
     "name" : "android::hardware::MQDescriptor<char, android::hardware::kSynchronizedReadWrite>::WRITEPTRPOS"
    },
    {
     "enum_field_value" : 2,
     "name" : "android::hardware::MQDescriptor<char, android::hardware::kSynchronizedReadWrite>::DATAPTRPOS"
    },
    {
     "enum_field_value" : 3,
     "name" : "android::hardware::MQDescriptor<char, android::hardware::kSynchronizedReadWrite>::EVFLAGWORDPOS"
    }
   ],
   "linker_set_key" : "_ZTIN7android8hardware12MQDescriptorIcLNS0_8MQFlavorE1EE11GrantorTypeE",
   "name" : "android::hardware::MQDescriptor<char, android::hardware::kSynchronizedReadWrite>::GrantorType",
   "referenced_type" : "_ZTIN7android8hardware12MQDescriptorIcLNS0_8MQFlavorE1EE11GrantorTypeE",
   "self_type" : "_ZTIN7android8hardware12MQDescriptorIcLNS0_8MQFlavorE1EE11GrantorTypeE",
   "size" : 4,
   "source_file" : "/system/libhidl/base/include/hidl/MQDescriptor.h",
   "underlying_type" : "_ZTIi"
  },
  {
   "alignment" : 4,
   "enum_fields" :
   [
    {
     "enum_field_value" : 0,
     "name" : "android::hardware::ProcessState::CallRestriction::NONE"
    },
    {
     "enum_field_value" : 1,
     "name" : "android::hardware::ProcessState::CallRestriction::ERROR_IF_NOT_ONEWAY"
    },
    {
     "enum_field_value" : 2,
     "name" : "android::hardware::ProcessState::CallRestriction::FATAL_IF_NOT_ONEWAY"
    }
   ],
   "linker_set_key" : "_ZTIN7android8hardware12ProcessState15CallRestrictionE",
   "name" : "android::hardware::ProcessState::CallRestriction",
   "referenced_type" : "_ZTIN7android8hardware12ProcessState15CallRestrictionE",
   "self_type" : "_ZTIN7android8hardware12ProcessState15CallRestrictionE",
   "size" : 4,
   "source_file" : "/system/libhwbinder/include/hwbinder/ProcessState.h",
   "underlying_type" : "_ZTIi"
  },
  {
   "alignment" : 4,
   "enum_fields" :
   [
    {
     "enum_field_value" : 0,
     "name" : "android::hardware::neuralnetworks::V1_0::ErrorStatus::NONE"
    },
    {
     "enum_field_value" : 1,
     "name" : "android::hardware::neuralnetworks::V1_0::ErrorStatus::DEVICE_UNAVAILABLE"
    },
    {
     "enum_field_value" : 2,
     "name" : "android::hardware::neuralnetworks::V1_0::ErrorStatus::GENERAL_FAILURE"
    },
    {
     "enum_field_value" : 3,
     "name" : "android::hardware::neuralnetworks::V1_0::ErrorStatus::OUTPUT_INSUFFICIENT_SIZE"
    },
    {
     "enum_field_value" : 4,
     "name" : "android::hardware::neuralnetworks::V1_0::ErrorStatus::INVALID_ARGUMENT"
    }
   ],
   "linker_set_key" : "_ZTIN7android8hardware14neuralnetworks4V1_011ErrorStatusE",
   "name" : "android::hardware::neuralnetworks::V1_0::ErrorStatus",
   "referenced_type" : "_ZTIN7android8hardware14neuralnetworks4V1_011ErrorStatusE",
   "self_type" : "_ZTIN7android8hardware14neuralnetworks4V1_011ErrorStatusE",
   "size" : 4,
   "source_file" : "/out/soong/.intermediates/hardware/interfaces/neuralnetworks/1.0/android.hardware.neuralnetworks@1.0_genc++_headers/gen/android/hardware/neuralnetworks/1.0/types.h",
   "underlying_type" : "_ZTIi"
  },
  {
   "alignment" : 4,
   "enum_fields" :
   [
    {
     "enum_field_value" : 0,
     "name" : "android::hardware::neuralnetworks::V1_0::OperandType::FLOAT32"
    },
    {
     "enum_field_value" : 1,
     "name" : "android::hardware::neuralnetworks::V1_0::OperandType::INT32"
    },
    {
     "enum_field_value" : 2,
     "name" : "android::hardware::neuralnetworks::V1_0::OperandType::UINT32"
    },
    {
     "enum_field_value" : 3,
     "name" : "android::hardware::neuralnetworks::V1_0::OperandType::TENSOR_FLOAT32"
    },
    {
     "enum_field_value" : 4,
     "name" : "android::hardware::neuralnetworks::V1_0::OperandType::TENSOR_INT32"
    },
    {
     "enum_field_value" : 5,
     "name" : "android::hardware::neuralnetworks::V1_0::OperandType::TENSOR_QUANT8_ASYMM"
    },
    {
     "enum_field_value" : 10000,
     "name" : "android::hardware::neuralnetworks::V1_0::OperandType::OEM"
    },
    {
     "enum_field_value" : 10001,
     "name" : "android::hardware::neuralnetworks::V1_0::OperandType::TENSOR_OEM_BYTE"
    }
   ],
   "linker_set_key" : "_ZTIN7android8hardware14neuralnetworks4V1_011OperandTypeE",
   "name" : "android::hardware::neuralnetworks::V1_0::OperandType",
   "referenced_type" : "_ZTIN7android8hardware14neuralnetworks4V1_011OperandTypeE",
   "self_type" : "_ZTIN7android8hardware14neuralnetworks4V1_011OperandTypeE",
   "size" : 4,
   "source_file" : "/out/soong/.intermediates/hardware/interfaces/neuralnetworks/1.0/android.hardware.neuralnetworks@1.0_genc++_headers/gen/android/hardware/neuralnetworks/1.0/types.h",
   "underlying_type" : "_ZTIi"
  },
  {
   "alignment" : 4,
   "enum_fields" :
   [
    {
     "enum_field_value" : 0,
     "name" : "android::hardware::neuralnetworks::V1_0::DeviceStatus::AVAILABLE"
    },
    {
     "enum_field_value" : 1,
     "name" : "android::hardware::neuralnetworks::V1_0::DeviceStatus::BUSY"
    },
    {
     "enum_field_value" : 2,
     "name" : "android::hardware::neuralnetworks::V1_0::DeviceStatus::OFFLINE"
    },
    {
     "enum_field_value" : 3,
     "name" : "android::hardware::neuralnetworks::V1_0::DeviceStatus::UNKNOWN"
    }
   ],
   "linker_set_key" : "_ZTIN7android8hardware14neuralnetworks4V1_012DeviceStatusE",
   "name" : "android::hardware::neuralnetworks::V1_0::DeviceStatus",
   "referenced_type" : "_ZTIN7android8hardware14neuralnetworks4V1_012DeviceStatusE",
   "self_type" : "_ZTIN7android8hardware14neuralnetworks4V1_012DeviceStatusE",
   "size" : 4,
   "source_file" : "/out/soong/.intermediates/hardware/interfaces/neuralnetworks/1.0/android.hardware.neuralnetworks@1.0_genc++_headers/gen/android/hardware/neuralnetworks/1.0/types.h",
   "underlying_type" : "_ZTIi"
  },
  {
   "alignment" : 4,
   "enum_fields" :
   [
    {
     "enum_field_value" : 0,
     "name" : "android::hardware::neuralnetworks::V1_0::OperationType::ADD"
    },
    {
     "enum_field_value" : 1,
     "name" : "android::hardware::neuralnetworks::V1_0::OperationType::AVERAGE_POOL_2D"
    },
    {
     "enum_field_value" : 2,
     "name" : "android::hardware::neuralnetworks::V1_0::OperationType::CONCATENATION"
    },
    {
     "enum_field_value" : 3,
     "name" : "android::hardware::neuralnetworks::V1_0::OperationType::CONV_2D"
    },
    {
     "enum_field_value" : 4,
     "name" : "android::hardware::neuralnetworks::V1_0::OperationType::DEPTHWISE_CONV_2D"
    },
    {
     "enum_field_value" : 5,
     "name" : "android::hardware::neuralnetworks::V1_0::OperationType::DEPTH_TO_SPACE"
    },
    {
     "enum_field_value" : 6,
     "name" : "android::hardware::neuralnetworks::V1_0::OperationType::DEQUANTIZE"
    },
    {
     "enum_field_value" : 7,
     "name" : "android::hardware::neuralnetworks::V1_0::OperationType::EMBEDDING_LOOKUP"
    },
    {
     "enum_field_value" : 8,
     "name" : "android::hardware::neuralnetworks::V1_0::OperationType::FLOOR"
    },
    {
     "enum_field_value" : 9,
     "name" : "android::hardware::neuralnetworks::V1_0::OperationType::FULLY_CONNECTED"
    },
    {
     "enum_field_value" : 10,
     "name" : "android::hardware::neuralnetworks::V1_0::OperationType::HASHTABLE_LOOKUP"
    },
    {
     "enum_field_value" : 11,
     "name" : "android::hardware::neuralnetworks::V1_0::OperationType::L2_NORMALIZATION"
    },
    {
     "enum_field_value" : 12,
     "name" : "android::hardware::neuralnetworks::V1_0::OperationType::L2_POOL_2D"
    },
    {
     "enum_field_value" : 13,
     "name" : "android::hardware::neuralnetworks::V1_0::OperationType::LOCAL_RESPONSE_NORMALIZATION"
    },
    {
     "enum_field_value" : 14,
     "name" : "android::hardware::neuralnetworks::V1_0::OperationType::LOGISTIC"
    },
    {
     "enum_field_value" : 15,
     "name" : "android::hardware::neuralnetworks::V1_0::OperationType::LSH_PROJECTION"
    },
    {
     "enum_field_value" : 16,
     "name" : "android::hardware::neuralnetworks::V1_0::OperationType::LSTM"
    },
    {
     "enum_field_value" : 17,
     "name" : "android::hardware::neuralnetworks::V1_0::OperationType::MAX_POOL_2D"
    },
    {
     "enum_field_value" : 18,
     "name" : "android::hardware::neuralnetworks::V1_0::OperationType::MUL"
    },
    {
     "enum_field_value" : 19,
     "name" : "android::hardware::neuralnetworks::V1_0::OperationType::RELU"
    },
    {
     "enum_field_value" : 20,
     "name" : "android::hardware::neuralnetworks::V1_0::OperationType::RELU1"
    },
    {
     "enum_field_value" : 21,
     "name" : "android::hardware::neuralnetworks::V1_0::OperationType::RELU6"
    },
    {
     "enum_field_value" : 22,
     "name" : "android::hardware::neuralnetworks::V1_0::OperationType::RESHAPE"
    },
    {
     "enum_field_value" : 23,
     "name" : "android::hardware::neuralnetworks::V1_0::OperationType::RESIZE_BILINEAR"
    },
    {
     "enum_field_value" : 24,
     "name" : "android::hardware::neuralnetworks::V1_0::OperationType::RNN"
    },
    {
     "enum_field_value" : 25,
     "name" : "android::hardware::neuralnetworks::V1_0::OperationType::SOFTMAX"
    },
    {
     "enum_field_value" : 26,
     "name" : "android::hardware::neuralnetworks::V1_0::OperationType::SPACE_TO_DEPTH"
    },
    {
     "enum_field_value" : 27,
     "name" : "android::hardware::neuralnetworks::V1_0::OperationType::SVDF"
    },
    {
     "enum_field_value" : 28,
     "name" : "android::hardware::neuralnetworks::V1_0::OperationType::TANH"
    },
    {
     "enum_field_value" : 10000,
     "name" : "android::hardware::neuralnetworks::V1_0::OperationType::OEM_OPERATION"
    }
   ],
   "linker_set_key" : "_ZTIN7android8hardware14neuralnetworks4V1_013OperationTypeE",
   "name" : "android::hardware::neuralnetworks::V1_0::OperationType",
   "referenced_type" : "_ZTIN7android8hardware14neuralnetworks4V1_013OperationTypeE",
   "self_type" : "_ZTIN7android8hardware14neuralnetworks4V1_013OperationTypeE",
   "size" : 4,
   "source_file" : "/out/soong/.intermediates/hardware/interfaces/neuralnetworks/1.0/android.hardware.neuralnetworks@1.0_genc++_headers/gen/android/hardware/neuralnetworks/1.0/types.h",
   "underlying_type" : "_ZTIi"
  },
  {
   "alignment" : 4,
   "enum_fields" :
   [
    {
     "enum_field_value" : 0,
     "name" : "android::hardware::neuralnetworks::V1_0::OperandLifeTime::TEMPORARY_VARIABLE"
    },
    {
     "enum_field_value" : 1,
     "name" : "android::hardware::neuralnetworks::V1_0::OperandLifeTime::MODEL_INPUT"
    },
    {
     "enum_field_value" : 2,
     "name" : "android::hardware::neuralnetworks::V1_0::OperandLifeTime::MODEL_OUTPUT"
    },
    {
     "enum_field_value" : 3,
     "name" : "android::hardware::neuralnetworks::V1_0::OperandLifeTime::CONSTANT_COPY"
    },
    {
     "enum_field_value" : 4,
     "name" : "android::hardware::neuralnetworks::V1_0::OperandLifeTime::CONSTANT_REFERENCE"
    },
    {
     "enum_field_value" : 5,
     "name" : "android::hardware::neuralnetworks::V1_0::OperandLifeTime::NO_VALUE"
    }
   ],
   "linker_set_key" : "_ZTIN7android8hardware14neuralnetworks4V1_015OperandLifeTimeE",
   "name" : "android::hardware::neuralnetworks::V1_0::OperandLifeTime",
   "referenced_type" : "_ZTIN7android8hardware14neuralnetworks4V1_015OperandLifeTimeE",
   "self_type" : "_ZTIN7android8hardware14neuralnetworks4V1_015OperandLifeTimeE",
   "size" : 4,
   "source_file" : "/out/soong/.intermediates/hardware/interfaces/neuralnetworks/1.0/android.hardware.neuralnetworks@1.0_genc++_headers/gen/android/hardware/neuralnetworks/1.0/types.h",
   "underlying_type" : "_ZTIi"
  },
  {
   "alignment" : 4,
   "enum_fields" :
   [
    {
     "enum_field_value" : 0,
     "name" : "android::hardware::neuralnetworks::V1_0::FusedActivationFunc::NONE"
    },
    {
     "enum_field_value" : 1,
     "name" : "android::hardware::neuralnetworks::V1_0::FusedActivationFunc::RELU"
    },
    {
     "enum_field_value" : 2,
     "name" : "android::hardware::neuralnetworks::V1_0::FusedActivationFunc::RELU1"
    },
    {
     "enum_field_value" : 3,
     "name" : "android::hardware::neuralnetworks::V1_0::FusedActivationFunc::RELU6"
    }
   ],
   "linker_set_key" : "_ZTIN7android8hardware14neuralnetworks4V1_019FusedActivationFuncE",
   "name" : "android::hardware::neuralnetworks::V1_0::FusedActivationFunc",
   "referenced_type" : "_ZTIN7android8hardware14neuralnetworks4V1_019FusedActivationFuncE",
   "self_type" : "_ZTIN7android8hardware14neuralnetworks4V1_019FusedActivationFuncE",
   "size" : 4,
   "source_file" : "/out/soong/.intermediates/hardware/interfaces/neuralnetworks/1.0/android.hardware.neuralnetworks@1.0_genc++_headers/gen/android/hardware/neuralnetworks/1.0/types.h",
   "underlying_type" : "_ZTIi"
  },
  {
   "alignment" : 4,
   "enum_fields" :
   [
    {
     "enum_field_value" : 0,
     "name" : "android::hardware::neuralnetworks::V1_1::OperationType::ADD"
    },
    {
     "enum_field_value" : 1,
     "name" : "android::hardware::neuralnetworks::V1_1::OperationType::AVERAGE_POOL_2D"
    },
    {
     "enum_field_value" : 2,
     "name" : "android::hardware::neuralnetworks::V1_1::OperationType::CONCATENATION"
    },
    {
     "enum_field_value" : 3,
     "name" : "android::hardware::neuralnetworks::V1_1::OperationType::CONV_2D"
    },
    {
     "enum_field_value" : 4,
     "name" : "android::hardware::neuralnetworks::V1_1::OperationType::DEPTHWISE_CONV_2D"
    },
    {
     "enum_field_value" : 5,
     "name" : "android::hardware::neuralnetworks::V1_1::OperationType::DEPTH_TO_SPACE"
    },
    {
     "enum_field_value" : 6,
     "name" : "android::hardware::neuralnetworks::V1_1::OperationType::DEQUANTIZE"
    },
    {
     "enum_field_value" : 7,
     "name" : "android::hardware::neuralnetworks::V1_1::OperationType::EMBEDDING_LOOKUP"
    },
    {
     "enum_field_value" : 8,
     "name" : "android::hardware::neuralnetworks::V1_1::OperationType::FLOOR"
    },
    {
     "enum_field_value" : 9,
     "name" : "android::hardware::neuralnetworks::V1_1::OperationType::FULLY_CONNECTED"
    },
    {
     "enum_field_value" : 10,
     "name" : "android::hardware::neuralnetworks::V1_1::OperationType::HASHTABLE_LOOKUP"
    },
    {
     "enum_field_value" : 11,
     "name" : "android::hardware::neuralnetworks::V1_1::OperationType::L2_NORMALIZATION"
    },
    {
     "enum_field_value" : 12,
     "name" : "android::hardware::neuralnetworks::V1_1::OperationType::L2_POOL_2D"
    },
    {
     "enum_field_value" : 13,
     "name" : "android::hardware::neuralnetworks::V1_1::OperationType::LOCAL_RESPONSE_NORMALIZATION"
    },
    {
     "enum_field_value" : 14,
     "name" : "android::hardware::neuralnetworks::V1_1::OperationType::LOGISTIC"
    },
    {
     "enum_field_value" : 15,
     "name" : "android::hardware::neuralnetworks::V1_1::OperationType::LSH_PROJECTION"
    },
    {
     "enum_field_value" : 16,
     "name" : "android::hardware::neuralnetworks::V1_1::OperationType::LSTM"
    },
    {
     "enum_field_value" : 17,
     "name" : "android::hardware::neuralnetworks::V1_1::OperationType::MAX_POOL_2D"
    },
    {
     "enum_field_value" : 18,
     "name" : "android::hardware::neuralnetworks::V1_1::OperationType::MUL"
    },
    {
     "enum_field_value" : 19,
     "name" : "android::hardware::neuralnetworks::V1_1::OperationType::RELU"
    },
    {
     "enum_field_value" : 20,
     "name" : "android::hardware::neuralnetworks::V1_1::OperationType::RELU1"
    },
    {
     "enum_field_value" : 21,
     "name" : "android::hardware::neuralnetworks::V1_1::OperationType::RELU6"
    },
    {
     "enum_field_value" : 22,
     "name" : "android::hardware::neuralnetworks::V1_1::OperationType::RESHAPE"
    },
    {
     "enum_field_value" : 23,
     "name" : "android::hardware::neuralnetworks::V1_1::OperationType::RESIZE_BILINEAR"
    },
    {
     "enum_field_value" : 24,
     "name" : "android::hardware::neuralnetworks::V1_1::OperationType::RNN"
    },
    {
     "enum_field_value" : 25,
     "name" : "android::hardware::neuralnetworks::V1_1::OperationType::SOFTMAX"
    },
    {
     "enum_field_value" : 26,
     "name" : "android::hardware::neuralnetworks::V1_1::OperationType::SPACE_TO_DEPTH"
    },
    {
     "enum_field_value" : 27,
     "name" : "android::hardware::neuralnetworks::V1_1::OperationType::SVDF"
    },
    {
     "enum_field_value" : 28,
     "name" : "android::hardware::neuralnetworks::V1_1::OperationType::TANH"
    },
    {
     "enum_field_value" : 10000,
     "name" : "android::hardware::neuralnetworks::V1_1::OperationType::OEM_OPERATION"
    },
    {
     "enum_field_value" : 29,
     "name" : "android::hardware::neuralnetworks::V1_1::OperationType::BATCH_TO_SPACE_ND"
    },
    {
     "enum_field_value" : 30,
     "name" : "android::hardware::neuralnetworks::V1_1::OperationType::DIV"
    },
    {
     "enum_field_value" : 31,
     "name" : "android::hardware::neuralnetworks::V1_1::OperationType::MEAN"
    },
    {
     "enum_field_value" : 32,
     "name" : "android::hardware::neuralnetworks::V1_1::OperationType::PAD"
    },
    {
     "enum_field_value" : 33,
     "name" : "android::hardware::neuralnetworks::V1_1::OperationType::SPACE_TO_BATCH_ND"
    },
    {
     "enum_field_value" : 34,
     "name" : "android::hardware::neuralnetworks::V1_1::OperationType::SQUEEZE"
    },
    {
     "enum_field_value" : 35,
     "name" : "android::hardware::neuralnetworks::V1_1::OperationType::STRIDED_SLICE"
    },
    {
     "enum_field_value" : 36,
     "name" : "android::hardware::neuralnetworks::V1_1::OperationType::SUB"
    },
    {
     "enum_field_value" : 37,
     "name" : "android::hardware::neuralnetworks::V1_1::OperationType::TRANSPOSE"
    }
   ],
   "linker_set_key" : "_ZTIN7android8hardware14neuralnetworks4V1_113OperationTypeE",
   "name" : "android::hardware::neuralnetworks::V1_1::OperationType",
   "referenced_type" : "_ZTIN7android8hardware14neuralnetworks4V1_113OperationTypeE",
   "self_type" : "_ZTIN7android8hardware14neuralnetworks4V1_113OperationTypeE",
   "size" : 4,
   "source_file" : "/out/soong/.intermediates/hardware/interfaces/neuralnetworks/1.1/android.hardware.neuralnetworks@1.1_genc++_headers/gen/android/hardware/neuralnetworks/1.1/types.h",
   "underlying_type" : "_ZTIi"
  },
  {
   "alignment" : 4,
   "enum_fields" :
   [
    {
     "enum_field_value" : 0,
     "name" : "android::hardware::neuralnetworks::V1_1::ExecutionPreference::LOW_POWER"
    },
    {
     "enum_field_value" : 1,
     "name" : "android::hardware::neuralnetworks::V1_1::ExecutionPreference::FAST_SINGLE_ANSWER"
    },
    {
     "enum_field_value" : 2,
     "name" : "android::hardware::neuralnetworks::V1_1::ExecutionPreference::SUSTAINED_SPEED"
    }
   ],
   "linker_set_key" : "_ZTIN7android8hardware14neuralnetworks4V1_119ExecutionPreferenceE",
   "name" : "android::hardware::neuralnetworks::V1_1::ExecutionPreference",
   "referenced_type" : "_ZTIN7android8hardware14neuralnetworks4V1_119ExecutionPreferenceE",
   "self_type" : "_ZTIN7android8hardware14neuralnetworks4V1_119ExecutionPreferenceE",
   "size" : 4,
   "source_file" : "/out/soong/.intermediates/hardware/interfaces/neuralnetworks/1.1/android.hardware.neuralnetworks@1.1_genc++_headers/gen/android/hardware/neuralnetworks/1.1/types.h",
   "underlying_type" : "_ZTIi"
  },
  {
   "alignment" : 4,
   "enum_fields" :
   [
    {
     "enum_field_value" : 1,
     "name" : "android::hardware::neuralnetworks::V1_2::DeviceType::OTHER"
    },
    {
     "enum_field_value" : 2,
     "name" : "android::hardware::neuralnetworks::V1_2::DeviceType::CPU"
    },
    {
     "enum_field_value" : 3,
     "name" : "android::hardware::neuralnetworks::V1_2::DeviceType::GPU"
    },
    {
     "enum_field_value" : 4,
     "name" : "android::hardware::neuralnetworks::V1_2::DeviceType::ACCELERATOR"
    }
   ],
   "linker_set_key" : "_ZTIN7android8hardware14neuralnetworks4V1_210DeviceTypeE",
   "name" : "android::hardware::neuralnetworks::V1_2::DeviceType",
   "referenced_type" : "_ZTIN7android8hardware14neuralnetworks4V1_210DeviceTypeE",
   "self_type" : "_ZTIN7android8hardware14neuralnetworks4V1_210DeviceTypeE",
   "size" : 4,
   "source_file" : "/out/soong/.intermediates/hardware/interfaces/neuralnetworks/1.2/android.hardware.neuralnetworks@1.2_genc++_headers/gen/android/hardware/neuralnetworks/1.2/types.h",
   "underlying_type" : "_ZTIi"
  },
  {
   "alignment" : 4,
   "enum_fields" :
   [
    {
     "enum_field_value" : 0,
     "name" : "android::hardware::neuralnetworks::V1_2::OperandType::FLOAT32"
    },
    {
     "enum_field_value" : 1,
     "name" : "android::hardware::neuralnetworks::V1_2::OperandType::INT32"
    },
    {
     "enum_field_value" : 2,
     "name" : "android::hardware::neuralnetworks::V1_2::OperandType::UINT32"
    },
    {
     "enum_field_value" : 3,
     "name" : "android::hardware::neuralnetworks::V1_2::OperandType::TENSOR_FLOAT32"
    },
    {
     "enum_field_value" : 4,
     "name" : "android::hardware::neuralnetworks::V1_2::OperandType::TENSOR_INT32"
    },
    {
     "enum_field_value" : 5,
     "name" : "android::hardware::neuralnetworks::V1_2::OperandType::TENSOR_QUANT8_ASYMM"
    },
    {
     "enum_field_value" : 10000,
     "name" : "android::hardware::neuralnetworks::V1_2::OperandType::OEM"
    },
    {
     "enum_field_value" : 10001,
     "name" : "android::hardware::neuralnetworks::V1_2::OperandType::TENSOR_OEM_BYTE"
    },
    {
     "enum_field_value" : 6,
     "name" : "android::hardware::neuralnetworks::V1_2::OperandType::BOOL"
    },
    {
     "enum_field_value" : 7,
     "name" : "android::hardware::neuralnetworks::V1_2::OperandType::TENSOR_QUANT16_SYMM"
    },
    {
     "enum_field_value" : 8,
     "name" : "android::hardware::neuralnetworks::V1_2::OperandType::TENSOR_FLOAT16"
    },
    {
     "enum_field_value" : 9,
     "name" : "android::hardware::neuralnetworks::V1_2::OperandType::TENSOR_BOOL8"
    },
    {
     "enum_field_value" : 10,
     "name" : "android::hardware::neuralnetworks::V1_2::OperandType::FLOAT16"
    },
    {
     "enum_field_value" : 11,
     "name" : "android::hardware::neuralnetworks::V1_2::OperandType::TENSOR_QUANT8_SYMM_PER_CHANNEL"
    },
    {
     "enum_field_value" : 12,
     "name" : "android::hardware::neuralnetworks::V1_2::OperandType::TENSOR_QUANT16_ASYMM"
    },
    {
     "enum_field_value" : 13,
     "name" : "android::hardware::neuralnetworks::V1_2::OperandType::TENSOR_QUANT8_SYMM"
    }
   ],
   "linker_set_key" : "_ZTIN7android8hardware14neuralnetworks4V1_211OperandTypeE",
   "name" : "android::hardware::neuralnetworks::V1_2::OperandType",
   "referenced_type" : "_ZTIN7android8hardware14neuralnetworks4V1_211OperandTypeE",
   "self_type" : "_ZTIN7android8hardware14neuralnetworks4V1_211OperandTypeE",
   "size" : 4,
   "source_file" : "/out/soong/.intermediates/hardware/interfaces/neuralnetworks/1.2/android.hardware.neuralnetworks@1.2_genc++_headers/gen/android/hardware/neuralnetworks/1.2/types.h",
   "underlying_type" : "_ZTIi"
  },
  {
   "alignment" : 4,
   "enum_fields" :
   [
    {
     "enum_field_value" : 0,
     "name" : "android::hardware::neuralnetworks::V1_2::MeasureTiming::NO"
    },
    {
     "enum_field_value" : 1,
     "name" : "android::hardware::neuralnetworks::V1_2::MeasureTiming::YES"
    }
   ],
   "linker_set_key" : "_ZTIN7android8hardware14neuralnetworks4V1_213MeasureTimingE",
   "name" : "android::hardware::neuralnetworks::V1_2::MeasureTiming",
   "referenced_type" : "_ZTIN7android8hardware14neuralnetworks4V1_213MeasureTimingE",
   "self_type" : "_ZTIN7android8hardware14neuralnetworks4V1_213MeasureTimingE",
   "size" : 4,
   "source_file" : "/out/soong/.intermediates/hardware/interfaces/neuralnetworks/1.2/android.hardware.neuralnetworks@1.2_genc++_headers/gen/android/hardware/neuralnetworks/1.2/types.h",
   "underlying_type" : "_ZTIi"
  },
  {
   "alignment" : 4,
   "enum_fields" :
   [
    {
     "enum_field_value" : 0,
     "name" : "android::hardware::neuralnetworks::V1_2::OperationType::ADD"
    },
    {
     "enum_field_value" : 1,
     "name" : "android::hardware::neuralnetworks::V1_2::OperationType::AVERAGE_POOL_2D"
    },
    {
     "enum_field_value" : 2,
     "name" : "android::hardware::neuralnetworks::V1_2::OperationType::CONCATENATION"
    },
    {
     "enum_field_value" : 3,
     "name" : "android::hardware::neuralnetworks::V1_2::OperationType::CONV_2D"
    },
    {
     "enum_field_value" : 4,
     "name" : "android::hardware::neuralnetworks::V1_2::OperationType::DEPTHWISE_CONV_2D"
    },
    {
     "enum_field_value" : 5,
     "name" : "android::hardware::neuralnetworks::V1_2::OperationType::DEPTH_TO_SPACE"
    },
    {
     "enum_field_value" : 6,
     "name" : "android::hardware::neuralnetworks::V1_2::OperationType::DEQUANTIZE"
    },
    {
     "enum_field_value" : 7,
     "name" : "android::hardware::neuralnetworks::V1_2::OperationType::EMBEDDING_LOOKUP"
    },
    {
     "enum_field_value" : 8,
     "name" : "android::hardware::neuralnetworks::V1_2::OperationType::FLOOR"
    },
    {
     "enum_field_value" : 9,
     "name" : "android::hardware::neuralnetworks::V1_2::OperationType::FULLY_CONNECTED"
    },
    {
     "enum_field_value" : 10,
     "name" : "android::hardware::neuralnetworks::V1_2::OperationType::HASHTABLE_LOOKUP"
    },
    {
     "enum_field_value" : 11,
     "name" : "android::hardware::neuralnetworks::V1_2::OperationType::L2_NORMALIZATION"
    },
    {
     "enum_field_value" : 12,
     "name" : "android::hardware::neuralnetworks::V1_2::OperationType::L2_POOL_2D"
    },
    {
     "enum_field_value" : 13,
     "name" : "android::hardware::neuralnetworks::V1_2::OperationType::LOCAL_RESPONSE_NORMALIZATION"
    },
    {
     "enum_field_value" : 14,
     "name" : "android::hardware::neuralnetworks::V1_2::OperationType::LOGISTIC"
    },
    {
     "enum_field_value" : 15,
     "name" : "android::hardware::neuralnetworks::V1_2::OperationType::LSH_PROJECTION"
    },
    {
     "enum_field_value" : 16,
     "name" : "android::hardware::neuralnetworks::V1_2::OperationType::LSTM"
    },
    {
     "enum_field_value" : 17,
     "name" : "android::hardware::neuralnetworks::V1_2::OperationType::MAX_POOL_2D"
    },
    {
     "enum_field_value" : 18,
     "name" : "android::hardware::neuralnetworks::V1_2::OperationType::MUL"
    },
    {
     "enum_field_value" : 19,
     "name" : "android::hardware::neuralnetworks::V1_2::OperationType::RELU"
    },
    {
     "enum_field_value" : 20,
     "name" : "android::hardware::neuralnetworks::V1_2::OperationType::RELU1"
    },
    {
     "enum_field_value" : 21,
     "name" : "android::hardware::neuralnetworks::V1_2::OperationType::RELU6"
    },
    {
     "enum_field_value" : 22,
     "name" : "android::hardware::neuralnetworks::V1_2::OperationType::RESHAPE"
    },
    {
     "enum_field_value" : 23,
     "name" : "android::hardware::neuralnetworks::V1_2::OperationType::RESIZE_BILINEAR"
    },
    {
     "enum_field_value" : 24,
     "name" : "android::hardware::neuralnetworks::V1_2::OperationType::RNN"
    },
    {
     "enum_field_value" : 25,
     "name" : "android::hardware::neuralnetworks::V1_2::OperationType::SOFTMAX"
    },
    {
     "enum_field_value" : 26,
     "name" : "android::hardware::neuralnetworks::V1_2::OperationType::SPACE_TO_DEPTH"
    },
    {
     "enum_field_value" : 27,
     "name" : "android::hardware::neuralnetworks::V1_2::OperationType::SVDF"
    },
    {
     "enum_field_value" : 28,
     "name" : "android::hardware::neuralnetworks::V1_2::OperationType::TANH"
    },
    {
     "enum_field_value" : 29,
     "name" : "android::hardware::neuralnetworks::V1_2::OperationType::BATCH_TO_SPACE_ND"
    },
    {
     "enum_field_value" : 30,
     "name" : "android::hardware::neuralnetworks::V1_2::OperationType::DIV"
    },
    {
     "enum_field_value" : 31,
     "name" : "android::hardware::neuralnetworks::V1_2::OperationType::MEAN"
    },
    {
     "enum_field_value" : 32,
     "name" : "android::hardware::neuralnetworks::V1_2::OperationType::PAD"
    },
    {
     "enum_field_value" : 33,
     "name" : "android::hardware::neuralnetworks::V1_2::OperationType::SPACE_TO_BATCH_ND"
    },
    {
     "enum_field_value" : 34,
     "name" : "android::hardware::neuralnetworks::V1_2::OperationType::SQUEEZE"
    },
    {
     "enum_field_value" : 35,
     "name" : "android::hardware::neuralnetworks::V1_2::OperationType::STRIDED_SLICE"
    },
    {
     "enum_field_value" : 36,
     "name" : "android::hardware::neuralnetworks::V1_2::OperationType::SUB"
    },
    {
     "enum_field_value" : 37,
     "name" : "android::hardware::neuralnetworks::V1_2::OperationType::TRANSPOSE"
    },
    {
     "enum_field_value" : 38,
     "name" : "android::hardware::neuralnetworks::V1_2::OperationType::ABS"
    },
    {
     "enum_field_value" : 39,
     "name" : "android::hardware::neuralnetworks::V1_2::OperationType::ARGMAX"
    },
    {
     "enum_field_value" : 40,
     "name" : "android::hardware::neuralnetworks::V1_2::OperationType::ARGMIN"
    },
    {
     "enum_field_value" : 41,
     "name" : "android::hardware::neuralnetworks::V1_2::OperationType::AXIS_ALIGNED_BBOX_TRANSFORM"
    },
    {
     "enum_field_value" : 42,
     "name" : "android::hardware::neuralnetworks::V1_2::OperationType::BIDIRECTIONAL_SEQUENCE_LSTM"
    },
    {
     "enum_field_value" : 43,
     "name" : "android::hardware::neuralnetworks::V1_2::OperationType::BIDIRECTIONAL_SEQUENCE_RNN"
    },
    {
     "enum_field_value" : 44,
     "name" : "android::hardware::neuralnetworks::V1_2::OperationType::BOX_WITH_NMS_LIMIT"
    },
    {
     "enum_field_value" : 45,
     "name" : "android::hardware::neuralnetworks::V1_2::OperationType::CAST"
    },
    {
     "enum_field_value" : 46,
     "name" : "android::hardware::neuralnetworks::V1_2::OperationType::CHANNEL_SHUFFLE"
    },
    {
     "enum_field_value" : 47,
     "name" : "android::hardware::neuralnetworks::V1_2::OperationType::DETECTION_POSTPROCESSING"
    },
    {
     "enum_field_value" : 48,
     "name" : "android::hardware::neuralnetworks::V1_2::OperationType::EQUAL"
    },
    {
     "enum_field_value" : 49,
     "name" : "android::hardware::neuralnetworks::V1_2::OperationType::EXP"
    },
    {
     "enum_field_value" : 50,
     "name" : "android::hardware::neuralnetworks::V1_2::OperationType::EXPAND_DIMS"
    },
    {
     "enum_field_value" : 51,
     "name" : "android::hardware::neuralnetworks::V1_2::OperationType::GATHER"
    },
    {
     "enum_field_value" : 52,
     "name" : "android::hardware::neuralnetworks::V1_2::OperationType::GENERATE_PROPOSALS"
    },
    {
     "enum_field_value" : 53,
     "name" : "android::hardware::neuralnetworks::V1_2::OperationType::GREATER"
    },
    {
     "enum_field_value" : 54,
     "name" : "android::hardware::neuralnetworks::V1_2::OperationType::GREATER_EQUAL"
    },
    {
     "enum_field_value" : 55,
     "name" : "android::hardware::neuralnetworks::V1_2::OperationType::GROUPED_CONV_2D"
    },
    {
     "enum_field_value" : 56,
     "name" : "android::hardware::neuralnetworks::V1_2::OperationType::HEATMAP_MAX_KEYPOINT"
    },
    {
     "enum_field_value" : 57,
     "name" : "android::hardware::neuralnetworks::V1_2::OperationType::INSTANCE_NORMALIZATION"
    },
    {
     "enum_field_value" : 58,
     "name" : "android::hardware::neuralnetworks::V1_2::OperationType::LESS"
    },
    {
     "enum_field_value" : 59,
     "name" : "android::hardware::neuralnetworks::V1_2::OperationType::LESS_EQUAL"
    },
    {
     "enum_field_value" : 60,
     "name" : "android::hardware::neuralnetworks::V1_2::OperationType::LOG"
    },
    {
     "enum_field_value" : 61,
     "name" : "android::hardware::neuralnetworks::V1_2::OperationType::LOGICAL_AND"
    },
    {
     "enum_field_value" : 62,
     "name" : "android::hardware::neuralnetworks::V1_2::OperationType::LOGICAL_NOT"
    },
    {
     "enum_field_value" : 63,
     "name" : "android::hardware::neuralnetworks::V1_2::OperationType::LOGICAL_OR"
    },
    {
     "enum_field_value" : 64,
     "name" : "android::hardware::neuralnetworks::V1_2::OperationType::LOG_SOFTMAX"
    },
    {
     "enum_field_value" : 65,
     "name" : "android::hardware::neuralnetworks::V1_2::OperationType::MAXIMUM"
    },
    {
     "enum_field_value" : 66,
     "name" : "android::hardware::neuralnetworks::V1_2::OperationType::MINIMUM"
    },
    {
     "enum_field_value" : 67,
     "name" : "android::hardware::neuralnetworks::V1_2::OperationType::NEG"
    },
    {
     "enum_field_value" : 68,
     "name" : "android::hardware::neuralnetworks::V1_2::OperationType::NOT_EQUAL"
    },
    {
     "enum_field_value" : 69,
     "name" : "android::hardware::neuralnetworks::V1_2::OperationType::PAD_V2"
    },
    {
     "enum_field_value" : 70,
     "name" : "android::hardware::neuralnetworks::V1_2::OperationType::POW"
    },
    {
     "enum_field_value" : 71,
     "name" : "android::hardware::neuralnetworks::V1_2::OperationType::PRELU"
    },
    {
     "enum_field_value" : 72,
     "name" : "android::hardware::neuralnetworks::V1_2::OperationType::QUANTIZE"
    },
    {
     "enum_field_value" : 73,
     "name" : "android::hardware::neuralnetworks::V1_2::OperationType::QUANTIZED_16BIT_LSTM"
    },
    {
     "enum_field_value" : 74,
     "name" : "android::hardware::neuralnetworks::V1_2::OperationType::RANDOM_MULTINOMIAL"
    },
    {
     "enum_field_value" : 75,
     "name" : "android::hardware::neuralnetworks::V1_2::OperationType::REDUCE_ALL"
    },
    {
     "enum_field_value" : 76,
     "name" : "android::hardware::neuralnetworks::V1_2::OperationType::REDUCE_ANY"
    },
    {
     "enum_field_value" : 77,
     "name" : "android::hardware::neuralnetworks::V1_2::OperationType::REDUCE_MAX"
    },
    {
     "enum_field_value" : 78,
     "name" : "android::hardware::neuralnetworks::V1_2::OperationType::REDUCE_MIN"
    },
    {
     "enum_field_value" : 79,
     "name" : "android::hardware::neuralnetworks::V1_2::OperationType::REDUCE_PROD"
    },
    {
     "enum_field_value" : 80,
     "name" : "android::hardware::neuralnetworks::V1_2::OperationType::REDUCE_SUM"
    },
    {
     "enum_field_value" : 81,
     "name" : "android::hardware::neuralnetworks::V1_2::OperationType::ROI_ALIGN"
    },
    {
     "enum_field_value" : 82,
     "name" : "android::hardware::neuralnetworks::V1_2::OperationType::ROI_POOLING"
    },
    {
     "enum_field_value" : 83,
     "name" : "android::hardware::neuralnetworks::V1_2::OperationType::RSQRT"
    },
    {
     "enum_field_value" : 84,
     "name" : "android::hardware::neuralnetworks::V1_2::OperationType::SELECT"
    },
    {
     "enum_field_value" : 85,
     "name" : "android::hardware::neuralnetworks::V1_2::OperationType::SIN"
    },
    {
     "enum_field_value" : 86,
     "name" : "android::hardware::neuralnetworks::V1_2::OperationType::SLICE"
    },
    {
     "enum_field_value" : 87,
     "name" : "android::hardware::neuralnetworks::V1_2::OperationType::SPLIT"
    },
    {
     "enum_field_value" : 88,
     "name" : "android::hardware::neuralnetworks::V1_2::OperationType::SQRT"
    },
    {
     "enum_field_value" : 89,
     "name" : "android::hardware::neuralnetworks::V1_2::OperationType::TILE"
    },
    {
     "enum_field_value" : 90,
     "name" : "android::hardware::neuralnetworks::V1_2::OperationType::TOPK_V2"
    },
    {
     "enum_field_value" : 91,
     "name" : "android::hardware::neuralnetworks::V1_2::OperationType::TRANSPOSE_CONV_2D"
    },
    {
     "enum_field_value" : 92,
     "name" : "android::hardware::neuralnetworks::V1_2::OperationType::UNIDIRECTIONAL_SEQUENCE_LSTM"
    },
    {
     "enum_field_value" : 93,
     "name" : "android::hardware::neuralnetworks::V1_2::OperationType::UNIDIRECTIONAL_SEQUENCE_RNN"
    },
    {
     "enum_field_value" : 94,
     "name" : "android::hardware::neuralnetworks::V1_2::OperationType::RESIZE_NEAREST_NEIGHBOR"
    },
    {
     "enum_field_value" : 10000,
     "name" : "android::hardware::neuralnetworks::V1_2::OperationType::OEM_OPERATION"
    }
   ],
   "linker_set_key" : "_ZTIN7android8hardware14neuralnetworks4V1_213OperationTypeE",
   "name" : "android::hardware::neuralnetworks::V1_2::OperationType",
   "referenced_type" : "_ZTIN7android8hardware14neuralnetworks4V1_213OperationTypeE",
   "self_type" : "_ZTIN7android8hardware14neuralnetworks4V1_213OperationTypeE",
   "size" : 4,
   "source_file" : "/out/soong/.intermediates/hardware/interfaces/neuralnetworks/1.2/android.hardware.neuralnetworks@1.2_genc++_headers/gen/android/hardware/neuralnetworks/1.2/types.h",
   "underlying_type" : "_ZTIi"
  },
  {
   "alignment" : 1,
   "enum_fields" :
   [
    {
     "enum_field_value" : 0,
     "name" : "android::hardware::neuralnetworks::V1_2::FmqResultDatum::hidl_discriminator::packetInformation"
    },
    {
     "enum_field_value" : 1,
     "name" : "android::hardware::neuralnetworks::V1_2::FmqResultDatum::hidl_discriminator::operandInformation"
    },
    {
     "enum_field_value" : 2,
     "name" : "android::hardware::neuralnetworks::V1_2::FmqResultDatum::hidl_discriminator::operandDimensionValue"
    },
    {
     "enum_field_value" : 3,
     "name" : "android::hardware::neuralnetworks::V1_2::FmqResultDatum::hidl_discriminator::executionTiming"
    }
   ],
   "linker_set_key" : "_ZTIN7android8hardware14neuralnetworks4V1_214FmqResultDatum18hidl_discriminatorE",
   "name" : "android::hardware::neuralnetworks::V1_2::FmqResultDatum::hidl_discriminator",
   "referenced_type" : "_ZTIN7android8hardware14neuralnetworks4V1_214FmqResultDatum18hidl_discriminatorE",
   "self_type" : "_ZTIN7android8hardware14neuralnetworks4V1_214FmqResultDatum18hidl_discriminatorE",
   "size" : 1,
   "source_file" : "/out/soong/.intermediates/hardware/interfaces/neuralnetworks/1.2/android.hardware.neuralnetworks@1.2_genc++_headers/gen/android/hardware/neuralnetworks/1.2/types.h",
   "underlying_type" : "_ZTIh"
  },
  {
   "alignment" : 1,
   "enum_fields" :
   [
    {
     "enum_field_value" : 0,
     "name" : "android::hardware::neuralnetworks::V1_2::FmqRequestDatum::hidl_discriminator::packetInformation"
    },
    {
     "enum_field_value" : 1,
     "name" : "android::hardware::neuralnetworks::V1_2::FmqRequestDatum::hidl_discriminator::inputOperandInformation"
    },
    {
     "enum_field_value" : 2,
     "name" : "android::hardware::neuralnetworks::V1_2::FmqRequestDatum::hidl_discriminator::inputOperandDimensionValue"
    },
    {
     "enum_field_value" : 3,
     "name" : "android::hardware::neuralnetworks::V1_2::FmqRequestDatum::hidl_discriminator::outputOperandInformation"
    },
    {
     "enum_field_value" : 4,
     "name" : "android::hardware::neuralnetworks::V1_2::FmqRequestDatum::hidl_discriminator::outputOperandDimensionValue"
    },
    {
     "enum_field_value" : 5,
     "name" : "android::hardware::neuralnetworks::V1_2::FmqRequestDatum::hidl_discriminator::poolIdentifier"
    },
    {
     "enum_field_value" : 6,
     "name" : "android::hardware::neuralnetworks::V1_2::FmqRequestDatum::hidl_discriminator::measureTiming"
    }
   ],
   "linker_set_key" : "_ZTIN7android8hardware14neuralnetworks4V1_215FmqRequestDatum18hidl_discriminatorE",
   "name" : "android::hardware::neuralnetworks::V1_2::FmqRequestDatum::hidl_discriminator",
   "referenced_type" : "_ZTIN7android8hardware14neuralnetworks4V1_215FmqRequestDatum18hidl_discriminatorE",
   "self_type" : "_ZTIN7android8hardware14neuralnetworks4V1_215FmqRequestDatum18hidl_discriminatorE",
   "size" : 1,
   "source_file" : "/out/soong/.intermediates/hardware/interfaces/neuralnetworks/1.2/android.hardware.neuralnetworks@1.2_genc++_headers/gen/android/hardware/neuralnetworks/1.2/types.h",
   "underlying_type" : "_ZTIh"
  },
  {
   "alignment" : 4,
   "enum_fields" :
   [
    {
     "enum_field_value" : 0,
     "name" : "android::hardware::neuralnetworks::V1_2::OperandTypeRange::BASE_MIN"
    },
    {
     "enum_field_value" : 0,
     "name" : "android::hardware::neuralnetworks::V1_2::OperandTypeRange::FUNDAMENTAL_MIN"
    },
    {
     "enum_field_value" : 13,
     "name" : "android::hardware::neuralnetworks::V1_2::OperandTypeRange::FUNDAMENTAL_MAX"
    },
    {
     "enum_field_value" : 10000,
     "name" : "android::hardware::neuralnetworks::V1_2::OperandTypeRange::OEM_MIN"
    },
    {
     "enum_field_value" : 10001,
     "name" : "android::hardware::neuralnetworks::V1_2::OperandTypeRange::OEM_MAX"
    },
    {
     "enum_field_value" : 65535,
     "name" : "android::hardware::neuralnetworks::V1_2::OperandTypeRange::BASE_MAX"
    }
   ],
   "linker_set_key" : "_ZTIN7android8hardware14neuralnetworks4V1_216OperandTypeRangeE",
   "name" : "android::hardware::neuralnetworks::V1_2::OperandTypeRange",
   "referenced_type" : "_ZTIN7android8hardware14neuralnetworks4V1_216OperandTypeRangeE",
   "self_type" : "_ZTIN7android8hardware14neuralnetworks4V1_216OperandTypeRangeE",
   "size" : 4,
   "source_file" : "/out/soong/.intermediates/hardware/interfaces/neuralnetworks/1.2/android.hardware.neuralnetworks@1.2_genc++_headers/gen/android/hardware/neuralnetworks/1.2/types.h",
   "underlying_type" : "_ZTIj"
  },
  {
   "alignment" : 4,
   "enum_fields" :
   [
    {
     "enum_field_value" : 0,
     "name" : "android::hardware::neuralnetworks::V1_2::OperationTypeRange::BASE_MIN"
    },
    {
     "enum_field_value" : 0,
     "name" : "android::hardware::neuralnetworks::V1_2::OperationTypeRange::FUNDAMENTAL_MIN"
    },
    {
     "enum_field_value" : 94,
     "name" : "android::hardware::neuralnetworks::V1_2::OperationTypeRange::FUNDAMENTAL_MAX"
    },
    {
     "enum_field_value" : 10000,
     "name" : "android::hardware::neuralnetworks::V1_2::OperationTypeRange::OEM_MIN"
    },
    {
     "enum_field_value" : 10000,
     "name" : "android::hardware::neuralnetworks::V1_2::OperationTypeRange::OEM_MAX"
    },
    {
     "enum_field_value" : 65535,
     "name" : "android::hardware::neuralnetworks::V1_2::OperationTypeRange::BASE_MAX"
    }
   ],
   "linker_set_key" : "_ZTIN7android8hardware14neuralnetworks4V1_218OperationTypeRangeE",
   "name" : "android::hardware::neuralnetworks::V1_2::OperationTypeRange",
   "referenced_type" : "_ZTIN7android8hardware14neuralnetworks4V1_218OperationTypeRangeE",
   "self_type" : "_ZTIN7android8hardware14neuralnetworks4V1_218OperationTypeRangeE",
   "size" : 4,
   "source_file" : "/out/soong/.intermediates/hardware/interfaces/neuralnetworks/1.2/android.hardware.neuralnetworks@1.2_genc++_headers/gen/android/hardware/neuralnetworks/1.2/types.h",
   "underlying_type" : "_ZTIj"
  },
  {
   "alignment" : 1,
   "enum_fields" :
   [
    {
     "enum_field_value" : 16,
     "name" : "android::hardware::neuralnetworks::V1_2::Model::ExtensionTypeEncoding::HIGH_BITS_PREFIX"
    },
    {
     "enum_field_value" : 16,
     "name" : "android::hardware::neuralnetworks::V1_2::Model::ExtensionTypeEncoding::LOW_BITS_TYPE"
    }
   ],
   "linker_set_key" : "_ZTIN7android8hardware14neuralnetworks4V1_25Model21ExtensionTypeEncodingE",
   "name" : "android::hardware::neuralnetworks::V1_2::Model::ExtensionTypeEncoding",
   "referenced_type" : "_ZTIN7android8hardware14neuralnetworks4V1_25Model21ExtensionTypeEncodingE",
   "self_type" : "_ZTIN7android8hardware14neuralnetworks4V1_25Model21ExtensionTypeEncodingE",
   "size" : 1,
   "source_file" : "/out/soong/.intermediates/hardware/interfaces/neuralnetworks/1.2/android.hardware.neuralnetworks@1.2_genc++_headers/gen/android/hardware/neuralnetworks/1.2/types.h",
   "underlying_type" : "_ZTIh"
  },
  {
   "alignment" : 1,
   "enum_fields" :
   [
    {
     "enum_field_value" : 0,
     "name" : "android::hardware::neuralnetworks::V1_2::Operand::ExtraParams::hidl_discriminator::none"
    },
    {
     "enum_field_value" : 1,
     "name" : "android::hardware::neuralnetworks::V1_2::Operand::ExtraParams::hidl_discriminator::channelQuant"
    },
    {
     "enum_field_value" : 2,
     "name" : "android::hardware::neuralnetworks::V1_2::Operand::ExtraParams::hidl_discriminator::extension"
    }
   ],
   "linker_set_key" : "_ZTIN7android8hardware14neuralnetworks4V1_27Operand11ExtraParams18hidl_discriminatorE",
   "name" : "android::hardware::neuralnetworks::V1_2::Operand::ExtraParams::hidl_discriminator",
   "referenced_type" : "_ZTIN7android8hardware14neuralnetworks4V1_27Operand11ExtraParams18hidl_discriminatorE",
   "self_type" : "_ZTIN7android8hardware14neuralnetworks4V1_27Operand11ExtraParams18hidl_discriminatorE",
   "size" : 1,
   "source_file" : "/out/soong/.intermediates/hardware/interfaces/neuralnetworks/1.2/android.hardware.neuralnetworks@1.2_genc++_headers/gen/android/hardware/neuralnetworks/1.2/types.h",
   "underlying_type" : "_ZTIh"
  },
  {
   "alignment" : 4,
   "enum_fields" :
   [
    {
     "enum_field_value" : 32,
     "name" : "android::hardware::neuralnetworks::V1_2::Constant::BYTE_SIZE_OF_CACHE_TOKEN"
    },
    {
     "enum_field_value" : 32,
     "name" : "android::hardware::neuralnetworks::V1_2::Constant::MAX_NUMBER_OF_CACHE_FILES"
    }
   ],
   "linker_set_key" : "_ZTIN7android8hardware14neuralnetworks4V1_28ConstantE",
   "name" : "android::hardware::neuralnetworks::V1_2::Constant",
   "referenced_type" : "_ZTIN7android8hardware14neuralnetworks4V1_28ConstantE",
   "self_type" : "_ZTIN7android8hardware14neuralnetworks4V1_28ConstantE",
   "size" : 4,
   "source_file" : "/out/soong/.intermediates/hardware/interfaces/neuralnetworks/1.2/android.hardware.neuralnetworks@1.2_genc++_headers/gen/android/hardware/neuralnetworks/1.2/types.h",
   "underlying_type" : "_ZTIj"
  },
  {
   "alignment" : 4,
   "enum_fields" :
   [
    {
     "enum_field_value" : 0,
     "name" : "android::hardware::neuralnetworks::V1_3::ErrorStatus::NONE"
    },
    {
     "enum_field_value" : 1,
     "name" : "android::hardware::neuralnetworks::V1_3::ErrorStatus::DEVICE_UNAVAILABLE"
    },
    {
     "enum_field_value" : 2,
     "name" : "android::hardware::neuralnetworks::V1_3::ErrorStatus::GENERAL_FAILURE"
    },
    {
     "enum_field_value" : 3,
     "name" : "android::hardware::neuralnetworks::V1_3::ErrorStatus::OUTPUT_INSUFFICIENT_SIZE"
    },
    {
     "enum_field_value" : 4,
     "name" : "android::hardware::neuralnetworks::V1_3::ErrorStatus::INVALID_ARGUMENT"
    },
    {
     "enum_field_value" : 5,
     "name" : "android::hardware::neuralnetworks::V1_3::ErrorStatus::MISSED_DEADLINE_TRANSIENT"
    },
    {
     "enum_field_value" : 6,
     "name" : "android::hardware::neuralnetworks::V1_3::ErrorStatus::MISSED_DEADLINE_PERSISTENT"
    },
    {
     "enum_field_value" : 7,
     "name" : "android::hardware::neuralnetworks::V1_3::ErrorStatus::RESOURCE_EXHAUSTED_TRANSIENT"
    },
    {
     "enum_field_value" : 8,
     "name" : "android::hardware::neuralnetworks::V1_3::ErrorStatus::RESOURCE_EXHAUSTED_PERSISTENT"
    }
   ],
   "linker_set_key" : "_ZTIN7android8hardware14neuralnetworks4V1_311ErrorStatusE",
   "name" : "android::hardware::neuralnetworks::V1_3::ErrorStatus",
   "referenced_type" : "_ZTIN7android8hardware14neuralnetworks4V1_311ErrorStatusE",
   "self_type" : "_ZTIN7android8hardware14neuralnetworks4V1_311ErrorStatusE",
   "size" : 4,
   "source_file" : "/out/soong/.intermediates/hardware/interfaces/neuralnetworks/1.3/android.hardware.neuralnetworks@1.3_genc++_headers/gen/android/hardware/neuralnetworks/1.3/types.h",
   "underlying_type" : "_ZTIi"
  },
  {
   "alignment" : 4,
   "enum_fields" :
   [
    {
     "enum_field_value" : 0,
     "name" : "android::hardware::neuralnetworks::V1_3::OperandType::FLOAT32"
    },
    {
     "enum_field_value" : 1,
     "name" : "android::hardware::neuralnetworks::V1_3::OperandType::INT32"
    },
    {
     "enum_field_value" : 2,
     "name" : "android::hardware::neuralnetworks::V1_3::OperandType::UINT32"
    },
    {
     "enum_field_value" : 3,
     "name" : "android::hardware::neuralnetworks::V1_3::OperandType::TENSOR_FLOAT32"
    },
    {
     "enum_field_value" : 4,
     "name" : "android::hardware::neuralnetworks::V1_3::OperandType::TENSOR_INT32"
    },
    {
     "enum_field_value" : 5,
     "name" : "android::hardware::neuralnetworks::V1_3::OperandType::TENSOR_QUANT8_ASYMM"
    },
    {
     "enum_field_value" : 10000,
     "name" : "android::hardware::neuralnetworks::V1_3::OperandType::OEM"
    },
    {
     "enum_field_value" : 10001,
     "name" : "android::hardware::neuralnetworks::V1_3::OperandType::TENSOR_OEM_BYTE"
    },
    {
     "enum_field_value" : 6,
     "name" : "android::hardware::neuralnetworks::V1_3::OperandType::BOOL"
    },
    {
     "enum_field_value" : 7,
     "name" : "android::hardware::neuralnetworks::V1_3::OperandType::TENSOR_QUANT16_SYMM"
    },
    {
     "enum_field_value" : 8,
     "name" : "android::hardware::neuralnetworks::V1_3::OperandType::TENSOR_FLOAT16"
    },
    {
     "enum_field_value" : 9,
     "name" : "android::hardware::neuralnetworks::V1_3::OperandType::TENSOR_BOOL8"
    },
    {
     "enum_field_value" : 10,
     "name" : "android::hardware::neuralnetworks::V1_3::OperandType::FLOAT16"
    },
    {
     "enum_field_value" : 11,
     "name" : "android::hardware::neuralnetworks::V1_3::OperandType::TENSOR_QUANT8_SYMM_PER_CHANNEL"
    },
    {
     "enum_field_value" : 12,
     "name" : "android::hardware::neuralnetworks::V1_3::OperandType::TENSOR_QUANT16_ASYMM"
    },
    {
     "enum_field_value" : 13,
     "name" : "android::hardware::neuralnetworks::V1_3::OperandType::TENSOR_QUANT8_SYMM"
    },
    {
     "enum_field_value" : 14,
     "name" : "android::hardware::neuralnetworks::V1_3::OperandType::TENSOR_QUANT8_ASYMM_SIGNED"
    },
    {
     "enum_field_value" : 15,
     "name" : "android::hardware::neuralnetworks::V1_3::OperandType::SUBGRAPH"
    }
   ],
   "linker_set_key" : "_ZTIN7android8hardware14neuralnetworks4V1_311OperandTypeE",
   "name" : "android::hardware::neuralnetworks::V1_3::OperandType",
   "referenced_type" : "_ZTIN7android8hardware14neuralnetworks4V1_311OperandTypeE",
   "self_type" : "_ZTIN7android8hardware14neuralnetworks4V1_311OperandTypeE",
   "size" : 4,
   "source_file" : "/out/soong/.intermediates/hardware/interfaces/neuralnetworks/1.3/android.hardware.neuralnetworks@1.3_genc++_headers/gen/android/hardware/neuralnetworks/1.3/types.h",
   "underlying_type" : "_ZTIi"
  },
  {
   "alignment" : 4,
   "enum_fields" :
   [
    {
     "enum_field_value" : 0,
     "name" : "android::hardware::neuralnetworks::V1_3::OperationType::ADD"
    },
    {
     "enum_field_value" : 1,
     "name" : "android::hardware::neuralnetworks::V1_3::OperationType::AVERAGE_POOL_2D"
    },
    {
     "enum_field_value" : 2,
     "name" : "android::hardware::neuralnetworks::V1_3::OperationType::CONCATENATION"
    },
    {
     "enum_field_value" : 3,
     "name" : "android::hardware::neuralnetworks::V1_3::OperationType::CONV_2D"
    },
    {
     "enum_field_value" : 4,
     "name" : "android::hardware::neuralnetworks::V1_3::OperationType::DEPTHWISE_CONV_2D"
    },
    {
     "enum_field_value" : 5,
     "name" : "android::hardware::neuralnetworks::V1_3::OperationType::DEPTH_TO_SPACE"
    },
    {
     "enum_field_value" : 6,
     "name" : "android::hardware::neuralnetworks::V1_3::OperationType::DEQUANTIZE"
    },
    {
     "enum_field_value" : 7,
     "name" : "android::hardware::neuralnetworks::V1_3::OperationType::EMBEDDING_LOOKUP"
    },
    {
     "enum_field_value" : 8,
     "name" : "android::hardware::neuralnetworks::V1_3::OperationType::FLOOR"
    },
    {
     "enum_field_value" : 9,
     "name" : "android::hardware::neuralnetworks::V1_3::OperationType::FULLY_CONNECTED"
    },
    {
     "enum_field_value" : 10,
     "name" : "android::hardware::neuralnetworks::V1_3::OperationType::HASHTABLE_LOOKUP"
    },
    {
     "enum_field_value" : 11,
     "name" : "android::hardware::neuralnetworks::V1_3::OperationType::L2_NORMALIZATION"
    },
    {
     "enum_field_value" : 12,
     "name" : "android::hardware::neuralnetworks::V1_3::OperationType::L2_POOL_2D"
    },
    {
     "enum_field_value" : 13,
     "name" : "android::hardware::neuralnetworks::V1_3::OperationType::LOCAL_RESPONSE_NORMALIZATION"
    },
    {
     "enum_field_value" : 14,
     "name" : "android::hardware::neuralnetworks::V1_3::OperationType::LOGISTIC"
    },
    {
     "enum_field_value" : 15,
     "name" : "android::hardware::neuralnetworks::V1_3::OperationType::LSH_PROJECTION"
    },
    {
     "enum_field_value" : 16,
     "name" : "android::hardware::neuralnetworks::V1_3::OperationType::LSTM"
    },
    {
     "enum_field_value" : 17,
     "name" : "android::hardware::neuralnetworks::V1_3::OperationType::MAX_POOL_2D"
    },
    {
     "enum_field_value" : 18,
     "name" : "android::hardware::neuralnetworks::V1_3::OperationType::MUL"
    },
    {
     "enum_field_value" : 19,
     "name" : "android::hardware::neuralnetworks::V1_3::OperationType::RELU"
    },
    {
     "enum_field_value" : 20,
     "name" : "android::hardware::neuralnetworks::V1_3::OperationType::RELU1"
    },
    {
     "enum_field_value" : 21,
     "name" : "android::hardware::neuralnetworks::V1_3::OperationType::RELU6"
    },
    {
     "enum_field_value" : 22,
     "name" : "android::hardware::neuralnetworks::V1_3::OperationType::RESHAPE"
    },
    {
     "enum_field_value" : 23,
     "name" : "android::hardware::neuralnetworks::V1_3::OperationType::RESIZE_BILINEAR"
    },
    {
     "enum_field_value" : 24,
     "name" : "android::hardware::neuralnetworks::V1_3::OperationType::RNN"
    },
    {
     "enum_field_value" : 25,
     "name" : "android::hardware::neuralnetworks::V1_3::OperationType::SOFTMAX"
    },
    {
     "enum_field_value" : 26,
     "name" : "android::hardware::neuralnetworks::V1_3::OperationType::SPACE_TO_DEPTH"
    },
    {
     "enum_field_value" : 27,
     "name" : "android::hardware::neuralnetworks::V1_3::OperationType::SVDF"
    },
    {
     "enum_field_value" : 28,
     "name" : "android::hardware::neuralnetworks::V1_3::OperationType::TANH"
    },
    {
     "enum_field_value" : 29,
     "name" : "android::hardware::neuralnetworks::V1_3::OperationType::BATCH_TO_SPACE_ND"
    },
    {
     "enum_field_value" : 30,
     "name" : "android::hardware::neuralnetworks::V1_3::OperationType::DIV"
    },
    {
     "enum_field_value" : 31,
     "name" : "android::hardware::neuralnetworks::V1_3::OperationType::MEAN"
    },
    {
     "enum_field_value" : 32,
     "name" : "android::hardware::neuralnetworks::V1_3::OperationType::PAD"
    },
    {
     "enum_field_value" : 33,
     "name" : "android::hardware::neuralnetworks::V1_3::OperationType::SPACE_TO_BATCH_ND"
    },
    {
     "enum_field_value" : 34,
     "name" : "android::hardware::neuralnetworks::V1_3::OperationType::SQUEEZE"
    },
    {
     "enum_field_value" : 35,
     "name" : "android::hardware::neuralnetworks::V1_3::OperationType::STRIDED_SLICE"
    },
    {
     "enum_field_value" : 36,
     "name" : "android::hardware::neuralnetworks::V1_3::OperationType::SUB"
    },
    {
     "enum_field_value" : 37,
     "name" : "android::hardware::neuralnetworks::V1_3::OperationType::TRANSPOSE"
    },
    {
     "enum_field_value" : 38,
     "name" : "android::hardware::neuralnetworks::V1_3::OperationType::ABS"
    },
    {
     "enum_field_value" : 39,
     "name" : "android::hardware::neuralnetworks::V1_3::OperationType::ARGMAX"
    },
    {
     "enum_field_value" : 40,
     "name" : "android::hardware::neuralnetworks::V1_3::OperationType::ARGMIN"
    },
    {
     "enum_field_value" : 41,
     "name" : "android::hardware::neuralnetworks::V1_3::OperationType::AXIS_ALIGNED_BBOX_TRANSFORM"
    },
    {
     "enum_field_value" : 42,
     "name" : "android::hardware::neuralnetworks::V1_3::OperationType::BIDIRECTIONAL_SEQUENCE_LSTM"
    },
    {
     "enum_field_value" : 43,
     "name" : "android::hardware::neuralnetworks::V1_3::OperationType::BIDIRECTIONAL_SEQUENCE_RNN"
    },
    {
     "enum_field_value" : 44,
     "name" : "android::hardware::neuralnetworks::V1_3::OperationType::BOX_WITH_NMS_LIMIT"
    },
    {
     "enum_field_value" : 45,
     "name" : "android::hardware::neuralnetworks::V1_3::OperationType::CAST"
    },
    {
     "enum_field_value" : 46,
     "name" : "android::hardware::neuralnetworks::V1_3::OperationType::CHANNEL_SHUFFLE"
    },
    {
     "enum_field_value" : 47,
     "name" : "android::hardware::neuralnetworks::V1_3::OperationType::DETECTION_POSTPROCESSING"
    },
    {
     "enum_field_value" : 48,
     "name" : "android::hardware::neuralnetworks::V1_3::OperationType::EQUAL"
    },
    {
     "enum_field_value" : 49,
     "name" : "android::hardware::neuralnetworks::V1_3::OperationType::EXP"
    },
    {
     "enum_field_value" : 50,
     "name" : "android::hardware::neuralnetworks::V1_3::OperationType::EXPAND_DIMS"
    },
    {
     "enum_field_value" : 51,
     "name" : "android::hardware::neuralnetworks::V1_3::OperationType::GATHER"
    },
    {
     "enum_field_value" : 52,
     "name" : "android::hardware::neuralnetworks::V1_3::OperationType::GENERATE_PROPOSALS"
    },
    {
     "enum_field_value" : 53,
     "name" : "android::hardware::neuralnetworks::V1_3::OperationType::GREATER"
    },
    {
     "enum_field_value" : 54,
     "name" : "android::hardware::neuralnetworks::V1_3::OperationType::GREATER_EQUAL"
    },
    {
     "enum_field_value" : 55,
     "name" : "android::hardware::neuralnetworks::V1_3::OperationType::GROUPED_CONV_2D"
    },
    {
     "enum_field_value" : 56,
     "name" : "android::hardware::neuralnetworks::V1_3::OperationType::HEATMAP_MAX_KEYPOINT"
    },
    {
     "enum_field_value" : 57,
     "name" : "android::hardware::neuralnetworks::V1_3::OperationType::INSTANCE_NORMALIZATION"
    },
    {
     "enum_field_value" : 58,
     "name" : "android::hardware::neuralnetworks::V1_3::OperationType::LESS"
    },
    {
     "enum_field_value" : 59,
     "name" : "android::hardware::neuralnetworks::V1_3::OperationType::LESS_EQUAL"
    },
    {
     "enum_field_value" : 60,
     "name" : "android::hardware::neuralnetworks::V1_3::OperationType::LOG"
    },
    {
     "enum_field_value" : 61,
     "name" : "android::hardware::neuralnetworks::V1_3::OperationType::LOGICAL_AND"
    },
    {
     "enum_field_value" : 62,
     "name" : "android::hardware::neuralnetworks::V1_3::OperationType::LOGICAL_NOT"
    },
    {
     "enum_field_value" : 63,
     "name" : "android::hardware::neuralnetworks::V1_3::OperationType::LOGICAL_OR"
    },
    {
     "enum_field_value" : 64,
     "name" : "android::hardware::neuralnetworks::V1_3::OperationType::LOG_SOFTMAX"
    },
    {
     "enum_field_value" : 65,
     "name" : "android::hardware::neuralnetworks::V1_3::OperationType::MAXIMUM"
    },
    {
     "enum_field_value" : 66,
     "name" : "android::hardware::neuralnetworks::V1_3::OperationType::MINIMUM"
    },
    {
     "enum_field_value" : 67,
     "name" : "android::hardware::neuralnetworks::V1_3::OperationType::NEG"
    },
    {
     "enum_field_value" : 68,
     "name" : "android::hardware::neuralnetworks::V1_3::OperationType::NOT_EQUAL"
    },
    {
     "enum_field_value" : 69,
     "name" : "android::hardware::neuralnetworks::V1_3::OperationType::PAD_V2"
    },
    {
     "enum_field_value" : 70,
     "name" : "android::hardware::neuralnetworks::V1_3::OperationType::POW"
    },
    {
     "enum_field_value" : 71,
     "name" : "android::hardware::neuralnetworks::V1_3::OperationType::PRELU"
    },
    {
     "enum_field_value" : 72,
     "name" : "android::hardware::neuralnetworks::V1_3::OperationType::QUANTIZE"
    },
    {
     "enum_field_value" : 73,
     "name" : "android::hardware::neuralnetworks::V1_3::OperationType::QUANTIZED_16BIT_LSTM"
    },
    {
     "enum_field_value" : 74,
     "name" : "android::hardware::neuralnetworks::V1_3::OperationType::RANDOM_MULTINOMIAL"
    },
    {
     "enum_field_value" : 75,
     "name" : "android::hardware::neuralnetworks::V1_3::OperationType::REDUCE_ALL"
    },
    {
     "enum_field_value" : 76,
     "name" : "android::hardware::neuralnetworks::V1_3::OperationType::REDUCE_ANY"
    },
    {
     "enum_field_value" : 77,
     "name" : "android::hardware::neuralnetworks::V1_3::OperationType::REDUCE_MAX"
    },
    {
     "enum_field_value" : 78,
     "name" : "android::hardware::neuralnetworks::V1_3::OperationType::REDUCE_MIN"
    },
    {
     "enum_field_value" : 79,
     "name" : "android::hardware::neuralnetworks::V1_3::OperationType::REDUCE_PROD"
    },
    {
     "enum_field_value" : 80,
     "name" : "android::hardware::neuralnetworks::V1_3::OperationType::REDUCE_SUM"
    },
    {
     "enum_field_value" : 81,
     "name" : "android::hardware::neuralnetworks::V1_3::OperationType::ROI_ALIGN"
    },
    {
     "enum_field_value" : 82,
     "name" : "android::hardware::neuralnetworks::V1_3::OperationType::ROI_POOLING"
    },
    {
     "enum_field_value" : 83,
     "name" : "android::hardware::neuralnetworks::V1_3::OperationType::RSQRT"
    },
    {
     "enum_field_value" : 84,
     "name" : "android::hardware::neuralnetworks::V1_3::OperationType::SELECT"
    },
    {
     "enum_field_value" : 85,
     "name" : "android::hardware::neuralnetworks::V1_3::OperationType::SIN"
    },
    {
     "enum_field_value" : 86,
     "name" : "android::hardware::neuralnetworks::V1_3::OperationType::SLICE"
    },
    {
     "enum_field_value" : 87,
     "name" : "android::hardware::neuralnetworks::V1_3::OperationType::SPLIT"
    },
    {
     "enum_field_value" : 88,
     "name" : "android::hardware::neuralnetworks::V1_3::OperationType::SQRT"
    },
    {
     "enum_field_value" : 89,
     "name" : "android::hardware::neuralnetworks::V1_3::OperationType::TILE"
    },
    {
     "enum_field_value" : 90,
     "name" : "android::hardware::neuralnetworks::V1_3::OperationType::TOPK_V2"
    },
    {
     "enum_field_value" : 91,
     "name" : "android::hardware::neuralnetworks::V1_3::OperationType::TRANSPOSE_CONV_2D"
    },
    {
     "enum_field_value" : 92,
     "name" : "android::hardware::neuralnetworks::V1_3::OperationType::UNIDIRECTIONAL_SEQUENCE_LSTM"
    },
    {
     "enum_field_value" : 93,
     "name" : "android::hardware::neuralnetworks::V1_3::OperationType::UNIDIRECTIONAL_SEQUENCE_RNN"
    },
    {
     "enum_field_value" : 94,
     "name" : "android::hardware::neuralnetworks::V1_3::OperationType::RESIZE_NEAREST_NEIGHBOR"
    },
    {
     "enum_field_value" : 95,
     "name" : "android::hardware::neuralnetworks::V1_3::OperationType::QUANTIZED_LSTM"
    },
    {
     "enum_field_value" : 96,
     "name" : "android::hardware::neuralnetworks::V1_3::OperationType::IF"
    },
    {
     "enum_field_value" : 97,
     "name" : "android::hardware::neuralnetworks::V1_3::OperationType::WHILE"
    },
    {
     "enum_field_value" : 98,
     "name" : "android::hardware::neuralnetworks::V1_3::OperationType::ELU"
    },
    {
     "enum_field_value" : 99,
     "name" : "android::hardware::neuralnetworks::V1_3::OperationType::HARD_SWISH"
    },
    {
     "enum_field_value" : 100,
     "name" : "android::hardware::neuralnetworks::V1_3::OperationType::FILL"
    },
    {
     "enum_field_value" : 101,
     "name" : "android::hardware::neuralnetworks::V1_3::OperationType::RANK"
    },
    {
     "enum_field_value" : 10000,
     "name" : "android::hardware::neuralnetworks::V1_3::OperationType::OEM_OPERATION"
    }
   ],
   "linker_set_key" : "_ZTIN7android8hardware14neuralnetworks4V1_313OperationTypeE",
   "name" : "android::hardware::neuralnetworks::V1_3::OperationType",
   "referenced_type" : "_ZTIN7android8hardware14neuralnetworks4V1_313OperationTypeE",
   "self_type" : "_ZTIN7android8hardware14neuralnetworks4V1_313OperationTypeE",
   "size" : 4,
   "source_file" : "/out/soong/.intermediates/hardware/interfaces/neuralnetworks/1.3/android.hardware.neuralnetworks@1.3_genc++_headers/gen/android/hardware/neuralnetworks/1.3/types.h",
   "underlying_type" : "_ZTIi"
  },
  {
   "alignment" : 4,
   "enum_fields" :
   [
    {
     "enum_field_value" : 0,
     "name" : "android::hardware::neuralnetworks::V1_3::OperandLifeTime::TEMPORARY_VARIABLE"
    },
    {
     "enum_field_value" : 1,
     "name" : "android::hardware::neuralnetworks::V1_3::OperandLifeTime::SUBGRAPH_INPUT"
    },
    {
     "enum_field_value" : 2,
     "name" : "android::hardware::neuralnetworks::V1_3::OperandLifeTime::SUBGRAPH_OUTPUT"
    },
    {
     "enum_field_value" : 3,
     "name" : "android::hardware::neuralnetworks::V1_3::OperandLifeTime::CONSTANT_COPY"
    },
    {
     "enum_field_value" : 4,
     "name" : "android::hardware::neuralnetworks::V1_3::OperandLifeTime::CONSTANT_REFERENCE"
    },
    {
     "enum_field_value" : 5,
     "name" : "android::hardware::neuralnetworks::V1_3::OperandLifeTime::NO_VALUE"
    },
    {
     "enum_field_value" : 6,
     "name" : "android::hardware::neuralnetworks::V1_3::OperandLifeTime::SUBGRAPH"
    }
   ],
   "linker_set_key" : "_ZTIN7android8hardware14neuralnetworks4V1_315OperandLifeTimeE",
   "name" : "android::hardware::neuralnetworks::V1_3::OperandLifeTime",
   "referenced_type" : "_ZTIN7android8hardware14neuralnetworks4V1_315OperandLifeTimeE",
   "self_type" : "_ZTIN7android8hardware14neuralnetworks4V1_315OperandLifeTimeE",
   "size" : 4,
   "source_file" : "/out/soong/.intermediates/hardware/interfaces/neuralnetworks/1.3/android.hardware.neuralnetworks@1.3_genc++_headers/gen/android/hardware/neuralnetworks/1.3/types.h",
   "underlying_type" : "_ZTIi"
  },
  {
   "alignment" : 4,
   "enum_fields" :
   [
    {
     "enum_field_value" : 0,
     "name" : "android::hardware::neuralnetworks::V1_3::OperandTypeRange::BASE_MIN"
    },
    {
     "enum_field_value" : 0,
     "name" : "android::hardware::neuralnetworks::V1_3::OperandTypeRange::FUNDAMENTAL_MIN"
    },
    {
     "enum_field_value" : 15,
     "name" : "android::hardware::neuralnetworks::V1_3::OperandTypeRange::FUNDAMENTAL_MAX"
    },
    {
     "enum_field_value" : 10000,
     "name" : "android::hardware::neuralnetworks::V1_3::OperandTypeRange::OEM_MIN"
    },
    {
     "enum_field_value" : 10001,
     "name" : "android::hardware::neuralnetworks::V1_3::OperandTypeRange::OEM_MAX"
    },
    {
     "enum_field_value" : 65535,
     "name" : "android::hardware::neuralnetworks::V1_3::OperandTypeRange::BASE_MAX"
    }
   ],
   "linker_set_key" : "_ZTIN7android8hardware14neuralnetworks4V1_316OperandTypeRangeE",
   "name" : "android::hardware::neuralnetworks::V1_3::OperandTypeRange",
   "referenced_type" : "_ZTIN7android8hardware14neuralnetworks4V1_316OperandTypeRangeE",
   "self_type" : "_ZTIN7android8hardware14neuralnetworks4V1_316OperandTypeRangeE",
   "size" : 4,
   "source_file" : "/out/soong/.intermediates/hardware/interfaces/neuralnetworks/1.3/android.hardware.neuralnetworks@1.3_genc++_headers/gen/android/hardware/neuralnetworks/1.3/types.h",
   "underlying_type" : "_ZTIj"
  },
  {
   "alignment" : 1,
   "enum_fields" :
   [
    {
     "enum_field_value" : 0,
     "name" : "android::hardware::neuralnetworks::V1_3::OptionalTimePoint::hidl_discriminator::none"
    },
    {
     "enum_field_value" : 1,
     "name" : "android::hardware::neuralnetworks::V1_3::OptionalTimePoint::hidl_discriminator::nanosecondsSinceEpoch"
    }
   ],
   "linker_set_key" : "_ZTIN7android8hardware14neuralnetworks4V1_317OptionalTimePoint18hidl_discriminatorE",
   "name" : "android::hardware::neuralnetworks::V1_3::OptionalTimePoint::hidl_discriminator",
   "referenced_type" : "_ZTIN7android8hardware14neuralnetworks4V1_317OptionalTimePoint18hidl_discriminatorE",
   "self_type" : "_ZTIN7android8hardware14neuralnetworks4V1_317OptionalTimePoint18hidl_discriminatorE",
   "size" : 1,
   "source_file" : "/out/soong/.intermediates/hardware/interfaces/neuralnetworks/1.3/android.hardware.neuralnetworks@1.3_genc++_headers/gen/android/hardware/neuralnetworks/1.3/types.h",
   "underlying_type" : "_ZTIh"
  },
  {
   "alignment" : 4,
   "enum_fields" :
   [
    {
     "enum_field_value" : 0,
     "name" : "android::hardware::neuralnetworks::V1_3::OperationTypeRange::BASE_MIN"
    },
    {
     "enum_field_value" : 0,
     "name" : "android::hardware::neuralnetworks::V1_3::OperationTypeRange::FUNDAMENTAL_MIN"
    },
    {
     "enum_field_value" : 101,
     "name" : "android::hardware::neuralnetworks::V1_3::OperationTypeRange::FUNDAMENTAL_MAX"
    },
    {
     "enum_field_value" : 10000,
     "name" : "android::hardware::neuralnetworks::V1_3::OperationTypeRange::OEM_MIN"
    },
    {
     "enum_field_value" : 10000,
     "name" : "android::hardware::neuralnetworks::V1_3::OperationTypeRange::OEM_MAX"
    },
    {
     "enum_field_value" : 65535,
     "name" : "android::hardware::neuralnetworks::V1_3::OperationTypeRange::BASE_MAX"
    }
   ],
   "linker_set_key" : "_ZTIN7android8hardware14neuralnetworks4V1_318OperationTypeRangeE",
   "name" : "android::hardware::neuralnetworks::V1_3::OperationTypeRange",
   "referenced_type" : "_ZTIN7android8hardware14neuralnetworks4V1_318OperationTypeRangeE",
   "self_type" : "_ZTIN7android8hardware14neuralnetworks4V1_318OperationTypeRangeE",
   "size" : 4,
   "source_file" : "/out/soong/.intermediates/hardware/interfaces/neuralnetworks/1.3/android.hardware.neuralnetworks@1.3_genc++_headers/gen/android/hardware/neuralnetworks/1.3/types.h",
   "underlying_type" : "_ZTIj"
  },
  {
   "alignment" : 8,
   "enum_fields" :
   [
    {
     "enum_field_value" : 2000000000,
     "name" : "android::hardware::neuralnetworks::V1_3::LoopTimeoutDurationNs::DEFAULT"
    },
    {
     "enum_field_value" : 2115098112,
     "name" : "android::hardware::neuralnetworks::V1_3::LoopTimeoutDurationNs::MAXIMUM"
    }
   ],
   "linker_set_key" : "_ZTIN7android8hardware14neuralnetworks4V1_321LoopTimeoutDurationNsE",
   "name" : "android::hardware::neuralnetworks::V1_3::LoopTimeoutDurationNs",
   "referenced_type" : "_ZTIN7android8hardware14neuralnetworks4V1_321LoopTimeoutDurationNsE",
   "self_type" : "_ZTIN7android8hardware14neuralnetworks4V1_321LoopTimeoutDurationNsE",
   "size" : 8,
   "source_file" : "/out/soong/.intermediates/hardware/interfaces/neuralnetworks/1.3/android.hardware.neuralnetworks@1.3_genc++_headers/gen/android/hardware/neuralnetworks/1.3/types.h",
   "underlying_type" : "_ZTIy"
  },
  {
   "alignment" : 1,
   "enum_fields" :
   [
    {
     "enum_field_value" : 0,
     "name" : "android::hardware::neuralnetworks::V1_3::OptionalTimeoutDuration::hidl_discriminator::none"
    },
    {
     "enum_field_value" : 1,
     "name" : "android::hardware::neuralnetworks::V1_3::OptionalTimeoutDuration::hidl_discriminator::nanoseconds"
    }
   ],
   "linker_set_key" : "_ZTIN7android8hardware14neuralnetworks4V1_323OptionalTimeoutDuration18hidl_discriminatorE",
   "name" : "android::hardware::neuralnetworks::V1_3::OptionalTimeoutDuration::hidl_discriminator",
   "referenced_type" : "_ZTIN7android8hardware14neuralnetworks4V1_323OptionalTimeoutDuration18hidl_discriminatorE",
   "self_type" : "_ZTIN7android8hardware14neuralnetworks4V1_323OptionalTimeoutDuration18hidl_discriminatorE",
   "size" : 1,
   "source_file" : "/out/soong/.intermediates/hardware/interfaces/neuralnetworks/1.3/android.hardware.neuralnetworks@1.3_genc++_headers/gen/android/hardware/neuralnetworks/1.3/types.h",
   "underlying_type" : "_ZTIh"
  },
  {
   "alignment" : 1,
   "enum_fields" :
   [
    {
     "enum_field_value" : 0,
     "name" : "android::hardware::neuralnetworks::V1_3::Request::MemoryPool::hidl_discriminator::hidlMemory"
    },
    {
     "enum_field_value" : 1,
     "name" : "android::hardware::neuralnetworks::V1_3::Request::MemoryPool::hidl_discriminator::token"
    }
   ],
   "linker_set_key" : "_ZTIN7android8hardware14neuralnetworks4V1_37Request10MemoryPool18hidl_discriminatorE",
   "name" : "android::hardware::neuralnetworks::V1_3::Request::MemoryPool::hidl_discriminator",
   "referenced_type" : "_ZTIN7android8hardware14neuralnetworks4V1_37Request10MemoryPool18hidl_discriminatorE",
   "self_type" : "_ZTIN7android8hardware14neuralnetworks4V1_37Request10MemoryPool18hidl_discriminatorE",
   "size" : 1,
   "source_file" : "/out/soong/.intermediates/hardware/interfaces/neuralnetworks/1.3/android.hardware.neuralnetworks@1.3_genc++_headers/gen/android/hardware/neuralnetworks/1.3/types.h",
   "underlying_type" : "_ZTIh"
  },
  {
   "alignment" : 4,
   "enum_fields" :
   [
    {
     "enum_field_value" : 0,
     "name" : "android::hardware::neuralnetworks::V1_3::Priority::LOW"
    },
    {
     "enum_field_value" : 1,
     "name" : "android::hardware::neuralnetworks::V1_3::Priority::MEDIUM"
    },
    {
     "enum_field_value" : 2,
     "name" : "android::hardware::neuralnetworks::V1_3::Priority::HIGH"
    }
   ],
   "linker_set_key" : "_ZTIN7android8hardware14neuralnetworks4V1_38PriorityE",
   "name" : "android::hardware::neuralnetworks::V1_3::Priority",
   "referenced_type" : "_ZTIN7android8hardware14neuralnetworks4V1_38PriorityE",
   "self_type" : "_ZTIN7android8hardware14neuralnetworks4V1_38PriorityE",
   "size" : 4,
   "source_file" : "/out/soong/.intermediates/hardware/interfaces/neuralnetworks/1.3/android.hardware.neuralnetworks@1.3_genc++_headers/gen/android/hardware/neuralnetworks/1.3/types.h",
   "underlying_type" : "_ZTIi"
  },
  {
   "alignment" : 4,
   "enum_fields" :
   [
    {
     "enum_field_value" : 0,
     "name" : "android::hardware::HidlReturnRestriction::NONE"
    },
    {
     "enum_field_value" : 1,
     "name" : "android::hardware::HidlReturnRestriction::ERROR_IF_UNCHECKED"
    },
    {
     "enum_field_value" : 2,
     "name" : "android::hardware::HidlReturnRestriction::FATAL_IF_UNCHECKED"
    }
   ],
   "linker_set_key" : "_ZTIN7android8hardware21HidlReturnRestrictionE",
   "name" : "android::hardware::HidlReturnRestriction",
   "referenced_type" : "_ZTIN7android8hardware21HidlReturnRestrictionE",
   "self_type" : "_ZTIN7android8hardware21HidlReturnRestrictionE",
   "size" : 4,
   "source_file" : "/system/libhidl/base/include/hidl/Status.h",
   "underlying_type" : "_ZTIi"
  },
  {
   "alignment" : 4,
   "enum_fields" :
   [
    {
     "enum_field_value" : 0,
     "name" : "android::hardware::Status::EX_NONE"
    },
    {
     "enum_field_value" : -1,
     "name" : "android::hardware::Status::EX_SECURITY"
    },
    {
     "enum_field_value" : -2,
     "name" : "android::hardware::Status::EX_BAD_PARCELABLE"
    },
    {
     "enum_field_value" : -3,
     "name" : "android::hardware::Status::EX_ILLEGAL_ARGUMENT"
    },
    {
     "enum_field_value" : -4,
     "name" : "android::hardware::Status::EX_NULL_POINTER"
    },
    {
     "enum_field_value" : -5,
     "name" : "android::hardware::Status::EX_ILLEGAL_STATE"
    },
    {
     "enum_field_value" : -6,
     "name" : "android::hardware::Status::EX_NETWORK_MAIN_THREAD"
    },
    {
     "enum_field_value" : -7,
     "name" : "android::hardware::Status::EX_UNSUPPORTED_OPERATION"
    },
    {
     "enum_field_value" : -128,
     "name" : "android::hardware::Status::EX_HAS_REPLY_HEADER"
    },
    {
     "enum_field_value" : -129,
     "name" : "android::hardware::Status::EX_TRANSACTION_FAILED"
    }
   ],
   "linker_set_key" : "_ZTIN7android8hardware6Status9ExceptionE",
   "name" : "android::hardware::Status::Exception",
   "referenced_type" : "_ZTIN7android8hardware6Status9ExceptionE",
   "self_type" : "_ZTIN7android8hardware6Status9ExceptionE",
   "size" : 4,
   "source_file" : "/system/libhidl/base/include/hidl/Status.h",
   "underlying_type" : "_ZTIi"
  },
  {
   "alignment" : 4,
   "enum_fields" :
   [
    {
     "enum_field_value" : 1,
     "name" : "android::hardware::IBinder::FLAG_ONEWAY"
    }
   ],
   "linker_set_key" : "_ZTIN7android8hardware7IBinder12$FLAG_ONEWAYE",
   "name" : "android::hardware::IBinder::(anonymous enum at system/libhwbinder/include/hwbinder/IBinder.h:47:5)",
   "referenced_type" : "_ZTIN7android8hardware7IBinder12$FLAG_ONEWAYE",
   "self_type" : "_ZTIN7android8hardware7IBinder12$FLAG_ONEWAYE",
   "size" : 4,
   "source_file" : "/system/libhwbinder/include/hwbinder/IBinder.h",
   "underlying_type" : "_ZTIj"
  },
  {
   "alignment" : 4,
   "enum_fields" :
   [
    {
     "enum_field_value" : 0,
     "name" : "android::hardware::details::HidlInstrumentor::SERVER_API_ENTRY"
    },
    {
     "enum_field_value" : 1,
     "name" : "android::hardware::details::HidlInstrumentor::SERVER_API_EXIT"
    },
    {
     "enum_field_value" : 2,
     "name" : "android::hardware::details::HidlInstrumentor::CLIENT_API_ENTRY"
    },
    {
     "enum_field_value" : 3,
     "name" : "android::hardware::details::HidlInstrumentor::CLIENT_API_EXIT"
    },
    {
     "enum_field_value" : 4,
     "name" : "android::hardware::details::HidlInstrumentor::SYNC_CALLBACK_ENTRY"
    },
    {
     "enum_field_value" : 5,
     "name" : "android::hardware::details::HidlInstrumentor::SYNC_CALLBACK_EXIT"
    },
    {
     "enum_field_value" : 6,
     "name" : "android::hardware::details::HidlInstrumentor::ASYNC_CALLBACK_ENTRY"
    },
    {
     "enum_field_value" : 7,
     "name" : "android::hardware::details::HidlInstrumentor::ASYNC_CALLBACK_EXIT"
    },
    {
     "enum_field_value" : 8,
     "name" : "android::hardware::details::HidlInstrumentor::PASSTHROUGH_ENTRY"
    },
    {
     "enum_field_value" : 9,
     "name" : "android::hardware::details::HidlInstrumentor::PASSTHROUGH_EXIT"
    }
   ],
   "linker_set_key" : "_ZTIN7android8hardware7details16HidlInstrumentor20InstrumentationEventE",
   "name" : "android::hardware::details::HidlInstrumentor::InstrumentationEvent",
   "referenced_type" : "_ZTIN7android8hardware7details16HidlInstrumentor20InstrumentationEventE",
   "self_type" : "_ZTIN7android8hardware7details16HidlInstrumentor20InstrumentationEventE",
   "size" : 4,
   "source_file" : "/system/libhidl/base/include/hidl/HidlInternal.h",
   "underlying_type" : "_ZTIj"
  },
  {
   "alignment" : 4,
   "enum_fields" :
   [
    {
     "enum_field_value" : 1,
     "name" : "android::hardware::kSynchronizedReadWrite"
    },
    {
     "enum_field_value" : 2,
     "name" : "android::hardware::kUnsynchronizedWrite"
    }
   ],
   "linker_set_key" : "_ZTIN7android8hardware8MQFlavorE",
   "name" : "android::hardware::MQFlavor",
   "referenced_type" : "_ZTIN7android8hardware8MQFlavorE",
   "self_type" : "_ZTIN7android8hardware8MQFlavorE",
   "size" : 4,
   "source_file" : "/system/libhidl/base/include/hidl/MQDescriptor.h",
   "underlying_type" : "_ZTIj"
  },
  {
   "alignment" : 4,
   "enum_fields" :
   [
    {
     "enum_field_value" : 0,
     "name" : "android::Condition::WAKE_UP_ONE"
    },
    {
     "enum_field_value" : 1,
     "name" : "android::Condition::WAKE_UP_ALL"
    }
   ],
   "linker_set_key" : "_ZTIN7android9Condition10WakeUpTypeE",
   "name" : "android::Condition::WakeUpType",
   "referenced_type" : "_ZTIN7android9Condition10WakeUpTypeE",
   "self_type" : "_ZTIN7android9Condition10WakeUpTypeE",
   "size" : 4,
   "source_file" : "/system/core/libutils/include/utils/Condition.h",
   "underlying_type" : "_ZTIj"
  },
  {
   "alignment" : 4,
   "enum_fields" :
   [
    {
     "enum_field_value" : 0,
     "name" : "android::Condition::PRIVATE"
    },
    {
     "enum_field_value" : 1,
     "name" : "android::Condition::SHARED"
    }
   ],
   "linker_set_key" : "_ZTIN7android9Condition8$PRIVATEE",
   "name" : "android::Condition::(anonymous enum at system/core/libutils/include/utils/Condition.h:54:5)",
   "referenced_type" : "_ZTIN7android9Condition8$PRIVATEE",
   "self_type" : "_ZTIN7android9Condition8$PRIVATEE",
   "size" : 4,
   "source_file" : "/system/core/libutils/include/utils/Condition.h",
   "underlying_type" : "_ZTIj"
  }
 ],
 "function_types" :
 [
  {
   "alignment" : 4,
   "linker_set_key" : "_ZTIFbRKN7android8String16ERKNS_2spINS_8hardware7IBinderEEEPvE",
   "name" : "bool (const android::String16 &, const android::sp<android::hardware::IBinder> &, void *)",
   "parameters" :
   [
    {
     "referenced_type" : "_ZTIRKN7android8String16E"
    },
    {
     "referenced_type" : "_ZTIRKN7android2spINS_8hardware7IBinderEEE"
    },
    {
     "referenced_type" : "_ZTIPv"
    }
   ],
   "referenced_type" : "_ZTIFbRKN7android8String16ERKNS_2spINS_8hardware7IBinderEEEPvE",
   "return_type" : "_ZTIb",
   "self_type" : "_ZTIFbRKN7android8String16ERKNS_2spINS_8hardware7IBinderEEEPvE",
   "source_file" : "/system/libhwbinder/include/hwbinder/ProcessState.h"
  },
  {
   "alignment" : 4,
   "linker_set_key" : "_ZTIFiPvE",
   "name" : "int (void *)",
   "parameters" :
   [
    {
     "referenced_type" : "_ZTIPv"
    }
   ],
   "referenced_type" : "_ZTIFiPvE",
   "return_type" : "_ZTIi",
   "self_type" : "_ZTIFiPvE",
   "source_file" : "/system/core/libutils/include/utils/AndroidThreads.h"
  },
  {
   "alignment" : 4,
   "linker_set_key" : "_ZTIFvPN7android8hardware6ParcelEPKhjPKyjPvE",
   "name" : "void (android::hardware::Parcel *, const unsigned char *, unsigned int, const unsigned long long *, unsigned int, void *)",
   "parameters" :
   [
    {
     "referenced_type" : "_ZTIPN7android8hardware6ParcelE"
    },
    {
     "referenced_type" : "_ZTIPKh"
    },
    {
     "referenced_type" : "_ZTIj"
    },
    {
     "referenced_type" : "_ZTIPKy"
    },
    {
     "referenced_type" : "_ZTIj"
    },
    {
     "referenced_type" : "_ZTIPv"
    }
   ],
   "referenced_type" : "_ZTIFvPN7android8hardware6ParcelEPKhjPKyjPvE",
   "return_type" : "_ZTIv",
   "self_type" : "_ZTIFvPN7android8hardware6ParcelEPKhjPKyjPvE",
   "source_file" : "/system/libhwbinder/include/hwbinder/Parcel.h"
  }
 ],
 "functions" :
 [
  {
   "function_name" : "android::sp<android::hardware::neuralnetworks::V1_3::IExecutionCallback>::operator=",
   "linker_set_key" : "_ZN7android2spINS_8hardware14neuralnetworks4V1_318IExecutionCallbackEEaSEOS5_",
   "parameters" :
   [
    {
     "is_this_ptr" : true,
     "referenced_type" : "_ZTIPN7android2spINS_8hardware14neuralnetworks4V1_318IExecutionCallbackEEE"
    },
    {
     "referenced_type" : "_ZTION7android2spINS_8hardware14neuralnetworks4V1_318IExecutionCallbackEEE"
    }
   ],
   "return_type" : "_ZTIRN7android2spINS_8hardware14neuralnetworks4V1_318IExecutionCallbackEEE",
   "source_file" : "/system/core/libutils/include/utils/StrongPointer.h"
  },
  {
   "function_name" : "android::sp<android::hardware::neuralnetworks::V1_3::IPreparedModelCallback>::operator=",
   "linker_set_key" : "_ZN7android2spINS_8hardware14neuralnetworks4V1_322IPreparedModelCallbackEEaSEOS5_",
   "parameters" :
   [
    {
     "is_this_ptr" : true,
     "referenced_type" : "_ZTIPN7android2spINS_8hardware14neuralnetworks4V1_322IPreparedModelCallbackEEE"
    },
    {
     "referenced_type" : "_ZTION7android2spINS_8hardware14neuralnetworks4V1_322IPreparedModelCallbackEEE"
    }
   ],
   "return_type" : "_ZTIRN7android2spINS_8hardware14neuralnetworks4V1_322IPreparedModelCallbackEEE",
   "source_file" : "/system/core/libutils/include/utils/StrongPointer.h"
  },
  {
   "function_name" : "android::hardware::fromBinder",
   "linker_set_key" : "_ZN7android8hardware10fromBinderINS0_14neuralnetworks4V1_314IPreparedModelENS3_17BpHwPreparedModelENS3_17BnHwPreparedModelEEENS_2spIT_EERKNS7_INS0_7IBinderEEE",
   "parameters" :
   [
    {
     "referenced_type" : "_ZTIRKN7android2spINS_8hardware7IBinderEEE"
    }
   ],
   "return_type" : "_ZTIN7android2spINS_8hardware14neuralnetworks4V1_314IPreparedModelEEE",
   "source_file" : "/system/libhidl/transport/include/hidl/HidlBinderSupport.h",
   "template_args" :
   [
    "_ZTIN7android8hardware14neuralnetworks4V1_314IPreparedModelE",
    "_ZTIN7android8hardware14neuralnetworks4V1_317BpHwPreparedModelE",
    "_ZTIN7android8hardware14neuralnetworks4V1_317BnHwPreparedModelE"
   ]
  },
  {
   "function_name" : "android::hardware::fromBinder",
   "linker_set_key" : "_ZN7android8hardware10fromBinderINS0_14neuralnetworks4V1_318IExecutionCallbackENS3_21BpHwExecutionCallbackENS3_21BnHwExecutionCallbackEEENS_2spIT_EERKNS7_INS0_7IBinderEEE",
   "parameters" :
   [
    {
     "referenced_type" : "_ZTIRKN7android2spINS_8hardware7IBinderEEE"
    }
   ],
   "return_type" : "_ZTIN7android2spINS_8hardware14neuralnetworks4V1_318IExecutionCallbackEEE",
   "source_file" : "/system/libhidl/transport/include/hidl/HidlBinderSupport.h",
   "template_args" :
   [
    "_ZTIN7android8hardware14neuralnetworks4V1_318IExecutionCallbackE",
    "_ZTIN7android8hardware14neuralnetworks4V1_321BpHwExecutionCallbackE",
    "_ZTIN7android8hardware14neuralnetworks4V1_321BnHwExecutionCallbackE"
   ]
  },
  {
   "function_name" : "android::hardware::fromBinder",
   "linker_set_key" : "_ZN7android8hardware10fromBinderINS0_14neuralnetworks4V1_322IPreparedModelCallbackENS3_25BpHwPreparedModelCallbackENS3_25BnHwPreparedModelCallbackEEENS_2spIT_EERKNS7_INS0_7IBinderEEE",
   "parameters" :
   [
    {
     "referenced_type" : "_ZTIRKN7android2spINS_8hardware7IBinderEEE"
    }
   ],
   "return_type" : "_ZTIN7android2spINS_8hardware14neuralnetworks4V1_322IPreparedModelCallbackEEE",
   "source_file" : "/system/libhidl/transport/include/hidl/HidlBinderSupport.h",
   "template_args" :
   [
    "_ZTIN7android8hardware14neuralnetworks4V1_322IPreparedModelCallbackE",
    "_ZTIN7android8hardware14neuralnetworks4V1_325BpHwPreparedModelCallbackE",
    "_ZTIN7android8hardware14neuralnetworks4V1_325BnHwPreparedModelCallbackE"
   ]
  },
  {
   "function_name" : "android::hardware::fromBinder",
   "linker_set_key" : "_ZN7android8hardware10fromBinderINS0_14neuralnetworks4V1_324IFencedExecutionCallbackENS3_27BpHwFencedExecutionCallbackENS3_27BnHwFencedExecutionCallbackEEENS_2spIT_EERKNS7_INS0_7IBinderEEE",
   "parameters" :
   [
    {
     "referenced_type" : "_ZTIRKN7android2spINS_8hardware7IBinderEEE"
    }
   ],
   "return_type" : "_ZTIN7android2spINS_8hardware14neuralnetworks4V1_324IFencedExecutionCallbackEEE",
   "source_file" : "/system/libhidl/transport/include/hidl/HidlBinderSupport.h",
   "template_args" :
   [
    "_ZTIN7android8hardware14neuralnetworks4V1_324IFencedExecutionCallbackE",
    "_ZTIN7android8hardware14neuralnetworks4V1_327BpHwFencedExecutionCallbackE",
    "_ZTIN7android8hardware14neuralnetworks4V1_327BnHwFencedExecutionCallbackE"
   ]
  },
  {
   "function_name" : "android::hardware::fromBinder",
   "linker_set_key" : "_ZN7android8hardware10fromBinderINS0_14neuralnetworks4V1_37IBufferENS3_10BpHwBufferENS3_10BnHwBufferEEENS_2spIT_EERKNS7_INS0_7IBinderEEE",
   "parameters" :
   [
    {
     "referenced_type" : "_ZTIRKN7android2spINS_8hardware7IBinderEEE"
    }
   ],
   "return_type" : "_ZTIN7android2spINS_8hardware14neuralnetworks4V1_37IBufferEEE",
   "source_file" : "/system/libhidl/transport/include/hidl/HidlBinderSupport.h",
   "template_args" :
   [
    "_ZTIN7android8hardware14neuralnetworks4V1_37IBufferE",
    "_ZTIN7android8hardware14neuralnetworks4V1_310BpHwBufferE",
    "_ZTIN7android8hardware14neuralnetworks4V1_310BnHwBufferE"
   ]
  },
  {
   "function_name" : "android::hardware::neuralnetworks::V1_3::BnHwBuffer::onTransact",
   "linker_set_key" : "_ZN7android8hardware14neuralnetworks4V1_310BnHwBuffer10onTransactEjRKNS0_6ParcelEPS4_jNSt3__18functionIFvRS4_EEE",
   "parameters" :
   [
    {
     "is_this_ptr" : true,
     "referenced_type" : "_ZTIPN7android8hardware14neuralnetworks4V1_310BnHwBufferE"
    },
    {
     "referenced_type" : "_ZTIj"
    },
    {
     "referenced_type" : "_ZTIRKN7android8hardware6ParcelE"
    },
    {
     "referenced_type" : "_ZTIPN7android8hardware6ParcelE"
    },
    {
     "default_arg" : true,
     "referenced_type" : "_ZTIj"
    },
    {
     "default_arg" : true,
     "referenced_type" : "_ZTINSt3__18functionIFvRN7android8hardware6ParcelEEEE"
    }
   ],
   "return_type" : "_ZTIi",
   "source_file" : "/out/soong/.intermediates/hardware/interfaces/neuralnetworks/1.3/android.hardware.neuralnetworks@1.3_genc++_headers/gen/android/hardware/neuralnetworks/1.3/BnHwBuffer.h"
  },
  {
   "function_name" : "android::hardware::neuralnetworks::V1_3::BnHwBuffer::_hidl_copyTo",
   "linker_set_key" : "_ZN7android8hardware14neuralnetworks4V1_310BnHwBuffer12_hidl_copyToEPNS_4hidl4base4V1_08BnHwBaseERKNS0_6ParcelEPS9_NSt3__18functionIFvRS9_EEE",
   "parameters" :
   [
    {
     "referenced_type" : "_ZTIPN7android4hidl4base4V1_08BnHwBaseE"
    },
    {
     "referenced_type" : "_ZTIRKN7android8hardware6ParcelE"
    },
    {
     "referenced_type" : "_ZTIPN7android8hardware6ParcelE"
    },
    {
     "referenced_type" : "_ZTINSt3__18functionIFvRN7android8hardware6ParcelEEEE"
    }
   ],
   "return_type" : "_ZTIi",
   "source_file" : "/out/soong/.intermediates/hardware/interfaces/neuralnetworks/1.3/android.hardware.neuralnetworks@1.3_genc++_headers/gen/android/hardware/neuralnetworks/1.3/BnHwBuffer.h"
  },
  {
   "access" : "private",
   "function_name" : "android::hardware::neuralnetworks::V1_3::BnHwBuffer::getDebugInfo",
   "linker_set_key" : "_ZN7android8hardware14neuralnetworks4V1_310BnHwBuffer12getDebugInfoENSt3__18functionIFvRKNS_4hidl4base4V1_09DebugInfoEEEE",
   "parameters" :
   [
    {
     "is_this_ptr" : true,
     "referenced_type" : "_ZTIPN7android8hardware14neuralnetworks4V1_310BnHwBufferE"
    },
    {
     "referenced_type" : "_ZTINSt3__18functionIFvRKN7android4hidl4base4V1_09DebugInfoEEEE"
    }
   ],
   "return_type" : "_ZTIN7android8hardware6ReturnIvEE",
   "source_file" : "/out/soong/.intermediates/hardware/interfaces/neuralnetworks/1.3/android.hardware.neuralnetworks@1.3_genc++_headers/gen/android/hardware/neuralnetworks/1.3/BnHwBuffer.h"
  },
  {
   "function_name" : "android::hardware::neuralnetworks::V1_3::BnHwBuffer::_hidl_copyFrom",
   "linker_set_key" : "_ZN7android8hardware14neuralnetworks4V1_310BnHwBuffer14_hidl_copyFromEPNS_4hidl4base4V1_08BnHwBaseERKNS0_6ParcelEPS9_NSt3__18functionIFvRS9_EEE",
   "parameters" :
   [
    {
     "referenced_type" : "_ZTIPN7android4hidl4base4V1_08BnHwBaseE"
    },
    {
     "referenced_type" : "_ZTIRKN7android8hardware6ParcelE"
    },
    {
     "referenced_type" : "_ZTIPN7android8hardware6ParcelE"
    },
    {
     "referenced_type" : "_ZTINSt3__18functionIFvRN7android8hardware6ParcelEEEE"
    }
   ],
   "return_type" : "_ZTIi",
   "source_file" : "/out/soong/.intermediates/hardware/interfaces/neuralnetworks/1.3/android.hardware.neuralnetworks@1.3_genc++_headers/gen/android/hardware/neuralnetworks/1.3/BnHwBuffer.h"
  },
  {
   "access" : "private",
   "function_name" : "android::hardware::neuralnetworks::V1_3::BnHwBuffer::ping",
   "linker_set_key" : "_ZN7android8hardware14neuralnetworks4V1_310BnHwBuffer4pingEv",
   "parameters" :
   [
    {
     "is_this_ptr" : true,
     "referenced_type" : "_ZTIPN7android8hardware14neuralnetworks4V1_310BnHwBufferE"
    }
   ],
   "return_type" : "_ZTIN7android8hardware6ReturnIvEE",
   "source_file" : "/out/soong/.intermediates/hardware/interfaces/neuralnetworks/1.3/android.hardware.neuralnetworks@1.3_genc++_headers/gen/android/hardware/neuralnetworks/1.3/BnHwBuffer.h"
  },
  {
   "function_name" : "android::hardware::neuralnetworks::V1_3::BnHwBuffer::BnHwBuffer",
   "linker_set_key" : "_ZN7android8hardware14neuralnetworks4V1_310BnHwBufferC1ERKNS_2spINS2_7IBufferEEE",
   "parameters" :
   [
    {
     "is_this_ptr" : true,
     "referenced_type" : "_ZTIPN7android8hardware14neuralnetworks4V1_310BnHwBufferE"
    },
    {
     "referenced_type" : "_ZTIRKN7android2spINS_8hardware14neuralnetworks4V1_37IBufferEEE"
    }
   ],
   "return_type" : "_ZTIv",
   "source_file" : "/out/soong/.intermediates/hardware/interfaces/neuralnetworks/1.3/android.hardware.neuralnetworks@1.3_genc++_headers/gen/android/hardware/neuralnetworks/1.3/BnHwBuffer.h"
  },
  {
   "function_name" : "android::hardware::neuralnetworks::V1_3::BnHwBuffer::BnHwBuffer",
   "linker_set_key" : "_ZN7android8hardware14neuralnetworks4V1_310BnHwBufferC2ERKNS_2spINS2_7IBufferEEE",
   "parameters" :
   [
    {
     "is_this_ptr" : true,
     "referenced_type" : "_ZTIPN7android8hardware14neuralnetworks4V1_310BnHwBufferE"
    },
    {
     "referenced_type" : "_ZTIRKN7android2spINS_8hardware14neuralnetworks4V1_37IBufferEEE"
    }
   ],
   "return_type" : "_ZTIv",
   "source_file" : "/out/soong/.intermediates/hardware/interfaces/neuralnetworks/1.3/android.hardware.neuralnetworks@1.3_genc++_headers/gen/android/hardware/neuralnetworks/1.3/BnHwBuffer.h"
  },
  {
   "function_name" : "android::hardware::neuralnetworks::V1_3::BnHwBuffer::~BnHwBuffer",
   "linker_set_key" : "_ZN7android8hardware14neuralnetworks4V1_310BnHwBufferD0Ev",
   "parameters" :
   [
    {
     "is_this_ptr" : true,
     "referenced_type" : "_ZTIPN7android8hardware14neuralnetworks4V1_310BnHwBufferE"
    }
   ],
   "return_type" : "_ZTIv",
   "source_file" : "/out/soong/.intermediates/hardware/interfaces/neuralnetworks/1.3/android.hardware.neuralnetworks@1.3_genc++_headers/gen/android/hardware/neuralnetworks/1.3/BnHwBuffer.h"
  },
  {
   "function_name" : "android::hardware::neuralnetworks::V1_3::BnHwBuffer::~BnHwBuffer",
   "linker_set_key" : "_ZN7android8hardware14neuralnetworks4V1_310BnHwBufferD1Ev",
   "parameters" :
   [
    {
     "is_this_ptr" : true,
     "referenced_type" : "_ZTIPN7android8hardware14neuralnetworks4V1_310BnHwBufferE"
    }
   ],
   "return_type" : "_ZTIv",
   "source_file" : "/out/soong/.intermediates/hardware/interfaces/neuralnetworks/1.3/android.hardware.neuralnetworks@1.3_genc++_headers/gen/android/hardware/neuralnetworks/1.3/BnHwBuffer.h"
  },
  {
   "function_name" : "android::hardware::neuralnetworks::V1_3::BnHwBuffer::~BnHwBuffer",
   "linker_set_key" : "_ZN7android8hardware14neuralnetworks4V1_310BnHwBufferD2Ev",
   "parameters" :
   [
    {
     "is_this_ptr" : true,
     "referenced_type" : "_ZTIPN7android8hardware14neuralnetworks4V1_310BnHwBufferE"
    }
   ],
   "return_type" : "_ZTIv",
   "source_file" : "/out/soong/.intermediates/hardware/interfaces/neuralnetworks/1.3/android.hardware.neuralnetworks@1.3_genc++_headers/gen/android/hardware/neuralnetworks/1.3/BnHwBuffer.h"
  },
  {
   "function_name" : "android::hardware::neuralnetworks::V1_3::BnHwDevice::onTransact",
   "linker_set_key" : "_ZN7android8hardware14neuralnetworks4V1_310BnHwDevice10onTransactEjRKNS0_6ParcelEPS4_jNSt3__18functionIFvRS4_EEE",
   "parameters" :
   [
    {
     "is_this_ptr" : true,
     "referenced_type" : "_ZTIPN7android8hardware14neuralnetworks4V1_310BnHwDeviceE"
    },
    {
     "referenced_type" : "_ZTIj"
    },
    {
     "referenced_type" : "_ZTIRKN7android8hardware6ParcelE"
    },
    {
     "referenced_type" : "_ZTIPN7android8hardware6ParcelE"
    },
    {
     "default_arg" : true,
     "referenced_type" : "_ZTIj"
    },
    {
     "default_arg" : true,
     "referenced_type" : "_ZTINSt3__18functionIFvRN7android8hardware6ParcelEEEE"
    }
   ],
   "return_type" : "_ZTIi",
   "source_file" : "/out/soong/.intermediates/hardware/interfaces/neuralnetworks/1.3/android.hardware.neuralnetworks@1.3_genc++_headers/gen/android/hardware/neuralnetworks/1.3/BnHwDevice.h"
  },
  {
   "access" : "private",
   "function_name" : "android::hardware::neuralnetworks::V1_3::BnHwDevice::getDebugInfo",
   "linker_set_key" : "_ZN7android8hardware14neuralnetworks4V1_310BnHwDevice12getDebugInfoENSt3__18functionIFvRKNS_4hidl4base4V1_09DebugInfoEEEE",
   "parameters" :
   [
    {
     "is_this_ptr" : true,
     "referenced_type" : "_ZTIPN7android8hardware14neuralnetworks4V1_310BnHwDeviceE"
    },
    {
     "referenced_type" : "_ZTINSt3__18functionIFvRKN7android4hidl4base4V1_09DebugInfoEEEE"
    }
   ],
   "return_type" : "_ZTIN7android8hardware6ReturnIvEE",
   "source_file" : "/out/soong/.intermediates/hardware/interfaces/neuralnetworks/1.3/android.hardware.neuralnetworks@1.3_genc++_headers/gen/android/hardware/neuralnetworks/1.3/BnHwDevice.h"
  },
  {
   "function_name" : "android::hardware::neuralnetworks::V1_3::BnHwDevice::_hidl_allocate",
   "linker_set_key" : "_ZN7android8hardware14neuralnetworks4V1_310BnHwDevice14_hidl_allocateEPNS_4hidl4base4V1_08BnHwBaseERKNS0_6ParcelEPS9_NSt3__18functionIFvRS9_EEE",
   "parameters" :
   [
    {
     "referenced_type" : "_ZTIPN7android4hidl4base4V1_08BnHwBaseE"
    },
    {
     "referenced_type" : "_ZTIRKN7android8hardware6ParcelE"
    },
    {
     "referenced_type" : "_ZTIPN7android8hardware6ParcelE"
    },
    {
     "referenced_type" : "_ZTINSt3__18functionIFvRN7android8hardware6ParcelEEEE"
    }
   ],
   "return_type" : "_ZTIi",
   "source_file" : "/out/soong/.intermediates/hardware/interfaces/neuralnetworks/1.3/android.hardware.neuralnetworks@1.3_genc++_headers/gen/android/hardware/neuralnetworks/1.3/BnHwDevice.h"
  },
  {
   "function_name" : "android::hardware::neuralnetworks::V1_3::BnHwDevice::_hidl_prepareModel_1_3",
   "linker_set_key" : "_ZN7android8hardware14neuralnetworks4V1_310BnHwDevice22_hidl_prepareModel_1_3EPNS_4hidl4base4V1_08BnHwBaseERKNS0_6ParcelEPS9_NSt3__18functionIFvRS9_EEE",
   "parameters" :
   [
    {
     "referenced_type" : "_ZTIPN7android4hidl4base4V1_08BnHwBaseE"
    },
    {
     "referenced_type" : "_ZTIRKN7android8hardware6ParcelE"
    },
    {
     "referenced_type" : "_ZTIPN7android8hardware6ParcelE"
    },
    {
     "referenced_type" : "_ZTINSt3__18functionIFvRN7android8hardware6ParcelEEEE"
    }
   ],
   "return_type" : "_ZTIi",
   "source_file" : "/out/soong/.intermediates/hardware/interfaces/neuralnetworks/1.3/android.hardware.neuralnetworks@1.3_genc++_headers/gen/android/hardware/neuralnetworks/1.3/BnHwDevice.h"
  },
  {
   "function_name" : "android::hardware::neuralnetworks::V1_3::BnHwDevice::_hidl_getCapabilities_1_3",
   "linker_set_key" : "_ZN7android8hardware14neuralnetworks4V1_310BnHwDevice25_hidl_getCapabilities_1_3EPNS_4hidl4base4V1_08BnHwBaseERKNS0_6ParcelEPS9_NSt3__18functionIFvRS9_EEE",
   "parameters" :
   [
    {
     "referenced_type" : "_ZTIPN7android4hidl4base4V1_08BnHwBaseE"
    },
    {
     "referenced_type" : "_ZTIRKN7android8hardware6ParcelE"
    },
    {
     "referenced_type" : "_ZTIPN7android8hardware6ParcelE"
    },
    {
     "referenced_type" : "_ZTINSt3__18functionIFvRN7android8hardware6ParcelEEEE"
    }
   ],
   "return_type" : "_ZTIi",
   "source_file" : "/out/soong/.intermediates/hardware/interfaces/neuralnetworks/1.3/android.hardware.neuralnetworks@1.3_genc++_headers/gen/android/hardware/neuralnetworks/1.3/BnHwDevice.h"
  },
  {
   "function_name" : "android::hardware::neuralnetworks::V1_3::BnHwDevice::_hidl_prepareModelFromCache_1_3",
   "linker_set_key" : "_ZN7android8hardware14neuralnetworks4V1_310BnHwDevice31_hidl_prepareModelFromCache_1_3EPNS_4hidl4base4V1_08BnHwBaseERKNS0_6ParcelEPS9_NSt3__18functionIFvRS9_EEE",
   "parameters" :
   [
    {
     "referenced_type" : "_ZTIPN7android4hidl4base4V1_08BnHwBaseE"
    },
    {
     "referenced_type" : "_ZTIRKN7android8hardware6ParcelE"
    },
    {
     "referenced_type" : "_ZTIPN7android8hardware6ParcelE"
    },
    {
     "referenced_type" : "_ZTINSt3__18functionIFvRN7android8hardware6ParcelEEEE"
    }
   ],
   "return_type" : "_ZTIi",
   "source_file" : "/out/soong/.intermediates/hardware/interfaces/neuralnetworks/1.3/android.hardware.neuralnetworks@1.3_genc++_headers/gen/android/hardware/neuralnetworks/1.3/BnHwDevice.h"
  },
  {
   "function_name" : "android::hardware::neuralnetworks::V1_3::BnHwDevice::_hidl_getSupportedOperations_1_3",
   "linker_set_key" : "_ZN7android8hardware14neuralnetworks4V1_310BnHwDevice32_hidl_getSupportedOperations_1_3EPNS_4hidl4base4V1_08BnHwBaseERKNS0_6ParcelEPS9_NSt3__18functionIFvRS9_EEE",
   "parameters" :
   [
    {
     "referenced_type" : "_ZTIPN7android4hidl4base4V1_08BnHwBaseE"
    },
    {
     "referenced_type" : "_ZTIRKN7android8hardware6ParcelE"
    },
    {
     "referenced_type" : "_ZTIPN7android8hardware6ParcelE"
    },
    {
     "referenced_type" : "_ZTINSt3__18functionIFvRN7android8hardware6ParcelEEEE"
    }
   ],
   "return_type" : "_ZTIi",
   "source_file" : "/out/soong/.intermediates/hardware/interfaces/neuralnetworks/1.3/android.hardware.neuralnetworks@1.3_genc++_headers/gen/android/hardware/neuralnetworks/1.3/BnHwDevice.h"
  },
  {
   "access" : "private",
   "function_name" : "android::hardware::neuralnetworks::V1_3::BnHwDevice::ping",
   "linker_set_key" : "_ZN7android8hardware14neuralnetworks4V1_310BnHwDevice4pingEv",
   "parameters" :
   [
    {
     "is_this_ptr" : true,
     "referenced_type" : "_ZTIPN7android8hardware14neuralnetworks4V1_310BnHwDeviceE"
    }
   ],
   "return_type" : "_ZTIN7android8hardware6ReturnIvEE",
   "source_file" : "/out/soong/.intermediates/hardware/interfaces/neuralnetworks/1.3/android.hardware.neuralnetworks@1.3_genc++_headers/gen/android/hardware/neuralnetworks/1.3/BnHwDevice.h"
  },
  {
   "function_name" : "android::hardware::neuralnetworks::V1_3::BnHwDevice::BnHwDevice",
   "linker_set_key" : "_ZN7android8hardware14neuralnetworks4V1_310BnHwDeviceC1ERKNS_2spINS2_7IDeviceEEE",
   "parameters" :
   [
    {
     "is_this_ptr" : true,
     "referenced_type" : "_ZTIPN7android8hardware14neuralnetworks4V1_310BnHwDeviceE"
    },
    {
     "referenced_type" : "_ZTIRKN7android2spINS_8hardware14neuralnetworks4V1_37IDeviceEEE"
    }
   ],
   "return_type" : "_ZTIv",
   "source_file" : "/out/soong/.intermediates/hardware/interfaces/neuralnetworks/1.3/android.hardware.neuralnetworks@1.3_genc++_headers/gen/android/hardware/neuralnetworks/1.3/BnHwDevice.h"
  },
  {
   "function_name" : "android::hardware::neuralnetworks::V1_3::BnHwDevice::BnHwDevice",
   "linker_set_key" : "_ZN7android8hardware14neuralnetworks4V1_310BnHwDeviceC2ERKNS_2spINS2_7IDeviceEEE",
   "parameters" :
   [
    {
     "is_this_ptr" : true,
     "referenced_type" : "_ZTIPN7android8hardware14neuralnetworks4V1_310BnHwDeviceE"
    },
    {
     "referenced_type" : "_ZTIRKN7android2spINS_8hardware14neuralnetworks4V1_37IDeviceEEE"
    }
   ],
   "return_type" : "_ZTIv",
   "source_file" : "/out/soong/.intermediates/hardware/interfaces/neuralnetworks/1.3/android.hardware.neuralnetworks@1.3_genc++_headers/gen/android/hardware/neuralnetworks/1.3/BnHwDevice.h"
  },
  {
   "function_name" : "android::hardware::neuralnetworks::V1_3::BnHwDevice::~BnHwDevice",
   "linker_set_key" : "_ZN7android8hardware14neuralnetworks4V1_310BnHwDeviceD0Ev",
   "parameters" :
   [
    {
     "is_this_ptr" : true,
     "referenced_type" : "_ZTIPN7android8hardware14neuralnetworks4V1_310BnHwDeviceE"
    }
   ],
   "return_type" : "_ZTIv",
   "source_file" : "/out/soong/.intermediates/hardware/interfaces/neuralnetworks/1.3/android.hardware.neuralnetworks@1.3_genc++_headers/gen/android/hardware/neuralnetworks/1.3/BnHwDevice.h"
  },
  {
   "function_name" : "android::hardware::neuralnetworks::V1_3::BnHwDevice::~BnHwDevice",
   "linker_set_key" : "_ZN7android8hardware14neuralnetworks4V1_310BnHwDeviceD1Ev",
   "parameters" :
   [
    {
     "is_this_ptr" : true,
     "referenced_type" : "_ZTIPN7android8hardware14neuralnetworks4V1_310BnHwDeviceE"
    }
   ],
   "return_type" : "_ZTIv",
   "source_file" : "/out/soong/.intermediates/hardware/interfaces/neuralnetworks/1.3/android.hardware.neuralnetworks@1.3_genc++_headers/gen/android/hardware/neuralnetworks/1.3/BnHwDevice.h"
  },
  {
   "function_name" : "android::hardware::neuralnetworks::V1_3::BnHwDevice::~BnHwDevice",
   "linker_set_key" : "_ZN7android8hardware14neuralnetworks4V1_310BnHwDeviceD2Ev",
   "parameters" :
   [
    {
     "is_this_ptr" : true,
     "referenced_type" : "_ZTIPN7android8hardware14neuralnetworks4V1_310BnHwDeviceE"
    }
   ],
   "return_type" : "_ZTIv",
   "source_file" : "/out/soong/.intermediates/hardware/interfaces/neuralnetworks/1.3/android.hardware.neuralnetworks@1.3_genc++_headers/gen/android/hardware/neuralnetworks/1.3/BnHwDevice.h"
  },
  {
   "function_name" : "android::hardware::neuralnetworks::V1_3::BpHwBuffer::linkToDeath",
   "linker_set_key" : "_ZN7android8hardware14neuralnetworks4V1_310BpHwBuffer11linkToDeathERKNS_2spINS0_20hidl_death_recipientEEEy",
   "parameters" :
   [
    {
     "is_this_ptr" : true,
     "referenced_type" : "_ZTIPN7android8hardware14neuralnetworks4V1_310BpHwBufferE"
    },
    {
     "referenced_type" : "_ZTIRKN7android2spINS_8hardware20hidl_death_recipientEEE"
    },
    {
     "referenced_type" : "_ZTIy"
    }
   ],
   "return_type" : "_ZTIN7android8hardware6ReturnIbEE",
   "source_file" : "/out/soong/.intermediates/hardware/interfaces/neuralnetworks/1.3/android.hardware.neuralnetworks@1.3_genc++_headers/gen/android/hardware/neuralnetworks/1.3/BpHwBuffer.h"
  },
  {
   "function_name" : "android::hardware::neuralnetworks::V1_3::BpHwBuffer::_hidl_copyTo",
   "linker_set_key" : "_ZN7android8hardware14neuralnetworks4V1_310BpHwBuffer12_hidl_copyToEPNS0_10IInterfaceEPNS0_7details16HidlInstrumentorERKNS0_11hidl_memoryE",
   "parameters" :
   [
    {
     "referenced_type" : "_ZTIPN7android8hardware10IInterfaceE"
    },
    {
     "referenced_type" : "_ZTIPN7android8hardware7details16HidlInstrumentorE"
    },
    {
     "referenced_type" : "_ZTIRKN7android8hardware11hidl_memoryE"
    }
   ],
   "return_type" : "_ZTIN7android8hardware6ReturnINS0_14neuralnetworks4V1_311ErrorStatusEEE",
   "source_file" : "/out/soong/.intermediates/hardware/interfaces/neuralnetworks/1.3/android.hardware.neuralnetworks@1.3_genc++_headers/gen/android/hardware/neuralnetworks/1.3/BpHwBuffer.h"
  },
  {
   "function_name" : "android::hardware::neuralnetworks::V1_3::BpHwBuffer::getDebugInfo",
   "linker_set_key" : "_ZN7android8hardware14neuralnetworks4V1_310BpHwBuffer12getDebugInfoENSt3__18functionIFvRKNS_4hidl4base4V1_09DebugInfoEEEE",
   "parameters" :
   [
    {
     "is_this_ptr" : true,
     "referenced_type" : "_ZTIPN7android8hardware14neuralnetworks4V1_310BpHwBufferE"
    },
    {
     "referenced_type" : "_ZTINSt3__18functionIFvRKN7android4hidl4base4V1_09DebugInfoEEEE"
    }
   ],
   "return_type" : "_ZTIN7android8hardware6ReturnIvEE",
   "source_file" : "/out/soong/.intermediates/hardware/interfaces/neuralnetworks/1.3/android.hardware.neuralnetworks@1.3_genc++_headers/gen/android/hardware/neuralnetworks/1.3/BpHwBuffer.h"
  },
  {
   "function_name" : "android::hardware::neuralnetworks::V1_3::BpHwBuffer::getHashChain",
   "linker_set_key" : "_ZN7android8hardware14neuralnetworks4V1_310BpHwBuffer12getHashChainENSt3__18functionIFvRKNS0_8hidl_vecINS0_10hidl_arrayIhLj32EJEEEEEEEE",
   "parameters" :
   [
    {
     "is_this_ptr" : true,
     "referenced_type" : "_ZTIPN7android8hardware14neuralnetworks4V1_310BpHwBufferE"
    },
    {
     "referenced_type" : "_ZTINSt3__18functionIFvRKN7android8hardware8hidl_vecINS2_10hidl_arrayIhLj32EJEEEEEEEE"
    }
   ],
   "return_type" : "_ZTIN7android8hardware6ReturnIvEE",
   "source_file" : "/out/soong/.intermediates/hardware/interfaces/neuralnetworks/1.3/android.hardware.neuralnetworks@1.3_genc++_headers/gen/android/hardware/neuralnetworks/1.3/BpHwBuffer.h"
  },
  {
   "function_name" : "android::hardware::neuralnetworks::V1_3::BpHwBuffer::unlinkToDeath",
   "linker_set_key" : "_ZN7android8hardware14neuralnetworks4V1_310BpHwBuffer13unlinkToDeathERKNS_2spINS0_20hidl_death_recipientEEE",
   "parameters" :
   [
    {
     "is_this_ptr" : true,
     "referenced_type" : "_ZTIPN7android8hardware14neuralnetworks4V1_310BpHwBufferE"
    },
    {
     "referenced_type" : "_ZTIRKN7android2spINS_8hardware20hidl_death_recipientEEE"
    }
   ],
   "return_type" : "_ZTIN7android8hardware6ReturnIbEE",
   "source_file" : "/out/soong/.intermediates/hardware/interfaces/neuralnetworks/1.3/android.hardware.neuralnetworks@1.3_genc++_headers/gen/android/hardware/neuralnetworks/1.3/BpHwBuffer.h"
  },
  {
   "function_name" : "android::hardware::neuralnetworks::V1_3::BpHwBuffer::_hidl_copyFrom",
   "linker_set_key" : "_ZN7android8hardware14neuralnetworks4V1_310BpHwBuffer14_hidl_copyFromEPNS0_10IInterfaceEPNS0_7details16HidlInstrumentorERKNS0_11hidl_memoryERKNS0_8hidl_vecIjEE",
   "parameters" :
   [
    {
     "referenced_type" : "_ZTIPN7android8hardware10IInterfaceE"
    },
    {
     "referenced_type" : "_ZTIPN7android8hardware7details16HidlInstrumentorE"
    },
    {
     "referenced_type" : "_ZTIRKN7android8hardware11hidl_memoryE"
    },
    {
     "referenced_type" : "_ZTIRKN7android8hardware8hidl_vecIjEE"
    }
   ],
   "return_type" : "_ZTIN7android8hardware6ReturnINS0_14neuralnetworks4V1_311ErrorStatusEEE",
   "source_file" : "/out/soong/.intermediates/hardware/interfaces/neuralnetworks/1.3/android.hardware.neuralnetworks@1.3_genc++_headers/gen/android/hardware/neuralnetworks/1.3/BpHwBuffer.h"
  },
  {
   "function_name" : "android::hardware::neuralnetworks::V1_3::BpHwBuffer::interfaceChain",
   "linker_set_key" : "_ZN7android8hardware14neuralnetworks4V1_310BpHwBuffer14interfaceChainENSt3__18functionIFvRKNS0_8hidl_vecINS0_11hidl_stringEEEEEE",
   "parameters" :
   [
    {
     "is_this_ptr" : true,
     "referenced_type" : "_ZTIPN7android8hardware14neuralnetworks4V1_310BpHwBufferE"
    },
    {
     "referenced_type" : "_ZTINSt3__18functionIFvRKN7android8hardware8hidl_vecINS2_11hidl_stringEEEEEE"
    }
   ],
   "return_type" : "_ZTIN7android8hardware6ReturnIvEE",
   "source_file" : "/out/soong/.intermediates/hardware/interfaces/neuralnetworks/1.3/android.hardware.neuralnetworks@1.3_genc++_headers/gen/android/hardware/neuralnetworks/1.3/BpHwBuffer.h"
  },
  {
   "function_name" : "android::hardware::neuralnetworks::V1_3::BpHwBuffer::onLastStrongRef",
   "linker_set_key" : "_ZN7android8hardware14neuralnetworks4V1_310BpHwBuffer15onLastStrongRefEPKv",
   "parameters" :
   [
    {
     "is_this_ptr" : true,
     "referenced_type" : "_ZTIPN7android8hardware14neuralnetworks4V1_310BpHwBufferE"
    },
    {
     "referenced_type" : "_ZTIPKv"
    }
   ],
   "return_type" : "_ZTIv",
   "source_file" : "/out/soong/.intermediates/hardware/interfaces/neuralnetworks/1.3/android.hardware.neuralnetworks@1.3_genc++_headers/gen/android/hardware/neuralnetworks/1.3/BpHwBuffer.h"
  },
  {
   "function_name" : "android::hardware::neuralnetworks::V1_3::BpHwBuffer::interfaceDescriptor",
   "linker_set_key" : "_ZN7android8hardware14neuralnetworks4V1_310BpHwBuffer19interfaceDescriptorENSt3__18functionIFvRKNS0_11hidl_stringEEEE",
   "parameters" :
   [
    {
     "is_this_ptr" : true,
     "referenced_type" : "_ZTIPN7android8hardware14neuralnetworks4V1_310BpHwBufferE"
    },
    {
     "referenced_type" : "_ZTINSt3__18functionIFvRKN7android8hardware11hidl_stringEEEE"
    }
   ],
   "return_type" : "_ZTIN7android8hardware6ReturnIvEE",
   "source_file" : "/out/soong/.intermediates/hardware/interfaces/neuralnetworks/1.3/android.hardware.neuralnetworks@1.3_genc++_headers/gen/android/hardware/neuralnetworks/1.3/BpHwBuffer.h"
  },
  {
   "function_name" : "android::hardware::neuralnetworks::V1_3::BpHwBuffer::notifySyspropsChanged",
   "linker_set_key" : "_ZN7android8hardware14neuralnetworks4V1_310BpHwBuffer21notifySyspropsChangedEv",
   "parameters" :
   [
    {
     "is_this_ptr" : true,
     "referenced_type" : "_ZTIPN7android8hardware14neuralnetworks4V1_310BpHwBufferE"
    }
   ],
   "return_type" : "_ZTIN7android8hardware6ReturnIvEE",
   "source_file" : "/out/soong/.intermediates/hardware/interfaces/neuralnetworks/1.3/android.hardware.neuralnetworks@1.3_genc++_headers/gen/android/hardware/neuralnetworks/1.3/BpHwBuffer.h"
  },
  {
   "function_name" : "android::hardware::neuralnetworks::V1_3::BpHwBuffer::setHALInstrumentation",
   "linker_set_key" : "_ZN7android8hardware14neuralnetworks4V1_310BpHwBuffer21setHALInstrumentationEv",
   "parameters" :
   [
    {
     "is_this_ptr" : true,
     "referenced_type" : "_ZTIPN7android8hardware14neuralnetworks4V1_310BpHwBufferE"
    }
   ],
   "return_type" : "_ZTIN7android8hardware6ReturnIvEE",
   "source_file" : "/out/soong/.intermediates/hardware/interfaces/neuralnetworks/1.3/android.hardware.neuralnetworks@1.3_genc++_headers/gen/android/hardware/neuralnetworks/1.3/BpHwBuffer.h"
  },
  {
   "function_name" : "android::hardware::neuralnetworks::V1_3::BpHwBuffer::ping",
   "linker_set_key" : "_ZN7android8hardware14neuralnetworks4V1_310BpHwBuffer4pingEv",
   "parameters" :
   [
    {
     "is_this_ptr" : true,
     "referenced_type" : "_ZTIPN7android8hardware14neuralnetworks4V1_310BpHwBufferE"
    }
   ],
   "return_type" : "_ZTIN7android8hardware6ReturnIvEE",
   "source_file" : "/out/soong/.intermediates/hardware/interfaces/neuralnetworks/1.3/android.hardware.neuralnetworks@1.3_genc++_headers/gen/android/hardware/neuralnetworks/1.3/BpHwBuffer.h"
  },
  {
   "function_name" : "android::hardware::neuralnetworks::V1_3::BpHwBuffer::debug",
   "linker_set_key" : "_ZN7android8hardware14neuralnetworks4V1_310BpHwBuffer5debugERKNS0_11hidl_handleERKNS0_8hidl_vecINS0_11hidl_stringEEE",
   "parameters" :
   [
    {
     "is_this_ptr" : true,
     "referenced_type" : "_ZTIPN7android8hardware14neuralnetworks4V1_310BpHwBufferE"
    },
    {
     "referenced_type" : "_ZTIRKN7android8hardware11hidl_handleE"
    },
    {
     "referenced_type" : "_ZTIRKN7android8hardware8hidl_vecINS0_11hidl_stringEEE"
    }
   ],
   "return_type" : "_ZTIN7android8hardware6ReturnIvEE",
   "source_file" : "/out/soong/.intermediates/hardware/interfaces/neuralnetworks/1.3/android.hardware.neuralnetworks@1.3_genc++_headers/gen/android/hardware/neuralnetworks/1.3/BpHwBuffer.h"
  },
  {
   "function_name" : "android::hardware::neuralnetworks::V1_3::BpHwBuffer::copyTo",
   "linker_set_key" : "_ZN7android8hardware14neuralnetworks4V1_310BpHwBuffer6copyToERKNS0_11hidl_memoryE",
   "parameters" :
   [
    {
     "is_this_ptr" : true,
     "referenced_type" : "_ZTIPN7android8hardware14neuralnetworks4V1_310BpHwBufferE"
    },
    {
     "referenced_type" : "_ZTIRKN7android8hardware11hidl_memoryE"
    }
   ],
   "return_type" : "_ZTIN7android8hardware6ReturnINS0_14neuralnetworks4V1_311ErrorStatusEEE",
   "source_file" : "/out/soong/.intermediates/hardware/interfaces/neuralnetworks/1.3/android.hardware.neuralnetworks@1.3_genc++_headers/gen/android/hardware/neuralnetworks/1.3/BpHwBuffer.h"
  },
  {
   "function_name" : "android::hardware::neuralnetworks::V1_3::BpHwBuffer::copyFrom",
   "linker_set_key" : "_ZN7android8hardware14neuralnetworks4V1_310BpHwBuffer8copyFromERKNS0_11hidl_memoryERKNS0_8hidl_vecIjEE",
   "parameters" :
   [
    {
     "is_this_ptr" : true,
     "referenced_type" : "_ZTIPN7android8hardware14neuralnetworks4V1_310BpHwBufferE"
    },
    {
     "referenced_type" : "_ZTIRKN7android8hardware11hidl_memoryE"
    },
    {
     "referenced_type" : "_ZTIRKN7android8hardware8hidl_vecIjEE"
    }
   ],
   "return_type" : "_ZTIN7android8hardware6ReturnINS0_14neuralnetworks4V1_311ErrorStatusEEE",
   "source_file" : "/out/soong/.intermediates/hardware/interfaces/neuralnetworks/1.3/android.hardware.neuralnetworks@1.3_genc++_headers/gen/android/hardware/neuralnetworks/1.3/BpHwBuffer.h"
  },
  {
   "function_name" : "android::hardware::neuralnetworks::V1_3::BpHwBuffer::BpHwBuffer",
   "linker_set_key" : "_ZN7android8hardware14neuralnetworks4V1_310BpHwBufferC1ERKNS_2spINS0_7IBinderEEE",
   "parameters" :
   [
    {
     "is_this_ptr" : true,
     "referenced_type" : "_ZTIPN7android8hardware14neuralnetworks4V1_310BpHwBufferE"
    },
    {
     "referenced_type" : "_ZTIRKN7android2spINS_8hardware7IBinderEEE"
    }
   ],
   "return_type" : "_ZTIv",
   "source_file" : "/out/soong/.intermediates/hardware/interfaces/neuralnetworks/1.3/android.hardware.neuralnetworks@1.3_genc++_headers/gen/android/hardware/neuralnetworks/1.3/BpHwBuffer.h"
  },
  {
   "function_name" : "android::hardware::neuralnetworks::V1_3::BpHwBuffer::BpHwBuffer",
   "linker_set_key" : "_ZN7android8hardware14neuralnetworks4V1_310BpHwBufferC2ERKNS_2spINS0_7IBinderEEE",
   "parameters" :
   [
    {
     "is_this_ptr" : true,
     "referenced_type" : "_ZTIPN7android8hardware14neuralnetworks4V1_310BpHwBufferE"
    },
    {
     "referenced_type" : "_ZTIRKN7android2spINS_8hardware7IBinderEEE"
    }
   ],
   "return_type" : "_ZTIv",
   "source_file" : "/out/soong/.intermediates/hardware/interfaces/neuralnetworks/1.3/android.hardware.neuralnetworks@1.3_genc++_headers/gen/android/hardware/neuralnetworks/1.3/BpHwBuffer.h"
  },
  {
   "function_name" : "android::hardware::neuralnetworks::V1_3::BpHwDevice::linkToDeath",
   "linker_set_key" : "_ZN7android8hardware14neuralnetworks4V1_310BpHwDevice11linkToDeathERKNS_2spINS0_20hidl_death_recipientEEEy",
   "parameters" :
   [
    {
     "is_this_ptr" : true,
     "referenced_type" : "_ZTIPN7android8hardware14neuralnetworks4V1_310BpHwDeviceE"
    },
    {
     "referenced_type" : "_ZTIRKN7android2spINS_8hardware20hidl_death_recipientEEE"
    },
    {
     "referenced_type" : "_ZTIy"
    }
   ],
   "return_type" : "_ZTIN7android8hardware6ReturnIbEE",
   "source_file" : "/out/soong/.intermediates/hardware/interfaces/neuralnetworks/1.3/android.hardware.neuralnetworks@1.3_genc++_headers/gen/android/hardware/neuralnetworks/1.3/BpHwDevice.h"
  },
  {
   "function_name" : "android::hardware::neuralnetworks::V1_3::BpHwDevice::getDebugInfo",
   "linker_set_key" : "_ZN7android8hardware14neuralnetworks4V1_310BpHwDevice12getDebugInfoENSt3__18functionIFvRKNS_4hidl4base4V1_09DebugInfoEEEE",
   "parameters" :
   [
    {
     "is_this_ptr" : true,
     "referenced_type" : "_ZTIPN7android8hardware14neuralnetworks4V1_310BpHwDeviceE"
    },
    {
     "referenced_type" : "_ZTINSt3__18functionIFvRKN7android4hidl4base4V1_09DebugInfoEEEE"
    }
   ],
   "return_type" : "_ZTIN7android8hardware6ReturnIvEE",
   "source_file" : "/out/soong/.intermediates/hardware/interfaces/neuralnetworks/1.3/android.hardware.neuralnetworks@1.3_genc++_headers/gen/android/hardware/neuralnetworks/1.3/BpHwDevice.h"
  },
  {
   "function_name" : "android::hardware::neuralnetworks::V1_3::BpHwDevice::getHashChain",
   "linker_set_key" : "_ZN7android8hardware14neuralnetworks4V1_310BpHwDevice12getHashChainENSt3__18functionIFvRKNS0_8hidl_vecINS0_10hidl_arrayIhLj32EJEEEEEEEE",
   "parameters" :
   [
    {
     "is_this_ptr" : true,
     "referenced_type" : "_ZTIPN7android8hardware14neuralnetworks4V1_310BpHwDeviceE"
    },
    {
     "referenced_type" : "_ZTINSt3__18functionIFvRKN7android8hardware8hidl_vecINS2_10hidl_arrayIhLj32EJEEEEEEEE"
    }
   ],
   "return_type" : "_ZTIN7android8hardware6ReturnIvEE",
   "source_file" : "/out/soong/.intermediates/hardware/interfaces/neuralnetworks/1.3/android.hardware.neuralnetworks@1.3_genc++_headers/gen/android/hardware/neuralnetworks/1.3/BpHwDevice.h"
  },
  {
   "function_name" : "android::hardware::neuralnetworks::V1_3::BpHwDevice::prepareModel",
   "linker_set_key" : "_ZN7android8hardware14neuralnetworks4V1_310BpHwDevice12prepareModelERKNS1_4V1_05ModelERKNS_2spINS4_22IPreparedModelCallbackEEE",
   "parameters" :
   [
    {
     "is_this_ptr" : true,
     "referenced_type" : "_ZTIPN7android8hardware14neuralnetworks4V1_310BpHwDeviceE"
    },
    {
     "referenced_type" : "_ZTIRKN7android8hardware14neuralnetworks4V1_05ModelE"
    },
    {
     "referenced_type" : "_ZTIRKN7android2spINS_8hardware14neuralnetworks4V1_022IPreparedModelCallbackEEE"
    }
   ],
   "return_type" : "_ZTIN7android8hardware6ReturnINS0_14neuralnetworks4V1_011ErrorStatusEEE",
   "source_file" : "/out/soong/.intermediates/hardware/interfaces/neuralnetworks/1.3/android.hardware.neuralnetworks@1.3_genc++_headers/gen/android/hardware/neuralnetworks/1.3/BpHwDevice.h"
  },
  {
   "function_name" : "android::hardware::neuralnetworks::V1_3::BpHwDevice::unlinkToDeath",
   "linker_set_key" : "_ZN7android8hardware14neuralnetworks4V1_310BpHwDevice13unlinkToDeathERKNS_2spINS0_20hidl_death_recipientEEE",
   "parameters" :
   [
    {
     "is_this_ptr" : true,
     "referenced_type" : "_ZTIPN7android8hardware14neuralnetworks4V1_310BpHwDeviceE"
    },
    {
     "referenced_type" : "_ZTIRKN7android2spINS_8hardware20hidl_death_recipientEEE"
    }
   ],
   "return_type" : "_ZTIN7android8hardware6ReturnIbEE",
   "source_file" : "/out/soong/.intermediates/hardware/interfaces/neuralnetworks/1.3/android.hardware.neuralnetworks@1.3_genc++_headers/gen/android/hardware/neuralnetworks/1.3/BpHwDevice.h"
  },
  {
   "function_name" : "android::hardware::neuralnetworks::V1_3::BpHwDevice::_hidl_allocate",
   "linker_set_key" : "_ZN7android8hardware14neuralnetworks4V1_310BpHwDevice14_hidl_allocateEPNS0_10IInterfaceEPNS0_7details16HidlInstrumentorERKNS2_10BufferDescERKNS0_8hidl_vecINS_2spINS2_14IPreparedModelEEEEERKNSC_INS2_10BufferRoleEEESM_NSt3__18functionIFvNS2_11ErrorStatusERKNSD_INS2_7IBufferEEEjEEE",
   "parameters" :
   [
    {
     "referenced_type" : "_ZTIPN7android8hardware10IInterfaceE"
    },
    {
     "referenced_type" : "_ZTIPN7android8hardware7details16HidlInstrumentorE"
    },
    {
     "referenced_type" : "_ZTIRKN7android8hardware14neuralnetworks4V1_310BufferDescE"
    },
    {
     "referenced_type" : "_ZTIRKN7android8hardware8hidl_vecINS_2spINS0_14neuralnetworks4V1_314IPreparedModelEEEEE"
    },
    {
     "referenced_type" : "_ZTIRKN7android8hardware8hidl_vecINS0_14neuralnetworks4V1_310BufferRoleEEE"
    },
    {
     "referenced_type" : "_ZTIRKN7android8hardware8hidl_vecINS0_14neuralnetworks4V1_310BufferRoleEEE"
    },
    {
     "referenced_type" : "_ZTINSt3__18functionIFvN7android8hardware14neuralnetworks4V1_311ErrorStatusERKNS1_2spINS4_7IBufferEEEjEEE"
    }
   ],
   "return_type" : "_ZTIN7android8hardware6ReturnIvEE",
   "source_file" : "/out/soong/.intermediates/hardware/interfaces/neuralnetworks/1.3/android.hardware.neuralnetworks@1.3_genc++_headers/gen/android/hardware/neuralnetworks/1.3/BpHwDevice.h"
  },
  {
   "function_name" : "android::hardware::neuralnetworks::V1_3::BpHwDevice::interfaceChain",
   "linker_set_key" : "_ZN7android8hardware14neuralnetworks4V1_310BpHwDevice14interfaceChainENSt3__18functionIFvRKNS0_8hidl_vecINS0_11hidl_stringEEEEEE",
   "parameters" :
   [
    {
     "is_this_ptr" : true,
     "referenced_type" : "_ZTIPN7android8hardware14neuralnetworks4V1_310BpHwDeviceE"
    },
    {
     "referenced_type" : "_ZTINSt3__18functionIFvRKN7android8hardware8hidl_vecINS2_11hidl_stringEEEEEE"
    }
   ],
   "return_type" : "_ZTIN7android8hardware6ReturnIvEE",
   "source_file" : "/out/soong/.intermediates/hardware/interfaces/neuralnetworks/1.3/android.hardware.neuralnetworks@1.3_genc++_headers/gen/android/hardware/neuralnetworks/1.3/BpHwDevice.h"
  },
  {
   "function_name" : "android::hardware::neuralnetworks::V1_3::BpHwDevice::getCapabilities",
   "linker_set_key" : "_ZN7android8hardware14neuralnetworks4V1_310BpHwDevice15getCapabilitiesENSt3__18functionIFvNS1_4V1_011ErrorStatusERKNS6_12CapabilitiesEEEE",
   "parameters" :
   [
    {
     "is_this_ptr" : true,
     "referenced_type" : "_ZTIPN7android8hardware14neuralnetworks4V1_310BpHwDeviceE"
    },
    {
     "referenced_type" : "_ZTINSt3__18functionIFvN7android8hardware14neuralnetworks4V1_011ErrorStatusERKNS4_12CapabilitiesEEEE"
    }
   ],
   "return_type" : "_ZTIN7android8hardware6ReturnIvEE",
   "source_file" : "/out/soong/.intermediates/hardware/interfaces/neuralnetworks/1.3/android.hardware.neuralnetworks@1.3_genc++_headers/gen/android/hardware/neuralnetworks/1.3/BpHwDevice.h"
  },
  {
   "function_name" : "android::hardware::neuralnetworks::V1_3::BpHwDevice::onLastStrongRef",
   "linker_set_key" : "_ZN7android8hardware14neuralnetworks4V1_310BpHwDevice15onLastStrongRefEPKv",
   "parameters" :
   [
    {
     "is_this_ptr" : true,
     "referenced_type" : "_ZTIPN7android8hardware14neuralnetworks4V1_310BpHwDeviceE"
    },
    {
     "referenced_type" : "_ZTIPKv"
    }
   ],
   "return_type" : "_ZTIv",
   "source_file" : "/out/soong/.intermediates/hardware/interfaces/neuralnetworks/1.3/android.hardware.neuralnetworks@1.3_genc++_headers/gen/android/hardware/neuralnetworks/1.3/BpHwDevice.h"
  },
  {
   "function_name" : "android::hardware::neuralnetworks::V1_3::BpHwDevice::getVersionString",
   "linker_set_key" : "_ZN7android8hardware14neuralnetworks4V1_310BpHwDevice16getVersionStringENSt3__18functionIFvNS1_4V1_011ErrorStatusERKNS0_11hidl_stringEEEE",
   "parameters" :
   [
    {
     "is_this_ptr" : true,
     "referenced_type" : "_ZTIPN7android8hardware14neuralnetworks4V1_310BpHwDeviceE"
    },
    {
     "referenced_type" : "_ZTINSt3__18functionIFvN7android8hardware14neuralnetworks4V1_011ErrorStatusERKNS2_11hidl_stringEEEE"
    }
   ],
   "return_type" : "_ZTIN7android8hardware6ReturnIvEE",
   "source_file" : "/out/soong/.intermediates/hardware/interfaces/neuralnetworks/1.3/android.hardware.neuralnetworks@1.3_genc++_headers/gen/android/hardware/neuralnetworks/1.3/BpHwDevice.h"
  },
  {
   "function_name" : "android::hardware::neuralnetworks::V1_3::BpHwDevice::prepareModel_1_1",
   "linker_set_key" : "_ZN7android8hardware14neuralnetworks4V1_310BpHwDevice16prepareModel_1_1ERKNS1_4V1_15ModelENS4_19ExecutionPreferenceERKNS_2spINS1_4V1_022IPreparedModelCallbackEEE",
   "parameters" :
   [
    {
     "is_this_ptr" : true,
     "referenced_type" : "_ZTIPN7android8hardware14neuralnetworks4V1_310BpHwDeviceE"
    },
    {
     "referenced_type" : "_ZTIRKN7android8hardware14neuralnetworks4V1_15ModelE"
    },
    {
     "referenced_type" : "_ZTIN7android8hardware14neuralnetworks4V1_119ExecutionPreferenceE"
    },
    {
     "referenced_type" : "_ZTIRKN7android2spINS_8hardware14neuralnetworks4V1_022IPreparedModelCallbackEEE"
    }
   ],
   "return_type" : "_ZTIN7android8hardware6ReturnINS0_14neuralnetworks4V1_011ErrorStatusEEE",
   "source_file" : "/out/soong/.intermediates/hardware/interfaces/neuralnetworks/1.3/android.hardware.neuralnetworks@1.3_genc++_headers/gen/android/hardware/neuralnetworks/1.3/BpHwDevice.h"
  },
  {
   "function_name" : "android::hardware::neuralnetworks::V1_3::BpHwDevice::prepareModel_1_2",
   "linker_set_key" : "_ZN7android8hardware14neuralnetworks4V1_310BpHwDevice16prepareModel_1_2ERKNS1_4V1_25ModelENS1_4V1_119ExecutionPreferenceERKNS0_8hidl_vecINS0_11hidl_handleEEESE_RKNS0_10hidl_arrayIhLj32EJEEERKNS_2spINS4_22IPreparedModelCallbackEEE",
   "parameters" :
   [
    {
     "is_this_ptr" : true,
     "referenced_type" : "_ZTIPN7android8hardware14neuralnetworks4V1_310BpHwDeviceE"
    },
    {
     "referenced_type" : "_ZTIRKN7android8hardware14neuralnetworks4V1_25ModelE"
    },
    {
     "referenced_type" : "_ZTIN7android8hardware14neuralnetworks4V1_119ExecutionPreferenceE"
    },
    {
     "referenced_type" : "_ZTIRKN7android8hardware8hidl_vecINS0_11hidl_handleEEE"
    },
    {
     "referenced_type" : "_ZTIRKN7android8hardware8hidl_vecINS0_11hidl_handleEEE"
    },
    {
     "referenced_type" : "_ZTIRKN7android8hardware10hidl_arrayIhLj32EJEEE"
    },
    {
     "referenced_type" : "_ZTIRKN7android2spINS_8hardware14neuralnetworks4V1_222IPreparedModelCallbackEEE"
    }
   ],
   "return_type" : "_ZTIN7android8hardware6ReturnINS0_14neuralnetworks4V1_011ErrorStatusEEE",
   "source_file" : "/out/soong/.intermediates/hardware/interfaces/neuralnetworks/1.3/android.hardware.neuralnetworks@1.3_genc++_headers/gen/android/hardware/neuralnetworks/1.3/BpHwDevice.h"
  },
  {
   "function_name" : "android::hardware::neuralnetworks::V1_3::BpHwDevice::prepareModel_1_3",
   "linker_set_key" : "_ZN7android8hardware14neuralnetworks4V1_310BpHwDevice16prepareModel_1_3ERKNS2_5ModelENS1_4V1_119ExecutionPreferenceENS2_8PriorityERKNS2_17OptionalTimePointERKNS0_8hidl_vecINS0_11hidl_handleEEESH_RKNS0_10hidl_arrayIhLj32EJEEERKNS_2spINS2_22IPreparedModelCallbackEEE",
   "parameters" :
   [
    {
     "is_this_ptr" : true,
     "referenced_type" : "_ZTIPN7android8hardware14neuralnetworks4V1_310BpHwDeviceE"
    },
    {
     "referenced_type" : "_ZTIRKN7android8hardware14neuralnetworks4V1_35ModelE"
    },
    {
     "referenced_type" : "_ZTIN7android8hardware14neuralnetworks4V1_119ExecutionPreferenceE"
    },
    {
     "referenced_type" : "_ZTIN7android8hardware14neuralnetworks4V1_38PriorityE"
    },
    {
     "referenced_type" : "_ZTIRKN7android8hardware14neuralnetworks4V1_317OptionalTimePointE"
    },
    {
     "referenced_type" : "_ZTIRKN7android8hardware8hidl_vecINS0_11hidl_handleEEE"
    },
    {
     "referenced_type" : "_ZTIRKN7android8hardware8hidl_vecINS0_11hidl_handleEEE"
    },
    {
     "referenced_type" : "_ZTIRKN7android8hardware10hidl_arrayIhLj32EJEEE"
    },
    {
     "referenced_type" : "_ZTIRKN7android2spINS_8hardware14neuralnetworks4V1_322IPreparedModelCallbackEEE"
    }
   ],
   "return_type" : "_ZTIN7android8hardware6ReturnINS0_14neuralnetworks4V1_311ErrorStatusEEE",
   "source_file" : "/out/soong/.intermediates/hardware/interfaces/neuralnetworks/1.3/android.hardware.neuralnetworks@1.3_genc++_headers/gen/android/hardware/neuralnetworks/1.3/BpHwDevice.h"
  },
  {
   "function_name" : "android::hardware::neuralnetworks::V1_3::BpHwDevice::getCapabilities_1_1",
   "linker_set_key" : "_ZN7android8hardware14neuralnetworks4V1_310BpHwDevice19getCapabilities_1_1ENSt3__18functionIFvNS1_4V1_011ErrorStatusERKNS1_4V1_112CapabilitiesEEEE",
   "parameters" :
   [
    {
     "is_this_ptr" : true,
     "referenced_type" : "_ZTIPN7android8hardware14neuralnetworks4V1_310BpHwDeviceE"
    },
    {
     "referenced_type" : "_ZTINSt3__18functionIFvN7android8hardware14neuralnetworks4V1_011ErrorStatusERKNS3_4V1_112CapabilitiesEEEE"
    }
   ],
   "return_type" : "_ZTIN7android8hardware6ReturnIvEE",
   "source_file" : "/out/soong/.intermediates/hardware/interfaces/neuralnetworks/1.3/android.hardware.neuralnetworks@1.3_genc++_headers/gen/android/hardware/neuralnetworks/1.3/BpHwDevice.h"
  },
  {
   "function_name" : "android::hardware::neuralnetworks::V1_3::BpHwDevice::getCapabilities_1_2",
   "linker_set_key" : "_ZN7android8hardware14neuralnetworks4V1_310BpHwDevice19getCapabilities_1_2ENSt3__18functionIFvNS1_4V1_011ErrorStatusERKNS1_4V1_212CapabilitiesEEEE",
   "parameters" :
   [
    {
     "is_this_ptr" : true,
     "referenced_type" : "_ZTIPN7android8hardware14neuralnetworks4V1_310BpHwDeviceE"
    },
    {
     "referenced_type" : "_ZTINSt3__18functionIFvN7android8hardware14neuralnetworks4V1_011ErrorStatusERKNS3_4V1_212CapabilitiesEEEE"
    }
   ],
   "return_type" : "_ZTIN7android8hardware6ReturnIvEE",
   "source_file" : "/out/soong/.intermediates/hardware/interfaces/neuralnetworks/1.3/android.hardware.neuralnetworks@1.3_genc++_headers/gen/android/hardware/neuralnetworks/1.3/BpHwDevice.h"
  },
  {
   "function_name" : "android::hardware::neuralnetworks::V1_3::BpHwDevice::getCapabilities_1_3",
   "linker_set_key" : "_ZN7android8hardware14neuralnetworks4V1_310BpHwDevice19getCapabilities_1_3ENSt3__18functionIFvNS2_11ErrorStatusERKNS2_12CapabilitiesEEEE",
   "parameters" :
   [
    {
     "is_this_ptr" : true,
     "referenced_type" : "_ZTIPN7android8hardware14neuralnetworks4V1_310BpHwDeviceE"
    },
    {
     "referenced_type" : "_ZTINSt3__18functionIFvN7android8hardware14neuralnetworks4V1_311ErrorStatusERKNS4_12CapabilitiesEEEE"
    }
   ],
   "return_type" : "_ZTIN7android8hardware6ReturnIvEE",
   "source_file" : "/out/soong/.intermediates/hardware/interfaces/neuralnetworks/1.3/android.hardware.neuralnetworks@1.3_genc++_headers/gen/android/hardware/neuralnetworks/1.3/BpHwDevice.h"
  },
  {
   "function_name" : "android::hardware::neuralnetworks::V1_3::BpHwDevice::interfaceDescriptor",
   "linker_set_key" : "_ZN7android8hardware14neuralnetworks4V1_310BpHwDevice19interfaceDescriptorENSt3__18functionIFvRKNS0_11hidl_stringEEEE",
   "parameters" :
   [
    {
     "is_this_ptr" : true,
     "referenced_type" : "_ZTIPN7android8hardware14neuralnetworks4V1_310BpHwDeviceE"
    },
    {
     "referenced_type" : "_ZTINSt3__18functionIFvRKN7android8hardware11hidl_stringEEEE"
    }
   ],
   "return_type" : "_ZTIN7android8hardware6ReturnIvEE",
   "source_file" : "/out/soong/.intermediates/hardware/interfaces/neuralnetworks/1.3/android.hardware.neuralnetworks@1.3_genc++_headers/gen/android/hardware/neuralnetworks/1.3/BpHwDevice.h"
  },
  {
   "function_name" : "android::hardware::neuralnetworks::V1_3::BpHwDevice::notifySyspropsChanged",
   "linker_set_key" : "_ZN7android8hardware14neuralnetworks4V1_310BpHwDevice21notifySyspropsChangedEv",
   "parameters" :
   [
    {
     "is_this_ptr" : true,
     "referenced_type" : "_ZTIPN7android8hardware14neuralnetworks4V1_310BpHwDeviceE"
    }
   ],
   "return_type" : "_ZTIN7android8hardware6ReturnIvEE",
   "source_file" : "/out/soong/.intermediates/hardware/interfaces/neuralnetworks/1.3/android.hardware.neuralnetworks@1.3_genc++_headers/gen/android/hardware/neuralnetworks/1.3/BpHwDevice.h"
  },
  {
   "function_name" : "android::hardware::neuralnetworks::V1_3::BpHwDevice::prepareModelFromCache",
   "linker_set_key" : "_ZN7android8hardware14neuralnetworks4V1_310BpHwDevice21prepareModelFromCacheERKNS0_8hidl_vecINS0_11hidl_handleEEES8_RKNS0_10hidl_arrayIhLj32EJEEERKNS_2spINS1_4V1_222IPreparedModelCallbackEEE",
   "parameters" :
   [
    {
     "is_this_ptr" : true,
     "referenced_type" : "_ZTIPN7android8hardware14neuralnetworks4V1_310BpHwDeviceE"
    },
    {
     "referenced_type" : "_ZTIRKN7android8hardware8hidl_vecINS0_11hidl_handleEEE"
    },
    {
     "referenced_type" : "_ZTIRKN7android8hardware8hidl_vecINS0_11hidl_handleEEE"
    },
    {
     "referenced_type" : "_ZTIRKN7android8hardware10hidl_arrayIhLj32EJEEE"
    },
    {
     "referenced_type" : "_ZTIRKN7android2spINS_8hardware14neuralnetworks4V1_222IPreparedModelCallbackEEE"
    }
   ],
   "return_type" : "_ZTIN7android8hardware6ReturnINS0_14neuralnetworks4V1_011ErrorStatusEEE",
   "source_file" : "/out/soong/.intermediates/hardware/interfaces/neuralnetworks/1.3/android.hardware.neuralnetworks@1.3_genc++_headers/gen/android/hardware/neuralnetworks/1.3/BpHwDevice.h"
  },
  {
   "function_name" : "android::hardware::neuralnetworks::V1_3::BpHwDevice::setHALInstrumentation",
   "linker_set_key" : "_ZN7android8hardware14neuralnetworks4V1_310BpHwDevice21setHALInstrumentationEv",
   "parameters" :
   [
    {
     "is_this_ptr" : true,
     "referenced_type" : "_ZTIPN7android8hardware14neuralnetworks4V1_310BpHwDeviceE"
    }
   ],
   "return_type" : "_ZTIN7android8hardware6ReturnIvEE",
   "source_file" : "/out/soong/.intermediates/hardware/interfaces/neuralnetworks/1.3/android.hardware.neuralnetworks@1.3_genc++_headers/gen/android/hardware/neuralnetworks/1.3/BpHwDevice.h"
  },
  {
   "function_name" : "android::hardware::neuralnetworks::V1_3::BpHwDevice::_hidl_prepareModel_1_3",
   "linker_set_key" : "_ZN7android8hardware14neuralnetworks4V1_310BpHwDevice22_hidl_prepareModel_1_3EPNS0_10IInterfaceEPNS0_7details16HidlInstrumentorERKNS2_5ModelENS1_4V1_119ExecutionPreferenceENS2_8PriorityERKNS2_17OptionalTimePointERKNS0_8hidl_vecINS0_11hidl_handleEEESM_RKNS0_10hidl_arrayIhLj32EJEEERKNS_2spINS2_22IPreparedModelCallbackEEE",
   "parameters" :
   [
    {
     "referenced_type" : "_ZTIPN7android8hardware10IInterfaceE"
    },
    {
     "referenced_type" : "_ZTIPN7android8hardware7details16HidlInstrumentorE"
    },
    {
     "referenced_type" : "_ZTIRKN7android8hardware14neuralnetworks4V1_35ModelE"
    },
    {
     "referenced_type" : "_ZTIN7android8hardware14neuralnetworks4V1_119ExecutionPreferenceE"
    },
    {
     "referenced_type" : "_ZTIN7android8hardware14neuralnetworks4V1_38PriorityE"
    },
    {
     "referenced_type" : "_ZTIRKN7android8hardware14neuralnetworks4V1_317OptionalTimePointE"
    },
    {
     "referenced_type" : "_ZTIRKN7android8hardware8hidl_vecINS0_11hidl_handleEEE"
    },
    {
     "referenced_type" : "_ZTIRKN7android8hardware8hidl_vecINS0_11hidl_handleEEE"
    },
    {
     "referenced_type" : "_ZTIRKN7android8hardware10hidl_arrayIhLj32EJEEE"
    },
    {
     "referenced_type" : "_ZTIRKN7android2spINS_8hardware14neuralnetworks4V1_322IPreparedModelCallbackEEE"
    }
   ],
   "return_type" : "_ZTIN7android8hardware6ReturnINS0_14neuralnetworks4V1_311ErrorStatusEEE",
   "source_file" : "/out/soong/.intermediates/hardware/interfaces/neuralnetworks/1.3/android.hardware.neuralnetworks@1.3_genc++_headers/gen/android/hardware/neuralnetworks/1.3/BpHwDevice.h"
  },
  {
   "function_name" : "android::hardware::neuralnetworks::V1_3::BpHwDevice::getSupportedExtensions",
   "linker_set_key" : "_ZN7android8hardware14neuralnetworks4V1_310BpHwDevice22getSupportedExtensionsENSt3__18functionIFvNS1_4V1_011ErrorStatusERKNS0_8hidl_vecINS1_4V1_29ExtensionEEEEEE",
   "parameters" :
   [
    {
     "is_this_ptr" : true,
     "referenced_type" : "_ZTIPN7android8hardware14neuralnetworks4V1_310BpHwDeviceE"
    },
    {
     "referenced_type" : "_ZTINSt3__18functionIFvN7android8hardware14neuralnetworks4V1_011ErrorStatusERKNS2_8hidl_vecINS3_4V1_29ExtensionEEEEEE"
    }
   ],
   "return_type" : "_ZTIN7android8hardware6ReturnIvEE",
   "source_file" : "/out/soong/.intermediates/hardware/interfaces/neuralnetworks/1.3/android.hardware.neuralnetworks@1.3_genc++_headers/gen/android/hardware/neuralnetworks/1.3/BpHwDevice.h"
  },
  {
   "function_name" : "android::hardware::neuralnetworks::V1_3::BpHwDevice::getSupportedOperations",
   "linker_set_key" : "_ZN7android8hardware14neuralnetworks4V1_310BpHwDevice22getSupportedOperationsERKNS1_4V1_05ModelENSt3__18functionIFvNS4_11ErrorStatusERKNS0_8hidl_vecIbEEEEE",
   "parameters" :
   [
    {
     "is_this_ptr" : true,
     "referenced_type" : "_ZTIPN7android8hardware14neuralnetworks4V1_310BpHwDeviceE"
    },
    {
     "referenced_type" : "_ZTIRKN7android8hardware14neuralnetworks4V1_05ModelE"
    },
    {
     "referenced_type" : "_ZTINSt3__18functionIFvN7android8hardware14neuralnetworks4V1_011ErrorStatusERKNS2_8hidl_vecIbEEEEE"
    }
   ],
   "return_type" : "_ZTIN7android8hardware6ReturnIvEE",
   "source_file" : "/out/soong/.intermediates/hardware/interfaces/neuralnetworks/1.3/android.hardware.neuralnetworks@1.3_genc++_headers/gen/android/hardware/neuralnetworks/1.3/BpHwDevice.h"
  },
  {
   "function_name" : "android::hardware::neuralnetworks::V1_3::BpHwDevice::_hidl_getCapabilities_1_3",
   "linker_set_key" : "_ZN7android8hardware14neuralnetworks4V1_310BpHwDevice25_hidl_getCapabilities_1_3EPNS0_10IInterfaceEPNS0_7details16HidlInstrumentorENSt3__18functionIFvNS2_11ErrorStatusERKNS2_12CapabilitiesEEEE",
   "parameters" :
   [
    {
     "referenced_type" : "_ZTIPN7android8hardware10IInterfaceE"
    },
    {
     "referenced_type" : "_ZTIPN7android8hardware7details16HidlInstrumentorE"
    },
    {
     "referenced_type" : "_ZTINSt3__18functionIFvN7android8hardware14neuralnetworks4V1_311ErrorStatusERKNS4_12CapabilitiesEEEE"
    }
   ],
   "return_type" : "_ZTIN7android8hardware6ReturnIvEE",
   "source_file" : "/out/soong/.intermediates/hardware/interfaces/neuralnetworks/1.3/android.hardware.neuralnetworks@1.3_genc++_headers/gen/android/hardware/neuralnetworks/1.3/BpHwDevice.h"
  },
  {
   "function_name" : "android::hardware::neuralnetworks::V1_3::BpHwDevice::prepareModelFromCache_1_3",
   "linker_set_key" : "_ZN7android8hardware14neuralnetworks4V1_310BpHwDevice25prepareModelFromCache_1_3ERKNS2_17OptionalTimePointERKNS0_8hidl_vecINS0_11hidl_handleEEESB_RKNS0_10hidl_arrayIhLj32EJEEERKNS_2spINS2_22IPreparedModelCallbackEEE",
   "parameters" :
   [
    {
     "is_this_ptr" : true,
     "referenced_type" : "_ZTIPN7android8hardware14neuralnetworks4V1_310BpHwDeviceE"
    },
    {
     "referenced_type" : "_ZTIRKN7android8hardware14neuralnetworks4V1_317OptionalTimePointE"
    },
    {
     "referenced_type" : "_ZTIRKN7android8hardware8hidl_vecINS0_11hidl_handleEEE"
    },
    {
     "referenced_type" : "_ZTIRKN7android8hardware8hidl_vecINS0_11hidl_handleEEE"
    },
    {
     "referenced_type" : "_ZTIRKN7android8hardware10hidl_arrayIhLj32EJEEE"
    },
    {
     "referenced_type" : "_ZTIRKN7android2spINS_8hardware14neuralnetworks4V1_322IPreparedModelCallbackEEE"
    }
   ],
   "return_type" : "_ZTIN7android8hardware6ReturnINS0_14neuralnetworks4V1_311ErrorStatusEEE",
   "source_file" : "/out/soong/.intermediates/hardware/interfaces/neuralnetworks/1.3/android.hardware.neuralnetworks@1.3_genc++_headers/gen/android/hardware/neuralnetworks/1.3/BpHwDevice.h"
  },
  {
   "function_name" : "android::hardware::neuralnetworks::V1_3::BpHwDevice::getSupportedOperations_1_1",
   "linker_set_key" : "_ZN7android8hardware14neuralnetworks4V1_310BpHwDevice26getSupportedOperations_1_1ERKNS1_4V1_15ModelENSt3__18functionIFvNS1_4V1_011ErrorStatusERKNS0_8hidl_vecIbEEEEE",
   "parameters" :
   [
    {
     "is_this_ptr" : true,
     "referenced_type" : "_ZTIPN7android8hardware14neuralnetworks4V1_310BpHwDeviceE"
    },
    {
     "referenced_type" : "_ZTIRKN7android8hardware14neuralnetworks4V1_15ModelE"
    },
    {
     "referenced_type" : "_ZTINSt3__18functionIFvN7android8hardware14neuralnetworks4V1_011ErrorStatusERKNS2_8hidl_vecIbEEEEE"
    }
   ],
   "return_type" : "_ZTIN7android8hardware6ReturnIvEE",
   "source_file" : "/out/soong/.intermediates/hardware/interfaces/neuralnetworks/1.3/android.hardware.neuralnetworks@1.3_genc++_headers/gen/android/hardware/neuralnetworks/1.3/BpHwDevice.h"
  },
  {
   "function_name" : "android::hardware::neuralnetworks::V1_3::BpHwDevice::getSupportedOperations_1_2",
   "linker_set_key" : "_ZN7android8hardware14neuralnetworks4V1_310BpHwDevice26getSupportedOperations_1_2ERKNS1_4V1_25ModelENSt3__18functionIFvNS1_4V1_011ErrorStatusERKNS0_8hidl_vecIbEEEEE",
   "parameters" :
   [
    {
     "is_this_ptr" : true,
     "referenced_type" : "_ZTIPN7android8hardware14neuralnetworks4V1_310BpHwDeviceE"
    },
    {
     "referenced_type" : "_ZTIRKN7android8hardware14neuralnetworks4V1_25ModelE"
    },
    {
     "referenced_type" : "_ZTINSt3__18functionIFvN7android8hardware14neuralnetworks4V1_011ErrorStatusERKNS2_8hidl_vecIbEEEEE"
    }
   ],
   "return_type" : "_ZTIN7android8hardware6ReturnIvEE",
   "source_file" : "/out/soong/.intermediates/hardware/interfaces/neuralnetworks/1.3/android.hardware.neuralnetworks@1.3_genc++_headers/gen/android/hardware/neuralnetworks/1.3/BpHwDevice.h"
  },
  {
   "function_name" : "android::hardware::neuralnetworks::V1_3::BpHwDevice::getSupportedOperations_1_3",
   "linker_set_key" : "_ZN7android8hardware14neuralnetworks4V1_310BpHwDevice26getSupportedOperations_1_3ERKNS2_5ModelENSt3__18functionIFvNS2_11ErrorStatusERKNS0_8hidl_vecIbEEEEE",
   "parameters" :
   [
    {
     "is_this_ptr" : true,
     "referenced_type" : "_ZTIPN7android8hardware14neuralnetworks4V1_310BpHwDeviceE"
    },
    {
     "referenced_type" : "_ZTIRKN7android8hardware14neuralnetworks4V1_35ModelE"
    },
    {
     "referenced_type" : "_ZTINSt3__18functionIFvN7android8hardware14neuralnetworks4V1_311ErrorStatusERKNS2_8hidl_vecIbEEEEE"
    }
   ],
   "return_type" : "_ZTIN7android8hardware6ReturnIvEE",
   "source_file" : "/out/soong/.intermediates/hardware/interfaces/neuralnetworks/1.3/android.hardware.neuralnetworks@1.3_genc++_headers/gen/android/hardware/neuralnetworks/1.3/BpHwDevice.h"
  },
  {
   "function_name" : "android::hardware::neuralnetworks::V1_3::BpHwDevice::getNumberOfCacheFilesNeeded",
   "linker_set_key" : "_ZN7android8hardware14neuralnetworks4V1_310BpHwDevice27getNumberOfCacheFilesNeededENSt3__18functionIFvNS1_4V1_011ErrorStatusEjjEEE",
   "parameters" :
   [
    {
     "is_this_ptr" : true,
     "referenced_type" : "_ZTIPN7android8hardware14neuralnetworks4V1_310BpHwDeviceE"
    },
    {
     "referenced_type" : "_ZTINSt3__18functionIFvN7android8hardware14neuralnetworks4V1_011ErrorStatusEjjEEE"
    }
   ],
   "return_type" : "_ZTIN7android8hardware6ReturnIvEE",
   "source_file" : "/out/soong/.intermediates/hardware/interfaces/neuralnetworks/1.3/android.hardware.neuralnetworks@1.3_genc++_headers/gen/android/hardware/neuralnetworks/1.3/BpHwDevice.h"
  },
  {
   "function_name" : "android::hardware::neuralnetworks::V1_3::BpHwDevice::_hidl_prepareModelFromCache_1_3",
   "linker_set_key" : "_ZN7android8hardware14neuralnetworks4V1_310BpHwDevice31_hidl_prepareModelFromCache_1_3EPNS0_10IInterfaceEPNS0_7details16HidlInstrumentorERKNS2_17OptionalTimePointERKNS0_8hidl_vecINS0_11hidl_handleEEESG_RKNS0_10hidl_arrayIhLj32EJEEERKNS_2spINS2_22IPreparedModelCallbackEEE",
   "parameters" :
   [
    {
     "referenced_type" : "_ZTIPN7android8hardware10IInterfaceE"
    },
    {
     "referenced_type" : "_ZTIPN7android8hardware7details16HidlInstrumentorE"
    },
    {
     "referenced_type" : "_ZTIRKN7android8hardware14neuralnetworks4V1_317OptionalTimePointE"
    },
    {
     "referenced_type" : "_ZTIRKN7android8hardware8hidl_vecINS0_11hidl_handleEEE"
    },
    {
     "referenced_type" : "_ZTIRKN7android8hardware8hidl_vecINS0_11hidl_handleEEE"
    },
    {
     "referenced_type" : "_ZTIRKN7android8hardware10hidl_arrayIhLj32EJEEE"
    },
    {
     "referenced_type" : "_ZTIRKN7android2spINS_8hardware14neuralnetworks4V1_322IPreparedModelCallbackEEE"
    }
   ],
   "return_type" : "_ZTIN7android8hardware6ReturnINS0_14neuralnetworks4V1_311ErrorStatusEEE",
   "source_file" : "/out/soong/.intermediates/hardware/interfaces/neuralnetworks/1.3/android.hardware.neuralnetworks@1.3_genc++_headers/gen/android/hardware/neuralnetworks/1.3/BpHwDevice.h"
  },
  {
   "function_name" : "android::hardware::neuralnetworks::V1_3::BpHwDevice::_hidl_getSupportedOperations_1_3",
   "linker_set_key" : "_ZN7android8hardware14neuralnetworks4V1_310BpHwDevice32_hidl_getSupportedOperations_1_3EPNS0_10IInterfaceEPNS0_7details16HidlInstrumentorERKNS2_5ModelENSt3__18functionIFvNS2_11ErrorStatusERKNS0_8hidl_vecIbEEEEE",
   "parameters" :
   [
    {
     "referenced_type" : "_ZTIPN7android8hardware10IInterfaceE"
    },
    {
     "referenced_type" : "_ZTIPN7android8hardware7details16HidlInstrumentorE"
    },
    {
     "referenced_type" : "_ZTIRKN7android8hardware14neuralnetworks4V1_35ModelE"
    },
    {
     "referenced_type" : "_ZTINSt3__18functionIFvN7android8hardware14neuralnetworks4V1_311ErrorStatusERKNS2_8hidl_vecIbEEEEE"
    }
   ],
   "return_type" : "_ZTIN7android8hardware6ReturnIvEE",
   "source_file" : "/out/soong/.intermediates/hardware/interfaces/neuralnetworks/1.3/android.hardware.neuralnetworks@1.3_genc++_headers/gen/android/hardware/neuralnetworks/1.3/BpHwDevice.h"
  },
  {
   "function_name" : "android::hardware::neuralnetworks::V1_3::BpHwDevice::ping",
   "linker_set_key" : "_ZN7android8hardware14neuralnetworks4V1_310BpHwDevice4pingEv",
   "parameters" :
   [
    {
     "is_this_ptr" : true,
     "referenced_type" : "_ZTIPN7android8hardware14neuralnetworks4V1_310BpHwDeviceE"
    }
   ],
   "return_type" : "_ZTIN7android8hardware6ReturnIvEE",
   "source_file" : "/out/soong/.intermediates/hardware/interfaces/neuralnetworks/1.3/android.hardware.neuralnetworks@1.3_genc++_headers/gen/android/hardware/neuralnetworks/1.3/BpHwDevice.h"
  },
  {
   "function_name" : "android::hardware::neuralnetworks::V1_3::BpHwDevice::debug",
   "linker_set_key" : "_ZN7android8hardware14neuralnetworks4V1_310BpHwDevice5debugERKNS0_11hidl_handleERKNS0_8hidl_vecINS0_11hidl_stringEEE",
   "parameters" :
   [
    {
     "is_this_ptr" : true,
     "referenced_type" : "_ZTIPN7android8hardware14neuralnetworks4V1_310BpHwDeviceE"
    },
    {
     "referenced_type" : "_ZTIRKN7android8hardware11hidl_handleE"
    },
    {
     "referenced_type" : "_ZTIRKN7android8hardware8hidl_vecINS0_11hidl_stringEEE"
    }
   ],
   "return_type" : "_ZTIN7android8hardware6ReturnIvEE",
   "source_file" : "/out/soong/.intermediates/hardware/interfaces/neuralnetworks/1.3/android.hardware.neuralnetworks@1.3_genc++_headers/gen/android/hardware/neuralnetworks/1.3/BpHwDevice.h"
  },
  {
   "function_name" : "android::hardware::neuralnetworks::V1_3::BpHwDevice::getType",
   "linker_set_key" : "_ZN7android8hardware14neuralnetworks4V1_310BpHwDevice7getTypeENSt3__18functionIFvNS1_4V1_011ErrorStatusENS1_4V1_210DeviceTypeEEEE",
   "parameters" :
   [
    {
     "is_this_ptr" : true,
     "referenced_type" : "_ZTIPN7android8hardware14neuralnetworks4V1_310BpHwDeviceE"
    },
    {
     "referenced_type" : "_ZTINSt3__18functionIFvN7android8hardware14neuralnetworks4V1_011ErrorStatusENS3_4V1_210DeviceTypeEEEE"
    }
   ],
   "return_type" : "_ZTIN7android8hardware6ReturnIvEE",
   "source_file" : "/out/soong/.intermediates/hardware/interfaces/neuralnetworks/1.3/android.hardware.neuralnetworks@1.3_genc++_headers/gen/android/hardware/neuralnetworks/1.3/BpHwDevice.h"
  },
  {
   "function_name" : "android::hardware::neuralnetworks::V1_3::BpHwDevice::allocate",
   "linker_set_key" : "_ZN7android8hardware14neuralnetworks4V1_310BpHwDevice8allocateERKNS2_10BufferDescERKNS0_8hidl_vecINS_2spINS2_14IPreparedModelEEEEERKNS7_INS2_10BufferRoleEEESH_NSt3__18functionIFvNS2_11ErrorStatusERKNS8_INS2_7IBufferEEEjEEE",
   "parameters" :
   [
    {
     "is_this_ptr" : true,
     "referenced_type" : "_ZTIPN7android8hardware14neuralnetworks4V1_310BpHwDeviceE"
    },
    {
     "referenced_type" : "_ZTIRKN7android8hardware14neuralnetworks4V1_310BufferDescE"
    },
    {
     "referenced_type" : "_ZTIRKN7android8hardware8hidl_vecINS_2spINS0_14neuralnetworks4V1_314IPreparedModelEEEEE"
    },
    {
     "referenced_type" : "_ZTIRKN7android8hardware8hidl_vecINS0_14neuralnetworks4V1_310BufferRoleEEE"
    },
    {
     "referenced_type" : "_ZTIRKN7android8hardware8hidl_vecINS0_14neuralnetworks4V1_310BufferRoleEEE"
    },
    {
     "referenced_type" : "_ZTINSt3__18functionIFvN7android8hardware14neuralnetworks4V1_311ErrorStatusERKNS1_2spINS4_7IBufferEEEjEEE"
    }
   ],
   "return_type" : "_ZTIN7android8hardware6ReturnIvEE",
   "source_file" : "/out/soong/.intermediates/hardware/interfaces/neuralnetworks/1.3/android.hardware.neuralnetworks@1.3_genc++_headers/gen/android/hardware/neuralnetworks/1.3/BpHwDevice.h"
  },
  {
   "function_name" : "android::hardware::neuralnetworks::V1_3::BpHwDevice::getStatus",
   "linker_set_key" : "_ZN7android8hardware14neuralnetworks4V1_310BpHwDevice9getStatusEv",
   "parameters" :
   [
    {
     "is_this_ptr" : true,
     "referenced_type" : "_ZTIPN7android8hardware14neuralnetworks4V1_310BpHwDeviceE"
    }
   ],
   "return_type" : "_ZTIN7android8hardware6ReturnINS0_14neuralnetworks4V1_012DeviceStatusEEE",
   "source_file" : "/out/soong/.intermediates/hardware/interfaces/neuralnetworks/1.3/android.hardware.neuralnetworks@1.3_genc++_headers/gen/android/hardware/neuralnetworks/1.3/BpHwDevice.h"
  },
  {
   "function_name" : "android::hardware::neuralnetworks::V1_3::BpHwDevice::BpHwDevice",
   "linker_set_key" : "_ZN7android8hardware14neuralnetworks4V1_310BpHwDeviceC1ERKNS_2spINS0_7IBinderEEE",
   "parameters" :
   [
    {
     "is_this_ptr" : true,
     "referenced_type" : "_ZTIPN7android8hardware14neuralnetworks4V1_310BpHwDeviceE"
    },
    {
     "referenced_type" : "_ZTIRKN7android2spINS_8hardware7IBinderEEE"
    }
   ],
   "return_type" : "_ZTIv",
   "source_file" : "/out/soong/.intermediates/hardware/interfaces/neuralnetworks/1.3/android.hardware.neuralnetworks@1.3_genc++_headers/gen/android/hardware/neuralnetworks/1.3/BpHwDevice.h"
  },
  {
   "function_name" : "android::hardware::neuralnetworks::V1_3::BpHwDevice::BpHwDevice",
   "linker_set_key" : "_ZN7android8hardware14neuralnetworks4V1_310BpHwDeviceC2ERKNS_2spINS0_7IBinderEEE",
   "parameters" :
   [
    {
     "is_this_ptr" : true,
     "referenced_type" : "_ZTIPN7android8hardware14neuralnetworks4V1_310BpHwDeviceE"
    },
    {
     "referenced_type" : "_ZTIRKN7android2spINS_8hardware7IBinderEEE"
    }
   ],
   "return_type" : "_ZTIv",
   "source_file" : "/out/soong/.intermediates/hardware/interfaces/neuralnetworks/1.3/android.hardware.neuralnetworks@1.3_genc++_headers/gen/android/hardware/neuralnetworks/1.3/BpHwDevice.h"
  },
  {
   "function_name" : "android::hardware::neuralnetworks::V1_3::IPreparedModel::getService",
   "linker_set_key" : "_ZN7android8hardware14neuralnetworks4V1_314IPreparedModel10getServiceERKNSt3__112basic_stringIcNS4_11char_traitsIcEENS4_9allocatorIcEEEEb",
   "parameters" :
   [
    {
     "default_arg" : true,
     "referenced_type" : "_ZTIRKNSt3__112basic_stringIcNS_11char_traitsIcEENS_9allocatorIcEEEE"
    },
    {
     "default_arg" : true,
     "referenced_type" : "_ZTIb"
    }
   ],
   "return_type" : "_ZTIN7android2spINS_8hardware14neuralnetworks4V1_314IPreparedModelEEE",
   "source_file" : "/out/soong/.intermediates/hardware/interfaces/neuralnetworks/1.3/android.hardware.neuralnetworks@1.3_genc++_headers/gen/android/hardware/neuralnetworks/1.3/IPreparedModel.h"
  },
  {
   "function_name" : "android::hardware::neuralnetworks::V1_3::IPreparedModel::linkToDeath",
   "linker_set_key" : "_ZN7android8hardware14neuralnetworks4V1_314IPreparedModel11linkToDeathERKNS_2spINS0_20hidl_death_recipientEEEy",
   "parameters" :
   [
    {
     "is_this_ptr" : true,
     "referenced_type" : "_ZTIPN7android8hardware14neuralnetworks4V1_314IPreparedModelE"
    },
    {
     "referenced_type" : "_ZTIRKN7android2spINS_8hardware20hidl_death_recipientEEE"
    },
    {
     "referenced_type" : "_ZTIy"
    }
   ],
   "return_type" : "_ZTIN7android8hardware6ReturnIbEE",
   "source_file" : "/out/soong/.intermediates/hardware/interfaces/neuralnetworks/1.3/android.hardware.neuralnetworks@1.3_genc++_headers/gen/android/hardware/neuralnetworks/1.3/IPreparedModel.h"
  },
  {
   "function_name" : "android::hardware::neuralnetworks::V1_3::IPreparedModel::getDebugInfo",
   "linker_set_key" : "_ZN7android8hardware14neuralnetworks4V1_314IPreparedModel12getDebugInfoENSt3__18functionIFvRKNS_4hidl4base4V1_09DebugInfoEEEE",
   "parameters" :
   [
    {
     "is_this_ptr" : true,
     "referenced_type" : "_ZTIPN7android8hardware14neuralnetworks4V1_314IPreparedModelE"
    },
    {
     "referenced_type" : "_ZTINSt3__18functionIFvRKN7android4hidl4base4V1_09DebugInfoEEEE"
    }
   ],
   "return_type" : "_ZTIN7android8hardware6ReturnIvEE",
   "source_file" : "/out/soong/.intermediates/hardware/interfaces/neuralnetworks/1.3/android.hardware.neuralnetworks@1.3_genc++_headers/gen/android/hardware/neuralnetworks/1.3/IPreparedModel.h"
  },
  {
   "function_name" : "android::hardware::neuralnetworks::V1_3::IPreparedModel::getHashChain",
   "linker_set_key" : "_ZN7android8hardware14neuralnetworks4V1_314IPreparedModel12getHashChainENSt3__18functionIFvRKNS0_8hidl_vecINS0_10hidl_arrayIhLj32EJEEEEEEEE",
   "parameters" :
   [
    {
     "is_this_ptr" : true,
     "referenced_type" : "_ZTIPN7android8hardware14neuralnetworks4V1_314IPreparedModelE"
    },
    {
     "referenced_type" : "_ZTINSt3__18functionIFvRKN7android8hardware8hidl_vecINS2_10hidl_arrayIhLj32EJEEEEEEEE"
    }
   ],
   "return_type" : "_ZTIN7android8hardware6ReturnIvEE",
   "source_file" : "/out/soong/.intermediates/hardware/interfaces/neuralnetworks/1.3/android.hardware.neuralnetworks@1.3_genc++_headers/gen/android/hardware/neuralnetworks/1.3/IPreparedModel.h"
  },
  {
   "function_name" : "android::hardware::neuralnetworks::V1_3::IPreparedModel::tryGetService",
   "linker_set_key" : "_ZN7android8hardware14neuralnetworks4V1_314IPreparedModel13tryGetServiceERKNSt3__112basic_stringIcNS4_11char_traitsIcEENS4_9allocatorIcEEEEb",
   "parameters" :
   [
    {
     "default_arg" : true,
     "referenced_type" : "_ZTIRKNSt3__112basic_stringIcNS_11char_traitsIcEENS_9allocatorIcEEEE"
    },
    {
     "default_arg" : true,
     "referenced_type" : "_ZTIb"
    }
   ],
   "return_type" : "_ZTIN7android2spINS_8hardware14neuralnetworks4V1_314IPreparedModelEEE",
   "source_file" : "/out/soong/.intermediates/hardware/interfaces/neuralnetworks/1.3/android.hardware.neuralnetworks@1.3_genc++_headers/gen/android/hardware/neuralnetworks/1.3/IPreparedModel.h"
  },
  {
   "function_name" : "android::hardware::neuralnetworks::V1_3::IPreparedModel::unlinkToDeath",
   "linker_set_key" : "_ZN7android8hardware14neuralnetworks4V1_314IPreparedModel13unlinkToDeathERKNS_2spINS0_20hidl_death_recipientEEE",
   "parameters" :
   [
    {
     "is_this_ptr" : true,
     "referenced_type" : "_ZTIPN7android8hardware14neuralnetworks4V1_314IPreparedModelE"
    },
    {
     "referenced_type" : "_ZTIRKN7android2spINS_8hardware20hidl_death_recipientEEE"
    }
   ],
   "return_type" : "_ZTIN7android8hardware6ReturnIbEE",
   "source_file" : "/out/soong/.intermediates/hardware/interfaces/neuralnetworks/1.3/android.hardware.neuralnetworks@1.3_genc++_headers/gen/android/hardware/neuralnetworks/1.3/IPreparedModel.h"
  },
  {
   "function_name" : "android::hardware::neuralnetworks::V1_3::IPreparedModel::interfaceChain",
   "linker_set_key" : "_ZN7android8hardware14neuralnetworks4V1_314IPreparedModel14interfaceChainENSt3__18functionIFvRKNS0_8hidl_vecINS0_11hidl_stringEEEEEE",
   "parameters" :
   [
    {
     "is_this_ptr" : true,
     "referenced_type" : "_ZTIPN7android8hardware14neuralnetworks4V1_314IPreparedModelE"
    },
    {
     "referenced_type" : "_ZTINSt3__18functionIFvRKN7android8hardware8hidl_vecINS2_11hidl_stringEEEEEE"
    }
   ],
   "return_type" : "_ZTIN7android8hardware6ReturnIvEE",
   "source_file" : "/out/soong/.intermediates/hardware/interfaces/neuralnetworks/1.3/android.hardware.neuralnetworks@1.3_genc++_headers/gen/android/hardware/neuralnetworks/1.3/IPreparedModel.h"
  },
  {
   "function_name" : "android::hardware::neuralnetworks::V1_3::IPreparedModel::registerAsService",
   "linker_set_key" : "_ZN7android8hardware14neuralnetworks4V1_314IPreparedModel17registerAsServiceERKNSt3__112basic_stringIcNS4_11char_traitsIcEENS4_9allocatorIcEEEE",
   "parameters" :
   [
    {
     "is_this_ptr" : true,
     "referenced_type" : "_ZTIPN7android8hardware14neuralnetworks4V1_314IPreparedModelE"
    },
    {
     "default_arg" : true,
     "referenced_type" : "_ZTIRKNSt3__112basic_stringIcNS_11char_traitsIcEENS_9allocatorIcEEEE"
    }
   ],
   "return_type" : "_ZTIi",
   "source_file" : "/out/soong/.intermediates/hardware/interfaces/neuralnetworks/1.3/android.hardware.neuralnetworks@1.3_genc++_headers/gen/android/hardware/neuralnetworks/1.3/IPreparedModel.h"
  },
  {
   "function_name" : "android::hardware::neuralnetworks::V1_3::IPreparedModel::interfaceDescriptor",
   "linker_set_key" : "_ZN7android8hardware14neuralnetworks4V1_314IPreparedModel19interfaceDescriptorENSt3__18functionIFvRKNS0_11hidl_stringEEEE",
   "parameters" :
   [
    {
     "is_this_ptr" : true,
     "referenced_type" : "_ZTIPN7android8hardware14neuralnetworks4V1_314IPreparedModelE"
    },
    {
     "referenced_type" : "_ZTINSt3__18functionIFvRKN7android8hardware11hidl_stringEEEE"
    }
   ],
   "return_type" : "_ZTIN7android8hardware6ReturnIvEE",
   "source_file" : "/out/soong/.intermediates/hardware/interfaces/neuralnetworks/1.3/android.hardware.neuralnetworks@1.3_genc++_headers/gen/android/hardware/neuralnetworks/1.3/IPreparedModel.h"
  },
  {
   "function_name" : "android::hardware::neuralnetworks::V1_3::IPreparedModel::notifySyspropsChanged",
   "linker_set_key" : "_ZN7android8hardware14neuralnetworks4V1_314IPreparedModel21notifySyspropsChangedEv",
   "parameters" :
   [
    {
     "is_this_ptr" : true,
     "referenced_type" : "_ZTIPN7android8hardware14neuralnetworks4V1_314IPreparedModelE"
    }
   ],
   "return_type" : "_ZTIN7android8hardware6ReturnIvEE",
   "source_file" : "/out/soong/.intermediates/hardware/interfaces/neuralnetworks/1.3/android.hardware.neuralnetworks@1.3_genc++_headers/gen/android/hardware/neuralnetworks/1.3/IPreparedModel.h"
  },
  {
   "function_name" : "android::hardware::neuralnetworks::V1_3::IPreparedModel::setHALInstrumentation",
   "linker_set_key" : "_ZN7android8hardware14neuralnetworks4V1_314IPreparedModel21setHALInstrumentationEv",
   "parameters" :
   [
    {
     "is_this_ptr" : true,
     "referenced_type" : "_ZTIPN7android8hardware14neuralnetworks4V1_314IPreparedModelE"
    }
   ],
   "return_type" : "_ZTIN7android8hardware6ReturnIvEE",
   "source_file" : "/out/soong/.intermediates/hardware/interfaces/neuralnetworks/1.3/android.hardware.neuralnetworks@1.3_genc++_headers/gen/android/hardware/neuralnetworks/1.3/IPreparedModel.h"
  },
  {
   "function_name" : "android::hardware::neuralnetworks::V1_3::IPreparedModel::registerForNotifications",
   "linker_set_key" : "_ZN7android8hardware14neuralnetworks4V1_314IPreparedModel24registerForNotificationsERKNSt3__112basic_stringIcNS4_11char_traitsIcEENS4_9allocatorIcEEEERKNS_2spINS_4hidl7manager4V1_020IServiceNotificationEEE",
   "parameters" :
   [
    {
     "referenced_type" : "_ZTIRKNSt3__112basic_stringIcNS_11char_traitsIcEENS_9allocatorIcEEEE"
    },
    {
     "referenced_type" : "_ZTIRKN7android2spINS_4hidl7manager4V1_020IServiceNotificationEEE"
    }
   ],
   "return_type" : "_ZTIb",
   "source_file" : "/out/soong/.intermediates/hardware/interfaces/neuralnetworks/1.3/android.hardware.neuralnetworks@1.3_genc++_headers/gen/android/hardware/neuralnetworks/1.3/IPreparedModel.h"
  },
  {
   "function_name" : "android::hardware::neuralnetworks::V1_3::IPreparedModel::ping",
   "linker_set_key" : "_ZN7android8hardware14neuralnetworks4V1_314IPreparedModel4pingEv",
   "parameters" :
   [
    {
     "is_this_ptr" : true,
     "referenced_type" : "_ZTIPN7android8hardware14neuralnetworks4V1_314IPreparedModelE"
    }
   ],
   "return_type" : "_ZTIN7android8hardware6ReturnIvEE",
   "source_file" : "/out/soong/.intermediates/hardware/interfaces/neuralnetworks/1.3/android.hardware.neuralnetworks@1.3_genc++_headers/gen/android/hardware/neuralnetworks/1.3/IPreparedModel.h"
  },
  {
   "function_name" : "android::hardware::neuralnetworks::V1_3::IPreparedModel::debug",
   "linker_set_key" : "_ZN7android8hardware14neuralnetworks4V1_314IPreparedModel5debugERKNS0_11hidl_handleERKNS0_8hidl_vecINS0_11hidl_stringEEE",
   "parameters" :
   [
    {
     "is_this_ptr" : true,
     "referenced_type" : "_ZTIPN7android8hardware14neuralnetworks4V1_314IPreparedModelE"
    },
    {
     "referenced_type" : "_ZTIRKN7android8hardware11hidl_handleE"
    },
    {
     "referenced_type" : "_ZTIRKN7android8hardware8hidl_vecINS0_11hidl_stringEEE"
    }
   ],
   "return_type" : "_ZTIN7android8hardware6ReturnIvEE",
   "source_file" : "/out/soong/.intermediates/hardware/interfaces/neuralnetworks/1.3/android.hardware.neuralnetworks@1.3_genc++_headers/gen/android/hardware/neuralnetworks/1.3/IPreparedModel.h"
  },
  {
   "function_name" : "android::hardware::neuralnetworks::V1_3::IPreparedModel::castFrom",
   "linker_set_key" : "_ZN7android8hardware14neuralnetworks4V1_314IPreparedModel8castFromERKNS_2spINS1_4V1_014IPreparedModelEEEb",
   "parameters" :
   [
    {
     "referenced_type" : "_ZTIRKN7android2spINS_8hardware14neuralnetworks4V1_014IPreparedModelEEE"
    },
    {
     "default_arg" : true,
     "referenced_type" : "_ZTIb"
    }
   ],
   "return_type" : "_ZTIN7android8hardware6ReturnINS_2spINS0_14neuralnetworks4V1_314IPreparedModelEEEEE",
   "source_file" : "/out/soong/.intermediates/hardware/interfaces/neuralnetworks/1.3/android.hardware.neuralnetworks@1.3_genc++_headers/gen/android/hardware/neuralnetworks/1.3/IPreparedModel.h"
  },
  {
   "function_name" : "android::hardware::neuralnetworks::V1_3::IPreparedModel::castFrom",
   "linker_set_key" : "_ZN7android8hardware14neuralnetworks4V1_314IPreparedModel8castFromERKNS_2spINS1_4V1_214IPreparedModelEEEb",
   "parameters" :
   [
    {
     "referenced_type" : "_ZTIRKN7android2spINS_8hardware14neuralnetworks4V1_214IPreparedModelEEE"
    },
    {
     "default_arg" : true,
     "referenced_type" : "_ZTIb"
    }
   ],
   "return_type" : "_ZTIN7android8hardware6ReturnINS_2spINS0_14neuralnetworks4V1_314IPreparedModelEEEEE",
   "source_file" : "/out/soong/.intermediates/hardware/interfaces/neuralnetworks/1.3/android.hardware.neuralnetworks@1.3_genc++_headers/gen/android/hardware/neuralnetworks/1.3/IPreparedModel.h"
  },
  {
   "function_name" : "android::hardware::neuralnetworks::V1_3::IPreparedModel::castFrom",
   "linker_set_key" : "_ZN7android8hardware14neuralnetworks4V1_314IPreparedModel8castFromERKNS_2spINS_4hidl4base4V1_05IBaseEEEb",
   "parameters" :
   [
    {
     "referenced_type" : "_ZTIRKN7android2spINS_4hidl4base4V1_05IBaseEEE"
    },
    {
     "default_arg" : true,
     "referenced_type" : "_ZTIb"
    }
   ],
   "return_type" : "_ZTIN7android8hardware6ReturnINS_2spINS0_14neuralnetworks4V1_314IPreparedModelEEEEE",
   "source_file" : "/out/soong/.intermediates/hardware/interfaces/neuralnetworks/1.3/android.hardware.neuralnetworks@1.3_genc++_headers/gen/android/hardware/neuralnetworks/1.3/IPreparedModel.h"
  },
  {
   "function_name" : "android::hardware::neuralnetworks::V1_3::IPreparedModel::castFrom",
   "linker_set_key" : "_ZN7android8hardware14neuralnetworks4V1_314IPreparedModel8castFromERKNS_2spIS3_EEb",
   "parameters" :
   [
    {
     "referenced_type" : "_ZTIRKN7android2spINS_8hardware14neuralnetworks4V1_314IPreparedModelEEE"
    },
    {
     "default_arg" : true,
     "referenced_type" : "_ZTIb"
    }
   ],
   "return_type" : "_ZTIN7android8hardware6ReturnINS_2spINS0_14neuralnetworks4V1_314IPreparedModelEEEEE",
   "source_file" : "/out/soong/.intermediates/hardware/interfaces/neuralnetworks/1.3/android.hardware.neuralnetworks@1.3_genc++_headers/gen/android/hardware/neuralnetworks/1.3/IPreparedModel.h"
  },
  {
   "access" : "private",
   "function_name" : "android::hardware::neuralnetworks::V1_3::BsPreparedModel::addOnewayTask",
   "linker_set_key" : "_ZN7android8hardware14neuralnetworks4V1_315BsPreparedModel13addOnewayTaskENSt3__18functionIFvvEEE",
   "parameters" :
   [
    {
     "is_this_ptr" : true,
     "referenced_type" : "_ZTIPN7android8hardware14neuralnetworks4V1_315BsPreparedModelE"
    },
    {
     "referenced_type" : "_ZTINSt3__18functionIFvvEEE"
    }
   ],
   "return_type" : "_ZTIN7android8hardware6ReturnIvEE",
   "source_file" : "/out/soong/.intermediates/hardware/interfaces/neuralnetworks/1.3/android.hardware.neuralnetworks@1.3_genc++_headers/gen/android/hardware/neuralnetworks/1.3/BsPreparedModel.h"
  },
  {
   "function_name" : "android::hardware::neuralnetworks::V1_3::BsPreparedModel::BsPreparedModel",
   "linker_set_key" : "_ZN7android8hardware14neuralnetworks4V1_315BsPreparedModelC1ENS_2spINS2_14IPreparedModelEEE",
   "parameters" :
   [
    {
     "is_this_ptr" : true,
     "referenced_type" : "_ZTIPN7android8hardware14neuralnetworks4V1_315BsPreparedModelE"
    },
    {
     "referenced_type" : "_ZTIKN7android2spINS_8hardware14neuralnetworks4V1_314IPreparedModelEEE"
    }
   ],
   "return_type" : "_ZTIv",
   "source_file" : "/out/soong/.intermediates/hardware/interfaces/neuralnetworks/1.3/android.hardware.neuralnetworks@1.3_genc++_headers/gen/android/hardware/neuralnetworks/1.3/BsPreparedModel.h"
  },
  {
   "function_name" : "android::hardware::neuralnetworks::V1_3::BsPreparedModel::BsPreparedModel",
   "linker_set_key" : "_ZN7android8hardware14neuralnetworks4V1_315BsPreparedModelC2ENS_2spINS2_14IPreparedModelEEE",
   "parameters" :
   [
    {
     "is_this_ptr" : true,
     "referenced_type" : "_ZTIPN7android8hardware14neuralnetworks4V1_315BsPreparedModelE"
    },
    {
     "referenced_type" : "_ZTIKN7android2spINS_8hardware14neuralnetworks4V1_314IPreparedModelEEE"
    }
   ],
   "return_type" : "_ZTIv",
   "source_file" : "/out/soong/.intermediates/hardware/interfaces/neuralnetworks/1.3/android.hardware.neuralnetworks@1.3_genc++_headers/gen/android/hardware/neuralnetworks/1.3/BsPreparedModel.h"
  },
  {
   "function_name" : "android::hardware::neuralnetworks::V1_3::BnHwPreparedModel::onTransact",
   "linker_set_key" : "_ZN7android8hardware14neuralnetworks4V1_317BnHwPreparedModel10onTransactEjRKNS0_6ParcelEPS4_jNSt3__18functionIFvRS4_EEE",
   "parameters" :
   [
    {
     "is_this_ptr" : true,
     "referenced_type" : "_ZTIPN7android8hardware14neuralnetworks4V1_317BnHwPreparedModelE"
    },
    {
     "referenced_type" : "_ZTIj"
    },
    {
     "referenced_type" : "_ZTIRKN7android8hardware6ParcelE"
    },
    {
     "referenced_type" : "_ZTIPN7android8hardware6ParcelE"
    },
    {
     "default_arg" : true,
     "referenced_type" : "_ZTIj"
    },
    {
     "default_arg" : true,
     "referenced_type" : "_ZTINSt3__18functionIFvRN7android8hardware6ParcelEEEE"
    }
   ],
   "return_type" : "_ZTIi",
   "source_file" : "/out/soong/.intermediates/hardware/interfaces/neuralnetworks/1.3/android.hardware.neuralnetworks@1.3_genc++_headers/gen/android/hardware/neuralnetworks/1.3/BnHwPreparedModel.h"
  },
  {
   "access" : "private",
   "function_name" : "android::hardware::neuralnetworks::V1_3::BnHwPreparedModel::getDebugInfo",
   "linker_set_key" : "_ZN7android8hardware14neuralnetworks4V1_317BnHwPreparedModel12getDebugInfoENSt3__18functionIFvRKNS_4hidl4base4V1_09DebugInfoEEEE",
   "parameters" :
   [
    {
     "is_this_ptr" : true,
     "referenced_type" : "_ZTIPN7android8hardware14neuralnetworks4V1_317BnHwPreparedModelE"
    },
    {
     "referenced_type" : "_ZTINSt3__18functionIFvRKN7android4hidl4base4V1_09DebugInfoEEEE"
    }
   ],
   "return_type" : "_ZTIN7android8hardware6ReturnIvEE",
   "source_file" : "/out/soong/.intermediates/hardware/interfaces/neuralnetworks/1.3/android.hardware.neuralnetworks@1.3_genc++_headers/gen/android/hardware/neuralnetworks/1.3/BnHwPreparedModel.h"
  },
  {
   "function_name" : "android::hardware::neuralnetworks::V1_3::BnHwPreparedModel::_hidl_execute_1_3",
   "linker_set_key" : "_ZN7android8hardware14neuralnetworks4V1_317BnHwPreparedModel17_hidl_execute_1_3EPNS_4hidl4base4V1_08BnHwBaseERKNS0_6ParcelEPS9_NSt3__18functionIFvRS9_EEE",
   "parameters" :
   [
    {
     "referenced_type" : "_ZTIPN7android4hidl4base4V1_08BnHwBaseE"
    },
    {
     "referenced_type" : "_ZTIRKN7android8hardware6ParcelE"
    },
    {
     "referenced_type" : "_ZTIPN7android8hardware6ParcelE"
    },
    {
     "referenced_type" : "_ZTINSt3__18functionIFvRN7android8hardware6ParcelEEEE"
    }
   ],
   "return_type" : "_ZTIi",
   "source_file" : "/out/soong/.intermediates/hardware/interfaces/neuralnetworks/1.3/android.hardware.neuralnetworks@1.3_genc++_headers/gen/android/hardware/neuralnetworks/1.3/BnHwPreparedModel.h"
  },
  {
   "function_name" : "android::hardware::neuralnetworks::V1_3::BnHwPreparedModel::_hidl_executeFenced",
   "linker_set_key" : "_ZN7android8hardware14neuralnetworks4V1_317BnHwPreparedModel19_hidl_executeFencedEPNS_4hidl4base4V1_08BnHwBaseERKNS0_6ParcelEPS9_NSt3__18functionIFvRS9_EEE",
   "parameters" :
   [
    {
     "referenced_type" : "_ZTIPN7android4hidl4base4V1_08BnHwBaseE"
    },
    {
     "referenced_type" : "_ZTIRKN7android8hardware6ParcelE"
    },
    {
     "referenced_type" : "_ZTIPN7android8hardware6ParcelE"
    },
    {
     "referenced_type" : "_ZTINSt3__18functionIFvRN7android8hardware6ParcelEEEE"
    }
   ],
   "return_type" : "_ZTIi",
   "source_file" : "/out/soong/.intermediates/hardware/interfaces/neuralnetworks/1.3/android.hardware.neuralnetworks@1.3_genc++_headers/gen/android/hardware/neuralnetworks/1.3/BnHwPreparedModel.h"
  },
  {
   "function_name" : "android::hardware::neuralnetworks::V1_3::BnHwPreparedModel::_hidl_executeSynchronously_1_3",
   "linker_set_key" : "_ZN7android8hardware14neuralnetworks4V1_317BnHwPreparedModel30_hidl_executeSynchronously_1_3EPNS_4hidl4base4V1_08BnHwBaseERKNS0_6ParcelEPS9_NSt3__18functionIFvRS9_EEE",
   "parameters" :
   [
    {
     "referenced_type" : "_ZTIPN7android4hidl4base4V1_08BnHwBaseE"
    },
    {
     "referenced_type" : "_ZTIRKN7android8hardware6ParcelE"
    },
    {
     "referenced_type" : "_ZTIPN7android8hardware6ParcelE"
    },
    {
     "referenced_type" : "_ZTINSt3__18functionIFvRN7android8hardware6ParcelEEEE"
    }
   ],
   "return_type" : "_ZTIi",
   "source_file" : "/out/soong/.intermediates/hardware/interfaces/neuralnetworks/1.3/android.hardware.neuralnetworks@1.3_genc++_headers/gen/android/hardware/neuralnetworks/1.3/BnHwPreparedModel.h"
  },
  {
   "access" : "private",
   "function_name" : "android::hardware::neuralnetworks::V1_3::BnHwPreparedModel::ping",
   "linker_set_key" : "_ZN7android8hardware14neuralnetworks4V1_317BnHwPreparedModel4pingEv",
   "parameters" :
   [
    {
     "is_this_ptr" : true,
     "referenced_type" : "_ZTIPN7android8hardware14neuralnetworks4V1_317BnHwPreparedModelE"
    }
   ],
   "return_type" : "_ZTIN7android8hardware6ReturnIvEE",
   "source_file" : "/out/soong/.intermediates/hardware/interfaces/neuralnetworks/1.3/android.hardware.neuralnetworks@1.3_genc++_headers/gen/android/hardware/neuralnetworks/1.3/BnHwPreparedModel.h"
  },
  {
   "function_name" : "android::hardware::neuralnetworks::V1_3::BnHwPreparedModel::BnHwPreparedModel",
   "linker_set_key" : "_ZN7android8hardware14neuralnetworks4V1_317BnHwPreparedModelC1ERKNS_2spINS2_14IPreparedModelEEE",
   "parameters" :
   [
    {
     "is_this_ptr" : true,
     "referenced_type" : "_ZTIPN7android8hardware14neuralnetworks4V1_317BnHwPreparedModelE"
    },
    {
     "referenced_type" : "_ZTIRKN7android2spINS_8hardware14neuralnetworks4V1_314IPreparedModelEEE"
    }
   ],
   "return_type" : "_ZTIv",
   "source_file" : "/out/soong/.intermediates/hardware/interfaces/neuralnetworks/1.3/android.hardware.neuralnetworks@1.3_genc++_headers/gen/android/hardware/neuralnetworks/1.3/BnHwPreparedModel.h"
  },
  {
   "function_name" : "android::hardware::neuralnetworks::V1_3::BnHwPreparedModel::BnHwPreparedModel",
   "linker_set_key" : "_ZN7android8hardware14neuralnetworks4V1_317BnHwPreparedModelC2ERKNS_2spINS2_14IPreparedModelEEE",
   "parameters" :
   [
    {
     "is_this_ptr" : true,
     "referenced_type" : "_ZTIPN7android8hardware14neuralnetworks4V1_317BnHwPreparedModelE"
    },
    {
     "referenced_type" : "_ZTIRKN7android2spINS_8hardware14neuralnetworks4V1_314IPreparedModelEEE"
    }
   ],
   "return_type" : "_ZTIv",
   "source_file" : "/out/soong/.intermediates/hardware/interfaces/neuralnetworks/1.3/android.hardware.neuralnetworks@1.3_genc++_headers/gen/android/hardware/neuralnetworks/1.3/BnHwPreparedModel.h"
  },
  {
   "function_name" : "android::hardware::neuralnetworks::V1_3::BnHwPreparedModel::~BnHwPreparedModel",
   "linker_set_key" : "_ZN7android8hardware14neuralnetworks4V1_317BnHwPreparedModelD0Ev",
   "parameters" :
   [
    {
     "is_this_ptr" : true,
     "referenced_type" : "_ZTIPN7android8hardware14neuralnetworks4V1_317BnHwPreparedModelE"
    }
   ],
   "return_type" : "_ZTIv",
   "source_file" : "/out/soong/.intermediates/hardware/interfaces/neuralnetworks/1.3/android.hardware.neuralnetworks@1.3_genc++_headers/gen/android/hardware/neuralnetworks/1.3/BnHwPreparedModel.h"
  },
  {
   "function_name" : "android::hardware::neuralnetworks::V1_3::BnHwPreparedModel::~BnHwPreparedModel",
   "linker_set_key" : "_ZN7android8hardware14neuralnetworks4V1_317BnHwPreparedModelD1Ev",
   "parameters" :
   [
    {
     "is_this_ptr" : true,
     "referenced_type" : "_ZTIPN7android8hardware14neuralnetworks4V1_317BnHwPreparedModelE"
    }
   ],
   "return_type" : "_ZTIv",
   "source_file" : "/out/soong/.intermediates/hardware/interfaces/neuralnetworks/1.3/android.hardware.neuralnetworks@1.3_genc++_headers/gen/android/hardware/neuralnetworks/1.3/BnHwPreparedModel.h"
  },
  {
   "function_name" : "android::hardware::neuralnetworks::V1_3::BnHwPreparedModel::~BnHwPreparedModel",
   "linker_set_key" : "_ZN7android8hardware14neuralnetworks4V1_317BnHwPreparedModelD2Ev",
   "parameters" :
   [
    {
     "is_this_ptr" : true,
     "referenced_type" : "_ZTIPN7android8hardware14neuralnetworks4V1_317BnHwPreparedModelE"
    }
   ],
   "return_type" : "_ZTIv",
   "source_file" : "/out/soong/.intermediates/hardware/interfaces/neuralnetworks/1.3/android.hardware.neuralnetworks@1.3_genc++_headers/gen/android/hardware/neuralnetworks/1.3/BnHwPreparedModel.h"
  },
  {
   "function_name" : "android::hardware::neuralnetworks::V1_3::BpHwPreparedModel::execute_1_2",
   "linker_set_key" : "_ZN7android8hardware14neuralnetworks4V1_317BpHwPreparedModel11execute_1_2ERKNS1_4V1_07RequestENS1_4V1_213MeasureTimingERKNS_2spINS8_18IExecutionCallbackEEE",
   "parameters" :
   [
    {
     "is_this_ptr" : true,
     "referenced_type" : "_ZTIPN7android8hardware14neuralnetworks4V1_317BpHwPreparedModelE"
    },
    {
     "referenced_type" : "_ZTIRKN7android8hardware14neuralnetworks4V1_07RequestE"
    },
    {
     "referenced_type" : "_ZTIN7android8hardware14neuralnetworks4V1_213MeasureTimingE"
    },
    {
     "referenced_type" : "_ZTIRKN7android2spINS_8hardware14neuralnetworks4V1_218IExecutionCallbackEEE"
    }
   ],
   "return_type" : "_ZTIN7android8hardware6ReturnINS0_14neuralnetworks4V1_011ErrorStatusEEE",
   "source_file" : "/out/soong/.intermediates/hardware/interfaces/neuralnetworks/1.3/android.hardware.neuralnetworks@1.3_genc++_headers/gen/android/hardware/neuralnetworks/1.3/BpHwPreparedModel.h"
  },
  {
   "function_name" : "android::hardware::neuralnetworks::V1_3::BpHwPreparedModel::execute_1_3",
   "linker_set_key" : "_ZN7android8hardware14neuralnetworks4V1_317BpHwPreparedModel11execute_1_3ERKNS2_7RequestENS1_4V1_213MeasureTimingERKNS2_17OptionalTimePointERKNS2_23OptionalTimeoutDurationERKNS_2spINS2_18IExecutionCallbackEEE",
   "parameters" :
   [
    {
     "is_this_ptr" : true,
     "referenced_type" : "_ZTIPN7android8hardware14neuralnetworks4V1_317BpHwPreparedModelE"
    },
    {
     "referenced_type" : "_ZTIRKN7android8hardware14neuralnetworks4V1_37RequestE"
    },
    {
     "referenced_type" : "_ZTIN7android8hardware14neuralnetworks4V1_213MeasureTimingE"
    },
    {
     "referenced_type" : "_ZTIRKN7android8hardware14neuralnetworks4V1_317OptionalTimePointE"
    },
    {
     "referenced_type" : "_ZTIRKN7android8hardware14neuralnetworks4V1_323OptionalTimeoutDurationE"
    },
    {
     "referenced_type" : "_ZTIRKN7android2spINS_8hardware14neuralnetworks4V1_318IExecutionCallbackEEE"
    }
   ],
   "return_type" : "_ZTIN7android8hardware6ReturnINS0_14neuralnetworks4V1_311ErrorStatusEEE",
   "source_file" : "/out/soong/.intermediates/hardware/interfaces/neuralnetworks/1.3/android.hardware.neuralnetworks@1.3_genc++_headers/gen/android/hardware/neuralnetworks/1.3/BpHwPreparedModel.h"
  },
  {
   "function_name" : "android::hardware::neuralnetworks::V1_3::BpHwPreparedModel::linkToDeath",
   "linker_set_key" : "_ZN7android8hardware14neuralnetworks4V1_317BpHwPreparedModel11linkToDeathERKNS_2spINS0_20hidl_death_recipientEEEy",
   "parameters" :
   [
    {
     "is_this_ptr" : true,
     "referenced_type" : "_ZTIPN7android8hardware14neuralnetworks4V1_317BpHwPreparedModelE"
    },
    {
     "referenced_type" : "_ZTIRKN7android2spINS_8hardware20hidl_death_recipientEEE"
    },
    {
     "referenced_type" : "_ZTIy"
    }
   ],
   "return_type" : "_ZTIN7android8hardware6ReturnIbEE",
   "source_file" : "/out/soong/.intermediates/hardware/interfaces/neuralnetworks/1.3/android.hardware.neuralnetworks@1.3_genc++_headers/gen/android/hardware/neuralnetworks/1.3/BpHwPreparedModel.h"
  },
  {
   "function_name" : "android::hardware::neuralnetworks::V1_3::BpHwPreparedModel::getDebugInfo",
   "linker_set_key" : "_ZN7android8hardware14neuralnetworks4V1_317BpHwPreparedModel12getDebugInfoENSt3__18functionIFvRKNS_4hidl4base4V1_09DebugInfoEEEE",
   "parameters" :
   [
    {
     "is_this_ptr" : true,
     "referenced_type" : "_ZTIPN7android8hardware14neuralnetworks4V1_317BpHwPreparedModelE"
    },
    {
     "referenced_type" : "_ZTINSt3__18functionIFvRKN7android4hidl4base4V1_09DebugInfoEEEE"
    }
   ],
   "return_type" : "_ZTIN7android8hardware6ReturnIvEE",
   "source_file" : "/out/soong/.intermediates/hardware/interfaces/neuralnetworks/1.3/android.hardware.neuralnetworks@1.3_genc++_headers/gen/android/hardware/neuralnetworks/1.3/BpHwPreparedModel.h"
  },
  {
   "function_name" : "android::hardware::neuralnetworks::V1_3::BpHwPreparedModel::getHashChain",
   "linker_set_key" : "_ZN7android8hardware14neuralnetworks4V1_317BpHwPreparedModel12getHashChainENSt3__18functionIFvRKNS0_8hidl_vecINS0_10hidl_arrayIhLj32EJEEEEEEEE",
   "parameters" :
   [
    {
     "is_this_ptr" : true,
     "referenced_type" : "_ZTIPN7android8hardware14neuralnetworks4V1_317BpHwPreparedModelE"
    },
    {
     "referenced_type" : "_ZTINSt3__18functionIFvRKN7android8hardware8hidl_vecINS2_10hidl_arrayIhLj32EJEEEEEEEE"
    }
   ],
   "return_type" : "_ZTIN7android8hardware6ReturnIvEE",
   "source_file" : "/out/soong/.intermediates/hardware/interfaces/neuralnetworks/1.3/android.hardware.neuralnetworks@1.3_genc++_headers/gen/android/hardware/neuralnetworks/1.3/BpHwPreparedModel.h"
  },
  {
   "function_name" : "android::hardware::neuralnetworks::V1_3::BpHwPreparedModel::executeFenced",
   "linker_set_key" : "_ZN7android8hardware14neuralnetworks4V1_317BpHwPreparedModel13executeFencedERKNS2_7RequestERKNS0_8hidl_vecINS0_11hidl_handleEEENS1_4V1_213MeasureTimingERKNS2_17OptionalTimePointERKNS2_23OptionalTimeoutDurationESJ_NSt3__18functionIFvNS2_11ErrorStatusERKS8_RKNS_2spINS2_24IFencedExecutionCallbackEEEEEE",
   "parameters" :
   [
    {
     "is_this_ptr" : true,
     "referenced_type" : "_ZTIPN7android8hardware14neuralnetworks4V1_317BpHwPreparedModelE"
    },
    {
     "referenced_type" : "_ZTIRKN7android8hardware14neuralnetworks4V1_37RequestE"
    },
    {
     "referenced_type" : "_ZTIRKN7android8hardware8hidl_vecINS0_11hidl_handleEEE"
    },
    {
     "referenced_type" : "_ZTIN7android8hardware14neuralnetworks4V1_213MeasureTimingE"
    },
    {
     "referenced_type" : "_ZTIRKN7android8hardware14neuralnetworks4V1_317OptionalTimePointE"
    },
    {
     "referenced_type" : "_ZTIRKN7android8hardware14neuralnetworks4V1_323OptionalTimeoutDurationE"
    },
    {
     "referenced_type" : "_ZTIRKN7android8hardware14neuralnetworks4V1_323OptionalTimeoutDurationE"
    },
    {
     "referenced_type" : "_ZTINSt3__18functionIFvN7android8hardware14neuralnetworks4V1_311ErrorStatusERKNS2_11hidl_handleERKNS1_2spINS4_24IFencedExecutionCallbackEEEEEE"
    }
   ],
   "return_type" : "_ZTIN7android8hardware6ReturnIvEE",
   "source_file" : "/out/soong/.intermediates/hardware/interfaces/neuralnetworks/1.3/android.hardware.neuralnetworks@1.3_genc++_headers/gen/android/hardware/neuralnetworks/1.3/BpHwPreparedModel.h"
  },
  {
   "function_name" : "android::hardware::neuralnetworks::V1_3::BpHwPreparedModel::unlinkToDeath",
   "linker_set_key" : "_ZN7android8hardware14neuralnetworks4V1_317BpHwPreparedModel13unlinkToDeathERKNS_2spINS0_20hidl_death_recipientEEE",
   "parameters" :
   [
    {
     "is_this_ptr" : true,
     "referenced_type" : "_ZTIPN7android8hardware14neuralnetworks4V1_317BpHwPreparedModelE"
    },
    {
     "referenced_type" : "_ZTIRKN7android2spINS_8hardware20hidl_death_recipientEEE"
    }
   ],
   "return_type" : "_ZTIN7android8hardware6ReturnIbEE",
   "source_file" : "/out/soong/.intermediates/hardware/interfaces/neuralnetworks/1.3/android.hardware.neuralnetworks@1.3_genc++_headers/gen/android/hardware/neuralnetworks/1.3/BpHwPreparedModel.h"
  },
  {
   "function_name" : "android::hardware::neuralnetworks::V1_3::BpHwPreparedModel::interfaceChain",
   "linker_set_key" : "_ZN7android8hardware14neuralnetworks4V1_317BpHwPreparedModel14interfaceChainENSt3__18functionIFvRKNS0_8hidl_vecINS0_11hidl_stringEEEEEE",
   "parameters" :
   [
    {
     "is_this_ptr" : true,
     "referenced_type" : "_ZTIPN7android8hardware14neuralnetworks4V1_317BpHwPreparedModelE"
    },
    {
     "referenced_type" : "_ZTINSt3__18functionIFvRKN7android8hardware8hidl_vecINS2_11hidl_stringEEEEEE"
    }
   ],
   "return_type" : "_ZTIN7android8hardware6ReturnIvEE",
   "source_file" : "/out/soong/.intermediates/hardware/interfaces/neuralnetworks/1.3/android.hardware.neuralnetworks@1.3_genc++_headers/gen/android/hardware/neuralnetworks/1.3/BpHwPreparedModel.h"
  },
  {
   "function_name" : "android::hardware::neuralnetworks::V1_3::BpHwPreparedModel::onLastStrongRef",
   "linker_set_key" : "_ZN7android8hardware14neuralnetworks4V1_317BpHwPreparedModel15onLastStrongRefEPKv",
   "parameters" :
   [
    {
     "is_this_ptr" : true,
     "referenced_type" : "_ZTIPN7android8hardware14neuralnetworks4V1_317BpHwPreparedModelE"
    },
    {
     "referenced_type" : "_ZTIPKv"
    }
   ],
   "return_type" : "_ZTIv",
   "source_file" : "/out/soong/.intermediates/hardware/interfaces/neuralnetworks/1.3/android.hardware.neuralnetworks@1.3_genc++_headers/gen/android/hardware/neuralnetworks/1.3/BpHwPreparedModel.h"
  },
  {
   "function_name" : "android::hardware::neuralnetworks::V1_3::BpHwPreparedModel::_hidl_execute_1_3",
   "linker_set_key" : "_ZN7android8hardware14neuralnetworks4V1_317BpHwPreparedModel17_hidl_execute_1_3EPNS0_10IInterfaceEPNS0_7details16HidlInstrumentorERKNS2_7RequestENS1_4V1_213MeasureTimingERKNS2_17OptionalTimePointERKNS2_23OptionalTimeoutDurationERKNS_2spINS2_18IExecutionCallbackEEE",
   "parameters" :
   [
    {
     "referenced_type" : "_ZTIPN7android8hardware10IInterfaceE"
    },
    {
     "referenced_type" : "_ZTIPN7android8hardware7details16HidlInstrumentorE"
    },
    {
     "referenced_type" : "_ZTIRKN7android8hardware14neuralnetworks4V1_37RequestE"
    },
    {
     "referenced_type" : "_ZTIN7android8hardware14neuralnetworks4V1_213MeasureTimingE"
    },
    {
     "referenced_type" : "_ZTIRKN7android8hardware14neuralnetworks4V1_317OptionalTimePointE"
    },
    {
     "referenced_type" : "_ZTIRKN7android8hardware14neuralnetworks4V1_323OptionalTimeoutDurationE"
    },
    {
     "referenced_type" : "_ZTIRKN7android2spINS_8hardware14neuralnetworks4V1_318IExecutionCallbackEEE"
    }
   ],
   "return_type" : "_ZTIN7android8hardware6ReturnINS0_14neuralnetworks4V1_311ErrorStatusEEE",
   "source_file" : "/out/soong/.intermediates/hardware/interfaces/neuralnetworks/1.3/android.hardware.neuralnetworks@1.3_genc++_headers/gen/android/hardware/neuralnetworks/1.3/BpHwPreparedModel.h"
  },
  {
   "function_name" : "android::hardware::neuralnetworks::V1_3::BpHwPreparedModel::_hidl_executeFenced",
   "linker_set_key" : "_ZN7android8hardware14neuralnetworks4V1_317BpHwPreparedModel19_hidl_executeFencedEPNS0_10IInterfaceEPNS0_7details16HidlInstrumentorERKNS2_7RequestERKNS0_8hidl_vecINS0_11hidl_handleEEENS1_4V1_213MeasureTimingERKNS2_17OptionalTimePointERKNS2_23OptionalTimeoutDurationESO_NSt3__18functionIFvNS2_11ErrorStatusERKSD_RKNS_2spINS2_24IFencedExecutionCallbackEEEEEE",
   "parameters" :
   [
    {
     "referenced_type" : "_ZTIPN7android8hardware10IInterfaceE"
    },
    {
     "referenced_type" : "_ZTIPN7android8hardware7details16HidlInstrumentorE"
    },
    {
     "referenced_type" : "_ZTIRKN7android8hardware14neuralnetworks4V1_37RequestE"
    },
    {
     "referenced_type" : "_ZTIRKN7android8hardware8hidl_vecINS0_11hidl_handleEEE"
    },
    {
     "referenced_type" : "_ZTIN7android8hardware14neuralnetworks4V1_213MeasureTimingE"
    },
    {
     "referenced_type" : "_ZTIRKN7android8hardware14neuralnetworks4V1_317OptionalTimePointE"
    },
    {
     "referenced_type" : "_ZTIRKN7android8hardware14neuralnetworks4V1_323OptionalTimeoutDurationE"
    },
    {
     "referenced_type" : "_ZTIRKN7android8hardware14neuralnetworks4V1_323OptionalTimeoutDurationE"
    },
    {
     "referenced_type" : "_ZTINSt3__18functionIFvN7android8hardware14neuralnetworks4V1_311ErrorStatusERKNS2_11hidl_handleERKNS1_2spINS4_24IFencedExecutionCallbackEEEEEE"
    }
   ],
   "return_type" : "_ZTIN7android8hardware6ReturnIvEE",
   "source_file" : "/out/soong/.intermediates/hardware/interfaces/neuralnetworks/1.3/android.hardware.neuralnetworks@1.3_genc++_headers/gen/android/hardware/neuralnetworks/1.3/BpHwPreparedModel.h"
  },
  {
   "function_name" : "android::hardware::neuralnetworks::V1_3::BpHwPreparedModel::interfaceDescriptor",
   "linker_set_key" : "_ZN7android8hardware14neuralnetworks4V1_317BpHwPreparedModel19interfaceDescriptorENSt3__18functionIFvRKNS0_11hidl_stringEEEE",
   "parameters" :
   [
    {
     "is_this_ptr" : true,
     "referenced_type" : "_ZTIPN7android8hardware14neuralnetworks4V1_317BpHwPreparedModelE"
    },
    {
     "referenced_type" : "_ZTINSt3__18functionIFvRKN7android8hardware11hidl_stringEEEE"
    }
   ],
   "return_type" : "_ZTIN7android8hardware6ReturnIvEE",
   "source_file" : "/out/soong/.intermediates/hardware/interfaces/neuralnetworks/1.3/android.hardware.neuralnetworks@1.3_genc++_headers/gen/android/hardware/neuralnetworks/1.3/BpHwPreparedModel.h"
  },
  {
   "function_name" : "android::hardware::neuralnetworks::V1_3::BpHwPreparedModel::executeSynchronously",
   "linker_set_key" : "_ZN7android8hardware14neuralnetworks4V1_317BpHwPreparedModel20executeSynchronouslyERKNS1_4V1_07RequestENS1_4V1_213MeasureTimingENSt3__18functionIFvNS4_11ErrorStatusERKNS0_8hidl_vecINS8_11OutputShapeEEERKNS8_6TimingEEEE",
   "parameters" :
   [
    {
     "is_this_ptr" : true,
     "referenced_type" : "_ZTIPN7android8hardware14neuralnetworks4V1_317BpHwPreparedModelE"
    },
    {
     "referenced_type" : "_ZTIRKN7android8hardware14neuralnetworks4V1_07RequestE"
    },
    {
     "referenced_type" : "_ZTIN7android8hardware14neuralnetworks4V1_213MeasureTimingE"
    },
    {
     "referenced_type" : "_ZTINSt3__18functionIFvN7android8hardware14neuralnetworks4V1_011ErrorStatusERKNS2_8hidl_vecINS3_4V1_211OutputShapeEEERKNS7_6TimingEEEE"
    }
   ],
   "return_type" : "_ZTIN7android8hardware6ReturnIvEE",
   "source_file" : "/out/soong/.intermediates/hardware/interfaces/neuralnetworks/1.3/android.hardware.neuralnetworks@1.3_genc++_headers/gen/android/hardware/neuralnetworks/1.3/BpHwPreparedModel.h"
  },
  {
   "function_name" : "android::hardware::neuralnetworks::V1_3::BpHwPreparedModel::notifySyspropsChanged",
   "linker_set_key" : "_ZN7android8hardware14neuralnetworks4V1_317BpHwPreparedModel21notifySyspropsChangedEv",
   "parameters" :
   [
    {
     "is_this_ptr" : true,
     "referenced_type" : "_ZTIPN7android8hardware14neuralnetworks4V1_317BpHwPreparedModelE"
    }
   ],
   "return_type" : "_ZTIN7android8hardware6ReturnIvEE",
   "source_file" : "/out/soong/.intermediates/hardware/interfaces/neuralnetworks/1.3/android.hardware.neuralnetworks@1.3_genc++_headers/gen/android/hardware/neuralnetworks/1.3/BpHwPreparedModel.h"
  },
  {
   "function_name" : "android::hardware::neuralnetworks::V1_3::BpHwPreparedModel::setHALInstrumentation",
   "linker_set_key" : "_ZN7android8hardware14neuralnetworks4V1_317BpHwPreparedModel21setHALInstrumentationEv",
   "parameters" :
   [
    {
     "is_this_ptr" : true,
     "referenced_type" : "_ZTIPN7android8hardware14neuralnetworks4V1_317BpHwPreparedModelE"
    }
   ],
   "return_type" : "_ZTIN7android8hardware6ReturnIvEE",
   "source_file" : "/out/soong/.intermediates/hardware/interfaces/neuralnetworks/1.3/android.hardware.neuralnetworks@1.3_genc++_headers/gen/android/hardware/neuralnetworks/1.3/BpHwPreparedModel.h"
  },
  {
   "function_name" : "android::hardware::neuralnetworks::V1_3::BpHwPreparedModel::configureExecutionBurst",
   "linker_set_key" : "_ZN7android8hardware14neuralnetworks4V1_317BpHwPreparedModel23configureExecutionBurstERKNS_2spINS1_4V1_214IBurstCallbackEEERKNS0_12MQDescriptorINS5_15FmqRequestDatumELNS0_8MQFlavorE1EEERKNSA_INS5_14FmqResultDatumELSC_1EEENSt3__18functionIFvNS1_4V1_011ErrorStatusERKNS4_INS5_13IBurstContextEEEEEE",
   "parameters" :
   [
    {
     "is_this_ptr" : true,
     "referenced_type" : "_ZTIPN7android8hardware14neuralnetworks4V1_317BpHwPreparedModelE"
    },
    {
     "referenced_type" : "_ZTIRKN7android2spINS_8hardware14neuralnetworks4V1_214IBurstCallbackEEE"
    },
    {
     "referenced_type" : "_ZTIRKN7android8hardware12MQDescriptorINS0_14neuralnetworks4V1_215FmqRequestDatumELNS0_8MQFlavorE1EEE"
    },
    {
     "referenced_type" : "_ZTIRKN7android8hardware12MQDescriptorINS0_14neuralnetworks4V1_214FmqResultDatumELNS0_8MQFlavorE1EEE"
    },
    {
     "referenced_type" : "_ZTINSt3__18functionIFvN7android8hardware14neuralnetworks4V1_011ErrorStatusERKNS1_2spINS3_4V1_213IBurstContextEEEEEE"
    }
   ],
   "return_type" : "_ZTIN7android8hardware6ReturnIvEE",
   "source_file" : "/out/soong/.intermediates/hardware/interfaces/neuralnetworks/1.3/android.hardware.neuralnetworks@1.3_genc++_headers/gen/android/hardware/neuralnetworks/1.3/BpHwPreparedModel.h"
  },
  {
   "function_name" : "android::hardware::neuralnetworks::V1_3::BpHwPreparedModel::executeSynchronously_1_3",
   "linker_set_key" : "_ZN7android8hardware14neuralnetworks4V1_317BpHwPreparedModel24executeSynchronously_1_3ERKNS2_7RequestENS1_4V1_213MeasureTimingERKNS2_17OptionalTimePointERKNS2_23OptionalTimeoutDurationENSt3__18functionIFvNS2_11ErrorStatusERKNS0_8hidl_vecINS7_11OutputShapeEEERKNS7_6TimingEEEE",
   "parameters" :
   [
    {
     "is_this_ptr" : true,
     "referenced_type" : "_ZTIPN7android8hardware14neuralnetworks4V1_317BpHwPreparedModelE"
    },
    {
     "referenced_type" : "_ZTIRKN7android8hardware14neuralnetworks4V1_37RequestE"
    },
    {
     "referenced_type" : "_ZTIN7android8hardware14neuralnetworks4V1_213MeasureTimingE"
    },
    {
     "referenced_type" : "_ZTIRKN7android8hardware14neuralnetworks4V1_317OptionalTimePointE"
    },
    {
     "referenced_type" : "_ZTIRKN7android8hardware14neuralnetworks4V1_323OptionalTimeoutDurationE"
    },
    {
     "referenced_type" : "_ZTINSt3__18functionIFvN7android8hardware14neuralnetworks4V1_311ErrorStatusERKNS2_8hidl_vecINS3_4V1_211OutputShapeEEERKNS7_6TimingEEEE"
    }
   ],
   "return_type" : "_ZTIN7android8hardware6ReturnIvEE",
   "source_file" : "/out/soong/.intermediates/hardware/interfaces/neuralnetworks/1.3/android.hardware.neuralnetworks@1.3_genc++_headers/gen/android/hardware/neuralnetworks/1.3/BpHwPreparedModel.h"
  },
  {
   "function_name" : "android::hardware::neuralnetworks::V1_3::BpHwPreparedModel::_hidl_executeSynchronously_1_3",
   "linker_set_key" : "_ZN7android8hardware14neuralnetworks4V1_317BpHwPreparedModel30_hidl_executeSynchronously_1_3EPNS0_10IInterfaceEPNS0_7details16HidlInstrumentorERKNS2_7RequestENS1_4V1_213MeasureTimingERKNS2_17OptionalTimePointERKNS2_23OptionalTimeoutDurationENSt3__18functionIFvNS2_11ErrorStatusERKNS0_8hidl_vecINSC_11OutputShapeEEERKNSC_6TimingEEEE",
   "parameters" :
   [
    {
     "referenced_type" : "_ZTIPN7android8hardware10IInterfaceE"
    },
    {
     "referenced_type" : "_ZTIPN7android8hardware7details16HidlInstrumentorE"
    },
    {
     "referenced_type" : "_ZTIRKN7android8hardware14neuralnetworks4V1_37RequestE"
    },
    {
     "referenced_type" : "_ZTIN7android8hardware14neuralnetworks4V1_213MeasureTimingE"
    },
    {
     "referenced_type" : "_ZTIRKN7android8hardware14neuralnetworks4V1_317OptionalTimePointE"
    },
    {
     "referenced_type" : "_ZTIRKN7android8hardware14neuralnetworks4V1_323OptionalTimeoutDurationE"
    },
    {
     "referenced_type" : "_ZTINSt3__18functionIFvN7android8hardware14neuralnetworks4V1_311ErrorStatusERKNS2_8hidl_vecINS3_4V1_211OutputShapeEEERKNS7_6TimingEEEE"
    }
   ],
   "return_type" : "_ZTIN7android8hardware6ReturnIvEE",
   "source_file" : "/out/soong/.intermediates/hardware/interfaces/neuralnetworks/1.3/android.hardware.neuralnetworks@1.3_genc++_headers/gen/android/hardware/neuralnetworks/1.3/BpHwPreparedModel.h"
  },
  {
   "function_name" : "android::hardware::neuralnetworks::V1_3::BpHwPreparedModel::ping",
   "linker_set_key" : "_ZN7android8hardware14neuralnetworks4V1_317BpHwPreparedModel4pingEv",
   "parameters" :
   [
    {
     "is_this_ptr" : true,
     "referenced_type" : "_ZTIPN7android8hardware14neuralnetworks4V1_317BpHwPreparedModelE"
    }
   ],
   "return_type" : "_ZTIN7android8hardware6ReturnIvEE",
   "source_file" : "/out/soong/.intermediates/hardware/interfaces/neuralnetworks/1.3/android.hardware.neuralnetworks@1.3_genc++_headers/gen/android/hardware/neuralnetworks/1.3/BpHwPreparedModel.h"
  },
  {
   "function_name" : "android::hardware::neuralnetworks::V1_3::BpHwPreparedModel::debug",
   "linker_set_key" : "_ZN7android8hardware14neuralnetworks4V1_317BpHwPreparedModel5debugERKNS0_11hidl_handleERKNS0_8hidl_vecINS0_11hidl_stringEEE",
   "parameters" :
   [
    {
     "is_this_ptr" : true,
     "referenced_type" : "_ZTIPN7android8hardware14neuralnetworks4V1_317BpHwPreparedModelE"
    },
    {
     "referenced_type" : "_ZTIRKN7android8hardware11hidl_handleE"
    },
    {
     "referenced_type" : "_ZTIRKN7android8hardware8hidl_vecINS0_11hidl_stringEEE"
    }
   ],
   "return_type" : "_ZTIN7android8hardware6ReturnIvEE",
   "source_file" : "/out/soong/.intermediates/hardware/interfaces/neuralnetworks/1.3/android.hardware.neuralnetworks@1.3_genc++_headers/gen/android/hardware/neuralnetworks/1.3/BpHwPreparedModel.h"
  },
  {
   "function_name" : "android::hardware::neuralnetworks::V1_3::BpHwPreparedModel::execute",
   "linker_set_key" : "_ZN7android8hardware14neuralnetworks4V1_317BpHwPreparedModel7executeERKNS1_4V1_07RequestERKNS_2spINS4_18IExecutionCallbackEEE",
   "parameters" :
   [
    {
     "is_this_ptr" : true,
     "referenced_type" : "_ZTIPN7android8hardware14neuralnetworks4V1_317BpHwPreparedModelE"
    },
    {
     "referenced_type" : "_ZTIRKN7android8hardware14neuralnetworks4V1_07RequestE"
    },
    {
     "referenced_type" : "_ZTIRKN7android2spINS_8hardware14neuralnetworks4V1_018IExecutionCallbackEEE"
    }
   ],
   "return_type" : "_ZTIN7android8hardware6ReturnINS0_14neuralnetworks4V1_011ErrorStatusEEE",
   "source_file" : "/out/soong/.intermediates/hardware/interfaces/neuralnetworks/1.3/android.hardware.neuralnetworks@1.3_genc++_headers/gen/android/hardware/neuralnetworks/1.3/BpHwPreparedModel.h"
  },
  {
   "function_name" : "android::hardware::neuralnetworks::V1_3::BpHwPreparedModel::BpHwPreparedModel",
   "linker_set_key" : "_ZN7android8hardware14neuralnetworks4V1_317BpHwPreparedModelC1ERKNS_2spINS0_7IBinderEEE",
   "parameters" :
   [
    {
     "is_this_ptr" : true,
     "referenced_type" : "_ZTIPN7android8hardware14neuralnetworks4V1_317BpHwPreparedModelE"
    },
    {
     "referenced_type" : "_ZTIRKN7android2spINS_8hardware7IBinderEEE"
    }
   ],
   "return_type" : "_ZTIv",
   "source_file" : "/out/soong/.intermediates/hardware/interfaces/neuralnetworks/1.3/android.hardware.neuralnetworks@1.3_genc++_headers/gen/android/hardware/neuralnetworks/1.3/BpHwPreparedModel.h"
  },
  {
   "function_name" : "android::hardware::neuralnetworks::V1_3::BpHwPreparedModel::BpHwPreparedModel",
   "linker_set_key" : "_ZN7android8hardware14neuralnetworks4V1_317BpHwPreparedModelC2ERKNS_2spINS0_7IBinderEEE",
   "parameters" :
   [
    {
     "is_this_ptr" : true,
     "referenced_type" : "_ZTIPN7android8hardware14neuralnetworks4V1_317BpHwPreparedModelE"
    },
    {
     "referenced_type" : "_ZTIRKN7android2spINS_8hardware7IBinderEEE"
    }
   ],
   "return_type" : "_ZTIv",
   "source_file" : "/out/soong/.intermediates/hardware/interfaces/neuralnetworks/1.3/android.hardware.neuralnetworks@1.3_genc++_headers/gen/android/hardware/neuralnetworks/1.3/BpHwPreparedModel.h"
  },
  {
   "function_name" : "android::hardware::neuralnetworks::V1_3::OptionalTimePoint::hidl_union::hidl_union",
   "linker_set_key" : "_ZN7android8hardware14neuralnetworks4V1_317OptionalTimePoint10hidl_unionC1Ev",
   "parameters" :
   [
    {
     "is_this_ptr" : true,
     "referenced_type" : "_ZTIPN7android8hardware14neuralnetworks4V1_317OptionalTimePoint10hidl_unionE"
    }
   ],
   "return_type" : "_ZTIv",
   "source_file" : "/out/soong/.intermediates/hardware/interfaces/neuralnetworks/1.3/android.hardware.neuralnetworks@1.3_genc++_headers/gen/android/hardware/neuralnetworks/1.3/types.h"
  },
  {
   "function_name" : "android::hardware::neuralnetworks::V1_3::OptionalTimePoint::hidl_union::hidl_union",
   "linker_set_key" : "_ZN7android8hardware14neuralnetworks4V1_317OptionalTimePoint10hidl_unionC2Ev",
   "parameters" :
   [
    {
     "is_this_ptr" : true,
     "referenced_type" : "_ZTIPN7android8hardware14neuralnetworks4V1_317OptionalTimePoint10hidl_unionE"
    }
   ],
   "return_type" : "_ZTIv",
   "source_file" : "/out/soong/.intermediates/hardware/interfaces/neuralnetworks/1.3/android.hardware.neuralnetworks@1.3_genc++_headers/gen/android/hardware/neuralnetworks/1.3/types.h"
  },
  {
   "function_name" : "android::hardware::neuralnetworks::V1_3::OptionalTimePoint::hidl_union::~hidl_union",
   "linker_set_key" : "_ZN7android8hardware14neuralnetworks4V1_317OptionalTimePoint10hidl_unionD1Ev",
   "parameters" :
   [
    {
     "is_this_ptr" : true,
     "referenced_type" : "_ZTIPN7android8hardware14neuralnetworks4V1_317OptionalTimePoint10hidl_unionE"
    }
   ],
   "return_type" : "_ZTIv",
   "source_file" : "/out/soong/.intermediates/hardware/interfaces/neuralnetworks/1.3/android.hardware.neuralnetworks@1.3_genc++_headers/gen/android/hardware/neuralnetworks/1.3/types.h"
  },
  {
   "function_name" : "android::hardware::neuralnetworks::V1_3::OptionalTimePoint::hidl_union::~hidl_union",
   "linker_set_key" : "_ZN7android8hardware14neuralnetworks4V1_317OptionalTimePoint10hidl_unionD2Ev",
   "parameters" :
   [
    {
     "is_this_ptr" : true,
     "referenced_type" : "_ZTIPN7android8hardware14neuralnetworks4V1_317OptionalTimePoint10hidl_unionE"
    }
   ],
   "return_type" : "_ZTIv",
   "source_file" : "/out/soong/.intermediates/hardware/interfaces/neuralnetworks/1.3/android.hardware.neuralnetworks@1.3_genc++_headers/gen/android/hardware/neuralnetworks/1.3/types.h"
  },
  {
   "access" : "private",
   "function_name" : "android::hardware::neuralnetworks::V1_3::OptionalTimePoint::hidl_destructUnion",
   "linker_set_key" : "_ZN7android8hardware14neuralnetworks4V1_317OptionalTimePoint18hidl_destructUnionEv",
   "parameters" :
   [
    {
     "is_this_ptr" : true,
     "referenced_type" : "_ZTIPN7android8hardware14neuralnetworks4V1_317OptionalTimePointE"
    }
   ],
   "return_type" : "_ZTIv",
   "source_file" : "/out/soong/.intermediates/hardware/interfaces/neuralnetworks/1.3/android.hardware.neuralnetworks@1.3_genc++_headers/gen/android/hardware/neuralnetworks/1.3/types.h"
  },
  {
   "function_name" : "android::hardware::neuralnetworks::V1_3::OptionalTimePoint::nanosecondsSinceEpoch",
   "linker_set_key" : "_ZN7android8hardware14neuralnetworks4V1_317OptionalTimePoint21nanosecondsSinceEpochEv",
   "parameters" :
   [
    {
     "is_this_ptr" : true,
     "referenced_type" : "_ZTIPN7android8hardware14neuralnetworks4V1_317OptionalTimePointE"
    }
   ],
   "return_type" : "_ZTIRy",
   "source_file" : "/out/soong/.intermediates/hardware/interfaces/neuralnetworks/1.3/android.hardware.neuralnetworks@1.3_genc++_headers/gen/android/hardware/neuralnetworks/1.3/types.h"
  },
  {
   "function_name" : "android::hardware::neuralnetworks::V1_3::OptionalTimePoint::nanosecondsSinceEpoch",
   "linker_set_key" : "_ZN7android8hardware14neuralnetworks4V1_317OptionalTimePoint21nanosecondsSinceEpochEy",
   "parameters" :
   [
    {
     "is_this_ptr" : true,
     "referenced_type" : "_ZTIPN7android8hardware14neuralnetworks4V1_317OptionalTimePointE"
    },
    {
     "referenced_type" : "_ZTIy"
    }
   ],
   "return_type" : "_ZTIv",
   "source_file" : "/out/soong/.intermediates/hardware/interfaces/neuralnetworks/1.3/android.hardware.neuralnetworks@1.3_genc++_headers/gen/android/hardware/neuralnetworks/1.3/types.h"
  },
  {
   "function_name" : "android::hardware::neuralnetworks::V1_3::OptionalTimePoint::none",
   "linker_set_key" : "_ZN7android8hardware14neuralnetworks4V1_317OptionalTimePoint4noneEONS_4hidl10safe_union4V1_09MonostateE",
   "parameters" :
   [
    {
     "is_this_ptr" : true,
     "referenced_type" : "_ZTIPN7android8hardware14neuralnetworks4V1_317OptionalTimePointE"
    },
    {
     "referenced_type" : "_ZTION7android4hidl10safe_union4V1_09MonostateE"
    }
   ],
   "return_type" : "_ZTIv",
   "source_file" : "/out/soong/.intermediates/hardware/interfaces/neuralnetworks/1.3/android.hardware.neuralnetworks@1.3_genc++_headers/gen/android/hardware/neuralnetworks/1.3/types.h"
  },
  {
   "function_name" : "android::hardware::neuralnetworks::V1_3::OptionalTimePoint::none",
   "linker_set_key" : "_ZN7android8hardware14neuralnetworks4V1_317OptionalTimePoint4noneERKNS_4hidl10safe_union4V1_09MonostateE",
   "parameters" :
   [
    {
     "is_this_ptr" : true,
     "referenced_type" : "_ZTIPN7android8hardware14neuralnetworks4V1_317OptionalTimePointE"
    },
    {
     "referenced_type" : "_ZTIRKN7android4hidl10safe_union4V1_09MonostateE"
    }
   ],
   "return_type" : "_ZTIv",
   "source_file" : "/out/soong/.intermediates/hardware/interfaces/neuralnetworks/1.3/android.hardware.neuralnetworks@1.3_genc++_headers/gen/android/hardware/neuralnetworks/1.3/types.h"
  },
  {
   "function_name" : "android::hardware::neuralnetworks::V1_3::OptionalTimePoint::none",
   "linker_set_key" : "_ZN7android8hardware14neuralnetworks4V1_317OptionalTimePoint4noneEv",
   "parameters" :
   [
    {
     "is_this_ptr" : true,
     "referenced_type" : "_ZTIPN7android8hardware14neuralnetworks4V1_317OptionalTimePointE"
    }
   ],
   "return_type" : "_ZTIRN7android4hidl10safe_union4V1_09MonostateE",
   "source_file" : "/out/soong/.intermediates/hardware/interfaces/neuralnetworks/1.3/android.hardware.neuralnetworks@1.3_genc++_headers/gen/android/hardware/neuralnetworks/1.3/types.h"
  },
  {
   "function_name" : "android::hardware::neuralnetworks::V1_3::OptionalTimePoint::OptionalTimePoint",
   "linker_set_key" : "_ZN7android8hardware14neuralnetworks4V1_317OptionalTimePointC1EOS3_",
   "parameters" :
   [
    {
     "is_this_ptr" : true,
     "referenced_type" : "_ZTIPN7android8hardware14neuralnetworks4V1_317OptionalTimePointE"
    },
    {
     "referenced_type" : "_ZTION7android8hardware14neuralnetworks4V1_317OptionalTimePointE"
    }
   ],
   "return_type" : "_ZTIv",
   "source_file" : "/out/soong/.intermediates/hardware/interfaces/neuralnetworks/1.3/android.hardware.neuralnetworks@1.3_genc++_headers/gen/android/hardware/neuralnetworks/1.3/types.h"
  },
  {
   "function_name" : "android::hardware::neuralnetworks::V1_3::OptionalTimePoint::OptionalTimePoint",
   "linker_set_key" : "_ZN7android8hardware14neuralnetworks4V1_317OptionalTimePointC1ERKS3_",
   "parameters" :
   [
    {
     "is_this_ptr" : true,
     "referenced_type" : "_ZTIPN7android8hardware14neuralnetworks4V1_317OptionalTimePointE"
    },
    {
     "referenced_type" : "_ZTIRKN7android8hardware14neuralnetworks4V1_317OptionalTimePointE"
    }
   ],
   "return_type" : "_ZTIv",
   "source_file" : "/out/soong/.intermediates/hardware/interfaces/neuralnetworks/1.3/android.hardware.neuralnetworks@1.3_genc++_headers/gen/android/hardware/neuralnetworks/1.3/types.h"
  },
  {
   "function_name" : "android::hardware::neuralnetworks::V1_3::OptionalTimePoint::OptionalTimePoint",
   "linker_set_key" : "_ZN7android8hardware14neuralnetworks4V1_317OptionalTimePointC1Ev",
   "parameters" :
   [
    {
     "is_this_ptr" : true,
     "referenced_type" : "_ZTIPN7android8hardware14neuralnetworks4V1_317OptionalTimePointE"
    }
   ],
   "return_type" : "_ZTIv",
   "source_file" : "/out/soong/.intermediates/hardware/interfaces/neuralnetworks/1.3/android.hardware.neuralnetworks@1.3_genc++_headers/gen/android/hardware/neuralnetworks/1.3/types.h"
  },
  {
   "function_name" : "android::hardware::neuralnetworks::V1_3::OptionalTimePoint::OptionalTimePoint",
   "linker_set_key" : "_ZN7android8hardware14neuralnetworks4V1_317OptionalTimePointC2EOS3_",
   "parameters" :
   [
    {
     "is_this_ptr" : true,
     "referenced_type" : "_ZTIPN7android8hardware14neuralnetworks4V1_317OptionalTimePointE"
    },
    {
     "referenced_type" : "_ZTION7android8hardware14neuralnetworks4V1_317OptionalTimePointE"
    }
   ],
   "return_type" : "_ZTIv",
   "source_file" : "/out/soong/.intermediates/hardware/interfaces/neuralnetworks/1.3/android.hardware.neuralnetworks@1.3_genc++_headers/gen/android/hardware/neuralnetworks/1.3/types.h"
  },
  {
   "function_name" : "android::hardware::neuralnetworks::V1_3::OptionalTimePoint::OptionalTimePoint",
   "linker_set_key" : "_ZN7android8hardware14neuralnetworks4V1_317OptionalTimePointC2ERKS3_",
   "parameters" :
   [
    {
     "is_this_ptr" : true,
     "referenced_type" : "_ZTIPN7android8hardware14neuralnetworks4V1_317OptionalTimePointE"
    },
    {
     "referenced_type" : "_ZTIRKN7android8hardware14neuralnetworks4V1_317OptionalTimePointE"
    }
   ],
   "return_type" : "_ZTIv",
   "source_file" : "/out/soong/.intermediates/hardware/interfaces/neuralnetworks/1.3/android.hardware.neuralnetworks@1.3_genc++_headers/gen/android/hardware/neuralnetworks/1.3/types.h"
  },
  {
   "function_name" : "android::hardware::neuralnetworks::V1_3::OptionalTimePoint::OptionalTimePoint",
   "linker_set_key" : "_ZN7android8hardware14neuralnetworks4V1_317OptionalTimePointC2Ev",
   "parameters" :
   [
    {
     "is_this_ptr" : true,
     "referenced_type" : "_ZTIPN7android8hardware14neuralnetworks4V1_317OptionalTimePointE"
    }
   ],
   "return_type" : "_ZTIv",
   "source_file" : "/out/soong/.intermediates/hardware/interfaces/neuralnetworks/1.3/android.hardware.neuralnetworks@1.3_genc++_headers/gen/android/hardware/neuralnetworks/1.3/types.h"
  },
  {
   "function_name" : "android::hardware::neuralnetworks::V1_3::OptionalTimePoint::~OptionalTimePoint",
   "linker_set_key" : "_ZN7android8hardware14neuralnetworks4V1_317OptionalTimePointD1Ev",
   "parameters" :
   [
    {
     "is_this_ptr" : true,
     "referenced_type" : "_ZTIPN7android8hardware14neuralnetworks4V1_317OptionalTimePointE"
    }
   ],
   "return_type" : "_ZTIv",
   "source_file" : "/out/soong/.intermediates/hardware/interfaces/neuralnetworks/1.3/android.hardware.neuralnetworks@1.3_genc++_headers/gen/android/hardware/neuralnetworks/1.3/types.h"
  },
  {
   "function_name" : "android::hardware::neuralnetworks::V1_3::OptionalTimePoint::~OptionalTimePoint",
   "linker_set_key" : "_ZN7android8hardware14neuralnetworks4V1_317OptionalTimePointD2Ev",
   "parameters" :
   [
    {
     "is_this_ptr" : true,
     "referenced_type" : "_ZTIPN7android8hardware14neuralnetworks4V1_317OptionalTimePointE"
    }
   ],
   "return_type" : "_ZTIv",
   "source_file" : "/out/soong/.intermediates/hardware/interfaces/neuralnetworks/1.3/android.hardware.neuralnetworks@1.3_genc++_headers/gen/android/hardware/neuralnetworks/1.3/types.h"
  },
  {
   "function_name" : "android::hardware::neuralnetworks::V1_3::OptionalTimePoint::operator=",
   "linker_set_key" : "_ZN7android8hardware14neuralnetworks4V1_317OptionalTimePointaSEOS3_",
   "parameters" :
   [
    {
     "is_this_ptr" : true,
     "referenced_type" : "_ZTIPN7android8hardware14neuralnetworks4V1_317OptionalTimePointE"
    },
    {
     "referenced_type" : "_ZTION7android8hardware14neuralnetworks4V1_317OptionalTimePointE"
    }
   ],
   "return_type" : "_ZTIRN7android8hardware14neuralnetworks4V1_317OptionalTimePointE",
   "source_file" : "/out/soong/.intermediates/hardware/interfaces/neuralnetworks/1.3/android.hardware.neuralnetworks@1.3_genc++_headers/gen/android/hardware/neuralnetworks/1.3/types.h"
  },
  {
   "function_name" : "android::hardware::neuralnetworks::V1_3::OptionalTimePoint::operator=",
   "linker_set_key" : "_ZN7android8hardware14neuralnetworks4V1_317OptionalTimePointaSERKS3_",
   "parameters" :
   [
    {
     "is_this_ptr" : true,
     "referenced_type" : "_ZTIPN7android8hardware14neuralnetworks4V1_317OptionalTimePointE"
    },
    {
     "referenced_type" : "_ZTIRKN7android8hardware14neuralnetworks4V1_317OptionalTimePointE"
    }
   ],
   "return_type" : "_ZTIRN7android8hardware14neuralnetworks4V1_317OptionalTimePointE",
   "source_file" : "/out/soong/.intermediates/hardware/interfaces/neuralnetworks/1.3/android.hardware.neuralnetworks@1.3_genc++_headers/gen/android/hardware/neuralnetworks/1.3/types.h"
  },
  {
   "function_name" : "android::hardware::neuralnetworks::V1_3::IExecutionCallback::getService",
   "linker_set_key" : "_ZN7android8hardware14neuralnetworks4V1_318IExecutionCallback10getServiceERKNSt3__112basic_stringIcNS4_11char_traitsIcEENS4_9allocatorIcEEEEb",
   "parameters" :
   [
    {
     "default_arg" : true,
     "referenced_type" : "_ZTIRKNSt3__112basic_stringIcNS_11char_traitsIcEENS_9allocatorIcEEEE"
    },
    {
     "default_arg" : true,
     "referenced_type" : "_ZTIb"
    }
   ],
   "return_type" : "_ZTIN7android2spINS_8hardware14neuralnetworks4V1_318IExecutionCallbackEEE",
   "source_file" : "/out/soong/.intermediates/hardware/interfaces/neuralnetworks/1.3/android.hardware.neuralnetworks@1.3_genc++_headers/gen/android/hardware/neuralnetworks/1.3/IExecutionCallback.h"
  },
  {
   "function_name" : "android::hardware::neuralnetworks::V1_3::IExecutionCallback::linkToDeath",
   "linker_set_key" : "_ZN7android8hardware14neuralnetworks4V1_318IExecutionCallback11linkToDeathERKNS_2spINS0_20hidl_death_recipientEEEy",
   "parameters" :
   [
    {
     "is_this_ptr" : true,
     "referenced_type" : "_ZTIPN7android8hardware14neuralnetworks4V1_318IExecutionCallbackE"
    },
    {
     "referenced_type" : "_ZTIRKN7android2spINS_8hardware20hidl_death_recipientEEE"
    },
    {
     "referenced_type" : "_ZTIy"
    }
   ],
   "return_type" : "_ZTIN7android8hardware6ReturnIbEE",
   "source_file" : "/out/soong/.intermediates/hardware/interfaces/neuralnetworks/1.3/android.hardware.neuralnetworks@1.3_genc++_headers/gen/android/hardware/neuralnetworks/1.3/IExecutionCallback.h"
  },
  {
   "function_name" : "android::hardware::neuralnetworks::V1_3::IExecutionCallback::getDebugInfo",
   "linker_set_key" : "_ZN7android8hardware14neuralnetworks4V1_318IExecutionCallback12getDebugInfoENSt3__18functionIFvRKNS_4hidl4base4V1_09DebugInfoEEEE",
   "parameters" :
   [
    {
     "is_this_ptr" : true,
     "referenced_type" : "_ZTIPN7android8hardware14neuralnetworks4V1_318IExecutionCallbackE"
    },
    {
     "referenced_type" : "_ZTINSt3__18functionIFvRKN7android4hidl4base4V1_09DebugInfoEEEE"
    }
   ],
   "return_type" : "_ZTIN7android8hardware6ReturnIvEE",
   "source_file" : "/out/soong/.intermediates/hardware/interfaces/neuralnetworks/1.3/android.hardware.neuralnetworks@1.3_genc++_headers/gen/android/hardware/neuralnetworks/1.3/IExecutionCallback.h"
  },
  {
   "function_name" : "android::hardware::neuralnetworks::V1_3::IExecutionCallback::getHashChain",
   "linker_set_key" : "_ZN7android8hardware14neuralnetworks4V1_318IExecutionCallback12getHashChainENSt3__18functionIFvRKNS0_8hidl_vecINS0_10hidl_arrayIhLj32EJEEEEEEEE",
   "parameters" :
   [
    {
     "is_this_ptr" : true,
     "referenced_type" : "_ZTIPN7android8hardware14neuralnetworks4V1_318IExecutionCallbackE"
    },
    {
     "referenced_type" : "_ZTINSt3__18functionIFvRKN7android8hardware8hidl_vecINS2_10hidl_arrayIhLj32EJEEEEEEEE"
    }
   ],
   "return_type" : "_ZTIN7android8hardware6ReturnIvEE",
   "source_file" : "/out/soong/.intermediates/hardware/interfaces/neuralnetworks/1.3/android.hardware.neuralnetworks@1.3_genc++_headers/gen/android/hardware/neuralnetworks/1.3/IExecutionCallback.h"
  },
  {
   "function_name" : "android::hardware::neuralnetworks::V1_3::IExecutionCallback::tryGetService",
   "linker_set_key" : "_ZN7android8hardware14neuralnetworks4V1_318IExecutionCallback13tryGetServiceERKNSt3__112basic_stringIcNS4_11char_traitsIcEENS4_9allocatorIcEEEEb",
   "parameters" :
   [
    {
     "default_arg" : true,
     "referenced_type" : "_ZTIRKNSt3__112basic_stringIcNS_11char_traitsIcEENS_9allocatorIcEEEE"
    },
    {
     "default_arg" : true,
     "referenced_type" : "_ZTIb"
    }
   ],
   "return_type" : "_ZTIN7android2spINS_8hardware14neuralnetworks4V1_318IExecutionCallbackEEE",
   "source_file" : "/out/soong/.intermediates/hardware/interfaces/neuralnetworks/1.3/android.hardware.neuralnetworks@1.3_genc++_headers/gen/android/hardware/neuralnetworks/1.3/IExecutionCallback.h"
  },
  {
   "function_name" : "android::hardware::neuralnetworks::V1_3::IExecutionCallback::unlinkToDeath",
   "linker_set_key" : "_ZN7android8hardware14neuralnetworks4V1_318IExecutionCallback13unlinkToDeathERKNS_2spINS0_20hidl_death_recipientEEE",
   "parameters" :
   [
    {
     "is_this_ptr" : true,
     "referenced_type" : "_ZTIPN7android8hardware14neuralnetworks4V1_318IExecutionCallbackE"
    },
    {
     "referenced_type" : "_ZTIRKN7android2spINS_8hardware20hidl_death_recipientEEE"
    }
   ],
   "return_type" : "_ZTIN7android8hardware6ReturnIbEE",
   "source_file" : "/out/soong/.intermediates/hardware/interfaces/neuralnetworks/1.3/android.hardware.neuralnetworks@1.3_genc++_headers/gen/android/hardware/neuralnetworks/1.3/IExecutionCallback.h"
  },
  {
   "function_name" : "android::hardware::neuralnetworks::V1_3::IExecutionCallback::interfaceChain",
   "linker_set_key" : "_ZN7android8hardware14neuralnetworks4V1_318IExecutionCallback14interfaceChainENSt3__18functionIFvRKNS0_8hidl_vecINS0_11hidl_stringEEEEEE",
   "parameters" :
   [
    {
     "is_this_ptr" : true,
     "referenced_type" : "_ZTIPN7android8hardware14neuralnetworks4V1_318IExecutionCallbackE"
    },
    {
     "referenced_type" : "_ZTINSt3__18functionIFvRKN7android8hardware8hidl_vecINS2_11hidl_stringEEEEEE"
    }
   ],
   "return_type" : "_ZTIN7android8hardware6ReturnIvEE",
   "source_file" : "/out/soong/.intermediates/hardware/interfaces/neuralnetworks/1.3/android.hardware.neuralnetworks@1.3_genc++_headers/gen/android/hardware/neuralnetworks/1.3/IExecutionCallback.h"
  },
  {
   "function_name" : "android::hardware::neuralnetworks::V1_3::IExecutionCallback::registerAsService",
   "linker_set_key" : "_ZN7android8hardware14neuralnetworks4V1_318IExecutionCallback17registerAsServiceERKNSt3__112basic_stringIcNS4_11char_traitsIcEENS4_9allocatorIcEEEE",
   "parameters" :
   [
    {
     "is_this_ptr" : true,
     "referenced_type" : "_ZTIPN7android8hardware14neuralnetworks4V1_318IExecutionCallbackE"
    },
    {
     "default_arg" : true,
     "referenced_type" : "_ZTIRKNSt3__112basic_stringIcNS_11char_traitsIcEENS_9allocatorIcEEEE"
    }
   ],
   "return_type" : "_ZTIi",
   "source_file" : "/out/soong/.intermediates/hardware/interfaces/neuralnetworks/1.3/android.hardware.neuralnetworks@1.3_genc++_headers/gen/android/hardware/neuralnetworks/1.3/IExecutionCallback.h"
  },
  {
   "function_name" : "android::hardware::neuralnetworks::V1_3::IExecutionCallback::interfaceDescriptor",
   "linker_set_key" : "_ZN7android8hardware14neuralnetworks4V1_318IExecutionCallback19interfaceDescriptorENSt3__18functionIFvRKNS0_11hidl_stringEEEE",
   "parameters" :
   [
    {
     "is_this_ptr" : true,
     "referenced_type" : "_ZTIPN7android8hardware14neuralnetworks4V1_318IExecutionCallbackE"
    },
    {
     "referenced_type" : "_ZTINSt3__18functionIFvRKN7android8hardware11hidl_stringEEEE"
    }
   ],
   "return_type" : "_ZTIN7android8hardware6ReturnIvEE",
   "source_file" : "/out/soong/.intermediates/hardware/interfaces/neuralnetworks/1.3/android.hardware.neuralnetworks@1.3_genc++_headers/gen/android/hardware/neuralnetworks/1.3/IExecutionCallback.h"
  },
  {
   "function_name" : "android::hardware::neuralnetworks::V1_3::IExecutionCallback::notifySyspropsChanged",
   "linker_set_key" : "_ZN7android8hardware14neuralnetworks4V1_318IExecutionCallback21notifySyspropsChangedEv",
   "parameters" :
   [
    {
     "is_this_ptr" : true,
     "referenced_type" : "_ZTIPN7android8hardware14neuralnetworks4V1_318IExecutionCallbackE"
    }
   ],
   "return_type" : "_ZTIN7android8hardware6ReturnIvEE",
   "source_file" : "/out/soong/.intermediates/hardware/interfaces/neuralnetworks/1.3/android.hardware.neuralnetworks@1.3_genc++_headers/gen/android/hardware/neuralnetworks/1.3/IExecutionCallback.h"
  },
  {
   "function_name" : "android::hardware::neuralnetworks::V1_3::IExecutionCallback::setHALInstrumentation",
   "linker_set_key" : "_ZN7android8hardware14neuralnetworks4V1_318IExecutionCallback21setHALInstrumentationEv",
   "parameters" :
   [
    {
     "is_this_ptr" : true,
     "referenced_type" : "_ZTIPN7android8hardware14neuralnetworks4V1_318IExecutionCallbackE"
    }
   ],
   "return_type" : "_ZTIN7android8hardware6ReturnIvEE",
   "source_file" : "/out/soong/.intermediates/hardware/interfaces/neuralnetworks/1.3/android.hardware.neuralnetworks@1.3_genc++_headers/gen/android/hardware/neuralnetworks/1.3/IExecutionCallback.h"
  },
  {
   "function_name" : "android::hardware::neuralnetworks::V1_3::IExecutionCallback::registerForNotifications",
   "linker_set_key" : "_ZN7android8hardware14neuralnetworks4V1_318IExecutionCallback24registerForNotificationsERKNSt3__112basic_stringIcNS4_11char_traitsIcEENS4_9allocatorIcEEEERKNS_2spINS_4hidl7manager4V1_020IServiceNotificationEEE",
   "parameters" :
   [
    {
     "referenced_type" : "_ZTIRKNSt3__112basic_stringIcNS_11char_traitsIcEENS_9allocatorIcEEEE"
    },
    {
     "referenced_type" : "_ZTIRKN7android2spINS_4hidl7manager4V1_020IServiceNotificationEEE"
    }
   ],
   "return_type" : "_ZTIb",
   "source_file" : "/out/soong/.intermediates/hardware/interfaces/neuralnetworks/1.3/android.hardware.neuralnetworks@1.3_genc++_headers/gen/android/hardware/neuralnetworks/1.3/IExecutionCallback.h"
  },
  {
   "function_name" : "android::hardware::neuralnetworks::V1_3::IExecutionCallback::ping",
   "linker_set_key" : "_ZN7android8hardware14neuralnetworks4V1_318IExecutionCallback4pingEv",
   "parameters" :
   [
    {
     "is_this_ptr" : true,
     "referenced_type" : "_ZTIPN7android8hardware14neuralnetworks4V1_318IExecutionCallbackE"
    }
   ],
   "return_type" : "_ZTIN7android8hardware6ReturnIvEE",
   "source_file" : "/out/soong/.intermediates/hardware/interfaces/neuralnetworks/1.3/android.hardware.neuralnetworks@1.3_genc++_headers/gen/android/hardware/neuralnetworks/1.3/IExecutionCallback.h"
  },
  {
   "function_name" : "android::hardware::neuralnetworks::V1_3::IExecutionCallback::debug",
   "linker_set_key" : "_ZN7android8hardware14neuralnetworks4V1_318IExecutionCallback5debugERKNS0_11hidl_handleERKNS0_8hidl_vecINS0_11hidl_stringEEE",
   "parameters" :
   [
    {
     "is_this_ptr" : true,
     "referenced_type" : "_ZTIPN7android8hardware14neuralnetworks4V1_318IExecutionCallbackE"
    },
    {
     "referenced_type" : "_ZTIRKN7android8hardware11hidl_handleE"
    },
    {
     "referenced_type" : "_ZTIRKN7android8hardware8hidl_vecINS0_11hidl_stringEEE"
    }
   ],
   "return_type" : "_ZTIN7android8hardware6ReturnIvEE",
   "source_file" : "/out/soong/.intermediates/hardware/interfaces/neuralnetworks/1.3/android.hardware.neuralnetworks@1.3_genc++_headers/gen/android/hardware/neuralnetworks/1.3/IExecutionCallback.h"
  },
  {
   "function_name" : "android::hardware::neuralnetworks::V1_3::IExecutionCallback::castFrom",
   "linker_set_key" : "_ZN7android8hardware14neuralnetworks4V1_318IExecutionCallback8castFromERKNS_2spINS1_4V1_018IExecutionCallbackEEEb",
   "parameters" :
   [
    {
     "referenced_type" : "_ZTIRKN7android2spINS_8hardware14neuralnetworks4V1_018IExecutionCallbackEEE"
    },
    {
     "default_arg" : true,
     "referenced_type" : "_ZTIb"
    }
   ],
   "return_type" : "_ZTIN7android8hardware6ReturnINS_2spINS0_14neuralnetworks4V1_318IExecutionCallbackEEEEE",
   "source_file" : "/out/soong/.intermediates/hardware/interfaces/neuralnetworks/1.3/android.hardware.neuralnetworks@1.3_genc++_headers/gen/android/hardware/neuralnetworks/1.3/IExecutionCallback.h"
  },
  {
   "function_name" : "android::hardware::neuralnetworks::V1_3::IExecutionCallback::castFrom",
   "linker_set_key" : "_ZN7android8hardware14neuralnetworks4V1_318IExecutionCallback8castFromERKNS_2spINS1_4V1_218IExecutionCallbackEEEb",
   "parameters" :
   [
    {
     "referenced_type" : "_ZTIRKN7android2spINS_8hardware14neuralnetworks4V1_218IExecutionCallbackEEE"
    },
    {
     "default_arg" : true,
     "referenced_type" : "_ZTIb"
    }
   ],
   "return_type" : "_ZTIN7android8hardware6ReturnINS_2spINS0_14neuralnetworks4V1_318IExecutionCallbackEEEEE",
   "source_file" : "/out/soong/.intermediates/hardware/interfaces/neuralnetworks/1.3/android.hardware.neuralnetworks@1.3_genc++_headers/gen/android/hardware/neuralnetworks/1.3/IExecutionCallback.h"
  },
  {
   "function_name" : "android::hardware::neuralnetworks::V1_3::IExecutionCallback::castFrom",
   "linker_set_key" : "_ZN7android8hardware14neuralnetworks4V1_318IExecutionCallback8castFromERKNS_2spINS_4hidl4base4V1_05IBaseEEEb",
   "parameters" :
   [
    {
     "referenced_type" : "_ZTIRKN7android2spINS_4hidl4base4V1_05IBaseEEE"
    },
    {
     "default_arg" : true,
     "referenced_type" : "_ZTIb"
    }
   ],
   "return_type" : "_ZTIN7android8hardware6ReturnINS_2spINS0_14neuralnetworks4V1_318IExecutionCallbackEEEEE",
   "source_file" : "/out/soong/.intermediates/hardware/interfaces/neuralnetworks/1.3/android.hardware.neuralnetworks@1.3_genc++_headers/gen/android/hardware/neuralnetworks/1.3/IExecutionCallback.h"
  },
  {
   "function_name" : "android::hardware::neuralnetworks::V1_3::IExecutionCallback::castFrom",
   "linker_set_key" : "_ZN7android8hardware14neuralnetworks4V1_318IExecutionCallback8castFromERKNS_2spIS3_EEb",
   "parameters" :
   [
    {
     "referenced_type" : "_ZTIRKN7android2spINS_8hardware14neuralnetworks4V1_318IExecutionCallbackEEE"
    },
    {
     "default_arg" : true,
     "referenced_type" : "_ZTIb"
    }
   ],
   "return_type" : "_ZTIN7android8hardware6ReturnINS_2spINS0_14neuralnetworks4V1_318IExecutionCallbackEEEEE",
   "source_file" : "/out/soong/.intermediates/hardware/interfaces/neuralnetworks/1.3/android.hardware.neuralnetworks@1.3_genc++_headers/gen/android/hardware/neuralnetworks/1.3/IExecutionCallback.h"
  },
  {
   "access" : "private",
   "function_name" : "android::hardware::neuralnetworks::V1_3::BsExecutionCallback::addOnewayTask",
   "linker_set_key" : "_ZN7android8hardware14neuralnetworks4V1_319BsExecutionCallback13addOnewayTaskENSt3__18functionIFvvEEE",
   "parameters" :
   [
    {
     "is_this_ptr" : true,
     "referenced_type" : "_ZTIPN7android8hardware14neuralnetworks4V1_319BsExecutionCallbackE"
    },
    {
     "referenced_type" : "_ZTINSt3__18functionIFvvEEE"
    }
   ],
   "return_type" : "_ZTIN7android8hardware6ReturnIvEE",
   "source_file" : "/out/soong/.intermediates/hardware/interfaces/neuralnetworks/1.3/android.hardware.neuralnetworks@1.3_genc++_headers/gen/android/hardware/neuralnetworks/1.3/BsExecutionCallback.h"
  },
  {
   "function_name" : "android::hardware::neuralnetworks::V1_3::BsExecutionCallback::BsExecutionCallback",
   "linker_set_key" : "_ZN7android8hardware14neuralnetworks4V1_319BsExecutionCallbackC1ENS_2spINS2_18IExecutionCallbackEEE",
   "parameters" :
   [
    {
     "is_this_ptr" : true,
     "referenced_type" : "_ZTIPN7android8hardware14neuralnetworks4V1_319BsExecutionCallbackE"
    },
    {
     "referenced_type" : "_ZTIKN7android2spINS_8hardware14neuralnetworks4V1_318IExecutionCallbackEEE"
    }
   ],
   "return_type" : "_ZTIv",
   "source_file" : "/out/soong/.intermediates/hardware/interfaces/neuralnetworks/1.3/android.hardware.neuralnetworks@1.3_genc++_headers/gen/android/hardware/neuralnetworks/1.3/BsExecutionCallback.h"
  },
  {
   "function_name" : "android::hardware::neuralnetworks::V1_3::BsExecutionCallback::BsExecutionCallback",
   "linker_set_key" : "_ZN7android8hardware14neuralnetworks4V1_319BsExecutionCallbackC2ENS_2spINS2_18IExecutionCallbackEEE",
   "parameters" :
   [
    {
     "is_this_ptr" : true,
     "referenced_type" : "_ZTIPN7android8hardware14neuralnetworks4V1_319BsExecutionCallbackE"
    },
    {
     "referenced_type" : "_ZTIKN7android2spINS_8hardware14neuralnetworks4V1_318IExecutionCallbackEEE"
    }
   ],
   "return_type" : "_ZTIv",
   "source_file" : "/out/soong/.intermediates/hardware/interfaces/neuralnetworks/1.3/android.hardware.neuralnetworks@1.3_genc++_headers/gen/android/hardware/neuralnetworks/1.3/BsExecutionCallback.h"
  },
  {
   "function_name" : "android::hardware::neuralnetworks::V1_3::BnHwExecutionCallback::onTransact",
   "linker_set_key" : "_ZN7android8hardware14neuralnetworks4V1_321BnHwExecutionCallback10onTransactEjRKNS0_6ParcelEPS4_jNSt3__18functionIFvRS4_EEE",
   "parameters" :
   [
    {
     "is_this_ptr" : true,
     "referenced_type" : "_ZTIPN7android8hardware14neuralnetworks4V1_321BnHwExecutionCallbackE"
    },
    {
     "referenced_type" : "_ZTIj"
    },
    {
     "referenced_type" : "_ZTIRKN7android8hardware6ParcelE"
    },
    {
     "referenced_type" : "_ZTIPN7android8hardware6ParcelE"
    },
    {
     "default_arg" : true,
     "referenced_type" : "_ZTIj"
    },
    {
     "default_arg" : true,
     "referenced_type" : "_ZTINSt3__18functionIFvRN7android8hardware6ParcelEEEE"
    }
   ],
   "return_type" : "_ZTIi",
   "source_file" : "/out/soong/.intermediates/hardware/interfaces/neuralnetworks/1.3/android.hardware.neuralnetworks@1.3_genc++_headers/gen/android/hardware/neuralnetworks/1.3/BnHwExecutionCallback.h"
  },
  {
   "access" : "private",
   "function_name" : "android::hardware::neuralnetworks::V1_3::BnHwExecutionCallback::getDebugInfo",
   "linker_set_key" : "_ZN7android8hardware14neuralnetworks4V1_321BnHwExecutionCallback12getDebugInfoENSt3__18functionIFvRKNS_4hidl4base4V1_09DebugInfoEEEE",
   "parameters" :
   [
    {
     "is_this_ptr" : true,
     "referenced_type" : "_ZTIPN7android8hardware14neuralnetworks4V1_321BnHwExecutionCallbackE"
    },
    {
     "referenced_type" : "_ZTINSt3__18functionIFvRKN7android4hidl4base4V1_09DebugInfoEEEE"
    }
   ],
   "return_type" : "_ZTIN7android8hardware6ReturnIvEE",
   "source_file" : "/out/soong/.intermediates/hardware/interfaces/neuralnetworks/1.3/android.hardware.neuralnetworks@1.3_genc++_headers/gen/android/hardware/neuralnetworks/1.3/BnHwExecutionCallback.h"
  },
  {
   "function_name" : "android::hardware::neuralnetworks::V1_3::BnHwExecutionCallback::_hidl_notify_1_3",
   "linker_set_key" : "_ZN7android8hardware14neuralnetworks4V1_321BnHwExecutionCallback16_hidl_notify_1_3EPNS_4hidl4base4V1_08BnHwBaseERKNS0_6ParcelEPS9_NSt3__18functionIFvRS9_EEE",
   "parameters" :
   [
    {
     "referenced_type" : "_ZTIPN7android4hidl4base4V1_08BnHwBaseE"
    },
    {
     "referenced_type" : "_ZTIRKN7android8hardware6ParcelE"
    },
    {
     "referenced_type" : "_ZTIPN7android8hardware6ParcelE"
    },
    {
     "referenced_type" : "_ZTINSt3__18functionIFvRN7android8hardware6ParcelEEEE"
    }
   ],
   "return_type" : "_ZTIi",
   "source_file" : "/out/soong/.intermediates/hardware/interfaces/neuralnetworks/1.3/android.hardware.neuralnetworks@1.3_genc++_headers/gen/android/hardware/neuralnetworks/1.3/BnHwExecutionCallback.h"
  },
  {
   "access" : "private",
   "function_name" : "android::hardware::neuralnetworks::V1_3::BnHwExecutionCallback::ping",
   "linker_set_key" : "_ZN7android8hardware14neuralnetworks4V1_321BnHwExecutionCallback4pingEv",
   "parameters" :
   [
    {
     "is_this_ptr" : true,
     "referenced_type" : "_ZTIPN7android8hardware14neuralnetworks4V1_321BnHwExecutionCallbackE"
    }
   ],
   "return_type" : "_ZTIN7android8hardware6ReturnIvEE",
   "source_file" : "/out/soong/.intermediates/hardware/interfaces/neuralnetworks/1.3/android.hardware.neuralnetworks@1.3_genc++_headers/gen/android/hardware/neuralnetworks/1.3/BnHwExecutionCallback.h"
  },
  {
   "function_name" : "android::hardware::neuralnetworks::V1_3::BnHwExecutionCallback::BnHwExecutionCallback",
   "linker_set_key" : "_ZN7android8hardware14neuralnetworks4V1_321BnHwExecutionCallbackC1ERKNS_2spINS2_18IExecutionCallbackEEE",
   "parameters" :
   [
    {
     "is_this_ptr" : true,
     "referenced_type" : "_ZTIPN7android8hardware14neuralnetworks4V1_321BnHwExecutionCallbackE"
    },
    {
     "referenced_type" : "_ZTIRKN7android2spINS_8hardware14neuralnetworks4V1_318IExecutionCallbackEEE"
    }
   ],
   "return_type" : "_ZTIv",
   "source_file" : "/out/soong/.intermediates/hardware/interfaces/neuralnetworks/1.3/android.hardware.neuralnetworks@1.3_genc++_headers/gen/android/hardware/neuralnetworks/1.3/BnHwExecutionCallback.h"
  },
  {
   "function_name" : "android::hardware::neuralnetworks::V1_3::BnHwExecutionCallback::BnHwExecutionCallback",
   "linker_set_key" : "_ZN7android8hardware14neuralnetworks4V1_321BnHwExecutionCallbackC2ERKNS_2spINS2_18IExecutionCallbackEEE",
   "parameters" :
   [
    {
     "is_this_ptr" : true,
     "referenced_type" : "_ZTIPN7android8hardware14neuralnetworks4V1_321BnHwExecutionCallbackE"
    },
    {
     "referenced_type" : "_ZTIRKN7android2spINS_8hardware14neuralnetworks4V1_318IExecutionCallbackEEE"
    }
   ],
   "return_type" : "_ZTIv",
   "source_file" : "/out/soong/.intermediates/hardware/interfaces/neuralnetworks/1.3/android.hardware.neuralnetworks@1.3_genc++_headers/gen/android/hardware/neuralnetworks/1.3/BnHwExecutionCallback.h"
  },
  {
   "function_name" : "android::hardware::neuralnetworks::V1_3::BnHwExecutionCallback::~BnHwExecutionCallback",
   "linker_set_key" : "_ZN7android8hardware14neuralnetworks4V1_321BnHwExecutionCallbackD0Ev",
   "parameters" :
   [
    {
     "is_this_ptr" : true,
     "referenced_type" : "_ZTIPN7android8hardware14neuralnetworks4V1_321BnHwExecutionCallbackE"
    }
   ],
   "return_type" : "_ZTIv",
   "source_file" : "/out/soong/.intermediates/hardware/interfaces/neuralnetworks/1.3/android.hardware.neuralnetworks@1.3_genc++_headers/gen/android/hardware/neuralnetworks/1.3/BnHwExecutionCallback.h"
  },
  {
   "function_name" : "android::hardware::neuralnetworks::V1_3::BnHwExecutionCallback::~BnHwExecutionCallback",
   "linker_set_key" : "_ZN7android8hardware14neuralnetworks4V1_321BnHwExecutionCallbackD1Ev",
   "parameters" :
   [
    {
     "is_this_ptr" : true,
     "referenced_type" : "_ZTIPN7android8hardware14neuralnetworks4V1_321BnHwExecutionCallbackE"
    }
   ],
   "return_type" : "_ZTIv",
   "source_file" : "/out/soong/.intermediates/hardware/interfaces/neuralnetworks/1.3/android.hardware.neuralnetworks@1.3_genc++_headers/gen/android/hardware/neuralnetworks/1.3/BnHwExecutionCallback.h"
  },
  {
   "function_name" : "android::hardware::neuralnetworks::V1_3::BnHwExecutionCallback::~BnHwExecutionCallback",
   "linker_set_key" : "_ZN7android8hardware14neuralnetworks4V1_321BnHwExecutionCallbackD2Ev",
   "parameters" :
   [
    {
     "is_this_ptr" : true,
     "referenced_type" : "_ZTIPN7android8hardware14neuralnetworks4V1_321BnHwExecutionCallbackE"
    }
   ],
   "return_type" : "_ZTIv",
   "source_file" : "/out/soong/.intermediates/hardware/interfaces/neuralnetworks/1.3/android.hardware.neuralnetworks@1.3_genc++_headers/gen/android/hardware/neuralnetworks/1.3/BnHwExecutionCallback.h"
  },
  {
   "function_name" : "android::hardware::neuralnetworks::V1_3::BpHwExecutionCallback::notify_1_2",
   "linker_set_key" : "_ZN7android8hardware14neuralnetworks4V1_321BpHwExecutionCallback10notify_1_2ENS1_4V1_011ErrorStatusERKNS0_8hidl_vecINS1_4V1_211OutputShapeEEERKNS7_6TimingE",
   "parameters" :
   [
    {
     "is_this_ptr" : true,
     "referenced_type" : "_ZTIPN7android8hardware14neuralnetworks4V1_321BpHwExecutionCallbackE"
    },
    {
     "referenced_type" : "_ZTIN7android8hardware14neuralnetworks4V1_011ErrorStatusE"
    },
    {
     "referenced_type" : "_ZTIRKN7android8hardware8hidl_vecINS0_14neuralnetworks4V1_211OutputShapeEEE"
    },
    {
     "referenced_type" : "_ZTIRKN7android8hardware14neuralnetworks4V1_26TimingE"
    }
   ],
   "return_type" : "_ZTIN7android8hardware6ReturnIvEE",
   "source_file" : "/out/soong/.intermediates/hardware/interfaces/neuralnetworks/1.3/android.hardware.neuralnetworks@1.3_genc++_headers/gen/android/hardware/neuralnetworks/1.3/BpHwExecutionCallback.h"
  },
  {
   "function_name" : "android::hardware::neuralnetworks::V1_3::BpHwExecutionCallback::notify_1_3",
   "linker_set_key" : "_ZN7android8hardware14neuralnetworks4V1_321BpHwExecutionCallback10notify_1_3ENS2_11ErrorStatusERKNS0_8hidl_vecINS1_4V1_211OutputShapeEEERKNS6_6TimingE",
   "parameters" :
   [
    {
     "is_this_ptr" : true,
     "referenced_type" : "_ZTIPN7android8hardware14neuralnetworks4V1_321BpHwExecutionCallbackE"
    },
    {
     "referenced_type" : "_ZTIN7android8hardware14neuralnetworks4V1_311ErrorStatusE"
    },
    {
     "referenced_type" : "_ZTIRKN7android8hardware8hidl_vecINS0_14neuralnetworks4V1_211OutputShapeEEE"
    },
    {
     "referenced_type" : "_ZTIRKN7android8hardware14neuralnetworks4V1_26TimingE"
    }
   ],
   "return_type" : "_ZTIN7android8hardware6ReturnIvEE",
   "source_file" : "/out/soong/.intermediates/hardware/interfaces/neuralnetworks/1.3/android.hardware.neuralnetworks@1.3_genc++_headers/gen/android/hardware/neuralnetworks/1.3/BpHwExecutionCallback.h"
  },
  {
   "function_name" : "android::hardware::neuralnetworks::V1_3::BpHwExecutionCallback::linkToDeath",
   "linker_set_key" : "_ZN7android8hardware14neuralnetworks4V1_321BpHwExecutionCallback11linkToDeathERKNS_2spINS0_20hidl_death_recipientEEEy",
   "parameters" :
   [
    {
     "is_this_ptr" : true,
     "referenced_type" : "_ZTIPN7android8hardware14neuralnetworks4V1_321BpHwExecutionCallbackE"
    },
    {
     "referenced_type" : "_ZTIRKN7android2spINS_8hardware20hidl_death_recipientEEE"
    },
    {
     "referenced_type" : "_ZTIy"
    }
   ],
   "return_type" : "_ZTIN7android8hardware6ReturnIbEE",
   "source_file" : "/out/soong/.intermediates/hardware/interfaces/neuralnetworks/1.3/android.hardware.neuralnetworks@1.3_genc++_headers/gen/android/hardware/neuralnetworks/1.3/BpHwExecutionCallback.h"
  },
  {
   "function_name" : "android::hardware::neuralnetworks::V1_3::BpHwExecutionCallback::getDebugInfo",
   "linker_set_key" : "_ZN7android8hardware14neuralnetworks4V1_321BpHwExecutionCallback12getDebugInfoENSt3__18functionIFvRKNS_4hidl4base4V1_09DebugInfoEEEE",
   "parameters" :
   [
    {
     "is_this_ptr" : true,
     "referenced_type" : "_ZTIPN7android8hardware14neuralnetworks4V1_321BpHwExecutionCallbackE"
    },
    {
     "referenced_type" : "_ZTINSt3__18functionIFvRKN7android4hidl4base4V1_09DebugInfoEEEE"
    }
   ],
   "return_type" : "_ZTIN7android8hardware6ReturnIvEE",
   "source_file" : "/out/soong/.intermediates/hardware/interfaces/neuralnetworks/1.3/android.hardware.neuralnetworks@1.3_genc++_headers/gen/android/hardware/neuralnetworks/1.3/BpHwExecutionCallback.h"
  },
  {
   "function_name" : "android::hardware::neuralnetworks::V1_3::BpHwExecutionCallback::getHashChain",
   "linker_set_key" : "_ZN7android8hardware14neuralnetworks4V1_321BpHwExecutionCallback12getHashChainENSt3__18functionIFvRKNS0_8hidl_vecINS0_10hidl_arrayIhLj32EJEEEEEEEE",
   "parameters" :
   [
    {
     "is_this_ptr" : true,
     "referenced_type" : "_ZTIPN7android8hardware14neuralnetworks4V1_321BpHwExecutionCallbackE"
    },
    {
     "referenced_type" : "_ZTINSt3__18functionIFvRKN7android8hardware8hidl_vecINS2_10hidl_arrayIhLj32EJEEEEEEEE"
    }
   ],
   "return_type" : "_ZTIN7android8hardware6ReturnIvEE",
   "source_file" : "/out/soong/.intermediates/hardware/interfaces/neuralnetworks/1.3/android.hardware.neuralnetworks@1.3_genc++_headers/gen/android/hardware/neuralnetworks/1.3/BpHwExecutionCallback.h"
  },
  {
   "function_name" : "android::hardware::neuralnetworks::V1_3::BpHwExecutionCallback::unlinkToDeath",
   "linker_set_key" : "_ZN7android8hardware14neuralnetworks4V1_321BpHwExecutionCallback13unlinkToDeathERKNS_2spINS0_20hidl_death_recipientEEE",
   "parameters" :
   [
    {
     "is_this_ptr" : true,
     "referenced_type" : "_ZTIPN7android8hardware14neuralnetworks4V1_321BpHwExecutionCallbackE"
    },
    {
     "referenced_type" : "_ZTIRKN7android2spINS_8hardware20hidl_death_recipientEEE"
    }
   ],
   "return_type" : "_ZTIN7android8hardware6ReturnIbEE",
   "source_file" : "/out/soong/.intermediates/hardware/interfaces/neuralnetworks/1.3/android.hardware.neuralnetworks@1.3_genc++_headers/gen/android/hardware/neuralnetworks/1.3/BpHwExecutionCallback.h"
  },
  {
   "function_name" : "android::hardware::neuralnetworks::V1_3::BpHwExecutionCallback::interfaceChain",
   "linker_set_key" : "_ZN7android8hardware14neuralnetworks4V1_321BpHwExecutionCallback14interfaceChainENSt3__18functionIFvRKNS0_8hidl_vecINS0_11hidl_stringEEEEEE",
   "parameters" :
   [
    {
     "is_this_ptr" : true,
     "referenced_type" : "_ZTIPN7android8hardware14neuralnetworks4V1_321BpHwExecutionCallbackE"
    },
    {
     "referenced_type" : "_ZTINSt3__18functionIFvRKN7android8hardware8hidl_vecINS2_11hidl_stringEEEEEE"
    }
   ],
   "return_type" : "_ZTIN7android8hardware6ReturnIvEE",
   "source_file" : "/out/soong/.intermediates/hardware/interfaces/neuralnetworks/1.3/android.hardware.neuralnetworks@1.3_genc++_headers/gen/android/hardware/neuralnetworks/1.3/BpHwExecutionCallback.h"
  },
  {
   "function_name" : "android::hardware::neuralnetworks::V1_3::BpHwExecutionCallback::onLastStrongRef",
   "linker_set_key" : "_ZN7android8hardware14neuralnetworks4V1_321BpHwExecutionCallback15onLastStrongRefEPKv",
   "parameters" :
   [
    {
     "is_this_ptr" : true,
     "referenced_type" : "_ZTIPN7android8hardware14neuralnetworks4V1_321BpHwExecutionCallbackE"
    },
    {
     "referenced_type" : "_ZTIPKv"
    }
   ],
   "return_type" : "_ZTIv",
   "source_file" : "/out/soong/.intermediates/hardware/interfaces/neuralnetworks/1.3/android.hardware.neuralnetworks@1.3_genc++_headers/gen/android/hardware/neuralnetworks/1.3/BpHwExecutionCallback.h"
  },
  {
   "function_name" : "android::hardware::neuralnetworks::V1_3::BpHwExecutionCallback::_hidl_notify_1_3",
   "linker_set_key" : "_ZN7android8hardware14neuralnetworks4V1_321BpHwExecutionCallback16_hidl_notify_1_3EPNS0_10IInterfaceEPNS0_7details16HidlInstrumentorENS2_11ErrorStatusERKNS0_8hidl_vecINS1_4V1_211OutputShapeEEERKNSB_6TimingE",
   "parameters" :
   [
    {
     "referenced_type" : "_ZTIPN7android8hardware10IInterfaceE"
    },
    {
     "referenced_type" : "_ZTIPN7android8hardware7details16HidlInstrumentorE"
    },
    {
     "referenced_type" : "_ZTIN7android8hardware14neuralnetworks4V1_311ErrorStatusE"
    },
    {
     "referenced_type" : "_ZTIRKN7android8hardware8hidl_vecINS0_14neuralnetworks4V1_211OutputShapeEEE"
    },
    {
     "referenced_type" : "_ZTIRKN7android8hardware14neuralnetworks4V1_26TimingE"
    }
   ],
   "return_type" : "_ZTIN7android8hardware6ReturnIvEE",
   "source_file" : "/out/soong/.intermediates/hardware/interfaces/neuralnetworks/1.3/android.hardware.neuralnetworks@1.3_genc++_headers/gen/android/hardware/neuralnetworks/1.3/BpHwExecutionCallback.h"
  },
  {
   "function_name" : "android::hardware::neuralnetworks::V1_3::BpHwExecutionCallback::interfaceDescriptor",
   "linker_set_key" : "_ZN7android8hardware14neuralnetworks4V1_321BpHwExecutionCallback19interfaceDescriptorENSt3__18functionIFvRKNS0_11hidl_stringEEEE",
   "parameters" :
   [
    {
     "is_this_ptr" : true,
     "referenced_type" : "_ZTIPN7android8hardware14neuralnetworks4V1_321BpHwExecutionCallbackE"
    },
    {
     "referenced_type" : "_ZTINSt3__18functionIFvRKN7android8hardware11hidl_stringEEEE"
    }
   ],
   "return_type" : "_ZTIN7android8hardware6ReturnIvEE",
   "source_file" : "/out/soong/.intermediates/hardware/interfaces/neuralnetworks/1.3/android.hardware.neuralnetworks@1.3_genc++_headers/gen/android/hardware/neuralnetworks/1.3/BpHwExecutionCallback.h"
  },
  {
   "function_name" : "android::hardware::neuralnetworks::V1_3::BpHwExecutionCallback::notifySyspropsChanged",
   "linker_set_key" : "_ZN7android8hardware14neuralnetworks4V1_321BpHwExecutionCallback21notifySyspropsChangedEv",
   "parameters" :
   [
    {
     "is_this_ptr" : true,
     "referenced_type" : "_ZTIPN7android8hardware14neuralnetworks4V1_321BpHwExecutionCallbackE"
    }
   ],
   "return_type" : "_ZTIN7android8hardware6ReturnIvEE",
   "source_file" : "/out/soong/.intermediates/hardware/interfaces/neuralnetworks/1.3/android.hardware.neuralnetworks@1.3_genc++_headers/gen/android/hardware/neuralnetworks/1.3/BpHwExecutionCallback.h"
  },
  {
   "function_name" : "android::hardware::neuralnetworks::V1_3::BpHwExecutionCallback::setHALInstrumentation",
   "linker_set_key" : "_ZN7android8hardware14neuralnetworks4V1_321BpHwExecutionCallback21setHALInstrumentationEv",
   "parameters" :
   [
    {
     "is_this_ptr" : true,
     "referenced_type" : "_ZTIPN7android8hardware14neuralnetworks4V1_321BpHwExecutionCallbackE"
    }
   ],
   "return_type" : "_ZTIN7android8hardware6ReturnIvEE",
   "source_file" : "/out/soong/.intermediates/hardware/interfaces/neuralnetworks/1.3/android.hardware.neuralnetworks@1.3_genc++_headers/gen/android/hardware/neuralnetworks/1.3/BpHwExecutionCallback.h"
  },
  {
   "function_name" : "android::hardware::neuralnetworks::V1_3::BpHwExecutionCallback::ping",
   "linker_set_key" : "_ZN7android8hardware14neuralnetworks4V1_321BpHwExecutionCallback4pingEv",
   "parameters" :
   [
    {
     "is_this_ptr" : true,
     "referenced_type" : "_ZTIPN7android8hardware14neuralnetworks4V1_321BpHwExecutionCallbackE"
    }
   ],
   "return_type" : "_ZTIN7android8hardware6ReturnIvEE",
   "source_file" : "/out/soong/.intermediates/hardware/interfaces/neuralnetworks/1.3/android.hardware.neuralnetworks@1.3_genc++_headers/gen/android/hardware/neuralnetworks/1.3/BpHwExecutionCallback.h"
  },
  {
   "function_name" : "android::hardware::neuralnetworks::V1_3::BpHwExecutionCallback::debug",
   "linker_set_key" : "_ZN7android8hardware14neuralnetworks4V1_321BpHwExecutionCallback5debugERKNS0_11hidl_handleERKNS0_8hidl_vecINS0_11hidl_stringEEE",
   "parameters" :
   [
    {
     "is_this_ptr" : true,
     "referenced_type" : "_ZTIPN7android8hardware14neuralnetworks4V1_321BpHwExecutionCallbackE"
    },
    {
     "referenced_type" : "_ZTIRKN7android8hardware11hidl_handleE"
    },
    {
     "referenced_type" : "_ZTIRKN7android8hardware8hidl_vecINS0_11hidl_stringEEE"
    }
   ],
   "return_type" : "_ZTIN7android8hardware6ReturnIvEE",
   "source_file" : "/out/soong/.intermediates/hardware/interfaces/neuralnetworks/1.3/android.hardware.neuralnetworks@1.3_genc++_headers/gen/android/hardware/neuralnetworks/1.3/BpHwExecutionCallback.h"
  },
  {
   "function_name" : "android::hardware::neuralnetworks::V1_3::BpHwExecutionCallback::notify",
   "linker_set_key" : "_ZN7android8hardware14neuralnetworks4V1_321BpHwExecutionCallback6notifyENS1_4V1_011ErrorStatusE",
   "parameters" :
   [
    {
     "is_this_ptr" : true,
     "referenced_type" : "_ZTIPN7android8hardware14neuralnetworks4V1_321BpHwExecutionCallbackE"
    },
    {
     "referenced_type" : "_ZTIN7android8hardware14neuralnetworks4V1_011ErrorStatusE"
    }
   ],
   "return_type" : "_ZTIN7android8hardware6ReturnIvEE",
   "source_file" : "/out/soong/.intermediates/hardware/interfaces/neuralnetworks/1.3/android.hardware.neuralnetworks@1.3_genc++_headers/gen/android/hardware/neuralnetworks/1.3/BpHwExecutionCallback.h"
  },
  {
   "function_name" : "android::hardware::neuralnetworks::V1_3::BpHwExecutionCallback::BpHwExecutionCallback",
   "linker_set_key" : "_ZN7android8hardware14neuralnetworks4V1_321BpHwExecutionCallbackC1ERKNS_2spINS0_7IBinderEEE",
   "parameters" :
   [
    {
     "is_this_ptr" : true,
     "referenced_type" : "_ZTIPN7android8hardware14neuralnetworks4V1_321BpHwExecutionCallbackE"
    },
    {
     "referenced_type" : "_ZTIRKN7android2spINS_8hardware7IBinderEEE"
    }
   ],
   "return_type" : "_ZTIv",
   "source_file" : "/out/soong/.intermediates/hardware/interfaces/neuralnetworks/1.3/android.hardware.neuralnetworks@1.3_genc++_headers/gen/android/hardware/neuralnetworks/1.3/BpHwExecutionCallback.h"
  },
  {
   "function_name" : "android::hardware::neuralnetworks::V1_3::BpHwExecutionCallback::BpHwExecutionCallback",
   "linker_set_key" : "_ZN7android8hardware14neuralnetworks4V1_321BpHwExecutionCallbackC2ERKNS_2spINS0_7IBinderEEE",
   "parameters" :
   [
    {
     "is_this_ptr" : true,
     "referenced_type" : "_ZTIPN7android8hardware14neuralnetworks4V1_321BpHwExecutionCallbackE"
    },
    {
     "referenced_type" : "_ZTIRKN7android2spINS_8hardware7IBinderEEE"
    }
   ],
   "return_type" : "_ZTIv",
   "source_file" : "/out/soong/.intermediates/hardware/interfaces/neuralnetworks/1.3/android.hardware.neuralnetworks@1.3_genc++_headers/gen/android/hardware/neuralnetworks/1.3/BpHwExecutionCallback.h"
  },
  {
   "function_name" : "android::hardware::neuralnetworks::V1_3::writeEmbeddedToParcel",
   "linker_set_key" : "_ZN7android8hardware14neuralnetworks4V1_321writeEmbeddedToParcelERKNS2_10BufferDescEPNS0_6ParcelEjj",
   "parameters" :
   [
    {
     "referenced_type" : "_ZTIRKN7android8hardware14neuralnetworks4V1_310BufferDescE"
    },
    {
     "referenced_type" : "_ZTIPN7android8hardware6ParcelE"
    },
    {
     "referenced_type" : "_ZTIj"
    },
    {
     "referenced_type" : "_ZTIj"
    }
   ],
   "return_type" : "_ZTIi",
   "source_file" : "/out/soong/.intermediates/hardware/interfaces/neuralnetworks/1.3/android.hardware.neuralnetworks@1.3_genc++_headers/gen/android/hardware/neuralnetworks/1.3/hwtypes.h"
  },
  {
   "function_name" : "android::hardware::neuralnetworks::V1_3::writeEmbeddedToParcel",
   "linker_set_key" : "_ZN7android8hardware14neuralnetworks4V1_321writeEmbeddedToParcelERKNS2_12CapabilitiesEPNS0_6ParcelEjj",
   "parameters" :
   [
    {
     "referenced_type" : "_ZTIRKN7android8hardware14neuralnetworks4V1_312CapabilitiesE"
    },
    {
     "referenced_type" : "_ZTIPN7android8hardware6ParcelE"
    },
    {
     "referenced_type" : "_ZTIj"
    },
    {
     "referenced_type" : "_ZTIj"
    }
   ],
   "return_type" : "_ZTIi",
   "source_file" : "/out/soong/.intermediates/hardware/interfaces/neuralnetworks/1.3/android.hardware.neuralnetworks@1.3_genc++_headers/gen/android/hardware/neuralnetworks/1.3/hwtypes.h"
  },
  {
   "function_name" : "android::hardware::neuralnetworks::V1_3::writeEmbeddedToParcel",
   "linker_set_key" : "_ZN7android8hardware14neuralnetworks4V1_321writeEmbeddedToParcelERKNS2_5ModelEPNS0_6ParcelEjj",
   "parameters" :
   [
    {
     "referenced_type" : "_ZTIRKN7android8hardware14neuralnetworks4V1_35ModelE"
    },
    {
     "referenced_type" : "_ZTIPN7android8hardware6ParcelE"
    },
    {
     "referenced_type" : "_ZTIj"
    },
    {
     "referenced_type" : "_ZTIj"
    }
   ],
   "return_type" : "_ZTIi",
   "source_file" : "/out/soong/.intermediates/hardware/interfaces/neuralnetworks/1.3/android.hardware.neuralnetworks@1.3_genc++_headers/gen/android/hardware/neuralnetworks/1.3/hwtypes.h"
  },
  {
   "function_name" : "android::hardware::neuralnetworks::V1_3::writeEmbeddedToParcel",
   "linker_set_key" : "_ZN7android8hardware14neuralnetworks4V1_321writeEmbeddedToParcelERKNS2_7OperandEPNS0_6ParcelEjj",
   "parameters" :
   [
    {
     "referenced_type" : "_ZTIRKN7android8hardware14neuralnetworks4V1_37OperandE"
    },
    {
     "referenced_type" : "_ZTIPN7android8hardware6ParcelE"
    },
    {
     "referenced_type" : "_ZTIj"
    },
    {
     "referenced_type" : "_ZTIj"
    }
   ],
   "return_type" : "_ZTIi",
   "source_file" : "/out/soong/.intermediates/hardware/interfaces/neuralnetworks/1.3/android.hardware.neuralnetworks@1.3_genc++_headers/gen/android/hardware/neuralnetworks/1.3/hwtypes.h"
  },
  {
   "function_name" : "android::hardware::neuralnetworks::V1_3::writeEmbeddedToParcel",
   "linker_set_key" : "_ZN7android8hardware14neuralnetworks4V1_321writeEmbeddedToParcelERKNS2_7Request10MemoryPoolEPNS0_6ParcelEjj",
   "parameters" :
   [
    {
     "referenced_type" : "_ZTIRKN7android8hardware14neuralnetworks4V1_37Request10MemoryPoolE"
    },
    {
     "referenced_type" : "_ZTIPN7android8hardware6ParcelE"
    },
    {
     "referenced_type" : "_ZTIj"
    },
    {
     "referenced_type" : "_ZTIj"
    }
   ],
   "return_type" : "_ZTIi",
   "source_file" : "/out/soong/.intermediates/hardware/interfaces/neuralnetworks/1.3/android.hardware.neuralnetworks@1.3_genc++_headers/gen/android/hardware/neuralnetworks/1.3/hwtypes.h"
  },
  {
   "function_name" : "android::hardware::neuralnetworks::V1_3::writeEmbeddedToParcel",
   "linker_set_key" : "_ZN7android8hardware14neuralnetworks4V1_321writeEmbeddedToParcelERKNS2_7RequestEPNS0_6ParcelEjj",
   "parameters" :
   [
    {
     "referenced_type" : "_ZTIRKN7android8hardware14neuralnetworks4V1_37RequestE"
    },
    {
     "referenced_type" : "_ZTIPN7android8hardware6ParcelE"
    },
    {
     "referenced_type" : "_ZTIj"
    },
    {
     "referenced_type" : "_ZTIj"
    }
   ],
   "return_type" : "_ZTIi",
   "source_file" : "/out/soong/.intermediates/hardware/interfaces/neuralnetworks/1.3/android.hardware.neuralnetworks@1.3_genc++_headers/gen/android/hardware/neuralnetworks/1.3/hwtypes.h"
  },
  {
   "function_name" : "android::hardware::neuralnetworks::V1_3::writeEmbeddedToParcel",
   "linker_set_key" : "_ZN7android8hardware14neuralnetworks4V1_321writeEmbeddedToParcelERKNS2_8SubgraphEPNS0_6ParcelEjj",
   "parameters" :
   [
    {
     "referenced_type" : "_ZTIRKN7android8hardware14neuralnetworks4V1_38SubgraphE"
    },
    {
     "referenced_type" : "_ZTIPN7android8hardware6ParcelE"
    },
    {
     "referenced_type" : "_ZTIj"
    },
    {
     "referenced_type" : "_ZTIj"
    }
   ],
   "return_type" : "_ZTIi",
   "source_file" : "/out/soong/.intermediates/hardware/interfaces/neuralnetworks/1.3/android.hardware.neuralnetworks@1.3_genc++_headers/gen/android/hardware/neuralnetworks/1.3/hwtypes.h"
  },
  {
   "function_name" : "android::hardware::neuralnetworks::V1_3::writeEmbeddedToParcel",
   "linker_set_key" : "_ZN7android8hardware14neuralnetworks4V1_321writeEmbeddedToParcelERKNS2_9OperationEPNS0_6ParcelEjj",
   "parameters" :
   [
    {
     "referenced_type" : "_ZTIRKN7android8hardware14neuralnetworks4V1_39OperationE"
    },
    {
     "referenced_type" : "_ZTIPN7android8hardware6ParcelE"
    },
    {
     "referenced_type" : "_ZTIj"
    },
    {
     "referenced_type" : "_ZTIj"
    }
   ],
   "return_type" : "_ZTIi",
   "source_file" : "/out/soong/.intermediates/hardware/interfaces/neuralnetworks/1.3/android.hardware.neuralnetworks@1.3_genc++_headers/gen/android/hardware/neuralnetworks/1.3/hwtypes.h"
  },
  {
   "function_name" : "android::hardware::neuralnetworks::V1_3::IPreparedModelCallback::getService",
   "linker_set_key" : "_ZN7android8hardware14neuralnetworks4V1_322IPreparedModelCallback10getServiceERKNSt3__112basic_stringIcNS4_11char_traitsIcEENS4_9allocatorIcEEEEb",
   "parameters" :
   [
    {
     "default_arg" : true,
     "referenced_type" : "_ZTIRKNSt3__112basic_stringIcNS_11char_traitsIcEENS_9allocatorIcEEEE"
    },
    {
     "default_arg" : true,
     "referenced_type" : "_ZTIb"
    }
   ],
   "return_type" : "_ZTIN7android2spINS_8hardware14neuralnetworks4V1_322IPreparedModelCallbackEEE",
   "source_file" : "/out/soong/.intermediates/hardware/interfaces/neuralnetworks/1.3/android.hardware.neuralnetworks@1.3_genc++_headers/gen/android/hardware/neuralnetworks/1.3/IPreparedModelCallback.h"
  },
  {
   "function_name" : "android::hardware::neuralnetworks::V1_3::IPreparedModelCallback::linkToDeath",
   "linker_set_key" : "_ZN7android8hardware14neuralnetworks4V1_322IPreparedModelCallback11linkToDeathERKNS_2spINS0_20hidl_death_recipientEEEy",
   "parameters" :
   [
    {
     "is_this_ptr" : true,
     "referenced_type" : "_ZTIPN7android8hardware14neuralnetworks4V1_322IPreparedModelCallbackE"
    },
    {
     "referenced_type" : "_ZTIRKN7android2spINS_8hardware20hidl_death_recipientEEE"
    },
    {
     "referenced_type" : "_ZTIy"
    }
   ],
   "return_type" : "_ZTIN7android8hardware6ReturnIbEE",
   "source_file" : "/out/soong/.intermediates/hardware/interfaces/neuralnetworks/1.3/android.hardware.neuralnetworks@1.3_genc++_headers/gen/android/hardware/neuralnetworks/1.3/IPreparedModelCallback.h"
  },
  {
   "function_name" : "android::hardware::neuralnetworks::V1_3::IPreparedModelCallback::getDebugInfo",
   "linker_set_key" : "_ZN7android8hardware14neuralnetworks4V1_322IPreparedModelCallback12getDebugInfoENSt3__18functionIFvRKNS_4hidl4base4V1_09DebugInfoEEEE",
   "parameters" :
   [
    {
     "is_this_ptr" : true,
     "referenced_type" : "_ZTIPN7android8hardware14neuralnetworks4V1_322IPreparedModelCallbackE"
    },
    {
     "referenced_type" : "_ZTINSt3__18functionIFvRKN7android4hidl4base4V1_09DebugInfoEEEE"
    }
   ],
   "return_type" : "_ZTIN7android8hardware6ReturnIvEE",
   "source_file" : "/out/soong/.intermediates/hardware/interfaces/neuralnetworks/1.3/android.hardware.neuralnetworks@1.3_genc++_headers/gen/android/hardware/neuralnetworks/1.3/IPreparedModelCallback.h"
  },
  {
   "function_name" : "android::hardware::neuralnetworks::V1_3::IPreparedModelCallback::getHashChain",
   "linker_set_key" : "_ZN7android8hardware14neuralnetworks4V1_322IPreparedModelCallback12getHashChainENSt3__18functionIFvRKNS0_8hidl_vecINS0_10hidl_arrayIhLj32EJEEEEEEEE",
   "parameters" :
   [
    {
     "is_this_ptr" : true,
     "referenced_type" : "_ZTIPN7android8hardware14neuralnetworks4V1_322IPreparedModelCallbackE"
    },
    {
     "referenced_type" : "_ZTINSt3__18functionIFvRKN7android8hardware8hidl_vecINS2_10hidl_arrayIhLj32EJEEEEEEEE"
    }
   ],
   "return_type" : "_ZTIN7android8hardware6ReturnIvEE",
   "source_file" : "/out/soong/.intermediates/hardware/interfaces/neuralnetworks/1.3/android.hardware.neuralnetworks@1.3_genc++_headers/gen/android/hardware/neuralnetworks/1.3/IPreparedModelCallback.h"
  },
  {
   "function_name" : "android::hardware::neuralnetworks::V1_3::IPreparedModelCallback::tryGetService",
   "linker_set_key" : "_ZN7android8hardware14neuralnetworks4V1_322IPreparedModelCallback13tryGetServiceERKNSt3__112basic_stringIcNS4_11char_traitsIcEENS4_9allocatorIcEEEEb",
   "parameters" :
   [
    {
     "default_arg" : true,
     "referenced_type" : "_ZTIRKNSt3__112basic_stringIcNS_11char_traitsIcEENS_9allocatorIcEEEE"
    },
    {
     "default_arg" : true,
     "referenced_type" : "_ZTIb"
    }
   ],
   "return_type" : "_ZTIN7android2spINS_8hardware14neuralnetworks4V1_322IPreparedModelCallbackEEE",
   "source_file" : "/out/soong/.intermediates/hardware/interfaces/neuralnetworks/1.3/android.hardware.neuralnetworks@1.3_genc++_headers/gen/android/hardware/neuralnetworks/1.3/IPreparedModelCallback.h"
  },
  {
   "function_name" : "android::hardware::neuralnetworks::V1_3::IPreparedModelCallback::unlinkToDeath",
   "linker_set_key" : "_ZN7android8hardware14neuralnetworks4V1_322IPreparedModelCallback13unlinkToDeathERKNS_2spINS0_20hidl_death_recipientEEE",
   "parameters" :
   [
    {
     "is_this_ptr" : true,
     "referenced_type" : "_ZTIPN7android8hardware14neuralnetworks4V1_322IPreparedModelCallbackE"
    },
    {
     "referenced_type" : "_ZTIRKN7android2spINS_8hardware20hidl_death_recipientEEE"
    }
   ],
   "return_type" : "_ZTIN7android8hardware6ReturnIbEE",
   "source_file" : "/out/soong/.intermediates/hardware/interfaces/neuralnetworks/1.3/android.hardware.neuralnetworks@1.3_genc++_headers/gen/android/hardware/neuralnetworks/1.3/IPreparedModelCallback.h"
  },
  {
   "function_name" : "android::hardware::neuralnetworks::V1_3::IPreparedModelCallback::interfaceChain",
   "linker_set_key" : "_ZN7android8hardware14neuralnetworks4V1_322IPreparedModelCallback14interfaceChainENSt3__18functionIFvRKNS0_8hidl_vecINS0_11hidl_stringEEEEEE",
   "parameters" :
   [
    {
     "is_this_ptr" : true,
     "referenced_type" : "_ZTIPN7android8hardware14neuralnetworks4V1_322IPreparedModelCallbackE"
    },
    {
     "referenced_type" : "_ZTINSt3__18functionIFvRKN7android8hardware8hidl_vecINS2_11hidl_stringEEEEEE"
    }
   ],
   "return_type" : "_ZTIN7android8hardware6ReturnIvEE",
   "source_file" : "/out/soong/.intermediates/hardware/interfaces/neuralnetworks/1.3/android.hardware.neuralnetworks@1.3_genc++_headers/gen/android/hardware/neuralnetworks/1.3/IPreparedModelCallback.h"
  },
  {
   "function_name" : "android::hardware::neuralnetworks::V1_3::IPreparedModelCallback::registerAsService",
   "linker_set_key" : "_ZN7android8hardware14neuralnetworks4V1_322IPreparedModelCallback17registerAsServiceERKNSt3__112basic_stringIcNS4_11char_traitsIcEENS4_9allocatorIcEEEE",
   "parameters" :
   [
    {
     "is_this_ptr" : true,
     "referenced_type" : "_ZTIPN7android8hardware14neuralnetworks4V1_322IPreparedModelCallbackE"
    },
    {
     "default_arg" : true,
     "referenced_type" : "_ZTIRKNSt3__112basic_stringIcNS_11char_traitsIcEENS_9allocatorIcEEEE"
    }
   ],
   "return_type" : "_ZTIi",
   "source_file" : "/out/soong/.intermediates/hardware/interfaces/neuralnetworks/1.3/android.hardware.neuralnetworks@1.3_genc++_headers/gen/android/hardware/neuralnetworks/1.3/IPreparedModelCallback.h"
  },
  {
   "function_name" : "android::hardware::neuralnetworks::V1_3::IPreparedModelCallback::interfaceDescriptor",
   "linker_set_key" : "_ZN7android8hardware14neuralnetworks4V1_322IPreparedModelCallback19interfaceDescriptorENSt3__18functionIFvRKNS0_11hidl_stringEEEE",
   "parameters" :
   [
    {
     "is_this_ptr" : true,
     "referenced_type" : "_ZTIPN7android8hardware14neuralnetworks4V1_322IPreparedModelCallbackE"
    },
    {
     "referenced_type" : "_ZTINSt3__18functionIFvRKN7android8hardware11hidl_stringEEEE"
    }
   ],
   "return_type" : "_ZTIN7android8hardware6ReturnIvEE",
   "source_file" : "/out/soong/.intermediates/hardware/interfaces/neuralnetworks/1.3/android.hardware.neuralnetworks@1.3_genc++_headers/gen/android/hardware/neuralnetworks/1.3/IPreparedModelCallback.h"
  },
  {
   "function_name" : "android::hardware::neuralnetworks::V1_3::IPreparedModelCallback::notifySyspropsChanged",
   "linker_set_key" : "_ZN7android8hardware14neuralnetworks4V1_322IPreparedModelCallback21notifySyspropsChangedEv",
   "parameters" :
   [
    {
     "is_this_ptr" : true,
     "referenced_type" : "_ZTIPN7android8hardware14neuralnetworks4V1_322IPreparedModelCallbackE"
    }
   ],
   "return_type" : "_ZTIN7android8hardware6ReturnIvEE",
   "source_file" : "/out/soong/.intermediates/hardware/interfaces/neuralnetworks/1.3/android.hardware.neuralnetworks@1.3_genc++_headers/gen/android/hardware/neuralnetworks/1.3/IPreparedModelCallback.h"
  },
  {
   "function_name" : "android::hardware::neuralnetworks::V1_3::IPreparedModelCallback::setHALInstrumentation",
   "linker_set_key" : "_ZN7android8hardware14neuralnetworks4V1_322IPreparedModelCallback21setHALInstrumentationEv",
   "parameters" :
   [
    {
     "is_this_ptr" : true,
     "referenced_type" : "_ZTIPN7android8hardware14neuralnetworks4V1_322IPreparedModelCallbackE"
    }
   ],
   "return_type" : "_ZTIN7android8hardware6ReturnIvEE",
   "source_file" : "/out/soong/.intermediates/hardware/interfaces/neuralnetworks/1.3/android.hardware.neuralnetworks@1.3_genc++_headers/gen/android/hardware/neuralnetworks/1.3/IPreparedModelCallback.h"
  },
  {
   "function_name" : "android::hardware::neuralnetworks::V1_3::IPreparedModelCallback::registerForNotifications",
   "linker_set_key" : "_ZN7android8hardware14neuralnetworks4V1_322IPreparedModelCallback24registerForNotificationsERKNSt3__112basic_stringIcNS4_11char_traitsIcEENS4_9allocatorIcEEEERKNS_2spINS_4hidl7manager4V1_020IServiceNotificationEEE",
   "parameters" :
   [
    {
     "referenced_type" : "_ZTIRKNSt3__112basic_stringIcNS_11char_traitsIcEENS_9allocatorIcEEEE"
    },
    {
     "referenced_type" : "_ZTIRKN7android2spINS_4hidl7manager4V1_020IServiceNotificationEEE"
    }
   ],
   "return_type" : "_ZTIb",
   "source_file" : "/out/soong/.intermediates/hardware/interfaces/neuralnetworks/1.3/android.hardware.neuralnetworks@1.3_genc++_headers/gen/android/hardware/neuralnetworks/1.3/IPreparedModelCallback.h"
  },
  {
   "function_name" : "android::hardware::neuralnetworks::V1_3::IPreparedModelCallback::ping",
   "linker_set_key" : "_ZN7android8hardware14neuralnetworks4V1_322IPreparedModelCallback4pingEv",
   "parameters" :
   [
    {
     "is_this_ptr" : true,
     "referenced_type" : "_ZTIPN7android8hardware14neuralnetworks4V1_322IPreparedModelCallbackE"
    }
   ],
   "return_type" : "_ZTIN7android8hardware6ReturnIvEE",
   "source_file" : "/out/soong/.intermediates/hardware/interfaces/neuralnetworks/1.3/android.hardware.neuralnetworks@1.3_genc++_headers/gen/android/hardware/neuralnetworks/1.3/IPreparedModelCallback.h"
  },
  {
   "function_name" : "android::hardware::neuralnetworks::V1_3::IPreparedModelCallback::debug",
   "linker_set_key" : "_ZN7android8hardware14neuralnetworks4V1_322IPreparedModelCallback5debugERKNS0_11hidl_handleERKNS0_8hidl_vecINS0_11hidl_stringEEE",
   "parameters" :
   [
    {
     "is_this_ptr" : true,
     "referenced_type" : "_ZTIPN7android8hardware14neuralnetworks4V1_322IPreparedModelCallbackE"
    },
    {
     "referenced_type" : "_ZTIRKN7android8hardware11hidl_handleE"
    },
    {
     "referenced_type" : "_ZTIRKN7android8hardware8hidl_vecINS0_11hidl_stringEEE"
    }
   ],
   "return_type" : "_ZTIN7android8hardware6ReturnIvEE",
   "source_file" : "/out/soong/.intermediates/hardware/interfaces/neuralnetworks/1.3/android.hardware.neuralnetworks@1.3_genc++_headers/gen/android/hardware/neuralnetworks/1.3/IPreparedModelCallback.h"
  },
  {
   "function_name" : "android::hardware::neuralnetworks::V1_3::IPreparedModelCallback::castFrom",
   "linker_set_key" : "_ZN7android8hardware14neuralnetworks4V1_322IPreparedModelCallback8castFromERKNS_2spINS1_4V1_022IPreparedModelCallbackEEEb",
   "parameters" :
   [
    {
     "referenced_type" : "_ZTIRKN7android2spINS_8hardware14neuralnetworks4V1_022IPreparedModelCallbackEEE"
    },
    {
     "default_arg" : true,
     "referenced_type" : "_ZTIb"
    }
   ],
   "return_type" : "_ZTIN7android8hardware6ReturnINS_2spINS0_14neuralnetworks4V1_322IPreparedModelCallbackEEEEE",
   "source_file" : "/out/soong/.intermediates/hardware/interfaces/neuralnetworks/1.3/android.hardware.neuralnetworks@1.3_genc++_headers/gen/android/hardware/neuralnetworks/1.3/IPreparedModelCallback.h"
  },
  {
   "function_name" : "android::hardware::neuralnetworks::V1_3::IPreparedModelCallback::castFrom",
   "linker_set_key" : "_ZN7android8hardware14neuralnetworks4V1_322IPreparedModelCallback8castFromERKNS_2spINS1_4V1_222IPreparedModelCallbackEEEb",
   "parameters" :
   [
    {
     "referenced_type" : "_ZTIRKN7android2spINS_8hardware14neuralnetworks4V1_222IPreparedModelCallbackEEE"
    },
    {
     "default_arg" : true,
     "referenced_type" : "_ZTIb"
    }
   ],
   "return_type" : "_ZTIN7android8hardware6ReturnINS_2spINS0_14neuralnetworks4V1_322IPreparedModelCallbackEEEEE",
   "source_file" : "/out/soong/.intermediates/hardware/interfaces/neuralnetworks/1.3/android.hardware.neuralnetworks@1.3_genc++_headers/gen/android/hardware/neuralnetworks/1.3/IPreparedModelCallback.h"
  },
  {
   "function_name" : "android::hardware::neuralnetworks::V1_3::IPreparedModelCallback::castFrom",
   "linker_set_key" : "_ZN7android8hardware14neuralnetworks4V1_322IPreparedModelCallback8castFromERKNS_2spINS_4hidl4base4V1_05IBaseEEEb",
   "parameters" :
   [
    {
     "referenced_type" : "_ZTIRKN7android2spINS_4hidl4base4V1_05IBaseEEE"
    },
    {
     "default_arg" : true,
     "referenced_type" : "_ZTIb"
    }
   ],
   "return_type" : "_ZTIN7android8hardware6ReturnINS_2spINS0_14neuralnetworks4V1_322IPreparedModelCallbackEEEEE",
   "source_file" : "/out/soong/.intermediates/hardware/interfaces/neuralnetworks/1.3/android.hardware.neuralnetworks@1.3_genc++_headers/gen/android/hardware/neuralnetworks/1.3/IPreparedModelCallback.h"
  },
  {
   "function_name" : "android::hardware::neuralnetworks::V1_3::IPreparedModelCallback::castFrom",
   "linker_set_key" : "_ZN7android8hardware14neuralnetworks4V1_322IPreparedModelCallback8castFromERKNS_2spIS3_EEb",
   "parameters" :
   [
    {
     "referenced_type" : "_ZTIRKN7android2spINS_8hardware14neuralnetworks4V1_322IPreparedModelCallbackEEE"
    },
    {
     "default_arg" : true,
     "referenced_type" : "_ZTIb"
    }
   ],
   "return_type" : "_ZTIN7android8hardware6ReturnINS_2spINS0_14neuralnetworks4V1_322IPreparedModelCallbackEEEEE",
   "source_file" : "/out/soong/.intermediates/hardware/interfaces/neuralnetworks/1.3/android.hardware.neuralnetworks@1.3_genc++_headers/gen/android/hardware/neuralnetworks/1.3/IPreparedModelCallback.h"
  },
  {
   "function_name" : "android::hardware::neuralnetworks::V1_3::readEmbeddedFromParcel",
   "linker_set_key" : "_ZN7android8hardware14neuralnetworks4V1_322readEmbeddedFromParcelERKNS2_10BufferDescERKNS0_6ParcelEjj",
   "parameters" :
   [
    {
     "referenced_type" : "_ZTIRKN7android8hardware14neuralnetworks4V1_310BufferDescE"
    },
    {
     "referenced_type" : "_ZTIRKN7android8hardware6ParcelE"
    },
    {
     "referenced_type" : "_ZTIj"
    },
    {
     "referenced_type" : "_ZTIj"
    }
   ],
   "return_type" : "_ZTIi",
   "source_file" : "/out/soong/.intermediates/hardware/interfaces/neuralnetworks/1.3/android.hardware.neuralnetworks@1.3_genc++_headers/gen/android/hardware/neuralnetworks/1.3/hwtypes.h"
  },
  {
   "function_name" : "android::hardware::neuralnetworks::V1_3::readEmbeddedFromParcel",
   "linker_set_key" : "_ZN7android8hardware14neuralnetworks4V1_322readEmbeddedFromParcelERKNS2_12CapabilitiesERKNS0_6ParcelEjj",
   "parameters" :
   [
    {
     "referenced_type" : "_ZTIRKN7android8hardware14neuralnetworks4V1_312CapabilitiesE"
    },
    {
     "referenced_type" : "_ZTIRKN7android8hardware6ParcelE"
    },
    {
     "referenced_type" : "_ZTIj"
    },
    {
     "referenced_type" : "_ZTIj"
    }
   ],
   "return_type" : "_ZTIi",
   "source_file" : "/out/soong/.intermediates/hardware/interfaces/neuralnetworks/1.3/android.hardware.neuralnetworks@1.3_genc++_headers/gen/android/hardware/neuralnetworks/1.3/hwtypes.h"
  },
  {
   "function_name" : "android::hardware::neuralnetworks::V1_3::readEmbeddedFromParcel",
   "linker_set_key" : "_ZN7android8hardware14neuralnetworks4V1_322readEmbeddedFromParcelERKNS2_5ModelERKNS0_6ParcelEjj",
   "parameters" :
   [
    {
     "referenced_type" : "_ZTIRKN7android8hardware14neuralnetworks4V1_35ModelE"
    },
    {
     "referenced_type" : "_ZTIRKN7android8hardware6ParcelE"
    },
    {
     "referenced_type" : "_ZTIj"
    },
    {
     "referenced_type" : "_ZTIj"
    }
   ],
   "return_type" : "_ZTIi",
   "source_file" : "/out/soong/.intermediates/hardware/interfaces/neuralnetworks/1.3/android.hardware.neuralnetworks@1.3_genc++_headers/gen/android/hardware/neuralnetworks/1.3/hwtypes.h"
  },
  {
   "function_name" : "android::hardware::neuralnetworks::V1_3::readEmbeddedFromParcel",
   "linker_set_key" : "_ZN7android8hardware14neuralnetworks4V1_322readEmbeddedFromParcelERKNS2_7OperandERKNS0_6ParcelEjj",
   "parameters" :
   [
    {
     "referenced_type" : "_ZTIRKN7android8hardware14neuralnetworks4V1_37OperandE"
    },
    {
     "referenced_type" : "_ZTIRKN7android8hardware6ParcelE"
    },
    {
     "referenced_type" : "_ZTIj"
    },
    {
     "referenced_type" : "_ZTIj"
    }
   ],
   "return_type" : "_ZTIi",
   "source_file" : "/out/soong/.intermediates/hardware/interfaces/neuralnetworks/1.3/android.hardware.neuralnetworks@1.3_genc++_headers/gen/android/hardware/neuralnetworks/1.3/hwtypes.h"
  },
  {
   "function_name" : "android::hardware::neuralnetworks::V1_3::readEmbeddedFromParcel",
   "linker_set_key" : "_ZN7android8hardware14neuralnetworks4V1_322readEmbeddedFromParcelERKNS2_7Request10MemoryPoolERKNS0_6ParcelEjj",
   "parameters" :
   [
    {
     "referenced_type" : "_ZTIRKN7android8hardware14neuralnetworks4V1_37Request10MemoryPoolE"
    },
    {
     "referenced_type" : "_ZTIRKN7android8hardware6ParcelE"
    },
    {
     "referenced_type" : "_ZTIj"
    },
    {
     "referenced_type" : "_ZTIj"
    }
   ],
   "return_type" : "_ZTIi",
   "source_file" : "/out/soong/.intermediates/hardware/interfaces/neuralnetworks/1.3/android.hardware.neuralnetworks@1.3_genc++_headers/gen/android/hardware/neuralnetworks/1.3/hwtypes.h"
  },
  {
   "function_name" : "android::hardware::neuralnetworks::V1_3::readEmbeddedFromParcel",
   "linker_set_key" : "_ZN7android8hardware14neuralnetworks4V1_322readEmbeddedFromParcelERKNS2_7RequestERKNS0_6ParcelEjj",
   "parameters" :
   [
    {
     "referenced_type" : "_ZTIRKN7android8hardware14neuralnetworks4V1_37RequestE"
    },
    {
     "referenced_type" : "_ZTIRKN7android8hardware6ParcelE"
    },
    {
     "referenced_type" : "_ZTIj"
    },
    {
     "referenced_type" : "_ZTIj"
    }
   ],
   "return_type" : "_ZTIi",
   "source_file" : "/out/soong/.intermediates/hardware/interfaces/neuralnetworks/1.3/android.hardware.neuralnetworks@1.3_genc++_headers/gen/android/hardware/neuralnetworks/1.3/hwtypes.h"
  },
  {
   "function_name" : "android::hardware::neuralnetworks::V1_3::readEmbeddedFromParcel",
   "linker_set_key" : "_ZN7android8hardware14neuralnetworks4V1_322readEmbeddedFromParcelERKNS2_8SubgraphERKNS0_6ParcelEjj",
   "parameters" :
   [
    {
     "referenced_type" : "_ZTIRKN7android8hardware14neuralnetworks4V1_38SubgraphE"
    },
    {
     "referenced_type" : "_ZTIRKN7android8hardware6ParcelE"
    },
    {
     "referenced_type" : "_ZTIj"
    },
    {
     "referenced_type" : "_ZTIj"
    }
   ],
   "return_type" : "_ZTIi",
   "source_file" : "/out/soong/.intermediates/hardware/interfaces/neuralnetworks/1.3/android.hardware.neuralnetworks@1.3_genc++_headers/gen/android/hardware/neuralnetworks/1.3/hwtypes.h"
  },
  {
   "function_name" : "android::hardware::neuralnetworks::V1_3::readEmbeddedFromParcel",
   "linker_set_key" : "_ZN7android8hardware14neuralnetworks4V1_322readEmbeddedFromParcelERKNS2_9OperationERKNS0_6ParcelEjj",
   "parameters" :
   [
    {
     "referenced_type" : "_ZTIRKN7android8hardware14neuralnetworks4V1_39OperationE"
    },
    {
     "referenced_type" : "_ZTIRKN7android8hardware6ParcelE"
    },
    {
     "referenced_type" : "_ZTIj"
    },
    {
     "referenced_type" : "_ZTIj"
    }
   ],
   "return_type" : "_ZTIi",
   "source_file" : "/out/soong/.intermediates/hardware/interfaces/neuralnetworks/1.3/android.hardware.neuralnetworks@1.3_genc++_headers/gen/android/hardware/neuralnetworks/1.3/hwtypes.h"
  },
  {
   "access" : "private",
   "function_name" : "android::hardware::neuralnetworks::V1_3::BsPreparedModelCallback::addOnewayTask",
   "linker_set_key" : "_ZN7android8hardware14neuralnetworks4V1_323BsPreparedModelCallback13addOnewayTaskENSt3__18functionIFvvEEE",
   "parameters" :
   [
    {
     "is_this_ptr" : true,
     "referenced_type" : "_ZTIPN7android8hardware14neuralnetworks4V1_323BsPreparedModelCallbackE"
    },
    {
     "referenced_type" : "_ZTINSt3__18functionIFvvEEE"
    }
   ],
   "return_type" : "_ZTIN7android8hardware6ReturnIvEE",
   "source_file" : "/out/soong/.intermediates/hardware/interfaces/neuralnetworks/1.3/android.hardware.neuralnetworks@1.3_genc++_headers/gen/android/hardware/neuralnetworks/1.3/BsPreparedModelCallback.h"
  },
  {
   "function_name" : "android::hardware::neuralnetworks::V1_3::BsPreparedModelCallback::BsPreparedModelCallback",
   "linker_set_key" : "_ZN7android8hardware14neuralnetworks4V1_323BsPreparedModelCallbackC1ENS_2spINS2_22IPreparedModelCallbackEEE",
   "parameters" :
   [
    {
     "is_this_ptr" : true,
     "referenced_type" : "_ZTIPN7android8hardware14neuralnetworks4V1_323BsPreparedModelCallbackE"
    },
    {
     "referenced_type" : "_ZTIKN7android2spINS_8hardware14neuralnetworks4V1_322IPreparedModelCallbackEEE"
    }
   ],
   "return_type" : "_ZTIv",
   "source_file" : "/out/soong/.intermediates/hardware/interfaces/neuralnetworks/1.3/android.hardware.neuralnetworks@1.3_genc++_headers/gen/android/hardware/neuralnetworks/1.3/BsPreparedModelCallback.h"
  },
  {
   "function_name" : "android::hardware::neuralnetworks::V1_3::BsPreparedModelCallback::BsPreparedModelCallback",
   "linker_set_key" : "_ZN7android8hardware14neuralnetworks4V1_323BsPreparedModelCallbackC2ENS_2spINS2_22IPreparedModelCallbackEEE",
   "parameters" :
   [
    {
     "is_this_ptr" : true,
     "referenced_type" : "_ZTIPN7android8hardware14neuralnetworks4V1_323BsPreparedModelCallbackE"
    },
    {
     "referenced_type" : "_ZTIKN7android2spINS_8hardware14neuralnetworks4V1_322IPreparedModelCallbackEEE"
    }
   ],
   "return_type" : "_ZTIv",
   "source_file" : "/out/soong/.intermediates/hardware/interfaces/neuralnetworks/1.3/android.hardware.neuralnetworks@1.3_genc++_headers/gen/android/hardware/neuralnetworks/1.3/BsPreparedModelCallback.h"
  },
  {
   "function_name" : "android::hardware::neuralnetworks::V1_3::OptionalTimeoutDuration::hidl_union::hidl_union",
   "linker_set_key" : "_ZN7android8hardware14neuralnetworks4V1_323OptionalTimeoutDuration10hidl_unionC1Ev",
   "parameters" :
   [
    {
     "is_this_ptr" : true,
     "referenced_type" : "_ZTIPN7android8hardware14neuralnetworks4V1_323OptionalTimeoutDuration10hidl_unionE"
    }
   ],
   "return_type" : "_ZTIv",
   "source_file" : "/out/soong/.intermediates/hardware/interfaces/neuralnetworks/1.3/android.hardware.neuralnetworks@1.3_genc++_headers/gen/android/hardware/neuralnetworks/1.3/types.h"
  },
  {
   "function_name" : "android::hardware::neuralnetworks::V1_3::OptionalTimeoutDuration::hidl_union::hidl_union",
   "linker_set_key" : "_ZN7android8hardware14neuralnetworks4V1_323OptionalTimeoutDuration10hidl_unionC2Ev",
   "parameters" :
   [
    {
     "is_this_ptr" : true,
     "referenced_type" : "_ZTIPN7android8hardware14neuralnetworks4V1_323OptionalTimeoutDuration10hidl_unionE"
    }
   ],
   "return_type" : "_ZTIv",
   "source_file" : "/out/soong/.intermediates/hardware/interfaces/neuralnetworks/1.3/android.hardware.neuralnetworks@1.3_genc++_headers/gen/android/hardware/neuralnetworks/1.3/types.h"
  },
  {
   "function_name" : "android::hardware::neuralnetworks::V1_3::OptionalTimeoutDuration::hidl_union::~hidl_union",
   "linker_set_key" : "_ZN7android8hardware14neuralnetworks4V1_323OptionalTimeoutDuration10hidl_unionD1Ev",
   "parameters" :
   [
    {
     "is_this_ptr" : true,
     "referenced_type" : "_ZTIPN7android8hardware14neuralnetworks4V1_323OptionalTimeoutDuration10hidl_unionE"
    }
   ],
   "return_type" : "_ZTIv",
   "source_file" : "/out/soong/.intermediates/hardware/interfaces/neuralnetworks/1.3/android.hardware.neuralnetworks@1.3_genc++_headers/gen/android/hardware/neuralnetworks/1.3/types.h"
  },
  {
   "function_name" : "android::hardware::neuralnetworks::V1_3::OptionalTimeoutDuration::hidl_union::~hidl_union",
   "linker_set_key" : "_ZN7android8hardware14neuralnetworks4V1_323OptionalTimeoutDuration10hidl_unionD2Ev",
   "parameters" :
   [
    {
     "is_this_ptr" : true,
     "referenced_type" : "_ZTIPN7android8hardware14neuralnetworks4V1_323OptionalTimeoutDuration10hidl_unionE"
    }
   ],
   "return_type" : "_ZTIv",
   "source_file" : "/out/soong/.intermediates/hardware/interfaces/neuralnetworks/1.3/android.hardware.neuralnetworks@1.3_genc++_headers/gen/android/hardware/neuralnetworks/1.3/types.h"
  },
  {
   "function_name" : "android::hardware::neuralnetworks::V1_3::OptionalTimeoutDuration::nanoseconds",
   "linker_set_key" : "_ZN7android8hardware14neuralnetworks4V1_323OptionalTimeoutDuration11nanosecondsEv",
   "parameters" :
   [
    {
     "is_this_ptr" : true,
     "referenced_type" : "_ZTIPN7android8hardware14neuralnetworks4V1_323OptionalTimeoutDurationE"
    }
   ],
   "return_type" : "_ZTIRy",
   "source_file" : "/out/soong/.intermediates/hardware/interfaces/neuralnetworks/1.3/android.hardware.neuralnetworks@1.3_genc++_headers/gen/android/hardware/neuralnetworks/1.3/types.h"
  },
  {
   "function_name" : "android::hardware::neuralnetworks::V1_3::OptionalTimeoutDuration::nanoseconds",
   "linker_set_key" : "_ZN7android8hardware14neuralnetworks4V1_323OptionalTimeoutDuration11nanosecondsEy",
   "parameters" :
   [
    {
     "is_this_ptr" : true,
     "referenced_type" : "_ZTIPN7android8hardware14neuralnetworks4V1_323OptionalTimeoutDurationE"
    },
    {
     "referenced_type" : "_ZTIy"
    }
   ],
   "return_type" : "_ZTIv",
   "source_file" : "/out/soong/.intermediates/hardware/interfaces/neuralnetworks/1.3/android.hardware.neuralnetworks@1.3_genc++_headers/gen/android/hardware/neuralnetworks/1.3/types.h"
  },
  {
   "access" : "private",
   "function_name" : "android::hardware::neuralnetworks::V1_3::OptionalTimeoutDuration::hidl_destructUnion",
   "linker_set_key" : "_ZN7android8hardware14neuralnetworks4V1_323OptionalTimeoutDuration18hidl_destructUnionEv",
   "parameters" :
   [
    {
     "is_this_ptr" : true,
     "referenced_type" : "_ZTIPN7android8hardware14neuralnetworks4V1_323OptionalTimeoutDurationE"
    }
   ],
   "return_type" : "_ZTIv",
   "source_file" : "/out/soong/.intermediates/hardware/interfaces/neuralnetworks/1.3/android.hardware.neuralnetworks@1.3_genc++_headers/gen/android/hardware/neuralnetworks/1.3/types.h"
  },
  {
   "function_name" : "android::hardware::neuralnetworks::V1_3::OptionalTimeoutDuration::none",
   "linker_set_key" : "_ZN7android8hardware14neuralnetworks4V1_323OptionalTimeoutDuration4noneEONS_4hidl10safe_union4V1_09MonostateE",
   "parameters" :
   [
    {
     "is_this_ptr" : true,
     "referenced_type" : "_ZTIPN7android8hardware14neuralnetworks4V1_323OptionalTimeoutDurationE"
    },
    {
     "referenced_type" : "_ZTION7android4hidl10safe_union4V1_09MonostateE"
    }
   ],
   "return_type" : "_ZTIv",
   "source_file" : "/out/soong/.intermediates/hardware/interfaces/neuralnetworks/1.3/android.hardware.neuralnetworks@1.3_genc++_headers/gen/android/hardware/neuralnetworks/1.3/types.h"
  },
  {
   "function_name" : "android::hardware::neuralnetworks::V1_3::OptionalTimeoutDuration::none",
   "linker_set_key" : "_ZN7android8hardware14neuralnetworks4V1_323OptionalTimeoutDuration4noneERKNS_4hidl10safe_union4V1_09MonostateE",
   "parameters" :
   [
    {
     "is_this_ptr" : true,
     "referenced_type" : "_ZTIPN7android8hardware14neuralnetworks4V1_323OptionalTimeoutDurationE"
    },
    {
     "referenced_type" : "_ZTIRKN7android4hidl10safe_union4V1_09MonostateE"
    }
   ],
   "return_type" : "_ZTIv",
   "source_file" : "/out/soong/.intermediates/hardware/interfaces/neuralnetworks/1.3/android.hardware.neuralnetworks@1.3_genc++_headers/gen/android/hardware/neuralnetworks/1.3/types.h"
  },
  {
   "function_name" : "android::hardware::neuralnetworks::V1_3::OptionalTimeoutDuration::none",
   "linker_set_key" : "_ZN7android8hardware14neuralnetworks4V1_323OptionalTimeoutDuration4noneEv",
   "parameters" :
   [
    {
     "is_this_ptr" : true,
     "referenced_type" : "_ZTIPN7android8hardware14neuralnetworks4V1_323OptionalTimeoutDurationE"
    }
   ],
   "return_type" : "_ZTIRN7android4hidl10safe_union4V1_09MonostateE",
   "source_file" : "/out/soong/.intermediates/hardware/interfaces/neuralnetworks/1.3/android.hardware.neuralnetworks@1.3_genc++_headers/gen/android/hardware/neuralnetworks/1.3/types.h"
  },
  {
   "function_name" : "android::hardware::neuralnetworks::V1_3::OptionalTimeoutDuration::OptionalTimeoutDuration",
   "linker_set_key" : "_ZN7android8hardware14neuralnetworks4V1_323OptionalTimeoutDurationC1EOS3_",
   "parameters" :
   [
    {
     "is_this_ptr" : true,
     "referenced_type" : "_ZTIPN7android8hardware14neuralnetworks4V1_323OptionalTimeoutDurationE"
    },
    {
     "referenced_type" : "_ZTION7android8hardware14neuralnetworks4V1_323OptionalTimeoutDurationE"
    }
   ],
   "return_type" : "_ZTIv",
   "source_file" : "/out/soong/.intermediates/hardware/interfaces/neuralnetworks/1.3/android.hardware.neuralnetworks@1.3_genc++_headers/gen/android/hardware/neuralnetworks/1.3/types.h"
  },
  {
   "function_name" : "android::hardware::neuralnetworks::V1_3::OptionalTimeoutDuration::OptionalTimeoutDuration",
   "linker_set_key" : "_ZN7android8hardware14neuralnetworks4V1_323OptionalTimeoutDurationC1ERKS3_",
   "parameters" :
   [
    {
     "is_this_ptr" : true,
     "referenced_type" : "_ZTIPN7android8hardware14neuralnetworks4V1_323OptionalTimeoutDurationE"
    },
    {
     "referenced_type" : "_ZTIRKN7android8hardware14neuralnetworks4V1_323OptionalTimeoutDurationE"
    }
   ],
   "return_type" : "_ZTIv",
   "source_file" : "/out/soong/.intermediates/hardware/interfaces/neuralnetworks/1.3/android.hardware.neuralnetworks@1.3_genc++_headers/gen/android/hardware/neuralnetworks/1.3/types.h"
  },
  {
   "function_name" : "android::hardware::neuralnetworks::V1_3::OptionalTimeoutDuration::OptionalTimeoutDuration",
   "linker_set_key" : "_ZN7android8hardware14neuralnetworks4V1_323OptionalTimeoutDurationC1Ev",
   "parameters" :
   [
    {
     "is_this_ptr" : true,
     "referenced_type" : "_ZTIPN7android8hardware14neuralnetworks4V1_323OptionalTimeoutDurationE"
    }
   ],
   "return_type" : "_ZTIv",
   "source_file" : "/out/soong/.intermediates/hardware/interfaces/neuralnetworks/1.3/android.hardware.neuralnetworks@1.3_genc++_headers/gen/android/hardware/neuralnetworks/1.3/types.h"
  },
  {
   "function_name" : "android::hardware::neuralnetworks::V1_3::OptionalTimeoutDuration::OptionalTimeoutDuration",
   "linker_set_key" : "_ZN7android8hardware14neuralnetworks4V1_323OptionalTimeoutDurationC2EOS3_",
   "parameters" :
   [
    {
     "is_this_ptr" : true,
     "referenced_type" : "_ZTIPN7android8hardware14neuralnetworks4V1_323OptionalTimeoutDurationE"
    },
    {
     "referenced_type" : "_ZTION7android8hardware14neuralnetworks4V1_323OptionalTimeoutDurationE"
    }
   ],
   "return_type" : "_ZTIv",
   "source_file" : "/out/soong/.intermediates/hardware/interfaces/neuralnetworks/1.3/android.hardware.neuralnetworks@1.3_genc++_headers/gen/android/hardware/neuralnetworks/1.3/types.h"
  },
  {
   "function_name" : "android::hardware::neuralnetworks::V1_3::OptionalTimeoutDuration::OptionalTimeoutDuration",
   "linker_set_key" : "_ZN7android8hardware14neuralnetworks4V1_323OptionalTimeoutDurationC2ERKS3_",
   "parameters" :
   [
    {
     "is_this_ptr" : true,
     "referenced_type" : "_ZTIPN7android8hardware14neuralnetworks4V1_323OptionalTimeoutDurationE"
    },
    {
     "referenced_type" : "_ZTIRKN7android8hardware14neuralnetworks4V1_323OptionalTimeoutDurationE"
    }
   ],
   "return_type" : "_ZTIv",
   "source_file" : "/out/soong/.intermediates/hardware/interfaces/neuralnetworks/1.3/android.hardware.neuralnetworks@1.3_genc++_headers/gen/android/hardware/neuralnetworks/1.3/types.h"
  },
  {
   "function_name" : "android::hardware::neuralnetworks::V1_3::OptionalTimeoutDuration::OptionalTimeoutDuration",
   "linker_set_key" : "_ZN7android8hardware14neuralnetworks4V1_323OptionalTimeoutDurationC2Ev",
   "parameters" :
   [
    {
     "is_this_ptr" : true,
     "referenced_type" : "_ZTIPN7android8hardware14neuralnetworks4V1_323OptionalTimeoutDurationE"
    }
   ],
   "return_type" : "_ZTIv",
   "source_file" : "/out/soong/.intermediates/hardware/interfaces/neuralnetworks/1.3/android.hardware.neuralnetworks@1.3_genc++_headers/gen/android/hardware/neuralnetworks/1.3/types.h"
  },
  {
   "function_name" : "android::hardware::neuralnetworks::V1_3::OptionalTimeoutDuration::~OptionalTimeoutDuration",
   "linker_set_key" : "_ZN7android8hardware14neuralnetworks4V1_323OptionalTimeoutDurationD1Ev",
   "parameters" :
   [
    {
     "is_this_ptr" : true,
     "referenced_type" : "_ZTIPN7android8hardware14neuralnetworks4V1_323OptionalTimeoutDurationE"
    }
   ],
   "return_type" : "_ZTIv",
   "source_file" : "/out/soong/.intermediates/hardware/interfaces/neuralnetworks/1.3/android.hardware.neuralnetworks@1.3_genc++_headers/gen/android/hardware/neuralnetworks/1.3/types.h"
  },
  {
   "function_name" : "android::hardware::neuralnetworks::V1_3::OptionalTimeoutDuration::~OptionalTimeoutDuration",
   "linker_set_key" : "_ZN7android8hardware14neuralnetworks4V1_323OptionalTimeoutDurationD2Ev",
   "parameters" :
   [
    {
     "is_this_ptr" : true,
     "referenced_type" : "_ZTIPN7android8hardware14neuralnetworks4V1_323OptionalTimeoutDurationE"
    }
   ],
   "return_type" : "_ZTIv",
   "source_file" : "/out/soong/.intermediates/hardware/interfaces/neuralnetworks/1.3/android.hardware.neuralnetworks@1.3_genc++_headers/gen/android/hardware/neuralnetworks/1.3/types.h"
  },
  {
   "function_name" : "android::hardware::neuralnetworks::V1_3::OptionalTimeoutDuration::operator=",
   "linker_set_key" : "_ZN7android8hardware14neuralnetworks4V1_323OptionalTimeoutDurationaSEOS3_",
   "parameters" :
   [
    {
     "is_this_ptr" : true,
     "referenced_type" : "_ZTIPN7android8hardware14neuralnetworks4V1_323OptionalTimeoutDurationE"
    },
    {
     "referenced_type" : "_ZTION7android8hardware14neuralnetworks4V1_323OptionalTimeoutDurationE"
    }
   ],
   "return_type" : "_ZTIRN7android8hardware14neuralnetworks4V1_323OptionalTimeoutDurationE",
   "source_file" : "/out/soong/.intermediates/hardware/interfaces/neuralnetworks/1.3/android.hardware.neuralnetworks@1.3_genc++_headers/gen/android/hardware/neuralnetworks/1.3/types.h"
  },
  {
   "function_name" : "android::hardware::neuralnetworks::V1_3::OptionalTimeoutDuration::operator=",
   "linker_set_key" : "_ZN7android8hardware14neuralnetworks4V1_323OptionalTimeoutDurationaSERKS3_",
   "parameters" :
   [
    {
     "is_this_ptr" : true,
     "referenced_type" : "_ZTIPN7android8hardware14neuralnetworks4V1_323OptionalTimeoutDurationE"
    },
    {
     "referenced_type" : "_ZTIRKN7android8hardware14neuralnetworks4V1_323OptionalTimeoutDurationE"
    }
   ],
   "return_type" : "_ZTIRN7android8hardware14neuralnetworks4V1_323OptionalTimeoutDurationE",
   "source_file" : "/out/soong/.intermediates/hardware/interfaces/neuralnetworks/1.3/android.hardware.neuralnetworks@1.3_genc++_headers/gen/android/hardware/neuralnetworks/1.3/types.h"
  },
  {
   "function_name" : "android::hardware::neuralnetworks::V1_3::IFencedExecutionCallback::getService",
   "linker_set_key" : "_ZN7android8hardware14neuralnetworks4V1_324IFencedExecutionCallback10getServiceERKNSt3__112basic_stringIcNS4_11char_traitsIcEENS4_9allocatorIcEEEEb",
   "parameters" :
   [
    {
     "default_arg" : true,
     "referenced_type" : "_ZTIRKNSt3__112basic_stringIcNS_11char_traitsIcEENS_9allocatorIcEEEE"
    },
    {
     "default_arg" : true,
     "referenced_type" : "_ZTIb"
    }
   ],
   "return_type" : "_ZTIN7android2spINS_8hardware14neuralnetworks4V1_324IFencedExecutionCallbackEEE",
   "source_file" : "/out/soong/.intermediates/hardware/interfaces/neuralnetworks/1.3/android.hardware.neuralnetworks@1.3_genc++_headers/gen/android/hardware/neuralnetworks/1.3/IFencedExecutionCallback.h"
  },
  {
   "function_name" : "android::hardware::neuralnetworks::V1_3::IFencedExecutionCallback::linkToDeath",
   "linker_set_key" : "_ZN7android8hardware14neuralnetworks4V1_324IFencedExecutionCallback11linkToDeathERKNS_2spINS0_20hidl_death_recipientEEEy",
   "parameters" :
   [
    {
     "is_this_ptr" : true,
     "referenced_type" : "_ZTIPN7android8hardware14neuralnetworks4V1_324IFencedExecutionCallbackE"
    },
    {
     "referenced_type" : "_ZTIRKN7android2spINS_8hardware20hidl_death_recipientEEE"
    },
    {
     "referenced_type" : "_ZTIy"
    }
   ],
   "return_type" : "_ZTIN7android8hardware6ReturnIbEE",
   "source_file" : "/out/soong/.intermediates/hardware/interfaces/neuralnetworks/1.3/android.hardware.neuralnetworks@1.3_genc++_headers/gen/android/hardware/neuralnetworks/1.3/IFencedExecutionCallback.h"
  },
  {
   "function_name" : "android::hardware::neuralnetworks::V1_3::IFencedExecutionCallback::getDebugInfo",
   "linker_set_key" : "_ZN7android8hardware14neuralnetworks4V1_324IFencedExecutionCallback12getDebugInfoENSt3__18functionIFvRKNS_4hidl4base4V1_09DebugInfoEEEE",
   "parameters" :
   [
    {
     "is_this_ptr" : true,
     "referenced_type" : "_ZTIPN7android8hardware14neuralnetworks4V1_324IFencedExecutionCallbackE"
    },
    {
     "referenced_type" : "_ZTINSt3__18functionIFvRKN7android4hidl4base4V1_09DebugInfoEEEE"
    }
   ],
   "return_type" : "_ZTIN7android8hardware6ReturnIvEE",
   "source_file" : "/out/soong/.intermediates/hardware/interfaces/neuralnetworks/1.3/android.hardware.neuralnetworks@1.3_genc++_headers/gen/android/hardware/neuralnetworks/1.3/IFencedExecutionCallback.h"
  },
  {
   "function_name" : "android::hardware::neuralnetworks::V1_3::IFencedExecutionCallback::getHashChain",
   "linker_set_key" : "_ZN7android8hardware14neuralnetworks4V1_324IFencedExecutionCallback12getHashChainENSt3__18functionIFvRKNS0_8hidl_vecINS0_10hidl_arrayIhLj32EJEEEEEEEE",
   "parameters" :
   [
    {
     "is_this_ptr" : true,
     "referenced_type" : "_ZTIPN7android8hardware14neuralnetworks4V1_324IFencedExecutionCallbackE"
    },
    {
     "referenced_type" : "_ZTINSt3__18functionIFvRKN7android8hardware8hidl_vecINS2_10hidl_arrayIhLj32EJEEEEEEEE"
    }
   ],
   "return_type" : "_ZTIN7android8hardware6ReturnIvEE",
   "source_file" : "/out/soong/.intermediates/hardware/interfaces/neuralnetworks/1.3/android.hardware.neuralnetworks@1.3_genc++_headers/gen/android/hardware/neuralnetworks/1.3/IFencedExecutionCallback.h"
  },
  {
   "function_name" : "android::hardware::neuralnetworks::V1_3::IFencedExecutionCallback::tryGetService",
   "linker_set_key" : "_ZN7android8hardware14neuralnetworks4V1_324IFencedExecutionCallback13tryGetServiceERKNSt3__112basic_stringIcNS4_11char_traitsIcEENS4_9allocatorIcEEEEb",
   "parameters" :
   [
    {
     "default_arg" : true,
     "referenced_type" : "_ZTIRKNSt3__112basic_stringIcNS_11char_traitsIcEENS_9allocatorIcEEEE"
    },
    {
     "default_arg" : true,
     "referenced_type" : "_ZTIb"
    }
   ],
   "return_type" : "_ZTIN7android2spINS_8hardware14neuralnetworks4V1_324IFencedExecutionCallbackEEE",
   "source_file" : "/out/soong/.intermediates/hardware/interfaces/neuralnetworks/1.3/android.hardware.neuralnetworks@1.3_genc++_headers/gen/android/hardware/neuralnetworks/1.3/IFencedExecutionCallback.h"
  },
  {
   "function_name" : "android::hardware::neuralnetworks::V1_3::IFencedExecutionCallback::unlinkToDeath",
   "linker_set_key" : "_ZN7android8hardware14neuralnetworks4V1_324IFencedExecutionCallback13unlinkToDeathERKNS_2spINS0_20hidl_death_recipientEEE",
   "parameters" :
   [
    {
     "is_this_ptr" : true,
     "referenced_type" : "_ZTIPN7android8hardware14neuralnetworks4V1_324IFencedExecutionCallbackE"
    },
    {
     "referenced_type" : "_ZTIRKN7android2spINS_8hardware20hidl_death_recipientEEE"
    }
   ],
   "return_type" : "_ZTIN7android8hardware6ReturnIbEE",
   "source_file" : "/out/soong/.intermediates/hardware/interfaces/neuralnetworks/1.3/android.hardware.neuralnetworks@1.3_genc++_headers/gen/android/hardware/neuralnetworks/1.3/IFencedExecutionCallback.h"
  },
  {
   "function_name" : "android::hardware::neuralnetworks::V1_3::IFencedExecutionCallback::interfaceChain",
   "linker_set_key" : "_ZN7android8hardware14neuralnetworks4V1_324IFencedExecutionCallback14interfaceChainENSt3__18functionIFvRKNS0_8hidl_vecINS0_11hidl_stringEEEEEE",
   "parameters" :
   [
    {
     "is_this_ptr" : true,
     "referenced_type" : "_ZTIPN7android8hardware14neuralnetworks4V1_324IFencedExecutionCallbackE"
    },
    {
     "referenced_type" : "_ZTINSt3__18functionIFvRKN7android8hardware8hidl_vecINS2_11hidl_stringEEEEEE"
    }
   ],
   "return_type" : "_ZTIN7android8hardware6ReturnIvEE",
   "source_file" : "/out/soong/.intermediates/hardware/interfaces/neuralnetworks/1.3/android.hardware.neuralnetworks@1.3_genc++_headers/gen/android/hardware/neuralnetworks/1.3/IFencedExecutionCallback.h"
  },
  {
   "function_name" : "android::hardware::neuralnetworks::V1_3::IFencedExecutionCallback::registerAsService",
   "linker_set_key" : "_ZN7android8hardware14neuralnetworks4V1_324IFencedExecutionCallback17registerAsServiceERKNSt3__112basic_stringIcNS4_11char_traitsIcEENS4_9allocatorIcEEEE",
   "parameters" :
   [
    {
     "is_this_ptr" : true,
     "referenced_type" : "_ZTIPN7android8hardware14neuralnetworks4V1_324IFencedExecutionCallbackE"
    },
    {
     "default_arg" : true,
     "referenced_type" : "_ZTIRKNSt3__112basic_stringIcNS_11char_traitsIcEENS_9allocatorIcEEEE"
    }
   ],
   "return_type" : "_ZTIi",
   "source_file" : "/out/soong/.intermediates/hardware/interfaces/neuralnetworks/1.3/android.hardware.neuralnetworks@1.3_genc++_headers/gen/android/hardware/neuralnetworks/1.3/IFencedExecutionCallback.h"
  },
  {
   "function_name" : "android::hardware::neuralnetworks::V1_3::IFencedExecutionCallback::interfaceDescriptor",
   "linker_set_key" : "_ZN7android8hardware14neuralnetworks4V1_324IFencedExecutionCallback19interfaceDescriptorENSt3__18functionIFvRKNS0_11hidl_stringEEEE",
   "parameters" :
   [
    {
     "is_this_ptr" : true,
     "referenced_type" : "_ZTIPN7android8hardware14neuralnetworks4V1_324IFencedExecutionCallbackE"
    },
    {
     "referenced_type" : "_ZTINSt3__18functionIFvRKN7android8hardware11hidl_stringEEEE"
    }
   ],
   "return_type" : "_ZTIN7android8hardware6ReturnIvEE",
   "source_file" : "/out/soong/.intermediates/hardware/interfaces/neuralnetworks/1.3/android.hardware.neuralnetworks@1.3_genc++_headers/gen/android/hardware/neuralnetworks/1.3/IFencedExecutionCallback.h"
  },
  {
   "function_name" : "android::hardware::neuralnetworks::V1_3::IFencedExecutionCallback::notifySyspropsChanged",
   "linker_set_key" : "_ZN7android8hardware14neuralnetworks4V1_324IFencedExecutionCallback21notifySyspropsChangedEv",
   "parameters" :
   [
    {
     "is_this_ptr" : true,
     "referenced_type" : "_ZTIPN7android8hardware14neuralnetworks4V1_324IFencedExecutionCallbackE"
    }
   ],
   "return_type" : "_ZTIN7android8hardware6ReturnIvEE",
   "source_file" : "/out/soong/.intermediates/hardware/interfaces/neuralnetworks/1.3/android.hardware.neuralnetworks@1.3_genc++_headers/gen/android/hardware/neuralnetworks/1.3/IFencedExecutionCallback.h"
  },
  {
   "function_name" : "android::hardware::neuralnetworks::V1_3::IFencedExecutionCallback::setHALInstrumentation",
   "linker_set_key" : "_ZN7android8hardware14neuralnetworks4V1_324IFencedExecutionCallback21setHALInstrumentationEv",
   "parameters" :
   [
    {
     "is_this_ptr" : true,
     "referenced_type" : "_ZTIPN7android8hardware14neuralnetworks4V1_324IFencedExecutionCallbackE"
    }
   ],
   "return_type" : "_ZTIN7android8hardware6ReturnIvEE",
   "source_file" : "/out/soong/.intermediates/hardware/interfaces/neuralnetworks/1.3/android.hardware.neuralnetworks@1.3_genc++_headers/gen/android/hardware/neuralnetworks/1.3/IFencedExecutionCallback.h"
  },
  {
   "function_name" : "android::hardware::neuralnetworks::V1_3::IFencedExecutionCallback::registerForNotifications",
   "linker_set_key" : "_ZN7android8hardware14neuralnetworks4V1_324IFencedExecutionCallback24registerForNotificationsERKNSt3__112basic_stringIcNS4_11char_traitsIcEENS4_9allocatorIcEEEERKNS_2spINS_4hidl7manager4V1_020IServiceNotificationEEE",
   "parameters" :
   [
    {
     "referenced_type" : "_ZTIRKNSt3__112basic_stringIcNS_11char_traitsIcEENS_9allocatorIcEEEE"
    },
    {
     "referenced_type" : "_ZTIRKN7android2spINS_4hidl7manager4V1_020IServiceNotificationEEE"
    }
   ],
   "return_type" : "_ZTIb",
   "source_file" : "/out/soong/.intermediates/hardware/interfaces/neuralnetworks/1.3/android.hardware.neuralnetworks@1.3_genc++_headers/gen/android/hardware/neuralnetworks/1.3/IFencedExecutionCallback.h"
  },
  {
   "function_name" : "android::hardware::neuralnetworks::V1_3::IFencedExecutionCallback::ping",
   "linker_set_key" : "_ZN7android8hardware14neuralnetworks4V1_324IFencedExecutionCallback4pingEv",
   "parameters" :
   [
    {
     "is_this_ptr" : true,
     "referenced_type" : "_ZTIPN7android8hardware14neuralnetworks4V1_324IFencedExecutionCallbackE"
    }
   ],
   "return_type" : "_ZTIN7android8hardware6ReturnIvEE",
   "source_file" : "/out/soong/.intermediates/hardware/interfaces/neuralnetworks/1.3/android.hardware.neuralnetworks@1.3_genc++_headers/gen/android/hardware/neuralnetworks/1.3/IFencedExecutionCallback.h"
  },
  {
   "function_name" : "android::hardware::neuralnetworks::V1_3::IFencedExecutionCallback::debug",
   "linker_set_key" : "_ZN7android8hardware14neuralnetworks4V1_324IFencedExecutionCallback5debugERKNS0_11hidl_handleERKNS0_8hidl_vecINS0_11hidl_stringEEE",
   "parameters" :
   [
    {
     "is_this_ptr" : true,
     "referenced_type" : "_ZTIPN7android8hardware14neuralnetworks4V1_324IFencedExecutionCallbackE"
    },
    {
     "referenced_type" : "_ZTIRKN7android8hardware11hidl_handleE"
    },
    {
     "referenced_type" : "_ZTIRKN7android8hardware8hidl_vecINS0_11hidl_stringEEE"
    }
   ],
   "return_type" : "_ZTIN7android8hardware6ReturnIvEE",
   "source_file" : "/out/soong/.intermediates/hardware/interfaces/neuralnetworks/1.3/android.hardware.neuralnetworks@1.3_genc++_headers/gen/android/hardware/neuralnetworks/1.3/IFencedExecutionCallback.h"
  },
  {
   "function_name" : "android::hardware::neuralnetworks::V1_3::IFencedExecutionCallback::castFrom",
   "linker_set_key" : "_ZN7android8hardware14neuralnetworks4V1_324IFencedExecutionCallback8castFromERKNS_2spINS_4hidl4base4V1_05IBaseEEEb",
   "parameters" :
   [
    {
     "referenced_type" : "_ZTIRKN7android2spINS_4hidl4base4V1_05IBaseEEE"
    },
    {
     "default_arg" : true,
     "referenced_type" : "_ZTIb"
    }
   ],
   "return_type" : "_ZTIN7android8hardware6ReturnINS_2spINS0_14neuralnetworks4V1_324IFencedExecutionCallbackEEEEE",
   "source_file" : "/out/soong/.intermediates/hardware/interfaces/neuralnetworks/1.3/android.hardware.neuralnetworks@1.3_genc++_headers/gen/android/hardware/neuralnetworks/1.3/IFencedExecutionCallback.h"
  },
  {
   "function_name" : "android::hardware::neuralnetworks::V1_3::IFencedExecutionCallback::castFrom",
   "linker_set_key" : "_ZN7android8hardware14neuralnetworks4V1_324IFencedExecutionCallback8castFromERKNS_2spIS3_EEb",
   "parameters" :
   [
    {
     "referenced_type" : "_ZTIRKN7android2spINS_8hardware14neuralnetworks4V1_324IFencedExecutionCallbackEEE"
    },
    {
     "default_arg" : true,
     "referenced_type" : "_ZTIb"
    }
   ],
   "return_type" : "_ZTIN7android8hardware6ReturnINS_2spINS0_14neuralnetworks4V1_324IFencedExecutionCallbackEEEEE",
   "source_file" : "/out/soong/.intermediates/hardware/interfaces/neuralnetworks/1.3/android.hardware.neuralnetworks@1.3_genc++_headers/gen/android/hardware/neuralnetworks/1.3/IFencedExecutionCallback.h"
  },
  {
   "function_name" : "android::hardware::neuralnetworks::V1_3::BnHwPreparedModelCallback::onTransact",
   "linker_set_key" : "_ZN7android8hardware14neuralnetworks4V1_325BnHwPreparedModelCallback10onTransactEjRKNS0_6ParcelEPS4_jNSt3__18functionIFvRS4_EEE",
   "parameters" :
   [
    {
     "is_this_ptr" : true,
     "referenced_type" : "_ZTIPN7android8hardware14neuralnetworks4V1_325BnHwPreparedModelCallbackE"
    },
    {
     "referenced_type" : "_ZTIj"
    },
    {
     "referenced_type" : "_ZTIRKN7android8hardware6ParcelE"
    },
    {
     "referenced_type" : "_ZTIPN7android8hardware6ParcelE"
    },
    {
     "default_arg" : true,
     "referenced_type" : "_ZTIj"
    },
    {
     "default_arg" : true,
     "referenced_type" : "_ZTINSt3__18functionIFvRN7android8hardware6ParcelEEEE"
    }
   ],
   "return_type" : "_ZTIi",
   "source_file" : "/out/soong/.intermediates/hardware/interfaces/neuralnetworks/1.3/android.hardware.neuralnetworks@1.3_genc++_headers/gen/android/hardware/neuralnetworks/1.3/BnHwPreparedModelCallback.h"
  },
  {
   "access" : "private",
   "function_name" : "android::hardware::neuralnetworks::V1_3::BnHwPreparedModelCallback::getDebugInfo",
   "linker_set_key" : "_ZN7android8hardware14neuralnetworks4V1_325BnHwPreparedModelCallback12getDebugInfoENSt3__18functionIFvRKNS_4hidl4base4V1_09DebugInfoEEEE",
   "parameters" :
   [
    {
     "is_this_ptr" : true,
     "referenced_type" : "_ZTIPN7android8hardware14neuralnetworks4V1_325BnHwPreparedModelCallbackE"
    },
    {
     "referenced_type" : "_ZTINSt3__18functionIFvRKN7android4hidl4base4V1_09DebugInfoEEEE"
    }
   ],
   "return_type" : "_ZTIN7android8hardware6ReturnIvEE",
   "source_file" : "/out/soong/.intermediates/hardware/interfaces/neuralnetworks/1.3/android.hardware.neuralnetworks@1.3_genc++_headers/gen/android/hardware/neuralnetworks/1.3/BnHwPreparedModelCallback.h"
  },
  {
   "function_name" : "android::hardware::neuralnetworks::V1_3::BnHwPreparedModelCallback::_hidl_notify_1_3",
   "linker_set_key" : "_ZN7android8hardware14neuralnetworks4V1_325BnHwPreparedModelCallback16_hidl_notify_1_3EPNS_4hidl4base4V1_08BnHwBaseERKNS0_6ParcelEPS9_NSt3__18functionIFvRS9_EEE",
   "parameters" :
   [
    {
     "referenced_type" : "_ZTIPN7android4hidl4base4V1_08BnHwBaseE"
    },
    {
     "referenced_type" : "_ZTIRKN7android8hardware6ParcelE"
    },
    {
     "referenced_type" : "_ZTIPN7android8hardware6ParcelE"
    },
    {
     "referenced_type" : "_ZTINSt3__18functionIFvRN7android8hardware6ParcelEEEE"
    }
   ],
   "return_type" : "_ZTIi",
   "source_file" : "/out/soong/.intermediates/hardware/interfaces/neuralnetworks/1.3/android.hardware.neuralnetworks@1.3_genc++_headers/gen/android/hardware/neuralnetworks/1.3/BnHwPreparedModelCallback.h"
  },
  {
   "access" : "private",
   "function_name" : "android::hardware::neuralnetworks::V1_3::BnHwPreparedModelCallback::ping",
   "linker_set_key" : "_ZN7android8hardware14neuralnetworks4V1_325BnHwPreparedModelCallback4pingEv",
   "parameters" :
   [
    {
     "is_this_ptr" : true,
     "referenced_type" : "_ZTIPN7android8hardware14neuralnetworks4V1_325BnHwPreparedModelCallbackE"
    }
   ],
   "return_type" : "_ZTIN7android8hardware6ReturnIvEE",
   "source_file" : "/out/soong/.intermediates/hardware/interfaces/neuralnetworks/1.3/android.hardware.neuralnetworks@1.3_genc++_headers/gen/android/hardware/neuralnetworks/1.3/BnHwPreparedModelCallback.h"
  },
  {
   "function_name" : "android::hardware::neuralnetworks::V1_3::BnHwPreparedModelCallback::BnHwPreparedModelCallback",
   "linker_set_key" : "_ZN7android8hardware14neuralnetworks4V1_325BnHwPreparedModelCallbackC1ERKNS_2spINS2_22IPreparedModelCallbackEEE",
   "parameters" :
   [
    {
     "is_this_ptr" : true,
     "referenced_type" : "_ZTIPN7android8hardware14neuralnetworks4V1_325BnHwPreparedModelCallbackE"
    },
    {
     "referenced_type" : "_ZTIRKN7android2spINS_8hardware14neuralnetworks4V1_322IPreparedModelCallbackEEE"
    }
   ],
   "return_type" : "_ZTIv",
   "source_file" : "/out/soong/.intermediates/hardware/interfaces/neuralnetworks/1.3/android.hardware.neuralnetworks@1.3_genc++_headers/gen/android/hardware/neuralnetworks/1.3/BnHwPreparedModelCallback.h"
  },
  {
   "function_name" : "android::hardware::neuralnetworks::V1_3::BnHwPreparedModelCallback::BnHwPreparedModelCallback",
   "linker_set_key" : "_ZN7android8hardware14neuralnetworks4V1_325BnHwPreparedModelCallbackC2ERKNS_2spINS2_22IPreparedModelCallbackEEE",
   "parameters" :
   [
    {
     "is_this_ptr" : true,
     "referenced_type" : "_ZTIPN7android8hardware14neuralnetworks4V1_325BnHwPreparedModelCallbackE"
    },
    {
     "referenced_type" : "_ZTIRKN7android2spINS_8hardware14neuralnetworks4V1_322IPreparedModelCallbackEEE"
    }
   ],
   "return_type" : "_ZTIv",
   "source_file" : "/out/soong/.intermediates/hardware/interfaces/neuralnetworks/1.3/android.hardware.neuralnetworks@1.3_genc++_headers/gen/android/hardware/neuralnetworks/1.3/BnHwPreparedModelCallback.h"
  },
  {
   "function_name" : "android::hardware::neuralnetworks::V1_3::BnHwPreparedModelCallback::~BnHwPreparedModelCallback",
   "linker_set_key" : "_ZN7android8hardware14neuralnetworks4V1_325BnHwPreparedModelCallbackD0Ev",
   "parameters" :
   [
    {
     "is_this_ptr" : true,
     "referenced_type" : "_ZTIPN7android8hardware14neuralnetworks4V1_325BnHwPreparedModelCallbackE"
    }
   ],
   "return_type" : "_ZTIv",
   "source_file" : "/out/soong/.intermediates/hardware/interfaces/neuralnetworks/1.3/android.hardware.neuralnetworks@1.3_genc++_headers/gen/android/hardware/neuralnetworks/1.3/BnHwPreparedModelCallback.h"
  },
  {
   "function_name" : "android::hardware::neuralnetworks::V1_3::BnHwPreparedModelCallback::~BnHwPreparedModelCallback",
   "linker_set_key" : "_ZN7android8hardware14neuralnetworks4V1_325BnHwPreparedModelCallbackD1Ev",
   "parameters" :
   [
    {
     "is_this_ptr" : true,
     "referenced_type" : "_ZTIPN7android8hardware14neuralnetworks4V1_325BnHwPreparedModelCallbackE"
    }
   ],
   "return_type" : "_ZTIv",
   "source_file" : "/out/soong/.intermediates/hardware/interfaces/neuralnetworks/1.3/android.hardware.neuralnetworks@1.3_genc++_headers/gen/android/hardware/neuralnetworks/1.3/BnHwPreparedModelCallback.h"
  },
  {
   "function_name" : "android::hardware::neuralnetworks::V1_3::BnHwPreparedModelCallback::~BnHwPreparedModelCallback",
   "linker_set_key" : "_ZN7android8hardware14neuralnetworks4V1_325BnHwPreparedModelCallbackD2Ev",
   "parameters" :
   [
    {
     "is_this_ptr" : true,
     "referenced_type" : "_ZTIPN7android8hardware14neuralnetworks4V1_325BnHwPreparedModelCallbackE"
    }
   ],
   "return_type" : "_ZTIv",
   "source_file" : "/out/soong/.intermediates/hardware/interfaces/neuralnetworks/1.3/android.hardware.neuralnetworks@1.3_genc++_headers/gen/android/hardware/neuralnetworks/1.3/BnHwPreparedModelCallback.h"
  },
  {
   "function_name" : "android::hardware::neuralnetworks::V1_3::BpHwPreparedModelCallback::notify_1_2",
   "linker_set_key" : "_ZN7android8hardware14neuralnetworks4V1_325BpHwPreparedModelCallback10notify_1_2ENS1_4V1_011ErrorStatusERKNS_2spINS1_4V1_214IPreparedModelEEE",
   "parameters" :
   [
    {
     "is_this_ptr" : true,
     "referenced_type" : "_ZTIPN7android8hardware14neuralnetworks4V1_325BpHwPreparedModelCallbackE"
    },
    {
     "referenced_type" : "_ZTIN7android8hardware14neuralnetworks4V1_011ErrorStatusE"
    },
    {
     "referenced_type" : "_ZTIRKN7android2spINS_8hardware14neuralnetworks4V1_214IPreparedModelEEE"
    }
   ],
   "return_type" : "_ZTIN7android8hardware6ReturnIvEE",
   "source_file" : "/out/soong/.intermediates/hardware/interfaces/neuralnetworks/1.3/android.hardware.neuralnetworks@1.3_genc++_headers/gen/android/hardware/neuralnetworks/1.3/BpHwPreparedModelCallback.h"
  },
  {
   "function_name" : "android::hardware::neuralnetworks::V1_3::BpHwPreparedModelCallback::notify_1_3",
   "linker_set_key" : "_ZN7android8hardware14neuralnetworks4V1_325BpHwPreparedModelCallback10notify_1_3ENS2_11ErrorStatusERKNS_2spINS2_14IPreparedModelEEE",
   "parameters" :
   [
    {
     "is_this_ptr" : true,
     "referenced_type" : "_ZTIPN7android8hardware14neuralnetworks4V1_325BpHwPreparedModelCallbackE"
    },
    {
     "referenced_type" : "_ZTIN7android8hardware14neuralnetworks4V1_311ErrorStatusE"
    },
    {
     "referenced_type" : "_ZTIRKN7android2spINS_8hardware14neuralnetworks4V1_314IPreparedModelEEE"
    }
   ],
   "return_type" : "_ZTIN7android8hardware6ReturnIvEE",
   "source_file" : "/out/soong/.intermediates/hardware/interfaces/neuralnetworks/1.3/android.hardware.neuralnetworks@1.3_genc++_headers/gen/android/hardware/neuralnetworks/1.3/BpHwPreparedModelCallback.h"
  },
  {
   "function_name" : "android::hardware::neuralnetworks::V1_3::BpHwPreparedModelCallback::linkToDeath",
   "linker_set_key" : "_ZN7android8hardware14neuralnetworks4V1_325BpHwPreparedModelCallback11linkToDeathERKNS_2spINS0_20hidl_death_recipientEEEy",
   "parameters" :
   [
    {
     "is_this_ptr" : true,
     "referenced_type" : "_ZTIPN7android8hardware14neuralnetworks4V1_325BpHwPreparedModelCallbackE"
    },
    {
     "referenced_type" : "_ZTIRKN7android2spINS_8hardware20hidl_death_recipientEEE"
    },
    {
     "referenced_type" : "_ZTIy"
    }
   ],
   "return_type" : "_ZTIN7android8hardware6ReturnIbEE",
   "source_file" : "/out/soong/.intermediates/hardware/interfaces/neuralnetworks/1.3/android.hardware.neuralnetworks@1.3_genc++_headers/gen/android/hardware/neuralnetworks/1.3/BpHwPreparedModelCallback.h"
  },
  {
   "function_name" : "android::hardware::neuralnetworks::V1_3::BpHwPreparedModelCallback::getDebugInfo",
   "linker_set_key" : "_ZN7android8hardware14neuralnetworks4V1_325BpHwPreparedModelCallback12getDebugInfoENSt3__18functionIFvRKNS_4hidl4base4V1_09DebugInfoEEEE",
   "parameters" :
   [
    {
     "is_this_ptr" : true,
     "referenced_type" : "_ZTIPN7android8hardware14neuralnetworks4V1_325BpHwPreparedModelCallbackE"
    },
    {
     "referenced_type" : "_ZTINSt3__18functionIFvRKN7android4hidl4base4V1_09DebugInfoEEEE"
    }
   ],
   "return_type" : "_ZTIN7android8hardware6ReturnIvEE",
   "source_file" : "/out/soong/.intermediates/hardware/interfaces/neuralnetworks/1.3/android.hardware.neuralnetworks@1.3_genc++_headers/gen/android/hardware/neuralnetworks/1.3/BpHwPreparedModelCallback.h"
  },
  {
   "function_name" : "android::hardware::neuralnetworks::V1_3::BpHwPreparedModelCallback::getHashChain",
   "linker_set_key" : "_ZN7android8hardware14neuralnetworks4V1_325BpHwPreparedModelCallback12getHashChainENSt3__18functionIFvRKNS0_8hidl_vecINS0_10hidl_arrayIhLj32EJEEEEEEEE",
   "parameters" :
   [
    {
     "is_this_ptr" : true,
     "referenced_type" : "_ZTIPN7android8hardware14neuralnetworks4V1_325BpHwPreparedModelCallbackE"
    },
    {
     "referenced_type" : "_ZTINSt3__18functionIFvRKN7android8hardware8hidl_vecINS2_10hidl_arrayIhLj32EJEEEEEEEE"
    }
   ],
   "return_type" : "_ZTIN7android8hardware6ReturnIvEE",
   "source_file" : "/out/soong/.intermediates/hardware/interfaces/neuralnetworks/1.3/android.hardware.neuralnetworks@1.3_genc++_headers/gen/android/hardware/neuralnetworks/1.3/BpHwPreparedModelCallback.h"
  },
  {
   "function_name" : "android::hardware::neuralnetworks::V1_3::BpHwPreparedModelCallback::unlinkToDeath",
   "linker_set_key" : "_ZN7android8hardware14neuralnetworks4V1_325BpHwPreparedModelCallback13unlinkToDeathERKNS_2spINS0_20hidl_death_recipientEEE",
   "parameters" :
   [
    {
     "is_this_ptr" : true,
     "referenced_type" : "_ZTIPN7android8hardware14neuralnetworks4V1_325BpHwPreparedModelCallbackE"
    },
    {
     "referenced_type" : "_ZTIRKN7android2spINS_8hardware20hidl_death_recipientEEE"
    }
   ],
   "return_type" : "_ZTIN7android8hardware6ReturnIbEE",
   "source_file" : "/out/soong/.intermediates/hardware/interfaces/neuralnetworks/1.3/android.hardware.neuralnetworks@1.3_genc++_headers/gen/android/hardware/neuralnetworks/1.3/BpHwPreparedModelCallback.h"
  },
  {
   "function_name" : "android::hardware::neuralnetworks::V1_3::BpHwPreparedModelCallback::interfaceChain",
   "linker_set_key" : "_ZN7android8hardware14neuralnetworks4V1_325BpHwPreparedModelCallback14interfaceChainENSt3__18functionIFvRKNS0_8hidl_vecINS0_11hidl_stringEEEEEE",
   "parameters" :
   [
    {
     "is_this_ptr" : true,
     "referenced_type" : "_ZTIPN7android8hardware14neuralnetworks4V1_325BpHwPreparedModelCallbackE"
    },
    {
     "referenced_type" : "_ZTINSt3__18functionIFvRKN7android8hardware8hidl_vecINS2_11hidl_stringEEEEEE"
    }
   ],
   "return_type" : "_ZTIN7android8hardware6ReturnIvEE",
   "source_file" : "/out/soong/.intermediates/hardware/interfaces/neuralnetworks/1.3/android.hardware.neuralnetworks@1.3_genc++_headers/gen/android/hardware/neuralnetworks/1.3/BpHwPreparedModelCallback.h"
  },
  {
   "function_name" : "android::hardware::neuralnetworks::V1_3::BpHwPreparedModelCallback::onLastStrongRef",
   "linker_set_key" : "_ZN7android8hardware14neuralnetworks4V1_325BpHwPreparedModelCallback15onLastStrongRefEPKv",
   "parameters" :
   [
    {
     "is_this_ptr" : true,
     "referenced_type" : "_ZTIPN7android8hardware14neuralnetworks4V1_325BpHwPreparedModelCallbackE"
    },
    {
     "referenced_type" : "_ZTIPKv"
    }
   ],
   "return_type" : "_ZTIv",
   "source_file" : "/out/soong/.intermediates/hardware/interfaces/neuralnetworks/1.3/android.hardware.neuralnetworks@1.3_genc++_headers/gen/android/hardware/neuralnetworks/1.3/BpHwPreparedModelCallback.h"
  },
  {
   "function_name" : "android::hardware::neuralnetworks::V1_3::BpHwPreparedModelCallback::_hidl_notify_1_3",
   "linker_set_key" : "_ZN7android8hardware14neuralnetworks4V1_325BpHwPreparedModelCallback16_hidl_notify_1_3EPNS0_10IInterfaceEPNS0_7details16HidlInstrumentorENS2_11ErrorStatusERKNS_2spINS2_14IPreparedModelEEE",
   "parameters" :
   [
    {
     "referenced_type" : "_ZTIPN7android8hardware10IInterfaceE"
    },
    {
     "referenced_type" : "_ZTIPN7android8hardware7details16HidlInstrumentorE"
    },
    {
     "referenced_type" : "_ZTIN7android8hardware14neuralnetworks4V1_311ErrorStatusE"
    },
    {
     "referenced_type" : "_ZTIRKN7android2spINS_8hardware14neuralnetworks4V1_314IPreparedModelEEE"
    }
   ],
   "return_type" : "_ZTIN7android8hardware6ReturnIvEE",
   "source_file" : "/out/soong/.intermediates/hardware/interfaces/neuralnetworks/1.3/android.hardware.neuralnetworks@1.3_genc++_headers/gen/android/hardware/neuralnetworks/1.3/BpHwPreparedModelCallback.h"
  },
  {
   "function_name" : "android::hardware::neuralnetworks::V1_3::BpHwPreparedModelCallback::interfaceDescriptor",
   "linker_set_key" : "_ZN7android8hardware14neuralnetworks4V1_325BpHwPreparedModelCallback19interfaceDescriptorENSt3__18functionIFvRKNS0_11hidl_stringEEEE",
   "parameters" :
   [
    {
     "is_this_ptr" : true,
     "referenced_type" : "_ZTIPN7android8hardware14neuralnetworks4V1_325BpHwPreparedModelCallbackE"
    },
    {
     "referenced_type" : "_ZTINSt3__18functionIFvRKN7android8hardware11hidl_stringEEEE"
    }
   ],
   "return_type" : "_ZTIN7android8hardware6ReturnIvEE",
   "source_file" : "/out/soong/.intermediates/hardware/interfaces/neuralnetworks/1.3/android.hardware.neuralnetworks@1.3_genc++_headers/gen/android/hardware/neuralnetworks/1.3/BpHwPreparedModelCallback.h"
  },
  {
   "function_name" : "android::hardware::neuralnetworks::V1_3::BpHwPreparedModelCallback::notifySyspropsChanged",
   "linker_set_key" : "_ZN7android8hardware14neuralnetworks4V1_325BpHwPreparedModelCallback21notifySyspropsChangedEv",
   "parameters" :
   [
    {
     "is_this_ptr" : true,
     "referenced_type" : "_ZTIPN7android8hardware14neuralnetworks4V1_325BpHwPreparedModelCallbackE"
    }
   ],
   "return_type" : "_ZTIN7android8hardware6ReturnIvEE",
   "source_file" : "/out/soong/.intermediates/hardware/interfaces/neuralnetworks/1.3/android.hardware.neuralnetworks@1.3_genc++_headers/gen/android/hardware/neuralnetworks/1.3/BpHwPreparedModelCallback.h"
  },
  {
   "function_name" : "android::hardware::neuralnetworks::V1_3::BpHwPreparedModelCallback::setHALInstrumentation",
   "linker_set_key" : "_ZN7android8hardware14neuralnetworks4V1_325BpHwPreparedModelCallback21setHALInstrumentationEv",
   "parameters" :
   [
    {
     "is_this_ptr" : true,
     "referenced_type" : "_ZTIPN7android8hardware14neuralnetworks4V1_325BpHwPreparedModelCallbackE"
    }
   ],
   "return_type" : "_ZTIN7android8hardware6ReturnIvEE",
   "source_file" : "/out/soong/.intermediates/hardware/interfaces/neuralnetworks/1.3/android.hardware.neuralnetworks@1.3_genc++_headers/gen/android/hardware/neuralnetworks/1.3/BpHwPreparedModelCallback.h"
  },
  {
   "function_name" : "android::hardware::neuralnetworks::V1_3::BpHwPreparedModelCallback::ping",
   "linker_set_key" : "_ZN7android8hardware14neuralnetworks4V1_325BpHwPreparedModelCallback4pingEv",
   "parameters" :
   [
    {
     "is_this_ptr" : true,
     "referenced_type" : "_ZTIPN7android8hardware14neuralnetworks4V1_325BpHwPreparedModelCallbackE"
    }
   ],
   "return_type" : "_ZTIN7android8hardware6ReturnIvEE",
   "source_file" : "/out/soong/.intermediates/hardware/interfaces/neuralnetworks/1.3/android.hardware.neuralnetworks@1.3_genc++_headers/gen/android/hardware/neuralnetworks/1.3/BpHwPreparedModelCallback.h"
  },
  {
   "function_name" : "android::hardware::neuralnetworks::V1_3::BpHwPreparedModelCallback::debug",
   "linker_set_key" : "_ZN7android8hardware14neuralnetworks4V1_325BpHwPreparedModelCallback5debugERKNS0_11hidl_handleERKNS0_8hidl_vecINS0_11hidl_stringEEE",
   "parameters" :
   [
    {
     "is_this_ptr" : true,
     "referenced_type" : "_ZTIPN7android8hardware14neuralnetworks4V1_325BpHwPreparedModelCallbackE"
    },
    {
     "referenced_type" : "_ZTIRKN7android8hardware11hidl_handleE"
    },
    {
     "referenced_type" : "_ZTIRKN7android8hardware8hidl_vecINS0_11hidl_stringEEE"
    }
   ],
   "return_type" : "_ZTIN7android8hardware6ReturnIvEE",
   "source_file" : "/out/soong/.intermediates/hardware/interfaces/neuralnetworks/1.3/android.hardware.neuralnetworks@1.3_genc++_headers/gen/android/hardware/neuralnetworks/1.3/BpHwPreparedModelCallback.h"
  },
  {
   "function_name" : "android::hardware::neuralnetworks::V1_3::BpHwPreparedModelCallback::notify",
   "linker_set_key" : "_ZN7android8hardware14neuralnetworks4V1_325BpHwPreparedModelCallback6notifyENS1_4V1_011ErrorStatusERKNS_2spINS4_14IPreparedModelEEE",
   "parameters" :
   [
    {
     "is_this_ptr" : true,
     "referenced_type" : "_ZTIPN7android8hardware14neuralnetworks4V1_325BpHwPreparedModelCallbackE"
    },
    {
     "referenced_type" : "_ZTIN7android8hardware14neuralnetworks4V1_011ErrorStatusE"
    },
    {
     "referenced_type" : "_ZTIRKN7android2spINS_8hardware14neuralnetworks4V1_014IPreparedModelEEE"
    }
   ],
   "return_type" : "_ZTIN7android8hardware6ReturnIvEE",
   "source_file" : "/out/soong/.intermediates/hardware/interfaces/neuralnetworks/1.3/android.hardware.neuralnetworks@1.3_genc++_headers/gen/android/hardware/neuralnetworks/1.3/BpHwPreparedModelCallback.h"
  },
  {
   "function_name" : "android::hardware::neuralnetworks::V1_3::BpHwPreparedModelCallback::BpHwPreparedModelCallback",
   "linker_set_key" : "_ZN7android8hardware14neuralnetworks4V1_325BpHwPreparedModelCallbackC1ERKNS_2spINS0_7IBinderEEE",
   "parameters" :
   [
    {
     "is_this_ptr" : true,
     "referenced_type" : "_ZTIPN7android8hardware14neuralnetworks4V1_325BpHwPreparedModelCallbackE"
    },
    {
     "referenced_type" : "_ZTIRKN7android2spINS_8hardware7IBinderEEE"
    }
   ],
   "return_type" : "_ZTIv",
   "source_file" : "/out/soong/.intermediates/hardware/interfaces/neuralnetworks/1.3/android.hardware.neuralnetworks@1.3_genc++_headers/gen/android/hardware/neuralnetworks/1.3/BpHwPreparedModelCallback.h"
  },
  {
   "function_name" : "android::hardware::neuralnetworks::V1_3::BpHwPreparedModelCallback::BpHwPreparedModelCallback",
   "linker_set_key" : "_ZN7android8hardware14neuralnetworks4V1_325BpHwPreparedModelCallbackC2ERKNS_2spINS0_7IBinderEEE",
   "parameters" :
   [
    {
     "is_this_ptr" : true,
     "referenced_type" : "_ZTIPN7android8hardware14neuralnetworks4V1_325BpHwPreparedModelCallbackE"
    },
    {
     "referenced_type" : "_ZTIRKN7android2spINS_8hardware7IBinderEEE"
    }
   ],
   "return_type" : "_ZTIv",
   "source_file" : "/out/soong/.intermediates/hardware/interfaces/neuralnetworks/1.3/android.hardware.neuralnetworks@1.3_genc++_headers/gen/android/hardware/neuralnetworks/1.3/BpHwPreparedModelCallback.h"
  },
  {
   "access" : "private",
   "function_name" : "android::hardware::neuralnetworks::V1_3::BsFencedExecutionCallback::addOnewayTask",
   "linker_set_key" : "_ZN7android8hardware14neuralnetworks4V1_325BsFencedExecutionCallback13addOnewayTaskENSt3__18functionIFvvEEE",
   "parameters" :
   [
    {
     "is_this_ptr" : true,
     "referenced_type" : "_ZTIPN7android8hardware14neuralnetworks4V1_325BsFencedExecutionCallbackE"
    },
    {
     "referenced_type" : "_ZTINSt3__18functionIFvvEEE"
    }
   ],
   "return_type" : "_ZTIN7android8hardware6ReturnIvEE",
   "source_file" : "/out/soong/.intermediates/hardware/interfaces/neuralnetworks/1.3/android.hardware.neuralnetworks@1.3_genc++_headers/gen/android/hardware/neuralnetworks/1.3/BsFencedExecutionCallback.h"
  },
  {
   "function_name" : "android::hardware::neuralnetworks::V1_3::BsFencedExecutionCallback::BsFencedExecutionCallback",
   "linker_set_key" : "_ZN7android8hardware14neuralnetworks4V1_325BsFencedExecutionCallbackC1ENS_2spINS2_24IFencedExecutionCallbackEEE",
   "parameters" :
   [
    {
     "is_this_ptr" : true,
     "referenced_type" : "_ZTIPN7android8hardware14neuralnetworks4V1_325BsFencedExecutionCallbackE"
    },
    {
     "referenced_type" : "_ZTIKN7android2spINS_8hardware14neuralnetworks4V1_324IFencedExecutionCallbackEEE"
    }
   ],
   "return_type" : "_ZTIv",
   "source_file" : "/out/soong/.intermediates/hardware/interfaces/neuralnetworks/1.3/android.hardware.neuralnetworks@1.3_genc++_headers/gen/android/hardware/neuralnetworks/1.3/BsFencedExecutionCallback.h"
  },
  {
   "function_name" : "android::hardware::neuralnetworks::V1_3::BsFencedExecutionCallback::BsFencedExecutionCallback",
   "linker_set_key" : "_ZN7android8hardware14neuralnetworks4V1_325BsFencedExecutionCallbackC2ENS_2spINS2_24IFencedExecutionCallbackEEE",
   "parameters" :
   [
    {
     "is_this_ptr" : true,
     "referenced_type" : "_ZTIPN7android8hardware14neuralnetworks4V1_325BsFencedExecutionCallbackE"
    },
    {
     "referenced_type" : "_ZTIKN7android2spINS_8hardware14neuralnetworks4V1_324IFencedExecutionCallbackEEE"
    }
   ],
   "return_type" : "_ZTIv",
   "source_file" : "/out/soong/.intermediates/hardware/interfaces/neuralnetworks/1.3/android.hardware.neuralnetworks@1.3_genc++_headers/gen/android/hardware/neuralnetworks/1.3/BsFencedExecutionCallback.h"
  },
  {
   "function_name" : "android::hardware::neuralnetworks::V1_3::BnHwFencedExecutionCallback::onTransact",
   "linker_set_key" : "_ZN7android8hardware14neuralnetworks4V1_327BnHwFencedExecutionCallback10onTransactEjRKNS0_6ParcelEPS4_jNSt3__18functionIFvRS4_EEE",
   "parameters" :
   [
    {
     "is_this_ptr" : true,
     "referenced_type" : "_ZTIPN7android8hardware14neuralnetworks4V1_327BnHwFencedExecutionCallbackE"
    },
    {
     "referenced_type" : "_ZTIj"
    },
    {
     "referenced_type" : "_ZTIRKN7android8hardware6ParcelE"
    },
    {
     "referenced_type" : "_ZTIPN7android8hardware6ParcelE"
    },
    {
     "default_arg" : true,
     "referenced_type" : "_ZTIj"
    },
    {
     "default_arg" : true,
     "referenced_type" : "_ZTINSt3__18functionIFvRN7android8hardware6ParcelEEEE"
    }
   ],
   "return_type" : "_ZTIi",
   "source_file" : "/out/soong/.intermediates/hardware/interfaces/neuralnetworks/1.3/android.hardware.neuralnetworks@1.3_genc++_headers/gen/android/hardware/neuralnetworks/1.3/BnHwFencedExecutionCallback.h"
  },
  {
   "access" : "private",
   "function_name" : "android::hardware::neuralnetworks::V1_3::BnHwFencedExecutionCallback::getDebugInfo",
   "linker_set_key" : "_ZN7android8hardware14neuralnetworks4V1_327BnHwFencedExecutionCallback12getDebugInfoENSt3__18functionIFvRKNS_4hidl4base4V1_09DebugInfoEEEE",
   "parameters" :
   [
    {
     "is_this_ptr" : true,
     "referenced_type" : "_ZTIPN7android8hardware14neuralnetworks4V1_327BnHwFencedExecutionCallbackE"
    },
    {
     "referenced_type" : "_ZTINSt3__18functionIFvRKN7android4hidl4base4V1_09DebugInfoEEEE"
    }
   ],
   "return_type" : "_ZTIN7android8hardware6ReturnIvEE",
   "source_file" : "/out/soong/.intermediates/hardware/interfaces/neuralnetworks/1.3/android.hardware.neuralnetworks@1.3_genc++_headers/gen/android/hardware/neuralnetworks/1.3/BnHwFencedExecutionCallback.h"
  },
  {
   "function_name" : "android::hardware::neuralnetworks::V1_3::BnHwFencedExecutionCallback::_hidl_getExecutionInfo",
   "linker_set_key" : "_ZN7android8hardware14neuralnetworks4V1_327BnHwFencedExecutionCallback22_hidl_getExecutionInfoEPNS_4hidl4base4V1_08BnHwBaseERKNS0_6ParcelEPS9_NSt3__18functionIFvRS9_EEE",
   "parameters" :
   [
    {
     "referenced_type" : "_ZTIPN7android4hidl4base4V1_08BnHwBaseE"
    },
    {
     "referenced_type" : "_ZTIRKN7android8hardware6ParcelE"
    },
    {
     "referenced_type" : "_ZTIPN7android8hardware6ParcelE"
    },
    {
     "referenced_type" : "_ZTINSt3__18functionIFvRN7android8hardware6ParcelEEEE"
    }
   ],
   "return_type" : "_ZTIi",
   "source_file" : "/out/soong/.intermediates/hardware/interfaces/neuralnetworks/1.3/android.hardware.neuralnetworks@1.3_genc++_headers/gen/android/hardware/neuralnetworks/1.3/BnHwFencedExecutionCallback.h"
  },
  {
   "access" : "private",
   "function_name" : "android::hardware::neuralnetworks::V1_3::BnHwFencedExecutionCallback::ping",
   "linker_set_key" : "_ZN7android8hardware14neuralnetworks4V1_327BnHwFencedExecutionCallback4pingEv",
   "parameters" :
   [
    {
     "is_this_ptr" : true,
     "referenced_type" : "_ZTIPN7android8hardware14neuralnetworks4V1_327BnHwFencedExecutionCallbackE"
    }
   ],
   "return_type" : "_ZTIN7android8hardware6ReturnIvEE",
   "source_file" : "/out/soong/.intermediates/hardware/interfaces/neuralnetworks/1.3/android.hardware.neuralnetworks@1.3_genc++_headers/gen/android/hardware/neuralnetworks/1.3/BnHwFencedExecutionCallback.h"
  },
  {
   "function_name" : "android::hardware::neuralnetworks::V1_3::BnHwFencedExecutionCallback::BnHwFencedExecutionCallback",
   "linker_set_key" : "_ZN7android8hardware14neuralnetworks4V1_327BnHwFencedExecutionCallbackC1ERKNS_2spINS2_24IFencedExecutionCallbackEEE",
   "parameters" :
   [
    {
     "is_this_ptr" : true,
     "referenced_type" : "_ZTIPN7android8hardware14neuralnetworks4V1_327BnHwFencedExecutionCallbackE"
    },
    {
     "referenced_type" : "_ZTIRKN7android2spINS_8hardware14neuralnetworks4V1_324IFencedExecutionCallbackEEE"
    }
   ],
   "return_type" : "_ZTIv",
   "source_file" : "/out/soong/.intermediates/hardware/interfaces/neuralnetworks/1.3/android.hardware.neuralnetworks@1.3_genc++_headers/gen/android/hardware/neuralnetworks/1.3/BnHwFencedExecutionCallback.h"
  },
  {
   "function_name" : "android::hardware::neuralnetworks::V1_3::BnHwFencedExecutionCallback::BnHwFencedExecutionCallback",
   "linker_set_key" : "_ZN7android8hardware14neuralnetworks4V1_327BnHwFencedExecutionCallbackC2ERKNS_2spINS2_24IFencedExecutionCallbackEEE",
   "parameters" :
   [
    {
     "is_this_ptr" : true,
     "referenced_type" : "_ZTIPN7android8hardware14neuralnetworks4V1_327BnHwFencedExecutionCallbackE"
    },
    {
     "referenced_type" : "_ZTIRKN7android2spINS_8hardware14neuralnetworks4V1_324IFencedExecutionCallbackEEE"
    }
   ],
   "return_type" : "_ZTIv",
   "source_file" : "/out/soong/.intermediates/hardware/interfaces/neuralnetworks/1.3/android.hardware.neuralnetworks@1.3_genc++_headers/gen/android/hardware/neuralnetworks/1.3/BnHwFencedExecutionCallback.h"
  },
  {
   "function_name" : "android::hardware::neuralnetworks::V1_3::BnHwFencedExecutionCallback::~BnHwFencedExecutionCallback",
   "linker_set_key" : "_ZN7android8hardware14neuralnetworks4V1_327BnHwFencedExecutionCallbackD0Ev",
   "parameters" :
   [
    {
     "is_this_ptr" : true,
     "referenced_type" : "_ZTIPN7android8hardware14neuralnetworks4V1_327BnHwFencedExecutionCallbackE"
    }
   ],
   "return_type" : "_ZTIv",
   "source_file" : "/out/soong/.intermediates/hardware/interfaces/neuralnetworks/1.3/android.hardware.neuralnetworks@1.3_genc++_headers/gen/android/hardware/neuralnetworks/1.3/BnHwFencedExecutionCallback.h"
  },
  {
   "function_name" : "android::hardware::neuralnetworks::V1_3::BnHwFencedExecutionCallback::~BnHwFencedExecutionCallback",
   "linker_set_key" : "_ZN7android8hardware14neuralnetworks4V1_327BnHwFencedExecutionCallbackD1Ev",
   "parameters" :
   [
    {
     "is_this_ptr" : true,
     "referenced_type" : "_ZTIPN7android8hardware14neuralnetworks4V1_327BnHwFencedExecutionCallbackE"
    }
   ],
   "return_type" : "_ZTIv",
   "source_file" : "/out/soong/.intermediates/hardware/interfaces/neuralnetworks/1.3/android.hardware.neuralnetworks@1.3_genc++_headers/gen/android/hardware/neuralnetworks/1.3/BnHwFencedExecutionCallback.h"
  },
  {
   "function_name" : "android::hardware::neuralnetworks::V1_3::BnHwFencedExecutionCallback::~BnHwFencedExecutionCallback",
   "linker_set_key" : "_ZN7android8hardware14neuralnetworks4V1_327BnHwFencedExecutionCallbackD2Ev",
   "parameters" :
   [
    {
     "is_this_ptr" : true,
     "referenced_type" : "_ZTIPN7android8hardware14neuralnetworks4V1_327BnHwFencedExecutionCallbackE"
    }
   ],
   "return_type" : "_ZTIv",
   "source_file" : "/out/soong/.intermediates/hardware/interfaces/neuralnetworks/1.3/android.hardware.neuralnetworks@1.3_genc++_headers/gen/android/hardware/neuralnetworks/1.3/BnHwFencedExecutionCallback.h"
  },
  {
   "function_name" : "android::hardware::neuralnetworks::V1_3::BpHwFencedExecutionCallback::linkToDeath",
   "linker_set_key" : "_ZN7android8hardware14neuralnetworks4V1_327BpHwFencedExecutionCallback11linkToDeathERKNS_2spINS0_20hidl_death_recipientEEEy",
   "parameters" :
   [
    {
     "is_this_ptr" : true,
     "referenced_type" : "_ZTIPN7android8hardware14neuralnetworks4V1_327BpHwFencedExecutionCallbackE"
    },
    {
     "referenced_type" : "_ZTIRKN7android2spINS_8hardware20hidl_death_recipientEEE"
    },
    {
     "referenced_type" : "_ZTIy"
    }
   ],
   "return_type" : "_ZTIN7android8hardware6ReturnIbEE",
   "source_file" : "/out/soong/.intermediates/hardware/interfaces/neuralnetworks/1.3/android.hardware.neuralnetworks@1.3_genc++_headers/gen/android/hardware/neuralnetworks/1.3/BpHwFencedExecutionCallback.h"
  },
  {
   "function_name" : "android::hardware::neuralnetworks::V1_3::BpHwFencedExecutionCallback::getDebugInfo",
   "linker_set_key" : "_ZN7android8hardware14neuralnetworks4V1_327BpHwFencedExecutionCallback12getDebugInfoENSt3__18functionIFvRKNS_4hidl4base4V1_09DebugInfoEEEE",
   "parameters" :
   [
    {
     "is_this_ptr" : true,
     "referenced_type" : "_ZTIPN7android8hardware14neuralnetworks4V1_327BpHwFencedExecutionCallbackE"
    },
    {
     "referenced_type" : "_ZTINSt3__18functionIFvRKN7android4hidl4base4V1_09DebugInfoEEEE"
    }
   ],
   "return_type" : "_ZTIN7android8hardware6ReturnIvEE",
   "source_file" : "/out/soong/.intermediates/hardware/interfaces/neuralnetworks/1.3/android.hardware.neuralnetworks@1.3_genc++_headers/gen/android/hardware/neuralnetworks/1.3/BpHwFencedExecutionCallback.h"
  },
  {
   "function_name" : "android::hardware::neuralnetworks::V1_3::BpHwFencedExecutionCallback::getHashChain",
   "linker_set_key" : "_ZN7android8hardware14neuralnetworks4V1_327BpHwFencedExecutionCallback12getHashChainENSt3__18functionIFvRKNS0_8hidl_vecINS0_10hidl_arrayIhLj32EJEEEEEEEE",
   "parameters" :
   [
    {
     "is_this_ptr" : true,
     "referenced_type" : "_ZTIPN7android8hardware14neuralnetworks4V1_327BpHwFencedExecutionCallbackE"
    },
    {
     "referenced_type" : "_ZTINSt3__18functionIFvRKN7android8hardware8hidl_vecINS2_10hidl_arrayIhLj32EJEEEEEEEE"
    }
   ],
   "return_type" : "_ZTIN7android8hardware6ReturnIvEE",
   "source_file" : "/out/soong/.intermediates/hardware/interfaces/neuralnetworks/1.3/android.hardware.neuralnetworks@1.3_genc++_headers/gen/android/hardware/neuralnetworks/1.3/BpHwFencedExecutionCallback.h"
  },
  {
   "function_name" : "android::hardware::neuralnetworks::V1_3::BpHwFencedExecutionCallback::unlinkToDeath",
   "linker_set_key" : "_ZN7android8hardware14neuralnetworks4V1_327BpHwFencedExecutionCallback13unlinkToDeathERKNS_2spINS0_20hidl_death_recipientEEE",
   "parameters" :
   [
    {
     "is_this_ptr" : true,
     "referenced_type" : "_ZTIPN7android8hardware14neuralnetworks4V1_327BpHwFencedExecutionCallbackE"
    },
    {
     "referenced_type" : "_ZTIRKN7android2spINS_8hardware20hidl_death_recipientEEE"
    }
   ],
   "return_type" : "_ZTIN7android8hardware6ReturnIbEE",
   "source_file" : "/out/soong/.intermediates/hardware/interfaces/neuralnetworks/1.3/android.hardware.neuralnetworks@1.3_genc++_headers/gen/android/hardware/neuralnetworks/1.3/BpHwFencedExecutionCallback.h"
  },
  {
   "function_name" : "android::hardware::neuralnetworks::V1_3::BpHwFencedExecutionCallback::interfaceChain",
   "linker_set_key" : "_ZN7android8hardware14neuralnetworks4V1_327BpHwFencedExecutionCallback14interfaceChainENSt3__18functionIFvRKNS0_8hidl_vecINS0_11hidl_stringEEEEEE",
   "parameters" :
   [
    {
     "is_this_ptr" : true,
     "referenced_type" : "_ZTIPN7android8hardware14neuralnetworks4V1_327BpHwFencedExecutionCallbackE"
    },
    {
     "referenced_type" : "_ZTINSt3__18functionIFvRKN7android8hardware8hidl_vecINS2_11hidl_stringEEEEEE"
    }
   ],
   "return_type" : "_ZTIN7android8hardware6ReturnIvEE",
   "source_file" : "/out/soong/.intermediates/hardware/interfaces/neuralnetworks/1.3/android.hardware.neuralnetworks@1.3_genc++_headers/gen/android/hardware/neuralnetworks/1.3/BpHwFencedExecutionCallback.h"
  },
  {
   "function_name" : "android::hardware::neuralnetworks::V1_3::BpHwFencedExecutionCallback::onLastStrongRef",
   "linker_set_key" : "_ZN7android8hardware14neuralnetworks4V1_327BpHwFencedExecutionCallback15onLastStrongRefEPKv",
   "parameters" :
   [
    {
     "is_this_ptr" : true,
     "referenced_type" : "_ZTIPN7android8hardware14neuralnetworks4V1_327BpHwFencedExecutionCallbackE"
    },
    {
     "referenced_type" : "_ZTIPKv"
    }
   ],
   "return_type" : "_ZTIv",
   "source_file" : "/out/soong/.intermediates/hardware/interfaces/neuralnetworks/1.3/android.hardware.neuralnetworks@1.3_genc++_headers/gen/android/hardware/neuralnetworks/1.3/BpHwFencedExecutionCallback.h"
  },
  {
   "function_name" : "android::hardware::neuralnetworks::V1_3::BpHwFencedExecutionCallback::getExecutionInfo",
   "linker_set_key" : "_ZN7android8hardware14neuralnetworks4V1_327BpHwFencedExecutionCallback16getExecutionInfoENSt3__18functionIFvNS2_11ErrorStatusERKNS1_4V1_26TimingESA_EEE",
   "parameters" :
   [
    {
     "is_this_ptr" : true,
     "referenced_type" : "_ZTIPN7android8hardware14neuralnetworks4V1_327BpHwFencedExecutionCallbackE"
    },
    {
     "referenced_type" : "_ZTINSt3__18functionIFvN7android8hardware14neuralnetworks4V1_311ErrorStatusERKNS3_4V1_26TimingES9_EEE"
    }
   ],
   "return_type" : "_ZTIN7android8hardware6ReturnIvEE",
   "source_file" : "/out/soong/.intermediates/hardware/interfaces/neuralnetworks/1.3/android.hardware.neuralnetworks@1.3_genc++_headers/gen/android/hardware/neuralnetworks/1.3/BpHwFencedExecutionCallback.h"
  },
  {
   "function_name" : "android::hardware::neuralnetworks::V1_3::BpHwFencedExecutionCallback::interfaceDescriptor",
   "linker_set_key" : "_ZN7android8hardware14neuralnetworks4V1_327BpHwFencedExecutionCallback19interfaceDescriptorENSt3__18functionIFvRKNS0_11hidl_stringEEEE",
   "parameters" :
   [
    {
     "is_this_ptr" : true,
     "referenced_type" : "_ZTIPN7android8hardware14neuralnetworks4V1_327BpHwFencedExecutionCallbackE"
    },
    {
     "referenced_type" : "_ZTINSt3__18functionIFvRKN7android8hardware11hidl_stringEEEE"
    }
   ],
   "return_type" : "_ZTIN7android8hardware6ReturnIvEE",
   "source_file" : "/out/soong/.intermediates/hardware/interfaces/neuralnetworks/1.3/android.hardware.neuralnetworks@1.3_genc++_headers/gen/android/hardware/neuralnetworks/1.3/BpHwFencedExecutionCallback.h"
  },
  {
   "function_name" : "android::hardware::neuralnetworks::V1_3::BpHwFencedExecutionCallback::notifySyspropsChanged",
   "linker_set_key" : "_ZN7android8hardware14neuralnetworks4V1_327BpHwFencedExecutionCallback21notifySyspropsChangedEv",
   "parameters" :
   [
    {
     "is_this_ptr" : true,
     "referenced_type" : "_ZTIPN7android8hardware14neuralnetworks4V1_327BpHwFencedExecutionCallbackE"
    }
   ],
   "return_type" : "_ZTIN7android8hardware6ReturnIvEE",
   "source_file" : "/out/soong/.intermediates/hardware/interfaces/neuralnetworks/1.3/android.hardware.neuralnetworks@1.3_genc++_headers/gen/android/hardware/neuralnetworks/1.3/BpHwFencedExecutionCallback.h"
  },
  {
   "function_name" : "android::hardware::neuralnetworks::V1_3::BpHwFencedExecutionCallback::setHALInstrumentation",
   "linker_set_key" : "_ZN7android8hardware14neuralnetworks4V1_327BpHwFencedExecutionCallback21setHALInstrumentationEv",
   "parameters" :
   [
    {
     "is_this_ptr" : true,
     "referenced_type" : "_ZTIPN7android8hardware14neuralnetworks4V1_327BpHwFencedExecutionCallbackE"
    }
   ],
   "return_type" : "_ZTIN7android8hardware6ReturnIvEE",
   "source_file" : "/out/soong/.intermediates/hardware/interfaces/neuralnetworks/1.3/android.hardware.neuralnetworks@1.3_genc++_headers/gen/android/hardware/neuralnetworks/1.3/BpHwFencedExecutionCallback.h"
  },
  {
   "function_name" : "android::hardware::neuralnetworks::V1_3::BpHwFencedExecutionCallback::_hidl_getExecutionInfo",
   "linker_set_key" : "_ZN7android8hardware14neuralnetworks4V1_327BpHwFencedExecutionCallback22_hidl_getExecutionInfoEPNS0_10IInterfaceEPNS0_7details16HidlInstrumentorENSt3__18functionIFvNS2_11ErrorStatusERKNS1_4V1_26TimingESF_EEE",
   "parameters" :
   [
    {
     "referenced_type" : "_ZTIPN7android8hardware10IInterfaceE"
    },
    {
     "referenced_type" : "_ZTIPN7android8hardware7details16HidlInstrumentorE"
    },
    {
     "referenced_type" : "_ZTINSt3__18functionIFvN7android8hardware14neuralnetworks4V1_311ErrorStatusERKNS3_4V1_26TimingES9_EEE"
    }
   ],
   "return_type" : "_ZTIN7android8hardware6ReturnIvEE",
   "source_file" : "/out/soong/.intermediates/hardware/interfaces/neuralnetworks/1.3/android.hardware.neuralnetworks@1.3_genc++_headers/gen/android/hardware/neuralnetworks/1.3/BpHwFencedExecutionCallback.h"
  },
  {
   "function_name" : "android::hardware::neuralnetworks::V1_3::BpHwFencedExecutionCallback::ping",
   "linker_set_key" : "_ZN7android8hardware14neuralnetworks4V1_327BpHwFencedExecutionCallback4pingEv",
   "parameters" :
   [
    {
     "is_this_ptr" : true,
     "referenced_type" : "_ZTIPN7android8hardware14neuralnetworks4V1_327BpHwFencedExecutionCallbackE"
    }
   ],
   "return_type" : "_ZTIN7android8hardware6ReturnIvEE",
   "source_file" : "/out/soong/.intermediates/hardware/interfaces/neuralnetworks/1.3/android.hardware.neuralnetworks@1.3_genc++_headers/gen/android/hardware/neuralnetworks/1.3/BpHwFencedExecutionCallback.h"
  },
  {
   "function_name" : "android::hardware::neuralnetworks::V1_3::BpHwFencedExecutionCallback::debug",
