{
 "record_types":[
  {
   "vtable_components":[
    {
     "kind":"vbase_offset",
     "component_value":8
    },
    {
     "kind":"offset_to_top"
    },
    {
     "kind":"rtti",
     "mangled_component_name":"_ZTIN7android8hardware3usb4V1_012IUsbCallbackE"
    },
    {
     "mangled_component_name":"_ZNK7android8hardware3usb4V1_012IUsbCallback8isRemoteEv"
    },
    {
     "mangled_component_name":"_ZN7android8hardware3usb4V1_012IUsbCallback14interfaceChainENSt3__18functionIFvRKNS0_8hidl_vecINS0_11hidl_stringEEEEEE"
    },
    {
     "mangled_component_name":"_ZN7android8hardware3usb4V1_012IUsbCallback5debugERKNS0_11hidl_handleERKNS0_8hidl_vecINS0_11hidl_stringEEE"
    },
    {
     "mangled_component_name":"_ZN7android8hardware3usb4V1_012IUsbCallback19interfaceDescriptorENSt3__18functionIFvRKNS0_11hidl_stringEEEE"
    },
    {
     "mangled_component_name":"_ZN7android8hardware3usb4V1_012IUsbCallback12getHashChainENSt3__18functionIFvRKNS0_8hidl_vecINS0_10hidl_arrayIhLm32EJEEEEEEEE"
    },
    {
     "mangled_component_name":"_ZN7android8hardware3usb4V1_012IUsbCallback21setHALInstrumentationEv"
    },
    {
     "mangled_component_name":"_ZN7android8hardware3usb4V1_012IUsbCallback11linkToDeathERKNS_2spINS0_20hidl_death_recipientEEEm"
    },
    {
     "mangled_component_name":"_ZN7android8hardware3usb4V1_012IUsbCallback4pingEv"
    },
    {
     "mangled_component_name":"_ZN7android8hardware3usb4V1_012IUsbCallback12getDebugInfoENSt3__18functionIFvRKNS_4hidl4base4V1_09DebugInfoEEEE"
    },
    {
     "mangled_component_name":"_ZN7android8hardware3usb4V1_012IUsbCallback21notifySyspropsChangedEv"
    },
    {
     "mangled_component_name":"_ZN7android8hardware3usb4V1_012IUsbCallback13unlinkToDeathERKNS_2spINS0_20hidl_death_recipientEEE"
    },
    {
     "kind":"complete_dtor_pointer",
     "mangled_component_name":"_ZN7android8hardware3usb4V1_012IUsbCallbackD1Ev"
    },
    {
     "kind":"deleting_dtor_pointer",
     "mangled_component_name":"_ZN7android8hardware3usb4V1_012IUsbCallbackD0Ev"
    },
    {
     "is_pure":true,
     "mangled_component_name":"_ZN7android8hardware3usb4V1_012IUsbCallback22notifyPortStatusChangeERKNS0_8hidl_vecINS2_10PortStatusEEENS2_6StatusE"
    },
    {
     "is_pure":true,
     "mangled_component_name":"_ZN7android8hardware3usb4V1_012IUsbCallback22notifyRoleSwitchStatusERKNS0_11hidl_stringERKNS2_8PortRoleENS2_6StatusE"
    },
    {
     "kind":"vcall_offset"
    },
    {
     "kind":"vcall_offset"
    },
    {
     "kind":"vcall_offset"
    },
    {
     "kind":"vcall_offset"
    },
    {
     "kind":"vcall_offset",
     "component_value":-8
    },
    {
     "kind":"offset_to_top",
     "component_value":-8
    },
    {
     "kind":"rtti",
     "mangled_component_name":"_ZTIN7android8hardware3usb4V1_012IUsbCallbackE"
    },
    {
     "kind":"complete_dtor_pointer",
     "mangled_component_name":"_ZTv0_n24_N7android8hardware3usb4V1_012IUsbCallbackD1Ev"
    },
    {
     "kind":"deleting_dtor_pointer",
     "mangled_component_name":"_ZTv0_n24_N7android8hardware3usb4V1_012IUsbCallbackD0Ev"
    },
    {
     "mangled_component_name":"_ZN7android7RefBase10onFirstRefEv"
    },
    {
     "mangled_component_name":"_ZN7android7RefBase15onLastStrongRefEPKv"
    },
    {
     "mangled_component_name":"_ZN7android7RefBase20onIncStrongAttemptedEjPKv"
    },
    {
     "mangled_component_name":"_ZN7android7RefBase13onLastWeakRefEPKv"
    }
   ],
   "unique_id":"_ZTSN7android8hardware3usb4V1_012IUsbCallbackE"
  },
  {
   "vtable_components":[
    {
     "kind":"vbase_offset",
     "component_value":200
    },
    {
     "kind":"offset_to_top"
    },
    {
     "kind":"rtti",
     "mangled_component_name":"_ZTIN7android8hardware3usb4V1_015BpHwUsbCallbackE"
    },
    {
     "mangled_component_name":"_ZNK7android8hardware3usb4V1_015BpHwUsbCallback8isRemoteEv"
    },
    {
     "mangled_component_name":"_ZN7android8hardware3usb4V1_015BpHwUsbCallback14interfaceChainENSt3__18functionIFvRKNS0_8hidl_vecINS0_11hidl_stringEEEEEE"
    },
    {
     "mangled_component_name":"_ZN7android8hardware3usb4V1_015BpHwUsbCallback5debugERKNS0_11hidl_handleERKNS0_8hidl_vecINS0_11hidl_stringEEE"
    },
    {
     "mangled_component_name":"_ZN7android8hardware3usb4V1_015BpHwUsbCallback19interfaceDescriptorENSt3__18functionIFvRKNS0_11hidl_stringEEEE"
    },
    {
     "mangled_component_name":"_ZN7android8hardware3usb4V1_015BpHwUsbCallback12getHashChainENSt3__18functionIFvRKNS0_8hidl_vecINS0_10hidl_arrayIhLm32EJEEEEEEEE"
    },
    {
     "mangled_component_name":"_ZN7android8hardware3usb4V1_015BpHwUsbCallback21setHALInstrumentationEv"
    },
    {
     "mangled_component_name":"_ZN7android8hardware3usb4V1_015BpHwUsbCallback11linkToDeathERKNS_2spINS0_20hidl_death_recipientEEEm"
    },
    {
     "mangled_component_name":"_ZN7android8hardware3usb4V1_015BpHwUsbCallback4pingEv"
    },
    {
     "mangled_component_name":"_ZN7android8hardware3usb4V1_015BpHwUsbCallback12getDebugInfoENSt3__18functionIFvRKNS_4hidl4base4V1_09DebugInfoEEEE"
    },
    {
     "mangled_component_name":"_ZN7android8hardware3usb4V1_015BpHwUsbCallback21notifySyspropsChangedEv"
    },
    {
     "mangled_component_name":"_ZN7android8hardware3usb4V1_015BpHwUsbCallback13unlinkToDeathERKNS_2spINS0_20hidl_death_recipientEEE"
    },
    {
     "kind":"complete_dtor_pointer",
     "mangled_component_name":"_ZN7android8hardware3usb4V1_015BpHwUsbCallbackD1Ev"
    },
    {
     "kind":"deleting_dtor_pointer",
     "mangled_component_name":"_ZN7android8hardware3usb4V1_015BpHwUsbCallbackD0Ev"
    },
    {
     "mangled_component_name":"_ZN7android8hardware3usb4V1_015BpHwUsbCallback22notifyPortStatusChangeERKNS0_8hidl_vecINS2_10PortStatusEEENS2_6StatusE"
    },
    {
     "mangled_component_name":"_ZN7android8hardware3usb4V1_015BpHwUsbCallback22notifyRoleSwitchStatusERKNS0_11hidl_stringERKNS2_8PortRoleENS2_6StatusE"
    },
    {
     "mangled_component_name":"_ZN7android8hardware11BpInterfaceINS0_3usb4V1_012IUsbCallbackEE10onAsBinderEv"
    },
    {
     "kind":"vbase_offset",
     "component_value":192
    },
    {
     "kind":"offset_to_top",
     "component_value":-8
    },
    {
     "kind":"rtti",
     "mangled_component_name":"_ZTIN7android8hardware3usb4V1_015BpHwUsbCallbackE"
    },
    {
     "kind":"complete_dtor_pointer",
     "mangled_component_name":"_ZThn8_N7android8hardware3usb4V1_015BpHwUsbCallbackD1Ev"
    },
    {
     "kind":"deleting_dtor_pointer",
     "mangled_component_name":"_ZThn8_N7android8hardware3usb4V1_015BpHwUsbCallbackD0Ev"
    },
    {
     "mangled_component_name":"_ZThn8_N7android8hardware11BpInterfaceINS0_3usb4V1_012IUsbCallbackEE10onAsBinderEv"
    },
    {
     "kind":"vbase_offset",
     "component_value":184
    },
    {
     "kind":"offset_to_top",
     "component_value":-16
    },
    {
     "kind":"rtti",
     "mangled_component_name":"_ZTIN7android8hardware3usb4V1_015BpHwUsbCallbackE"
    },
    {
     "kind":"complete_dtor_pointer",
     "mangled_component_name":"_ZThn16_N7android8hardware3usb4V1_015BpHwUsbCallbackD1Ev"
    },
    {
     "kind":"deleting_dtor_pointer",
     "mangled_component_name":"_ZThn16_N7android8hardware3usb4V1_015BpHwUsbCallbackD0Ev"
    },
    {
     "mangled_component_name":"_ZN7android8hardware11BpHwRefBase10onFirstRefEv"
    },
    {
     "mangled_component_name":"_ZN7android8hardware11BpHwRefBase15onLastStrongRefEPKv"
    },
    {
     "mangled_component_name":"_ZN7android8hardware11BpHwRefBase20onIncStrongAttemptedEjPKv"
    },
    {
     "kind":"offset_to_top",
     "component_value":-48
    },
    {
     "kind":"rtti",
     "mangled_component_name":"_ZTIN7android8hardware3usb4V1_015BpHwUsbCallbackE"
    },
    {
     "kind":"complete_dtor_pointer",
     "mangled_component_name":"_ZThn48_N7android8hardware3usb4V1_015BpHwUsbCallbackD1Ev"
    },
    {
     "kind":"deleting_dtor_pointer",
     "mangled_component_name":"_ZThn48_N7android8hardware3usb4V1_015BpHwUsbCallbackD0Ev"
    },
    {
     "kind":"vcall_offset"
    },
    {
     "kind":"vcall_offset",
     "component_value":-184
    },
    {
     "kind":"vcall_offset",
     "component_value":-184
    },
    {
     "kind":"vcall_offset",
     "component_value":-184
    },
    {
     "kind":"vcall_offset",
     "component_value":-200
    },
    {
     "kind":"offset_to_top",
     "component_value":-200
    },
    {
     "kind":"rtti",
     "mangled_component_name":"_ZTIN7android8hardware3usb4V1_015BpHwUsbCallbackE"
    },
    {
     "kind":"complete_dtor_pointer",
     "mangled_component_name":"_ZTv0_n24_N7android8hardware3usb4V1_015BpHwUsbCallbackD1Ev"
    },
    {
     "kind":"deleting_dtor_pointer",
     "mangled_component_name":"_ZTv0_n24_N7android8hardware3usb4V1_015BpHwUsbCallbackD0Ev"
    },
    {
     "mangled_component_name":"_ZTv0_n32_N7android8hardware11BpHwRefBase10onFirstRefEv"
    },
    {
     "mangled_component_name":"_ZTv0_n40_N7android8hardware11BpHwRefBase15onLastStrongRefEPKv"
    },
    {
     "mangled_component_name":"_ZTv0_n48_N7android8hardware11BpHwRefBase20onIncStrongAttemptedEjPKv"
    },
    {
     "mangled_component_name":"_ZN7android7RefBase13onLastWeakRefEPKv"
    }
   ],
   "unique_id":"_ZTSN7android8hardware3usb4V1_015BpHwUsbCallbackE"
  },
  {
   "vtable_components":[
    {
     "kind":"vbase_offset",
     "component_value":8
    },
    {
     "kind":"offset_to_top"
    },
    {
     "kind":"rtti",
     "mangled_component_name":"_ZTIN7android8hardware3usb4V1_04IUsbE"
    },
    {
     "mangled_component_name":"_ZNK7android8hardware3usb4V1_04IUsb8isRemoteEv"
    },
    {
     "mangled_component_name":"_ZN7android8hardware3usb4V1_04IUsb14interfaceChainENSt3__18functionIFvRKNS0_8hidl_vecINS0_11hidl_stringEEEEEE"
    },
    {
     "mangled_component_name":"_ZN7android8hardware3usb4V1_04IUsb5debugERKNS0_11hidl_handleERKNS0_8hidl_vecINS0_11hidl_stringEEE"
    },
    {
     "mangled_component_name":"_ZN7android8hardware3usb4V1_04IUsb19interfaceDescriptorENSt3__18functionIFvRKNS0_11hidl_stringEEEE"
    },
    {
     "mangled_component_name":"_ZN7android8hardware3usb4V1_04IUsb12getHashChainENSt3__18functionIFvRKNS0_8hidl_vecINS0_10hidl_arrayIhLm32EJEEEEEEEE"
    },
    {
     "mangled_component_name":"_ZN7android8hardware3usb4V1_04IUsb21setHALInstrumentationEv"
    },
    {
     "mangled_component_name":"_ZN7android8hardware3usb4V1_04IUsb11linkToDeathERKNS_2spINS0_20hidl_death_recipientEEEm"
    },
    {
     "mangled_component_name":"_ZN7android8hardware3usb4V1_04IUsb4pingEv"
    },
    {
     "mangled_component_name":"_ZN7android8hardware3usb4V1_04IUsb12getDebugInfoENSt3__18functionIFvRKNS_4hidl4base4V1_09DebugInfoEEEE"
    },
    {
     "mangled_component_name":"_ZN7android8hardware3usb4V1_04IUsb21notifySyspropsChangedEv"
    },
    {
     "mangled_component_name":"_ZN7android8hardware3usb4V1_04IUsb13unlinkToDeathERKNS_2spINS0_20hidl_death_recipientEEE"
    },
    {
     "kind":"complete_dtor_pointer",
     "mangled_component_name":"_ZN7android8hardware3usb4V1_04IUsbD1Ev"
    },
    {
     "kind":"deleting_dtor_pointer",
     "mangled_component_name":"_ZN7android8hardware3usb4V1_04IUsbD0Ev"
    },
    {
     "is_pure":true,
     "mangled_component_name":"_ZN7android8hardware3usb4V1_04IUsb10switchRoleERKNS0_11hidl_stringERKNS2_8PortRoleE"
    },
    {
     "is_pure":true,
     "mangled_component_name":"_ZN7android8hardware3usb4V1_04IUsb11setCallbackERKNS_2spINS2_12IUsbCallbackEEE"
    },
    {
     "is_pure":true,
     "mangled_component_name":"_ZN7android8hardware3usb4V1_04IUsb15queryPortStatusEv"
    },
    {
     "kind":"vcall_offset"
    },
    {
     "kind":"vcall_offset"
    },
    {
     "kind":"vcall_offset"
    },
    {
     "kind":"vcall_offset"
    },
    {
     "kind":"vcall_offset",
     "component_value":-8
    },
    {
     "kind":"offset_to_top",
     "component_value":-8
    },
    {
     "kind":"rtti",
     "mangled_component_name":"_ZTIN7android8hardware3usb4V1_04IUsbE"
    },
    {
     "kind":"complete_dtor_pointer",
     "mangled_component_name":"_ZTv0_n24_N7android8hardware3usb4V1_04IUsbD1Ev"
    },
    {
     "kind":"deleting_dtor_pointer",
     "mangled_component_name":"_ZTv0_n24_N7android8hardware3usb4V1_04IUsbD0Ev"
    },
    {
     "mangled_component_name":"_ZN7android7RefBase10onFirstRefEv"
    },
    {
     "mangled_component_name":"_ZN7android7RefBase15onLastStrongRefEPKv"
    },
    {
     "mangled_component_name":"_ZN7android7RefBase20onIncStrongAttemptedEjPKv"
    },
    {
     "mangled_component_name":"_ZN7android7RefBase13onLastWeakRefEPKv"
    }
   ],
   "unique_id":"_ZTSN7android8hardware3usb4V1_04IUsbE"
  },
  {
   "vtable_components":[
    {
     "kind":"vbase_offset",
     "component_value":136
    },
    {
     "kind":"offset_to_top"
    },
    {
     "kind":"rtti",
     "mangled_component_name":"_ZTIN7android8hardware3usb4V1_07BnHwUsbE"
    },
    {
     "mangled_component_name":"_ZN7android8hardware9BHwBinder8transactEjRKNS0_6ParcelEPS2_jNSt3__18functionIFvRS2_EEE"
    },
    {
     "mangled_component_name":"_ZN7android8hardware9BHwBinder11linkToDeathERKNS_2spINS0_7IBinder14DeathRecipientEEEPvj"
    },
    {
     "mangled_component_name":"_ZN7android8hardware9BHwBinder13unlinkToDeathERKNS_2wpINS0_7IBinder14DeathRecipientEEEPvjPS5_"
    },
    {
     "mangled_component_name":"_ZNK7android8hardware7IBinder13checkSubclassEPKv"
    },
    {
     "mangled_component_name":"_ZN7android8hardware9BHwBinder12attachObjectEPKvPvS4_PFvS3_S4_S4_E"
    },
    {
     "mangled_component_name":"_ZNK7android8hardware9BHwBinder10findObjectEPKv"
    },
    {
     "mangled_component_name":"_ZN7android8hardware9BHwBinder12detachObjectEPKv"
    },
    {
     "mangled_component_name":"_ZN7android8hardware9BHwBinder11localBinderEv"
    },
    {
     "mangled_component_name":"_ZN7android8hardware7IBinder12remoteBinderEv"
    },
    {
     "kind":"complete_dtor_pointer",
     "mangled_component_name":"_ZN7android8hardware3usb4V1_07BnHwUsbD1Ev"
    },
    {
     "kind":"deleting_dtor_pointer",
     "mangled_component_name":"_ZN7android8hardware3usb4V1_07BnHwUsbD0Ev"
    },
    {
     "mangled_component_name":"_ZN7android8hardware3usb4V1_07BnHwUsb10onTransactEjRKNS0_6ParcelEPS4_jNSt3__18functionIFvRS4_EEE"
    },
    {
     "kind":"offset_to_top",
     "component_value":-32
    },
    {
     "kind":"rtti",
     "mangled_component_name":"_ZTIN7android8hardware3usb4V1_07BnHwUsbE"
    },
    {
     "kind":"complete_dtor_pointer",
     "mangled_component_name":"_ZThn32_N7android8hardware3usb4V1_07BnHwUsbD1Ev"
    },
    {
     "kind":"deleting_dtor_pointer",
     "mangled_component_name":"_ZThn32_N7android8hardware3usb4V1_07BnHwUsbD0Ev"
    },
    {
     "kind":"vcall_offset"
    },
    {
     "kind":"vcall_offset"
    },
    {
     "kind":"vcall_offset"
    },
    {
     "kind":"vcall_offset"
    },
    {
     "kind":"vcall_offset",
     "component_value":-136
    },
    {
     "kind":"offset_to_top",
     "component_value":-136
    },
    {
     "kind":"rtti",
     "mangled_component_name":"_ZTIN7android8hardware3usb4V1_07BnHwUsbE"
    },
    {
     "kind":"complete_dtor_pointer",
     "mangled_component_name":"_ZTv0_n24_N7android8hardware3usb4V1_07BnHwUsbD1Ev"
    },
    {
     "kind":"deleting_dtor_pointer",
     "mangled_component_name":"_ZTv0_n24_N7android8hardware3usb4V1_07BnHwUsbD0Ev"
    },
    {
     "mangled_component_name":"_ZN7android7RefBase10onFirstRefEv"
    },
    {
     "mangled_component_name":"_ZN7android7RefBase15onLastStrongRefEPKv"
    },
    {
     "mangled_component_name":"_ZN7android7RefBase20onIncStrongAttemptedEjPKv"
    },
    {
     "mangled_component_name":"_ZN7android7RefBase13onLastWeakRefEPKv"
    }
   ],
   "unique_id":"_ZTSN7android8hardware3usb4V1_07BnHwUsbE"
  },
  {
   "vtable_components":[
    {
     "kind":"vbase_offset",
     "component_value":136
    },
    {
     "kind":"offset_to_top"
    },
    {
     "kind":"rtti",
     "mangled_component_name":"_ZTIN7android8hardware3usb4V1_015BnHwUsbCallbackE"
    },
    {
     "mangled_component_name":"_ZN7android8hardware9BHwBinder8transactEjRKNS0_6ParcelEPS2_jNSt3__18functionIFvRS2_EEE"
    },
    {
     "mangled_component_name":"_ZN7android8hardware9BHwBinder11linkToDeathERKNS_2spINS0_7IBinder14DeathRecipientEEEPvj"
    },
    {
     "mangled_component_name":"_ZN7android8hardware9BHwBinder13unlinkToDeathERKNS_2wpINS0_7IBinder14DeathRecipientEEEPvjPS5_"
    },
    {
     "mangled_component_name":"_ZNK7android8hardware7IBinder13checkSubclassEPKv"
    },
    {
     "mangled_component_name":"_ZN7android8hardware9BHwBinder12attachObjectEPKvPvS4_PFvS3_S4_S4_E"
    },
    {
     "mangled_component_name":"_ZNK7android8hardware9BHwBinder10findObjectEPKv"
    },
    {
     "mangled_component_name":"_ZN7android8hardware9BHwBinder12detachObjectEPKv"
    },
    {
     "mangled_component_name":"_ZN7android8hardware9BHwBinder11localBinderEv"
    },
    {
     "mangled_component_name":"_ZN7android8hardware7IBinder12remoteBinderEv"
    },
    {
     "kind":"complete_dtor_pointer",
     "mangled_component_name":"_ZN7android8hardware3usb4V1_015BnHwUsbCallbackD1Ev"
    },
    {
     "kind":"deleting_dtor_pointer",
     "mangled_component_name":"_ZN7android8hardware3usb4V1_015BnHwUsbCallbackD0Ev"
    },
    {
     "mangled_component_name":"_ZN7android8hardware3usb4V1_015BnHwUsbCallback10onTransactEjRKNS0_6ParcelEPS4_jNSt3__18functionIFvRS4_EEE"
    },
    {
     "kind":"offset_to_top",
     "component_value":-32
    },
    {
     "kind":"rtti",
     "mangled_component_name":"_ZTIN7android8hardware3usb4V1_015BnHwUsbCallbackE"
    },
    {
     "kind":"complete_dtor_pointer",
     "mangled_component_name":"_ZThn32_N7android8hardware3usb4V1_015BnHwUsbCallbackD1Ev"
    },
    {
     "kind":"deleting_dtor_pointer",
     "mangled_component_name":"_ZThn32_N7android8hardware3usb4V1_015BnHwUsbCallbackD0Ev"
    },
    {
     "kind":"vcall_offset"
    },
    {
     "kind":"vcall_offset"
    },
    {
     "kind":"vcall_offset"
    },
    {
     "kind":"vcall_offset"
    },
    {
     "kind":"vcall_offset",
     "component_value":-136
    },
    {
     "kind":"offset_to_top",
     "component_value":-136
    },
    {
     "kind":"rtti",
     "mangled_component_name":"_ZTIN7android8hardware3usb4V1_015BnHwUsbCallbackE"
    },
    {
     "kind":"complete_dtor_pointer",
     "mangled_component_name":"_ZTv0_n24_N7android8hardware3usb4V1_015BnHwUsbCallbackD1Ev"
    },
    {
     "kind":"deleting_dtor_pointer",
     "mangled_component_name":"_ZTv0_n24_N7android8hardware3usb4V1_015BnHwUsbCallbackD0Ev"
    },
    {
     "mangled_component_name":"_ZN7android7RefBase10onFirstRefEv"
    },
    {
     "mangled_component_name":"_ZN7android7RefBase15onLastStrongRefEPKv"
    },
    {
     "mangled_component_name":"_ZN7android7RefBase20onIncStrongAttemptedEjPKv"
    },
    {
     "mangled_component_name":"_ZN7android7RefBase13onLastWeakRefEPKv"
    }
   ],
   "unique_id":"_ZTSN7android8hardware3usb4V1_015BnHwUsbCallbackE"
  },
  {
   "vtable_components":[
    {
     "kind":"vbase_offset",
     "component_value":120
    },
    {
     "kind":"offset_to_top"
    },
    {
     "kind":"rtti",
     "mangled_component_name":"_ZTIN7android8hardware3usb4V1_05BsUsbE"
    },
    {
     "mangled_component_name":"_ZNK7android8hardware3usb4V1_04IUsb8isRemoteEv"
    },
    {
     "mangled_component_name":"_ZN7android8hardware3usb4V1_05BsUsb14interfaceChainENSt3__18functionIFvRKNS0_8hidl_vecINS0_11hidl_stringEEEEEE"
    },
    {
     "mangled_component_name":"_ZN7android8hardware3usb4V1_05BsUsb5debugERKNS0_11hidl_handleERKNS0_8hidl_vecINS0_11hidl_stringEEE"
    },
    {
     "mangled_component_name":"_ZN7android8hardware3usb4V1_05BsUsb19interfaceDescriptorENSt3__18functionIFvRKNS0_11hidl_stringEEEE"
    },
    {
     "mangled_component_name":"_ZN7android8hardware3usb4V1_05BsUsb12getHashChainENSt3__18functionIFvRKNS0_8hidl_vecINS0_10hidl_arrayIhLm32EJEEEEEEEE"
    },
    {
     "mangled_component_name":"_ZN7android8hardware3usb4V1_05BsUsb21setHALInstrumentationEv"
    },
    {
     "mangled_component_name":"_ZN7android8hardware3usb4V1_05BsUsb11linkToDeathERKNS_2spINS0_20hidl_death_recipientEEEm"
    },
    {
     "mangled_component_name":"_ZN7android8hardware3usb4V1_05BsUsb4pingEv"
    },
    {
     "mangled_component_name":"_ZN7android8hardware3usb4V1_05BsUsb12getDebugInfoENSt3__18functionIFvRKNS_4hidl4base4V1_09DebugInfoEEEE"
    },
    {
     "mangled_component_name":"_ZN7android8hardware3usb4V1_05BsUsb21notifySyspropsChangedEv"
    },
    {
     "mangled_component_name":"_ZN7android8hardware3usb4V1_05BsUsb13unlinkToDeathERKNS_2spINS0_20hidl_death_recipientEEE"
    },
    {
     "kind":"complete_dtor_pointer",
     "mangled_component_name":"_ZN7android8hardware3usb4V1_05BsUsbD1Ev"
    },
    {
     "kind":"deleting_dtor_pointer",
     "mangled_component_name":"_ZN7android8hardware3usb4V1_05BsUsbD0Ev"
    },
    {
     "mangled_component_name":"_ZN7android8hardware3usb4V1_05BsUsb10switchRoleERKNS0_11hidl_stringERKNS2_8PortRoleE"
    },
    {
     "mangled_component_name":"_ZN7android8hardware3usb4V1_05BsUsb11setCallbackERKNS_2spINS2_12IUsbCallbackEEE"
    },
    {
     "mangled_component_name":"_ZN7android8hardware3usb4V1_05BsUsb15queryPortStatusEv"
    },
    {
     "kind":"offset_to_top",
     "component_value":-8
    },
    {
     "kind":"rtti",
     "mangled_component_name":"_ZTIN7android8hardware3usb4V1_05BsUsbE"
    },
    {
     "kind":"complete_dtor_pointer",
     "mangled_component_name":"_ZThn8_N7android8hardware3usb4V1_05BsUsbD1Ev"
    },
    {
     "kind":"deleting_dtor_pointer",
     "mangled_component_name":"_ZThn8_N7android8hardware3usb4V1_05BsUsbD0Ev"
    },
    {
     "kind":"vcall_offset"
    },
    {
     "kind":"vcall_offset"
    },
    {
     "kind":"vcall_offset"
    },
    {
     "kind":"vcall_offset"
    },
    {
     "kind":"vcall_offset",
     "component_value":-120
    },
    {
     "kind":"offset_to_top",
     "component_value":-120
    },
    {
     "kind":"rtti",
     "mangled_component_name":"_ZTIN7android8hardware3usb4V1_05BsUsbE"
    },
    {
     "kind":"complete_dtor_pointer",
     "mangled_component_name":"_ZTv0_n24_N7android8hardware3usb4V1_05BsUsbD1Ev"
    },
    {
     "kind":"deleting_dtor_pointer",
     "mangled_component_name":"_ZTv0_n24_N7android8hardware3usb4V1_05BsUsbD0Ev"
    },
    {
     "mangled_component_name":"_ZN7android7RefBase10onFirstRefEv"
    },
    {
     "mangled_component_name":"_ZN7android7RefBase15onLastStrongRefEPKv"
    },
    {
     "mangled_component_name":"_ZN7android7RefBase20onIncStrongAttemptedEjPKv"
    },
    {
     "mangled_component_name":"_ZN7android7RefBase13onLastWeakRefEPKv"
    }
   ],
   "unique_id":"_ZTSN7android8hardware3usb4V1_05BsUsbE"
  },
  {
   "vtable_components":[
    {
     "kind":"vbase_offset",
     "component_value":200
    },
    {
     "kind":"offset_to_top"
    },
    {
     "kind":"rtti",
     "mangled_component_name":"_ZTIN7android8hardware3usb4V1_07BpHwUsbE"
    },
    {
     "mangled_component_name":"_ZNK7android8hardware3usb4V1_07BpHwUsb8isRemoteEv"
    },
    {
     "mangled_component_name":"_ZN7android8hardware3usb4V1_07BpHwUsb14interfaceChainENSt3__18functionIFvRKNS0_8hidl_vecINS0_11hidl_stringEEEEEE"
    },
    {
     "mangled_component_name":"_ZN7android8hardware3usb4V1_07BpHwUsb5debugERKNS0_11hidl_handleERKNS0_8hidl_vecINS0_11hidl_stringEEE"
    },
    {
     "mangled_component_name":"_ZN7android8hardware3usb4V1_07BpHwUsb19interfaceDescriptorENSt3__18functionIFvRKNS0_11hidl_stringEEEE"
    },
    {
     "mangled_component_name":"_ZN7android8hardware3usb4V1_07BpHwUsb12getHashChainENSt3__18functionIFvRKNS0_8hidl_vecINS0_10hidl_arrayIhLm32EJEEEEEEEE"
    },
    {
     "mangled_component_name":"_ZN7android8hardware3usb4V1_07BpHwUsb21setHALInstrumentationEv"
    },
    {
     "mangled_component_name":"_ZN7android8hardware3usb4V1_07BpHwUsb11linkToDeathERKNS_2spINS0_20hidl_death_recipientEEEm"
    },
    {
     "mangled_component_name":"_ZN7android8hardware3usb4V1_07BpHwUsb4pingEv"
    },
    {
     "mangled_component_name":"_ZN7android8hardware3usb4V1_07BpHwUsb12getDebugInfoENSt3__18functionIFvRKNS_4hidl4base4V1_09DebugInfoEEEE"
    },
    {
     "mangled_component_name":"_ZN7android8hardware3usb4V1_07BpHwUsb21notifySyspropsChangedEv"
    },
    {
     "mangled_component_name":"_ZN7android8hardware3usb4V1_07BpHwUsb13unlinkToDeathERKNS_2spINS0_20hidl_death_recipientEEE"
    },
    {
     "kind":"complete_dtor_pointer",
     "mangled_component_name":"_ZN7android8hardware3usb4V1_07BpHwUsbD1Ev"
    },
    {
     "kind":"deleting_dtor_pointer",
     "mangled_component_name":"_ZN7android8hardware3usb4V1_07BpHwUsbD0Ev"
    },
    {
     "mangled_component_name":"_ZN7android8hardware3usb4V1_07BpHwUsb10switchRoleERKNS0_11hidl_stringERKNS2_8PortRoleE"
    },
    {
     "mangled_component_name":"_ZN7android8hardware3usb4V1_07BpHwUsb11setCallbackERKNS_2spINS2_12IUsbCallbackEEE"
    },
    {
     "mangled_component_name":"_ZN7android8hardware3usb4V1_07BpHwUsb15queryPortStatusEv"
    },
    {
     "mangled_component_name":"_ZN7android8hardware11BpInterfaceINS0_3usb4V1_04IUsbEE10onAsBinderEv"
    },
    {
     "kind":"vbase_offset",
     "component_value":192
    },
    {
     "kind":"offset_to_top",
     "component_value":-8
    },
    {
     "kind":"rtti",
     "mangled_component_name":"_ZTIN7android8hardware3usb4V1_07BpHwUsbE"
    },
    {
     "kind":"complete_dtor_pointer",
     "mangled_component_name":"_ZThn8_N7android8hardware3usb4V1_07BpHwUsbD1Ev"
    },
    {
     "kind":"deleting_dtor_pointer",
     "mangled_component_name":"_ZThn8_N7android8hardware3usb4V1_07BpHwUsbD0Ev"
    },
    {
     "mangled_component_name":"_ZThn8_N7android8hardware11BpInterfaceINS0_3usb4V1_04IUsbEE10onAsBinderEv"
    },
    {
     "kind":"vbase_offset",
     "component_value":184
    },
    {
     "kind":"offset_to_top",
     "component_value":-16
    },
    {
     "kind":"rtti",
     "mangled_component_name":"_ZTIN7android8hardware3usb4V1_07BpHwUsbE"
    },
    {
     "kind":"complete_dtor_pointer",
     "mangled_component_name":"_ZThn16_N7android8hardware3usb4V1_07BpHwUsbD1Ev"
    },
    {
     "kind":"deleting_dtor_pointer",
     "mangled_component_name":"_ZThn16_N7android8hardware3usb4V1_07BpHwUsbD0Ev"
    },
    {
     "mangled_component_name":"_ZN7android8hardware11BpHwRefBase10onFirstRefEv"
    },
    {
     "mangled_component_name":"_ZN7android8hardware11BpHwRefBase15onLastStrongRefEPKv"
    },
    {
     "mangled_component_name":"_ZN7android8hardware11BpHwRefBase20onIncStrongAttemptedEjPKv"
    },
    {
     "kind":"offset_to_top",
     "component_value":-48
    },
    {
     "kind":"rtti",
     "mangled_component_name":"_ZTIN7android8hardware3usb4V1_07BpHwUsbE"
    },
    {
     "kind":"complete_dtor_pointer",
     "mangled_component_name":"_ZThn48_N7android8hardware3usb4V1_07BpHwUsbD1Ev"
    },
    {
     "kind":"deleting_dtor_pointer",
     "mangled_component_name":"_ZThn48_N7android8hardware3usb4V1_07BpHwUsbD0Ev"
    },
    {
     "kind":"vcall_offset"
    },
    {
     "kind":"vcall_offset",
     "component_value":-184
    },
    {
     "kind":"vcall_offset",
     "component_value":-184
    },
    {
     "kind":"vcall_offset",
     "component_value":-184
    },
    {
     "kind":"vcall_offset",
     "component_value":-200
    },
    {
     "kind":"offset_to_top",
     "component_value":-200
    },
    {
     "kind":"rtti",
     "mangled_component_name":"_ZTIN7android8hardware3usb4V1_07BpHwUsbE"
    },
    {
     "kind":"complete_dtor_pointer",
     "mangled_component_name":"_ZTv0_n24_N7android8hardware3usb4V1_07BpHwUsbD1Ev"
    },
    {
     "kind":"deleting_dtor_pointer",
     "mangled_component_name":"_ZTv0_n24_N7android8hardware3usb4V1_07BpHwUsbD0Ev"
    },
    {
     "mangled_component_name":"_ZTv0_n32_N7android8hardware11BpHwRefBase10onFirstRefEv"
    },
    {
     "mangled_component_name":"_ZTv0_n40_N7android8hardware11BpHwRefBase15onLastStrongRefEPKv"
    },
    {
     "mangled_component_name":"_ZTv0_n48_N7android8hardware11BpHwRefBase20onIncStrongAttemptedEjPKv"
    },
    {
     "mangled_component_name":"_ZN7android7RefBase13onLastWeakRefEPKv"
    }
   ],
   "unique_id":"_ZTSN7android8hardware3usb4V1_07BpHwUsbE"
  },
  {
   "vtable_components":[
    {
     "kind":"vbase_offset",
     "component_value":120
    },
    {
     "kind":"offset_to_top"
    },
    {
     "kind":"rtti",
     "mangled_component_name":"_ZTIN7android8hardware3usb4V1_013BsUsbCallbackE"
    },
    {
     "mangled_component_name":"_ZNK7android8hardware3usb4V1_012IUsbCallback8isRemoteEv"
    },
    {
     "mangled_component_name":"_ZN7android8hardware3usb4V1_013BsUsbCallback14interfaceChainENSt3__18functionIFvRKNS0_8hidl_vecINS0_11hidl_stringEEEEEE"
    },
    {
     "mangled_component_name":"_ZN7android8hardware3usb4V1_013BsUsbCallback5debugERKNS0_11hidl_handleERKNS0_8hidl_vecINS0_11hidl_stringEEE"
    },
    {
     "mangled_component_name":"_ZN7android8hardware3usb4V1_013BsUsbCallback19interfaceDescriptorENSt3__18functionIFvRKNS0_11hidl_stringEEEE"
    },
    {
     "mangled_component_name":"_ZN7android8hardware3usb4V1_013BsUsbCallback12getHashChainENSt3__18functionIFvRKNS0_8hidl_vecINS0_10hidl_arrayIhLm32EJEEEEEEEE"
    },
    {
     "mangled_component_name":"_ZN7android8hardware3usb4V1_013BsUsbCallback21setHALInstrumentationEv"
    },
    {
     "mangled_component_name":"_ZN7android8hardware3usb4V1_013BsUsbCallback11linkToDeathERKNS_2spINS0_20hidl_death_recipientEEEm"
    },
    {
     "mangled_component_name":"_ZN7android8hardware3usb4V1_013BsUsbCallback4pingEv"
    },
    {
     "mangled_component_name":"_ZN7android8hardware3usb4V1_013BsUsbCallback12getDebugInfoENSt3__18functionIFvRKNS_4hidl4base4V1_09DebugInfoEEEE"
    },
    {
     "mangled_component_name":"_ZN7android8hardware3usb4V1_013BsUsbCallback21notifySyspropsChangedEv"
    },
    {
     "mangled_component_name":"_ZN7android8hardware3usb4V1_013BsUsbCallback13unlinkToDeathERKNS_2spINS0_20hidl_death_recipientEEE"
    },
    {
     "kind":"complete_dtor_pointer",
     "mangled_component_name":"_ZN7android8hardware3usb4V1_013BsUsbCallbackD1Ev"
    },
    {
     "kind":"deleting_dtor_pointer",
     "mangled_component_name":"_ZN7android8hardware3usb4V1_013BsUsbCallbackD0Ev"
    },
    {
     "mangled_component_name":"_ZN7android8hardware3usb4V1_013BsUsbCallback22notifyPortStatusChangeERKNS0_8hidl_vecINS2_10PortStatusEEENS2_6StatusE"
    },
    {
     "mangled_component_name":"_ZN7android8hardware3usb4V1_013BsUsbCallback22notifyRoleSwitchStatusERKNS0_11hidl_stringERKNS2_8PortRoleENS2_6StatusE"
    },
    {
     "kind":"offset_to_top",
     "component_value":-8
    },
    {
     "kind":"rtti",
     "mangled_component_name":"_ZTIN7android8hardware3usb4V1_013BsUsbCallbackE"
    },
    {
     "kind":"complete_dtor_pointer",
     "mangled_component_name":"_ZThn8_N7android8hardware3usb4V1_013BsUsbCallbackD1Ev"
    },
    {
     "kind":"deleting_dtor_pointer",
     "mangled_component_name":"_ZThn8_N7android8hardware3usb4V1_013BsUsbCallbackD0Ev"
    },
    {
     "kind":"vcall_offset"
    },
    {
     "kind":"vcall_offset"
    },
    {
     "kind":"vcall_offset"
    },
    {
     "kind":"vcall_offset"
    },
    {
     "kind":"vcall_offset",
     "component_value":-120
    },
    {
     "kind":"offset_to_top",
     "component_value":-120
    },
    {
     "kind":"rtti",
     "mangled_component_name":"_ZTIN7android8hardware3usb4V1_013BsUsbCallbackE"
    },
    {
     "kind":"complete_dtor_pointer",
     "mangled_component_name":"_ZTv0_n24_N7android8hardware3usb4V1_013BsUsbCallbackD1Ev"
    },
    {
     "kind":"deleting_dtor_pointer",
     "mangled_component_name":"_ZTv0_n24_N7android8hardware3usb4V1_013BsUsbCallbackD0Ev"
    },
    {
     "mangled_component_name":"_ZN7android7RefBase10onFirstRefEv"
    },
    {
     "mangled_component_name":"_ZN7android7RefBase15onLastStrongRefEPKv"
    },
    {
     "mangled_component_name":"_ZN7android7RefBase20onIncStrongAttemptedEjPKv"
    },
    {
     "mangled_component_name":"_ZN7android7RefBase13onLastWeakRefEPKv"
    }
   ],
   "unique_id":"_ZTSN7android8hardware3usb4V1_013BsUsbCallbackE"
  }
 ],
 "elf_functions":[
  {
   "binding":"weak",
   "name":"_ZN7android8hardware10fromBinderINS0_3usb4V1_012IUsbCallbackENS3_15BpHwUsbCallbackENS3_15BnHwUsbCallbackEEENS_2spIT_EERKNS7_INS0_7IBinderEEE"
  },
  {
   "name":"_ZN7android8hardware3usb4V1_012IUsbCallback10getServiceERKNSt3__112basic_stringIcNS4_11char_traitsIcEENS4_9allocatorIcEEEEb"
  },
  {
   "name":"_ZN7android8hardware3usb4V1_012IUsbCallback11linkToDeathERKNS_2spINS0_20hidl_death_recipientEEEm"
  },
  {
   "name":"_ZN7android8hardware3usb4V1_012IUsbCallback12getDebugInfoENSt3__18functionIFvRKNS_4hidl4base4V1_09DebugInfoEEEE"
  },
  {
   "name":"_ZN7android8hardware3usb4V1_012IUsbCallback12getHashChainENSt3__18functionIFvRKNS0_8hidl_vecINS0_10hidl_arrayIhLm32EJEEEEEEEE"
  },
  {
   "name":"_ZN7android8hardware3usb4V1_012IUsbCallback13tryGetServiceERKNSt3__112basic_stringIcNS4_11char_traitsIcEENS4_9allocatorIcEEEEb"
  },
  {
   "name":"_ZN7android8hardware3usb4V1_012IUsbCallback13unlinkToDeathERKNS_2spINS0_20hidl_death_recipientEEE"
  },
  {
   "name":"_ZN7android8hardware3usb4V1_012IUsbCallback14interfaceChainENSt3__18functionIFvRKNS0_8hidl_vecINS0_11hidl_stringEEEEEE"
  },
  {
   "name":"_ZN7android8hardware3usb4V1_012IUsbCallback17registerAsServiceERKNSt3__112basic_stringIcNS4_11char_traitsIcEENS4_9allocatorIcEEEE"
  },
  {
   "name":"_ZN7android8hardware3usb4V1_012IUsbCallback19interfaceDescriptorENSt3__18functionIFvRKNS0_11hidl_stringEEEE"
  },
  {
   "name":"_ZN7android8hardware3usb4V1_012IUsbCallback21notifySyspropsChangedEv"
  },
  {
   "name":"_ZN7android8hardware3usb4V1_012IUsbCallback21setHALInstrumentationEv"
  },
  {
   "name":"_ZN7android8hardware3usb4V1_012IUsbCallback24registerForNotificationsERKNSt3__112basic_stringIcNS4_11char_traitsIcEENS4_9allocatorIcEEEERKNS_2spINS_4hidl7manager4V1_020IServiceNotificationEEE"
  },
  {
   "name":"_ZN7android8hardware3usb4V1_012IUsbCallback4pingEv"
  },
  {
   "name":"_ZN7android8hardware3usb4V1_012IUsbCallback5debugERKNS0_11hidl_handleERKNS0_8hidl_vecINS0_11hidl_stringEEE"
  },
  {
   "name":"_ZN7android8hardware3usb4V1_012IUsbCallback8castFromERKNS_2spINS_4hidl4base4V1_05IBaseEEEb"
  },
  {
   "name":"_ZN7android8hardware3usb4V1_012IUsbCallback8castFromERKNS_2spIS3_EEb"
  },
  {
   "name":"_ZN7android8hardware3usb4V1_013BsUsbCallback13addOnewayTaskENSt3__18functionIFvvEEE"
  },
  {
   "name":"_ZN7android8hardware3usb4V1_013BsUsbCallbackC1ENS_2spINS2_12IUsbCallbackEEE"
  },
  {
   "name":"_ZN7android8hardware3usb4V1_013BsUsbCallbackC2ENS_2spINS2_12IUsbCallbackEEE"
  },
  {
   "name":"_ZN7android8hardware3usb4V1_015BnHwUsbCallback10onTransactEjRKNS0_6ParcelEPS4_jNSt3__18functionIFvRS4_EEE"
  },
  {
   "name":"_ZN7android8hardware3usb4V1_015BnHwUsbCallback12getDebugInfoENSt3__18functionIFvRKNS_4hidl4base4V1_09DebugInfoEEEE"
  },
  {
   "name":"_ZN7android8hardware3usb4V1_015BnHwUsbCallback28_hidl_notifyPortStatusChangeEPNS_4hidl4base4V1_08BnHwBaseERKNS0_6ParcelEPS9_NSt3__18functionIFvRS9_EEE"
  },
  {
   "name":"_ZN7android8hardware3usb4V1_015BnHwUsbCallback28_hidl_notifyRoleSwitchStatusEPNS_4hidl4base4V1_08BnHwBaseERKNS0_6ParcelEPS9_NSt3__18functionIFvRS9_EEE"
  },
  {
   "name":"_ZN7android8hardware3usb4V1_015BnHwUsbCallback4pingEv"
  },
  {
   "name":"_ZN7android8hardware3usb4V1_015BnHwUsbCallbackC1ERKNS_2spINS2_12IUsbCallbackEEE"
  },
  {
   "name":"_ZN7android8hardware3usb4V1_015BnHwUsbCallbackC2ERKNS_2spINS2_12IUsbCallbackEEE"
  },
  {
   "name":"_ZN7android8hardware3usb4V1_015BnHwUsbCallbackD0Ev"
  },
  {
   "name":"_ZN7android8hardware3usb4V1_015BnHwUsbCallbackD1Ev"
  },
  {
   "name":"_ZN7android8hardware3usb4V1_015BnHwUsbCallbackD2Ev"
  },
  {
   "name":"_ZN7android8hardware3usb4V1_015BpHwUsbCallback11linkToDeathERKNS_2spINS0_20hidl_death_recipientEEEm"
  },
  {
   "name":"_ZN7android8hardware3usb4V1_015BpHwUsbCallback12getDebugInfoENSt3__18functionIFvRKNS_4hidl4base4V1_09DebugInfoEEEE"
  },
  {
   "name":"_ZN7android8hardware3usb4V1_015BpHwUsbCallback12getHashChainENSt3__18functionIFvRKNS0_8hidl_vecINS0_10hidl_arrayIhLm32EJEEEEEEEE"
  },
  {
   "name":"_ZN7android8hardware3usb4V1_015BpHwUsbCallback13unlinkToDeathERKNS_2spINS0_20hidl_death_recipientEEE"
  },
  {
   "name":"_ZN7android8hardware3usb4V1_015BpHwUsbCallback14interfaceChainENSt3__18functionIFvRKNS0_8hidl_vecINS0_11hidl_stringEEEEEE"
  },
  {
   "name":"_ZN7android8hardware3usb4V1_015BpHwUsbCallback19interfaceDescriptorENSt3__18functionIFvRKNS0_11hidl_stringEEEE"
  },
  {
   "name":"_ZN7android8hardware3usb4V1_015BpHwUsbCallback21notifySyspropsChangedEv"
  },
  {
   "name":"_ZN7android8hardware3usb4V1_015BpHwUsbCallback21setHALInstrumentationEv"
  },
  {
   "name":"_ZN7android8hardware3usb4V1_015BpHwUsbCallback22notifyPortStatusChangeERKNS0_8hidl_vecINS2_10PortStatusEEENS2_6StatusE"
  },
  {
   "name":"_ZN7android8hardware3usb4V1_015BpHwUsbCallback22notifyRoleSwitchStatusERKNS0_11hidl_stringERKNS2_8PortRoleENS2_6StatusE"
  },
  {
   "name":"_ZN7android8hardware3usb4V1_015BpHwUsbCallback28_hidl_notifyPortStatusChangeEPNS0_10IInterfaceEPNS0_7details16HidlInstrumentorERKNS0_8hidl_vecINS2_10PortStatusEEENS2_6StatusE"
  },
  {
   "name":"_ZN7android8hardware3usb4V1_015BpHwUsbCallback28_hidl_notifyRoleSwitchStatusEPNS0_10IInterfaceEPNS0_7details16HidlInstrumentorERKNS0_11hidl_stringERKNS2_8PortRoleENS2_6StatusE"
  },
  {
   "name":"_ZN7android8hardware3usb4V1_015BpHwUsbCallback4pingEv"
  },
  {
   "name":"_ZN7android8hardware3usb4V1_015BpHwUsbCallback5debugERKNS0_11hidl_handleERKNS0_8hidl_vecINS0_11hidl_stringEEE"
  },
  {
   "name":"_ZN7android8hardware3usb4V1_015BpHwUsbCallbackC1ERKNS_2spINS0_7IBinderEEE"
  },
  {
   "name":"_ZN7android8hardware3usb4V1_015BpHwUsbCallbackC2ERKNS_2spINS0_7IBinderEEE"
  },
  {
   "name":"_ZN7android8hardware3usb4V1_021writeEmbeddedToParcelERKNS2_10PortStatusEPNS0_6ParcelEmm"
  },
  {
   "name":"_ZN7android8hardware3usb4V1_022readEmbeddedFromParcelERKNS2_10PortStatusERKNS0_6ParcelEmm"
  },
  {
   "name":"_ZN7android8hardware3usb4V1_04IUsb10getServiceERKNSt3__112basic_stringIcNS4_11char_traitsIcEENS4_9allocatorIcEEEEb"
  },
  {
   "name":"_ZN7android8hardware3usb4V1_04IUsb11linkToDeathERKNS_2spINS0_20hidl_death_recipientEEEm"
  },
  {
   "name":"_ZN7android8hardware3usb4V1_04IUsb12getDebugInfoENSt3__18functionIFvRKNS_4hidl4base4V1_09DebugInfoEEEE"
  },
  {
   "name":"_ZN7android8hardware3usb4V1_04IUsb12getHashChainENSt3__18functionIFvRKNS0_8hidl_vecINS0_10hidl_arrayIhLm32EJEEEEEEEE"
  },
  {
   "name":"_ZN7android8hardware3usb4V1_04IUsb13tryGetServiceERKNSt3__112basic_stringIcNS4_11char_traitsIcEENS4_9allocatorIcEEEEb"
  },
  {
   "name":"_ZN7android8hardware3usb4V1_04IUsb13unlinkToDeathERKNS_2spINS0_20hidl_death_recipientEEE"
  },
  {
   "name":"_ZN7android8hardware3usb4V1_04IUsb14interfaceChainENSt3__18functionIFvRKNS0_8hidl_vecINS0_11hidl_stringEEEEEE"
  },
  {
   "name":"_ZN7android8hardware3usb4V1_04IUsb17registerAsServiceERKNSt3__112basic_stringIcNS4_11char_traitsIcEENS4_9allocatorIcEEEE"
  },
  {
   "name":"_ZN7android8hardware3usb4V1_04IUsb19interfaceDescriptorENSt3__18functionIFvRKNS0_11hidl_stringEEEE"
  },
  {
   "name":"_ZN7android8hardware3usb4V1_04IUsb21notifySyspropsChangedEv"
  },
  {
   "name":"_ZN7android8hardware3usb4V1_04IUsb21setHALInstrumentationEv"
  },
  {
   "name":"_ZN7android8hardware3usb4V1_04IUsb24registerForNotificationsERKNSt3__112basic_stringIcNS4_11char_traitsIcEENS4_9allocatorIcEEEERKNS_2spINS_4hidl7manager4V1_020IServiceNotificationEEE"
  },
  {
   "name":"_ZN7android8hardware3usb4V1_04IUsb4pingEv"
  },
  {
   "name":"_ZN7android8hardware3usb4V1_04IUsb5debugERKNS0_11hidl_handleERKNS0_8hidl_vecINS0_11hidl_stringEEE"
  },
  {
   "name":"_ZN7android8hardware3usb4V1_04IUsb8castFromERKNS_2spINS_4hidl4base4V1_05IBaseEEEb"
  },
  {
   "name":"_ZN7android8hardware3usb4V1_04IUsb8castFromERKNS_2spIS3_EEb"
  },
  {
   "name":"_ZN7android8hardware3usb4V1_05BsUsb13addOnewayTaskENSt3__18functionIFvvEEE"
  },
  {
   "name":"_ZN7android8hardware3usb4V1_05BsUsbC1ENS_2spINS2_4IUsbEEE"
  },
  {
   "name":"_ZN7android8hardware3usb4V1_05BsUsbC2ENS_2spINS2_4IUsbEEE"
  },
  {
   "name":"_ZN7android8hardware3usb4V1_07BnHwUsb10onTransactEjRKNS0_6ParcelEPS4_jNSt3__18functionIFvRS4_EEE"
  },
  {
   "name":"_ZN7android8hardware3usb4V1_07BnHwUsb12getDebugInfoENSt3__18functionIFvRKNS_4hidl4base4V1_09DebugInfoEEEE"
  },
  {
   "name":"_ZN7android8hardware3usb4V1_07BnHwUsb16_hidl_switchRoleEPNS_4hidl4base4V1_08BnHwBaseERKNS0_6ParcelEPS9_NSt3__18functionIFvRS9_EEE"
  },
  {
   "name":"_ZN7android8hardware3usb4V1_07BnHwUsb17_hidl_setCallbackEPNS_4hidl4base4V1_08BnHwBaseERKNS0_6ParcelEPS9_NSt3__18functionIFvRS9_EEE"
  },
  {
   "name":"_ZN7android8hardware3usb4V1_07BnHwUsb21_hidl_queryPortStatusEPNS_4hidl4base4V1_08BnHwBaseERKNS0_6ParcelEPS9_NSt3__18functionIFvRS9_EEE"
  },
  {
   "name":"_ZN7android8hardware3usb4V1_07BnHwUsb4pingEv"
  },
  {
   "name":"_ZN7android8hardware3usb4V1_07BnHwUsbC1ERKNS_2spINS2_4IUsbEEE"
  },
  {
   "name":"_ZN7android8hardware3usb4V1_07BnHwUsbC2ERKNS_2spINS2_4IUsbEEE"
  },
  {
   "name":"_ZN7android8hardware3usb4V1_07BnHwUsbD0Ev"
  },
  {
   "name":"_ZN7android8hardware3usb4V1_07BnHwUsbD1Ev"
  },
  {
   "name":"_ZN7android8hardware3usb4V1_07BnHwUsbD2Ev"
  },
  {
   "name":"_ZN7android8hardware3usb4V1_07BpHwUsb10switchRoleERKNS0_11hidl_stringERKNS2_8PortRoleE"
  },
  {
   "name":"_ZN7android8hardware3usb4V1_07BpHwUsb11linkToDeathERKNS_2spINS0_20hidl_death_recipientEEEm"
  },
  {
   "name":"_ZN7android8hardware3usb4V1_07BpHwUsb11setCallbackERKNS_2spINS2_12IUsbCallbackEEE"
  },
  {
   "name":"_ZN7android8hardware3usb4V1_07BpHwUsb12getDebugInfoENSt3__18functionIFvRKNS_4hidl4base4V1_09DebugInfoEEEE"
  },
  {
   "name":"_ZN7android8hardware3usb4V1_07BpHwUsb12getHashChainENSt3__18functionIFvRKNS0_8hidl_vecINS0_10hidl_arrayIhLm32EJEEEEEEEE"
  },
  {
   "name":"_ZN7android8hardware3usb4V1_07BpHwUsb13unlinkToDeathERKNS_2spINS0_20hidl_death_recipientEEE"
  },
  {
   "name":"_ZN7android8hardware3usb4V1_07BpHwUsb14interfaceChainENSt3__18functionIFvRKNS0_8hidl_vecINS0_11hidl_stringEEEEEE"
  },
  {
   "name":"_ZN7android8hardware3usb4V1_07BpHwUsb15queryPortStatusEv"
  },
  {
   "name":"_ZN7android8hardware3usb4V1_07BpHwUsb16_hidl_switchRoleEPNS0_10IInterfaceEPNS0_7details16HidlInstrumentorERKNS0_11hidl_stringERKNS2_8PortRoleE"
  },
  {
   "name":"_ZN7android8hardware3usb4V1_07BpHwUsb17_hidl_setCallbackEPNS0_10IInterfaceEPNS0_7details16HidlInstrumentorERKNS_2spINS2_12IUsbCallbackEEE"
  },
  {
   "name":"_ZN7android8hardware3usb4V1_07BpHwUsb19interfaceDescriptorENSt3__18functionIFvRKNS0_11hidl_stringEEEE"
  },
  {
   "name":"_ZN7android8hardware3usb4V1_07BpHwUsb21_hidl_queryPortStatusEPNS0_10IInterfaceEPNS0_7details16HidlInstrumentorE"
  },
  {
   "name":"_ZN7android8hardware3usb4V1_07BpHwUsb21notifySyspropsChangedEv"
  },
  {
   "name":"_ZN7android8hardware3usb4V1_07BpHwUsb21setHALInstrumentationEv"
  },
  {
   "name":"_ZN7android8hardware3usb4V1_07BpHwUsb4pingEv"
  },
  {
   "name":"_ZN7android8hardware3usb4V1_07BpHwUsb5debugERKNS0_11hidl_handleERKNS0_8hidl_vecINS0_11hidl_stringEEE"
  },
  {
   "name":"_ZN7android8hardware3usb4V1_07BpHwUsbC1ERKNS_2spINS0_7IBinderEEE"
  },
  {
   "name":"_ZN7android8hardware3usb4V1_07BpHwUsbC2ERKNS_2spINS0_7IBinderEEE"
  },
  {
   "binding":"weak",
   "name":"_ZN7android8hardware7details13castInterfaceINS0_3usb4V1_012IUsbCallbackENS_4hidl4base4V1_05IBaseENS4_15BpHwUsbCallbackEEENS0_6ReturnINS_2spIT_EEEENSC_IT0_EEPKcb"
  },
  {
   "binding":"weak",
   "name":"_ZN7android8hardware7details13castInterfaceINS0_3usb4V1_04IUsbENS_4hidl4base4V1_05IBaseENS4_7BpHwUsbEEENS0_6ReturnINS_2spIT_EEEENSC_IT0_EEPKcb"
  },
  {
   "binding":"weak",
   "name":"_ZN7android8hardware7details15wrapPassthroughINS0_3usb4V1_012IUsbCallbackEvEENS_2spIT_EES8_"
  },
  {
   "binding":"weak",
   "name":"_ZN7android8hardware7details18getServiceInternalINS0_3usb4V1_015BpHwUsbCallbackENS4_12IUsbCallbackEvvEENS_2spIT0_EERKNSt3__112basic_stringIcNSA_11char_traitsIcEENSA_9allocatorIcEEEEbb"
  },
  {
   "binding":"weak",
   "name":"_ZN7android8hardware7details18getServiceInternalINS0_3usb4V1_07BpHwUsbENS4_4IUsbEvvEENS_2spIT0_EERKNSt3__112basic_stringIcNSA_11char_traitsIcEENSA_9allocatorIcEEEEbb"
  },
  {
   "binding":"weak",
   "name":"_ZN7android8hardware8toBinderINS0_3usb4V1_012IUsbCallbackEvEENS_2spINS0_7IBinderEEENS5_IT_EE"
  },
  {
   "binding":"weak",
   "name":"_ZN7android8hardware8toBinderINS_4hidl4base4V1_05IBaseEvEENS_2spINS0_7IBinderEEENS6_IT_EE"
  },
  {
   "name":"_ZThn32_N7android8hardware3usb4V1_015BnHwUsbCallbackD0Ev"
  },
  {
   "name":"_ZThn32_N7android8hardware3usb4V1_015BnHwUsbCallbackD1Ev"
  },
  {
   "name":"_ZThn32_N7android8hardware3usb4V1_07BnHwUsbD0Ev"
  },
  {
   "name":"_ZThn32_N7android8hardware3usb4V1_07BnHwUsbD1Ev"
  },
  {
   "name":"_ZTv0_n24_N7android8hardware3usb4V1_015BnHwUsbCallbackD0Ev"
  },
  {
   "name":"_ZTv0_n24_N7android8hardware3usb4V1_015BnHwUsbCallbackD1Ev"
  },
  {
   "name":"_ZTv0_n24_N7android8hardware3usb4V1_07BnHwUsbD0Ev"
  },
  {
   "name":"_ZTv0_n24_N7android8hardware3usb4V1_07BnHwUsbD1Ev"
  }
 ],
 "elf_objects":[
  {
   "name":"_ZN7android8hardware3usb4V1_012IUsbCallback10descriptorE"
  },
  {
   "name":"_ZN7android8hardware3usb4V1_04IUsb10descriptorE"
  },
  {
   "name":"_ZTTN7android8hardware3usb4V1_012IUsbCallbackE"
  },
  {
   "name":"_ZTTN7android8hardware3usb4V1_015BnHwUsbCallbackE"
  },
  {
   "name":"_ZTTN7android8hardware3usb4V1_015BpHwUsbCallbackE"
  },
  {
   "name":"_ZTTN7android8hardware3usb4V1_04IUsbE"
  },
  {
   "name":"_ZTTN7android8hardware3usb4V1_07BnHwUsbE"
  },
  {
   "name":"_ZTTN7android8hardware3usb4V1_07BpHwUsbE"
  },
  {
   "name":"_ZTVN7android8hardware3usb4V1_012IUsbCallbackE"
  },
  {
   "binding":"weak",
   "name":"_ZTVN7android8hardware3usb4V1_013BsUsbCallbackE"
  },
  {
   "name":"_ZTVN7android8hardware3usb4V1_015BnHwUsbCallbackE"
  },
  {
   "name":"_ZTVN7android8hardware3usb4V1_015BpHwUsbCallbackE"
  },
  {
   "name":"_ZTVN7android8hardware3usb4V1_04IUsbE"
  },
  {
   "binding":"weak",
   "name":"_ZTVN7android8hardware3usb4V1_05BsUsbE"
  },
  {
   "name":"_ZTVN7android8hardware3usb4V1_07BnHwUsbE"
  },
  {
   "name":"_ZTVN7android8hardware3usb4V1_07BpHwUsbE"
  }
 ]
}