{
 "record_types":[
  {
   "vtable_components":[
    {
     "kind":"vbase_offset",
     "component_value":8
    },
    {
     "kind":"offset_to_top"
    },
    {
     "kind":"rtti",
     "mangled_component_name":"_ZTIN7android8hardware8graphics8composer4V2_215IComposerClientE"
    },
    {
     "mangled_component_name":"_ZNK7android8hardware8graphics8composer4V2_215IComposerClient8isRemoteEv"
    },
    {
     "mangled_component_name":"_ZN7android8hardware8graphics8composer4V2_215IComposerClient14interfaceChainENSt3__18functionIFvRKNS0_8hidl_vecINS0_11hidl_stringEEEEEE"
    },
    {
     "mangled_component_name":"_ZN7android8hardware8graphics8composer4V2_215IComposerClient5debugERKNS0_11hidl_handleERKNS0_8hidl_vecINS0_11hidl_stringEEE"
    },
    {
     "mangled_component_name":"_ZN7android8hardware8graphics8composer4V2_215IComposerClient19interfaceDescriptorENSt3__18functionIFvRKNS0_11hidl_stringEEEE"
    },
    {
     "mangled_component_name":"_ZN7android8hardware8graphics8composer4V2_215IComposerClient12getHashChainENSt3__18functionIFvRKNS0_8hidl_vecINS0_10hidl_arrayIhLm32EJEEEEEEEE"
    },
    {
     "mangled_component_name":"_ZN7android8hardware8graphics8composer4V2_215IComposerClient21setHALInstrumentationEv"
    },
    {
     "mangled_component_name":"_ZN7android8hardware8graphics8composer4V2_215IComposerClient11linkToDeathERKNS_2spINS0_20hidl_death_recipientEEEm"
    },
    {
     "mangled_component_name":"_ZN7android8hardware8graphics8composer4V2_215IComposerClient4pingEv"
    },
    {
     "mangled_component_name":"_ZN7android8hardware8graphics8composer4V2_215IComposerClient12getDebugInfoENSt3__18functionIFvRKNS_4hidl4base4V1_09DebugInfoEEEE"
    },
    {
     "mangled_component_name":"_ZN7android8hardware8graphics8composer4V2_215IComposerClient21notifySyspropsChangedEv"
    },
    {
     "mangled_component_name":"_ZN7android8hardware8graphics8composer4V2_215IComposerClient13unlinkToDeathERKNS_2spINS0_20hidl_death_recipientEEE"
    },
    {
     "kind":"complete_dtor_pointer",
     "mangled_component_name":"_ZN7android8hardware8graphics8composer4V2_215IComposerClientD1Ev"
    },
    {
     "kind":"deleting_dtor_pointer",
     "mangled_component_name":"_ZN7android8hardware8graphics8composer4V2_215IComposerClientD0Ev"
    },
    {
     "is_pure":true,
     "mangled_component_name":"_ZN7android8hardware8graphics8composer4V2_215IComposerClient16registerCallbackERKNS_2spINS2_4V2_117IComposerCallbackEEE"
    },
    {
     "is_pure":true,
     "mangled_component_name":"_ZN7android8hardware8graphics8composer4V2_215IComposerClient25getMaxVirtualDisplayCountEv"
    },
    {
     "is_pure":true,
     "mangled_component_name":"_ZN7android8hardware8graphics8composer4V2_215IComposerClient20createVirtualDisplayEjjNS1_6common4V1_011PixelFormatEjNSt3__18functionIFvNS2_4V2_15ErrorEmS7_EEE"
    },
    {
     "is_pure":true,
     "mangled_component_name":"_ZN7android8hardware8graphics8composer4V2_215IComposerClient21destroyVirtualDisplayEm"
    },
    {
     "is_pure":true,
     "mangled_component_name":"_ZN7android8hardware8graphics8composer4V2_215IComposerClient11createLayerEmjNSt3__18functionIFvNS2_4V2_15ErrorEmEEE"
    },
    {
     "is_pure":true,
     "mangled_component_name":"_ZN7android8hardware8graphics8composer4V2_215IComposerClient12destroyLayerEmm"
    },
    {
     "is_pure":true,
     "mangled_component_name":"_ZN7android8hardware8graphics8composer4V2_215IComposerClient15getActiveConfigEmNSt3__18functionIFvNS2_4V2_15ErrorEjEEE"
    },
    {
     "is_pure":true,
     "mangled_component_name":"_ZN7android8hardware8graphics8composer4V2_215IComposerClient22getClientTargetSupportEmjjNS1_6common4V1_011PixelFormatENS6_9DataspaceE"
    },
    {
     "is_pure":true,
     "mangled_component_name":"_ZN7android8hardware8graphics8composer4V2_215IComposerClient13getColorModesEmNSt3__18functionIFvNS2_4V2_15ErrorERKNS0_8hidl_vecINS1_6common4V1_09ColorModeEEEEEE"
    },
    {
     "is_pure":true,
     "mangled_component_name":"_ZN7android8hardware8graphics8composer4V2_215IComposerClient19getDisplayAttributeEmjNS2_4V2_115IComposerClient9AttributeENSt3__18functionIFvNS5_5ErrorEiEEE"
    },
    {
     "is_pure":true,
     "mangled_component_name":"_ZN7android8hardware8graphics8composer4V2_215IComposerClient17getDisplayConfigsEmNSt3__18functionIFvNS2_4V2_15ErrorERKNS0_8hidl_vecIjEEEEE"
    },
    {
     "is_pure":true,
     "mangled_component_name":"_ZN7android8hardware8graphics8composer4V2_215IComposerClient14getDisplayNameEmNSt3__18functionIFvNS2_4V2_15ErrorERKNS0_11hidl_stringEEEE"
    },
    {
     "is_pure":true,
     "mangled_component_name":"_ZN7android8hardware8graphics8composer4V2_215IComposerClient14getDisplayTypeEmNSt3__18functionIFvNS2_4V2_15ErrorENS7_15IComposerClient11DisplayTypeEEEE"
    },
    {
     "is_pure":true,
     "mangled_component_name":"_ZN7android8hardware8graphics8composer4V2_215IComposerClient14getDozeSupportEmNSt3__18functionIFvNS2_4V2_15ErrorEbEEE"
    },
    {
     "is_pure":true,
     "mangled_component_name":"_ZN7android8hardware8graphics8composer4V2_215IComposerClient18getHdrCapabilitiesEmNSt3__18functionIFvNS2_4V2_15ErrorERKNS0_8hidl_vecINS1_6common4V1_03HdrEEEfffEEE"
    },
    {
     "is_pure":true,
     "mangled_component_name":"_ZN7android8hardware8graphics8composer4V2_215IComposerClient24setClientTargetSlotCountEmj"
    },
    {
     "is_pure":true,
     "mangled_component_name":"_ZN7android8hardware8graphics8composer4V2_215IComposerClient15setActiveConfigEmj"
    },
    {
     "is_pure":true,
     "mangled_component_name":"_ZN7android8hardware8graphics8composer4V2_215IComposerClient12setColorModeEmNS1_6common4V1_09ColorModeE"
    },
    {
     "is_pure":true,
     "mangled_component_name":"_ZN7android8hardware8graphics8composer4V2_215IComposerClient12setPowerModeEmNS2_4V2_115IComposerClient9PowerModeE"
    },
    {
     "is_pure":true,
     "mangled_component_name":"_ZN7android8hardware8graphics8composer4V2_215IComposerClient15setVsyncEnabledEmNS2_4V2_115IComposerClient5VsyncE"
    },
    {
     "is_pure":true,
     "mangled_component_name":"_ZN7android8hardware8graphics8composer4V2_215IComposerClient20setInputCommandQueueERKNS0_12MQDescriptorIjLNS0_8MQFlavorE1EEE"
    },
    {
     "is_pure":true,
     "mangled_component_name":"_ZN7android8hardware8graphics8composer4V2_215IComposerClient21getOutputCommandQueueENSt3__18functionIFvNS2_4V2_15ErrorERKNS0_12MQDescriptorIjLNS0_8MQFlavorE1EEEEEE"
    },
    {
     "is_pure":true,
     "mangled_component_name":"_ZN7android8hardware8graphics8composer4V2_215IComposerClient15executeCommandsEjRKNS0_8hidl_vecINS0_11hidl_handleEEENSt3__18functionIFvNS2_4V2_15ErrorEbjS9_EEE"
    },
    {
     "is_pure":true,
     "mangled_component_name":"_ZN7android8hardware8graphics8composer4V2_215IComposerClient23getPerFrameMetadataKeysEmNSt3__18functionIFvNS2_4V2_15ErrorERKNS0_8hidl_vecINS4_19PerFrameMetadataKeyEEEEEE"
    },
    {
     "is_pure":true,
     "mangled_component_name":"_ZN7android8hardware8graphics8composer4V2_215IComposerClient27getReadbackBufferAttributesEmNSt3__18functionIFvNS2_4V2_15ErrorENS1_6common4V1_111PixelFormatENSA_9DataspaceEEEE"
    },
    {
     "is_pure":true,
     "mangled_component_name":"_ZN7android8hardware8graphics8composer4V2_215IComposerClient22getReadbackBufferFenceEmNSt3__18functionIFvNS2_4V2_15ErrorERKNS0_11hidl_handleEEEE"
    },
    {
     "is_pure":true,
     "mangled_component_name":"_ZN7android8hardware8graphics8composer4V2_215IComposerClient17setReadbackBufferEmRKNS0_11hidl_handleES7_"
    },
    {
     "is_pure":true,
     "mangled_component_name":"_ZN7android8hardware8graphics8composer4V2_215IComposerClient24createVirtualDisplay_2_2EjjNS1_6common4V1_111PixelFormatEjNSt3__18functionIFvNS2_4V2_15ErrorEmS7_EEE"
    },
    {
     "is_pure":true,
     "mangled_component_name":"_ZN7android8hardware8graphics8composer4V2_215IComposerClient26getClientTargetSupport_2_2EmjjNS1_6common4V1_111PixelFormatENS6_9DataspaceE"
    },
    {
     "is_pure":true,
     "mangled_component_name":"_ZN7android8hardware8graphics8composer4V2_215IComposerClient16setPowerMode_2_2EmNS4_9PowerModeE"
    },
    {
     "is_pure":true,
     "mangled_component_name":"_ZN7android8hardware8graphics8composer4V2_215IComposerClient17getColorModes_2_2EmNSt3__18functionIFvNS2_4V2_15ErrorERKNS0_8hidl_vecINS1_6common4V1_19ColorModeEEEEEE"
    },
    {
     "is_pure":true,
     "mangled_component_name":"_ZN7android8hardware8graphics8composer4V2_215IComposerClient16getRenderIntentsEmNS1_6common4V1_19ColorModeENSt3__18functionIFvNS2_4V2_15ErrorERKNS0_8hidl_vecINS6_12RenderIntentEEEEEE"
    },
    {
     "is_pure":true,
     "mangled_component_name":"_ZN7android8hardware8graphics8composer4V2_215IComposerClient16setColorMode_2_2EmNS1_6common4V1_19ColorModeENS6_12RenderIntentE"
    },
    {
     "is_pure":true,
     "mangled_component_name":"_ZN7android8hardware8graphics8composer4V2_215IComposerClient28getDataspaceSaturationMatrixENS1_6common4V1_19DataspaceENSt3__18functionIFvNS2_4V2_15ErrorERKNS0_10hidl_arrayIfLm4EJLm4EEEEEEE"
    },
    {
     "is_pure":true,
     "mangled_component_name":"_ZN7android8hardware8graphics8composer4V2_215IComposerClient19executeCommands_2_2EjRKNS0_8hidl_vecINS0_11hidl_handleEEENSt3__18functionIFvNS2_4V2_15ErrorEbjS9_EEE"
    },
    {
     "kind":"vcall_offset"
    },
    {
     "kind":"vcall_offset"
    },
    {
     "kind":"vcall_offset"
    },
    {
     "kind":"vcall_offset"
    },
    {
     "kind":"vcall_offset",
     "component_value":-8
    },
    {
     "kind":"offset_to_top",
     "component_value":-8
    },
    {
     "kind":"rtti",
     "mangled_component_name":"_ZTIN7android8hardware8graphics8composer4V2_215IComposerClientE"
    },
    {
     "kind":"complete_dtor_pointer",
     "mangled_component_name":"_ZTv0_n24_N7android8hardware8graphics8composer4V2_215IComposerClientD1Ev"
    },
    {
     "kind":"deleting_dtor_pointer",
     "mangled_component_name":"_ZTv0_n24_N7android8hardware8graphics8composer4V2_215IComposerClientD0Ev"
    },
    {
     "mangled_component_name":"_ZN7android7RefBase10onFirstRefEv"
    },
    {
     "mangled_component_name":"_ZN7android7RefBase15onLastStrongRefEPKv"
    },
    {
     "mangled_component_name":"_ZN7android7RefBase20onIncStrongAttemptedEjPKv"
    },
    {
     "mangled_component_name":"_ZN7android7RefBase13onLastWeakRefEPKv"
    }
   ],
   "unique_id":"_ZTSN7android8hardware8graphics8composer4V2_215IComposerClientE"
  },
  {
   "vtable_components":[
    {
     "kind":"vbase_offset",
     "component_value":200
    },
    {
     "kind":"offset_to_top"
    },
    {
     "kind":"rtti",
     "mangled_component_name":"_ZTIN7android8hardware8graphics8composer4V2_218BpHwComposerClientE"
    },
    {
     "mangled_component_name":"_ZNK7android8hardware8graphics8composer4V2_218BpHwComposerClient8isRemoteEv"
    },
    {
     "mangled_component_name":"_ZN7android8hardware8graphics8composer4V2_218BpHwComposerClient14interfaceChainENSt3__18functionIFvRKNS0_8hidl_vecINS0_11hidl_stringEEEEEE"
    },
    {
     "mangled_component_name":"_ZN7android8hardware8graphics8composer4V2_218BpHwComposerClient5debugERKNS0_11hidl_handleERKNS0_8hidl_vecINS0_11hidl_stringEEE"
    },
    {
     "mangled_component_name":"_ZN7android8hardware8graphics8composer4V2_218BpHwComposerClient19interfaceDescriptorENSt3__18functionIFvRKNS0_11hidl_stringEEEE"
    },
    {
     "mangled_component_name":"_ZN7android8hardware8graphics8composer4V2_218BpHwComposerClient12getHashChainENSt3__18functionIFvRKNS0_8hidl_vecINS0_10hidl_arrayIhLm32EJEEEEEEEE"
    },
    {
     "mangled_component_name":"_ZN7android8hardware8graphics8composer4V2_218BpHwComposerClient21setHALInstrumentationEv"
    },
    {
     "mangled_component_name":"_ZN7android8hardware8graphics8composer4V2_218BpHwComposerClient11linkToDeathERKNS_2spINS0_20hidl_death_recipientEEEm"
    },
    {
     "mangled_component_name":"_ZN7android8hardware8graphics8composer4V2_218BpHwComposerClient4pingEv"
    },
    {
     "mangled_component_name":"_ZN7android8hardware8graphics8composer4V2_218BpHwComposerClient12getDebugInfoENSt3__18functionIFvRKNS_4hidl4base4V1_09DebugInfoEEEE"
    },
    {
     "mangled_component_name":"_ZN7android8hardware8graphics8composer4V2_218BpHwComposerClient21notifySyspropsChangedEv"
    },
    {
     "mangled_component_name":"_ZN7android8hardware8graphics8composer4V2_218BpHwComposerClient13unlinkToDeathERKNS_2spINS0_20hidl_death_recipientEEE"
    },
    {
     "kind":"complete_dtor_pointer",
     "mangled_component_name":"_ZN7android8hardware8graphics8composer4V2_218BpHwComposerClientD1Ev"
    },
    {
     "kind":"deleting_dtor_pointer",
     "mangled_component_name":"_ZN7android8hardware8graphics8composer4V2_218BpHwComposerClientD0Ev"
    },
    {
     "mangled_component_name":"_ZN7android8hardware8graphics8composer4V2_218BpHwComposerClient16registerCallbackERKNS_2spINS2_4V2_117IComposerCallbackEEE"
    },
    {
     "mangled_component_name":"_ZN7android8hardware8graphics8composer4V2_218BpHwComposerClient25getMaxVirtualDisplayCountEv"
    },
    {
     "mangled_component_name":"_ZN7android8hardware8graphics8composer4V2_218BpHwComposerClient20createVirtualDisplayEjjNS1_6common4V1_011PixelFormatEjNSt3__18functionIFvNS2_4V2_15ErrorEmS7_EEE"
    },
    {
     "mangled_component_name":"_ZN7android8hardware8graphics8composer4V2_218BpHwComposerClient21destroyVirtualDisplayEm"
    },
    {
     "mangled_component_name":"_ZN7android8hardware8graphics8composer4V2_218BpHwComposerClient11createLayerEmjNSt3__18functionIFvNS2_4V2_15ErrorEmEEE"
    },
    {
     "mangled_component_name":"_ZN7android8hardware8graphics8composer4V2_218BpHwComposerClient12destroyLayerEmm"
    },
    {
     "mangled_component_name":"_ZN7android8hardware8graphics8composer4V2_218BpHwComposerClient15getActiveConfigEmNSt3__18functionIFvNS2_4V2_15ErrorEjEEE"
    },
    {
     "mangled_component_name":"_ZN7android8hardware8graphics8composer4V2_218BpHwComposerClient22getClientTargetSupportEmjjNS1_6common4V1_011PixelFormatENS6_9DataspaceE"
    },
    {
     "mangled_component_name":"_ZN7android8hardware8graphics8composer4V2_218BpHwComposerClient13getColorModesEmNSt3__18functionIFvNS2_4V2_15ErrorERKNS0_8hidl_vecINS1_6common4V1_09ColorModeEEEEEE"
    },
    {
     "mangled_component_name":"_ZN7android8hardware8graphics8composer4V2_218BpHwComposerClient19getDisplayAttributeEmjNS2_4V2_115IComposerClient9AttributeENSt3__18functionIFvNS5_5ErrorEiEEE"
    },
    {
     "mangled_component_name":"_ZN7android8hardware8graphics8composer4V2_218BpHwComposerClient17getDisplayConfigsEmNSt3__18functionIFvNS2_4V2_15ErrorERKNS0_8hidl_vecIjEEEEE"
    },
    {
     "mangled_component_name":"_ZN7android8hardware8graphics8composer4V2_218BpHwComposerClient14getDisplayNameEmNSt3__18functionIFvNS2_4V2_15ErrorERKNS0_11hidl_stringEEEE"
    },
    {
     "mangled_component_name":"_ZN7android8hardware8graphics8composer4V2_218BpHwComposerClient14getDisplayTypeEmNSt3__18functionIFvNS2_4V2_15ErrorENS7_15IComposerClient11DisplayTypeEEEE"
    },
    {
     "mangled_component_name":"_ZN7android8hardware8graphics8composer4V2_218BpHwComposerClient14getDozeSupportEmNSt3__18functionIFvNS2_4V2_15ErrorEbEEE"
    },
    {
     "mangled_component_name":"_ZN7android8hardware8graphics8composer4V2_218BpHwComposerClient18getHdrCapabilitiesEmNSt3__18functionIFvNS2_4V2_15ErrorERKNS0_8hidl_vecINS1_6common4V1_03HdrEEEfffEEE"
    },
    {
     "mangled_component_name":"_ZN7android8hardware8graphics8composer4V2_218BpHwComposerClient24setClientTargetSlotCountEmj"
    },
    {
     "mangled_component_name":"_ZN7android8hardware8graphics8composer4V2_218BpHwComposerClient15setActiveConfigEmj"
    },
    {
     "mangled_component_name":"_ZN7android8hardware8graphics8composer4V2_218BpHwComposerClient12setColorModeEmNS1_6common4V1_09ColorModeE"
    },
    {
     "mangled_component_name":"_ZN7android8hardware8graphics8composer4V2_218BpHwComposerClient12setPowerModeEmNS2_4V2_115IComposerClient9PowerModeE"
    },
    {
     "mangled_component_name":"_ZN7android8hardware8graphics8composer4V2_218BpHwComposerClient15setVsyncEnabledEmNS2_4V2_115IComposerClient5VsyncE"
    },
    {
     "mangled_component_name":"_ZN7android8hardware8graphics8composer4V2_218BpHwComposerClient20setInputCommandQueueERKNS0_12MQDescriptorIjLNS0_8MQFlavorE1EEE"
    },
    {
     "mangled_component_name":"_ZN7android8hardware8graphics8composer4V2_218BpHwComposerClient21getOutputCommandQueueENSt3__18functionIFvNS2_4V2_15ErrorERKNS0_12MQDescriptorIjLNS0_8MQFlavorE1EEEEEE"
    },
    {
     "mangled_component_name":"_ZN7android8hardware8graphics8composer4V2_218BpHwComposerClient15executeCommandsEjRKNS0_8hidl_vecINS0_11hidl_handleEEENSt3__18functionIFvNS2_4V2_15ErrorEbjS9_EEE"
    },
    {
     "mangled_component_name":"_ZN7android8hardware8graphics8composer4V2_218BpHwComposerClient23getPerFrameMetadataKeysEmNSt3__18functionIFvNS2_4V2_15ErrorERKNS0_8hidl_vecINS3_15IComposerClient19PerFrameMetadataKeyEEEEEE"
    },
    {
     "mangled_component_name":"_ZN7android8hardware8graphics8composer4V2_218BpHwComposerClient27getReadbackBufferAttributesEmNSt3__18functionIFvNS2_4V2_15ErrorENS1_6common4V1_111PixelFormatENSA_9DataspaceEEEE"
    },
    {
     "mangled_component_name":"_ZN7android8hardware8graphics8composer4V2_218BpHwComposerClient22getReadbackBufferFenceEmNSt3__18functionIFvNS2_4V2_15ErrorERKNS0_11hidl_handleEEEE"
    },
    {
     "mangled_component_name":"_ZN7android8hardware8graphics8composer4V2_218BpHwComposerClient17setReadbackBufferEmRKNS0_11hidl_handleES7_"
    },
    {
     "mangled_component_name":"_ZN7android8hardware8graphics8composer4V2_218BpHwComposerClient24createVirtualDisplay_2_2EjjNS1_6common4V1_111PixelFormatEjNSt3__18functionIFvNS2_4V2_15ErrorEmS7_EEE"
    },
    {
     "mangled_component_name":"_ZN7android8hardware8graphics8composer4V2_218BpHwComposerClient26getClientTargetSupport_2_2EmjjNS1_6common4V1_111PixelFormatENS6_9DataspaceE"
    },
    {
     "mangled_component_name":"_ZN7android8hardware8graphics8composer4V2_218BpHwComposerClient16setPowerMode_2_2EmNS3_15IComposerClient9PowerModeE"
    },
    {
     "mangled_component_name":"_ZN7android8hardware8graphics8composer4V2_218BpHwComposerClient17getColorModes_2_2EmNSt3__18functionIFvNS2_4V2_15ErrorERKNS0_8hidl_vecINS1_6common4V1_19ColorModeEEEEEE"
    },
    {
     "mangled_component_name":"_ZN7android8hardware8graphics8composer4V2_218BpHwComposerClient16getRenderIntentsEmNS1_6common4V1_19ColorModeENSt3__18functionIFvNS2_4V2_15ErrorERKNS0_8hidl_vecINS6_12RenderIntentEEEEEE"
    },
    {
     "mangled_component_name":"_ZN7android8hardware8graphics8composer4V2_218BpHwComposerClient16setColorMode_2_2EmNS1_6common4V1_19ColorModeENS6_12RenderIntentE"
    },
    {
     "mangled_component_name":"_ZN7android8hardware8graphics8composer4V2_218BpHwComposerClient28getDataspaceSaturationMatrixENS1_6common4V1_19DataspaceENSt3__18functionIFvNS2_4V2_15ErrorERKNS0_10hidl_arrayIfLm4EJLm4EEEEEEE"
    },
    {
     "mangled_component_name":"_ZN7android8hardware8graphics8composer4V2_218BpHwComposerClient19executeCommands_2_2EjRKNS0_8hidl_vecINS0_11hidl_handleEEENSt3__18functionIFvNS2_4V2_15ErrorEbjS9_EEE"
    },
    {
     "mangled_component_name":"_ZN7android8hardware11BpInterfaceINS0_8graphics8composer4V2_215IComposerClientEE10onAsBinderEv"
    },
    {
     "kind":"vbase_offset",
     "component_value":192
    },
    {
     "kind":"offset_to_top",
     "component_value":-8
    },
    {
     "kind":"rtti",
     "mangled_component_name":"_ZTIN7android8hardware8graphics8composer4V2_218BpHwComposerClientE"
    },
    {
     "kind":"complete_dtor_pointer",
     "mangled_component_name":"_ZThn8_N7android8hardware8graphics8composer4V2_218BpHwComposerClientD1Ev"
    },
    {
     "kind":"deleting_dtor_pointer",
     "mangled_component_name":"_ZThn8_N7android8hardware8graphics8composer4V2_218BpHwComposerClientD0Ev"
    },
    {
     "mangled_component_name":"_ZThn8_N7android8hardware11BpInterfaceINS0_8graphics8composer4V2_215IComposerClientEE10onAsBinderEv"
    },
    {
     "kind":"vbase_offset",
     "component_value":184
    },
    {
     "kind":"offset_to_top",
     "component_value":-16
    },
    {
     "kind":"rtti",
     "mangled_component_name":"_ZTIN7android8hardware8graphics8composer4V2_218BpHwComposerClientE"
    },
    {
     "kind":"complete_dtor_pointer",
     "mangled_component_name":"_ZThn16_N7android8hardware8graphics8composer4V2_218BpHwComposerClientD1Ev"
    },
    {
     "kind":"deleting_dtor_pointer",
     "mangled_component_name":"_ZThn16_N7android8hardware8graphics8composer4V2_218BpHwComposerClientD0Ev"
    },
    {
     "mangled_component_name":"_ZN7android8hardware11BpHwRefBase10onFirstRefEv"
    },
    {
     "mangled_component_name":"_ZN7android8hardware11BpHwRefBase15onLastStrongRefEPKv"
    },
    {
     "mangled_component_name":"_ZN7android8hardware11BpHwRefBase20onIncStrongAttemptedEjPKv"
    },
    {
     "kind":"offset_to_top",
     "component_value":-48
    },
    {
     "kind":"rtti",
     "mangled_component_name":"_ZTIN7android8hardware8graphics8composer4V2_218BpHwComposerClientE"
    },
    {
     "kind":"complete_dtor_pointer",
     "mangled_component_name":"_ZThn48_N7android8hardware8graphics8composer4V2_218BpHwComposerClientD1Ev"
    },
    {
     "kind":"deleting_dtor_pointer",
     "mangled_component_name":"_ZThn48_N7android8hardware8graphics8composer4V2_218BpHwComposerClientD0Ev"
    },
    {
     "kind":"vcall_offset"
    },
    {
     "kind":"vcall_offset",
     "component_value":-184
    },
    {
     "kind":"vcall_offset",
     "component_value":-184
    },
    {
     "kind":"vcall_offset",
     "component_value":-184
    },
    {
     "kind":"vcall_offset",
     "component_value":-200
    },
    {
     "kind":"offset_to_top",
     "component_value":-200
    },
    {
     "kind":"rtti",
     "mangled_component_name":"_ZTIN7android8hardware8graphics8composer4V2_218BpHwComposerClientE"
    },
    {
     "kind":"complete_dtor_pointer",
     "mangled_component_name":"_ZTv0_n24_N7android8hardware8graphics8composer4V2_218BpHwComposerClientD1Ev"
    },
    {
     "kind":"deleting_dtor_pointer",
     "mangled_component_name":"_ZTv0_n24_N7android8hardware8graphics8composer4V2_218BpHwComposerClientD0Ev"
    },
    {
     "mangled_component_name":"_ZTv0_n32_N7android8hardware11BpHwRefBase10onFirstRefEv"
    },
    {
     "mangled_component_name":"_ZTv0_n40_N7android8hardware11BpHwRefBase15onLastStrongRefEPKv"
    },
    {
     "mangled_component_name":"_ZTv0_n48_N7android8hardware11BpHwRefBase20onIncStrongAttemptedEjPKv"
    },
    {
     "mangled_component_name":"_ZN7android7RefBase13onLastWeakRefEPKv"
    }
   ],
   "unique_id":"_ZTSN7android8hardware8graphics8composer4V2_218BpHwComposerClientE"
  },
  {
   "vtable_components":[
    {
     "kind":"vbase_offset",
     "component_value":8
    },
    {
     "kind":"offset_to_top"
    },
    {
     "kind":"rtti",
     "mangled_component_name":"_ZTIN7android8hardware8graphics8composer4V2_29IComposerE"
    },
    {
     "mangled_component_name":"_ZNK7android8hardware8graphics8composer4V2_29IComposer8isRemoteEv"
    },
    {
     "mangled_component_name":"_ZN7android8hardware8graphics8composer4V2_29IComposer14interfaceChainENSt3__18functionIFvRKNS0_8hidl_vecINS0_11hidl_stringEEEEEE"
    },
    {
     "mangled_component_name":"_ZN7android8hardware8graphics8composer4V2_29IComposer5debugERKNS0_11hidl_handleERKNS0_8hidl_vecINS0_11hidl_stringEEE"
    },
    {
     "mangled_component_name":"_ZN7android8hardware8graphics8composer4V2_29IComposer19interfaceDescriptorENSt3__18functionIFvRKNS0_11hidl_stringEEEE"
    },
    {
     "mangled_component_name":"_ZN7android8hardware8graphics8composer4V2_29IComposer12getHashChainENSt3__18functionIFvRKNS0_8hidl_vecINS0_10hidl_arrayIhLm32EJEEEEEEEE"
    },
    {
     "mangled_component_name":"_ZN7android8hardware8graphics8composer4V2_29IComposer21setHALInstrumentationEv"
    },
    {
     "mangled_component_name":"_ZN7android8hardware8graphics8composer4V2_29IComposer11linkToDeathERKNS_2spINS0_20hidl_death_recipientEEEm"
    },
    {
     "mangled_component_name":"_ZN7android8hardware8graphics8composer4V2_29IComposer4pingEv"
    },
    {
     "mangled_component_name":"_ZN7android8hardware8graphics8composer4V2_29IComposer12getDebugInfoENSt3__18functionIFvRKNS_4hidl4base4V1_09DebugInfoEEEE"
    },
    {
     "mangled_component_name":"_ZN7android8hardware8graphics8composer4V2_29IComposer21notifySyspropsChangedEv"
    },
    {
     "mangled_component_name":"_ZN7android8hardware8graphics8composer4V2_29IComposer13unlinkToDeathERKNS_2spINS0_20hidl_death_recipientEEE"
    },
    {
     "kind":"complete_dtor_pointer",
     "mangled_component_name":"_ZN7android8hardware8graphics8composer4V2_29IComposerD1Ev"
    },
    {
     "kind":"deleting_dtor_pointer",
     "mangled_component_name":"_ZN7android8hardware8graphics8composer4V2_29IComposerD0Ev"
    },
    {
     "is_pure":true,
     "mangled_component_name":"_ZN7android8hardware8graphics8composer4V2_29IComposer15getCapabilitiesENSt3__18functionIFvRKNS0_8hidl_vecINS2_4V2_19IComposer10CapabilityEEEEEE"
    },
    {
     "is_pure":true,
     "mangled_component_name":"_ZN7android8hardware8graphics8composer4V2_29IComposer13dumpDebugInfoENSt3__18functionIFvRKNS0_11hidl_stringEEEE"
    },
    {
     "is_pure":true,
     "mangled_component_name":"_ZN7android8hardware8graphics8composer4V2_29IComposer12createClientENSt3__18functionIFvNS2_4V2_15ErrorERKNS_2spINS7_15IComposerClientEEEEEE"
    },
    {
     "kind":"vcall_offset"
    },
    {
     "kind":"vcall_offset"
    },
    {
     "kind":"vcall_offset"
    },
    {
     "kind":"vcall_offset"
    },
    {
     "kind":"vcall_offset",
     "component_value":-8
    },
    {
     "kind":"offset_to_top",
     "component_value":-8
    },
    {
     "kind":"rtti",
     "mangled_component_name":"_ZTIN7android8hardware8graphics8composer4V2_29IComposerE"
    },
    {
     "kind":"complete_dtor_pointer",
     "mangled_component_name":"_ZTv0_n24_N7android8hardware8graphics8composer4V2_29IComposerD1Ev"
    },
    {
     "kind":"deleting_dtor_pointer",
     "mangled_component_name":"_ZTv0_n24_N7android8hardware8graphics8composer4V2_29IComposerD0Ev"
    },
    {
     "mangled_component_name":"_ZN7android7RefBase10onFirstRefEv"
    },
    {
     "mangled_component_name":"_ZN7android7RefBase15onLastStrongRefEPKv"
    },
    {
     "mangled_component_name":"_ZN7android7RefBase20onIncStrongAttemptedEjPKv"
    },
    {
     "mangled_component_name":"_ZN7android7RefBase13onLastWeakRefEPKv"
    }
   ],
   "unique_id":"_ZTSN7android8hardware8graphics8composer4V2_29IComposerE"
  },
  {
   "vtable_components":[
    {
     "kind":"vbase_offset",
     "component_value":136
    },
    {
     "kind":"offset_to_top"
    },
    {
     "kind":"rtti",
     "mangled_component_name":"_ZTIN7android8hardware8graphics8composer4V2_212BnHwComposerE"
    },
    {
     "mangled_component_name":"_ZN7android8hardware9BHwBinder8transactEjRKNS0_6ParcelEPS2_jNSt3__18functionIFvRS2_EEE"
    },
    {
     "mangled_component_name":"_ZN7android8hardware9BHwBinder11linkToDeathERKNS_2spINS0_7IBinder14DeathRecipientEEEPvj"
    },
    {
     "mangled_component_name":"_ZN7android8hardware9BHwBinder13unlinkToDeathERKNS_2wpINS0_7IBinder14DeathRecipientEEEPvjPS5_"
    },
    {
     "mangled_component_name":"_ZNK7android8hardware7IBinder13checkSubclassEPKv"
    },
    {
     "mangled_component_name":"_ZN7android8hardware9BHwBinder12attachObjectEPKvPvS4_PFvS3_S4_S4_E"
    },
    {
     "mangled_component_name":"_ZNK7android8hardware9BHwBinder10findObjectEPKv"
    },
    {
     "mangled_component_name":"_ZN7android8hardware9BHwBinder12detachObjectEPKv"
    },
    {
     "mangled_component_name":"_ZN7android8hardware9BHwBinder11localBinderEv"
    },
    {
     "mangled_component_name":"_ZN7android8hardware7IBinder12remoteBinderEv"
    },
    {
     "kind":"complete_dtor_pointer",
     "mangled_component_name":"_ZN7android8hardware8graphics8composer4V2_212BnHwComposerD1Ev"
    },
    {
     "kind":"deleting_dtor_pointer",
     "mangled_component_name":"_ZN7android8hardware8graphics8composer4V2_212BnHwComposerD0Ev"
    },
    {
     "mangled_component_name":"_ZN7android8hardware8graphics8composer4V2_212BnHwComposer10onTransactEjRKNS0_6ParcelEPS5_jNSt3__18functionIFvRS5_EEE"
    },
    {
     "kind":"offset_to_top",
     "component_value":-32
    },
    {
     "kind":"rtti",
     "mangled_component_name":"_ZTIN7android8hardware8graphics8composer4V2_212BnHwComposerE"
    },
    {
     "kind":"complete_dtor_pointer",
     "mangled_component_name":"_ZThn32_N7android8hardware8graphics8composer4V2_212BnHwComposerD1Ev"
    },
    {
     "kind":"deleting_dtor_pointer",
     "mangled_component_name":"_ZThn32_N7android8hardware8graphics8composer4V2_212BnHwComposerD0Ev"
    },
    {
     "kind":"vcall_offset"
    },
    {
     "kind":"vcall_offset"
    },
    {
     "kind":"vcall_offset"
    },
    {
     "kind":"vcall_offset"
    },
    {
     "kind":"vcall_offset",
     "component_value":-136
    },
    {
     "kind":"offset_to_top",
     "component_value":-136
    },
    {
     "kind":"rtti",
     "mangled_component_name":"_ZTIN7android8hardware8graphics8composer4V2_212BnHwComposerE"
    },
    {
     "kind":"complete_dtor_pointer",
     "mangled_component_name":"_ZTv0_n24_N7android8hardware8graphics8composer4V2_212BnHwComposerD1Ev"
    },
    {
     "kind":"deleting_dtor_pointer",
     "mangled_component_name":"_ZTv0_n24_N7android8hardware8graphics8composer4V2_212BnHwComposerD0Ev"
    },
    {
     "mangled_component_name":"_ZN7android7RefBase10onFirstRefEv"
    },
    {
     "mangled_component_name":"_ZN7android7RefBase15onLastStrongRefEPKv"
    },
    {
     "mangled_component_name":"_ZN7android7RefBase20onIncStrongAttemptedEjPKv"
    },
    {
     "mangled_component_name":"_ZN7android7RefBase13onLastWeakRefEPKv"
    }
   ],
   "unique_id":"_ZTSN7android8hardware8graphics8composer4V2_212BnHwComposerE"
  },
  {
   "vtable_components":[
    {
     "kind":"vbase_offset",
     "component_value":120
    },
    {
     "kind":"offset_to_top"
    },
    {
     "kind":"rtti",
     "mangled_component_name":"_ZTIN7android8hardware8graphics8composer4V2_210BsComposerE"
    },
    {
     "mangled_component_name":"_ZNK7android8hardware8graphics8composer4V2_29IComposer8isRemoteEv"
    },
    {
     "mangled_component_name":"_ZN7android8hardware8graphics8composer4V2_210BsComposer14interfaceChainENSt3__18functionIFvRKNS0_8hidl_vecINS0_11hidl_stringEEEEEE"
    },
    {
     "mangled_component_name":"_ZN7android8hardware8graphics8composer4V2_210BsComposer5debugERKNS0_11hidl_handleERKNS0_8hidl_vecINS0_11hidl_stringEEE"
    },
    {
     "mangled_component_name":"_ZN7android8hardware8graphics8composer4V2_210BsComposer19interfaceDescriptorENSt3__18functionIFvRKNS0_11hidl_stringEEEE"
    },
    {
     "mangled_component_name":"_ZN7android8hardware8graphics8composer4V2_210BsComposer12getHashChainENSt3__18functionIFvRKNS0_8hidl_vecINS0_10hidl_arrayIhLm32EJEEEEEEEE"
    },
    {
     "mangled_component_name":"_ZN7android8hardware8graphics8composer4V2_210BsComposer21setHALInstrumentationEv"
    },
    {
     "mangled_component_name":"_ZN7android8hardware8graphics8composer4V2_210BsComposer11linkToDeathERKNS_2spINS0_20hidl_death_recipientEEEm"
    },
    {
     "mangled_component_name":"_ZN7android8hardware8graphics8composer4V2_210BsComposer4pingEv"
    },
    {
     "mangled_component_name":"_ZN7android8hardware8graphics8composer4V2_210BsComposer12getDebugInfoENSt3__18functionIFvRKNS_4hidl4base4V1_09DebugInfoEEEE"
    },
    {
     "mangled_component_name":"_ZN7android8hardware8graphics8composer4V2_210BsComposer21notifySyspropsChangedEv"
    },
    {
     "mangled_component_name":"_ZN7android8hardware8graphics8composer4V2_210BsComposer13unlinkToDeathERKNS_2spINS0_20hidl_death_recipientEEE"
    },
    {
     "kind":"complete_dtor_pointer",
     "mangled_component_name":"_ZN7android8hardware8graphics8composer4V2_210BsComposerD1Ev"
    },
    {
     "kind":"deleting_dtor_pointer",
     "mangled_component_name":"_ZN7android8hardware8graphics8composer4V2_210BsComposerD0Ev"
    },
    {
     "mangled_component_name":"_ZN7android8hardware8graphics8composer4V2_210BsComposer15getCapabilitiesENSt3__18functionIFvRKNS0_8hidl_vecINS2_4V2_19IComposer10CapabilityEEEEEE"
    },
    {
     "mangled_component_name":"_ZN7android8hardware8graphics8composer4V2_210BsComposer13dumpDebugInfoENSt3__18functionIFvRKNS0_11hidl_stringEEEE"
    },
    {
     "mangled_component_name":"_ZN7android8hardware8graphics8composer4V2_210BsComposer12createClientENSt3__18functionIFvNS2_4V2_15ErrorERKNS_2spINS7_15IComposerClientEEEEEE"
    },
    {
     "kind":"offset_to_top",
     "component_value":-8
    },
    {
     "kind":"rtti",
     "mangled_component_name":"_ZTIN7android8hardware8graphics8composer4V2_210BsComposerE"
    },
    {
     "kind":"complete_dtor_pointer",
     "mangled_component_name":"_ZThn8_N7android8hardware8graphics8composer4V2_210BsComposerD1Ev"
    },
    {
     "kind":"deleting_dtor_pointer",
     "mangled_component_name":"_ZThn8_N7android8hardware8graphics8composer4V2_210BsComposerD0Ev"
    },
    {
     "kind":"vcall_offset"
    },
    {
     "kind":"vcall_offset"
    },
    {
     "kind":"vcall_offset"
    },
    {
     "kind":"vcall_offset"
    },
    {
     "kind":"vcall_offset",
     "component_value":-120
    },
    {
     "kind":"offset_to_top",
     "component_value":-120
    },
    {
     "kind":"rtti",
     "mangled_component_name":"_ZTIN7android8hardware8graphics8composer4V2_210BsComposerE"
    },
    {
     "kind":"complete_dtor_pointer",
     "mangled_component_name":"_ZTv0_n24_N7android8hardware8graphics8composer4V2_210BsComposerD1Ev"
    },
    {
     "kind":"deleting_dtor_pointer",
     "mangled_component_name":"_ZTv0_n24_N7android8hardware8graphics8composer4V2_210BsComposerD0Ev"
    },
    {
     "mangled_component_name":"_ZN7android7RefBase10onFirstRefEv"
    },
    {
     "mangled_component_name":"_ZN7android7RefBase15onLastStrongRefEPKv"
    },
    {
     "mangled_component_name":"_ZN7android7RefBase20onIncStrongAttemptedEjPKv"
    },
    {
     "mangled_component_name":"_ZN7android7RefBase13onLastWeakRefEPKv"
    }
   ],
   "unique_id":"_ZTSN7android8hardware8graphics8composer4V2_210BsComposerE"
  },
  {
   "vtable_components":[
    {
     "kind":"vbase_offset",
     "component_value":200
    },
    {
     "kind":"offset_to_top"
    },
    {
     "kind":"rtti",
     "mangled_component_name":"_ZTIN7android8hardware8graphics8composer4V2_212BpHwComposerE"
    },
    {
     "mangled_component_name":"_ZNK7android8hardware8graphics8composer4V2_212BpHwComposer8isRemoteEv"
    },
    {
     "mangled_component_name":"_ZN7android8hardware8graphics8composer4V2_212BpHwComposer14interfaceChainENSt3__18functionIFvRKNS0_8hidl_vecINS0_11hidl_stringEEEEEE"
    },
    {
     "mangled_component_name":"_ZN7android8hardware8graphics8composer4V2_212BpHwComposer5debugERKNS0_11hidl_handleERKNS0_8hidl_vecINS0_11hidl_stringEEE"
    },
    {
     "mangled_component_name":"_ZN7android8hardware8graphics8composer4V2_212BpHwComposer19interfaceDescriptorENSt3__18functionIFvRKNS0_11hidl_stringEEEE"
    },
    {
     "mangled_component_name":"_ZN7android8hardware8graphics8composer4V2_212BpHwComposer12getHashChainENSt3__18functionIFvRKNS0_8hidl_vecINS0_10hidl_arrayIhLm32EJEEEEEEEE"
    },
    {
     "mangled_component_name":"_ZN7android8hardware8graphics8composer4V2_212BpHwComposer21setHALInstrumentationEv"
    },
    {
     "mangled_component_name":"_ZN7android8hardware8graphics8composer4V2_212BpHwComposer11linkToDeathERKNS_2spINS0_20hidl_death_recipientEEEm"
    },
    {
     "mangled_component_name":"_ZN7android8hardware8graphics8composer4V2_212BpHwComposer4pingEv"
    },
    {
     "mangled_component_name":"_ZN7android8hardware8graphics8composer4V2_212BpHwComposer12getDebugInfoENSt3__18functionIFvRKNS_4hidl4base4V1_09DebugInfoEEEE"
    },
    {
     "mangled_component_name":"_ZN7android8hardware8graphics8composer4V2_212BpHwComposer21notifySyspropsChangedEv"
    },
    {
     "mangled_component_name":"_ZN7android8hardware8graphics8composer4V2_212BpHwComposer13unlinkToDeathERKNS_2spINS0_20hidl_death_recipientEEE"
    },
    {
     "kind":"complete_dtor_pointer",
     "mangled_component_name":"_ZN7android8hardware8graphics8composer4V2_212BpHwComposerD1Ev"
    },
    {
     "kind":"deleting_dtor_pointer",
     "mangled_component_name":"_ZN7android8hardware8graphics8composer4V2_212BpHwComposerD0Ev"
    },
    {
     "mangled_component_name":"_ZN7android8hardware8graphics8composer4V2_212BpHwComposer15getCapabilitiesENSt3__18functionIFvRKNS0_8hidl_vecINS2_4V2_19IComposer10CapabilityEEEEEE"
    },
    {
     "mangled_component_name":"_ZN7android8hardware8graphics8composer4V2_212BpHwComposer13dumpDebugInfoENSt3__18functionIFvRKNS0_11hidl_stringEEEE"
    },
    {
     "mangled_component_name":"_ZN7android8hardware8graphics8composer4V2_212BpHwComposer12createClientENSt3__18functionIFvNS2_4V2_15ErrorERKNS_2spINS7_15IComposerClientEEEEEE"
    },
    {
     "mangled_component_name":"_ZN7android8hardware11BpInterfaceINS0_8graphics8composer4V2_29IComposerEE10onAsBinderEv"
    },
    {
     "kind":"vbase_offset",
     "component_value":192
    },
    {
     "kind":"offset_to_top",
     "component_value":-8
    },
    {
     "kind":"rtti",
     "mangled_component_name":"_ZTIN7android8hardware8graphics8composer4V2_212BpHwComposerE"
    },
    {
     "kind":"complete_dtor_pointer",
     "mangled_component_name":"_ZThn8_N7android8hardware8graphics8composer4V2_212BpHwComposerD1Ev"
    },
    {
     "kind":"deleting_dtor_pointer",
     "mangled_component_name":"_ZThn8_N7android8hardware8graphics8composer4V2_212BpHwComposerD0Ev"
    },
    {
     "mangled_component_name":"_ZThn8_N7android8hardware11BpInterfaceINS0_8graphics8composer4V2_29IComposerEE10onAsBinderEv"
    },
    {
     "kind":"vbase_offset",
     "component_value":184
    },
    {
     "kind":"offset_to_top",
     "component_value":-16
    },
    {
     "kind":"rtti",
     "mangled_component_name":"_ZTIN7android8hardware8graphics8composer4V2_212BpHwComposerE"
    },
    {
     "kind":"complete_dtor_pointer",
     "mangled_component_name":"_ZThn16_N7android8hardware8graphics8composer4V2_212BpHwComposerD1Ev"
    },
    {
     "kind":"deleting_dtor_pointer",
     "mangled_component_name":"_ZThn16_N7android8hardware8graphics8composer4V2_212BpHwComposerD0Ev"
    },
    {
     "mangled_component_name":"_ZN7android8hardware11BpHwRefBase10onFirstRefEv"
    },
    {
     "mangled_component_name":"_ZN7android8hardware11BpHwRefBase15onLastStrongRefEPKv"
    },
    {
     "mangled_component_name":"_ZN7android8hardware11BpHwRefBase20onIncStrongAttemptedEjPKv"
    },
    {
     "kind":"offset_to_top",
     "component_value":-48
    },
    {
     "kind":"rtti",
     "mangled_component_name":"_ZTIN7android8hardware8graphics8composer4V2_212BpHwComposerE"
    },
    {
     "kind":"complete_dtor_pointer",
     "mangled_component_name":"_ZThn48_N7android8hardware8graphics8composer4V2_212BpHwComposerD1Ev"
    },
    {
     "kind":"deleting_dtor_pointer",
     "mangled_component_name":"_ZThn48_N7android8hardware8graphics8composer4V2_212BpHwComposerD0Ev"
    },
    {
     "kind":"vcall_offset"
    },
    {
     "kind":"vcall_offset",
     "component_value":-184
    },
    {
     "kind":"vcall_offset",
     "component_value":-184
    },
    {
     "kind":"vcall_offset",
     "component_value":-184
    },
    {
     "kind":"vcall_offset",
     "component_value":-200
    },
    {
     "kind":"offset_to_top",
     "component_value":-200
    },
    {
     "kind":"rtti",
     "mangled_component_name":"_ZTIN7android8hardware8graphics8composer4V2_212BpHwComposerE"
    },
    {
     "kind":"complete_dtor_pointer",
     "mangled_component_name":"_ZTv0_n24_N7android8hardware8graphics8composer4V2_212BpHwComposerD1Ev"
    },
    {
     "kind":"deleting_dtor_pointer",
     "mangled_component_name":"_ZTv0_n24_N7android8hardware8graphics8composer4V2_212BpHwComposerD0Ev"
    },
    {
     "mangled_component_name":"_ZTv0_n32_N7android8hardware11BpHwRefBase10onFirstRefEv"
    },
    {
     "mangled_component_name":"_ZTv0_n40_N7android8hardware11BpHwRefBase15onLastStrongRefEPKv"
    },
    {
     "mangled_component_name":"_ZTv0_n48_N7android8hardware11BpHwRefBase20onIncStrongAttemptedEjPKv"
    },
    {
     "mangled_component_name":"_ZN7android7RefBase13onLastWeakRefEPKv"
    }
   ],
   "unique_id":"_ZTSN7android8hardware8graphics8composer4V2_212BpHwComposerE"
  },
  {
   "vtable_components":[
    {
     "kind":"vbase_offset",
     "component_value":136
    },
    {
     "kind":"offset_to_top"
    },
    {
     "kind":"rtti",
     "mangled_component_name":"_ZTIN7android8hardware8graphics8composer4V2_218BnHwComposerClientE"
    },
    {
     "mangled_component_name":"_ZN7android8hardware9BHwBinder8transactEjRKNS0_6ParcelEPS2_jNSt3__18functionIFvRS2_EEE"
    },
    {
     "mangled_component_name":"_ZN7android8hardware9BHwBinder11linkToDeathERKNS_2spINS0_7IBinder14DeathRecipientEEEPvj"
    },
    {
     "mangled_component_name":"_ZN7android8hardware9BHwBinder13unlinkToDeathERKNS_2wpINS0_7IBinder14DeathRecipientEEEPvjPS5_"
    },
    {
     "mangled_component_name":"_ZNK7android8hardware7IBinder13checkSubclassEPKv"
    },
    {
     "mangled_component_name":"_ZN7android8hardware9BHwBinder12attachObjectEPKvPvS4_PFvS3_S4_S4_E"
    },
    {
     "mangled_component_name":"_ZNK7android8hardware9BHwBinder10findObjectEPKv"
    },
    {
     "mangled_component_name":"_ZN7android8hardware9BHwBinder12detachObjectEPKv"
    },
    {
     "mangled_component_name":"_ZN7android8hardware9BHwBinder11localBinderEv"
    },
    {
     "mangled_component_name":"_ZN7android8hardware7IBinder12remoteBinderEv"
    },
    {
     "kind":"complete_dtor_pointer",
     "mangled_component_name":"_ZN7android8hardware8graphics8composer4V2_218BnHwComposerClientD1Ev"
    },
    {
     "kind":"deleting_dtor_pointer",
     "mangled_component_name":"_ZN7android8hardware8graphics8composer4V2_218BnHwComposerClientD0Ev"
    },
    {
     "mangled_component_name":"_ZN7android8hardware8graphics8composer4V2_218BnHwComposerClient10onTransactEjRKNS0_6ParcelEPS5_jNSt3__18functionIFvRS5_EEE"
    },
    {
     "kind":"offset_to_top",
     "component_value":-32
    },
    {
     "kind":"rtti",
     "mangled_component_name":"_ZTIN7android8hardware8graphics8composer4V2_218BnHwComposerClientE"
    },
    {
     "kind":"complete_dtor_pointer",
     "mangled_component_name":"_ZThn32_N7android8hardware8graphics8composer4V2_218BnHwComposerClientD1Ev"
    },
    {
     "kind":"deleting_dtor_pointer",
     "mangled_component_name":"_ZThn32_N7android8hardware8graphics8composer4V2_218BnHwComposerClientD0Ev"
    },
    {
     "kind":"vcall_offset"
    },
    {
     "kind":"vcall_offset"
    },
    {
     "kind":"vcall_offset"
    },
    {
     "kind":"vcall_offset"
    },
    {
     "kind":"vcall_offset",
     "component_value":-136
    },
    {
     "kind":"offset_to_top",
     "component_value":-136
    },
    {
     "kind":"rtti",
     "mangled_component_name":"_ZTIN7android8hardware8graphics8composer4V2_218BnHwComposerClientE"
    },
    {
     "kind":"complete_dtor_pointer",
     "mangled_component_name":"_ZTv0_n24_N7android8hardware8graphics8composer4V2_218BnHwComposerClientD1Ev"
    },
    {
     "kind":"deleting_dtor_pointer",
     "mangled_component_name":"_ZTv0_n24_N7android8hardware8graphics8composer4V2_218BnHwComposerClientD0Ev"
    },
    {
     "mangled_component_name":"_ZN7android7RefBase10onFirstRefEv"
    },
    {
     "mangled_component_name":"_ZN7android7RefBase15onLastStrongRefEPKv"
    },
    {
     "mangled_component_name":"_ZN7android7RefBase20onIncStrongAttemptedEjPKv"
    },
    {
     "mangled_component_name":"_ZN7android7RefBase13onLastWeakRefEPKv"
    }
   ],
   "unique_id":"_ZTSN7android8hardware8graphics8composer4V2_218BnHwComposerClientE"
  },
  {
   "vtable_components":[
    {
     "kind":"vbase_offset",
     "component_value":120
    },
    {
     "kind":"offset_to_top"
    },
    {
     "kind":"rtti",
     "mangled_component_name":"_ZTIN7android8hardware8graphics8composer4V2_216BsComposerClientE"
    },
    {
     "mangled_component_name":"_ZNK7android8hardware8graphics8composer4V2_215IComposerClient8isRemoteEv"
    },
    {
     "mangled_component_name":"_ZN7android8hardware8graphics8composer4V2_216BsComposerClient14interfaceChainENSt3__18functionIFvRKNS0_8hidl_vecINS0_11hidl_stringEEEEEE"
    },
    {
     "mangled_component_name":"_ZN7android8hardware8graphics8composer4V2_216BsComposerClient5debugERKNS0_11hidl_handleERKNS0_8hidl_vecINS0_11hidl_stringEEE"
    },
    {
     "mangled_component_name":"_ZN7android8hardware8graphics8composer4V2_216BsComposerClient19interfaceDescriptorENSt3__18functionIFvRKNS0_11hidl_stringEEEE"
    },
    {
     "mangled_component_name":"_ZN7android8hardware8graphics8composer4V2_216BsComposerClient12getHashChainENSt3__18functionIFvRKNS0_8hidl_vecINS0_10hidl_arrayIhLm32EJEEEEEEEE"
    },
    {
     "mangled_component_name":"_ZN7android8hardware8graphics8composer4V2_216BsComposerClient21setHALInstrumentationEv"
    },
    {
     "mangled_component_name":"_ZN7android8hardware8graphics8composer4V2_216BsComposerClient11linkToDeathERKNS_2spINS0_20hidl_death_recipientEEEm"
    },
    {
     "mangled_component_name":"_ZN7android8hardware8graphics8composer4V2_216BsComposerClient4pingEv"
    },
    {
     "mangled_component_name":"_ZN7android8hardware8graphics8composer4V2_216BsComposerClient12getDebugInfoENSt3__18functionIFvRKNS_4hidl4base4V1_09DebugInfoEEEE"
    },
    {
     "mangled_component_name":"_ZN7android8hardware8graphics8composer4V2_216BsComposerClient21notifySyspropsChangedEv"
    },
    {
     "mangled_component_name":"_ZN7android8hardware8graphics8composer4V2_216BsComposerClient13unlinkToDeathERKNS_2spINS0_20hidl_death_recipientEEE"
    },
    {
     "kind":"complete_dtor_pointer",
     "mangled_component_name":"_ZN7android8hardware8graphics8composer4V2_216BsComposerClientD1Ev"
    },
    {
     "kind":"deleting_dtor_pointer",
     "mangled_component_name":"_ZN7android8hardware8graphics8composer4V2_216BsComposerClientD0Ev"
    },
    {
     "mangled_component_name":"_ZN7android8hardware8graphics8composer4V2_216BsComposerClient16registerCallbackERKNS_2spINS2_4V2_117IComposerCallbackEEE"
    },
    {
     "mangled_component_name":"_ZN7android8hardware8graphics8composer4V2_216BsComposerClient25getMaxVirtualDisplayCountEv"
    },
    {
     "mangled_component_name":"_ZN7android8hardware8graphics8composer4V2_216BsComposerClient20createVirtualDisplayEjjNS1_6common4V1_011PixelFormatEjNSt3__18functionIFvNS2_4V2_15ErrorEmS7_EEE"
    },
    {
     "mangled_component_name":"_ZN7android8hardware8graphics8composer4V2_216BsComposerClient21destroyVirtualDisplayEm"
    },
    {
     "mangled_component_name":"_ZN7android8hardware8graphics8composer4V2_216BsComposerClient11createLayerEmjNSt3__18functionIFvNS2_4V2_15ErrorEmEEE"
    },
    {
     "mangled_component_name":"_ZN7android8hardware8graphics8composer4V2_216BsComposerClient12destroyLayerEmm"
    },
    {
     "mangled_component_name":"_ZN7android8hardware8graphics8composer4V2_216BsComposerClient15getActiveConfigEmNSt3__18functionIFvNS2_4V2_15ErrorEjEEE"
    },
    {
     "mangled_component_name":"_ZN7android8hardware8graphics8composer4V2_216BsComposerClient22getClientTargetSupportEmjjNS1_6common4V1_011PixelFormatENS6_9DataspaceE"
    },
    {
     "mangled_component_name":"_ZN7android8hardware8graphics8composer4V2_216BsComposerClient13getColorModesEmNSt3__18functionIFvNS2_4V2_15ErrorERKNS0_8hidl_vecINS1_6common4V1_09ColorModeEEEEEE"
    },
    {
     "mangled_component_name":"_ZN7android8hardware8graphics8composer4V2_216BsComposerClient19getDisplayAttributeEmjNS2_4V2_115IComposerClient9AttributeENSt3__18functionIFvNS5_5ErrorEiEEE"
    },
    {
     "mangled_component_name":"_ZN7android8hardware8graphics8composer4V2_216BsComposerClient17getDisplayConfigsEmNSt3__18functionIFvNS2_4V2_15ErrorERKNS0_8hidl_vecIjEEEEE"
    },
    {
     "mangled_component_name":"_ZN7android8hardware8graphics8composer4V2_216BsComposerClient14getDisplayNameEmNSt3__18functionIFvNS2_4V2_15ErrorERKNS0_11hidl_stringEEEE"
    },
    {
     "mangled_component_name":"_ZN7android8hardware8graphics8composer4V2_216BsComposerClient14getDisplayTypeEmNSt3__18functionIFvNS2_4V2_15ErrorENS7_15IComposerClient11DisplayTypeEEEE"
    },
    {
     "mangled_component_name":"_ZN7android8hardware8graphics8composer4V2_216BsComposerClient14getDozeSupportEmNSt3__18functionIFvNS2_4V2_15ErrorEbEEE"
    },
    {
     "mangled_component_name":"_ZN7android8hardware8graphics8composer4V2_216BsComposerClient18getHdrCapabilitiesEmNSt3__18functionIFvNS2_4V2_15ErrorERKNS0_8hidl_vecINS1_6common4V1_03HdrEEEfffEEE"
    },
    {
     "mangled_component_name":"_ZN7android8hardware8graphics8composer4V2_216BsComposerClient24setClientTargetSlotCountEmj"
    },
    {
     "mangled_component_name":"_ZN7android8hardware8graphics8composer4V2_216BsComposerClient15setActiveConfigEmj"
    },
    {
     "mangled_component_name":"_ZN7android8hardware8graphics8composer4V2_216BsComposerClient12setColorModeEmNS1_6common4V1_09ColorModeE"
    },
    {
     "mangled_component_name":"_ZN7android8hardware8graphics8composer4V2_216BsComposerClient12setPowerModeEmNS2_4V2_115IComposerClient9PowerModeE"
    },
    {
     "mangled_component_name":"_ZN7android8hardware8graphics8composer4V2_216BsComposerClient15setVsyncEnabledEmNS2_4V2_115IComposerClient5VsyncE"
    },
    {
     "mangled_component_name":"_ZN7android8hardware8graphics8composer4V2_216BsComposerClient20setInputCommandQueueERKNS0_12MQDescriptorIjLNS0_8MQFlavorE1EEE"
    },
    {
     "mangled_component_name":"_ZN7android8hardware8graphics8composer4V2_216BsComposerClient21getOutputCommandQueueENSt3__18functionIFvNS2_4V2_15ErrorERKNS0_12MQDescriptorIjLNS0_8MQFlavorE1EEEEEE"
    },
    {
     "mangled_component_name":"_ZN7android8hardware8graphics8composer4V2_216BsComposerClient15executeCommandsEjRKNS0_8hidl_vecINS0_11hidl_handleEEENSt3__18functionIFvNS2_4V2_15ErrorEbjS9_EEE"
    },
    {
     "mangled_component_name":"_ZN7android8hardware8graphics8composer4V2_216BsComposerClient23getPerFrameMetadataKeysEmNSt3__18functionIFvNS2_4V2_15ErrorERKNS0_8hidl_vecINS3_15IComposerClient19PerFrameMetadataKeyEEEEEE"
    },
    {
     "mangled_component_name":"_ZN7android8hardware8graphics8composer4V2_216BsComposerClient27getReadbackBufferAttributesEmNSt3__18functionIFvNS2_4V2_15ErrorENS1_6common4V1_111PixelFormatENSA_9DataspaceEEEE"
    },
    {
     "mangled_component_name":"_ZN7android8hardware8graphics8composer4V2_216BsComposerClient22getReadbackBufferFenceEmNSt3__18functionIFvNS2_4V2_15ErrorERKNS0_11hidl_handleEEEE"
    },
    {
     "mangled_component_name":"_ZN7android8hardware8graphics8composer4V2_216BsComposerClient17setReadbackBufferEmRKNS0_11hidl_handleES7_"
    },
    {
     "mangled_component_name":"_ZN7android8hardware8graphics8composer4V2_216BsComposerClient24createVirtualDisplay_2_2EjjNS1_6common4V1_111PixelFormatEjNSt3__18functionIFvNS2_4V2_15ErrorEmS7_EEE"
    },
    {
     "mangled_component_name":"_ZN7android8hardware8graphics8composer4V2_216BsComposerClient26getClientTargetSupport_2_2EmjjNS1_6common4V1_111PixelFormatENS6_9DataspaceE"
    },
    {
     "mangled_component_name":"_ZN7android8hardware8graphics8composer4V2_216BsComposerClient16setPowerMode_2_2EmNS3_15IComposerClient9PowerModeE"
    },
    {
     "mangled_component_name":"_ZN7android8hardware8graphics8composer4V2_216BsComposerClient17getColorModes_2_2EmNSt3__18functionIFvNS2_4V2_15ErrorERKNS0_8hidl_vecINS1_6common4V1_19ColorModeEEEEEE"
    },
    {
     "mangled_component_name":"_ZN7android8hardware8graphics8composer4V2_216BsComposerClient16getRenderIntentsEmNS1_6common4V1_19ColorModeENSt3__18functionIFvNS2_4V2_15ErrorERKNS0_8hidl_vecINS6_12RenderIntentEEEEEE"
    },
    {
     "mangled_component_name":"_ZN7android8hardware8graphics8composer4V2_216BsComposerClient16setColorMode_2_2EmNS1_6common4V1_19ColorModeENS6_12RenderIntentE"
    },
    {
     "mangled_component_name":"_ZN7android8hardware8graphics8composer4V2_216BsComposerClient28getDataspaceSaturationMatrixENS1_6common4V1_19DataspaceENSt3__18functionIFvNS2_4V2_15ErrorERKNS0_10hidl_arrayIfLm4EJLm4EEEEEEE"
    },
    {
     "mangled_component_name":"_ZN7android8hardware8graphics8composer4V2_216BsComposerClient19executeCommands_2_2EjRKNS0_8hidl_vecINS0_11hidl_handleEEENSt3__18functionIFvNS2_4V2_15ErrorEbjS9_EEE"
    },
    {
     "kind":"offset_to_top",
     "component_value":-8
    },
    {
     "kind":"rtti",
     "mangled_component_name":"_ZTIN7android8hardware8graphics8composer4V2_216BsComposerClientE"
    },
    {
     "kind":"complete_dtor_pointer",
     "mangled_component_name":"_ZThn8_N7android8hardware8graphics8composer4V2_216BsComposerClientD1Ev"
    },
    {
     "kind":"deleting_dtor_pointer",
     "mangled_component_name":"_ZThn8_N7android8hardware8graphics8composer4V2_216BsComposerClientD0Ev"
    },
    {
     "kind":"vcall_offset"
    },
    {
     "kind":"vcall_offset"
    },
    {
     "kind":"vcall_offset"
    },
    {
     "kind":"vcall_offset"
    },
    {
     "kind":"vcall_offset",
     "component_value":-120
    },
    {
     "kind":"offset_to_top",
     "component_value":-120
    },
    {
     "kind":"rtti",
     "mangled_component_name":"_ZTIN7android8hardware8graphics8composer4V2_216BsComposerClientE"
    },
    {
     "kind":"complete_dtor_pointer",
     "mangled_component_name":"_ZTv0_n24_N7android8hardware8graphics8composer4V2_216BsComposerClientD1Ev"
    },
    {
     "kind":"deleting_dtor_pointer",
     "mangled_component_name":"_ZTv0_n24_N7android8hardware8graphics8composer4V2_216BsComposerClientD0Ev"
    },
    {
     "mangled_component_name":"_ZN7android7RefBase10onFirstRefEv"
    },
    {
     "mangled_component_name":"_ZN7android7RefBase15onLastStrongRefEPKv"
    },
    {
     "mangled_component_name":"_ZN7android7RefBase20onIncStrongAttemptedEjPKv"
    },
    {
     "mangled_component_name":"_ZN7android7RefBase13onLastWeakRefEPKv"
    }
   ],
   "unique_id":"_ZTSN7android8hardware8graphics8composer4V2_216BsComposerClientE"
  }
 ],
 "elf_functions":[
  {
   "binding":"weak",
   "name":"_ZN7android8hardware7details13castInterfaceINS0_8graphics8composer4V2_215IComposerClientENS4_4V2_115IComposerClientENS5_18BpHwComposerClientEEENS0_6ReturnINS_2spIT_EEEENSB_IT0_EEPKcb"
  },
  {
   "binding":"weak",
   "name":"_ZN7android8hardware7details13castInterfaceINS0_8graphics8composer4V2_215IComposerClientENS_4hidl4base4V1_05IBaseENS5_18BpHwComposerClientEEENS0_6ReturnINS_2spIT_EEEENSD_IT0_EEPKcb"
  },
  {
   "binding":"weak",
   "name":"_ZN7android8hardware7details13castInterfaceINS0_8graphics8composer4V2_29IComposerENS4_4V2_19IComposerENS5_12BpHwComposerEEENS0_6ReturnINS_2spIT_EEEENSB_IT0_EEPKcb"
  },
  {
   "binding":"weak",
   "name":"_ZN7android8hardware7details13castInterfaceINS0_8graphics8composer4V2_29IComposerENS_4hidl4base4V1_05IBaseENS5_12BpHwComposerEEENS0_6ReturnINS_2spIT_EEEENSD_IT0_EEPKcb"
  },
  {
   "binding":"weak",
   "name":"_ZN7android8hardware7details15wrapPassthroughINS0_8graphics8composer4V2_115IComposerClientEvEENS_2spIT_EES9_"
  },
  {
   "binding":"weak",
   "name":"_ZN7android8hardware7details15wrapPassthroughINS0_8graphics8composer4V2_117IComposerCallbackEvEENS_2spIT_EES9_"
  },
  {
   "binding":"weak",
   "name":"_ZN7android8hardware7details18getServiceInternalINS0_8graphics8composer4V2_212BpHwComposerENS5_9IComposerEvvEENS_2spIT0_EERKNSt3__112basic_stringIcNSB_11char_traitsIcEENSB_9allocatorIcEEEEbb"
  },
  {
   "binding":"weak",
   "name":"_ZN7android8hardware7details18getServiceInternalINS0_8graphics8composer4V2_218BpHwComposerClientENS5_15IComposerClientEvvEENS_2spIT0_EERKNSt3__112basic_stringIcNSB_11char_traitsIcEENSB_9allocatorIcEEEEbb"
  },
  {
   "name":"_ZN7android8hardware8graphics8composer4V2_210BsComposer13addOnewayTaskENSt3__18functionIFvvEEE"
  },
  {
   "name":"_ZN7android8hardware8graphics8composer4V2_210BsComposerC1ENS_2spINS3_9IComposerEEE"
  },
  {
   "name":"_ZN7android8hardware8graphics8composer4V2_210BsComposerC2ENS_2spINS3_9IComposerEEE"
  },
  {
   "name":"_ZN7android8hardware8graphics8composer4V2_212BnHwComposer10onTransactEjRKNS0_6ParcelEPS5_jNSt3__18functionIFvRS5_EEE"
  },
  {
   "name":"_ZN7android8hardware8graphics8composer4V2_212BnHwComposer12getDebugInfoENSt3__18functionIFvRKNS_4hidl4base4V1_09DebugInfoEEEE"
  },
  {
   "name":"_ZN7android8hardware8graphics8composer4V2_212BnHwComposer4pingEv"
  },
  {
   "name":"_ZN7android8hardware8graphics8composer4V2_212BnHwComposerC1ERKNS_2spINS3_9IComposerEEE"
  },
  {
   "name":"_ZN7android8hardware8graphics8composer4V2_212BnHwComposerC2ERKNS_2spINS3_9IComposerEEE"
  },
  {
   "name":"_ZN7android8hardware8graphics8composer4V2_212BnHwComposerD0Ev"
  },
  {
   "name":"_ZN7android8hardware8graphics8composer4V2_212BnHwComposerD1Ev"
  },
  {
   "name":"_ZN7android8hardware8graphics8composer4V2_212BnHwComposerD2Ev"
  },
  {
   "name":"_ZN7android8hardware8graphics8composer4V2_212BpHwComposer11linkToDeathERKNS_2spINS0_20hidl_death_recipientEEEm"
  },
  {
   "name":"_ZN7android8hardware8graphics8composer4V2_212BpHwComposer12createClientENSt3__18functionIFvNS2_4V2_15ErrorERKNS_2spINS7_15IComposerClientEEEEEE"
  },
  {
   "name":"_ZN7android8hardware8graphics8composer4V2_212BpHwComposer12getDebugInfoENSt3__18functionIFvRKNS_4hidl4base4V1_09DebugInfoEEEE"
  },
  {
   "name":"_ZN7android8hardware8graphics8composer4V2_212BpHwComposer12getHashChainENSt3__18functionIFvRKNS0_8hidl_vecINS0_10hidl_arrayIhLm32EJEEEEEEEE"
  },
  {
   "name":"_ZN7android8hardware8graphics8composer4V2_212BpHwComposer13dumpDebugInfoENSt3__18functionIFvRKNS0_11hidl_stringEEEE"
  },
  {
   "name":"_ZN7android8hardware8graphics8composer4V2_212BpHwComposer13unlinkToDeathERKNS_2spINS0_20hidl_death_recipientEEE"
  },
  {
   "name":"_ZN7android8hardware8graphics8composer4V2_212BpHwComposer14interfaceChainENSt3__18functionIFvRKNS0_8hidl_vecINS0_11hidl_stringEEEEEE"
  },
  {
   "name":"_ZN7android8hardware8graphics8composer4V2_212BpHwComposer15getCapabilitiesENSt3__18functionIFvRKNS0_8hidl_vecINS2_4V2_19IComposer10CapabilityEEEEEE"
  },
  {
   "name":"_ZN7android8hardware8graphics8composer4V2_212BpHwComposer19interfaceDescriptorENSt3__18functionIFvRKNS0_11hidl_stringEEEE"
  },
  {
   "name":"_ZN7android8hardware8graphics8composer4V2_212BpHwComposer21notifySyspropsChangedEv"
  },
  {
   "name":"_ZN7android8hardware8graphics8composer4V2_212BpHwComposer21setHALInstrumentationEv"
  },
  {
   "name":"_ZN7android8hardware8graphics8composer4V2_212BpHwComposer4pingEv"
  },
  {
   "name":"_ZN7android8hardware8graphics8composer4V2_212BpHwComposer5debugERKNS0_11hidl_handleERKNS0_8hidl_vecINS0_11hidl_stringEEE"
  },
  {
   "name":"_ZN7android8hardware8graphics8composer4V2_212BpHwComposerC1ERKNS_2spINS0_7IBinderEEE"
  },
  {
   "name":"_ZN7android8hardware8graphics8composer4V2_212BpHwComposerC2ERKNS_2spINS0_7IBinderEEE"
  },
  {
   "name":"_ZN7android8hardware8graphics8composer4V2_215IComposerClient10getServiceERKNSt3__112basic_stringIcNS5_11char_traitsIcEENS5_9allocatorIcEEEEb"
  },
  {
   "name":"_ZN7android8hardware8graphics8composer4V2_215IComposerClient11linkToDeathERKNS_2spINS0_20hidl_death_recipientEEEm"
  },
  {
   "name":"_ZN7android8hardware8graphics8composer4V2_215IComposerClient12getDebugInfoENSt3__18functionIFvRKNS_4hidl4base4V1_09DebugInfoEEEE"
  },
  {
   "name":"_ZN7android8hardware8graphics8composer4V2_215IComposerClient12getHashChainENSt3__18functionIFvRKNS0_8hidl_vecINS0_10hidl_arrayIhLm32EJEEEEEEEE"
  },
  {
   "name":"_ZN7android8hardware8graphics8composer4V2_215IComposerClient13tryGetServiceERKNSt3__112basic_stringIcNS5_11char_traitsIcEENS5_9allocatorIcEEEEb"
  },
  {
   "name":"_ZN7android8hardware8graphics8composer4V2_215IComposerClient13unlinkToDeathERKNS_2spINS0_20hidl_death_recipientEEE"
  },
  {
   "name":"_ZN7android8hardware8graphics8composer4V2_215IComposerClient14interfaceChainENSt3__18functionIFvRKNS0_8hidl_vecINS0_11hidl_stringEEEEEE"
  },
  {
   "name":"_ZN7android8hardware8graphics8composer4V2_215IComposerClient17registerAsServiceERKNSt3__112basic_stringIcNS5_11char_traitsIcEENS5_9allocatorIcEEEE"
  },
  {
   "name":"_ZN7android8hardware8graphics8composer4V2_215IComposerClient19interfaceDescriptorENSt3__18functionIFvRKNS0_11hidl_stringEEEE"
  },
  {
   "name":"_ZN7android8hardware8graphics8composer4V2_215IComposerClient21notifySyspropsChangedEv"
  },
  {
   "name":"_ZN7android8hardware8graphics8composer4V2_215IComposerClient21setHALInstrumentationEv"
  },
  {
   "name":"_ZN7android8hardware8graphics8composer4V2_215IComposerClient24registerForNotificationsERKNSt3__112basic_stringIcNS5_11char_traitsIcEENS5_9allocatorIcEEEERKNS_2spINS_4hidl7manager4V1_020IServiceNotificationEEE"
  },
  {
   "name":"_ZN7android8hardware8graphics8composer4V2_215IComposerClient4pingEv"
  },
  {
   "name":"_ZN7android8hardware8graphics8composer4V2_215IComposerClient5debugERKNS0_11hidl_handleERKNS0_8hidl_vecINS0_11hidl_stringEEE"
  },
  {
   "name":"_ZN7android8hardware8graphics8composer4V2_215IComposerClient8castFromERKNS_2spINS2_4V2_115IComposerClientEEEb"
  },
  {
   "name":"_ZN7android8hardware8graphics8composer4V2_215IComposerClient8castFromERKNS_2spINS_4hidl4base4V1_05IBaseEEEb"
  },
  {
   "name":"_ZN7android8hardware8graphics8composer4V2_215IComposerClient8castFromERKNS_2spIS4_EEb"
  },
  {
   "name":"_ZN7android8hardware8graphics8composer4V2_216BsComposerClient13addOnewayTaskENSt3__18functionIFvvEEE"
  },
  {
   "name":"_ZN7android8hardware8graphics8composer4V2_216BsComposerClientC1ENS_2spINS3_15IComposerClientEEE"
  },
  {
   "name":"_ZN7android8hardware8graphics8composer4V2_216BsComposerClientC2ENS_2spINS3_15IComposerClientEEE"
  },
  {
   "name":"_ZN7android8hardware8graphics8composer4V2_218BnHwComposerClient10onTransactEjRKNS0_6ParcelEPS5_jNSt3__18functionIFvRS5_EEE"
  },
  {
   "name":"_ZN7android8hardware8graphics8composer4V2_218BnHwComposerClient12getDebugInfoENSt3__18functionIFvRKNS_4hidl4base4V1_09DebugInfoEEEE"
  },
  {
   "name":"_ZN7android8hardware8graphics8composer4V2_218BnHwComposerClient22_hidl_getRenderIntentsEPNS_4hidl4base4V1_08BnHwBaseERKNS0_6ParcelEPSA_NSt3__18functionIFvRSA_EEE"
  },
  {
   "name":"_ZN7android8hardware8graphics8composer4V2_218BnHwComposerClient22_hidl_setColorMode_2_2EPNS_4hidl4base4V1_08BnHwBaseERKNS0_6ParcelEPSA_NSt3__18functionIFvRSA_EEE"
  },
  {
   "name":"_ZN7android8hardware8graphics8composer4V2_218BnHwComposerClient22_hidl_setPowerMode_2_2EPNS_4hidl4base4V1_08BnHwBaseERKNS0_6ParcelEPSA_NSt3__18functionIFvRSA_EEE"
  },
  {
   "name":"_ZN7android8hardware8graphics8composer4V2_218BnHwComposerClient23_hidl_getColorModes_2_2EPNS_4hidl4base4V1_08BnHwBaseERKNS0_6ParcelEPSA_NSt3__18functionIFvRSA_EEE"
  },
  {
   "name":"_ZN7android8hardware8graphics8composer4V2_218BnHwComposerClient23_hidl_setReadbackBufferEPNS_4hidl4base4V1_08BnHwBaseERKNS0_6ParcelEPSA_NSt3__18functionIFvRSA_EEE"
  },
  {
   "name":"_ZN7android8hardware8graphics8composer4V2_218BnHwComposerClient25_hidl_executeCommands_2_2EPNS_4hidl4base4V1_08BnHwBaseERKNS0_6ParcelEPSA_NSt3__18functionIFvRSA_EEE"
  },
  {
   "name":"_ZN7android8hardware8graphics8composer4V2_218BnHwComposerClient28_hidl_getReadbackBufferFenceEPNS_4hidl4base4V1_08BnHwBaseERKNS0_6ParcelEPSA_NSt3__18functionIFvRSA_EEE"
  },
  {
   "name":"_ZN7android8hardware8graphics8composer4V2_218BnHwComposerClient29_hidl_getPerFrameMetadataKeysEPNS_4hidl4base4V1_08BnHwBaseERKNS0_6ParcelEPSA_NSt3__18functionIFvRSA_EEE"
  },
  {
   "name":"_ZN7android8hardware8graphics8composer4V2_218BnHwComposerClient30_hidl_createVirtualDisplay_2_2EPNS_4hidl4base4V1_08BnHwBaseERKNS0_6ParcelEPSA_NSt3__18functionIFvRSA_EEE"
  },
  {
   "name":"_ZN7android8hardware8graphics8composer4V2_218BnHwComposerClient32_hidl_getClientTargetSupport_2_2EPNS_4hidl4base4V1_08BnHwBaseERKNS0_6ParcelEPSA_NSt3__18functionIFvRSA_EEE"
  },
  {
   "name":"_ZN7android8hardware8graphics8composer4V2_218BnHwComposerClient33_hidl_getReadbackBufferAttributesEPNS_4hidl4base4V1_08BnHwBaseERKNS0_6ParcelEPSA_NSt3__18functionIFvRSA_EEE"
  },
  {
   "name":"_ZN7android8hardware8graphics8composer4V2_218BnHwComposerClient34_hidl_getDataspaceSaturationMatrixEPNS_4hidl4base4V1_08BnHwBaseERKNS0_6ParcelEPSA_NSt3__18functionIFvRSA_EEE"
  },
  {
   "name":"_ZN7android8hardware8graphics8composer4V2_218BnHwComposerClient4pingEv"
  },
  {
   "name":"_ZN7android8hardware8graphics8composer4V2_218BnHwComposerClientC1ERKNS_2spINS3_15IComposerClientEEE"
  },
  {
   "name":"_ZN7android8hardware8graphics8composer4V2_218BnHwComposerClientC2ERKNS_2spINS3_15IComposerClientEEE"
  },
  {
   "name":"_ZN7android8hardware8graphics8composer4V2_218BnHwComposerClientD0Ev"
  },
  {
   "name":"_ZN7android8hardware8graphics8composer4V2_218BnHwComposerClientD1Ev"
  },
  {
   "name":"_ZN7android8hardware8graphics8composer4V2_218BnHwComposerClientD2Ev"
  },
  {
   "name":"_ZN7android8hardware8graphics8composer4V2_218BpHwComposerClient11createLayerEmjNSt3__18functionIFvNS2_4V2_15ErrorEmEEE"
  },
  {
   "name":"_ZN7android8hardware8graphics8composer4V2_218BpHwComposerClient11linkToDeathERKNS_2spINS0_20hidl_death_recipientEEEm"
  },
  {
   "name":"_ZN7android8hardware8graphics8composer4V2_218BpHwComposerClient12destroyLayerEmm"
  },
  {
   "name":"_ZN7android8hardware8graphics8composer4V2_218BpHwComposerClient12getDebugInfoENSt3__18functionIFvRKNS_4hidl4base4V1_09DebugInfoEEEE"
  },
  {
   "name":"_ZN7android8hardware8graphics8composer4V2_218BpHwComposerClient12getHashChainENSt3__18functionIFvRKNS0_8hidl_vecINS0_10hidl_arrayIhLm32EJEEEEEEEE"
  },
  {
   "name":"_ZN7android8hardware8graphics8composer4V2_218BpHwComposerClient12setColorModeEmNS1_6common4V1_09ColorModeE"
  },
  {
   "name":"_ZN7android8hardware8graphics8composer4V2_218BpHwComposerClient12setPowerModeEmNS2_4V2_115IComposerClient9PowerModeE"
  },
  {
   "name":"_ZN7android8hardware8graphics8composer4V2_218BpHwComposerClient13getColorModesEmNSt3__18functionIFvNS2_4V2_15ErrorERKNS0_8hidl_vecINS1_6common4V1_09ColorModeEEEEEE"
  },
  {
   "name":"_ZN7android8hardware8graphics8composer4V2_218BpHwComposerClient13unlinkToDeathERKNS_2spINS0_20hidl_death_recipientEEE"
  },
  {
   "name":"_ZN7android8hardware8graphics8composer4V2_218BpHwComposerClient14getDisplayNameEmNSt3__18functionIFvNS2_4V2_15ErrorERKNS0_11hidl_stringEEEE"
  },
  {
   "name":"_ZN7android8hardware8graphics8composer4V2_218BpHwComposerClient14getDisplayTypeEmNSt3__18functionIFvNS2_4V2_15ErrorENS7_15IComposerClient11DisplayTypeEEEE"
  },
  {
   "name":"_ZN7android8hardware8graphics8composer4V2_218BpHwComposerClient14getDozeSupportEmNSt3__18functionIFvNS2_4V2_15ErrorEbEEE"
  },
  {
   "name":"_ZN7android8hardware8graphics8composer4V2_218BpHwComposerClient14interfaceChainENSt3__18functionIFvRKNS0_8hidl_vecINS0_11hidl_stringEEEEEE"
  },
  {
   "name":"_ZN7android8hardware8graphics8composer4V2_218BpHwComposerClient15executeCommandsEjRKNS0_8hidl_vecINS0_11hidl_handleEEENSt3__18functionIFvNS2_4V2_15ErrorEbjS9_EEE"
  },
  {
   "name":"_ZN7android8hardware8graphics8composer4V2_218BpHwComposerClient15getActiveConfigEmNSt3__18functionIFvNS2_4V2_15ErrorEjEEE"
  },
  {
   "name":"_ZN7android8hardware8graphics8composer4V2_218BpHwComposerClient15setActiveConfigEmj"
  },
  {
   "name":"_ZN7android8hardware8graphics8composer4V2_218BpHwComposerClient15setVsyncEnabledEmNS2_4V2_115IComposerClient5VsyncE"
  },
  {
   "name":"_ZN7android8hardware8graphics8composer4V2_218BpHwComposerClient16getRenderIntentsEmNS1_6common4V1_19ColorModeENSt3__18functionIFvNS2_4V2_15ErrorERKNS0_8hidl_vecINS6_12RenderIntentEEEEEE"
  },
  {
   "name":"_ZN7android8hardware8graphics8composer4V2_218BpHwComposerClient16registerCallbackERKNS_2spINS2_4V2_117IComposerCallbackEEE"
  },
  {
   "name":"_ZN7android8hardware8graphics8composer4V2_218BpHwComposerClient16setColorMode_2_2EmNS1_6common4V1_19ColorModeENS6_12RenderIntentE"
  },
  {
   "name":"_ZN7android8hardware8graphics8composer4V2_218BpHwComposerClient16setPowerMode_2_2EmNS3_15IComposerClient9PowerModeE"
  },
  {
   "name":"_ZN7android8hardware8graphics8composer4V2_218BpHwComposerClient17getColorModes_2_2EmNSt3__18functionIFvNS2_4V2_15ErrorERKNS0_8hidl_vecINS1_6common4V1_19ColorModeEEEEEE"
  },
  {
   "name":"_ZN7android8hardware8graphics8composer4V2_218BpHwComposerClient17getDisplayConfigsEmNSt3__18functionIFvNS2_4V2_15ErrorERKNS0_8hidl_vecIjEEEEE"
  },
  {
   "name":"_ZN7android8hardware8graphics8composer4V2_218BpHwComposerClient17setReadbackBufferEmRKNS0_11hidl_handleES7_"
  },
  {
   "name":"_ZN7android8hardware8graphics8composer4V2_218BpHwComposerClient18getHdrCapabilitiesEmNSt3__18functionIFvNS2_4V2_15ErrorERKNS0_8hidl_vecINS1_6common4V1_03HdrEEEfffEEE"
  },
  {
   "name":"_ZN7android8hardware8graphics8composer4V2_218BpHwComposerClient19executeCommands_2_2EjRKNS0_8hidl_vecINS0_11hidl_handleEEENSt3__18functionIFvNS2_4V2_15ErrorEbjS9_EEE"
  },
  {
   "name":"_ZN7android8hardware8graphics8composer4V2_218BpHwComposerClient19getDisplayAttributeEmjNS2_4V2_115IComposerClient9AttributeENSt3__18functionIFvNS5_5ErrorEiEEE"
  },
  {
   "name":"_ZN7android8hardware8graphics8composer4V2_218BpHwComposerClient19interfaceDescriptorENSt3__18functionIFvRKNS0_11hidl_stringEEEE"
  },
  {
   "name":"_ZN7android8hardware8graphics8composer4V2_218BpHwComposerClient20createVirtualDisplayEjjNS1_6common4V1_011PixelFormatEjNSt3__18functionIFvNS2_4V2_15ErrorEmS7_EEE"
  },
  {
   "name":"_ZN7android8hardware8graphics8composer4V2_218BpHwComposerClient20setInputCommandQueueERKNS0_12MQDescriptorIjLNS0_8MQFlavorE1EEE"
  },
  {
   "name":"_ZN7android8hardware8graphics8composer4V2_218BpHwComposerClient21destroyVirtualDisplayEm"
  },
  {
   "name":"_ZN7android8hardware8graphics8composer4V2_218BpHwComposerClient21getOutputCommandQueueENSt3__18functionIFvNS2_4V2_15ErrorERKNS0_12MQDescriptorIjLNS0_8MQFlavorE1EEEEEE"
  },
  {
   "name":"_ZN7android8hardware8graphics8composer4V2_218BpHwComposerClient21notifySyspropsChangedEv"
  },
  {
   "name":"_ZN7android8hardware8graphics8composer4V2_218BpHwComposerClient21setHALInstrumentationEv"
  },
  {
   "name":"_ZN7android8hardware8graphics8composer4V2_218BpHwComposerClient22_hidl_getRenderIntentsEPNS0_10IInterfaceEPNS0_7details16HidlInstrumentorEmNS1_6common4V1_19ColorModeENSt3__18functionIFvNS2_4V2_15ErrorERKNS0_8hidl_vecINSB_12RenderIntentEEEEEE"
  },
  {
   "name":"_ZN7android8hardware8graphics8composer4V2_218BpHwComposerClient22_hidl_setColorMode_2_2EPNS0_10IInterfaceEPNS0_7details16HidlInstrumentorEmNS1_6common4V1_19ColorModeENSB_12RenderIntentE"
  },
  {
   "name":"_ZN7android8hardware8graphics8composer4V2_218BpHwComposerClient22_hidl_setPowerMode_2_2EPNS0_10IInterfaceEPNS0_7details16HidlInstrumentorEmNS3_15IComposerClient9PowerModeE"
  },
  {
   "name":"_ZN7android8hardware8graphics8composer4V2_218BpHwComposerClient22getClientTargetSupportEmjjNS1_6common4V1_011PixelFormatENS6_9DataspaceE"
  },
  {
   "name":"_ZN7android8hardware8graphics8composer4V2_218BpHwComposerClient22getReadbackBufferFenceEmNSt3__18functionIFvNS2_4V2_15ErrorERKNS0_11hidl_handleEEEE"
  },
  {
   "name":"_ZN7android8hardware8graphics8composer4V2_218BpHwComposerClient23_hidl_getColorModes_2_2EPNS0_10IInterfaceEPNS0_7details16HidlInstrumentorEmNSt3__18functionIFvNS2_4V2_15ErrorERKNS0_8hidl_vecINS1_6common4V1_19ColorModeEEEEEE"
  },
  {
   "name":"_ZN7android8hardware8graphics8composer4V2_218BpHwComposerClient23_hidl_setReadbackBufferEPNS0_10IInterfaceEPNS0_7details16HidlInstrumentorEmRKNS0_11hidl_handleESC_"
  },
  {
   "name":"_ZN7android8hardware8graphics8composer4V2_218BpHwComposerClient23getPerFrameMetadataKeysEmNSt3__18functionIFvNS2_4V2_15ErrorERKNS0_8hidl_vecINS3_15IComposerClient19PerFrameMetadataKeyEEEEEE"
  },
  {
   "name":"_ZN7android8hardware8graphics8composer4V2_218BpHwComposerClient24createVirtualDisplay_2_2EjjNS1_6common4V1_111PixelFormatEjNSt3__18functionIFvNS2_4V2_15ErrorEmS7_EEE"
  },
  {
   "name":"_ZN7android8hardware8graphics8composer4V2_218BpHwComposerClient24setClientTargetSlotCountEmj"
  },
  {
   "name":"_ZN7android8hardware8graphics8composer4V2_218BpHwComposerClient25_hidl_executeCommands_2_2EPNS0_10IInterfaceEPNS0_7details16HidlInstrumentorEjRKNS0_8hidl_vecINS0_11hidl_handleEEENSt3__18functionIFvNS2_4V2_15ErrorEbjSE_EEE"
  },
  {
   "name":"_ZN7android8hardware8graphics8composer4V2_218BpHwComposerClient25getMaxVirtualDisplayCountEv"
  },
  {
   "name":"_ZN7android8hardware8graphics8composer4V2_218BpHwComposerClient26getClientTargetSupport_2_2EmjjNS1_6common4V1_111PixelFormatENS6_9DataspaceE"
  },
  {
   "name":"_ZN7android8hardware8graphics8composer4V2_218BpHwComposerClient27getReadbackBufferAttributesEmNSt3__18functionIFvNS2_4V2_15ErrorENS1_6common4V1_111PixelFormatENSA_9DataspaceEEEE"
  },
  {
   "name":"_ZN7android8hardware8graphics8composer4V2_218BpHwComposerClient28_hidl_getReadbackBufferFenceEPNS0_10IInterfaceEPNS0_7details16HidlInstrumentorEmNSt3__18functionIFvNS2_4V2_15ErrorERKNS0_11hidl_handleEEEE"
  },
  {
   "name":"_ZN7android8hardware8graphics8composer4V2_218BpHwComposerClient28getDataspaceSaturationMatrixENS1_6common4V1_19DataspaceENSt3__18functionIFvNS2_4V2_15ErrorERKNS0_10hidl_arrayIfLm4EJLm4EEEEEEE"
  },
  {
   "name":"_ZN7android8hardware8graphics8composer4V2_218BpHwComposerClient29_hidl_getPerFrameMetadataKeysEPNS0_10IInterfaceEPNS0_7details16HidlInstrumentorEmNSt3__18functionIFvNS2_4V2_15ErrorERKNS0_8hidl_vecINS3_15IComposerClient19PerFrameMetadataKeyEEEEEE"
  },
  {
   "name":"_ZN7android8hardware8graphics8composer4V2_218BpHwComposerClient30_hidl_createVirtualDisplay_2_2EPNS0_10IInterfaceEPNS0_7details16HidlInstrumentorEjjNS1_6common4V1_111PixelFormatEjNSt3__18functionIFvNS2_4V2_15ErrorEmSC_EEE"
  },
  {
   "name":"_ZN7android8hardware8graphics8composer4V2_218BpHwComposerClient32_hidl_getClientTargetSupport_2_2EPNS0_10IInterfaceEPNS0_7details16HidlInstrumentorEmjjNS1_6common4V1_111PixelFormatENSB_9DataspaceE"
  },
  {
   "name":"_ZN7android8hardware8graphics8composer4V2_218BpHwComposerClient33_hidl_getReadbackBufferAttributesEPNS0_10IInterfaceEPNS0_7details16HidlInstrumentorEmNSt3__18functionIFvNS2_4V2_15ErrorENS1_6common4V1_111PixelFormatENSF_9DataspaceEEEE"
  },
  {
   "name":"_ZN7android8hardware8graphics8composer4V2_218BpHwComposerClient34_hidl_getDataspaceSaturationMatrixEPNS0_10IInterfaceEPNS0_7details16HidlInstrumentorENS1_6common4V1_19DataspaceENSt3__18functionIFvNS2_4V2_15ErrorERKNS0_10hidl_arrayIfLm4EJLm4EEEEEEE"
  },
  {
   "name":"_ZN7android8hardware8graphics8composer4V2_218BpHwComposerClient4pingEv"
  },
  {
   "name":"_ZN7android8hardware8graphics8composer4V2_218BpHwComposerClient5debugERKNS0_11hidl_handleERKNS0_8hidl_vecINS0_11hidl_stringEEE"
  },
  {
   "name":"_ZN7android8hardware8graphics8composer4V2_218BpHwComposerClientC1ERKNS_2spINS0_7IBinderEEE"
  },
  {
   "name":"_ZN7android8hardware8graphics8composer4V2_218BpHwComposerClientC2ERKNS_2spINS0_7IBinderEEE"
  },
  {
   "name":"_ZN7android8hardware8graphics8composer4V2_29IComposer10getServiceERKNSt3__112basic_stringIcNS5_11char_traitsIcEENS5_9allocatorIcEEEEb"
  },
  {
   "name":"_ZN7android8hardware8graphics8composer4V2_29IComposer11linkToDeathERKNS_2spINS0_20hidl_death_recipientEEEm"
  },
  {
   "name":"_ZN7android8hardware8graphics8composer4V2_29IComposer12getDebugInfoENSt3__18functionIFvRKNS_4hidl4base4V1_09DebugInfoEEEE"
  },
  {
   "name":"_ZN7android8hardware8graphics8composer4V2_29IComposer12getHashChainENSt3__18functionIFvRKNS0_8hidl_vecINS0_10hidl_arrayIhLm32EJEEEEEEEE"
  },
  {
   "name":"_ZN7android8hardware8graphics8composer4V2_29IComposer13tryGetServiceERKNSt3__112basic_stringIcNS5_11char_traitsIcEENS5_9allocatorIcEEEEb"
  },
  {
   "name":"_ZN7android8hardware8graphics8composer4V2_29IComposer13unlinkToDeathERKNS_2spINS0_20hidl_death_recipientEEE"
  },
  {
   "name":"_ZN7android8hardware8graphics8composer4V2_29IComposer14interfaceChainENSt3__18functionIFvRKNS0_8hidl_vecINS0_11hidl_stringEEEEEE"
  },
  {
   "name":"_ZN7android8hardware8graphics8composer4V2_29IComposer17registerAsServiceERKNSt3__112basic_stringIcNS5_11char_traitsIcEENS5_9allocatorIcEEEE"
  },
  {
   "name":"_ZN7android8hardware8graphics8composer4V2_29IComposer19interfaceDescriptorENSt3__18functionIFvRKNS0_11hidl_stringEEEE"
  },
  {
   "name":"_ZN7android8hardware8graphics8composer4V2_29IComposer21notifySyspropsChangedEv"
  },
  {
   "name":"_ZN7android8hardware8graphics8composer4V2_29IComposer21setHALInstrumentationEv"
  },
  {
   "name":"_ZN7android8hardware8graphics8composer4V2_29IComposer24registerForNotificationsERKNSt3__112basic_stringIcNS5_11char_traitsIcEENS5_9allocatorIcEEEERKNS_2spINS_4hidl7manager4V1_020IServiceNotificationEEE"
  },
  {
   "name":"_ZN7android8hardware8graphics8composer4V2_29IComposer4pingEv"
  },
  {
   "name":"_ZN7android8hardware8graphics8composer4V2_29IComposer5debugERKNS0_11hidl_handleERKNS0_8hidl_vecINS0_11hidl_stringEEE"
  },
  {
   "name":"_ZN7android8hardware8graphics8composer4V2_29IComposer8castFromERKNS_2spINS2_4V2_19IComposerEEEb"
  },
  {
   "name":"_ZN7android8hardware8graphics8composer4V2_29IComposer8castFromERKNS_2spINS_4hidl4base4V1_05IBaseEEEb"
  },
  {
   "name":"_ZN7android8hardware8graphics8composer4V2_29IComposer8castFromERKNS_2spIS4_EEb"
  },
  {
   "binding":"weak",
   "name":"_ZN7android8hardware8toBinderINS0_8graphics8composer4V2_115IComposerClientEvEENS_2spINS0_7IBinderEEENS6_IT_EE"
  },
  {
   "binding":"weak",
   "name":"_ZN7android8hardware8toBinderINS0_8graphics8composer4V2_19IComposerEvEENS_2spINS0_7IBinderEEENS6_IT_EE"
  },
  {
   "binding":"weak",
   "name":"_ZN7android8hardware8toBinderINS_4hidl4base4V1_05IBaseEvEENS_2spINS0_7IBinderEEENS6_IT_EE"
  },
  {
   "name":"_ZThn32_N7android8hardware8graphics8composer4V2_212BnHwComposerD0Ev"
  },
  {
   "name":"_ZThn32_N7android8hardware8graphics8composer4V2_212BnHwComposerD1Ev"
  },
  {
   "name":"_ZThn32_N7android8hardware8graphics8composer4V2_218BnHwComposerClientD0Ev"
  },
  {
   "name":"_ZThn32_N7android8hardware8graphics8composer4V2_218BnHwComposerClientD1Ev"
  },
  {
   "name":"_ZTv0_n24_N7android8hardware8graphics8composer4V2_212BnHwComposerD0Ev"
  },
  {
   "name":"_ZTv0_n24_N7android8hardware8graphics8composer4V2_212BnHwComposerD1Ev"
  },
  {
   "name":"_ZTv0_n24_N7android8hardware8graphics8composer4V2_218BnHwComposerClientD0Ev"
  },
  {
   "name":"_ZTv0_n24_N7android8hardware8graphics8composer4V2_218BnHwComposerClientD1Ev"
  }
 ],
 "elf_objects":[
  {
   "name":"_ZN7android8hardware8graphics8composer4V2_215IComposerClient10descriptorE"
  },
  {
   "name":"_ZN7android8hardware8graphics8composer4V2_29IComposer10descriptorE"
  },
  {
   "name":"_ZTTN7android8hardware8graphics8composer4V2_212BnHwComposerE"
  },
  {
   "name":"_ZTTN7android8hardware8graphics8composer4V2_212BpHwComposerE"
  },
  {
   "name":"_ZTTN7android8hardware8graphics8composer4V2_215IComposerClientE"
  },
  {
   "name":"_ZTTN7android8hardware8graphics8composer4V2_218BnHwComposerClientE"
  },
  {
   "name":"_ZTTN7android8hardware8graphics8composer4V2_218BpHwComposerClientE"
  },
  {
   "name":"_ZTTN7android8hardware8graphics8composer4V2_29IComposerE"
  },
  {
   "binding":"weak",
   "name":"_ZTVN7android8hardware8graphics8composer4V2_210BsComposerE"
  },
  {
   "name":"_ZTVN7android8hardware8graphics8composer4V2_212BnHwComposerE"
  },
  {
   "name":"_ZTVN7android8hardware8graphics8composer4V2_212BpHwComposerE"
  },
  {
   "name":"_ZTVN7android8hardware8graphics8composer4V2_215IComposerClientE"
  },
  {
   "binding":"weak",
   "name":"_ZTVN7android8hardware8graphics8composer4V2_216BsComposerClientE"
  },
  {
   "name":"_ZTVN7android8hardware8graphics8composer4V2_218BnHwComposerClientE"
  },
  {
   "name":"_ZTVN7android8hardware8graphics8composer4V2_218BpHwComposerClientE"
  },
  {
   "name":"_ZTVN7android8hardware8graphics8composer4V2_29IComposerE"
  }
 ]
}