{
 "record_types":[
  {
   "vtable_components":[
    {
     "kind":"vbase_offset",
     "component_value":136
    },
    {
     "kind":"offset_to_top"
    },
    {
     "kind":"rtti",
     "mangled_component_name":"_ZTIN7android8hardware8graphics9allocator4V2_013BnHwAllocatorE"
    },
    {
     "mangled_component_name":"_ZN7android8hardware9BHwBinder8transactEjRKNS0_6ParcelEPS2_jNSt3__18functionIFvRS2_EEE"
    },
    {
     "mangled_component_name":"_ZN7android8hardware9BHwBinder11linkToDeathERKNS_2spINS0_7IBinder14DeathRecipientEEEPvj"
    },
    {
     "mangled_component_name":"_ZN7android8hardware9BHwBinder13unlinkToDeathERKNS_2wpINS0_7IBinder14DeathRecipientEEEPvjPS5_"
    },
    {
     "mangled_component_name":"_ZNK7android8hardware7IBinder13checkSubclassEPKv"
    },
    {
     "mangled_component_name":"_ZN7android8hardware9BHwBinder12attachObjectEPKvPvS4_PFvS3_S4_S4_E"
    },
    {
     "mangled_component_name":"_ZNK7android8hardware9BHwBinder10findObjectEPKv"
    },
    {
     "mangled_component_name":"_ZN7android8hardware9BHwBinder12detachObjectEPKv"
    },
    {
     "mangled_component_name":"_ZN7android8hardware9BHwBinder11localBinderEv"
    },
    {
     "mangled_component_name":"_ZN7android8hardware7IBinder12remoteBinderEv"
    },
    {
     "kind":"complete_dtor_pointer",
     "mangled_component_name":"_ZN7android8hardware8graphics9allocator4V2_013BnHwAllocatorD1Ev"
    },
    {
     "kind":"deleting_dtor_pointer",
     "mangled_component_name":"_ZN7android8hardware8graphics9allocator4V2_013BnHwAllocatorD0Ev"
    },
    {
     "mangled_component_name":"_ZN7android8hardware8graphics9allocator4V2_013BnHwAllocator10onTransactEjRKNS0_6ParcelEPS5_jNSt3__18functionIFvRS5_EEE"
    },
    {
     "kind":"offset_to_top",
     "component_value":-32
    },
    {
     "kind":"rtti",
     "mangled_component_name":"_ZTIN7android8hardware8graphics9allocator4V2_013BnHwAllocatorE"
    },
    {
     "kind":"complete_dtor_pointer",
     "mangled_component_name":"_ZThn32_N7android8hardware8graphics9allocator4V2_013BnHwAllocatorD1Ev"
    },
    {
     "kind":"deleting_dtor_pointer",
     "mangled_component_name":"_ZThn32_N7android8hardware8graphics9allocator4V2_013BnHwAllocatorD0Ev"
    },
    {
     "kind":"vcall_offset"
    },
    {
     "kind":"vcall_offset"
    },
    {
     "kind":"vcall_offset"
    },
    {
     "kind":"vcall_offset"
    },
    {
     "kind":"vcall_offset",
     "component_value":-136
    },
    {
     "kind":"offset_to_top",
     "component_value":-136
    },
    {
     "kind":"rtti",
     "mangled_component_name":"_ZTIN7android8hardware8graphics9allocator4V2_013BnHwAllocatorE"
    },
    {
     "kind":"complete_dtor_pointer",
     "mangled_component_name":"_ZTv0_n24_N7android8hardware8graphics9allocator4V2_013BnHwAllocatorD1Ev"
    },
    {
     "kind":"deleting_dtor_pointer",
     "mangled_component_name":"_ZTv0_n24_N7android8hardware8graphics9allocator4V2_013BnHwAllocatorD0Ev"
    },
    {
     "mangled_component_name":"_ZN7android7RefBase10onFirstRefEv"
    },
    {
     "mangled_component_name":"_ZN7android7RefBase15onLastStrongRefEPKv"
    },
    {
     "mangled_component_name":"_ZN7android7RefBase20onIncStrongAttemptedEjPKv"
    },
    {
     "mangled_component_name":"_ZN7android7RefBase13onLastWeakRefEPKv"
    }
   ],
   "unique_id":"_ZTSN7android8hardware8graphics9allocator4V2_013BnHwAllocatorE"
  },
  {
   "vtable_components":[
    {
     "kind":"vbase_offset",
     "component_value":200
    },
    {
     "kind":"offset_to_top"
    },
    {
     "kind":"rtti",
     "mangled_component_name":"_ZTIN7android8hardware8graphics9allocator4V2_013BpHwAllocatorE"
    },
    {
     "mangled_component_name":"_ZNK7android8hardware8graphics9allocator4V2_013BpHwAllocator8isRemoteEv"
    },
    {
     "mangled_component_name":"_ZN7android8hardware8graphics9allocator4V2_013BpHwAllocator14interfaceChainENSt3__18functionIFvRKNS0_8hidl_vecINS0_11hidl_stringEEEEEE"
    },
    {
     "mangled_component_name":"_ZN7android8hardware8graphics9allocator4V2_013BpHwAllocator5debugERKNS0_11hidl_handleERKNS0_8hidl_vecINS0_11hidl_stringEEE"
    },
    {
     "mangled_component_name":"_ZN7android8hardware8graphics9allocator4V2_013BpHwAllocator19interfaceDescriptorENSt3__18functionIFvRKNS0_11hidl_stringEEEE"
    },
    {
     "mangled_component_name":"_ZN7android8hardware8graphics9allocator4V2_013BpHwAllocator12getHashChainENSt3__18functionIFvRKNS0_8hidl_vecINS0_10hidl_arrayIhLm32EJEEEEEEEE"
    },
    {
     "mangled_component_name":"_ZN7android8hardware8graphics9allocator4V2_013BpHwAllocator21setHALInstrumentationEv"
    },
    {
     "mangled_component_name":"_ZN7android8hardware8graphics9allocator4V2_013BpHwAllocator11linkToDeathERKNS_2spINS0_20hidl_death_recipientEEEm"
    },
    {
     "mangled_component_name":"_ZN7android8hardware8graphics9allocator4V2_013BpHwAllocator4pingEv"
    },
    {
     "mangled_component_name":"_ZN7android8hardware8graphics9allocator4V2_013BpHwAllocator12getDebugInfoENSt3__18functionIFvRKNS_4hidl4base4V1_09DebugInfoEEEE"
    },
    {
     "mangled_component_name":"_ZN7android8hardware8graphics9allocator4V2_013BpHwAllocator21notifySyspropsChangedEv"
    },
    {
     "mangled_component_name":"_ZN7android8hardware8graphics9allocator4V2_013BpHwAllocator13unlinkToDeathERKNS_2spINS0_20hidl_death_recipientEEE"
    },
    {
     "kind":"complete_dtor_pointer",
     "mangled_component_name":"_ZN7android8hardware8graphics9allocator4V2_013BpHwAllocatorD1Ev"
    },
    {
     "kind":"deleting_dtor_pointer",
     "mangled_component_name":"_ZN7android8hardware8graphics9allocator4V2_013BpHwAllocatorD0Ev"
    },
    {
     "mangled_component_name":"_ZN7android8hardware8graphics9allocator4V2_013BpHwAllocator13dumpDebugInfoENSt3__18functionIFvRKNS0_11hidl_stringEEEE"
    },
    {
     "mangled_component_name":"_ZN7android8hardware8graphics9allocator4V2_013BpHwAllocator8allocateERKNS0_8hidl_vecIjEEjNSt3__18functionIFvNS1_6mapper4V2_05ErrorEjRKNS5_INS0_11hidl_handleEEEEEE"
    },
    {
     "mangled_component_name":"_ZN7android8hardware11BpInterfaceINS0_8graphics9allocator4V2_010IAllocatorEE10onAsBinderEv"
    },
    {
     "kind":"vbase_offset",
     "component_value":192
    },
    {
     "kind":"offset_to_top",
     "component_value":-8
    },
    {
     "kind":"rtti",
     "mangled_component_name":"_ZTIN7android8hardware8graphics9allocator4V2_013BpHwAllocatorE"
    },
    {
     "kind":"complete_dtor_pointer",
     "mangled_component_name":"_ZThn8_N7android8hardware8graphics9allocator4V2_013BpHwAllocatorD1Ev"
    },
    {
     "kind":"deleting_dtor_pointer",
     "mangled_component_name":"_ZThn8_N7android8hardware8graphics9allocator4V2_013BpHwAllocatorD0Ev"
    },
    {
     "mangled_component_name":"_ZThn8_N7android8hardware11BpInterfaceINS0_8graphics9allocator4V2_010IAllocatorEE10onAsBinderEv"
    },
    {
     "kind":"vbase_offset",
     "component_value":184
    },
    {
     "kind":"offset_to_top",
     "component_value":-16
    },
    {
     "kind":"rtti",
     "mangled_component_name":"_ZTIN7android8hardware8graphics9allocator4V2_013BpHwAllocatorE"
    },
    {
     "kind":"complete_dtor_pointer",
     "mangled_component_name":"_ZThn16_N7android8hardware8graphics9allocator4V2_013BpHwAllocatorD1Ev"
    },
    {
     "kind":"deleting_dtor_pointer",
     "mangled_component_name":"_ZThn16_N7android8hardware8graphics9allocator4V2_013BpHwAllocatorD0Ev"
    },
    {
     "mangled_component_name":"_ZN7android8hardware11BpHwRefBase10onFirstRefEv"
    },
    {
     "mangled_component_name":"_ZN7android8hardware11BpHwRefBase15onLastStrongRefEPKv"
    },
    {
     "mangled_component_name":"_ZN7android8hardware11BpHwRefBase20onIncStrongAttemptedEjPKv"
    },
    {
     "kind":"offset_to_top",
     "component_value":-48
    },
    {
     "kind":"rtti",
     "mangled_component_name":"_ZTIN7android8hardware8graphics9allocator4V2_013BpHwAllocatorE"
    },
    {
     "kind":"complete_dtor_pointer",
     "mangled_component_name":"_ZThn48_N7android8hardware8graphics9allocator4V2_013BpHwAllocatorD1Ev"
    },
    {
     "kind":"deleting_dtor_pointer",
     "mangled_component_name":"_ZThn48_N7android8hardware8graphics9allocator4V2_013BpHwAllocatorD0Ev"
    },
    {
     "kind":"vcall_offset"
    },
    {
     "kind":"vcall_offset",
     "component_value":-184
    },
    {
     "kind":"vcall_offset",
     "component_value":-184
    },
    {
     "kind":"vcall_offset",
     "component_value":-184
    },
    {
     "kind":"vcall_offset",
     "component_value":-200
    },
    {
     "kind":"offset_to_top",
     "component_value":-200
    },
    {
     "kind":"rtti",
     "mangled_component_name":"_ZTIN7android8hardware8graphics9allocator4V2_013BpHwAllocatorE"
    },
    {
     "kind":"complete_dtor_pointer",
     "mangled_component_name":"_ZTv0_n24_N7android8hardware8graphics9allocator4V2_013BpHwAllocatorD1Ev"
    },
    {
     "kind":"deleting_dtor_pointer",
     "mangled_component_name":"_ZTv0_n24_N7android8hardware8graphics9allocator4V2_013BpHwAllocatorD0Ev"
    },
    {
     "mangled_component_name":"_ZTv0_n32_N7android8hardware11BpHwRefBase10onFirstRefEv"
    },
    {
     "mangled_component_name":"_ZTv0_n40_N7android8hardware11BpHwRefBase15onLastStrongRefEPKv"
    },
    {
     "mangled_component_name":"_ZTv0_n48_N7android8hardware11BpHwRefBase20onIncStrongAttemptedEjPKv"
    },
    {
     "mangled_component_name":"_ZN7android7RefBase13onLastWeakRefEPKv"
    }
   ],
   "unique_id":"_ZTSN7android8hardware8graphics9allocator4V2_013BpHwAllocatorE"
  },
  {
   "vtable_components":[
    {
     "kind":"vbase_offset",
     "component_value":120
    },
    {
     "kind":"offset_to_top"
    },
    {
     "kind":"rtti",
     "mangled_component_name":"_ZTIN7android8hardware8graphics9allocator4V2_011BsAllocatorE"
    },
    {
     "mangled_component_name":"_ZNK7android8hardware8graphics9allocator4V2_010IAllocator8isRemoteEv"
    },
    {
     "mangled_component_name":"_ZN7android8hardware8graphics9allocator4V2_011BsAllocator14interfaceChainENSt3__18functionIFvRKNS0_8hidl_vecINS0_11hidl_stringEEEEEE"
    },
    {
     "mangled_component_name":"_ZN7android8hardware8graphics9allocator4V2_011BsAllocator5debugERKNS0_11hidl_handleERKNS0_8hidl_vecINS0_11hidl_stringEEE"
    },
    {
     "mangled_component_name":"_ZN7android8hardware8graphics9allocator4V2_011BsAllocator19interfaceDescriptorENSt3__18functionIFvRKNS0_11hidl_stringEEEE"
    },
    {
     "mangled_component_name":"_ZN7android8hardware8graphics9allocator4V2_011BsAllocator12getHashChainENSt3__18functionIFvRKNS0_8hidl_vecINS0_10hidl_arrayIhLm32EJEEEEEEEE"
    },
    {
     "mangled_component_name":"_ZN7android8hardware8graphics9allocator4V2_011BsAllocator21setHALInstrumentationEv"
    },
    {
     "mangled_component_name":"_ZN7android8hardware8graphics9allocator4V2_011BsAllocator11linkToDeathERKNS_2spINS0_20hidl_death_recipientEEEm"
    },
    {
     "mangled_component_name":"_ZN7android8hardware8graphics9allocator4V2_011BsAllocator4pingEv"
    },
    {
     "mangled_component_name":"_ZN7android8hardware8graphics9allocator4V2_011BsAllocator12getDebugInfoENSt3__18functionIFvRKNS_4hidl4base4V1_09DebugInfoEEEE"
    },
    {
     "mangled_component_name":"_ZN7android8hardware8graphics9allocator4V2_011BsAllocator21notifySyspropsChangedEv"
    },
    {
     "mangled_component_name":"_ZN7android8hardware8graphics9allocator4V2_011BsAllocator13unlinkToDeathERKNS_2spINS0_20hidl_death_recipientEEE"
    },
    {
     "kind":"complete_dtor_pointer",
     "mangled_component_name":"_ZN7android8hardware8graphics9allocator4V2_011BsAllocatorD1Ev"
    },
    {
     "kind":"deleting_dtor_pointer",
     "mangled_component_name":"_ZN7android8hardware8graphics9allocator4V2_011BsAllocatorD0Ev"
    },
    {
     "mangled_component_name":"_ZN7android8hardware8graphics9allocator4V2_011BsAllocator13dumpDebugInfoENSt3__18functionIFvRKNS0_11hidl_stringEEEE"
    },
    {
     "mangled_component_name":"_ZN7android8hardware8graphics9allocator4V2_011BsAllocator8allocateERKNS0_8hidl_vecIjEEjNSt3__18functionIFvNS1_6mapper4V2_05ErrorEjRKNS5_INS0_11hidl_handleEEEEEE"
    },
    {
     "kind":"offset_to_top",
     "component_value":-8
    },
    {
     "kind":"rtti",
     "mangled_component_name":"_ZTIN7android8hardware8graphics9allocator4V2_011BsAllocatorE"
    },
    {
     "kind":"complete_dtor_pointer",
     "mangled_component_name":"_ZThn8_N7android8hardware8graphics9allocator4V2_011BsAllocatorD1Ev"
    },
    {
     "kind":"deleting_dtor_pointer",
     "mangled_component_name":"_ZThn8_N7android8hardware8graphics9allocator4V2_011BsAllocatorD0Ev"
    },
    {
     "kind":"vcall_offset"
    },
    {
     "kind":"vcall_offset"
    },
    {
     "kind":"vcall_offset"
    },
    {
     "kind":"vcall_offset"
    },
    {
     "kind":"vcall_offset",
     "component_value":-120
    },
    {
     "kind":"offset_to_top",
     "component_value":-120
    },
    {
     "kind":"rtti",
     "mangled_component_name":"_ZTIN7android8hardware8graphics9allocator4V2_011BsAllocatorE"
    },
    {
     "kind":"complete_dtor_pointer",
     "mangled_component_name":"_ZTv0_n24_N7android8hardware8graphics9allocator4V2_011BsAllocatorD1Ev"
    },
    {
     "kind":"deleting_dtor_pointer",
     "mangled_component_name":"_ZTv0_n24_N7android8hardware8graphics9allocator4V2_011BsAllocatorD0Ev"
    },
    {
     "mangled_component_name":"_ZN7android7RefBase10onFirstRefEv"
    },
    {
     "mangled_component_name":"_ZN7android7RefBase15onLastStrongRefEPKv"
    },
    {
     "mangled_component_name":"_ZN7android7RefBase20onIncStrongAttemptedEjPKv"
    },
    {
     "mangled_component_name":"_ZN7android7RefBase13onLastWeakRefEPKv"
    }
   ],
   "unique_id":"_ZTSN7android8hardware8graphics9allocator4V2_011BsAllocatorE"
  },
  {
   "vtable_components":[
    {
     "kind":"vbase_offset",
     "component_value":8
    },
    {
     "kind":"offset_to_top"
    },
    {
     "kind":"rtti",
     "mangled_component_name":"_ZTIN7android8hardware8graphics9allocator4V2_010IAllocatorE"
    },
    {
     "mangled_component_name":"_ZNK7android8hardware8graphics9allocator4V2_010IAllocator8isRemoteEv"
    },
    {
     "mangled_component_name":"_ZN7android8hardware8graphics9allocator4V2_010IAllocator14interfaceChainENSt3__18functionIFvRKNS0_8hidl_vecINS0_11hidl_stringEEEEEE"
    },
    {
     "mangled_component_name":"_ZN7android8hardware8graphics9allocator4V2_010IAllocator5debugERKNS0_11hidl_handleERKNS0_8hidl_vecINS0_11hidl_stringEEE"
    },
    {
     "mangled_component_name":"_ZN7android8hardware8graphics9allocator4V2_010IAllocator19interfaceDescriptorENSt3__18functionIFvRKNS0_11hidl_stringEEEE"
    },
    {
     "mangled_component_name":"_ZN7android8hardware8graphics9allocator4V2_010IAllocator12getHashChainENSt3__18functionIFvRKNS0_8hidl_vecINS0_10hidl_arrayIhLm32EJEEEEEEEE"
    },
    {
     "mangled_component_name":"_ZN7android8hardware8graphics9allocator4V2_010IAllocator21setHALInstrumentationEv"
    },
    {
     "mangled_component_name":"_ZN7android8hardware8graphics9allocator4V2_010IAllocator11linkToDeathERKNS_2spINS0_20hidl_death_recipientEEEm"
    },
    {
     "mangled_component_name":"_ZN7android8hardware8graphics9allocator4V2_010IAllocator4pingEv"
    },
    {
     "mangled_component_name":"_ZN7android8hardware8graphics9allocator4V2_010IAllocator12getDebugInfoENSt3__18functionIFvRKNS_4hidl4base4V1_09DebugInfoEEEE"
    },
    {
     "mangled_component_name":"_ZN7android8hardware8graphics9allocator4V2_010IAllocator21notifySyspropsChangedEv"
    },
    {
     "mangled_component_name":"_ZN7android8hardware8graphics9allocator4V2_010IAllocator13unlinkToDeathERKNS_2spINS0_20hidl_death_recipientEEE"
    },
    {
     "kind":"complete_dtor_pointer",
     "mangled_component_name":"_ZN7android8hardware8graphics9allocator4V2_010IAllocatorD1Ev"
    },
    {
     "kind":"deleting_dtor_pointer",
     "mangled_component_name":"_ZN7android8hardware8graphics9allocator4V2_010IAllocatorD0Ev"
    },
    {
     "is_pure":true,
     "mangled_component_name":"_ZN7android8hardware8graphics9allocator4V2_010IAllocator13dumpDebugInfoENSt3__18functionIFvRKNS0_11hidl_stringEEEE"
    },
    {
     "is_pure":true,
     "mangled_component_name":"_ZN7android8hardware8graphics9allocator4V2_010IAllocator8allocateERKNS0_8hidl_vecIjEEjNSt3__18functionIFvNS1_6mapper4V2_05ErrorEjRKNS5_INS0_11hidl_handleEEEEEE"
    },
    {
     "kind":"vcall_offset"
    },
    {
     "kind":"vcall_offset"
    },
    {
     "kind":"vcall_offset"
    },
    {
     "kind":"vcall_offset"
    },
    {
     "kind":"vcall_offset",
     "component_value":-8
    },
    {
     "kind":"offset_to_top",
     "component_value":-8
    },
    {
     "kind":"rtti",
     "mangled_component_name":"_ZTIN7android8hardware8graphics9allocator4V2_010IAllocatorE"
    },
    {
     "kind":"complete_dtor_pointer",
     "mangled_component_name":"_ZTv0_n24_N7android8hardware8graphics9allocator4V2_010IAllocatorD1Ev"
    },
    {
     "kind":"deleting_dtor_pointer",
     "mangled_component_name":"_ZTv0_n24_N7android8hardware8graphics9allocator4V2_010IAllocatorD0Ev"
    },
    {
     "mangled_component_name":"_ZN7android7RefBase10onFirstRefEv"
    },
    {
     "mangled_component_name":"_ZN7android7RefBase15onLastStrongRefEPKv"
    },
    {
     "mangled_component_name":"_ZN7android7RefBase20onIncStrongAttemptedEjPKv"
    },
    {
     "mangled_component_name":"_ZN7android7RefBase13onLastWeakRefEPKv"
    }
   ],
   "unique_id":"_ZTSN7android8hardware8graphics9allocator4V2_010IAllocatorE"
  }
 ],
 "elf_functions":[
  {
   "binding":"weak",
   "name":"_ZN7android8hardware7details13castInterfaceINS0_8graphics9allocator4V2_010IAllocatorENS_4hidl4base4V1_05IBaseENS5_13BpHwAllocatorEEENS0_6ReturnINS_2spIT_EEEENSD_IT0_EEPKcb"
  },
  {
   "binding":"weak",
   "name":"_ZN7android8hardware7details18getServiceInternalINS0_8graphics9allocator4V2_013BpHwAllocatorENS5_10IAllocatorEvvEENS_2spIT0_EERKNSt3__112basic_stringIcNSB_11char_traitsIcEENSB_9allocatorIcEEEEbb"
  },
  {
   "name":"_ZN7android8hardware8graphics9allocator4V2_010IAllocator10getServiceERKNSt3__112basic_stringIcNS5_11char_traitsIcEENS5_9allocatorIcEEEEb"
  },
  {
   "name":"_ZN7android8hardware8graphics9allocator4V2_010IAllocator11linkToDeathERKNS_2spINS0_20hidl_death_recipientEEEm"
  },
  {
   "name":"_ZN7android8hardware8graphics9allocator4V2_010IAllocator12getDebugInfoENSt3__18functionIFvRKNS_4hidl4base4V1_09DebugInfoEEEE"
  },
  {
   "name":"_ZN7android8hardware8graphics9allocator4V2_010IAllocator12getHashChainENSt3__18functionIFvRKNS0_8hidl_vecINS0_10hidl_arrayIhLm32EJEEEEEEEE"
  },
  {
   "name":"_ZN7android8hardware8graphics9allocator4V2_010IAllocator13tryGetServiceERKNSt3__112basic_stringIcNS5_11char_traitsIcEENS5_9allocatorIcEEEEb"
  },
  {
   "name":"_ZN7android8hardware8graphics9allocator4V2_010IAllocator13unlinkToDeathERKNS_2spINS0_20hidl_death_recipientEEE"
  },
  {
   "name":"_ZN7android8hardware8graphics9allocator4V2_010IAllocator14interfaceChainENSt3__18functionIFvRKNS0_8hidl_vecINS0_11hidl_stringEEEEEE"
  },
  {
   "name":"_ZN7android8hardware8graphics9allocator4V2_010IAllocator17registerAsServiceERKNSt3__112basic_stringIcNS5_11char_traitsIcEENS5_9allocatorIcEEEE"
  },
  {
   "name":"_ZN7android8hardware8graphics9allocator4V2_010IAllocator19interfaceDescriptorENSt3__18functionIFvRKNS0_11hidl_stringEEEE"
  },
  {
   "name":"_ZN7android8hardware8graphics9allocator4V2_010IAllocator21notifySyspropsChangedEv"
  },
  {
   "name":"_ZN7android8hardware8graphics9allocator4V2_010IAllocator21setHALInstrumentationEv"
  },
  {
   "name":"_ZN7android8hardware8graphics9allocator4V2_010IAllocator24registerForNotificationsERKNSt3__112basic_stringIcNS5_11char_traitsIcEENS5_9allocatorIcEEEERKNS_2spINS_4hidl7manager4V1_020IServiceNotificationEEE"
  },
  {
   "name":"_ZN7android8hardware8graphics9allocator4V2_010IAllocator4pingEv"
  },
  {
   "name":"_ZN7android8hardware8graphics9allocator4V2_010IAllocator5debugERKNS0_11hidl_handleERKNS0_8hidl_vecINS0_11hidl_stringEEE"
  },
  {
   "name":"_ZN7android8hardware8graphics9allocator4V2_010IAllocator8castFromERKNS_2spINS_4hidl4base4V1_05IBaseEEEb"
  },
  {
   "name":"_ZN7android8hardware8graphics9allocator4V2_010IAllocator8castFromERKNS_2spIS4_EEb"
  },
  {
   "name":"_ZN7android8hardware8graphics9allocator4V2_011BsAllocator13addOnewayTaskENSt3__18functionIFvvEEE"
  },
  {
   "name":"_ZN7android8hardware8graphics9allocator4V2_011BsAllocatorC1ENS_2spINS3_10IAllocatorEEE"
  },
  {
   "name":"_ZN7android8hardware8graphics9allocator4V2_011BsAllocatorC2ENS_2spINS3_10IAllocatorEEE"
  },
  {
   "name":"_ZN7android8hardware8graphics9allocator4V2_013BnHwAllocator10onTransactEjRKNS0_6ParcelEPS5_jNSt3__18functionIFvRS5_EEE"
  },
  {
   "name":"_ZN7android8hardware8graphics9allocator4V2_013BnHwAllocator12getDebugInfoENSt3__18functionIFvRKNS_4hidl4base4V1_09DebugInfoEEEE"
  },
  {
   "name":"_ZN7android8hardware8graphics9allocator4V2_013BnHwAllocator14_hidl_allocateEPNS_4hidl4base4V1_08BnHwBaseERKNS0_6ParcelEPSA_NSt3__18functionIFvRSA_EEE"
  },
  {
   "name":"_ZN7android8hardware8graphics9allocator4V2_013BnHwAllocator19_hidl_dumpDebugInfoEPNS_4hidl4base4V1_08BnHwBaseERKNS0_6ParcelEPSA_NSt3__18functionIFvRSA_EEE"
  },
  {
   "name":"_ZN7android8hardware8graphics9allocator4V2_013BnHwAllocator4pingEv"
  },
  {
   "name":"_ZN7android8hardware8graphics9allocator4V2_013BnHwAllocatorC1ERKNS_2spINS3_10IAllocatorEEE"
  },
  {
   "name":"_ZN7android8hardware8graphics9allocator4V2_013BnHwAllocatorC2ERKNS_2spINS3_10IAllocatorEEE"
  },
  {
   "name":"_ZN7android8hardware8graphics9allocator4V2_013BnHwAllocatorD0Ev"
  },
  {
   "name":"_ZN7android8hardware8graphics9allocator4V2_013BnHwAllocatorD1Ev"
  },
  {
   "name":"_ZN7android8hardware8graphics9allocator4V2_013BnHwAllocatorD2Ev"
  },
  {
   "name":"_ZN7android8hardware8graphics9allocator4V2_013BpHwAllocator11linkToDeathERKNS_2spINS0_20hidl_death_recipientEEEm"
  },
  {
   "name":"_ZN7android8hardware8graphics9allocator4V2_013BpHwAllocator12getDebugInfoENSt3__18functionIFvRKNS_4hidl4base4V1_09DebugInfoEEEE"
  },
  {
   "name":"_ZN7android8hardware8graphics9allocator4V2_013BpHwAllocator12getHashChainENSt3__18functionIFvRKNS0_8hidl_vecINS0_10hidl_arrayIhLm32EJEEEEEEEE"
  },
  {
   "name":"_ZN7android8hardware8graphics9allocator4V2_013BpHwAllocator13dumpDebugInfoENSt3__18functionIFvRKNS0_11hidl_stringEEEE"
  },
  {
   "name":"_ZN7android8hardware8graphics9allocator4V2_013BpHwAllocator13unlinkToDeathERKNS_2spINS0_20hidl_death_recipientEEE"
  },
  {
   "name":"_ZN7android8hardware8graphics9allocator4V2_013BpHwAllocator14_hidl_allocateEPNS0_10IInterfaceEPNS0_7details16HidlInstrumentorERKNS0_8hidl_vecIjEEjNSt3__18functionIFvNS1_6mapper4V2_05ErrorEjRKNSA_INS0_11hidl_handleEEEEEE"
  },
  {
   "name":"_ZN7android8hardware8graphics9allocator4V2_013BpHwAllocator14interfaceChainENSt3__18functionIFvRKNS0_8hidl_vecINS0_11hidl_stringEEEEEE"
  },
  {
   "name":"_ZN7android8hardware8graphics9allocator4V2_013BpHwAllocator19_hidl_dumpDebugInfoEPNS0_10IInterfaceEPNS0_7details16HidlInstrumentorENSt3__18functionIFvRKNS0_11hidl_stringEEEE"
  },
  {
   "name":"_ZN7android8hardware8graphics9allocator4V2_013BpHwAllocator19interfaceDescriptorENSt3__18functionIFvRKNS0_11hidl_stringEEEE"
  },
  {
   "name":"_ZN7android8hardware8graphics9allocator4V2_013BpHwAllocator21notifySyspropsChangedEv"
  },
  {
   "name":"_ZN7android8hardware8graphics9allocator4V2_013BpHwAllocator21setHALInstrumentationEv"
  },
  {
   "name":"_ZN7android8hardware8graphics9allocator4V2_013BpHwAllocator4pingEv"
  },
  {
   "name":"_ZN7android8hardware8graphics9allocator4V2_013BpHwAllocator5debugERKNS0_11hidl_handleERKNS0_8hidl_vecINS0_11hidl_stringEEE"
  },
  {
   "name":"_ZN7android8hardware8graphics9allocator4V2_013BpHwAllocator8allocateERKNS0_8hidl_vecIjEEjNSt3__18functionIFvNS1_6mapper4V2_05ErrorEjRKNS5_INS0_11hidl_handleEEEEEE"
  },
  {
   "name":"_ZN7android8hardware8graphics9allocator4V2_013BpHwAllocatorC1ERKNS_2spINS0_7IBinderEEE"
  },
  {
   "name":"_ZN7android8hardware8graphics9allocator4V2_013BpHwAllocatorC2ERKNS_2spINS0_7IBinderEEE"
  },
  {
   "binding":"weak",
   "name":"_ZN7android8hardware8toBinderINS_4hidl4base4V1_05IBaseEvEENS_2spINS0_7IBinderEEENS6_IT_EE"
  },
  {
   "name":"_ZThn32_N7android8hardware8graphics9allocator4V2_013BnHwAllocatorD0Ev"
  },
  {
   "name":"_ZThn32_N7android8hardware8graphics9allocator4V2_013BnHwAllocatorD1Ev"
  },
  {
   "name":"_ZTv0_n24_N7android8hardware8graphics9allocator4V2_013BnHwAllocatorD0Ev"
  },
  {
   "name":"_ZTv0_n24_N7android8hardware8graphics9allocator4V2_013BnHwAllocatorD1Ev"
  }
 ],
 "elf_objects":[
  {
   "name":"_ZN7android8hardware8graphics9allocator4V2_010IAllocator10descriptorE"
  },
  {
   "name":"_ZTTN7android8hardware8graphics9allocator4V2_010IAllocatorE"
  },
  {
   "name":"_ZTTN7android8hardware8graphics9allocator4V2_013BnHwAllocatorE"
  },
  {
   "name":"_ZTTN7android8hardware8graphics9allocator4V2_013BpHwAllocatorE"
  },
  {
   "name":"_ZTVN7android8hardware8graphics9allocator4V2_010IAllocatorE"
  },
  {
   "binding":"weak",
   "name":"_ZTVN7android8hardware8graphics9allocator4V2_011BsAllocatorE"
  },
  {
   "name":"_ZTVN7android8hardware8graphics9allocator4V2_013BnHwAllocatorE"
  },
  {
   "name":"_ZTVN7android8hardware8graphics9allocator4V2_013BpHwAllocatorE"
  }
 ]
}