{
 "record_types":[
  {
   "vtable_components":[
    {
     "kind":"vbase_offset",
     "component_value":8
    },
    {
     "kind":"offset_to_top"
    },
    {
     "kind":"rtti",
     "mangled_component_name":"_ZTIN7android8hardware8graphics11bufferqueue4V1_017IProducerListenerE"
    },
    {
     "mangled_component_name":"_ZNK7android8hardware8graphics11bufferqueue4V1_017IProducerListener8isRemoteEv"
    },
    {
     "mangled_component_name":"_ZN7android8hardware8graphics11bufferqueue4V1_017IProducerListener14interfaceChainENSt3__18functionIFvRKNS0_8hidl_vecINS0_11hidl_stringEEEEEE"
    },
    {
     "mangled_component_name":"_ZN7android8hardware8graphics11bufferqueue4V1_017IProducerListener5debugERKNS0_11hidl_handleERKNS0_8hidl_vecINS0_11hidl_stringEEE"
    },
    {
     "mangled_component_name":"_ZN7android8hardware8graphics11bufferqueue4V1_017IProducerListener19interfaceDescriptorENSt3__18functionIFvRKNS0_11hidl_stringEEEE"
    },
    {
     "mangled_component_name":"_ZN7android8hardware8graphics11bufferqueue4V1_017IProducerListener12getHashChainENSt3__18functionIFvRKNS0_8hidl_vecINS0_10hidl_arrayIhLm32EJEEEEEEEE"
    },
    {
     "mangled_component_name":"_ZN7android8hardware8graphics11bufferqueue4V1_017IProducerListener21setHALInstrumentationEv"
    },
    {
     "mangled_component_name":"_ZN7android8hardware8graphics11bufferqueue4V1_017IProducerListener11linkToDeathERKNS_2spINS0_20hidl_death_recipientEEEm"
    },
    {
     "mangled_component_name":"_ZN7android8hardware8graphics11bufferqueue4V1_017IProducerListener4pingEv"
    },
    {
     "mangled_component_name":"_ZN7android8hardware8graphics11bufferqueue4V1_017IProducerListener12getDebugInfoENSt3__18functionIFvRKNS_4hidl4base4V1_09DebugInfoEEEE"
    },
    {
     "mangled_component_name":"_ZN7android8hardware8graphics11bufferqueue4V1_017IProducerListener21notifySyspropsChangedEv"
    },
    {
     "mangled_component_name":"_ZN7android8hardware8graphics11bufferqueue4V1_017IProducerListener13unlinkToDeathERKNS_2spINS0_20hidl_death_recipientEEE"
    },
    {
     "kind":"complete_dtor_pointer",
     "mangled_component_name":"_ZN7android8hardware8graphics11bufferqueue4V1_017IProducerListenerD1Ev"
    },
    {
     "kind":"deleting_dtor_pointer",
     "mangled_component_name":"_ZN7android8hardware8graphics11bufferqueue4V1_017IProducerListenerD0Ev"
    },
    {
     "is_pure":true,
     "mangled_component_name":"_ZN7android8hardware8graphics11bufferqueue4V1_017IProducerListener16onBufferReleasedEv"
    },
    {
     "is_pure":true,
     "mangled_component_name":"_ZN7android8hardware8graphics11bufferqueue4V1_017IProducerListener18needsReleaseNotifyEv"
    },
    {
     "kind":"vcall_offset"
    },
    {
     "kind":"vcall_offset"
    },
    {
     "kind":"vcall_offset"
    },
    {
     "kind":"vcall_offset"
    },
    {
     "kind":"vcall_offset",
     "component_value":-8
    },
    {
     "kind":"offset_to_top",
     "component_value":-8
    },
    {
     "kind":"rtti",
     "mangled_component_name":"_ZTIN7android8hardware8graphics11bufferqueue4V1_017IProducerListenerE"
    },
    {
     "kind":"complete_dtor_pointer",
     "mangled_component_name":"_ZTv0_n24_N7android8hardware8graphics11bufferqueue4V1_017IProducerListenerD1Ev"
    },
    {
     "kind":"deleting_dtor_pointer",
     "mangled_component_name":"_ZTv0_n24_N7android8hardware8graphics11bufferqueue4V1_017IProducerListenerD0Ev"
    },
    {
     "mangled_component_name":"_ZN7android7RefBase10onFirstRefEv"
    },
    {
     "mangled_component_name":"_ZN7android7RefBase15onLastStrongRefEPKv"
    },
    {
     "mangled_component_name":"_ZN7android7RefBase20onIncStrongAttemptedEjPKv"
    },
    {
     "mangled_component_name":"_ZN7android7RefBase13onLastWeakRefEPKv"
    }
   ],
   "unique_id":"_ZTSN7android8hardware8graphics11bufferqueue4V1_017IProducerListenerE"
  },
  {
   "vtable_components":[
    {
     "kind":"vbase_offset",
     "component_value":200
    },
    {
     "kind":"offset_to_top"
    },
    {
     "kind":"rtti",
     "mangled_component_name":"_ZTIN7android8hardware8graphics11bufferqueue4V1_020BpHwProducerListenerE"
    },
    {
     "mangled_component_name":"_ZNK7android8hardware8graphics11bufferqueue4V1_020BpHwProducerListener8isRemoteEv"
    },
    {
     "mangled_component_name":"_ZN7android8hardware8graphics11bufferqueue4V1_020BpHwProducerListener14interfaceChainENSt3__18functionIFvRKNS0_8hidl_vecINS0_11hidl_stringEEEEEE"
    },
    {
     "mangled_component_name":"_ZN7android8hardware8graphics11bufferqueue4V1_020BpHwProducerListener5debugERKNS0_11hidl_handleERKNS0_8hidl_vecINS0_11hidl_stringEEE"
    },
    {
     "mangled_component_name":"_ZN7android8hardware8graphics11bufferqueue4V1_020BpHwProducerListener19interfaceDescriptorENSt3__18functionIFvRKNS0_11hidl_stringEEEE"
    },
    {
     "mangled_component_name":"_ZN7android8hardware8graphics11bufferqueue4V1_020BpHwProducerListener12getHashChainENSt3__18functionIFvRKNS0_8hidl_vecINS0_10hidl_arrayIhLm32EJEEEEEEEE"
    },
    {
     "mangled_component_name":"_ZN7android8hardware8graphics11bufferqueue4V1_020BpHwProducerListener21setHALInstrumentationEv"
    },
    {
     "mangled_component_name":"_ZN7android8hardware8graphics11bufferqueue4V1_020BpHwProducerListener11linkToDeathERKNS_2spINS0_20hidl_death_recipientEEEm"
    },
    {
     "mangled_component_name":"_ZN7android8hardware8graphics11bufferqueue4V1_020BpHwProducerListener4pingEv"
    },
    {
     "mangled_component_name":"_ZN7android8hardware8graphics11bufferqueue4V1_020BpHwProducerListener12getDebugInfoENSt3__18functionIFvRKNS_4hidl4base4V1_09DebugInfoEEEE"
    },
    {
     "mangled_component_name":"_ZN7android8hardware8graphics11bufferqueue4V1_020BpHwProducerListener21notifySyspropsChangedEv"
    },
    {
     "mangled_component_name":"_ZN7android8hardware8graphics11bufferqueue4V1_020BpHwProducerListener13unlinkToDeathERKNS_2spINS0_20hidl_death_recipientEEE"
    },
    {
     "kind":"complete_dtor_pointer",
     "mangled_component_name":"_ZN7android8hardware8graphics11bufferqueue4V1_020BpHwProducerListenerD1Ev"
    },
    {
     "kind":"deleting_dtor_pointer",
     "mangled_component_name":"_ZN7android8hardware8graphics11bufferqueue4V1_020BpHwProducerListenerD0Ev"
    },
    {
     "mangled_component_name":"_ZN7android8hardware8graphics11bufferqueue4V1_020BpHwProducerListener16onBufferReleasedEv"
    },
    {
     "mangled_component_name":"_ZN7android8hardware8graphics11bufferqueue4V1_020BpHwProducerListener18needsReleaseNotifyEv"
    },
    {
     "mangled_component_name":"_ZN7android8hardware11BpInterfaceINS0_8graphics11bufferqueue4V1_017IProducerListenerEE10onAsBinderEv"
    },
    {
     "kind":"vbase_offset",
     "component_value":192
    },
    {
     "kind":"offset_to_top",
     "component_value":-8
    },
    {
     "kind":"rtti",
     "mangled_component_name":"_ZTIN7android8hardware8graphics11bufferqueue4V1_020BpHwProducerListenerE"
    },
    {
     "kind":"complete_dtor_pointer",
     "mangled_component_name":"_ZThn8_N7android8hardware8graphics11bufferqueue4V1_020BpHwProducerListenerD1Ev"
    },
    {
     "kind":"deleting_dtor_pointer",
     "mangled_component_name":"_ZThn8_N7android8hardware8graphics11bufferqueue4V1_020BpHwProducerListenerD0Ev"
    },
    {
     "mangled_component_name":"_ZThn8_N7android8hardware11BpInterfaceINS0_8graphics11bufferqueue4V1_017IProducerListenerEE10onAsBinderEv"
    },
    {
     "kind":"vbase_offset",
     "component_value":184
    },
    {
     "kind":"offset_to_top",
     "component_value":-16
    },
    {
     "kind":"rtti",
     "mangled_component_name":"_ZTIN7android8hardware8graphics11bufferqueue4V1_020BpHwProducerListenerE"
    },
    {
     "kind":"complete_dtor_pointer",
     "mangled_component_name":"_ZThn16_N7android8hardware8graphics11bufferqueue4V1_020BpHwProducerListenerD1Ev"
    },
    {
     "kind":"deleting_dtor_pointer",
     "mangled_component_name":"_ZThn16_N7android8hardware8graphics11bufferqueue4V1_020BpHwProducerListenerD0Ev"
    },
    {
     "mangled_component_name":"_ZN7android8hardware11BpHwRefBase10onFirstRefEv"
    },
    {
     "mangled_component_name":"_ZN7android8hardware11BpHwRefBase15onLastStrongRefEPKv"
    },
    {
     "mangled_component_name":"_ZN7android8hardware11BpHwRefBase20onIncStrongAttemptedEjPKv"
    },
    {
     "kind":"offset_to_top",
     "component_value":-48
    },
    {
     "kind":"rtti",
     "mangled_component_name":"_ZTIN7android8hardware8graphics11bufferqueue4V1_020BpHwProducerListenerE"
    },
    {
     "kind":"complete_dtor_pointer",
     "mangled_component_name":"_ZThn48_N7android8hardware8graphics11bufferqueue4V1_020BpHwProducerListenerD1Ev"
    },
    {
     "kind":"deleting_dtor_pointer",
     "mangled_component_name":"_ZThn48_N7android8hardware8graphics11bufferqueue4V1_020BpHwProducerListenerD0Ev"
    },
    {
     "kind":"vcall_offset"
    },
    {
     "kind":"vcall_offset",
     "component_value":-184
    },
    {
     "kind":"vcall_offset",
     "component_value":-184
    },
    {
     "kind":"vcall_offset",
     "component_value":-184
    },
    {
     "kind":"vcall_offset",
     "component_value":-200
    },
    {
     "kind":"offset_to_top",
     "component_value":-200
    },
    {
     "kind":"rtti",
     "mangled_component_name":"_ZTIN7android8hardware8graphics11bufferqueue4V1_020BpHwProducerListenerE"
    },
    {
     "kind":"complete_dtor_pointer",
     "mangled_component_name":"_ZTv0_n24_N7android8hardware8graphics11bufferqueue4V1_020BpHwProducerListenerD1Ev"
    },
    {
     "kind":"deleting_dtor_pointer",
     "mangled_component_name":"_ZTv0_n24_N7android8hardware8graphics11bufferqueue4V1_020BpHwProducerListenerD0Ev"
    },
    {
     "mangled_component_name":"_ZTv0_n32_N7android8hardware11BpHwRefBase10onFirstRefEv"
    },
    {
     "mangled_component_name":"_ZTv0_n40_N7android8hardware11BpHwRefBase15onLastStrongRefEPKv"
    },
    {
     "mangled_component_name":"_ZTv0_n48_N7android8hardware11BpHwRefBase20onIncStrongAttemptedEjPKv"
    },
    {
     "mangled_component_name":"_ZN7android7RefBase13onLastWeakRefEPKv"
    }
   ],
   "unique_id":"_ZTSN7android8hardware8graphics11bufferqueue4V1_020BpHwProducerListenerE"
  },
  {
   "vtable_components":[
    {
     "kind":"vbase_offset",
     "component_value":8
    },
    {
     "kind":"offset_to_top"
    },
    {
     "kind":"rtti",
     "mangled_component_name":"_ZTIN7android8hardware8graphics11bufferqueue4V1_022IGraphicBufferProducerE"
    },
    {
     "mangled_component_name":"_ZNK7android8hardware8graphics11bufferqueue4V1_022IGraphicBufferProducer8isRemoteEv"
    },
    {
     "mangled_component_name":"_ZN7android8hardware8graphics11bufferqueue4V1_022IGraphicBufferProducer14interfaceChainENSt3__18functionIFvRKNS0_8hidl_vecINS0_11hidl_stringEEEEEE"
    },
    {
     "mangled_component_name":"_ZN7android8hardware8graphics11bufferqueue4V1_022IGraphicBufferProducer5debugERKNS0_11hidl_handleERKNS0_8hidl_vecINS0_11hidl_stringEEE"
    },
    {
     "mangled_component_name":"_ZN7android8hardware8graphics11bufferqueue4V1_022IGraphicBufferProducer19interfaceDescriptorENSt3__18functionIFvRKNS0_11hidl_stringEEEE"
    },
    {
     "mangled_component_name":"_ZN7android8hardware8graphics11bufferqueue4V1_022IGraphicBufferProducer12getHashChainENSt3__18functionIFvRKNS0_8hidl_vecINS0_10hidl_arrayIhLm32EJEEEEEEEE"
    },
    {
     "mangled_component_name":"_ZN7android8hardware8graphics11bufferqueue4V1_022IGraphicBufferProducer21setHALInstrumentationEv"
    },
    {
     "mangled_component_name":"_ZN7android8hardware8graphics11bufferqueue4V1_022IGraphicBufferProducer11linkToDeathERKNS_2spINS0_20hidl_death_recipientEEEm"
    },
    {
     "mangled_component_name":"_ZN7android8hardware8graphics11bufferqueue4V1_022IGraphicBufferProducer4pingEv"
    },
    {
     "mangled_component_name":"_ZN7android8hardware8graphics11bufferqueue4V1_022IGraphicBufferProducer12getDebugInfoENSt3__18functionIFvRKNS_4hidl4base4V1_09DebugInfoEEEE"
    },
    {
     "mangled_component_name":"_ZN7android8hardware8graphics11bufferqueue4V1_022IGraphicBufferProducer21notifySyspropsChangedEv"
    },
    {
     "mangled_component_name":"_ZN7android8hardware8graphics11bufferqueue4V1_022IGraphicBufferProducer13unlinkToDeathERKNS_2spINS0_20hidl_death_recipientEEE"
    },
    {
     "kind":"complete_dtor_pointer",
     "mangled_component_name":"_ZN7android8hardware8graphics11bufferqueue4V1_022IGraphicBufferProducerD1Ev"
    },
    {
     "kind":"deleting_dtor_pointer",
     "mangled_component_name":"_ZN7android8hardware8graphics11bufferqueue4V1_022IGraphicBufferProducerD0Ev"
    },
    {
     "is_pure":true,
     "mangled_component_name":"_ZN7android8hardware8graphics11bufferqueue4V1_022IGraphicBufferProducer13requestBufferEiNSt3__18functionIFviRKNS0_5media4V1_09AnwBufferEEEE"
    },
    {
     "is_pure":true,
     "mangled_component_name":"_ZN7android8hardware8graphics11bufferqueue4V1_022IGraphicBufferProducer25setMaxDequeuedBufferCountEi"
    },
    {
     "is_pure":true,
     "mangled_component_name":"_ZN7android8hardware8graphics11bufferqueue4V1_022IGraphicBufferProducer12setAsyncModeEb"
    },
    {
     "is_pure":true,
     "mangled_component_name":"_ZN7android8hardware8graphics11bufferqueue4V1_022IGraphicBufferProducer13dequeueBufferEjjNS1_6common4V1_011PixelFormatEjbNSt3__18functionIFviiRKNS0_11hidl_handleERKNS4_22FrameEventHistoryDeltaEEEE"
    },
    {
     "is_pure":true,
     "mangled_component_name":"_ZN7android8hardware8graphics11bufferqueue4V1_022IGraphicBufferProducer12detachBufferEi"
    },
    {
     "is_pure":true,
     "mangled_component_name":"_ZN7android8hardware8graphics11bufferqueue4V1_022IGraphicBufferProducer16detachNextBufferENSt3__18functionIFviRKNS0_5media4V1_09AnwBufferERKNS0_11hidl_handleEEEE"
    },
    {
     "is_pure":true,
     "mangled_component_name":"_ZN7android8hardware8graphics11bufferqueue4V1_022IGraphicBufferProducer12attachBufferERKNS0_5media4V1_09AnwBufferENSt3__18functionIFviiEEE"
    },
    {
     "is_pure":true,
     "mangled_component_name":"_ZN7android8hardware8graphics11bufferqueue4V1_022IGraphicBufferProducer11queueBufferEiRKNS4_16QueueBufferInputENSt3__18functionIFviRKNS4_17QueueBufferOutputEEEE"
    },
    {
     "is_pure":true,
     "mangled_component_name":"_ZN7android8hardware8graphics11bufferqueue4V1_022IGraphicBufferProducer12cancelBufferEiRKNS0_11hidl_handleE"
    },
    {
     "is_pure":true,
     "mangled_component_name":"_ZN7android8hardware8graphics11bufferqueue4V1_022IGraphicBufferProducer5queryEiNSt3__18functionIFviiEEE"
    },
    {
     "is_pure":true,
     "mangled_component_name":"_ZN7android8hardware8graphics11bufferqueue4V1_022IGraphicBufferProducer7connectERKNS_2spINS3_17IProducerListenerEEEibNSt3__18functionIFviRKNS4_17QueueBufferOutputEEEE"
    },
    {
     "is_pure":true,
     "mangled_component_name":"_ZN7android8hardware8graphics11bufferqueue4V1_022IGraphicBufferProducer10disconnectEiNS4_14DisconnectModeE"
    },
    {
     "is_pure":true,
     "mangled_component_name":"_ZN7android8hardware8graphics11bufferqueue4V1_022IGraphicBufferProducer17setSidebandStreamERKNS0_11hidl_handleE"
    },
    {
     "is_pure":true,
     "mangled_component_name":"_ZN7android8hardware8graphics11bufferqueue4V1_022IGraphicBufferProducer15allocateBuffersEjjNS1_6common4V1_011PixelFormatEj"
    },
    {
     "is_pure":true,
     "mangled_component_name":"_ZN7android8hardware8graphics11bufferqueue4V1_022IGraphicBufferProducer15allowAllocationEb"
    },
    {
     "is_pure":true,
     "mangled_component_name":"_ZN7android8hardware8graphics11bufferqueue4V1_022IGraphicBufferProducer19setGenerationNumberEj"
    },
    {
     "is_pure":true,
     "mangled_component_name":"_ZN7android8hardware8graphics11bufferqueue4V1_022IGraphicBufferProducer15getConsumerNameENSt3__18functionIFvRKNS0_11hidl_stringEEEE"
    },
    {
     "is_pure":true,
     "mangled_component_name":"_ZN7android8hardware8graphics11bufferqueue4V1_022IGraphicBufferProducer19setSharedBufferModeEb"
    },
    {
     "is_pure":true,
     "mangled_component_name":"_ZN7android8hardware8graphics11bufferqueue4V1_022IGraphicBufferProducer14setAutoRefreshEb"
    },
    {
     "is_pure":true,
     "mangled_component_name":"_ZN7android8hardware8graphics11bufferqueue4V1_022IGraphicBufferProducer17setDequeueTimeoutEl"
    },
    {
     "is_pure":true,
     "mangled_component_name":"_ZN7android8hardware8graphics11bufferqueue4V1_022IGraphicBufferProducer19getLastQueuedBufferENSt3__18functionIFviRKNS0_5media4V1_09AnwBufferERKNS0_11hidl_handleERKNS0_10hidl_arrayIfLm16EJEEEEEE"
    },
    {
     "is_pure":true,
     "mangled_component_name":"_ZN7android8hardware8graphics11bufferqueue4V1_022IGraphicBufferProducer18getFrameTimestampsENSt3__18functionIFvRKNS4_22FrameEventHistoryDeltaEEEE"
    },
    {
     "is_pure":true,
     "mangled_component_name":"_ZN7android8hardware8graphics11bufferqueue4V1_022IGraphicBufferProducer11getUniqueIdENSt3__18functionIFvimEEE"
    },
    {
     "kind":"vcall_offset"
    },
    {
     "kind":"vcall_offset"
    },
    {
     "kind":"vcall_offset"
    },
    {
     "kind":"vcall_offset"
    },
    {
     "kind":"vcall_offset",
     "component_value":-8
    },
    {
     "kind":"offset_to_top",
     "component_value":-8
    },
    {
     "kind":"rtti",
     "mangled_component_name":"_ZTIN7android8hardware8graphics11bufferqueue4V1_022IGraphicBufferProducerE"
    },
    {
     "kind":"complete_dtor_pointer",
     "mangled_component_name":"_ZTv0_n24_N7android8hardware8graphics11bufferqueue4V1_022IGraphicBufferProducerD1Ev"
    },
    {
     "kind":"deleting_dtor_pointer",
     "mangled_component_name":"_ZTv0_n24_N7android8hardware8graphics11bufferqueue4V1_022IGraphicBufferProducerD0Ev"
    },
    {
     "mangled_component_name":"_ZN7android7RefBase10onFirstRefEv"
    },
    {
     "mangled_component_name":"_ZN7android7RefBase15onLastStrongRefEPKv"
    },
    {
     "mangled_component_name":"_ZN7android7RefBase20onIncStrongAttemptedEjPKv"
    },
    {
     "mangled_component_name":"_ZN7android7RefBase13onLastWeakRefEPKv"
    }
   ],
   "unique_id":"_ZTSN7android8hardware8graphics11bufferqueue4V1_022IGraphicBufferProducerE"
  },
  {
   "vtable_components":[
    {
     "kind":"vbase_offset",
     "component_value":136
    },
    {
     "kind":"offset_to_top"
    },
    {
     "kind":"rtti",
     "mangled_component_name":"_ZTIN7android8hardware8graphics11bufferqueue4V1_025BnHwGraphicBufferProducerE"
    },
    {
     "mangled_component_name":"_ZN7android8hardware9BHwBinder8transactEjRKNS0_6ParcelEPS2_jNSt3__18functionIFvRS2_EEE"
    },
    {
     "mangled_component_name":"_ZN7android8hardware9BHwBinder11linkToDeathERKNS_2spINS0_7IBinder14DeathRecipientEEEPvj"
    },
    {
     "mangled_component_name":"_ZN7android8hardware9BHwBinder13unlinkToDeathERKNS_2wpINS0_7IBinder14DeathRecipientEEEPvjPS5_"
    },
    {
     "mangled_component_name":"_ZNK7android8hardware7IBinder13checkSubclassEPKv"
    },
    {
     "mangled_component_name":"_ZN7android8hardware9BHwBinder12attachObjectEPKvPvS4_PFvS3_S4_S4_E"
    },
    {
     "mangled_component_name":"_ZNK7android8hardware9BHwBinder10findObjectEPKv"
    },
    {
     "mangled_component_name":"_ZN7android8hardware9BHwBinder12detachObjectEPKv"
    },
    {
     "mangled_component_name":"_ZN7android8hardware9BHwBinder11localBinderEv"
    },
    {
     "mangled_component_name":"_ZN7android8hardware7IBinder12remoteBinderEv"
    },
    {
     "kind":"complete_dtor_pointer",
     "mangled_component_name":"_ZN7android8hardware8graphics11bufferqueue4V1_025BnHwGraphicBufferProducerD1Ev"
    },
    {
     "kind":"deleting_dtor_pointer",
     "mangled_component_name":"_ZN7android8hardware8graphics11bufferqueue4V1_025BnHwGraphicBufferProducerD0Ev"
    },
    {
     "mangled_component_name":"_ZN7android8hardware8graphics11bufferqueue4V1_025BnHwGraphicBufferProducer10onTransactEjRKNS0_6ParcelEPS5_jNSt3__18functionIFvRS5_EEE"
    },
    {
     "kind":"offset_to_top",
     "component_value":-32
    },
    {
     "kind":"rtti",
     "mangled_component_name":"_ZTIN7android8hardware8graphics11bufferqueue4V1_025BnHwGraphicBufferProducerE"
    },
    {
     "kind":"complete_dtor_pointer",
     "mangled_component_name":"_ZThn32_N7android8hardware8graphics11bufferqueue4V1_025BnHwGraphicBufferProducerD1Ev"
    },
    {
     "kind":"deleting_dtor_pointer",
     "mangled_component_name":"_ZThn32_N7android8hardware8graphics11bufferqueue4V1_025BnHwGraphicBufferProducerD0Ev"
    },
    {
     "kind":"vcall_offset"
    },
    {
     "kind":"vcall_offset"
    },
    {
     "kind":"vcall_offset"
    },
    {
     "kind":"vcall_offset"
    },
    {
     "kind":"vcall_offset",
     "component_value":-136
    },
    {
     "kind":"offset_to_top",
     "component_value":-136
    },
    {
     "kind":"rtti",
     "mangled_component_name":"_ZTIN7android8hardware8graphics11bufferqueue4V1_025BnHwGraphicBufferProducerE"
    },
    {
     "kind":"complete_dtor_pointer",
     "mangled_component_name":"_ZTv0_n24_N7android8hardware8graphics11bufferqueue4V1_025BnHwGraphicBufferProducerD1Ev"
    },
    {
     "kind":"deleting_dtor_pointer",
     "mangled_component_name":"_ZTv0_n24_N7android8hardware8graphics11bufferqueue4V1_025BnHwGraphicBufferProducerD0Ev"
    },
    {
     "mangled_component_name":"_ZN7android7RefBase10onFirstRefEv"
    },
    {
     "mangled_component_name":"_ZN7android7RefBase15onLastStrongRefEPKv"
    },
    {
     "mangled_component_name":"_ZN7android7RefBase20onIncStrongAttemptedEjPKv"
    },
    {
     "mangled_component_name":"_ZN7android7RefBase13onLastWeakRefEPKv"
    }
   ],
   "unique_id":"_ZTSN7android8hardware8graphics11bufferqueue4V1_025BnHwGraphicBufferProducerE"
  },
  {
   "vtable_components":[
    {
     "kind":"vbase_offset",
     "component_value":136
    },
    {
     "kind":"offset_to_top"
    },
    {
     "kind":"rtti",
     "mangled_component_name":"_ZTIN7android8hardware8graphics11bufferqueue4V1_020BnHwProducerListenerE"
    },
    {
     "mangled_component_name":"_ZN7android8hardware9BHwBinder8transactEjRKNS0_6ParcelEPS2_jNSt3__18functionIFvRS2_EEE"
    },
    {
     "mangled_component_name":"_ZN7android8hardware9BHwBinder11linkToDeathERKNS_2spINS0_7IBinder14DeathRecipientEEEPvj"
    },
    {
     "mangled_component_name":"_ZN7android8hardware9BHwBinder13unlinkToDeathERKNS_2wpINS0_7IBinder14DeathRecipientEEEPvjPS5_"
    },
    {
     "mangled_component_name":"_ZNK7android8hardware7IBinder13checkSubclassEPKv"
    },
    {
     "mangled_component_name":"_ZN7android8hardware9BHwBinder12attachObjectEPKvPvS4_PFvS3_S4_S4_E"
    },
    {
     "mangled_component_name":"_ZNK7android8hardware9BHwBinder10findObjectEPKv"
    },
    {
     "mangled_component_name":"_ZN7android8hardware9BHwBinder12detachObjectEPKv"
    },
    {
     "mangled_component_name":"_ZN7android8hardware9BHwBinder11localBinderEv"
    },
    {
     "mangled_component_name":"_ZN7android8hardware7IBinder12remoteBinderEv"
    },
    {
     "kind":"complete_dtor_pointer",
     "mangled_component_name":"_ZN7android8hardware8graphics11bufferqueue4V1_020BnHwProducerListenerD1Ev"
    },
    {
     "kind":"deleting_dtor_pointer",
     "mangled_component_name":"_ZN7android8hardware8graphics11bufferqueue4V1_020BnHwProducerListenerD0Ev"
    },
    {
     "mangled_component_name":"_ZN7android8hardware8graphics11bufferqueue4V1_020BnHwProducerListener10onTransactEjRKNS0_6ParcelEPS5_jNSt3__18functionIFvRS5_EEE"
    },
    {
     "kind":"offset_to_top",
     "component_value":-32
    },
    {
     "kind":"rtti",
     "mangled_component_name":"_ZTIN7android8hardware8graphics11bufferqueue4V1_020BnHwProducerListenerE"
    },
    {
     "kind":"complete_dtor_pointer",
     "mangled_component_name":"_ZThn32_N7android8hardware8graphics11bufferqueue4V1_020BnHwProducerListenerD1Ev"
    },
    {
     "kind":"deleting_dtor_pointer",
     "mangled_component_name":"_ZThn32_N7android8hardware8graphics11bufferqueue4V1_020BnHwProducerListenerD0Ev"
    },
    {
     "kind":"vcall_offset"
    },
    {
     "kind":"vcall_offset"
    },
    {
     "kind":"vcall_offset"
    },
    {
     "kind":"vcall_offset"
    },
    {
     "kind":"vcall_offset",
     "component_value":-136
    },
    {
     "kind":"offset_to_top",
     "component_value":-136
    },
    {
     "kind":"rtti",
     "mangled_component_name":"_ZTIN7android8hardware8graphics11bufferqueue4V1_020BnHwProducerListenerE"
    },
    {
     "kind":"complete_dtor_pointer",
     "mangled_component_name":"_ZTv0_n24_N7android8hardware8graphics11bufferqueue4V1_020BnHwProducerListenerD1Ev"
    },
    {
     "kind":"deleting_dtor_pointer",
     "mangled_component_name":"_ZTv0_n24_N7android8hardware8graphics11bufferqueue4V1_020BnHwProducerListenerD0Ev"
    },
    {
     "mangled_component_name":"_ZN7android7RefBase10onFirstRefEv"
    },
    {
     "mangled_component_name":"_ZN7android7RefBase15onLastStrongRefEPKv"
    },
    {
     "mangled_component_name":"_ZN7android7RefBase20onIncStrongAttemptedEjPKv"
    },
    {
     "mangled_component_name":"_ZN7android7RefBase13onLastWeakRefEPKv"
    }
   ],
   "unique_id":"_ZTSN7android8hardware8graphics11bufferqueue4V1_020BnHwProducerListenerE"
  },
  {
   "vtable_components":[
    {
     "kind":"vbase_offset",
     "component_value":200
    },
    {
     "kind":"offset_to_top"
    },
    {
     "kind":"rtti",
     "mangled_component_name":"_ZTIN7android8hardware8graphics11bufferqueue4V1_025BpHwGraphicBufferProducerE"
    },
    {
     "mangled_component_name":"_ZNK7android8hardware8graphics11bufferqueue4V1_025BpHwGraphicBufferProducer8isRemoteEv"
    },
    {
     "mangled_component_name":"_ZN7android8hardware8graphics11bufferqueue4V1_025BpHwGraphicBufferProducer14interfaceChainENSt3__18functionIFvRKNS0_8hidl_vecINS0_11hidl_stringEEEEEE"
    },
    {
     "mangled_component_name":"_ZN7android8hardware8graphics11bufferqueue4V1_025BpHwGraphicBufferProducer5debugERKNS0_11hidl_handleERKNS0_8hidl_vecINS0_11hidl_stringEEE"
    },
    {
     "mangled_component_name":"_ZN7android8hardware8graphics11bufferqueue4V1_025BpHwGraphicBufferProducer19interfaceDescriptorENSt3__18functionIFvRKNS0_11hidl_stringEEEE"
    },
    {
     "mangled_component_name":"_ZN7android8hardware8graphics11bufferqueue4V1_025BpHwGraphicBufferProducer12getHashChainENSt3__18functionIFvRKNS0_8hidl_vecINS0_10hidl_arrayIhLm32EJEEEEEEEE"
    },
    {
     "mangled_component_name":"_ZN7android8hardware8graphics11bufferqueue4V1_025BpHwGraphicBufferProducer21setHALInstrumentationEv"
    },
    {
     "mangled_component_name":"_ZN7android8hardware8graphics11bufferqueue4V1_025BpHwGraphicBufferProducer11linkToDeathERKNS_2spINS0_20hidl_death_recipientEEEm"
    },
    {
     "mangled_component_name":"_ZN7android8hardware8graphics11bufferqueue4V1_025BpHwGraphicBufferProducer4pingEv"
    },
    {
     "mangled_component_name":"_ZN7android8hardware8graphics11bufferqueue4V1_025BpHwGraphicBufferProducer12getDebugInfoENSt3__18functionIFvRKNS_4hidl4base4V1_09DebugInfoEEEE"
    },
    {
     "mangled_component_name":"_ZN7android8hardware8graphics11bufferqueue4V1_025BpHwGraphicBufferProducer21notifySyspropsChangedEv"
    },
    {
     "mangled_component_name":"_ZN7android8hardware8graphics11bufferqueue4V1_025BpHwGraphicBufferProducer13unlinkToDeathERKNS_2spINS0_20hidl_death_recipientEEE"
    },
    {
     "kind":"complete_dtor_pointer",
     "mangled_component_name":"_ZN7android8hardware8graphics11bufferqueue4V1_025BpHwGraphicBufferProducerD1Ev"
    },
    {
     "kind":"deleting_dtor_pointer",
     "mangled_component_name":"_ZN7android8hardware8graphics11bufferqueue4V1_025BpHwGraphicBufferProducerD0Ev"
    },
    {
     "mangled_component_name":"_ZN7android8hardware8graphics11bufferqueue4V1_025BpHwGraphicBufferProducer13requestBufferEiNSt3__18functionIFviRKNS0_5media4V1_09AnwBufferEEEE"
    },
    {
     "mangled_component_name":"_ZN7android8hardware8graphics11bufferqueue4V1_025BpHwGraphicBufferProducer25setMaxDequeuedBufferCountEi"
    },
    {
     "mangled_component_name":"_ZN7android8hardware8graphics11bufferqueue4V1_025BpHwGraphicBufferProducer12setAsyncModeEb"
    },
    {
     "mangled_component_name":"_ZN7android8hardware8graphics11bufferqueue4V1_025BpHwGraphicBufferProducer13dequeueBufferEjjNS1_6common4V1_011PixelFormatEjbNSt3__18functionIFviiRKNS0_11hidl_handleERKNS3_22IGraphicBufferProducer22FrameEventHistoryDeltaEEEE"
    },
    {
     "mangled_component_name":"_ZN7android8hardware8graphics11bufferqueue4V1_025BpHwGraphicBufferProducer12detachBufferEi"
    },
    {
     "mangled_component_name":"_ZN7android8hardware8graphics11bufferqueue4V1_025BpHwGraphicBufferProducer16detachNextBufferENSt3__18functionIFviRKNS0_5media4V1_09AnwBufferERKNS0_11hidl_handleEEEE"
    },
    {
     "mangled_component_name":"_ZN7android8hardware8graphics11bufferqueue4V1_025BpHwGraphicBufferProducer12attachBufferERKNS0_5media4V1_09AnwBufferENSt3__18functionIFviiEEE"
    },
    {
     "mangled_component_name":"_ZN7android8hardware8graphics11bufferqueue4V1_025BpHwGraphicBufferProducer11queueBufferEiRKNS3_22IGraphicBufferProducer16QueueBufferInputENSt3__18functionIFviRKNS5_17QueueBufferOutputEEEE"
    },
    {
     "mangled_component_name":"_ZN7android8hardware8graphics11bufferqueue4V1_025BpHwGraphicBufferProducer12cancelBufferEiRKNS0_11hidl_handleE"
    },
    {
     "mangled_component_name":"_ZN7android8hardware8graphics11bufferqueue4V1_025BpHwGraphicBufferProducer5queryEiNSt3__18functionIFviiEEE"
    },
    {
     "mangled_component_name":"_ZN7android8hardware8graphics11bufferqueue4V1_025BpHwGraphicBufferProducer7connectERKNS_2spINS3_17IProducerListenerEEEibNSt3__18functionIFviRKNS3_22IGraphicBufferProducer17QueueBufferOutputEEEE"
    },
    {
     "mangled_component_name":"_ZN7android8hardware8graphics11bufferqueue4V1_025BpHwGraphicBufferProducer10disconnectEiNS3_22IGraphicBufferProducer14DisconnectModeE"
    },
    {
     "mangled_component_name":"_ZN7android8hardware8graphics11bufferqueue4V1_025BpHwGraphicBufferProducer17setSidebandStreamERKNS0_11hidl_handleE"
    },
    {
     "mangled_component_name":"_ZN7android8hardware8graphics11bufferqueue4V1_025BpHwGraphicBufferProducer15allocateBuffersEjjNS1_6common4V1_011PixelFormatEj"
    },
    {
     "mangled_component_name":"_ZN7android8hardware8graphics11bufferqueue4V1_025BpHwGraphicBufferProducer15allowAllocationEb"
    },
    {
     "mangled_component_name":"_ZN7android8hardware8graphics11bufferqueue4V1_025BpHwGraphicBufferProducer19setGenerationNumberEj"
    },
    {
     "mangled_component_name":"_ZN7android8hardware8graphics11bufferqueue4V1_025BpHwGraphicBufferProducer15getConsumerNameENSt3__18functionIFvRKNS0_11hidl_stringEEEE"
    },
    {
     "mangled_component_name":"_ZN7android8hardware8graphics11bufferqueue4V1_025BpHwGraphicBufferProducer19setSharedBufferModeEb"
    },
    {
     "mangled_component_name":"_ZN7android8hardware8graphics11bufferqueue4V1_025BpHwGraphicBufferProducer14setAutoRefreshEb"
    },
    {
     "mangled_component_name":"_ZN7android8hardware8graphics11bufferqueue4V1_025BpHwGraphicBufferProducer17setDequeueTimeoutEl"
    },
    {
     "mangled_component_name":"_ZN7android8hardware8graphics11bufferqueue4V1_025BpHwGraphicBufferProducer19getLastQueuedBufferENSt3__18functionIFviRKNS0_5media4V1_09AnwBufferERKNS0_11hidl_handleERKNS0_10hidl_arrayIfLm16EJEEEEEE"
    },
    {
     "mangled_component_name":"_ZN7android8hardware8graphics11bufferqueue4V1_025BpHwGraphicBufferProducer18getFrameTimestampsENSt3__18functionIFvRKNS3_22IGraphicBufferProducer22FrameEventHistoryDeltaEEEE"
    },
    {
     "mangled_component_name":"_ZN7android8hardware8graphics11bufferqueue4V1_025BpHwGraphicBufferProducer11getUniqueIdENSt3__18functionIFvimEEE"
    },
    {
     "mangled_component_name":"_ZN7android8hardware11BpInterfaceINS0_8graphics11bufferqueue4V1_022IGraphicBufferProducerEE10onAsBinderEv"
    },
    {
     "kind":"vbase_offset",
     "component_value":192
    },
    {
     "kind":"offset_to_top",
     "component_value":-8
    },
    {
     "kind":"rtti",
     "mangled_component_name":"_ZTIN7android8hardware8graphics11bufferqueue4V1_025BpHwGraphicBufferProducerE"
    },
    {
     "kind":"complete_dtor_pointer",
     "mangled_component_name":"_ZThn8_N7android8hardware8graphics11bufferqueue4V1_025BpHwGraphicBufferProducerD1Ev"
    },
    {
     "kind":"deleting_dtor_pointer",
     "mangled_component_name":"_ZThn8_N7android8hardware8graphics11bufferqueue4V1_025BpHwGraphicBufferProducerD0Ev"
    },
    {
     "mangled_component_name":"_ZThn8_N7android8hardware11BpInterfaceINS0_8graphics11bufferqueue4V1_022IGraphicBufferProducerEE10onAsBinderEv"
    },
    {
     "kind":"vbase_offset",
     "component_value":184
    },
    {
     "kind":"offset_to_top",
     "component_value":-16
    },
    {
     "kind":"rtti",
     "mangled_component_name":"_ZTIN7android8hardware8graphics11bufferqueue4V1_025BpHwGraphicBufferProducerE"
    },
    {
     "kind":"complete_dtor_pointer",
     "mangled_component_name":"_ZThn16_N7android8hardware8graphics11bufferqueue4V1_025BpHwGraphicBufferProducerD1Ev"
    },
    {
     "kind":"deleting_dtor_pointer",
     "mangled_component_name":"_ZThn16_N7android8hardware8graphics11bufferqueue4V1_025BpHwGraphicBufferProducerD0Ev"
    },
    {
     "mangled_component_name":"_ZN7android8hardware11BpHwRefBase10onFirstRefEv"
    },
    {
     "mangled_component_name":"_ZN7android8hardware11BpHwRefBase15onLastStrongRefEPKv"
    },
    {
     "mangled_component_name":"_ZN7android8hardware11BpHwRefBase20onIncStrongAttemptedEjPKv"
    },
    {
     "kind":"offset_to_top",
     "component_value":-48
    },
    {
     "kind":"rtti",
     "mangled_component_name":"_ZTIN7android8hardware8graphics11bufferqueue4V1_025BpHwGraphicBufferProducerE"
    },
    {
     "kind":"complete_dtor_pointer",
     "mangled_component_name":"_ZThn48_N7android8hardware8graphics11bufferqueue4V1_025BpHwGraphicBufferProducerD1Ev"
    },
    {
     "kind":"deleting_dtor_pointer",
     "mangled_component_name":"_ZThn48_N7android8hardware8graphics11bufferqueue4V1_025BpHwGraphicBufferProducerD0Ev"
    },
    {
     "kind":"vcall_offset"
    },
    {
     "kind":"vcall_offset",
     "component_value":-184
    },
    {
     "kind":"vcall_offset",
     "component_value":-184
    },
    {
     "kind":"vcall_offset",
     "component_value":-184
    },
    {
     "kind":"vcall_offset",
     "component_value":-200
    },
    {
     "kind":"offset_to_top",
     "component_value":-200
    },
    {
     "kind":"rtti",
     "mangled_component_name":"_ZTIN7android8hardware8graphics11bufferqueue4V1_025BpHwGraphicBufferProducerE"
    },
    {
     "kind":"complete_dtor_pointer",
     "mangled_component_name":"_ZTv0_n24_N7android8hardware8graphics11bufferqueue4V1_025BpHwGraphicBufferProducerD1Ev"
    },
    {
     "kind":"deleting_dtor_pointer",
     "mangled_component_name":"_ZTv0_n24_N7android8hardware8graphics11bufferqueue4V1_025BpHwGraphicBufferProducerD0Ev"
    },
    {
     "mangled_component_name":"_ZTv0_n32_N7android8hardware11BpHwRefBase10onFirstRefEv"
    },
    {
     "mangled_component_name":"_ZTv0_n40_N7android8hardware11BpHwRefBase15onLastStrongRefEPKv"
    },
    {
     "mangled_component_name":"_ZTv0_n48_N7android8hardware11BpHwRefBase20onIncStrongAttemptedEjPKv"
    },
    {
     "mangled_component_name":"_ZN7android7RefBase13onLastWeakRefEPKv"
    }
   ],
   "unique_id":"_ZTSN7android8hardware8graphics11bufferqueue4V1_025BpHwGraphicBufferProducerE"
  },
  {
   "vtable_components":[
    {
     "kind":"vbase_offset",
     "component_value":120
    },
    {
     "kind":"offset_to_top"
    },
    {
     "kind":"rtti",
     "mangled_component_name":"_ZTIN7android8hardware8graphics11bufferqueue4V1_023BsGraphicBufferProducerE"
    },
    {
     "mangled_component_name":"_ZNK7android8hardware8graphics11bufferqueue4V1_022IGraphicBufferProducer8isRemoteEv"
    },
    {
     "mangled_component_name":"_ZN7android8hardware8graphics11bufferqueue4V1_023BsGraphicBufferProducer14interfaceChainENSt3__18functionIFvRKNS0_8hidl_vecINS0_11hidl_stringEEEEEE"
    },
    {
     "mangled_component_name":"_ZN7android8hardware8graphics11bufferqueue4V1_023BsGraphicBufferProducer5debugERKNS0_11hidl_handleERKNS0_8hidl_vecINS0_11hidl_stringEEE"
    },
    {
     "mangled_component_name":"_ZN7android8hardware8graphics11bufferqueue4V1_023BsGraphicBufferProducer19interfaceDescriptorENSt3__18functionIFvRKNS0_11hidl_stringEEEE"
    },
    {
     "mangled_component_name":"_ZN7android8hardware8graphics11bufferqueue4V1_023BsGraphicBufferProducer12getHashChainENSt3__18functionIFvRKNS0_8hidl_vecINS0_10hidl_arrayIhLm32EJEEEEEEEE"
    },
    {
     "mangled_component_name":"_ZN7android8hardware8graphics11bufferqueue4V1_023BsGraphicBufferProducer21setHALInstrumentationEv"
    },
    {
     "mangled_component_name":"_ZN7android8hardware8graphics11bufferqueue4V1_023BsGraphicBufferProducer11linkToDeathERKNS_2spINS0_20hidl_death_recipientEEEm"
    },
    {
     "mangled_component_name":"_ZN7android8hardware8graphics11bufferqueue4V1_023BsGraphicBufferProducer4pingEv"
    },
    {
     "mangled_component_name":"_ZN7android8hardware8graphics11bufferqueue4V1_023BsGraphicBufferProducer12getDebugInfoENSt3__18functionIFvRKNS_4hidl4base4V1_09DebugInfoEEEE"
    },
    {
     "mangled_component_name":"_ZN7android8hardware8graphics11bufferqueue4V1_023BsGraphicBufferProducer21notifySyspropsChangedEv"
    },
    {
     "mangled_component_name":"_ZN7android8hardware8graphics11bufferqueue4V1_023BsGraphicBufferProducer13unlinkToDeathERKNS_2spINS0_20hidl_death_recipientEEE"
    },
    {
     "kind":"complete_dtor_pointer",
     "mangled_component_name":"_ZN7android8hardware8graphics11bufferqueue4V1_023BsGraphicBufferProducerD1Ev"
    },
    {
     "kind":"deleting_dtor_pointer",
     "mangled_component_name":"_ZN7android8hardware8graphics11bufferqueue4V1_023BsGraphicBufferProducerD0Ev"
    },
    {
     "mangled_component_name":"_ZN7android8hardware8graphics11bufferqueue4V1_023BsGraphicBufferProducer13requestBufferEiNSt3__18functionIFviRKNS0_5media4V1_09AnwBufferEEEE"
    },
    {
     "mangled_component_name":"_ZN7android8hardware8graphics11bufferqueue4V1_023BsGraphicBufferProducer25setMaxDequeuedBufferCountEi"
    },
    {
     "mangled_component_name":"_ZN7android8hardware8graphics11bufferqueue4V1_023BsGraphicBufferProducer12setAsyncModeEb"
    },
    {
     "mangled_component_name":"_ZN7android8hardware8graphics11bufferqueue4V1_023BsGraphicBufferProducer13dequeueBufferEjjNS1_6common4V1_011PixelFormatEjbNSt3__18functionIFviiRKNS0_11hidl_handleERKNS3_22IGraphicBufferProducer22FrameEventHistoryDeltaEEEE"
    },
    {
     "mangled_component_name":"_ZN7android8hardware8graphics11bufferqueue4V1_023BsGraphicBufferProducer12detachBufferEi"
    },
    {
     "mangled_component_name":"_ZN7android8hardware8graphics11bufferqueue4V1_023BsGraphicBufferProducer16detachNextBufferENSt3__18functionIFviRKNS0_5media4V1_09AnwBufferERKNS0_11hidl_handleEEEE"
    },
    {
     "mangled_component_name":"_ZN7android8hardware8graphics11bufferqueue4V1_023BsGraphicBufferProducer12attachBufferERKNS0_5media4V1_09AnwBufferENSt3__18functionIFviiEEE"
    },
    {
     "mangled_component_name":"_ZN7android8hardware8graphics11bufferqueue4V1_023BsGraphicBufferProducer11queueBufferEiRKNS3_22IGraphicBufferProducer16QueueBufferInputENSt3__18functionIFviRKNS5_17QueueBufferOutputEEEE"
    },
    {
     "mangled_component_name":"_ZN7android8hardware8graphics11bufferqueue4V1_023BsGraphicBufferProducer12cancelBufferEiRKNS0_11hidl_handleE"
    },
    {
     "mangled_component_name":"_ZN7android8hardware8graphics11bufferqueue4V1_023BsGraphicBufferProducer5queryEiNSt3__18functionIFviiEEE"
    },
    {
     "mangled_component_name":"_ZN7android8hardware8graphics11bufferqueue4V1_023BsGraphicBufferProducer7connectERKNS_2spINS3_17IProducerListenerEEEibNSt3__18functionIFviRKNS3_22IGraphicBufferProducer17QueueBufferOutputEEEE"
    },
    {
     "mangled_component_name":"_ZN7android8hardware8graphics11bufferqueue4V1_023BsGraphicBufferProducer10disconnectEiNS3_22IGraphicBufferProducer14DisconnectModeE"
    },
    {
     "mangled_component_name":"_ZN7android8hardware8graphics11bufferqueue4V1_023BsGraphicBufferProducer17setSidebandStreamERKNS0_11hidl_handleE"
    },
    {
     "mangled_component_name":"_ZN7android8hardware8graphics11bufferqueue4V1_023BsGraphicBufferProducer15allocateBuffersEjjNS1_6common4V1_011PixelFormatEj"
    },
    {
     "mangled_component_name":"_ZN7android8hardware8graphics11bufferqueue4V1_023BsGraphicBufferProducer15allowAllocationEb"
    },
    {
     "mangled_component_name":"_ZN7android8hardware8graphics11bufferqueue4V1_023BsGraphicBufferProducer19setGenerationNumberEj"
    },
    {
     "mangled_component_name":"_ZN7android8hardware8graphics11bufferqueue4V1_023BsGraphicBufferProducer15getConsumerNameENSt3__18functionIFvRKNS0_11hidl_stringEEEE"
    },
    {
     "mangled_component_name":"_ZN7android8hardware8graphics11bufferqueue4V1_023BsGraphicBufferProducer19setSharedBufferModeEb"
    },
    {
     "mangled_component_name":"_ZN7android8hardware8graphics11bufferqueue4V1_023BsGraphicBufferProducer14setAutoRefreshEb"
    },
    {
     "mangled_component_name":"_ZN7android8hardware8graphics11bufferqueue4V1_023BsGraphicBufferProducer17setDequeueTimeoutEl"
    },
    {
     "mangled_component_name":"_ZN7android8hardware8graphics11bufferqueue4V1_023BsGraphicBufferProducer19getLastQueuedBufferENSt3__18functionIFviRKNS0_5media4V1_09AnwBufferERKNS0_11hidl_handleERKNS0_10hidl_arrayIfLm16EJEEEEEE"
    },
    {
     "mangled_component_name":"_ZN7android8hardware8graphics11bufferqueue4V1_023BsGraphicBufferProducer18getFrameTimestampsENSt3__18functionIFvRKNS3_22IGraphicBufferProducer22FrameEventHistoryDeltaEEEE"
    },
    {
     "mangled_component_name":"_ZN7android8hardware8graphics11bufferqueue4V1_023BsGraphicBufferProducer11getUniqueIdENSt3__18functionIFvimEEE"
    },
    {
     "kind":"offset_to_top",
     "component_value":-8
    },
    {
     "kind":"rtti",
     "mangled_component_name":"_ZTIN7android8hardware8graphics11bufferqueue4V1_023BsGraphicBufferProducerE"
    },
    {
     "kind":"complete_dtor_pointer",
     "mangled_component_name":"_ZThn8_N7android8hardware8graphics11bufferqueue4V1_023BsGraphicBufferProducerD1Ev"
    },
    {
     "kind":"deleting_dtor_pointer",
     "mangled_component_name":"_ZThn8_N7android8hardware8graphics11bufferqueue4V1_023BsGraphicBufferProducerD0Ev"
    },
    {
     "kind":"vcall_offset"
    },
    {
     "kind":"vcall_offset"
    },
    {
     "kind":"vcall_offset"
    },
    {
     "kind":"vcall_offset"
    },
    {
     "kind":"vcall_offset",
     "component_value":-120
    },
    {
     "kind":"offset_to_top",
     "component_value":-120
    },
    {
     "kind":"rtti",
     "mangled_component_name":"_ZTIN7android8hardware8graphics11bufferqueue4V1_023BsGraphicBufferProducerE"
    },
    {
     "kind":"complete_dtor_pointer",
     "mangled_component_name":"_ZTv0_n24_N7android8hardware8graphics11bufferqueue4V1_023BsGraphicBufferProducerD1Ev"
    },
    {
     "kind":"deleting_dtor_pointer",
     "mangled_component_name":"_ZTv0_n24_N7android8hardware8graphics11bufferqueue4V1_023BsGraphicBufferProducerD0Ev"
    },
    {
     "mangled_component_name":"_ZN7android7RefBase10onFirstRefEv"
    },
    {
     "mangled_component_name":"_ZN7android7RefBase15onLastStrongRefEPKv"
    },
    {
     "mangled_component_name":"_ZN7android7RefBase20onIncStrongAttemptedEjPKv"
    },
    {
     "mangled_component_name":"_ZN7android7RefBase13onLastWeakRefEPKv"
    }
   ],
   "unique_id":"_ZTSN7android8hardware8graphics11bufferqueue4V1_023BsGraphicBufferProducerE"
  },
  {
   "vtable_components":[
    {
     "kind":"vbase_offset",
     "component_value":120
    },
    {
     "kind":"offset_to_top"
    },
    {
     "kind":"rtti",
     "mangled_component_name":"_ZTIN7android8hardware8graphics11bufferqueue4V1_018BsProducerListenerE"
    },
    {
     "mangled_component_name":"_ZNK7android8hardware8graphics11bufferqueue4V1_017IProducerListener8isRemoteEv"
    },
    {
     "mangled_component_name":"_ZN7android8hardware8graphics11bufferqueue4V1_018BsProducerListener14interfaceChainENSt3__18functionIFvRKNS0_8hidl_vecINS0_11hidl_stringEEEEEE"
    },
    {
     "mangled_component_name":"_ZN7android8hardware8graphics11bufferqueue4V1_018BsProducerListener5debugERKNS0_11hidl_handleERKNS0_8hidl_vecINS0_11hidl_stringEEE"
    },
    {
     "mangled_component_name":"_ZN7android8hardware8graphics11bufferqueue4V1_018BsProducerListener19interfaceDescriptorENSt3__18functionIFvRKNS0_11hidl_stringEEEE"
    },
    {
     "mangled_component_name":"_ZN7android8hardware8graphics11bufferqueue4V1_018BsProducerListener12getHashChainENSt3__18functionIFvRKNS0_8hidl_vecINS0_10hidl_arrayIhLm32EJEEEEEEEE"
    },
    {
     "mangled_component_name":"_ZN7android8hardware8graphics11bufferqueue4V1_018BsProducerListener21setHALInstrumentationEv"
    },
    {
     "mangled_component_name":"_ZN7android8hardware8graphics11bufferqueue4V1_018BsProducerListener11linkToDeathERKNS_2spINS0_20hidl_death_recipientEEEm"
    },
    {
     "mangled_component_name":"_ZN7android8hardware8graphics11bufferqueue4V1_018BsProducerListener4pingEv"
    },
    {
     "mangled_component_name":"_ZN7android8hardware8graphics11bufferqueue4V1_018BsProducerListener12getDebugInfoENSt3__18functionIFvRKNS_4hidl4base4V1_09DebugInfoEEEE"
    },
    {
     "mangled_component_name":"_ZN7android8hardware8graphics11bufferqueue4V1_018BsProducerListener21notifySyspropsChangedEv"
    },
    {
     "mangled_component_name":"_ZN7android8hardware8graphics11bufferqueue4V1_018BsProducerListener13unlinkToDeathERKNS_2spINS0_20hidl_death_recipientEEE"
    },
    {
     "kind":"complete_dtor_pointer",
     "mangled_component_name":"_ZN7android8hardware8graphics11bufferqueue4V1_018BsProducerListenerD1Ev"
    },
    {
     "kind":"deleting_dtor_pointer",
     "mangled_component_name":"_ZN7android8hardware8graphics11bufferqueue4V1_018BsProducerListenerD0Ev"
    },
    {
     "mangled_component_name":"_ZN7android8hardware8graphics11bufferqueue4V1_018BsProducerListener16onBufferReleasedEv"
    },
    {
     "mangled_component_name":"_ZN7android8hardware8graphics11bufferqueue4V1_018BsProducerListener18needsReleaseNotifyEv"
    },
    {
     "kind":"offset_to_top",
     "component_value":-8
    },
    {
     "kind":"rtti",
     "mangled_component_name":"_ZTIN7android8hardware8graphics11bufferqueue4V1_018BsProducerListenerE"
    },
    {
     "kind":"complete_dtor_pointer",
     "mangled_component_name":"_ZThn8_N7android8hardware8graphics11bufferqueue4V1_018BsProducerListenerD1Ev"
    },
    {
     "kind":"deleting_dtor_pointer",
     "mangled_component_name":"_ZThn8_N7android8hardware8graphics11bufferqueue4V1_018BsProducerListenerD0Ev"
    },
    {
     "kind":"vcall_offset"
    },
    {
     "kind":"vcall_offset"
    },
    {
     "kind":"vcall_offset"
    },
    {
     "kind":"vcall_offset"
    },
    {
     "kind":"vcall_offset",
     "component_value":-120
    },
    {
     "kind":"offset_to_top",
     "component_value":-120
    },
    {
     "kind":"rtti",
     "mangled_component_name":"_ZTIN7android8hardware8graphics11bufferqueue4V1_018BsProducerListenerE"
    },
    {
     "kind":"complete_dtor_pointer",
     "mangled_component_name":"_ZTv0_n24_N7android8hardware8graphics11bufferqueue4V1_018BsProducerListenerD1Ev"
    },
    {
     "kind":"deleting_dtor_pointer",
     "mangled_component_name":"_ZTv0_n24_N7android8hardware8graphics11bufferqueue4V1_018BsProducerListenerD0Ev"
    },
    {
     "mangled_component_name":"_ZN7android7RefBase10onFirstRefEv"
    },
    {
     "mangled_component_name":"_ZN7android7RefBase15onLastStrongRefEPKv"
    },
    {
     "mangled_component_name":"_ZN7android7RefBase20onIncStrongAttemptedEjPKv"
    },
    {
     "mangled_component_name":"_ZN7android7RefBase13onLastWeakRefEPKv"
    }
   ],
   "unique_id":"_ZTSN7android8hardware8graphics11bufferqueue4V1_018BsProducerListenerE"
  }
 ],
 "elf_functions":[
  {
   "binding":"weak",
   "name":"_ZN7android8hardware10fromBinderINS0_8graphics11bufferqueue4V1_017IProducerListenerENS4_20BpHwProducerListenerENS4_20BnHwProducerListenerEEENS_2spIT_EERKNS8_INS0_7IBinderEEE"
  },
  {
   "binding":"weak",
   "name":"_ZN7android8hardware7details13castInterfaceINS0_8graphics11bufferqueue4V1_017IProducerListenerENS_4hidl4base4V1_05IBaseENS5_20BpHwProducerListenerEEENS0_6ReturnINS_2spIT_EEEENSD_IT0_EEPKcb"
  },
  {
   "binding":"weak",
   "name":"_ZN7android8hardware7details13castInterfaceINS0_8graphics11bufferqueue4V1_022IGraphicBufferProducerENS_4hidl4base4V1_05IBaseENS5_25BpHwGraphicBufferProducerEEENS0_6ReturnINS_2spIT_EEEENSD_IT0_EEPKcb"
  },
  {
   "binding":"weak",
   "name":"_ZN7android8hardware7details15wrapPassthroughINS0_8graphics11bufferqueue4V1_017IProducerListenerEvEENS_2spIT_EES9_"
  },
  {
   "binding":"weak",
   "name":"_ZN7android8hardware7details18getServiceInternalINS0_8graphics11bufferqueue4V1_020BpHwProducerListenerENS5_17IProducerListenerEvvEENS_2spIT0_EERKNSt3__112basic_stringIcNSB_11char_traitsIcEENSB_9allocatorIcEEEEbb"
  },
  {
   "binding":"weak",
   "name":"_ZN7android8hardware7details18getServiceInternalINS0_8graphics11bufferqueue4V1_025BpHwGraphicBufferProducerENS5_22IGraphicBufferProducerEvvEENS_2spIT0_EERKNSt3__112basic_stringIcNSB_11char_traitsIcEENSB_9allocatorIcEEEEbb"
  },
  {
   "name":"_ZN7android8hardware8graphics11bufferqueue4V1_017IProducerListener10getServiceERKNSt3__112basic_stringIcNS5_11char_traitsIcEENS5_9allocatorIcEEEEb"
  },
  {
   "name":"_ZN7android8hardware8graphics11bufferqueue4V1_017IProducerListener11linkToDeathERKNS_2spINS0_20hidl_death_recipientEEEm"
  },
  {
   "name":"_ZN7android8hardware8graphics11bufferqueue4V1_017IProducerListener12getDebugInfoENSt3__18functionIFvRKNS_4hidl4base4V1_09DebugInfoEEEE"
  },
  {
   "name":"_ZN7android8hardware8graphics11bufferqueue4V1_017IProducerListener12getHashChainENSt3__18functionIFvRKNS0_8hidl_vecINS0_10hidl_arrayIhLm32EJEEEEEEEE"
  },
  {
   "name":"_ZN7android8hardware8graphics11bufferqueue4V1_017IProducerListener13tryGetServiceERKNSt3__112basic_stringIcNS5_11char_traitsIcEENS5_9allocatorIcEEEEb"
  },
  {
   "name":"_ZN7android8hardware8graphics11bufferqueue4V1_017IProducerListener13unlinkToDeathERKNS_2spINS0_20hidl_death_recipientEEE"
  },
  {
   "name":"_ZN7android8hardware8graphics11bufferqueue4V1_017IProducerListener14interfaceChainENSt3__18functionIFvRKNS0_8hidl_vecINS0_11hidl_stringEEEEEE"
  },
  {
   "name":"_ZN7android8hardware8graphics11bufferqueue4V1_017IProducerListener17registerAsServiceERKNSt3__112basic_stringIcNS5_11char_traitsIcEENS5_9allocatorIcEEEE"
  },
  {
   "name":"_ZN7android8hardware8graphics11bufferqueue4V1_017IProducerListener19interfaceDescriptorENSt3__18functionIFvRKNS0_11hidl_stringEEEE"
  },
  {
   "name":"_ZN7android8hardware8graphics11bufferqueue4V1_017IProducerListener21notifySyspropsChangedEv"
  },
  {
   "name":"_ZN7android8hardware8graphics11bufferqueue4V1_017IProducerListener21setHALInstrumentationEv"
  },
  {
   "name":"_ZN7android8hardware8graphics11bufferqueue4V1_017IProducerListener24registerForNotificationsERKNSt3__112basic_stringIcNS5_11char_traitsIcEENS5_9allocatorIcEEEERKNS_2spINS_4hidl7manager4V1_020IServiceNotificationEEE"
  },
  {
   "name":"_ZN7android8hardware8graphics11bufferqueue4V1_017IProducerListener4pingEv"
  },
  {
   "name":"_ZN7android8hardware8graphics11bufferqueue4V1_017IProducerListener5debugERKNS0_11hidl_handleERKNS0_8hidl_vecINS0_11hidl_stringEEE"
  },
  {
   "name":"_ZN7android8hardware8graphics11bufferqueue4V1_017IProducerListener8castFromERKNS_2spINS_4hidl4base4V1_05IBaseEEEb"
  },
  {
   "name":"_ZN7android8hardware8graphics11bufferqueue4V1_017IProducerListener8castFromERKNS_2spIS4_EEb"
  },
  {
   "name":"_ZN7android8hardware8graphics11bufferqueue4V1_018BsProducerListener13addOnewayTaskENSt3__18functionIFvvEEE"
  },
  {
   "name":"_ZN7android8hardware8graphics11bufferqueue4V1_018BsProducerListenerC1ENS_2spINS3_17IProducerListenerEEE"
  },
  {
   "name":"_ZN7android8hardware8graphics11bufferqueue4V1_018BsProducerListenerC2ENS_2spINS3_17IProducerListenerEEE"
  },
  {
   "name":"_ZN7android8hardware8graphics11bufferqueue4V1_020BnHwProducerListener10onTransactEjRKNS0_6ParcelEPS5_jNSt3__18functionIFvRS5_EEE"
  },
  {
   "name":"_ZN7android8hardware8graphics11bufferqueue4V1_020BnHwProducerListener12getDebugInfoENSt3__18functionIFvRKNS_4hidl4base4V1_09DebugInfoEEEE"
  },
  {
   "name":"_ZN7android8hardware8graphics11bufferqueue4V1_020BnHwProducerListener22_hidl_onBufferReleasedEPNS_4hidl4base4V1_08BnHwBaseERKNS0_6ParcelEPSA_NSt3__18functionIFvRSA_EEE"
  },
  {
   "name":"_ZN7android8hardware8graphics11bufferqueue4V1_020BnHwProducerListener24_hidl_needsReleaseNotifyEPNS_4hidl4base4V1_08BnHwBaseERKNS0_6ParcelEPSA_NSt3__18functionIFvRSA_EEE"
  },
  {
   "name":"_ZN7android8hardware8graphics11bufferqueue4V1_020BnHwProducerListener4pingEv"
  },
  {
   "name":"_ZN7android8hardware8graphics11bufferqueue4V1_020BnHwProducerListenerC1ERKNS_2spINS3_17IProducerListenerEEE"
  },
  {
   "name":"_ZN7android8hardware8graphics11bufferqueue4V1_020BnHwProducerListenerC2ERKNS_2spINS3_17IProducerListenerEEE"
  },
  {
   "name":"_ZN7android8hardware8graphics11bufferqueue4V1_020BnHwProducerListenerD0Ev"
  },
  {
   "name":"_ZN7android8hardware8graphics11bufferqueue4V1_020BnHwProducerListenerD1Ev"
  },
  {
   "name":"_ZN7android8hardware8graphics11bufferqueue4V1_020BnHwProducerListenerD2Ev"
  },
  {
   "name":"_ZN7android8hardware8graphics11bufferqueue4V1_020BpHwProducerListener11linkToDeathERKNS_2spINS0_20hidl_death_recipientEEEm"
  },
  {
   "name":"_ZN7android8hardware8graphics11bufferqueue4V1_020BpHwProducerListener12getDebugInfoENSt3__18functionIFvRKNS_4hidl4base4V1_09DebugInfoEEEE"
  },
  {
   "name":"_ZN7android8hardware8graphics11bufferqueue4V1_020BpHwProducerListener12getHashChainENSt3__18functionIFvRKNS0_8hidl_vecINS0_10hidl_arrayIhLm32EJEEEEEEEE"
  },
  {
   "name":"_ZN7android8hardware8graphics11bufferqueue4V1_020BpHwProducerListener13unlinkToDeathERKNS_2spINS0_20hidl_death_recipientEEE"
  },
  {
   "name":"_ZN7android8hardware8graphics11bufferqueue4V1_020BpHwProducerListener14interfaceChainENSt3__18functionIFvRKNS0_8hidl_vecINS0_11hidl_stringEEEEEE"
  },
  {
   "name":"_ZN7android8hardware8graphics11bufferqueue4V1_020BpHwProducerListener16onBufferReleasedEv"
  },
  {
   "name":"_ZN7android8hardware8graphics11bufferqueue4V1_020BpHwProducerListener18needsReleaseNotifyEv"
  },
  {
   "name":"_ZN7android8hardware8graphics11bufferqueue4V1_020BpHwProducerListener19interfaceDescriptorENSt3__18functionIFvRKNS0_11hidl_stringEEEE"
  },
  {
   "name":"_ZN7android8hardware8graphics11bufferqueue4V1_020BpHwProducerListener21notifySyspropsChangedEv"
  },
  {
   "name":"_ZN7android8hardware8graphics11bufferqueue4V1_020BpHwProducerListener21setHALInstrumentationEv"
  },
  {
   "name":"_ZN7android8hardware8graphics11bufferqueue4V1_020BpHwProducerListener22_hidl_onBufferReleasedEPNS0_10IInterfaceEPNS0_7details16HidlInstrumentorE"
  },
  {
   "name":"_ZN7android8hardware8graphics11bufferqueue4V1_020BpHwProducerListener24_hidl_needsReleaseNotifyEPNS0_10IInterfaceEPNS0_7details16HidlInstrumentorE"
  },
  {
   "name":"_ZN7android8hardware8graphics11bufferqueue4V1_020BpHwProducerListener4pingEv"
  },
  {
   "name":"_ZN7android8hardware8graphics11bufferqueue4V1_020BpHwProducerListener5debugERKNS0_11hidl_handleERKNS0_8hidl_vecINS0_11hidl_stringEEE"
  },
  {
   "name":"_ZN7android8hardware8graphics11bufferqueue4V1_020BpHwProducerListenerC1ERKNS_2spINS0_7IBinderEEE"
  },
  {
   "name":"_ZN7android8hardware8graphics11bufferqueue4V1_020BpHwProducerListenerC2ERKNS_2spINS0_7IBinderEEE"
  },
  {
   "name":"_ZN7android8hardware8graphics11bufferqueue4V1_021writeEmbeddedToParcelERKNS3_22IGraphicBufferProducer16FrameEventsDeltaEPNS0_6ParcelEmm"
  },
  {
   "name":"_ZN7android8hardware8graphics11bufferqueue4V1_021writeEmbeddedToParcelERKNS3_22IGraphicBufferProducer16QueueBufferInputEPNS0_6ParcelEmm"
  },
  {
   "name":"_ZN7android8hardware8graphics11bufferqueue4V1_021writeEmbeddedToParcelERKNS3_22IGraphicBufferProducer17FenceTimeSnapshotEPNS0_6ParcelEmm"
  },
  {
   "name":"_ZN7android8hardware8graphics11bufferqueue4V1_021writeEmbeddedToParcelERKNS3_22IGraphicBufferProducer17QueueBufferOutputEPNS0_6ParcelEmm"
  },
  {
   "name":"_ZN7android8hardware8graphics11bufferqueue4V1_021writeEmbeddedToParcelERKNS3_22IGraphicBufferProducer22FrameEventHistoryDeltaEPNS0_6ParcelEmm"
  },
  {
   "name":"_ZN7android8hardware8graphics11bufferqueue4V1_022IGraphicBufferProducer10getServiceERKNSt3__112basic_stringIcNS5_11char_traitsIcEENS5_9allocatorIcEEEEb"
  },
  {
   "name":"_ZN7android8hardware8graphics11bufferqueue4V1_022IGraphicBufferProducer11linkToDeathERKNS_2spINS0_20hidl_death_recipientEEEm"
  },
  {
   "name":"_ZN7android8hardware8graphics11bufferqueue4V1_022IGraphicBufferProducer12getDebugInfoENSt3__18functionIFvRKNS_4hidl4base4V1_09DebugInfoEEEE"
  },
  {
   "name":"_ZN7android8hardware8graphics11bufferqueue4V1_022IGraphicBufferProducer12getHashChainENSt3__18functionIFvRKNS0_8hidl_vecINS0_10hidl_arrayIhLm32EJEEEEEEEE"
  },
  {
   "name":"_ZN7android8hardware8graphics11bufferqueue4V1_022IGraphicBufferProducer13tryGetServiceERKNSt3__112basic_stringIcNS5_11char_traitsIcEENS5_9allocatorIcEEEEb"
  },
  {
   "name":"_ZN7android8hardware8graphics11bufferqueue4V1_022IGraphicBufferProducer13unlinkToDeathERKNS_2spINS0_20hidl_death_recipientEEE"
  },
  {
   "name":"_ZN7android8hardware8graphics11bufferqueue4V1_022IGraphicBufferProducer14interfaceChainENSt3__18functionIFvRKNS0_8hidl_vecINS0_11hidl_stringEEEEEE"
  },
  {
   "name":"_ZN7android8hardware8graphics11bufferqueue4V1_022IGraphicBufferProducer17registerAsServiceERKNSt3__112basic_stringIcNS5_11char_traitsIcEENS5_9allocatorIcEEEE"
  },
  {
   "name":"_ZN7android8hardware8graphics11bufferqueue4V1_022IGraphicBufferProducer19interfaceDescriptorENSt3__18functionIFvRKNS0_11hidl_stringEEEE"
  },
  {
   "name":"_ZN7android8hardware8graphics11bufferqueue4V1_022IGraphicBufferProducer21notifySyspropsChangedEv"
  },
  {
   "name":"_ZN7android8hardware8graphics11bufferqueue4V1_022IGraphicBufferProducer21setHALInstrumentationEv"
  },
  {
   "name":"_ZN7android8hardware8graphics11bufferqueue4V1_022IGraphicBufferProducer24registerForNotificationsERKNSt3__112basic_stringIcNS5_11char_traitsIcEENS5_9allocatorIcEEEERKNS_2spINS_4hidl7manager4V1_020IServiceNotificationEEE"
  },
  {
   "name":"_ZN7android8hardware8graphics11bufferqueue4V1_022IGraphicBufferProducer4pingEv"
  },
  {
   "name":"_ZN7android8hardware8graphics11bufferqueue4V1_022IGraphicBufferProducer5debugERKNS0_11hidl_handleERKNS0_8hidl_vecINS0_11hidl_stringEEE"
  },
  {
   "name":"_ZN7android8hardware8graphics11bufferqueue4V1_022IGraphicBufferProducer8castFromERKNS_2spINS_4hidl4base4V1_05IBaseEEEb"
  },
  {
   "name":"_ZN7android8hardware8graphics11bufferqueue4V1_022IGraphicBufferProducer8castFromERKNS_2spIS4_EEb"
  },
  {
   "name":"_ZN7android8hardware8graphics11bufferqueue4V1_022readEmbeddedFromParcelERKNS3_22IGraphicBufferProducer16FrameEventsDeltaERKNS0_6ParcelEmm"
  },
  {
   "name":"_ZN7android8hardware8graphics11bufferqueue4V1_022readEmbeddedFromParcelERKNS3_22IGraphicBufferProducer16QueueBufferInputERKNS0_6ParcelEmm"
  },
  {
   "name":"_ZN7android8hardware8graphics11bufferqueue4V1_022readEmbeddedFromParcelERKNS3_22IGraphicBufferProducer17FenceTimeSnapshotERKNS0_6ParcelEmm"
  },
  {
   "name":"_ZN7android8hardware8graphics11bufferqueue4V1_022readEmbeddedFromParcelERKNS3_22IGraphicBufferProducer17QueueBufferOutputERKNS0_6ParcelEmm"
  },
  {
   "name":"_ZN7android8hardware8graphics11bufferqueue4V1_022readEmbeddedFromParcelERKNS3_22IGraphicBufferProducer22FrameEventHistoryDeltaERKNS0_6ParcelEmm"
  },
  {
   "name":"_ZN7android8hardware8graphics11bufferqueue4V1_023BsGraphicBufferProducer13addOnewayTaskENSt3__18functionIFvvEEE"
  },
  {
   "name":"_ZN7android8hardware8graphics11bufferqueue4V1_023BsGraphicBufferProducerC1ENS_2spINS3_22IGraphicBufferProducerEEE"
  },
  {
   "name":"_ZN7android8hardware8graphics11bufferqueue4V1_023BsGraphicBufferProducerC2ENS_2spINS3_22IGraphicBufferProducerEEE"
  },
  {
   "name":"_ZN7android8hardware8graphics11bufferqueue4V1_025BnHwGraphicBufferProducer10onTransactEjRKNS0_6ParcelEPS5_jNSt3__18functionIFvRS5_EEE"
  },
  {
   "name":"_ZN7android8hardware8graphics11bufferqueue4V1_025BnHwGraphicBufferProducer11_hidl_queryEPNS_4hidl4base4V1_08BnHwBaseERKNS0_6ParcelEPSA_NSt3__18functionIFvRSA_EEE"
  },
  {
   "name":"_ZN7android8hardware8graphics11bufferqueue4V1_025BnHwGraphicBufferProducer12getDebugInfoENSt3__18functionIFvRKNS_4hidl4base4V1_09DebugInfoEEEE"
  },
  {
   "name":"_ZN7android8hardware8graphics11bufferqueue4V1_025BnHwGraphicBufferProducer13_hidl_connectEPNS_4hidl4base4V1_08BnHwBaseERKNS0_6ParcelEPSA_NSt3__18functionIFvRSA_EEE"
  },
  {
   "name":"_ZN7android8hardware8graphics11bufferqueue4V1_025BnHwGraphicBufferProducer16_hidl_disconnectEPNS_4hidl4base4V1_08BnHwBaseERKNS0_6ParcelEPSA_NSt3__18functionIFvRSA_EEE"
  },
  {
   "name":"_ZN7android8hardware8graphics11bufferqueue4V1_025BnHwGraphicBufferProducer17_hidl_getUniqueIdEPNS_4hidl4base4V1_08BnHwBaseERKNS0_6ParcelEPSA_NSt3__18functionIFvRSA_EEE"
  },
  {
   "name":"_ZN7android8hardware8graphics11bufferqueue4V1_025BnHwGraphicBufferProducer17_hidl_queueBufferEPNS_4hidl4base4V1_08BnHwBaseERKNS0_6ParcelEPSA_NSt3__18functionIFvRSA_EEE"
  },
  {
   "name":"_ZN7android8hardware8graphics11bufferqueue4V1_025BnHwGraphicBufferProducer18_hidl_attachBufferEPNS_4hidl4base4V1_08BnHwBaseERKNS0_6ParcelEPSA_NSt3__18functionIFvRSA_EEE"
  },
  {
   "name":"_ZN7android8hardware8graphics11bufferqueue4V1_025BnHwGraphicBufferProducer18_hidl_cancelBufferEPNS_4hidl4base4V1_08BnHwBaseERKNS0_6ParcelEPSA_NSt3__18functionIFvRSA_EEE"
  },
  {
   "name":"_ZN7android8hardware8graphics11bufferqueue4V1_025BnHwGraphicBufferProducer18_hidl_detachBufferEPNS_4hidl4base4V1_08BnHwBaseERKNS0_6ParcelEPSA_NSt3__18functionIFvRSA_EEE"
  },
  {
   "name":"_ZN7android8hardware8graphics11bufferqueue4V1_025BnHwGraphicBufferProducer18_hidl_setAsyncModeEPNS_4hidl4base4V1_08BnHwBaseERKNS0_6ParcelEPSA_NSt3__18functionIFvRSA_EEE"
  },
  {
   "name":"_ZN7android8hardware8graphics11bufferqueue4V1_025BnHwGraphicBufferProducer19_hidl_dequeueBufferEPNS_4hidl4base4V1_08BnHwBaseERKNS0_6ParcelEPSA_NSt3__18functionIFvRSA_EEE"
  },
  {
   "name":"_ZN7android8hardware8graphics11bufferqueue4V1_025BnHwGraphicBufferProducer19_hidl_requestBufferEPNS_4hidl4base4V1_08BnHwBaseERKNS0_6ParcelEPSA_NSt3__18functionIFvRSA_EEE"
  },
  {
   "name":"_ZN7android8hardware8graphics11bufferqueue4V1_025BnHwGraphicBufferProducer20_hidl_setAutoRefreshEPNS_4hidl4base4V1_08BnHwBaseERKNS0_6ParcelEPSA_NSt3__18functionIFvRSA_EEE"
  },
  {
   "name":"_ZN7android8hardware8graphics11bufferqueue4V1_025BnHwGraphicBufferProducer21_hidl_allocateBuffersEPNS_4hidl4base4V1_08BnHwBaseERKNS0_6ParcelEPSA_NSt3__18functionIFvRSA_EEE"
  },
  {
   "name":"_ZN7android8hardware8graphics11bufferqueue4V1_025BnHwGraphicBufferProducer21_hidl_allowAllocationEPNS_4hidl4base4V1_08BnHwBaseERKNS0_6ParcelEPSA_NSt3__18functionIFvRSA_EEE"
  },
  {
   "name":"_ZN7android8hardware8graphics11bufferqueue4V1_025BnHwGraphicBufferProducer21_hidl_getConsumerNameEPNS_4hidl4base4V1_08BnHwBaseERKNS0_6ParcelEPSA_NSt3__18functionIFvRSA_EEE"
  },
  {
   "name":"_ZN7android8hardware8graphics11bufferqueue4V1_025BnHwGraphicBufferProducer22_hidl_detachNextBufferEPNS_4hidl4base4V1_08BnHwBaseERKNS0_6ParcelEPSA_NSt3__18functionIFvRSA_EEE"
  },
  {
   "name":"_ZN7android8hardware8graphics11bufferqueue4V1_025BnHwGraphicBufferProducer23_hidl_setDequeueTimeoutEPNS_4hidl4base4V1_08BnHwBaseERKNS0_6ParcelEPSA_NSt3__18functionIFvRSA_EEE"
  },
  {
   "name":"_ZN7android8hardware8graphics11bufferqueue4V1_025BnHwGraphicBufferProducer23_hidl_setSidebandStreamEPNS_4hidl4base4V1_08BnHwBaseERKNS0_6ParcelEPSA_NSt3__18functionIFvRSA_EEE"
  },
  {
   "name":"_ZN7android8hardware8graphics11bufferqueue4V1_025BnHwGraphicBufferProducer24_hidl_getFrameTimestampsEPNS_4hidl4base4V1_08BnHwBaseERKNS0_6ParcelEPSA_NSt3__18functionIFvRSA_EEE"
  },
  {
   "name":"_ZN7android8hardware8graphics11bufferqueue4V1_025BnHwGraphicBufferProducer25_hidl_getLastQueuedBufferEPNS_4hidl4base4V1_08BnHwBaseERKNS0_6ParcelEPSA_NSt3__18functionIFvRSA_EEE"
  },
  {
   "name":"_ZN7android8hardware8graphics11bufferqueue4V1_025BnHwGraphicBufferProducer25_hidl_setGenerationNumberEPNS_4hidl4base4V1_08BnHwBaseERKNS0_6ParcelEPSA_NSt3__18functionIFvRSA_EEE"
  },
  {
   "name":"_ZN7android8hardware8graphics11bufferqueue4V1_025BnHwGraphicBufferProducer25_hidl_setSharedBufferModeEPNS_4hidl4base4V1_08BnHwBaseERKNS0_6ParcelEPSA_NSt3__18functionIFvRSA_EEE"
  },
  {
   "name":"_ZN7android8hardware8graphics11bufferqueue4V1_025BnHwGraphicBufferProducer31_hidl_setMaxDequeuedBufferCountEPNS_4hidl4base4V1_08BnHwBaseERKNS0_6ParcelEPSA_NSt3__18functionIFvRSA_EEE"
  },
  {
   "name":"_ZN7android8hardware8graphics11bufferqueue4V1_025BnHwGraphicBufferProducer4pingEv"
  },
  {
   "name":"_ZN7android8hardware8graphics11bufferqueue4V1_025BnHwGraphicBufferProducerC1ERKNS_2spINS3_22IGraphicBufferProducerEEE"
  },
  {
   "name":"_ZN7android8hardware8graphics11bufferqueue4V1_025BnHwGraphicBufferProducerC2ERKNS_2spINS3_22IGraphicBufferProducerEEE"
  },
  {
   "name":"_ZN7android8hardware8graphics11bufferqueue4V1_025BnHwGraphicBufferProducerD0Ev"
  },
  {
   "name":"_ZN7android8hardware8graphics11bufferqueue4V1_025BnHwGraphicBufferProducerD1Ev"
  },
  {
   "name":"_ZN7android8hardware8graphics11bufferqueue4V1_025BnHwGraphicBufferProducerD2Ev"
  },
  {
   "name":"_ZN7android8hardware8graphics11bufferqueue4V1_025BpHwGraphicBufferProducer10disconnectEiNS3_22IGraphicBufferProducer14DisconnectModeE"
  },
  {
   "name":"_ZN7android8hardware8graphics11bufferqueue4V1_025BpHwGraphicBufferProducer11_hidl_queryEPNS0_10IInterfaceEPNS0_7details16HidlInstrumentorEiNSt3__18functionIFviiEEE"
  },
  {
   "name":"_ZN7android8hardware8graphics11bufferqueue4V1_025BpHwGraphicBufferProducer11getUniqueIdENSt3__18functionIFvimEEE"
  },
  {
   "name":"_ZN7android8hardware8graphics11bufferqueue4V1_025BpHwGraphicBufferProducer11linkToDeathERKNS_2spINS0_20hidl_death_recipientEEEm"
  },
  {
   "name":"_ZN7android8hardware8graphics11bufferqueue4V1_025BpHwGraphicBufferProducer11queueBufferEiRKNS3_22IGraphicBufferProducer16QueueBufferInputENSt3__18functionIFviRKNS5_17QueueBufferOutputEEEE"
  },
  {
   "name":"_ZN7android8hardware8graphics11bufferqueue4V1_025BpHwGraphicBufferProducer12attachBufferERKNS0_5media4V1_09AnwBufferENSt3__18functionIFviiEEE"
  },
  {
   "name":"_ZN7android8hardware8graphics11bufferqueue4V1_025BpHwGraphicBufferProducer12cancelBufferEiRKNS0_11hidl_handleE"
  },
  {
   "name":"_ZN7android8hardware8graphics11bufferqueue4V1_025BpHwGraphicBufferProducer12detachBufferEi"
  },
  {
   "name":"_ZN7android8hardware8graphics11bufferqueue4V1_025BpHwGraphicBufferProducer12getDebugInfoENSt3__18functionIFvRKNS_4hidl4base4V1_09DebugInfoEEEE"
  },
  {
   "name":"_ZN7android8hardware8graphics11bufferqueue4V1_025BpHwGraphicBufferProducer12getHashChainENSt3__18functionIFvRKNS0_8hidl_vecINS0_10hidl_arrayIhLm32EJEEEEEEEE"
  },
  {
   "name":"_ZN7android8hardware8graphics11bufferqueue4V1_025BpHwGraphicBufferProducer12setAsyncModeEb"
  },
  {
   "name":"_ZN7android8hardware8graphics11bufferqueue4V1_025BpHwGraphicBufferProducer13_hidl_connectEPNS0_10IInterfaceEPNS0_7details16HidlInstrumentorERKNS_2spINS3_17IProducerListenerEEEibNSt3__18functionIFviRKNS3_22IGraphicBufferProducer17QueueBufferOutputEEEE"
  },
  {
   "name":"_ZN7android8hardware8graphics11bufferqueue4V1_025BpHwGraphicBufferProducer13dequeueBufferEjjNS1_6common4V1_011PixelFormatEjbNSt3__18functionIFviiRKNS0_11hidl_handleERKNS3_22IGraphicBufferProducer22FrameEventHistoryDeltaEEEE"
  },
  {
   "name":"_ZN7android8hardware8graphics11bufferqueue4V1_025BpHwGraphicBufferProducer13requestBufferEiNSt3__18functionIFviRKNS0_5media4V1_09AnwBufferEEEE"
  },
  {
   "name":"_ZN7android8hardware8graphics11bufferqueue4V1_025BpHwGraphicBufferProducer13unlinkToDeathERKNS_2spINS0_20hidl_death_recipientEEE"
  },
  {
   "name":"_ZN7android8hardware8graphics11bufferqueue4V1_025BpHwGraphicBufferProducer14interfaceChainENSt3__18functionIFvRKNS0_8hidl_vecINS0_11hidl_stringEEEEEE"
  },
  {
   "name":"_ZN7android8hardware8graphics11bufferqueue4V1_025BpHwGraphicBufferProducer14setAutoRefreshEb"
  },
  {
   "name":"_ZN7android8hardware8graphics11bufferqueue4V1_025BpHwGraphicBufferProducer15allocateBuffersEjjNS1_6common4V1_011PixelFormatEj"
  },
  {
   "name":"_ZN7android8hardware8graphics11bufferqueue4V1_025BpHwGraphicBufferProducer15allowAllocationEb"
  },
  {
   "name":"_ZN7android8hardware8graphics11bufferqueue4V1_025BpHwGraphicBufferProducer15getConsumerNameENSt3__18functionIFvRKNS0_11hidl_stringEEEE"
  },
  {
   "name":"_ZN7android8hardware8graphics11bufferqueue4V1_025BpHwGraphicBufferProducer16_hidl_disconnectEPNS0_10IInterfaceEPNS0_7details16HidlInstrumentorEiNS3_22IGraphicBufferProducer14DisconnectModeE"
  },
  {
   "name":"_ZN7android8hardware8graphics11bufferqueue4V1_025BpHwGraphicBufferProducer16detachNextBufferENSt3__18functionIFviRKNS0_5media4V1_09AnwBufferERKNS0_11hidl_handleEEEE"
  },
  {
   "name":"_ZN7android8hardware8graphics11bufferqueue4V1_025BpHwGraphicBufferProducer17_hidl_getUniqueIdEPNS0_10IInterfaceEPNS0_7details16HidlInstrumentorENSt3__18functionIFvimEEE"
  },
  {
   "name":"_ZN7android8hardware8graphics11bufferqueue4V1_025BpHwGraphicBufferProducer17_hidl_queueBufferEPNS0_10IInterfaceEPNS0_7details16HidlInstrumentorEiRKNS3_22IGraphicBufferProducer16QueueBufferInputENSt3__18functionIFviRKNSA_17QueueBufferOutputEEEE"
  },
  {
   "name":"_ZN7android8hardware8graphics11bufferqueue4V1_025BpHwGraphicBufferProducer17setDequeueTimeoutEl"
  },
  {
   "name":"_ZN7android8hardware8graphics11bufferqueue4V1_025BpHwGraphicBufferProducer17setSidebandStreamERKNS0_11hidl_handleE"
  },
  {
   "name":"_ZN7android8hardware8graphics11bufferqueue4V1_025BpHwGraphicBufferProducer18_hidl_attachBufferEPNS0_10IInterfaceEPNS0_7details16HidlInstrumentorERKNS0_5media4V1_09AnwBufferENSt3__18functionIFviiEEE"
  },
  {
   "name":"_ZN7android8hardware8graphics11bufferqueue4V1_025BpHwGraphicBufferProducer18_hidl_cancelBufferEPNS0_10IInterfaceEPNS0_7details16HidlInstrumentorEiRKNS0_11hidl_handleE"
  },
  {
   "name":"_ZN7android8hardware8graphics11bufferqueue4V1_025BpHwGraphicBufferProducer18_hidl_detachBufferEPNS0_10IInterfaceEPNS0_7details16HidlInstrumentorEi"
  },
  {
   "name":"_ZN7android8hardware8graphics11bufferqueue4V1_025BpHwGraphicBufferProducer18_hidl_setAsyncModeEPNS0_10IInterfaceEPNS0_7details16HidlInstrumentorEb"
  },
  {
   "name":"_ZN7android8hardware8graphics11bufferqueue4V1_025BpHwGraphicBufferProducer18getFrameTimestampsENSt3__18functionIFvRKNS3_22IGraphicBufferProducer22FrameEventHistoryDeltaEEEE"
  },
  {
   "name":"_ZN7android8hardware8graphics11bufferqueue4V1_025BpHwGraphicBufferProducer19_hidl_dequeueBufferEPNS0_10IInterfaceEPNS0_7details16HidlInstrumentorEjjNS1_6common4V1_011PixelFormatEjbNSt3__18functionIFviiRKNS0_11hidl_handleERKNS3_22IGraphicBufferProducer22FrameEventHistoryDeltaEEEE"
  },
  {
   "name":"_ZN7android8hardware8graphics11bufferqueue4V1_025BpHwGraphicBufferProducer19_hidl_requestBufferEPNS0_10IInterfaceEPNS0_7details16HidlInstrumentorEiNSt3__18functionIFviRKNS0_5media4V1_09AnwBufferEEEE"
  },
  {
   "name":"_ZN7android8hardware8graphics11bufferqueue4V1_025BpHwGraphicBufferProducer19getLastQueuedBufferENSt3__18functionIFviRKNS0_5media4V1_09AnwBufferERKNS0_11hidl_handleERKNS0_10hidl_arrayIfLm16EJEEEEEE"
  },
  {
   "name":"_ZN7android8hardware8graphics11bufferqueue4V1_025BpHwGraphicBufferProducer19interfaceDescriptorENSt3__18functionIFvRKNS0_11hidl_stringEEEE"
  },
  {
   "name":"_ZN7android8hardware8graphics11bufferqueue4V1_025BpHwGraphicBufferProducer19setGenerationNumberEj"
  },
  {
   "name":"_ZN7android8hardware8graphics11bufferqueue4V1_025BpHwGraphicBufferProducer19setSharedBufferModeEb"
  },
  {
   "name":"_ZN7android8hardware8graphics11bufferqueue4V1_025BpHwGraphicBufferProducer20_hidl_setAutoRefreshEPNS0_10IInterfaceEPNS0_7details16HidlInstrumentorEb"
  },
  {
   "name":"_ZN7android8hardware8graphics11bufferqueue4V1_025BpHwGraphicBufferProducer21_hidl_allocateBuffersEPNS0_10IInterfaceEPNS0_7details16HidlInstrumentorEjjNS1_6common4V1_011PixelFormatEj"
  },
  {
   "name":"_ZN7android8hardware8graphics11bufferqueue4V1_025BpHwGraphicBufferProducer21_hidl_allowAllocationEPNS0_10IInterfaceEPNS0_7details16HidlInstrumentorEb"
  },
  {
   "name":"_ZN7android8hardware8graphics11bufferqueue4V1_025BpHwGraphicBufferProducer21_hidl_getConsumerNameEPNS0_10IInterfaceEPNS0_7details16HidlInstrumentorENSt3__18functionIFvRKNS0_11hidl_stringEEEE"
  },
  {
   "name":"_ZN7android8hardware8graphics11bufferqueue4V1_025BpHwGraphicBufferProducer21notifySyspropsChangedEv"
  },
  {
   "name":"_ZN7android8hardware8graphics11bufferqueue4V1_025BpHwGraphicBufferProducer21setHALInstrumentationEv"
  },
  {
   "name":"_ZN7android8hardware8graphics11bufferqueue4V1_025BpHwGraphicBufferProducer22_hidl_detachNextBufferEPNS0_10IInterfaceEPNS0_7details16HidlInstrumentorENSt3__18functionIFviRKNS0_5media4V1_09AnwBufferERKNS0_11hidl_handleEEEE"
  },
  {
   "name":"_ZN7android8hardware8graphics11bufferqueue4V1_025BpHwGraphicBufferProducer23_hidl_setDequeueTimeoutEPNS0_10IInterfaceEPNS0_7details16HidlInstrumentorEl"
  },
  {
   "name":"_ZN7android8hardware8graphics11bufferqueue4V1_025BpHwGraphicBufferProducer23_hidl_setSidebandStreamEPNS0_10IInterfaceEPNS0_7details16HidlInstrumentorERKNS0_11hidl_handleE"
  },
  {
   "name":"_ZN7android8hardware8graphics11bufferqueue4V1_025BpHwGraphicBufferProducer24_hidl_getFrameTimestampsEPNS0_10IInterfaceEPNS0_7details16HidlInstrumentorENSt3__18functionIFvRKNS3_22IGraphicBufferProducer22FrameEventHistoryDeltaEEEE"
  },
  {
   "name":"_ZN7android8hardware8graphics11bufferqueue4V1_025BpHwGraphicBufferProducer25_hidl_getLastQueuedBufferEPNS0_10IInterfaceEPNS0_7details16HidlInstrumentorENSt3__18functionIFviRKNS0_5media4V1_09AnwBufferERKNS0_11hidl_handleERKNS0_10hidl_arrayIfLm16EJEEEEEE"
  },
  {
   "name":"_ZN7android8hardware8graphics11bufferqueue4V1_025BpHwGraphicBufferProducer25_hidl_setGenerationNumberEPNS0_10IInterfaceEPNS0_7details16HidlInstrumentorEj"
  },
  {
   "name":"_ZN7android8hardware8graphics11bufferqueue4V1_025BpHwGraphicBufferProducer25_hidl_setSharedBufferModeEPNS0_10IInterfaceEPNS0_7details16HidlInstrumentorEb"
  },
  {
   "name":"_ZN7android8hardware8graphics11bufferqueue4V1_025BpHwGraphicBufferProducer25setMaxDequeuedBufferCountEi"
  },
  {
   "name":"_ZN7android8hardware8graphics11bufferqueue4V1_025BpHwGraphicBufferProducer31_hidl_setMaxDequeuedBufferCountEPNS0_10IInterfaceEPNS0_7details16HidlInstrumentorEi"
  },
  {
   "name":"_ZN7android8hardware8graphics11bufferqueue4V1_025BpHwGraphicBufferProducer4pingEv"
  },
  {
   "name":"_ZN7android8hardware8graphics11bufferqueue4V1_025BpHwGraphicBufferProducer5debugERKNS0_11hidl_handleERKNS0_8hidl_vecINS0_11hidl_stringEEE"
  },
  {
   "name":"_ZN7android8hardware8graphics11bufferqueue4V1_025BpHwGraphicBufferProducer5queryEiNSt3__18functionIFviiEEE"
  },
  {
   "name":"_ZN7android8hardware8graphics11bufferqueue4V1_025BpHwGraphicBufferProducer7connectERKNS_2spINS3_17IProducerListenerEEEibNSt3__18functionIFviRKNS3_22IGraphicBufferProducer17QueueBufferOutputEEEE"
  },
  {
   "name":"_ZN7android8hardware8graphics11bufferqueue4V1_025BpHwGraphicBufferProducerC1ERKNS_2spINS0_7IBinderEEE"
  },
  {
   "name":"_ZN7android8hardware8graphics11bufferqueue4V1_025BpHwGraphicBufferProducerC2ERKNS_2spINS0_7IBinderEEE"
  },
  {
   "binding":"weak",
   "name":"_ZN7android8hardware8toBinderINS0_8graphics11bufferqueue4V1_017IProducerListenerEvEENS_2spINS0_7IBinderEEENS6_IT_EE"
  },
  {
   "binding":"weak",
   "name":"_ZN7android8hardware8toBinderINS_4hidl4base4V1_05IBaseEvEENS_2spINS0_7IBinderEEENS6_IT_EE"
  },
  {
   "name":"_ZThn32_N7android8hardware8graphics11bufferqueue4V1_020BnHwProducerListenerD0Ev"
  },
  {
   "name":"_ZThn32_N7android8hardware8graphics11bufferqueue4V1_020BnHwProducerListenerD1Ev"
  },
  {
   "name":"_ZThn32_N7android8hardware8graphics11bufferqueue4V1_025BnHwGraphicBufferProducerD0Ev"
  },
  {
   "name":"_ZThn32_N7android8hardware8graphics11bufferqueue4V1_025BnHwGraphicBufferProducerD1Ev"
  },
  {
   "name":"_ZTv0_n24_N7android8hardware8graphics11bufferqueue4V1_020BnHwProducerListenerD0Ev"
  },
  {
   "name":"_ZTv0_n24_N7android8hardware8graphics11bufferqueue4V1_020BnHwProducerListenerD1Ev"
  },
  {
   "name":"_ZTv0_n24_N7android8hardware8graphics11bufferqueue4V1_025BnHwGraphicBufferProducerD0Ev"
  },
  {
   "name":"_ZTv0_n24_N7android8hardware8graphics11bufferqueue4V1_025BnHwGraphicBufferProducerD1Ev"
  }
 ],
 "elf_objects":[
  {
   "name":"_ZN7android8hardware8graphics11bufferqueue4V1_017IProducerListener10descriptorE"
  },
  {
   "name":"_ZN7android8hardware8graphics11bufferqueue4V1_022IGraphicBufferProducer10descriptorE"
  },
  {
   "name":"_ZTTN7android8hardware8graphics11bufferqueue4V1_017IProducerListenerE"
  },
  {
   "name":"_ZTTN7android8hardware8graphics11bufferqueue4V1_020BnHwProducerListenerE"
  },
  {
   "name":"_ZTTN7android8hardware8graphics11bufferqueue4V1_020BpHwProducerListenerE"
  },
  {
   "name":"_ZTTN7android8hardware8graphics11bufferqueue4V1_022IGraphicBufferProducerE"
  },
  {
   "name":"_ZTTN7android8hardware8graphics11bufferqueue4V1_025BnHwGraphicBufferProducerE"
  },
  {
   "name":"_ZTTN7android8hardware8graphics11bufferqueue4V1_025BpHwGraphicBufferProducerE"
  },
  {
   "name":"_ZTVN7android8hardware8graphics11bufferqueue4V1_017IProducerListenerE"
  },
  {
   "binding":"weak",
   "name":"_ZTVN7android8hardware8graphics11bufferqueue4V1_018BsProducerListenerE"
  },
  {
   "name":"_ZTVN7android8hardware8graphics11bufferqueue4V1_020BnHwProducerListenerE"
  },
  {
   "name":"_ZTVN7android8hardware8graphics11bufferqueue4V1_020BpHwProducerListenerE"
  },
  {
   "name":"_ZTVN7android8hardware8graphics11bufferqueue4V1_022IGraphicBufferProducerE"
  },
  {
   "binding":"weak",
   "name":"_ZTVN7android8hardware8graphics11bufferqueue4V1_023BsGraphicBufferProducerE"
  },
  {
   "name":"_ZTVN7android8hardware8graphics11bufferqueue4V1_025BnHwGraphicBufferProducerE"
  },
  {
   "name":"_ZTVN7android8hardware8graphics11bufferqueue4V1_025BpHwGraphicBufferProducerE"
  }
 ]
}