{
 "record_types":[
  {
   "vtable_components":[
    {
     "kind":"vbase_offset",
     "component_value":8
    },
    {
     "kind":"offset_to_top"
    },
    {
     "kind":"rtti",
     "mangled_component_name":"_ZTIN7android8hardware4wifi7hostapd4V1_08IHostapdE"
    },
    {
     "mangled_component_name":"_ZNK7android8hardware4wifi7hostapd4V1_08IHostapd8isRemoteEv"
    },
    {
     "mangled_component_name":"_ZN7android8hardware4wifi7hostapd4V1_08IHostapd14interfaceChainENSt3__18functionIFvRKNS0_8hidl_vecINS0_11hidl_stringEEEEEE"
    },
    {
     "mangled_component_name":"_ZN7android8hardware4wifi7hostapd4V1_08IHostapd5debugERKNS0_11hidl_handleERKNS0_8hidl_vecINS0_11hidl_stringEEE"
    },
    {
     "mangled_component_name":"_ZN7android8hardware4wifi7hostapd4V1_08IHostapd19interfaceDescriptorENSt3__18functionIFvRKNS0_11hidl_stringEEEE"
    },
    {
     "mangled_component_name":"_ZN7android8hardware4wifi7hostapd4V1_08IHostapd12getHashChainENSt3__18functionIFvRKNS0_8hidl_vecINS0_10hidl_arrayIhLm32EJEEEEEEEE"
    },
    {
     "mangled_component_name":"_ZN7android8hardware4wifi7hostapd4V1_08IHostapd21setHALInstrumentationEv"
    },
    {
     "mangled_component_name":"_ZN7android8hardware4wifi7hostapd4V1_08IHostapd11linkToDeathERKNS_2spINS0_20hidl_death_recipientEEEm"
    },
    {
     "mangled_component_name":"_ZN7android8hardware4wifi7hostapd4V1_08IHostapd4pingEv"
    },
    {
     "mangled_component_name":"_ZN7android8hardware4wifi7hostapd4V1_08IHostapd12getDebugInfoENSt3__18functionIFvRKNS_4hidl4base4V1_09DebugInfoEEEE"
    },
    {
     "mangled_component_name":"_ZN7android8hardware4wifi7hostapd4V1_08IHostapd21notifySyspropsChangedEv"
    },
    {
     "mangled_component_name":"_ZN7android8hardware4wifi7hostapd4V1_08IHostapd13unlinkToDeathERKNS_2spINS0_20hidl_death_recipientEEE"
    },
    {
     "kind":"complete_dtor_pointer",
     "mangled_component_name":"_ZN7android8hardware4wifi7hostapd4V1_08IHostapdD1Ev"
    },
    {
     "kind":"deleting_dtor_pointer",
     "mangled_component_name":"_ZN7android8hardware4wifi7hostapd4V1_08IHostapdD0Ev"
    },
    {
     "is_pure":true,
     "mangled_component_name":"_ZN7android8hardware4wifi7hostapd4V1_08IHostapd14addAccessPointERKNS4_11IfaceParamsERKNS4_13NetworkParamsENSt3__18functionIFvRKNS3_13HostapdStatusEEEE"
    },
    {
     "is_pure":true,
     "mangled_component_name":"_ZN7android8hardware4wifi7hostapd4V1_08IHostapd17removeAccessPointERKNS0_11hidl_stringENSt3__18functionIFvRKNS3_13HostapdStatusEEEE"
    },
    {
     "is_pure":true,
     "mangled_component_name":"_ZN7android8hardware4wifi7hostapd4V1_08IHostapd9terminateEv"
    },
    {
     "kind":"vcall_offset"
    },
    {
     "kind":"vcall_offset"
    },
    {
     "kind":"vcall_offset"
    },
    {
     "kind":"vcall_offset"
    },
    {
     "kind":"vcall_offset",
     "component_value":-8
    },
    {
     "kind":"offset_to_top",
     "component_value":-8
    },
    {
     "kind":"rtti",
     "mangled_component_name":"_ZTIN7android8hardware4wifi7hostapd4V1_08IHostapdE"
    },
    {
     "kind":"complete_dtor_pointer",
     "mangled_component_name":"_ZTv0_n24_N7android8hardware4wifi7hostapd4V1_08IHostapdD1Ev"
    },
    {
     "kind":"deleting_dtor_pointer",
     "mangled_component_name":"_ZTv0_n24_N7android8hardware4wifi7hostapd4V1_08IHostapdD0Ev"
    },
    {
     "mangled_component_name":"_ZN7android7RefBase10onFirstRefEv"
    },
    {
     "mangled_component_name":"_ZN7android7RefBase15onLastStrongRefEPKv"
    },
    {
     "mangled_component_name":"_ZN7android7RefBase20onIncStrongAttemptedEjPKv"
    },
    {
     "mangled_component_name":"_ZN7android7RefBase13onLastWeakRefEPKv"
    }
   ],
   "unique_id":"_ZTSN7android8hardware4wifi7hostapd4V1_08IHostapdE"
  },
  {
   "vtable_components":[
    {
     "kind":"vbase_offset",
     "component_value":136
    },
    {
     "kind":"offset_to_top"
    },
    {
     "kind":"rtti",
     "mangled_component_name":"_ZTIN7android8hardware4wifi7hostapd4V1_011BnHwHostapdE"
    },
    {
     "mangled_component_name":"_ZN7android8hardware9BHwBinder8transactEjRKNS0_6ParcelEPS2_jNSt3__18functionIFvRS2_EEE"
    },
    {
     "mangled_component_name":"_ZN7android8hardware9BHwBinder11linkToDeathERKNS_2spINS0_7IBinder14DeathRecipientEEEPvj"
    },
    {
     "mangled_component_name":"_ZN7android8hardware9BHwBinder13unlinkToDeathERKNS_2wpINS0_7IBinder14DeathRecipientEEEPvjPS5_"
    },
    {
     "mangled_component_name":"_ZNK7android8hardware7IBinder13checkSubclassEPKv"
    },
    {
     "mangled_component_name":"_ZN7android8hardware9BHwBinder12attachObjectEPKvPvS4_PFvS3_S4_S4_E"
    },
    {
     "mangled_component_name":"_ZNK7android8hardware9BHwBinder10findObjectEPKv"
    },
    {
     "mangled_component_name":"_ZN7android8hardware9BHwBinder12detachObjectEPKv"
    },
    {
     "mangled_component_name":"_ZN7android8hardware9BHwBinder11localBinderEv"
    },
    {
     "mangled_component_name":"_ZN7android8hardware7IBinder12remoteBinderEv"
    },
    {
     "kind":"complete_dtor_pointer",
     "mangled_component_name":"_ZN7android8hardware4wifi7hostapd4V1_011BnHwHostapdD1Ev"
    },
    {
     "kind":"deleting_dtor_pointer",
     "mangled_component_name":"_ZN7android8hardware4wifi7hostapd4V1_011BnHwHostapdD0Ev"
    },
    {
     "mangled_component_name":"_ZN7android8hardware4wifi7hostapd4V1_011BnHwHostapd10onTransactEjRKNS0_6ParcelEPS5_jNSt3__18functionIFvRS5_EEE"
    },
    {
     "kind":"offset_to_top",
     "component_value":-32
    },
    {
     "kind":"rtti",
     "mangled_component_name":"_ZTIN7android8hardware4wifi7hostapd4V1_011BnHwHostapdE"
    },
    {
     "kind":"complete_dtor_pointer",
     "mangled_component_name":"_ZThn32_N7android8hardware4wifi7hostapd4V1_011BnHwHostapdD1Ev"
    },
    {
     "kind":"deleting_dtor_pointer",
     "mangled_component_name":"_ZThn32_N7android8hardware4wifi7hostapd4V1_011BnHwHostapdD0Ev"
    },
    {
     "kind":"vcall_offset"
    },
    {
     "kind":"vcall_offset"
    },
    {
     "kind":"vcall_offset"
    },
    {
     "kind":"vcall_offset"
    },
    {
     "kind":"vcall_offset",
     "component_value":-136
    },
    {
     "kind":"offset_to_top",
     "component_value":-136
    },
    {
     "kind":"rtti",
     "mangled_component_name":"_ZTIN7android8hardware4wifi7hostapd4V1_011BnHwHostapdE"
    },
    {
     "kind":"complete_dtor_pointer",
     "mangled_component_name":"_ZTv0_n24_N7android8hardware4wifi7hostapd4V1_011BnHwHostapdD1Ev"
    },
    {
     "kind":"deleting_dtor_pointer",
     "mangled_component_name":"_ZTv0_n24_N7android8hardware4wifi7hostapd4V1_011BnHwHostapdD0Ev"
    },
    {
     "mangled_component_name":"_ZN7android7RefBase10onFirstRefEv"
    },
    {
     "mangled_component_name":"_ZN7android7RefBase15onLastStrongRefEPKv"
    },
    {
     "mangled_component_name":"_ZN7android7RefBase20onIncStrongAttemptedEjPKv"
    },
    {
     "mangled_component_name":"_ZN7android7RefBase13onLastWeakRefEPKv"
    }
   ],
   "unique_id":"_ZTSN7android8hardware4wifi7hostapd4V1_011BnHwHostapdE"
  },
  {
   "vtable_components":[
    {
     "kind":"vbase_offset",
     "component_value":200
    },
    {
     "kind":"offset_to_top"
    },
    {
     "kind":"rtti",
     "mangled_component_name":"_ZTIN7android8hardware4wifi7hostapd4V1_011BpHwHostapdE"
    },
    {
     "mangled_component_name":"_ZNK7android8hardware4wifi7hostapd4V1_011BpHwHostapd8isRemoteEv"
    },
    {
     "mangled_component_name":"_ZN7android8hardware4wifi7hostapd4V1_011BpHwHostapd14interfaceChainENSt3__18functionIFvRKNS0_8hidl_vecINS0_11hidl_stringEEEEEE"
    },
    {
     "mangled_component_name":"_ZN7android8hardware4wifi7hostapd4V1_011BpHwHostapd5debugERKNS0_11hidl_handleERKNS0_8hidl_vecINS0_11hidl_stringEEE"
    },
    {
     "mangled_component_name":"_ZN7android8hardware4wifi7hostapd4V1_011BpHwHostapd19interfaceDescriptorENSt3__18functionIFvRKNS0_11hidl_stringEEEE"
    },
    {
     "mangled_component_name":"_ZN7android8hardware4wifi7hostapd4V1_011BpHwHostapd12getHashChainENSt3__18functionIFvRKNS0_8hidl_vecINS0_10hidl_arrayIhLm32EJEEEEEEEE"
    },
    {
     "mangled_component_name":"_ZN7android8hardware4wifi7hostapd4V1_011BpHwHostapd21setHALInstrumentationEv"
    },
    {
     "mangled_component_name":"_ZN7android8hardware4wifi7hostapd4V1_011BpHwHostapd11linkToDeathERKNS_2spINS0_20hidl_death_recipientEEEm"
    },
    {
     "mangled_component_name":"_ZN7android8hardware4wifi7hostapd4V1_011BpHwHostapd4pingEv"
    },
    {
     "mangled_component_name":"_ZN7android8hardware4wifi7hostapd4V1_011BpHwHostapd12getDebugInfoENSt3__18functionIFvRKNS_4hidl4base4V1_09DebugInfoEEEE"
    },
    {
     "mangled_component_name":"_ZN7android8hardware4wifi7hostapd4V1_011BpHwHostapd21notifySyspropsChangedEv"
    },
    {
     "mangled_component_name":"_ZN7android8hardware4wifi7hostapd4V1_011BpHwHostapd13unlinkToDeathERKNS_2spINS0_20hidl_death_recipientEEE"
    },
    {
     "kind":"complete_dtor_pointer",
     "mangled_component_name":"_ZN7android8hardware4wifi7hostapd4V1_011BpHwHostapdD1Ev"
    },
    {
     "kind":"deleting_dtor_pointer",
     "mangled_component_name":"_ZN7android8hardware4wifi7hostapd4V1_011BpHwHostapdD0Ev"
    },
    {
     "mangled_component_name":"_ZN7android8hardware4wifi7hostapd4V1_011BpHwHostapd14addAccessPointERKNS3_8IHostapd11IfaceParamsERKNS5_13NetworkParamsENSt3__18functionIFvRKNS3_13HostapdStatusEEEE"
    },
    {
     "mangled_component_name":"_ZN7android8hardware4wifi7hostapd4V1_011BpHwHostapd17removeAccessPointERKNS0_11hidl_stringENSt3__18functionIFvRKNS3_13HostapdStatusEEEE"
    },
    {
     "mangled_component_name":"_ZN7android8hardware4wifi7hostapd4V1_011BpHwHostapd9terminateEv"
    },
    {
     "mangled_component_name":"_ZN7android8hardware11BpInterfaceINS0_4wifi7hostapd4V1_08IHostapdEE10onAsBinderEv"
    },
    {
     "kind":"vbase_offset",
     "component_value":192
    },
    {
     "kind":"offset_to_top",
     "component_value":-8
    },
    {
     "kind":"rtti",
     "mangled_component_name":"_ZTIN7android8hardware4wifi7hostapd4V1_011BpHwHostapdE"
    },
    {
     "kind":"complete_dtor_pointer",
     "mangled_component_name":"_ZThn8_N7android8hardware4wifi7hostapd4V1_011BpHwHostapdD1Ev"
    },
    {
     "kind":"deleting_dtor_pointer",
     "mangled_component_name":"_ZThn8_N7android8hardware4wifi7hostapd4V1_011BpHwHostapdD0Ev"
    },
    {
     "mangled_component_name":"_ZThn8_N7android8hardware11BpInterfaceINS0_4wifi7hostapd4V1_08IHostapdEE10onAsBinderEv"
    },
    {
     "kind":"vbase_offset",
     "component_value":184
    },
    {
     "kind":"offset_to_top",
     "component_value":-16
    },
    {
     "kind":"rtti",
     "mangled_component_name":"_ZTIN7android8hardware4wifi7hostapd4V1_011BpHwHostapdE"
    },
    {
     "kind":"complete_dtor_pointer",
     "mangled_component_name":"_ZThn16_N7android8hardware4wifi7hostapd4V1_011BpHwHostapdD1Ev"
    },
    {
     "kind":"deleting_dtor_pointer",
     "mangled_component_name":"_ZThn16_N7android8hardware4wifi7hostapd4V1_011BpHwHostapdD0Ev"
    },
    {
     "mangled_component_name":"_ZN7android8hardware11BpHwRefBase10onFirstRefEv"
    },
    {
     "mangled_component_name":"_ZN7android8hardware11BpHwRefBase15onLastStrongRefEPKv"
    },
    {
     "mangled_component_name":"_ZN7android8hardware11BpHwRefBase20onIncStrongAttemptedEjPKv"
    },
    {
     "kind":"offset_to_top",
     "component_value":-48
    },
    {
     "kind":"rtti",
     "mangled_component_name":"_ZTIN7android8hardware4wifi7hostapd4V1_011BpHwHostapdE"
    },
    {
     "kind":"complete_dtor_pointer",
     "mangled_component_name":"_ZThn48_N7android8hardware4wifi7hostapd4V1_011BpHwHostapdD1Ev"
    },
    {
     "kind":"deleting_dtor_pointer",
     "mangled_component_name":"_ZThn48_N7android8hardware4wifi7hostapd4V1_011BpHwHostapdD0Ev"
    },
    {
     "kind":"vcall_offset"
    },
    {
     "kind":"vcall_offset",
     "component_value":-184
    },
    {
     "kind":"vcall_offset",
     "component_value":-184
    },
    {
     "kind":"vcall_offset",
     "component_value":-184
    },
    {
     "kind":"vcall_offset",
     "component_value":-200
    },
    {
     "kind":"offset_to_top",
     "component_value":-200
    },
    {
     "kind":"rtti",
     "mangled_component_name":"_ZTIN7android8hardware4wifi7hostapd4V1_011BpHwHostapdE"
    },
    {
     "kind":"complete_dtor_pointer",
     "mangled_component_name":"_ZTv0_n24_N7android8hardware4wifi7hostapd4V1_011BpHwHostapdD1Ev"
    },
    {
     "kind":"deleting_dtor_pointer",
     "mangled_component_name":"_ZTv0_n24_N7android8hardware4wifi7hostapd4V1_011BpHwHostapdD0Ev"
    },
    {
     "mangled_component_name":"_ZTv0_n32_N7android8hardware11BpHwRefBase10onFirstRefEv"
    },
    {
     "mangled_component_name":"_ZTv0_n40_N7android8hardware11BpHwRefBase15onLastStrongRefEPKv"
    },
    {
     "mangled_component_name":"_ZTv0_n48_N7android8hardware11BpHwRefBase20onIncStrongAttemptedEjPKv"
    },
    {
     "mangled_component_name":"_ZN7android7RefBase13onLastWeakRefEPKv"
    }
   ],
   "unique_id":"_ZTSN7android8hardware4wifi7hostapd4V1_011BpHwHostapdE"
  },
  {
   "vtable_components":[
    {
     "kind":"vbase_offset",
     "component_value":120
    },
    {
     "kind":"offset_to_top"
    },
    {
     "kind":"rtti",
     "mangled_component_name":"_ZTIN7android8hardware4wifi7hostapd4V1_09BsHostapdE"
    },
    {
     "mangled_component_name":"_ZNK7android8hardware4wifi7hostapd4V1_08IHostapd8isRemoteEv"
    },
    {
     "mangled_component_name":"_ZN7android8hardware4wifi7hostapd4V1_09BsHostapd14interfaceChainENSt3__18functionIFvRKNS0_8hidl_vecINS0_11hidl_stringEEEEEE"
    },
    {
     "mangled_component_name":"_ZN7android8hardware4wifi7hostapd4V1_09BsHostapd5debugERKNS0_11hidl_handleERKNS0_8hidl_vecINS0_11hidl_stringEEE"
    },
    {
     "mangled_component_name":"_ZN7android8hardware4wifi7hostapd4V1_09BsHostapd19interfaceDescriptorENSt3__18functionIFvRKNS0_11hidl_stringEEEE"
    },
    {
     "mangled_component_name":"_ZN7android8hardware4wifi7hostapd4V1_09BsHostapd12getHashChainENSt3__18functionIFvRKNS0_8hidl_vecINS0_10hidl_arrayIhLm32EJEEEEEEEE"
    },
    {
     "mangled_component_name":"_ZN7android8hardware4wifi7hostapd4V1_09BsHostapd21setHALInstrumentationEv"
    },
    {
     "mangled_component_name":"_ZN7android8hardware4wifi7hostapd4V1_09BsHostapd11linkToDeathERKNS_2spINS0_20hidl_death_recipientEEEm"
    },
    {
     "mangled_component_name":"_ZN7android8hardware4wifi7hostapd4V1_09BsHostapd4pingEv"
    },
    {
     "mangled_component_name":"_ZN7android8hardware4wifi7hostapd4V1_09BsHostapd12getDebugInfoENSt3__18functionIFvRKNS_4hidl4base4V1_09DebugInfoEEEE"
    },
    {
     "mangled_component_name":"_ZN7android8hardware4wifi7hostapd4V1_09BsHostapd21notifySyspropsChangedEv"
    },
    {
     "mangled_component_name":"_ZN7android8hardware4wifi7hostapd4V1_09BsHostapd13unlinkToDeathERKNS_2spINS0_20hidl_death_recipientEEE"
    },
    {
     "kind":"complete_dtor_pointer",
     "mangled_component_name":"_ZN7android8hardware4wifi7hostapd4V1_09BsHostapdD1Ev"
    },
    {
     "kind":"deleting_dtor_pointer",
     "mangled_component_name":"_ZN7android8hardware4wifi7hostapd4V1_09BsHostapdD0Ev"
    },
    {
     "mangled_component_name":"_ZN7android8hardware4wifi7hostapd4V1_09BsHostapd14addAccessPointERKNS3_8IHostapd11IfaceParamsERKNS5_13NetworkParamsENSt3__18functionIFvRKNS3_13HostapdStatusEEEE"
    },
    {
     "mangled_component_name":"_ZN7android8hardware4wifi7hostapd4V1_09BsHostapd17removeAccessPointERKNS0_11hidl_stringENSt3__18functionIFvRKNS3_13HostapdStatusEEEE"
    },
    {
     "mangled_component_name":"_ZN7android8hardware4wifi7hostapd4V1_09BsHostapd9terminateEv"
    },
    {
     "kind":"offset_to_top",
     "component_value":-8
    },
    {
     "kind":"rtti",
     "mangled_component_name":"_ZTIN7android8hardware4wifi7hostapd4V1_09BsHostapdE"
    },
    {
     "kind":"complete_dtor_pointer",
     "mangled_component_name":"_ZThn8_N7android8hardware4wifi7hostapd4V1_09BsHostapdD1Ev"
    },
    {
     "kind":"deleting_dtor_pointer",
     "mangled_component_name":"_ZThn8_N7android8hardware4wifi7hostapd4V1_09BsHostapdD0Ev"
    },
    {
     "kind":"vcall_offset"
    },
    {
     "kind":"vcall_offset"
    },
    {
     "kind":"vcall_offset"
    },
    {
     "kind":"vcall_offset"
    },
    {
     "kind":"vcall_offset",
     "component_value":-120
    },
    {
     "kind":"offset_to_top",
     "component_value":-120
    },
    {
     "kind":"rtti",
     "mangled_component_name":"_ZTIN7android8hardware4wifi7hostapd4V1_09BsHostapdE"
    },
    {
     "kind":"complete_dtor_pointer",
     "mangled_component_name":"_ZTv0_n24_N7android8hardware4wifi7hostapd4V1_09BsHostapdD1Ev"
    },
    {
     "kind":"deleting_dtor_pointer",
     "mangled_component_name":"_ZTv0_n24_N7android8hardware4wifi7hostapd4V1_09BsHostapdD0Ev"
    },
    {
     "mangled_component_name":"_ZN7android7RefBase10onFirstRefEv"
    },
    {
     "mangled_component_name":"_ZN7android7RefBase15onLastStrongRefEPKv"
    },
    {
     "mangled_component_name":"_ZN7android7RefBase20onIncStrongAttemptedEjPKv"
    },
    {
     "mangled_component_name":"_ZN7android7RefBase13onLastWeakRefEPKv"
    }
   ],
   "unique_id":"_ZTSN7android8hardware4wifi7hostapd4V1_09BsHostapdE"
  }
 ],
 "elf_functions":[
  {
   "name":"_ZN7android8hardware4wifi7hostapd4V1_011BnHwHostapd10onTransactEjRKNS0_6ParcelEPS5_jNSt3__18functionIFvRS5_EEE"
  },
  {
   "name":"_ZN7android8hardware4wifi7hostapd4V1_011BnHwHostapd12getDebugInfoENSt3__18functionIFvRKNS_4hidl4base4V1_09DebugInfoEEEE"
  },
  {
   "name":"_ZN7android8hardware4wifi7hostapd4V1_011BnHwHostapd15_hidl_terminateEPNS_4hidl4base4V1_08BnHwBaseERKNS0_6ParcelEPSA_NSt3__18functionIFvRSA_EEE"
  },
  {
   "name":"_ZN7android8hardware4wifi7hostapd4V1_011BnHwHostapd20_hidl_addAccessPointEPNS_4hidl4base4V1_08BnHwBaseERKNS0_6ParcelEPSA_NSt3__18functionIFvRSA_EEE"
  },
  {
   "name":"_ZN7android8hardware4wifi7hostapd4V1_011BnHwHostapd23_hidl_removeAccessPointEPNS_4hidl4base4V1_08BnHwBaseERKNS0_6ParcelEPSA_NSt3__18functionIFvRSA_EEE"
  },
  {
   "name":"_ZN7android8hardware4wifi7hostapd4V1_011BnHwHostapd4pingEv"
  },
  {
   "name":"_ZN7android8hardware4wifi7hostapd4V1_011BnHwHostapdC1ERKNS_2spINS3_8IHostapdEEE"
  },
  {
   "name":"_ZN7android8hardware4wifi7hostapd4V1_011BnHwHostapdC2ERKNS_2spINS3_8IHostapdEEE"
  },
  {
   "name":"_ZN7android8hardware4wifi7hostapd4V1_011BnHwHostapdD0Ev"
  },
  {
   "name":"_ZN7android8hardware4wifi7hostapd4V1_011BnHwHostapdD1Ev"
  },
  {
   "name":"_ZN7android8hardware4wifi7hostapd4V1_011BnHwHostapdD2Ev"
  },
  {
   "name":"_ZN7android8hardware4wifi7hostapd4V1_011BpHwHostapd11linkToDeathERKNS_2spINS0_20hidl_death_recipientEEEm"
  },
  {
   "name":"_ZN7android8hardware4wifi7hostapd4V1_011BpHwHostapd12getDebugInfoENSt3__18functionIFvRKNS_4hidl4base4V1_09DebugInfoEEEE"
  },
  {
   "name":"_ZN7android8hardware4wifi7hostapd4V1_011BpHwHostapd12getHashChainENSt3__18functionIFvRKNS0_8hidl_vecINS0_10hidl_arrayIhLm32EJEEEEEEEE"
  },
  {
   "name":"_ZN7android8hardware4wifi7hostapd4V1_011BpHwHostapd13unlinkToDeathERKNS_2spINS0_20hidl_death_recipientEEE"
  },
  {
   "name":"_ZN7android8hardware4wifi7hostapd4V1_011BpHwHostapd14addAccessPointERKNS3_8IHostapd11IfaceParamsERKNS5_13NetworkParamsENSt3__18functionIFvRKNS3_13HostapdStatusEEEE"
  },
  {
   "name":"_ZN7android8hardware4wifi7hostapd4V1_011BpHwHostapd14interfaceChainENSt3__18functionIFvRKNS0_8hidl_vecINS0_11hidl_stringEEEEEE"
  },
  {
   "name":"_ZN7android8hardware4wifi7hostapd4V1_011BpHwHostapd15_hidl_terminateEPNS0_10IInterfaceEPNS0_7details16HidlInstrumentorE"
  },
  {
   "name":"_ZN7android8hardware4wifi7hostapd4V1_011BpHwHostapd17removeAccessPointERKNS0_11hidl_stringENSt3__18functionIFvRKNS3_13HostapdStatusEEEE"
  },
  {
   "name":"_ZN7android8hardware4wifi7hostapd4V1_011BpHwHostapd19interfaceDescriptorENSt3__18functionIFvRKNS0_11hidl_stringEEEE"
  },
  {
   "name":"_ZN7android8hardware4wifi7hostapd4V1_011BpHwHostapd20_hidl_addAccessPointEPNS0_10IInterfaceEPNS0_7details16HidlInstrumentorERKNS3_8IHostapd11IfaceParamsERKNSA_13NetworkParamsENSt3__18functionIFvRKNS3_13HostapdStatusEEEE"
  },
  {
   "name":"_ZN7android8hardware4wifi7hostapd4V1_011BpHwHostapd21notifySyspropsChangedEv"
  },
  {
   "name":"_ZN7android8hardware4wifi7hostapd4V1_011BpHwHostapd21setHALInstrumentationEv"
  },
  {
   "name":"_ZN7android8hardware4wifi7hostapd4V1_011BpHwHostapd23_hidl_removeAccessPointEPNS0_10IInterfaceEPNS0_7details16HidlInstrumentorERKNS0_11hidl_stringENSt3__18functionIFvRKNS3_13HostapdStatusEEEE"
  },
  {
   "name":"_ZN7android8hardware4wifi7hostapd4V1_011BpHwHostapd4pingEv"
  },
  {
   "name":"_ZN7android8hardware4wifi7hostapd4V1_011BpHwHostapd5debugERKNS0_11hidl_handleERKNS0_8hidl_vecINS0_11hidl_stringEEE"
  },
  {
   "name":"_ZN7android8hardware4wifi7hostapd4V1_011BpHwHostapd9terminateEv"
  },
  {
   "name":"_ZN7android8hardware4wifi7hostapd4V1_011BpHwHostapdC1ERKNS_2spINS0_7IBinderEEE"
  },
  {
   "name":"_ZN7android8hardware4wifi7hostapd4V1_011BpHwHostapdC2ERKNS_2spINS0_7IBinderEEE"
  },
  {
   "name":"_ZN7android8hardware4wifi7hostapd4V1_021writeEmbeddedToParcelERKNS3_13HostapdStatusEPNS0_6ParcelEmm"
  },
  {
   "name":"_ZN7android8hardware4wifi7hostapd4V1_021writeEmbeddedToParcelERKNS3_8IHostapd11IfaceParamsEPNS0_6ParcelEmm"
  },
  {
   "name":"_ZN7android8hardware4wifi7hostapd4V1_021writeEmbeddedToParcelERKNS3_8IHostapd13NetworkParamsEPNS0_6ParcelEmm"
  },
  {
   "name":"_ZN7android8hardware4wifi7hostapd4V1_022readEmbeddedFromParcelERKNS3_13HostapdStatusERKNS0_6ParcelEmm"
  },
  {
   "name":"_ZN7android8hardware4wifi7hostapd4V1_022readEmbeddedFromParcelERKNS3_8IHostapd11IfaceParamsERKNS0_6ParcelEmm"
  },
  {
   "name":"_ZN7android8hardware4wifi7hostapd4V1_022readEmbeddedFromParcelERKNS3_8IHostapd13NetworkParamsERKNS0_6ParcelEmm"
  },
  {
   "name":"_ZN7android8hardware4wifi7hostapd4V1_08IHostapd10getServiceERKNSt3__112basic_stringIcNS5_11char_traitsIcEENS5_9allocatorIcEEEEb"
  },
  {
   "name":"_ZN7android8hardware4wifi7hostapd4V1_08IHostapd11linkToDeathERKNS_2spINS0_20hidl_death_recipientEEEm"
  },
  {
   "name":"_ZN7android8hardware4wifi7hostapd4V1_08IHostapd12getDebugInfoENSt3__18functionIFvRKNS_4hidl4base4V1_09DebugInfoEEEE"
  },
  {
   "name":"_ZN7android8hardware4wifi7hostapd4V1_08IHostapd12getHashChainENSt3__18functionIFvRKNS0_8hidl_vecINS0_10hidl_arrayIhLm32EJEEEEEEEE"
  },
  {
   "name":"_ZN7android8hardware4wifi7hostapd4V1_08IHostapd13tryGetServiceERKNSt3__112basic_stringIcNS5_11char_traitsIcEENS5_9allocatorIcEEEEb"
  },
  {
   "name":"_ZN7android8hardware4wifi7hostapd4V1_08IHostapd13unlinkToDeathERKNS_2spINS0_20hidl_death_recipientEEE"
  },
  {
   "name":"_ZN7android8hardware4wifi7hostapd4V1_08IHostapd14interfaceChainENSt3__18functionIFvRKNS0_8hidl_vecINS0_11hidl_stringEEEEEE"
  },
  {
   "name":"_ZN7android8hardware4wifi7hostapd4V1_08IHostapd17registerAsServiceERKNSt3__112basic_stringIcNS5_11char_traitsIcEENS5_9allocatorIcEEEE"
  },
  {
   "name":"_ZN7android8hardware4wifi7hostapd4V1_08IHostapd19interfaceDescriptorENSt3__18functionIFvRKNS0_11hidl_stringEEEE"
  },
  {
   "name":"_ZN7android8hardware4wifi7hostapd4V1_08IHostapd21notifySyspropsChangedEv"
  },
  {
   "name":"_ZN7android8hardware4wifi7hostapd4V1_08IHostapd21setHALInstrumentationEv"
  },
  {
   "name":"_ZN7android8hardware4wifi7hostapd4V1_08IHostapd24registerForNotificationsERKNSt3__112basic_stringIcNS5_11char_traitsIcEENS5_9allocatorIcEEEERKNS_2spINS_4hidl7manager4V1_020IServiceNotificationEEE"
  },
  {
   "name":"_ZN7android8hardware4wifi7hostapd4V1_08IHostapd4pingEv"
  },
  {
   "name":"_ZN7android8hardware4wifi7hostapd4V1_08IHostapd5debugERKNS0_11hidl_handleERKNS0_8hidl_vecINS0_11hidl_stringEEE"
  },
  {
   "name":"_ZN7android8hardware4wifi7hostapd4V1_08IHostapd8castFromERKNS_2spINS_4hidl4base4V1_05IBaseEEEb"
  },
  {
   "name":"_ZN7android8hardware4wifi7hostapd4V1_08IHostapd8castFromERKNS_2spIS4_EEb"
  },
  {
   "name":"_ZN7android8hardware4wifi7hostapd4V1_09BsHostapd13addOnewayTaskENSt3__18functionIFvvEEE"
  },
  {
   "name":"_ZN7android8hardware4wifi7hostapd4V1_09BsHostapdC1ENS_2spINS3_8IHostapdEEE"
  },
  {
   "name":"_ZN7android8hardware4wifi7hostapd4V1_09BsHostapdC2ENS_2spINS3_8IHostapdEEE"
  },
  {
   "binding":"weak",
   "name":"_ZN7android8hardware7details13castInterfaceINS0_4wifi7hostapd4V1_08IHostapdENS_4hidl4base4V1_05IBaseENS5_11BpHwHostapdEEENS0_6ReturnINS_2spIT_EEEENSD_IT0_EEPKcb"
  },
  {
   "binding":"weak",
   "name":"_ZN7android8hardware7details18getServiceInternalINS0_4wifi7hostapd4V1_011BpHwHostapdENS5_8IHostapdEvvEENS_2spIT0_EERKNSt3__112basic_stringIcNSB_11char_traitsIcEENSB_9allocatorIcEEEEbb"
  },
  {
   "binding":"weak",
   "name":"_ZN7android8hardware8toBinderINS_4hidl4base4V1_05IBaseEvEENS_2spINS0_7IBinderEEENS6_IT_EE"
  },
  {
   "name":"_ZThn32_N7android8hardware4wifi7hostapd4V1_011BnHwHostapdD0Ev"
  },
  {
   "name":"_ZThn32_N7android8hardware4wifi7hostapd4V1_011BnHwHostapdD1Ev"
  },
  {
   "name":"_ZTv0_n24_N7android8hardware4wifi7hostapd4V1_011BnHwHostapdD0Ev"
  },
  {
   "name":"_ZTv0_n24_N7android8hardware4wifi7hostapd4V1_011BnHwHostapdD1Ev"
  }
 ],
 "elf_objects":[
  {
   "name":"_ZN7android8hardware4wifi7hostapd4V1_08IHostapd10descriptorE"
  },
  {
   "name":"_ZTTN7android8hardware4wifi7hostapd4V1_011BnHwHostapdE"
  },
  {
   "name":"_ZTTN7android8hardware4wifi7hostapd4V1_011BpHwHostapdE"
  },
  {
   "name":"_ZTTN7android8hardware4wifi7hostapd4V1_08IHostapdE"
  },
  {
   "name":"_ZTVN7android8hardware4wifi7hostapd4V1_011BnHwHostapdE"
  },
  {
   "name":"_ZTVN7android8hardware4wifi7hostapd4V1_011BpHwHostapdE"
  },
  {
   "name":"_ZTVN7android8hardware4wifi7hostapd4V1_08IHostapdE"
  },
  {
   "binding":"weak",
   "name":"_ZTVN7android8hardware4wifi7hostapd4V1_09BsHostapdE"
  }
 ]
}