{
 "record_types":[
  {
   "vtable_components":[
    {
     "kind":"vbase_offset",
     "component_value":8
    },
    {
     "kind":"offset_to_top"
    },
    {
     "kind":"rtti",
     "mangled_component_name":"_ZTIN7android8hardware5light4V2_06ILightE"
    },
    {
     "mangled_component_name":"_ZNK7android8hardware5light4V2_06ILight8isRemoteEv"
    },
    {
     "mangled_component_name":"_ZN7android8hardware5light4V2_06ILight14interfaceChainENSt3__18functionIFvRKNS0_8hidl_vecINS0_11hidl_stringEEEEEE"
    },
    {
     "mangled_component_name":"_ZN7android8hardware5light4V2_06ILight5debugERKNS0_11hidl_handleERKNS0_8hidl_vecINS0_11hidl_stringEEE"
    },
    {
     "mangled_component_name":"_ZN7android8hardware5light4V2_06ILight19interfaceDescriptorENSt3__18functionIFvRKNS0_11hidl_stringEEEE"
    },
    {
     "mangled_component_name":"_ZN7android8hardware5light4V2_06ILight12getHashChainENSt3__18functionIFvRKNS0_8hidl_vecINS0_10hidl_arrayIhLm32EJEEEEEEEE"
    },
    {
     "mangled_component_name":"_ZN7android8hardware5light4V2_06ILight21setHALInstrumentationEv"
    },
    {
     "mangled_component_name":"_ZN7android8hardware5light4V2_06ILight11linkToDeathERKNS_2spINS0_20hidl_death_recipientEEEm"
    },
    {
     "mangled_component_name":"_ZN7android8hardware5light4V2_06ILight4pingEv"
    },
    {
     "mangled_component_name":"_ZN7android8hardware5light4V2_06ILight12getDebugInfoENSt3__18functionIFvRKNS_4hidl4base4V1_09DebugInfoEEEE"
    },
    {
     "mangled_component_name":"_ZN7android8hardware5light4V2_06ILight21notifySyspropsChangedEv"
    },
    {
     "mangled_component_name":"_ZN7android8hardware5light4V2_06ILight13unlinkToDeathERKNS_2spINS0_20hidl_death_recipientEEE"
    },
    {
     "kind":"complete_dtor_pointer",
     "mangled_component_name":"_ZN7android8hardware5light4V2_06ILightD1Ev"
    },
    {
     "kind":"deleting_dtor_pointer",
     "mangled_component_name":"_ZN7android8hardware5light4V2_06ILightD0Ev"
    },
    {
     "is_pure":true,
     "mangled_component_name":"_ZN7android8hardware5light4V2_06ILight8setLightENS2_4TypeERKNS2_10LightStateE"
    },
    {
     "is_pure":true,
     "mangled_component_name":"_ZN7android8hardware5light4V2_06ILight17getSupportedTypesENSt3__18functionIFvRKNS0_8hidl_vecINS2_4TypeEEEEEE"
    },
    {
     "kind":"vcall_offset"
    },
    {
     "kind":"vcall_offset"
    },
    {
     "kind":"vcall_offset"
    },
    {
     "kind":"vcall_offset"
    },
    {
     "kind":"vcall_offset",
     "component_value":-8
    },
    {
     "kind":"offset_to_top",
     "component_value":-8
    },
    {
     "kind":"rtti",
     "mangled_component_name":"_ZTIN7android8hardware5light4V2_06ILightE"
    },
    {
     "kind":"complete_dtor_pointer",
     "mangled_component_name":"_ZTv0_n24_N7android8hardware5light4V2_06ILightD1Ev"
    },
    {
     "kind":"deleting_dtor_pointer",
     "mangled_component_name":"_ZTv0_n24_N7android8hardware5light4V2_06ILightD0Ev"
    },
    {
     "mangled_component_name":"_ZN7android7RefBase10onFirstRefEv"
    },
    {
     "mangled_component_name":"_ZN7android7RefBase15onLastStrongRefEPKv"
    },
    {
     "mangled_component_name":"_ZN7android7RefBase20onIncStrongAttemptedEjPKv"
    },
    {
     "mangled_component_name":"_ZN7android7RefBase13onLastWeakRefEPKv"
    }
   ],
   "unique_id":"_ZTSN7android8hardware5light4V2_06ILightE"
  },
  {
   "vtable_components":[
    {
     "kind":"vbase_offset",
     "component_value":136
    },
    {
     "kind":"offset_to_top"
    },
    {
     "kind":"rtti",
     "mangled_component_name":"_ZTIN7android8hardware5light4V2_09BnHwLightE"
    },
    {
     "mangled_component_name":"_ZN7android8hardware9BHwBinder8transactEjRKNS0_6ParcelEPS2_jNSt3__18functionIFvRS2_EEE"
    },
    {
     "mangled_component_name":"_ZN7android8hardware9BHwBinder11linkToDeathERKNS_2spINS0_7IBinder14DeathRecipientEEEPvj"
    },
    {
     "mangled_component_name":"_ZN7android8hardware9BHwBinder13unlinkToDeathERKNS_2wpINS0_7IBinder14DeathRecipientEEEPvjPS5_"
    },
    {
     "mangled_component_name":"_ZNK7android8hardware7IBinder13checkSubclassEPKv"
    },
    {
     "mangled_component_name":"_ZN7android8hardware9BHwBinder12attachObjectEPKvPvS4_PFvS3_S4_S4_E"
    },
    {
     "mangled_component_name":"_ZNK7android8hardware9BHwBinder10findObjectEPKv"
    },
    {
     "mangled_component_name":"_ZN7android8hardware9BHwBinder12detachObjectEPKv"
    },
    {
     "mangled_component_name":"_ZN7android8hardware9BHwBinder11localBinderEv"
    },
    {
     "mangled_component_name":"_ZN7android8hardware7IBinder12remoteBinderEv"
    },
    {
     "kind":"complete_dtor_pointer",
     "mangled_component_name":"_ZN7android8hardware5light4V2_09BnHwLightD1Ev"
    },
    {
     "kind":"deleting_dtor_pointer",
     "mangled_component_name":"_ZN7android8hardware5light4V2_09BnHwLightD0Ev"
    },
    {
     "mangled_component_name":"_ZN7android8hardware5light4V2_09BnHwLight10onTransactEjRKNS0_6ParcelEPS4_jNSt3__18functionIFvRS4_EEE"
    },
    {
     "kind":"offset_to_top",
     "component_value":-32
    },
    {
     "kind":"rtti",
     "mangled_component_name":"_ZTIN7android8hardware5light4V2_09BnHwLightE"
    },
    {
     "kind":"complete_dtor_pointer",
     "mangled_component_name":"_ZThn32_N7android8hardware5light4V2_09BnHwLightD1Ev"
    },
    {
     "kind":"deleting_dtor_pointer",
     "mangled_component_name":"_ZThn32_N7android8hardware5light4V2_09BnHwLightD0Ev"
    },
    {
     "kind":"vcall_offset"
    },
    {
     "kind":"vcall_offset"
    },
    {
     "kind":"vcall_offset"
    },
    {
     "kind":"vcall_offset"
    },
    {
     "kind":"vcall_offset",
     "component_value":-136
    },
    {
     "kind":"offset_to_top",
     "component_value":-136
    },
    {
     "kind":"rtti",
     "mangled_component_name":"_ZTIN7android8hardware5light4V2_09BnHwLightE"
    },
    {
     "kind":"complete_dtor_pointer",
     "mangled_component_name":"_ZTv0_n24_N7android8hardware5light4V2_09BnHwLightD1Ev"
    },
    {
     "kind":"deleting_dtor_pointer",
     "mangled_component_name":"_ZTv0_n24_N7android8hardware5light4V2_09BnHwLightD0Ev"
    },
    {
     "mangled_component_name":"_ZN7android7RefBase10onFirstRefEv"
    },
    {
     "mangled_component_name":"_ZN7android7RefBase15onLastStrongRefEPKv"
    },
    {
     "mangled_component_name":"_ZN7android7RefBase20onIncStrongAttemptedEjPKv"
    },
    {
     "mangled_component_name":"_ZN7android7RefBase13onLastWeakRefEPKv"
    }
   ],
   "unique_id":"_ZTSN7android8hardware5light4V2_09BnHwLightE"
  },
  {
   "vtable_components":[
    {
     "kind":"vbase_offset",
     "component_value":200
    },
    {
     "kind":"offset_to_top"
    },
    {
     "kind":"rtti",
     "mangled_component_name":"_ZTIN7android8hardware5light4V2_09BpHwLightE"
    },
    {
     "mangled_component_name":"_ZNK7android8hardware5light4V2_09BpHwLight8isRemoteEv"
    },
    {
     "mangled_component_name":"_ZN7android8hardware5light4V2_09BpHwLight14interfaceChainENSt3__18functionIFvRKNS0_8hidl_vecINS0_11hidl_stringEEEEEE"
    },
    {
     "mangled_component_name":"_ZN7android8hardware5light4V2_09BpHwLight5debugERKNS0_11hidl_handleERKNS0_8hidl_vecINS0_11hidl_stringEEE"
    },
    {
     "mangled_component_name":"_ZN7android8hardware5light4V2_09BpHwLight19interfaceDescriptorENSt3__18functionIFvRKNS0_11hidl_stringEEEE"
    },
    {
     "mangled_component_name":"_ZN7android8hardware5light4V2_09BpHwLight12getHashChainENSt3__18functionIFvRKNS0_8hidl_vecINS0_10hidl_arrayIhLm32EJEEEEEEEE"
    },
    {
     "mangled_component_name":"_ZN7android8hardware5light4V2_09BpHwLight21setHALInstrumentationEv"
    },
    {
     "mangled_component_name":"_ZN7android8hardware5light4V2_09BpHwLight11linkToDeathERKNS_2spINS0_20hidl_death_recipientEEEm"
    },
    {
     "mangled_component_name":"_ZN7android8hardware5light4V2_09BpHwLight4pingEv"
    },
    {
     "mangled_component_name":"_ZN7android8hardware5light4V2_09BpHwLight12getDebugInfoENSt3__18functionIFvRKNS_4hidl4base4V1_09DebugInfoEEEE"
    },
    {
     "mangled_component_name":"_ZN7android8hardware5light4V2_09BpHwLight21notifySyspropsChangedEv"
    },
    {
     "mangled_component_name":"_ZN7android8hardware5light4V2_09BpHwLight13unlinkToDeathERKNS_2spINS0_20hidl_death_recipientEEE"
    },
    {
     "kind":"complete_dtor_pointer",
     "mangled_component_name":"_ZN7android8hardware5light4V2_09BpHwLightD1Ev"
    },
    {
     "kind":"deleting_dtor_pointer",
     "mangled_component_name":"_ZN7android8hardware5light4V2_09BpHwLightD0Ev"
    },
    {
     "mangled_component_name":"_ZN7android8hardware5light4V2_09BpHwLight8setLightENS2_4TypeERKNS2_10LightStateE"
    },
    {
     "mangled_component_name":"_ZN7android8hardware5light4V2_09BpHwLight17getSupportedTypesENSt3__18functionIFvRKNS0_8hidl_vecINS2_4TypeEEEEEE"
    },
    {
     "mangled_component_name":"_ZN7android8hardware11BpInterfaceINS0_5light4V2_06ILightEE10onAsBinderEv"
    },
    {
     "kind":"vbase_offset",
     "component_value":192
    },
    {
     "kind":"offset_to_top",
     "component_value":-8
    },
    {
     "kind":"rtti",
     "mangled_component_name":"_ZTIN7android8hardware5light4V2_09BpHwLightE"
    },
    {
     "kind":"complete_dtor_pointer",
     "mangled_component_name":"_ZThn8_N7android8hardware5light4V2_09BpHwLightD1Ev"
    },
    {
     "kind":"deleting_dtor_pointer",
     "mangled_component_name":"_ZThn8_N7android8hardware5light4V2_09BpHwLightD0Ev"
    },
    {
     "mangled_component_name":"_ZThn8_N7android8hardware11BpInterfaceINS0_5light4V2_06ILightEE10onAsBinderEv"
    },
    {
     "kind":"vbase_offset",
     "component_value":184
    },
    {
     "kind":"offset_to_top",
     "component_value":-16
    },
    {
     "kind":"rtti",
     "mangled_component_name":"_ZTIN7android8hardware5light4V2_09BpHwLightE"
    },
    {
     "kind":"complete_dtor_pointer",
     "mangled_component_name":"_ZThn16_N7android8hardware5light4V2_09BpHwLightD1Ev"
    },
    {
     "kind":"deleting_dtor_pointer",
     "mangled_component_name":"_ZThn16_N7android8hardware5light4V2_09BpHwLightD0Ev"
    },
    {
     "mangled_component_name":"_ZN7android8hardware11BpHwRefBase10onFirstRefEv"
    },
    {
     "mangled_component_name":"_ZN7android8hardware11BpHwRefBase15onLastStrongRefEPKv"
    },
    {
     "mangled_component_name":"_ZN7android8hardware11BpHwRefBase20onIncStrongAttemptedEjPKv"
    },
    {
     "kind":"offset_to_top",
     "component_value":-48
    },
    {
     "kind":"rtti",
     "mangled_component_name":"_ZTIN7android8hardware5light4V2_09BpHwLightE"
    },
    {
     "kind":"complete_dtor_pointer",
     "mangled_component_name":"_ZThn48_N7android8hardware5light4V2_09BpHwLightD1Ev"
    },
    {
     "kind":"deleting_dtor_pointer",
     "mangled_component_name":"_ZThn48_N7android8hardware5light4V2_09BpHwLightD0Ev"
    },
    {
     "kind":"vcall_offset"
    },
    {
     "kind":"vcall_offset",
     "component_value":-184
    },
    {
     "kind":"vcall_offset",
     "component_value":-184
    },
    {
     "kind":"vcall_offset",
     "component_value":-184
    },
    {
     "kind":"vcall_offset",
     "component_value":-200
    },
    {
     "kind":"offset_to_top",
     "component_value":-200
    },
    {
     "kind":"rtti",
     "mangled_component_name":"_ZTIN7android8hardware5light4V2_09BpHwLightE"
    },
    {
     "kind":"complete_dtor_pointer",
     "mangled_component_name":"_ZTv0_n24_N7android8hardware5light4V2_09BpHwLightD1Ev"
    },
    {
     "kind":"deleting_dtor_pointer",
     "mangled_component_name":"_ZTv0_n24_N7android8hardware5light4V2_09BpHwLightD0Ev"
    },
    {
     "mangled_component_name":"_ZTv0_n32_N7android8hardware11BpHwRefBase10onFirstRefEv"
    },
    {
     "mangled_component_name":"_ZTv0_n40_N7android8hardware11BpHwRefBase15onLastStrongRefEPKv"
    },
    {
     "mangled_component_name":"_ZTv0_n48_N7android8hardware11BpHwRefBase20onIncStrongAttemptedEjPKv"
    },
    {
     "mangled_component_name":"_ZN7android7RefBase13onLastWeakRefEPKv"
    }
   ],
   "unique_id":"_ZTSN7android8hardware5light4V2_09BpHwLightE"
  },
  {
   "vtable_components":[
    {
     "kind":"vbase_offset",
     "component_value":120
    },
    {
     "kind":"offset_to_top"
    },
    {
     "kind":"rtti",
     "mangled_component_name":"_ZTIN7android8hardware5light4V2_07BsLightE"
    },
    {
     "mangled_component_name":"_ZNK7android8hardware5light4V2_06ILight8isRemoteEv"
    },
    {
     "mangled_component_name":"_ZN7android8hardware5light4V2_07BsLight14interfaceChainENSt3__18functionIFvRKNS0_8hidl_vecINS0_11hidl_stringEEEEEE"
    },
    {
     "mangled_component_name":"_ZN7android8hardware5light4V2_07BsLight5debugERKNS0_11hidl_handleERKNS0_8hidl_vecINS0_11hidl_stringEEE"
    },
    {
     "mangled_component_name":"_ZN7android8hardware5light4V2_07BsLight19interfaceDescriptorENSt3__18functionIFvRKNS0_11hidl_stringEEEE"
    },
    {
     "mangled_component_name":"_ZN7android8hardware5light4V2_07BsLight12getHashChainENSt3__18functionIFvRKNS0_8hidl_vecINS0_10hidl_arrayIhLm32EJEEEEEEEE"
    },
    {
     "mangled_component_name":"_ZN7android8hardware5light4V2_07BsLight21setHALInstrumentationEv"
    },
    {
     "mangled_component_name":"_ZN7android8hardware5light4V2_07BsLight11linkToDeathERKNS_2spINS0_20hidl_death_recipientEEEm"
    },
    {
     "mangled_component_name":"_ZN7android8hardware5light4V2_07BsLight4pingEv"
    },
    {
     "mangled_component_name":"_ZN7android8hardware5light4V2_07BsLight12getDebugInfoENSt3__18functionIFvRKNS_4hidl4base4V1_09DebugInfoEEEE"
    },
    {
     "mangled_component_name":"_ZN7android8hardware5light4V2_07BsLight21notifySyspropsChangedEv"
    },
    {
     "mangled_component_name":"_ZN7android8hardware5light4V2_07BsLight13unlinkToDeathERKNS_2spINS0_20hidl_death_recipientEEE"
    },
    {
     "kind":"complete_dtor_pointer",
     "mangled_component_name":"_ZN7android8hardware5light4V2_07BsLightD1Ev"
    },
    {
     "kind":"deleting_dtor_pointer",
     "mangled_component_name":"_ZN7android8hardware5light4V2_07BsLightD0Ev"
    },
    {
     "mangled_component_name":"_ZN7android8hardware5light4V2_07BsLight8setLightENS2_4TypeERKNS2_10LightStateE"
    },
    {
     "mangled_component_name":"_ZN7android8hardware5light4V2_07BsLight17getSupportedTypesENSt3__18functionIFvRKNS0_8hidl_vecINS2_4TypeEEEEEE"
    },
    {
     "kind":"offset_to_top",
     "component_value":-8
    },
    {
     "kind":"rtti",
     "mangled_component_name":"_ZTIN7android8hardware5light4V2_07BsLightE"
    },
    {
     "kind":"complete_dtor_pointer",
     "mangled_component_name":"_ZThn8_N7android8hardware5light4V2_07BsLightD1Ev"
    },
    {
     "kind":"deleting_dtor_pointer",
     "mangled_component_name":"_ZThn8_N7android8hardware5light4V2_07BsLightD0Ev"
    },
    {
     "kind":"vcall_offset"
    },
    {
     "kind":"vcall_offset"
    },
    {
     "kind":"vcall_offset"
    },
    {
     "kind":"vcall_offset"
    },
    {
     "kind":"vcall_offset",
     "component_value":-120
    },
    {
     "kind":"offset_to_top",
     "component_value":-120
    },
    {
     "kind":"rtti",
     "mangled_component_name":"_ZTIN7android8hardware5light4V2_07BsLightE"
    },
    {
     "kind":"complete_dtor_pointer",
     "mangled_component_name":"_ZTv0_n24_N7android8hardware5light4V2_07BsLightD1Ev"
    },
    {
     "kind":"deleting_dtor_pointer",
     "mangled_component_name":"_ZTv0_n24_N7android8hardware5light4V2_07BsLightD0Ev"
    },
    {
     "mangled_component_name":"_ZN7android7RefBase10onFirstRefEv"
    },
    {
     "mangled_component_name":"_ZN7android7RefBase15onLastStrongRefEPKv"
    },
    {
     "mangled_component_name":"_ZN7android7RefBase20onIncStrongAttemptedEjPKv"
    },
    {
     "mangled_component_name":"_ZN7android7RefBase13onLastWeakRefEPKv"
    }
   ],
   "unique_id":"_ZTSN7android8hardware5light4V2_07BsLightE"
  }
 ],
 "elf_functions":[
  {
   "name":"_ZN7android8hardware5light4V2_06ILight10getServiceERKNSt3__112basic_stringIcNS4_11char_traitsIcEENS4_9allocatorIcEEEEb"
  },
  {
   "name":"_ZN7android8hardware5light4V2_06ILight11linkToDeathERKNS_2spINS0_20hidl_death_recipientEEEm"
  },
  {
   "name":"_ZN7android8hardware5light4V2_06ILight12getDebugInfoENSt3__18functionIFvRKNS_4hidl4base4V1_09DebugInfoEEEE"
  },
  {
   "name":"_ZN7android8hardware5light4V2_06ILight12getHashChainENSt3__18functionIFvRKNS0_8hidl_vecINS0_10hidl_arrayIhLm32EJEEEEEEEE"
  },
  {
   "name":"_ZN7android8hardware5light4V2_06ILight13tryGetServiceERKNSt3__112basic_stringIcNS4_11char_traitsIcEENS4_9allocatorIcEEEEb"
  },
  {
   "name":"_ZN7android8hardware5light4V2_06ILight13unlinkToDeathERKNS_2spINS0_20hidl_death_recipientEEE"
  },
  {
   "name":"_ZN7android8hardware5light4V2_06ILight14interfaceChainENSt3__18functionIFvRKNS0_8hidl_vecINS0_11hidl_stringEEEEEE"
  },
  {
   "name":"_ZN7android8hardware5light4V2_06ILight17registerAsServiceERKNSt3__112basic_stringIcNS4_11char_traitsIcEENS4_9allocatorIcEEEE"
  },
  {
   "name":"_ZN7android8hardware5light4V2_06ILight19interfaceDescriptorENSt3__18functionIFvRKNS0_11hidl_stringEEEE"
  },
  {
   "name":"_ZN7android8hardware5light4V2_06ILight21notifySyspropsChangedEv"
  },
  {
   "name":"_ZN7android8hardware5light4V2_06ILight21setHALInstrumentationEv"
  },
  {
   "name":"_ZN7android8hardware5light4V2_06ILight24registerForNotificationsERKNSt3__112basic_stringIcNS4_11char_traitsIcEENS4_9allocatorIcEEEERKNS_2spINS_4hidl7manager4V1_020IServiceNotificationEEE"
  },
  {
   "name":"_ZN7android8hardware5light4V2_06ILight4pingEv"
  },
  {
   "name":"_ZN7android8hardware5light4V2_06ILight5debugERKNS0_11hidl_handleERKNS0_8hidl_vecINS0_11hidl_stringEEE"
  },
  {
   "name":"_ZN7android8hardware5light4V2_06ILight8castFromERKNS_2spINS_4hidl4base4V1_05IBaseEEEb"
  },
  {
   "name":"_ZN7android8hardware5light4V2_06ILight8castFromERKNS_2spIS3_EEb"
  },
  {
   "name":"_ZN7android8hardware5light4V2_07BsLight13addOnewayTaskENSt3__18functionIFvvEEE"
  },
  {
   "name":"_ZN7android8hardware5light4V2_07BsLightC1ENS_2spINS2_6ILightEEE"
  },
  {
   "name":"_ZN7android8hardware5light4V2_07BsLightC2ENS_2spINS2_6ILightEEE"
  },
  {
   "name":"_ZN7android8hardware5light4V2_09BnHwLight10onTransactEjRKNS0_6ParcelEPS4_jNSt3__18functionIFvRS4_EEE"
  },
  {
   "name":"_ZN7android8hardware5light4V2_09BnHwLight12getDebugInfoENSt3__18functionIFvRKNS_4hidl4base4V1_09DebugInfoEEEE"
  },
  {
   "name":"_ZN7android8hardware5light4V2_09BnHwLight14_hidl_setLightEPNS_4hidl4base4V1_08BnHwBaseERKNS0_6ParcelEPS9_NSt3__18functionIFvRS9_EEE"
  },
  {
   "name":"_ZN7android8hardware5light4V2_09BnHwLight23_hidl_getSupportedTypesEPNS_4hidl4base4V1_08BnHwBaseERKNS0_6ParcelEPS9_NSt3__18functionIFvRS9_EEE"
  },
  {
   "name":"_ZN7android8hardware5light4V2_09BnHwLight4pingEv"
  },
  {
   "name":"_ZN7android8hardware5light4V2_09BnHwLightC1ERKNS_2spINS2_6ILightEEE"
  },
  {
   "name":"_ZN7android8hardware5light4V2_09BnHwLightC2ERKNS_2spINS2_6ILightEEE"
  },
  {
   "name":"_ZN7android8hardware5light4V2_09BnHwLightD0Ev"
  },
  {
   "name":"_ZN7android8hardware5light4V2_09BnHwLightD1Ev"
  },
  {
   "name":"_ZN7android8hardware5light4V2_09BnHwLightD2Ev"
  },
  {
   "name":"_ZN7android8hardware5light4V2_09BpHwLight11linkToDeathERKNS_2spINS0_20hidl_death_recipientEEEm"
  },
  {
   "name":"_ZN7android8hardware5light4V2_09BpHwLight12getDebugInfoENSt3__18functionIFvRKNS_4hidl4base4V1_09DebugInfoEEEE"
  },
  {
   "name":"_ZN7android8hardware5light4V2_09BpHwLight12getHashChainENSt3__18functionIFvRKNS0_8hidl_vecINS0_10hidl_arrayIhLm32EJEEEEEEEE"
  },
  {
   "name":"_ZN7android8hardware5light4V2_09BpHwLight13unlinkToDeathERKNS_2spINS0_20hidl_death_recipientEEE"
  },
  {
   "name":"_ZN7android8hardware5light4V2_09BpHwLight14_hidl_setLightEPNS0_10IInterfaceEPNS0_7details16HidlInstrumentorENS2_4TypeERKNS2_10LightStateE"
  },
  {
   "name":"_ZN7android8hardware5light4V2_09BpHwLight14interfaceChainENSt3__18functionIFvRKNS0_8hidl_vecINS0_11hidl_stringEEEEEE"
  },
  {
   "name":"_ZN7android8hardware5light4V2_09BpHwLight17getSupportedTypesENSt3__18functionIFvRKNS0_8hidl_vecINS2_4TypeEEEEEE"
  },
  {
   "name":"_ZN7android8hardware5light4V2_09BpHwLight19interfaceDescriptorENSt3__18functionIFvRKNS0_11hidl_stringEEEE"
  },
  {
   "name":"_ZN7android8hardware5light4V2_09BpHwLight21notifySyspropsChangedEv"
  },
  {
   "name":"_ZN7android8hardware5light4V2_09BpHwLight21setHALInstrumentationEv"
  },
  {
   "name":"_ZN7android8hardware5light4V2_09BpHwLight23_hidl_getSupportedTypesEPNS0_10IInterfaceEPNS0_7details16HidlInstrumentorENSt3__18functionIFvRKNS0_8hidl_vecINS2_4TypeEEEEEE"
  },
  {
   "name":"_ZN7android8hardware5light4V2_09BpHwLight4pingEv"
  },
  {
   "name":"_ZN7android8hardware5light4V2_09BpHwLight5debugERKNS0_11hidl_handleERKNS0_8hidl_vecINS0_11hidl_stringEEE"
  },
  {
   "name":"_ZN7android8hardware5light4V2_09BpHwLight8setLightENS2_4TypeERKNS2_10LightStateE"
  },
  {
   "name":"_ZN7android8hardware5light4V2_09BpHwLightC1ERKNS_2spINS0_7IBinderEEE"
  },
  {
   "name":"_ZN7android8hardware5light4V2_09BpHwLightC2ERKNS_2spINS0_7IBinderEEE"
  },
  {
   "binding":"weak",
   "name":"_ZN7android8hardware7details13castInterfaceINS0_5light4V2_06ILightENS_4hidl4base4V1_05IBaseENS4_9BpHwLightEEENS0_6ReturnINS_2spIT_EEEENSC_IT0_EEPKcb"
  },
  {
   "binding":"weak",
   "name":"_ZN7android8hardware7details18getServiceInternalINS0_5light4V2_09BpHwLightENS4_6ILightEvvEENS_2spIT0_EERKNSt3__112basic_stringIcNSA_11char_traitsIcEENSA_9allocatorIcEEEEbb"
  },
  {
   "binding":"weak",
   "name":"_ZN7android8hardware8toBinderINS_4hidl4base4V1_05IBaseEvEENS_2spINS0_7IBinderEEENS6_IT_EE"
  },
  {
   "name":"_ZThn32_N7android8hardware5light4V2_09BnHwLightD0Ev"
  },
  {
   "name":"_ZThn32_N7android8hardware5light4V2_09BnHwLightD1Ev"
  },
  {
   "name":"_ZTv0_n24_N7android8hardware5light4V2_09BnHwLightD0Ev"
  },
  {
   "name":"_ZTv0_n24_N7android8hardware5light4V2_09BnHwLightD1Ev"
  }
 ],
 "elf_objects":[
  {
   "name":"_ZN7android8hardware5light4V2_06ILight10descriptorE"
  },
  {
   "name":"_ZTTN7android8hardware5light4V2_06ILightE"
  },
  {
   "name":"_ZTTN7android8hardware5light4V2_09BnHwLightE"
  },
  {
   "name":"_ZTTN7android8hardware5light4V2_09BpHwLightE"
  },
  {
   "name":"_ZTVN7android8hardware5light4V2_06ILightE"
  },
  {
   "binding":"weak",
   "name":"_ZTVN7android8hardware5light4V2_07BsLightE"
  },
  {
   "name":"_ZTVN7android8hardware5light4V2_09BnHwLightE"
  },
  {
   "name":"_ZTVN7android8hardware5light4V2_09BpHwLightE"
  }
 ]
}