{
 "record_types":[
  {
   "vtable_components":[
    {
     "kind":"vbase_offset",
     "component_value":8
    },
    {
     "kind":"offset_to_top"
    },
    {
     "kind":"rtti",
     "mangled_component_name":"_ZTIN7android10frameworks2vr8composer4V1_017IVrComposerClientE"
    },
    {
     "mangled_component_name":"_ZNK7android10frameworks2vr8composer4V1_017IVrComposerClient8isRemoteEv"
    },
    {
     "mangled_component_name":"_ZN7android10frameworks2vr8composer4V1_017IVrComposerClient14interfaceChainENSt3__18functionIFvRKNS_8hardware8hidl_vecINS7_11hidl_stringEEEEEE"
    },
    {
     "mangled_component_name":"_ZN7android10frameworks2vr8composer4V1_017IVrComposerClient5debugERKNS_8hardware11hidl_handleERKNS5_8hidl_vecINS5_11hidl_stringEEE"
    },
    {
     "mangled_component_name":"_ZN7android10frameworks2vr8composer4V1_017IVrComposerClient19interfaceDescriptorENSt3__18functionIFvRKNS_8hardware11hidl_stringEEEE"
    },
    {
     "mangled_component_name":"_ZN7android10frameworks2vr8composer4V1_017IVrComposerClient12getHashChainENSt3__18functionIFvRKNS_8hardware8hidl_vecINS7_10hidl_arrayIhLm32EJEEEEEEEE"
    },
    {
     "mangled_component_name":"_ZN7android10frameworks2vr8composer4V1_017IVrComposerClient21setHALInstrumentationEv"
    },
    {
     "mangled_component_name":"_ZN7android10frameworks2vr8composer4V1_017IVrComposerClient11linkToDeathERKNS_2spINS_8hardware20hidl_death_recipientEEEm"
    },
    {
     "mangled_component_name":"_ZN7android10frameworks2vr8composer4V1_017IVrComposerClient4pingEv"
    },
    {
     "mangled_component_name":"_ZN7android10frameworks2vr8composer4V1_017IVrComposerClient12getDebugInfoENSt3__18functionIFvRKNS_4hidl4base4V1_09DebugInfoEEEE"
    },
    {
     "mangled_component_name":"_ZN7android10frameworks2vr8composer4V1_017IVrComposerClient21notifySyspropsChangedEv"
    },
    {
     "mangled_component_name":"_ZN7android10frameworks2vr8composer4V1_017IVrComposerClient13unlinkToDeathERKNS_2spINS_8hardware20hidl_death_recipientEEE"
    },
    {
     "kind":"complete_dtor_pointer",
     "mangled_component_name":"_ZN7android10frameworks2vr8composer4V1_017IVrComposerClientD1Ev"
    },
    {
     "kind":"deleting_dtor_pointer",
     "mangled_component_name":"_ZN7android10frameworks2vr8composer4V1_017IVrComposerClientD0Ev"
    },
    {
     "is_pure":true,
     "mangled_component_name":"_ZN7android10frameworks2vr8composer4V1_017IVrComposerClient16registerCallbackERKNS_2spINS_8hardware8graphics8composer4V2_117IComposerCallbackEEE"
    },
    {
     "is_pure":true,
     "mangled_component_name":"_ZN7android10frameworks2vr8composer4V1_017IVrComposerClient25getMaxVirtualDisplayCountEv"
    },
    {
     "is_pure":true,
     "mangled_component_name":"_ZN7android10frameworks2vr8composer4V1_017IVrComposerClient20createVirtualDisplayEjjNS_8hardware8graphics6common4V1_011PixelFormatEjNSt3__18functionIFvNS6_8composer4V2_15ErrorEmS9_EEE"
    },
    {
     "is_pure":true,
     "mangled_component_name":"_ZN7android10frameworks2vr8composer4V1_017IVrComposerClient21destroyVirtualDisplayEm"
    },
    {
     "is_pure":true,
     "mangled_component_name":"_ZN7android10frameworks2vr8composer4V1_017IVrComposerClient11createLayerEmjNSt3__18functionIFvNS_8hardware8graphics8composer4V2_15ErrorEmEEE"
    },
    {
     "is_pure":true,
     "mangled_component_name":"_ZN7android10frameworks2vr8composer4V1_017IVrComposerClient12destroyLayerEmm"
    },
    {
     "is_pure":true,
     "mangled_component_name":"_ZN7android10frameworks2vr8composer4V1_017IVrComposerClient15getActiveConfigEmNSt3__18functionIFvNS_8hardware8graphics8composer4V2_15ErrorEjEEE"
    },
    {
     "is_pure":true,
     "mangled_component_name":"_ZN7android10frameworks2vr8composer4V1_017IVrComposerClient22getClientTargetSupportEmjjNS_8hardware8graphics6common4V1_011PixelFormatENS8_9DataspaceE"
    },
    {
     "is_pure":true,
     "mangled_component_name":"_ZN7android10frameworks2vr8composer4V1_017IVrComposerClient13getColorModesEmNSt3__18functionIFvNS_8hardware8graphics8composer4V2_15ErrorERKNS7_8hidl_vecINS8_6common4V1_09ColorModeEEEEEE"
    },
    {
     "is_pure":true,
     "mangled_component_name":"_ZN7android10frameworks2vr8composer4V1_017IVrComposerClient19getDisplayAttributeEmjNS_8hardware8graphics8composer4V2_115IComposerClient9AttributeENSt3__18functionIFvNS8_5ErrorEiEEE"
    },
    {
     "is_pure":true,
     "mangled_component_name":"_ZN7android10frameworks2vr8composer4V1_017IVrComposerClient17getDisplayConfigsEmNSt3__18functionIFvNS_8hardware8graphics8composer4V2_15ErrorERKNS7_8hidl_vecIjEEEEE"
    },
    {
     "is_pure":true,
     "mangled_component_name":"_ZN7android10frameworks2vr8composer4V1_017IVrComposerClient14getDisplayNameEmNSt3__18functionIFvNS_8hardware8graphics8composer4V2_15ErrorERKNS7_11hidl_stringEEEE"
    },
    {
     "is_pure":true,
     "mangled_component_name":"_ZN7android10frameworks2vr8composer4V1_017IVrComposerClient14getDisplayTypeEmNSt3__18functionIFvNS_8hardware8graphics8composer4V2_15ErrorENSA_15IComposerClient11DisplayTypeEEEE"
    },
    {
     "is_pure":true,
     "mangled_component_name":"_ZN7android10frameworks2vr8composer4V1_017IVrComposerClient14getDozeSupportEmNSt3__18functionIFvNS_8hardware8graphics8composer4V2_15ErrorEbEEE"
    },
    {
     "is_pure":true,
     "mangled_component_name":"_ZN7android10frameworks2vr8composer4V1_017IVrComposerClient18getHdrCapabilitiesEmNSt3__18functionIFvNS_8hardware8graphics8composer4V2_15ErrorERKNS7_8hidl_vecINS8_6common4V1_03HdrEEEfffEEE"
    },
    {
     "is_pure":true,
     "mangled_component_name":"_ZN7android10frameworks2vr8composer4V1_017IVrComposerClient24setClientTargetSlotCountEmj"
    },
    {
     "is_pure":true,
     "mangled_component_name":"_ZN7android10frameworks2vr8composer4V1_017IVrComposerClient15setActiveConfigEmj"
    },
    {
     "is_pure":true,
     "mangled_component_name":"_ZN7android10frameworks2vr8composer4V1_017IVrComposerClient12setColorModeEmNS_8hardware8graphics6common4V1_09ColorModeE"
    },
    {
     "is_pure":true,
     "mangled_component_name":"_ZN7android10frameworks2vr8composer4V1_017IVrComposerClient12setPowerModeEmNS_8hardware8graphics8composer4V2_115IComposerClient9PowerModeE"
    },
    {
     "is_pure":true,
     "mangled_component_name":"_ZN7android10frameworks2vr8composer4V1_017IVrComposerClient15setVsyncEnabledEmNS_8hardware8graphics8composer4V2_115IComposerClient5VsyncE"
    },
    {
     "is_pure":true,
     "mangled_component_name":"_ZN7android10frameworks2vr8composer4V1_017IVrComposerClient20setInputCommandQueueERKNS_8hardware12MQDescriptorIjLNS5_8MQFlavorE1EEE"
    },
    {
     "is_pure":true,
     "mangled_component_name":"_ZN7android10frameworks2vr8composer4V1_017IVrComposerClient21getOutputCommandQueueENSt3__18functionIFvNS_8hardware8graphics8composer4V2_15ErrorERKNS7_12MQDescriptorIjLNS7_8MQFlavorE1EEEEEE"
    },
    {
     "is_pure":true,
     "mangled_component_name":"_ZN7android10frameworks2vr8composer4V1_017IVrComposerClient15executeCommandsEjRKNS_8hardware8hidl_vecINS5_11hidl_handleEEENSt3__18functionIFvNS5_8graphics8composer4V2_15ErrorEbjSA_EEE"
    },
    {
     "kind":"vcall_offset"
    },
    {
     "kind":"vcall_offset"
    },
    {
     "kind":"vcall_offset"
    },
    {
     "kind":"vcall_offset"
    },
    {
     "kind":"vcall_offset",
     "component_value":-8
    },
    {
     "kind":"offset_to_top",
     "component_value":-8
    },
    {
     "kind":"rtti",
     "mangled_component_name":"_ZTIN7android10frameworks2vr8composer4V1_017IVrComposerClientE"
    },
    {
     "kind":"complete_dtor_pointer",
     "mangled_component_name":"_ZTv0_n24_N7android10frameworks2vr8composer4V1_017IVrComposerClientD1Ev"
    },
    {
     "kind":"deleting_dtor_pointer",
     "mangled_component_name":"_ZTv0_n24_N7android10frameworks2vr8composer4V1_017IVrComposerClientD0Ev"
    },
    {
     "mangled_component_name":"_ZN7android7RefBase10onFirstRefEv"
    },
    {
     "mangled_component_name":"_ZN7android7RefBase15onLastStrongRefEPKv"
    },
    {
     "mangled_component_name":"_ZN7android7RefBase20onIncStrongAttemptedEjPKv"
    },
    {
     "mangled_component_name":"_ZN7android7RefBase13onLastWeakRefEPKv"
    }
   ],
   "unique_id":"_ZTSN7android10frameworks2vr8composer4V1_017IVrComposerClientE"
  },
  {
   "vtable_components":[
    {
     "kind":"vbase_offset",
     "component_value":136
    },
    {
     "kind":"offset_to_top"
    },
    {
     "kind":"rtti",
     "mangled_component_name":"_ZTIN7android10frameworks2vr8composer4V1_020BnHwVrComposerClientE"
    },
    {
     "mangled_component_name":"_ZN7android8hardware9BHwBinder8transactEjRKNS0_6ParcelEPS2_jNSt3__18functionIFvRS2_EEE"
    },
    {
     "mangled_component_name":"_ZN7android8hardware9BHwBinder11linkToDeathERKNS_2spINS0_7IBinder14DeathRecipientEEEPvj"
    },
    {
     "mangled_component_name":"_ZN7android8hardware9BHwBinder13unlinkToDeathERKNS_2wpINS0_7IBinder14DeathRecipientEEEPvjPS5_"
    },
    {
     "mangled_component_name":"_ZNK7android8hardware7IBinder13checkSubclassEPKv"
    },
    {
     "mangled_component_name":"_ZN7android8hardware9BHwBinder12attachObjectEPKvPvS4_PFvS3_S4_S4_E"
    },
    {
     "mangled_component_name":"_ZNK7android8hardware9BHwBinder10findObjectEPKv"
    },
    {
     "mangled_component_name":"_ZN7android8hardware9BHwBinder12detachObjectEPKv"
    },
    {
     "mangled_component_name":"_ZN7android8hardware9BHwBinder11localBinderEv"
    },
    {
     "mangled_component_name":"_ZN7android8hardware7IBinder12remoteBinderEv"
    },
    {
     "kind":"complete_dtor_pointer",
     "mangled_component_name":"_ZN7android10frameworks2vr8composer4V1_020BnHwVrComposerClientD1Ev"
    },
    {
     "kind":"deleting_dtor_pointer",
     "mangled_component_name":"_ZN7android10frameworks2vr8composer4V1_020BnHwVrComposerClientD0Ev"
    },
    {
     "mangled_component_name":"_ZN7android10frameworks2vr8composer4V1_020BnHwVrComposerClient10onTransactEjRKNS_8hardware6ParcelEPS6_jNSt3__18functionIFvRS6_EEE"
    },
    {
     "kind":"offset_to_top",
     "component_value":-32
    },
    {
     "kind":"rtti",
     "mangled_component_name":"_ZTIN7android10frameworks2vr8composer4V1_020BnHwVrComposerClientE"
    },
    {
     "kind":"complete_dtor_pointer",
     "mangled_component_name":"_ZThn32_N7android10frameworks2vr8composer4V1_020BnHwVrComposerClientD1Ev"
    },
    {
     "kind":"deleting_dtor_pointer",
     "mangled_component_name":"_ZThn32_N7android10frameworks2vr8composer4V1_020BnHwVrComposerClientD0Ev"
    },
    {
     "kind":"vcall_offset"
    },
    {
     "kind":"vcall_offset"
    },
    {
     "kind":"vcall_offset"
    },
    {
     "kind":"vcall_offset"
    },
    {
     "kind":"vcall_offset",
     "component_value":-136
    },
    {
     "kind":"offset_to_top",
     "component_value":-136
    },
    {
     "kind":"rtti",
     "mangled_component_name":"_ZTIN7android10frameworks2vr8composer4V1_020BnHwVrComposerClientE"
    },
    {
     "kind":"complete_dtor_pointer",
     "mangled_component_name":"_ZTv0_n24_N7android10frameworks2vr8composer4V1_020BnHwVrComposerClientD1Ev"
    },
    {
     "kind":"deleting_dtor_pointer",
     "mangled_component_name":"_ZTv0_n24_N7android10frameworks2vr8composer4V1_020BnHwVrComposerClientD0Ev"
    },
    {
     "mangled_component_name":"_ZN7android7RefBase10onFirstRefEv"
    },
    {
     "mangled_component_name":"_ZN7android7RefBase15onLastStrongRefEPKv"
    },
    {
     "mangled_component_name":"_ZN7android7RefBase20onIncStrongAttemptedEjPKv"
    },
    {
     "mangled_component_name":"_ZN7android7RefBase13onLastWeakRefEPKv"
    }
   ],
   "unique_id":"_ZTSN7android10frameworks2vr8composer4V1_020BnHwVrComposerClientE"
  },
  {
   "vtable_components":[
    {
     "kind":"vbase_offset",
     "component_value":200
    },
    {
     "kind":"offset_to_top"
    },
    {
     "kind":"rtti",
     "mangled_component_name":"_ZTIN7android10frameworks2vr8composer4V1_020BpHwVrComposerClientE"
    },
    {
     "mangled_component_name":"_ZNK7android10frameworks2vr8composer4V1_020BpHwVrComposerClient8isRemoteEv"
    },
    {
     "mangled_component_name":"_ZN7android10frameworks2vr8composer4V1_020BpHwVrComposerClient14interfaceChainENSt3__18functionIFvRKNS_8hardware8hidl_vecINS7_11hidl_stringEEEEEE"
    },
    {
     "mangled_component_name":"_ZN7android10frameworks2vr8composer4V1_020BpHwVrComposerClient5debugERKNS_8hardware11hidl_handleERKNS5_8hidl_vecINS5_11hidl_stringEEE"
    },
    {
     "mangled_component_name":"_ZN7android10frameworks2vr8composer4V1_020BpHwVrComposerClient19interfaceDescriptorENSt3__18functionIFvRKNS_8hardware11hidl_stringEEEE"
    },
    {
     "mangled_component_name":"_ZN7android10frameworks2vr8composer4V1_020BpHwVrComposerClient12getHashChainENSt3__18functionIFvRKNS_8hardware8hidl_vecINS7_10hidl_arrayIhLm32EJEEEEEEEE"
    },
    {
     "mangled_component_name":"_ZN7android10frameworks2vr8composer4V1_020BpHwVrComposerClient21setHALInstrumentationEv"
    },
    {
     "mangled_component_name":"_ZN7android10frameworks2vr8composer4V1_020BpHwVrComposerClient11linkToDeathERKNS_2spINS_8hardware20hidl_death_recipientEEEm"
    },
    {
     "mangled_component_name":"_ZN7android10frameworks2vr8composer4V1_020BpHwVrComposerClient4pingEv"
    },
    {
     "mangled_component_name":"_ZN7android10frameworks2vr8composer4V1_020BpHwVrComposerClient12getDebugInfoENSt3__18functionIFvRKNS_4hidl4base4V1_09DebugInfoEEEE"
    },
    {
     "mangled_component_name":"_ZN7android10frameworks2vr8composer4V1_020BpHwVrComposerClient21notifySyspropsChangedEv"
    },
    {
     "mangled_component_name":"_ZN7android10frameworks2vr8composer4V1_020BpHwVrComposerClient13unlinkToDeathERKNS_2spINS_8hardware20hidl_death_recipientEEE"
    },
    {
     "kind":"complete_dtor_pointer",
     "mangled_component_name":"_ZN7android10frameworks2vr8composer4V1_020BpHwVrComposerClientD1Ev"
    },
    {
     "kind":"deleting_dtor_pointer",
     "mangled_component_name":"_ZN7android10frameworks2vr8composer4V1_020BpHwVrComposerClientD0Ev"
    },
    {
     "mangled_component_name":"_ZN7android10frameworks2vr8composer4V1_020BpHwVrComposerClient16registerCallbackERKNS_2spINS_8hardware8graphics8composer4V2_117IComposerCallbackEEE"
    },
    {
     "mangled_component_name":"_ZN7android10frameworks2vr8composer4V1_020BpHwVrComposerClient25getMaxVirtualDisplayCountEv"
    },
    {
     "mangled_component_name":"_ZN7android10frameworks2vr8composer4V1_020BpHwVrComposerClient20createVirtualDisplayEjjNS_8hardware8graphics6common4V1_011PixelFormatEjNSt3__18functionIFvNS6_8composer4V2_15ErrorEmS9_EEE"
    },
    {
     "mangled_component_name":"_ZN7android10frameworks2vr8composer4V1_020BpHwVrComposerClient21destroyVirtualDisplayEm"
    },
    {
     "mangled_component_name":"_ZN7android10frameworks2vr8composer4V1_020BpHwVrComposerClient11createLayerEmjNSt3__18functionIFvNS_8hardware8graphics8composer4V2_15ErrorEmEEE"
    },
    {
     "mangled_component_name":"_ZN7android10frameworks2vr8composer4V1_020BpHwVrComposerClient12destroyLayerEmm"
    },
    {
     "mangled_component_name":"_ZN7android10frameworks2vr8composer4V1_020BpHwVrComposerClient15getActiveConfigEmNSt3__18functionIFvNS_8hardware8graphics8composer4V2_15ErrorEjEEE"
    },
    {
     "mangled_component_name":"_ZN7android10frameworks2vr8composer4V1_020BpHwVrComposerClient22getClientTargetSupportEmjjNS_8hardware8graphics6common4V1_011PixelFormatENS8_9DataspaceE"
    },
    {
     "mangled_component_name":"_ZN7android10frameworks2vr8composer4V1_020BpHwVrComposerClient13getColorModesEmNSt3__18functionIFvNS_8hardware8graphics8composer4V2_15ErrorERKNS7_8hidl_vecINS8_6common4V1_09ColorModeEEEEEE"
    },
    {
     "mangled_component_name":"_ZN7android10frameworks2vr8composer4V1_020BpHwVrComposerClient19getDisplayAttributeEmjNS_8hardware8graphics8composer4V2_115IComposerClient9AttributeENSt3__18functionIFvNS8_5ErrorEiEEE"
    },
    {
     "mangled_component_name":"_ZN7android10frameworks2vr8composer4V1_020BpHwVrComposerClient17getDisplayConfigsEmNSt3__18functionIFvNS_8hardware8graphics8composer4V2_15ErrorERKNS7_8hidl_vecIjEEEEE"
    },
    {
     "mangled_component_name":"_ZN7android10frameworks2vr8composer4V1_020BpHwVrComposerClient14getDisplayNameEmNSt3__18functionIFvNS_8hardware8graphics8composer4V2_15ErrorERKNS7_11hidl_stringEEEE"
    },
    {
     "mangled_component_name":"_ZN7android10frameworks2vr8composer4V1_020BpHwVrComposerClient14getDisplayTypeEmNSt3__18functionIFvNS_8hardware8graphics8composer4V2_15ErrorENSA_15IComposerClient11DisplayTypeEEEE"
    },
    {
     "mangled_component_name":"_ZN7android10frameworks2vr8composer4V1_020BpHwVrComposerClient14getDozeSupportEmNSt3__18functionIFvNS_8hardware8graphics8composer4V2_15ErrorEbEEE"
    },
    {
     "mangled_component_name":"_ZN7android10frameworks2vr8composer4V1_020BpHwVrComposerClient18getHdrCapabilitiesEmNSt3__18functionIFvNS_8hardware8graphics8composer4V2_15ErrorERKNS7_8hidl_vecINS8_6common4V1_03HdrEEEfffEEE"
    },
    {
     "mangled_component_name":"_ZN7android10frameworks2vr8composer4V1_020BpHwVrComposerClient24setClientTargetSlotCountEmj"
    },
    {
     "mangled_component_name":"_ZN7android10frameworks2vr8composer4V1_020BpHwVrComposerClient15setActiveConfigEmj"
    },
    {
     "mangled_component_name":"_ZN7android10frameworks2vr8composer4V1_020BpHwVrComposerClient12setColorModeEmNS_8hardware8graphics6common4V1_09ColorModeE"
    },
    {
     "mangled_component_name":"_ZN7android10frameworks2vr8composer4V1_020BpHwVrComposerClient12setPowerModeEmNS_8hardware8graphics8composer4V2_115IComposerClient9PowerModeE"
    },
    {
     "mangled_component_name":"_ZN7android10frameworks2vr8composer4V1_020BpHwVrComposerClient15setVsyncEnabledEmNS_8hardware8graphics8composer4V2_115IComposerClient5VsyncE"
    },
    {
     "mangled_component_name":"_ZN7android10frameworks2vr8composer4V1_020BpHwVrComposerClient20setInputCommandQueueERKNS_8hardware12MQDescriptorIjLNS5_8MQFlavorE1EEE"
    },
    {
     "mangled_component_name":"_ZN7android10frameworks2vr8composer4V1_020BpHwVrComposerClient21getOutputCommandQueueENSt3__18functionIFvNS_8hardware8graphics8composer4V2_15ErrorERKNS7_12MQDescriptorIjLNS7_8MQFlavorE1EEEEEE"
    },
    {
     "mangled_component_name":"_ZN7android10frameworks2vr8composer4V1_020BpHwVrComposerClient15executeCommandsEjRKNS_8hardware8hidl_vecINS5_11hidl_handleEEENSt3__18functionIFvNS5_8graphics8composer4V2_15ErrorEbjSA_EEE"
    },
    {
     "mangled_component_name":"_ZN7android8hardware11BpInterfaceINS_10frameworks2vr8composer4V1_017IVrComposerClientEE10onAsBinderEv"
    },
    {
     "kind":"vbase_offset",
     "component_value":192
    },
    {
     "kind":"offset_to_top",
     "component_value":-8
    },
    {
     "kind":"rtti",
     "mangled_component_name":"_ZTIN7android10frameworks2vr8composer4V1_020BpHwVrComposerClientE"
    },
    {
     "kind":"complete_dtor_pointer",
     "mangled_component_name":"_ZThn8_N7android10frameworks2vr8composer4V1_020BpHwVrComposerClientD1Ev"
    },
    {
     "kind":"deleting_dtor_pointer",
     "mangled_component_name":"_ZThn8_N7android10frameworks2vr8composer4V1_020BpHwVrComposerClientD0Ev"
    },
    {
     "mangled_component_name":"_ZThn8_N7android8hardware11BpInterfaceINS_10frameworks2vr8composer4V1_017IVrComposerClientEE10onAsBinderEv"
    },
    {
     "kind":"vbase_offset",
     "component_value":184
    },
    {
     "kind":"offset_to_top",
     "component_value":-16
    },
    {
     "kind":"rtti",
     "mangled_component_name":"_ZTIN7android10frameworks2vr8composer4V1_020BpHwVrComposerClientE"
    },
    {
     "kind":"complete_dtor_pointer",
     "mangled_component_name":"_ZThn16_N7android10frameworks2vr8composer4V1_020BpHwVrComposerClientD1Ev"
    },
    {
     "kind":"deleting_dtor_pointer",
     "mangled_component_name":"_ZThn16_N7android10frameworks2vr8composer4V1_020BpHwVrComposerClientD0Ev"
    },
    {
     "mangled_component_name":"_ZN7android8hardware11BpHwRefBase10onFirstRefEv"
    },
    {
     "mangled_component_name":"_ZN7android8hardware11BpHwRefBase15onLastStrongRefEPKv"
    },
    {
     "mangled_component_name":"_ZN7android8hardware11BpHwRefBase20onIncStrongAttemptedEjPKv"
    },
    {
     "kind":"offset_to_top",
     "component_value":-48
    },
    {
     "kind":"rtti",
     "mangled_component_name":"_ZTIN7android10frameworks2vr8composer4V1_020BpHwVrComposerClientE"
    },
    {
     "kind":"complete_dtor_pointer",
     "mangled_component_name":"_ZThn48_N7android10frameworks2vr8composer4V1_020BpHwVrComposerClientD1Ev"
    },
    {
     "kind":"deleting_dtor_pointer",
     "mangled_component_name":"_ZThn48_N7android10frameworks2vr8composer4V1_020BpHwVrComposerClientD0Ev"
    },
    {
     "kind":"vcall_offset"
    },
    {
     "kind":"vcall_offset",
     "component_value":-184
    },
    {
     "kind":"vcall_offset",
     "component_value":-184
    },
    {
     "kind":"vcall_offset",
     "component_value":-184
    },
    {
     "kind":"vcall_offset",
     "component_value":-200
    },
    {
     "kind":"offset_to_top",
     "component_value":-200
    },
    {
     "kind":"rtti",
     "mangled_component_name":"_ZTIN7android10frameworks2vr8composer4V1_020BpHwVrComposerClientE"
    },
    {
     "kind":"complete_dtor_pointer",
     "mangled_component_name":"_ZTv0_n24_N7android10frameworks2vr8composer4V1_020BpHwVrComposerClientD1Ev"
    },
    {
     "kind":"deleting_dtor_pointer",
     "mangled_component_name":"_ZTv0_n24_N7android10frameworks2vr8composer4V1_020BpHwVrComposerClientD0Ev"
    },
    {
     "mangled_component_name":"_ZTv0_n32_N7android8hardware11BpHwRefBase10onFirstRefEv"
    },
    {
     "mangled_component_name":"_ZTv0_n40_N7android8hardware11BpHwRefBase15onLastStrongRefEPKv"
    },
    {
     "mangled_component_name":"_ZTv0_n48_N7android8hardware11BpHwRefBase20onIncStrongAttemptedEjPKv"
    },
    {
     "mangled_component_name":"_ZN7android7RefBase13onLastWeakRefEPKv"
    }
   ],
   "unique_id":"_ZTSN7android10frameworks2vr8composer4V1_020BpHwVrComposerClientE"
  },
  {
   "vtable_components":[
    {
     "kind":"vbase_offset",
     "component_value":120
    },
    {
     "kind":"offset_to_top"
    },
    {
     "kind":"rtti",
     "mangled_component_name":"_ZTIN7android10frameworks2vr8composer4V1_018BsVrComposerClientE"
    },
    {
     "mangled_component_name":"_ZNK7android10frameworks2vr8composer4V1_017IVrComposerClient8isRemoteEv"
    },
    {
     "mangled_component_name":"_ZN7android10frameworks2vr8composer4V1_018BsVrComposerClient14interfaceChainENSt3__18functionIFvRKNS_8hardware8hidl_vecINS7_11hidl_stringEEEEEE"
    },
    {
     "mangled_component_name":"_ZN7android10frameworks2vr8composer4V1_018BsVrComposerClient5debugERKNS_8hardware11hidl_handleERKNS5_8hidl_vecINS5_11hidl_stringEEE"
    },
    {
     "mangled_component_name":"_ZN7android10frameworks2vr8composer4V1_018BsVrComposerClient19interfaceDescriptorENSt3__18functionIFvRKNS_8hardware11hidl_stringEEEE"
    },
    {
     "mangled_component_name":"_ZN7android10frameworks2vr8composer4V1_018BsVrComposerClient12getHashChainENSt3__18functionIFvRKNS_8hardware8hidl_vecINS7_10hidl_arrayIhLm32EJEEEEEEEE"
    },
    {
     "mangled_component_name":"_ZN7android10frameworks2vr8composer4V1_018BsVrComposerClient21setHALInstrumentationEv"
    },
    {
     "mangled_component_name":"_ZN7android10frameworks2vr8composer4V1_018BsVrComposerClient11linkToDeathERKNS_2spINS_8hardware20hidl_death_recipientEEEm"
    },
    {
     "mangled_component_name":"_ZN7android10frameworks2vr8composer4V1_018BsVrComposerClient4pingEv"
    },
    {
     "mangled_component_name":"_ZN7android10frameworks2vr8composer4V1_018BsVrComposerClient12getDebugInfoENSt3__18functionIFvRKNS_4hidl4base4V1_09DebugInfoEEEE"
    },
    {
     "mangled_component_name":"_ZN7android10frameworks2vr8composer4V1_018BsVrComposerClient21notifySyspropsChangedEv"
    },
    {
     "mangled_component_name":"_ZN7android10frameworks2vr8composer4V1_018BsVrComposerClient13unlinkToDeathERKNS_2spINS_8hardware20hidl_death_recipientEEE"
    },
    {
     "kind":"complete_dtor_pointer",
     "mangled_component_name":"_ZN7android10frameworks2vr8composer4V1_018BsVrComposerClientD1Ev"
    },
    {
     "kind":"deleting_dtor_pointer",
     "mangled_component_name":"_ZN7android10frameworks2vr8composer4V1_018BsVrComposerClientD0Ev"
    },
    {
     "mangled_component_name":"_ZN7android10frameworks2vr8composer4V1_018BsVrComposerClient16registerCallbackERKNS_2spINS_8hardware8graphics8composer4V2_117IComposerCallbackEEE"
    },
    {
     "mangled_component_name":"_ZN7android10frameworks2vr8composer4V1_018BsVrComposerClient25getMaxVirtualDisplayCountEv"
    },
    {
     "mangled_component_name":"_ZN7android10frameworks2vr8composer4V1_018BsVrComposerClient20createVirtualDisplayEjjNS_8hardware8graphics6common4V1_011PixelFormatEjNSt3__18functionIFvNS6_8composer4V2_15ErrorEmS9_EEE"
    },
    {
     "mangled_component_name":"_ZN7android10frameworks2vr8composer4V1_018BsVrComposerClient21destroyVirtualDisplayEm"
    },
    {
     "mangled_component_name":"_ZN7android10frameworks2vr8composer4V1_018BsVrComposerClient11createLayerEmjNSt3__18functionIFvNS_8hardware8graphics8composer4V2_15ErrorEmEEE"
    },
    {
     "mangled_component_name":"_ZN7android10frameworks2vr8composer4V1_018BsVrComposerClient12destroyLayerEmm"
    },
    {
     "mangled_component_name":"_ZN7android10frameworks2vr8composer4V1_018BsVrComposerClient15getActiveConfigEmNSt3__18functionIFvNS_8hardware8graphics8composer4V2_15ErrorEjEEE"
    },
    {
     "mangled_component_name":"_ZN7android10frameworks2vr8composer4V1_018BsVrComposerClient22getClientTargetSupportEmjjNS_8hardware8graphics6common4V1_011PixelFormatENS8_9DataspaceE"
    },
    {
     "mangled_component_name":"_ZN7android10frameworks2vr8composer4V1_018BsVrComposerClient13getColorModesEmNSt3__18functionIFvNS_8hardware8graphics8composer4V2_15ErrorERKNS7_8hidl_vecINS8_6common4V1_09ColorModeEEEEEE"
    },
    {
     "mangled_component_name":"_ZN7android10frameworks2vr8composer4V1_018BsVrComposerClient19getDisplayAttributeEmjNS_8hardware8graphics8composer4V2_115IComposerClient9AttributeENSt3__18functionIFvNS8_5ErrorEiEEE"
    },
    {
     "mangled_component_name":"_ZN7android10frameworks2vr8composer4V1_018BsVrComposerClient17getDisplayConfigsEmNSt3__18functionIFvNS_8hardware8graphics8composer4V2_15ErrorERKNS7_8hidl_vecIjEEEEE"
    },
    {
     "mangled_component_name":"_ZN7android10frameworks2vr8composer4V1_018BsVrComposerClient14getDisplayNameEmNSt3__18functionIFvNS_8hardware8graphics8composer4V2_15ErrorERKNS7_11hidl_stringEEEE"
    },
    {
     "mangled_component_name":"_ZN7android10frameworks2vr8composer4V1_018BsVrComposerClient14getDisplayTypeEmNSt3__18functionIFvNS_8hardware8graphics8composer4V2_15ErrorENSA_15IComposerClient11DisplayTypeEEEE"
    },
    {
     "mangled_component_name":"_ZN7android10frameworks2vr8composer4V1_018BsVrComposerClient14getDozeSupportEmNSt3__18functionIFvNS_8hardware8graphics8composer4V2_15ErrorEbEEE"
    },
    {
     "mangled_component_name":"_ZN7android10frameworks2vr8composer4V1_018BsVrComposerClient18getHdrCapabilitiesEmNSt3__18functionIFvNS_8hardware8graphics8composer4V2_15ErrorERKNS7_8hidl_vecINS8_6common4V1_03HdrEEEfffEEE"
    },
    {
     "mangled_component_name":"_ZN7android10frameworks2vr8composer4V1_018BsVrComposerClient24setClientTargetSlotCountEmj"
    },
    {
     "mangled_component_name":"_ZN7android10frameworks2vr8composer4V1_018BsVrComposerClient15setActiveConfigEmj"
    },
    {
     "mangled_component_name":"_ZN7android10frameworks2vr8composer4V1_018BsVrComposerClient12setColorModeEmNS_8hardware8graphics6common4V1_09ColorModeE"
    },
    {
     "mangled_component_name":"_ZN7android10frameworks2vr8composer4V1_018BsVrComposerClient12setPowerModeEmNS_8hardware8graphics8composer4V2_115IComposerClient9PowerModeE"
    },
    {
     "mangled_component_name":"_ZN7android10frameworks2vr8composer4V1_018BsVrComposerClient15setVsyncEnabledEmNS_8hardware8graphics8composer4V2_115IComposerClient5VsyncE"
    },
    {
     "mangled_component_name":"_ZN7android10frameworks2vr8composer4V1_018BsVrComposerClient20setInputCommandQueueERKNS_8hardware12MQDescriptorIjLNS5_8MQFlavorE1EEE"
    },
    {
     "mangled_component_name":"_ZN7android10frameworks2vr8composer4V1_018BsVrComposerClient21getOutputCommandQueueENSt3__18functionIFvNS_8hardware8graphics8composer4V2_15ErrorERKNS7_12MQDescriptorIjLNS7_8MQFlavorE1EEEEEE"
    },
    {
     "mangled_component_name":"_ZN7android10frameworks2vr8composer4V1_018BsVrComposerClient15executeCommandsEjRKNS_8hardware8hidl_vecINS5_11hidl_handleEEENSt3__18functionIFvNS5_8graphics8composer4V2_15ErrorEbjSA_EEE"
    },
    {
     "kind":"offset_to_top",
     "component_value":-8
    },
    {
     "kind":"rtti",
     "mangled_component_name":"_ZTIN7android10frameworks2vr8composer4V1_018BsVrComposerClientE"
    },
    {
     "kind":"complete_dtor_pointer",
     "mangled_component_name":"_ZThn8_N7android10frameworks2vr8composer4V1_018BsVrComposerClientD1Ev"
    },
    {
     "kind":"deleting_dtor_pointer",
     "mangled_component_name":"_ZThn8_N7android10frameworks2vr8composer4V1_018BsVrComposerClientD0Ev"
    },
    {
     "kind":"vcall_offset"
    },
    {
     "kind":"vcall_offset"
    },
    {
     "kind":"vcall_offset"
    },
    {
     "kind":"vcall_offset"
    },
    {
     "kind":"vcall_offset",
     "component_value":-120
    },
    {
     "kind":"offset_to_top",
     "component_value":-120
    },
    {
     "kind":"rtti",
     "mangled_component_name":"_ZTIN7android10frameworks2vr8composer4V1_018BsVrComposerClientE"
    },
    {
     "kind":"complete_dtor_pointer",
     "mangled_component_name":"_ZTv0_n24_N7android10frameworks2vr8composer4V1_018BsVrComposerClientD1Ev"
    },
    {
     "kind":"deleting_dtor_pointer",
     "mangled_component_name":"_ZTv0_n24_N7android10frameworks2vr8composer4V1_018BsVrComposerClientD0Ev"
    },
    {
     "mangled_component_name":"_ZN7android7RefBase10onFirstRefEv"
    },
    {
     "mangled_component_name":"_ZN7android7RefBase15onLastStrongRefEPKv"
    },
    {
     "mangled_component_name":"_ZN7android7RefBase20onIncStrongAttemptedEjPKv"
    },
    {
     "mangled_component_name":"_ZN7android7RefBase13onLastWeakRefEPKv"
    }
   ],
   "unique_id":"_ZTSN7android10frameworks2vr8composer4V1_018BsVrComposerClientE"
  }
 ],
 "elf_functions":[
  {
   "name":"_ZN7android10frameworks2vr8composer4V1_017IVrComposerClient10getServiceERKNSt3__112basic_stringIcNS5_11char_traitsIcEENS5_9allocatorIcEEEEb"
  },
  {
   "name":"_ZN7android10frameworks2vr8composer4V1_017IVrComposerClient11linkToDeathERKNS_2spINS_8hardware20hidl_death_recipientEEEm"
  },
  {
   "name":"_ZN7android10frameworks2vr8composer4V1_017IVrComposerClient12getDebugInfoENSt3__18functionIFvRKNS_4hidl4base4V1_09DebugInfoEEEE"
  },
  {
   "name":"_ZN7android10frameworks2vr8composer4V1_017IVrComposerClient12getHashChainENSt3__18functionIFvRKNS_8hardware8hidl_vecINS7_10hidl_arrayIhLm32EJEEEEEEEE"
  },
  {
   "name":"_ZN7android10frameworks2vr8composer4V1_017IVrComposerClient13tryGetServiceERKNSt3__112basic_stringIcNS5_11char_traitsIcEENS5_9allocatorIcEEEEb"
  },
  {
   "name":"_ZN7android10frameworks2vr8composer4V1_017IVrComposerClient13unlinkToDeathERKNS_2spINS_8hardware20hidl_death_recipientEEE"
  },
  {
   "name":"_ZN7android10frameworks2vr8composer4V1_017IVrComposerClient14interfaceChainENSt3__18functionIFvRKNS_8hardware8hidl_vecINS7_11hidl_stringEEEEEE"
  },
  {
   "name":"_ZN7android10frameworks2vr8composer4V1_017IVrComposerClient17registerAsServiceERKNSt3__112basic_stringIcNS5_11char_traitsIcEENS5_9allocatorIcEEEE"
  },
  {
   "name":"_ZN7android10frameworks2vr8composer4V1_017IVrComposerClient19interfaceDescriptorENSt3__18functionIFvRKNS_8hardware11hidl_stringEEEE"
  },
  {
   "name":"_ZN7android10frameworks2vr8composer4V1_017IVrComposerClient21notifySyspropsChangedEv"
  },
  {
   "name":"_ZN7android10frameworks2vr8composer4V1_017IVrComposerClient21setHALInstrumentationEv"
  },
  {
   "name":"_ZN7android10frameworks2vr8composer4V1_017IVrComposerClient24registerForNotificationsERKNSt3__112basic_stringIcNS5_11char_traitsIcEENS5_9allocatorIcEEEERKNS_2spINS_4hidl7manager4V1_020IServiceNotificationEEE"
  },
  {
   "name":"_ZN7android10frameworks2vr8composer4V1_017IVrComposerClient4pingEv"
  },
  {
   "name":"_ZN7android10frameworks2vr8composer4V1_017IVrComposerClient5debugERKNS_8hardware11hidl_handleERKNS5_8hidl_vecINS5_11hidl_stringEEE"
  },
  {
   "name":"_ZN7android10frameworks2vr8composer4V1_017IVrComposerClient8castFromERKNS_2spINS_4hidl4base4V1_05IBaseEEEb"
  },
  {
   "name":"_ZN7android10frameworks2vr8composer4V1_017IVrComposerClient8castFromERKNS_2spINS_8hardware8graphics8composer4V2_115IComposerClientEEEb"
  },
  {
   "name":"_ZN7android10frameworks2vr8composer4V1_017IVrComposerClient8castFromERKNS_2spIS4_EEb"
  },
  {
   "name":"_ZN7android10frameworks2vr8composer4V1_018BsVrComposerClient13addOnewayTaskENSt3__18functionIFvvEEE"
  },
  {
   "name":"_ZN7android10frameworks2vr8composer4V1_018BsVrComposerClientC1ENS_2spINS3_17IVrComposerClientEEE"
  },
  {
   "name":"_ZN7android10frameworks2vr8composer4V1_018BsVrComposerClientC2ENS_2spINS3_17IVrComposerClientEEE"
  },
  {
   "name":"_ZN7android10frameworks2vr8composer4V1_020BnHwVrComposerClient10onTransactEjRKNS_8hardware6ParcelEPS6_jNSt3__18functionIFvRS6_EEE"
  },
  {
   "name":"_ZN7android10frameworks2vr8composer4V1_020BnHwVrComposerClient12getDebugInfoENSt3__18functionIFvRKNS_4hidl4base4V1_09DebugInfoEEEE"
  },
  {
   "name":"_ZN7android10frameworks2vr8composer4V1_020BnHwVrComposerClient4pingEv"
  },
  {
   "name":"_ZN7android10frameworks2vr8composer4V1_020BnHwVrComposerClientC1ERKNS_2spINS3_17IVrComposerClientEEE"
  },
  {
   "name":"_ZN7android10frameworks2vr8composer4V1_020BnHwVrComposerClientC2ERKNS_2spINS3_17IVrComposerClientEEE"
  },
  {
   "name":"_ZN7android10frameworks2vr8composer4V1_020BnHwVrComposerClientD0Ev"
  },
  {
   "name":"_ZN7android10frameworks2vr8composer4V1_020BnHwVrComposerClientD1Ev"
  },
  {
   "name":"_ZN7android10frameworks2vr8composer4V1_020BnHwVrComposerClientD2Ev"
  },
  {
   "name":"_ZN7android10frameworks2vr8composer4V1_020BpHwVrComposerClient11createLayerEmjNSt3__18functionIFvNS_8hardware8graphics8composer4V2_15ErrorEmEEE"
  },
  {
   "name":"_ZN7android10frameworks2vr8composer4V1_020BpHwVrComposerClient11linkToDeathERKNS_2spINS_8hardware20hidl_death_recipientEEEm"
  },
  {
   "name":"_ZN7android10frameworks2vr8composer4V1_020BpHwVrComposerClient12destroyLayerEmm"
  },
  {
   "name":"_ZN7android10frameworks2vr8composer4V1_020BpHwVrComposerClient12getDebugInfoENSt3__18functionIFvRKNS_4hidl4base4V1_09DebugInfoEEEE"
  },
  {
   "name":"_ZN7android10frameworks2vr8composer4V1_020BpHwVrComposerClient12getHashChainENSt3__18functionIFvRKNS_8hardware8hidl_vecINS7_10hidl_arrayIhLm32EJEEEEEEEE"
  },
  {
   "name":"_ZN7android10frameworks2vr8composer4V1_020BpHwVrComposerClient12setColorModeEmNS_8hardware8graphics6common4V1_09ColorModeE"
  },
  {
   "name":"_ZN7android10frameworks2vr8composer4V1_020BpHwVrComposerClient12setPowerModeEmNS_8hardware8graphics8composer4V2_115IComposerClient9PowerModeE"
  },
  {
   "name":"_ZN7android10frameworks2vr8composer4V1_020BpHwVrComposerClient13getColorModesEmNSt3__18functionIFvNS_8hardware8graphics8composer4V2_15ErrorERKNS7_8hidl_vecINS8_6common4V1_09ColorModeEEEEEE"
  },
  {
   "name":"_ZN7android10frameworks2vr8composer4V1_020BpHwVrComposerClient13unlinkToDeathERKNS_2spINS_8hardware20hidl_death_recipientEEE"
  },
  {
   "name":"_ZN7android10frameworks2vr8composer4V1_020BpHwVrComposerClient14getDisplayNameEmNSt3__18functionIFvNS_8hardware8graphics8composer4V2_15ErrorERKNS7_11hidl_stringEEEE"
  },
  {
   "name":"_ZN7android10frameworks2vr8composer4V1_020BpHwVrComposerClient14getDisplayTypeEmNSt3__18functionIFvNS_8hardware8graphics8composer4V2_15ErrorENSA_15IComposerClient11DisplayTypeEEEE"
  },
  {
   "name":"_ZN7android10frameworks2vr8composer4V1_020BpHwVrComposerClient14getDozeSupportEmNSt3__18functionIFvNS_8hardware8graphics8composer4V2_15ErrorEbEEE"
  },
  {
   "name":"_ZN7android10frameworks2vr8composer4V1_020BpHwVrComposerClient14interfaceChainENSt3__18functionIFvRKNS_8hardware8hidl_vecINS7_11hidl_stringEEEEEE"
  },
  {
   "name":"_ZN7android10frameworks2vr8composer4V1_020BpHwVrComposerClient15executeCommandsEjRKNS_8hardware8hidl_vecINS5_11hidl_handleEEENSt3__18functionIFvNS5_8graphics8composer4V2_15ErrorEbjSA_EEE"
  },
  {
   "name":"_ZN7android10frameworks2vr8composer4V1_020BpHwVrComposerClient15getActiveConfigEmNSt3__18functionIFvNS_8hardware8graphics8composer4V2_15ErrorEjEEE"
  },
  {
   "name":"_ZN7android10frameworks2vr8composer4V1_020BpHwVrComposerClient15setActiveConfigEmj"
  },
  {
   "name":"_ZN7android10frameworks2vr8composer4V1_020BpHwVrComposerClient15setVsyncEnabledEmNS_8hardware8graphics8composer4V2_115IComposerClient5VsyncE"
  },
  {
   "name":"_ZN7android10frameworks2vr8composer4V1_020BpHwVrComposerClient16registerCallbackERKNS_2spINS_8hardware8graphics8composer4V2_117IComposerCallbackEEE"
  },
  {
   "name":"_ZN7android10frameworks2vr8composer4V1_020BpHwVrComposerClient17getDisplayConfigsEmNSt3__18functionIFvNS_8hardware8graphics8composer4V2_15ErrorERKNS7_8hidl_vecIjEEEEE"
  },
  {
   "name":"_ZN7android10frameworks2vr8composer4V1_020BpHwVrComposerClient18getHdrCapabilitiesEmNSt3__18functionIFvNS_8hardware8graphics8composer4V2_15ErrorERKNS7_8hidl_vecINS8_6common4V1_03HdrEEEfffEEE"
  },
  {
   "name":"_ZN7android10frameworks2vr8composer4V1_020BpHwVrComposerClient19getDisplayAttributeEmjNS_8hardware8graphics8composer4V2_115IComposerClient9AttributeENSt3__18functionIFvNS8_5ErrorEiEEE"
  },
  {
   "name":"_ZN7android10frameworks2vr8composer4V1_020BpHwVrComposerClient19interfaceDescriptorENSt3__18functionIFvRKNS_8hardware11hidl_stringEEEE"
  },
  {
   "name":"_ZN7android10frameworks2vr8composer4V1_020BpHwVrComposerClient20createVirtualDisplayEjjNS_8hardware8graphics6common4V1_011PixelFormatEjNSt3__18functionIFvNS6_8composer4V2_15ErrorEmS9_EEE"
  },
  {
   "name":"_ZN7android10frameworks2vr8composer4V1_020BpHwVrComposerClient20setInputCommandQueueERKNS_8hardware12MQDescriptorIjLNS5_8MQFlavorE1EEE"
  },
  {
   "name":"_ZN7android10frameworks2vr8composer4V1_020BpHwVrComposerClient21destroyVirtualDisplayEm"
  },
  {
   "name":"_ZN7android10frameworks2vr8composer4V1_020BpHwVrComposerClient21getOutputCommandQueueENSt3__18functionIFvNS_8hardware8graphics8composer4V2_15ErrorERKNS7_12MQDescriptorIjLNS7_8MQFlavorE1EEEEEE"
  },
  {
   "name":"_ZN7android10frameworks2vr8composer4V1_020BpHwVrComposerClient21notifySyspropsChangedEv"
  },
  {
   "name":"_ZN7android10frameworks2vr8composer4V1_020BpHwVrComposerClient21setHALInstrumentationEv"
  },
  {
   "name":"_ZN7android10frameworks2vr8composer4V1_020BpHwVrComposerClient22getClientTargetSupportEmjjNS_8hardware8graphics6common4V1_011PixelFormatENS8_9DataspaceE"
  },
  {
   "name":"_ZN7android10frameworks2vr8composer4V1_020BpHwVrComposerClient24setClientTargetSlotCountEmj"
  },
  {
   "name":"_ZN7android10frameworks2vr8composer4V1_020BpHwVrComposerClient25getMaxVirtualDisplayCountEv"
  },
  {
   "name":"_ZN7android10frameworks2vr8composer4V1_020BpHwVrComposerClient4pingEv"
  },
  {
   "name":"_ZN7android10frameworks2vr8composer4V1_020BpHwVrComposerClient5debugERKNS_8hardware11hidl_handleERKNS5_8hidl_vecINS5_11hidl_stringEEE"
  },
  {
   "name":"_ZN7android10frameworks2vr8composer4V1_020BpHwVrComposerClientC1ERKNS_2spINS_8hardware7IBinderEEE"
  },
  {
   "name":"_ZN7android10frameworks2vr8composer4V1_020BpHwVrComposerClientC2ERKNS_2spINS_8hardware7IBinderEEE"
  },
  {
   "binding":"weak",
   "name":"_ZN7android8hardware7details13castInterfaceINS_10frameworks2vr8composer4V1_017IVrComposerClientENS0_8graphics8composer4V2_115IComposerClientENS6_20BpHwVrComposerClientEEENS0_6ReturnINS_2spIT_EEEENSE_IT0_EEPKcb"
  },
  {
   "binding":"weak",
   "name":"_ZN7android8hardware7details13castInterfaceINS_10frameworks2vr8composer4V1_017IVrComposerClientENS_4hidl4base4V1_05IBaseENS6_20BpHwVrComposerClientEEENS0_6ReturnINS_2spIT_EEEENSE_IT0_EEPKcb"
  },
  {
   "binding":"weak",
   "name":"_ZN7android8hardware7details15wrapPassthroughINS0_8graphics8composer4V2_117IComposerCallbackEvEENS_2spIT_EES9_"
  },
  {
   "binding":"weak",
   "name":"_ZN7android8hardware7details18getServiceInternalINS_10frameworks2vr8composer4V1_020BpHwVrComposerClientENS6_17IVrComposerClientEvvEENS_2spIT0_EERKNSt3__112basic_stringIcNSC_11char_traitsIcEENSC_9allocatorIcEEEEbb"
  },
  {
   "binding":"weak",
   "name":"_ZN7android8hardware8toBinderINS0_8graphics8composer4V2_115IComposerClientEvEENS_2spINS0_7IBinderEEENS6_IT_EE"
  },
  {
   "binding":"weak",
   "name":"_ZN7android8hardware8toBinderINS_4hidl4base4V1_05IBaseEvEENS_2spINS0_7IBinderEEENS6_IT_EE"
  },
  {
   "name":"_ZThn32_N7android10frameworks2vr8composer4V1_020BnHwVrComposerClientD0Ev"
  },
  {
   "name":"_ZThn32_N7android10frameworks2vr8composer4V1_020BnHwVrComposerClientD1Ev"
  },
  {
   "name":"_ZTv0_n24_N7android10frameworks2vr8composer4V1_020BnHwVrComposerClientD0Ev"
  },
  {
   "name":"_ZTv0_n24_N7android10frameworks2vr8composer4V1_020BnHwVrComposerClientD1Ev"
  }
 ],
 "elf_objects":[
  {
   "name":"_ZN7android10frameworks2vr8composer4V1_017IVrComposerClient10descriptorE"
  },
  {
   "name":"_ZTTN7android10frameworks2vr8composer4V1_017IVrComposerClientE"
  },
  {
   "name":"_ZTTN7android10frameworks2vr8composer4V1_020BnHwVrComposerClientE"
  },
  {
   "name":"_ZTTN7android10frameworks2vr8composer4V1_020BpHwVrComposerClientE"
  },
  {
   "name":"_ZTVN7android10frameworks2vr8composer4V1_017IVrComposerClientE"
  },
  {
   "binding":"weak",
   "name":"_ZTVN7android10frameworks2vr8composer4V1_018BsVrComposerClientE"
  },
  {
   "name":"_ZTVN7android10frameworks2vr8composer4V1_020BnHwVrComposerClientE"
  },
  {
   "name":"_ZTVN7android10frameworks2vr8composer4V1_020BpHwVrComposerClientE"
  }
 ]
}