{
 "record_types":[
  {
   "vtable_components":[
    {
     "kind":"vbase_offset",
     "component_value":136
    },
    {
     "kind":"offset_to_top"
    },
    {
     "kind":"rtti",
     "mangled_component_name":"_ZTIN7android8hardware8graphics6mapper4V2_110BnHwMapperE"
    },
    {
     "mangled_component_name":"_ZN7android8hardware9BHwBinder8transactEjRKNS0_6ParcelEPS2_jNSt3__18functionIFvRS2_EEE"
    },
    {
     "mangled_component_name":"_ZN7android8hardware9BHwBinder11linkToDeathERKNS_2spINS0_7IBinder14DeathRecipientEEEPvj"
    },
    {
     "mangled_component_name":"_ZN7android8hardware9BHwBinder13unlinkToDeathERKNS_2wpINS0_7IBinder14DeathRecipientEEEPvjPS5_"
    },
    {
     "mangled_component_name":"_ZNK7android8hardware7IBinder13checkSubclassEPKv"
    },
    {
     "mangled_component_name":"_ZN7android8hardware9BHwBinder12attachObjectEPKvPvS4_PFvS3_S4_S4_E"
    },
    {
     "mangled_component_name":"_ZNK7android8hardware9BHwBinder10findObjectEPKv"
    },
    {
     "mangled_component_name":"_ZN7android8hardware9BHwBinder12detachObjectEPKv"
    },
    {
     "mangled_component_name":"_ZN7android8hardware9BHwBinder11localBinderEv"
    },
    {
     "mangled_component_name":"_ZN7android8hardware7IBinder12remoteBinderEv"
    },
    {
     "kind":"complete_dtor_pointer",
     "mangled_component_name":"_ZN7android8hardware8graphics6mapper4V2_110BnHwMapperD1Ev"
    },
    {
     "kind":"deleting_dtor_pointer",
     "mangled_component_name":"_ZN7android8hardware8graphics6mapper4V2_110BnHwMapperD0Ev"
    },
    {
     "mangled_component_name":"_ZN7android8hardware8graphics6mapper4V2_110BnHwMapper10onTransactEjRKNS0_6ParcelEPS5_jNSt3__18functionIFvRS5_EEE"
    },
    {
     "kind":"offset_to_top",
     "component_value":-32
    },
    {
     "kind":"rtti",
     "mangled_component_name":"_ZTIN7android8hardware8graphics6mapper4V2_110BnHwMapperE"
    },
    {
     "kind":"complete_dtor_pointer",
     "mangled_component_name":"_ZThn32_N7android8hardware8graphics6mapper4V2_110BnHwMapperD1Ev"
    },
    {
     "kind":"deleting_dtor_pointer",
     "mangled_component_name":"_ZThn32_N7android8hardware8graphics6mapper4V2_110BnHwMapperD0Ev"
    },
    {
     "kind":"vcall_offset"
    },
    {
     "kind":"vcall_offset"
    },
    {
     "kind":"vcall_offset"
    },
    {
     "kind":"vcall_offset"
    },
    {
     "kind":"vcall_offset",
     "component_value":-136
    },
    {
     "kind":"offset_to_top",
     "component_value":-136
    },
    {
     "kind":"rtti",
     "mangled_component_name":"_ZTIN7android8hardware8graphics6mapper4V2_110BnHwMapperE"
    },
    {
     "kind":"complete_dtor_pointer",
     "mangled_component_name":"_ZTv0_n24_N7android8hardware8graphics6mapper4V2_110BnHwMapperD1Ev"
    },
    {
     "kind":"deleting_dtor_pointer",
     "mangled_component_name":"_ZTv0_n24_N7android8hardware8graphics6mapper4V2_110BnHwMapperD0Ev"
    },
    {
     "mangled_component_name":"_ZN7android7RefBase10onFirstRefEv"
    },
    {
     "mangled_component_name":"_ZN7android7RefBase15onLastStrongRefEPKv"
    },
    {
     "mangled_component_name":"_ZN7android7RefBase20onIncStrongAttemptedEjPKv"
    },
    {
     "mangled_component_name":"_ZN7android7RefBase13onLastWeakRefEPKv"
    }
   ],
   "unique_id":"_ZTSN7android8hardware8graphics6mapper4V2_110BnHwMapperE"
  },
  {
   "vtable_components":[
    {
     "kind":"vbase_offset",
     "component_value":120
    },
    {
     "kind":"offset_to_top"
    },
    {
     "kind":"rtti",
     "mangled_component_name":"_ZTIN7android8hardware8graphics6mapper4V2_18BsMapperE"
    },
    {
     "mangled_component_name":"_ZNK7android8hardware8graphics6mapper4V2_17IMapper8isRemoteEv"
    },
    {
     "mangled_component_name":"_ZN7android8hardware8graphics6mapper4V2_18BsMapper14interfaceChainENSt3__18functionIFvRKNS0_8hidl_vecINS0_11hidl_stringEEEEEE"
    },
    {
     "mangled_component_name":"_ZN7android8hardware8graphics6mapper4V2_18BsMapper5debugERKNS0_11hidl_handleERKNS0_8hidl_vecINS0_11hidl_stringEEE"
    },
    {
     "mangled_component_name":"_ZN7android8hardware8graphics6mapper4V2_18BsMapper19interfaceDescriptorENSt3__18functionIFvRKNS0_11hidl_stringEEEE"
    },
    {
     "mangled_component_name":"_ZN7android8hardware8graphics6mapper4V2_18BsMapper12getHashChainENSt3__18functionIFvRKNS0_8hidl_vecINS0_10hidl_arrayIhLm32EJEEEEEEEE"
    },
    {
     "mangled_component_name":"_ZN7android8hardware8graphics6mapper4V2_18BsMapper21setHALInstrumentationEv"
    },
    {
     "mangled_component_name":"_ZN7android8hardware8graphics6mapper4V2_18BsMapper11linkToDeathERKNS_2spINS0_20hidl_death_recipientEEEm"
    },
    {
     "mangled_component_name":"_ZN7android8hardware8graphics6mapper4V2_18BsMapper4pingEv"
    },
    {
     "mangled_component_name":"_ZN7android8hardware8graphics6mapper4V2_18BsMapper12getDebugInfoENSt3__18functionIFvRKNS_4hidl4base4V1_09DebugInfoEEEE"
    },
    {
     "mangled_component_name":"_ZN7android8hardware8graphics6mapper4V2_18BsMapper21notifySyspropsChangedEv"
    },
    {
     "mangled_component_name":"_ZN7android8hardware8graphics6mapper4V2_18BsMapper13unlinkToDeathERKNS_2spINS0_20hidl_death_recipientEEE"
    },
    {
     "kind":"complete_dtor_pointer",
     "mangled_component_name":"_ZN7android8hardware8graphics6mapper4V2_18BsMapperD1Ev"
    },
    {
     "kind":"deleting_dtor_pointer",
     "mangled_component_name":"_ZN7android8hardware8graphics6mapper4V2_18BsMapperD0Ev"
    },
    {
     "mangled_component_name":"_ZN7android8hardware8graphics6mapper4V2_18BsMapper16createDescriptorERKNS2_4V2_07IMapper20BufferDescriptorInfoENSt3__18functionIFvNS5_5ErrorERKNS0_8hidl_vecIjEEEEE"
    },
    {
     "mangled_component_name":"_ZN7android8hardware8graphics6mapper4V2_18BsMapper12importBufferERKNS0_11hidl_handleENSt3__18functionIFvNS2_4V2_05ErrorEPvEEE"
    },
    {
     "mangled_component_name":"_ZN7android8hardware8graphics6mapper4V2_18BsMapper10freeBufferEPv"
    },
    {
     "mangled_component_name":"_ZN7android8hardware8graphics6mapper4V2_18BsMapper4lockEPvmRKNS2_4V2_07IMapper4RectERKNS0_11hidl_handleENSt3__18functionIFvNS6_5ErrorES5_EEE"
    },
    {
     "mangled_component_name":"_ZN7android8hardware8graphics6mapper4V2_18BsMapper9lockYCbCrEPvmRKNS2_4V2_07IMapper4RectERKNS0_11hidl_handleENSt3__18functionIFvNS6_5ErrorERKNS6_11YCbCrLayoutEEEE"
    },
    {
     "mangled_component_name":"_ZN7android8hardware8graphics6mapper4V2_18BsMapper6unlockEPvNSt3__18functionIFvNS2_4V2_05ErrorERKNS0_11hidl_handleEEEE"
    },
    {
     "mangled_component_name":"_ZN7android8hardware8graphics6mapper4V2_18BsMapper18validateBufferSizeEPvRKNS3_7IMapper20BufferDescriptorInfoEj"
    },
    {
     "mangled_component_name":"_ZN7android8hardware8graphics6mapper4V2_18BsMapper16getTransportSizeEPvNSt3__18functionIFvNS2_4V2_05ErrorEjjEEE"
    },
    {
     "mangled_component_name":"_ZN7android8hardware8graphics6mapper4V2_18BsMapper20createDescriptor_2_1ERKNS3_7IMapper20BufferDescriptorInfoENSt3__18functionIFvNS2_4V2_05ErrorERKNS0_8hidl_vecIjEEEEE"
    },
    {
     "kind":"offset_to_top",
     "component_value":-8
    },
    {
     "kind":"rtti",
     "mangled_component_name":"_ZTIN7android8hardware8graphics6mapper4V2_18BsMapperE"
    },
    {
     "kind":"complete_dtor_pointer",
     "mangled_component_name":"_ZThn8_N7android8hardware8graphics6mapper4V2_18BsMapperD1Ev"
    },
    {
     "kind":"deleting_dtor_pointer",
     "mangled_component_name":"_ZThn8_N7android8hardware8graphics6mapper4V2_18BsMapperD0Ev"
    },
    {
     "kind":"vcall_offset"
    },
    {
     "kind":"vcall_offset"
    },
    {
     "kind":"vcall_offset"
    },
    {
     "kind":"vcall_offset"
    },
    {
     "kind":"vcall_offset",
     "component_value":-120
    },
    {
     "kind":"offset_to_top",
     "component_value":-120
    },
    {
     "kind":"rtti",
     "mangled_component_name":"_ZTIN7android8hardware8graphics6mapper4V2_18BsMapperE"
    },
    {
     "kind":"complete_dtor_pointer",
     "mangled_component_name":"_ZTv0_n24_N7android8hardware8graphics6mapper4V2_18BsMapperD1Ev"
    },
    {
     "kind":"deleting_dtor_pointer",
     "mangled_component_name":"_ZTv0_n24_N7android8hardware8graphics6mapper4V2_18BsMapperD0Ev"
    },
    {
     "mangled_component_name":"_ZN7android7RefBase10onFirstRefEv"
    },
    {
     "mangled_component_name":"_ZN7android7RefBase15onLastStrongRefEPKv"
    },
    {
     "mangled_component_name":"_ZN7android7RefBase20onIncStrongAttemptedEjPKv"
    },
    {
     "mangled_component_name":"_ZN7android7RefBase13onLastWeakRefEPKv"
    }
   ],
   "unique_id":"_ZTSN7android8hardware8graphics6mapper4V2_18BsMapperE"
  },
  {
   "vtable_components":[
    {
     "kind":"vbase_offset",
     "component_value":200
    },
    {
     "kind":"offset_to_top"
    },
    {
     "kind":"rtti",
     "mangled_component_name":"_ZTIN7android8hardware8graphics6mapper4V2_110BpHwMapperE"
    },
    {
     "mangled_component_name":"_ZNK7android8hardware8graphics6mapper4V2_110BpHwMapper8isRemoteEv"
    },
    {
     "mangled_component_name":"_ZN7android8hardware8graphics6mapper4V2_110BpHwMapper14interfaceChainENSt3__18functionIFvRKNS0_8hidl_vecINS0_11hidl_stringEEEEEE"
    },
    {
     "mangled_component_name":"_ZN7android8hardware8graphics6mapper4V2_110BpHwMapper5debugERKNS0_11hidl_handleERKNS0_8hidl_vecINS0_11hidl_stringEEE"
    },
    {
     "mangled_component_name":"_ZN7android8hardware8graphics6mapper4V2_110BpHwMapper19interfaceDescriptorENSt3__18functionIFvRKNS0_11hidl_stringEEEE"
    },
    {
     "mangled_component_name":"_ZN7android8hardware8graphics6mapper4V2_110BpHwMapper12getHashChainENSt3__18functionIFvRKNS0_8hidl_vecINS0_10hidl_arrayIhLm32EJEEEEEEEE"
    },
    {
     "mangled_component_name":"_ZN7android8hardware8graphics6mapper4V2_110BpHwMapper21setHALInstrumentationEv"
    },
    {
     "mangled_component_name":"_ZN7android8hardware8graphics6mapper4V2_110BpHwMapper11linkToDeathERKNS_2spINS0_20hidl_death_recipientEEEm"
    },
    {
     "mangled_component_name":"_ZN7android8hardware8graphics6mapper4V2_110BpHwMapper4pingEv"
    },
    {
     "mangled_component_name":"_ZN7android8hardware8graphics6mapper4V2_110BpHwMapper12getDebugInfoENSt3__18functionIFvRKNS_4hidl4base4V1_09DebugInfoEEEE"
    },
    {
     "mangled_component_name":"_ZN7android8hardware8graphics6mapper4V2_110BpHwMapper21notifySyspropsChangedEv"
    },
    {
     "mangled_component_name":"_ZN7android8hardware8graphics6mapper4V2_110BpHwMapper13unlinkToDeathERKNS_2spINS0_20hidl_death_recipientEEE"
    },
    {
     "kind":"complete_dtor_pointer",
     "mangled_component_name":"_ZN7android8hardware8graphics6mapper4V2_110BpHwMapperD1Ev"
    },
    {
     "kind":"deleting_dtor_pointer",
     "mangled_component_name":"_ZN7android8hardware8graphics6mapper4V2_110BpHwMapperD0Ev"
    },
    {
     "mangled_component_name":"_ZN7android8hardware8graphics6mapper4V2_110BpHwMapper16createDescriptorERKNS2_4V2_07IMapper20BufferDescriptorInfoENSt3__18functionIFvNS5_5ErrorERKNS0_8hidl_vecIjEEEEE"
    },
    {
     "mangled_component_name":"_ZN7android8hardware8graphics6mapper4V2_110BpHwMapper12importBufferERKNS0_11hidl_handleENSt3__18functionIFvNS2_4V2_05ErrorEPvEEE"
    },
    {
     "mangled_component_name":"_ZN7android8hardware8graphics6mapper4V2_110BpHwMapper10freeBufferEPv"
    },
    {
     "mangled_component_name":"_ZN7android8hardware8graphics6mapper4V2_110BpHwMapper4lockEPvmRKNS2_4V2_07IMapper4RectERKNS0_11hidl_handleENSt3__18functionIFvNS6_5ErrorES5_EEE"
    },
    {
     "mangled_component_name":"_ZN7android8hardware8graphics6mapper4V2_110BpHwMapper9lockYCbCrEPvmRKNS2_4V2_07IMapper4RectERKNS0_11hidl_handleENSt3__18functionIFvNS6_5ErrorERKNS6_11YCbCrLayoutEEEE"
    },
    {
     "mangled_component_name":"_ZN7android8hardware8graphics6mapper4V2_110BpHwMapper6unlockEPvNSt3__18functionIFvNS2_4V2_05ErrorERKNS0_11hidl_handleEEEE"
    },
    {
     "mangled_component_name":"_ZN7android8hardware8graphics6mapper4V2_110BpHwMapper18validateBufferSizeEPvRKNS3_7IMapper20BufferDescriptorInfoEj"
    },
    {
     "mangled_component_name":"_ZN7android8hardware8graphics6mapper4V2_110BpHwMapper16getTransportSizeEPvNSt3__18functionIFvNS2_4V2_05ErrorEjjEEE"
    },
    {
     "mangled_component_name":"_ZN7android8hardware8graphics6mapper4V2_110BpHwMapper20createDescriptor_2_1ERKNS3_7IMapper20BufferDescriptorInfoENSt3__18functionIFvNS2_4V2_05ErrorERKNS0_8hidl_vecIjEEEEE"
    },
    {
     "mangled_component_name":"_ZN7android8hardware11BpInterfaceINS0_8graphics6mapper4V2_17IMapperEE10onAsBinderEv"
    },
    {
     "kind":"vbase_offset",
     "component_value":192
    },
    {
     "kind":"offset_to_top",
     "component_value":-8
    },
    {
     "kind":"rtti",
     "mangled_component_name":"_ZTIN7android8hardware8graphics6mapper4V2_110BpHwMapperE"
    },
    {
     "kind":"complete_dtor_pointer",
     "mangled_component_name":"_ZThn8_N7android8hardware8graphics6mapper4V2_110BpHwMapperD1Ev"
    },
    {
     "kind":"deleting_dtor_pointer",
     "mangled_component_name":"_ZThn8_N7android8hardware8graphics6mapper4V2_110BpHwMapperD0Ev"
    },
    {
     "mangled_component_name":"_ZThn8_N7android8hardware11BpInterfaceINS0_8graphics6mapper4V2_17IMapperEE10onAsBinderEv"
    },
    {
     "kind":"vbase_offset",
     "component_value":184
    },
    {
     "kind":"offset_to_top",
     "component_value":-16
    },
    {
     "kind":"rtti",
     "mangled_component_name":"_ZTIN7android8hardware8graphics6mapper4V2_110BpHwMapperE"
    },
    {
     "kind":"complete_dtor_pointer",
     "mangled_component_name":"_ZThn16_N7android8hardware8graphics6mapper4V2_110BpHwMapperD1Ev"
    },
    {
     "kind":"deleting_dtor_pointer",
     "mangled_component_name":"_ZThn16_N7android8hardware8graphics6mapper4V2_110BpHwMapperD0Ev"
    },
    {
     "mangled_component_name":"_ZN7android8hardware11BpHwRefBase10onFirstRefEv"
    },
    {
     "mangled_component_name":"_ZN7android8hardware11BpHwRefBase15onLastStrongRefEPKv"
    },
    {
     "mangled_component_name":"_ZN7android8hardware11BpHwRefBase20onIncStrongAttemptedEjPKv"
    },
    {
     "kind":"offset_to_top",
     "component_value":-48
    },
    {
     "kind":"rtti",
     "mangled_component_name":"_ZTIN7android8hardware8graphics6mapper4V2_110BpHwMapperE"
    },
    {
     "kind":"complete_dtor_pointer",
     "mangled_component_name":"_ZThn48_N7android8hardware8graphics6mapper4V2_110BpHwMapperD1Ev"
    },
    {
     "kind":"deleting_dtor_pointer",
     "mangled_component_name":"_ZThn48_N7android8hardware8graphics6mapper4V2_110BpHwMapperD0Ev"
    },
    {
     "kind":"vcall_offset"
    },
    {
     "kind":"vcall_offset",
     "component_value":-184
    },
    {
     "kind":"vcall_offset",
     "component_value":-184
    },
    {
     "kind":"vcall_offset",
     "component_value":-184
    },
    {
     "kind":"vcall_offset",
     "component_value":-200
    },
    {
     "kind":"offset_to_top",
     "component_value":-200
    },
    {
     "kind":"rtti",
     "mangled_component_name":"_ZTIN7android8hardware8graphics6mapper4V2_110BpHwMapperE"
    },
    {
     "kind":"complete_dtor_pointer",
     "mangled_component_name":"_ZTv0_n24_N7android8hardware8graphics6mapper4V2_110BpHwMapperD1Ev"
    },
    {
     "kind":"deleting_dtor_pointer",
     "mangled_component_name":"_ZTv0_n24_N7android8hardware8graphics6mapper4V2_110BpHwMapperD0Ev"
    },
    {
     "mangled_component_name":"_ZTv0_n32_N7android8hardware11BpHwRefBase10onFirstRefEv"
    },
    {
     "mangled_component_name":"_ZTv0_n40_N7android8hardware11BpHwRefBase15onLastStrongRefEPKv"
    },
    {
     "mangled_component_name":"_ZTv0_n48_N7android8hardware11BpHwRefBase20onIncStrongAttemptedEjPKv"
    },
    {
     "mangled_component_name":"_ZN7android7RefBase13onLastWeakRefEPKv"
    }
   ],
   "unique_id":"_ZTSN7android8hardware8graphics6mapper4V2_110BpHwMapperE"
  },
  {
   "vtable_components":[
    {
     "kind":"vbase_offset",
     "component_value":8
    },
    {
     "kind":"offset_to_top"
    },
    {
     "kind":"rtti",
     "mangled_component_name":"_ZTIN7android8hardware8graphics6mapper4V2_17IMapperE"
    },
    {
     "mangled_component_name":"_ZNK7android8hardware8graphics6mapper4V2_17IMapper8isRemoteEv"
    },
    {
     "mangled_component_name":"_ZN7android8hardware8graphics6mapper4V2_17IMapper14interfaceChainENSt3__18functionIFvRKNS0_8hidl_vecINS0_11hidl_stringEEEEEE"
    },
    {
     "mangled_component_name":"_ZN7android8hardware8graphics6mapper4V2_17IMapper5debugERKNS0_11hidl_handleERKNS0_8hidl_vecINS0_11hidl_stringEEE"
    },
    {
     "mangled_component_name":"_ZN7android8hardware8graphics6mapper4V2_17IMapper19interfaceDescriptorENSt3__18functionIFvRKNS0_11hidl_stringEEEE"
    },
    {
     "mangled_component_name":"_ZN7android8hardware8graphics6mapper4V2_17IMapper12getHashChainENSt3__18functionIFvRKNS0_8hidl_vecINS0_10hidl_arrayIhLm32EJEEEEEEEE"
    },
    {
     "mangled_component_name":"_ZN7android8hardware8graphics6mapper4V2_17IMapper21setHALInstrumentationEv"
    },
    {
     "mangled_component_name":"_ZN7android8hardware8graphics6mapper4V2_17IMapper11linkToDeathERKNS_2spINS0_20hidl_death_recipientEEEm"
    },
    {
     "mangled_component_name":"_ZN7android8hardware8graphics6mapper4V2_17IMapper4pingEv"
    },
    {
     "mangled_component_name":"_ZN7android8hardware8graphics6mapper4V2_17IMapper12getDebugInfoENSt3__18functionIFvRKNS_4hidl4base4V1_09DebugInfoEEEE"
    },
    {
     "mangled_component_name":"_ZN7android8hardware8graphics6mapper4V2_17IMapper21notifySyspropsChangedEv"
    },
    {
     "mangled_component_name":"_ZN7android8hardware8graphics6mapper4V2_17IMapper13unlinkToDeathERKNS_2spINS0_20hidl_death_recipientEEE"
    },
    {
     "kind":"complete_dtor_pointer",
     "mangled_component_name":"_ZN7android8hardware8graphics6mapper4V2_17IMapperD1Ev"
    },
    {
     "kind":"deleting_dtor_pointer",
     "mangled_component_name":"_ZN7android8hardware8graphics6mapper4V2_17IMapperD0Ev"
    },
    {
     "is_pure":true,
     "mangled_component_name":"_ZN7android8hardware8graphics6mapper4V2_17IMapper16createDescriptorERKNS2_4V2_07IMapper20BufferDescriptorInfoENSt3__18functionIFvNS5_5ErrorERKNS0_8hidl_vecIjEEEEE"
    },
    {
     "is_pure":true,
     "mangled_component_name":"_ZN7android8hardware8graphics6mapper4V2_17IMapper12importBufferERKNS0_11hidl_handleENSt3__18functionIFvNS2_4V2_05ErrorEPvEEE"
    },
    {
     "is_pure":true,
     "mangled_component_name":"_ZN7android8hardware8graphics6mapper4V2_17IMapper10freeBufferEPv"
    },
    {
     "is_pure":true,
     "mangled_component_name":"_ZN7android8hardware8graphics6mapper4V2_17IMapper4lockEPvmRKNS2_4V2_07IMapper4RectERKNS0_11hidl_handleENSt3__18functionIFvNS6_5ErrorES5_EEE"
    },
    {
     "is_pure":true,
     "mangled_component_name":"_ZN7android8hardware8graphics6mapper4V2_17IMapper9lockYCbCrEPvmRKNS2_4V2_07IMapper4RectERKNS0_11hidl_handleENSt3__18functionIFvNS6_5ErrorERKNS6_11YCbCrLayoutEEEE"
    },
    {
     "is_pure":true,
     "mangled_component_name":"_ZN7android8hardware8graphics6mapper4V2_17IMapper6unlockEPvNSt3__18functionIFvNS2_4V2_05ErrorERKNS0_11hidl_handleEEEE"
    },
    {
     "is_pure":true,
     "mangled_component_name":"_ZN7android8hardware8graphics6mapper4V2_17IMapper18validateBufferSizeEPvRKNS4_20BufferDescriptorInfoEj"
    },
    {
     "is_pure":true,
     "mangled_component_name":"_ZN7android8hardware8graphics6mapper4V2_17IMapper16getTransportSizeEPvNSt3__18functionIFvNS2_4V2_05ErrorEjjEEE"
    },
    {
     "is_pure":true,
     "mangled_component_name":"_ZN7android8hardware8graphics6mapper4V2_17IMapper20createDescriptor_2_1ERKNS4_20BufferDescriptorInfoENSt3__18functionIFvNS2_4V2_05ErrorERKNS0_8hidl_vecIjEEEEE"
    },
    {
     "kind":"vcall_offset"
    },
    {
     "kind":"vcall_offset"
    },
    {
     "kind":"vcall_offset"
    },
    {
     "kind":"vcall_offset"
    },
    {
     "kind":"vcall_offset",
     "component_value":-8
    },
    {
     "kind":"offset_to_top",
     "component_value":-8
    },
    {
     "kind":"rtti",
     "mangled_component_name":"_ZTIN7android8hardware8graphics6mapper4V2_17IMapperE"
    },
    {
     "kind":"complete_dtor_pointer",
     "mangled_component_name":"_ZTv0_n24_N7android8hardware8graphics6mapper4V2_17IMapperD1Ev"
    },
    {
     "kind":"deleting_dtor_pointer",
     "mangled_component_name":"_ZTv0_n24_N7android8hardware8graphics6mapper4V2_17IMapperD0Ev"
    },
    {
     "mangled_component_name":"_ZN7android7RefBase10onFirstRefEv"
    },
    {
     "mangled_component_name":"_ZN7android7RefBase15onLastStrongRefEPKv"
    },
    {
     "mangled_component_name":"_ZN7android7RefBase20onIncStrongAttemptedEjPKv"
    },
    {
     "mangled_component_name":"_ZN7android7RefBase13onLastWeakRefEPKv"
    }
   ],
   "unique_id":"_ZTSN7android8hardware8graphics6mapper4V2_17IMapperE"
  }
 ],
 "elf_functions":[
  {
   "binding":"weak",
   "name":"_ZN7android8hardware7details13castInterfaceINS0_8graphics6mapper4V2_17IMapperENS4_4V2_07IMapperENS5_10BpHwMapperEEENS0_6ReturnINS_2spIT_EEEENSB_IT0_EEPKcb"
  },
  {
   "binding":"weak",
   "name":"_ZN7android8hardware7details13castInterfaceINS0_8graphics6mapper4V2_17IMapperENS_4hidl4base4V1_05IBaseENS5_10BpHwMapperEEENS0_6ReturnINS_2spIT_EEEENSD_IT0_EEPKcb"
  },
  {
   "binding":"weak",
   "name":"_ZN7android8hardware7details18getServiceInternalINS0_8graphics6mapper4V2_110BpHwMapperENS5_7IMapperEvvEENS_2spIT0_EERKNSt3__112basic_stringIcNSB_11char_traitsIcEENSB_9allocatorIcEEEEbb"
  },
  {
   "name":"_ZN7android8hardware8graphics6mapper4V2_110BnHwMapper10onTransactEjRKNS0_6ParcelEPS5_jNSt3__18functionIFvRS5_EEE"
  },
  {
   "name":"_ZN7android8hardware8graphics6mapper4V2_110BnHwMapper12getDebugInfoENSt3__18functionIFvRKNS_4hidl4base4V1_09DebugInfoEEEE"
  },
  {
   "name":"_ZN7android8hardware8graphics6mapper4V2_110BnHwMapper22_hidl_getTransportSizeEPNS_4hidl4base4V1_08BnHwBaseERKNS0_6ParcelEPSA_NSt3__18functionIFvRSA_EEE"
  },
  {
   "name":"_ZN7android8hardware8graphics6mapper4V2_110BnHwMapper24_hidl_validateBufferSizeEPNS_4hidl4base4V1_08BnHwBaseERKNS0_6ParcelEPSA_NSt3__18functionIFvRSA_EEE"
  },
  {
   "name":"_ZN7android8hardware8graphics6mapper4V2_110BnHwMapper26_hidl_createDescriptor_2_1EPNS_4hidl4base4V1_08BnHwBaseERKNS0_6ParcelEPSA_NSt3__18functionIFvRSA_EEE"
  },
  {
   "name":"_ZN7android8hardware8graphics6mapper4V2_110BnHwMapper4pingEv"
  },
  {
   "name":"_ZN7android8hardware8graphics6mapper4V2_110BnHwMapperC1ERKNS_2spINS3_7IMapperEEE"
  },
  {
   "name":"_ZN7android8hardware8graphics6mapper4V2_110BnHwMapperC2ERKNS_2spINS3_7IMapperEEE"
  },
  {
   "name":"_ZN7android8hardware8graphics6mapper4V2_110BnHwMapperD0Ev"
  },
  {
   "name":"_ZN7android8hardware8graphics6mapper4V2_110BnHwMapperD1Ev"
  },
  {
   "name":"_ZN7android8hardware8graphics6mapper4V2_110BnHwMapperD2Ev"
  },
  {
   "name":"_ZN7android8hardware8graphics6mapper4V2_110BpHwMapper10freeBufferEPv"
  },
  {
   "name":"_ZN7android8hardware8graphics6mapper4V2_110BpHwMapper11linkToDeathERKNS_2spINS0_20hidl_death_recipientEEEm"
  },
  {
   "name":"_ZN7android8hardware8graphics6mapper4V2_110BpHwMapper12getDebugInfoENSt3__18functionIFvRKNS_4hidl4base4V1_09DebugInfoEEEE"
  },
  {
   "name":"_ZN7android8hardware8graphics6mapper4V2_110BpHwMapper12getHashChainENSt3__18functionIFvRKNS0_8hidl_vecINS0_10hidl_arrayIhLm32EJEEEEEEEE"
  },
  {
   "name":"_ZN7android8hardware8graphics6mapper4V2_110BpHwMapper12importBufferERKNS0_11hidl_handleENSt3__18functionIFvNS2_4V2_05ErrorEPvEEE"
  },
  {
   "name":"_ZN7android8hardware8graphics6mapper4V2_110BpHwMapper13unlinkToDeathERKNS_2spINS0_20hidl_death_recipientEEE"
  },
  {
   "name":"_ZN7android8hardware8graphics6mapper4V2_110BpHwMapper14interfaceChainENSt3__18functionIFvRKNS0_8hidl_vecINS0_11hidl_stringEEEEEE"
  },
  {
   "name":"_ZN7android8hardware8graphics6mapper4V2_110BpHwMapper16createDescriptorERKNS2_4V2_07IMapper20BufferDescriptorInfoENSt3__18functionIFvNS5_5ErrorERKNS0_8hidl_vecIjEEEEE"
  },
  {
   "name":"_ZN7android8hardware8graphics6mapper4V2_110BpHwMapper16getTransportSizeEPvNSt3__18functionIFvNS2_4V2_05ErrorEjjEEE"
  },
  {
   "name":"_ZN7android8hardware8graphics6mapper4V2_110BpHwMapper18validateBufferSizeEPvRKNS3_7IMapper20BufferDescriptorInfoEj"
  },
  {
   "name":"_ZN7android8hardware8graphics6mapper4V2_110BpHwMapper19interfaceDescriptorENSt3__18functionIFvRKNS0_11hidl_stringEEEE"
  },
  {
   "name":"_ZN7android8hardware8graphics6mapper4V2_110BpHwMapper20createDescriptor_2_1ERKNS3_7IMapper20BufferDescriptorInfoENSt3__18functionIFvNS2_4V2_05ErrorERKNS0_8hidl_vecIjEEEEE"
  },
  {
   "name":"_ZN7android8hardware8graphics6mapper4V2_110BpHwMapper21notifySyspropsChangedEv"
  },
  {
   "name":"_ZN7android8hardware8graphics6mapper4V2_110BpHwMapper21setHALInstrumentationEv"
  },
  {
   "name":"_ZN7android8hardware8graphics6mapper4V2_110BpHwMapper22_hidl_getTransportSizeEPNS0_10IInterfaceEPNS0_7details16HidlInstrumentorEPvNSt3__18functionIFvNS2_4V2_05ErrorEjjEEE"
  },
  {
   "name":"_ZN7android8hardware8graphics6mapper4V2_110BpHwMapper24_hidl_validateBufferSizeEPNS0_10IInterfaceEPNS0_7details16HidlInstrumentorEPvRKNS3_7IMapper20BufferDescriptorInfoEj"
  },
  {
   "name":"_ZN7android8hardware8graphics6mapper4V2_110BpHwMapper26_hidl_createDescriptor_2_1EPNS0_10IInterfaceEPNS0_7details16HidlInstrumentorERKNS3_7IMapper20BufferDescriptorInfoENSt3__18functionIFvNS2_4V2_05ErrorERKNS0_8hidl_vecIjEEEEE"
  },
  {
   "name":"_ZN7android8hardware8graphics6mapper4V2_110BpHwMapper4lockEPvmRKNS2_4V2_07IMapper4RectERKNS0_11hidl_handleENSt3__18functionIFvNS6_5ErrorES5_EEE"
  },
  {
   "name":"_ZN7android8hardware8graphics6mapper4V2_110BpHwMapper4pingEv"
  },
  {
   "name":"_ZN7android8hardware8graphics6mapper4V2_110BpHwMapper5debugERKNS0_11hidl_handleERKNS0_8hidl_vecINS0_11hidl_stringEEE"
  },
  {
   "name":"_ZN7android8hardware8graphics6mapper4V2_110BpHwMapper6unlockEPvNSt3__18functionIFvNS2_4V2_05ErrorERKNS0_11hidl_handleEEEE"
  },
  {
   "name":"_ZN7android8hardware8graphics6mapper4V2_110BpHwMapper9lockYCbCrEPvmRKNS2_4V2_07IMapper4RectERKNS0_11hidl_handleENSt3__18functionIFvNS6_5ErrorERKNS6_11YCbCrLayoutEEEE"
  },
  {
   "name":"_ZN7android8hardware8graphics6mapper4V2_110BpHwMapperC1ERKNS_2spINS0_7IBinderEEE"
  },
  {
   "name":"_ZN7android8hardware8graphics6mapper4V2_110BpHwMapperC2ERKNS_2spINS0_7IBinderEEE"
  },
  {
   "name":"_ZN7android8hardware8graphics6mapper4V2_17IMapper10getServiceERKNSt3__112basic_stringIcNS5_11char_traitsIcEENS5_9allocatorIcEEEEb"
  },
  {
   "name":"_ZN7android8hardware8graphics6mapper4V2_17IMapper11linkToDeathERKNS_2spINS0_20hidl_death_recipientEEEm"
  },
  {
   "name":"_ZN7android8hardware8graphics6mapper4V2_17IMapper12getDebugInfoENSt3__18functionIFvRKNS_4hidl4base4V1_09DebugInfoEEEE"
  },
  {
   "name":"_ZN7android8hardware8graphics6mapper4V2_17IMapper12getHashChainENSt3__18functionIFvRKNS0_8hidl_vecINS0_10hidl_arrayIhLm32EJEEEEEEEE"
  },
  {
   "name":"_ZN7android8hardware8graphics6mapper4V2_17IMapper13tryGetServiceERKNSt3__112basic_stringIcNS5_11char_traitsIcEENS5_9allocatorIcEEEEb"
  },
  {
   "name":"_ZN7android8hardware8graphics6mapper4V2_17IMapper13unlinkToDeathERKNS_2spINS0_20hidl_death_recipientEEE"
  },
  {
   "name":"_ZN7android8hardware8graphics6mapper4V2_17IMapper14interfaceChainENSt3__18functionIFvRKNS0_8hidl_vecINS0_11hidl_stringEEEEEE"
  },
  {
   "name":"_ZN7android8hardware8graphics6mapper4V2_17IMapper17registerAsServiceERKNSt3__112basic_stringIcNS5_11char_traitsIcEENS5_9allocatorIcEEEE"
  },
  {
   "name":"_ZN7android8hardware8graphics6mapper4V2_17IMapper19interfaceDescriptorENSt3__18functionIFvRKNS0_11hidl_stringEEEE"
  },
  {
   "name":"_ZN7android8hardware8graphics6mapper4V2_17IMapper21notifySyspropsChangedEv"
  },
  {
   "name":"_ZN7android8hardware8graphics6mapper4V2_17IMapper21setHALInstrumentationEv"
  },
  {
   "name":"_ZN7android8hardware8graphics6mapper4V2_17IMapper24registerForNotificationsERKNSt3__112basic_stringIcNS5_11char_traitsIcEENS5_9allocatorIcEEEERKNS_2spINS_4hidl7manager4V1_020IServiceNotificationEEE"
  },
  {
   "name":"_ZN7android8hardware8graphics6mapper4V2_17IMapper4pingEv"
  },
  {
   "name":"_ZN7android8hardware8graphics6mapper4V2_17IMapper5debugERKNS0_11hidl_handleERKNS0_8hidl_vecINS0_11hidl_stringEEE"
  },
  {
   "name":"_ZN7android8hardware8graphics6mapper4V2_17IMapper8castFromERKNS_2spINS2_4V2_07IMapperEEEb"
  },
  {
   "name":"_ZN7android8hardware8graphics6mapper4V2_17IMapper8castFromERKNS_2spINS_4hidl4base4V1_05IBaseEEEb"
  },
  {
   "name":"_ZN7android8hardware8graphics6mapper4V2_17IMapper8castFromERKNS_2spIS4_EEb"
  },
  {
   "name":"_ZN7android8hardware8graphics6mapper4V2_18BsMapper13addOnewayTaskENSt3__18functionIFvvEEE"
  },
  {
   "name":"_ZN7android8hardware8graphics6mapper4V2_18BsMapperC1ENS_2spINS3_7IMapperEEE"
  },
  {
   "name":"_ZN7android8hardware8graphics6mapper4V2_18BsMapperC2ENS_2spINS3_7IMapperEEE"
  },
  {
   "binding":"weak",
   "name":"_ZN7android8hardware8toBinderINS0_8graphics6mapper4V2_07IMapperEvEENS_2spINS0_7IBinderEEENS6_IT_EE"
  },
  {
   "binding":"weak",
   "name":"_ZN7android8hardware8toBinderINS_4hidl4base4V1_05IBaseEvEENS_2spINS0_7IBinderEEENS6_IT_EE"
  },
  {
   "name":"_ZThn32_N7android8hardware8graphics6mapper4V2_110BnHwMapperD0Ev"
  },
  {
   "name":"_ZThn32_N7android8hardware8graphics6mapper4V2_110BnHwMapperD1Ev"
  },
  {
   "name":"_ZTv0_n24_N7android8hardware8graphics6mapper4V2_110BnHwMapperD0Ev"
  },
  {
   "name":"_ZTv0_n24_N7android8hardware8graphics6mapper4V2_110BnHwMapperD1Ev"
  }
 ],
 "elf_objects":[
  {
   "name":"_ZN7android8hardware8graphics6mapper4V2_17IMapper10descriptorE"
  },
  {
   "name":"_ZTTN7android8hardware8graphics6mapper4V2_110BnHwMapperE"
  },
  {
   "name":"_ZTTN7android8hardware8graphics6mapper4V2_110BpHwMapperE"
  },
  {
   "name":"_ZTTN7android8hardware8graphics6mapper4V2_17IMapperE"
  },
  {
   "name":"_ZTVN7android8hardware8graphics6mapper4V2_110BnHwMapperE"
  },
  {
   "name":"_ZTVN7android8hardware8graphics6mapper4V2_110BpHwMapperE"
  },
  {
   "name":"_ZTVN7android8hardware8graphics6mapper4V2_17IMapperE"
  },
  {
   "binding":"weak",
   "name":"_ZTVN7android8hardware8graphics6mapper4V2_18BsMapperE"
  }
 ]
}