{
 "record_types":[
  {
   "vtable_components":[
    {
     "kind":"vbase_offset",
     "component_value":136
    },
    {
     "kind":"offset_to_top"
    },
    {
     "kind":"rtti",
     "mangled_component_name":"_ZTIN7android8hardware5media3omx4V1_011BnHwOmxNodeE"
    },
    {
     "mangled_component_name":"_ZN7android8hardware9BHwBinder8transactEjRKNS0_6ParcelEPS2_jNSt3__18functionIFvRS2_EEE"
    },
    {
     "mangled_component_name":"_ZN7android8hardware9BHwBinder11linkToDeathERKNS_2spINS0_7IBinder14DeathRecipientEEEPvj"
    },
    {
     "mangled_component_name":"_ZN7android8hardware9BHwBinder13unlinkToDeathERKNS_2wpINS0_7IBinder14DeathRecipientEEEPvjPS5_"
    },
    {
     "mangled_component_name":"_ZNK7android8hardware7IBinder13checkSubclassEPKv"
    },
    {
     "mangled_component_name":"_ZN7android8hardware9BHwBinder12attachObjectEPKvPvS4_PFvS3_S4_S4_E"
    },
    {
     "mangled_component_name":"_ZNK7android8hardware9BHwBinder10findObjectEPKv"
    },
    {
     "mangled_component_name":"_ZN7android8hardware9BHwBinder12detachObjectEPKv"
    },
    {
     "mangled_component_name":"_ZN7android8hardware9BHwBinder11localBinderEv"
    },
    {
     "mangled_component_name":"_ZN7android8hardware7IBinder12remoteBinderEv"
    },
    {
     "kind":"complete_dtor_pointer",
     "mangled_component_name":"_ZN7android8hardware5media3omx4V1_011BnHwOmxNodeD1Ev"
    },
    {
     "kind":"deleting_dtor_pointer",
     "mangled_component_name":"_ZN7android8hardware5media3omx4V1_011BnHwOmxNodeD0Ev"
    },
    {
     "mangled_component_name":"_ZN7android8hardware5media3omx4V1_011BnHwOmxNode10onTransactEjRKNS0_6ParcelEPS5_jNSt3__18functionIFvRS5_EEE"
    },
    {
     "kind":"offset_to_top",
     "component_value":-32
    },
    {
     "kind":"rtti",
     "mangled_component_name":"_ZTIN7android8hardware5media3omx4V1_011BnHwOmxNodeE"
    },
    {
     "kind":"complete_dtor_pointer",
     "mangled_component_name":"_ZThn32_N7android8hardware5media3omx4V1_011BnHwOmxNodeD1Ev"
    },
    {
     "kind":"deleting_dtor_pointer",
     "mangled_component_name":"_ZThn32_N7android8hardware5media3omx4V1_011BnHwOmxNodeD0Ev"
    },
    {
     "kind":"vcall_offset"
    },
    {
     "kind":"vcall_offset"
    },
    {
     "kind":"vcall_offset"
    },
    {
     "kind":"vcall_offset"
    },
    {
     "kind":"vcall_offset",
     "component_value":-136
    },
    {
     "kind":"offset_to_top",
     "component_value":-136
    },
    {
     "kind":"rtti",
     "mangled_component_name":"_ZTIN7android8hardware5media3omx4V1_011BnHwOmxNodeE"
    },
    {
     "kind":"complete_dtor_pointer",
     "mangled_component_name":"_ZTv0_n24_N7android8hardware5media3omx4V1_011BnHwOmxNodeD1Ev"
    },
    {
     "kind":"deleting_dtor_pointer",
     "mangled_component_name":"_ZTv0_n24_N7android8hardware5media3omx4V1_011BnHwOmxNodeD0Ev"
    },
    {
     "mangled_component_name":"_ZN7android7RefBase10onFirstRefEv"
    },
    {
     "mangled_component_name":"_ZN7android7RefBase15onLastStrongRefEPKv"
    },
    {
     "mangled_component_name":"_ZN7android7RefBase20onIncStrongAttemptedEjPKv"
    },
    {
     "mangled_component_name":"_ZN7android7RefBase13onLastWeakRefEPKv"
    }
   ],
   "unique_id":"_ZTSN7android8hardware5media3omx4V1_011BnHwOmxNodeE"
  },
  {
   "vtable_components":[
    {
     "kind":"vbase_offset",
     "component_value":120
    },
    {
     "kind":"offset_to_top"
    },
    {
     "kind":"rtti",
     "mangled_component_name":"_ZTIN7android8hardware5media3omx4V1_021BsGraphicBufferSourceE"
    },
    {
     "mangled_component_name":"_ZNK7android8hardware5media3omx4V1_020IGraphicBufferSource8isRemoteEv"
    },
    {
     "mangled_component_name":"_ZN7android8hardware5media3omx4V1_021BsGraphicBufferSource14interfaceChainENSt3__18functionIFvRKNS0_8hidl_vecINS0_11hidl_stringEEEEEE"
    },
    {
     "mangled_component_name":"_ZN7android8hardware5media3omx4V1_021BsGraphicBufferSource5debugERKNS0_11hidl_handleERKNS0_8hidl_vecINS0_11hidl_stringEEE"
    },
    {
     "mangled_component_name":"_ZN7android8hardware5media3omx4V1_021BsGraphicBufferSource19interfaceDescriptorENSt3__18functionIFvRKNS0_11hidl_stringEEEE"
    },
    {
     "mangled_component_name":"_ZN7android8hardware5media3omx4V1_021BsGraphicBufferSource12getHashChainENSt3__18functionIFvRKNS0_8hidl_vecINS0_10hidl_arrayIhLm32EJEEEEEEEE"
    },
    {
     "mangled_component_name":"_ZN7android8hardware5media3omx4V1_021BsGraphicBufferSource21setHALInstrumentationEv"
    },
    {
     "mangled_component_name":"_ZN7android8hardware5media3omx4V1_021BsGraphicBufferSource11linkToDeathERKNS_2spINS0_20hidl_death_recipientEEEm"
    },
    {
     "mangled_component_name":"_ZN7android8hardware5media3omx4V1_021BsGraphicBufferSource4pingEv"
    },
    {
     "mangled_component_name":"_ZN7android8hardware5media3omx4V1_021BsGraphicBufferSource12getDebugInfoENSt3__18functionIFvRKNS_4hidl4base4V1_09DebugInfoEEEE"
    },
    {
     "mangled_component_name":"_ZN7android8hardware5media3omx4V1_021BsGraphicBufferSource21notifySyspropsChangedEv"
    },
    {
     "mangled_component_name":"_ZN7android8hardware5media3omx4V1_021BsGraphicBufferSource13unlinkToDeathERKNS_2spINS0_20hidl_death_recipientEEE"
    },
    {
     "kind":"complete_dtor_pointer",
     "mangled_component_name":"_ZN7android8hardware5media3omx4V1_021BsGraphicBufferSourceD1Ev"
    },
    {
     "kind":"deleting_dtor_pointer",
     "mangled_component_name":"_ZN7android8hardware5media3omx4V1_021BsGraphicBufferSourceD0Ev"
    },
    {
     "mangled_component_name":"_ZN7android8hardware5media3omx4V1_021BsGraphicBufferSource9configureERKNS_2spINS3_8IOmxNodeEEENS0_8graphics6common4V1_09DataspaceE"
    },
    {
     "mangled_component_name":"_ZN7android8hardware5media3omx4V1_021BsGraphicBufferSource10setSuspendEbl"
    },
    {
     "mangled_component_name":"_ZN7android8hardware5media3omx4V1_021BsGraphicBufferSource29setRepeatPreviousFrameDelayUsEl"
    },
    {
     "mangled_component_name":"_ZN7android8hardware5media3omx4V1_021BsGraphicBufferSource9setMaxFpsEf"
    },
    {
     "mangled_component_name":"_ZN7android8hardware5media3omx4V1_021BsGraphicBufferSource18setTimeLapseConfigEdd"
    },
    {
     "mangled_component_name":"_ZN7android8hardware5media3omx4V1_021BsGraphicBufferSource14setStartTimeUsEl"
    },
    {
     "mangled_component_name":"_ZN7android8hardware5media3omx4V1_021BsGraphicBufferSource13setStopTimeUsEl"
    },
    {
     "mangled_component_name":"_ZN7android8hardware5media3omx4V1_021BsGraphicBufferSource19getStopTimeOffsetUsENSt3__18functionIFvNS3_6StatusElEEE"
    },
    {
     "mangled_component_name":"_ZN7android8hardware5media3omx4V1_021BsGraphicBufferSource15setColorAspectsERKNS3_12ColorAspectsE"
    },
    {
     "mangled_component_name":"_ZN7android8hardware5media3omx4V1_021BsGraphicBufferSource15setTimeOffsetUsEl"
    },
    {
     "mangled_component_name":"_ZN7android8hardware5media3omx4V1_021BsGraphicBufferSource22signalEndOfInputStreamEv"
    },
    {
     "kind":"offset_to_top",
     "component_value":-8
    },
    {
     "kind":"rtti",
     "mangled_component_name":"_ZTIN7android8hardware5media3omx4V1_021BsGraphicBufferSourceE"
    },
    {
     "kind":"complete_dtor_pointer",
     "mangled_component_name":"_ZThn8_N7android8hardware5media3omx4V1_021BsGraphicBufferSourceD1Ev"
    },
    {
     "kind":"deleting_dtor_pointer",
     "mangled_component_name":"_ZThn8_N7android8hardware5media3omx4V1_021BsGraphicBufferSourceD0Ev"
    },
    {
     "kind":"vcall_offset"
    },
    {
     "kind":"vcall_offset"
    },
    {
     "kind":"vcall_offset"
    },
    {
     "kind":"vcall_offset"
    },
    {
     "kind":"vcall_offset",
     "component_value":-120
    },
    {
     "kind":"offset_to_top",
     "component_value":-120
    },
    {
     "kind":"rtti",
     "mangled_component_name":"_ZTIN7android8hardware5media3omx4V1_021BsGraphicBufferSourceE"
    },
    {
     "kind":"complete_dtor_pointer",
     "mangled_component_name":"_ZTv0_n24_N7android8hardware5media3omx4V1_021BsGraphicBufferSourceD1Ev"
    },
    {
     "kind":"deleting_dtor_pointer",
     "mangled_component_name":"_ZTv0_n24_N7android8hardware5media3omx4V1_021BsGraphicBufferSourceD0Ev"
    },
    {
     "mangled_component_name":"_ZN7android7RefBase10onFirstRefEv"
    },
    {
     "mangled_component_name":"_ZN7android7RefBase15onLastStrongRefEPKv"
    },
    {
     "mangled_component_name":"_ZN7android7RefBase20onIncStrongAttemptedEjPKv"
    },
    {
     "mangled_component_name":"_ZN7android7RefBase13onLastWeakRefEPKv"
    }
   ],
   "unique_id":"_ZTSN7android8hardware5media3omx4V1_021BsGraphicBufferSourceE"
  },
  {
   "vtable_components":[
    {
     "kind":"vbase_offset",
     "component_value":200
    },
    {
     "kind":"offset_to_top"
    },
    {
     "kind":"rtti",
     "mangled_component_name":"_ZTIN7android8hardware5media3omx4V1_023BpHwGraphicBufferSourceE"
    },
    {
     "mangled_component_name":"_ZNK7android8hardware5media3omx4V1_023BpHwGraphicBufferSource8isRemoteEv"
    },
    {
     "mangled_component_name":"_ZN7android8hardware5media3omx4V1_023BpHwGraphicBufferSource14interfaceChainENSt3__18functionIFvRKNS0_8hidl_vecINS0_11hidl_stringEEEEEE"
    },
    {
     "mangled_component_name":"_ZN7android8hardware5media3omx4V1_023BpHwGraphicBufferSource5debugERKNS0_11hidl_handleERKNS0_8hidl_vecINS0_11hidl_stringEEE"
    },
    {
     "mangled_component_name":"_ZN7android8hardware5media3omx4V1_023BpHwGraphicBufferSource19interfaceDescriptorENSt3__18functionIFvRKNS0_11hidl_stringEEEE"
    },
    {
     "mangled_component_name":"_ZN7android8hardware5media3omx4V1_023BpHwGraphicBufferSource12getHashChainENSt3__18functionIFvRKNS0_8hidl_vecINS0_10hidl_arrayIhLm32EJEEEEEEEE"
    },
    {
     "mangled_component_name":"_ZN7android8hardware5media3omx4V1_023BpHwGraphicBufferSource21setHALInstrumentationEv"
    },
    {
     "mangled_component_name":"_ZN7android8hardware5media3omx4V1_023BpHwGraphicBufferSource11linkToDeathERKNS_2spINS0_20hidl_death_recipientEEEm"
    },
    {
     "mangled_component_name":"_ZN7android8hardware5media3omx4V1_023BpHwGraphicBufferSource4pingEv"
    },
    {
     "mangled_component_name":"_ZN7android8hardware5media3omx4V1_023BpHwGraphicBufferSource12getDebugInfoENSt3__18functionIFvRKNS_4hidl4base4V1_09DebugInfoEEEE"
    },
    {
     "mangled_component_name":"_ZN7android8hardware5media3omx4V1_023BpHwGraphicBufferSource21notifySyspropsChangedEv"
    },
    {
     "mangled_component_name":"_ZN7android8hardware5media3omx4V1_023BpHwGraphicBufferSource13unlinkToDeathERKNS_2spINS0_20hidl_death_recipientEEE"
    },
    {
     "kind":"complete_dtor_pointer",
     "mangled_component_name":"_ZN7android8hardware5media3omx4V1_023BpHwGraphicBufferSourceD1Ev"
    },
    {
     "kind":"deleting_dtor_pointer",
     "mangled_component_name":"_ZN7android8hardware5media3omx4V1_023BpHwGraphicBufferSourceD0Ev"
    },
    {
     "mangled_component_name":"_ZN7android8hardware5media3omx4V1_023BpHwGraphicBufferSource9configureERKNS_2spINS3_8IOmxNodeEEENS0_8graphics6common4V1_09DataspaceE"
    },
    {
     "mangled_component_name":"_ZN7android8hardware5media3omx4V1_023BpHwGraphicBufferSource10setSuspendEbl"
    },
    {
     "mangled_component_name":"_ZN7android8hardware5media3omx4V1_023BpHwGraphicBufferSource29setRepeatPreviousFrameDelayUsEl"
    },
    {
     "mangled_component_name":"_ZN7android8hardware5media3omx4V1_023BpHwGraphicBufferSource9setMaxFpsEf"
    },
    {
     "mangled_component_name":"_ZN7android8hardware5media3omx4V1_023BpHwGraphicBufferSource18setTimeLapseConfigEdd"
    },
    {
     "mangled_component_name":"_ZN7android8hardware5media3omx4V1_023BpHwGraphicBufferSource14setStartTimeUsEl"
    },
    {
     "mangled_component_name":"_ZN7android8hardware5media3omx4V1_023BpHwGraphicBufferSource13setStopTimeUsEl"
    },
    {
     "mangled_component_name":"_ZN7android8hardware5media3omx4V1_023BpHwGraphicBufferSource19getStopTimeOffsetUsENSt3__18functionIFvNS3_6StatusElEEE"
    },
    {
     "mangled_component_name":"_ZN7android8hardware5media3omx4V1_023BpHwGraphicBufferSource15setColorAspectsERKNS3_12ColorAspectsE"
    },
    {
     "mangled_component_name":"_ZN7android8hardware5media3omx4V1_023BpHwGraphicBufferSource15setTimeOffsetUsEl"
    },
    {
     "mangled_component_name":"_ZN7android8hardware5media3omx4V1_023BpHwGraphicBufferSource22signalEndOfInputStreamEv"
    },
    {
     "mangled_component_name":"_ZN7android8hardware11BpInterfaceINS0_5media3omx4V1_020IGraphicBufferSourceEE10onAsBinderEv"
    },
    {
     "kind":"vbase_offset",
     "component_value":192
    },
    {
     "kind":"offset_to_top",
     "component_value":-8
    },
    {
     "kind":"rtti",
     "mangled_component_name":"_ZTIN7android8hardware5media3omx4V1_023BpHwGraphicBufferSourceE"
    },
    {
     "kind":"complete_dtor_pointer",
     "mangled_component_name":"_ZThn8_N7android8hardware5media3omx4V1_023BpHwGraphicBufferSourceD1Ev"
    },
    {
     "kind":"deleting_dtor_pointer",
     "mangled_component_name":"_ZThn8_N7android8hardware5media3omx4V1_023BpHwGraphicBufferSourceD0Ev"
    },
    {
     "mangled_component_name":"_ZThn8_N7android8hardware11BpInterfaceINS0_5media3omx4V1_020IGraphicBufferSourceEE10onAsBinderEv"
    },
    {
     "kind":"vbase_offset",
     "component_value":184
    },
    {
     "kind":"offset_to_top",
     "component_value":-16
    },
    {
     "kind":"rtti",
     "mangled_component_name":"_ZTIN7android8hardware5media3omx4V1_023BpHwGraphicBufferSourceE"
    },
    {
     "kind":"complete_dtor_pointer",
     "mangled_component_name":"_ZThn16_N7android8hardware5media3omx4V1_023BpHwGraphicBufferSourceD1Ev"
    },
    {
     "kind":"deleting_dtor_pointer",
     "mangled_component_name":"_ZThn16_N7android8hardware5media3omx4V1_023BpHwGraphicBufferSourceD0Ev"
    },
    {
     "mangled_component_name":"_ZN7android8hardware11BpHwRefBase10onFirstRefEv"
    },
    {
     "mangled_component_name":"_ZN7android8hardware11BpHwRefBase15onLastStrongRefEPKv"
    },
    {
     "mangled_component_name":"_ZN7android8hardware11BpHwRefBase20onIncStrongAttemptedEjPKv"
    },
    {
     "kind":"offset_to_top",
     "component_value":-48
    },
    {
     "kind":"rtti",
     "mangled_component_name":"_ZTIN7android8hardware5media3omx4V1_023BpHwGraphicBufferSourceE"
    },
    {
     "kind":"complete_dtor_pointer",
     "mangled_component_name":"_ZThn48_N7android8hardware5media3omx4V1_023BpHwGraphicBufferSourceD1Ev"
    },
    {
     "kind":"deleting_dtor_pointer",
     "mangled_component_name":"_ZThn48_N7android8hardware5media3omx4V1_023BpHwGraphicBufferSourceD0Ev"
    },
    {
     "kind":"vcall_offset"
    },
    {
     "kind":"vcall_offset",
     "component_value":-184
    },
    {
     "kind":"vcall_offset",
     "component_value":-184
    },
    {
     "kind":"vcall_offset",
     "component_value":-184
    },
    {
     "kind":"vcall_offset",
     "component_value":-200
    },
    {
     "kind":"offset_to_top",
     "component_value":-200
    },
    {
     "kind":"rtti",
     "mangled_component_name":"_ZTIN7android8hardware5media3omx4V1_023BpHwGraphicBufferSourceE"
    },
    {
     "kind":"complete_dtor_pointer",
     "mangled_component_name":"_ZTv0_n24_N7android8hardware5media3omx4V1_023BpHwGraphicBufferSourceD1Ev"
    },
    {
     "kind":"deleting_dtor_pointer",
     "mangled_component_name":"_ZTv0_n24_N7android8hardware5media3omx4V1_023BpHwGraphicBufferSourceD0Ev"
    },
    {
     "mangled_component_name":"_ZTv0_n32_N7android8hardware11BpHwRefBase10onFirstRefEv"
    },
    {
     "mangled_component_name":"_ZTv0_n40_N7android8hardware11BpHwRefBase15onLastStrongRefEPKv"
    },
    {
     "mangled_component_name":"_ZTv0_n48_N7android8hardware11BpHwRefBase20onIncStrongAttemptedEjPKv"
    },
    {
     "mangled_component_name":"_ZN7android7RefBase13onLastWeakRefEPKv"
    }
   ],
   "unique_id":"_ZTSN7android8hardware5media3omx4V1_023BpHwGraphicBufferSourceE"
  },
  {
   "vtable_components":[
    {
     "kind":"vbase_offset",
     "component_value":8
    },
    {
     "kind":"offset_to_top"
    },
    {
     "kind":"rtti",
     "mangled_component_name":"_ZTIN7android8hardware5media3omx4V1_04IOmxE"
    },
    {
     "mangled_component_name":"_ZNK7android8hardware5media3omx4V1_04IOmx8isRemoteEv"
    },
    {
     "mangled_component_name":"_ZN7android8hardware5media3omx4V1_04IOmx14interfaceChainENSt3__18functionIFvRKNS0_8hidl_vecINS0_11hidl_stringEEEEEE"
    },
    {
     "mangled_component_name":"_ZN7android8hardware5media3omx4V1_04IOmx5debugERKNS0_11hidl_handleERKNS0_8hidl_vecINS0_11hidl_stringEEE"
    },
    {
     "mangled_component_name":"_ZN7android8hardware5media3omx4V1_04IOmx19interfaceDescriptorENSt3__18functionIFvRKNS0_11hidl_stringEEEE"
    },
    {
     "mangled_component_name":"_ZN7android8hardware5media3omx4V1_04IOmx12getHashChainENSt3__18functionIFvRKNS0_8hidl_vecINS0_10hidl_arrayIhLm32EJEEEEEEEE"
    },
    {
     "mangled_component_name":"_ZN7android8hardware5media3omx4V1_04IOmx21setHALInstrumentationEv"
    },
    {
     "mangled_component_name":"_ZN7android8hardware5media3omx4V1_04IOmx11linkToDeathERKNS_2spINS0_20hidl_death_recipientEEEm"
    },
    {
     "mangled_component_name":"_ZN7android8hardware5media3omx4V1_04IOmx4pingEv"
    },
    {
     "mangled_component_name":"_ZN7android8hardware5media3omx4V1_04IOmx12getDebugInfoENSt3__18functionIFvRKNS_4hidl4base4V1_09DebugInfoEEEE"
    },
    {
     "mangled_component_name":"_ZN7android8hardware5media3omx4V1_04IOmx21notifySyspropsChangedEv"
    },
    {
     "mangled_component_name":"_ZN7android8hardware5media3omx4V1_04IOmx13unlinkToDeathERKNS_2spINS0_20hidl_death_recipientEEE"
    },
    {
     "kind":"complete_dtor_pointer",
     "mangled_component_name":"_ZN7android8hardware5media3omx4V1_04IOmxD1Ev"
    },
    {
     "kind":"deleting_dtor_pointer",
     "mangled_component_name":"_ZN7android8hardware5media3omx4V1_04IOmxD0Ev"
    },
    {
     "is_pure":true,
     "mangled_component_name":"_ZN7android8hardware5media3omx4V1_04IOmx9listNodesENSt3__18functionIFvNS3_6StatusERKNS0_8hidl_vecINS4_13ComponentInfoEEEEEE"
    },
    {
     "is_pure":true,
     "mangled_component_name":"_ZN7android8hardware5media3omx4V1_04IOmx12allocateNodeERKNS0_11hidl_stringERKNS_2spINS3_12IOmxObserverEEENSt3__18functionIFvNS3_6StatusERKNS8_INS3_8IOmxNodeEEEEEE"
    },
    {
     "is_pure":true,
     "mangled_component_name":"_ZN7android8hardware5media3omx4V1_04IOmx18createInputSurfaceENSt3__18functionIFvNS3_6StatusERKNS_2spINS0_8graphics11bufferqueue4V1_022IGraphicBufferProducerEEERKNS8_INS3_20IGraphicBufferSourceEEEEEE"
    },
    {
     "kind":"vcall_offset"
    },
    {
     "kind":"vcall_offset"
    },
    {
     "kind":"vcall_offset"
    },
    {
     "kind":"vcall_offset"
    },
    {
     "kind":"vcall_offset",
     "component_value":-8
    },
    {
     "kind":"offset_to_top",
     "component_value":-8
    },
    {
     "kind":"rtti",
     "mangled_component_name":"_ZTIN7android8hardware5media3omx4V1_04IOmxE"
    },
    {
     "kind":"complete_dtor_pointer",
     "mangled_component_name":"_ZTv0_n24_N7android8hardware5media3omx4V1_04IOmxD1Ev"
    },
    {
     "kind":"deleting_dtor_pointer",
     "mangled_component_name":"_ZTv0_n24_N7android8hardware5media3omx4V1_04IOmxD0Ev"
    },
    {
     "mangled_component_name":"_ZN7android7RefBase10onFirstRefEv"
    },
    {
     "mangled_component_name":"_ZN7android7RefBase15onLastStrongRefEPKv"
    },
    {
     "mangled_component_name":"_ZN7android7RefBase20onIncStrongAttemptedEjPKv"
    },
    {
     "mangled_component_name":"_ZN7android7RefBase13onLastWeakRefEPKv"
    }
   ],
   "unique_id":"_ZTSN7android8hardware5media3omx4V1_04IOmxE"
  },
  {
   "vtable_components":[
    {
     "kind":"vbase_offset",
     "component_value":136
    },
    {
     "kind":"offset_to_top"
    },
    {
     "kind":"rtti",
     "mangled_component_name":"_ZTIN7android8hardware5media3omx4V1_019BnHwOmxBufferSourceE"
    },
    {
     "mangled_component_name":"_ZN7android8hardware9BHwBinder8transactEjRKNS0_6ParcelEPS2_jNSt3__18functionIFvRS2_EEE"
    },
    {
     "mangled_component_name":"_ZN7android8hardware9BHwBinder11linkToDeathERKNS_2spINS0_7IBinder14DeathRecipientEEEPvj"
    },
    {
     "mangled_component_name":"_ZN7android8hardware9BHwBinder13unlinkToDeathERKNS_2wpINS0_7IBinder14DeathRecipientEEEPvjPS5_"
    },
    {
     "mangled_component_name":"_ZNK7android8hardware7IBinder13checkSubclassEPKv"
    },
    {
     "mangled_component_name":"_ZN7android8hardware9BHwBinder12attachObjectEPKvPvS4_PFvS3_S4_S4_E"
    },
    {
     "mangled_component_name":"_ZNK7android8hardware9BHwBinder10findObjectEPKv"
    },
    {
     "mangled_component_name":"_ZN7android8hardware9BHwBinder12detachObjectEPKv"
    },
    {
     "mangled_component_name":"_ZN7android8hardware9BHwBinder11localBinderEv"
    },
    {
     "mangled_component_name":"_ZN7android8hardware7IBinder12remoteBinderEv"
    },
    {
     "kind":"complete_dtor_pointer",
     "mangled_component_name":"_ZN7android8hardware5media3omx4V1_019BnHwOmxBufferSourceD1Ev"
    },
    {
     "kind":"deleting_dtor_pointer",
     "mangled_component_name":"_ZN7android8hardware5media3omx4V1_019BnHwOmxBufferSourceD0Ev"
    },
    {
     "mangled_component_name":"_ZN7android8hardware5media3omx4V1_019BnHwOmxBufferSource10onTransactEjRKNS0_6ParcelEPS5_jNSt3__18functionIFvRS5_EEE"
    },
    {
     "kind":"offset_to_top",
     "component_value":-32
    },
    {
     "kind":"rtti",
     "mangled_component_name":"_ZTIN7android8hardware5media3omx4V1_019BnHwOmxBufferSourceE"
    },
    {
     "kind":"complete_dtor_pointer",
     "mangled_component_name":"_ZThn32_N7android8hardware5media3omx4V1_019BnHwOmxBufferSourceD1Ev"
    },
    {
     "kind":"deleting_dtor_pointer",
     "mangled_component_name":"_ZThn32_N7android8hardware5media3omx4V1_019BnHwOmxBufferSourceD0Ev"
    },
    {
     "kind":"vcall_offset"
    },
    {
     "kind":"vcall_offset"
    },
    {
     "kind":"vcall_offset"
    },
    {
     "kind":"vcall_offset"
    },
    {
     "kind":"vcall_offset",
     "component_value":-136
    },
    {
     "kind":"offset_to_top",
     "component_value":-136
    },
    {
     "kind":"rtti",
     "mangled_component_name":"_ZTIN7android8hardware5media3omx4V1_019BnHwOmxBufferSourceE"
    },
    {
     "kind":"complete_dtor_pointer",
     "mangled_component_name":"_ZTv0_n24_N7android8hardware5media3omx4V1_019BnHwOmxBufferSourceD1Ev"
    },
    {
     "kind":"deleting_dtor_pointer",
     "mangled_component_name":"_ZTv0_n24_N7android8hardware5media3omx4V1_019BnHwOmxBufferSourceD0Ev"
    },
    {
     "mangled_component_name":"_ZN7android7RefBase10onFirstRefEv"
    },
    {
     "mangled_component_name":"_ZN7android7RefBase15onLastStrongRefEPKv"
    },
    {
     "mangled_component_name":"_ZN7android7RefBase20onIncStrongAttemptedEjPKv"
    },
    {
     "mangled_component_name":"_ZN7android7RefBase13onLastWeakRefEPKv"
    }
   ],
   "unique_id":"_ZTSN7android8hardware5media3omx4V1_019BnHwOmxBufferSourceE"
  },
  {
   "vtable_components":[
    {
     "kind":"vbase_offset",
     "component_value":136
    },
    {
     "kind":"offset_to_top"
    },
    {
     "kind":"rtti",
     "mangled_component_name":"_ZTIN7android8hardware5media3omx4V1_07BnHwOmxE"
    },
    {
     "mangled_component_name":"_ZN7android8hardware9BHwBinder8transactEjRKNS0_6ParcelEPS2_jNSt3__18functionIFvRS2_EEE"
    },
    {
     "mangled_component_name":"_ZN7android8hardware9BHwBinder11linkToDeathERKNS_2spINS0_7IBinder14DeathRecipientEEEPvj"
    },
    {
     "mangled_component_name":"_ZN7android8hardware9BHwBinder13unlinkToDeathERKNS_2wpINS0_7IBinder14DeathRecipientEEEPvjPS5_"
    },
    {
     "mangled_component_name":"_ZNK7android8hardware7IBinder13checkSubclassEPKv"
    },
    {
     "mangled_component_name":"_ZN7android8hardware9BHwBinder12attachObjectEPKvPvS4_PFvS3_S4_S4_E"
    },
    {
     "mangled_component_name":"_ZNK7android8hardware9BHwBinder10findObjectEPKv"
    },
    {
     "mangled_component_name":"_ZN7android8hardware9BHwBinder12detachObjectEPKv"
    },
    {
     "mangled_component_name":"_ZN7android8hardware9BHwBinder11localBinderEv"
    },
    {
     "mangled_component_name":"_ZN7android8hardware7IBinder12remoteBinderEv"
    },
    {
     "kind":"complete_dtor_pointer",
     "mangled_component_name":"_ZN7android8hardware5media3omx4V1_07BnHwOmxD1Ev"
    },
    {
     "kind":"deleting_dtor_pointer",
     "mangled_component_name":"_ZN7android8hardware5media3omx4V1_07BnHwOmxD0Ev"
    },
    {
     "mangled_component_name":"_ZN7android8hardware5media3omx4V1_07BnHwOmx10onTransactEjRKNS0_6ParcelEPS5_jNSt3__18functionIFvRS5_EEE"
    },
    {
     "kind":"offset_to_top",
     "component_value":-32
    },
    {
     "kind":"rtti",
     "mangled_component_name":"_ZTIN7android8hardware5media3omx4V1_07BnHwOmxE"
    },
    {
     "kind":"complete_dtor_pointer",
     "mangled_component_name":"_ZThn32_N7android8hardware5media3omx4V1_07BnHwOmxD1Ev"
    },
    {
     "kind":"deleting_dtor_pointer",
     "mangled_component_name":"_ZThn32_N7android8hardware5media3omx4V1_07BnHwOmxD0Ev"
    },
    {
     "kind":"vcall_offset"
    },
    {
     "kind":"vcall_offset"
    },
    {
     "kind":"vcall_offset"
    },
    {
     "kind":"vcall_offset"
    },
    {
     "kind":"vcall_offset",
     "component_value":-136
    },
    {
     "kind":"offset_to_top",
     "component_value":-136
    },
    {
     "kind":"rtti",
     "mangled_component_name":"_ZTIN7android8hardware5media3omx4V1_07BnHwOmxE"
    },
    {
     "kind":"complete_dtor_pointer",
     "mangled_component_name":"_ZTv0_n24_N7android8hardware5media3omx4V1_07BnHwOmxD1Ev"
    },
    {
     "kind":"deleting_dtor_pointer",
     "mangled_component_name":"_ZTv0_n24_N7android8hardware5media3omx4V1_07BnHwOmxD0Ev"
    },
    {
     "mangled_component_name":"_ZN7android7RefBase10onFirstRefEv"
    },
    {
     "mangled_component_name":"_ZN7android7RefBase15onLastStrongRefEPKv"
    },
    {
     "mangled_component_name":"_ZN7android7RefBase20onIncStrongAttemptedEjPKv"
    },
    {
     "mangled_component_name":"_ZN7android7RefBase13onLastWeakRefEPKv"
    }
   ],
   "unique_id":"_ZTSN7android8hardware5media3omx4V1_07BnHwOmxE"
  },
  {
   "vtable_components":[
    {
     "kind":"vbase_offset",
     "component_value":120
    },
    {
     "kind":"offset_to_top"
    },
    {
     "kind":"rtti",
     "mangled_component_name":"_ZTIN7android8hardware5media3omx4V1_05BsOmxE"
    },
    {
     "mangled_component_name":"_ZNK7android8hardware5media3omx4V1_04IOmx8isRemoteEv"
    },
    {
     "mangled_component_name":"_ZN7android8hardware5media3omx4V1_05BsOmx14interfaceChainENSt3__18functionIFvRKNS0_8hidl_vecINS0_11hidl_stringEEEEEE"
    },
    {
     "mangled_component_name":"_ZN7android8hardware5media3omx4V1_05BsOmx5debugERKNS0_11hidl_handleERKNS0_8hidl_vecINS0_11hidl_stringEEE"
    },
    {
     "mangled_component_name":"_ZN7android8hardware5media3omx4V1_05BsOmx19interfaceDescriptorENSt3__18functionIFvRKNS0_11hidl_stringEEEE"
    },
    {
     "mangled_component_name":"_ZN7android8hardware5media3omx4V1_05BsOmx12getHashChainENSt3__18functionIFvRKNS0_8hidl_vecINS0_10hidl_arrayIhLm32EJEEEEEEEE"
    },
    {
     "mangled_component_name":"_ZN7android8hardware5media3omx4V1_05BsOmx21setHALInstrumentationEv"
    },
    {
     "mangled_component_name":"_ZN7android8hardware5media3omx4V1_05BsOmx11linkToDeathERKNS_2spINS0_20hidl_death_recipientEEEm"
    },
    {
     "mangled_component_name":"_ZN7android8hardware5media3omx4V1_05BsOmx4pingEv"
    },
    {
     "mangled_component_name":"_ZN7android8hardware5media3omx4V1_05BsOmx12getDebugInfoENSt3__18functionIFvRKNS_4hidl4base4V1_09DebugInfoEEEE"
    },
    {
     "mangled_component_name":"_ZN7android8hardware5media3omx4V1_05BsOmx21notifySyspropsChangedEv"
    },
    {
     "mangled_component_name":"_ZN7android8hardware5media3omx4V1_05BsOmx13unlinkToDeathERKNS_2spINS0_20hidl_death_recipientEEE"
    },
    {
     "kind":"complete_dtor_pointer",
     "mangled_component_name":"_ZN7android8hardware5media3omx4V1_05BsOmxD1Ev"
    },
    {
     "kind":"deleting_dtor_pointer",
     "mangled_component_name":"_ZN7android8hardware5media3omx4V1_05BsOmxD0Ev"
    },
    {
     "mangled_component_name":"_ZN7android8hardware5media3omx4V1_05BsOmx9listNodesENSt3__18functionIFvNS3_6StatusERKNS0_8hidl_vecINS3_4IOmx13ComponentInfoEEEEEE"
    },
    {
     "mangled_component_name":"_ZN7android8hardware5media3omx4V1_05BsOmx12allocateNodeERKNS0_11hidl_stringERKNS_2spINS3_12IOmxObserverEEENSt3__18functionIFvNS3_6StatusERKNS8_INS3_8IOmxNodeEEEEEE"
    },
    {
     "mangled_component_name":"_ZN7android8hardware5media3omx4V1_05BsOmx18createInputSurfaceENSt3__18functionIFvNS3_6StatusERKNS_2spINS0_8graphics11bufferqueue4V1_022IGraphicBufferProducerEEERKNS8_INS3_20IGraphicBufferSourceEEEEEE"
    },
    {
     "kind":"offset_to_top",
     "component_value":-8
    },
    {
     "kind":"rtti",
     "mangled_component_name":"_ZTIN7android8hardware5media3omx4V1_05BsOmxE"
    },
    {
     "kind":"complete_dtor_pointer",
     "mangled_component_name":"_ZThn8_N7android8hardware5media3omx4V1_05BsOmxD1Ev"
    },
    {
     "kind":"deleting_dtor_pointer",
     "mangled_component_name":"_ZThn8_N7android8hardware5media3omx4V1_05BsOmxD0Ev"
    },
    {
     "kind":"vcall_offset"
    },
    {
     "kind":"vcall_offset"
    },
    {
     "kind":"vcall_offset"
    },
    {
     "kind":"vcall_offset"
    },
    {
     "kind":"vcall_offset",
     "component_value":-120
    },
    {
     "kind":"offset_to_top",
     "component_value":-120
    },
    {
     "kind":"rtti",
     "mangled_component_name":"_ZTIN7android8hardware5media3omx4V1_05BsOmxE"
    },
    {
     "kind":"complete_dtor_pointer",
     "mangled_component_name":"_ZTv0_n24_N7android8hardware5media3omx4V1_05BsOmxD1Ev"
    },
    {
     "kind":"deleting_dtor_pointer",
     "mangled_component_name":"_ZTv0_n24_N7android8hardware5media3omx4V1_05BsOmxD0Ev"
    },
    {
     "mangled_component_name":"_ZN7android7RefBase10onFirstRefEv"
    },
    {
     "mangled_component_name":"_ZN7android7RefBase15onLastStrongRefEPKv"
    },
    {
     "mangled_component_name":"_ZN7android7RefBase20onIncStrongAttemptedEjPKv"
    },
    {
     "mangled_component_name":"_ZN7android7RefBase13onLastWeakRefEPKv"
    }
   ],
   "unique_id":"_ZTSN7android8hardware5media3omx4V1_05BsOmxE"
  },
  {
   "vtable_components":[
    {
     "kind":"vbase_offset",
     "component_value":136
    },
    {
     "kind":"offset_to_top"
    },
    {
     "kind":"rtti",
     "mangled_component_name":"_ZTIN7android8hardware5media3omx4V1_015BnHwOmxObserverE"
    },
    {
     "mangled_component_name":"_ZN7android8hardware9BHwBinder8transactEjRKNS0_6ParcelEPS2_jNSt3__18functionIFvRS2_EEE"
    },
    {
     "mangled_component_name":"_ZN7android8hardware9BHwBinder11linkToDeathERKNS_2spINS0_7IBinder14DeathRecipientEEEPvj"
    },
    {
     "mangled_component_name":"_ZN7android8hardware9BHwBinder13unlinkToDeathERKNS_2wpINS0_7IBinder14DeathRecipientEEEPvjPS5_"
    },
    {
     "mangled_component_name":"_ZNK7android8hardware7IBinder13checkSubclassEPKv"
    },
    {
     "mangled_component_name":"_ZN7android8hardware9BHwBinder12attachObjectEPKvPvS4_PFvS3_S4_S4_E"
    },
    {
     "mangled_component_name":"_ZNK7android8hardware9BHwBinder10findObjectEPKv"
    },
    {
     "mangled_component_name":"_ZN7android8hardware9BHwBinder12detachObjectEPKv"
    },
    {
     "mangled_component_name":"_ZN7android8hardware9BHwBinder11localBinderEv"
    },
    {
     "mangled_component_name":"_ZN7android8hardware7IBinder12remoteBinderEv"
    },
    {
     "kind":"complete_dtor_pointer",
     "mangled_component_name":"_ZN7android8hardware5media3omx4V1_015BnHwOmxObserverD1Ev"
    },
    {
     "kind":"deleting_dtor_pointer",
     "mangled_component_name":"_ZN7android8hardware5media3omx4V1_015BnHwOmxObserverD0Ev"
    },
    {
     "mangled_component_name":"_ZN7android8hardware5media3omx4V1_015BnHwOmxObserver10onTransactEjRKNS0_6ParcelEPS5_jNSt3__18functionIFvRS5_EEE"
    },
    {
     "kind":"offset_to_top",
     "component_value":-32
    },
    {
     "kind":"rtti",
     "mangled_component_name":"_ZTIN7android8hardware5media3omx4V1_015BnHwOmxObserverE"
    },
    {
     "kind":"complete_dtor_pointer",
     "mangled_component_name":"_ZThn32_N7android8hardware5media3omx4V1_015BnHwOmxObserverD1Ev"
    },
    {
     "kind":"deleting_dtor_pointer",
     "mangled_component_name":"_ZThn32_N7android8hardware5media3omx4V1_015BnHwOmxObserverD0Ev"
    },
    {
     "kind":"vcall_offset"
    },
    {
     "kind":"vcall_offset"
    },
    {
     "kind":"vcall_offset"
    },
    {
     "kind":"vcall_offset"
    },
    {
     "kind":"vcall_offset",
     "component_value":-136
    },
    {
     "kind":"offset_to_top",
     "component_value":-136
    },
    {
     "kind":"rtti",
     "mangled_component_name":"_ZTIN7android8hardware5media3omx4V1_015BnHwOmxObserverE"
    },
    {
     "kind":"complete_dtor_pointer",
     "mangled_component_name":"_ZTv0_n24_N7android8hardware5media3omx4V1_015BnHwOmxObserverD1Ev"
    },
    {
     "kind":"deleting_dtor_pointer",
     "mangled_component_name":"_ZTv0_n24_N7android8hardware5media3omx4V1_015BnHwOmxObserverD0Ev"
    },
    {
     "mangled_component_name":"_ZN7android7RefBase10onFirstRefEv"
    },
    {
     "mangled_component_name":"_ZN7android7RefBase15onLastStrongRefEPKv"
    },
    {
     "mangled_component_name":"_ZN7android7RefBase20onIncStrongAttemptedEjPKv"
    },
    {
     "mangled_component_name":"_ZN7android7RefBase13onLastWeakRefEPKv"
    }
   ],
   "unique_id":"_ZTSN7android8hardware5media3omx4V1_015BnHwOmxObserverE"
  },
  {
   "vtable_components":[
    {
     "kind":"vbase_offset",
     "component_value":8
    },
    {
     "kind":"offset_to_top"
    },
    {
     "kind":"rtti",
     "mangled_component_name":"_ZTIN7android8hardware5media3omx4V1_012IOmxObserverE"
    },
    {
     "mangled_component_name":"_ZNK7android8hardware5media3omx4V1_012IOmxObserver8isRemoteEv"
    },
    {
     "mangled_component_name":"_ZN7android8hardware5media3omx4V1_012IOmxObserver14interfaceChainENSt3__18functionIFvRKNS0_8hidl_vecINS0_11hidl_stringEEEEEE"
    },
    {
     "mangled_component_name":"_ZN7android8hardware5media3omx4V1_012IOmxObserver5debugERKNS0_11hidl_handleERKNS0_8hidl_vecINS0_11hidl_stringEEE"
    },
    {
     "mangled_component_name":"_ZN7android8hardware5media3omx4V1_012IOmxObserver19interfaceDescriptorENSt3__18functionIFvRKNS0_11hidl_stringEEEE"
    },
    {
     "mangled_component_name":"_ZN7android8hardware5media3omx4V1_012IOmxObserver12getHashChainENSt3__18functionIFvRKNS0_8hidl_vecINS0_10hidl_arrayIhLm32EJEEEEEEEE"
    },
    {
     "mangled_component_name":"_ZN7android8hardware5media3omx4V1_012IOmxObserver21setHALInstrumentationEv"
    },
    {
     "mangled_component_name":"_ZN7android8hardware5media3omx4V1_012IOmxObserver11linkToDeathERKNS_2spINS0_20hidl_death_recipientEEEm"
    },
    {
     "mangled_component_name":"_ZN7android8hardware5media3omx4V1_012IOmxObserver4pingEv"
    },
    {
     "mangled_component_name":"_ZN7android8hardware5media3omx4V1_012IOmxObserver12getDebugInfoENSt3__18functionIFvRKNS_4hidl4base4V1_09DebugInfoEEEE"
    },
    {
     "mangled_component_name":"_ZN7android8hardware5media3omx4V1_012IOmxObserver21notifySyspropsChangedEv"
    },
    {
     "mangled_component_name":"_ZN7android8hardware5media3omx4V1_012IOmxObserver13unlinkToDeathERKNS_2spINS0_20hidl_death_recipientEEE"
    },
    {
     "kind":"complete_dtor_pointer",
     "mangled_component_name":"_ZN7android8hardware5media3omx4V1_012IOmxObserverD1Ev"
    },
    {
     "kind":"deleting_dtor_pointer",
     "mangled_component_name":"_ZN7android8hardware5media3omx4V1_012IOmxObserverD0Ev"
    },
    {
     "is_pure":true,
     "mangled_component_name":"_ZN7android8hardware5media3omx4V1_012IOmxObserver10onMessagesERKNS0_8hidl_vecINS3_7MessageEEE"
    },
    {
     "kind":"vcall_offset"
    },
    {
     "kind":"vcall_offset"
    },
    {
     "kind":"vcall_offset"
    },
    {
     "kind":"vcall_offset"
    },
    {
     "kind":"vcall_offset",
     "component_value":-8
    },
    {
     "kind":"offset_to_top",
     "component_value":-8
    },
    {
     "kind":"rtti",
     "mangled_component_name":"_ZTIN7android8hardware5media3omx4V1_012IOmxObserverE"
    },
    {
     "kind":"complete_dtor_pointer",
     "mangled_component_name":"_ZTv0_n24_N7android8hardware5media3omx4V1_012IOmxObserverD1Ev"
    },
    {
     "kind":"deleting_dtor_pointer",
     "mangled_component_name":"_ZTv0_n24_N7android8hardware5media3omx4V1_012IOmxObserverD0Ev"
    },
    {
     "mangled_component_name":"_ZN7android7RefBase10onFirstRefEv"
    },
    {
     "mangled_component_name":"_ZN7android7RefBase15onLastStrongRefEPKv"
    },
    {
     "mangled_component_name":"_ZN7android7RefBase20onIncStrongAttemptedEjPKv"
    },
    {
     "mangled_component_name":"_ZN7android7RefBase13onLastWeakRefEPKv"
    }
   ],
   "unique_id":"_ZTSN7android8hardware5media3omx4V1_012IOmxObserverE"
  },
  {
   "vtable_components":[
    {
     "kind":"vbase_offset",
     "component_value":200
    },
    {
     "kind":"offset_to_top"
    },
    {
     "kind":"rtti",
     "mangled_component_name":"_ZTIN7android8hardware5media3omx4V1_015BpHwOmxObserverE"
    },
    {
     "mangled_component_name":"_ZNK7android8hardware5media3omx4V1_015BpHwOmxObserver8isRemoteEv"
    },
    {
     "mangled_component_name":"_ZN7android8hardware5media3omx4V1_015BpHwOmxObserver14interfaceChainENSt3__18functionIFvRKNS0_8hidl_vecINS0_11hidl_stringEEEEEE"
    },
    {
     "mangled_component_name":"_ZN7android8hardware5media3omx4V1_015BpHwOmxObserver5debugERKNS0_11hidl_handleERKNS0_8hidl_vecINS0_11hidl_stringEEE"
    },
    {
     "mangled_component_name":"_ZN7android8hardware5media3omx4V1_015BpHwOmxObserver19interfaceDescriptorENSt3__18functionIFvRKNS0_11hidl_stringEEEE"
    },
    {
     "mangled_component_name":"_ZN7android8hardware5media3omx4V1_015BpHwOmxObserver12getHashChainENSt3__18functionIFvRKNS0_8hidl_vecINS0_10hidl_arrayIhLm32EJEEEEEEEE"
    },
    {
     "mangled_component_name":"_ZN7android8hardware5media3omx4V1_015BpHwOmxObserver21setHALInstrumentationEv"
    },
    {
     "mangled_component_name":"_ZN7android8hardware5media3omx4V1_015BpHwOmxObserver11linkToDeathERKNS_2spINS0_20hidl_death_recipientEEEm"
    },
    {
     "mangled_component_name":"_ZN7android8hardware5media3omx4V1_015BpHwOmxObserver4pingEv"
    },
    {
     "mangled_component_name":"_ZN7android8hardware5media3omx4V1_015BpHwOmxObserver12getDebugInfoENSt3__18functionIFvRKNS_4hidl4base4V1_09DebugInfoEEEE"
    },
    {
     "mangled_component_name":"_ZN7android8hardware5media3omx4V1_015BpHwOmxObserver21notifySyspropsChangedEv"
    },
    {
     "mangled_component_name":"_ZN7android8hardware5media3omx4V1_015BpHwOmxObserver13unlinkToDeathERKNS_2spINS0_20hidl_death_recipientEEE"
    },
    {
     "kind":"complete_dtor_pointer",
     "mangled_component_name":"_ZN7android8hardware5media3omx4V1_015BpHwOmxObserverD1Ev"
    },
    {
     "kind":"deleting_dtor_pointer",
     "mangled_component_name":"_ZN7android8hardware5media3omx4V1_015BpHwOmxObserverD0Ev"
    },
    {
     "mangled_component_name":"_ZN7android8hardware5media3omx4V1_015BpHwOmxObserver10onMessagesERKNS0_8hidl_vecINS3_7MessageEEE"
    },
    {
     "mangled_component_name":"_ZN7android8hardware11BpInterfaceINS0_5media3omx4V1_012IOmxObserverEE10onAsBinderEv"
    },
    {
     "kind":"vbase_offset",
     "component_value":192
    },
    {
     "kind":"offset_to_top",
     "component_value":-8
    },
    {
     "kind":"rtti",
     "mangled_component_name":"_ZTIN7android8hardware5media3omx4V1_015BpHwOmxObserverE"
    },
    {
     "kind":"complete_dtor_pointer",
     "mangled_component_name":"_ZThn8_N7android8hardware5media3omx4V1_015BpHwOmxObserverD1Ev"
    },
    {
     "kind":"deleting_dtor_pointer",
     "mangled_component_name":"_ZThn8_N7android8hardware5media3omx4V1_015BpHwOmxObserverD0Ev"
    },
    {
     "mangled_component_name":"_ZThn8_N7android8hardware11BpInterfaceINS0_5media3omx4V1_012IOmxObserverEE10onAsBinderEv"
    },
    {
     "kind":"vbase_offset",
     "component_value":184
    },
    {
     "kind":"offset_to_top",
     "component_value":-16
    },
    {
     "kind":"rtti",
     "mangled_component_name":"_ZTIN7android8hardware5media3omx4V1_015BpHwOmxObserverE"
    },
    {
     "kind":"complete_dtor_pointer",
     "mangled_component_name":"_ZThn16_N7android8hardware5media3omx4V1_015BpHwOmxObserverD1Ev"
    },
    {
     "kind":"deleting_dtor_pointer",
     "mangled_component_name":"_ZThn16_N7android8hardware5media3omx4V1_015BpHwOmxObserverD0Ev"
    },
    {
     "mangled_component_name":"_ZN7android8hardware11BpHwRefBase10onFirstRefEv"
    },
    {
     "mangled_component_name":"_ZN7android8hardware11BpHwRefBase15onLastStrongRefEPKv"
    },
    {
     "mangled_component_name":"_ZN7android8hardware11BpHwRefBase20onIncStrongAttemptedEjPKv"
    },
    {
     "kind":"offset_to_top",
     "component_value":-48
    },
    {
     "kind":"rtti",
     "mangled_component_name":"_ZTIN7android8hardware5media3omx4V1_015BpHwOmxObserverE"
    },
    {
     "kind":"complete_dtor_pointer",
     "mangled_component_name":"_ZThn48_N7android8hardware5media3omx4V1_015BpHwOmxObserverD1Ev"
    },
    {
     "kind":"deleting_dtor_pointer",
     "mangled_component_name":"_ZThn48_N7android8hardware5media3omx4V1_015BpHwOmxObserverD0Ev"
    },
    {
     "kind":"vcall_offset"
    },
    {
     "kind":"vcall_offset",
     "component_value":-184
    },
    {
     "kind":"vcall_offset",
     "component_value":-184
    },
    {
     "kind":"vcall_offset",
     "component_value":-184
    },
    {
     "kind":"vcall_offset",
     "component_value":-200
    },
    {
     "kind":"offset_to_top",
     "component_value":-200
    },
    {
     "kind":"rtti",
     "mangled_component_name":"_ZTIN7android8hardware5media3omx4V1_015BpHwOmxObserverE"
    },
    {
     "kind":"complete_dtor_pointer",
     "mangled_component_name":"_ZTv0_n24_N7android8hardware5media3omx4V1_015BpHwOmxObserverD1Ev"
    },
    {
     "kind":"deleting_dtor_pointer",
     "mangled_component_name":"_ZTv0_n24_N7android8hardware5media3omx4V1_015BpHwOmxObserverD0Ev"
    },
    {
     "mangled_component_name":"_ZTv0_n32_N7android8hardware11BpHwRefBase10onFirstRefEv"
    },
    {
     "mangled_component_name":"_ZTv0_n40_N7android8hardware11BpHwRefBase15onLastStrongRefEPKv"
    },
    {
     "mangled_component_name":"_ZTv0_n48_N7android8hardware11BpHwRefBase20onIncStrongAttemptedEjPKv"
    },
    {
     "mangled_component_name":"_ZN7android7RefBase13onLastWeakRefEPKv"
    }
   ],
   "unique_id":"_ZTSN7android8hardware5media3omx4V1_015BpHwOmxObserverE"
  },
  {
   "vtable_components":[
    {
     "kind":"vbase_offset",
     "component_value":200
    },
    {
     "kind":"offset_to_top"
    },
    {
     "kind":"rtti",
     "mangled_component_name":"_ZTIN7android8hardware5media3omx4V1_07BpHwOmxE"
    },
    {
     "mangled_component_name":"_ZNK7android8hardware5media3omx4V1_07BpHwOmx8isRemoteEv"
    },
    {
     "mangled_component_name":"_ZN7android8hardware5media3omx4V1_07BpHwOmx14interfaceChainENSt3__18functionIFvRKNS0_8hidl_vecINS0_11hidl_stringEEEEEE"
    },
    {
     "mangled_component_name":"_ZN7android8hardware5media3omx4V1_07BpHwOmx5debugERKNS0_11hidl_handleERKNS0_8hidl_vecINS0_11hidl_stringEEE"
    },
    {
     "mangled_component_name":"_ZN7android8hardware5media3omx4V1_07BpHwOmx19interfaceDescriptorENSt3__18functionIFvRKNS0_11hidl_stringEEEE"
    },
    {
     "mangled_component_name":"_ZN7android8hardware5media3omx4V1_07BpHwOmx12getHashChainENSt3__18functionIFvRKNS0_8hidl_vecINS0_10hidl_arrayIhLm32EJEEEEEEEE"
    },
    {
     "mangled_component_name":"_ZN7android8hardware5media3omx4V1_07BpHwOmx21setHALInstrumentationEv"
    },
    {
     "mangled_component_name":"_ZN7android8hardware5media3omx4V1_07BpHwOmx11linkToDeathERKNS_2spINS0_20hidl_death_recipientEEEm"
    },
    {
     "mangled_component_name":"_ZN7android8hardware5media3omx4V1_07BpHwOmx4pingEv"
    },
    {
     "mangled_component_name":"_ZN7android8hardware5media3omx4V1_07BpHwOmx12getDebugInfoENSt3__18functionIFvRKNS_4hidl4base4V1_09DebugInfoEEEE"
    },
    {
     "mangled_component_name":"_ZN7android8hardware5media3omx4V1_07BpHwOmx21notifySyspropsChangedEv"
    },
    {
     "mangled_component_name":"_ZN7android8hardware5media3omx4V1_07BpHwOmx13unlinkToDeathERKNS_2spINS0_20hidl_death_recipientEEE"
    },
    {
     "kind":"complete_dtor_pointer",
     "mangled_component_name":"_ZN7android8hardware5media3omx4V1_07BpHwOmxD1Ev"
    },
    {
     "kind":"deleting_dtor_pointer",
     "mangled_component_name":"_ZN7android8hardware5media3omx4V1_07BpHwOmxD0Ev"
    },
    {
     "mangled_component_name":"_ZN7android8hardware5media3omx4V1_07BpHwOmx9listNodesENSt3__18functionIFvNS3_6StatusERKNS0_8hidl_vecINS3_4IOmx13ComponentInfoEEEEEE"
    },
    {
     "mangled_component_name":"_ZN7android8hardware5media3omx4V1_07BpHwOmx12allocateNodeERKNS0_11hidl_stringERKNS_2spINS3_12IOmxObserverEEENSt3__18functionIFvNS3_6StatusERKNS8_INS3_8IOmxNodeEEEEEE"
    },
    {
     "mangled_component_name":"_ZN7android8hardware5media3omx4V1_07BpHwOmx18createInputSurfaceENSt3__18functionIFvNS3_6StatusERKNS_2spINS0_8graphics11bufferqueue4V1_022IGraphicBufferProducerEEERKNS8_INS3_20IGraphicBufferSourceEEEEEE"
    },
    {
     "mangled_component_name":"_ZN7android8hardware11BpInterfaceINS0_5media3omx4V1_04IOmxEE10onAsBinderEv"
    },
    {
     "kind":"vbase_offset",
     "component_value":192
    },
    {
     "kind":"offset_to_top",
     "component_value":-8
    },
    {
     "kind":"rtti",
     "mangled_component_name":"_ZTIN7android8hardware5media3omx4V1_07BpHwOmxE"
    },
    {
     "kind":"complete_dtor_pointer",
     "mangled_component_name":"_ZThn8_N7android8hardware5media3omx4V1_07BpHwOmxD1Ev"
    },
    {
     "kind":"deleting_dtor_pointer",
     "mangled_component_name":"_ZThn8_N7android8hardware5media3omx4V1_07BpHwOmxD0Ev"
    },
    {
     "mangled_component_name":"_ZThn8_N7android8hardware11BpInterfaceINS0_5media3omx4V1_04IOmxEE10onAsBinderEv"
    },
    {
     "kind":"vbase_offset",
     "component_value":184
    },
    {
     "kind":"offset_to_top",
     "component_value":-16
    },
    {
     "kind":"rtti",
     "mangled_component_name":"_ZTIN7android8hardware5media3omx4V1_07BpHwOmxE"
    },
    {
     "kind":"complete_dtor_pointer",
     "mangled_component_name":"_ZThn16_N7android8hardware5media3omx4V1_07BpHwOmxD1Ev"
    },
    {
     "kind":"deleting_dtor_pointer",
     "mangled_component_name":"_ZThn16_N7android8hardware5media3omx4V1_07BpHwOmxD0Ev"
    },
    {
     "mangled_component_name":"_ZN7android8hardware11BpHwRefBase10onFirstRefEv"
    },
    {
     "mangled_component_name":"_ZN7android8hardware11BpHwRefBase15onLastStrongRefEPKv"
    },
    {
     "mangled_component_name":"_ZN7android8hardware11BpHwRefBase20onIncStrongAttemptedEjPKv"
    },
    {
     "kind":"offset_to_top",
     "component_value":-48
    },
    {
     "kind":"rtti",
     "mangled_component_name":"_ZTIN7android8hardware5media3omx4V1_07BpHwOmxE"
    },
    {
     "kind":"complete_dtor_pointer",
     "mangled_component_name":"_ZThn48_N7android8hardware5media3omx4V1_07BpHwOmxD1Ev"
    },
    {
     "kind":"deleting_dtor_pointer",
     "mangled_component_name":"_ZThn48_N7android8hardware5media3omx4V1_07BpHwOmxD0Ev"
    },
    {
     "kind":"vcall_offset"
    },
    {
     "kind":"vcall_offset",
     "component_value":-184
    },
    {
     "kind":"vcall_offset",
     "component_value":-184
    },
    {
     "kind":"vcall_offset",
     "component_value":-184
    },
    {
     "kind":"vcall_offset",
     "component_value":-200
    },
    {
     "kind":"offset_to_top",
     "component_value":-200
    },
    {
     "kind":"rtti",
     "mangled_component_name":"_ZTIN7android8hardware5media3omx4V1_07BpHwOmxE"
    },
    {
     "kind":"complete_dtor_pointer",
     "mangled_component_name":"_ZTv0_n24_N7android8hardware5media3omx4V1_07BpHwOmxD1Ev"
    },
    {
     "kind":"deleting_dtor_pointer",
     "mangled_component_name":"_ZTv0_n24_N7android8hardware5media3omx4V1_07BpHwOmxD0Ev"
    },
    {
     "mangled_component_name":"_ZTv0_n32_N7android8hardware11BpHwRefBase10onFirstRefEv"
    },
    {
     "mangled_component_name":"_ZTv0_n40_N7android8hardware11BpHwRefBase15onLastStrongRefEPKv"
    },
    {
     "mangled_component_name":"_ZTv0_n48_N7android8hardware11BpHwRefBase20onIncStrongAttemptedEjPKv"
    },
    {
     "mangled_component_name":"_ZN7android7RefBase13onLastWeakRefEPKv"
    }
   ],
   "unique_id":"_ZTSN7android8hardware5media3omx4V1_07BpHwOmxE"
  },
  {
   "vtable_components":[
    {
     "kind":"vbase_offset",
     "component_value":120
    },
    {
     "kind":"offset_to_top"
    },
    {
     "kind":"rtti",
     "mangled_component_name":"_ZTIN7android8hardware5media3omx4V1_017BsOmxBufferSourceE"
    },
    {
     "mangled_component_name":"_ZNK7android8hardware5media3omx4V1_016IOmxBufferSource8isRemoteEv"
    },
    {
     "mangled_component_name":"_ZN7android8hardware5media3omx4V1_017BsOmxBufferSource14interfaceChainENSt3__18functionIFvRKNS0_8hidl_vecINS0_11hidl_stringEEEEEE"
    },
    {
     "mangled_component_name":"_ZN7android8hardware5media3omx4V1_017BsOmxBufferSource5debugERKNS0_11hidl_handleERKNS0_8hidl_vecINS0_11hidl_stringEEE"
    },
    {
     "mangled_component_name":"_ZN7android8hardware5media3omx4V1_017BsOmxBufferSource19interfaceDescriptorENSt3__18functionIFvRKNS0_11hidl_stringEEEE"
    },
    {
     "mangled_component_name":"_ZN7android8hardware5media3omx4V1_017BsOmxBufferSource12getHashChainENSt3__18functionIFvRKNS0_8hidl_vecINS0_10hidl_arrayIhLm32EJEEEEEEEE"
    },
    {
     "mangled_component_name":"_ZN7android8hardware5media3omx4V1_017BsOmxBufferSource21setHALInstrumentationEv"
    },
    {
     "mangled_component_name":"_ZN7android8hardware5media3omx4V1_017BsOmxBufferSource11linkToDeathERKNS_2spINS0_20hidl_death_recipientEEEm"
    },
    {
     "mangled_component_name":"_ZN7android8hardware5media3omx4V1_017BsOmxBufferSource4pingEv"
    },
    {
     "mangled_component_name":"_ZN7android8hardware5media3omx4V1_017BsOmxBufferSource12getDebugInfoENSt3__18functionIFvRKNS_4hidl4base4V1_09DebugInfoEEEE"
    },
    {
     "mangled_component_name":"_ZN7android8hardware5media3omx4V1_017BsOmxBufferSource21notifySyspropsChangedEv"
    },
    {
     "mangled_component_name":"_ZN7android8hardware5media3omx4V1_017BsOmxBufferSource13unlinkToDeathERKNS_2spINS0_20hidl_death_recipientEEE"
    },
    {
     "kind":"complete_dtor_pointer",
     "mangled_component_name":"_ZN7android8hardware5media3omx4V1_017BsOmxBufferSourceD1Ev"
    },
    {
     "kind":"deleting_dtor_pointer",
     "mangled_component_name":"_ZN7android8hardware5media3omx4V1_017BsOmxBufferSourceD0Ev"
    },
    {
     "mangled_component_name":"_ZN7android8hardware5media3omx4V1_017BsOmxBufferSource14onOmxExecutingEv"
    },
    {
     "mangled_component_name":"_ZN7android8hardware5media3omx4V1_017BsOmxBufferSource9onOmxIdleEv"
    },
    {
     "mangled_component_name":"_ZN7android8hardware5media3omx4V1_017BsOmxBufferSource11onOmxLoadedEv"
    },
    {
     "mangled_component_name":"_ZN7android8hardware5media3omx4V1_017BsOmxBufferSource18onInputBufferAddedEj"
    },
    {
     "mangled_component_name":"_ZN7android8hardware5media3omx4V1_017BsOmxBufferSource20onInputBufferEmptiedEjRKNS0_11hidl_handleE"
    },
    {
     "kind":"offset_to_top",
     "component_value":-8
    },
    {
     "kind":"rtti",
     "mangled_component_name":"_ZTIN7android8hardware5media3omx4V1_017BsOmxBufferSourceE"
    },
    {
     "kind":"complete_dtor_pointer",
     "mangled_component_name":"_ZThn8_N7android8hardware5media3omx4V1_017BsOmxBufferSourceD1Ev"
    },
    {
     "kind":"deleting_dtor_pointer",
     "mangled_component_name":"_ZThn8_N7android8hardware5media3omx4V1_017BsOmxBufferSourceD0Ev"
    },
    {
     "kind":"vcall_offset"
    },
    {
     "kind":"vcall_offset"
    },
    {
     "kind":"vcall_offset"
    },
    {
     "kind":"vcall_offset"
    },
    {
     "kind":"vcall_offset",
     "component_value":-120
    },
    {
     "kind":"offset_to_top",
     "component_value":-120
    },
    {
     "kind":"rtti",
     "mangled_component_name":"_ZTIN7android8hardware5media3omx4V1_017BsOmxBufferSourceE"
    },
    {
     "kind":"complete_dtor_pointer",
     "mangled_component_name":"_ZTv0_n24_N7android8hardware5media3omx4V1_017BsOmxBufferSourceD1Ev"
    },
    {
     "kind":"deleting_dtor_pointer",
     "mangled_component_name":"_ZTv0_n24_N7android8hardware5media3omx4V1_017BsOmxBufferSourceD0Ev"
    },
    {
     "mangled_component_name":"_ZN7android7RefBase10onFirstRefEv"
    },
    {
     "mangled_component_name":"_ZN7android7RefBase15onLastStrongRefEPKv"
    },
    {
     "mangled_component_name":"_ZN7android7RefBase20onIncStrongAttemptedEjPKv"
    },
    {
     "mangled_component_name":"_ZN7android7RefBase13onLastWeakRefEPKv"
    }
   ],
   "unique_id":"_ZTSN7android8hardware5media3omx4V1_017BsOmxBufferSourceE"
  },
  {
   "vtable_components":[
    {
     "kind":"vbase_offset",
     "component_value":8
    },
    {
     "kind":"offset_to_top"
    },
    {
     "kind":"rtti",
     "mangled_component_name":"_ZTIN7android8hardware5media3omx4V1_016IOmxBufferSourceE"
    },
    {
     "mangled_component_name":"_ZNK7android8hardware5media3omx4V1_016IOmxBufferSource8isRemoteEv"
    },
    {
     "mangled_component_name":"_ZN7android8hardware5media3omx4V1_016IOmxBufferSource14interfaceChainENSt3__18functionIFvRKNS0_8hidl_vecINS0_11hidl_stringEEEEEE"
    },
    {
     "mangled_component_name":"_ZN7android8hardware5media3omx4V1_016IOmxBufferSource5debugERKNS0_11hidl_handleERKNS0_8hidl_vecINS0_11hidl_stringEEE"
    },
    {
     "mangled_component_name":"_ZN7android8hardware5media3omx4V1_016IOmxBufferSource19interfaceDescriptorENSt3__18functionIFvRKNS0_11hidl_stringEEEE"
    },
    {
     "mangled_component_name":"_ZN7android8hardware5media3omx4V1_016IOmxBufferSource12getHashChainENSt3__18functionIFvRKNS0_8hidl_vecINS0_10hidl_arrayIhLm32EJEEEEEEEE"
    },
    {
     "mangled_component_name":"_ZN7android8hardware5media3omx4V1_016IOmxBufferSource21setHALInstrumentationEv"
    },
    {
     "mangled_component_name":"_ZN7android8hardware5media3omx4V1_016IOmxBufferSource11linkToDeathERKNS_2spINS0_20hidl_death_recipientEEEm"
    },
    {
     "mangled_component_name":"_ZN7android8hardware5media3omx4V1_016IOmxBufferSource4pingEv"
    },
    {
     "mangled_component_name":"_ZN7android8hardware5media3omx4V1_016IOmxBufferSource12getDebugInfoENSt3__18functionIFvRKNS_4hidl4base4V1_09DebugInfoEEEE"
    },
    {
     "mangled_component_name":"_ZN7android8hardware5media3omx4V1_016IOmxBufferSource21notifySyspropsChangedEv"
    },
    {
     "mangled_component_name":"_ZN7android8hardware5media3omx4V1_016IOmxBufferSource13unlinkToDeathERKNS_2spINS0_20hidl_death_recipientEEE"
    },
    {
     "kind":"complete_dtor_pointer",
     "mangled_component_name":"_ZN7android8hardware5media3omx4V1_016IOmxBufferSourceD1Ev"
    },
    {
     "kind":"deleting_dtor_pointer",
     "mangled_component_name":"_ZN7android8hardware5media3omx4V1_016IOmxBufferSourceD0Ev"
    },
    {
     "is_pure":true,
     "mangled_component_name":"_ZN7android8hardware5media3omx4V1_016IOmxBufferSource14onOmxExecutingEv"
    },
    {
     "is_pure":true,
     "mangled_component_name":"_ZN7android8hardware5media3omx4V1_016IOmxBufferSource9onOmxIdleEv"
    },
    {
     "is_pure":true,
     "mangled_component_name":"_ZN7android8hardware5media3omx4V1_016IOmxBufferSource11onOmxLoadedEv"
    },
    {
     "is_pure":true,
     "mangled_component_name":"_ZN7android8hardware5media3omx4V1_016IOmxBufferSource18onInputBufferAddedEj"
    },
    {
     "is_pure":true,
     "mangled_component_name":"_ZN7android8hardware5media3omx4V1_016IOmxBufferSource20onInputBufferEmptiedEjRKNS0_11hidl_handleE"
    },
    {
     "kind":"vcall_offset"
    },
    {
     "kind":"vcall_offset"
    },
    {
     "kind":"vcall_offset"
    },
    {
     "kind":"vcall_offset"
    },
    {
     "kind":"vcall_offset",
     "component_value":-8
    },
    {
     "kind":"offset_to_top",
     "component_value":-8
    },
    {
     "kind":"rtti",
     "mangled_component_name":"_ZTIN7android8hardware5media3omx4V1_016IOmxBufferSourceE"
    },
    {
     "kind":"complete_dtor_pointer",
     "mangled_component_name":"_ZTv0_n24_N7android8hardware5media3omx4V1_016IOmxBufferSourceD1Ev"
    },
    {
     "kind":"deleting_dtor_pointer",
     "mangled_component_name":"_ZTv0_n24_N7android8hardware5media3omx4V1_016IOmxBufferSourceD0Ev"
    },
    {
     "mangled_component_name":"_ZN7android7RefBase10onFirstRefEv"
    },
    {
     "mangled_component_name":"_ZN7android7RefBase15onLastStrongRefEPKv"
    },
    {
     "mangled_component_name":"_ZN7android7RefBase20onIncStrongAttemptedEjPKv"
    },
    {
     "mangled_component_name":"_ZN7android7RefBase13onLastWeakRefEPKv"
    }
   ],
   "unique_id":"_ZTSN7android8hardware5media3omx4V1_016IOmxBufferSourceE"
  },
  {
   "vtable_components":[
    {
     "kind":"vbase_offset",
     "component_value":200
    },
    {
     "kind":"offset_to_top"
    },
    {
     "kind":"rtti",
     "mangled_component_name":"_ZTIN7android8hardware5media3omx4V1_019BpHwOmxBufferSourceE"
    },
    {
     "mangled_component_name":"_ZNK7android8hardware5media3omx4V1_019BpHwOmxBufferSource8isRemoteEv"
    },
    {
     "mangled_component_name":"_ZN7android8hardware5media3omx4V1_019BpHwOmxBufferSource14interfaceChainENSt3__18functionIFvRKNS0_8hidl_vecINS0_11hidl_stringEEEEEE"
    },
    {
     "mangled_component_name":"_ZN7android8hardware5media3omx4V1_019BpHwOmxBufferSource5debugERKNS0_11hidl_handleERKNS0_8hidl_vecINS0_11hidl_stringEEE"
    },
    {
     "mangled_component_name":"_ZN7android8hardware5media3omx4V1_019BpHwOmxBufferSource19interfaceDescriptorENSt3__18functionIFvRKNS0_11hidl_stringEEEE"
    },
    {
     "mangled_component_name":"_ZN7android8hardware5media3omx4V1_019BpHwOmxBufferSource12getHashChainENSt3__18functionIFvRKNS0_8hidl_vecINS0_10hidl_arrayIhLm32EJEEEEEEEE"
    },
    {
     "mangled_component_name":"_ZN7android8hardware5media3omx4V1_019BpHwOmxBufferSource21setHALInstrumentationEv"
    },
    {
     "mangled_component_name":"_ZN7android8hardware5media3omx4V1_019BpHwOmxBufferSource11linkToDeathERKNS_2spINS0_20hidl_death_recipientEEEm"
    },
    {
     "mangled_component_name":"_ZN7android8hardware5media3omx4V1_019BpHwOmxBufferSource4pingEv"
    },
    {
     "mangled_component_name":"_ZN7android8hardware5media3omx4V1_019BpHwOmxBufferSource12getDebugInfoENSt3__18functionIFvRKNS_4hidl4base4V1_09DebugInfoEEEE"
    },
    {
     "mangled_component_name":"_ZN7android8hardware5media3omx4V1_019BpHwOmxBufferSource21notifySyspropsChangedEv"
    },
    {
     "mangled_component_name":"_ZN7android8hardware5media3omx4V1_019BpHwOmxBufferSource13unlinkToDeathERKNS_2spINS0_20hidl_death_recipientEEE"
    },
    {
     "kind":"complete_dtor_pointer",
     "mangled_component_name":"_ZN7android8hardware5media3omx4V1_019BpHwOmxBufferSourceD1Ev"
    },
    {
     "kind":"deleting_dtor_pointer",
     "mangled_component_name":"_ZN7android8hardware5media3omx4V1_019BpHwOmxBufferSourceD0Ev"
    },
    {
     "mangled_component_name":"_ZN7android8hardware5media3omx4V1_019BpHwOmxBufferSource14onOmxExecutingEv"
    },
    {
     "mangled_component_name":"_ZN7android8hardware5media3omx4V1_019BpHwOmxBufferSource9onOmxIdleEv"
    },
    {
     "mangled_component_name":"_ZN7android8hardware5media3omx4V1_019BpHwOmxBufferSource11onOmxLoadedEv"
    },
    {
     "mangled_component_name":"_ZN7android8hardware5media3omx4V1_019BpHwOmxBufferSource18onInputBufferAddedEj"
    },
    {
     "mangled_component_name":"_ZN7android8hardware5media3omx4V1_019BpHwOmxBufferSource20onInputBufferEmptiedEjRKNS0_11hidl_handleE"
    },
    {
     "mangled_component_name":"_ZN7android8hardware11BpInterfaceINS0_5media3omx4V1_016IOmxBufferSourceEE10onAsBinderEv"
    },
    {
     "kind":"vbase_offset",
     "component_value":192
    },
    {
     "kind":"offset_to_top",
     "component_value":-8
    },
    {
     "kind":"rtti",
     "mangled_component_name":"_ZTIN7android8hardware5media3omx4V1_019BpHwOmxBufferSourceE"
    },
    {
     "kind":"complete_dtor_pointer",
     "mangled_component_name":"_ZThn8_N7android8hardware5media3omx4V1_019BpHwOmxBufferSourceD1Ev"
    },
    {
     "kind":"deleting_dtor_pointer",
     "mangled_component_name":"_ZThn8_N7android8hardware5media3omx4V1_019BpHwOmxBufferSourceD0Ev"
    },
    {
     "mangled_component_name":"_ZThn8_N7android8hardware11BpInterfaceINS0_5media3omx4V1_016IOmxBufferSourceEE10onAsBinderEv"
    },
    {
     "kind":"vbase_offset",
     "component_value":184
    },
    {
     "kind":"offset_to_top",
     "component_value":-16
    },
    {
     "kind":"rtti",
     "mangled_component_name":"_ZTIN7android8hardware5media3omx4V1_019BpHwOmxBufferSourceE"
    },
    {
     "kind":"complete_dtor_pointer",
     "mangled_component_name":"_ZThn16_N7android8hardware5media3omx4V1_019BpHwOmxBufferSourceD1Ev"
    },
    {
     "kind":"deleting_dtor_pointer",
     "mangled_component_name":"_ZThn16_N7android8hardware5media3omx4V1_019BpHwOmxBufferSourceD0Ev"
    },
    {
     "mangled_component_name":"_ZN7android8hardware11BpHwRefBase10onFirstRefEv"
    },
    {
     "mangled_component_name":"_ZN7android8hardware11BpHwRefBase15onLastStrongRefEPKv"
    },
    {
     "mangled_component_name":"_ZN7android8hardware11BpHwRefBase20onIncStrongAttemptedEjPKv"
    },
    {
     "kind":"offset_to_top",
     "component_value":-48
    },
    {
     "kind":"rtti",
     "mangled_component_name":"_ZTIN7android8hardware5media3omx4V1_019BpHwOmxBufferSourceE"
    },
    {
     "kind":"complete_dtor_pointer",
     "mangled_component_name":"_ZThn48_N7android8hardware5media3omx4V1_019BpHwOmxBufferSourceD1Ev"
    },
    {
     "kind":"deleting_dtor_pointer",
     "mangled_component_name":"_ZThn48_N7android8hardware5media3omx4V1_019BpHwOmxBufferSourceD0Ev"
    },
    {
     "kind":"vcall_offset"
    },
    {
     "kind":"vcall_offset",
     "component_value":-184
    },
    {
     "kind":"vcall_offset",
     "component_value":-184
    },
    {
     "kind":"vcall_offset",
     "component_value":-184
    },
    {
     "kind":"vcall_offset",
     "component_value":-200
    },
    {
     "kind":"offset_to_top",
     "component_value":-200
    },
    {
     "kind":"rtti",
     "mangled_component_name":"_ZTIN7android8hardware5media3omx4V1_019BpHwOmxBufferSourceE"
    },
    {
     "kind":"complete_dtor_pointer",
     "mangled_component_name":"_ZTv0_n24_N7android8hardware5media3omx4V1_019BpHwOmxBufferSourceD1Ev"
    },
    {
     "kind":"deleting_dtor_pointer",
     "mangled_component_name":"_ZTv0_n24_N7android8hardware5media3omx4V1_019BpHwOmxBufferSourceD0Ev"
    },
    {
     "mangled_component_name":"_ZTv0_n32_N7android8hardware11BpHwRefBase10onFirstRefEv"
    },
    {
     "mangled_component_name":"_ZTv0_n40_N7android8hardware11BpHwRefBase15onLastStrongRefEPKv"
    },
    {
     "mangled_component_name":"_ZTv0_n48_N7android8hardware11BpHwRefBase20onIncStrongAttemptedEjPKv"
    },
    {
     "mangled_component_name":"_ZN7android7RefBase13onLastWeakRefEPKv"
    }
   ],
   "unique_id":"_ZTSN7android8hardware5media3omx4V1_019BpHwOmxBufferSourceE"
  },
  {
   "vtable_components":[
    {
     "kind":"vbase_offset",
     "component_value":8
    },
    {
     "kind":"offset_to_top"
    },
    {
     "kind":"rtti",
     "mangled_component_name":"_ZTIN7android8hardware5media3omx4V1_08IOmxNodeE"
    },
    {
     "mangled_component_name":"_ZNK7android8hardware5media3omx4V1_08IOmxNode8isRemoteEv"
    },
    {
     "mangled_component_name":"_ZN7android8hardware5media3omx4V1_08IOmxNode14interfaceChainENSt3__18functionIFvRKNS0_8hidl_vecINS0_11hidl_stringEEEEEE"
    },
    {
     "mangled_component_name":"_ZN7android8hardware5media3omx4V1_08IOmxNode5debugERKNS0_11hidl_handleERKNS0_8hidl_vecINS0_11hidl_stringEEE"
    },
    {
     "mangled_component_name":"_ZN7android8hardware5media3omx4V1_08IOmxNode19interfaceDescriptorENSt3__18functionIFvRKNS0_11hidl_stringEEEE"
    },
    {
     "mangled_component_name":"_ZN7android8hardware5media3omx4V1_08IOmxNode12getHashChainENSt3__18functionIFvRKNS0_8hidl_vecINS0_10hidl_arrayIhLm32EJEEEEEEEE"
    },
    {
     "mangled_component_name":"_ZN7android8hardware5media3omx4V1_08IOmxNode21setHALInstrumentationEv"
    },
    {
     "mangled_component_name":"_ZN7android8hardware5media3omx4V1_08IOmxNode11linkToDeathERKNS_2spINS0_20hidl_death_recipientEEEm"
    },
    {
     "mangled_component_name":"_ZN7android8hardware5media3omx4V1_08IOmxNode4pingEv"
    },
    {
     "mangled_component_name":"_ZN7android8hardware5media3omx4V1_08IOmxNode12getDebugInfoENSt3__18functionIFvRKNS_4hidl4base4V1_09DebugInfoEEEE"
    },
    {
     "mangled_component_name":"_ZN7android8hardware5media3omx4V1_08IOmxNode21notifySyspropsChangedEv"
    },
    {
     "mangled_component_name":"_ZN7android8hardware5media3omx4V1_08IOmxNode13unlinkToDeathERKNS_2spINS0_20hidl_death_recipientEEE"
    },
    {
     "kind":"complete_dtor_pointer",
     "mangled_component_name":"_ZN7android8hardware5media3omx4V1_08IOmxNodeD1Ev"
    },
    {
     "kind":"deleting_dtor_pointer",
     "mangled_component_name":"_ZN7android8hardware5media3omx4V1_08IOmxNodeD0Ev"
    },
    {
     "is_pure":true,
     "mangled_component_name":"_ZN7android8hardware5media3omx4V1_08IOmxNode8freeNodeEv"
    },
    {
     "is_pure":true,
     "mangled_component_name":"_ZN7android8hardware5media3omx4V1_08IOmxNode11sendCommandEji"
    },
    {
     "is_pure":true,
     "mangled_component_name":"_ZN7android8hardware5media3omx4V1_08IOmxNode12getParameterEjRKNS0_8hidl_vecIhEENSt3__18functionIFvNS3_6StatusES8_EEE"
    },
    {
     "is_pure":true,
     "mangled_component_name":"_ZN7android8hardware5media3omx4V1_08IOmxNode12setParameterEjRKNS0_8hidl_vecIhEE"
    },
    {
     "is_pure":true,
     "mangled_component_name":"_ZN7android8hardware5media3omx4V1_08IOmxNode9getConfigEjRKNS0_8hidl_vecIhEENSt3__18functionIFvNS3_6StatusES8_EEE"
    },
    {
     "is_pure":true,
     "mangled_component_name":"_ZN7android8hardware5media3omx4V1_08IOmxNode9setConfigEjRKNS0_8hidl_vecIhEE"
    },
    {
     "is_pure":true,
     "mangled_component_name":"_ZN7android8hardware5media3omx4V1_08IOmxNode11setPortModeEjNS3_8PortModeE"
    },
    {
     "is_pure":true,
     "mangled_component_name":"_ZN7android8hardware5media3omx4V1_08IOmxNode26prepareForAdaptivePlaybackEjbjj"
    },
    {
     "is_pure":true,
     "mangled_component_name":"_ZN7android8hardware5media3omx4V1_08IOmxNode24configureVideoTunnelModeEjbjNSt3__18functionIFvNS3_6StatusERKNS0_11hidl_handleEEEE"
    },
    {
     "is_pure":true,
     "mangled_component_name":"_ZN7android8hardware5media3omx4V1_08IOmxNode21getGraphicBufferUsageEjNSt3__18functionIFvNS3_6StatusEjEEE"
    },
    {
     "is_pure":true,
     "mangled_component_name":"_ZN7android8hardware5media3omx4V1_08IOmxNode15setInputSurfaceERKNS_2spINS3_16IOmxBufferSourceEEE"
    },
    {
     "is_pure":true,
     "mangled_component_name":"_ZN7android8hardware5media3omx4V1_08IOmxNode20allocateSecureBufferEjmNSt3__18functionIFvNS3_6StatusEjRKNS0_11hidl_handleEEEE"
    },
    {
     "is_pure":true,
     "mangled_component_name":"_ZN7android8hardware5media3omx4V1_08IOmxNode9useBufferEjRKNS3_11CodecBufferENSt3__18functionIFvNS3_6StatusEjEEE"
    },
    {
     "is_pure":true,
     "mangled_component_name":"_ZN7android8hardware5media3omx4V1_08IOmxNode10freeBufferEjj"
    },
    {
     "is_pure":true,
     "mangled_component_name":"_ZN7android8hardware5media3omx4V1_08IOmxNode10fillBufferEjRKNS3_11CodecBufferERKNS0_11hidl_handleE"
    },
    {
     "is_pure":true,
     "mangled_component_name":"_ZN7android8hardware5media3omx4V1_08IOmxNode11emptyBufferEjRKNS3_11CodecBufferEjmRKNS0_11hidl_handleE"
    },
    {
     "is_pure":true,
     "mangled_component_name":"_ZN7android8hardware5media3omx4V1_08IOmxNode17getExtensionIndexERKNS0_11hidl_stringENSt3__18functionIFvNS3_6StatusEjEEE"
    },
    {
     "is_pure":true,
     "mangled_component_name":"_ZN7android8hardware5media3omx4V1_08IOmxNode15dispatchMessageERKNS3_7MessageE"
    },
    {
     "kind":"vcall_offset"
    },
    {
     "kind":"vcall_offset"
    },
    {
     "kind":"vcall_offset"
    },
    {
     "kind":"vcall_offset"
    },
    {
     "kind":"vcall_offset",
     "component_value":-8
    },
    {
     "kind":"offset_to_top",
     "component_value":-8
    },
    {
     "kind":"rtti",
     "mangled_component_name":"_ZTIN7android8hardware5media3omx4V1_08IOmxNodeE"
    },
    {
     "kind":"complete_dtor_pointer",
     "mangled_component_name":"_ZTv0_n24_N7android8hardware5media3omx4V1_08IOmxNodeD1Ev"
    },
    {
     "kind":"deleting_dtor_pointer",
     "mangled_component_name":"_ZTv0_n24_N7android8hardware5media3omx4V1_08IOmxNodeD0Ev"
    },
    {
     "mangled_component_name":"_ZN7android7RefBase10onFirstRefEv"
    },
    {
     "mangled_component_name":"_ZN7android7RefBase15onLastStrongRefEPKv"
    },
    {
     "mangled_component_name":"_ZN7android7RefBase20onIncStrongAttemptedEjPKv"
    },
    {
     "mangled_component_name":"_ZN7android7RefBase13onLastWeakRefEPKv"
    }
   ],
   "unique_id":"_ZTSN7android8hardware5media3omx4V1_08IOmxNodeE"
  },
  {
   "vtable_components":[
    {
     "kind":"vbase_offset",
     "component_value":200
    },
    {
     "kind":"offset_to_top"
    },
    {
     "kind":"rtti",
     "mangled_component_name":"_ZTIN7android8hardware5media3omx4V1_011BpHwOmxNodeE"
    },
    {
     "mangled_component_name":"_ZNK7android8hardware5media3omx4V1_011BpHwOmxNode8isRemoteEv"
    },
    {
     "mangled_component_name":"_ZN7android8hardware5media3omx4V1_011BpHwOmxNode14interfaceChainENSt3__18functionIFvRKNS0_8hidl_vecINS0_11hidl_stringEEEEEE"
    },
    {
     "mangled_component_name":"_ZN7android8hardware5media3omx4V1_011BpHwOmxNode5debugERKNS0_11hidl_handleERKNS0_8hidl_vecINS0_11hidl_stringEEE"
    },
    {
     "mangled_component_name":"_ZN7android8hardware5media3omx4V1_011BpHwOmxNode19interfaceDescriptorENSt3__18functionIFvRKNS0_11hidl_stringEEEE"
    },
    {
     "mangled_component_name":"_ZN7android8hardware5media3omx4V1_011BpHwOmxNode12getHashChainENSt3__18functionIFvRKNS0_8hidl_vecINS0_10hidl_arrayIhLm32EJEEEEEEEE"
    },
    {
     "mangled_component_name":"_ZN7android8hardware5media3omx4V1_011BpHwOmxNode21setHALInstrumentationEv"
    },
    {
     "mangled_component_name":"_ZN7android8hardware5media3omx4V1_011BpHwOmxNode11linkToDeathERKNS_2spINS0_20hidl_death_recipientEEEm"
    },
    {
     "mangled_component_name":"_ZN7android8hardware5media3omx4V1_011BpHwOmxNode4pingEv"
    },
    {
     "mangled_component_name":"_ZN7android8hardware5media3omx4V1_011BpHwOmxNode12getDebugInfoENSt3__18functionIFvRKNS_4hidl4base4V1_09DebugInfoEEEE"
    },
    {
     "mangled_component_name":"_ZN7android8hardware5media3omx4V1_011BpHwOmxNode21notifySyspropsChangedEv"
    },
    {
     "mangled_component_name":"_ZN7android8hardware5media3omx4V1_011BpHwOmxNode13unlinkToDeathERKNS_2spINS0_20hidl_death_recipientEEE"
    },
    {
     "kind":"complete_dtor_pointer",
     "mangled_component_name":"_ZN7android8hardware5media3omx4V1_011BpHwOmxNodeD1Ev"
    },
    {
     "kind":"deleting_dtor_pointer",
     "mangled_component_name":"_ZN7android8hardware5media3omx4V1_011BpHwOmxNodeD0Ev"
    },
    {
     "mangled_component_name":"_ZN7android8hardware5media3omx4V1_011BpHwOmxNode8freeNodeEv"
    },
    {
     "mangled_component_name":"_ZN7android8hardware5media3omx4V1_011BpHwOmxNode11sendCommandEji"
    },
    {
     "mangled_component_name":"_ZN7android8hardware5media3omx4V1_011BpHwOmxNode12getParameterEjRKNS0_8hidl_vecIhEENSt3__18functionIFvNS3_6StatusES8_EEE"
    },
    {
     "mangled_component_name":"_ZN7android8hardware5media3omx4V1_011BpHwOmxNode12setParameterEjRKNS0_8hidl_vecIhEE"
    },
    {
     "mangled_component_name":"_ZN7android8hardware5media3omx4V1_011BpHwOmxNode9getConfigEjRKNS0_8hidl_vecIhEENSt3__18functionIFvNS3_6StatusES8_EEE"
    },
    {
     "mangled_component_name":"_ZN7android8hardware5media3omx4V1_011BpHwOmxNode9setConfigEjRKNS0_8hidl_vecIhEE"
    },
    {
     "mangled_component_name":"_ZN7android8hardware5media3omx4V1_011BpHwOmxNode11setPortModeEjNS3_8PortModeE"
    },
    {
     "mangled_component_name":"_ZN7android8hardware5media3omx4V1_011BpHwOmxNode26prepareForAdaptivePlaybackEjbjj"
    },
    {
     "mangled_component_name":"_ZN7android8hardware5media3omx4V1_011BpHwOmxNode24configureVideoTunnelModeEjbjNSt3__18functionIFvNS3_6StatusERKNS0_11hidl_handleEEEE"
    },
    {
     "mangled_component_name":"_ZN7android8hardware5media3omx4V1_011BpHwOmxNode21getGraphicBufferUsageEjNSt3__18functionIFvNS3_6StatusEjEEE"
    },
    {
     "mangled_component_name":"_ZN7android8hardware5media3omx4V1_011BpHwOmxNode15setInputSurfaceERKNS_2spINS3_16IOmxBufferSourceEEE"
    },
    {
     "mangled_component_name":"_ZN7android8hardware5media3omx4V1_011BpHwOmxNode20allocateSecureBufferEjmNSt3__18functionIFvNS3_6StatusEjRKNS0_11hidl_handleEEEE"
    },
    {
     "mangled_component_name":"_ZN7android8hardware5media3omx4V1_011BpHwOmxNode9useBufferEjRKNS3_11CodecBufferENSt3__18functionIFvNS3_6StatusEjEEE"
    },
    {
     "mangled_component_name":"_ZN7android8hardware5media3omx4V1_011BpHwOmxNode10freeBufferEjj"
    },
    {
     "mangled_component_name":"_ZN7android8hardware5media3omx4V1_011BpHwOmxNode10fillBufferEjRKNS3_11CodecBufferERKNS0_11hidl_handleE"
    },
    {
     "mangled_component_name":"_ZN7android8hardware5media3omx4V1_011BpHwOmxNode11emptyBufferEjRKNS3_11CodecBufferEjmRKNS0_11hidl_handleE"
    },
    {
     "mangled_component_name":"_ZN7android8hardware5media3omx4V1_011BpHwOmxNode17getExtensionIndexERKNS0_11hidl_stringENSt3__18functionIFvNS3_6StatusEjEEE"
    },
    {
     "mangled_component_name":"_ZN7android8hardware5media3omx4V1_011BpHwOmxNode15dispatchMessageERKNS3_7MessageE"
    },
    {
     "mangled_component_name":"_ZN7android8hardware11BpInterfaceINS0_5media3omx4V1_08IOmxNodeEE10onAsBinderEv"
    },
    {
     "kind":"vbase_offset",
     "component_value":192
    },
    {
     "kind":"offset_to_top",
     "component_value":-8
    },
    {
     "kind":"rtti",
     "mangled_component_name":"_ZTIN7android8hardware5media3omx4V1_011BpHwOmxNodeE"
    },
    {
     "kind":"complete_dtor_pointer",
     "mangled_component_name":"_ZThn8_N7android8hardware5media3omx4V1_011BpHwOmxNodeD1Ev"
    },
    {
     "kind":"deleting_dtor_pointer",
     "mangled_component_name":"_ZThn8_N7android8hardware5media3omx4V1_011BpHwOmxNodeD0Ev"
    },
    {
     "mangled_component_name":"_ZThn8_N7android8hardware11BpInterfaceINS0_5media3omx4V1_08IOmxNodeEE10onAsBinderEv"
    },
    {
     "kind":"vbase_offset",
     "component_value":184
    },
    {
     "kind":"offset_to_top",
     "component_value":-16
    },
    {
     "kind":"rtti",
     "mangled_component_name":"_ZTIN7android8hardware5media3omx4V1_011BpHwOmxNodeE"
    },
    {
     "kind":"complete_dtor_pointer",
     "mangled_component_name":"_ZThn16_N7android8hardware5media3omx4V1_011BpHwOmxNodeD1Ev"
    },
    {
     "kind":"deleting_dtor_pointer",
     "mangled_component_name":"_ZThn16_N7android8hardware5media3omx4V1_011BpHwOmxNodeD0Ev"
    },
    {
     "mangled_component_name":"_ZN7android8hardware11BpHwRefBase10onFirstRefEv"
    },
    {
     "mangled_component_name":"_ZN7android8hardware11BpHwRefBase15onLastStrongRefEPKv"
    },
    {
     "mangled_component_name":"_ZN7android8hardware11BpHwRefBase20onIncStrongAttemptedEjPKv"
    },
    {
     "kind":"offset_to_top",
     "component_value":-48
    },
    {
     "kind":"rtti",
     "mangled_component_name":"_ZTIN7android8hardware5media3omx4V1_011BpHwOmxNodeE"
    },
    {
     "kind":"complete_dtor_pointer",
     "mangled_component_name":"_ZThn48_N7android8hardware5media3omx4V1_011BpHwOmxNodeD1Ev"
    },
    {
     "kind":"deleting_dtor_pointer",
     "mangled_component_name":"_ZThn48_N7android8hardware5media3omx4V1_011BpHwOmxNodeD0Ev"
    },
    {
     "kind":"vcall_offset"
    },
    {
     "kind":"vcall_offset",
     "component_value":-184
    },
    {
     "kind":"vcall_offset",
     "component_value":-184
    },
    {
     "kind":"vcall_offset",
     "component_value":-184
    },
    {
     "kind":"vcall_offset",
     "component_value":-200
    },
    {
     "kind":"offset_to_top",
     "component_value":-200
    },
    {
     "kind":"rtti",
     "mangled_component_name":"_ZTIN7android8hardware5media3omx4V1_011BpHwOmxNodeE"
    },
    {
     "kind":"complete_dtor_pointer",
     "mangled_component_name":"_ZTv0_n24_N7android8hardware5media3omx4V1_011BpHwOmxNodeD1Ev"
    },
    {
     "kind":"deleting_dtor_pointer",
     "mangled_component_name":"_ZTv0_n24_N7android8hardware5media3omx4V1_011BpHwOmxNodeD0Ev"
    },
    {
     "mangled_component_name":"_ZTv0_n32_N7android8hardware11BpHwRefBase10onFirstRefEv"
    },
    {
     "mangled_component_name":"_ZTv0_n40_N7android8hardware11BpHwRefBase15onLastStrongRefEPKv"
    },
    {
     "mangled_component_name":"_ZTv0_n48_N7android8hardware11BpHwRefBase20onIncStrongAttemptedEjPKv"
    },
    {
     "mangled_component_name":"_ZN7android7RefBase13onLastWeakRefEPKv"
    }
   ],
   "unique_id":"_ZTSN7android8hardware5media3omx4V1_011BpHwOmxNodeE"
  },
  {
   "vtable_components":[
    {
     "kind":"vbase_offset",
     "component_value":120
    },
    {
     "kind":"offset_to_top"
    },
    {
     "kind":"rtti",
     "mangled_component_name":"_ZTIN7android8hardware5media3omx4V1_09BsOmxNodeE"
    },
    {
     "mangled_component_name":"_ZNK7android8hardware5media3omx4V1_08IOmxNode8isRemoteEv"
    },
    {
     "mangled_component_name":"_ZN7android8hardware5media3omx4V1_09BsOmxNode14interfaceChainENSt3__18functionIFvRKNS0_8hidl_vecINS0_11hidl_stringEEEEEE"
    },
    {
     "mangled_component_name":"_ZN7android8hardware5media3omx4V1_09BsOmxNode5debugERKNS0_11hidl_handleERKNS0_8hidl_vecINS0_11hidl_stringEEE"
    },
    {
     "mangled_component_name":"_ZN7android8hardware5media3omx4V1_09BsOmxNode19interfaceDescriptorENSt3__18functionIFvRKNS0_11hidl_stringEEEE"
    },
    {
     "mangled_component_name":"_ZN7android8hardware5media3omx4V1_09BsOmxNode12getHashChainENSt3__18functionIFvRKNS0_8hidl_vecINS0_10hidl_arrayIhLm32EJEEEEEEEE"
    },
    {
     "mangled_component_name":"_ZN7android8hardware5media3omx4V1_09BsOmxNode21setHALInstrumentationEv"
    },
    {
     "mangled_component_name":"_ZN7android8hardware5media3omx4V1_09BsOmxNode11linkToDeathERKNS_2spINS0_20hidl_death_recipientEEEm"
    },
    {
     "mangled_component_name":"_ZN7android8hardware5media3omx4V1_09BsOmxNode4pingEv"
    },
    {
     "mangled_component_name":"_ZN7android8hardware5media3omx4V1_09BsOmxNode12getDebugInfoENSt3__18functionIFvRKNS_4hidl4base4V1_09DebugInfoEEEE"
    },
    {
     "mangled_component_name":"_ZN7android8hardware5media3omx4V1_09BsOmxNode21notifySyspropsChangedEv"
    },
    {
     "mangled_component_name":"_ZN7android8hardware5media3omx4V1_09BsOmxNode13unlinkToDeathERKNS_2spINS0_20hidl_death_recipientEEE"
    },
    {
     "kind":"complete_dtor_pointer",
     "mangled_component_name":"_ZN7android8hardware5media3omx4V1_09BsOmxNodeD1Ev"
    },
    {
     "kind":"deleting_dtor_pointer",
     "mangled_component_name":"_ZN7android8hardware5media3omx4V1_09BsOmxNodeD0Ev"
    },
    {
     "mangled_component_name":"_ZN7android8hardware5media3omx4V1_09BsOmxNode8freeNodeEv"
    },
    {
     "mangled_component_name":"_ZN7android8hardware5media3omx4V1_09BsOmxNode11sendCommandEji"
    },
    {
     "mangled_component_name":"_ZN7android8hardware5media3omx4V1_09BsOmxNode12getParameterEjRKNS0_8hidl_vecIhEENSt3__18functionIFvNS3_6StatusES8_EEE"
    },
    {
     "mangled_component_name":"_ZN7android8hardware5media3omx4V1_09BsOmxNode12setParameterEjRKNS0_8hidl_vecIhEE"
    },
    {
     "mangled_component_name":"_ZN7android8hardware5media3omx4V1_09BsOmxNode9getConfigEjRKNS0_8hidl_vecIhEENSt3__18functionIFvNS3_6StatusES8_EEE"
    },
    {
     "mangled_component_name":"_ZN7android8hardware5media3omx4V1_09BsOmxNode9setConfigEjRKNS0_8hidl_vecIhEE"
    },
    {
     "mangled_component_name":"_ZN7android8hardware5media3omx4V1_09BsOmxNode11setPortModeEjNS3_8PortModeE"
    },
    {
     "mangled_component_name":"_ZN7android8hardware5media3omx4V1_09BsOmxNode26prepareForAdaptivePlaybackEjbjj"
    },
    {
     "mangled_component_name":"_ZN7android8hardware5media3omx4V1_09BsOmxNode24configureVideoTunnelModeEjbjNSt3__18functionIFvNS3_6StatusERKNS0_11hidl_handleEEEE"
    },
    {
     "mangled_component_name":"_ZN7android8hardware5media3omx4V1_09BsOmxNode21getGraphicBufferUsageEjNSt3__18functionIFvNS3_6StatusEjEEE"
    },
    {
     "mangled_component_name":"_ZN7android8hardware5media3omx4V1_09BsOmxNode15setInputSurfaceERKNS_2spINS3_16IOmxBufferSourceEEE"
    },
    {
     "mangled_component_name":"_ZN7android8hardware5media3omx4V1_09BsOmxNode20allocateSecureBufferEjmNSt3__18functionIFvNS3_6StatusEjRKNS0_11hidl_handleEEEE"
    },
    {
     "mangled_component_name":"_ZN7android8hardware5media3omx4V1_09BsOmxNode9useBufferEjRKNS3_11CodecBufferENSt3__18functionIFvNS3_6StatusEjEEE"
    },
    {
     "mangled_component_name":"_ZN7android8hardware5media3omx4V1_09BsOmxNode10freeBufferEjj"
    },
    {
     "mangled_component_name":"_ZN7android8hardware5media3omx4V1_09BsOmxNode10fillBufferEjRKNS3_11CodecBufferERKNS0_11hidl_handleE"
    },
    {
     "mangled_component_name":"_ZN7android8hardware5media3omx4V1_09BsOmxNode11emptyBufferEjRKNS3_11CodecBufferEjmRKNS0_11hidl_handleE"
    },
    {
     "mangled_component_name":"_ZN7android8hardware5media3omx4V1_09BsOmxNode17getExtensionIndexERKNS0_11hidl_stringENSt3__18functionIFvNS3_6StatusEjEEE"
    },
    {
     "mangled_component_name":"_ZN7android8hardware5media3omx4V1_09BsOmxNode15dispatchMessageERKNS3_7MessageE"
    },
    {
     "kind":"offset_to_top",
     "component_value":-8
    },
    {
     "kind":"rtti",
     "mangled_component_name":"_ZTIN7android8hardware5media3omx4V1_09BsOmxNodeE"
    },
    {
     "kind":"complete_dtor_pointer",
     "mangled_component_name":"_ZThn8_N7android8hardware5media3omx4V1_09BsOmxNodeD1Ev"
    },
    {
     "kind":"deleting_dtor_pointer",
     "mangled_component_name":"_ZThn8_N7android8hardware5media3omx4V1_09BsOmxNodeD0Ev"
    },
    {
     "kind":"vcall_offset"
    },
    {
     "kind":"vcall_offset"
    },
    {
     "kind":"vcall_offset"
    },
    {
     "kind":"vcall_offset"
    },
    {
     "kind":"vcall_offset",
     "component_value":-120
    },
    {
     "kind":"offset_to_top",
     "component_value":-120
    },
    {
     "kind":"rtti",
     "mangled_component_name":"_ZTIN7android8hardware5media3omx4V1_09BsOmxNodeE"
    },
    {
     "kind":"complete_dtor_pointer",
     "mangled_component_name":"_ZTv0_n24_N7android8hardware5media3omx4V1_09BsOmxNodeD1Ev"
    },
    {
     "kind":"deleting_dtor_pointer",
     "mangled_component_name":"_ZTv0_n24_N7android8hardware5media3omx4V1_09BsOmxNodeD0Ev"
    },
    {
     "mangled_component_name":"_ZN7android7RefBase10onFirstRefEv"
    },
    {
     "mangled_component_name":"_ZN7android7RefBase15onLastStrongRefEPKv"
    },
    {
     "mangled_component_name":"_ZN7android7RefBase20onIncStrongAttemptedEjPKv"
    },
    {
     "mangled_component_name":"_ZN7android7RefBase13onLastWeakRefEPKv"
    }
   ],
   "unique_id":"_ZTSN7android8hardware5media3omx4V1_09BsOmxNodeE"
  },
  {
   "vtable_components":[
    {
     "kind":"vbase_offset",
     "component_value":8
    },
    {
     "kind":"offset_to_top"
    },
    {
     "kind":"rtti",
     "mangled_component_name":"_ZTIN7android8hardware5media3omx4V1_020IGraphicBufferSourceE"
    },
    {
     "mangled_component_name":"_ZNK7android8hardware5media3omx4V1_020IGraphicBufferSource8isRemoteEv"
    },
    {
     "mangled_component_name":"_ZN7android8hardware5media3omx4V1_020IGraphicBufferSource14interfaceChainENSt3__18functionIFvRKNS0_8hidl_vecINS0_11hidl_stringEEEEEE"
    },
    {
     "mangled_component_name":"_ZN7android8hardware5media3omx4V1_020IGraphicBufferSource5debugERKNS0_11hidl_handleERKNS0_8hidl_vecINS0_11hidl_stringEEE"
    },
    {
     "mangled_component_name":"_ZN7android8hardware5media3omx4V1_020IGraphicBufferSource19interfaceDescriptorENSt3__18functionIFvRKNS0_11hidl_stringEEEE"
    },
    {
     "mangled_component_name":"_ZN7android8hardware5media3omx4V1_020IGraphicBufferSource12getHashChainENSt3__18functionIFvRKNS0_8hidl_vecINS0_10hidl_arrayIhLm32EJEEEEEEEE"
    },
    {
     "mangled_component_name":"_ZN7android8hardware5media3omx4V1_020IGraphicBufferSource21setHALInstrumentationEv"
    },
    {
     "mangled_component_name":"_ZN7android8hardware5media3omx4V1_020IGraphicBufferSource11linkToDeathERKNS_2spINS0_20hidl_death_recipientEEEm"
    },
    {
     "mangled_component_name":"_ZN7android8hardware5media3omx4V1_020IGraphicBufferSource4pingEv"
    },
    {
     "mangled_component_name":"_ZN7android8hardware5media3omx4V1_020IGraphicBufferSource12getDebugInfoENSt3__18functionIFvRKNS_4hidl4base4V1_09DebugInfoEEEE"
    },
    {
     "mangled_component_name":"_ZN7android8hardware5media3omx4V1_020IGraphicBufferSource21notifySyspropsChangedEv"
    },
    {
     "mangled_component_name":"_ZN7android8hardware5media3omx4V1_020IGraphicBufferSource13unlinkToDeathERKNS_2spINS0_20hidl_death_recipientEEE"
    },
    {
     "kind":"complete_dtor_pointer",
     "mangled_component_name":"_ZN7android8hardware5media3omx4V1_020IGraphicBufferSourceD1Ev"
    },
    {
     "kind":"deleting_dtor_pointer",
     "mangled_component_name":"_ZN7android8hardware5media3omx4V1_020IGraphicBufferSourceD0Ev"
    },
    {
     "is_pure":true,
     "mangled_component_name":"_ZN7android8hardware5media3omx4V1_020IGraphicBufferSource9configureERKNS_2spINS3_8IOmxNodeEEENS0_8graphics6common4V1_09DataspaceE"
    },
    {
     "is_pure":true,
     "mangled_component_name":"_ZN7android8hardware5media3omx4V1_020IGraphicBufferSource10setSuspendEbl"
    },
    {
     "is_pure":true,
     "mangled_component_name":"_ZN7android8hardware5media3omx4V1_020IGraphicBufferSource29setRepeatPreviousFrameDelayUsEl"
    },
    {
     "is_pure":true,
     "mangled_component_name":"_ZN7android8hardware5media3omx4V1_020IGraphicBufferSource9setMaxFpsEf"
    },
    {
     "is_pure":true,
     "mangled_component_name":"_ZN7android8hardware5media3omx4V1_020IGraphicBufferSource18setTimeLapseConfigEdd"
    },
    {
     "is_pure":true,
     "mangled_component_name":"_ZN7android8hardware5media3omx4V1_020IGraphicBufferSource14setStartTimeUsEl"
    },
    {
     "is_pure":true,
     "mangled_component_name":"_ZN7android8hardware5media3omx4V1_020IGraphicBufferSource13setStopTimeUsEl"
    },
    {
     "is_pure":true,
     "mangled_component_name":"_ZN7android8hardware5media3omx4V1_020IGraphicBufferSource19getStopTimeOffsetUsENSt3__18functionIFvNS3_6StatusElEEE"
    },
    {
     "is_pure":true,
     "mangled_component_name":"_ZN7android8hardware5media3omx4V1_020IGraphicBufferSource15setColorAspectsERKNS3_12ColorAspectsE"
    },
    {
     "is_pure":true,
     "mangled_component_name":"_ZN7android8hardware5media3omx4V1_020IGraphicBufferSource15setTimeOffsetUsEl"
    },
    {
     "is_pure":true,
     "mangled_component_name":"_ZN7android8hardware5media3omx4V1_020IGraphicBufferSource22signalEndOfInputStreamEv"
    },
    {
     "kind":"vcall_offset"
    },
    {
     "kind":"vcall_offset"
    },
    {
     "kind":"vcall_offset"
    },
    {
     "kind":"vcall_offset"
    },
    {
     "kind":"vcall_offset",
     "component_value":-8
    },
    {
     "kind":"offset_to_top",
     "component_value":-8
    },
    {
     "kind":"rtti",
     "mangled_component_name":"_ZTIN7android8hardware5media3omx4V1_020IGraphicBufferSourceE"
    },
    {
     "kind":"complete_dtor_pointer",
     "mangled_component_name":"_ZTv0_n24_N7android8hardware5media3omx4V1_020IGraphicBufferSourceD1Ev"
    },
    {
     "kind":"deleting_dtor_pointer",
     "mangled_component_name":"_ZTv0_n24_N7android8hardware5media3omx4V1_020IGraphicBufferSourceD0Ev"
    },
    {
     "mangled_component_name":"_ZN7android7RefBase10onFirstRefEv"
    },
    {
     "mangled_component_name":"_ZN7android7RefBase15onLastStrongRefEPKv"
    },
    {
     "mangled_component_name":"_ZN7android7RefBase20onIncStrongAttemptedEjPKv"
    },
    {
     "mangled_component_name":"_ZN7android7RefBase13onLastWeakRefEPKv"
    }
   ],
   "unique_id":"_ZTSN7android8hardware5media3omx4V1_020IGraphicBufferSourceE"
  },
  {
   "vtable_components":[
    {
     "kind":"vbase_offset",
     "component_value":136
    },
    {
     "kind":"offset_to_top"
    },
    {
     "kind":"rtti",
     "mangled_component_name":"_ZTIN7android8hardware5media3omx4V1_023BnHwGraphicBufferSourceE"
    },
    {
     "mangled_component_name":"_ZN7android8hardware9BHwBinder8transactEjRKNS0_6ParcelEPS2_jNSt3__18functionIFvRS2_EEE"
    },
    {
     "mangled_component_name":"_ZN7android8hardware9BHwBinder11linkToDeathERKNS_2spINS0_7IBinder14DeathRecipientEEEPvj"
    },
    {
     "mangled_component_name":"_ZN7android8hardware9BHwBinder13unlinkToDeathERKNS_2wpINS0_7IBinder14DeathRecipientEEEPvjPS5_"
    },
    {
     "mangled_component_name":"_ZNK7android8hardware7IBinder13checkSubclassEPKv"
    },
    {
     "mangled_component_name":"_ZN7android8hardware9BHwBinder12attachObjectEPKvPvS4_PFvS3_S4_S4_E"
    },
    {
     "mangled_component_name":"_ZNK7android8hardware9BHwBinder10findObjectEPKv"
    },
    {
     "mangled_component_name":"_ZN7android8hardware9BHwBinder12detachObjectEPKv"
    },
    {
     "mangled_component_name":"_ZN7android8hardware9BHwBinder11localBinderEv"
    },
    {
     "mangled_component_name":"_ZN7android8hardware7IBinder12remoteBinderEv"
    },
    {
     "kind":"complete_dtor_pointer",
     "mangled_component_name":"_ZN7android8hardware5media3omx4V1_023BnHwGraphicBufferSourceD1Ev"
    },
    {
     "kind":"deleting_dtor_pointer",
     "mangled_component_name":"_ZN7android8hardware5media3omx4V1_023BnHwGraphicBufferSourceD0Ev"
    },
    {
     "mangled_component_name":"_ZN7android8hardware5media3omx4V1_023BnHwGraphicBufferSource10onTransactEjRKNS0_6ParcelEPS5_jNSt3__18functionIFvRS5_EEE"
    },
    {
     "kind":"offset_to_top",
     "component_value":-32
    },
    {
     "kind":"rtti",
     "mangled_component_name":"_ZTIN7android8hardware5media3omx4V1_023BnHwGraphicBufferSourceE"
    },
    {
     "kind":"complete_dtor_pointer",
     "mangled_component_name":"_ZThn32_N7android8hardware5media3omx4V1_023BnHwGraphicBufferSourceD1Ev"
    },
    {
     "kind":"deleting_dtor_pointer",
     "mangled_component_name":"_ZThn32_N7android8hardware5media3omx4V1_023BnHwGraphicBufferSourceD0Ev"
    },
    {
     "kind":"vcall_offset"
    },
    {
     "kind":"vcall_offset"
    },
    {
     "kind":"vcall_offset"
    },
    {
     "kind":"vcall_offset"
    },
    {
     "kind":"vcall_offset",
     "component_value":-136
    },
    {
     "kind":"offset_to_top",
     "component_value":-136
    },
    {
     "kind":"rtti",
     "mangled_component_name":"_ZTIN7android8hardware5media3omx4V1_023BnHwGraphicBufferSourceE"
    },
    {
     "kind":"complete_dtor_pointer",
     "mangled_component_name":"_ZTv0_n24_N7android8hardware5media3omx4V1_023BnHwGraphicBufferSourceD1Ev"
    },
    {
     "kind":"deleting_dtor_pointer",
     "mangled_component_name":"_ZTv0_n24_N7android8hardware5media3omx4V1_023BnHwGraphicBufferSourceD0Ev"
    },
    {
     "mangled_component_name":"_ZN7android7RefBase10onFirstRefEv"
    },
    {
     "mangled_component_name":"_ZN7android7RefBase15onLastStrongRefEPKv"
    },
    {
     "mangled_component_name":"_ZN7android7RefBase20onIncStrongAttemptedEjPKv"
    },
    {
     "mangled_component_name":"_ZN7android7RefBase13onLastWeakRefEPKv"
    }
   ],
   "unique_id":"_ZTSN7android8hardware5media3omx4V1_023BnHwGraphicBufferSourceE"
  },
  {
   "vtable_components":[
    {
     "kind":"vbase_offset",
     "component_value":120
    },
    {
     "kind":"offset_to_top"
    },
    {
     "kind":"rtti",
     "mangled_component_name":"_ZTIN7android8hardware5media3omx4V1_013BsOmxObserverE"
    },
    {
     "mangled_component_name":"_ZNK7android8hardware5media3omx4V1_012IOmxObserver8isRemoteEv"
    },
    {
     "mangled_component_name":"_ZN7android8hardware5media3omx4V1_013BsOmxObserver14interfaceChainENSt3__18functionIFvRKNS0_8hidl_vecINS0_11hidl_stringEEEEEE"
    },
    {
     "mangled_component_name":"_ZN7android8hardware5media3omx4V1_013BsOmxObserver5debugERKNS0_11hidl_handleERKNS0_8hidl_vecINS0_11hidl_stringEEE"
    },
    {
     "mangled_component_name":"_ZN7android8hardware5media3omx4V1_013BsOmxObserver19interfaceDescriptorENSt3__18functionIFvRKNS0_11hidl_stringEEEE"
    },
    {
     "mangled_component_name":"_ZN7android8hardware5media3omx4V1_013BsOmxObserver12getHashChainENSt3__18functionIFvRKNS0_8hidl_vecINS0_10hidl_arrayIhLm32EJEEEEEEEE"
    },
    {
     "mangled_component_name":"_ZN7android8hardware5media3omx4V1_013BsOmxObserver21setHALInstrumentationEv"
    },
    {
     "mangled_component_name":"_ZN7android8hardware5media3omx4V1_013BsOmxObserver11linkToDeathERKNS_2spINS0_20hidl_death_recipientEEEm"
    },
    {
     "mangled_component_name":"_ZN7android8hardware5media3omx4V1_013BsOmxObserver4pingEv"
    },
    {
     "mangled_component_name":"_ZN7android8hardware5media3omx4V1_013BsOmxObserver12getDebugInfoENSt3__18functionIFvRKNS_4hidl4base4V1_09DebugInfoEEEE"
    },
    {
     "mangled_component_name":"_ZN7android8hardware5media3omx4V1_013BsOmxObserver21notifySyspropsChangedEv"
    },
    {
     "mangled_component_name":"_ZN7android8hardware5media3omx4V1_013BsOmxObserver13unlinkToDeathERKNS_2spINS0_20hidl_death_recipientEEE"
    },
    {
     "kind":"complete_dtor_pointer",
     "mangled_component_name":"_ZN7android8hardware5media3omx4V1_013BsOmxObserverD1Ev"
    },
    {
     "kind":"deleting_dtor_pointer",
     "mangled_component_name":"_ZN7android8hardware5media3omx4V1_013BsOmxObserverD0Ev"
    },
    {
     "mangled_component_name":"_ZN7android8hardware5media3omx4V1_013BsOmxObserver10onMessagesERKNS0_8hidl_vecINS3_7MessageEEE"
    },
    {
     "kind":"offset_to_top",
     "component_value":-8
    },
    {
     "kind":"rtti",
     "mangled_component_name":"_ZTIN7android8hardware5media3omx4V1_013BsOmxObserverE"
    },
    {
     "kind":"complete_dtor_pointer",
     "mangled_component_name":"_ZThn8_N7android8hardware5media3omx4V1_013BsOmxObserverD1Ev"
    },
    {
     "kind":"deleting_dtor_pointer",
     "mangled_component_name":"_ZThn8_N7android8hardware5media3omx4V1_013BsOmxObserverD0Ev"
    },
    {
     "kind":"vcall_offset"
    },
    {
     "kind":"vcall_offset"
    },
    {
     "kind":"vcall_offset"
    },
    {
     "kind":"vcall_offset"
    },
    {
     "kind":"vcall_offset",
     "component_value":-120
    },
    {
     "kind":"offset_to_top",
     "component_value":-120
    },
    {
     "kind":"rtti",
     "mangled_component_name":"_ZTIN7android8hardware5media3omx4V1_013BsOmxObserverE"
    },
    {
     "kind":"complete_dtor_pointer",
     "mangled_component_name":"_ZTv0_n24_N7android8hardware5media3omx4V1_013BsOmxObserverD1Ev"
    },
    {
     "kind":"deleting_dtor_pointer",
     "mangled_component_name":"_ZTv0_n24_N7android8hardware5media3omx4V1_013BsOmxObserverD0Ev"
    },
    {
     "mangled_component_name":"_ZN7android7RefBase10onFirstRefEv"
    },
    {
     "mangled_component_name":"_ZN7android7RefBase15onLastStrongRefEPKv"
    },
    {
     "mangled_component_name":"_ZN7android7RefBase20onIncStrongAttemptedEjPKv"
    },
    {
     "mangled_component_name":"_ZN7android7RefBase13onLastWeakRefEPKv"
    }
   ],
   "unique_id":"_ZTSN7android8hardware5media3omx4V1_013BsOmxObserverE"
  },
  {
   "vtable_components":[
    {
     "kind":"vbase_offset",
     "component_value":8
    },
    {
     "kind":"offset_to_top"
    },
    {
     "kind":"rtti",
     "mangled_component_name":"_ZTIN7android8hardware5media3omx4V1_09IOmxStoreE"
    },
    {
     "mangled_component_name":"_ZNK7android8hardware5media3omx4V1_09IOmxStore8isRemoteEv"
    },
    {
     "mangled_component_name":"_ZN7android8hardware5media3omx4V1_09IOmxStore14interfaceChainENSt3__18functionIFvRKNS0_8hidl_vecINS0_11hidl_stringEEEEEE"
    },
    {
     "mangled_component_name":"_ZN7android8hardware5media3omx4V1_09IOmxStore5debugERKNS0_11hidl_handleERKNS0_8hidl_vecINS0_11hidl_stringEEE"
    },
    {
     "mangled_component_name":"_ZN7android8hardware5media3omx4V1_09IOmxStore19interfaceDescriptorENSt3__18functionIFvRKNS0_11hidl_stringEEEE"
    },
    {
     "mangled_component_name":"_ZN7android8hardware5media3omx4V1_09IOmxStore12getHashChainENSt3__18functionIFvRKNS0_8hidl_vecINS0_10hidl_arrayIhLm32EJEEEEEEEE"
    },
    {
     "mangled_component_name":"_ZN7android8hardware5media3omx4V1_09IOmxStore21setHALInstrumentationEv"
    },
    {
     "mangled_component_name":"_ZN7android8hardware5media3omx4V1_09IOmxStore11linkToDeathERKNS_2spINS0_20hidl_death_recipientEEEm"
    },
    {
     "mangled_component_name":"_ZN7android8hardware5media3omx4V1_09IOmxStore4pingEv"
    },
    {
     "mangled_component_name":"_ZN7android8hardware5media3omx4V1_09IOmxStore12getDebugInfoENSt3__18functionIFvRKNS_4hidl4base4V1_09DebugInfoEEEE"
    },
    {
     "mangled_component_name":"_ZN7android8hardware5media3omx4V1_09IOmxStore21notifySyspropsChangedEv"
    },
    {
     "mangled_component_name":"_ZN7android8hardware5media3omx4V1_09IOmxStore13unlinkToDeathERKNS_2spINS0_20hidl_death_recipientEEE"
    },
    {
     "kind":"complete_dtor_pointer",
     "mangled_component_name":"_ZN7android8hardware5media3omx4V1_09IOmxStoreD1Ev"
    },
    {
     "kind":"deleting_dtor_pointer",
     "mangled_component_name":"_ZN7android8hardware5media3omx4V1_09IOmxStoreD0Ev"
    },
    {
     "is_pure":true,
     "mangled_component_name":"_ZN7android8hardware5media3omx4V1_09IOmxStore21listServiceAttributesENSt3__18functionIFvNS3_6StatusERKNS0_8hidl_vecINS4_9AttributeEEEEEE"
    },
    {
     "is_pure":true,
     "mangled_component_name":"_ZN7android8hardware5media3omx4V1_09IOmxStore13getNodePrefixENSt3__18functionIFvRKNS0_11hidl_stringEEEE"
    },
    {
     "is_pure":true,
     "mangled_component_name":"_ZN7android8hardware5media3omx4V1_09IOmxStore9listRolesENSt3__18functionIFvRKNS0_8hidl_vecINS4_8RoleInfoEEEEEE"
    },
    {
     "is_pure":true,
     "mangled_component_name":"_ZN7android8hardware5media3omx4V1_09IOmxStore6getOmxERKNS0_11hidl_stringE"
    },
    {
     "kind":"vcall_offset"
    },
    {
     "kind":"vcall_offset"
    },
    {
     "kind":"vcall_offset"
    },
    {
     "kind":"vcall_offset"
    },
    {
     "kind":"vcall_offset",
     "component_value":-8
    },
    {
     "kind":"offset_to_top",
     "component_value":-8
    },
    {
     "kind":"rtti",
     "mangled_component_name":"_ZTIN7android8hardware5media3omx4V1_09IOmxStoreE"
    },
    {
     "kind":"complete_dtor_pointer",
     "mangled_component_name":"_ZTv0_n24_N7android8hardware5media3omx4V1_09IOmxStoreD1Ev"
    },
    {
     "kind":"deleting_dtor_pointer",
     "mangled_component_name":"_ZTv0_n24_N7android8hardware5media3omx4V1_09IOmxStoreD0Ev"
    },
    {
     "mangled_component_name":"_ZN7android7RefBase10onFirstRefEv"
    },
    {
     "mangled_component_name":"_ZN7android7RefBase15onLastStrongRefEPKv"
    },
    {
     "mangled_component_name":"_ZN7android7RefBase20onIncStrongAttemptedEjPKv"
    },
    {
     "mangled_component_name":"_ZN7android7RefBase13onLastWeakRefEPKv"
    }
   ],
   "unique_id":"_ZTSN7android8hardware5media3omx4V1_09IOmxStoreE"
  },
  {
   "vtable_components":[
    {
     "kind":"vbase_offset",
     "component_value":136
    },
    {
     "kind":"offset_to_top"
    },
    {
     "kind":"rtti",
     "mangled_component_name":"_ZTIN7android8hardware5media3omx4V1_012BnHwOmxStoreE"
    },
    {
     "mangled_component_name":"_ZN7android8hardware9BHwBinder8transactEjRKNS0_6ParcelEPS2_jNSt3__18functionIFvRS2_EEE"
    },
    {
     "mangled_component_name":"_ZN7android8hardware9BHwBinder11linkToDeathERKNS_2spINS0_7IBinder14DeathRecipientEEEPvj"
    },
    {
     "mangled_component_name":"_ZN7android8hardware9BHwBinder13unlinkToDeathERKNS_2wpINS0_7IBinder14DeathRecipientEEEPvjPS5_"
    },
    {
     "mangled_component_name":"_ZNK7android8hardware7IBinder13checkSubclassEPKv"
    },
    {
     "mangled_component_name":"_ZN7android8hardware9BHwBinder12attachObjectEPKvPvS4_PFvS3_S4_S4_E"
    },
    {
     "mangled_component_name":"_ZNK7android8hardware9BHwBinder10findObjectEPKv"
    },
    {
     "mangled_component_name":"_ZN7android8hardware9BHwBinder12detachObjectEPKv"
    },
    {
     "mangled_component_name":"_ZN7android8hardware9BHwBinder11localBinderEv"
    },
    {
     "mangled_component_name":"_ZN7android8hardware7IBinder12remoteBinderEv"
    },
    {
     "kind":"complete_dtor_pointer",
     "mangled_component_name":"_ZN7android8hardware5media3omx4V1_012BnHwOmxStoreD1Ev"
    },
    {
     "kind":"deleting_dtor_pointer",
     "mangled_component_name":"_ZN7android8hardware5media3omx4V1_012BnHwOmxStoreD0Ev"
    },
    {
     "mangled_component_name":"_ZN7android8hardware5media3omx4V1_012BnHwOmxStore10onTransactEjRKNS0_6ParcelEPS5_jNSt3__18functionIFvRS5_EEE"
    },
    {
     "kind":"offset_to_top",
     "component_value":-32
    },
    {
     "kind":"rtti",
     "mangled_component_name":"_ZTIN7android8hardware5media3omx4V1_012BnHwOmxStoreE"
    },
    {
     "kind":"complete_dtor_pointer",
     "mangled_component_name":"_ZThn32_N7android8hardware5media3omx4V1_012BnHwOmxStoreD1Ev"
    },
    {
     "kind":"deleting_dtor_pointer",
     "mangled_component_name":"_ZThn32_N7android8hardware5media3omx4V1_012BnHwOmxStoreD0Ev"
    },
    {
     "kind":"vcall_offset"
    },
    {
     "kind":"vcall_offset"
    },
    {
     "kind":"vcall_offset"
    },
    {
     "kind":"vcall_offset"
    },
    {
     "kind":"vcall_offset",
     "component_value":-136
    },
    {
     "kind":"offset_to_top",
     "component_value":-136
    },
    {
     "kind":"rtti",
     "mangled_component_name":"_ZTIN7android8hardware5media3omx4V1_012BnHwOmxStoreE"
    },
    {
     "kind":"complete_dtor_pointer",
     "mangled_component_name":"_ZTv0_n24_N7android8hardware5media3omx4V1_012BnHwOmxStoreD1Ev"
    },
    {
     "kind":"deleting_dtor_pointer",
     "mangled_component_name":"_ZTv0_n24_N7android8hardware5media3omx4V1_012BnHwOmxStoreD0Ev"
    },
    {
     "mangled_component_name":"_ZN7android7RefBase10onFirstRefEv"
    },
    {
     "mangled_component_name":"_ZN7android7RefBase15onLastStrongRefEPKv"
    },
    {
     "mangled_component_name":"_ZN7android7RefBase20onIncStrongAttemptedEjPKv"
    },
    {
     "mangled_component_name":"_ZN7android7RefBase13onLastWeakRefEPKv"
    }
   ],
   "unique_id":"_ZTSN7android8hardware5media3omx4V1_012BnHwOmxStoreE"
  },
  {
   "vtable_components":[
    {
     "kind":"vbase_offset",
     "component_value":120
    },
    {
     "kind":"offset_to_top"
    },
    {
     "kind":"rtti",
     "mangled_component_name":"_ZTIN7android8hardware5media3omx4V1_010BsOmxStoreE"
    },
    {
     "mangled_component_name":"_ZNK7android8hardware5media3omx4V1_09IOmxStore8isRemoteEv"
    },
    {
     "mangled_component_name":"_ZN7android8hardware5media3omx4V1_010BsOmxStore14interfaceChainENSt3__18functionIFvRKNS0_8hidl_vecINS0_11hidl_stringEEEEEE"
    },
    {
     "mangled_component_name":"_ZN7android8hardware5media3omx4V1_010BsOmxStore5debugERKNS0_11hidl_handleERKNS0_8hidl_vecINS0_11hidl_stringEEE"
    },
    {
     "mangled_component_name":"_ZN7android8hardware5media3omx4V1_010BsOmxStore19interfaceDescriptorENSt3__18functionIFvRKNS0_11hidl_stringEEEE"
    },
    {
     "mangled_component_name":"_ZN7android8hardware5media3omx4V1_010BsOmxStore12getHashChainENSt3__18functionIFvRKNS0_8hidl_vecINS0_10hidl_arrayIhLm32EJEEEEEEEE"
    },
    {
     "mangled_component_name":"_ZN7android8hardware5media3omx4V1_010BsOmxStore21setHALInstrumentationEv"
    },
    {
     "mangled_component_name":"_ZN7android8hardware5media3omx4V1_010BsOmxStore11linkToDeathERKNS_2spINS0_20hidl_death_recipientEEEm"
    },
    {
     "mangled_component_name":"_ZN7android8hardware5media3omx4V1_010BsOmxStore4pingEv"
    },
    {
     "mangled_component_name":"_ZN7android8hardware5media3omx4V1_010BsOmxStore12getDebugInfoENSt3__18functionIFvRKNS_4hidl4base4V1_09DebugInfoEEEE"
    },
    {
     "mangled_component_name":"_ZN7android8hardware5media3omx4V1_010BsOmxStore21notifySyspropsChangedEv"
    },
    {
     "mangled_component_name":"_ZN7android8hardware5media3omx4V1_010BsOmxStore13unlinkToDeathERKNS_2spINS0_20hidl_death_recipientEEE"
    },
    {
     "kind":"complete_dtor_pointer",
     "mangled_component_name":"_ZN7android8hardware5media3omx4V1_010BsOmxStoreD1Ev"
    },
    {
     "kind":"deleting_dtor_pointer",
     "mangled_component_name":"_ZN7android8hardware5media3omx4V1_010BsOmxStoreD0Ev"
    },
    {
     "mangled_component_name":"_ZN7android8hardware5media3omx4V1_010BsOmxStore21listServiceAttributesENSt3__18functionIFvNS3_6StatusERKNS0_8hidl_vecINS3_9IOmxStore9AttributeEEEEEE"
    },
    {
     "mangled_component_name":"_ZN7android8hardware5media3omx4V1_010BsOmxStore13getNodePrefixENSt3__18functionIFvRKNS0_11hidl_stringEEEE"
    },
    {
     "mangled_component_name":"_ZN7android8hardware5media3omx4V1_010BsOmxStore9listRolesENSt3__18functionIFvRKNS0_8hidl_vecINS3_9IOmxStore8RoleInfoEEEEEE"
    },
    {
     "mangled_component_name":"_ZN7android8hardware5media3omx4V1_010BsOmxStore6getOmxERKNS0_11hidl_stringE"
    },
    {
     "kind":"offset_to_top",
     "component_value":-8
    },
    {
     "kind":"rtti",
     "mangled_component_name":"_ZTIN7android8hardware5media3omx4V1_010BsOmxStoreE"
    },
    {
     "kind":"complete_dtor_pointer",
     "mangled_component_name":"_ZThn8_N7android8hardware5media3omx4V1_010BsOmxStoreD1Ev"
    },
    {
     "kind":"deleting_dtor_pointer",
     "mangled_component_name":"_ZThn8_N7android8hardware5media3omx4V1_010BsOmxStoreD0Ev"
    },
    {
     "kind":"vcall_offset"
    },
    {
     "kind":"vcall_offset"
    },
    {
     "kind":"vcall_offset"
    },
    {
     "kind":"vcall_offset"
    },
    {
     "kind":"vcall_offset",
     "component_value":-120
    },
    {
     "kind":"offset_to_top",
     "component_value":-120
    },
    {
     "kind":"rtti",
     "mangled_component_name":"_ZTIN7android8hardware5media3omx4V1_010BsOmxStoreE"
    },
    {
     "kind":"complete_dtor_pointer",
     "mangled_component_name":"_ZTv0_n24_N7android8hardware5media3omx4V1_010BsOmxStoreD1Ev"
    },
    {
     "kind":"deleting_dtor_pointer",
     "mangled_component_name":"_ZTv0_n24_N7android8hardware5media3omx4V1_010BsOmxStoreD0Ev"
    },
    {
     "mangled_component_name":"_ZN7android7RefBase10onFirstRefEv"
    },
    {
     "mangled_component_name":"_ZN7android7RefBase15onLastStrongRefEPKv"
    },
    {
     "mangled_component_name":"_ZN7android7RefBase20onIncStrongAttemptedEjPKv"
    },
    {
     "mangled_component_name":"_ZN7android7RefBase13onLastWeakRefEPKv"
    }
   ],
   "unique_id":"_ZTSN7android8hardware5media3omx4V1_010BsOmxStoreE"
  },
  {
   "vtable_components":[
    {
     "kind":"vbase_offset",
     "component_value":200
    },
    {
     "kind":"offset_to_top"
    },
    {
     "kind":"rtti",
     "mangled_component_name":"_ZTIN7android8hardware5media3omx4V1_012BpHwOmxStoreE"
    },
    {
     "mangled_component_name":"_ZNK7android8hardware5media3omx4V1_012BpHwOmxStore8isRemoteEv"
    },
    {
     "mangled_component_name":"_ZN7android8hardware5media3omx4V1_012BpHwOmxStore14interfaceChainENSt3__18functionIFvRKNS0_8hidl_vecINS0_11hidl_stringEEEEEE"
    },
    {
     "mangled_component_name":"_ZN7android8hardware5media3omx4V1_012BpHwOmxStore5debugERKNS0_11hidl_handleERKNS0_8hidl_vecINS0_11hidl_stringEEE"
    },
    {
     "mangled_component_name":"_ZN7android8hardware5media3omx4V1_012BpHwOmxStore19interfaceDescriptorENSt3__18functionIFvRKNS0_11hidl_stringEEEE"
    },
    {
     "mangled_component_name":"_ZN7android8hardware5media3omx4V1_012BpHwOmxStore12getHashChainENSt3__18functionIFvRKNS0_8hidl_vecINS0_10hidl_arrayIhLm32EJEEEEEEEE"
    },
    {
     "mangled_component_name":"_ZN7android8hardware5media3omx4V1_012BpHwOmxStore21setHALInstrumentationEv"
    },
    {
     "mangled_component_name":"_ZN7android8hardware5media3omx4V1_012BpHwOmxStore11linkToDeathERKNS_2spINS0_20hidl_death_recipientEEEm"
    },
    {
     "mangled_component_name":"_ZN7android8hardware5media3omx4V1_012BpHwOmxStore4pingEv"
    },
    {
     "mangled_component_name":"_ZN7android8hardware5media3omx4V1_012BpHwOmxStore12getDebugInfoENSt3__18functionIFvRKNS_4hidl4base4V1_09DebugInfoEEEE"
    },
    {
     "mangled_component_name":"_ZN7android8hardware5media3omx4V1_012BpHwOmxStore21notifySyspropsChangedEv"
    },
    {
     "mangled_component_name":"_ZN7android8hardware5media3omx4V1_012BpHwOmxStore13unlinkToDeathERKNS_2spINS0_20hidl_death_recipientEEE"
    },
    {
     "kind":"complete_dtor_pointer",
     "mangled_component_name":"_ZN7android8hardware5media3omx4V1_012BpHwOmxStoreD1Ev"
    },
    {
     "kind":"deleting_dtor_pointer",
     "mangled_component_name":"_ZN7android8hardware5media3omx4V1_012BpHwOmxStoreD0Ev"
    },
    {
     "mangled_component_name":"_ZN7android8hardware5media3omx4V1_012BpHwOmxStore21listServiceAttributesENSt3__18functionIFvNS3_6StatusERKNS0_8hidl_vecINS3_9IOmxStore9AttributeEEEEEE"
    },
    {
     "mangled_component_name":"_ZN7android8hardware5media3omx4V1_012BpHwOmxStore13getNodePrefixENSt3__18functionIFvRKNS0_11hidl_stringEEEE"
    },
    {
     "mangled_component_name":"_ZN7android8hardware5media3omx4V1_012BpHwOmxStore9listRolesENSt3__18functionIFvRKNS0_8hidl_vecINS3_9IOmxStore8RoleInfoEEEEEE"
    },
    {
     "mangled_component_name":"_ZN7android8hardware5media3omx4V1_012BpHwOmxStore6getOmxERKNS0_11hidl_stringE"
    },
    {
     "mangled_component_name":"_ZN7android8hardware11BpInterfaceINS0_5media3omx4V1_09IOmxStoreEE10onAsBinderEv"
    },
    {
     "kind":"vbase_offset",
     "component_value":192
    },
    {
     "kind":"offset_to_top",
     "component_value":-8
    },
    {
     "kind":"rtti",
     "mangled_component_name":"_ZTIN7android8hardware5media3omx4V1_012BpHwOmxStoreE"
    },
    {
     "kind":"complete_dtor_pointer",
     "mangled_component_name":"_ZThn8_N7android8hardware5media3omx4V1_012BpHwOmxStoreD1Ev"
    },
    {
     "kind":"deleting_dtor_pointer",
     "mangled_component_name":"_ZThn8_N7android8hardware5media3omx4V1_012BpHwOmxStoreD0Ev"
    },
    {
     "mangled_component_name":"_ZThn8_N7android8hardware11BpInterfaceINS0_5media3omx4V1_09IOmxStoreEE10onAsBinderEv"
    },
    {
     "kind":"vbase_offset",
     "component_value":184
    },
    {
     "kind":"offset_to_top",
     "component_value":-16
    },
    {
     "kind":"rtti",
     "mangled_component_name":"_ZTIN7android8hardware5media3omx4V1_012BpHwOmxStoreE"
    },
    {
     "kind":"complete_dtor_pointer",
     "mangled_component_name":"_ZThn16_N7android8hardware5media3omx4V1_012BpHwOmxStoreD1Ev"
    },
    {
     "kind":"deleting_dtor_pointer",
     "mangled_component_name":"_ZThn16_N7android8hardware5media3omx4V1_012BpHwOmxStoreD0Ev"
    },
    {
     "mangled_component_name":"_ZN7android8hardware11BpHwRefBase10onFirstRefEv"
    },
    {
     "mangled_component_name":"_ZN7android8hardware11BpHwRefBase15onLastStrongRefEPKv"
    },
    {
     "mangled_component_name":"_ZN7android8hardware11BpHwRefBase20onIncStrongAttemptedEjPKv"
    },
    {
     "kind":"offset_to_top",
     "component_value":-48
    },
    {
     "kind":"rtti",
     "mangled_component_name":"_ZTIN7android8hardware5media3omx4V1_012BpHwOmxStoreE"
    },
    {
     "kind":"complete_dtor_pointer",
     "mangled_component_name":"_ZThn48_N7android8hardware5media3omx4V1_012BpHwOmxStoreD1Ev"
    },
    {
     "kind":"deleting_dtor_pointer",
     "mangled_component_name":"_ZThn48_N7android8hardware5media3omx4V1_012BpHwOmxStoreD0Ev"
    },
    {
     "kind":"vcall_offset"
    },
    {
     "kind":"vcall_offset",
     "component_value":-184
    },
    {
     "kind":"vcall_offset",
     "component_value":-184
    },
    {
     "kind":"vcall_offset",
     "component_value":-184
    },
    {
     "kind":"vcall_offset",
     "component_value":-200
    },
    {
     "kind":"offset_to_top",
     "component_value":-200
    },
    {
     "kind":"rtti",
     "mangled_component_name":"_ZTIN7android8hardware5media3omx4V1_012BpHwOmxStoreE"
    },
    {
     "kind":"complete_dtor_pointer",
     "mangled_component_name":"_ZTv0_n24_N7android8hardware5media3omx4V1_012BpHwOmxStoreD1Ev"
    },
    {
     "kind":"deleting_dtor_pointer",
     "mangled_component_name":"_ZTv0_n24_N7android8hardware5media3omx4V1_012BpHwOmxStoreD0Ev"
    },
    {
     "mangled_component_name":"_ZTv0_n32_N7android8hardware11BpHwRefBase10onFirstRefEv"
    },
    {
     "mangled_component_name":"_ZTv0_n40_N7android8hardware11BpHwRefBase15onLastStrongRefEPKv"
    },
    {
     "mangled_component_name":"_ZTv0_n48_N7android8hardware11BpHwRefBase20onIncStrongAttemptedEjPKv"
    },
    {
     "mangled_component_name":"_ZN7android7RefBase13onLastWeakRefEPKv"
    }
   ],
   "unique_id":"_ZTSN7android8hardware5media3omx4V1_012BpHwOmxStoreE"
  }
 ],
 "elf_functions":[
  {
   "binding":"weak",
   "name":"_ZN7android8hardware10fromBinderINS0_5media3omx4V1_012IOmxObserverENS4_15BpHwOmxObserverENS4_15BnHwOmxObserverEEENS_2spIT_EERKNS8_INS0_7IBinderEEE"
  },
  {
   "binding":"weak",
   "name":"_ZN7android8hardware10fromBinderINS0_5media3omx4V1_016IOmxBufferSourceENS4_19BpHwOmxBufferSourceENS4_19BnHwOmxBufferSourceEEENS_2spIT_EERKNS8_INS0_7IBinderEEE"
  },
  {
   "binding":"weak",
   "name":"_ZN7android8hardware10fromBinderINS0_5media3omx4V1_020IGraphicBufferSourceENS4_23BpHwGraphicBufferSourceENS4_23BnHwGraphicBufferSourceEEENS_2spIT_EERKNS8_INS0_7IBinderEEE"
  },
  {
   "binding":"weak",
   "name":"_ZN7android8hardware10fromBinderINS0_5media3omx4V1_04IOmxENS4_7BpHwOmxENS4_7BnHwOmxEEENS_2spIT_EERKNS8_INS0_7IBinderEEE"
  },
  {
   "binding":"weak",
   "name":"_ZN7android8hardware10fromBinderINS0_5media3omx4V1_08IOmxNodeENS4_11BpHwOmxNodeENS4_11BnHwOmxNodeEEENS_2spIT_EERKNS8_INS0_7IBinderEEE"
  },
  {
   "binding":"weak",
   "name":"_ZN7android8hardware10fromBinderINS0_8graphics11bufferqueue4V1_022IGraphicBufferProducerENS4_25BpHwGraphicBufferProducerENS4_25BnHwGraphicBufferProducerEEENS_2spIT_EERKNS8_INS0_7IBinderEEE"
  },
  {
   "name":"_ZN7android8hardware5media3omx4V1_010BsOmxStore13addOnewayTaskENSt3__18functionIFvvEEE"
  },
  {
   "name":"_ZN7android8hardware5media3omx4V1_010BsOmxStoreC1ENS_2spINS3_9IOmxStoreEEE"
  },
  {
   "name":"_ZN7android8hardware5media3omx4V1_010BsOmxStoreC2ENS_2spINS3_9IOmxStoreEEE"
  },
  {
   "name":"_ZN7android8hardware5media3omx4V1_011BnHwOmxNode10onTransactEjRKNS0_6ParcelEPS5_jNSt3__18functionIFvRS5_EEE"
  },
  {
   "name":"_ZN7android8hardware5media3omx4V1_011BnHwOmxNode12getDebugInfoENSt3__18functionIFvRKNS_4hidl4base4V1_09DebugInfoEEEE"
  },
  {
   "name":"_ZN7android8hardware5media3omx4V1_011BnHwOmxNode14_hidl_freeNodeEPNS_4hidl4base4V1_08BnHwBaseERKNS0_6ParcelEPSA_NSt3__18functionIFvRSA_EEE"
  },
  {
   "name":"_ZN7android8hardware5media3omx4V1_011BnHwOmxNode15_hidl_getConfigEPNS_4hidl4base4V1_08BnHwBaseERKNS0_6ParcelEPSA_NSt3__18functionIFvRSA_EEE"
  },
  {
   "name":"_ZN7android8hardware5media3omx4V1_011BnHwOmxNode15_hidl_setConfigEPNS_4hidl4base4V1_08BnHwBaseERKNS0_6ParcelEPSA_NSt3__18functionIFvRSA_EEE"
  },
  {
   "name":"_ZN7android8hardware5media3omx4V1_011BnHwOmxNode15_hidl_useBufferEPNS_4hidl4base4V1_08BnHwBaseERKNS0_6ParcelEPSA_NSt3__18functionIFvRSA_EEE"
  },
  {
   "name":"_ZN7android8hardware5media3omx4V1_011BnHwOmxNode16_hidl_fillBufferEPNS_4hidl4base4V1_08BnHwBaseERKNS0_6ParcelEPSA_NSt3__18functionIFvRSA_EEE"
  },
  {
   "name":"_ZN7android8hardware5media3omx4V1_011BnHwOmxNode16_hidl_freeBufferEPNS_4hidl4base4V1_08BnHwBaseERKNS0_6ParcelEPSA_NSt3__18functionIFvRSA_EEE"
  },
  {
   "name":"_ZN7android8hardware5media3omx4V1_011BnHwOmxNode17_hidl_emptyBufferEPNS_4hidl4base4V1_08BnHwBaseERKNS0_6ParcelEPSA_NSt3__18functionIFvRSA_EEE"
  },
  {
   "name":"_ZN7android8hardware5media3omx4V1_011BnHwOmxNode17_hidl_sendCommandEPNS_4hidl4base4V1_08BnHwBaseERKNS0_6ParcelEPSA_NSt3__18functionIFvRSA_EEE"
  },
  {
   "name":"_ZN7android8hardware5media3omx4V1_011BnHwOmxNode17_hidl_setPortModeEPNS_4hidl4base4V1_08BnHwBaseERKNS0_6ParcelEPSA_NSt3__18functionIFvRSA_EEE"
  },
  {
   "name":"_ZN7android8hardware5media3omx4V1_011BnHwOmxNode18_hidl_getParameterEPNS_4hidl4base4V1_08BnHwBaseERKNS0_6ParcelEPSA_NSt3__18functionIFvRSA_EEE"
  },
  {
   "name":"_ZN7android8hardware5media3omx4V1_011BnHwOmxNode18_hidl_setParameterEPNS_4hidl4base4V1_08BnHwBaseERKNS0_6ParcelEPSA_NSt3__18functionIFvRSA_EEE"
  },
  {
   "name":"_ZN7android8hardware5media3omx4V1_011BnHwOmxNode21_hidl_dispatchMessageEPNS_4hidl4base4V1_08BnHwBaseERKNS0_6ParcelEPSA_NSt3__18functionIFvRSA_EEE"
  },
  {
   "name":"_ZN7android8hardware5media3omx4V1_011BnHwOmxNode21_hidl_setInputSurfaceEPNS_4hidl4base4V1_08BnHwBaseERKNS0_6ParcelEPSA_NSt3__18functionIFvRSA_EEE"
  },
  {
   "name":"_ZN7android8hardware5media3omx4V1_011BnHwOmxNode23_hidl_getExtensionIndexEPNS_4hidl4base4V1_08BnHwBaseERKNS0_6ParcelEPSA_NSt3__18functionIFvRSA_EEE"
  },
  {
   "name":"_ZN7android8hardware5media3omx4V1_011BnHwOmxNode26_hidl_allocateSecureBufferEPNS_4hidl4base4V1_08BnHwBaseERKNS0_6ParcelEPSA_NSt3__18functionIFvRSA_EEE"
  },
  {
   "name":"_ZN7android8hardware5media3omx4V1_011BnHwOmxNode27_hidl_getGraphicBufferUsageEPNS_4hidl4base4V1_08BnHwBaseERKNS0_6ParcelEPSA_NSt3__18functionIFvRSA_EEE"
  },
  {
   "name":"_ZN7android8hardware5media3omx4V1_011BnHwOmxNode30_hidl_configureVideoTunnelModeEPNS_4hidl4base4V1_08BnHwBaseERKNS0_6ParcelEPSA_NSt3__18functionIFvRSA_EEE"
  },
  {
   "name":"_ZN7android8hardware5media3omx4V1_011BnHwOmxNode32_hidl_prepareForAdaptivePlaybackEPNS_4hidl4base4V1_08BnHwBaseERKNS0_6ParcelEPSA_NSt3__18functionIFvRSA_EEE"
  },
  {
   "name":"_ZN7android8hardware5media3omx4V1_011BnHwOmxNode4pingEv"
  },
  {
   "name":"_ZN7android8hardware5media3omx4V1_011BnHwOmxNodeC1ERKNS_2spINS3_8IOmxNodeEEE"
  },
  {
   "name":"_ZN7android8hardware5media3omx4V1_011BnHwOmxNodeC2ERKNS_2spINS3_8IOmxNodeEEE"
  },
  {
   "name":"_ZN7android8hardware5media3omx4V1_011BnHwOmxNodeD0Ev"
  },
  {
   "name":"_ZN7android8hardware5media3omx4V1_011BnHwOmxNodeD1Ev"
  },
  {
   "name":"_ZN7android8hardware5media3omx4V1_011BnHwOmxNodeD2Ev"
  },
  {
   "name":"_ZN7android8hardware5media3omx4V1_011BpHwOmxNode10fillBufferEjRKNS3_11CodecBufferERKNS0_11hidl_handleE"
  },
  {
   "name":"_ZN7android8hardware5media3omx4V1_011BpHwOmxNode10freeBufferEjj"
  },
  {
   "name":"_ZN7android8hardware5media3omx4V1_011BpHwOmxNode11emptyBufferEjRKNS3_11CodecBufferEjmRKNS0_11hidl_handleE"
  },
  {
   "name":"_ZN7android8hardware5media3omx4V1_011BpHwOmxNode11linkToDeathERKNS_2spINS0_20hidl_death_recipientEEEm"
  },
  {
   "name":"_ZN7android8hardware5media3omx4V1_011BpHwOmxNode11sendCommandEji"
  },
  {
   "name":"_ZN7android8hardware5media3omx4V1_011BpHwOmxNode11setPortModeEjNS3_8PortModeE"
  },
  {
   "name":"_ZN7android8hardware5media3omx4V1_011BpHwOmxNode12getDebugInfoENSt3__18functionIFvRKNS_4hidl4base4V1_09DebugInfoEEEE"
  },
  {
   "name":"_ZN7android8hardware5media3omx4V1_011BpHwOmxNode12getHashChainENSt3__18functionIFvRKNS0_8hidl_vecINS0_10hidl_arrayIhLm32EJEEEEEEEE"
  },
  {
   "name":"_ZN7android8hardware5media3omx4V1_011BpHwOmxNode12getParameterEjRKNS0_8hidl_vecIhEENSt3__18functionIFvNS3_6StatusES8_EEE"
  },
  {
   "name":"_ZN7android8hardware5media3omx4V1_011BpHwOmxNode12setParameterEjRKNS0_8hidl_vecIhEE"
  },
  {
   "name":"_ZN7android8hardware5media3omx4V1_011BpHwOmxNode13unlinkToDeathERKNS_2spINS0_20hidl_death_recipientEEE"
  },
  {
   "name":"_ZN7android8hardware5media3omx4V1_011BpHwOmxNode14_hidl_freeNodeEPNS0_10IInterfaceEPNS0_7details16HidlInstrumentorE"
  },
  {
   "name":"_ZN7android8hardware5media3omx4V1_011BpHwOmxNode14interfaceChainENSt3__18functionIFvRKNS0_8hidl_vecINS0_11hidl_stringEEEEEE"
  },
  {
   "name":"_ZN7android8hardware5media3omx4V1_011BpHwOmxNode15_hidl_getConfigEPNS0_10IInterfaceEPNS0_7details16HidlInstrumentorEjRKNS0_8hidl_vecIhEENSt3__18functionIFvNS3_6StatusESD_EEE"
  },
  {
   "name":"_ZN7android8hardware5media3omx4V1_011BpHwOmxNode15_hidl_setConfigEPNS0_10IInterfaceEPNS0_7details16HidlInstrumentorEjRKNS0_8hidl_vecIhEE"
  },
  {
   "name":"_ZN7android8hardware5media3omx4V1_011BpHwOmxNode15_hidl_useBufferEPNS0_10IInterfaceEPNS0_7details16HidlInstrumentorEjRKNS3_11CodecBufferENSt3__18functionIFvNS3_6StatusEjEEE"
  },
  {
   "name":"_ZN7android8hardware5media3omx4V1_011BpHwOmxNode15dispatchMessageERKNS3_7MessageE"
  },
  {
   "name":"_ZN7android8hardware5media3omx4V1_011BpHwOmxNode15setInputSurfaceERKNS_2spINS3_16IOmxBufferSourceEEE"
  },
  {
   "name":"_ZN7android8hardware5media3omx4V1_011BpHwOmxNode16_hidl_fillBufferEPNS0_10IInterfaceEPNS0_7details16HidlInstrumentorEjRKNS3_11CodecBufferERKNS0_11hidl_handleE"
  },
  {
   "name":"_ZN7android8hardware5media3omx4V1_011BpHwOmxNode16_hidl_freeBufferEPNS0_10IInterfaceEPNS0_7details16HidlInstrumentorEjj"
  },
  {
   "name":"_ZN7android8hardware5media3omx4V1_011BpHwOmxNode17_hidl_emptyBufferEPNS0_10IInterfaceEPNS0_7details16HidlInstrumentorEjRKNS3_11CodecBufferEjmRKNS0_11hidl_handleE"
  },
  {
   "name":"_ZN7android8hardware5media3omx4V1_011BpHwOmxNode17_hidl_sendCommandEPNS0_10IInterfaceEPNS0_7details16HidlInstrumentorEji"
  },
  {
   "name":"_ZN7android8hardware5media3omx4V1_011BpHwOmxNode17_hidl_setPortModeEPNS0_10IInterfaceEPNS0_7details16HidlInstrumentorEjNS3_8PortModeE"
  },
  {
   "name":"_ZN7android8hardware5media3omx4V1_011BpHwOmxNode17getExtensionIndexERKNS0_11hidl_stringENSt3__18functionIFvNS3_6StatusEjEEE"
  },
  {
   "name":"_ZN7android8hardware5media3omx4V1_011BpHwOmxNode18_hidl_getParameterEPNS0_10IInterfaceEPNS0_7details16HidlInstrumentorEjRKNS0_8hidl_vecIhEENSt3__18functionIFvNS3_6StatusESD_EEE"
  },
  {
   "name":"_ZN7android8hardware5media3omx4V1_011BpHwOmxNode18_hidl_setParameterEPNS0_10IInterfaceEPNS0_7details16HidlInstrumentorEjRKNS0_8hidl_vecIhEE"
  },
  {
   "name":"_ZN7android8hardware5media3omx4V1_011BpHwOmxNode19interfaceDescriptorENSt3__18functionIFvRKNS0_11hidl_stringEEEE"
  },
  {
   "name":"_ZN7android8hardware5media3omx4V1_011BpHwOmxNode20allocateSecureBufferEjmNSt3__18functionIFvNS3_6StatusEjRKNS0_11hidl_handleEEEE"
  },
  {
   "name":"_ZN7android8hardware5media3omx4V1_011BpHwOmxNode21_hidl_dispatchMessageEPNS0_10IInterfaceEPNS0_7details16HidlInstrumentorERKNS3_7MessageE"
  },
  {
   "name":"_ZN7android8hardware5media3omx4V1_011BpHwOmxNode21_hidl_setInputSurfaceEPNS0_10IInterfaceEPNS0_7details16HidlInstrumentorERKNS_2spINS3_16IOmxBufferSourceEEE"
  },
  {
   "name":"_ZN7android8hardware5media3omx4V1_011BpHwOmxNode21getGraphicBufferUsageEjNSt3__18functionIFvNS3_6StatusEjEEE"
  },
  {
   "name":"_ZN7android8hardware5media3omx4V1_011BpHwOmxNode21notifySyspropsChangedEv"
  },
  {
   "name":"_ZN7android8hardware5media3omx4V1_011BpHwOmxNode21setHALInstrumentationEv"
  },
  {
   "name":"_ZN7android8hardware5media3omx4V1_011BpHwOmxNode23_hidl_getExtensionIndexEPNS0_10IInterfaceEPNS0_7details16HidlInstrumentorERKNS0_11hidl_stringENSt3__18functionIFvNS3_6StatusEjEEE"
  },
  {
   "name":"_ZN7android8hardware5media3omx4V1_011BpHwOmxNode24configureVideoTunnelModeEjbjNSt3__18functionIFvNS3_6StatusERKNS0_11hidl_handleEEEE"
  },
  {
   "name":"_ZN7android8hardware5media3omx4V1_011BpHwOmxNode26_hidl_allocateSecureBufferEPNS0_10IInterfaceEPNS0_7details16HidlInstrumentorEjmNSt3__18functionIFvNS3_6StatusEjRKNS0_11hidl_handleEEEE"
  },
  {
   "name":"_ZN7android8hardware5media3omx4V1_011BpHwOmxNode26prepareForAdaptivePlaybackEjbjj"
  },
  {
   "name":"_ZN7android8hardware5media3omx4V1_011BpHwOmxNode27_hidl_getGraphicBufferUsageEPNS0_10IInterfaceEPNS0_7details16HidlInstrumentorEjNSt3__18functionIFvNS3_6StatusEjEEE"
  },
  {
   "name":"_ZN7android8hardware5media3omx4V1_011BpHwOmxNode30_hidl_configureVideoTunnelModeEPNS0_10IInterfaceEPNS0_7details16HidlInstrumentorEjbjNSt3__18functionIFvNS3_6StatusERKNS0_11hidl_handleEEEE"
  },
  {
   "name":"_ZN7android8hardware5media3omx4V1_011BpHwOmxNode32_hidl_prepareForAdaptivePlaybackEPNS0_10IInterfaceEPNS0_7details16HidlInstrumentorEjbjj"
  },
  {
   "name":"_ZN7android8hardware5media3omx4V1_011BpHwOmxNode4pingEv"
  },
  {
   "name":"_ZN7android8hardware5media3omx4V1_011BpHwOmxNode5debugERKNS0_11hidl_handleERKNS0_8hidl_vecINS0_11hidl_stringEEE"
  },
  {
   "name":"_ZN7android8hardware5media3omx4V1_011BpHwOmxNode8freeNodeEv"
  },
  {
   "name":"_ZN7android8hardware5media3omx4V1_011BpHwOmxNode9getConfigEjRKNS0_8hidl_vecIhEENSt3__18functionIFvNS3_6StatusES8_EEE"
  },
  {
   "name":"_ZN7android8hardware5media3omx4V1_011BpHwOmxNode9setConfigEjRKNS0_8hidl_vecIhEE"
  },
  {
   "name":"_ZN7android8hardware5media3omx4V1_011BpHwOmxNode9useBufferEjRKNS3_11CodecBufferENSt3__18functionIFvNS3_6StatusEjEEE"
  },
  {
   "name":"_ZN7android8hardware5media3omx4V1_011BpHwOmxNodeC1ERKNS_2spINS0_7IBinderEEE"
  },
  {
   "name":"_ZN7android8hardware5media3omx4V1_011BpHwOmxNodeC2ERKNS_2spINS0_7IBinderEEE"
  },
  {
   "name":"_ZN7android8hardware5media3omx4V1_012BnHwOmxStore10onTransactEjRKNS0_6ParcelEPS5_jNSt3__18functionIFvRS5_EEE"
  },
  {
   "name":"_ZN7android8hardware5media3omx4V1_012BnHwOmxStore12_hidl_getOmxEPNS_4hidl4base4V1_08BnHwBaseERKNS0_6ParcelEPSA_NSt3__18functionIFvRSA_EEE"
  },
  {
   "name":"_ZN7android8hardware5media3omx4V1_012BnHwOmxStore12getDebugInfoENSt3__18functionIFvRKNS_4hidl4base4V1_09DebugInfoEEEE"
  },
  {
   "name":"_ZN7android8hardware5media3omx4V1_012BnHwOmxStore15_hidl_listRolesEPNS_4hidl4base4V1_08BnHwBaseERKNS0_6ParcelEPSA_NSt3__18functionIFvRSA_EEE"
  },
  {
   "name":"_ZN7android8hardware5media3omx4V1_012BnHwOmxStore19_hidl_getNodePrefixEPNS_4hidl4base4V1_08BnHwBaseERKNS0_6ParcelEPSA_NSt3__18functionIFvRSA_EEE"
  },
  {
   "name":"_ZN7android8hardware5media3omx4V1_012BnHwOmxStore27_hidl_listServiceAttributesEPNS_4hidl4base4V1_08BnHwBaseERKNS0_6ParcelEPSA_NSt3__18functionIFvRSA_EEE"
  },
  {
   "name":"_ZN7android8hardware5media3omx4V1_012BnHwOmxStore4pingEv"
  },
  {
   "name":"_ZN7android8hardware5media3omx4V1_012BnHwOmxStoreC1ERKNS_2spINS3_9IOmxStoreEEE"
  },
  {
   "name":"_ZN7android8hardware5media3omx4V1_012BnHwOmxStoreC2ERKNS_2spINS3_9IOmxStoreEEE"
  },
  {
   "name":"_ZN7android8hardware5media3omx4V1_012BnHwOmxStoreD0Ev"
  },
  {
   "name":"_ZN7android8hardware5media3omx4V1_012BnHwOmxStoreD1Ev"
  },
  {
   "name":"_ZN7android8hardware5media3omx4V1_012BnHwOmxStoreD2Ev"
  },
  {
   "name":"_ZN7android8hardware5media3omx4V1_012BpHwOmxStore11linkToDeathERKNS_2spINS0_20hidl_death_recipientEEEm"
  },
  {
   "name":"_ZN7android8hardware5media3omx4V1_012BpHwOmxStore12_hidl_getOmxEPNS0_10IInterfaceEPNS0_7details16HidlInstrumentorERKNS0_11hidl_stringE"
  },
  {
   "name":"_ZN7android8hardware5media3omx4V1_012BpHwOmxStore12getDebugInfoENSt3__18functionIFvRKNS_4hidl4base4V1_09DebugInfoEEEE"
  },
  {
   "name":"_ZN7android8hardware5media3omx4V1_012BpHwOmxStore12getHashChainENSt3__18functionIFvRKNS0_8hidl_vecINS0_10hidl_arrayIhLm32EJEEEEEEEE"
  },
  {
   "name":"_ZN7android8hardware5media3omx4V1_012BpHwOmxStore13getNodePrefixENSt3__18functionIFvRKNS0_11hidl_stringEEEE"
  },
  {
   "name":"_ZN7android8hardware5media3omx4V1_012BpHwOmxStore13unlinkToDeathERKNS_2spINS0_20hidl_death_recipientEEE"
  },
  {
   "name":"_ZN7android8hardware5media3omx4V1_012BpHwOmxStore14interfaceChainENSt3__18functionIFvRKNS0_8hidl_vecINS0_11hidl_stringEEEEEE"
  },
  {
   "name":"_ZN7android8hardware5media3omx4V1_012BpHwOmxStore15_hidl_listRolesEPNS0_10IInterfaceEPNS0_7details16HidlInstrumentorENSt3__18functionIFvRKNS0_8hidl_vecINS3_9IOmxStore8RoleInfoEEEEEE"
  },
  {
   "name":"_ZN7android8hardware5media3omx4V1_012BpHwOmxStore19_hidl_getNodePrefixEPNS0_10IInterfaceEPNS0_7details16HidlInstrumentorENSt3__18functionIFvRKNS0_11hidl_stringEEEE"
  },
  {
   "name":"_ZN7android8hardware5media3omx4V1_012BpHwOmxStore19interfaceDescriptorENSt3__18functionIFvRKNS0_11hidl_stringEEEE"
  },
  {
   "name":"_ZN7android8hardware5media3omx4V1_012BpHwOmxStore21listServiceAttributesENSt3__18functionIFvNS3_6StatusERKNS0_8hidl_vecINS3_9IOmxStore9AttributeEEEEEE"
  },
  {
   "name":"_ZN7android8hardware5media3omx4V1_012BpHwOmxStore21notifySyspropsChangedEv"
  },
  {
   "name":"_ZN7android8hardware5media3omx4V1_012BpHwOmxStore21setHALInstrumentationEv"
  },
  {
   "name":"_ZN7android8hardware5media3omx4V1_012BpHwOmxStore27_hidl_listServiceAttributesEPNS0_10IInterfaceEPNS0_7details16HidlInstrumentorENSt3__18functionIFvNS3_6StatusERKNS0_8hidl_vecINS3_9IOmxStore9AttributeEEEEEE"
  },
  {
   "name":"_ZN7android8hardware5media3omx4V1_012BpHwOmxStore4pingEv"
  },
  {
   "name":"_ZN7android8hardware5media3omx4V1_012BpHwOmxStore5debugERKNS0_11hidl_handleERKNS0_8hidl_vecINS0_11hidl_stringEEE"
  },
  {
   "name":"_ZN7android8hardware5media3omx4V1_012BpHwOmxStore6getOmxERKNS0_11hidl_stringE"
  },
  {
   "name":"_ZN7android8hardware5media3omx4V1_012BpHwOmxStore9listRolesENSt3__18functionIFvRKNS0_8hidl_vecINS3_9IOmxStore8RoleInfoEEEEEE"
  },
  {
   "name":"_ZN7android8hardware5media3omx4V1_012BpHwOmxStoreC1ERKNS_2spINS0_7IBinderEEE"
  },
  {
   "name":"_ZN7android8hardware5media3omx4V1_012BpHwOmxStoreC2ERKNS_2spINS0_7IBinderEEE"
  },
  {
   "name":"_ZN7android8hardware5media3omx4V1_012IOmxObserver10getServiceERKNSt3__112basic_stringIcNS5_11char_traitsIcEENS5_9allocatorIcEEEEb"
  },
  {
   "name":"_ZN7android8hardware5media3omx4V1_012IOmxObserver11linkToDeathERKNS_2spINS0_20hidl_death_recipientEEEm"
  },
  {
   "name":"_ZN7android8hardware5media3omx4V1_012IOmxObserver12getDebugInfoENSt3__18functionIFvRKNS_4hidl4base4V1_09DebugInfoEEEE"
  },
  {
   "name":"_ZN7android8hardware5media3omx4V1_012IOmxObserver12getHashChainENSt3__18functionIFvRKNS0_8hidl_vecINS0_10hidl_arrayIhLm32EJEEEEEEEE"
  },
  {
   "name":"_ZN7android8hardware5media3omx4V1_012IOmxObserver13tryGetServiceERKNSt3__112basic_stringIcNS5_11char_traitsIcEENS5_9allocatorIcEEEEb"
  },
  {
   "name":"_ZN7android8hardware5media3omx4V1_012IOmxObserver13unlinkToDeathERKNS_2spINS0_20hidl_death_recipientEEE"
  },
  {
   "name":"_ZN7android8hardware5media3omx4V1_012IOmxObserver14interfaceChainENSt3__18functionIFvRKNS0_8hidl_vecINS0_11hidl_stringEEEEEE"
  },
  {
   "name":"_ZN7android8hardware5media3omx4V1_012IOmxObserver17registerAsServiceERKNSt3__112basic_stringIcNS5_11char_traitsIcEENS5_9allocatorIcEEEE"
  },
  {
   "name":"_ZN7android8hardware5media3omx4V1_012IOmxObserver19interfaceDescriptorENSt3__18functionIFvRKNS0_11hidl_stringEEEE"
  },
  {
   "name":"_ZN7android8hardware5media3omx4V1_012IOmxObserver21notifySyspropsChangedEv"
  },
  {
   "name":"_ZN7android8hardware5media3omx4V1_012IOmxObserver21setHALInstrumentationEv"
  },
  {
   "name":"_ZN7android8hardware5media3omx4V1_012IOmxObserver24registerForNotificationsERKNSt3__112basic_stringIcNS5_11char_traitsIcEENS5_9allocatorIcEEEERKNS_2spINS_4hidl7manager4V1_020IServiceNotificationEEE"
  },
  {
   "name":"_ZN7android8hardware5media3omx4V1_012IOmxObserver4pingEv"
  },
  {
   "name":"_ZN7android8hardware5media3omx4V1_012IOmxObserver5debugERKNS0_11hidl_handleERKNS0_8hidl_vecINS0_11hidl_stringEEE"
  },
  {
   "name":"_ZN7android8hardware5media3omx4V1_012IOmxObserver8castFromERKNS_2spINS_4hidl4base4V1_05IBaseEEEb"
  },
  {
   "name":"_ZN7android8hardware5media3omx4V1_012IOmxObserver8castFromERKNS_2spIS4_EEb"
  },
  {
   "name":"_ZN7android8hardware5media3omx4V1_013BsOmxObserver13addOnewayTaskENSt3__18functionIFvvEEE"
  },
  {
   "name":"_ZN7android8hardware5media3omx4V1_013BsOmxObserverC1ENS_2spINS3_12IOmxObserverEEE"
  },
  {
   "name":"_ZN7android8hardware5media3omx4V1_013BsOmxObserverC2ENS_2spINS3_12IOmxObserverEEE"
  },
  {
   "name":"_ZN7android8hardware5media3omx4V1_015BnHwOmxObserver10onTransactEjRKNS0_6ParcelEPS5_jNSt3__18functionIFvRS5_EEE"
  },
  {
   "name":"_ZN7android8hardware5media3omx4V1_015BnHwOmxObserver12getDebugInfoENSt3__18functionIFvRKNS_4hidl4base4V1_09DebugInfoEEEE"
  },
  {
   "name":"_ZN7android8hardware5media3omx4V1_015BnHwOmxObserver16_hidl_onMessagesEPNS_4hidl4base4V1_08BnHwBaseERKNS0_6ParcelEPSA_NSt3__18functionIFvRSA_EEE"
  },
  {
   "name":"_ZN7android8hardware5media3omx4V1_015BnHwOmxObserver4pingEv"
  },
  {
   "name":"_ZN7android8hardware5media3omx4V1_015BnHwOmxObserverC1ERKNS_2spINS3_12IOmxObserverEEE"
  },
  {
   "name":"_ZN7android8hardware5media3omx4V1_015BnHwOmxObserverC2ERKNS_2spINS3_12IOmxObserverEEE"
  },
  {
   "name":"_ZN7android8hardware5media3omx4V1_015BnHwOmxObserverD0Ev"
  },
  {
   "name":"_ZN7android8hardware5media3omx4V1_015BnHwOmxObserverD1Ev"
  },
  {
   "name":"_ZN7android8hardware5media3omx4V1_015BnHwOmxObserverD2Ev"
  },
  {
   "name":"_ZN7android8hardware5media3omx4V1_015BpHwOmxObserver10onMessagesERKNS0_8hidl_vecINS3_7MessageEEE"
  },
  {
   "name":"_ZN7android8hardware5media3omx4V1_015BpHwOmxObserver11linkToDeathERKNS_2spINS0_20hidl_death_recipientEEEm"
  },
  {
   "name":"_ZN7android8hardware5media3omx4V1_015BpHwOmxObserver12getDebugInfoENSt3__18functionIFvRKNS_4hidl4base4V1_09DebugInfoEEEE"
  },
  {
   "name":"_ZN7android8hardware5media3omx4V1_015BpHwOmxObserver12getHashChainENSt3__18functionIFvRKNS0_8hidl_vecINS0_10hidl_arrayIhLm32EJEEEEEEEE"
  },
  {
   "name":"_ZN7android8hardware5media3omx4V1_015BpHwOmxObserver13unlinkToDeathERKNS_2spINS0_20hidl_death_recipientEEE"
  },
  {
   "name":"_ZN7android8hardware5media3omx4V1_015BpHwOmxObserver14interfaceChainENSt3__18functionIFvRKNS0_8hidl_vecINS0_11hidl_stringEEEEEE"
  },
  {
   "name":"_ZN7android8hardware5media3omx4V1_015BpHwOmxObserver16_hidl_onMessagesEPNS0_10IInterfaceEPNS0_7details16HidlInstrumentorERKNS0_8hidl_vecINS3_7MessageEEE"
  },
  {
   "name":"_ZN7android8hardware5media3omx4V1_015BpHwOmxObserver19interfaceDescriptorENSt3__18functionIFvRKNS0_11hidl_stringEEEE"
  },
  {
   "name":"_ZN7android8hardware5media3omx4V1_015BpHwOmxObserver21notifySyspropsChangedEv"
  },
  {
   "name":"_ZN7android8hardware5media3omx4V1_015BpHwOmxObserver21setHALInstrumentationEv"
  },
  {
   "name":"_ZN7android8hardware5media3omx4V1_015BpHwOmxObserver4pingEv"
  },
  {
   "name":"_ZN7android8hardware5media3omx4V1_015BpHwOmxObserver5debugERKNS0_11hidl_handleERKNS0_8hidl_vecINS0_11hidl_stringEEE"
  },
  {
   "name":"_ZN7android8hardware5media3omx4V1_015BpHwOmxObserverC1ERKNS_2spINS0_7IBinderEEE"
  },
  {
   "name":"_ZN7android8hardware5media3omx4V1_015BpHwOmxObserverC2ERKNS_2spINS0_7IBinderEEE"
  },
  {
   "name":"_ZN7android8hardware5media3omx4V1_016IOmxBufferSource10getServiceERKNSt3__112basic_stringIcNS5_11char_traitsIcEENS5_9allocatorIcEEEEb"
  },
  {
   "name":"_ZN7android8hardware5media3omx4V1_016IOmxBufferSource11linkToDeathERKNS_2spINS0_20hidl_death_recipientEEEm"
  },
  {
   "name":"_ZN7android8hardware5media3omx4V1_016IOmxBufferSource12getDebugInfoENSt3__18functionIFvRKNS_4hidl4base4V1_09DebugInfoEEEE"
  },
  {
   "name":"_ZN7android8hardware5media3omx4V1_016IOmxBufferSource12getHashChainENSt3__18functionIFvRKNS0_8hidl_vecINS0_10hidl_arrayIhLm32EJEEEEEEEE"
  },
  {
   "name":"_ZN7android8hardware5media3omx4V1_016IOmxBufferSource13tryGetServiceERKNSt3__112basic_stringIcNS5_11char_traitsIcEENS5_9allocatorIcEEEEb"
  },
  {
   "name":"_ZN7android8hardware5media3omx4V1_016IOmxBufferSource13unlinkToDeathERKNS_2spINS0_20hidl_death_recipientEEE"
  },
  {
   "name":"_ZN7android8hardware5media3omx4V1_016IOmxBufferSource14interfaceChainENSt3__18functionIFvRKNS0_8hidl_vecINS0_11hidl_stringEEEEEE"
  },
  {
   "name":"_ZN7android8hardware5media3omx4V1_016IOmxBufferSource17registerAsServiceERKNSt3__112basic_stringIcNS5_11char_traitsIcEENS5_9allocatorIcEEEE"
  },
  {
   "name":"_ZN7android8hardware5media3omx4V1_016IOmxBufferSource19interfaceDescriptorENSt3__18functionIFvRKNS0_11hidl_stringEEEE"
  },
  {
   "name":"_ZN7android8hardware5media3omx4V1_016IOmxBufferSource21notifySyspropsChangedEv"
  },
  {
   "name":"_ZN7android8hardware5media3omx4V1_016IOmxBufferSource21setHALInstrumentationEv"
  },
  {
   "name":"_ZN7android8hardware5media3omx4V1_016IOmxBufferSource24registerForNotificationsERKNSt3__112basic_stringIcNS5_11char_traitsIcEENS5_9allocatorIcEEEERKNS_2spINS_4hidl7manager4V1_020IServiceNotificationEEE"
  },
  {
   "name":"_ZN7android8hardware5media3omx4V1_016IOmxBufferSource4pingEv"
  },
  {
   "name":"_ZN7android8hardware5media3omx4V1_016IOmxBufferSource5debugERKNS0_11hidl_handleERKNS0_8hidl_vecINS0_11hidl_stringEEE"
  },
  {
   "name":"_ZN7android8hardware5media3omx4V1_016IOmxBufferSource8castFromERKNS_2spINS_4hidl4base4V1_05IBaseEEEb"
  },
  {
   "name":"_ZN7android8hardware5media3omx4V1_016IOmxBufferSource8castFromERKNS_2spIS4_EEb"
  },
  {
   "name":"_ZN7android8hardware5media3omx4V1_017BsOmxBufferSource13addOnewayTaskENSt3__18functionIFvvEEE"
  },
  {
   "name":"_ZN7android8hardware5media3omx4V1_017BsOmxBufferSourceC1ENS_2spINS3_16IOmxBufferSourceEEE"
  },
  {
   "name":"_ZN7android8hardware5media3omx4V1_017BsOmxBufferSourceC2ENS_2spINS3_16IOmxBufferSourceEEE"
  },
  {
   "name":"_ZN7android8hardware5media3omx4V1_019BnHwOmxBufferSource10onTransactEjRKNS0_6ParcelEPS5_jNSt3__18functionIFvRS5_EEE"
  },
  {
   "name":"_ZN7android8hardware5media3omx4V1_019BnHwOmxBufferSource12getDebugInfoENSt3__18functionIFvRKNS_4hidl4base4V1_09DebugInfoEEEE"
  },
  {
   "name":"_ZN7android8hardware5media3omx4V1_019BnHwOmxBufferSource15_hidl_onOmxIdleEPNS_4hidl4base4V1_08BnHwBaseERKNS0_6ParcelEPSA_NSt3__18functionIFvRSA_EEE"
  },
  {
   "name":"_ZN7android8hardware5media3omx4V1_019BnHwOmxBufferSource17_hidl_onOmxLoadedEPNS_4hidl4base4V1_08BnHwBaseERKNS0_6ParcelEPSA_NSt3__18functionIFvRSA_EEE"
  },
  {
   "name":"_ZN7android8hardware5media3omx4V1_019BnHwOmxBufferSource20_hidl_onOmxExecutingEPNS_4hidl4base4V1_08BnHwBaseERKNS0_6ParcelEPSA_NSt3__18functionIFvRSA_EEE"
  },
  {
   "name":"_ZN7android8hardware5media3omx4V1_019BnHwOmxBufferSource24_hidl_onInputBufferAddedEPNS_4hidl4base4V1_08BnHwBaseERKNS0_6ParcelEPSA_NSt3__18functionIFvRSA_EEE"
  },
  {
   "name":"_ZN7android8hardware5media3omx4V1_019BnHwOmxBufferSource26_hidl_onInputBufferEmptiedEPNS_4hidl4base4V1_08BnHwBaseERKNS0_6ParcelEPSA_NSt3__18functionIFvRSA_EEE"
  },
  {
   "name":"_ZN7android8hardware5media3omx4V1_019BnHwOmxBufferSource4pingEv"
  },
  {
   "name":"_ZN7android8hardware5media3omx4V1_019BnHwOmxBufferSourceC1ERKNS_2spINS3_16IOmxBufferSourceEEE"
  },
  {
   "name":"_ZN7android8hardware5media3omx4V1_019BnHwOmxBufferSourceC2ERKNS_2spINS3_16IOmxBufferSourceEEE"
  },
  {
   "name":"_ZN7android8hardware5media3omx4V1_019BnHwOmxBufferSourceD0Ev"
  },
  {
   "name":"_ZN7android8hardware5media3omx4V1_019BnHwOmxBufferSourceD1Ev"
  },
  {
   "name":"_ZN7android8hardware5media3omx4V1_019BnHwOmxBufferSourceD2Ev"
  },
  {
   "name":"_ZN7android8hardware5media3omx4V1_019BpHwOmxBufferSource11linkToDeathERKNS_2spINS0_20hidl_death_recipientEEEm"
  },
  {
   "name":"_ZN7android8hardware5media3omx4V1_019BpHwOmxBufferSource11onOmxLoadedEv"
  },
  {
   "name":"_ZN7android8hardware5media3omx4V1_019BpHwOmxBufferSource12getDebugInfoENSt3__18functionIFvRKNS_4hidl4base4V1_09DebugInfoEEEE"
  },
  {
   "name":"_ZN7android8hardware5media3omx4V1_019BpHwOmxBufferSource12getHashChainENSt3__18functionIFvRKNS0_8hidl_vecINS0_10hidl_arrayIhLm32EJEEEEEEEE"
  },
  {
   "name":"_ZN7android8hardware5media3omx4V1_019BpHwOmxBufferSource13unlinkToDeathERKNS_2spINS0_20hidl_death_recipientEEE"
  },
  {
   "name":"_ZN7android8hardware5media3omx4V1_019BpHwOmxBufferSource14interfaceChainENSt3__18functionIFvRKNS0_8hidl_vecINS0_11hidl_stringEEEEEE"
  },
  {
   "name":"_ZN7android8hardware5media3omx4V1_019BpHwOmxBufferSource14onOmxExecutingEv"
  },
  {
   "name":"_ZN7android8hardware5media3omx4V1_019BpHwOmxBufferSource15_hidl_onOmxIdleEPNS0_10IInterfaceEPNS0_7details16HidlInstrumentorE"
  },
  {
   "name":"_ZN7android8hardware5media3omx4V1_019BpHwOmxBufferSource17_hidl_onOmxLoadedEPNS0_10IInterfaceEPNS0_7details16HidlInstrumentorE"
  },
  {
   "name":"_ZN7android8hardware5media3omx4V1_019BpHwOmxBufferSource18onInputBufferAddedEj"
  },
  {
   "name":"_ZN7android8hardware5media3omx4V1_019BpHwOmxBufferSource19interfaceDescriptorENSt3__18functionIFvRKNS0_11hidl_stringEEEE"
  },
  {
   "name":"_ZN7android8hardware5media3omx4V1_019BpHwOmxBufferSource20_hidl_onOmxExecutingEPNS0_10IInterfaceEPNS0_7details16HidlInstrumentorE"
  },
  {
   "name":"_ZN7android8hardware5media3omx4V1_019BpHwOmxBufferSource20onInputBufferEmptiedEjRKNS0_11hidl_handleE"
  },
  {
   "name":"_ZN7android8hardware5media3omx4V1_019BpHwOmxBufferSource21notifySyspropsChangedEv"
  },
  {
   "name":"_ZN7android8hardware5media3omx4V1_019BpHwOmxBufferSource21setHALInstrumentationEv"
  },
  {
   "name":"_ZN7android8hardware5media3omx4V1_019BpHwOmxBufferSource24_hidl_onInputBufferAddedEPNS0_10IInterfaceEPNS0_7details16HidlInstrumentorEj"
  },
  {
   "name":"_ZN7android8hardware5media3omx4V1_019BpHwOmxBufferSource26_hidl_onInputBufferEmptiedEPNS0_10IInterfaceEPNS0_7details16HidlInstrumentorEjRKNS0_11hidl_handleE"
  },
  {
   "name":"_ZN7android8hardware5media3omx4V1_019BpHwOmxBufferSource4pingEv"
  },
  {
   "name":"_ZN7android8hardware5media3omx4V1_019BpHwOmxBufferSource5debugERKNS0_11hidl_handleERKNS0_8hidl_vecINS0_11hidl_stringEEE"
  },
  {
   "name":"_ZN7android8hardware5media3omx4V1_019BpHwOmxBufferSource9onOmxIdleEv"
  },
  {
   "name":"_ZN7android8hardware5media3omx4V1_019BpHwOmxBufferSourceC1ERKNS_2spINS0_7IBinderEEE"
  },
  {
   "name":"_ZN7android8hardware5media3omx4V1_019BpHwOmxBufferSourceC2ERKNS_2spINS0_7IBinderEEE"
  },
  {
   "name":"_ZN7android8hardware5media3omx4V1_020IGraphicBufferSource10getServiceERKNSt3__112basic_stringIcNS5_11char_traitsIcEENS5_9allocatorIcEEEEb"
  },
  {
   "name":"_ZN7android8hardware5media3omx4V1_020IGraphicBufferSource11linkToDeathERKNS_2spINS0_20hidl_death_recipientEEEm"
  },
  {
   "name":"_ZN7android8hardware5media3omx4V1_020IGraphicBufferSource12getDebugInfoENSt3__18functionIFvRKNS_4hidl4base4V1_09DebugInfoEEEE"
  },
  {
   "name":"_ZN7android8hardware5media3omx4V1_020IGraphicBufferSource12getHashChainENSt3__18functionIFvRKNS0_8hidl_vecINS0_10hidl_arrayIhLm32EJEEEEEEEE"
  },
  {
   "name":"_ZN7android8hardware5media3omx4V1_020IGraphicBufferSource13tryGetServiceERKNSt3__112basic_stringIcNS5_11char_traitsIcEENS5_9allocatorIcEEEEb"
  },
  {
   "name":"_ZN7android8hardware5media3omx4V1_020IGraphicBufferSource13unlinkToDeathERKNS_2spINS0_20hidl_death_recipientEEE"
  },
  {
   "name":"_ZN7android8hardware5media3omx4V1_020IGraphicBufferSource14interfaceChainENSt3__18functionIFvRKNS0_8hidl_vecINS0_11hidl_stringEEEEEE"
  },
  {
   "name":"_ZN7android8hardware5media3omx4V1_020IGraphicBufferSource17registerAsServiceERKNSt3__112basic_stringIcNS5_11char_traitsIcEENS5_9allocatorIcEEEE"
  },
  {
   "name":"_ZN7android8hardware5media3omx4V1_020IGraphicBufferSource19interfaceDescriptorENSt3__18functionIFvRKNS0_11hidl_stringEEEE"
  },
  {
   "name":"_ZN7android8hardware5media3omx4V1_020IGraphicBufferSource21notifySyspropsChangedEv"
  },
  {
   "name":"_ZN7android8hardware5media3omx4V1_020IGraphicBufferSource21setHALInstrumentationEv"
  },
  {
   "name":"_ZN7android8hardware5media3omx4V1_020IGraphicBufferSource24registerForNotificationsERKNSt3__112basic_stringIcNS5_11char_traitsIcEENS5_9allocatorIcEEEERKNS_2spINS_4hidl7manager4V1_020IServiceNotificationEEE"
  },
  {
   "name":"_ZN7android8hardware5media3omx4V1_020IGraphicBufferSource4pingEv"
  },
  {
   "name":"_ZN7android8hardware5media3omx4V1_020IGraphicBufferSource5debugERKNS0_11hidl_handleERKNS0_8hidl_vecINS0_11hidl_stringEEE"
  },
  {
   "name":"_ZN7android8hardware5media3omx4V1_020IGraphicBufferSource8castFromERKNS_2spINS_4hidl4base4V1_05IBaseEEEb"
  },
  {
   "name":"_ZN7android8hardware5media3omx4V1_020IGraphicBufferSource8castFromERKNS_2spIS4_EEb"
  },
  {
   "name":"_ZN7android8hardware5media3omx4V1_021BsGraphicBufferSource13addOnewayTaskENSt3__18functionIFvvEEE"
  },
  {
   "name":"_ZN7android8hardware5media3omx4V1_021BsGraphicBufferSourceC1ENS_2spINS3_20IGraphicBufferSourceEEE"
  },
  {
   "name":"_ZN7android8hardware5media3omx4V1_021BsGraphicBufferSourceC2ENS_2spINS3_20IGraphicBufferSourceEEE"
  },
  {
   "name":"_ZN7android8hardware5media3omx4V1_021writeEmbeddedToParcelERKNS3_11CodecBufferEPNS0_6ParcelEmm"
  },
  {
   "name":"_ZN7android8hardware5media3omx4V1_021writeEmbeddedToParcelERKNS3_4IOmx13ComponentInfoEPNS0_6ParcelEmm"
  },
  {
   "name":"_ZN7android8hardware5media3omx4V1_021writeEmbeddedToParcelERKNS3_7MessageEPNS0_6ParcelEmm"
  },
  {
   "name":"_ZN7android8hardware5media3omx4V1_021writeEmbeddedToParcelERKNS3_9IOmxStore8NodeInfoEPNS0_6ParcelEmm"
  },
  {
   "name":"_ZN7android8hardware5media3omx4V1_021writeEmbeddedToParcelERKNS3_9IOmxStore8RoleInfoEPNS0_6ParcelEmm"
  },
  {
   "name":"_ZN7android8hardware5media3omx4V1_021writeEmbeddedToParcelERKNS3_9IOmxStore9AttributeEPNS0_6ParcelEmm"
  },
  {
   "name":"_ZN7android8hardware5media3omx4V1_022readEmbeddedFromParcelERKNS3_11CodecBufferERKNS0_6ParcelEmm"
  },
  {
   "name":"_ZN7android8hardware5media3omx4V1_022readEmbeddedFromParcelERKNS3_4IOmx13ComponentInfoERKNS0_6ParcelEmm"
  },
  {
   "name":"_ZN7android8hardware5media3omx4V1_022readEmbeddedFromParcelERKNS3_7MessageERKNS0_6ParcelEmm"
  },
  {
   "name":"_ZN7android8hardware5media3omx4V1_022readEmbeddedFromParcelERKNS3_9IOmxStore8NodeInfoERKNS0_6ParcelEmm"
  },
  {
   "name":"_ZN7android8hardware5media3omx4V1_022readEmbeddedFromParcelERKNS3_9IOmxStore8RoleInfoERKNS0_6ParcelEmm"
  },
  {
   "name":"_ZN7android8hardware5media3omx4V1_022readEmbeddedFromParcelERKNS3_9IOmxStore9AttributeERKNS0_6ParcelEmm"
  },
  {
   "name":"_ZN7android8hardware5media3omx4V1_023BnHwGraphicBufferSource10onTransactEjRKNS0_6ParcelEPS5_jNSt3__18functionIFvRS5_EEE"
  },
  {
   "name":"_ZN7android8hardware5media3omx4V1_023BnHwGraphicBufferSource12getDebugInfoENSt3__18functionIFvRKNS_4hidl4base4V1_09DebugInfoEEEE"
  },
  {
   "name":"_ZN7android8hardware5media3omx4V1_023BnHwGraphicBufferSource15_hidl_configureEPNS_4hidl4base4V1_08BnHwBaseERKNS0_6ParcelEPSA_NSt3__18functionIFvRSA_EEE"
  },
  {
   "name":"_ZN7android8hardware5media3omx4V1_023BnHwGraphicBufferSource15_hidl_setMaxFpsEPNS_4hidl4base4V1_08BnHwBaseERKNS0_6ParcelEPSA_NSt3__18functionIFvRSA_EEE"
  },
  {
   "name":"_ZN7android8hardware5media3omx4V1_023BnHwGraphicBufferSource16_hidl_setSuspendEPNS_4hidl4base4V1_08BnHwBaseERKNS0_6ParcelEPSA_NSt3__18functionIFvRSA_EEE"
  },
  {
   "name":"_ZN7android8hardware5media3omx4V1_023BnHwGraphicBufferSource19_hidl_setStopTimeUsEPNS_4hidl4base4V1_08BnHwBaseERKNS0_6ParcelEPSA_NSt3__18functionIFvRSA_EEE"
  },
  {
   "name":"_ZN7android8hardware5media3omx4V1_023BnHwGraphicBufferSource20_hidl_setStartTimeUsEPNS_4hidl4base4V1_08BnHwBaseERKNS0_6ParcelEPSA_NSt3__18functionIFvRSA_EEE"
  },
  {
   "name":"_ZN7android8hardware5media3omx4V1_023BnHwGraphicBufferSource21_hidl_setColorAspectsEPNS_4hidl4base4V1_08BnHwBaseERKNS0_6ParcelEPSA_NSt3__18functionIFvRSA_EEE"
  },
  {
   "name":"_ZN7android8hardware5media3omx4V1_023BnHwGraphicBufferSource21_hidl_setTimeOffsetUsEPNS_4hidl4base4V1_08BnHwBaseERKNS0_6ParcelEPSA_NSt3__18functionIFvRSA_EEE"
  },
  {
   "name":"_ZN7android8hardware5media3omx4V1_023BnHwGraphicBufferSource24_hidl_setTimeLapseConfigEPNS_4hidl4base4V1_08BnHwBaseERKNS0_6ParcelEPSA_NSt3__18functionIFvRSA_EEE"
  },
  {
   "name":"_ZN7android8hardware5media3omx4V1_023BnHwGraphicBufferSource25_hidl_getStopTimeOffsetUsEPNS_4hidl4base4V1_08BnHwBaseERKNS0_6ParcelEPSA_NSt3__18functionIFvRSA_EEE"
  },
  {
   "name":"_ZN7android8hardware5media3omx4V1_023BnHwGraphicBufferSource28_hidl_signalEndOfInputStreamEPNS_4hidl4base4V1_08BnHwBaseERKNS0_6ParcelEPSA_NSt3__18functionIFvRSA_EEE"
  },
  {
   "name":"_ZN7android8hardware5media3omx4V1_023BnHwGraphicBufferSource35_hidl_setRepeatPreviousFrameDelayUsEPNS_4hidl4base4V1_08BnHwBaseERKNS0_6ParcelEPSA_NSt3__18functionIFvRSA_EEE"
  },
  {
   "name":"_ZN7android8hardware5media3omx4V1_023BnHwGraphicBufferSource4pingEv"
  },
  {
   "name":"_ZN7android8hardware5media3omx4V1_023BnHwGraphicBufferSourceC1ERKNS_2spINS3_20IGraphicBufferSourceEEE"
  },
  {
   "name":"_ZN7android8hardware5media3omx4V1_023BnHwGraphicBufferSourceC2ERKNS_2spINS3_20IGraphicBufferSourceEEE"
  },
  {
   "name":"_ZN7android8hardware5media3omx4V1_023BnHwGraphicBufferSourceD0Ev"
  },
  {
   "name":"_ZN7android8hardware5media3omx4V1_023BnHwGraphicBufferSourceD1Ev"
  },
  {
   "name":"_ZN7android8hardware5media3omx4V1_023BnHwGraphicBufferSourceD2Ev"
  },
  {
   "name":"_ZN7android8hardware5media3omx4V1_023BpHwGraphicBufferSource10setSuspendEbl"
  },
  {
   "name":"_ZN7android8hardware5media3omx4V1_023BpHwGraphicBufferSource11linkToDeathERKNS_2spINS0_20hidl_death_recipientEEEm"
  },
  {
   "name":"_ZN7android8hardware5media3omx4V1_023BpHwGraphicBufferSource12getDebugInfoENSt3__18functionIFvRKNS_4hidl4base4V1_09DebugInfoEEEE"
  },
  {
   "name":"_ZN7android8hardware5media3omx4V1_023BpHwGraphicBufferSource12getHashChainENSt3__18functionIFvRKNS0_8hidl_vecINS0_10hidl_arrayIhLm32EJEEEEEEEE"
  },
  {
   "name":"_ZN7android8hardware5media3omx4V1_023BpHwGraphicBufferSource13setStopTimeUsEl"
  },
  {
   "name":"_ZN7android8hardware5media3omx4V1_023BpHwGraphicBufferSource13unlinkToDeathERKNS_2spINS0_20hidl_death_recipientEEE"
  },
  {
   "name":"_ZN7android8hardware5media3omx4V1_023BpHwGraphicBufferSource14interfaceChainENSt3__18functionIFvRKNS0_8hidl_vecINS0_11hidl_stringEEEEEE"
  },
  {
   "name":"_ZN7android8hardware5media3omx4V1_023BpHwGraphicBufferSource14setStartTimeUsEl"
  },
  {
   "name":"_ZN7android8hardware5media3omx4V1_023BpHwGraphicBufferSource15_hidl_configureEPNS0_10IInterfaceEPNS0_7details16HidlInstrumentorERKNS_2spINS3_8IOmxNodeEEENS0_8graphics6common4V1_09DataspaceE"
  },
  {
   "name":"_ZN7android8hardware5media3omx4V1_023BpHwGraphicBufferSource15_hidl_setMaxFpsEPNS0_10IInterfaceEPNS0_7details16HidlInstrumentorEf"
  },
  {
   "name":"_ZN7android8hardware5media3omx4V1_023BpHwGraphicBufferSource15setColorAspectsERKNS3_12ColorAspectsE"
  },
  {
   "name":"_ZN7android8hardware5media3omx4V1_023BpHwGraphicBufferSource15setTimeOffsetUsEl"
  },
  {
   "name":"_ZN7android8hardware5media3omx4V1_023BpHwGraphicBufferSource16_hidl_setSuspendEPNS0_10IInterfaceEPNS0_7details16HidlInstrumentorEbl"
  },
  {
   "name":"_ZN7android8hardware5media3omx4V1_023BpHwGraphicBufferSource18setTimeLapseConfigEdd"
  },
  {
   "name":"_ZN7android8hardware5media3omx4V1_023BpHwGraphicBufferSource19_hidl_setStopTimeUsEPNS0_10IInterfaceEPNS0_7details16HidlInstrumentorEl"
  },
  {
   "name":"_ZN7android8hardware5media3omx4V1_023BpHwGraphicBufferSource19getStopTimeOffsetUsENSt3__18functionIFvNS3_6StatusElEEE"
  },
  {
   "name":"_ZN7android8hardware5media3omx4V1_023BpHwGraphicBufferSource19interfaceDescriptorENSt3__18functionIFvRKNS0_11hidl_stringEEEE"
  },
  {
   "name":"_ZN7android8hardware5media3omx4V1_023BpHwGraphicBufferSource20_hidl_setStartTimeUsEPNS0_10IInterfaceEPNS0_7details16HidlInstrumentorEl"
  },
  {
   "name":"_ZN7android8hardware5media3omx4V1_023BpHwGraphicBufferSource21_hidl_setColorAspectsEPNS0_10IInterfaceEPNS0_7details16HidlInstrumentorERKNS3_12ColorAspectsE"
  },
  {
   "name":"_ZN7android8hardware5media3omx4V1_023BpHwGraphicBufferSource21_hidl_setTimeOffsetUsEPNS0_10IInterfaceEPNS0_7details16HidlInstrumentorEl"
  },
  {
   "name":"_ZN7android8hardware5media3omx4V1_023BpHwGraphicBufferSource21notifySyspropsChangedEv"
  },
  {
   "name":"_ZN7android8hardware5media3omx4V1_023BpHwGraphicBufferSource21setHALInstrumentationEv"
  },
  {
   "name":"_ZN7android8hardware5media3omx4V1_023BpHwGraphicBufferSource22signalEndOfInputStreamEv"
  },
  {
   "name":"_ZN7android8hardware5media3omx4V1_023BpHwGraphicBufferSource24_hidl_setTimeLapseConfigEPNS0_10IInterfaceEPNS0_7details16HidlInstrumentorEdd"
  },
  {
   "name":"_ZN7android8hardware5media3omx4V1_023BpHwGraphicBufferSource25_hidl_getStopTimeOffsetUsEPNS0_10IInterfaceEPNS0_7details16HidlInstrumentorENSt3__18functionIFvNS3_6StatusElEEE"
  },
  {
   "name":"_ZN7android8hardware5media3omx4V1_023BpHwGraphicBufferSource28_hidl_signalEndOfInputStreamEPNS0_10IInterfaceEPNS0_7details16HidlInstrumentorE"
  },
  {
   "name":"_ZN7android8hardware5media3omx4V1_023BpHwGraphicBufferSource29setRepeatPreviousFrameDelayUsEl"
  },
  {
   "name":"_ZN7android8hardware5media3omx4V1_023BpHwGraphicBufferSource35_hidl_setRepeatPreviousFrameDelayUsEPNS0_10IInterfaceEPNS0_7details16HidlInstrumentorEl"
  },
  {
   "name":"_ZN7android8hardware5media3omx4V1_023BpHwGraphicBufferSource4pingEv"
  },
  {
   "name":"_ZN7android8hardware5media3omx4V1_023BpHwGraphicBufferSource5debugERKNS0_11hidl_handleERKNS0_8hidl_vecINS0_11hidl_stringEEE"
  },
  {
   "name":"_ZN7android8hardware5media3omx4V1_023BpHwGraphicBufferSource9configureERKNS_2spINS3_8IOmxNodeEEENS0_8graphics6common4V1_09DataspaceE"
  },
  {
   "name":"_ZN7android8hardware5media3omx4V1_023BpHwGraphicBufferSource9setMaxFpsEf"
  },
  {
   "name":"_ZN7android8hardware5media3omx4V1_023BpHwGraphicBufferSourceC1ERKNS_2spINS0_7IBinderEEE"
  },
  {
   "name":"_ZN7android8hardware5media3omx4V1_023BpHwGraphicBufferSourceC2ERKNS_2spINS0_7IBinderEEE"
  },
  {
   "name":"_ZN7android8hardware5media3omx4V1_04IOmx10getServiceERKNSt3__112basic_stringIcNS5_11char_traitsIcEENS5_9allocatorIcEEEEb"
  },
  {
   "name":"_ZN7android8hardware5media3omx4V1_04IOmx11linkToDeathERKNS_2spINS0_20hidl_death_recipientEEEm"
  },
  {
   "name":"_ZN7android8hardware5media3omx4V1_04IOmx12getDebugInfoENSt3__18functionIFvRKNS_4hidl4base4V1_09DebugInfoEEEE"
  },
  {
   "name":"_ZN7android8hardware5media3omx4V1_04IOmx12getHashChainENSt3__18functionIFvRKNS0_8hidl_vecINS0_10hidl_arrayIhLm32EJEEEEEEEE"
  },
  {
   "name":"_ZN7android8hardware5media3omx4V1_04IOmx13tryGetServiceERKNSt3__112basic_stringIcNS5_11char_traitsIcEENS5_9allocatorIcEEEEb"
  },
  {
   "name":"_ZN7android8hardware5media3omx4V1_04IOmx13unlinkToDeathERKNS_2spINS0_20hidl_death_recipientEEE"
  },
  {
   "name":"_ZN7android8hardware5media3omx4V1_04IOmx14interfaceChainENSt3__18functionIFvRKNS0_8hidl_vecINS0_11hidl_stringEEEEEE"
  },
  {
   "name":"_ZN7android8hardware5media3omx4V1_04IOmx17registerAsServiceERKNSt3__112basic_stringIcNS5_11char_traitsIcEENS5_9allocatorIcEEEE"
  },
  {
   "name":"_ZN7android8hardware5media3omx4V1_04IOmx19interfaceDescriptorENSt3__18functionIFvRKNS0_11hidl_stringEEEE"
  },
  {
   "name":"_ZN7android8hardware5media3omx4V1_04IOmx21notifySyspropsChangedEv"
  },
  {
   "name":"_ZN7android8hardware5media3omx4V1_04IOmx21setHALInstrumentationEv"
  },
  {
   "name":"_ZN7android8hardware5media3omx4V1_04IOmx24registerForNotificationsERKNSt3__112basic_stringIcNS5_11char_traitsIcEENS5_9allocatorIcEEEERKNS_2spINS_4hidl7manager4V1_020IServiceNotificationEEE"
  },
  {
   "name":"_ZN7android8hardware5media3omx4V1_04IOmx4pingEv"
  },
  {
   "name":"_ZN7android8hardware5media3omx4V1_04IOmx5debugERKNS0_11hidl_handleERKNS0_8hidl_vecINS0_11hidl_stringEEE"
  },
  {
   "name":"_ZN7android8hardware5media3omx4V1_04IOmx8castFromERKNS_2spINS_4hidl4base4V1_05IBaseEEEb"
  },
  {
   "name":"_ZN7android8hardware5media3omx4V1_04IOmx8castFromERKNS_2spIS4_EEb"
  },
  {
   "name":"_ZN7android8hardware5media3omx4V1_05BsOmx13addOnewayTaskENSt3__18functionIFvvEEE"
  },
  {
   "name":"_ZN7android8hardware5media3omx4V1_05BsOmxC1ENS_2spINS3_4IOmxEEE"
  },
  {
   "name":"_ZN7android8hardware5media3omx4V1_05BsOmxC2ENS_2spINS3_4IOmxEEE"
  },
  {
   "name":"_ZN7android8hardware5media3omx4V1_07BnHwOmx10onTransactEjRKNS0_6ParcelEPS5_jNSt3__18functionIFvRS5_EEE"
  },
  {
   "name":"_ZN7android8hardware5media3omx4V1_07BnHwOmx12getDebugInfoENSt3__18functionIFvRKNS_4hidl4base4V1_09DebugInfoEEEE"
  },
  {
   "name":"_ZN7android8hardware5media3omx4V1_07BnHwOmx15_hidl_listNodesEPNS_4hidl4base4V1_08BnHwBaseERKNS0_6ParcelEPSA_NSt3__18functionIFvRSA_EEE"
  },
  {
   "name":"_ZN7android8hardware5media3omx4V1_07BnHwOmx18_hidl_allocateNodeEPNS_4hidl4base4V1_08BnHwBaseERKNS0_6ParcelEPSA_NSt3__18functionIFvRSA_EEE"
  },
  {
   "name":"_ZN7android8hardware5media3omx4V1_07BnHwOmx24_hidl_createInputSurfaceEPNS_4hidl4base4V1_08BnHwBaseERKNS0_6ParcelEPSA_NSt3__18functionIFvRSA_EEE"
  },
  {
   "name":"_ZN7android8hardware5media3omx4V1_07BnHwOmx4pingEv"
  },
  {
   "name":"_ZN7android8hardware5media3omx4V1_07BnHwOmxC1ERKNS_2spINS3_4IOmxEEE"
  },
  {
   "name":"_ZN7android8hardware5media3omx4V1_07BnHwOmxC2ERKNS_2spINS3_4IOmxEEE"
  },
  {
   "name":"_ZN7android8hardware5media3omx4V1_07BnHwOmxD0Ev"
  },
  {
   "name":"_ZN7android8hardware5media3omx4V1_07BnHwOmxD1Ev"
  },
  {
   "name":"_ZN7android8hardware5media3omx4V1_07BnHwOmxD2Ev"
  },
  {
   "name":"_ZN7android8hardware5media3omx4V1_07BpHwOmx11linkToDeathERKNS_2spINS0_20hidl_death_recipientEEEm"
  },
  {
   "name":"_ZN7android8hardware5media3omx4V1_07BpHwOmx12allocateNodeERKNS0_11hidl_stringERKNS_2spINS3_12IOmxObserverEEENSt3__18functionIFvNS3_6StatusERKNS8_INS3_8IOmxNodeEEEEEE"
  },
  {
   "name":"_ZN7android8hardware5media3omx4V1_07BpHwOmx12getDebugInfoENSt3__18functionIFvRKNS_4hidl4base4V1_09DebugInfoEEEE"
  },
  {
   "name":"_ZN7android8hardware5media3omx4V1_07BpHwOmx12getHashChainENSt3__18functionIFvRKNS0_8hidl_vecINS0_10hidl_arrayIhLm32EJEEEEEEEE"
  },
  {
   "name":"_ZN7android8hardware5media3omx4V1_07BpHwOmx13unlinkToDeathERKNS_2spINS0_20hidl_death_recipientEEE"
  },
  {
   "name":"_ZN7android8hardware5media3omx4V1_07BpHwOmx14interfaceChainENSt3__18functionIFvRKNS0_8hidl_vecINS0_11hidl_stringEEEEEE"
  },
  {
   "name":"_ZN7android8hardware5media3omx4V1_07BpHwOmx15_hidl_listNodesEPNS0_10IInterfaceEPNS0_7details16HidlInstrumentorENSt3__18functionIFvNS3_6StatusERKNS0_8hidl_vecINS3_4IOmx13ComponentInfoEEEEEE"
  },
  {
   "name":"_ZN7android8hardware5media3omx4V1_07BpHwOmx18_hidl_allocateNodeEPNS0_10IInterfaceEPNS0_7details16HidlInstrumentorERKNS0_11hidl_stringERKNS_2spINS3_12IOmxObserverEEENSt3__18functionIFvNS3_6StatusERKNSD_INS3_8IOmxNodeEEEEEE"
  },
  {
   "name":"_ZN7android8hardware5media3omx4V1_07BpHwOmx18createInputSurfaceENSt3__18functionIFvNS3_6StatusERKNS_2spINS0_8graphics11bufferqueue4V1_022IGraphicBufferProducerEEERKNS8_INS3_20IGraphicBufferSourceEEEEEE"
  },
  {
   "name":"_ZN7android8hardware5media3omx4V1_07BpHwOmx19interfaceDescriptorENSt3__18functionIFvRKNS0_11hidl_stringEEEE"
  },
  {
   "name":"_ZN7android8hardware5media3omx4V1_07BpHwOmx21notifySyspropsChangedEv"
  },
  {
   "name":"_ZN7android8hardware5media3omx4V1_07BpHwOmx21setHALInstrumentationEv"
  },
  {
   "name":"_ZN7android8hardware5media3omx4V1_07BpHwOmx24_hidl_createInputSurfaceEPNS0_10IInterfaceEPNS0_7details16HidlInstrumentorENSt3__18functionIFvNS3_6StatusERKNS_2spINS0_8graphics11bufferqueue4V1_022IGraphicBufferProducerEEERKNSD_INS3_20IGraphicBufferSourceEEEEEE"
  },
  {
   "name":"_ZN7android8hardware5media3omx4V1_07BpHwOmx4pingEv"
  },
  {
   "name":"_ZN7android8hardware5media3omx4V1_07BpHwOmx5debugERKNS0_11hidl_handleERKNS0_8hidl_vecINS0_11hidl_stringEEE"
  },
  {
   "name":"_ZN7android8hardware5media3omx4V1_07BpHwOmx9listNodesENSt3__18functionIFvNS3_6StatusERKNS0_8hidl_vecINS3_4IOmx13ComponentInfoEEEEEE"
  },
  {
   "name":"_ZN7android8hardware5media3omx4V1_07BpHwOmxC1ERKNS_2spINS0_7IBinderEEE"
  },
  {
   "name":"_ZN7android8hardware5media3omx4V1_07BpHwOmxC2ERKNS_2spINS0_7IBinderEEE"
  },
  {
   "name":"_ZN7android8hardware5media3omx4V1_08IOmxNode10getServiceERKNSt3__112basic_stringIcNS5_11char_traitsIcEENS5_9allocatorIcEEEEb"
  },
  {
   "name":"_ZN7android8hardware5media3omx4V1_08IOmxNode11linkToDeathERKNS_2spINS0_20hidl_death_recipientEEEm"
  },
  {
   "name":"_ZN7android8hardware5media3omx4V1_08IOmxNode12getDebugInfoENSt3__18functionIFvRKNS_4hidl4base4V1_09DebugInfoEEEE"
  },
  {
   "name":"_ZN7android8hardware5media3omx4V1_08IOmxNode12getHashChainENSt3__18functionIFvRKNS0_8hidl_vecINS0_10hidl_arrayIhLm32EJEEEEEEEE"
  },
  {
   "name":"_ZN7android8hardware5media3omx4V1_08IOmxNode13tryGetServiceERKNSt3__112basic_stringIcNS5_11char_traitsIcEENS5_9allocatorIcEEEEb"
  },
  {
   "name":"_ZN7android8hardware5media3omx4V1_08IOmxNode13unlinkToDeathERKNS_2spINS0_20hidl_death_recipientEEE"
  },
  {
   "name":"_ZN7android8hardware5media3omx4V1_08IOmxNode14interfaceChainENSt3__18functionIFvRKNS0_8hidl_vecINS0_11hidl_stringEEEEEE"
  },
  {
   "name":"_ZN7android8hardware5media3omx4V1_08IOmxNode17registerAsServiceERKNSt3__112basic_stringIcNS5_11char_traitsIcEENS5_9allocatorIcEEEE"
  },
  {
   "name":"_ZN7android8hardware5media3omx4V1_08IOmxNode19interfaceDescriptorENSt3__18functionIFvRKNS0_11hidl_stringEEEE"
  },
  {
   "name":"_ZN7android8hardware5media3omx4V1_08IOmxNode21notifySyspropsChangedEv"
  },
  {
   "name":"_ZN7android8hardware5media3omx4V1_08IOmxNode21setHALInstrumentationEv"
  },
  {
   "name":"_ZN7android8hardware5media3omx4V1_08IOmxNode24registerForNotificationsERKNSt3__112basic_stringIcNS5_11char_traitsIcEENS5_9allocatorIcEEEERKNS_2spINS_4hidl7manager4V1_020IServiceNotificationEEE"
  },
  {
   "name":"_ZN7android8hardware5media3omx4V1_08IOmxNode4pingEv"
  },
  {
   "name":"_ZN7android8hardware5media3omx4V1_08IOmxNode5debugERKNS0_11hidl_handleERKNS0_8hidl_vecINS0_11hidl_stringEEE"
  },
  {
   "name":"_ZN7android8hardware5media3omx4V1_08IOmxNode8castFromERKNS_2spINS_4hidl4base4V1_05IBaseEEEb"
  },
  {
   "name":"_ZN7android8hardware5media3omx4V1_08IOmxNode8castFromERKNS_2spIS4_EEb"
  },
  {
   "name":"_ZN7android8hardware5media3omx4V1_09BsOmxNode13addOnewayTaskENSt3__18functionIFvvEEE"
  },
  {
   "name":"_ZN7android8hardware5media3omx4V1_09BsOmxNodeC1ENS_2spINS3_8IOmxNodeEEE"
  },
  {
   "name":"_ZN7android8hardware5media3omx4V1_09BsOmxNodeC2ENS_2spINS3_8IOmxNodeEEE"
  },
  {
   "name":"_ZN7android8hardware5media3omx4V1_09IOmxStore10getServiceERKNSt3__112basic_stringIcNS5_11char_traitsIcEENS5_9allocatorIcEEEEb"
  },
  {
   "name":"_ZN7android8hardware5media3omx4V1_09IOmxStore11linkToDeathERKNS_2spINS0_20hidl_death_recipientEEEm"
  },
  {
   "name":"_ZN7android8hardware5media3omx4V1_09IOmxStore12getDebugInfoENSt3__18functionIFvRKNS_4hidl4base4V1_09DebugInfoEEEE"
  },
  {
   "name":"_ZN7android8hardware5media3omx4V1_09IOmxStore12getHashChainENSt3__18functionIFvRKNS0_8hidl_vecINS0_10hidl_arrayIhLm32EJEEEEEEEE"
  },
  {
   "name":"_ZN7android8hardware5media3omx4V1_09IOmxStore13tryGetServiceERKNSt3__112basic_stringIcNS5_11char_traitsIcEENS5_9allocatorIcEEEEb"
  },
  {
   "name":"_ZN7android8hardware5media3omx4V1_09IOmxStore13unlinkToDeathERKNS_2spINS0_20hidl_death_recipientEEE"
  },
  {
   "name":"_ZN7android8hardware5media3omx4V1_09IOmxStore14interfaceChainENSt3__18functionIFvRKNS0_8hidl_vecINS0_11hidl_stringEEEEEE"
  },
  {
   "name":"_ZN7android8hardware5media3omx4V1_09IOmxStore17registerAsServiceERKNSt3__112basic_stringIcNS5_11char_traitsIcEENS5_9allocatorIcEEEE"
  },
  {
   "name":"_ZN7android8hardware5media3omx4V1_09IOmxStore19interfaceDescriptorENSt3__18functionIFvRKNS0_11hidl_stringEEEE"
  },
  {
   "name":"_ZN7android8hardware5media3omx4V1_09IOmxStore21notifySyspropsChangedEv"
  },
  {
   "name":"_ZN7android8hardware5media3omx4V1_09IOmxStore21setHALInstrumentationEv"
  },
  {
   "name":"_ZN7android8hardware5media3omx4V1_09IOmxStore24registerForNotificationsERKNSt3__112basic_stringIcNS5_11char_traitsIcEENS5_9allocatorIcEEEERKNS_2spINS_4hidl7manager4V1_020IServiceNotificationEEE"
  },
  {
   "name":"_ZN7android8hardware5media3omx4V1_09IOmxStore4pingEv"
  },
  {
   "name":"_ZN7android8hardware5media3omx4V1_09IOmxStore5debugERKNS0_11hidl_handleERKNS0_8hidl_vecINS0_11hidl_stringEEE"
  },
  {
   "name":"_ZN7android8hardware5media3omx4V1_09IOmxStore8castFromERKNS_2spINS_4hidl4base4V1_05IBaseEEEb"
  },
  {
   "name":"_ZN7android8hardware5media3omx4V1_09IOmxStore8castFromERKNS_2spIS4_EEb"
  },
  {
   "binding":"weak",
   "name":"_ZN7android8hardware7details13castInterfaceINS0_5media3omx4V1_012IOmxObserverENS_4hidl4base4V1_05IBaseENS5_15BpHwOmxObserverEEENS0_6ReturnINS_2spIT_EEEENSD_IT0_EEPKcb"
  },
  {
   "binding":"weak",
   "name":"_ZN7android8hardware7details13castInterfaceINS0_5media3omx4V1_016IOmxBufferSourceENS_4hidl4base4V1_05IBaseENS5_19BpHwOmxBufferSourceEEENS0_6ReturnINS_2spIT_EEEENSD_IT0_EEPKcb"
  },
  {
   "binding":"weak",
   "name":"_ZN7android8hardware7details13castInterfaceINS0_5media3omx4V1_020IGraphicBufferSourceENS_4hidl4base4V1_05IBaseENS5_23BpHwGraphicBufferSourceEEENS0_6ReturnINS_2spIT_EEEENSD_IT0_EEPKcb"
  },
  {
   "binding":"weak",
   "name":"_ZN7android8hardware7details13castInterfaceINS0_5media3omx4V1_04IOmxENS_4hidl4base4V1_05IBaseENS5_7BpHwOmxEEENS0_6ReturnINS_2spIT_EEEENSD_IT0_EEPKcb"
  },
  {
   "binding":"weak",
   "name":"_ZN7android8hardware7details13castInterfaceINS0_5media3omx4V1_08IOmxNodeENS_4hidl4base4V1_05IBaseENS5_11BpHwOmxNodeEEENS0_6ReturnINS_2spIT_EEEENSD_IT0_EEPKcb"
  },
  {
   "binding":"weak",
   "name":"_ZN7android8hardware7details13castInterfaceINS0_5media3omx4V1_09IOmxStoreENS_4hidl4base4V1_05IBaseENS5_12BpHwOmxStoreEEENS0_6ReturnINS_2spIT_EEEENSD_IT0_EEPKcb"
  },
  {
   "binding":"weak",
   "name":"_ZN7android8hardware7details15wrapPassthroughINS0_5media3omx4V1_012IOmxObserverEvEENS_2spIT_EES9_"
  },
  {
   "binding":"weak",
   "name":"_ZN7android8hardware7details15wrapPassthroughINS0_5media3omx4V1_016IOmxBufferSourceEvEENS_2spIT_EES9_"
  },
  {
   "binding":"weak",
   "name":"_ZN7android8hardware7details15wrapPassthroughINS0_5media3omx4V1_020IGraphicBufferSourceEvEENS_2spIT_EES9_"
  },
  {
   "binding":"weak",
   "name":"_ZN7android8hardware7details15wrapPassthroughINS0_5media3omx4V1_08IOmxNodeEvEENS_2spIT_EES9_"
  },
  {
   "binding":"weak",
   "name":"_ZN7android8hardware7details15wrapPassthroughINS0_8graphics11bufferqueue4V1_022IGraphicBufferProducerEvEENS_2spIT_EES9_"
  },
  {
   "binding":"weak",
   "name":"_ZN7android8hardware7details18getServiceInternalINS0_5media3omx4V1_011BpHwOmxNodeENS5_8IOmxNodeEvvEENS_2spIT0_EERKNSt3__112basic_stringIcNSB_11char_traitsIcEENSB_9allocatorIcEEEEbb"
  },
  {
   "binding":"weak",
   "name":"_ZN7android8hardware7details18getServiceInternalINS0_5media3omx4V1_012BpHwOmxStoreENS5_9IOmxStoreEvvEENS_2spIT0_EERKNSt3__112basic_stringIcNSB_11char_traitsIcEENSB_9allocatorIcEEEEbb"
  },
  {
   "binding":"weak",
   "name":"_ZN7android8hardware7details18getServiceInternalINS0_5media3omx4V1_015BpHwOmxObserverENS5_12IOmxObserverEvvEENS_2spIT0_EERKNSt3__112basic_stringIcNSB_11char_traitsIcEENSB_9allocatorIcEEEEbb"
  },
  {
   "binding":"weak",
   "name":"_ZN7android8hardware7details18getServiceInternalINS0_5media3omx4V1_019BpHwOmxBufferSourceENS5_16IOmxBufferSourceEvvEENS_2spIT0_EERKNSt3__112basic_stringIcNSB_11char_traitsIcEENSB_9allocatorIcEEEEbb"
  },
  {
   "binding":"weak",
   "name":"_ZN7android8hardware7details18getServiceInternalINS0_5media3omx4V1_023BpHwGraphicBufferSourceENS5_20IGraphicBufferSourceEvvEENS_2spIT0_EERKNSt3__112basic_stringIcNSB_11char_traitsIcEENSB_9allocatorIcEEEEbb"
  },
  {
   "binding":"weak",
   "name":"_ZN7android8hardware7details18getServiceInternalINS0_5media3omx4V1_07BpHwOmxENS5_4IOmxEvvEENS_2spIT0_EERKNSt3__112basic_stringIcNSB_11char_traitsIcEENSB_9allocatorIcEEEEbb"
  },
  {
   "binding":"weak",
   "name":"_ZN7android8hardware8toBinderINS0_5media3omx4V1_012IOmxObserverEvEENS_2spINS0_7IBinderEEENS6_IT_EE"
  },
  {
   "binding":"weak",
   "name":"_ZN7android8hardware8toBinderINS0_5media3omx4V1_016IOmxBufferSourceEvEENS_2spINS0_7IBinderEEENS6_IT_EE"
  },
  {
   "binding":"weak",
   "name":"_ZN7android8hardware8toBinderINS0_5media3omx4V1_020IGraphicBufferSourceEvEENS_2spINS0_7IBinderEEENS6_IT_EE"
  },
  {
   "binding":"weak",
   "name":"_ZN7android8hardware8toBinderINS0_5media3omx4V1_04IOmxEvEENS_2spINS0_7IBinderEEENS6_IT_EE"
  },
  {
   "binding":"weak",
   "name":"_ZN7android8hardware8toBinderINS0_5media3omx4V1_08IOmxNodeEvEENS_2spINS0_7IBinderEEENS6_IT_EE"
  },
  {
   "binding":"weak",
   "name":"_ZN7android8hardware8toBinderINS0_8graphics11bufferqueue4V1_022IGraphicBufferProducerEvEENS_2spINS0_7IBinderEEENS6_IT_EE"
  },
  {
   "binding":"weak",
   "name":"_ZN7android8hardware8toBinderINS_4hidl4base4V1_05IBaseEvEENS_2spINS0_7IBinderEEENS6_IT_EE"
  },
  {
   "name":"_ZThn32_N7android8hardware5media3omx4V1_011BnHwOmxNodeD0Ev"
  },
  {
   "name":"_ZThn32_N7android8hardware5media3omx4V1_011BnHwOmxNodeD1Ev"
  },
  {
   "name":"_ZThn32_N7android8hardware5media3omx4V1_012BnHwOmxStoreD0Ev"
  },
  {
   "name":"_ZThn32_N7android8hardware5media3omx4V1_012BnHwOmxStoreD1Ev"
  },
  {
   "name":"_ZThn32_N7android8hardware5media3omx4V1_015BnHwOmxObserverD0Ev"
  },
  {
   "name":"_ZThn32_N7android8hardware5media3omx4V1_015BnHwOmxObserverD1Ev"
  },
  {
   "name":"_ZThn32_N7android8hardware5media3omx4V1_019BnHwOmxBufferSourceD0Ev"
  },
  {
   "name":"_ZThn32_N7android8hardware5media3omx4V1_019BnHwOmxBufferSourceD1Ev"
  },
  {
   "name":"_ZThn32_N7android8hardware5media3omx4V1_023BnHwGraphicBufferSourceD0Ev"
  },
  {
   "name":"_ZThn32_N7android8hardware5media3omx4V1_023BnHwGraphicBufferSourceD1Ev"
  },
  {
   "name":"_ZThn32_N7android8hardware5media3omx4V1_07BnHwOmxD0Ev"
  },
  {
   "name":"_ZThn32_N7android8hardware5media3omx4V1_07BnHwOmxD1Ev"
  },
  {
   "name":"_ZTv0_n24_N7android8hardware5media3omx4V1_011BnHwOmxNodeD0Ev"
  },
  {
   "name":"_ZTv0_n24_N7android8hardware5media3omx4V1_011BnHwOmxNodeD1Ev"
  },
  {
   "name":"_ZTv0_n24_N7android8hardware5media3omx4V1_012BnHwOmxStoreD0Ev"
  },
  {
   "name":"_ZTv0_n24_N7android8hardware5media3omx4V1_012BnHwOmxStoreD1Ev"
  },
  {
   "name":"_ZTv0_n24_N7android8hardware5media3omx4V1_015BnHwOmxObserverD0Ev"
  },
  {
   "name":"_ZTv0_n24_N7android8hardware5media3omx4V1_015BnHwOmxObserverD1Ev"
  },
  {
   "name":"_ZTv0_n24_N7android8hardware5media3omx4V1_019BnHwOmxBufferSourceD0Ev"
  },
  {
   "name":"_ZTv0_n24_N7android8hardware5media3omx4V1_019BnHwOmxBufferSourceD1Ev"
  },
  {
   "name":"_ZTv0_n24_N7android8hardware5media3omx4V1_023BnHwGraphicBufferSourceD0Ev"
  },
  {
   "name":"_ZTv0_n24_N7android8hardware5media3omx4V1_023BnHwGraphicBufferSourceD1Ev"
  },
  {
   "name":"_ZTv0_n24_N7android8hardware5media3omx4V1_07BnHwOmxD0Ev"
  },
  {
   "name":"_ZTv0_n24_N7android8hardware5media3omx4V1_07BnHwOmxD1Ev"
  }
 ],
 "elf_objects":[
  {
   "name":"_ZN7android8hardware5media3omx4V1_012IOmxObserver10descriptorE"
  },
  {
   "name":"_ZN7android8hardware5media3omx4V1_016IOmxBufferSource10descriptorE"
  },
  {
   "name":"_ZN7android8hardware5media3omx4V1_020IGraphicBufferSource10descriptorE"
  },
  {
   "name":"_ZN7android8hardware5media3omx4V1_04IOmx10descriptorE"
  },
  {
   "name":"_ZN7android8hardware5media3omx4V1_08IOmxNode10descriptorE"
  },
  {
   "name":"_ZN7android8hardware5media3omx4V1_09IOmxStore10descriptorE"
  },
  {
   "name":"_ZTTN7android8hardware5media3omx4V1_011BnHwOmxNodeE"
  },
  {
   "name":"_ZTTN7android8hardware5media3omx4V1_011BpHwOmxNodeE"
  },
  {
   "name":"_ZTTN7android8hardware5media3omx4V1_012BnHwOmxStoreE"
  },
  {
   "name":"_ZTTN7android8hardware5media3omx4V1_012BpHwOmxStoreE"
  },
  {
   "name":"_ZTTN7android8hardware5media3omx4V1_012IOmxObserverE"
  },
  {
   "name":"_ZTTN7android8hardware5media3omx4V1_015BnHwOmxObserverE"
  },
  {
   "name":"_ZTTN7android8hardware5media3omx4V1_015BpHwOmxObserverE"
  },
  {
   "name":"_ZTTN7android8hardware5media3omx4V1_016IOmxBufferSourceE"
  },
  {
   "name":"_ZTTN7android8hardware5media3omx4V1_019BnHwOmxBufferSourceE"
  },
  {
   "name":"_ZTTN7android8hardware5media3omx4V1_019BpHwOmxBufferSourceE"
  },
  {
   "name":"_ZTTN7android8hardware5media3omx4V1_020IGraphicBufferSourceE"
  },
  {
   "name":"_ZTTN7android8hardware5media3omx4V1_023BnHwGraphicBufferSourceE"
  },
  {
   "name":"_ZTTN7android8hardware5media3omx4V1_023BpHwGraphicBufferSourceE"
  },
  {
   "name":"_ZTTN7android8hardware5media3omx4V1_04IOmxE"
  },
  {
   "name":"_ZTTN7android8hardware5media3omx4V1_07BnHwOmxE"
  },
  {
   "name":"_ZTTN7android8hardware5media3omx4V1_07BpHwOmxE"
  },
  {
   "name":"_ZTTN7android8hardware5media3omx4V1_08IOmxNodeE"
  },
  {
   "name":"_ZTTN7android8hardware5media3omx4V1_09IOmxStoreE"
  },
  {
   "binding":"weak",
   "name":"_ZTVN7android8hardware5media3omx4V1_010BsOmxStoreE"
  },
  {
   "name":"_ZTVN7android8hardware5media3omx4V1_011BnHwOmxNodeE"
  },
  {
   "name":"_ZTVN7android8hardware5media3omx4V1_011BpHwOmxNodeE"
  },
  {
   "name":"_ZTVN7android8hardware5media3omx4V1_012BnHwOmxStoreE"
  },
  {
   "name":"_ZTVN7android8hardware5media3omx4V1_012BpHwOmxStoreE"
  },
  {
   "name":"_ZTVN7android8hardware5media3omx4V1_012IOmxObserverE"
  },
  {
   "binding":"weak",
   "name":"_ZTVN7android8hardware5media3omx4V1_013BsOmxObserverE"
  },
  {
   "name":"_ZTVN7android8hardware5media3omx4V1_015BnHwOmxObserverE"
  },
  {
   "name":"_ZTVN7android8hardware5media3omx4V1_015BpHwOmxObserverE"
  },
  {
   "name":"_ZTVN7android8hardware5media3omx4V1_016IOmxBufferSourceE"
  },
  {
   "binding":"weak",
   "name":"_ZTVN7android8hardware5media3omx4V1_017BsOmxBufferSourceE"
  },
  {
   "name":"_ZTVN7android8hardware5media3omx4V1_019BnHwOmxBufferSourceE"
  },
  {
   "name":"_ZTVN7android8hardware5media3omx4V1_019BpHwOmxBufferSourceE"
  },
  {
   "name":"_ZTVN7android8hardware5media3omx4V1_020IGraphicBufferSourceE"
  },
  {
   "binding":"weak",
   "name":"_ZTVN7android8hardware5media3omx4V1_021BsGraphicBufferSourceE"
  },
  {
   "name":"_ZTVN7android8hardware5media3omx4V1_023BnHwGraphicBufferSourceE"
  },
  {
   "name":"_ZTVN7android8hardware5media3omx4V1_023BpHwGraphicBufferSourceE"
  },
  {
   "name":"_ZTVN7android8hardware5media3omx4V1_04IOmxE"
  },
  {
   "binding":"weak",
   "name":"_ZTVN7android8hardware5media3omx4V1_05BsOmxE"
  },
  {
   "name":"_ZTVN7android8hardware5media3omx4V1_07BnHwOmxE"
  },
  {
   "name":"_ZTVN7android8hardware5media3omx4V1_07BpHwOmxE"
  },
  {
   "name":"_ZTVN7android8hardware5media3omx4V1_08IOmxNodeE"
  },
  {
   "binding":"weak",
   "name":"_ZTVN7android8hardware5media3omx4V1_09BsOmxNodeE"
  },
  {
   "name":"_ZTVN7android8hardware5media3omx4V1_09IOmxStoreE"
  }
 ]
}