{
 "record_types":[
  {
   "vtable_components":[
    {
     "kind":"vbase_offset",
     "component_value":8
    },
    {
     "kind":"offset_to_top"
    },
    {
     "kind":"rtti",
     "mangled_component_name":"_ZTIN7android8hardware10contexthub4V1_011IContexthubE"
    },
    {
     "mangled_component_name":"_ZNK7android8hardware10contexthub4V1_011IContexthub8isRemoteEv"
    },
    {
     "mangled_component_name":"_ZN7android8hardware10contexthub4V1_011IContexthub14interfaceChainENSt3__18functionIFvRKNS0_8hidl_vecINS0_11hidl_stringEEEEEE"
    },
    {
     "mangled_component_name":"_ZN7android8hardware10contexthub4V1_011IContexthub5debugERKNS0_11hidl_handleERKNS0_8hidl_vecINS0_11hidl_stringEEE"
    },
    {
     "mangled_component_name":"_ZN7android8hardware10contexthub4V1_011IContexthub19interfaceDescriptorENSt3__18functionIFvRKNS0_11hidl_stringEEEE"
    },
    {
     "mangled_component_name":"_ZN7android8hardware10contexthub4V1_011IContexthub12getHashChainENSt3__18functionIFvRKNS0_8hidl_vecINS0_10hidl_arrayIhLm32EJEEEEEEEE"
    },
    {
     "mangled_component_name":"_ZN7android8hardware10contexthub4V1_011IContexthub21setHALInstrumentationEv"
    },
    {
     "mangled_component_name":"_ZN7android8hardware10contexthub4V1_011IContexthub11linkToDeathERKNS_2spINS0_20hidl_death_recipientEEEm"
    },
    {
     "mangled_component_name":"_ZN7android8hardware10contexthub4V1_011IContexthub4pingEv"
    },
    {
     "mangled_component_name":"_ZN7android8hardware10contexthub4V1_011IContexthub12getDebugInfoENSt3__18functionIFvRKNS_4hidl4base4V1_09DebugInfoEEEE"
    },
    {
     "mangled_component_name":"_ZN7android8hardware10contexthub4V1_011IContexthub21notifySyspropsChangedEv"
    },
    {
     "mangled_component_name":"_ZN7android8hardware10contexthub4V1_011IContexthub13unlinkToDeathERKNS_2spINS0_20hidl_death_recipientEEE"
    },
    {
     "kind":"complete_dtor_pointer",
     "mangled_component_name":"_ZN7android8hardware10contexthub4V1_011IContexthubD1Ev"
    },
    {
     "kind":"deleting_dtor_pointer",
     "mangled_component_name":"_ZN7android8hardware10contexthub4V1_011IContexthubD0Ev"
    },
    {
     "is_pure":true,
     "mangled_component_name":"_ZN7android8hardware10contexthub4V1_011IContexthub7getHubsENSt3__18functionIFvRKNS0_8hidl_vecINS2_10ContextHubEEEEEE"
    },
    {
     "is_pure":true,
     "mangled_component_name":"_ZN7android8hardware10contexthub4V1_011IContexthub16registerCallbackEjRKNS_2spINS2_19IContexthubCallbackEEE"
    },
    {
     "is_pure":true,
     "mangled_component_name":"_ZN7android8hardware10contexthub4V1_011IContexthub16sendMessageToHubEjRKNS2_13ContextHubMsgE"
    },
    {
     "is_pure":true,
     "mangled_component_name":"_ZN7android8hardware10contexthub4V1_011IContexthub11loadNanoAppEjRKNS2_13NanoAppBinaryEj"
    },
    {
     "is_pure":true,
     "mangled_component_name":"_ZN7android8hardware10contexthub4V1_011IContexthub13unloadNanoAppEjmj"
    },
    {
     "is_pure":true,
     "mangled_component_name":"_ZN7android8hardware10contexthub4V1_011IContexthub13enableNanoAppEjmj"
    },
    {
     "is_pure":true,
     "mangled_component_name":"_ZN7android8hardware10contexthub4V1_011IContexthub14disableNanoAppEjmj"
    },
    {
     "is_pure":true,
     "mangled_component_name":"_ZN7android8hardware10contexthub4V1_011IContexthub9queryAppsEj"
    },
    {
     "kind":"vcall_offset"
    },
    {
     "kind":"vcall_offset"
    },
    {
     "kind":"vcall_offset"
    },
    {
     "kind":"vcall_offset"
    },
    {
     "kind":"vcall_offset",
     "component_value":-8
    },
    {
     "kind":"offset_to_top",
     "component_value":-8
    },
    {
     "kind":"rtti",
     "mangled_component_name":"_ZTIN7android8hardware10contexthub4V1_011IContexthubE"
    },
    {
     "kind":"complete_dtor_pointer",
     "mangled_component_name":"_ZTv0_n24_N7android8hardware10contexthub4V1_011IContexthubD1Ev"
    },
    {
     "kind":"deleting_dtor_pointer",
     "mangled_component_name":"_ZTv0_n24_N7android8hardware10contexthub4V1_011IContexthubD0Ev"
    },
    {
     "mangled_component_name":"_ZN7android7RefBase10onFirstRefEv"
    },
    {
     "mangled_component_name":"_ZN7android7RefBase15onLastStrongRefEPKv"
    },
    {
     "mangled_component_name":"_ZN7android7RefBase20onIncStrongAttemptedEjPKv"
    },
    {
     "mangled_component_name":"_ZN7android7RefBase13onLastWeakRefEPKv"
    }
   ],
   "unique_id":"_ZTSN7android8hardware10contexthub4V1_011IContexthubE"
  },
  {
   "vtable_components":[
    {
     "kind":"vbase_offset",
     "component_value":200
    },
    {
     "kind":"offset_to_top"
    },
    {
     "kind":"rtti",
     "mangled_component_name":"_ZTIN7android8hardware10contexthub4V1_022BpHwContexthubCallbackE"
    },
    {
     "mangled_component_name":"_ZNK7android8hardware10contexthub4V1_022BpHwContexthubCallback8isRemoteEv"
    },
    {
     "mangled_component_name":"_ZN7android8hardware10contexthub4V1_022BpHwContexthubCallback14interfaceChainENSt3__18functionIFvRKNS0_8hidl_vecINS0_11hidl_stringEEEEEE"
    },
    {
     "mangled_component_name":"_ZN7android8hardware10contexthub4V1_022BpHwContexthubCallback5debugERKNS0_11hidl_handleERKNS0_8hidl_vecINS0_11hidl_stringEEE"
    },
    {
     "mangled_component_name":"_ZN7android8hardware10contexthub4V1_022BpHwContexthubCallback19interfaceDescriptorENSt3__18functionIFvRKNS0_11hidl_stringEEEE"
    },
    {
     "mangled_component_name":"_ZN7android8hardware10contexthub4V1_022BpHwContexthubCallback12getHashChainENSt3__18functionIFvRKNS0_8hidl_vecINS0_10hidl_arrayIhLm32EJEEEEEEEE"
    },
    {
     "mangled_component_name":"_ZN7android8hardware10contexthub4V1_022BpHwContexthubCallback21setHALInstrumentationEv"
    },
    {
     "mangled_component_name":"_ZN7android8hardware10contexthub4V1_022BpHwContexthubCallback11linkToDeathERKNS_2spINS0_20hidl_death_recipientEEEm"
    },
    {
     "mangled_component_name":"_ZN7android8hardware10contexthub4V1_022BpHwContexthubCallback4pingEv"
    },
    {
     "mangled_component_name":"_ZN7android8hardware10contexthub4V1_022BpHwContexthubCallback12getDebugInfoENSt3__18functionIFvRKNS_4hidl4base4V1_09DebugInfoEEEE"
    },
    {
     "mangled_component_name":"_ZN7android8hardware10contexthub4V1_022BpHwContexthubCallback21notifySyspropsChangedEv"
    },
    {
     "mangled_component_name":"_ZN7android8hardware10contexthub4V1_022BpHwContexthubCallback13unlinkToDeathERKNS_2spINS0_20hidl_death_recipientEEE"
    },
    {
     "kind":"complete_dtor_pointer",
     "mangled_component_name":"_ZN7android8hardware10contexthub4V1_022BpHwContexthubCallbackD1Ev"
    },
    {
     "kind":"deleting_dtor_pointer",
     "mangled_component_name":"_ZN7android8hardware10contexthub4V1_022BpHwContexthubCallbackD0Ev"
    },
    {
     "mangled_component_name":"_ZN7android8hardware10contexthub4V1_022BpHwContexthubCallback15handleClientMsgERKNS2_13ContextHubMsgE"
    },
    {
     "mangled_component_name":"_ZN7android8hardware10contexthub4V1_022BpHwContexthubCallback15handleTxnResultEjNS2_17TransactionResultE"
    },
    {
     "mangled_component_name":"_ZN7android8hardware10contexthub4V1_022BpHwContexthubCallback14handleHubEventENS2_14AsyncEventTypeE"
    },
    {
     "mangled_component_name":"_ZN7android8hardware10contexthub4V1_022BpHwContexthubCallback14handleAppAbortEmj"
    },
    {
     "mangled_component_name":"_ZN7android8hardware10contexthub4V1_022BpHwContexthubCallback14handleAppsInfoERKNS0_8hidl_vecINS2_10HubAppInfoEEE"
    },
    {
     "mangled_component_name":"_ZN7android8hardware11BpInterfaceINS0_10contexthub4V1_019IContexthubCallbackEE10onAsBinderEv"
    },
    {
     "kind":"vbase_offset",
     "component_value":192
    },
    {
     "kind":"offset_to_top",
     "component_value":-8
    },
    {
     "kind":"rtti",
     "mangled_component_name":"_ZTIN7android8hardware10contexthub4V1_022BpHwContexthubCallbackE"
    },
    {
     "kind":"complete_dtor_pointer",
     "mangled_component_name":"_ZThn8_N7android8hardware10contexthub4V1_022BpHwContexthubCallbackD1Ev"
    },
    {
     "kind":"deleting_dtor_pointer",
     "mangled_component_name":"_ZThn8_N7android8hardware10contexthub4V1_022BpHwContexthubCallbackD0Ev"
    },
    {
     "mangled_component_name":"_ZThn8_N7android8hardware11BpInterfaceINS0_10contexthub4V1_019IContexthubCallbackEE10onAsBinderEv"
    },
    {
     "kind":"vbase_offset",
     "component_value":184
    },
    {
     "kind":"offset_to_top",
     "component_value":-16
    },
    {
     "kind":"rtti",
     "mangled_component_name":"_ZTIN7android8hardware10contexthub4V1_022BpHwContexthubCallbackE"
    },
    {
     "kind":"complete_dtor_pointer",
     "mangled_component_name":"_ZThn16_N7android8hardware10contexthub4V1_022BpHwContexthubCallbackD1Ev"
    },
    {
     "kind":"deleting_dtor_pointer",
     "mangled_component_name":"_ZThn16_N7android8hardware10contexthub4V1_022BpHwContexthubCallbackD0Ev"
    },
    {
     "mangled_component_name":"_ZN7android8hardware11BpHwRefBase10onFirstRefEv"
    },
    {
     "mangled_component_name":"_ZN7android8hardware11BpHwRefBase15onLastStrongRefEPKv"
    },
    {
     "mangled_component_name":"_ZN7android8hardware11BpHwRefBase20onIncStrongAttemptedEjPKv"
    },
    {
     "kind":"offset_to_top",
     "component_value":-48
    },
    {
     "kind":"rtti",
     "mangled_component_name":"_ZTIN7android8hardware10contexthub4V1_022BpHwContexthubCallbackE"
    },
    {
     "kind":"complete_dtor_pointer",
     "mangled_component_name":"_ZThn48_N7android8hardware10contexthub4V1_022BpHwContexthubCallbackD1Ev"
    },
    {
     "kind":"deleting_dtor_pointer",
     "mangled_component_name":"_ZThn48_N7android8hardware10contexthub4V1_022BpHwContexthubCallbackD0Ev"
    },
    {
     "kind":"vcall_offset"
    },
    {
     "kind":"vcall_offset",
     "component_value":-184
    },
    {
     "kind":"vcall_offset",
     "component_value":-184
    },
    {
     "kind":"vcall_offset",
     "component_value":-184
    },
    {
     "kind":"vcall_offset",
     "component_value":-200
    },
    {
     "kind":"offset_to_top",
     "component_value":-200
    },
    {
     "kind":"rtti",
     "mangled_component_name":"_ZTIN7android8hardware10contexthub4V1_022BpHwContexthubCallbackE"
    },
    {
     "kind":"complete_dtor_pointer",
     "mangled_component_name":"_ZTv0_n24_N7android8hardware10contexthub4V1_022BpHwContexthubCallbackD1Ev"
    },
    {
     "kind":"deleting_dtor_pointer",
     "mangled_component_name":"_ZTv0_n24_N7android8hardware10contexthub4V1_022BpHwContexthubCallbackD0Ev"
    },
    {
     "mangled_component_name":"_ZTv0_n32_N7android8hardware11BpHwRefBase10onFirstRefEv"
    },
    {
     "mangled_component_name":"_ZTv0_n40_N7android8hardware11BpHwRefBase15onLastStrongRefEPKv"
    },
    {
     "mangled_component_name":"_ZTv0_n48_N7android8hardware11BpHwRefBase20onIncStrongAttemptedEjPKv"
    },
    {
     "mangled_component_name":"_ZN7android7RefBase13onLastWeakRefEPKv"
    }
   ],
   "unique_id":"_ZTSN7android8hardware10contexthub4V1_022BpHwContexthubCallbackE"
  },
  {
   "vtable_components":[
    {
     "kind":"vbase_offset",
     "component_value":136
    },
    {
     "kind":"offset_to_top"
    },
    {
     "kind":"rtti",
     "mangled_component_name":"_ZTIN7android8hardware10contexthub4V1_022BnHwContexthubCallbackE"
    },
    {
     "mangled_component_name":"_ZN7android8hardware9BHwBinder8transactEjRKNS0_6ParcelEPS2_jNSt3__18functionIFvRS2_EEE"
    },
    {
     "mangled_component_name":"_ZN7android8hardware9BHwBinder11linkToDeathERKNS_2spINS0_7IBinder14DeathRecipientEEEPvj"
    },
    {
     "mangled_component_name":"_ZN7android8hardware9BHwBinder13unlinkToDeathERKNS_2wpINS0_7IBinder14DeathRecipientEEEPvjPS5_"
    },
    {
     "mangled_component_name":"_ZNK7android8hardware7IBinder13checkSubclassEPKv"
    },
    {
     "mangled_component_name":"_ZN7android8hardware9BHwBinder12attachObjectEPKvPvS4_PFvS3_S4_S4_E"
    },
    {
     "mangled_component_name":"_ZNK7android8hardware9BHwBinder10findObjectEPKv"
    },
    {
     "mangled_component_name":"_ZN7android8hardware9BHwBinder12detachObjectEPKv"
    },
    {
     "mangled_component_name":"_ZN7android8hardware9BHwBinder11localBinderEv"
    },
    {
     "mangled_component_name":"_ZN7android8hardware7IBinder12remoteBinderEv"
    },
    {
     "kind":"complete_dtor_pointer",
     "mangled_component_name":"_ZN7android8hardware10contexthub4V1_022BnHwContexthubCallbackD1Ev"
    },
    {
     "kind":"deleting_dtor_pointer",
     "mangled_component_name":"_ZN7android8hardware10contexthub4V1_022BnHwContexthubCallbackD0Ev"
    },
    {
     "mangled_component_name":"_ZN7android8hardware10contexthub4V1_022BnHwContexthubCallback10onTransactEjRKNS0_6ParcelEPS4_jNSt3__18functionIFvRS4_EEE"
    },
    {
     "kind":"offset_to_top",
     "component_value":-32
    },
    {
     "kind":"rtti",
     "mangled_component_name":"_ZTIN7android8hardware10contexthub4V1_022BnHwContexthubCallbackE"
    },
    {
     "kind":"complete_dtor_pointer",
     "mangled_component_name":"_ZThn32_N7android8hardware10contexthub4V1_022BnHwContexthubCallbackD1Ev"
    },
    {
     "kind":"deleting_dtor_pointer",
     "mangled_component_name":"_ZThn32_N7android8hardware10contexthub4V1_022BnHwContexthubCallbackD0Ev"
    },
    {
     "kind":"vcall_offset"
    },
    {
     "kind":"vcall_offset"
    },
    {
     "kind":"vcall_offset"
    },
    {
     "kind":"vcall_offset"
    },
    {
     "kind":"vcall_offset",
     "component_value":-136
    },
    {
     "kind":"offset_to_top",
     "component_value":-136
    },
    {
     "kind":"rtti",
     "mangled_component_name":"_ZTIN7android8hardware10contexthub4V1_022BnHwContexthubCallbackE"
    },
    {
     "kind":"complete_dtor_pointer",
     "mangled_component_name":"_ZTv0_n24_N7android8hardware10contexthub4V1_022BnHwContexthubCallbackD1Ev"
    },
    {
     "kind":"deleting_dtor_pointer",
     "mangled_component_name":"_ZTv0_n24_N7android8hardware10contexthub4V1_022BnHwContexthubCallbackD0Ev"
    },
    {
     "mangled_component_name":"_ZN7android7RefBase10onFirstRefEv"
    },
    {
     "mangled_component_name":"_ZN7android7RefBase15onLastStrongRefEPKv"
    },
    {
     "mangled_component_name":"_ZN7android7RefBase20onIncStrongAttemptedEjPKv"
    },
    {
     "mangled_component_name":"_ZN7android7RefBase13onLastWeakRefEPKv"
    }
   ],
   "unique_id":"_ZTSN7android8hardware10contexthub4V1_022BnHwContexthubCallbackE"
  },
  {
   "vtable_components":[
    {
     "kind":"vbase_offset",
     "component_value":136
    },
    {
     "kind":"offset_to_top"
    },
    {
     "kind":"rtti",
     "mangled_component_name":"_ZTIN7android8hardware10contexthub4V1_014BnHwContexthubE"
    },
    {
     "mangled_component_name":"_ZN7android8hardware9BHwBinder8transactEjRKNS0_6ParcelEPS2_jNSt3__18functionIFvRS2_EEE"
    },
    {
     "mangled_component_name":"_ZN7android8hardware9BHwBinder11linkToDeathERKNS_2spINS0_7IBinder14DeathRecipientEEEPvj"
    },
    {
     "mangled_component_name":"_ZN7android8hardware9BHwBinder13unlinkToDeathERKNS_2wpINS0_7IBinder14DeathRecipientEEEPvjPS5_"
    },
    {
     "mangled_component_name":"_ZNK7android8hardware7IBinder13checkSubclassEPKv"
    },
    {
     "mangled_component_name":"_ZN7android8hardware9BHwBinder12attachObjectEPKvPvS4_PFvS3_S4_S4_E"
    },
    {
     "mangled_component_name":"_ZNK7android8hardware9BHwBinder10findObjectEPKv"
    },
    {
     "mangled_component_name":"_ZN7android8hardware9BHwBinder12detachObjectEPKv"
    },
    {
     "mangled_component_name":"_ZN7android8hardware9BHwBinder11localBinderEv"
    },
    {
     "mangled_component_name":"_ZN7android8hardware7IBinder12remoteBinderEv"
    },
    {
     "kind":"complete_dtor_pointer",
     "mangled_component_name":"_ZN7android8hardware10contexthub4V1_014BnHwContexthubD1Ev"
    },
    {
     "kind":"deleting_dtor_pointer",
     "mangled_component_name":"_ZN7android8hardware10contexthub4V1_014BnHwContexthubD0Ev"
    },
    {
     "mangled_component_name":"_ZN7android8hardware10contexthub4V1_014BnHwContexthub10onTransactEjRKNS0_6ParcelEPS4_jNSt3__18functionIFvRS4_EEE"
    },
    {
     "kind":"offset_to_top",
     "component_value":-32
    },
    {
     "kind":"rtti",
     "mangled_component_name":"_ZTIN7android8hardware10contexthub4V1_014BnHwContexthubE"
    },
    {
     "kind":"complete_dtor_pointer",
     "mangled_component_name":"_ZThn32_N7android8hardware10contexthub4V1_014BnHwContexthubD1Ev"
    },
    {
     "kind":"deleting_dtor_pointer",
     "mangled_component_name":"_ZThn32_N7android8hardware10contexthub4V1_014BnHwContexthubD0Ev"
    },
    {
     "kind":"vcall_offset"
    },
    {
     "kind":"vcall_offset"
    },
    {
     "kind":"vcall_offset"
    },
    {
     "kind":"vcall_offset"
    },
    {
     "kind":"vcall_offset",
     "component_value":-136
    },
    {
     "kind":"offset_to_top",
     "component_value":-136
    },
    {
     "kind":"rtti",
     "mangled_component_name":"_ZTIN7android8hardware10contexthub4V1_014BnHwContexthubE"
    },
    {
     "kind":"complete_dtor_pointer",
     "mangled_component_name":"_ZTv0_n24_N7android8hardware10contexthub4V1_014BnHwContexthubD1Ev"
    },
    {
     "kind":"deleting_dtor_pointer",
     "mangled_component_name":"_ZTv0_n24_N7android8hardware10contexthub4V1_014BnHwContexthubD0Ev"
    },
    {
     "mangled_component_name":"_ZN7android7RefBase10onFirstRefEv"
    },
    {
     "mangled_component_name":"_ZN7android7RefBase15onLastStrongRefEPKv"
    },
    {
     "mangled_component_name":"_ZN7android7RefBase20onIncStrongAttemptedEjPKv"
    },
    {
     "mangled_component_name":"_ZN7android7RefBase13onLastWeakRefEPKv"
    }
   ],
   "unique_id":"_ZTSN7android8hardware10contexthub4V1_014BnHwContexthubE"
  },
  {
   "vtable_components":[
    {
     "kind":"vbase_offset",
     "component_value":8
    },
    {
     "kind":"offset_to_top"
    },
    {
     "kind":"rtti",
     "mangled_component_name":"_ZTIN7android8hardware10contexthub4V1_019IContexthubCallbackE"
    },
    {
     "mangled_component_name":"_ZNK7android8hardware10contexthub4V1_019IContexthubCallback8isRemoteEv"
    },
    {
     "mangled_component_name":"_ZN7android8hardware10contexthub4V1_019IContexthubCallback14interfaceChainENSt3__18functionIFvRKNS0_8hidl_vecINS0_11hidl_stringEEEEEE"
    },
    {
     "mangled_component_name":"_ZN7android8hardware10contexthub4V1_019IContexthubCallback5debugERKNS0_11hidl_handleERKNS0_8hidl_vecINS0_11hidl_stringEEE"
    },
    {
     "mangled_component_name":"_ZN7android8hardware10contexthub4V1_019IContexthubCallback19interfaceDescriptorENSt3__18functionIFvRKNS0_11hidl_stringEEEE"
    },
    {
     "mangled_component_name":"_ZN7android8hardware10contexthub4V1_019IContexthubCallback12getHashChainENSt3__18functionIFvRKNS0_8hidl_vecINS0_10hidl_arrayIhLm32EJEEEEEEEE"
    },
    {
     "mangled_component_name":"_ZN7android8hardware10contexthub4V1_019IContexthubCallback21setHALInstrumentationEv"
    },
    {
     "mangled_component_name":"_ZN7android8hardware10contexthub4V1_019IContexthubCallback11linkToDeathERKNS_2spINS0_20hidl_death_recipientEEEm"
    },
    {
     "mangled_component_name":"_ZN7android8hardware10contexthub4V1_019IContexthubCallback4pingEv"
    },
    {
     "mangled_component_name":"_ZN7android8hardware10contexthub4V1_019IContexthubCallback12getDebugInfoENSt3__18functionIFvRKNS_4hidl4base4V1_09DebugInfoEEEE"
    },
    {
     "mangled_component_name":"_ZN7android8hardware10contexthub4V1_019IContexthubCallback21notifySyspropsChangedEv"
    },
    {
     "mangled_component_name":"_ZN7android8hardware10contexthub4V1_019IContexthubCallback13unlinkToDeathERKNS_2spINS0_20hidl_death_recipientEEE"
    },
    {
     "kind":"complete_dtor_pointer",
     "mangled_component_name":"_ZN7android8hardware10contexthub4V1_019IContexthubCallbackD1Ev"
    },
    {
     "kind":"deleting_dtor_pointer",
     "mangled_component_name":"_ZN7android8hardware10contexthub4V1_019IContexthubCallbackD0Ev"
    },
    {
     "is_pure":true,
     "mangled_component_name":"_ZN7android8hardware10contexthub4V1_019IContexthubCallback15handleClientMsgERKNS2_13ContextHubMsgE"
    },
    {
     "is_pure":true,
     "mangled_component_name":"_ZN7android8hardware10contexthub4V1_019IContexthubCallback15handleTxnResultEjNS2_17TransactionResultE"
    },
    {
     "is_pure":true,
     "mangled_component_name":"_ZN7android8hardware10contexthub4V1_019IContexthubCallback14handleHubEventENS2_14AsyncEventTypeE"
    },
    {
     "is_pure":true,
     "mangled_component_name":"_ZN7android8hardware10contexthub4V1_019IContexthubCallback14handleAppAbortEmj"
    },
    {
     "is_pure":true,
     "mangled_component_name":"_ZN7android8hardware10contexthub4V1_019IContexthubCallback14handleAppsInfoERKNS0_8hidl_vecINS2_10HubAppInfoEEE"
    },
    {
     "kind":"vcall_offset"
    },
    {
     "kind":"vcall_offset"
    },
    {
     "kind":"vcall_offset"
    },
    {
     "kind":"vcall_offset"
    },
    {
     "kind":"vcall_offset",
     "component_value":-8
    },
    {
     "kind":"offset_to_top",
     "component_value":-8
    },
    {
     "kind":"rtti",
     "mangled_component_name":"_ZTIN7android8hardware10contexthub4V1_019IContexthubCallbackE"
    },
    {
     "kind":"complete_dtor_pointer",
     "mangled_component_name":"_ZTv0_n24_N7android8hardware10contexthub4V1_019IContexthubCallbackD1Ev"
    },
    {
     "kind":"deleting_dtor_pointer",
     "mangled_component_name":"_ZTv0_n24_N7android8hardware10contexthub4V1_019IContexthubCallbackD0Ev"
    },
    {
     "mangled_component_name":"_ZN7android7RefBase10onFirstRefEv"
    },
    {
     "mangled_component_name":"_ZN7android7RefBase15onLastStrongRefEPKv"
    },
    {
     "mangled_component_name":"_ZN7android7RefBase20onIncStrongAttemptedEjPKv"
    },
    {
     "mangled_component_name":"_ZN7android7RefBase13onLastWeakRefEPKv"
    }
   ],
   "unique_id":"_ZTSN7android8hardware10contexthub4V1_019IContexthubCallbackE"
  },
  {
   "vtable_components":[
    {
     "kind":"vbase_offset",
     "component_value":200
    },
    {
     "kind":"offset_to_top"
    },
    {
     "kind":"rtti",
     "mangled_component_name":"_ZTIN7android8hardware10contexthub4V1_014BpHwContexthubE"
    },
    {
     "mangled_component_name":"_ZNK7android8hardware10contexthub4V1_014BpHwContexthub8isRemoteEv"
    },
    {
     "mangled_component_name":"_ZN7android8hardware10contexthub4V1_014BpHwContexthub14interfaceChainENSt3__18functionIFvRKNS0_8hidl_vecINS0_11hidl_stringEEEEEE"
    },
    {
     "mangled_component_name":"_ZN7android8hardware10contexthub4V1_014BpHwContexthub5debugERKNS0_11hidl_handleERKNS0_8hidl_vecINS0_11hidl_stringEEE"
    },
    {
     "mangled_component_name":"_ZN7android8hardware10contexthub4V1_014BpHwContexthub19interfaceDescriptorENSt3__18functionIFvRKNS0_11hidl_stringEEEE"
    },
    {
     "mangled_component_name":"_ZN7android8hardware10contexthub4V1_014BpHwContexthub12getHashChainENSt3__18functionIFvRKNS0_8hidl_vecINS0_10hidl_arrayIhLm32EJEEEEEEEE"
    },
    {
     "mangled_component_name":"_ZN7android8hardware10contexthub4V1_014BpHwContexthub21setHALInstrumentationEv"
    },
    {
     "mangled_component_name":"_ZN7android8hardware10contexthub4V1_014BpHwContexthub11linkToDeathERKNS_2spINS0_20hidl_death_recipientEEEm"
    },
    {
     "mangled_component_name":"_ZN7android8hardware10contexthub4V1_014BpHwContexthub4pingEv"
    },
    {
     "mangled_component_name":"_ZN7android8hardware10contexthub4V1_014BpHwContexthub12getDebugInfoENSt3__18functionIFvRKNS_4hidl4base4V1_09DebugInfoEEEE"
    },
    {
     "mangled_component_name":"_ZN7android8hardware10contexthub4V1_014BpHwContexthub21notifySyspropsChangedEv"
    },
    {
     "mangled_component_name":"_ZN7android8hardware10contexthub4V1_014BpHwContexthub13unlinkToDeathERKNS_2spINS0_20hidl_death_recipientEEE"
    },
    {
     "kind":"complete_dtor_pointer",
     "mangled_component_name":"_ZN7android8hardware10contexthub4V1_014BpHwContexthubD1Ev"
    },
    {
     "kind":"deleting_dtor_pointer",
     "mangled_component_name":"_ZN7android8hardware10contexthub4V1_014BpHwContexthubD0Ev"
    },
    {
     "mangled_component_name":"_ZN7android8hardware10contexthub4V1_014BpHwContexthub7getHubsENSt3__18functionIFvRKNS0_8hidl_vecINS2_10ContextHubEEEEEE"
    },
    {
     "mangled_component_name":"_ZN7android8hardware10contexthub4V1_014BpHwContexthub16registerCallbackEjRKNS_2spINS2_19IContexthubCallbackEEE"
    },
    {
     "mangled_component_name":"_ZN7android8hardware10contexthub4V1_014BpHwContexthub16sendMessageToHubEjRKNS2_13ContextHubMsgE"
    },
    {
     "mangled_component_name":"_ZN7android8hardware10contexthub4V1_014BpHwContexthub11loadNanoAppEjRKNS2_13NanoAppBinaryEj"
    },
    {
     "mangled_component_name":"_ZN7android8hardware10contexthub4V1_014BpHwContexthub13unloadNanoAppEjmj"
    },
    {
     "mangled_component_name":"_ZN7android8hardware10contexthub4V1_014BpHwContexthub13enableNanoAppEjmj"
    },
    {
     "mangled_component_name":"_ZN7android8hardware10contexthub4V1_014BpHwContexthub14disableNanoAppEjmj"
    },
    {
     "mangled_component_name":"_ZN7android8hardware10contexthub4V1_014BpHwContexthub9queryAppsEj"
    },
    {
     "mangled_component_name":"_ZN7android8hardware11BpInterfaceINS0_10contexthub4V1_011IContexthubEE10onAsBinderEv"
    },
    {
     "kind":"vbase_offset",
     "component_value":192
    },
    {
     "kind":"offset_to_top",
     "component_value":-8
    },
    {
     "kind":"rtti",
     "mangled_component_name":"_ZTIN7android8hardware10contexthub4V1_014BpHwContexthubE"
    },
    {
     "kind":"complete_dtor_pointer",
     "mangled_component_name":"_ZThn8_N7android8hardware10contexthub4V1_014BpHwContexthubD1Ev"
    },
    {
     "kind":"deleting_dtor_pointer",
     "mangled_component_name":"_ZThn8_N7android8hardware10contexthub4V1_014BpHwContexthubD0Ev"
    },
    {
     "mangled_component_name":"_ZThn8_N7android8hardware11BpInterfaceINS0_10contexthub4V1_011IContexthubEE10onAsBinderEv"
    },
    {
     "kind":"vbase_offset",
     "component_value":184
    },
    {
     "kind":"offset_to_top",
     "component_value":-16
    },
    {
     "kind":"rtti",
     "mangled_component_name":"_ZTIN7android8hardware10contexthub4V1_014BpHwContexthubE"
    },
    {
     "kind":"complete_dtor_pointer",
     "mangled_component_name":"_ZThn16_N7android8hardware10contexthub4V1_014BpHwContexthubD1Ev"
    },
    {
     "kind":"deleting_dtor_pointer",
     "mangled_component_name":"_ZThn16_N7android8hardware10contexthub4V1_014BpHwContexthubD0Ev"
    },
    {
     "mangled_component_name":"_ZN7android8hardware11BpHwRefBase10onFirstRefEv"
    },
    {
     "mangled_component_name":"_ZN7android8hardware11BpHwRefBase15onLastStrongRefEPKv"
    },
    {
     "mangled_component_name":"_ZN7android8hardware11BpHwRefBase20onIncStrongAttemptedEjPKv"
    },
    {
     "kind":"offset_to_top",
     "component_value":-48
    },
    {
     "kind":"rtti",
     "mangled_component_name":"_ZTIN7android8hardware10contexthub4V1_014BpHwContexthubE"
    },
    {
     "kind":"complete_dtor_pointer",
     "mangled_component_name":"_ZThn48_N7android8hardware10contexthub4V1_014BpHwContexthubD1Ev"
    },
    {
     "kind":"deleting_dtor_pointer",
     "mangled_component_name":"_ZThn48_N7android8hardware10contexthub4V1_014BpHwContexthubD0Ev"
    },
    {
     "kind":"vcall_offset"
    },
    {
     "kind":"vcall_offset",
     "component_value":-184
    },
    {
     "kind":"vcall_offset",
     "component_value":-184
    },
    {
     "kind":"vcall_offset",
     "component_value":-184
    },
    {
     "kind":"vcall_offset",
     "component_value":-200
    },
    {
     "kind":"offset_to_top",
     "component_value":-200
    },
    {
     "kind":"rtti",
     "mangled_component_name":"_ZTIN7android8hardware10contexthub4V1_014BpHwContexthubE"
    },
    {
     "kind":"complete_dtor_pointer",
     "mangled_component_name":"_ZTv0_n24_N7android8hardware10contexthub4V1_014BpHwContexthubD1Ev"
    },
    {
     "kind":"deleting_dtor_pointer",
     "mangled_component_name":"_ZTv0_n24_N7android8hardware10contexthub4V1_014BpHwContexthubD0Ev"
    },
    {
     "mangled_component_name":"_ZTv0_n32_N7android8hardware11BpHwRefBase10onFirstRefEv"
    },
    {
     "mangled_component_name":"_ZTv0_n40_N7android8hardware11BpHwRefBase15onLastStrongRefEPKv"
    },
    {
     "mangled_component_name":"_ZTv0_n48_N7android8hardware11BpHwRefBase20onIncStrongAttemptedEjPKv"
    },
    {
     "mangled_component_name":"_ZN7android7RefBase13onLastWeakRefEPKv"
    }
   ],
   "unique_id":"_ZTSN7android8hardware10contexthub4V1_014BpHwContexthubE"
  },
  {
   "vtable_components":[
    {
     "kind":"vbase_offset",
     "component_value":120
    },
    {
     "kind":"offset_to_top"
    },
    {
     "kind":"rtti",
     "mangled_component_name":"_ZTIN7android8hardware10contexthub4V1_020BsContexthubCallbackE"
    },
    {
     "mangled_component_name":"_ZNK7android8hardware10contexthub4V1_019IContexthubCallback8isRemoteEv"
    },
    {
     "mangled_component_name":"_ZN7android8hardware10contexthub4V1_020BsContexthubCallback14interfaceChainENSt3__18functionIFvRKNS0_8hidl_vecINS0_11hidl_stringEEEEEE"
    },
    {
     "mangled_component_name":"_ZN7android8hardware10contexthub4V1_020BsContexthubCallback5debugERKNS0_11hidl_handleERKNS0_8hidl_vecINS0_11hidl_stringEEE"
    },
    {
     "mangled_component_name":"_ZN7android8hardware10contexthub4V1_020BsContexthubCallback19interfaceDescriptorENSt3__18functionIFvRKNS0_11hidl_stringEEEE"
    },
    {
     "mangled_component_name":"_ZN7android8hardware10contexthub4V1_020BsContexthubCallback12getHashChainENSt3__18functionIFvRKNS0_8hidl_vecINS0_10hidl_arrayIhLm32EJEEEEEEEE"
    },
    {
     "mangled_component_name":"_ZN7android8hardware10contexthub4V1_020BsContexthubCallback21setHALInstrumentationEv"
    },
    {
     "mangled_component_name":"_ZN7android8hardware10contexthub4V1_020BsContexthubCallback11linkToDeathERKNS_2spINS0_20hidl_death_recipientEEEm"
    },
    {
     "mangled_component_name":"_ZN7android8hardware10contexthub4V1_020BsContexthubCallback4pingEv"
    },
    {
     "mangled_component_name":"_ZN7android8hardware10contexthub4V1_020BsContexthubCallback12getDebugInfoENSt3__18functionIFvRKNS_4hidl4base4V1_09DebugInfoEEEE"
    },
    {
     "mangled_component_name":"_ZN7android8hardware10contexthub4V1_020BsContexthubCallback21notifySyspropsChangedEv"
    },
    {
     "mangled_component_name":"_ZN7android8hardware10contexthub4V1_020BsContexthubCallback13unlinkToDeathERKNS_2spINS0_20hidl_death_recipientEEE"
    },
    {
     "kind":"complete_dtor_pointer",
     "mangled_component_name":"_ZN7android8hardware10contexthub4V1_020BsContexthubCallbackD1Ev"
    },
    {
     "kind":"deleting_dtor_pointer",
     "mangled_component_name":"_ZN7android8hardware10contexthub4V1_020BsContexthubCallbackD0Ev"
    },
    {
     "mangled_component_name":"_ZN7android8hardware10contexthub4V1_020BsContexthubCallback15handleClientMsgERKNS2_13ContextHubMsgE"
    },
    {
     "mangled_component_name":"_ZN7android8hardware10contexthub4V1_020BsContexthubCallback15handleTxnResultEjNS2_17TransactionResultE"
    },
    {
     "mangled_component_name":"_ZN7android8hardware10contexthub4V1_020BsContexthubCallback14handleHubEventENS2_14AsyncEventTypeE"
    },
    {
     "mangled_component_name":"_ZN7android8hardware10contexthub4V1_020BsContexthubCallback14handleAppAbortEmj"
    },
    {
     "mangled_component_name":"_ZN7android8hardware10contexthub4V1_020BsContexthubCallback14handleAppsInfoERKNS0_8hidl_vecINS2_10HubAppInfoEEE"
    },
    {
     "kind":"offset_to_top",
     "component_value":-8
    },
    {
     "kind":"rtti",
     "mangled_component_name":"_ZTIN7android8hardware10contexthub4V1_020BsContexthubCallbackE"
    },
    {
     "kind":"complete_dtor_pointer",
     "mangled_component_name":"_ZThn8_N7android8hardware10contexthub4V1_020BsContexthubCallbackD1Ev"
    },
    {
     "kind":"deleting_dtor_pointer",
     "mangled_component_name":"_ZThn8_N7android8hardware10contexthub4V1_020BsContexthubCallbackD0Ev"
    },
    {
     "kind":"vcall_offset"
    },
    {
     "kind":"vcall_offset"
    },
    {
     "kind":"vcall_offset"
    },
    {
     "kind":"vcall_offset"
    },
    {
     "kind":"vcall_offset",
     "component_value":-120
    },
    {
     "kind":"offset_to_top",
     "component_value":-120
    },
    {
     "kind":"rtti",
     "mangled_component_name":"_ZTIN7android8hardware10contexthub4V1_020BsContexthubCallbackE"
    },
    {
     "kind":"complete_dtor_pointer",
     "mangled_component_name":"_ZTv0_n24_N7android8hardware10contexthub4V1_020BsContexthubCallbackD1Ev"
    },
    {
     "kind":"deleting_dtor_pointer",
     "mangled_component_name":"_ZTv0_n24_N7android8hardware10contexthub4V1_020BsContexthubCallbackD0Ev"
    },
    {
     "mangled_component_name":"_ZN7android7RefBase10onFirstRefEv"
    },
    {
     "mangled_component_name":"_ZN7android7RefBase15onLastStrongRefEPKv"
    },
    {
     "mangled_component_name":"_ZN7android7RefBase20onIncStrongAttemptedEjPKv"
    },
    {
     "mangled_component_name":"_ZN7android7RefBase13onLastWeakRefEPKv"
    }
   ],
   "unique_id":"_ZTSN7android8hardware10contexthub4V1_020BsContexthubCallbackE"
  },
  {
   "vtable_components":[
    {
     "kind":"vbase_offset",
     "component_value":120
    },
    {
     "kind":"offset_to_top"
    },
    {
     "kind":"rtti",
     "mangled_component_name":"_ZTIN7android8hardware10contexthub4V1_012BsContexthubE"
    },
    {
     "mangled_component_name":"_ZNK7android8hardware10contexthub4V1_011IContexthub8isRemoteEv"
    },
    {
     "mangled_component_name":"_ZN7android8hardware10contexthub4V1_012BsContexthub14interfaceChainENSt3__18functionIFvRKNS0_8hidl_vecINS0_11hidl_stringEEEEEE"
    },
    {
     "mangled_component_name":"_ZN7android8hardware10contexthub4V1_012BsContexthub5debugERKNS0_11hidl_handleERKNS0_8hidl_vecINS0_11hidl_stringEEE"
    },
    {
     "mangled_component_name":"_ZN7android8hardware10contexthub4V1_012BsContexthub19interfaceDescriptorENSt3__18functionIFvRKNS0_11hidl_stringEEEE"
    },
    {
     "mangled_component_name":"_ZN7android8hardware10contexthub4V1_012BsContexthub12getHashChainENSt3__18functionIFvRKNS0_8hidl_vecINS0_10hidl_arrayIhLm32EJEEEEEEEE"
    },
    {
     "mangled_component_name":"_ZN7android8hardware10contexthub4V1_012BsContexthub21setHALInstrumentationEv"
    },
    {
     "mangled_component_name":"_ZN7android8hardware10contexthub4V1_012BsContexthub11linkToDeathERKNS_2spINS0_20hidl_death_recipientEEEm"
    },
    {
     "mangled_component_name":"_ZN7android8hardware10contexthub4V1_012BsContexthub4pingEv"
    },
    {
     "mangled_component_name":"_ZN7android8hardware10contexthub4V1_012BsContexthub12getDebugInfoENSt3__18functionIFvRKNS_4hidl4base4V1_09DebugInfoEEEE"
    },
    {
     "mangled_component_name":"_ZN7android8hardware10contexthub4V1_012BsContexthub21notifySyspropsChangedEv"
    },
    {
     "mangled_component_name":"_ZN7android8hardware10contexthub4V1_012BsContexthub13unlinkToDeathERKNS_2spINS0_20hidl_death_recipientEEE"
    },
    {
     "kind":"complete_dtor_pointer",
     "mangled_component_name":"_ZN7android8hardware10contexthub4V1_012BsContexthubD1Ev"
    },
    {
     "kind":"deleting_dtor_pointer",
     "mangled_component_name":"_ZN7android8hardware10contexthub4V1_012BsContexthubD0Ev"
    },
    {
     "mangled_component_name":"_ZN7android8hardware10contexthub4V1_012BsContexthub7getHubsENSt3__18functionIFvRKNS0_8hidl_vecINS2_10ContextHubEEEEEE"
    },
    {
     "mangled_component_name":"_ZN7android8hardware10contexthub4V1_012BsContexthub16registerCallbackEjRKNS_2spINS2_19IContexthubCallbackEEE"
    },
    {
     "mangled_component_name":"_ZN7android8hardware10contexthub4V1_012BsContexthub16sendMessageToHubEjRKNS2_13ContextHubMsgE"
    },
    {
     "mangled_component_name":"_ZN7android8hardware10contexthub4V1_012BsContexthub11loadNanoAppEjRKNS2_13NanoAppBinaryEj"
    },
    {
     "mangled_component_name":"_ZN7android8hardware10contexthub4V1_012BsContexthub13unloadNanoAppEjmj"
    },
    {
     "mangled_component_name":"_ZN7android8hardware10contexthub4V1_012BsContexthub13enableNanoAppEjmj"
    },
    {
     "mangled_component_name":"_ZN7android8hardware10contexthub4V1_012BsContexthub14disableNanoAppEjmj"
    },
    {
     "mangled_component_name":"_ZN7android8hardware10contexthub4V1_012BsContexthub9queryAppsEj"
    },
    {
     "kind":"offset_to_top",
     "component_value":-8
    },
    {
     "kind":"rtti",
     "mangled_component_name":"_ZTIN7android8hardware10contexthub4V1_012BsContexthubE"
    },
    {
     "kind":"complete_dtor_pointer",
     "mangled_component_name":"_ZThn8_N7android8hardware10contexthub4V1_012BsContexthubD1Ev"
    },
    {
     "kind":"deleting_dtor_pointer",
     "mangled_component_name":"_ZThn8_N7android8hardware10contexthub4V1_012BsContexthubD0Ev"
    },
    {
     "kind":"vcall_offset"
    },
    {
     "kind":"vcall_offset"
    },
    {
     "kind":"vcall_offset"
    },
    {
     "kind":"vcall_offset"
    },
    {
     "kind":"vcall_offset",
     "component_value":-120
    },
    {
     "kind":"offset_to_top",
     "component_value":-120
    },
    {
     "kind":"rtti",
     "mangled_component_name":"_ZTIN7android8hardware10contexthub4V1_012BsContexthubE"
    },
    {
     "kind":"complete_dtor_pointer",
     "mangled_component_name":"_ZTv0_n24_N7android8hardware10contexthub4V1_012BsContexthubD1Ev"
    },
    {
     "kind":"deleting_dtor_pointer",
     "mangled_component_name":"_ZTv0_n24_N7android8hardware10contexthub4V1_012BsContexthubD0Ev"
    },
    {
     "mangled_component_name":"_ZN7android7RefBase10onFirstRefEv"
    },
    {
     "mangled_component_name":"_ZN7android7RefBase15onLastStrongRefEPKv"
    },
    {
     "mangled_component_name":"_ZN7android7RefBase20onIncStrongAttemptedEjPKv"
    },
    {
     "mangled_component_name":"_ZN7android7RefBase13onLastWeakRefEPKv"
    }
   ],
   "unique_id":"_ZTSN7android8hardware10contexthub4V1_012BsContexthubE"
  }
 ],
 "elf_functions":[
  {
   "name":"_ZN7android8hardware10contexthub4V1_011IContexthub10getServiceERKNSt3__112basic_stringIcNS4_11char_traitsIcEENS4_9allocatorIcEEEEb"
  },
  {
   "name":"_ZN7android8hardware10contexthub4V1_011IContexthub11linkToDeathERKNS_2spINS0_20hidl_death_recipientEEEm"
  },
  {
   "name":"_ZN7android8hardware10contexthub4V1_011IContexthub12getDebugInfoENSt3__18functionIFvRKNS_4hidl4base4V1_09DebugInfoEEEE"
  },
  {
   "name":"_ZN7android8hardware10contexthub4V1_011IContexthub12getHashChainENSt3__18functionIFvRKNS0_8hidl_vecINS0_10hidl_arrayIhLm32EJEEEEEEEE"
  },
  {
   "name":"_ZN7android8hardware10contexthub4V1_011IContexthub13tryGetServiceERKNSt3__112basic_stringIcNS4_11char_traitsIcEENS4_9allocatorIcEEEEb"
  },
  {
   "name":"_ZN7android8hardware10contexthub4V1_011IContexthub13unlinkToDeathERKNS_2spINS0_20hidl_death_recipientEEE"
  },
  {
   "name":"_ZN7android8hardware10contexthub4V1_011IContexthub14interfaceChainENSt3__18functionIFvRKNS0_8hidl_vecINS0_11hidl_stringEEEEEE"
  },
  {
   "name":"_ZN7android8hardware10contexthub4V1_011IContexthub17registerAsServiceERKNSt3__112basic_stringIcNS4_11char_traitsIcEENS4_9allocatorIcEEEE"
  },
  {
   "name":"_ZN7android8hardware10contexthub4V1_011IContexthub19interfaceDescriptorENSt3__18functionIFvRKNS0_11hidl_stringEEEE"
  },
  {
   "name":"_ZN7android8hardware10contexthub4V1_011IContexthub21notifySyspropsChangedEv"
  },
  {
   "name":"_ZN7android8hardware10contexthub4V1_011IContexthub21setHALInstrumentationEv"
  },
  {
   "name":"_ZN7android8hardware10contexthub4V1_011IContexthub24registerForNotificationsERKNSt3__112basic_stringIcNS4_11char_traitsIcEENS4_9allocatorIcEEEERKNS_2spINS_4hidl7manager4V1_020IServiceNotificationEEE"
  },
  {
   "name":"_ZN7android8hardware10contexthub4V1_011IContexthub4pingEv"
  },
  {
   "name":"_ZN7android8hardware10contexthub4V1_011IContexthub5debugERKNS0_11hidl_handleERKNS0_8hidl_vecINS0_11hidl_stringEEE"
  },
  {
   "name":"_ZN7android8hardware10contexthub4V1_011IContexthub8castFromERKNS_2spINS_4hidl4base4V1_05IBaseEEEb"
  },
  {
   "name":"_ZN7android8hardware10contexthub4V1_011IContexthub8castFromERKNS_2spIS3_EEb"
  },
  {
   "name":"_ZN7android8hardware10contexthub4V1_012BsContexthub13addOnewayTaskENSt3__18functionIFvvEEE"
  },
  {
   "name":"_ZN7android8hardware10contexthub4V1_012BsContexthubC1ENS_2spINS2_11IContexthubEEE"
  },
  {
   "name":"_ZN7android8hardware10contexthub4V1_012BsContexthubC2ENS_2spINS2_11IContexthubEEE"
  },
  {
   "name":"_ZN7android8hardware10contexthub4V1_014BnHwContexthub10onTransactEjRKNS0_6ParcelEPS4_jNSt3__18functionIFvRS4_EEE"
  },
  {
   "name":"_ZN7android8hardware10contexthub4V1_014BnHwContexthub12getDebugInfoENSt3__18functionIFvRKNS_4hidl4base4V1_09DebugInfoEEEE"
  },
  {
   "name":"_ZN7android8hardware10contexthub4V1_014BnHwContexthub13_hidl_getHubsEPNS_4hidl4base4V1_08BnHwBaseERKNS0_6ParcelEPS9_NSt3__18functionIFvRS9_EEE"
  },
  {
   "name":"_ZN7android8hardware10contexthub4V1_014BnHwContexthub15_hidl_queryAppsEPNS_4hidl4base4V1_08BnHwBaseERKNS0_6ParcelEPS9_NSt3__18functionIFvRS9_EEE"
  },
  {
   "name":"_ZN7android8hardware10contexthub4V1_014BnHwContexthub17_hidl_loadNanoAppEPNS_4hidl4base4V1_08BnHwBaseERKNS0_6ParcelEPS9_NSt3__18functionIFvRS9_EEE"
  },
  {
   "name":"_ZN7android8hardware10contexthub4V1_014BnHwContexthub19_hidl_enableNanoAppEPNS_4hidl4base4V1_08BnHwBaseERKNS0_6ParcelEPS9_NSt3__18functionIFvRS9_EEE"
  },
  {
   "name":"_ZN7android8hardware10contexthub4V1_014BnHwContexthub19_hidl_unloadNanoAppEPNS_4hidl4base4V1_08BnHwBaseERKNS0_6ParcelEPS9_NSt3__18functionIFvRS9_EEE"
  },
  {
   "name":"_ZN7android8hardware10contexthub4V1_014BnHwContexthub20_hidl_disableNanoAppEPNS_4hidl4base4V1_08BnHwBaseERKNS0_6ParcelEPS9_NSt3__18functionIFvRS9_EEE"
  },
  {
   "name":"_ZN7android8hardware10contexthub4V1_014BnHwContexthub22_hidl_registerCallbackEPNS_4hidl4base4V1_08BnHwBaseERKNS0_6ParcelEPS9_NSt3__18functionIFvRS9_EEE"
  },
  {
   "name":"_ZN7android8hardware10contexthub4V1_014BnHwContexthub22_hidl_sendMessageToHubEPNS_4hidl4base4V1_08BnHwBaseERKNS0_6ParcelEPS9_NSt3__18functionIFvRS9_EEE"
  },
  {
   "name":"_ZN7android8hardware10contexthub4V1_014BnHwContexthub4pingEv"
  },
  {
   "name":"_ZN7android8hardware10contexthub4V1_014BnHwContexthubC1ERKNS_2spINS2_11IContexthubEEE"
  },
  {
   "name":"_ZN7android8hardware10contexthub4V1_014BnHwContexthubC2ERKNS_2spINS2_11IContexthubEEE"
  },
  {
   "name":"_ZN7android8hardware10contexthub4V1_014BnHwContexthubD0Ev"
  },
  {
   "name":"_ZN7android8hardware10contexthub4V1_014BnHwContexthubD1Ev"
  },
  {
   "name":"_ZN7android8hardware10contexthub4V1_014BnHwContexthubD2Ev"
  },
  {
   "name":"_ZN7android8hardware10contexthub4V1_014BpHwContexthub11linkToDeathERKNS_2spINS0_20hidl_death_recipientEEEm"
  },
  {
   "name":"_ZN7android8hardware10contexthub4V1_014BpHwContexthub11loadNanoAppEjRKNS2_13NanoAppBinaryEj"
  },
  {
   "name":"_ZN7android8hardware10contexthub4V1_014BpHwContexthub12getDebugInfoENSt3__18functionIFvRKNS_4hidl4base4V1_09DebugInfoEEEE"
  },
  {
   "name":"_ZN7android8hardware10contexthub4V1_014BpHwContexthub12getHashChainENSt3__18functionIFvRKNS0_8hidl_vecINS0_10hidl_arrayIhLm32EJEEEEEEEE"
  },
  {
   "name":"_ZN7android8hardware10contexthub4V1_014BpHwContexthub13_hidl_getHubsEPNS0_10IInterfaceEPNS0_7details16HidlInstrumentorENSt3__18functionIFvRKNS0_8hidl_vecINS2_10ContextHubEEEEEE"
  },
  {
   "name":"_ZN7android8hardware10contexthub4V1_014BpHwContexthub13enableNanoAppEjmj"
  },
  {
   "name":"_ZN7android8hardware10contexthub4V1_014BpHwContexthub13unlinkToDeathERKNS_2spINS0_20hidl_death_recipientEEE"
  },
  {
   "name":"_ZN7android8hardware10contexthub4V1_014BpHwContexthub13unloadNanoAppEjmj"
  },
  {
   "name":"_ZN7android8hardware10contexthub4V1_014BpHwContexthub14disableNanoAppEjmj"
  },
  {
   "name":"_ZN7android8hardware10contexthub4V1_014BpHwContexthub14interfaceChainENSt3__18functionIFvRKNS0_8hidl_vecINS0_11hidl_stringEEEEEE"
  },
  {
   "name":"_ZN7android8hardware10contexthub4V1_014BpHwContexthub15_hidl_queryAppsEPNS0_10IInterfaceEPNS0_7details16HidlInstrumentorEj"
  },
  {
   "name":"_ZN7android8hardware10contexthub4V1_014BpHwContexthub16registerCallbackEjRKNS_2spINS2_19IContexthubCallbackEEE"
  },
  {
   "name":"_ZN7android8hardware10contexthub4V1_014BpHwContexthub16sendMessageToHubEjRKNS2_13ContextHubMsgE"
  },
  {
   "name":"_ZN7android8hardware10contexthub4V1_014BpHwContexthub17_hidl_loadNanoAppEPNS0_10IInterfaceEPNS0_7details16HidlInstrumentorEjRKNS2_13NanoAppBinaryEj"
  },
  {
   "name":"_ZN7android8hardware10contexthub4V1_014BpHwContexthub19_hidl_enableNanoAppEPNS0_10IInterfaceEPNS0_7details16HidlInstrumentorEjmj"
  },
  {
   "name":"_ZN7android8hardware10contexthub4V1_014BpHwContexthub19_hidl_unloadNanoAppEPNS0_10IInterfaceEPNS0_7details16HidlInstrumentorEjmj"
  },
  {
   "name":"_ZN7android8hardware10contexthub4V1_014BpHwContexthub19interfaceDescriptorENSt3__18functionIFvRKNS0_11hidl_stringEEEE"
  },
  {
   "name":"_ZN7android8hardware10contexthub4V1_014BpHwContexthub20_hidl_disableNanoAppEPNS0_10IInterfaceEPNS0_7details16HidlInstrumentorEjmj"
  },
  {
   "name":"_ZN7android8hardware10contexthub4V1_014BpHwContexthub21notifySyspropsChangedEv"
  },
  {
   "name":"_ZN7android8hardware10contexthub4V1_014BpHwContexthub21setHALInstrumentationEv"
  },
  {
   "name":"_ZN7android8hardware10contexthub4V1_014BpHwContexthub22_hidl_registerCallbackEPNS0_10IInterfaceEPNS0_7details16HidlInstrumentorEjRKNS_2spINS2_19IContexthubCallbackEEE"
  },
  {
   "name":"_ZN7android8hardware10contexthub4V1_014BpHwContexthub22_hidl_sendMessageToHubEPNS0_10IInterfaceEPNS0_7details16HidlInstrumentorEjRKNS2_13ContextHubMsgE"
  },
  {
   "name":"_ZN7android8hardware10contexthub4V1_014BpHwContexthub4pingEv"
  },
  {
   "name":"_ZN7android8hardware10contexthub4V1_014BpHwContexthub5debugERKNS0_11hidl_handleERKNS0_8hidl_vecINS0_11hidl_stringEEE"
  },
  {
   "name":"_ZN7android8hardware10contexthub4V1_014BpHwContexthub7getHubsENSt3__18functionIFvRKNS0_8hidl_vecINS2_10ContextHubEEEEEE"
  },
  {
   "name":"_ZN7android8hardware10contexthub4V1_014BpHwContexthub9queryAppsEj"
  },
  {
   "name":"_ZN7android8hardware10contexthub4V1_014BpHwContexthubC1ERKNS_2spINS0_7IBinderEEE"
  },
  {
   "name":"_ZN7android8hardware10contexthub4V1_014BpHwContexthubC2ERKNS_2spINS0_7IBinderEEE"
  },
  {
   "name":"_ZN7android8hardware10contexthub4V1_019IContexthubCallback10getServiceERKNSt3__112basic_stringIcNS4_11char_traitsIcEENS4_9allocatorIcEEEEb"
  },
  {
   "name":"_ZN7android8hardware10contexthub4V1_019IContexthubCallback11linkToDeathERKNS_2spINS0_20hidl_death_recipientEEEm"
  },
  {
   "name":"_ZN7android8hardware10contexthub4V1_019IContexthubCallback12getDebugInfoENSt3__18functionIFvRKNS_4hidl4base4V1_09DebugInfoEEEE"
  },
  {
   "name":"_ZN7android8hardware10contexthub4V1_019IContexthubCallback12getHashChainENSt3__18functionIFvRKNS0_8hidl_vecINS0_10hidl_arrayIhLm32EJEEEEEEEE"
  },
  {
   "name":"_ZN7android8hardware10contexthub4V1_019IContexthubCallback13tryGetServiceERKNSt3__112basic_stringIcNS4_11char_traitsIcEENS4_9allocatorIcEEEEb"
  },
  {
   "name":"_ZN7android8hardware10contexthub4V1_019IContexthubCallback13unlinkToDeathERKNS_2spINS0_20hidl_death_recipientEEE"
  },
  {
   "name":"_ZN7android8hardware10contexthub4V1_019IContexthubCallback14interfaceChainENSt3__18functionIFvRKNS0_8hidl_vecINS0_11hidl_stringEEEEEE"
  },
  {
   "name":"_ZN7android8hardware10contexthub4V1_019IContexthubCallback17registerAsServiceERKNSt3__112basic_stringIcNS4_11char_traitsIcEENS4_9allocatorIcEEEE"
  },
  {
   "name":"_ZN7android8hardware10contexthub4V1_019IContexthubCallback19interfaceDescriptorENSt3__18functionIFvRKNS0_11hidl_stringEEEE"
  },
  {
   "name":"_ZN7android8hardware10contexthub4V1_019IContexthubCallback21notifySyspropsChangedEv"
  },
  {
   "name":"_ZN7android8hardware10contexthub4V1_019IContexthubCallback21setHALInstrumentationEv"
  },
  {
   "name":"_ZN7android8hardware10contexthub4V1_019IContexthubCallback24registerForNotificationsERKNSt3__112basic_stringIcNS4_11char_traitsIcEENS4_9allocatorIcEEEERKNS_2spINS_4hidl7manager4V1_020IServiceNotificationEEE"
  },
  {
   "name":"_ZN7android8hardware10contexthub4V1_019IContexthubCallback4pingEv"
  },
  {
   "name":"_ZN7android8hardware10contexthub4V1_019IContexthubCallback5debugERKNS0_11hidl_handleERKNS0_8hidl_vecINS0_11hidl_stringEEE"
  },
  {
   "name":"_ZN7android8hardware10contexthub4V1_019IContexthubCallback8castFromERKNS_2spINS_4hidl4base4V1_05IBaseEEEb"
  },
  {
   "name":"_ZN7android8hardware10contexthub4V1_019IContexthubCallback8castFromERKNS_2spIS3_EEb"
  },
  {
   "name":"_ZN7android8hardware10contexthub4V1_020BsContexthubCallback13addOnewayTaskENSt3__18functionIFvvEEE"
  },
  {
   "name":"_ZN7android8hardware10contexthub4V1_020BsContexthubCallbackC1ENS_2spINS2_19IContexthubCallbackEEE"
  },
  {
   "name":"_ZN7android8hardware10contexthub4V1_020BsContexthubCallbackC2ENS_2spINS2_19IContexthubCallbackEEE"
  },
  {
   "name":"_ZN7android8hardware10contexthub4V1_021writeEmbeddedToParcelERKNS2_10ContextHubEPNS0_6ParcelEmm"
  },
  {
   "name":"_ZN7android8hardware10contexthub4V1_021writeEmbeddedToParcelERKNS2_10HubAppInfoEPNS0_6ParcelEmm"
  },
  {
   "name":"_ZN7android8hardware10contexthub4V1_021writeEmbeddedToParcelERKNS2_13ContextHubMsgEPNS0_6ParcelEmm"
  },
  {
   "name":"_ZN7android8hardware10contexthub4V1_021writeEmbeddedToParcelERKNS2_13NanoAppBinaryEPNS0_6ParcelEmm"
  },
  {
   "name":"_ZN7android8hardware10contexthub4V1_021writeEmbeddedToParcelERKNS2_14PhysicalSensorEPNS0_6ParcelEmm"
  },
  {
   "name":"_ZN7android8hardware10contexthub4V1_022BnHwContexthubCallback10onTransactEjRKNS0_6ParcelEPS4_jNSt3__18functionIFvRS4_EEE"
  },
  {
   "name":"_ZN7android8hardware10contexthub4V1_022BnHwContexthubCallback12getDebugInfoENSt3__18functionIFvRKNS_4hidl4base4V1_09DebugInfoEEEE"
  },
  {
   "name":"_ZN7android8hardware10contexthub4V1_022BnHwContexthubCallback20_hidl_handleAppAbortEPNS_4hidl4base4V1_08BnHwBaseERKNS0_6ParcelEPS9_NSt3__18functionIFvRS9_EEE"
  },
  {
   "name":"_ZN7android8hardware10contexthub4V1_022BnHwContexthubCallback20_hidl_handleAppsInfoEPNS_4hidl4base4V1_08BnHwBaseERKNS0_6ParcelEPS9_NSt3__18functionIFvRS9_EEE"
  },
  {
   "name":"_ZN7android8hardware10contexthub4V1_022BnHwContexthubCallback20_hidl_handleHubEventEPNS_4hidl4base4V1_08BnHwBaseERKNS0_6ParcelEPS9_NSt3__18functionIFvRS9_EEE"
  },
  {
   "name":"_ZN7android8hardware10contexthub4V1_022BnHwContexthubCallback21_hidl_handleClientMsgEPNS_4hidl4base4V1_08BnHwBaseERKNS0_6ParcelEPS9_NSt3__18functionIFvRS9_EEE"
  },
  {
   "name":"_ZN7android8hardware10contexthub4V1_022BnHwContexthubCallback21_hidl_handleTxnResultEPNS_4hidl4base4V1_08BnHwBaseERKNS0_6ParcelEPS9_NSt3__18functionIFvRS9_EEE"
  },
  {
   "name":"_ZN7android8hardware10contexthub4V1_022BnHwContexthubCallback4pingEv"
  },
  {
   "name":"_ZN7android8hardware10contexthub4V1_022BnHwContexthubCallbackC1ERKNS_2spINS2_19IContexthubCallbackEEE"
  },
  {
   "name":"_ZN7android8hardware10contexthub4V1_022BnHwContexthubCallbackC2ERKNS_2spINS2_19IContexthubCallbackEEE"
  },
  {
   "name":"_ZN7android8hardware10contexthub4V1_022BnHwContexthubCallbackD0Ev"
  },
  {
   "name":"_ZN7android8hardware10contexthub4V1_022BnHwContexthubCallbackD1Ev"
  },
  {
   "name":"_ZN7android8hardware10contexthub4V1_022BnHwContexthubCallbackD2Ev"
  },
  {
   "name":"_ZN7android8hardware10contexthub4V1_022BpHwContexthubCallback11linkToDeathERKNS_2spINS0_20hidl_death_recipientEEEm"
  },
  {
   "name":"_ZN7android8hardware10contexthub4V1_022BpHwContexthubCallback12getDebugInfoENSt3__18functionIFvRKNS_4hidl4base4V1_09DebugInfoEEEE"
  },
  {
   "name":"_ZN7android8hardware10contexthub4V1_022BpHwContexthubCallback12getHashChainENSt3__18functionIFvRKNS0_8hidl_vecINS0_10hidl_arrayIhLm32EJEEEEEEEE"
  },
  {
   "name":"_ZN7android8hardware10contexthub4V1_022BpHwContexthubCallback13unlinkToDeathERKNS_2spINS0_20hidl_death_recipientEEE"
  },
  {
   "name":"_ZN7android8hardware10contexthub4V1_022BpHwContexthubCallback14handleAppAbortEmj"
  },
  {
   "name":"_ZN7android8hardware10contexthub4V1_022BpHwContexthubCallback14handleAppsInfoERKNS0_8hidl_vecINS2_10HubAppInfoEEE"
  },
  {
   "name":"_ZN7android8hardware10contexthub4V1_022BpHwContexthubCallback14handleHubEventENS2_14AsyncEventTypeE"
  },
  {
   "name":"_ZN7android8hardware10contexthub4V1_022BpHwContexthubCallback14interfaceChainENSt3__18functionIFvRKNS0_8hidl_vecINS0_11hidl_stringEEEEEE"
  },
  {
   "name":"_ZN7android8hardware10contexthub4V1_022BpHwContexthubCallback15handleClientMsgERKNS2_13ContextHubMsgE"
  },
  {
   "name":"_ZN7android8hardware10contexthub4V1_022BpHwContexthubCallback15handleTxnResultEjNS2_17TransactionResultE"
  },
  {
   "name":"_ZN7android8hardware10contexthub4V1_022BpHwContexthubCallback19interfaceDescriptorENSt3__18functionIFvRKNS0_11hidl_stringEEEE"
  },
  {
   "name":"_ZN7android8hardware10contexthub4V1_022BpHwContexthubCallback20_hidl_handleAppAbortEPNS0_10IInterfaceEPNS0_7details16HidlInstrumentorEmj"
  },
  {
   "name":"_ZN7android8hardware10contexthub4V1_022BpHwContexthubCallback20_hidl_handleAppsInfoEPNS0_10IInterfaceEPNS0_7details16HidlInstrumentorERKNS0_8hidl_vecINS2_10HubAppInfoEEE"
  },
  {
   "name":"_ZN7android8hardware10contexthub4V1_022BpHwContexthubCallback20_hidl_handleHubEventEPNS0_10IInterfaceEPNS0_7details16HidlInstrumentorENS2_14AsyncEventTypeE"
  },
  {
   "name":"_ZN7android8hardware10contexthub4V1_022BpHwContexthubCallback21_hidl_handleClientMsgEPNS0_10IInterfaceEPNS0_7details16HidlInstrumentorERKNS2_13ContextHubMsgE"
  },
  {
   "name":"_ZN7android8hardware10contexthub4V1_022BpHwContexthubCallback21_hidl_handleTxnResultEPNS0_10IInterfaceEPNS0_7details16HidlInstrumentorEjNS2_17TransactionResultE"
  },
  {
   "name":"_ZN7android8hardware10contexthub4V1_022BpHwContexthubCallback21notifySyspropsChangedEv"
  },
  {
   "name":"_ZN7android8hardware10contexthub4V1_022BpHwContexthubCallback21setHALInstrumentationEv"
  },
  {
   "name":"_ZN7android8hardware10contexthub4V1_022BpHwContexthubCallback4pingEv"
  },
  {
   "name":"_ZN7android8hardware10contexthub4V1_022BpHwContexthubCallback5debugERKNS0_11hidl_handleERKNS0_8hidl_vecINS0_11hidl_stringEEE"
  },
  {
   "name":"_ZN7android8hardware10contexthub4V1_022BpHwContexthubCallbackC1ERKNS_2spINS0_7IBinderEEE"
  },
  {
   "name":"_ZN7android8hardware10contexthub4V1_022BpHwContexthubCallbackC2ERKNS_2spINS0_7IBinderEEE"
  },
  {
   "name":"_ZN7android8hardware10contexthub4V1_022readEmbeddedFromParcelERKNS2_10ContextHubERKNS0_6ParcelEmm"
  },
  {
   "name":"_ZN7android8hardware10contexthub4V1_022readEmbeddedFromParcelERKNS2_10HubAppInfoERKNS0_6ParcelEmm"
  },
  {
   "name":"_ZN7android8hardware10contexthub4V1_022readEmbeddedFromParcelERKNS2_13ContextHubMsgERKNS0_6ParcelEmm"
  },
  {
   "name":"_ZN7android8hardware10contexthub4V1_022readEmbeddedFromParcelERKNS2_13NanoAppBinaryERKNS0_6ParcelEmm"
  },
  {
   "name":"_ZN7android8hardware10contexthub4V1_022readEmbeddedFromParcelERKNS2_14PhysicalSensorERKNS0_6ParcelEmm"
  },
  {
   "binding":"weak",
   "name":"_ZN7android8hardware10fromBinderINS0_10contexthub4V1_019IContexthubCallbackENS3_22BpHwContexthubCallbackENS3_22BnHwContexthubCallbackEEENS_2spIT_EERKNS7_INS0_7IBinderEEE"
  },
  {
   "binding":"weak",
   "name":"_ZN7android8hardware7details13castInterfaceINS0_10contexthub4V1_011IContexthubENS_4hidl4base4V1_05IBaseENS4_14BpHwContexthubEEENS0_6ReturnINS_2spIT_EEEENSC_IT0_EEPKcb"
  },
  {
   "binding":"weak",
   "name":"_ZN7android8hardware7details13castInterfaceINS0_10contexthub4V1_019IContexthubCallbackENS_4hidl4base4V1_05IBaseENS4_22BpHwContexthubCallbackEEENS0_6ReturnINS_2spIT_EEEENSC_IT0_EEPKcb"
  },
  {
   "binding":"weak",
   "name":"_ZN7android8hardware7details15wrapPassthroughINS0_10contexthub4V1_019IContexthubCallbackEvEENS_2spIT_EES8_"
  },
  {
   "binding":"weak",
   "name":"_ZN7android8hardware7details18getServiceInternalINS0_10contexthub4V1_014BpHwContexthubENS4_11IContexthubEvvEENS_2spIT0_EERKNSt3__112basic_stringIcNSA_11char_traitsIcEENSA_9allocatorIcEEEEbb"
  },
  {
   "binding":"weak",
   "name":"_ZN7android8hardware7details18getServiceInternalINS0_10contexthub4V1_022BpHwContexthubCallbackENS4_19IContexthubCallbackEvvEENS_2spIT0_EERKNSt3__112basic_stringIcNSA_11char_traitsIcEENSA_9allocatorIcEEEEbb"
  },
  {
   "binding":"weak",
   "name":"_ZN7android8hardware8toBinderINS0_10contexthub4V1_019IContexthubCallbackEvEENS_2spINS0_7IBinderEEENS5_IT_EE"
  },
  {
   "binding":"weak",
   "name":"_ZN7android8hardware8toBinderINS_4hidl4base4V1_05IBaseEvEENS_2spINS0_7IBinderEEENS6_IT_EE"
  },
  {
   "name":"_ZThn32_N7android8hardware10contexthub4V1_014BnHwContexthubD0Ev"
  },
  {
   "name":"_ZThn32_N7android8hardware10contexthub4V1_014BnHwContexthubD1Ev"
  },
  {
   "name":"_ZThn32_N7android8hardware10contexthub4V1_022BnHwContexthubCallbackD0Ev"
  },
  {
   "name":"_ZThn32_N7android8hardware10contexthub4V1_022BnHwContexthubCallbackD1Ev"
  },
  {
   "name":"_ZTv0_n24_N7android8hardware10contexthub4V1_014BnHwContexthubD0Ev"
  },
  {
   "name":"_ZTv0_n24_N7android8hardware10contexthub4V1_014BnHwContexthubD1Ev"
  },
  {
   "name":"_ZTv0_n24_N7android8hardware10contexthub4V1_022BnHwContexthubCallbackD0Ev"
  },
  {
   "name":"_ZTv0_n24_N7android8hardware10contexthub4V1_022BnHwContexthubCallbackD1Ev"
  }
 ],
 "elf_objects":[
  {
   "name":"_ZN7android8hardware10contexthub4V1_011IContexthub10descriptorE"
  },
  {
   "name":"_ZN7android8hardware10contexthub4V1_019IContexthubCallback10descriptorE"
  },
  {
   "name":"_ZTTN7android8hardware10contexthub4V1_011IContexthubE"
  },
  {
   "name":"_ZTTN7android8hardware10contexthub4V1_014BnHwContexthubE"
  },
  {
   "name":"_ZTTN7android8hardware10contexthub4V1_014BpHwContexthubE"
  },
  {
   "name":"_ZTTN7android8hardware10contexthub4V1_019IContexthubCallbackE"
  },
  {
   "name":"_ZTTN7android8hardware10contexthub4V1_022BnHwContexthubCallbackE"
  },
  {
   "name":"_ZTTN7android8hardware10contexthub4V1_022BpHwContexthubCallbackE"
  },
  {
   "name":"_ZTVN7android8hardware10contexthub4V1_011IContexthubE"
  },
  {
   "binding":"weak",
   "name":"_ZTVN7android8hardware10contexthub4V1_012BsContexthubE"
  },
  {
   "name":"_ZTVN7android8hardware10contexthub4V1_014BnHwContexthubE"
  },
  {
   "name":"_ZTVN7android8hardware10contexthub4V1_014BpHwContexthubE"
  },
  {
   "name":"_ZTVN7android8hardware10contexthub4V1_019IContexthubCallbackE"
  },
  {
   "binding":"weak",
   "name":"_ZTVN7android8hardware10contexthub4V1_020BsContexthubCallbackE"
  },
  {
   "name":"_ZTVN7android8hardware10contexthub4V1_022BnHwContexthubCallbackE"
  },
  {
   "name":"_ZTVN7android8hardware10contexthub4V1_022BpHwContexthubCallbackE"
  }
 ]
}