{
 "record_types":[
  {
   "vtable_components":[
    {
     "kind":"vbase_offset",
     "component_value":200
    },
    {
     "kind":"offset_to_top"
    },
    {
     "kind":"rtti",
     "mangled_component_name":"_ZTIN7android10frameworks13sensorservice4V1_022BpHwEventQueueCallbackE"
    },
    {
     "mangled_component_name":"_ZNK7android10frameworks13sensorservice4V1_022BpHwEventQueueCallback8isRemoteEv"
    },
    {
     "mangled_component_name":"_ZN7android10frameworks13sensorservice4V1_022BpHwEventQueueCallback14interfaceChainENSt3__18functionIFvRKNS_8hardware8hidl_vecINS6_11hidl_stringEEEEEE"
    },
    {
     "mangled_component_name":"_ZN7android10frameworks13sensorservice4V1_022BpHwEventQueueCallback5debugERKNS_8hardware11hidl_handleERKNS4_8hidl_vecINS4_11hidl_stringEEE"
    },
    {
     "mangled_component_name":"_ZN7android10frameworks13sensorservice4V1_022BpHwEventQueueCallback19interfaceDescriptorENSt3__18functionIFvRKNS_8hardware11hidl_stringEEEE"
    },
    {
     "mangled_component_name":"_ZN7android10frameworks13sensorservice4V1_022BpHwEventQueueCallback12getHashChainENSt3__18functionIFvRKNS_8hardware8hidl_vecINS6_10hidl_arrayIhLm32EJEEEEEEEE"
    },
    {
     "mangled_component_name":"_ZN7android10frameworks13sensorservice4V1_022BpHwEventQueueCallback21setHALInstrumentationEv"
    },
    {
     "mangled_component_name":"_ZN7android10frameworks13sensorservice4V1_022BpHwEventQueueCallback11linkToDeathERKNS_2spINS_8hardware20hidl_death_recipientEEEm"
    },
    {
     "mangled_component_name":"_ZN7android10frameworks13sensorservice4V1_022BpHwEventQueueCallback4pingEv"
    },
    {
     "mangled_component_name":"_ZN7android10frameworks13sensorservice4V1_022BpHwEventQueueCallback12getDebugInfoENSt3__18functionIFvRKNS_4hidl4base4V1_09DebugInfoEEEE"
    },
    {
     "mangled_component_name":"_ZN7android10frameworks13sensorservice4V1_022BpHwEventQueueCallback21notifySyspropsChangedEv"
    },
    {
     "mangled_component_name":"_ZN7android10frameworks13sensorservice4V1_022BpHwEventQueueCallback13unlinkToDeathERKNS_2spINS_8hardware20hidl_death_recipientEEE"
    },
    {
     "kind":"complete_dtor_pointer",
     "mangled_component_name":"_ZN7android10frameworks13sensorservice4V1_022BpHwEventQueueCallbackD1Ev"
    },
    {
     "kind":"deleting_dtor_pointer",
     "mangled_component_name":"_ZN7android10frameworks13sensorservice4V1_022BpHwEventQueueCallbackD0Ev"
    },
    {
     "mangled_component_name":"_ZN7android10frameworks13sensorservice4V1_022BpHwEventQueueCallback7onEventERKNS_8hardware7sensors4V1_05EventE"
    },
    {
     "mangled_component_name":"_ZN7android8hardware11BpInterfaceINS_10frameworks13sensorservice4V1_019IEventQueueCallbackEE10onAsBinderEv"
    },
    {
     "kind":"vbase_offset",
     "component_value":192
    },
    {
     "kind":"offset_to_top",
     "component_value":-8
    },
    {
     "kind":"rtti",
     "mangled_component_name":"_ZTIN7android10frameworks13sensorservice4V1_022BpHwEventQueueCallbackE"
    },
    {
     "kind":"complete_dtor_pointer",
     "mangled_component_name":"_ZThn8_N7android10frameworks13sensorservice4V1_022BpHwEventQueueCallbackD1Ev"
    },
    {
     "kind":"deleting_dtor_pointer",
     "mangled_component_name":"_ZThn8_N7android10frameworks13sensorservice4V1_022BpHwEventQueueCallbackD0Ev"
    },
    {
     "mangled_component_name":"_ZThn8_N7android8hardware11BpInterfaceINS_10frameworks13sensorservice4V1_019IEventQueueCallbackEE10onAsBinderEv"
    },
    {
     "kind":"vbase_offset",
     "component_value":184
    },
    {
     "kind":"offset_to_top",
     "component_value":-16
    },
    {
     "kind":"rtti",
     "mangled_component_name":"_ZTIN7android10frameworks13sensorservice4V1_022BpHwEventQueueCallbackE"
    },
    {
     "kind":"complete_dtor_pointer",
     "mangled_component_name":"_ZThn16_N7android10frameworks13sensorservice4V1_022BpHwEventQueueCallbackD1Ev"
    },
    {
     "kind":"deleting_dtor_pointer",
     "mangled_component_name":"_ZThn16_N7android10frameworks13sensorservice4V1_022BpHwEventQueueCallbackD0Ev"
    },
    {
     "mangled_component_name":"_ZN7android8hardware11BpHwRefBase10onFirstRefEv"
    },
    {
     "mangled_component_name":"_ZN7android8hardware11BpHwRefBase15onLastStrongRefEPKv"
    },
    {
     "mangled_component_name":"_ZN7android8hardware11BpHwRefBase20onIncStrongAttemptedEjPKv"
    },
    {
     "kind":"offset_to_top",
     "component_value":-48
    },
    {
     "kind":"rtti",
     "mangled_component_name":"_ZTIN7android10frameworks13sensorservice4V1_022BpHwEventQueueCallbackE"
    },
    {
     "kind":"complete_dtor_pointer",
     "mangled_component_name":"_ZThn48_N7android10frameworks13sensorservice4V1_022BpHwEventQueueCallbackD1Ev"
    },
    {
     "kind":"deleting_dtor_pointer",
     "mangled_component_name":"_ZThn48_N7android10frameworks13sensorservice4V1_022BpHwEventQueueCallbackD0Ev"
    },
    {
     "kind":"vcall_offset"
    },
    {
     "kind":"vcall_offset",
     "component_value":-184
    },
    {
     "kind":"vcall_offset",
     "component_value":-184
    },
    {
     "kind":"vcall_offset",
     "component_value":-184
    },
    {
     "kind":"vcall_offset",
     "component_value":-200
    },
    {
     "kind":"offset_to_top",
     "component_value":-200
    },
    {
     "kind":"rtti",
     "mangled_component_name":"_ZTIN7android10frameworks13sensorservice4V1_022BpHwEventQueueCallbackE"
    },
    {
     "kind":"complete_dtor_pointer",
     "mangled_component_name":"_ZTv0_n24_N7android10frameworks13sensorservice4V1_022BpHwEventQueueCallbackD1Ev"
    },
    {
     "kind":"deleting_dtor_pointer",
     "mangled_component_name":"_ZTv0_n24_N7android10frameworks13sensorservice4V1_022BpHwEventQueueCallbackD0Ev"
    },
    {
     "mangled_component_name":"_ZTv0_n32_N7android8hardware11BpHwRefBase10onFirstRefEv"
    },
    {
     "mangled_component_name":"_ZTv0_n40_N7android8hardware11BpHwRefBase15onLastStrongRefEPKv"
    },
    {
     "mangled_component_name":"_ZTv0_n48_N7android8hardware11BpHwRefBase20onIncStrongAttemptedEjPKv"
    },
    {
     "mangled_component_name":"_ZN7android7RefBase13onLastWeakRefEPKv"
    }
   ],
   "unique_id":"_ZTSN7android10frameworks13sensorservice4V1_022BpHwEventQueueCallbackE"
  },
  {
   "vtable_components":[
    {
     "kind":"vbase_offset",
     "component_value":8
    },
    {
     "kind":"offset_to_top"
    },
    {
     "kind":"rtti",
     "mangled_component_name":"_ZTIN7android10frameworks13sensorservice4V1_020IDirectReportChannelE"
    },
    {
     "mangled_component_name":"_ZNK7android10frameworks13sensorservice4V1_020IDirectReportChannel8isRemoteEv"
    },
    {
     "mangled_component_name":"_ZN7android10frameworks13sensorservice4V1_020IDirectReportChannel14interfaceChainENSt3__18functionIFvRKNS_8hardware8hidl_vecINS6_11hidl_stringEEEEEE"
    },
    {
     "mangled_component_name":"_ZN7android10frameworks13sensorservice4V1_020IDirectReportChannel5debugERKNS_8hardware11hidl_handleERKNS4_8hidl_vecINS4_11hidl_stringEEE"
    },
    {
     "mangled_component_name":"_ZN7android10frameworks13sensorservice4V1_020IDirectReportChannel19interfaceDescriptorENSt3__18functionIFvRKNS_8hardware11hidl_stringEEEE"
    },
    {
     "mangled_component_name":"_ZN7android10frameworks13sensorservice4V1_020IDirectReportChannel12getHashChainENSt3__18functionIFvRKNS_8hardware8hidl_vecINS6_10hidl_arrayIhLm32EJEEEEEEEE"
    },
    {
     "mangled_component_name":"_ZN7android10frameworks13sensorservice4V1_020IDirectReportChannel21setHALInstrumentationEv"
    },
    {
     "mangled_component_name":"_ZN7android10frameworks13sensorservice4V1_020IDirectReportChannel11linkToDeathERKNS_2spINS_8hardware20hidl_death_recipientEEEm"
    },
    {
     "mangled_component_name":"_ZN7android10frameworks13sensorservice4V1_020IDirectReportChannel4pingEv"
    },
    {
     "mangled_component_name":"_ZN7android10frameworks13sensorservice4V1_020IDirectReportChannel12getDebugInfoENSt3__18functionIFvRKNS_4hidl4base4V1_09DebugInfoEEEE"
    },
    {
     "mangled_component_name":"_ZN7android10frameworks13sensorservice4V1_020IDirectReportChannel21notifySyspropsChangedEv"
    },
    {
     "mangled_component_name":"_ZN7android10frameworks13sensorservice4V1_020IDirectReportChannel13unlinkToDeathERKNS_2spINS_8hardware20hidl_death_recipientEEE"
    },
    {
     "kind":"complete_dtor_pointer",
     "mangled_component_name":"_ZN7android10frameworks13sensorservice4V1_020IDirectReportChannelD1Ev"
    },
    {
     "kind":"deleting_dtor_pointer",
     "mangled_component_name":"_ZN7android10frameworks13sensorservice4V1_020IDirectReportChannelD0Ev"
    },
    {
     "is_pure":true,
     "mangled_component_name":"_ZN7android10frameworks13sensorservice4V1_020IDirectReportChannel9configureEiNS_8hardware7sensors4V1_09RateLevelENSt3__18functionIFviNS2_6ResultEEEE"
    },
    {
     "kind":"vcall_offset"
    },
    {
     "kind":"vcall_offset"
    },
    {
     "kind":"vcall_offset"
    },
    {
     "kind":"vcall_offset"
    },
    {
     "kind":"vcall_offset",
     "component_value":-8
    },
    {
     "kind":"offset_to_top",
     "component_value":-8
    },
    {
     "kind":"rtti",
     "mangled_component_name":"_ZTIN7android10frameworks13sensorservice4V1_020IDirectReportChannelE"
    },
    {
     "kind":"complete_dtor_pointer",
     "mangled_component_name":"_ZTv0_n24_N7android10frameworks13sensorservice4V1_020IDirectReportChannelD1Ev"
    },
    {
     "kind":"deleting_dtor_pointer",
     "mangled_component_name":"_ZTv0_n24_N7android10frameworks13sensorservice4V1_020IDirectReportChannelD0Ev"
    },
    {
     "mangled_component_name":"_ZN7android7RefBase10onFirstRefEv"
    },
    {
     "mangled_component_name":"_ZN7android7RefBase15onLastStrongRefEPKv"
    },
    {
     "mangled_component_name":"_ZN7android7RefBase20onIncStrongAttemptedEjPKv"
    },
    {
     "mangled_component_name":"_ZN7android7RefBase13onLastWeakRefEPKv"
    }
   ],
   "unique_id":"_ZTSN7android10frameworks13sensorservice4V1_020IDirectReportChannelE"
  },
  {
   "vtable_components":[
    {
     "kind":"vbase_offset",
     "component_value":136
    },
    {
     "kind":"offset_to_top"
    },
    {
     "kind":"rtti",
     "mangled_component_name":"_ZTIN7android10frameworks13sensorservice4V1_017BnHwSensorManagerE"
    },
    {
     "mangled_component_name":"_ZN7android8hardware9BHwBinder8transactEjRKNS0_6ParcelEPS2_jNSt3__18functionIFvRS2_EEE"
    },
    {
     "mangled_component_name":"_ZN7android8hardware9BHwBinder11linkToDeathERKNS_2spINS0_7IBinder14DeathRecipientEEEPvj"
    },
    {
     "mangled_component_name":"_ZN7android8hardware9BHwBinder13unlinkToDeathERKNS_2wpINS0_7IBinder14DeathRecipientEEEPvjPS5_"
    },
    {
     "mangled_component_name":"_ZNK7android8hardware7IBinder13checkSubclassEPKv"
    },
    {
     "mangled_component_name":"_ZN7android8hardware9BHwBinder12attachObjectEPKvPvS4_PFvS3_S4_S4_E"
    },
    {
     "mangled_component_name":"_ZNK7android8hardware9BHwBinder10findObjectEPKv"
    },
    {
     "mangled_component_name":"_ZN7android8hardware9BHwBinder12detachObjectEPKv"
    },
    {
     "mangled_component_name":"_ZN7android8hardware9BHwBinder11localBinderEv"
    },
    {
     "mangled_component_name":"_ZN7android8hardware7IBinder12remoteBinderEv"
    },
    {
     "kind":"complete_dtor_pointer",
     "mangled_component_name":"_ZN7android10frameworks13sensorservice4V1_017BnHwSensorManagerD1Ev"
    },
    {
     "kind":"deleting_dtor_pointer",
     "mangled_component_name":"_ZN7android10frameworks13sensorservice4V1_017BnHwSensorManagerD0Ev"
    },
    {
     "mangled_component_name":"_ZN7android10frameworks13sensorservice4V1_017BnHwSensorManager10onTransactEjRKNS_8hardware6ParcelEPS5_jNSt3__18functionIFvRS5_EEE"
    },
    {
     "kind":"offset_to_top",
     "component_value":-32
    },
    {
     "kind":"rtti",
     "mangled_component_name":"_ZTIN7android10frameworks13sensorservice4V1_017BnHwSensorManagerE"
    },
    {
     "kind":"complete_dtor_pointer",
     "mangled_component_name":"_ZThn32_N7android10frameworks13sensorservice4V1_017BnHwSensorManagerD1Ev"
    },
    {
     "kind":"deleting_dtor_pointer",
     "mangled_component_name":"_ZThn32_N7android10frameworks13sensorservice4V1_017BnHwSensorManagerD0Ev"
    },
    {
     "kind":"vcall_offset"
    },
    {
     "kind":"vcall_offset"
    },
    {
     "kind":"vcall_offset"
    },
    {
     "kind":"vcall_offset"
    },
    {
     "kind":"vcall_offset",
     "component_value":-136
    },
    {
     "kind":"offset_to_top",
     "component_value":-136
    },
    {
     "kind":"rtti",
     "mangled_component_name":"_ZTIN7android10frameworks13sensorservice4V1_017BnHwSensorManagerE"
    },
    {
     "kind":"complete_dtor_pointer",
     "mangled_component_name":"_ZTv0_n24_N7android10frameworks13sensorservice4V1_017BnHwSensorManagerD1Ev"
    },
    {
     "kind":"deleting_dtor_pointer",
     "mangled_component_name":"_ZTv0_n24_N7android10frameworks13sensorservice4V1_017BnHwSensorManagerD0Ev"
    },
    {
     "mangled_component_name":"_ZN7android7RefBase10onFirstRefEv"
    },
    {
     "mangled_component_name":"_ZN7android7RefBase15onLastStrongRefEPKv"
    },
    {
     "mangled_component_name":"_ZN7android7RefBase20onIncStrongAttemptedEjPKv"
    },
    {
     "mangled_component_name":"_ZN7android7RefBase13onLastWeakRefEPKv"
    }
   ],
   "unique_id":"_ZTSN7android10frameworks13sensorservice4V1_017BnHwSensorManagerE"
  },
  {
   "vtable_components":[
    {
     "kind":"vbase_offset",
     "component_value":8
    },
    {
     "kind":"offset_to_top"
    },
    {
     "kind":"rtti",
     "mangled_component_name":"_ZTIN7android10frameworks13sensorservice4V1_014ISensorManagerE"
    },
    {
     "mangled_component_name":"_ZNK7android10frameworks13sensorservice4V1_014ISensorManager8isRemoteEv"
    },
    {
     "mangled_component_name":"_ZN7android10frameworks13sensorservice4V1_014ISensorManager14interfaceChainENSt3__18functionIFvRKNS_8hardware8hidl_vecINS6_11hidl_stringEEEEEE"
    },
    {
     "mangled_component_name":"_ZN7android10frameworks13sensorservice4V1_014ISensorManager5debugERKNS_8hardware11hidl_handleERKNS4_8hidl_vecINS4_11hidl_stringEEE"
    },
    {
     "mangled_component_name":"_ZN7android10frameworks13sensorservice4V1_014ISensorManager19interfaceDescriptorENSt3__18functionIFvRKNS_8hardware11hidl_stringEEEE"
    },
    {
     "mangled_component_name":"_ZN7android10frameworks13sensorservice4V1_014ISensorManager12getHashChainENSt3__18functionIFvRKNS_8hardware8hidl_vecINS6_10hidl_arrayIhLm32EJEEEEEEEE"
    },
    {
     "mangled_component_name":"_ZN7android10frameworks13sensorservice4V1_014ISensorManager21setHALInstrumentationEv"
    },
    {
     "mangled_component_name":"_ZN7android10frameworks13sensorservice4V1_014ISensorManager11linkToDeathERKNS_2spINS_8hardware20hidl_death_recipientEEEm"
    },
    {
     "mangled_component_name":"_ZN7android10frameworks13sensorservice4V1_014ISensorManager4pingEv"
    },
    {
     "mangled_component_name":"_ZN7android10frameworks13sensorservice4V1_014ISensorManager12getDebugInfoENSt3__18functionIFvRKNS_4hidl4base4V1_09DebugInfoEEEE"
    },
    {
     "mangled_component_name":"_ZN7android10frameworks13sensorservice4V1_014ISensorManager21notifySyspropsChangedEv"
    },
    {
     "mangled_component_name":"_ZN7android10frameworks13sensorservice4V1_014ISensorManager13unlinkToDeathERKNS_2spINS_8hardware20hidl_death_recipientEEE"
    },
    {
     "kind":"complete_dtor_pointer",
     "mangled_component_name":"_ZN7android10frameworks13sensorservice4V1_014ISensorManagerD1Ev"
    },
    {
     "kind":"deleting_dtor_pointer",
     "mangled_component_name":"_ZN7android10frameworks13sensorservice4V1_014ISensorManagerD0Ev"
    },
    {
     "is_pure":true,
     "mangled_component_name":"_ZN7android10frameworks13sensorservice4V1_014ISensorManager13getSensorListENSt3__18functionIFvRKNS_8hardware8hidl_vecINS6_7sensors4V1_010SensorInfoEEENS2_6ResultEEEE"
    },
    {
     "is_pure":true,
     "mangled_component_name":"_ZN7android10frameworks13sensorservice4V1_014ISensorManager16getDefaultSensorENS_8hardware7sensors4V1_010SensorTypeENSt3__18functionIFvRKNS6_10SensorInfoENS2_6ResultEEEE"
    },
    {
     "is_pure":true,
     "mangled_component_name":"_ZN7android10frameworks13sensorservice4V1_014ISensorManager25createAshmemDirectChannelERKNS_8hardware11hidl_memoryEmNSt3__18functionIFvRKNS_2spINS2_20IDirectReportChannelEEENS2_6ResultEEEE"
    },
    {
     "is_pure":true,
     "mangled_component_name":"_ZN7android10frameworks13sensorservice4V1_014ISensorManager26createGrallocDirectChannelERKNS_8hardware11hidl_handleEmNSt3__18functionIFvRKNS_2spINS2_20IDirectReportChannelEEENS2_6ResultEEEE"
    },
    {
     "is_pure":true,
     "mangled_component_name":"_ZN7android10frameworks13sensorservice4V1_014ISensorManager16createEventQueueERKNS_2spINS2_19IEventQueueCallbackEEENSt3__18functionIFvRKNS4_INS2_11IEventQueueEEENS2_6ResultEEEE"
    },
    {
     "kind":"vcall_offset"
    },
    {
     "kind":"vcall_offset"
    },
    {
     "kind":"vcall_offset"
    },
    {
     "kind":"vcall_offset"
    },
    {
     "kind":"vcall_offset",
     "component_value":-8
    },
    {
     "kind":"offset_to_top",
     "component_value":-8
    },
    {
     "kind":"rtti",
     "mangled_component_name":"_ZTIN7android10frameworks13sensorservice4V1_014ISensorManagerE"
    },
    {
     "kind":"complete_dtor_pointer",
     "mangled_component_name":"_ZTv0_n24_N7android10frameworks13sensorservice4V1_014ISensorManagerD1Ev"
    },
    {
     "kind":"deleting_dtor_pointer",
     "mangled_component_name":"_ZTv0_n24_N7android10frameworks13sensorservice4V1_014ISensorManagerD0Ev"
    },
    {
     "mangled_component_name":"_ZN7android7RefBase10onFirstRefEv"
    },
    {
     "mangled_component_name":"_ZN7android7RefBase15onLastStrongRefEPKv"
    },
    {
     "mangled_component_name":"_ZN7android7RefBase20onIncStrongAttemptedEjPKv"
    },
    {
     "mangled_component_name":"_ZN7android7RefBase13onLastWeakRefEPKv"
    }
   ],
   "unique_id":"_ZTSN7android10frameworks13sensorservice4V1_014ISensorManagerE"
  },
  {
   "vtable_components":[
    {
     "kind":"vbase_offset",
     "component_value":120
    },
    {
     "kind":"offset_to_top"
    },
    {
     "kind":"rtti",
     "mangled_component_name":"_ZTIN7android10frameworks13sensorservice4V1_015BsSensorManagerE"
    },
    {
     "mangled_component_name":"_ZNK7android10frameworks13sensorservice4V1_014ISensorManager8isRemoteEv"
    },
    {
     "mangled_component_name":"_ZN7android10frameworks13sensorservice4V1_015BsSensorManager14interfaceChainENSt3__18functionIFvRKNS_8hardware8hidl_vecINS6_11hidl_stringEEEEEE"
    },
    {
     "mangled_component_name":"_ZN7android10frameworks13sensorservice4V1_015BsSensorManager5debugERKNS_8hardware11hidl_handleERKNS4_8hidl_vecINS4_11hidl_stringEEE"
    },
    {
     "mangled_component_name":"_ZN7android10frameworks13sensorservice4V1_015BsSensorManager19interfaceDescriptorENSt3__18functionIFvRKNS_8hardware11hidl_stringEEEE"
    },
    {
     "mangled_component_name":"_ZN7android10frameworks13sensorservice4V1_015BsSensorManager12getHashChainENSt3__18functionIFvRKNS_8hardware8hidl_vecINS6_10hidl_arrayIhLm32EJEEEEEEEE"
    },
    {
     "mangled_component_name":"_ZN7android10frameworks13sensorservice4V1_015BsSensorManager21setHALInstrumentationEv"
    },
    {
     "mangled_component_name":"_ZN7android10frameworks13sensorservice4V1_015BsSensorManager11linkToDeathERKNS_2spINS_8hardware20hidl_death_recipientEEEm"
    },
    {
     "mangled_component_name":"_ZN7android10frameworks13sensorservice4V1_015BsSensorManager4pingEv"
    },
    {
     "mangled_component_name":"_ZN7android10frameworks13sensorservice4V1_015BsSensorManager12getDebugInfoENSt3__18functionIFvRKNS_4hidl4base4V1_09DebugInfoEEEE"
    },
    {
     "mangled_component_name":"_ZN7android10frameworks13sensorservice4V1_015BsSensorManager21notifySyspropsChangedEv"
    },
    {
     "mangled_component_name":"_ZN7android10frameworks13sensorservice4V1_015BsSensorManager13unlinkToDeathERKNS_2spINS_8hardware20hidl_death_recipientEEE"
    },
    {
     "kind":"complete_dtor_pointer",
     "mangled_component_name":"_ZN7android10frameworks13sensorservice4V1_015BsSensorManagerD1Ev"
    },
    {
     "kind":"deleting_dtor_pointer",
     "mangled_component_name":"_ZN7android10frameworks13sensorservice4V1_015BsSensorManagerD0Ev"
    },
    {
     "mangled_component_name":"_ZN7android10frameworks13sensorservice4V1_015BsSensorManager13getSensorListENSt3__18functionIFvRKNS_8hardware8hidl_vecINS6_7sensors4V1_010SensorInfoEEENS2_6ResultEEEE"
    },
    {
     "mangled_component_name":"_ZN7android10frameworks13sensorservice4V1_015BsSensorManager16getDefaultSensorENS_8hardware7sensors4V1_010SensorTypeENSt3__18functionIFvRKNS6_10SensorInfoENS2_6ResultEEEE"
    },
    {
     "mangled_component_name":"_ZN7android10frameworks13sensorservice4V1_015BsSensorManager25createAshmemDirectChannelERKNS_8hardware11hidl_memoryEmNSt3__18functionIFvRKNS_2spINS2_20IDirectReportChannelEEENS2_6ResultEEEE"
    },
    {
     "mangled_component_name":"_ZN7android10frameworks13sensorservice4V1_015BsSensorManager26createGrallocDirectChannelERKNS_8hardware11hidl_handleEmNSt3__18functionIFvRKNS_2spINS2_20IDirectReportChannelEEENS2_6ResultEEEE"
    },
    {
     "mangled_component_name":"_ZN7android10frameworks13sensorservice4V1_015BsSensorManager16createEventQueueERKNS_2spINS2_19IEventQueueCallbackEEENSt3__18functionIFvRKNS4_INS2_11IEventQueueEEENS2_6ResultEEEE"
    },
    {
     "kind":"offset_to_top",
     "component_value":-8
    },
    {
     "kind":"rtti",
     "mangled_component_name":"_ZTIN7android10frameworks13sensorservice4V1_015BsSensorManagerE"
    },
    {
     "kind":"complete_dtor_pointer",
     "mangled_component_name":"_ZThn8_N7android10frameworks13sensorservice4V1_015BsSensorManagerD1Ev"
    },
    {
     "kind":"deleting_dtor_pointer",
     "mangled_component_name":"_ZThn8_N7android10frameworks13sensorservice4V1_015BsSensorManagerD0Ev"
    },
    {
     "kind":"vcall_offset"
    },
    {
     "kind":"vcall_offset"
    },
    {
     "kind":"vcall_offset"
    },
    {
     "kind":"vcall_offset"
    },
    {
     "kind":"vcall_offset",
     "component_value":-120
    },
    {
     "kind":"offset_to_top",
     "component_value":-120
    },
    {
     "kind":"rtti",
     "mangled_component_name":"_ZTIN7android10frameworks13sensorservice4V1_015BsSensorManagerE"
    },
    {
     "kind":"complete_dtor_pointer",
     "mangled_component_name":"_ZTv0_n24_N7android10frameworks13sensorservice4V1_015BsSensorManagerD1Ev"
    },
    {
     "kind":"deleting_dtor_pointer",
     "mangled_component_name":"_ZTv0_n24_N7android10frameworks13sensorservice4V1_015BsSensorManagerD0Ev"
    },
    {
     "mangled_component_name":"_ZN7android7RefBase10onFirstRefEv"
    },
    {
     "mangled_component_name":"_ZN7android7RefBase15onLastStrongRefEPKv"
    },
    {
     "mangled_component_name":"_ZN7android7RefBase20onIncStrongAttemptedEjPKv"
    },
    {
     "mangled_component_name":"_ZN7android7RefBase13onLastWeakRefEPKv"
    }
   ],
   "unique_id":"_ZTSN7android10frameworks13sensorservice4V1_015BsSensorManagerE"
  },
  {
   "vtable_components":[
    {
     "kind":"vbase_offset",
     "component_value":200
    },
    {
     "kind":"offset_to_top"
    },
    {
     "kind":"rtti",
     "mangled_component_name":"_ZTIN7android10frameworks13sensorservice4V1_017BpHwSensorManagerE"
    },
    {
     "mangled_component_name":"_ZNK7android10frameworks13sensorservice4V1_017BpHwSensorManager8isRemoteEv"
    },
    {
     "mangled_component_name":"_ZN7android10frameworks13sensorservice4V1_017BpHwSensorManager14interfaceChainENSt3__18functionIFvRKNS_8hardware8hidl_vecINS6_11hidl_stringEEEEEE"
    },
    {
     "mangled_component_name":"_ZN7android10frameworks13sensorservice4V1_017BpHwSensorManager5debugERKNS_8hardware11hidl_handleERKNS4_8hidl_vecINS4_11hidl_stringEEE"
    },
    {
     "mangled_component_name":"_ZN7android10frameworks13sensorservice4V1_017BpHwSensorManager19interfaceDescriptorENSt3__18functionIFvRKNS_8hardware11hidl_stringEEEE"
    },
    {
     "mangled_component_name":"_ZN7android10frameworks13sensorservice4V1_017BpHwSensorManager12getHashChainENSt3__18functionIFvRKNS_8hardware8hidl_vecINS6_10hidl_arrayIhLm32EJEEEEEEEE"
    },
    {
     "mangled_component_name":"_ZN7android10frameworks13sensorservice4V1_017BpHwSensorManager21setHALInstrumentationEv"
    },
    {
     "mangled_component_name":"_ZN7android10frameworks13sensorservice4V1_017BpHwSensorManager11linkToDeathERKNS_2spINS_8hardware20hidl_death_recipientEEEm"
    },
    {
     "mangled_component_name":"_ZN7android10frameworks13sensorservice4V1_017BpHwSensorManager4pingEv"
    },
    {
     "mangled_component_name":"_ZN7android10frameworks13sensorservice4V1_017BpHwSensorManager12getDebugInfoENSt3__18functionIFvRKNS_4hidl4base4V1_09DebugInfoEEEE"
    },
    {
     "mangled_component_name":"_ZN7android10frameworks13sensorservice4V1_017BpHwSensorManager21notifySyspropsChangedEv"
    },
    {
     "mangled_component_name":"_ZN7android10frameworks13sensorservice4V1_017BpHwSensorManager13unlinkToDeathERKNS_2spINS_8hardware20hidl_death_recipientEEE"
    },
    {
     "kind":"complete_dtor_pointer",
     "mangled_component_name":"_ZN7android10frameworks13sensorservice4V1_017BpHwSensorManagerD1Ev"
    },
    {
     "kind":"deleting_dtor_pointer",
     "mangled_component_name":"_ZN7android10frameworks13sensorservice4V1_017BpHwSensorManagerD0Ev"
    },
    {
     "mangled_component_name":"_ZN7android10frameworks13sensorservice4V1_017BpHwSensorManager13getSensorListENSt3__18functionIFvRKNS_8hardware8hidl_vecINS6_7sensors4V1_010SensorInfoEEENS2_6ResultEEEE"
    },
    {
     "mangled_component_name":"_ZN7android10frameworks13sensorservice4V1_017BpHwSensorManager16getDefaultSensorENS_8hardware7sensors4V1_010SensorTypeENSt3__18functionIFvRKNS6_10SensorInfoENS2_6ResultEEEE"
    },
    {
     "mangled_component_name":"_ZN7android10frameworks13sensorservice4V1_017BpHwSensorManager25createAshmemDirectChannelERKNS_8hardware11hidl_memoryEmNSt3__18functionIFvRKNS_2spINS2_20IDirectReportChannelEEENS2_6ResultEEEE"
    },
    {
     "mangled_component_name":"_ZN7android10frameworks13sensorservice4V1_017BpHwSensorManager26createGrallocDirectChannelERKNS_8hardware11hidl_handleEmNSt3__18functionIFvRKNS_2spINS2_20IDirectReportChannelEEENS2_6ResultEEEE"
    },
    {
     "mangled_component_name":"_ZN7android10frameworks13sensorservice4V1_017BpHwSensorManager16createEventQueueERKNS_2spINS2_19IEventQueueCallbackEEENSt3__18functionIFvRKNS4_INS2_11IEventQueueEEENS2_6ResultEEEE"
    },
    {
     "mangled_component_name":"_ZN7android8hardware11BpInterfaceINS_10frameworks13sensorservice4V1_014ISensorManagerEE10onAsBinderEv"
    },
    {
     "kind":"vbase_offset",
     "component_value":192
    },
    {
     "kind":"offset_to_top",
     "component_value":-8
    },
    {
     "kind":"rtti",
     "mangled_component_name":"_ZTIN7android10frameworks13sensorservice4V1_017BpHwSensorManagerE"
    },
    {
     "kind":"complete_dtor_pointer",
     "mangled_component_name":"_ZThn8_N7android10frameworks13sensorservice4V1_017BpHwSensorManagerD1Ev"
    },
    {
     "kind":"deleting_dtor_pointer",
     "mangled_component_name":"_ZThn8_N7android10frameworks13sensorservice4V1_017BpHwSensorManagerD0Ev"
    },
    {
     "mangled_component_name":"_ZThn8_N7android8hardware11BpInterfaceINS_10frameworks13sensorservice4V1_014ISensorManagerEE10onAsBinderEv"
    },
    {
     "kind":"vbase_offset",
     "component_value":184
    },
    {
     "kind":"offset_to_top",
     "component_value":-16
    },
    {
     "kind":"rtti",
     "mangled_component_name":"_ZTIN7android10frameworks13sensorservice4V1_017BpHwSensorManagerE"
    },
    {
     "kind":"complete_dtor_pointer",
     "mangled_component_name":"_ZThn16_N7android10frameworks13sensorservice4V1_017BpHwSensorManagerD1Ev"
    },
    {
     "kind":"deleting_dtor_pointer",
     "mangled_component_name":"_ZThn16_N7android10frameworks13sensorservice4V1_017BpHwSensorManagerD0Ev"
    },
    {
     "mangled_component_name":"_ZN7android8hardware11BpHwRefBase10onFirstRefEv"
    },
    {
     "mangled_component_name":"_ZN7android8hardware11BpHwRefBase15onLastStrongRefEPKv"
    },
    {
     "mangled_component_name":"_ZN7android8hardware11BpHwRefBase20onIncStrongAttemptedEjPKv"
    },
    {
     "kind":"offset_to_top",
     "component_value":-48
    },
    {
     "kind":"rtti",
     "mangled_component_name":"_ZTIN7android10frameworks13sensorservice4V1_017BpHwSensorManagerE"
    },
    {
     "kind":"complete_dtor_pointer",
     "mangled_component_name":"_ZThn48_N7android10frameworks13sensorservice4V1_017BpHwSensorManagerD1Ev"
    },
    {
     "kind":"deleting_dtor_pointer",
     "mangled_component_name":"_ZThn48_N7android10frameworks13sensorservice4V1_017BpHwSensorManagerD0Ev"
    },
    {
     "kind":"vcall_offset"
    },
    {
     "kind":"vcall_offset",
     "component_value":-184
    },
    {
     "kind":"vcall_offset",
     "component_value":-184
    },
    {
     "kind":"vcall_offset",
     "component_value":-184
    },
    {
     "kind":"vcall_offset",
     "component_value":-200
    },
    {
     "kind":"offset_to_top",
     "component_value":-200
    },
    {
     "kind":"rtti",
     "mangled_component_name":"_ZTIN7android10frameworks13sensorservice4V1_017BpHwSensorManagerE"
    },
    {
     "kind":"complete_dtor_pointer",
     "mangled_component_name":"_ZTv0_n24_N7android10frameworks13sensorservice4V1_017BpHwSensorManagerD1Ev"
    },
    {
     "kind":"deleting_dtor_pointer",
     "mangled_component_name":"_ZTv0_n24_N7android10frameworks13sensorservice4V1_017BpHwSensorManagerD0Ev"
    },
    {
     "mangled_component_name":"_ZTv0_n32_N7android8hardware11BpHwRefBase10onFirstRefEv"
    },
    {
     "mangled_component_name":"_ZTv0_n40_N7android8hardware11BpHwRefBase15onLastStrongRefEPKv"
    },
    {
     "mangled_component_name":"_ZTv0_n48_N7android8hardware11BpHwRefBase20onIncStrongAttemptedEjPKv"
    },
    {
     "mangled_component_name":"_ZN7android7RefBase13onLastWeakRefEPKv"
    }
   ],
   "unique_id":"_ZTSN7android10frameworks13sensorservice4V1_017BpHwSensorManagerE"
  },
  {
   "vtable_components":[
    {
     "kind":"vbase_offset",
     "component_value":136
    },
    {
     "kind":"offset_to_top"
    },
    {
     "kind":"rtti",
     "mangled_component_name":"_ZTIN7android10frameworks13sensorservice4V1_023BnHwDirectReportChannelE"
    },
    {
     "mangled_component_name":"_ZN7android8hardware9BHwBinder8transactEjRKNS0_6ParcelEPS2_jNSt3__18functionIFvRS2_EEE"
    },
    {
     "mangled_component_name":"_ZN7android8hardware9BHwBinder11linkToDeathERKNS_2spINS0_7IBinder14DeathRecipientEEEPvj"
    },
    {
     "mangled_component_name":"_ZN7android8hardware9BHwBinder13unlinkToDeathERKNS_2wpINS0_7IBinder14DeathRecipientEEEPvjPS5_"
    },
    {
     "mangled_component_name":"_ZNK7android8hardware7IBinder13checkSubclassEPKv"
    },
    {
     "mangled_component_name":"_ZN7android8hardware9BHwBinder12attachObjectEPKvPvS4_PFvS3_S4_S4_E"
    },
    {
     "mangled_component_name":"_ZNK7android8hardware9BHwBinder10findObjectEPKv"
    },
    {
     "mangled_component_name":"_ZN7android8hardware9BHwBinder12detachObjectEPKv"
    },
    {
     "mangled_component_name":"_ZN7android8hardware9BHwBinder11localBinderEv"
    },
    {
     "mangled_component_name":"_ZN7android8hardware7IBinder12remoteBinderEv"
    },
    {
     "kind":"complete_dtor_pointer",
     "mangled_component_name":"_ZN7android10frameworks13sensorservice4V1_023BnHwDirectReportChannelD1Ev"
    },
    {
     "kind":"deleting_dtor_pointer",
     "mangled_component_name":"_ZN7android10frameworks13sensorservice4V1_023BnHwDirectReportChannelD0Ev"
    },
    {
     "mangled_component_name":"_ZN7android10frameworks13sensorservice4V1_023BnHwDirectReportChannel10onTransactEjRKNS_8hardware6ParcelEPS5_jNSt3__18functionIFvRS5_EEE"
    },
    {
     "kind":"offset_to_top",
     "component_value":-32
    },
    {
     "kind":"rtti",
     "mangled_component_name":"_ZTIN7android10frameworks13sensorservice4V1_023BnHwDirectReportChannelE"
    },
    {
     "kind":"complete_dtor_pointer",
     "mangled_component_name":"_ZThn32_N7android10frameworks13sensorservice4V1_023BnHwDirectReportChannelD1Ev"
    },
    {
     "kind":"deleting_dtor_pointer",
     "mangled_component_name":"_ZThn32_N7android10frameworks13sensorservice4V1_023BnHwDirectReportChannelD0Ev"
    },
    {
     "kind":"vcall_offset"
    },
    {
     "kind":"vcall_offset"
    },
    {
     "kind":"vcall_offset"
    },
    {
     "kind":"vcall_offset"
    },
    {
     "kind":"vcall_offset",
     "component_value":-136
    },
    {
     "kind":"offset_to_top",
     "component_value":-136
    },
    {
     "kind":"rtti",
     "mangled_component_name":"_ZTIN7android10frameworks13sensorservice4V1_023BnHwDirectReportChannelE"
    },
    {
     "kind":"complete_dtor_pointer",
     "mangled_component_name":"_ZTv0_n24_N7android10frameworks13sensorservice4V1_023BnHwDirectReportChannelD1Ev"
    },
    {
     "kind":"deleting_dtor_pointer",
     "mangled_component_name":"_ZTv0_n24_N7android10frameworks13sensorservice4V1_023BnHwDirectReportChannelD0Ev"
    },
    {
     "mangled_component_name":"_ZN7android7RefBase10onFirstRefEv"
    },
    {
     "mangled_component_name":"_ZN7android7RefBase15onLastStrongRefEPKv"
    },
    {
     "mangled_component_name":"_ZN7android7RefBase20onIncStrongAttemptedEjPKv"
    },
    {
     "mangled_component_name":"_ZN7android7RefBase13onLastWeakRefEPKv"
    }
   ],
   "unique_id":"_ZTSN7android10frameworks13sensorservice4V1_023BnHwDirectReportChannelE"
  },
  {
   "vtable_components":[
    {
     "kind":"vbase_offset",
     "component_value":8
    },
    {
     "kind":"offset_to_top"
    },
    {
     "kind":"rtti",
     "mangled_component_name":"_ZTIN7android10frameworks13sensorservice4V1_011IEventQueueE"
    },
    {
     "mangled_component_name":"_ZNK7android10frameworks13sensorservice4V1_011IEventQueue8isRemoteEv"
    },
    {
     "mangled_component_name":"_ZN7android10frameworks13sensorservice4V1_011IEventQueue14interfaceChainENSt3__18functionIFvRKNS_8hardware8hidl_vecINS6_11hidl_stringEEEEEE"
    },
    {
     "mangled_component_name":"_ZN7android10frameworks13sensorservice4V1_011IEventQueue5debugERKNS_8hardware11hidl_handleERKNS4_8hidl_vecINS4_11hidl_stringEEE"
    },
    {
     "mangled_component_name":"_ZN7android10frameworks13sensorservice4V1_011IEventQueue19interfaceDescriptorENSt3__18functionIFvRKNS_8hardware11hidl_stringEEEE"
    },
    {
     "mangled_component_name":"_ZN7android10frameworks13sensorservice4V1_011IEventQueue12getHashChainENSt3__18functionIFvRKNS_8hardware8hidl_vecINS6_10hidl_arrayIhLm32EJEEEEEEEE"
    },
    {
     "mangled_component_name":"_ZN7android10frameworks13sensorservice4V1_011IEventQueue21setHALInstrumentationEv"
    },
    {
     "mangled_component_name":"_ZN7android10frameworks13sensorservice4V1_011IEventQueue11linkToDeathERKNS_2spINS_8hardware20hidl_death_recipientEEEm"
    },
    {
     "mangled_component_name":"_ZN7android10frameworks13sensorservice4V1_011IEventQueue4pingEv"
    },
    {
     "mangled_component_name":"_ZN7android10frameworks13sensorservice4V1_011IEventQueue12getDebugInfoENSt3__18functionIFvRKNS_4hidl4base4V1_09DebugInfoEEEE"
    },
    {
     "mangled_component_name":"_ZN7android10frameworks13sensorservice4V1_011IEventQueue21notifySyspropsChangedEv"
    },
    {
     "mangled_component_name":"_ZN7android10frameworks13sensorservice4V1_011IEventQueue13unlinkToDeathERKNS_2spINS_8hardware20hidl_death_recipientEEE"
    },
    {
     "kind":"complete_dtor_pointer",
     "mangled_component_name":"_ZN7android10frameworks13sensorservice4V1_011IEventQueueD1Ev"
    },
    {
     "kind":"deleting_dtor_pointer",
     "mangled_component_name":"_ZN7android10frameworks13sensorservice4V1_011IEventQueueD0Ev"
    },
    {
     "is_pure":true,
     "mangled_component_name":"_ZN7android10frameworks13sensorservice4V1_011IEventQueue12enableSensorEiil"
    },
    {
     "is_pure":true,
     "mangled_component_name":"_ZN7android10frameworks13sensorservice4V1_011IEventQueue13disableSensorEi"
    },
    {
     "kind":"vcall_offset"
    },
    {
     "kind":"vcall_offset"
    },
    {
     "kind":"vcall_offset"
    },
    {
     "kind":"vcall_offset"
    },
    {
     "kind":"vcall_offset",
     "component_value":-8
    },
    {
     "kind":"offset_to_top",
     "component_value":-8
    },
    {
     "kind":"rtti",
     "mangled_component_name":"_ZTIN7android10frameworks13sensorservice4V1_011IEventQueueE"
    },
    {
     "kind":"complete_dtor_pointer",
     "mangled_component_name":"_ZTv0_n24_N7android10frameworks13sensorservice4V1_011IEventQueueD1Ev"
    },
    {
     "kind":"deleting_dtor_pointer",
     "mangled_component_name":"_ZTv0_n24_N7android10frameworks13sensorservice4V1_011IEventQueueD0Ev"
    },
    {
     "mangled_component_name":"_ZN7android7RefBase10onFirstRefEv"
    },
    {
     "mangled_component_name":"_ZN7android7RefBase15onLastStrongRefEPKv"
    },
    {
     "mangled_component_name":"_ZN7android7RefBase20onIncStrongAttemptedEjPKv"
    },
    {
     "mangled_component_name":"_ZN7android7RefBase13onLastWeakRefEPKv"
    }
   ],
   "unique_id":"_ZTSN7android10frameworks13sensorservice4V1_011IEventQueueE"
  },
  {
   "vtable_components":[
    {
     "kind":"vbase_offset",
     "component_value":120
    },
    {
     "kind":"offset_to_top"
    },
    {
     "kind":"rtti",
     "mangled_component_name":"_ZTIN7android10frameworks13sensorservice4V1_021BsDirectReportChannelE"
    },
    {
     "mangled_component_name":"_ZNK7android10frameworks13sensorservice4V1_020IDirectReportChannel8isRemoteEv"
    },
    {
     "mangled_component_name":"_ZN7android10frameworks13sensorservice4V1_021BsDirectReportChannel14interfaceChainENSt3__18functionIFvRKNS_8hardware8hidl_vecINS6_11hidl_stringEEEEEE"
    },
    {
     "mangled_component_name":"_ZN7android10frameworks13sensorservice4V1_021BsDirectReportChannel5debugERKNS_8hardware11hidl_handleERKNS4_8hidl_vecINS4_11hidl_stringEEE"
    },
    {
     "mangled_component_name":"_ZN7android10frameworks13sensorservice4V1_021BsDirectReportChannel19interfaceDescriptorENSt3__18functionIFvRKNS_8hardware11hidl_stringEEEE"
    },
    {
     "mangled_component_name":"_ZN7android10frameworks13sensorservice4V1_021BsDirectReportChannel12getHashChainENSt3__18functionIFvRKNS_8hardware8hidl_vecINS6_10hidl_arrayIhLm32EJEEEEEEEE"
    },
    {
     "mangled_component_name":"_ZN7android10frameworks13sensorservice4V1_021BsDirectReportChannel21setHALInstrumentationEv"
    },
    {
     "mangled_component_name":"_ZN7android10frameworks13sensorservice4V1_021BsDirectReportChannel11linkToDeathERKNS_2spINS_8hardware20hidl_death_recipientEEEm"
    },
    {
     "mangled_component_name":"_ZN7android10frameworks13sensorservice4V1_021BsDirectReportChannel4pingEv"
    },
    {
     "mangled_component_name":"_ZN7android10frameworks13sensorservice4V1_021BsDirectReportChannel12getDebugInfoENSt3__18functionIFvRKNS_4hidl4base4V1_09DebugInfoEEEE"
    },
    {
     "mangled_component_name":"_ZN7android10frameworks13sensorservice4V1_021BsDirectReportChannel21notifySyspropsChangedEv"
    },
    {
     "mangled_component_name":"_ZN7android10frameworks13sensorservice4V1_021BsDirectReportChannel13unlinkToDeathERKNS_2spINS_8hardware20hidl_death_recipientEEE"
    },
    {
     "kind":"complete_dtor_pointer",
     "mangled_component_name":"_ZN7android10frameworks13sensorservice4V1_021BsDirectReportChannelD1Ev"
    },
    {
     "kind":"deleting_dtor_pointer",
     "mangled_component_name":"_ZN7android10frameworks13sensorservice4V1_021BsDirectReportChannelD0Ev"
    },
    {
     "mangled_component_name":"_ZN7android10frameworks13sensorservice4V1_021BsDirectReportChannel9configureEiNS_8hardware7sensors4V1_09RateLevelENSt3__18functionIFviNS2_6ResultEEEE"
    },
    {
     "kind":"offset_to_top",
     "component_value":-8
    },
    {
     "kind":"rtti",
     "mangled_component_name":"_ZTIN7android10frameworks13sensorservice4V1_021BsDirectReportChannelE"
    },
    {
     "kind":"complete_dtor_pointer",
     "mangled_component_name":"_ZThn8_N7android10frameworks13sensorservice4V1_021BsDirectReportChannelD1Ev"
    },
    {
     "kind":"deleting_dtor_pointer",
     "mangled_component_name":"_ZThn8_N7android10frameworks13sensorservice4V1_021BsDirectReportChannelD0Ev"
    },
    {
     "kind":"vcall_offset"
    },
    {
     "kind":"vcall_offset"
    },
    {
     "kind":"vcall_offset"
    },
    {
     "kind":"vcall_offset"
    },
    {
     "kind":"vcall_offset",
     "component_value":-120
    },
    {
     "kind":"offset_to_top",
     "component_value":-120
    },
    {
     "kind":"rtti",
     "mangled_component_name":"_ZTIN7android10frameworks13sensorservice4V1_021BsDirectReportChannelE"
    },
    {
     "kind":"complete_dtor_pointer",
     "mangled_component_name":"_ZTv0_n24_N7android10frameworks13sensorservice4V1_021BsDirectReportChannelD1Ev"
    },
    {
     "kind":"deleting_dtor_pointer",
     "mangled_component_name":"_ZTv0_n24_N7android10frameworks13sensorservice4V1_021BsDirectReportChannelD0Ev"
    },
    {
     "mangled_component_name":"_ZN7android7RefBase10onFirstRefEv"
    },
    {
     "mangled_component_name":"_ZN7android7RefBase15onLastStrongRefEPKv"
    },
    {
     "mangled_component_name":"_ZN7android7RefBase20onIncStrongAttemptedEjPKv"
    },
    {
     "mangled_component_name":"_ZN7android7RefBase13onLastWeakRefEPKv"
    }
   ],
   "unique_id":"_ZTSN7android10frameworks13sensorservice4V1_021BsDirectReportChannelE"
  },
  {
   "vtable_components":[
    {
     "kind":"vbase_offset",
     "component_value":200
    },
    {
     "kind":"offset_to_top"
    },
    {
     "kind":"rtti",
     "mangled_component_name":"_ZTIN7android10frameworks13sensorservice4V1_014BpHwEventQueueE"
    },
    {
     "mangled_component_name":"_ZNK7android10frameworks13sensorservice4V1_014BpHwEventQueue8isRemoteEv"
    },
    {
     "mangled_component_name":"_ZN7android10frameworks13sensorservice4V1_014BpHwEventQueue14interfaceChainENSt3__18functionIFvRKNS_8hardware8hidl_vecINS6_11hidl_stringEEEEEE"
    },
    {
     "mangled_component_name":"_ZN7android10frameworks13sensorservice4V1_014BpHwEventQueue5debugERKNS_8hardware11hidl_handleERKNS4_8hidl_vecINS4_11hidl_stringEEE"
    },
    {
     "mangled_component_name":"_ZN7android10frameworks13sensorservice4V1_014BpHwEventQueue19interfaceDescriptorENSt3__18functionIFvRKNS_8hardware11hidl_stringEEEE"
    },
    {
     "mangled_component_name":"_ZN7android10frameworks13sensorservice4V1_014BpHwEventQueue12getHashChainENSt3__18functionIFvRKNS_8hardware8hidl_vecINS6_10hidl_arrayIhLm32EJEEEEEEEE"
    },
    {
     "mangled_component_name":"_ZN7android10frameworks13sensorservice4V1_014BpHwEventQueue21setHALInstrumentationEv"
    },
    {
     "mangled_component_name":"_ZN7android10frameworks13sensorservice4V1_014BpHwEventQueue11linkToDeathERKNS_2spINS_8hardware20hidl_death_recipientEEEm"
    },
    {
     "mangled_component_name":"_ZN7android10frameworks13sensorservice4V1_014BpHwEventQueue4pingEv"
    },
    {
     "mangled_component_name":"_ZN7android10frameworks13sensorservice4V1_014BpHwEventQueue12getDebugInfoENSt3__18functionIFvRKNS_4hidl4base4V1_09DebugInfoEEEE"
    },
    {
     "mangled_component_name":"_ZN7android10frameworks13sensorservice4V1_014BpHwEventQueue21notifySyspropsChangedEv"
    },
    {
     "mangled_component_name":"_ZN7android10frameworks13sensorservice4V1_014BpHwEventQueue13unlinkToDeathERKNS_2spINS_8hardware20hidl_death_recipientEEE"
    },
    {
     "kind":"complete_dtor_pointer",
     "mangled_component_name":"_ZN7android10frameworks13sensorservice4V1_014BpHwEventQueueD1Ev"
    },
    {
     "kind":"deleting_dtor_pointer",
     "mangled_component_name":"_ZN7android10frameworks13sensorservice4V1_014BpHwEventQueueD0Ev"
    },
    {
     "mangled_component_name":"_ZN7android10frameworks13sensorservice4V1_014BpHwEventQueue12enableSensorEiil"
    },
    {
     "mangled_component_name":"_ZN7android10frameworks13sensorservice4V1_014BpHwEventQueue13disableSensorEi"
    },
    {
     "mangled_component_name":"_ZN7android8hardware11BpInterfaceINS_10frameworks13sensorservice4V1_011IEventQueueEE10onAsBinderEv"
    },
    {
     "kind":"vbase_offset",
     "component_value":192
    },
    {
     "kind":"offset_to_top",
     "component_value":-8
    },
    {
     "kind":"rtti",
     "mangled_component_name":"_ZTIN7android10frameworks13sensorservice4V1_014BpHwEventQueueE"
    },
    {
     "kind":"complete_dtor_pointer",
     "mangled_component_name":"_ZThn8_N7android10frameworks13sensorservice4V1_014BpHwEventQueueD1Ev"
    },
    {
     "kind":"deleting_dtor_pointer",
     "mangled_component_name":"_ZThn8_N7android10frameworks13sensorservice4V1_014BpHwEventQueueD0Ev"
    },
    {
     "mangled_component_name":"_ZThn8_N7android8hardware11BpInterfaceINS_10frameworks13sensorservice4V1_011IEventQueueEE10onAsBinderEv"
    },
    {
     "kind":"vbase_offset",
     "component_value":184
    },
    {
     "kind":"offset_to_top",
     "component_value":-16
    },
    {
     "kind":"rtti",
     "mangled_component_name":"_ZTIN7android10frameworks13sensorservice4V1_014BpHwEventQueueE"
    },
    {
     "kind":"complete_dtor_pointer",
     "mangled_component_name":"_ZThn16_N7android10frameworks13sensorservice4V1_014BpHwEventQueueD1Ev"
    },
    {
     "kind":"deleting_dtor_pointer",
     "mangled_component_name":"_ZThn16_N7android10frameworks13sensorservice4V1_014BpHwEventQueueD0Ev"
    },
    {
     "mangled_component_name":"_ZN7android8hardware11BpHwRefBase10onFirstRefEv"
    },
    {
     "mangled_component_name":"_ZN7android8hardware11BpHwRefBase15onLastStrongRefEPKv"
    },
    {
     "mangled_component_name":"_ZN7android8hardware11BpHwRefBase20onIncStrongAttemptedEjPKv"
    },
    {
     "kind":"offset_to_top",
     "component_value":-48
    },
    {
     "kind":"rtti",
     "mangled_component_name":"_ZTIN7android10frameworks13sensorservice4V1_014BpHwEventQueueE"
    },
    {
     "kind":"complete_dtor_pointer",
     "mangled_component_name":"_ZThn48_N7android10frameworks13sensorservice4V1_014BpHwEventQueueD1Ev"
    },
    {
     "kind":"deleting_dtor_pointer",
     "mangled_component_name":"_ZThn48_N7android10frameworks13sensorservice4V1_014BpHwEventQueueD0Ev"
    },
    {
     "kind":"vcall_offset"
    },
    {
     "kind":"vcall_offset",
     "component_value":-184
    },
    {
     "kind":"vcall_offset",
     "component_value":-184
    },
    {
     "kind":"vcall_offset",
     "component_value":-184
    },
    {
     "kind":"vcall_offset",
     "component_value":-200
    },
    {
     "kind":"offset_to_top",
     "component_value":-200
    },
    {
     "kind":"rtti",
     "mangled_component_name":"_ZTIN7android10frameworks13sensorservice4V1_014BpHwEventQueueE"
    },
    {
     "kind":"complete_dtor_pointer",
     "mangled_component_name":"_ZTv0_n24_N7android10frameworks13sensorservice4V1_014BpHwEventQueueD1Ev"
    },
    {
     "kind":"deleting_dtor_pointer",
     "mangled_component_name":"_ZTv0_n24_N7android10frameworks13sensorservice4V1_014BpHwEventQueueD0Ev"
    },
    {
     "mangled_component_name":"_ZTv0_n32_N7android8hardware11BpHwRefBase10onFirstRefEv"
    },
    {
     "mangled_component_name":"_ZTv0_n40_N7android8hardware11BpHwRefBase15onLastStrongRefEPKv"
    },
    {
     "mangled_component_name":"_ZTv0_n48_N7android8hardware11BpHwRefBase20onIncStrongAttemptedEjPKv"
    },
    {
     "mangled_component_name":"_ZN7android7RefBase13onLastWeakRefEPKv"
    }
   ],
   "unique_id":"_ZTSN7android10frameworks13sensorservice4V1_014BpHwEventQueueE"
  },
  {
   "vtable_components":[
    {
     "kind":"vbase_offset",
     "component_value":200
    },
    {
     "kind":"offset_to_top"
    },
    {
     "kind":"rtti",
     "mangled_component_name":"_ZTIN7android10frameworks13sensorservice4V1_023BpHwDirectReportChannelE"
    },
    {
     "mangled_component_name":"_ZNK7android10frameworks13sensorservice4V1_023BpHwDirectReportChannel8isRemoteEv"
    },
    {
     "mangled_component_name":"_ZN7android10frameworks13sensorservice4V1_023BpHwDirectReportChannel14interfaceChainENSt3__18functionIFvRKNS_8hardware8hidl_vecINS6_11hidl_stringEEEEEE"
    },
    {
     "mangled_component_name":"_ZN7android10frameworks13sensorservice4V1_023BpHwDirectReportChannel5debugERKNS_8hardware11hidl_handleERKNS4_8hidl_vecINS4_11hidl_stringEEE"
    },
    {
     "mangled_component_name":"_ZN7android10frameworks13sensorservice4V1_023BpHwDirectReportChannel19interfaceDescriptorENSt3__18functionIFvRKNS_8hardware11hidl_stringEEEE"
    },
    {
     "mangled_component_name":"_ZN7android10frameworks13sensorservice4V1_023BpHwDirectReportChannel12getHashChainENSt3__18functionIFvRKNS_8hardware8hidl_vecINS6_10hidl_arrayIhLm32EJEEEEEEEE"
    },
    {
     "mangled_component_name":"_ZN7android10frameworks13sensorservice4V1_023BpHwDirectReportChannel21setHALInstrumentationEv"
    },
    {
     "mangled_component_name":"_ZN7android10frameworks13sensorservice4V1_023BpHwDirectReportChannel11linkToDeathERKNS_2spINS_8hardware20hidl_death_recipientEEEm"
    },
    {
     "mangled_component_name":"_ZN7android10frameworks13sensorservice4V1_023BpHwDirectReportChannel4pingEv"
    },
    {
     "mangled_component_name":"_ZN7android10frameworks13sensorservice4V1_023BpHwDirectReportChannel12getDebugInfoENSt3__18functionIFvRKNS_4hidl4base4V1_09DebugInfoEEEE"
    },
    {
     "mangled_component_name":"_ZN7android10frameworks13sensorservice4V1_023BpHwDirectReportChannel21notifySyspropsChangedEv"
    },
    {
     "mangled_component_name":"_ZN7android10frameworks13sensorservice4V1_023BpHwDirectReportChannel13unlinkToDeathERKNS_2spINS_8hardware20hidl_death_recipientEEE"
    },
    {
     "kind":"complete_dtor_pointer",
     "mangled_component_name":"_ZN7android10frameworks13sensorservice4V1_023BpHwDirectReportChannelD1Ev"
    },
    {
     "kind":"deleting_dtor_pointer",
     "mangled_component_name":"_ZN7android10frameworks13sensorservice4V1_023BpHwDirectReportChannelD0Ev"
    },
    {
     "mangled_component_name":"_ZN7android10frameworks13sensorservice4V1_023BpHwDirectReportChannel9configureEiNS_8hardware7sensors4V1_09RateLevelENSt3__18functionIFviNS2_6ResultEEEE"
    },
    {
     "mangled_component_name":"_ZN7android8hardware11BpInterfaceINS_10frameworks13sensorservice4V1_020IDirectReportChannelEE10onAsBinderEv"
    },
    {
     "kind":"vbase_offset",
     "component_value":192
    },
    {
     "kind":"offset_to_top",
     "component_value":-8
    },
    {
     "kind":"rtti",
     "mangled_component_name":"_ZTIN7android10frameworks13sensorservice4V1_023BpHwDirectReportChannelE"
    },
    {
     "kind":"complete_dtor_pointer",
     "mangled_component_name":"_ZThn8_N7android10frameworks13sensorservice4V1_023BpHwDirectReportChannelD1Ev"
    },
    {
     "kind":"deleting_dtor_pointer",
     "mangled_component_name":"_ZThn8_N7android10frameworks13sensorservice4V1_023BpHwDirectReportChannelD0Ev"
    },
    {
     "mangled_component_name":"_ZThn8_N7android8hardware11BpInterfaceINS_10frameworks13sensorservice4V1_020IDirectReportChannelEE10onAsBinderEv"
    },
    {
     "kind":"vbase_offset",
     "component_value":184
    },
    {
     "kind":"offset_to_top",
     "component_value":-16
    },
    {
     "kind":"rtti",
     "mangled_component_name":"_ZTIN7android10frameworks13sensorservice4V1_023BpHwDirectReportChannelE"
    },
    {
     "kind":"complete_dtor_pointer",
     "mangled_component_name":"_ZThn16_N7android10frameworks13sensorservice4V1_023BpHwDirectReportChannelD1Ev"
    },
    {
     "kind":"deleting_dtor_pointer",
     "mangled_component_name":"_ZThn16_N7android10frameworks13sensorservice4V1_023BpHwDirectReportChannelD0Ev"
    },
    {
     "mangled_component_name":"_ZN7android8hardware11BpHwRefBase10onFirstRefEv"
    },
    {
     "mangled_component_name":"_ZN7android8hardware11BpHwRefBase15onLastStrongRefEPKv"
    },
    {
     "mangled_component_name":"_ZN7android8hardware11BpHwRefBase20onIncStrongAttemptedEjPKv"
    },
    {
     "kind":"offset_to_top",
     "component_value":-48
    },
    {
     "kind":"rtti",
     "mangled_component_name":"_ZTIN7android10frameworks13sensorservice4V1_023BpHwDirectReportChannelE"
    },
    {
     "kind":"complete_dtor_pointer",
     "mangled_component_name":"_ZThn48_N7android10frameworks13sensorservice4V1_023BpHwDirectReportChannelD1Ev"
    },
    {
     "kind":"deleting_dtor_pointer",
     "mangled_component_name":"_ZThn48_N7android10frameworks13sensorservice4V1_023BpHwDirectReportChannelD0Ev"
    },
    {
     "kind":"vcall_offset"
    },
    {
     "kind":"vcall_offset",
     "component_value":-184
    },
    {
     "kind":"vcall_offset",
     "component_value":-184
    },
    {
     "kind":"vcall_offset",
     "component_value":-184
    },
    {
     "kind":"vcall_offset",
     "component_value":-200
    },
    {
     "kind":"offset_to_top",
     "component_value":-200
    },
    {
     "kind":"rtti",
     "mangled_component_name":"_ZTIN7android10frameworks13sensorservice4V1_023BpHwDirectReportChannelE"
    },
    {
     "kind":"complete_dtor_pointer",
     "mangled_component_name":"_ZTv0_n24_N7android10frameworks13sensorservice4V1_023BpHwDirectReportChannelD1Ev"
    },
    {
     "kind":"deleting_dtor_pointer",
     "mangled_component_name":"_ZTv0_n24_N7android10frameworks13sensorservice4V1_023BpHwDirectReportChannelD0Ev"
    },
    {
     "mangled_component_name":"_ZTv0_n32_N7android8hardware11BpHwRefBase10onFirstRefEv"
    },
    {
     "mangled_component_name":"_ZTv0_n40_N7android8hardware11BpHwRefBase15onLastStrongRefEPKv"
    },
    {
     "mangled_component_name":"_ZTv0_n48_N7android8hardware11BpHwRefBase20onIncStrongAttemptedEjPKv"
    },
    {
     "mangled_component_name":"_ZN7android7RefBase13onLastWeakRefEPKv"
    }
   ],
   "unique_id":"_ZTSN7android10frameworks13sensorservice4V1_023BpHwDirectReportChannelE"
  },
  {
   "vtable_components":[
    {
     "kind":"vbase_offset",
     "component_value":136
    },
    {
     "kind":"offset_to_top"
    },
    {
     "kind":"rtti",
     "mangled_component_name":"_ZTIN7android10frameworks13sensorservice4V1_022BnHwEventQueueCallbackE"
    },
    {
     "mangled_component_name":"_ZN7android8hardware9BHwBinder8transactEjRKNS0_6ParcelEPS2_jNSt3__18functionIFvRS2_EEE"
    },
    {
     "mangled_component_name":"_ZN7android8hardware9BHwBinder11linkToDeathERKNS_2spINS0_7IBinder14DeathRecipientEEEPvj"
    },
    {
     "mangled_component_name":"_ZN7android8hardware9BHwBinder13unlinkToDeathERKNS_2wpINS0_7IBinder14DeathRecipientEEEPvjPS5_"
    },
    {
     "mangled_component_name":"_ZNK7android8hardware7IBinder13checkSubclassEPKv"
    },
    {
     "mangled_component_name":"_ZN7android8hardware9BHwBinder12attachObjectEPKvPvS4_PFvS3_S4_S4_E"
    },
    {
     "mangled_component_name":"_ZNK7android8hardware9BHwBinder10findObjectEPKv"
    },
    {
     "mangled_component_name":"_ZN7android8hardware9BHwBinder12detachObjectEPKv"
    },
    {
     "mangled_component_name":"_ZN7android8hardware9BHwBinder11localBinderEv"
    },
    {
     "mangled_component_name":"_ZN7android8hardware7IBinder12remoteBinderEv"
    },
    {
     "kind":"complete_dtor_pointer",
     "mangled_component_name":"_ZN7android10frameworks13sensorservice4V1_022BnHwEventQueueCallbackD1Ev"
    },
    {
     "kind":"deleting_dtor_pointer",
     "mangled_component_name":"_ZN7android10frameworks13sensorservice4V1_022BnHwEventQueueCallbackD0Ev"
    },
    {
     "mangled_component_name":"_ZN7android10frameworks13sensorservice4V1_022BnHwEventQueueCallback10onTransactEjRKNS_8hardware6ParcelEPS5_jNSt3__18functionIFvRS5_EEE"
    },
    {
     "kind":"offset_to_top",
     "component_value":-32
    },
    {
     "kind":"rtti",
     "mangled_component_name":"_ZTIN7android10frameworks13sensorservice4V1_022BnHwEventQueueCallbackE"
    },
    {
     "kind":"complete_dtor_pointer",
     "mangled_component_name":"_ZThn32_N7android10frameworks13sensorservice4V1_022BnHwEventQueueCallbackD1Ev"
    },
    {
     "kind":"deleting_dtor_pointer",
     "mangled_component_name":"_ZThn32_N7android10frameworks13sensorservice4V1_022BnHwEventQueueCallbackD0Ev"
    },
    {
     "kind":"vcall_offset"
    },
    {
     "kind":"vcall_offset"
    },
    {
     "kind":"vcall_offset"
    },
    {
     "kind":"vcall_offset"
    },
    {
     "kind":"vcall_offset",
     "component_value":-136
    },
    {
     "kind":"offset_to_top",
     "component_value":-136
    },
    {
     "kind":"rtti",
     "mangled_component_name":"_ZTIN7android10frameworks13sensorservice4V1_022BnHwEventQueueCallbackE"
    },
    {
     "kind":"complete_dtor_pointer",
     "mangled_component_name":"_ZTv0_n24_N7android10frameworks13sensorservice4V1_022BnHwEventQueueCallbackD1Ev"
    },
    {
     "kind":"deleting_dtor_pointer",
     "mangled_component_name":"_ZTv0_n24_N7android10frameworks13sensorservice4V1_022BnHwEventQueueCallbackD0Ev"
    },
    {
     "mangled_component_name":"_ZN7android7RefBase10onFirstRefEv"
    },
    {
     "mangled_component_name":"_ZN7android7RefBase15onLastStrongRefEPKv"
    },
    {
     "mangled_component_name":"_ZN7android7RefBase20onIncStrongAttemptedEjPKv"
    },
    {
     "mangled_component_name":"_ZN7android7RefBase13onLastWeakRefEPKv"
    }
   ],
   "unique_id":"_ZTSN7android10frameworks13sensorservice4V1_022BnHwEventQueueCallbackE"
  },
  {
   "vtable_components":[
    {
     "kind":"vbase_offset",
     "component_value":8
    },
    {
     "kind":"offset_to_top"
    },
    {
     "kind":"rtti",
     "mangled_component_name":"_ZTIN7android10frameworks13sensorservice4V1_019IEventQueueCallbackE"
    },
    {
     "mangled_component_name":"_ZNK7android10frameworks13sensorservice4V1_019IEventQueueCallback8isRemoteEv"
    },
    {
     "mangled_component_name":"_ZN7android10frameworks13sensorservice4V1_019IEventQueueCallback14interfaceChainENSt3__18functionIFvRKNS_8hardware8hidl_vecINS6_11hidl_stringEEEEEE"
    },
    {
     "mangled_component_name":"_ZN7android10frameworks13sensorservice4V1_019IEventQueueCallback5debugERKNS_8hardware11hidl_handleERKNS4_8hidl_vecINS4_11hidl_stringEEE"
    },
    {
     "mangled_component_name":"_ZN7android10frameworks13sensorservice4V1_019IEventQueueCallback19interfaceDescriptorENSt3__18functionIFvRKNS_8hardware11hidl_stringEEEE"
    },
    {
     "mangled_component_name":"_ZN7android10frameworks13sensorservice4V1_019IEventQueueCallback12getHashChainENSt3__18functionIFvRKNS_8hardware8hidl_vecINS6_10hidl_arrayIhLm32EJEEEEEEEE"
    },
    {
     "mangled_component_name":"_ZN7android10frameworks13sensorservice4V1_019IEventQueueCallback21setHALInstrumentationEv"
    },
    {
     "mangled_component_name":"_ZN7android10frameworks13sensorservice4V1_019IEventQueueCallback11linkToDeathERKNS_2spINS_8hardware20hidl_death_recipientEEEm"
    },
    {
     "mangled_component_name":"_ZN7android10frameworks13sensorservice4V1_019IEventQueueCallback4pingEv"
    },
    {
     "mangled_component_name":"_ZN7android10frameworks13sensorservice4V1_019IEventQueueCallback12getDebugInfoENSt3__18functionIFvRKNS_4hidl4base4V1_09DebugInfoEEEE"
    },
    {
     "mangled_component_name":"_ZN7android10frameworks13sensorservice4V1_019IEventQueueCallback21notifySyspropsChangedEv"
    },
    {
     "mangled_component_name":"_ZN7android10frameworks13sensorservice4V1_019IEventQueueCallback13unlinkToDeathERKNS_2spINS_8hardware20hidl_death_recipientEEE"
    },
    {
     "kind":"complete_dtor_pointer",
     "mangled_component_name":"_ZN7android10frameworks13sensorservice4V1_019IEventQueueCallbackD1Ev"
    },
    {
     "kind":"deleting_dtor_pointer",
     "mangled_component_name":"_ZN7android10frameworks13sensorservice4V1_019IEventQueueCallbackD0Ev"
    },
    {
     "is_pure":true,
     "mangled_component_name":"_ZN7android10frameworks13sensorservice4V1_019IEventQueueCallback7onEventERKNS_8hardware7sensors4V1_05EventE"
    },
    {
     "kind":"vcall_offset"
    },
    {
     "kind":"vcall_offset"
    },
    {
     "kind":"vcall_offset"
    },
    {
     "kind":"vcall_offset"
    },
    {
     "kind":"vcall_offset",
     "component_value":-8
    },
    {
     "kind":"offset_to_top",
     "component_value":-8
    },
    {
     "kind":"rtti",
     "mangled_component_name":"_ZTIN7android10frameworks13sensorservice4V1_019IEventQueueCallbackE"
    },
    {
     "kind":"complete_dtor_pointer",
     "mangled_component_name":"_ZTv0_n24_N7android10frameworks13sensorservice4V1_019IEventQueueCallbackD1Ev"
    },
    {
     "kind":"deleting_dtor_pointer",
     "mangled_component_name":"_ZTv0_n24_N7android10frameworks13sensorservice4V1_019IEventQueueCallbackD0Ev"
    },
    {
     "mangled_component_name":"_ZN7android7RefBase10onFirstRefEv"
    },
    {
     "mangled_component_name":"_ZN7android7RefBase15onLastStrongRefEPKv"
    },
    {
     "mangled_component_name":"_ZN7android7RefBase20onIncStrongAttemptedEjPKv"
    },
    {
     "mangled_component_name":"_ZN7android7RefBase13onLastWeakRefEPKv"
    }
   ],
   "unique_id":"_ZTSN7android10frameworks13sensorservice4V1_019IEventQueueCallbackE"
  },
  {
   "vtable_components":[
    {
     "kind":"vbase_offset",
     "component_value":136
    },
    {
     "kind":"offset_to_top"
    },
    {
     "kind":"rtti",
     "mangled_component_name":"_ZTIN7android10frameworks13sensorservice4V1_014BnHwEventQueueE"
    },
    {
     "mangled_component_name":"_ZN7android8hardware9BHwBinder8transactEjRKNS0_6ParcelEPS2_jNSt3__18functionIFvRS2_EEE"
    },
    {
     "mangled_component_name":"_ZN7android8hardware9BHwBinder11linkToDeathERKNS_2spINS0_7IBinder14DeathRecipientEEEPvj"
    },
    {
     "mangled_component_name":"_ZN7android8hardware9BHwBinder13unlinkToDeathERKNS_2wpINS0_7IBinder14DeathRecipientEEEPvjPS5_"
    },
    {
     "mangled_component_name":"_ZNK7android8hardware7IBinder13checkSubclassEPKv"
    },
    {
     "mangled_component_name":"_ZN7android8hardware9BHwBinder12attachObjectEPKvPvS4_PFvS3_S4_S4_E"
    },
    {
     "mangled_component_name":"_ZNK7android8hardware9BHwBinder10findObjectEPKv"
    },
    {
     "mangled_component_name":"_ZN7android8hardware9BHwBinder12detachObjectEPKv"
    },
    {
     "mangled_component_name":"_ZN7android8hardware9BHwBinder11localBinderEv"
    },
    {
     "mangled_component_name":"_ZN7android8hardware7IBinder12remoteBinderEv"
    },
    {
     "kind":"complete_dtor_pointer",
     "mangled_component_name":"_ZN7android10frameworks13sensorservice4V1_014BnHwEventQueueD1Ev"
    },
    {
     "kind":"deleting_dtor_pointer",
     "mangled_component_name":"_ZN7android10frameworks13sensorservice4V1_014BnHwEventQueueD0Ev"
    },
    {
     "mangled_component_name":"_ZN7android10frameworks13sensorservice4V1_014BnHwEventQueue10onTransactEjRKNS_8hardware6ParcelEPS5_jNSt3__18functionIFvRS5_EEE"
    },
    {
     "kind":"offset_to_top",
     "component_value":-32
    },
    {
     "kind":"rtti",
     "mangled_component_name":"_ZTIN7android10frameworks13sensorservice4V1_014BnHwEventQueueE"
    },
    {
     "kind":"complete_dtor_pointer",
     "mangled_component_name":"_ZThn32_N7android10frameworks13sensorservice4V1_014BnHwEventQueueD1Ev"
    },
    {
     "kind":"deleting_dtor_pointer",
     "mangled_component_name":"_ZThn32_N7android10frameworks13sensorservice4V1_014BnHwEventQueueD0Ev"
    },
    {
     "kind":"vcall_offset"
    },
    {
     "kind":"vcall_offset"
    },
    {
     "kind":"vcall_offset"
    },
    {
     "kind":"vcall_offset"
    },
    {
     "kind":"vcall_offset",
     "component_value":-136
    },
    {
     "kind":"offset_to_top",
     "component_value":-136
    },
    {
     "kind":"rtti",
     "mangled_component_name":"_ZTIN7android10frameworks13sensorservice4V1_014BnHwEventQueueE"
    },
    {
     "kind":"complete_dtor_pointer",
     "mangled_component_name":"_ZTv0_n24_N7android10frameworks13sensorservice4V1_014BnHwEventQueueD1Ev"
    },
    {
     "kind":"deleting_dtor_pointer",
     "mangled_component_name":"_ZTv0_n24_N7android10frameworks13sensorservice4V1_014BnHwEventQueueD0Ev"
    },
    {
     "mangled_component_name":"_ZN7android7RefBase10onFirstRefEv"
    },
    {
     "mangled_component_name":"_ZN7android7RefBase15onLastStrongRefEPKv"
    },
    {
     "mangled_component_name":"_ZN7android7RefBase20onIncStrongAttemptedEjPKv"
    },
    {
     "mangled_component_name":"_ZN7android7RefBase13onLastWeakRefEPKv"
    }
   ],
   "unique_id":"_ZTSN7android10frameworks13sensorservice4V1_014BnHwEventQueueE"
  },
  {
   "vtable_components":[
    {
     "kind":"vbase_offset",
     "component_value":120
    },
    {
     "kind":"offset_to_top"
    },
    {
     "kind":"rtti",
     "mangled_component_name":"_ZTIN7android10frameworks13sensorservice4V1_012BsEventQueueE"
    },
    {
     "mangled_component_name":"_ZNK7android10frameworks13sensorservice4V1_011IEventQueue8isRemoteEv"
    },
    {
     "mangled_component_name":"_ZN7android10frameworks13sensorservice4V1_012BsEventQueue14interfaceChainENSt3__18functionIFvRKNS_8hardware8hidl_vecINS6_11hidl_stringEEEEEE"
    },
    {
     "mangled_component_name":"_ZN7android10frameworks13sensorservice4V1_012BsEventQueue5debugERKNS_8hardware11hidl_handleERKNS4_8hidl_vecINS4_11hidl_stringEEE"
    },
    {
     "mangled_component_name":"_ZN7android10frameworks13sensorservice4V1_012BsEventQueue19interfaceDescriptorENSt3__18functionIFvRKNS_8hardware11hidl_stringEEEE"
    },
    {
     "mangled_component_name":"_ZN7android10frameworks13sensorservice4V1_012BsEventQueue12getHashChainENSt3__18functionIFvRKNS_8hardware8hidl_vecINS6_10hidl_arrayIhLm32EJEEEEEEEE"
    },
    {
     "mangled_component_name":"_ZN7android10frameworks13sensorservice4V1_012BsEventQueue21setHALInstrumentationEv"
    },
    {
     "mangled_component_name":"_ZN7android10frameworks13sensorservice4V1_012BsEventQueue11linkToDeathERKNS_2spINS_8hardware20hidl_death_recipientEEEm"
    },
    {
     "mangled_component_name":"_ZN7android10frameworks13sensorservice4V1_012BsEventQueue4pingEv"
    },
    {
     "mangled_component_name":"_ZN7android10frameworks13sensorservice4V1_012BsEventQueue12getDebugInfoENSt3__18functionIFvRKNS_4hidl4base4V1_09DebugInfoEEEE"
    },
    {
     "mangled_component_name":"_ZN7android10frameworks13sensorservice4V1_012BsEventQueue21notifySyspropsChangedEv"
    },
    {
     "mangled_component_name":"_ZN7android10frameworks13sensorservice4V1_012BsEventQueue13unlinkToDeathERKNS_2spINS_8hardware20hidl_death_recipientEEE"
    },
    {
     "kind":"complete_dtor_pointer",
     "mangled_component_name":"_ZN7android10frameworks13sensorservice4V1_012BsEventQueueD1Ev"
    },
    {
     "kind":"deleting_dtor_pointer",
     "mangled_component_name":"_ZN7android10frameworks13sensorservice4V1_012BsEventQueueD0Ev"
    },
    {
     "mangled_component_name":"_ZN7android10frameworks13sensorservice4V1_012BsEventQueue12enableSensorEiil"
    },
    {
     "mangled_component_name":"_ZN7android10frameworks13sensorservice4V1_012BsEventQueue13disableSensorEi"
    },
    {
     "kind":"offset_to_top",
     "component_value":-8
    },
    {
     "kind":"rtti",
     "mangled_component_name":"_ZTIN7android10frameworks13sensorservice4V1_012BsEventQueueE"
    },
    {
     "kind":"complete_dtor_pointer",
     "mangled_component_name":"_ZThn8_N7android10frameworks13sensorservice4V1_012BsEventQueueD1Ev"
    },
    {
     "kind":"deleting_dtor_pointer",
     "mangled_component_name":"_ZThn8_N7android10frameworks13sensorservice4V1_012BsEventQueueD0Ev"
    },
    {
     "kind":"vcall_offset"
    },
    {
     "kind":"vcall_offset"
    },
    {
     "kind":"vcall_offset"
    },
    {
     "kind":"vcall_offset"
    },
    {
     "kind":"vcall_offset",
     "component_value":-120
    },
    {
     "kind":"offset_to_top",
     "component_value":-120
    },
    {
     "kind":"rtti",
     "mangled_component_name":"_ZTIN7android10frameworks13sensorservice4V1_012BsEventQueueE"
    },
    {
     "kind":"complete_dtor_pointer",
     "mangled_component_name":"_ZTv0_n24_N7android10frameworks13sensorservice4V1_012BsEventQueueD1Ev"
    },
    {
     "kind":"deleting_dtor_pointer",
     "mangled_component_name":"_ZTv0_n24_N7android10frameworks13sensorservice4V1_012BsEventQueueD0Ev"
    },
    {
     "mangled_component_name":"_ZN7android7RefBase10onFirstRefEv"
    },
    {
     "mangled_component_name":"_ZN7android7RefBase15onLastStrongRefEPKv"
    },
    {
     "mangled_component_name":"_ZN7android7RefBase20onIncStrongAttemptedEjPKv"
    },
    {
     "mangled_component_name":"_ZN7android7RefBase13onLastWeakRefEPKv"
    }
   ],
   "unique_id":"_ZTSN7android10frameworks13sensorservice4V1_012BsEventQueueE"
  },
  {
   "vtable_components":[
    {
     "kind":"vbase_offset",
     "component_value":120
    },
    {
     "kind":"offset_to_top"
    },
    {
     "kind":"rtti",
     "mangled_component_name":"_ZTIN7android10frameworks13sensorservice4V1_020BsEventQueueCallbackE"
    },
    {
     "mangled_component_name":"_ZNK7android10frameworks13sensorservice4V1_019IEventQueueCallback8isRemoteEv"
    },
    {
     "mangled_component_name":"_ZN7android10frameworks13sensorservice4V1_020BsEventQueueCallback14interfaceChainENSt3__18functionIFvRKNS_8hardware8hidl_vecINS6_11hidl_stringEEEEEE"
    },
    {
     "mangled_component_name":"_ZN7android10frameworks13sensorservice4V1_020BsEventQueueCallback5debugERKNS_8hardware11hidl_handleERKNS4_8hidl_vecINS4_11hidl_stringEEE"
    },
    {
     "mangled_component_name":"_ZN7android10frameworks13sensorservice4V1_020BsEventQueueCallback19interfaceDescriptorENSt3__18functionIFvRKNS_8hardware11hidl_stringEEEE"
    },
    {
     "mangled_component_name":"_ZN7android10frameworks13sensorservice4V1_020BsEventQueueCallback12getHashChainENSt3__18functionIFvRKNS_8hardware8hidl_vecINS6_10hidl_arrayIhLm32EJEEEEEEEE"
    },
    {
     "mangled_component_name":"_ZN7android10frameworks13sensorservice4V1_020BsEventQueueCallback21setHALInstrumentationEv"
    },
    {
     "mangled_component_name":"_ZN7android10frameworks13sensorservice4V1_020BsEventQueueCallback11linkToDeathERKNS_2spINS_8hardware20hidl_death_recipientEEEm"
    },
    {
     "mangled_component_name":"_ZN7android10frameworks13sensorservice4V1_020BsEventQueueCallback4pingEv"
    },
    {
     "mangled_component_name":"_ZN7android10frameworks13sensorservice4V1_020BsEventQueueCallback12getDebugInfoENSt3__18functionIFvRKNS_4hidl4base4V1_09DebugInfoEEEE"
    },
    {
     "mangled_component_name":"_ZN7android10frameworks13sensorservice4V1_020BsEventQueueCallback21notifySyspropsChangedEv"
    },
    {
     "mangled_component_name":"_ZN7android10frameworks13sensorservice4V1_020BsEventQueueCallback13unlinkToDeathERKNS_2spINS_8hardware20hidl_death_recipientEEE"
    },
    {
     "kind":"complete_dtor_pointer",
     "mangled_component_name":"_ZN7android10frameworks13sensorservice4V1_020BsEventQueueCallbackD1Ev"
    },
    {
     "kind":"deleting_dtor_pointer",
     "mangled_component_name":"_ZN7android10frameworks13sensorservice4V1_020BsEventQueueCallbackD0Ev"
    },
    {
     "mangled_component_name":"_ZN7android10frameworks13sensorservice4V1_020BsEventQueueCallback7onEventERKNS_8hardware7sensors4V1_05EventE"
    },
    {
     "kind":"offset_to_top",
     "component_value":-8
    },
    {
     "kind":"rtti",
     "mangled_component_name":"_ZTIN7android10frameworks13sensorservice4V1_020BsEventQueueCallbackE"
    },
    {
     "kind":"complete_dtor_pointer",
     "mangled_component_name":"_ZThn8_N7android10frameworks13sensorservice4V1_020BsEventQueueCallbackD1Ev"
    },
    {
     "kind":"deleting_dtor_pointer",
     "mangled_component_name":"_ZThn8_N7android10frameworks13sensorservice4V1_020BsEventQueueCallbackD0Ev"
    },
    {
     "kind":"vcall_offset"
    },
    {
     "kind":"vcall_offset"
    },
    {
     "kind":"vcall_offset"
    },
    {
     "kind":"vcall_offset"
    },
    {
     "kind":"vcall_offset",
     "component_value":-120
    },
    {
     "kind":"offset_to_top",
     "component_value":-120
    },
    {
     "kind":"rtti",
     "mangled_component_name":"_ZTIN7android10frameworks13sensorservice4V1_020BsEventQueueCallbackE"
    },
    {
     "kind":"complete_dtor_pointer",
     "mangled_component_name":"_ZTv0_n24_N7android10frameworks13sensorservice4V1_020BsEventQueueCallbackD1Ev"
    },
    {
     "kind":"deleting_dtor_pointer",
     "mangled_component_name":"_ZTv0_n24_N7android10frameworks13sensorservice4V1_020BsEventQueueCallbackD0Ev"
    },
    {
     "mangled_component_name":"_ZN7android7RefBase10onFirstRefEv"
    },
    {
     "mangled_component_name":"_ZN7android7RefBase15onLastStrongRefEPKv"
    },
    {
     "mangled_component_name":"_ZN7android7RefBase20onIncStrongAttemptedEjPKv"
    },
    {
     "mangled_component_name":"_ZN7android7RefBase13onLastWeakRefEPKv"
    }
   ],
   "unique_id":"_ZTSN7android10frameworks13sensorservice4V1_020BsEventQueueCallbackE"
  }
 ],
 "elf_functions":[
  {
   "name":"_ZN7android10frameworks13sensorservice4V1_011IEventQueue10getServiceERKNSt3__112basic_stringIcNS4_11char_traitsIcEENS4_9allocatorIcEEEEb"
  },
  {
   "name":"_ZN7android10frameworks13sensorservice4V1_011IEventQueue11linkToDeathERKNS_2spINS_8hardware20hidl_death_recipientEEEm"
  },
  {
   "name":"_ZN7android10frameworks13sensorservice4V1_011IEventQueue12getDebugInfoENSt3__18functionIFvRKNS_4hidl4base4V1_09DebugInfoEEEE"
  },
  {
   "name":"_ZN7android10frameworks13sensorservice4V1_011IEventQueue12getHashChainENSt3__18functionIFvRKNS_8hardware8hidl_vecINS6_10hidl_arrayIhLm32EJEEEEEEEE"
  },
  {
   "name":"_ZN7android10frameworks13sensorservice4V1_011IEventQueue13tryGetServiceERKNSt3__112basic_stringIcNS4_11char_traitsIcEENS4_9allocatorIcEEEEb"
  },
  {
   "name":"_ZN7android10frameworks13sensorservice4V1_011IEventQueue13unlinkToDeathERKNS_2spINS_8hardware20hidl_death_recipientEEE"
  },
  {
   "name":"_ZN7android10frameworks13sensorservice4V1_011IEventQueue14interfaceChainENSt3__18functionIFvRKNS_8hardware8hidl_vecINS6_11hidl_stringEEEEEE"
  },
  {
   "name":"_ZN7android10frameworks13sensorservice4V1_011IEventQueue17registerAsServiceERKNSt3__112basic_stringIcNS4_11char_traitsIcEENS4_9allocatorIcEEEE"
  },
  {
   "name":"_ZN7android10frameworks13sensorservice4V1_011IEventQueue19interfaceDescriptorENSt3__18functionIFvRKNS_8hardware11hidl_stringEEEE"
  },
  {
   "name":"_ZN7android10frameworks13sensorservice4V1_011IEventQueue21notifySyspropsChangedEv"
  },
  {
   "name":"_ZN7android10frameworks13sensorservice4V1_011IEventQueue21setHALInstrumentationEv"
  },
  {
   "name":"_ZN7android10frameworks13sensorservice4V1_011IEventQueue24registerForNotificationsERKNSt3__112basic_stringIcNS4_11char_traitsIcEENS4_9allocatorIcEEEERKNS_2spINS_4hidl7manager4V1_020IServiceNotificationEEE"
  },
  {
   "name":"_ZN7android10frameworks13sensorservice4V1_011IEventQueue4pingEv"
  },
  {
   "name":"_ZN7android10frameworks13sensorservice4V1_011IEventQueue5debugERKNS_8hardware11hidl_handleERKNS4_8hidl_vecINS4_11hidl_stringEEE"
  },
  {
   "name":"_ZN7android10frameworks13sensorservice4V1_011IEventQueue8castFromERKNS_2spINS_4hidl4base4V1_05IBaseEEEb"
  },
  {
   "name":"_ZN7android10frameworks13sensorservice4V1_011IEventQueue8castFromERKNS_2spIS3_EEb"
  },
  {
   "name":"_ZN7android10frameworks13sensorservice4V1_012BsEventQueue13addOnewayTaskENSt3__18functionIFvvEEE"
  },
  {
   "name":"_ZN7android10frameworks13sensorservice4V1_012BsEventQueueC1ENS_2spINS2_11IEventQueueEEE"
  },
  {
   "name":"_ZN7android10frameworks13sensorservice4V1_012BsEventQueueC2ENS_2spINS2_11IEventQueueEEE"
  },
  {
   "name":"_ZN7android10frameworks13sensorservice4V1_014BnHwEventQueue10onTransactEjRKNS_8hardware6ParcelEPS5_jNSt3__18functionIFvRS5_EEE"
  },
  {
   "name":"_ZN7android10frameworks13sensorservice4V1_014BnHwEventQueue12getDebugInfoENSt3__18functionIFvRKNS_4hidl4base4V1_09DebugInfoEEEE"
  },
  {
   "name":"_ZN7android10frameworks13sensorservice4V1_014BnHwEventQueue18_hidl_enableSensorEPNS_4hidl4base4V1_08BnHwBaseERKNS_8hardware6ParcelEPSA_NSt3__18functionIFvRSA_EEE"
  },
  {
   "name":"_ZN7android10frameworks13sensorservice4V1_014BnHwEventQueue19_hidl_disableSensorEPNS_4hidl4base4V1_08BnHwBaseERKNS_8hardware6ParcelEPSA_NSt3__18functionIFvRSA_EEE"
  },
  {
   "name":"_ZN7android10frameworks13sensorservice4V1_014BnHwEventQueue4pingEv"
  },
  {
   "name":"_ZN7android10frameworks13sensorservice4V1_014BnHwEventQueueC1ERKNS_2spINS2_11IEventQueueEEE"
  },
  {
   "name":"_ZN7android10frameworks13sensorservice4V1_014BnHwEventQueueC2ERKNS_2spINS2_11IEventQueueEEE"
  },
  {
   "name":"_ZN7android10frameworks13sensorservice4V1_014BnHwEventQueueD0Ev"
  },
  {
   "name":"_ZN7android10frameworks13sensorservice4V1_014BnHwEventQueueD1Ev"
  },
  {
   "name":"_ZN7android10frameworks13sensorservice4V1_014BnHwEventQueueD2Ev"
  },
  {
   "name":"_ZN7android10frameworks13sensorservice4V1_014BpHwEventQueue11linkToDeathERKNS_2spINS_8hardware20hidl_death_recipientEEEm"
  },
  {
   "name":"_ZN7android10frameworks13sensorservice4V1_014BpHwEventQueue12enableSensorEiil"
  },
  {
   "name":"_ZN7android10frameworks13sensorservice4V1_014BpHwEventQueue12getDebugInfoENSt3__18functionIFvRKNS_4hidl4base4V1_09DebugInfoEEEE"
  },
  {
   "name":"_ZN7android10frameworks13sensorservice4V1_014BpHwEventQueue12getHashChainENSt3__18functionIFvRKNS_8hardware8hidl_vecINS6_10hidl_arrayIhLm32EJEEEEEEEE"
  },
  {
   "name":"_ZN7android10frameworks13sensorservice4V1_014BpHwEventQueue13disableSensorEi"
  },
  {
   "name":"_ZN7android10frameworks13sensorservice4V1_014BpHwEventQueue13unlinkToDeathERKNS_2spINS_8hardware20hidl_death_recipientEEE"
  },
  {
   "name":"_ZN7android10frameworks13sensorservice4V1_014BpHwEventQueue14interfaceChainENSt3__18functionIFvRKNS_8hardware8hidl_vecINS6_11hidl_stringEEEEEE"
  },
  {
   "name":"_ZN7android10frameworks13sensorservice4V1_014BpHwEventQueue18_hidl_enableSensorEPNS_8hardware10IInterfaceEPNS4_7details16HidlInstrumentorEiil"
  },
  {
   "name":"_ZN7android10frameworks13sensorservice4V1_014BpHwEventQueue19_hidl_disableSensorEPNS_8hardware10IInterfaceEPNS4_7details16HidlInstrumentorEi"
  },
  {
   "name":"_ZN7android10frameworks13sensorservice4V1_014BpHwEventQueue19interfaceDescriptorENSt3__18functionIFvRKNS_8hardware11hidl_stringEEEE"
  },
  {
   "name":"_ZN7android10frameworks13sensorservice4V1_014BpHwEventQueue21notifySyspropsChangedEv"
  },
  {
   "name":"_ZN7android10frameworks13sensorservice4V1_014BpHwEventQueue21setHALInstrumentationEv"
  },
  {
   "name":"_ZN7android10frameworks13sensorservice4V1_014BpHwEventQueue4pingEv"
  },
  {
   "name":"_ZN7android10frameworks13sensorservice4V1_014BpHwEventQueue5debugERKNS_8hardware11hidl_handleERKNS4_8hidl_vecINS4_11hidl_stringEEE"
  },
  {
   "name":"_ZN7android10frameworks13sensorservice4V1_014BpHwEventQueueC1ERKNS_2spINS_8hardware7IBinderEEE"
  },
  {
   "name":"_ZN7android10frameworks13sensorservice4V1_014BpHwEventQueueC2ERKNS_2spINS_8hardware7IBinderEEE"
  },
  {
   "name":"_ZN7android10frameworks13sensorservice4V1_014ISensorManager10getServiceERKNSt3__112basic_stringIcNS4_11char_traitsIcEENS4_9allocatorIcEEEEb"
  },
  {
   "name":"_ZN7android10frameworks13sensorservice4V1_014ISensorManager11linkToDeathERKNS_2spINS_8hardware20hidl_death_recipientEEEm"
  },
  {
   "name":"_ZN7android10frameworks13sensorservice4V1_014ISensorManager12getDebugInfoENSt3__18functionIFvRKNS_4hidl4base4V1_09DebugInfoEEEE"
  },
  {
   "name":"_ZN7android10frameworks13sensorservice4V1_014ISensorManager12getHashChainENSt3__18functionIFvRKNS_8hardware8hidl_vecINS6_10hidl_arrayIhLm32EJEEEEEEEE"
  },
  {
   "name":"_ZN7android10frameworks13sensorservice4V1_014ISensorManager13tryGetServiceERKNSt3__112basic_stringIcNS4_11char_traitsIcEENS4_9allocatorIcEEEEb"
  },
  {
   "name":"_ZN7android10frameworks13sensorservice4V1_014ISensorManager13unlinkToDeathERKNS_2spINS_8hardware20hidl_death_recipientEEE"
  },
  {
   "name":"_ZN7android10frameworks13sensorservice4V1_014ISensorManager14interfaceChainENSt3__18functionIFvRKNS_8hardware8hidl_vecINS6_11hidl_stringEEEEEE"
  },
  {
   "name":"_ZN7android10frameworks13sensorservice4V1_014ISensorManager17registerAsServiceERKNSt3__112basic_stringIcNS4_11char_traitsIcEENS4_9allocatorIcEEEE"
  },
  {
   "name":"_ZN7android10frameworks13sensorservice4V1_014ISensorManager19interfaceDescriptorENSt3__18functionIFvRKNS_8hardware11hidl_stringEEEE"
  },
  {
   "name":"_ZN7android10frameworks13sensorservice4V1_014ISensorManager21notifySyspropsChangedEv"
  },
  {
   "name":"_ZN7android10frameworks13sensorservice4V1_014ISensorManager21setHALInstrumentationEv"
  },
  {
   "name":"_ZN7android10frameworks13sensorservice4V1_014ISensorManager24registerForNotificationsERKNSt3__112basic_stringIcNS4_11char_traitsIcEENS4_9allocatorIcEEEERKNS_2spINS_4hidl7manager4V1_020IServiceNotificationEEE"
  },
  {
   "name":"_ZN7android10frameworks13sensorservice4V1_014ISensorManager4pingEv"
  },
  {
   "name":"_ZN7android10frameworks13sensorservice4V1_014ISensorManager5debugERKNS_8hardware11hidl_handleERKNS4_8hidl_vecINS4_11hidl_stringEEE"
  },
  {
   "name":"_ZN7android10frameworks13sensorservice4V1_014ISensorManager8castFromERKNS_2spINS_4hidl4base4V1_05IBaseEEEb"
  },
  {
   "name":"_ZN7android10frameworks13sensorservice4V1_014ISensorManager8castFromERKNS_2spIS3_EEb"
  },
  {
   "name":"_ZN7android10frameworks13sensorservice4V1_015BsSensorManager13addOnewayTaskENSt3__18functionIFvvEEE"
  },
  {
   "name":"_ZN7android10frameworks13sensorservice4V1_015BsSensorManagerC1ENS_2spINS2_14ISensorManagerEEE"
  },
  {
   "name":"_ZN7android10frameworks13sensorservice4V1_015BsSensorManagerC2ENS_2spINS2_14ISensorManagerEEE"
  },
  {
   "name":"_ZN7android10frameworks13sensorservice4V1_017BnHwSensorManager10onTransactEjRKNS_8hardware6ParcelEPS5_jNSt3__18functionIFvRS5_EEE"
  },
  {
   "name":"_ZN7android10frameworks13sensorservice4V1_017BnHwSensorManager12getDebugInfoENSt3__18functionIFvRKNS_4hidl4base4V1_09DebugInfoEEEE"
  },
  {
   "name":"_ZN7android10frameworks13sensorservice4V1_017BnHwSensorManager19_hidl_getSensorListEPNS_4hidl4base4V1_08BnHwBaseERKNS_8hardware6ParcelEPSA_NSt3__18functionIFvRSA_EEE"
  },
  {
   "name":"_ZN7android10frameworks13sensorservice4V1_017BnHwSensorManager22_hidl_createEventQueueEPNS_4hidl4base4V1_08BnHwBaseERKNS_8hardware6ParcelEPSA_NSt3__18functionIFvRSA_EEE"
  },
  {
   "name":"_ZN7android10frameworks13sensorservice4V1_017BnHwSensorManager22_hidl_getDefaultSensorEPNS_4hidl4base4V1_08BnHwBaseERKNS_8hardware6ParcelEPSA_NSt3__18functionIFvRSA_EEE"
  },
  {
   "name":"_ZN7android10frameworks13sensorservice4V1_017BnHwSensorManager31_hidl_createAshmemDirectChannelEPNS_4hidl4base4V1_08BnHwBaseERKNS_8hardware6ParcelEPSA_NSt3__18functionIFvRSA_EEE"
  },
  {
   "name":"_ZN7android10frameworks13sensorservice4V1_017BnHwSensorManager32_hidl_createGrallocDirectChannelEPNS_4hidl4base4V1_08BnHwBaseERKNS_8hardware6ParcelEPSA_NSt3__18functionIFvRSA_EEE"
  },
  {
   "name":"_ZN7android10frameworks13sensorservice4V1_017BnHwSensorManager4pingEv"
  },
  {
   "name":"_ZN7android10frameworks13sensorservice4V1_017BnHwSensorManagerC1ERKNS_2spINS2_14ISensorManagerEEE"
  },
  {
   "name":"_ZN7android10frameworks13sensorservice4V1_017BnHwSensorManagerC2ERKNS_2spINS2_14ISensorManagerEEE"
  },
  {
   "name":"_ZN7android10frameworks13sensorservice4V1_017BnHwSensorManagerD0Ev"
  },
  {
   "name":"_ZN7android10frameworks13sensorservice4V1_017BnHwSensorManagerD1Ev"
  },
  {
   "name":"_ZN7android10frameworks13sensorservice4V1_017BnHwSensorManagerD2Ev"
  },
  {
   "name":"_ZN7android10frameworks13sensorservice4V1_017BpHwSensorManager11linkToDeathERKNS_2spINS_8hardware20hidl_death_recipientEEEm"
  },
  {
   "name":"_ZN7android10frameworks13sensorservice4V1_017BpHwSensorManager12getDebugInfoENSt3__18functionIFvRKNS_4hidl4base4V1_09DebugInfoEEEE"
  },
  {
   "name":"_ZN7android10frameworks13sensorservice4V1_017BpHwSensorManager12getHashChainENSt3__18functionIFvRKNS_8hardware8hidl_vecINS6_10hidl_arrayIhLm32EJEEEEEEEE"
  },
  {
   "name":"_ZN7android10frameworks13sensorservice4V1_017BpHwSensorManager13getSensorListENSt3__18functionIFvRKNS_8hardware8hidl_vecINS6_7sensors4V1_010SensorInfoEEENS2_6ResultEEEE"
  },
  {
   "name":"_ZN7android10frameworks13sensorservice4V1_017BpHwSensorManager13unlinkToDeathERKNS_2spINS_8hardware20hidl_death_recipientEEE"
  },
  {
   "name":"_ZN7android10frameworks13sensorservice4V1_017BpHwSensorManager14interfaceChainENSt3__18functionIFvRKNS_8hardware8hidl_vecINS6_11hidl_stringEEEEEE"
  },
  {
   "name":"_ZN7android10frameworks13sensorservice4V1_017BpHwSensorManager16createEventQueueERKNS_2spINS2_19IEventQueueCallbackEEENSt3__18functionIFvRKNS4_INS2_11IEventQueueEEENS2_6ResultEEEE"
  },
  {
   "name":"_ZN7android10frameworks13sensorservice4V1_017BpHwSensorManager16getDefaultSensorENS_8hardware7sensors4V1_010SensorTypeENSt3__18functionIFvRKNS6_10SensorInfoENS2_6ResultEEEE"
  },
  {
   "name":"_ZN7android10frameworks13sensorservice4V1_017BpHwSensorManager19_hidl_getSensorListEPNS_8hardware10IInterfaceEPNS4_7details16HidlInstrumentorENSt3__18functionIFvRKNS4_8hidl_vecINS4_7sensors4V1_010SensorInfoEEENS2_6ResultEEEE"
  },
  {
   "name":"_ZN7android10frameworks13sensorservice4V1_017BpHwSensorManager19interfaceDescriptorENSt3__18functionIFvRKNS_8hardware11hidl_stringEEEE"
  },
  {
   "name":"_ZN7android10frameworks13sensorservice4V1_017BpHwSensorManager21notifySyspropsChangedEv"
  },
  {
   "name":"_ZN7android10frameworks13sensorservice4V1_017BpHwSensorManager21setHALInstrumentationEv"
  },
  {
   "name":"_ZN7android10frameworks13sensorservice4V1_017BpHwSensorManager22_hidl_createEventQueueEPNS_8hardware10IInterfaceEPNS4_7details16HidlInstrumentorERKNS_2spINS2_19IEventQueueCallbackEEENSt3__18functionIFvRKNSA_INS2_11IEventQueueEEENS2_6ResultEEEE"
  },
  {
   "name":"_ZN7android10frameworks13sensorservice4V1_017BpHwSensorManager22_hidl_getDefaultSensorEPNS_8hardware10IInterfaceEPNS4_7details16HidlInstrumentorENS4_7sensors4V1_010SensorTypeENSt3__18functionIFvRKNSB_10SensorInfoENS2_6ResultEEEE"
  },
  {
   "name":"_ZN7android10frameworks13sensorservice4V1_017BpHwSensorManager25createAshmemDirectChannelERKNS_8hardware11hidl_memoryEmNSt3__18functionIFvRKNS_2spINS2_20IDirectReportChannelEEENS2_6ResultEEEE"
  },
  {
   "name":"_ZN7android10frameworks13sensorservice4V1_017BpHwSensorManager26createGrallocDirectChannelERKNS_8hardware11hidl_handleEmNSt3__18functionIFvRKNS_2spINS2_20IDirectReportChannelEEENS2_6ResultEEEE"
  },
  {
   "name":"_ZN7android10frameworks13sensorservice4V1_017BpHwSensorManager31_hidl_createAshmemDirectChannelEPNS_8hardware10IInterfaceEPNS4_7details16HidlInstrumentorERKNS4_11hidl_memoryEmNSt3__18functionIFvRKNS_2spINS2_20IDirectReportChannelEEENS2_6ResultEEEE"
  },
  {
   "name":"_ZN7android10frameworks13sensorservice4V1_017BpHwSensorManager32_hidl_createGrallocDirectChannelEPNS_8hardware10IInterfaceEPNS4_7details16HidlInstrumentorERKNS4_11hidl_handleEmNSt3__18functionIFvRKNS_2spINS2_20IDirectReportChannelEEENS2_6ResultEEEE"
  },
  {
   "name":"_ZN7android10frameworks13sensorservice4V1_017BpHwSensorManager4pingEv"
  },
  {
   "name":"_ZN7android10frameworks13sensorservice4V1_017BpHwSensorManager5debugERKNS_8hardware11hidl_handleERKNS4_8hidl_vecINS4_11hidl_stringEEE"
  },
  {
   "name":"_ZN7android10frameworks13sensorservice4V1_017BpHwSensorManagerC1ERKNS_2spINS_8hardware7IBinderEEE"
  },
  {
   "name":"_ZN7android10frameworks13sensorservice4V1_017BpHwSensorManagerC2ERKNS_2spINS_8hardware7IBinderEEE"
  },
  {
   "name":"_ZN7android10frameworks13sensorservice4V1_019IEventQueueCallback10getServiceERKNSt3__112basic_stringIcNS4_11char_traitsIcEENS4_9allocatorIcEEEEb"
  },
  {
   "name":"_ZN7android10frameworks13sensorservice4V1_019IEventQueueCallback11linkToDeathERKNS_2spINS_8hardware20hidl_death_recipientEEEm"
  },
  {
   "name":"_ZN7android10frameworks13sensorservice4V1_019IEventQueueCallback12getDebugInfoENSt3__18functionIFvRKNS_4hidl4base4V1_09DebugInfoEEEE"
  },
  {
   "name":"_ZN7android10frameworks13sensorservice4V1_019IEventQueueCallback12getHashChainENSt3__18functionIFvRKNS_8hardware8hidl_vecINS6_10hidl_arrayIhLm32EJEEEEEEEE"
  },
  {
   "name":"_ZN7android10frameworks13sensorservice4V1_019IEventQueueCallback13tryGetServiceERKNSt3__112basic_stringIcNS4_11char_traitsIcEENS4_9allocatorIcEEEEb"
  },
  {
   "name":"_ZN7android10frameworks13sensorservice4V1_019IEventQueueCallback13unlinkToDeathERKNS_2spINS_8hardware20hidl_death_recipientEEE"
  },
  {
   "name":"_ZN7android10frameworks13sensorservice4V1_019IEventQueueCallback14interfaceChainENSt3__18functionIFvRKNS_8hardware8hidl_vecINS6_11hidl_stringEEEEEE"
  },
  {
   "name":"_ZN7android10frameworks13sensorservice4V1_019IEventQueueCallback17registerAsServiceERKNSt3__112basic_stringIcNS4_11char_traitsIcEENS4_9allocatorIcEEEE"
  },
  {
   "name":"_ZN7android10frameworks13sensorservice4V1_019IEventQueueCallback19interfaceDescriptorENSt3__18functionIFvRKNS_8hardware11hidl_stringEEEE"
  },
  {
   "name":"_ZN7android10frameworks13sensorservice4V1_019IEventQueueCallback21notifySyspropsChangedEv"
  },
  {
   "name":"_ZN7android10frameworks13sensorservice4V1_019IEventQueueCallback21setHALInstrumentationEv"
  },
  {
   "name":"_ZN7android10frameworks13sensorservice4V1_019IEventQueueCallback24registerForNotificationsERKNSt3__112basic_stringIcNS4_11char_traitsIcEENS4_9allocatorIcEEEERKNS_2spINS_4hidl7manager4V1_020IServiceNotificationEEE"
  },
  {
   "name":"_ZN7android10frameworks13sensorservice4V1_019IEventQueueCallback4pingEv"
  },
  {
   "name":"_ZN7android10frameworks13sensorservice4V1_019IEventQueueCallback5debugERKNS_8hardware11hidl_handleERKNS4_8hidl_vecINS4_11hidl_stringEEE"
  },
  {
   "name":"_ZN7android10frameworks13sensorservice4V1_019IEventQueueCallback8castFromERKNS_2spINS_4hidl4base4V1_05IBaseEEEb"
  },
  {
   "name":"_ZN7android10frameworks13sensorservice4V1_019IEventQueueCallback8castFromERKNS_2spIS3_EEb"
  },
  {
   "name":"_ZN7android10frameworks13sensorservice4V1_020BsEventQueueCallback13addOnewayTaskENSt3__18functionIFvvEEE"
  },
  {
   "name":"_ZN7android10frameworks13sensorservice4V1_020BsEventQueueCallbackC1ENS_2spINS2_19IEventQueueCallbackEEE"
  },
  {
   "name":"_ZN7android10frameworks13sensorservice4V1_020BsEventQueueCallbackC2ENS_2spINS2_19IEventQueueCallbackEEE"
  },
  {
   "name":"_ZN7android10frameworks13sensorservice4V1_020IDirectReportChannel10getServiceERKNSt3__112basic_stringIcNS4_11char_traitsIcEENS4_9allocatorIcEEEEb"
  },
  {
   "name":"_ZN7android10frameworks13sensorservice4V1_020IDirectReportChannel11linkToDeathERKNS_2spINS_8hardware20hidl_death_recipientEEEm"
  },
  {
   "name":"_ZN7android10frameworks13sensorservice4V1_020IDirectReportChannel12getDebugInfoENSt3__18functionIFvRKNS_4hidl4base4V1_09DebugInfoEEEE"
  },
  {
   "name":"_ZN7android10frameworks13sensorservice4V1_020IDirectReportChannel12getHashChainENSt3__18functionIFvRKNS_8hardware8hidl_vecINS6_10hidl_arrayIhLm32EJEEEEEEEE"
  },
  {
   "name":"_ZN7android10frameworks13sensorservice4V1_020IDirectReportChannel13tryGetServiceERKNSt3__112basic_stringIcNS4_11char_traitsIcEENS4_9allocatorIcEEEEb"
  },
  {
   "name":"_ZN7android10frameworks13sensorservice4V1_020IDirectReportChannel13unlinkToDeathERKNS_2spINS_8hardware20hidl_death_recipientEEE"
  },
  {
   "name":"_ZN7android10frameworks13sensorservice4V1_020IDirectReportChannel14interfaceChainENSt3__18functionIFvRKNS_8hardware8hidl_vecINS6_11hidl_stringEEEEEE"
  },
  {
   "name":"_ZN7android10frameworks13sensorservice4V1_020IDirectReportChannel17registerAsServiceERKNSt3__112basic_stringIcNS4_11char_traitsIcEENS4_9allocatorIcEEEE"
  },
  {
   "name":"_ZN7android10frameworks13sensorservice4V1_020IDirectReportChannel19interfaceDescriptorENSt3__18functionIFvRKNS_8hardware11hidl_stringEEEE"
  },
  {
   "name":"_ZN7android10frameworks13sensorservice4V1_020IDirectReportChannel21notifySyspropsChangedEv"
  },
  {
   "name":"_ZN7android10frameworks13sensorservice4V1_020IDirectReportChannel21setHALInstrumentationEv"
  },
  {
   "name":"_ZN7android10frameworks13sensorservice4V1_020IDirectReportChannel24registerForNotificationsERKNSt3__112basic_stringIcNS4_11char_traitsIcEENS4_9allocatorIcEEEERKNS_2spINS_4hidl7manager4V1_020IServiceNotificationEEE"
  },
  {
   "name":"_ZN7android10frameworks13sensorservice4V1_020IDirectReportChannel4pingEv"
  },
  {
   "name":"_ZN7android10frameworks13sensorservice4V1_020IDirectReportChannel5debugERKNS_8hardware11hidl_handleERKNS4_8hidl_vecINS4_11hidl_stringEEE"
  },
  {
   "name":"_ZN7android10frameworks13sensorservice4V1_020IDirectReportChannel8castFromERKNS_2spINS_4hidl4base4V1_05IBaseEEEb"
  },
  {
   "name":"_ZN7android10frameworks13sensorservice4V1_020IDirectReportChannel8castFromERKNS_2spIS3_EEb"
  },
  {
   "name":"_ZN7android10frameworks13sensorservice4V1_021BsDirectReportChannel13addOnewayTaskENSt3__18functionIFvvEEE"
  },
  {
   "name":"_ZN7android10frameworks13sensorservice4V1_021BsDirectReportChannelC1ENS_2spINS2_20IDirectReportChannelEEE"
  },
  {
   "name":"_ZN7android10frameworks13sensorservice4V1_021BsDirectReportChannelC2ENS_2spINS2_20IDirectReportChannelEEE"
  },
  {
   "name":"_ZN7android10frameworks13sensorservice4V1_022BnHwEventQueueCallback10onTransactEjRKNS_8hardware6ParcelEPS5_jNSt3__18functionIFvRS5_EEE"
  },
  {
   "name":"_ZN7android10frameworks13sensorservice4V1_022BnHwEventQueueCallback12getDebugInfoENSt3__18functionIFvRKNS_4hidl4base4V1_09DebugInfoEEEE"
  },
  {
   "name":"_ZN7android10frameworks13sensorservice4V1_022BnHwEventQueueCallback13_hidl_onEventEPNS_4hidl4base4V1_08BnHwBaseERKNS_8hardware6ParcelEPSA_NSt3__18functionIFvRSA_EEE"
  },
  {
   "name":"_ZN7android10frameworks13sensorservice4V1_022BnHwEventQueueCallback4pingEv"
  },
  {
   "name":"_ZN7android10frameworks13sensorservice4V1_022BnHwEventQueueCallbackC1ERKNS_2spINS2_19IEventQueueCallbackEEE"
  },
  {
   "name":"_ZN7android10frameworks13sensorservice4V1_022BnHwEventQueueCallbackC2ERKNS_2spINS2_19IEventQueueCallbackEEE"
  },
  {
   "name":"_ZN7android10frameworks13sensorservice4V1_022BnHwEventQueueCallbackD0Ev"
  },
  {
   "name":"_ZN7android10frameworks13sensorservice4V1_022BnHwEventQueueCallbackD1Ev"
  },
  {
   "name":"_ZN7android10frameworks13sensorservice4V1_022BnHwEventQueueCallbackD2Ev"
  },
  {
   "name":"_ZN7android10frameworks13sensorservice4V1_022BpHwEventQueueCallback11linkToDeathERKNS_2spINS_8hardware20hidl_death_recipientEEEm"
  },
  {
   "name":"_ZN7android10frameworks13sensorservice4V1_022BpHwEventQueueCallback12getDebugInfoENSt3__18functionIFvRKNS_4hidl4base4V1_09DebugInfoEEEE"
  },
  {
   "name":"_ZN7android10frameworks13sensorservice4V1_022BpHwEventQueueCallback12getHashChainENSt3__18functionIFvRKNS_8hardware8hidl_vecINS6_10hidl_arrayIhLm32EJEEEEEEEE"
  },
  {
   "name":"_ZN7android10frameworks13sensorservice4V1_022BpHwEventQueueCallback13_hidl_onEventEPNS_8hardware10IInterfaceEPNS4_7details16HidlInstrumentorERKNS4_7sensors4V1_05EventE"
  },
  {
   "name":"_ZN7android10frameworks13sensorservice4V1_022BpHwEventQueueCallback13unlinkToDeathERKNS_2spINS_8hardware20hidl_death_recipientEEE"
  },
  {
   "name":"_ZN7android10frameworks13sensorservice4V1_022BpHwEventQueueCallback14interfaceChainENSt3__18functionIFvRKNS_8hardware8hidl_vecINS6_11hidl_stringEEEEEE"
  },
  {
   "name":"_ZN7android10frameworks13sensorservice4V1_022BpHwEventQueueCallback19interfaceDescriptorENSt3__18functionIFvRKNS_8hardware11hidl_stringEEEE"
  },
  {
   "name":"_ZN7android10frameworks13sensorservice4V1_022BpHwEventQueueCallback21notifySyspropsChangedEv"
  },
  {
   "name":"_ZN7android10frameworks13sensorservice4V1_022BpHwEventQueueCallback21setHALInstrumentationEv"
  },
  {
   "name":"_ZN7android10frameworks13sensorservice4V1_022BpHwEventQueueCallback4pingEv"
  },
  {
   "name":"_ZN7android10frameworks13sensorservice4V1_022BpHwEventQueueCallback5debugERKNS_8hardware11hidl_handleERKNS4_8hidl_vecINS4_11hidl_stringEEE"
  },
  {
   "name":"_ZN7android10frameworks13sensorservice4V1_022BpHwEventQueueCallback7onEventERKNS_8hardware7sensors4V1_05EventE"
  },
  {
   "name":"_ZN7android10frameworks13sensorservice4V1_022BpHwEventQueueCallbackC1ERKNS_2spINS_8hardware7IBinderEEE"
  },
  {
   "name":"_ZN7android10frameworks13sensorservice4V1_022BpHwEventQueueCallbackC2ERKNS_2spINS_8hardware7IBinderEEE"
  },
  {
   "name":"_ZN7android10frameworks13sensorservice4V1_023BnHwDirectReportChannel10onTransactEjRKNS_8hardware6ParcelEPS5_jNSt3__18functionIFvRS5_EEE"
  },
  {
   "name":"_ZN7android10frameworks13sensorservice4V1_023BnHwDirectReportChannel12getDebugInfoENSt3__18functionIFvRKNS_4hidl4base4V1_09DebugInfoEEEE"
  },
  {
   "name":"_ZN7android10frameworks13sensorservice4V1_023BnHwDirectReportChannel15_hidl_configureEPNS_4hidl4base4V1_08BnHwBaseERKNS_8hardware6ParcelEPSA_NSt3__18functionIFvRSA_EEE"
  },
  {
   "name":"_ZN7android10frameworks13sensorservice4V1_023BnHwDirectReportChannel4pingEv"
  },
  {
   "name":"_ZN7android10frameworks13sensorservice4V1_023BnHwDirectReportChannelC1ERKNS_2spINS2_20IDirectReportChannelEEE"
  },
  {
   "name":"_ZN7android10frameworks13sensorservice4V1_023BnHwDirectReportChannelC2ERKNS_2spINS2_20IDirectReportChannelEEE"
  },
  {
   "name":"_ZN7android10frameworks13sensorservice4V1_023BnHwDirectReportChannelD0Ev"
  },
  {
   "name":"_ZN7android10frameworks13sensorservice4V1_023BnHwDirectReportChannelD1Ev"
  },
  {
   "name":"_ZN7android10frameworks13sensorservice4V1_023BnHwDirectReportChannelD2Ev"
  },
  {
   "name":"_ZN7android10frameworks13sensorservice4V1_023BpHwDirectReportChannel11linkToDeathERKNS_2spINS_8hardware20hidl_death_recipientEEEm"
  },
  {
   "name":"_ZN7android10frameworks13sensorservice4V1_023BpHwDirectReportChannel12getDebugInfoENSt3__18functionIFvRKNS_4hidl4base4V1_09DebugInfoEEEE"
  },
  {
   "name":"_ZN7android10frameworks13sensorservice4V1_023BpHwDirectReportChannel12getHashChainENSt3__18functionIFvRKNS_8hardware8hidl_vecINS6_10hidl_arrayIhLm32EJEEEEEEEE"
  },
  {
   "name":"_ZN7android10frameworks13sensorservice4V1_023BpHwDirectReportChannel13unlinkToDeathERKNS_2spINS_8hardware20hidl_death_recipientEEE"
  },
  {
   "name":"_ZN7android10frameworks13sensorservice4V1_023BpHwDirectReportChannel14interfaceChainENSt3__18functionIFvRKNS_8hardware8hidl_vecINS6_11hidl_stringEEEEEE"
  },
  {
   "name":"_ZN7android10frameworks13sensorservice4V1_023BpHwDirectReportChannel15_hidl_configureEPNS_8hardware10IInterfaceEPNS4_7details16HidlInstrumentorEiNS4_7sensors4V1_09RateLevelENSt3__18functionIFviNS2_6ResultEEEE"
  },
  {
   "name":"_ZN7android10frameworks13sensorservice4V1_023BpHwDirectReportChannel19interfaceDescriptorENSt3__18functionIFvRKNS_8hardware11hidl_stringEEEE"
  },
  {
   "name":"_ZN7android10frameworks13sensorservice4V1_023BpHwDirectReportChannel21notifySyspropsChangedEv"
  },
  {
   "name":"_ZN7android10frameworks13sensorservice4V1_023BpHwDirectReportChannel21setHALInstrumentationEv"
  },
  {
   "name":"_ZN7android10frameworks13sensorservice4V1_023BpHwDirectReportChannel4pingEv"
  },
  {
   "name":"_ZN7android10frameworks13sensorservice4V1_023BpHwDirectReportChannel5debugERKNS_8hardware11hidl_handleERKNS4_8hidl_vecINS4_11hidl_stringEEE"
  },
  {
   "name":"_ZN7android10frameworks13sensorservice4V1_023BpHwDirectReportChannel9configureEiNS_8hardware7sensors4V1_09RateLevelENSt3__18functionIFviNS2_6ResultEEEE"
  },
  {
   "name":"_ZN7android10frameworks13sensorservice4V1_023BpHwDirectReportChannelC1ERKNS_2spINS_8hardware7IBinderEEE"
  },
  {
   "name":"_ZN7android10frameworks13sensorservice4V1_023BpHwDirectReportChannelC2ERKNS_2spINS_8hardware7IBinderEEE"
  },
  {
   "binding":"weak",
   "name":"_ZN7android8hardware10fromBinderINS_10frameworks13sensorservice4V1_011IEventQueueENS4_14BpHwEventQueueENS4_14BnHwEventQueueEEENS_2spIT_EERKNS8_INS0_7IBinderEEE"
  },
  {
   "binding":"weak",
   "name":"_ZN7android8hardware10fromBinderINS_10frameworks13sensorservice4V1_019IEventQueueCallbackENS4_22BpHwEventQueueCallbackENS4_22BnHwEventQueueCallbackEEENS_2spIT_EERKNS8_INS0_7IBinderEEE"
  },
  {
   "binding":"weak",
   "name":"_ZN7android8hardware10fromBinderINS_10frameworks13sensorservice4V1_020IDirectReportChannelENS4_23BpHwDirectReportChannelENS4_23BnHwDirectReportChannelEEENS_2spIT_EERKNS8_INS0_7IBinderEEE"
  },
  {
   "binding":"weak",
   "name":"_ZN7android8hardware7details13castInterfaceINS_10frameworks13sensorservice4V1_011IEventQueueENS_4hidl4base4V1_05IBaseENS5_14BpHwEventQueueEEENS0_6ReturnINS_2spIT_EEEENSD_IT0_EEPKcb"
  },
  {
   "binding":"weak",
   "name":"_ZN7android8hardware7details13castInterfaceINS_10frameworks13sensorservice4V1_014ISensorManagerENS_4hidl4base4V1_05IBaseENS5_17BpHwSensorManagerEEENS0_6ReturnINS_2spIT_EEEENSD_IT0_EEPKcb"
  },
  {
   "binding":"weak",
   "name":"_ZN7android8hardware7details13castInterfaceINS_10frameworks13sensorservice4V1_019IEventQueueCallbackENS_4hidl4base4V1_05IBaseENS5_22BpHwEventQueueCallbackEEENS0_6ReturnINS_2spIT_EEEENSD_IT0_EEPKcb"
  },
  {
   "binding":"weak",
   "name":"_ZN7android8hardware7details13castInterfaceINS_10frameworks13sensorservice4V1_020IDirectReportChannelENS_4hidl4base4V1_05IBaseENS5_23BpHwDirectReportChannelEEENS0_6ReturnINS_2spIT_EEEENSD_IT0_EEPKcb"
  },
  {
   "binding":"weak",
   "name":"_ZN7android8hardware7details15wrapPassthroughINS_10frameworks13sensorservice4V1_011IEventQueueEvEENS_2spIT_EES9_"
  },
  {
   "binding":"weak",
   "name":"_ZN7android8hardware7details15wrapPassthroughINS_10frameworks13sensorservice4V1_019IEventQueueCallbackEvEENS_2spIT_EES9_"
  },
  {
   "binding":"weak",
   "name":"_ZN7android8hardware7details15wrapPassthroughINS_10frameworks13sensorservice4V1_020IDirectReportChannelEvEENS_2spIT_EES9_"
  },
  {
   "binding":"weak",
   "name":"_ZN7android8hardware7details18getServiceInternalINS_10frameworks13sensorservice4V1_014BpHwEventQueueENS5_11IEventQueueEvvEENS_2spIT0_EERKNSt3__112basic_stringIcNSB_11char_traitsIcEENSB_9allocatorIcEEEEbb"
  },
  {
   "binding":"weak",
   "name":"_ZN7android8hardware7details18getServiceInternalINS_10frameworks13sensorservice4V1_017BpHwSensorManagerENS5_14ISensorManagerEvvEENS_2spIT0_EERKNSt3__112basic_stringIcNSB_11char_traitsIcEENSB_9allocatorIcEEEEbb"
  },
  {
   "binding":"weak",
   "name":"_ZN7android8hardware7details18getServiceInternalINS_10frameworks13sensorservice4V1_022BpHwEventQueueCallbackENS5_19IEventQueueCallbackEvvEENS_2spIT0_EERKNSt3__112basic_stringIcNSB_11char_traitsIcEENSB_9allocatorIcEEEEbb"
  },
  {
   "binding":"weak",
   "name":"_ZN7android8hardware7details18getServiceInternalINS_10frameworks13sensorservice4V1_023BpHwDirectReportChannelENS5_20IDirectReportChannelEvvEENS_2spIT0_EERKNSt3__112basic_stringIcNSB_11char_traitsIcEENSB_9allocatorIcEEEEbb"
  },
  {
   "binding":"weak",
   "name":"_ZN7android8hardware8toBinderINS_10frameworks13sensorservice4V1_011IEventQueueEvEENS_2spINS0_7IBinderEEENS6_IT_EE"
  },
  {
   "binding":"weak",
   "name":"_ZN7android8hardware8toBinderINS_10frameworks13sensorservice4V1_019IEventQueueCallbackEvEENS_2spINS0_7IBinderEEENS6_IT_EE"
  },
  {
   "binding":"weak",
   "name":"_ZN7android8hardware8toBinderINS_10frameworks13sensorservice4V1_020IDirectReportChannelEvEENS_2spINS0_7IBinderEEENS6_IT_EE"
  },
  {
   "binding":"weak",
   "name":"_ZN7android8hardware8toBinderINS_4hidl4base4V1_05IBaseEvEENS_2spINS0_7IBinderEEENS6_IT_EE"
  },
  {
   "name":"_ZThn32_N7android10frameworks13sensorservice4V1_014BnHwEventQueueD0Ev"
  },
  {
   "name":"_ZThn32_N7android10frameworks13sensorservice4V1_014BnHwEventQueueD1Ev"
  },
  {
   "name":"_ZThn32_N7android10frameworks13sensorservice4V1_017BnHwSensorManagerD0Ev"
  },
  {
   "name":"_ZThn32_N7android10frameworks13sensorservice4V1_017BnHwSensorManagerD1Ev"
  },
  {
   "name":"_ZThn32_N7android10frameworks13sensorservice4V1_022BnHwEventQueueCallbackD0Ev"
  },
  {
   "name":"_ZThn32_N7android10frameworks13sensorservice4V1_022BnHwEventQueueCallbackD1Ev"
  },
  {
   "name":"_ZThn32_N7android10frameworks13sensorservice4V1_023BnHwDirectReportChannelD0Ev"
  },
  {
   "name":"_ZThn32_N7android10frameworks13sensorservice4V1_023BnHwDirectReportChannelD1Ev"
  },
  {
   "name":"_ZTv0_n24_N7android10frameworks13sensorservice4V1_014BnHwEventQueueD0Ev"
  },
  {
   "name":"_ZTv0_n24_N7android10frameworks13sensorservice4V1_014BnHwEventQueueD1Ev"
  },
  {
   "name":"_ZTv0_n24_N7android10frameworks13sensorservice4V1_017BnHwSensorManagerD0Ev"
  },
  {
   "name":"_ZTv0_n24_N7android10frameworks13sensorservice4V1_017BnHwSensorManagerD1Ev"
  },
  {
   "name":"_ZTv0_n24_N7android10frameworks13sensorservice4V1_022BnHwEventQueueCallbackD0Ev"
  },
  {
   "name":"_ZTv0_n24_N7android10frameworks13sensorservice4V1_022BnHwEventQueueCallbackD1Ev"
  },
  {
   "name":"_ZTv0_n24_N7android10frameworks13sensorservice4V1_023BnHwDirectReportChannelD0Ev"
  },
  {
   "name":"_ZTv0_n24_N7android10frameworks13sensorservice4V1_023BnHwDirectReportChannelD1Ev"
  }
 ],
 "elf_objects":[
  {
   "name":"_ZN7android10frameworks13sensorservice4V1_011IEventQueue10descriptorE"
  },
  {
   "name":"_ZN7android10frameworks13sensorservice4V1_014ISensorManager10descriptorE"
  },
  {
   "name":"_ZN7android10frameworks13sensorservice4V1_019IEventQueueCallback10descriptorE"
  },
  {
   "name":"_ZN7android10frameworks13sensorservice4V1_020IDirectReportChannel10descriptorE"
  },
  {
   "name":"_ZTTN7android10frameworks13sensorservice4V1_011IEventQueueE"
  },
  {
   "name":"_ZTTN7android10frameworks13sensorservice4V1_014BnHwEventQueueE"
  },
  {
   "name":"_ZTTN7android10frameworks13sensorservice4V1_014BpHwEventQueueE"
  },
  {
   "name":"_ZTTN7android10frameworks13sensorservice4V1_014ISensorManagerE"
  },
  {
   "name":"_ZTTN7android10frameworks13sensorservice4V1_017BnHwSensorManagerE"
  },
  {
   "name":"_ZTTN7android10frameworks13sensorservice4V1_017BpHwSensorManagerE"
  },
  {
   "name":"_ZTTN7android10frameworks13sensorservice4V1_019IEventQueueCallbackE"
  },
  {
   "name":"_ZTTN7android10frameworks13sensorservice4V1_020IDirectReportChannelE"
  },
  {
   "name":"_ZTTN7android10frameworks13sensorservice4V1_022BnHwEventQueueCallbackE"
  },
  {
   "name":"_ZTTN7android10frameworks13sensorservice4V1_022BpHwEventQueueCallbackE"
  },
  {
   "name":"_ZTTN7android10frameworks13sensorservice4V1_023BnHwDirectReportChannelE"
  },
  {
   "name":"_ZTTN7android10frameworks13sensorservice4V1_023BpHwDirectReportChannelE"
  },
  {
   "name":"_ZTVN7android10frameworks13sensorservice4V1_011IEventQueueE"
  },
  {
   "binding":"weak",
   "name":"_ZTVN7android10frameworks13sensorservice4V1_012BsEventQueueE"
  },
  {
   "name":"_ZTVN7android10frameworks13sensorservice4V1_014BnHwEventQueueE"
  },
  {
   "name":"_ZTVN7android10frameworks13sensorservice4V1_014BpHwEventQueueE"
  },
  {
   "name":"_ZTVN7android10frameworks13sensorservice4V1_014ISensorManagerE"
  },
  {
   "binding":"weak",
   "name":"_ZTVN7android10frameworks13sensorservice4V1_015BsSensorManagerE"
  },
  {
   "name":"_ZTVN7android10frameworks13sensorservice4V1_017BnHwSensorManagerE"
  },
  {
   "name":"_ZTVN7android10frameworks13sensorservice4V1_017BpHwSensorManagerE"
  },
  {
   "name":"_ZTVN7android10frameworks13sensorservice4V1_019IEventQueueCallbackE"
  },
  {
   "binding":"weak",
   "name":"_ZTVN7android10frameworks13sensorservice4V1_020BsEventQueueCallbackE"
  },
  {
   "name":"_ZTVN7android10frameworks13sensorservice4V1_020IDirectReportChannelE"
  },
  {
   "binding":"weak",
   "name":"_ZTVN7android10frameworks13sensorservice4V1_021BsDirectReportChannelE"
  },
  {
   "name":"_ZTVN7android10frameworks13sensorservice4V1_022BnHwEventQueueCallbackE"
  },
  {
   "name":"_ZTVN7android10frameworks13sensorservice4V1_022BpHwEventQueueCallbackE"
  },
  {
   "name":"_ZTVN7android10frameworks13sensorservice4V1_023BnHwDirectReportChannelE"
  },
  {
   "name":"_ZTVN7android10frameworks13sensorservice4V1_023BpHwDirectReportChannelE"
  }
 ]
}