{
 "record_types":[
  {
   "vtable_components":[
    {
     "kind":"vbase_offset",
     "component_value":8
    },
    {
     "kind":"offset_to_top"
    },
    {
     "kind":"rtti",
     "mangled_component_name":"_ZTIN7android8hardware5media10bufferpool4V1_014IClientManagerE"
    },
    {
     "mangled_component_name":"_ZNK7android8hardware5media10bufferpool4V1_014IClientManager8isRemoteEv"
    },
    {
     "mangled_component_name":"_ZN7android8hardware5media10bufferpool4V1_014IClientManager14interfaceChainENSt3__18functionIFvRKNS0_8hidl_vecINS0_11hidl_stringEEEEEE"
    },
    {
     "mangled_component_name":"_ZN7android8hardware5media10bufferpool4V1_014IClientManager5debugERKNS0_11hidl_handleERKNS0_8hidl_vecINS0_11hidl_stringEEE"
    },
    {
     "mangled_component_name":"_ZN7android8hardware5media10bufferpool4V1_014IClientManager19interfaceDescriptorENSt3__18functionIFvRKNS0_11hidl_stringEEEE"
    },
    {
     "mangled_component_name":"_ZN7android8hardware5media10bufferpool4V1_014IClientManager12getHashChainENSt3__18functionIFvRKNS0_8hidl_vecINS0_10hidl_arrayIhLm32EJEEEEEEEE"
    },
    {
     "mangled_component_name":"_ZN7android8hardware5media10bufferpool4V1_014IClientManager21setHALInstrumentationEv"
    },
    {
     "mangled_component_name":"_ZN7android8hardware5media10bufferpool4V1_014IClientManager11linkToDeathERKNS_2spINS0_20hidl_death_recipientEEEm"
    },
    {
     "mangled_component_name":"_ZN7android8hardware5media10bufferpool4V1_014IClientManager4pingEv"
    },
    {
     "mangled_component_name":"_ZN7android8hardware5media10bufferpool4V1_014IClientManager12getDebugInfoENSt3__18functionIFvRKNS_4hidl4base4V1_09DebugInfoEEEE"
    },
    {
     "mangled_component_name":"_ZN7android8hardware5media10bufferpool4V1_014IClientManager21notifySyspropsChangedEv"
    },
    {
     "mangled_component_name":"_ZN7android8hardware5media10bufferpool4V1_014IClientManager13unlinkToDeathERKNS_2spINS0_20hidl_death_recipientEEE"
    },
    {
     "kind":"complete_dtor_pointer",
     "mangled_component_name":"_ZN7android8hardware5media10bufferpool4V1_014IClientManagerD1Ev"
    },
    {
     "kind":"deleting_dtor_pointer",
     "mangled_component_name":"_ZN7android8hardware5media10bufferpool4V1_014IClientManagerD0Ev"
    },
    {
     "is_pure":true,
     "mangled_component_name":"_ZN7android8hardware5media10bufferpool4V1_014IClientManager14registerSenderERKNS_2spINS3_9IAccessorEEENSt3__18functionIFvNS3_12ResultStatusElEEE"
    },
    {
     "kind":"vcall_offset"
    },
    {
     "kind":"vcall_offset"
    },
    {
     "kind":"vcall_offset"
    },
    {
     "kind":"vcall_offset"
    },
    {
     "kind":"vcall_offset",
     "component_value":-8
    },
    {
     "kind":"offset_to_top",
     "component_value":-8
    },
    {
     "kind":"rtti",
     "mangled_component_name":"_ZTIN7android8hardware5media10bufferpool4V1_014IClientManagerE"
    },
    {
     "kind":"complete_dtor_pointer",
     "mangled_component_name":"_ZTv0_n24_N7android8hardware5media10bufferpool4V1_014IClientManagerD1Ev"
    },
    {
     "kind":"deleting_dtor_pointer",
     "mangled_component_name":"_ZTv0_n24_N7android8hardware5media10bufferpool4V1_014IClientManagerD0Ev"
    },
    {
     "mangled_component_name":"_ZN7android7RefBase10onFirstRefEv"
    },
    {
     "mangled_component_name":"_ZN7android7RefBase15onLastStrongRefEPKv"
    },
    {
     "mangled_component_name":"_ZN7android7RefBase20onIncStrongAttemptedEjPKv"
    },
    {
     "mangled_component_name":"_ZN7android7RefBase13onLastWeakRefEPKv"
    }
   ],
   "unique_id":"_ZTSN7android8hardware5media10bufferpool4V1_014IClientManagerE"
  },
  {
   "vtable_components":[
    {
     "kind":"vbase_offset",
     "component_value":200
    },
    {
     "kind":"offset_to_top"
    },
    {
     "kind":"rtti",
     "mangled_component_name":"_ZTIN7android8hardware5media10bufferpool4V1_014BpHwConnectionE"
    },
    {
     "mangled_component_name":"_ZNK7android8hardware5media10bufferpool4V1_014BpHwConnection8isRemoteEv"
    },
    {
     "mangled_component_name":"_ZN7android8hardware5media10bufferpool4V1_014BpHwConnection14interfaceChainENSt3__18functionIFvRKNS0_8hidl_vecINS0_11hidl_stringEEEEEE"
    },
    {
     "mangled_component_name":"_ZN7android8hardware5media10bufferpool4V1_014BpHwConnection5debugERKNS0_11hidl_handleERKNS0_8hidl_vecINS0_11hidl_stringEEE"
    },
    {
     "mangled_component_name":"_ZN7android8hardware5media10bufferpool4V1_014BpHwConnection19interfaceDescriptorENSt3__18functionIFvRKNS0_11hidl_stringEEEE"
    },
    {
     "mangled_component_name":"_ZN7android8hardware5media10bufferpool4V1_014BpHwConnection12getHashChainENSt3__18functionIFvRKNS0_8hidl_vecINS0_10hidl_arrayIhLm32EJEEEEEEEE"
    },
    {
     "mangled_component_name":"_ZN7android8hardware5media10bufferpool4V1_014BpHwConnection21setHALInstrumentationEv"
    },
    {
     "mangled_component_name":"_ZN7android8hardware5media10bufferpool4V1_014BpHwConnection11linkToDeathERKNS_2spINS0_20hidl_death_recipientEEEm"
    },
    {
     "mangled_component_name":"_ZN7android8hardware5media10bufferpool4V1_014BpHwConnection4pingEv"
    },
    {
     "mangled_component_name":"_ZN7android8hardware5media10bufferpool4V1_014BpHwConnection12getDebugInfoENSt3__18functionIFvRKNS_4hidl4base4V1_09DebugInfoEEEE"
    },
    {
     "mangled_component_name":"_ZN7android8hardware5media10bufferpool4V1_014BpHwConnection21notifySyspropsChangedEv"
    },
    {
     "mangled_component_name":"_ZN7android8hardware5media10bufferpool4V1_014BpHwConnection13unlinkToDeathERKNS_2spINS0_20hidl_death_recipientEEE"
    },
    {
     "kind":"complete_dtor_pointer",
     "mangled_component_name":"_ZN7android8hardware5media10bufferpool4V1_014BpHwConnectionD1Ev"
    },
    {
     "kind":"deleting_dtor_pointer",
     "mangled_component_name":"_ZN7android8hardware5media10bufferpool4V1_014BpHwConnectionD0Ev"
    },
    {
     "mangled_component_name":"_ZN7android8hardware5media10bufferpool4V1_014BpHwConnection5fetchEmjNSt3__18functionIFvNS3_12ResultStatusERKNS3_6BufferEEEE"
    },
    {
     "mangled_component_name":"_ZN7android8hardware11BpInterfaceINS0_5media10bufferpool4V1_011IConnectionEE10onAsBinderEv"
    },
    {
     "kind":"vbase_offset",
     "component_value":192
    },
    {
     "kind":"offset_to_top",
     "component_value":-8
    },
    {
     "kind":"rtti",
     "mangled_component_name":"_ZTIN7android8hardware5media10bufferpool4V1_014BpHwConnectionE"
    },
    {
     "kind":"complete_dtor_pointer",
     "mangled_component_name":"_ZThn8_N7android8hardware5media10bufferpool4V1_014BpHwConnectionD1Ev"
    },
    {
     "kind":"deleting_dtor_pointer",
     "mangled_component_name":"_ZThn8_N7android8hardware5media10bufferpool4V1_014BpHwConnectionD0Ev"
    },
    {
     "mangled_component_name":"_ZThn8_N7android8hardware11BpInterfaceINS0_5media10bufferpool4V1_011IConnectionEE10onAsBinderEv"
    },
    {
     "kind":"vbase_offset",
     "component_value":184
    },
    {
     "kind":"offset_to_top",
     "component_value":-16
    },
    {
     "kind":"rtti",
     "mangled_component_name":"_ZTIN7android8hardware5media10bufferpool4V1_014BpHwConnectionE"
    },
    {
     "kind":"complete_dtor_pointer",
     "mangled_component_name":"_ZThn16_N7android8hardware5media10bufferpool4V1_014BpHwConnectionD1Ev"
    },
    {
     "kind":"deleting_dtor_pointer",
     "mangled_component_name":"_ZThn16_N7android8hardware5media10bufferpool4V1_014BpHwConnectionD0Ev"
    },
    {
     "mangled_component_name":"_ZN7android8hardware11BpHwRefBase10onFirstRefEv"
    },
    {
     "mangled_component_name":"_ZN7android8hardware11BpHwRefBase15onLastStrongRefEPKv"
    },
    {
     "mangled_component_name":"_ZN7android8hardware11BpHwRefBase20onIncStrongAttemptedEjPKv"
    },
    {
     "kind":"offset_to_top",
     "component_value":-48
    },
    {
     "kind":"rtti",
     "mangled_component_name":"_ZTIN7android8hardware5media10bufferpool4V1_014BpHwConnectionE"
    },
    {
     "kind":"complete_dtor_pointer",
     "mangled_component_name":"_ZThn48_N7android8hardware5media10bufferpool4V1_014BpHwConnectionD1Ev"
    },
    {
     "kind":"deleting_dtor_pointer",
     "mangled_component_name":"_ZThn48_N7android8hardware5media10bufferpool4V1_014BpHwConnectionD0Ev"
    },
    {
     "kind":"vcall_offset"
    },
    {
     "kind":"vcall_offset",
     "component_value":-184
    },
    {
     "kind":"vcall_offset",
     "component_value":-184
    },
    {
     "kind":"vcall_offset",
     "component_value":-184
    },
    {
     "kind":"vcall_offset",
     "component_value":-200
    },
    {
     "kind":"offset_to_top",
     "component_value":-200
    },
    {
     "kind":"rtti",
     "mangled_component_name":"_ZTIN7android8hardware5media10bufferpool4V1_014BpHwConnectionE"
    },
    {
     "kind":"complete_dtor_pointer",
     "mangled_component_name":"_ZTv0_n24_N7android8hardware5media10bufferpool4V1_014BpHwConnectionD1Ev"
    },
    {
     "kind":"deleting_dtor_pointer",
     "mangled_component_name":"_ZTv0_n24_N7android8hardware5media10bufferpool4V1_014BpHwConnectionD0Ev"
    },
    {
     "mangled_component_name":"_ZTv0_n32_N7android8hardware11BpHwRefBase10onFirstRefEv"
    },
    {
     "mangled_component_name":"_ZTv0_n40_N7android8hardware11BpHwRefBase15onLastStrongRefEPKv"
    },
    {
     "mangled_component_name":"_ZTv0_n48_N7android8hardware11BpHwRefBase20onIncStrongAttemptedEjPKv"
    },
    {
     "mangled_component_name":"_ZN7android7RefBase13onLastWeakRefEPKv"
    }
   ],
   "unique_id":"_ZTSN7android8hardware5media10bufferpool4V1_014BpHwConnectionE"
  },
  {
   "vtable_components":[
    {
     "kind":"vbase_offset",
     "component_value":8
    },
    {
     "kind":"offset_to_top"
    },
    {
     "kind":"rtti",
     "mangled_component_name":"_ZTIN7android8hardware5media10bufferpool4V1_09IAccessorE"
    },
    {
     "mangled_component_name":"_ZNK7android8hardware5media10bufferpool4V1_09IAccessor8isRemoteEv"
    },
    {
     "mangled_component_name":"_ZN7android8hardware5media10bufferpool4V1_09IAccessor14interfaceChainENSt3__18functionIFvRKNS0_8hidl_vecINS0_11hidl_stringEEEEEE"
    },
    {
     "mangled_component_name":"_ZN7android8hardware5media10bufferpool4V1_09IAccessor5debugERKNS0_11hidl_handleERKNS0_8hidl_vecINS0_11hidl_stringEEE"
    },
    {
     "mangled_component_name":"_ZN7android8hardware5media10bufferpool4V1_09IAccessor19interfaceDescriptorENSt3__18functionIFvRKNS0_11hidl_stringEEEE"
    },
    {
     "mangled_component_name":"_ZN7android8hardware5media10bufferpool4V1_09IAccessor12getHashChainENSt3__18functionIFvRKNS0_8hidl_vecINS0_10hidl_arrayIhLm32EJEEEEEEEE"
    },
    {
     "mangled_component_name":"_ZN7android8hardware5media10bufferpool4V1_09IAccessor21setHALInstrumentationEv"
    },
    {
     "mangled_component_name":"_ZN7android8hardware5media10bufferpool4V1_09IAccessor11linkToDeathERKNS_2spINS0_20hidl_death_recipientEEEm"
    },
    {
     "mangled_component_name":"_ZN7android8hardware5media10bufferpool4V1_09IAccessor4pingEv"
    },
    {
     "mangled_component_name":"_ZN7android8hardware5media10bufferpool4V1_09IAccessor12getDebugInfoENSt3__18functionIFvRKNS_4hidl4base4V1_09DebugInfoEEEE"
    },
    {
     "mangled_component_name":"_ZN7android8hardware5media10bufferpool4V1_09IAccessor21notifySyspropsChangedEv"
    },
    {
     "mangled_component_name":"_ZN7android8hardware5media10bufferpool4V1_09IAccessor13unlinkToDeathERKNS_2spINS0_20hidl_death_recipientEEE"
    },
    {
     "kind":"complete_dtor_pointer",
     "mangled_component_name":"_ZN7android8hardware5media10bufferpool4V1_09IAccessorD1Ev"
    },
    {
     "kind":"deleting_dtor_pointer",
     "mangled_component_name":"_ZN7android8hardware5media10bufferpool4V1_09IAccessorD0Ev"
    },
    {
     "is_pure":true,
     "mangled_component_name":"_ZN7android8hardware5media10bufferpool4V1_09IAccessor7connectENSt3__18functionIFvNS3_12ResultStatusERKNS_2spINS3_11IConnectionEEElRKNS0_12MQDescriptorINS3_19BufferStatusMessageELNS0_8MQFlavorE1EEEEEE"
    },
    {
     "kind":"vcall_offset"
    },
    {
     "kind":"vcall_offset"
    },
    {
     "kind":"vcall_offset"
    },
    {
     "kind":"vcall_offset"
    },
    {
     "kind":"vcall_offset",
     "component_value":-8
    },
    {
     "kind":"offset_to_top",
     "component_value":-8
    },
    {
     "kind":"rtti",
     "mangled_component_name":"_ZTIN7android8hardware5media10bufferpool4V1_09IAccessorE"
    },
    {
     "kind":"complete_dtor_pointer",
     "mangled_component_name":"_ZTv0_n24_N7android8hardware5media10bufferpool4V1_09IAccessorD1Ev"
    },
    {
     "kind":"deleting_dtor_pointer",
     "mangled_component_name":"_ZTv0_n24_N7android8hardware5media10bufferpool4V1_09IAccessorD0Ev"
    },
    {
     "mangled_component_name":"_ZN7android7RefBase10onFirstRefEv"
    },
    {
     "mangled_component_name":"_ZN7android7RefBase15onLastStrongRefEPKv"
    },
    {
     "mangled_component_name":"_ZN7android7RefBase20onIncStrongAttemptedEjPKv"
    },
    {
     "mangled_component_name":"_ZN7android7RefBase13onLastWeakRefEPKv"
    }
   ],
   "unique_id":"_ZTSN7android8hardware5media10bufferpool4V1_09IAccessorE"
  },
  {
   "vtable_components":[
    {
     "kind":"vbase_offset",
     "component_value":120
    },
    {
     "kind":"offset_to_top"
    },
    {
     "kind":"rtti",
     "mangled_component_name":"_ZTIN7android8hardware5media10bufferpool4V1_012BsConnectionE"
    },
    {
     "mangled_component_name":"_ZNK7android8hardware5media10bufferpool4V1_011IConnection8isRemoteEv"
    },
    {
     "mangled_component_name":"_ZN7android8hardware5media10bufferpool4V1_012BsConnection14interfaceChainENSt3__18functionIFvRKNS0_8hidl_vecINS0_11hidl_stringEEEEEE"
    },
    {
     "mangled_component_name":"_ZN7android8hardware5media10bufferpool4V1_012BsConnection5debugERKNS0_11hidl_handleERKNS0_8hidl_vecINS0_11hidl_stringEEE"
    },
    {
     "mangled_component_name":"_ZN7android8hardware5media10bufferpool4V1_012BsConnection19interfaceDescriptorENSt3__18functionIFvRKNS0_11hidl_stringEEEE"
    },
    {
     "mangled_component_name":"_ZN7android8hardware5media10bufferpool4V1_012BsConnection12getHashChainENSt3__18functionIFvRKNS0_8hidl_vecINS0_10hidl_arrayIhLm32EJEEEEEEEE"
    },
    {
     "mangled_component_name":"_ZN7android8hardware5media10bufferpool4V1_012BsConnection21setHALInstrumentationEv"
    },
    {
     "mangled_component_name":"_ZN7android8hardware5media10bufferpool4V1_012BsConnection11linkToDeathERKNS_2spINS0_20hidl_death_recipientEEEm"
    },
    {
     "mangled_component_name":"_ZN7android8hardware5media10bufferpool4V1_012BsConnection4pingEv"
    },
    {
     "mangled_component_name":"_ZN7android8hardware5media10bufferpool4V1_012BsConnection12getDebugInfoENSt3__18functionIFvRKNS_4hidl4base4V1_09DebugInfoEEEE"
    },
    {
     "mangled_component_name":"_ZN7android8hardware5media10bufferpool4V1_012BsConnection21notifySyspropsChangedEv"
    },
    {
     "mangled_component_name":"_ZN7android8hardware5media10bufferpool4V1_012BsConnection13unlinkToDeathERKNS_2spINS0_20hidl_death_recipientEEE"
    },
    {
     "kind":"complete_dtor_pointer",
     "mangled_component_name":"_ZN7android8hardware5media10bufferpool4V1_012BsConnectionD1Ev"
    },
    {
     "kind":"deleting_dtor_pointer",
     "mangled_component_name":"_ZN7android8hardware5media10bufferpool4V1_012BsConnectionD0Ev"
    },
    {
     "mangled_component_name":"_ZN7android8hardware5media10bufferpool4V1_012BsConnection5fetchEmjNSt3__18functionIFvNS3_12ResultStatusERKNS3_6BufferEEEE"
    },
    {
     "kind":"offset_to_top",
     "component_value":-8
    },
    {
     "kind":"rtti",
     "mangled_component_name":"_ZTIN7android8hardware5media10bufferpool4V1_012BsConnectionE"
    },
    {
     "kind":"complete_dtor_pointer",
     "mangled_component_name":"_ZThn8_N7android8hardware5media10bufferpool4V1_012BsConnectionD1Ev"
    },
    {
     "kind":"deleting_dtor_pointer",
     "mangled_component_name":"_ZThn8_N7android8hardware5media10bufferpool4V1_012BsConnectionD0Ev"
    },
    {
     "kind":"vcall_offset"
    },
    {
     "kind":"vcall_offset"
    },
    {
     "kind":"vcall_offset"
    },
    {
     "kind":"vcall_offset"
    },
    {
     "kind":"vcall_offset",
     "component_value":-120
    },
    {
     "kind":"offset_to_top",
     "component_value":-120
    },
    {
     "kind":"rtti",
     "mangled_component_name":"_ZTIN7android8hardware5media10bufferpool4V1_012BsConnectionE"
    },
    {
     "kind":"complete_dtor_pointer",
     "mangled_component_name":"_ZTv0_n24_N7android8hardware5media10bufferpool4V1_012BsConnectionD1Ev"
    },
    {
     "kind":"deleting_dtor_pointer",
     "mangled_component_name":"_ZTv0_n24_N7android8hardware5media10bufferpool4V1_012BsConnectionD0Ev"
    },
    {
     "mangled_component_name":"_ZN7android7RefBase10onFirstRefEv"
    },
    {
     "mangled_component_name":"_ZN7android7RefBase15onLastStrongRefEPKv"
    },
    {
     "mangled_component_name":"_ZN7android7RefBase20onIncStrongAttemptedEjPKv"
    },
    {
     "mangled_component_name":"_ZN7android7RefBase13onLastWeakRefEPKv"
    }
   ],
   "unique_id":"_ZTSN7android8hardware5media10bufferpool4V1_012BsConnectionE"
  },
  {
   "vtable_components":[
    {
     "kind":"vbase_offset",
     "component_value":8
    },
    {
     "kind":"offset_to_top"
    },
    {
     "kind":"rtti",
     "mangled_component_name":"_ZTIN7android8hardware5media10bufferpool4V1_011IConnectionE"
    },
    {
     "mangled_component_name":"_ZNK7android8hardware5media10bufferpool4V1_011IConnection8isRemoteEv"
    },
    {
     "mangled_component_name":"_ZN7android8hardware5media10bufferpool4V1_011IConnection14interfaceChainENSt3__18functionIFvRKNS0_8hidl_vecINS0_11hidl_stringEEEEEE"
    },
    {
     "mangled_component_name":"_ZN7android8hardware5media10bufferpool4V1_011IConnection5debugERKNS0_11hidl_handleERKNS0_8hidl_vecINS0_11hidl_stringEEE"
    },
    {
     "mangled_component_name":"_ZN7android8hardware5media10bufferpool4V1_011IConnection19interfaceDescriptorENSt3__18functionIFvRKNS0_11hidl_stringEEEE"
    },
    {
     "mangled_component_name":"_ZN7android8hardware5media10bufferpool4V1_011IConnection12getHashChainENSt3__18functionIFvRKNS0_8hidl_vecINS0_10hidl_arrayIhLm32EJEEEEEEEE"
    },
    {
     "mangled_component_name":"_ZN7android8hardware5media10bufferpool4V1_011IConnection21setHALInstrumentationEv"
    },
    {
     "mangled_component_name":"_ZN7android8hardware5media10bufferpool4V1_011IConnection11linkToDeathERKNS_2spINS0_20hidl_death_recipientEEEm"
    },
    {
     "mangled_component_name":"_ZN7android8hardware5media10bufferpool4V1_011IConnection4pingEv"
    },
    {
     "mangled_component_name":"_ZN7android8hardware5media10bufferpool4V1_011IConnection12getDebugInfoENSt3__18functionIFvRKNS_4hidl4base4V1_09DebugInfoEEEE"
    },
    {
     "mangled_component_name":"_ZN7android8hardware5media10bufferpool4V1_011IConnection21notifySyspropsChangedEv"
    },
    {
     "mangled_component_name":"_ZN7android8hardware5media10bufferpool4V1_011IConnection13unlinkToDeathERKNS_2spINS0_20hidl_death_recipientEEE"
    },
    {
     "kind":"complete_dtor_pointer",
     "mangled_component_name":"_ZN7android8hardware5media10bufferpool4V1_011IConnectionD1Ev"
    },
    {
     "kind":"deleting_dtor_pointer",
     "mangled_component_name":"_ZN7android8hardware5media10bufferpool4V1_011IConnectionD0Ev"
    },
    {
     "is_pure":true,
     "mangled_component_name":"_ZN7android8hardware5media10bufferpool4V1_011IConnection5fetchEmjNSt3__18functionIFvNS3_12ResultStatusERKNS3_6BufferEEEE"
    },
    {
     "kind":"vcall_offset"
    },
    {
     "kind":"vcall_offset"
    },
    {
     "kind":"vcall_offset"
    },
    {
     "kind":"vcall_offset"
    },
    {
     "kind":"vcall_offset",
     "component_value":-8
    },
    {
     "kind":"offset_to_top",
     "component_value":-8
    },
    {
     "kind":"rtti",
     "mangled_component_name":"_ZTIN7android8hardware5media10bufferpool4V1_011IConnectionE"
    },
    {
     "kind":"complete_dtor_pointer",
     "mangled_component_name":"_ZTv0_n24_N7android8hardware5media10bufferpool4V1_011IConnectionD1Ev"
    },
    {
     "kind":"deleting_dtor_pointer",
     "mangled_component_name":"_ZTv0_n24_N7android8hardware5media10bufferpool4V1_011IConnectionD0Ev"
    },
    {
     "mangled_component_name":"_ZN7android7RefBase10onFirstRefEv"
    },
    {
     "mangled_component_name":"_ZN7android7RefBase15onLastStrongRefEPKv"
    },
    {
     "mangled_component_name":"_ZN7android7RefBase20onIncStrongAttemptedEjPKv"
    },
    {
     "mangled_component_name":"_ZN7android7RefBase13onLastWeakRefEPKv"
    }
   ],
   "unique_id":"_ZTSN7android8hardware5media10bufferpool4V1_011IConnectionE"
  },
  {
   "vtable_components":[
    {
     "kind":"vbase_offset",
     "component_value":136
    },
    {
     "kind":"offset_to_top"
    },
    {
     "kind":"rtti",
     "mangled_component_name":"_ZTIN7android8hardware5media10bufferpool4V1_012BnHwAccessorE"
    },
    {
     "mangled_component_name":"_ZN7android8hardware9BHwBinder8transactEjRKNS0_6ParcelEPS2_jNSt3__18functionIFvRS2_EEE"
    },
    {
     "mangled_component_name":"_ZN7android8hardware9BHwBinder11linkToDeathERKNS_2spINS0_7IBinder14DeathRecipientEEEPvj"
    },
    {
     "mangled_component_name":"_ZN7android8hardware9BHwBinder13unlinkToDeathERKNS_2wpINS0_7IBinder14DeathRecipientEEEPvjPS5_"
    },
    {
     "mangled_component_name":"_ZNK7android8hardware7IBinder13checkSubclassEPKv"
    },
    {
     "mangled_component_name":"_ZN7android8hardware9BHwBinder12attachObjectEPKvPvS4_PFvS3_S4_S4_E"
    },
    {
     "mangled_component_name":"_ZNK7android8hardware9BHwBinder10findObjectEPKv"
    },
    {
     "mangled_component_name":"_ZN7android8hardware9BHwBinder12detachObjectEPKv"
    },
    {
     "mangled_component_name":"_ZN7android8hardware9BHwBinder11localBinderEv"
    },
    {
     "mangled_component_name":"_ZN7android8hardware7IBinder12remoteBinderEv"
    },
    {
     "kind":"complete_dtor_pointer",
     "mangled_component_name":"_ZN7android8hardware5media10bufferpool4V1_012BnHwAccessorD1Ev"
    },
    {
     "kind":"deleting_dtor_pointer",
     "mangled_component_name":"_ZN7android8hardware5media10bufferpool4V1_012BnHwAccessorD0Ev"
    },
    {
     "mangled_component_name":"_ZN7android8hardware5media10bufferpool4V1_012BnHwAccessor10onTransactEjRKNS0_6ParcelEPS5_jNSt3__18functionIFvRS5_EEE"
    },
    {
     "kind":"offset_to_top",
     "component_value":-32
    },
    {
     "kind":"rtti",
     "mangled_component_name":"_ZTIN7android8hardware5media10bufferpool4V1_012BnHwAccessorE"
    },
    {
     "kind":"complete_dtor_pointer",
     "mangled_component_name":"_ZThn32_N7android8hardware5media10bufferpool4V1_012BnHwAccessorD1Ev"
    },
    {
     "kind":"deleting_dtor_pointer",
     "mangled_component_name":"_ZThn32_N7android8hardware5media10bufferpool4V1_012BnHwAccessorD0Ev"
    },
    {
     "kind":"vcall_offset"
    },
    {
     "kind":"vcall_offset"
    },
    {
     "kind":"vcall_offset"
    },
    {
     "kind":"vcall_offset"
    },
    {
     "kind":"vcall_offset",
     "component_value":-136
    },
    {
     "kind":"offset_to_top",
     "component_value":-136
    },
    {
     "kind":"rtti",
     "mangled_component_name":"_ZTIN7android8hardware5media10bufferpool4V1_012BnHwAccessorE"
    },
    {
     "kind":"complete_dtor_pointer",
     "mangled_component_name":"_ZTv0_n24_N7android8hardware5media10bufferpool4V1_012BnHwAccessorD1Ev"
    },
    {
     "kind":"deleting_dtor_pointer",
     "mangled_component_name":"_ZTv0_n24_N7android8hardware5media10bufferpool4V1_012BnHwAccessorD0Ev"
    },
    {
     "mangled_component_name":"_ZN7android7RefBase10onFirstRefEv"
    },
    {
     "mangled_component_name":"_ZN7android7RefBase15onLastStrongRefEPKv"
    },
    {
     "mangled_component_name":"_ZN7android7RefBase20onIncStrongAttemptedEjPKv"
    },
    {
     "mangled_component_name":"_ZN7android7RefBase13onLastWeakRefEPKv"
    }
   ],
   "unique_id":"_ZTSN7android8hardware5media10bufferpool4V1_012BnHwAccessorE"
  },
  {
   "vtable_components":[
    {
     "kind":"vbase_offset",
     "component_value":136
    },
    {
     "kind":"offset_to_top"
    },
    {
     "kind":"rtti",
     "mangled_component_name":"_ZTIN7android8hardware5media10bufferpool4V1_014BnHwConnectionE"
    },
    {
     "mangled_component_name":"_ZN7android8hardware9BHwBinder8transactEjRKNS0_6ParcelEPS2_jNSt3__18functionIFvRS2_EEE"
    },
    {
     "mangled_component_name":"_ZN7android8hardware9BHwBinder11linkToDeathERKNS_2spINS0_7IBinder14DeathRecipientEEEPvj"
    },
    {
     "mangled_component_name":"_ZN7android8hardware9BHwBinder13unlinkToDeathERKNS_2wpINS0_7IBinder14DeathRecipientEEEPvjPS5_"
    },
    {
     "mangled_component_name":"_ZNK7android8hardware7IBinder13checkSubclassEPKv"
    },
    {
     "mangled_component_name":"_ZN7android8hardware9BHwBinder12attachObjectEPKvPvS4_PFvS3_S4_S4_E"
    },
    {
     "mangled_component_name":"_ZNK7android8hardware9BHwBinder10findObjectEPKv"
    },
    {
     "mangled_component_name":"_ZN7android8hardware9BHwBinder12detachObjectEPKv"
    },
    {
     "mangled_component_name":"_ZN7android8hardware9BHwBinder11localBinderEv"
    },
    {
     "mangled_component_name":"_ZN7android8hardware7IBinder12remoteBinderEv"
    },
    {
     "kind":"complete_dtor_pointer",
     "mangled_component_name":"_ZN7android8hardware5media10bufferpool4V1_014BnHwConnectionD1Ev"
    },
    {
     "kind":"deleting_dtor_pointer",
     "mangled_component_name":"_ZN7android8hardware5media10bufferpool4V1_014BnHwConnectionD0Ev"
    },
    {
     "mangled_component_name":"_ZN7android8hardware5media10bufferpool4V1_014BnHwConnection10onTransactEjRKNS0_6ParcelEPS5_jNSt3__18functionIFvRS5_EEE"
    },
    {
     "kind":"offset_to_top",
     "component_value":-32
    },
    {
     "kind":"rtti",
     "mangled_component_name":"_ZTIN7android8hardware5media10bufferpool4V1_014BnHwConnectionE"
    },
    {
     "kind":"complete_dtor_pointer",
     "mangled_component_name":"_ZThn32_N7android8hardware5media10bufferpool4V1_014BnHwConnectionD1Ev"
    },
    {
     "kind":"deleting_dtor_pointer",
     "mangled_component_name":"_ZThn32_N7android8hardware5media10bufferpool4V1_014BnHwConnectionD0Ev"
    },
    {
     "kind":"vcall_offset"
    },
    {
     "kind":"vcall_offset"
    },
    {
     "kind":"vcall_offset"
    },
    {
     "kind":"vcall_offset"
    },
    {
     "kind":"vcall_offset",
     "component_value":-136
    },
    {
     "kind":"offset_to_top",
     "component_value":-136
    },
    {
     "kind":"rtti",
     "mangled_component_name":"_ZTIN7android8hardware5media10bufferpool4V1_014BnHwConnectionE"
    },
    {
     "kind":"complete_dtor_pointer",
     "mangled_component_name":"_ZTv0_n24_N7android8hardware5media10bufferpool4V1_014BnHwConnectionD1Ev"
    },
    {
     "kind":"deleting_dtor_pointer",
     "mangled_component_name":"_ZTv0_n24_N7android8hardware5media10bufferpool4V1_014BnHwConnectionD0Ev"
    },
    {
     "mangled_component_name":"_ZN7android7RefBase10onFirstRefEv"
    },
    {
     "mangled_component_name":"_ZN7android7RefBase15onLastStrongRefEPKv"
    },
    {
     "mangled_component_name":"_ZN7android7RefBase20onIncStrongAttemptedEjPKv"
    },
    {
     "mangled_component_name":"_ZN7android7RefBase13onLastWeakRefEPKv"
    }
   ],
   "unique_id":"_ZTSN7android8hardware5media10bufferpool4V1_014BnHwConnectionE"
  },
  {
   "vtable_components":[
    {
     "kind":"vbase_offset",
     "component_value":200
    },
    {
     "kind":"offset_to_top"
    },
    {
     "kind":"rtti",
     "mangled_component_name":"_ZTIN7android8hardware5media10bufferpool4V1_012BpHwAccessorE"
    },
    {
     "mangled_component_name":"_ZNK7android8hardware5media10bufferpool4V1_012BpHwAccessor8isRemoteEv"
    },
    {
     "mangled_component_name":"_ZN7android8hardware5media10bufferpool4V1_012BpHwAccessor14interfaceChainENSt3__18functionIFvRKNS0_8hidl_vecINS0_11hidl_stringEEEEEE"
    },
    {
     "mangled_component_name":"_ZN7android8hardware5media10bufferpool4V1_012BpHwAccessor5debugERKNS0_11hidl_handleERKNS0_8hidl_vecINS0_11hidl_stringEEE"
    },
    {
     "mangled_component_name":"_ZN7android8hardware5media10bufferpool4V1_012BpHwAccessor19interfaceDescriptorENSt3__18functionIFvRKNS0_11hidl_stringEEEE"
    },
    {
     "mangled_component_name":"_ZN7android8hardware5media10bufferpool4V1_012BpHwAccessor12getHashChainENSt3__18functionIFvRKNS0_8hidl_vecINS0_10hidl_arrayIhLm32EJEEEEEEEE"
    },
    {
     "mangled_component_name":"_ZN7android8hardware5media10bufferpool4V1_012BpHwAccessor21setHALInstrumentationEv"
    },
    {
     "mangled_component_name":"_ZN7android8hardware5media10bufferpool4V1_012BpHwAccessor11linkToDeathERKNS_2spINS0_20hidl_death_recipientEEEm"
    },
    {
     "mangled_component_name":"_ZN7android8hardware5media10bufferpool4V1_012BpHwAccessor4pingEv"
    },
    {
     "mangled_component_name":"_ZN7android8hardware5media10bufferpool4V1_012BpHwAccessor12getDebugInfoENSt3__18functionIFvRKNS_4hidl4base4V1_09DebugInfoEEEE"
    },
    {
     "mangled_component_name":"_ZN7android8hardware5media10bufferpool4V1_012BpHwAccessor21notifySyspropsChangedEv"
    },
    {
     "mangled_component_name":"_ZN7android8hardware5media10bufferpool4V1_012BpHwAccessor13unlinkToDeathERKNS_2spINS0_20hidl_death_recipientEEE"
    },
    {
     "kind":"complete_dtor_pointer",
     "mangled_component_name":"_ZN7android8hardware5media10bufferpool4V1_012BpHwAccessorD1Ev"
    },
    {
     "kind":"deleting_dtor_pointer",
     "mangled_component_name":"_ZN7android8hardware5media10bufferpool4V1_012BpHwAccessorD0Ev"
    },
    {
     "mangled_component_name":"_ZN7android8hardware5media10bufferpool4V1_012BpHwAccessor7connectENSt3__18functionIFvNS3_12ResultStatusERKNS_2spINS3_11IConnectionEEElRKNS0_12MQDescriptorINS3_19BufferStatusMessageELNS0_8MQFlavorE1EEEEEE"
    },
    {
     "mangled_component_name":"_ZN7android8hardware11BpInterfaceINS0_5media10bufferpool4V1_09IAccessorEE10onAsBinderEv"
    },
    {
     "kind":"vbase_offset",
     "component_value":192
    },
    {
     "kind":"offset_to_top",
     "component_value":-8
    },
    {
     "kind":"rtti",
     "mangled_component_name":"_ZTIN7android8hardware5media10bufferpool4V1_012BpHwAccessorE"
    },
    {
     "kind":"complete_dtor_pointer",
     "mangled_component_name":"_ZThn8_N7android8hardware5media10bufferpool4V1_012BpHwAccessorD1Ev"
    },
    {
     "kind":"deleting_dtor_pointer",
     "mangled_component_name":"_ZThn8_N7android8hardware5media10bufferpool4V1_012BpHwAccessorD0Ev"
    },
    {
     "mangled_component_name":"_ZThn8_N7android8hardware11BpInterfaceINS0_5media10bufferpool4V1_09IAccessorEE10onAsBinderEv"
    },
    {
     "kind":"vbase_offset",
     "component_value":184
    },
    {
     "kind":"offset_to_top",
     "component_value":-16
    },
    {
     "kind":"rtti",
     "mangled_component_name":"_ZTIN7android8hardware5media10bufferpool4V1_012BpHwAccessorE"
    },
    {
     "kind":"complete_dtor_pointer",
     "mangled_component_name":"_ZThn16_N7android8hardware5media10bufferpool4V1_012BpHwAccessorD1Ev"
    },
    {
     "kind":"deleting_dtor_pointer",
     "mangled_component_name":"_ZThn16_N7android8hardware5media10bufferpool4V1_012BpHwAccessorD0Ev"
    },
    {
     "mangled_component_name":"_ZN7android8hardware11BpHwRefBase10onFirstRefEv"
    },
    {
     "mangled_component_name":"_ZN7android8hardware11BpHwRefBase15onLastStrongRefEPKv"
    },
    {
     "mangled_component_name":"_ZN7android8hardware11BpHwRefBase20onIncStrongAttemptedEjPKv"
    },
    {
     "kind":"offset_to_top",
     "component_value":-48
    },
    {
     "kind":"rtti",
     "mangled_component_name":"_ZTIN7android8hardware5media10bufferpool4V1_012BpHwAccessorE"
    },
    {
     "kind":"complete_dtor_pointer",
     "mangled_component_name":"_ZThn48_N7android8hardware5media10bufferpool4V1_012BpHwAccessorD1Ev"
    },
    {
     "kind":"deleting_dtor_pointer",
     "mangled_component_name":"_ZThn48_N7android8hardware5media10bufferpool4V1_012BpHwAccessorD0Ev"
    },
    {
     "kind":"vcall_offset"
    },
    {
     "kind":"vcall_offset",
     "component_value":-184
    },
    {
     "kind":"vcall_offset",
     "component_value":-184
    },
    {
     "kind":"vcall_offset",
     "component_value":-184
    },
    {
     "kind":"vcall_offset",
     "component_value":-200
    },
    {
     "kind":"offset_to_top",
     "component_value":-200
    },
    {
     "kind":"rtti",
     "mangled_component_name":"_ZTIN7android8hardware5media10bufferpool4V1_012BpHwAccessorE"
    },
    {
     "kind":"complete_dtor_pointer",
     "mangled_component_name":"_ZTv0_n24_N7android8hardware5media10bufferpool4V1_012BpHwAccessorD1Ev"
    },
    {
     "kind":"deleting_dtor_pointer",
     "mangled_component_name":"_ZTv0_n24_N7android8hardware5media10bufferpool4V1_012BpHwAccessorD0Ev"
    },
    {
     "mangled_component_name":"_ZTv0_n32_N7android8hardware11BpHwRefBase10onFirstRefEv"
    },
    {
     "mangled_component_name":"_ZTv0_n40_N7android8hardware11BpHwRefBase15onLastStrongRefEPKv"
    },
    {
     "mangled_component_name":"_ZTv0_n48_N7android8hardware11BpHwRefBase20onIncStrongAttemptedEjPKv"
    },
    {
     "mangled_component_name":"_ZN7android7RefBase13onLastWeakRefEPKv"
    }
   ],
   "unique_id":"_ZTSN7android8hardware5media10bufferpool4V1_012BpHwAccessorE"
  },
  {
   "vtable_components":[
    {
     "kind":"vbase_offset",
     "component_value":120
    },
    {
     "kind":"offset_to_top"
    },
    {
     "kind":"rtti",
     "mangled_component_name":"_ZTIN7android8hardware5media10bufferpool4V1_010BsAccessorE"
    },
    {
     "mangled_component_name":"_ZNK7android8hardware5media10bufferpool4V1_09IAccessor8isRemoteEv"
    },
    {
     "mangled_component_name":"_ZN7android8hardware5media10bufferpool4V1_010BsAccessor14interfaceChainENSt3__18functionIFvRKNS0_8hidl_vecINS0_11hidl_stringEEEEEE"
    },
    {
     "mangled_component_name":"_ZN7android8hardware5media10bufferpool4V1_010BsAccessor5debugERKNS0_11hidl_handleERKNS0_8hidl_vecINS0_11hidl_stringEEE"
    },
    {
     "mangled_component_name":"_ZN7android8hardware5media10bufferpool4V1_010BsAccessor19interfaceDescriptorENSt3__18functionIFvRKNS0_11hidl_stringEEEE"
    },
    {
     "mangled_component_name":"_ZN7android8hardware5media10bufferpool4V1_010BsAccessor12getHashChainENSt3__18functionIFvRKNS0_8hidl_vecINS0_10hidl_arrayIhLm32EJEEEEEEEE"
    },
    {
     "mangled_component_name":"_ZN7android8hardware5media10bufferpool4V1_010BsAccessor21setHALInstrumentationEv"
    },
    {
     "mangled_component_name":"_ZN7android8hardware5media10bufferpool4V1_010BsAccessor11linkToDeathERKNS_2spINS0_20hidl_death_recipientEEEm"
    },
    {
     "mangled_component_name":"_ZN7android8hardware5media10bufferpool4V1_010BsAccessor4pingEv"
    },
    {
     "mangled_component_name":"_ZN7android8hardware5media10bufferpool4V1_010BsAccessor12getDebugInfoENSt3__18functionIFvRKNS_4hidl4base4V1_09DebugInfoEEEE"
    },
    {
     "mangled_component_name":"_ZN7android8hardware5media10bufferpool4V1_010BsAccessor21notifySyspropsChangedEv"
    },
    {
     "mangled_component_name":"_ZN7android8hardware5media10bufferpool4V1_010BsAccessor13unlinkToDeathERKNS_2spINS0_20hidl_death_recipientEEE"
    },
    {
     "kind":"complete_dtor_pointer",
     "mangled_component_name":"_ZN7android8hardware5media10bufferpool4V1_010BsAccessorD1Ev"
    },
    {
     "kind":"deleting_dtor_pointer",
     "mangled_component_name":"_ZN7android8hardware5media10bufferpool4V1_010BsAccessorD0Ev"
    },
    {
     "mangled_component_name":"_ZN7android8hardware5media10bufferpool4V1_010BsAccessor7connectENSt3__18functionIFvNS3_12ResultStatusERKNS_2spINS3_11IConnectionEEElRKNS0_12MQDescriptorINS3_19BufferStatusMessageELNS0_8MQFlavorE1EEEEEE"
    },
    {
     "kind":"offset_to_top",
     "component_value":-8
    },
    {
     "kind":"rtti",
     "mangled_component_name":"_ZTIN7android8hardware5media10bufferpool4V1_010BsAccessorE"
    },
    {
     "kind":"complete_dtor_pointer",
     "mangled_component_name":"_ZThn8_N7android8hardware5media10bufferpool4V1_010BsAccessorD1Ev"
    },
    {
     "kind":"deleting_dtor_pointer",
     "mangled_component_name":"_ZThn8_N7android8hardware5media10bufferpool4V1_010BsAccessorD0Ev"
    },
    {
     "kind":"vcall_offset"
    },
    {
     "kind":"vcall_offset"
    },
    {
     "kind":"vcall_offset"
    },
    {
     "kind":"vcall_offset"
    },
    {
     "kind":"vcall_offset",
     "component_value":-120
    },
    {
     "kind":"offset_to_top",
     "component_value":-120
    },
    {
     "kind":"rtti",
     "mangled_component_name":"_ZTIN7android8hardware5media10bufferpool4V1_010BsAccessorE"
    },
    {
     "kind":"complete_dtor_pointer",
     "mangled_component_name":"_ZTv0_n24_N7android8hardware5media10bufferpool4V1_010BsAccessorD1Ev"
    },
    {
     "kind":"deleting_dtor_pointer",
     "mangled_component_name":"_ZTv0_n24_N7android8hardware5media10bufferpool4V1_010BsAccessorD0Ev"
    },
    {
     "mangled_component_name":"_ZN7android7RefBase10onFirstRefEv"
    },
    {
     "mangled_component_name":"_ZN7android7RefBase15onLastStrongRefEPKv"
    },
    {
     "mangled_component_name":"_ZN7android7RefBase20onIncStrongAttemptedEjPKv"
    },
    {
     "mangled_component_name":"_ZN7android7RefBase13onLastWeakRefEPKv"
    }
   ],
   "unique_id":"_ZTSN7android8hardware5media10bufferpool4V1_010BsAccessorE"
  },
  {
   "vtable_components":[
    {
     "kind":"vbase_offset",
     "component_value":136
    },
    {
     "kind":"offset_to_top"
    },
    {
     "kind":"rtti",
     "mangled_component_name":"_ZTIN7android8hardware5media10bufferpool4V1_017BnHwClientManagerE"
    },
    {
     "mangled_component_name":"_ZN7android8hardware9BHwBinder8transactEjRKNS0_6ParcelEPS2_jNSt3__18functionIFvRS2_EEE"
    },
    {
     "mangled_component_name":"_ZN7android8hardware9BHwBinder11linkToDeathERKNS_2spINS0_7IBinder14DeathRecipientEEEPvj"
    },
    {
     "mangled_component_name":"_ZN7android8hardware9BHwBinder13unlinkToDeathERKNS_2wpINS0_7IBinder14DeathRecipientEEEPvjPS5_"
    },
    {
     "mangled_component_name":"_ZNK7android8hardware7IBinder13checkSubclassEPKv"
    },
    {
     "mangled_component_name":"_ZN7android8hardware9BHwBinder12attachObjectEPKvPvS4_PFvS3_S4_S4_E"
    },
    {
     "mangled_component_name":"_ZNK7android8hardware9BHwBinder10findObjectEPKv"
    },
    {
     "mangled_component_name":"_ZN7android8hardware9BHwBinder12detachObjectEPKv"
    },
    {
     "mangled_component_name":"_ZN7android8hardware9BHwBinder11localBinderEv"
    },
    {
     "mangled_component_name":"_ZN7android8hardware7IBinder12remoteBinderEv"
    },
    {
     "kind":"complete_dtor_pointer",
     "mangled_component_name":"_ZN7android8hardware5media10bufferpool4V1_017BnHwClientManagerD1Ev"
    },
    {
     "kind":"deleting_dtor_pointer",
     "mangled_component_name":"_ZN7android8hardware5media10bufferpool4V1_017BnHwClientManagerD0Ev"
    },
    {
     "mangled_component_name":"_ZN7android8hardware5media10bufferpool4V1_017BnHwClientManager10onTransactEjRKNS0_6ParcelEPS5_jNSt3__18functionIFvRS5_EEE"
    },
    {
     "kind":"offset_to_top",
     "component_value":-32
    },
    {
     "kind":"rtti",
     "mangled_component_name":"_ZTIN7android8hardware5media10bufferpool4V1_017BnHwClientManagerE"
    },
    {
     "kind":"complete_dtor_pointer",
     "mangled_component_name":"_ZThn32_N7android8hardware5media10bufferpool4V1_017BnHwClientManagerD1Ev"
    },
    {
     "kind":"deleting_dtor_pointer",
     "mangled_component_name":"_ZThn32_N7android8hardware5media10bufferpool4V1_017BnHwClientManagerD0Ev"
    },
    {
     "kind":"vcall_offset"
    },
    {
     "kind":"vcall_offset"
    },
    {
     "kind":"vcall_offset"
    },
    {
     "kind":"vcall_offset"
    },
    {
     "kind":"vcall_offset",
     "component_value":-136
    },
    {
     "kind":"offset_to_top",
     "component_value":-136
    },
    {
     "kind":"rtti",
     "mangled_component_name":"_ZTIN7android8hardware5media10bufferpool4V1_017BnHwClientManagerE"
    },
    {
     "kind":"complete_dtor_pointer",
     "mangled_component_name":"_ZTv0_n24_N7android8hardware5media10bufferpool4V1_017BnHwClientManagerD1Ev"
    },
    {
     "kind":"deleting_dtor_pointer",
     "mangled_component_name":"_ZTv0_n24_N7android8hardware5media10bufferpool4V1_017BnHwClientManagerD0Ev"
    },
    {
     "mangled_component_name":"_ZN7android7RefBase10onFirstRefEv"
    },
    {
     "mangled_component_name":"_ZN7android7RefBase15onLastStrongRefEPKv"
    },
    {
     "mangled_component_name":"_ZN7android7RefBase20onIncStrongAttemptedEjPKv"
    },
    {
     "mangled_component_name":"_ZN7android7RefBase13onLastWeakRefEPKv"
    }
   ],
   "unique_id":"_ZTSN7android8hardware5media10bufferpool4V1_017BnHwClientManagerE"
  },
  {
   "vtable_components":[
    {
     "kind":"vbase_offset",
     "component_value":120
    },
    {
     "kind":"offset_to_top"
    },
    {
     "kind":"rtti",
     "mangled_component_name":"_ZTIN7android8hardware5media10bufferpool4V1_015BsClientManagerE"
    },
    {
     "mangled_component_name":"_ZNK7android8hardware5media10bufferpool4V1_014IClientManager8isRemoteEv"
    },
    {
     "mangled_component_name":"_ZN7android8hardware5media10bufferpool4V1_015BsClientManager14interfaceChainENSt3__18functionIFvRKNS0_8hidl_vecINS0_11hidl_stringEEEEEE"
    },
    {
     "mangled_component_name":"_ZN7android8hardware5media10bufferpool4V1_015BsClientManager5debugERKNS0_11hidl_handleERKNS0_8hidl_vecINS0_11hidl_stringEEE"
    },
    {
     "mangled_component_name":"_ZN7android8hardware5media10bufferpool4V1_015BsClientManager19interfaceDescriptorENSt3__18functionIFvRKNS0_11hidl_stringEEEE"
    },
    {
     "mangled_component_name":"_ZN7android8hardware5media10bufferpool4V1_015BsClientManager12getHashChainENSt3__18functionIFvRKNS0_8hidl_vecINS0_10hidl_arrayIhLm32EJEEEEEEEE"
    },
    {
     "mangled_component_name":"_ZN7android8hardware5media10bufferpool4V1_015BsClientManager21setHALInstrumentationEv"
    },
    {
     "mangled_component_name":"_ZN7android8hardware5media10bufferpool4V1_015BsClientManager11linkToDeathERKNS_2spINS0_20hidl_death_recipientEEEm"
    },
    {
     "mangled_component_name":"_ZN7android8hardware5media10bufferpool4V1_015BsClientManager4pingEv"
    },
    {
     "mangled_component_name":"_ZN7android8hardware5media10bufferpool4V1_015BsClientManager12getDebugInfoENSt3__18functionIFvRKNS_4hidl4base4V1_09DebugInfoEEEE"
    },
    {
     "mangled_component_name":"_ZN7android8hardware5media10bufferpool4V1_015BsClientManager21notifySyspropsChangedEv"
    },
    {
     "mangled_component_name":"_ZN7android8hardware5media10bufferpool4V1_015BsClientManager13unlinkToDeathERKNS_2spINS0_20hidl_death_recipientEEE"
    },
    {
     "kind":"complete_dtor_pointer",
     "mangled_component_name":"_ZN7android8hardware5media10bufferpool4V1_015BsClientManagerD1Ev"
    },
    {
     "kind":"deleting_dtor_pointer",
     "mangled_component_name":"_ZN7android8hardware5media10bufferpool4V1_015BsClientManagerD0Ev"
    },
    {
     "mangled_component_name":"_ZN7android8hardware5media10bufferpool4V1_015BsClientManager14registerSenderERKNS_2spINS3_9IAccessorEEENSt3__18functionIFvNS3_12ResultStatusElEEE"
    },
    {
     "kind":"offset_to_top",
     "component_value":-8
    },
    {
     "kind":"rtti",
     "mangled_component_name":"_ZTIN7android8hardware5media10bufferpool4V1_015BsClientManagerE"
    },
    {
     "kind":"complete_dtor_pointer",
     "mangled_component_name":"_ZThn8_N7android8hardware5media10bufferpool4V1_015BsClientManagerD1Ev"
    },
    {
     "kind":"deleting_dtor_pointer",
     "mangled_component_name":"_ZThn8_N7android8hardware5media10bufferpool4V1_015BsClientManagerD0Ev"
    },
    {
     "kind":"vcall_offset"
    },
    {
     "kind":"vcall_offset"
    },
    {
     "kind":"vcall_offset"
    },
    {
     "kind":"vcall_offset"
    },
    {
     "kind":"vcall_offset",
     "component_value":-120
    },
    {
     "kind":"offset_to_top",
     "component_value":-120
    },
    {
     "kind":"rtti",
     "mangled_component_name":"_ZTIN7android8hardware5media10bufferpool4V1_015BsClientManagerE"
    },
    {
     "kind":"complete_dtor_pointer",
     "mangled_component_name":"_ZTv0_n24_N7android8hardware5media10bufferpool4V1_015BsClientManagerD1Ev"
    },
    {
     "kind":"deleting_dtor_pointer",
     "mangled_component_name":"_ZTv0_n24_N7android8hardware5media10bufferpool4V1_015BsClientManagerD0Ev"
    },
    {
     "mangled_component_name":"_ZN7android7RefBase10onFirstRefEv"
    },
    {
     "mangled_component_name":"_ZN7android7RefBase15onLastStrongRefEPKv"
    },
    {
     "mangled_component_name":"_ZN7android7RefBase20onIncStrongAttemptedEjPKv"
    },
    {
     "mangled_component_name":"_ZN7android7RefBase13onLastWeakRefEPKv"
    }
   ],
   "unique_id":"_ZTSN7android8hardware5media10bufferpool4V1_015BsClientManagerE"
  },
  {
   "vtable_components":[
    {
     "kind":"vbase_offset",
     "component_value":200
    },
    {
     "kind":"offset_to_top"
    },
    {
     "kind":"rtti",
     "mangled_component_name":"_ZTIN7android8hardware5media10bufferpool4V1_017BpHwClientManagerE"
    },
    {
     "mangled_component_name":"_ZNK7android8hardware5media10bufferpool4V1_017BpHwClientManager8isRemoteEv"
    },
    {
     "mangled_component_name":"_ZN7android8hardware5media10bufferpool4V1_017BpHwClientManager14interfaceChainENSt3__18functionIFvRKNS0_8hidl_vecINS0_11hidl_stringEEEEEE"
    },
    {
     "mangled_component_name":"_ZN7android8hardware5media10bufferpool4V1_017BpHwClientManager5debugERKNS0_11hidl_handleERKNS0_8hidl_vecINS0_11hidl_stringEEE"
    },
    {
     "mangled_component_name":"_ZN7android8hardware5media10bufferpool4V1_017BpHwClientManager19interfaceDescriptorENSt3__18functionIFvRKNS0_11hidl_stringEEEE"
    },
    {
     "mangled_component_name":"_ZN7android8hardware5media10bufferpool4V1_017BpHwClientManager12getHashChainENSt3__18functionIFvRKNS0_8hidl_vecINS0_10hidl_arrayIhLm32EJEEEEEEEE"
    },
    {
     "mangled_component_name":"_ZN7android8hardware5media10bufferpool4V1_017BpHwClientManager21setHALInstrumentationEv"
    },
    {
     "mangled_component_name":"_ZN7android8hardware5media10bufferpool4V1_017BpHwClientManager11linkToDeathERKNS_2spINS0_20hidl_death_recipientEEEm"
    },
    {
     "mangled_component_name":"_ZN7android8hardware5media10bufferpool4V1_017BpHwClientManager4pingEv"
    },
    {
     "mangled_component_name":"_ZN7android8hardware5media10bufferpool4V1_017BpHwClientManager12getDebugInfoENSt3__18functionIFvRKNS_4hidl4base4V1_09DebugInfoEEEE"
    },
    {
     "mangled_component_name":"_ZN7android8hardware5media10bufferpool4V1_017BpHwClientManager21notifySyspropsChangedEv"
    },
    {
     "mangled_component_name":"_ZN7android8hardware5media10bufferpool4V1_017BpHwClientManager13unlinkToDeathERKNS_2spINS0_20hidl_death_recipientEEE"
    },
    {
     "kind":"complete_dtor_pointer",
     "mangled_component_name":"_ZN7android8hardware5media10bufferpool4V1_017BpHwClientManagerD1Ev"
    },
    {
     "kind":"deleting_dtor_pointer",
     "mangled_component_name":"_ZN7android8hardware5media10bufferpool4V1_017BpHwClientManagerD0Ev"
    },
    {
     "mangled_component_name":"_ZN7android8hardware5media10bufferpool4V1_017BpHwClientManager14registerSenderERKNS_2spINS3_9IAccessorEEENSt3__18functionIFvNS3_12ResultStatusElEEE"
    },
    {
     "mangled_component_name":"_ZN7android8hardware11BpInterfaceINS0_5media10bufferpool4V1_014IClientManagerEE10onAsBinderEv"
    },
    {
     "kind":"vbase_offset",
     "component_value":192
    },
    {
     "kind":"offset_to_top",
     "component_value":-8
    },
    {
     "kind":"rtti",
     "mangled_component_name":"_ZTIN7android8hardware5media10bufferpool4V1_017BpHwClientManagerE"
    },
    {
     "kind":"complete_dtor_pointer",
     "mangled_component_name":"_ZThn8_N7android8hardware5media10bufferpool4V1_017BpHwClientManagerD1Ev"
    },
    {
     "kind":"deleting_dtor_pointer",
     "mangled_component_name":"_ZThn8_N7android8hardware5media10bufferpool4V1_017BpHwClientManagerD0Ev"
    },
    {
     "mangled_component_name":"_ZThn8_N7android8hardware11BpInterfaceINS0_5media10bufferpool4V1_014IClientManagerEE10onAsBinderEv"
    },
    {
     "kind":"vbase_offset",
     "component_value":184
    },
    {
     "kind":"offset_to_top",
     "component_value":-16
    },
    {
     "kind":"rtti",
     "mangled_component_name":"_ZTIN7android8hardware5media10bufferpool4V1_017BpHwClientManagerE"
    },
    {
     "kind":"complete_dtor_pointer",
     "mangled_component_name":"_ZThn16_N7android8hardware5media10bufferpool4V1_017BpHwClientManagerD1Ev"
    },
    {
     "kind":"deleting_dtor_pointer",
     "mangled_component_name":"_ZThn16_N7android8hardware5media10bufferpool4V1_017BpHwClientManagerD0Ev"
    },
    {
     "mangled_component_name":"_ZN7android8hardware11BpHwRefBase10onFirstRefEv"
    },
    {
     "mangled_component_name":"_ZN7android8hardware11BpHwRefBase15onLastStrongRefEPKv"
    },
    {
     "mangled_component_name":"_ZN7android8hardware11BpHwRefBase20onIncStrongAttemptedEjPKv"
    },
    {
     "kind":"offset_to_top",
     "component_value":-48
    },
    {
     "kind":"rtti",
     "mangled_component_name":"_ZTIN7android8hardware5media10bufferpool4V1_017BpHwClientManagerE"
    },
    {
     "kind":"complete_dtor_pointer",
     "mangled_component_name":"_ZThn48_N7android8hardware5media10bufferpool4V1_017BpHwClientManagerD1Ev"
    },
    {
     "kind":"deleting_dtor_pointer",
     "mangled_component_name":"_ZThn48_N7android8hardware5media10bufferpool4V1_017BpHwClientManagerD0Ev"
    },
    {
     "kind":"vcall_offset"
    },
    {
     "kind":"vcall_offset",
     "component_value":-184
    },
    {
     "kind":"vcall_offset",
     "component_value":-184
    },
    {
     "kind":"vcall_offset",
     "component_value":-184
    },
    {
     "kind":"vcall_offset",
     "component_value":-200
    },
    {
     "kind":"offset_to_top",
     "component_value":-200
    },
    {
     "kind":"rtti",
     "mangled_component_name":"_ZTIN7android8hardware5media10bufferpool4V1_017BpHwClientManagerE"
    },
    {
     "kind":"complete_dtor_pointer",
     "mangled_component_name":"_ZTv0_n24_N7android8hardware5media10bufferpool4V1_017BpHwClientManagerD1Ev"
    },
    {
     "kind":"deleting_dtor_pointer",
     "mangled_component_name":"_ZTv0_n24_N7android8hardware5media10bufferpool4V1_017BpHwClientManagerD0Ev"
    },
    {
     "mangled_component_name":"_ZTv0_n32_N7android8hardware11BpHwRefBase10onFirstRefEv"
    },
    {
     "mangled_component_name":"_ZTv0_n40_N7android8hardware11BpHwRefBase15onLastStrongRefEPKv"
    },
    {
     "mangled_component_name":"_ZTv0_n48_N7android8hardware11BpHwRefBase20onIncStrongAttemptedEjPKv"
    },
    {
     "mangled_component_name":"_ZN7android7RefBase13onLastWeakRefEPKv"
    }
   ],
   "unique_id":"_ZTSN7android8hardware5media10bufferpool4V1_017BpHwClientManagerE"
  }
 ],
 "elf_functions":[
  {
   "binding":"weak",
   "name":"_ZN7android8hardware10fromBinderINS0_5media10bufferpool4V1_011IConnectionENS4_14BpHwConnectionENS4_14BnHwConnectionEEENS_2spIT_EERKNS8_INS0_7IBinderEEE"
  },
  {
   "binding":"weak",
   "name":"_ZN7android8hardware10fromBinderINS0_5media10bufferpool4V1_09IAccessorENS4_12BpHwAccessorENS4_12BnHwAccessorEEENS_2spIT_EERKNS8_INS0_7IBinderEEE"
  },
  {
   "name":"_ZN7android8hardware5media10bufferpool4V1_010BsAccessor13addOnewayTaskENSt3__18functionIFvvEEE"
  },
  {
   "name":"_ZN7android8hardware5media10bufferpool4V1_010BsAccessorC1ENS_2spINS3_9IAccessorEEE"
  },
  {
   "name":"_ZN7android8hardware5media10bufferpool4V1_010BsAccessorC2ENS_2spINS3_9IAccessorEEE"
  },
  {
   "name":"_ZN7android8hardware5media10bufferpool4V1_011IConnection10getServiceERKNSt3__112basic_stringIcNS5_11char_traitsIcEENS5_9allocatorIcEEEEb"
  },
  {
   "name":"_ZN7android8hardware5media10bufferpool4V1_011IConnection11linkToDeathERKNS_2spINS0_20hidl_death_recipientEEEm"
  },
  {
   "name":"_ZN7android8hardware5media10bufferpool4V1_011IConnection12getDebugInfoENSt3__18functionIFvRKNS_4hidl4base4V1_09DebugInfoEEEE"
  },
  {
   "name":"_ZN7android8hardware5media10bufferpool4V1_011IConnection12getHashChainENSt3__18functionIFvRKNS0_8hidl_vecINS0_10hidl_arrayIhLm32EJEEEEEEEE"
  },
  {
   "name":"_ZN7android8hardware5media10bufferpool4V1_011IConnection13tryGetServiceERKNSt3__112basic_stringIcNS5_11char_traitsIcEENS5_9allocatorIcEEEEb"
  },
  {
   "name":"_ZN7android8hardware5media10bufferpool4V1_011IConnection13unlinkToDeathERKNS_2spINS0_20hidl_death_recipientEEE"
  },
  {
   "name":"_ZN7android8hardware5media10bufferpool4V1_011IConnection14interfaceChainENSt3__18functionIFvRKNS0_8hidl_vecINS0_11hidl_stringEEEEEE"
  },
  {
   "name":"_ZN7android8hardware5media10bufferpool4V1_011IConnection17registerAsServiceERKNSt3__112basic_stringIcNS5_11char_traitsIcEENS5_9allocatorIcEEEE"
  },
  {
   "name":"_ZN7android8hardware5media10bufferpool4V1_011IConnection19interfaceDescriptorENSt3__18functionIFvRKNS0_11hidl_stringEEEE"
  },
  {
   "name":"_ZN7android8hardware5media10bufferpool4V1_011IConnection21notifySyspropsChangedEv"
  },
  {
   "name":"_ZN7android8hardware5media10bufferpool4V1_011IConnection21setHALInstrumentationEv"
  },
  {
   "name":"_ZN7android8hardware5media10bufferpool4V1_011IConnection24registerForNotificationsERKNSt3__112basic_stringIcNS5_11char_traitsIcEENS5_9allocatorIcEEEERKNS_2spINS_4hidl7manager4V1_020IServiceNotificationEEE"
  },
  {
   "name":"_ZN7android8hardware5media10bufferpool4V1_011IConnection4pingEv"
  },
  {
   "name":"_ZN7android8hardware5media10bufferpool4V1_011IConnection5debugERKNS0_11hidl_handleERKNS0_8hidl_vecINS0_11hidl_stringEEE"
  },
  {
   "name":"_ZN7android8hardware5media10bufferpool4V1_011IConnection8castFromERKNS_2spINS_4hidl4base4V1_05IBaseEEEb"
  },
  {
   "name":"_ZN7android8hardware5media10bufferpool4V1_011IConnection8castFromERKNS_2spIS4_EEb"
  },
  {
   "name":"_ZN7android8hardware5media10bufferpool4V1_012BnHwAccessor10onTransactEjRKNS0_6ParcelEPS5_jNSt3__18functionIFvRS5_EEE"
  },
  {
   "name":"_ZN7android8hardware5media10bufferpool4V1_012BnHwAccessor12getDebugInfoENSt3__18functionIFvRKNS_4hidl4base4V1_09DebugInfoEEEE"
  },
  {
   "name":"_ZN7android8hardware5media10bufferpool4V1_012BnHwAccessor13_hidl_connectEPNS_4hidl4base4V1_08BnHwBaseERKNS0_6ParcelEPSA_NSt3__18functionIFvRSA_EEE"
  },
  {
   "name":"_ZN7android8hardware5media10bufferpool4V1_012BnHwAccessor4pingEv"
  },
  {
   "name":"_ZN7android8hardware5media10bufferpool4V1_012BnHwAccessorC1ERKNS_2spINS3_9IAccessorEEE"
  },
  {
   "name":"_ZN7android8hardware5media10bufferpool4V1_012BnHwAccessorC2ERKNS_2spINS3_9IAccessorEEE"
  },
  {
   "name":"_ZN7android8hardware5media10bufferpool4V1_012BnHwAccessorD0Ev"
  },
  {
   "name":"_ZN7android8hardware5media10bufferpool4V1_012BnHwAccessorD1Ev"
  },
  {
   "name":"_ZN7android8hardware5media10bufferpool4V1_012BnHwAccessorD2Ev"
  },
  {
   "name":"_ZN7android8hardware5media10bufferpool4V1_012BpHwAccessor11linkToDeathERKNS_2spINS0_20hidl_death_recipientEEEm"
  },
  {
   "name":"_ZN7android8hardware5media10bufferpool4V1_012BpHwAccessor12getDebugInfoENSt3__18functionIFvRKNS_4hidl4base4V1_09DebugInfoEEEE"
  },
  {
   "name":"_ZN7android8hardware5media10bufferpool4V1_012BpHwAccessor12getHashChainENSt3__18functionIFvRKNS0_8hidl_vecINS0_10hidl_arrayIhLm32EJEEEEEEEE"
  },
  {
   "name":"_ZN7android8hardware5media10bufferpool4V1_012BpHwAccessor13_hidl_connectEPNS0_10IInterfaceEPNS0_7details16HidlInstrumentorENSt3__18functionIFvNS3_12ResultStatusERKNS_2spINS3_11IConnectionEEElRKNS0_12MQDescriptorINS3_19BufferStatusMessageELNS0_8MQFlavorE1EEEEEE"
  },
  {
   "name":"_ZN7android8hardware5media10bufferpool4V1_012BpHwAccessor13unlinkToDeathERKNS_2spINS0_20hidl_death_recipientEEE"
  },
  {
   "name":"_ZN7android8hardware5media10bufferpool4V1_012BpHwAccessor14interfaceChainENSt3__18functionIFvRKNS0_8hidl_vecINS0_11hidl_stringEEEEEE"
  },
  {
   "name":"_ZN7android8hardware5media10bufferpool4V1_012BpHwAccessor19interfaceDescriptorENSt3__18functionIFvRKNS0_11hidl_stringEEEE"
  },
  {
   "name":"_ZN7android8hardware5media10bufferpool4V1_012BpHwAccessor21notifySyspropsChangedEv"
  },
  {
   "name":"_ZN7android8hardware5media10bufferpool4V1_012BpHwAccessor21setHALInstrumentationEv"
  },
  {
   "name":"_ZN7android8hardware5media10bufferpool4V1_012BpHwAccessor4pingEv"
  },
  {
   "name":"_ZN7android8hardware5media10bufferpool4V1_012BpHwAccessor5debugERKNS0_11hidl_handleERKNS0_8hidl_vecINS0_11hidl_stringEEE"
  },
  {
   "name":"_ZN7android8hardware5media10bufferpool4V1_012BpHwAccessor7connectENSt3__18functionIFvNS3_12ResultStatusERKNS_2spINS3_11IConnectionEEElRKNS0_12MQDescriptorINS3_19BufferStatusMessageELNS0_8MQFlavorE1EEEEEE"
  },
  {
   "name":"_ZN7android8hardware5media10bufferpool4V1_012BpHwAccessorC1ERKNS_2spINS0_7IBinderEEE"
  },
  {
   "name":"_ZN7android8hardware5media10bufferpool4V1_012BpHwAccessorC2ERKNS_2spINS0_7IBinderEEE"
  },
  {
   "name":"_ZN7android8hardware5media10bufferpool4V1_012BsConnection13addOnewayTaskENSt3__18functionIFvvEEE"
  },
  {
   "name":"_ZN7android8hardware5media10bufferpool4V1_012BsConnectionC1ENS_2spINS3_11IConnectionEEE"
  },
  {
   "name":"_ZN7android8hardware5media10bufferpool4V1_012BsConnectionC2ENS_2spINS3_11IConnectionEEE"
  },
  {
   "name":"_ZN7android8hardware5media10bufferpool4V1_014BnHwConnection10onTransactEjRKNS0_6ParcelEPS5_jNSt3__18functionIFvRS5_EEE"
  },
  {
   "name":"_ZN7android8hardware5media10bufferpool4V1_014BnHwConnection11_hidl_fetchEPNS_4hidl4base4V1_08BnHwBaseERKNS0_6ParcelEPSA_NSt3__18functionIFvRSA_EEE"
  },
  {
   "name":"_ZN7android8hardware5media10bufferpool4V1_014BnHwConnection12getDebugInfoENSt3__18functionIFvRKNS_4hidl4base4V1_09DebugInfoEEEE"
  },
  {
   "name":"_ZN7android8hardware5media10bufferpool4V1_014BnHwConnection4pingEv"
  },
  {
   "name":"_ZN7android8hardware5media10bufferpool4V1_014BnHwConnectionC1ERKNS_2spINS3_11IConnectionEEE"
  },
  {
   "name":"_ZN7android8hardware5media10bufferpool4V1_014BnHwConnectionC2ERKNS_2spINS3_11IConnectionEEE"
  },
  {
   "name":"_ZN7android8hardware5media10bufferpool4V1_014BnHwConnectionD0Ev"
  },
  {
   "name":"_ZN7android8hardware5media10bufferpool4V1_014BnHwConnectionD1Ev"
  },
  {
   "name":"_ZN7android8hardware5media10bufferpool4V1_014BnHwConnectionD2Ev"
  },
  {
   "name":"_ZN7android8hardware5media10bufferpool4V1_014BpHwConnection11_hidl_fetchEPNS0_10IInterfaceEPNS0_7details16HidlInstrumentorEmjNSt3__18functionIFvNS3_12ResultStatusERKNS3_6BufferEEEE"
  },
  {
   "name":"_ZN7android8hardware5media10bufferpool4V1_014BpHwConnection11linkToDeathERKNS_2spINS0_20hidl_death_recipientEEEm"
  },
  {
   "name":"_ZN7android8hardware5media10bufferpool4V1_014BpHwConnection12getDebugInfoENSt3__18functionIFvRKNS_4hidl4base4V1_09DebugInfoEEEE"
  },
  {
   "name":"_ZN7android8hardware5media10bufferpool4V1_014BpHwConnection12getHashChainENSt3__18functionIFvRKNS0_8hidl_vecINS0_10hidl_arrayIhLm32EJEEEEEEEE"
  },
  {
   "name":"_ZN7android8hardware5media10bufferpool4V1_014BpHwConnection13unlinkToDeathERKNS_2spINS0_20hidl_death_recipientEEE"
  },
  {
   "name":"_ZN7android8hardware5media10bufferpool4V1_014BpHwConnection14interfaceChainENSt3__18functionIFvRKNS0_8hidl_vecINS0_11hidl_stringEEEEEE"
  },
  {
   "name":"_ZN7android8hardware5media10bufferpool4V1_014BpHwConnection19interfaceDescriptorENSt3__18functionIFvRKNS0_11hidl_stringEEEE"
  },
  {
   "name":"_ZN7android8hardware5media10bufferpool4V1_014BpHwConnection21notifySyspropsChangedEv"
  },
  {
   "name":"_ZN7android8hardware5media10bufferpool4V1_014BpHwConnection21setHALInstrumentationEv"
  },
  {
   "name":"_ZN7android8hardware5media10bufferpool4V1_014BpHwConnection4pingEv"
  },
  {
   "name":"_ZN7android8hardware5media10bufferpool4V1_014BpHwConnection5debugERKNS0_11hidl_handleERKNS0_8hidl_vecINS0_11hidl_stringEEE"
  },
  {
   "name":"_ZN7android8hardware5media10bufferpool4V1_014BpHwConnection5fetchEmjNSt3__18functionIFvNS3_12ResultStatusERKNS3_6BufferEEEE"
  },
  {
   "name":"_ZN7android8hardware5media10bufferpool4V1_014BpHwConnectionC1ERKNS_2spINS0_7IBinderEEE"
  },
  {
   "name":"_ZN7android8hardware5media10bufferpool4V1_014BpHwConnectionC2ERKNS_2spINS0_7IBinderEEE"
  },
  {
   "name":"_ZN7android8hardware5media10bufferpool4V1_014IClientManager10getServiceERKNSt3__112basic_stringIcNS5_11char_traitsIcEENS5_9allocatorIcEEEEb"
  },
  {
   "name":"_ZN7android8hardware5media10bufferpool4V1_014IClientManager11linkToDeathERKNS_2spINS0_20hidl_death_recipientEEEm"
  },
  {
   "name":"_ZN7android8hardware5media10bufferpool4V1_014IClientManager12getDebugInfoENSt3__18functionIFvRKNS_4hidl4base4V1_09DebugInfoEEEE"
  },
  {
   "name":"_ZN7android8hardware5media10bufferpool4V1_014IClientManager12getHashChainENSt3__18functionIFvRKNS0_8hidl_vecINS0_10hidl_arrayIhLm32EJEEEEEEEE"
  },
  {
   "name":"_ZN7android8hardware5media10bufferpool4V1_014IClientManager13tryGetServiceERKNSt3__112basic_stringIcNS5_11char_traitsIcEENS5_9allocatorIcEEEEb"
  },
  {
   "name":"_ZN7android8hardware5media10bufferpool4V1_014IClientManager13unlinkToDeathERKNS_2spINS0_20hidl_death_recipientEEE"
  },
  {
   "name":"_ZN7android8hardware5media10bufferpool4V1_014IClientManager14interfaceChainENSt3__18functionIFvRKNS0_8hidl_vecINS0_11hidl_stringEEEEEE"
  },
  {
   "name":"_ZN7android8hardware5media10bufferpool4V1_014IClientManager17registerAsServiceERKNSt3__112basic_stringIcNS5_11char_traitsIcEENS5_9allocatorIcEEEE"
  },
  {
   "name":"_ZN7android8hardware5media10bufferpool4V1_014IClientManager19interfaceDescriptorENSt3__18functionIFvRKNS0_11hidl_stringEEEE"
  },
  {
   "name":"_ZN7android8hardware5media10bufferpool4V1_014IClientManager21notifySyspropsChangedEv"
  },
  {
   "name":"_ZN7android8hardware5media10bufferpool4V1_014IClientManager21setHALInstrumentationEv"
  },
  {
   "name":"_ZN7android8hardware5media10bufferpool4V1_014IClientManager24registerForNotificationsERKNSt3__112basic_stringIcNS5_11char_traitsIcEENS5_9allocatorIcEEEERKNS_2spINS_4hidl7manager4V1_020IServiceNotificationEEE"
  },
  {
   "name":"_ZN7android8hardware5media10bufferpool4V1_014IClientManager4pingEv"
  },
  {
   "name":"_ZN7android8hardware5media10bufferpool4V1_014IClientManager5debugERKNS0_11hidl_handleERKNS0_8hidl_vecINS0_11hidl_stringEEE"
  },
  {
   "name":"_ZN7android8hardware5media10bufferpool4V1_014IClientManager8castFromERKNS_2spINS_4hidl4base4V1_05IBaseEEEb"
  },
  {
   "name":"_ZN7android8hardware5media10bufferpool4V1_014IClientManager8castFromERKNS_2spIS4_EEb"
  },
  {
   "name":"_ZN7android8hardware5media10bufferpool4V1_015BsClientManager13addOnewayTaskENSt3__18functionIFvvEEE"
  },
  {
   "name":"_ZN7android8hardware5media10bufferpool4V1_015BsClientManagerC1ENS_2spINS3_14IClientManagerEEE"
  },
  {
   "name":"_ZN7android8hardware5media10bufferpool4V1_015BsClientManagerC2ENS_2spINS3_14IClientManagerEEE"
  },
  {
   "name":"_ZN7android8hardware5media10bufferpool4V1_017BnHwClientManager10onTransactEjRKNS0_6ParcelEPS5_jNSt3__18functionIFvRS5_EEE"
  },
  {
   "name":"_ZN7android8hardware5media10bufferpool4V1_017BnHwClientManager12getDebugInfoENSt3__18functionIFvRKNS_4hidl4base4V1_09DebugInfoEEEE"
  },
  {
   "name":"_ZN7android8hardware5media10bufferpool4V1_017BnHwClientManager20_hidl_registerSenderEPNS_4hidl4base4V1_08BnHwBaseERKNS0_6ParcelEPSA_NSt3__18functionIFvRSA_EEE"
  },
  {
   "name":"_ZN7android8hardware5media10bufferpool4V1_017BnHwClientManager4pingEv"
  },
  {
   "name":"_ZN7android8hardware5media10bufferpool4V1_017BnHwClientManagerC1ERKNS_2spINS3_14IClientManagerEEE"
  },
  {
   "name":"_ZN7android8hardware5media10bufferpool4V1_017BnHwClientManagerC2ERKNS_2spINS3_14IClientManagerEEE"
  },
  {
   "name":"_ZN7android8hardware5media10bufferpool4V1_017BnHwClientManagerD0Ev"
  },
  {
   "name":"_ZN7android8hardware5media10bufferpool4V1_017BnHwClientManagerD1Ev"
  },
  {
   "name":"_ZN7android8hardware5media10bufferpool4V1_017BnHwClientManagerD2Ev"
  },
  {
   "name":"_ZN7android8hardware5media10bufferpool4V1_017BpHwClientManager11linkToDeathERKNS_2spINS0_20hidl_death_recipientEEEm"
  },
  {
   "name":"_ZN7android8hardware5media10bufferpool4V1_017BpHwClientManager12getDebugInfoENSt3__18functionIFvRKNS_4hidl4base4V1_09DebugInfoEEEE"
  },
  {
   "name":"_ZN7android8hardware5media10bufferpool4V1_017BpHwClientManager12getHashChainENSt3__18functionIFvRKNS0_8hidl_vecINS0_10hidl_arrayIhLm32EJEEEEEEEE"
  },
  {
   "name":"_ZN7android8hardware5media10bufferpool4V1_017BpHwClientManager13unlinkToDeathERKNS_2spINS0_20hidl_death_recipientEEE"
  },
  {
   "name":"_ZN7android8hardware5media10bufferpool4V1_017BpHwClientManager14interfaceChainENSt3__18functionIFvRKNS0_8hidl_vecINS0_11hidl_stringEEEEEE"
  },
  {
   "name":"_ZN7android8hardware5media10bufferpool4V1_017BpHwClientManager14registerSenderERKNS_2spINS3_9IAccessorEEENSt3__18functionIFvNS3_12ResultStatusElEEE"
  },
  {
   "name":"_ZN7android8hardware5media10bufferpool4V1_017BpHwClientManager19interfaceDescriptorENSt3__18functionIFvRKNS0_11hidl_stringEEEE"
  },
  {
   "name":"_ZN7android8hardware5media10bufferpool4V1_017BpHwClientManager20_hidl_registerSenderEPNS0_10IInterfaceEPNS0_7details16HidlInstrumentorERKNS_2spINS3_9IAccessorEEENSt3__18functionIFvNS3_12ResultStatusElEEE"
  },
  {
   "name":"_ZN7android8hardware5media10bufferpool4V1_017BpHwClientManager21notifySyspropsChangedEv"
  },
  {
   "name":"_ZN7android8hardware5media10bufferpool4V1_017BpHwClientManager21setHALInstrumentationEv"
  },
  {
   "name":"_ZN7android8hardware5media10bufferpool4V1_017BpHwClientManager4pingEv"
  },
  {
   "name":"_ZN7android8hardware5media10bufferpool4V1_017BpHwClientManager5debugERKNS0_11hidl_handleERKNS0_8hidl_vecINS0_11hidl_stringEEE"
  },
  {
   "name":"_ZN7android8hardware5media10bufferpool4V1_017BpHwClientManagerC1ERKNS_2spINS0_7IBinderEEE"
  },
  {
   "name":"_ZN7android8hardware5media10bufferpool4V1_017BpHwClientManagerC2ERKNS_2spINS0_7IBinderEEE"
  },
  {
   "name":"_ZN7android8hardware5media10bufferpool4V1_021writeEmbeddedToParcelERKNS3_6BufferEPNS0_6ParcelEmm"
  },
  {
   "name":"_ZN7android8hardware5media10bufferpool4V1_022readEmbeddedFromParcelERKNS3_6BufferERKNS0_6ParcelEmm"
  },
  {
   "name":"_ZN7android8hardware5media10bufferpool4V1_09IAccessor10getServiceERKNSt3__112basic_stringIcNS5_11char_traitsIcEENS5_9allocatorIcEEEEb"
  },
  {
   "name":"_ZN7android8hardware5media10bufferpool4V1_09IAccessor11linkToDeathERKNS_2spINS0_20hidl_death_recipientEEEm"
  },
  {
   "name":"_ZN7android8hardware5media10bufferpool4V1_09IAccessor12getDebugInfoENSt3__18functionIFvRKNS_4hidl4base4V1_09DebugInfoEEEE"
  },
  {
   "name":"_ZN7android8hardware5media10bufferpool4V1_09IAccessor12getHashChainENSt3__18functionIFvRKNS0_8hidl_vecINS0_10hidl_arrayIhLm32EJEEEEEEEE"
  },
  {
   "name":"_ZN7android8hardware5media10bufferpool4V1_09IAccessor13tryGetServiceERKNSt3__112basic_stringIcNS5_11char_traitsIcEENS5_9allocatorIcEEEEb"
  },
  {
   "name":"_ZN7android8hardware5media10bufferpool4V1_09IAccessor13unlinkToDeathERKNS_2spINS0_20hidl_death_recipientEEE"
  },
  {
   "name":"_ZN7android8hardware5media10bufferpool4V1_09IAccessor14interfaceChainENSt3__18functionIFvRKNS0_8hidl_vecINS0_11hidl_stringEEEEEE"
  },
  {
   "name":"_ZN7android8hardware5media10bufferpool4V1_09IAccessor17registerAsServiceERKNSt3__112basic_stringIcNS5_11char_traitsIcEENS5_9allocatorIcEEEE"
  },
  {
   "name":"_ZN7android8hardware5media10bufferpool4V1_09IAccessor19interfaceDescriptorENSt3__18functionIFvRKNS0_11hidl_stringEEEE"
  },
  {
   "name":"_ZN7android8hardware5media10bufferpool4V1_09IAccessor21notifySyspropsChangedEv"
  },
  {
   "name":"_ZN7android8hardware5media10bufferpool4V1_09IAccessor21setHALInstrumentationEv"
  },
  {
   "name":"_ZN7android8hardware5media10bufferpool4V1_09IAccessor24registerForNotificationsERKNSt3__112basic_stringIcNS5_11char_traitsIcEENS5_9allocatorIcEEEERKNS_2spINS_4hidl7manager4V1_020IServiceNotificationEEE"
  },
  {
   "name":"_ZN7android8hardware5media10bufferpool4V1_09IAccessor4pingEv"
  },
  {
   "name":"_ZN7android8hardware5media10bufferpool4V1_09IAccessor5debugERKNS0_11hidl_handleERKNS0_8hidl_vecINS0_11hidl_stringEEE"
  },
  {
   "name":"_ZN7android8hardware5media10bufferpool4V1_09IAccessor8castFromERKNS_2spINS_4hidl4base4V1_05IBaseEEEb"
  },
  {
   "name":"_ZN7android8hardware5media10bufferpool4V1_09IAccessor8castFromERKNS_2spIS4_EEb"
  },
  {
   "binding":"weak",
   "name":"_ZN7android8hardware7details13castInterfaceINS0_5media10bufferpool4V1_011IConnectionENS_4hidl4base4V1_05IBaseENS5_14BpHwConnectionEEENS0_6ReturnINS_2spIT_EEEENSD_IT0_EEPKcb"
  },
  {
   "binding":"weak",
   "name":"_ZN7android8hardware7details13castInterfaceINS0_5media10bufferpool4V1_014IClientManagerENS_4hidl4base4V1_05IBaseENS5_17BpHwClientManagerEEENS0_6ReturnINS_2spIT_EEEENSD_IT0_EEPKcb"
  },
  {
   "binding":"weak",
   "name":"_ZN7android8hardware7details13castInterfaceINS0_5media10bufferpool4V1_09IAccessorENS_4hidl4base4V1_05IBaseENS5_12BpHwAccessorEEENS0_6ReturnINS_2spIT_EEEENSD_IT0_EEPKcb"
  },
  {
   "binding":"weak",
   "name":"_ZN7android8hardware7details15wrapPassthroughINS0_5media10bufferpool4V1_011IConnectionEvEENS_2spIT_EES9_"
  },
  {
   "binding":"weak",
   "name":"_ZN7android8hardware7details15wrapPassthroughINS0_5media10bufferpool4V1_09IAccessorEvEENS_2spIT_EES9_"
  },
  {
   "binding":"weak",
   "name":"_ZN7android8hardware7details18getServiceInternalINS0_5media10bufferpool4V1_012BpHwAccessorENS5_9IAccessorEvvEENS_2spIT0_EERKNSt3__112basic_stringIcNSB_11char_traitsIcEENSB_9allocatorIcEEEEbb"
  },
  {
   "binding":"weak",
   "name":"_ZN7android8hardware7details18getServiceInternalINS0_5media10bufferpool4V1_014BpHwConnectionENS5_11IConnectionEvvEENS_2spIT0_EERKNSt3__112basic_stringIcNSB_11char_traitsIcEENSB_9allocatorIcEEEEbb"
  },
  {
   "binding":"weak",
   "name":"_ZN7android8hardware7details18getServiceInternalINS0_5media10bufferpool4V1_017BpHwClientManagerENS5_14IClientManagerEvvEENS_2spIT0_EERKNSt3__112basic_stringIcNSB_11char_traitsIcEENSB_9allocatorIcEEEEbb"
  },
  {
   "binding":"weak",
   "name":"_ZN7android8hardware8toBinderINS0_5media10bufferpool4V1_011IConnectionEvEENS_2spINS0_7IBinderEEENS6_IT_EE"
  },
  {
   "binding":"weak",
   "name":"_ZN7android8hardware8toBinderINS0_5media10bufferpool4V1_09IAccessorEvEENS_2spINS0_7IBinderEEENS6_IT_EE"
  },
  {
   "binding":"weak",
   "name":"_ZN7android8hardware8toBinderINS_4hidl4base4V1_05IBaseEvEENS_2spINS0_7IBinderEEENS6_IT_EE"
  },
  {
   "name":"_ZThn32_N7android8hardware5media10bufferpool4V1_012BnHwAccessorD0Ev"
  },
  {
   "name":"_ZThn32_N7android8hardware5media10bufferpool4V1_012BnHwAccessorD1Ev"
  },
  {
   "name":"_ZThn32_N7android8hardware5media10bufferpool4V1_014BnHwConnectionD0Ev"
  },
  {
   "name":"_ZThn32_N7android8hardware5media10bufferpool4V1_014BnHwConnectionD1Ev"
  },
  {
   "name":"_ZThn32_N7android8hardware5media10bufferpool4V1_017BnHwClientManagerD0Ev"
  },
  {
   "name":"_ZThn32_N7android8hardware5media10bufferpool4V1_017BnHwClientManagerD1Ev"
  },
  {
   "name":"_ZTv0_n24_N7android8hardware5media10bufferpool4V1_012BnHwAccessorD0Ev"
  },
  {
   "name":"_ZTv0_n24_N7android8hardware5media10bufferpool4V1_012BnHwAccessorD1Ev"
  },
  {
   "name":"_ZTv0_n24_N7android8hardware5media10bufferpool4V1_014BnHwConnectionD0Ev"
  },
  {
   "name":"_ZTv0_n24_N7android8hardware5media10bufferpool4V1_014BnHwConnectionD1Ev"
  },
  {
   "name":"_ZTv0_n24_N7android8hardware5media10bufferpool4V1_017BnHwClientManagerD0Ev"
  },
  {
   "name":"_ZTv0_n24_N7android8hardware5media10bufferpool4V1_017BnHwClientManagerD1Ev"
  }
 ],
 "elf_objects":[
  {
   "name":"_ZN7android8hardware5media10bufferpool4V1_011IConnection10descriptorE"
  },
  {
   "name":"_ZN7android8hardware5media10bufferpool4V1_014IClientManager10descriptorE"
  },
  {
   "name":"_ZN7android8hardware5media10bufferpool4V1_09IAccessor10descriptorE"
  },
  {
   "name":"_ZTTN7android8hardware5media10bufferpool4V1_011IConnectionE"
  },
  {
   "name":"_ZTTN7android8hardware5media10bufferpool4V1_012BnHwAccessorE"
  },
  {
   "name":"_ZTTN7android8hardware5media10bufferpool4V1_012BpHwAccessorE"
  },
  {
   "name":"_ZTTN7android8hardware5media10bufferpool4V1_014BnHwConnectionE"
  },
  {
   "name":"_ZTTN7android8hardware5media10bufferpool4V1_014BpHwConnectionE"
  },
  {
   "name":"_ZTTN7android8hardware5media10bufferpool4V1_014IClientManagerE"
  },
  {
   "name":"_ZTTN7android8hardware5media10bufferpool4V1_017BnHwClientManagerE"
  },
  {
   "name":"_ZTTN7android8hardware5media10bufferpool4V1_017BpHwClientManagerE"
  },
  {
   "name":"_ZTTN7android8hardware5media10bufferpool4V1_09IAccessorE"
  },
  {
   "binding":"weak",
   "name":"_ZTVN7android8hardware5media10bufferpool4V1_010BsAccessorE"
  },
  {
   "name":"_ZTVN7android8hardware5media10bufferpool4V1_011IConnectionE"
  },
  {
   "name":"_ZTVN7android8hardware5media10bufferpool4V1_012BnHwAccessorE"
  },
  {
   "name":"_ZTVN7android8hardware5media10bufferpool4V1_012BpHwAccessorE"
  },
  {
   "binding":"weak",
   "name":"_ZTVN7android8hardware5media10bufferpool4V1_012BsConnectionE"
  },
  {
   "name":"_ZTVN7android8hardware5media10bufferpool4V1_014BnHwConnectionE"
  },
  {
   "name":"_ZTVN7android8hardware5media10bufferpool4V1_014BpHwConnectionE"
  },
  {
   "name":"_ZTVN7android8hardware5media10bufferpool4V1_014IClientManagerE"
  },
  {
   "binding":"weak",
   "name":"_ZTVN7android8hardware5media10bufferpool4V1_015BsClientManagerE"
  },
  {
   "name":"_ZTVN7android8hardware5media10bufferpool4V1_017BnHwClientManagerE"
  },
  {
   "name":"_ZTVN7android8hardware5media10bufferpool4V1_017BpHwClientManagerE"
  },
  {
   "name":"_ZTVN7android8hardware5media10bufferpool4V1_09IAccessorE"
  }
 ]
}