{
 "record_types":[
  {
   "vtable_components":[
    {
     "kind":"vbase_offset",
     "component_value":8
    },
    {
     "kind":"offset_to_top"
    },
    {
     "kind":"rtti",
     "mangled_component_name":"_ZTIN7android8hardware10biometrics11fingerprint4V2_136IBiometricsFingerprintClientCallbackE"
    },
    {
     "mangled_component_name":"_ZNK7android8hardware10biometrics11fingerprint4V2_136IBiometricsFingerprintClientCallback8isRemoteEv"
    },
    {
     "mangled_component_name":"_ZN7android8hardware10biometrics11fingerprint4V2_136IBiometricsFingerprintClientCallback14interfaceChainENSt3__18functionIFvRKNS0_8hidl_vecINS0_11hidl_stringEEEEEE"
    },
    {
     "mangled_component_name":"_ZN7android8hardware10biometrics11fingerprint4V2_136IBiometricsFingerprintClientCallback5debugERKNS0_11hidl_handleERKNS0_8hidl_vecINS0_11hidl_stringEEE"
    },
    {
     "mangled_component_name":"_ZN7android8hardware10biometrics11fingerprint4V2_136IBiometricsFingerprintClientCallback19interfaceDescriptorENSt3__18functionIFvRKNS0_11hidl_stringEEEE"
    },
    {
     "mangled_component_name":"_ZN7android8hardware10biometrics11fingerprint4V2_136IBiometricsFingerprintClientCallback12getHashChainENSt3__18functionIFvRKNS0_8hidl_vecINS0_10hidl_arrayIhLm32EJEEEEEEEE"
    },
    {
     "mangled_component_name":"_ZN7android8hardware10biometrics11fingerprint4V2_136IBiometricsFingerprintClientCallback21setHALInstrumentationEv"
    },
    {
     "mangled_component_name":"_ZN7android8hardware10biometrics11fingerprint4V2_136IBiometricsFingerprintClientCallback11linkToDeathERKNS_2spINS0_20hidl_death_recipientEEEm"
    },
    {
     "mangled_component_name":"_ZN7android8hardware10biometrics11fingerprint4V2_136IBiometricsFingerprintClientCallback4pingEv"
    },
    {
     "mangled_component_name":"_ZN7android8hardware10biometrics11fingerprint4V2_136IBiometricsFingerprintClientCallback12getDebugInfoENSt3__18functionIFvRKNS_4hidl4base4V1_09DebugInfoEEEE"
    },
    {
     "mangled_component_name":"_ZN7android8hardware10biometrics11fingerprint4V2_136IBiometricsFingerprintClientCallback21notifySyspropsChangedEv"
    },
    {
     "mangled_component_name":"_ZN7android8hardware10biometrics11fingerprint4V2_136IBiometricsFingerprintClientCallback13unlinkToDeathERKNS_2spINS0_20hidl_death_recipientEEE"
    },
    {
     "kind":"complete_dtor_pointer",
     "mangled_component_name":"_ZN7android8hardware10biometrics11fingerprint4V2_136IBiometricsFingerprintClientCallbackD1Ev"
    },
    {
     "kind":"deleting_dtor_pointer",
     "mangled_component_name":"_ZN7android8hardware10biometrics11fingerprint4V2_136IBiometricsFingerprintClientCallbackD0Ev"
    },
    {
     "is_pure":true,
     "mangled_component_name":"_ZN7android8hardware10biometrics11fingerprint4V2_136IBiometricsFingerprintClientCallback14onEnrollResultEmjjj"
    },
    {
     "is_pure":true,
     "mangled_component_name":"_ZN7android8hardware10biometrics11fingerprint4V2_136IBiometricsFingerprintClientCallback10onAcquiredEmNS3_23FingerprintAcquiredInfoEi"
    },
    {
     "is_pure":true,
     "mangled_component_name":"_ZN7android8hardware10biometrics11fingerprint4V2_136IBiometricsFingerprintClientCallback15onAuthenticatedEmjjRKNS0_8hidl_vecIhEE"
    },
    {
     "is_pure":true,
     "mangled_component_name":"_ZN7android8hardware10biometrics11fingerprint4V2_136IBiometricsFingerprintClientCallback7onErrorEmNS3_16FingerprintErrorEi"
    },
    {
     "is_pure":true,
     "mangled_component_name":"_ZN7android8hardware10biometrics11fingerprint4V2_136IBiometricsFingerprintClientCallback9onRemovedEmjjj"
    },
    {
     "is_pure":true,
     "mangled_component_name":"_ZN7android8hardware10biometrics11fingerprint4V2_136IBiometricsFingerprintClientCallback11onEnumerateEmjjj"
    },
    {
     "kind":"vcall_offset"
    },
    {
     "kind":"vcall_offset"
    },
    {
     "kind":"vcall_offset"
    },
    {
     "kind":"vcall_offset"
    },
    {
     "kind":"vcall_offset",
     "component_value":-8
    },
    {
     "kind":"offset_to_top",
     "component_value":-8
    },
    {
     "kind":"rtti",
     "mangled_component_name":"_ZTIN7android8hardware10biometrics11fingerprint4V2_136IBiometricsFingerprintClientCallbackE"
    },
    {
     "kind":"complete_dtor_pointer",
     "mangled_component_name":"_ZTv0_n24_N7android8hardware10biometrics11fingerprint4V2_136IBiometricsFingerprintClientCallbackD1Ev"
    },
    {
     "kind":"deleting_dtor_pointer",
     "mangled_component_name":"_ZTv0_n24_N7android8hardware10biometrics11fingerprint4V2_136IBiometricsFingerprintClientCallbackD0Ev"
    },
    {
     "mangled_component_name":"_ZN7android7RefBase10onFirstRefEv"
    },
    {
     "mangled_component_name":"_ZN7android7RefBase15onLastStrongRefEPKv"
    },
    {
     "mangled_component_name":"_ZN7android7RefBase20onIncStrongAttemptedEjPKv"
    },
    {
     "mangled_component_name":"_ZN7android7RefBase13onLastWeakRefEPKv"
    }
   ],
   "unique_id":"_ZTSN7android8hardware10biometrics11fingerprint4V2_136IBiometricsFingerprintClientCallbackE"
  },
  {
   "vtable_components":[
    {
     "kind":"vbase_offset",
     "component_value":200
    },
    {
     "kind":"offset_to_top"
    },
    {
     "kind":"rtti",
     "mangled_component_name":"_ZTIN7android8hardware10biometrics11fingerprint4V2_139BpHwBiometricsFingerprintClientCallbackE"
    },
    {
     "mangled_component_name":"_ZNK7android8hardware10biometrics11fingerprint4V2_139BpHwBiometricsFingerprintClientCallback8isRemoteEv"
    },
    {
     "mangled_component_name":"_ZN7android8hardware10biometrics11fingerprint4V2_139BpHwBiometricsFingerprintClientCallback14interfaceChainENSt3__18functionIFvRKNS0_8hidl_vecINS0_11hidl_stringEEEEEE"
    },
    {
     "mangled_component_name":"_ZN7android8hardware10biometrics11fingerprint4V2_139BpHwBiometricsFingerprintClientCallback5debugERKNS0_11hidl_handleERKNS0_8hidl_vecINS0_11hidl_stringEEE"
    },
    {
     "mangled_component_name":"_ZN7android8hardware10biometrics11fingerprint4V2_139BpHwBiometricsFingerprintClientCallback19interfaceDescriptorENSt3__18functionIFvRKNS0_11hidl_stringEEEE"
    },
    {
     "mangled_component_name":"_ZN7android8hardware10biometrics11fingerprint4V2_139BpHwBiometricsFingerprintClientCallback12getHashChainENSt3__18functionIFvRKNS0_8hidl_vecINS0_10hidl_arrayIhLm32EJEEEEEEEE"
    },
    {
     "mangled_component_name":"_ZN7android8hardware10biometrics11fingerprint4V2_139BpHwBiometricsFingerprintClientCallback21setHALInstrumentationEv"
    },
    {
     "mangled_component_name":"_ZN7android8hardware10biometrics11fingerprint4V2_139BpHwBiometricsFingerprintClientCallback11linkToDeathERKNS_2spINS0_20hidl_death_recipientEEEm"
    },
    {
     "mangled_component_name":"_ZN7android8hardware10biometrics11fingerprint4V2_139BpHwBiometricsFingerprintClientCallback4pingEv"
    },
    {
     "mangled_component_name":"_ZN7android8hardware10biometrics11fingerprint4V2_139BpHwBiometricsFingerprintClientCallback12getDebugInfoENSt3__18functionIFvRKNS_4hidl4base4V1_09DebugInfoEEEE"
    },
    {
     "mangled_component_name":"_ZN7android8hardware10biometrics11fingerprint4V2_139BpHwBiometricsFingerprintClientCallback21notifySyspropsChangedEv"
    },
    {
     "mangled_component_name":"_ZN7android8hardware10biometrics11fingerprint4V2_139BpHwBiometricsFingerprintClientCallback13unlinkToDeathERKNS_2spINS0_20hidl_death_recipientEEE"
    },
    {
     "kind":"complete_dtor_pointer",
     "mangled_component_name":"_ZN7android8hardware10biometrics11fingerprint4V2_139BpHwBiometricsFingerprintClientCallbackD1Ev"
    },
    {
     "kind":"deleting_dtor_pointer",
     "mangled_component_name":"_ZN7android8hardware10biometrics11fingerprint4V2_139BpHwBiometricsFingerprintClientCallbackD0Ev"
    },
    {
     "mangled_component_name":"_ZN7android8hardware10biometrics11fingerprint4V2_139BpHwBiometricsFingerprintClientCallback14onEnrollResultEmjjj"
    },
    {
     "mangled_component_name":"_ZN7android8hardware10biometrics11fingerprint4V2_139BpHwBiometricsFingerprintClientCallback10onAcquiredEmNS3_23FingerprintAcquiredInfoEi"
    },
    {
     "mangled_component_name":"_ZN7android8hardware10biometrics11fingerprint4V2_139BpHwBiometricsFingerprintClientCallback15onAuthenticatedEmjjRKNS0_8hidl_vecIhEE"
    },
    {
     "mangled_component_name":"_ZN7android8hardware10biometrics11fingerprint4V2_139BpHwBiometricsFingerprintClientCallback7onErrorEmNS3_16FingerprintErrorEi"
    },
    {
     "mangled_component_name":"_ZN7android8hardware10biometrics11fingerprint4V2_139BpHwBiometricsFingerprintClientCallback9onRemovedEmjjj"
    },
    {
     "mangled_component_name":"_ZN7android8hardware10biometrics11fingerprint4V2_139BpHwBiometricsFingerprintClientCallback11onEnumerateEmjjj"
    },
    {
     "mangled_component_name":"_ZN7android8hardware11BpInterfaceINS0_10biometrics11fingerprint4V2_136IBiometricsFingerprintClientCallbackEE10onAsBinderEv"
    },
    {
     "kind":"vbase_offset",
     "component_value":192
    },
    {
     "kind":"offset_to_top",
     "component_value":-8
    },
    {
     "kind":"rtti",
     "mangled_component_name":"_ZTIN7android8hardware10biometrics11fingerprint4V2_139BpHwBiometricsFingerprintClientCallbackE"
    },
    {
     "kind":"complete_dtor_pointer",
     "mangled_component_name":"_ZThn8_N7android8hardware10biometrics11fingerprint4V2_139BpHwBiometricsFingerprintClientCallbackD1Ev"
    },
    {
     "kind":"deleting_dtor_pointer",
     "mangled_component_name":"_ZThn8_N7android8hardware10biometrics11fingerprint4V2_139BpHwBiometricsFingerprintClientCallbackD0Ev"
    },
    {
     "mangled_component_name":"_ZThn8_N7android8hardware11BpInterfaceINS0_10biometrics11fingerprint4V2_136IBiometricsFingerprintClientCallbackEE10onAsBinderEv"
    },
    {
     "kind":"vbase_offset",
     "component_value":184
    },
    {
     "kind":"offset_to_top",
     "component_value":-16
    },
    {
     "kind":"rtti",
     "mangled_component_name":"_ZTIN7android8hardware10biometrics11fingerprint4V2_139BpHwBiometricsFingerprintClientCallbackE"
    },
    {
     "kind":"complete_dtor_pointer",
     "mangled_component_name":"_ZThn16_N7android8hardware10biometrics11fingerprint4V2_139BpHwBiometricsFingerprintClientCallbackD1Ev"
    },
    {
     "kind":"deleting_dtor_pointer",
     "mangled_component_name":"_ZThn16_N7android8hardware10biometrics11fingerprint4V2_139BpHwBiometricsFingerprintClientCallbackD0Ev"
    },
    {
     "mangled_component_name":"_ZN7android8hardware11BpHwRefBase10onFirstRefEv"
    },
    {
     "mangled_component_name":"_ZN7android8hardware11BpHwRefBase15onLastStrongRefEPKv"
    },
    {
     "mangled_component_name":"_ZN7android8hardware11BpHwRefBase20onIncStrongAttemptedEjPKv"
    },
    {
     "kind":"offset_to_top",
     "component_value":-48
    },
    {
     "kind":"rtti",
     "mangled_component_name":"_ZTIN7android8hardware10biometrics11fingerprint4V2_139BpHwBiometricsFingerprintClientCallbackE"
    },
    {
     "kind":"complete_dtor_pointer",
     "mangled_component_name":"_ZThn48_N7android8hardware10biometrics11fingerprint4V2_139BpHwBiometricsFingerprintClientCallbackD1Ev"
    },
    {
     "kind":"deleting_dtor_pointer",
     "mangled_component_name":"_ZThn48_N7android8hardware10biometrics11fingerprint4V2_139BpHwBiometricsFingerprintClientCallbackD0Ev"
    },
    {
     "kind":"vcall_offset"
    },
    {
     "kind":"vcall_offset",
     "component_value":-184
    },
    {
     "kind":"vcall_offset",
     "component_value":-184
    },
    {
     "kind":"vcall_offset",
     "component_value":-184
    },
    {
     "kind":"vcall_offset",
     "component_value":-200
    },
    {
     "kind":"offset_to_top",
     "component_value":-200
    },
    {
     "kind":"rtti",
     "mangled_component_name":"_ZTIN7android8hardware10biometrics11fingerprint4V2_139BpHwBiometricsFingerprintClientCallbackE"
    },
    {
     "kind":"complete_dtor_pointer",
     "mangled_component_name":"_ZTv0_n24_N7android8hardware10biometrics11fingerprint4V2_139BpHwBiometricsFingerprintClientCallbackD1Ev"
    },
    {
     "kind":"deleting_dtor_pointer",
     "mangled_component_name":"_ZTv0_n24_N7android8hardware10biometrics11fingerprint4V2_139BpHwBiometricsFingerprintClientCallbackD0Ev"
    },
    {
     "mangled_component_name":"_ZTv0_n32_N7android8hardware11BpHwRefBase10onFirstRefEv"
    },
    {
     "mangled_component_name":"_ZTv0_n40_N7android8hardware11BpHwRefBase15onLastStrongRefEPKv"
    },
    {
     "mangled_component_name":"_ZTv0_n48_N7android8hardware11BpHwRefBase20onIncStrongAttemptedEjPKv"
    },
    {
     "mangled_component_name":"_ZN7android7RefBase13onLastWeakRefEPKv"
    }
   ],
   "unique_id":"_ZTSN7android8hardware10biometrics11fingerprint4V2_139BpHwBiometricsFingerprintClientCallbackE"
  },
  {
   "vtable_components":[
    {
     "kind":"vbase_offset",
     "component_value":8
    },
    {
     "kind":"offset_to_top"
    },
    {
     "kind":"rtti",
     "mangled_component_name":"_ZTIN7android8hardware10biometrics11fingerprint4V2_122IBiometricsFingerprintE"
    },
    {
     "mangled_component_name":"_ZNK7android8hardware10biometrics11fingerprint4V2_122IBiometricsFingerprint8isRemoteEv"
    },
    {
     "mangled_component_name":"_ZN7android8hardware10biometrics11fingerprint4V2_122IBiometricsFingerprint14interfaceChainENSt3__18functionIFvRKNS0_8hidl_vecINS0_11hidl_stringEEEEEE"
    },
    {
     "mangled_component_name":"_ZN7android8hardware10biometrics11fingerprint4V2_122IBiometricsFingerprint5debugERKNS0_11hidl_handleERKNS0_8hidl_vecINS0_11hidl_stringEEE"
    },
    {
     "mangled_component_name":"_ZN7android8hardware10biometrics11fingerprint4V2_122IBiometricsFingerprint19interfaceDescriptorENSt3__18functionIFvRKNS0_11hidl_stringEEEE"
    },
    {
     "mangled_component_name":"_ZN7android8hardware10biometrics11fingerprint4V2_122IBiometricsFingerprint12getHashChainENSt3__18functionIFvRKNS0_8hidl_vecINS0_10hidl_arrayIhLm32EJEEEEEEEE"
    },
    {
     "mangled_component_name":"_ZN7android8hardware10biometrics11fingerprint4V2_122IBiometricsFingerprint21setHALInstrumentationEv"
    },
    {
     "mangled_component_name":"_ZN7android8hardware10biometrics11fingerprint4V2_122IBiometricsFingerprint11linkToDeathERKNS_2spINS0_20hidl_death_recipientEEEm"
    },
    {
     "mangled_component_name":"_ZN7android8hardware10biometrics11fingerprint4V2_122IBiometricsFingerprint4pingEv"
    },
    {
     "mangled_component_name":"_ZN7android8hardware10biometrics11fingerprint4V2_122IBiometricsFingerprint12getDebugInfoENSt3__18functionIFvRKNS_4hidl4base4V1_09DebugInfoEEEE"
    },
    {
     "mangled_component_name":"_ZN7android8hardware10biometrics11fingerprint4V2_122IBiometricsFingerprint21notifySyspropsChangedEv"
    },
    {
     "mangled_component_name":"_ZN7android8hardware10biometrics11fingerprint4V2_122IBiometricsFingerprint13unlinkToDeathERKNS_2spINS0_20hidl_death_recipientEEE"
    },
    {
     "kind":"complete_dtor_pointer",
     "mangled_component_name":"_ZN7android8hardware10biometrics11fingerprint4V2_122IBiometricsFingerprintD1Ev"
    },
    {
     "kind":"deleting_dtor_pointer",
     "mangled_component_name":"_ZN7android8hardware10biometrics11fingerprint4V2_122IBiometricsFingerprintD0Ev"
    },
    {
     "is_pure":true,
     "mangled_component_name":"_ZN7android8hardware10biometrics11fingerprint4V2_122IBiometricsFingerprint9setNotifyERKNS_2spINS3_36IBiometricsFingerprintClientCallbackEEE"
    },
    {
     "is_pure":true,
     "mangled_component_name":"_ZN7android8hardware10biometrics11fingerprint4V2_122IBiometricsFingerprint9preEnrollEv"
    },
    {
     "is_pure":true,
     "mangled_component_name":"_ZN7android8hardware10biometrics11fingerprint4V2_122IBiometricsFingerprint6enrollERKNS0_10hidl_arrayIhLm69EJEEEjj"
    },
    {
     "is_pure":true,
     "mangled_component_name":"_ZN7android8hardware10biometrics11fingerprint4V2_122IBiometricsFingerprint10postEnrollEv"
    },
    {
     "is_pure":true,
     "mangled_component_name":"_ZN7android8hardware10biometrics11fingerprint4V2_122IBiometricsFingerprint18getAuthenticatorIdEv"
    },
    {
     "is_pure":true,
     "mangled_component_name":"_ZN7android8hardware10biometrics11fingerprint4V2_122IBiometricsFingerprint6cancelEv"
    },
    {
     "is_pure":true,
     "mangled_component_name":"_ZN7android8hardware10biometrics11fingerprint4V2_122IBiometricsFingerprint9enumerateEv"
    },
    {
     "is_pure":true,
     "mangled_component_name":"_ZN7android8hardware10biometrics11fingerprint4V2_122IBiometricsFingerprint6removeEjj"
    },
    {
     "is_pure":true,
     "mangled_component_name":"_ZN7android8hardware10biometrics11fingerprint4V2_122IBiometricsFingerprint14setActiveGroupEjRKNS0_11hidl_stringE"
    },
    {
     "is_pure":true,
     "mangled_component_name":"_ZN7android8hardware10biometrics11fingerprint4V2_122IBiometricsFingerprint12authenticateEmj"
    },
    {
     "kind":"vcall_offset"
    },
    {
     "kind":"vcall_offset"
    },
    {
     "kind":"vcall_offset"
    },
    {
     "kind":"vcall_offset"
    },
    {
     "kind":"vcall_offset",
     "component_value":-8
    },
    {
     "kind":"offset_to_top",
     "component_value":-8
    },
    {
     "kind":"rtti",
     "mangled_component_name":"_ZTIN7android8hardware10biometrics11fingerprint4V2_122IBiometricsFingerprintE"
    },
    {
     "kind":"complete_dtor_pointer",
     "mangled_component_name":"_ZTv0_n24_N7android8hardware10biometrics11fingerprint4V2_122IBiometricsFingerprintD1Ev"
    },
    {
     "kind":"deleting_dtor_pointer",
     "mangled_component_name":"_ZTv0_n24_N7android8hardware10biometrics11fingerprint4V2_122IBiometricsFingerprintD0Ev"
    },
    {
     "mangled_component_name":"_ZN7android7RefBase10onFirstRefEv"
    },
    {
     "mangled_component_name":"_ZN7android7RefBase15onLastStrongRefEPKv"
    },
    {
     "mangled_component_name":"_ZN7android7RefBase20onIncStrongAttemptedEjPKv"
    },
    {
     "mangled_component_name":"_ZN7android7RefBase13onLastWeakRefEPKv"
    }
   ],
   "unique_id":"_ZTSN7android8hardware10biometrics11fingerprint4V2_122IBiometricsFingerprintE"
  },
  {
   "vtable_components":[
    {
     "kind":"vbase_offset",
     "component_value":136
    },
    {
     "kind":"offset_to_top"
    },
    {
     "kind":"rtti",
     "mangled_component_name":"_ZTIN7android8hardware10biometrics11fingerprint4V2_125BnHwBiometricsFingerprintE"
    },
    {
     "mangled_component_name":"_ZN7android8hardware9BHwBinder8transactEjRKNS0_6ParcelEPS2_jNSt3__18functionIFvRS2_EEE"
    },
    {
     "mangled_component_name":"_ZN7android8hardware9BHwBinder11linkToDeathERKNS_2spINS0_7IBinder14DeathRecipientEEEPvj"
    },
    {
     "mangled_component_name":"_ZN7android8hardware9BHwBinder13unlinkToDeathERKNS_2wpINS0_7IBinder14DeathRecipientEEEPvjPS5_"
    },
    {
     "mangled_component_name":"_ZNK7android8hardware7IBinder13checkSubclassEPKv"
    },
    {
     "mangled_component_name":"_ZN7android8hardware9BHwBinder12attachObjectEPKvPvS4_PFvS3_S4_S4_E"
    },
    {
     "mangled_component_name":"_ZNK7android8hardware9BHwBinder10findObjectEPKv"
    },
    {
     "mangled_component_name":"_ZN7android8hardware9BHwBinder12detachObjectEPKv"
    },
    {
     "mangled_component_name":"_ZN7android8hardware9BHwBinder11localBinderEv"
    },
    {
     "mangled_component_name":"_ZN7android8hardware7IBinder12remoteBinderEv"
    },
    {
     "kind":"complete_dtor_pointer",
     "mangled_component_name":"_ZN7android8hardware10biometrics11fingerprint4V2_125BnHwBiometricsFingerprintD1Ev"
    },
    {
     "kind":"deleting_dtor_pointer",
     "mangled_component_name":"_ZN7android8hardware10biometrics11fingerprint4V2_125BnHwBiometricsFingerprintD0Ev"
    },
    {
     "mangled_component_name":"_ZN7android8hardware10biometrics11fingerprint4V2_125BnHwBiometricsFingerprint10onTransactEjRKNS0_6ParcelEPS5_jNSt3__18functionIFvRS5_EEE"
    },
    {
     "kind":"offset_to_top",
     "component_value":-32
    },
    {
     "kind":"rtti",
     "mangled_component_name":"_ZTIN7android8hardware10biometrics11fingerprint4V2_125BnHwBiometricsFingerprintE"
    },
    {
     "kind":"complete_dtor_pointer",
     "mangled_component_name":"_ZThn32_N7android8hardware10biometrics11fingerprint4V2_125BnHwBiometricsFingerprintD1Ev"
    },
    {
     "kind":"deleting_dtor_pointer",
     "mangled_component_name":"_ZThn32_N7android8hardware10biometrics11fingerprint4V2_125BnHwBiometricsFingerprintD0Ev"
    },
    {
     "kind":"vcall_offset"
    },
    {
     "kind":"vcall_offset"
    },
    {
     "kind":"vcall_offset"
    },
    {
     "kind":"vcall_offset"
    },
    {
     "kind":"vcall_offset",
     "component_value":-136
    },
    {
     "kind":"offset_to_top",
     "component_value":-136
    },
    {
     "kind":"rtti",
     "mangled_component_name":"_ZTIN7android8hardware10biometrics11fingerprint4V2_125BnHwBiometricsFingerprintE"
    },
    {
     "kind":"complete_dtor_pointer",
     "mangled_component_name":"_ZTv0_n24_N7android8hardware10biometrics11fingerprint4V2_125BnHwBiometricsFingerprintD1Ev"
    },
    {
     "kind":"deleting_dtor_pointer",
     "mangled_component_name":"_ZTv0_n24_N7android8hardware10biometrics11fingerprint4V2_125BnHwBiometricsFingerprintD0Ev"
    },
    {
     "mangled_component_name":"_ZN7android7RefBase10onFirstRefEv"
    },
    {
     "mangled_component_name":"_ZN7android7RefBase15onLastStrongRefEPKv"
    },
    {
     "mangled_component_name":"_ZN7android7RefBase20onIncStrongAttemptedEjPKv"
    },
    {
     "mangled_component_name":"_ZN7android7RefBase13onLastWeakRefEPKv"
    }
   ],
   "unique_id":"_ZTSN7android8hardware10biometrics11fingerprint4V2_125BnHwBiometricsFingerprintE"
  },
  {
   "vtable_components":[
    {
     "kind":"vbase_offset",
     "component_value":136
    },
    {
     "kind":"offset_to_top"
    },
    {
     "kind":"rtti",
     "mangled_component_name":"_ZTIN7android8hardware10biometrics11fingerprint4V2_139BnHwBiometricsFingerprintClientCallbackE"
    },
    {
     "mangled_component_name":"_ZN7android8hardware9BHwBinder8transactEjRKNS0_6ParcelEPS2_jNSt3__18functionIFvRS2_EEE"
    },
    {
     "mangled_component_name":"_ZN7android8hardware9BHwBinder11linkToDeathERKNS_2spINS0_7IBinder14DeathRecipientEEEPvj"
    },
    {
     "mangled_component_name":"_ZN7android8hardware9BHwBinder13unlinkToDeathERKNS_2wpINS0_7IBinder14DeathRecipientEEEPvjPS5_"
    },
    {
     "mangled_component_name":"_ZNK7android8hardware7IBinder13checkSubclassEPKv"
    },
    {
     "mangled_component_name":"_ZN7android8hardware9BHwBinder12attachObjectEPKvPvS4_PFvS3_S4_S4_E"
    },
    {
     "mangled_component_name":"_ZNK7android8hardware9BHwBinder10findObjectEPKv"
    },
    {
     "mangled_component_name":"_ZN7android8hardware9BHwBinder12detachObjectEPKv"
    },
    {
     "mangled_component_name":"_ZN7android8hardware9BHwBinder11localBinderEv"
    },
    {
     "mangled_component_name":"_ZN7android8hardware7IBinder12remoteBinderEv"
    },
    {
     "kind":"complete_dtor_pointer",
     "mangled_component_name":"_ZN7android8hardware10biometrics11fingerprint4V2_139BnHwBiometricsFingerprintClientCallbackD1Ev"
    },
    {
     "kind":"deleting_dtor_pointer",
     "mangled_component_name":"_ZN7android8hardware10biometrics11fingerprint4V2_139BnHwBiometricsFingerprintClientCallbackD0Ev"
    },
    {
     "mangled_component_name":"_ZN7android8hardware10biometrics11fingerprint4V2_139BnHwBiometricsFingerprintClientCallback10onTransactEjRKNS0_6ParcelEPS5_jNSt3__18functionIFvRS5_EEE"
    },
    {
     "kind":"offset_to_top",
     "component_value":-32
    },
    {
     "kind":"rtti",
     "mangled_component_name":"_ZTIN7android8hardware10biometrics11fingerprint4V2_139BnHwBiometricsFingerprintClientCallbackE"
    },
    {
     "kind":"complete_dtor_pointer",
     "mangled_component_name":"_ZThn32_N7android8hardware10biometrics11fingerprint4V2_139BnHwBiometricsFingerprintClientCallbackD1Ev"
    },
    {
     "kind":"deleting_dtor_pointer",
     "mangled_component_name":"_ZThn32_N7android8hardware10biometrics11fingerprint4V2_139BnHwBiometricsFingerprintClientCallbackD0Ev"
    },
    {
     "kind":"vcall_offset"
    },
    {
     "kind":"vcall_offset"
    },
    {
     "kind":"vcall_offset"
    },
    {
     "kind":"vcall_offset"
    },
    {
     "kind":"vcall_offset",
     "component_value":-136
    },
    {
     "kind":"offset_to_top",
     "component_value":-136
    },
    {
     "kind":"rtti",
     "mangled_component_name":"_ZTIN7android8hardware10biometrics11fingerprint4V2_139BnHwBiometricsFingerprintClientCallbackE"
    },
    {
     "kind":"complete_dtor_pointer",
     "mangled_component_name":"_ZTv0_n24_N7android8hardware10biometrics11fingerprint4V2_139BnHwBiometricsFingerprintClientCallbackD1Ev"
    },
    {
     "kind":"deleting_dtor_pointer",
     "mangled_component_name":"_ZTv0_n24_N7android8hardware10biometrics11fingerprint4V2_139BnHwBiometricsFingerprintClientCallbackD0Ev"
    },
    {
     "mangled_component_name":"_ZN7android7RefBase10onFirstRefEv"
    },
    {
     "mangled_component_name":"_ZN7android7RefBase15onLastStrongRefEPKv"
    },
    {
     "mangled_component_name":"_ZN7android7RefBase20onIncStrongAttemptedEjPKv"
    },
    {
     "mangled_component_name":"_ZN7android7RefBase13onLastWeakRefEPKv"
    }
   ],
   "unique_id":"_ZTSN7android8hardware10biometrics11fingerprint4V2_139BnHwBiometricsFingerprintClientCallbackE"
  },
  {
   "vtable_components":[
    {
     "kind":"vbase_offset",
     "component_value":120
    },
    {
     "kind":"offset_to_top"
    },
    {
     "kind":"rtti",
     "mangled_component_name":"_ZTIN7android8hardware10biometrics11fingerprint4V2_123BsBiometricsFingerprintE"
    },
    {
     "mangled_component_name":"_ZNK7android8hardware10biometrics11fingerprint4V2_122IBiometricsFingerprint8isRemoteEv"
    },
    {
     "mangled_component_name":"_ZN7android8hardware10biometrics11fingerprint4V2_123BsBiometricsFingerprint14interfaceChainENSt3__18functionIFvRKNS0_8hidl_vecINS0_11hidl_stringEEEEEE"
    },
    {
     "mangled_component_name":"_ZN7android8hardware10biometrics11fingerprint4V2_123BsBiometricsFingerprint5debugERKNS0_11hidl_handleERKNS0_8hidl_vecINS0_11hidl_stringEEE"
    },
    {
     "mangled_component_name":"_ZN7android8hardware10biometrics11fingerprint4V2_123BsBiometricsFingerprint19interfaceDescriptorENSt3__18functionIFvRKNS0_11hidl_stringEEEE"
    },
    {
     "mangled_component_name":"_ZN7android8hardware10biometrics11fingerprint4V2_123BsBiometricsFingerprint12getHashChainENSt3__18functionIFvRKNS0_8hidl_vecINS0_10hidl_arrayIhLm32EJEEEEEEEE"
    },
    {
     "mangled_component_name":"_ZN7android8hardware10biometrics11fingerprint4V2_123BsBiometricsFingerprint21setHALInstrumentationEv"
    },
    {
     "mangled_component_name":"_ZN7android8hardware10biometrics11fingerprint4V2_123BsBiometricsFingerprint11linkToDeathERKNS_2spINS0_20hidl_death_recipientEEEm"
    },
    {
     "mangled_component_name":"_ZN7android8hardware10biometrics11fingerprint4V2_123BsBiometricsFingerprint4pingEv"
    },
    {
     "mangled_component_name":"_ZN7android8hardware10biometrics11fingerprint4V2_123BsBiometricsFingerprint12getDebugInfoENSt3__18functionIFvRKNS_4hidl4base4V1_09DebugInfoEEEE"
    },
    {
     "mangled_component_name":"_ZN7android8hardware10biometrics11fingerprint4V2_123BsBiometricsFingerprint21notifySyspropsChangedEv"
    },
    {
     "mangled_component_name":"_ZN7android8hardware10biometrics11fingerprint4V2_123BsBiometricsFingerprint13unlinkToDeathERKNS_2spINS0_20hidl_death_recipientEEE"
    },
    {
     "kind":"complete_dtor_pointer",
     "mangled_component_name":"_ZN7android8hardware10biometrics11fingerprint4V2_123BsBiometricsFingerprintD1Ev"
    },
    {
     "kind":"deleting_dtor_pointer",
     "mangled_component_name":"_ZN7android8hardware10biometrics11fingerprint4V2_123BsBiometricsFingerprintD0Ev"
    },
    {
     "mangled_component_name":"_ZN7android8hardware10biometrics11fingerprint4V2_123BsBiometricsFingerprint9setNotifyERKNS_2spINS3_36IBiometricsFingerprintClientCallbackEEE"
    },
    {
     "mangled_component_name":"_ZN7android8hardware10biometrics11fingerprint4V2_123BsBiometricsFingerprint9preEnrollEv"
    },
    {
     "mangled_component_name":"_ZN7android8hardware10biometrics11fingerprint4V2_123BsBiometricsFingerprint6enrollERKNS0_10hidl_arrayIhLm69EJEEEjj"
    },
    {
     "mangled_component_name":"_ZN7android8hardware10biometrics11fingerprint4V2_123BsBiometricsFingerprint10postEnrollEv"
    },
    {
     "mangled_component_name":"_ZN7android8hardware10biometrics11fingerprint4V2_123BsBiometricsFingerprint18getAuthenticatorIdEv"
    },
    {
     "mangled_component_name":"_ZN7android8hardware10biometrics11fingerprint4V2_123BsBiometricsFingerprint6cancelEv"
    },
    {
     "mangled_component_name":"_ZN7android8hardware10biometrics11fingerprint4V2_123BsBiometricsFingerprint9enumerateEv"
    },
    {
     "mangled_component_name":"_ZN7android8hardware10biometrics11fingerprint4V2_123BsBiometricsFingerprint6removeEjj"
    },
    {
     "mangled_component_name":"_ZN7android8hardware10biometrics11fingerprint4V2_123BsBiometricsFingerprint14setActiveGroupEjRKNS0_11hidl_stringE"
    },
    {
     "mangled_component_name":"_ZN7android8hardware10biometrics11fingerprint4V2_123BsBiometricsFingerprint12authenticateEmj"
    },
    {
     "kind":"offset_to_top",
     "component_value":-8
    },
    {
     "kind":"rtti",
     "mangled_component_name":"_ZTIN7android8hardware10biometrics11fingerprint4V2_123BsBiometricsFingerprintE"
    },
    {
     "kind":"complete_dtor_pointer",
     "mangled_component_name":"_ZThn8_N7android8hardware10biometrics11fingerprint4V2_123BsBiometricsFingerprintD1Ev"
    },
    {
     "kind":"deleting_dtor_pointer",
     "mangled_component_name":"_ZThn8_N7android8hardware10biometrics11fingerprint4V2_123BsBiometricsFingerprintD0Ev"
    },
    {
     "kind":"vcall_offset"
    },
    {
     "kind":"vcall_offset"
    },
    {
     "kind":"vcall_offset"
    },
    {
     "kind":"vcall_offset"
    },
    {
     "kind":"vcall_offset",
     "component_value":-120
    },
    {
     "kind":"offset_to_top",
     "component_value":-120
    },
    {
     "kind":"rtti",
     "mangled_component_name":"_ZTIN7android8hardware10biometrics11fingerprint4V2_123BsBiometricsFingerprintE"
    },
    {
     "kind":"complete_dtor_pointer",
     "mangled_component_name":"_ZTv0_n24_N7android8hardware10biometrics11fingerprint4V2_123BsBiometricsFingerprintD1Ev"
    },
    {
     "kind":"deleting_dtor_pointer",
     "mangled_component_name":"_ZTv0_n24_N7android8hardware10biometrics11fingerprint4V2_123BsBiometricsFingerprintD0Ev"
    },
    {
     "mangled_component_name":"_ZN7android7RefBase10onFirstRefEv"
    },
    {
     "mangled_component_name":"_ZN7android7RefBase15onLastStrongRefEPKv"
    },
    {
     "mangled_component_name":"_ZN7android7RefBase20onIncStrongAttemptedEjPKv"
    },
    {
     "mangled_component_name":"_ZN7android7RefBase13onLastWeakRefEPKv"
    }
   ],
   "unique_id":"_ZTSN7android8hardware10biometrics11fingerprint4V2_123BsBiometricsFingerprintE"
  },
  {
   "vtable_components":[
    {
     "kind":"vbase_offset",
     "component_value":200
    },
    {
     "kind":"offset_to_top"
    },
    {
     "kind":"rtti",
     "mangled_component_name":"_ZTIN7android8hardware10biometrics11fingerprint4V2_125BpHwBiometricsFingerprintE"
    },
    {
     "mangled_component_name":"_ZNK7android8hardware10biometrics11fingerprint4V2_125BpHwBiometricsFingerprint8isRemoteEv"
    },
    {
     "mangled_component_name":"_ZN7android8hardware10biometrics11fingerprint4V2_125BpHwBiometricsFingerprint14interfaceChainENSt3__18functionIFvRKNS0_8hidl_vecINS0_11hidl_stringEEEEEE"
    },
    {
     "mangled_component_name":"_ZN7android8hardware10biometrics11fingerprint4V2_125BpHwBiometricsFingerprint5debugERKNS0_11hidl_handleERKNS0_8hidl_vecINS0_11hidl_stringEEE"
    },
    {
     "mangled_component_name":"_ZN7android8hardware10biometrics11fingerprint4V2_125BpHwBiometricsFingerprint19interfaceDescriptorENSt3__18functionIFvRKNS0_11hidl_stringEEEE"
    },
    {
     "mangled_component_name":"_ZN7android8hardware10biometrics11fingerprint4V2_125BpHwBiometricsFingerprint12getHashChainENSt3__18functionIFvRKNS0_8hidl_vecINS0_10hidl_arrayIhLm32EJEEEEEEEE"
    },
    {
     "mangled_component_name":"_ZN7android8hardware10biometrics11fingerprint4V2_125BpHwBiometricsFingerprint21setHALInstrumentationEv"
    },
    {
     "mangled_component_name":"_ZN7android8hardware10biometrics11fingerprint4V2_125BpHwBiometricsFingerprint11linkToDeathERKNS_2spINS0_20hidl_death_recipientEEEm"
    },
    {
     "mangled_component_name":"_ZN7android8hardware10biometrics11fingerprint4V2_125BpHwBiometricsFingerprint4pingEv"
    },
    {
     "mangled_component_name":"_ZN7android8hardware10biometrics11fingerprint4V2_125BpHwBiometricsFingerprint12getDebugInfoENSt3__18functionIFvRKNS_4hidl4base4V1_09DebugInfoEEEE"
    },
    {
     "mangled_component_name":"_ZN7android8hardware10biometrics11fingerprint4V2_125BpHwBiometricsFingerprint21notifySyspropsChangedEv"
    },
    {
     "mangled_component_name":"_ZN7android8hardware10biometrics11fingerprint4V2_125BpHwBiometricsFingerprint13unlinkToDeathERKNS_2spINS0_20hidl_death_recipientEEE"
    },
    {
     "kind":"complete_dtor_pointer",
     "mangled_component_name":"_ZN7android8hardware10biometrics11fingerprint4V2_125BpHwBiometricsFingerprintD1Ev"
    },
    {
     "kind":"deleting_dtor_pointer",
     "mangled_component_name":"_ZN7android8hardware10biometrics11fingerprint4V2_125BpHwBiometricsFingerprintD0Ev"
    },
    {
     "mangled_component_name":"_ZN7android8hardware10biometrics11fingerprint4V2_125BpHwBiometricsFingerprint9setNotifyERKNS_2spINS3_36IBiometricsFingerprintClientCallbackEEE"
    },
    {
     "mangled_component_name":"_ZN7android8hardware10biometrics11fingerprint4V2_125BpHwBiometricsFingerprint9preEnrollEv"
    },
    {
     "mangled_component_name":"_ZN7android8hardware10biometrics11fingerprint4V2_125BpHwBiometricsFingerprint6enrollERKNS0_10hidl_arrayIhLm69EJEEEjj"
    },
    {
     "mangled_component_name":"_ZN7android8hardware10biometrics11fingerprint4V2_125BpHwBiometricsFingerprint10postEnrollEv"
    },
    {
     "mangled_component_name":"_ZN7android8hardware10biometrics11fingerprint4V2_125BpHwBiometricsFingerprint18getAuthenticatorIdEv"
    },
    {
     "mangled_component_name":"_ZN7android8hardware10biometrics11fingerprint4V2_125BpHwBiometricsFingerprint6cancelEv"
    },
    {
     "mangled_component_name":"_ZN7android8hardware10biometrics11fingerprint4V2_125BpHwBiometricsFingerprint9enumerateEv"
    },
    {
     "mangled_component_name":"_ZN7android8hardware10biometrics11fingerprint4V2_125BpHwBiometricsFingerprint6removeEjj"
    },
    {
     "mangled_component_name":"_ZN7android8hardware10biometrics11fingerprint4V2_125BpHwBiometricsFingerprint14setActiveGroupEjRKNS0_11hidl_stringE"
    },
    {
     "mangled_component_name":"_ZN7android8hardware10biometrics11fingerprint4V2_125BpHwBiometricsFingerprint12authenticateEmj"
    },
    {
     "mangled_component_name":"_ZN7android8hardware11BpInterfaceINS0_10biometrics11fingerprint4V2_122IBiometricsFingerprintEE10onAsBinderEv"
    },
    {
     "kind":"vbase_offset",
     "component_value":192
    },
    {
     "kind":"offset_to_top",
     "component_value":-8
    },
    {
     "kind":"rtti",
     "mangled_component_name":"_ZTIN7android8hardware10biometrics11fingerprint4V2_125BpHwBiometricsFingerprintE"
    },
    {
     "kind":"complete_dtor_pointer",
     "mangled_component_name":"_ZThn8_N7android8hardware10biometrics11fingerprint4V2_125BpHwBiometricsFingerprintD1Ev"
    },
    {
     "kind":"deleting_dtor_pointer",
     "mangled_component_name":"_ZThn8_N7android8hardware10biometrics11fingerprint4V2_125BpHwBiometricsFingerprintD0Ev"
    },
    {
     "mangled_component_name":"_ZThn8_N7android8hardware11BpInterfaceINS0_10biometrics11fingerprint4V2_122IBiometricsFingerprintEE10onAsBinderEv"
    },
    {
     "kind":"vbase_offset",
     "component_value":184
    },
    {
     "kind":"offset_to_top",
     "component_value":-16
    },
    {
     "kind":"rtti",
     "mangled_component_name":"_ZTIN7android8hardware10biometrics11fingerprint4V2_125BpHwBiometricsFingerprintE"
    },
    {
     "kind":"complete_dtor_pointer",
     "mangled_component_name":"_ZThn16_N7android8hardware10biometrics11fingerprint4V2_125BpHwBiometricsFingerprintD1Ev"
    },
    {
     "kind":"deleting_dtor_pointer",
     "mangled_component_name":"_ZThn16_N7android8hardware10biometrics11fingerprint4V2_125BpHwBiometricsFingerprintD0Ev"
    },
    {
     "mangled_component_name":"_ZN7android8hardware11BpHwRefBase10onFirstRefEv"
    },
    {
     "mangled_component_name":"_ZN7android8hardware11BpHwRefBase15onLastStrongRefEPKv"
    },
    {
     "mangled_component_name":"_ZN7android8hardware11BpHwRefBase20onIncStrongAttemptedEjPKv"
    },
    {
     "kind":"offset_to_top",
     "component_value":-48
    },
    {
     "kind":"rtti",
     "mangled_component_name":"_ZTIN7android8hardware10biometrics11fingerprint4V2_125BpHwBiometricsFingerprintE"
    },
    {
     "kind":"complete_dtor_pointer",
     "mangled_component_name":"_ZThn48_N7android8hardware10biometrics11fingerprint4V2_125BpHwBiometricsFingerprintD1Ev"
    },
    {
     "kind":"deleting_dtor_pointer",
     "mangled_component_name":"_ZThn48_N7android8hardware10biometrics11fingerprint4V2_125BpHwBiometricsFingerprintD0Ev"
    },
    {
     "kind":"vcall_offset"
    },
    {
     "kind":"vcall_offset",
     "component_value":-184
    },
    {
     "kind":"vcall_offset",
     "component_value":-184
    },
    {
     "kind":"vcall_offset",
     "component_value":-184
    },
    {
     "kind":"vcall_offset",
     "component_value":-200
    },
    {
     "kind":"offset_to_top",
     "component_value":-200
    },
    {
     "kind":"rtti",
     "mangled_component_name":"_ZTIN7android8hardware10biometrics11fingerprint4V2_125BpHwBiometricsFingerprintE"
    },
    {
     "kind":"complete_dtor_pointer",
     "mangled_component_name":"_ZTv0_n24_N7android8hardware10biometrics11fingerprint4V2_125BpHwBiometricsFingerprintD1Ev"
    },
    {
     "kind":"deleting_dtor_pointer",
     "mangled_component_name":"_ZTv0_n24_N7android8hardware10biometrics11fingerprint4V2_125BpHwBiometricsFingerprintD0Ev"
    },
    {
     "mangled_component_name":"_ZTv0_n32_N7android8hardware11BpHwRefBase10onFirstRefEv"
    },
    {
     "mangled_component_name":"_ZTv0_n40_N7android8hardware11BpHwRefBase15onLastStrongRefEPKv"
    },
    {
     "mangled_component_name":"_ZTv0_n48_N7android8hardware11BpHwRefBase20onIncStrongAttemptedEjPKv"
    },
    {
     "mangled_component_name":"_ZN7android7RefBase13onLastWeakRefEPKv"
    }
   ],
   "unique_id":"_ZTSN7android8hardware10biometrics11fingerprint4V2_125BpHwBiometricsFingerprintE"
  },
  {
   "vtable_components":[
    {
     "kind":"vbase_offset",
     "component_value":120
    },
    {
     "kind":"offset_to_top"
    },
    {
     "kind":"rtti",
     "mangled_component_name":"_ZTIN7android8hardware10biometrics11fingerprint4V2_137BsBiometricsFingerprintClientCallbackE"
    },
    {
     "mangled_component_name":"_ZNK7android8hardware10biometrics11fingerprint4V2_136IBiometricsFingerprintClientCallback8isRemoteEv"
    },
    {
     "mangled_component_name":"_ZN7android8hardware10biometrics11fingerprint4V2_137BsBiometricsFingerprintClientCallback14interfaceChainENSt3__18functionIFvRKNS0_8hidl_vecINS0_11hidl_stringEEEEEE"
    },
    {
     "mangled_component_name":"_ZN7android8hardware10biometrics11fingerprint4V2_137BsBiometricsFingerprintClientCallback5debugERKNS0_11hidl_handleERKNS0_8hidl_vecINS0_11hidl_stringEEE"
    },
    {
     "mangled_component_name":"_ZN7android8hardware10biometrics11fingerprint4V2_137BsBiometricsFingerprintClientCallback19interfaceDescriptorENSt3__18functionIFvRKNS0_11hidl_stringEEEE"
    },
    {
     "mangled_component_name":"_ZN7android8hardware10biometrics11fingerprint4V2_137BsBiometricsFingerprintClientCallback12getHashChainENSt3__18functionIFvRKNS0_8hidl_vecINS0_10hidl_arrayIhLm32EJEEEEEEEE"
    },
    {
     "mangled_component_name":"_ZN7android8hardware10biometrics11fingerprint4V2_137BsBiometricsFingerprintClientCallback21setHALInstrumentationEv"
    },
    {
     "mangled_component_name":"_ZN7android8hardware10biometrics11fingerprint4V2_137BsBiometricsFingerprintClientCallback11linkToDeathERKNS_2spINS0_20hidl_death_recipientEEEm"
    },
    {
     "mangled_component_name":"_ZN7android8hardware10biometrics11fingerprint4V2_137BsBiometricsFingerprintClientCallback4pingEv"
    },
    {
     "mangled_component_name":"_ZN7android8hardware10biometrics11fingerprint4V2_137BsBiometricsFingerprintClientCallback12getDebugInfoENSt3__18functionIFvRKNS_4hidl4base4V1_09DebugInfoEEEE"
    },
    {
     "mangled_component_name":"_ZN7android8hardware10biometrics11fingerprint4V2_137BsBiometricsFingerprintClientCallback21notifySyspropsChangedEv"
    },
    {
     "mangled_component_name":"_ZN7android8hardware10biometrics11fingerprint4V2_137BsBiometricsFingerprintClientCallback13unlinkToDeathERKNS_2spINS0_20hidl_death_recipientEEE"
    },
    {
     "kind":"complete_dtor_pointer",
     "mangled_component_name":"_ZN7android8hardware10biometrics11fingerprint4V2_137BsBiometricsFingerprintClientCallbackD1Ev"
    },
    {
     "kind":"deleting_dtor_pointer",
     "mangled_component_name":"_ZN7android8hardware10biometrics11fingerprint4V2_137BsBiometricsFingerprintClientCallbackD0Ev"
    },
    {
     "mangled_component_name":"_ZN7android8hardware10biometrics11fingerprint4V2_137BsBiometricsFingerprintClientCallback14onEnrollResultEmjjj"
    },
    {
     "mangled_component_name":"_ZN7android8hardware10biometrics11fingerprint4V2_137BsBiometricsFingerprintClientCallback10onAcquiredEmNS3_23FingerprintAcquiredInfoEi"
    },
    {
     "mangled_component_name":"_ZN7android8hardware10biometrics11fingerprint4V2_137BsBiometricsFingerprintClientCallback15onAuthenticatedEmjjRKNS0_8hidl_vecIhEE"
    },
    {
     "mangled_component_name":"_ZN7android8hardware10biometrics11fingerprint4V2_137BsBiometricsFingerprintClientCallback7onErrorEmNS3_16FingerprintErrorEi"
    },
    {
     "mangled_component_name":"_ZN7android8hardware10biometrics11fingerprint4V2_137BsBiometricsFingerprintClientCallback9onRemovedEmjjj"
    },
    {
     "mangled_component_name":"_ZN7android8hardware10biometrics11fingerprint4V2_137BsBiometricsFingerprintClientCallback11onEnumerateEmjjj"
    },
    {
     "kind":"offset_to_top",
     "component_value":-8
    },
    {
     "kind":"rtti",
     "mangled_component_name":"_ZTIN7android8hardware10biometrics11fingerprint4V2_137BsBiometricsFingerprintClientCallbackE"
    },
    {
     "kind":"complete_dtor_pointer",
     "mangled_component_name":"_ZThn8_N7android8hardware10biometrics11fingerprint4V2_137BsBiometricsFingerprintClientCallbackD1Ev"
    },
    {
     "kind":"deleting_dtor_pointer",
     "mangled_component_name":"_ZThn8_N7android8hardware10biometrics11fingerprint4V2_137BsBiometricsFingerprintClientCallbackD0Ev"
    },
    {
     "kind":"vcall_offset"
    },
    {
     "kind":"vcall_offset"
    },
    {
     "kind":"vcall_offset"
    },
    {
     "kind":"vcall_offset"
    },
    {
     "kind":"vcall_offset",
     "component_value":-120
    },
    {
     "kind":"offset_to_top",
     "component_value":-120
    },
    {
     "kind":"rtti",
     "mangled_component_name":"_ZTIN7android8hardware10biometrics11fingerprint4V2_137BsBiometricsFingerprintClientCallbackE"
    },
    {
     "kind":"complete_dtor_pointer",
     "mangled_component_name":"_ZTv0_n24_N7android8hardware10biometrics11fingerprint4V2_137BsBiometricsFingerprintClientCallbackD1Ev"
    },
    {
     "kind":"deleting_dtor_pointer",
     "mangled_component_name":"_ZTv0_n24_N7android8hardware10biometrics11fingerprint4V2_137BsBiometricsFingerprintClientCallbackD0Ev"
    },
    {
     "mangled_component_name":"_ZN7android7RefBase10onFirstRefEv"
    },
    {
     "mangled_component_name":"_ZN7android7RefBase15onLastStrongRefEPKv"
    },
    {
     "mangled_component_name":"_ZN7android7RefBase20onIncStrongAttemptedEjPKv"
    },
    {
     "mangled_component_name":"_ZN7android7RefBase13onLastWeakRefEPKv"
    }
   ],
   "unique_id":"_ZTSN7android8hardware10biometrics11fingerprint4V2_137BsBiometricsFingerprintClientCallbackE"
  }
 ],
 "elf_functions":[
  {
   "name":"_ZN7android8hardware10biometrics11fingerprint4V2_122IBiometricsFingerprint10getServiceERKNSt3__112basic_stringIcNS5_11char_traitsIcEENS5_9allocatorIcEEEEb"
  },
  {
   "name":"_ZN7android8hardware10biometrics11fingerprint4V2_122IBiometricsFingerprint11linkToDeathERKNS_2spINS0_20hidl_death_recipientEEEm"
  },
  {
   "name":"_ZN7android8hardware10biometrics11fingerprint4V2_122IBiometricsFingerprint12getDebugInfoENSt3__18functionIFvRKNS_4hidl4base4V1_09DebugInfoEEEE"
  },
  {
   "name":"_ZN7android8hardware10biometrics11fingerprint4V2_122IBiometricsFingerprint12getHashChainENSt3__18functionIFvRKNS0_8hidl_vecINS0_10hidl_arrayIhLm32EJEEEEEEEE"
  },
  {
   "name":"_ZN7android8hardware10biometrics11fingerprint4V2_122IBiometricsFingerprint13tryGetServiceERKNSt3__112basic_stringIcNS5_11char_traitsIcEENS5_9allocatorIcEEEEb"
  },
  {
   "name":"_ZN7android8hardware10biometrics11fingerprint4V2_122IBiometricsFingerprint13unlinkToDeathERKNS_2spINS0_20hidl_death_recipientEEE"
  },
  {
   "name":"_ZN7android8hardware10biometrics11fingerprint4V2_122IBiometricsFingerprint14interfaceChainENSt3__18functionIFvRKNS0_8hidl_vecINS0_11hidl_stringEEEEEE"
  },
  {
   "name":"_ZN7android8hardware10biometrics11fingerprint4V2_122IBiometricsFingerprint17registerAsServiceERKNSt3__112basic_stringIcNS5_11char_traitsIcEENS5_9allocatorIcEEEE"
  },
  {
   "name":"_ZN7android8hardware10biometrics11fingerprint4V2_122IBiometricsFingerprint19interfaceDescriptorENSt3__18functionIFvRKNS0_11hidl_stringEEEE"
  },
  {
   "name":"_ZN7android8hardware10biometrics11fingerprint4V2_122IBiometricsFingerprint21notifySyspropsChangedEv"
  },
  {
   "name":"_ZN7android8hardware10biometrics11fingerprint4V2_122IBiometricsFingerprint21setHALInstrumentationEv"
  },
  {
   "name":"_ZN7android8hardware10biometrics11fingerprint4V2_122IBiometricsFingerprint24registerForNotificationsERKNSt3__112basic_stringIcNS5_11char_traitsIcEENS5_9allocatorIcEEEERKNS_2spINS_4hidl7manager4V1_020IServiceNotificationEEE"
  },
  {
   "name":"_ZN7android8hardware10biometrics11fingerprint4V2_122IBiometricsFingerprint4pingEv"
  },
  {
   "name":"_ZN7android8hardware10biometrics11fingerprint4V2_122IBiometricsFingerprint5debugERKNS0_11hidl_handleERKNS0_8hidl_vecINS0_11hidl_stringEEE"
  },
  {
   "name":"_ZN7android8hardware10biometrics11fingerprint4V2_122IBiometricsFingerprint8castFromERKNS_2spINS_4hidl4base4V1_05IBaseEEEb"
  },
  {
   "name":"_ZN7android8hardware10biometrics11fingerprint4V2_122IBiometricsFingerprint8castFromERKNS_2spIS4_EEb"
  },
  {
   "name":"_ZN7android8hardware10biometrics11fingerprint4V2_123BsBiometricsFingerprint13addOnewayTaskENSt3__18functionIFvvEEE"
  },
  {
   "name":"_ZN7android8hardware10biometrics11fingerprint4V2_123BsBiometricsFingerprintC1ENS_2spINS3_22IBiometricsFingerprintEEE"
  },
  {
   "name":"_ZN7android8hardware10biometrics11fingerprint4V2_123BsBiometricsFingerprintC2ENS_2spINS3_22IBiometricsFingerprintEEE"
  },
  {
   "name":"_ZN7android8hardware10biometrics11fingerprint4V2_125BnHwBiometricsFingerprint10onTransactEjRKNS0_6ParcelEPS5_jNSt3__18functionIFvRS5_EEE"
  },
  {
   "name":"_ZN7android8hardware10biometrics11fingerprint4V2_125BnHwBiometricsFingerprint12_hidl_cancelEPNS_4hidl4base4V1_08BnHwBaseERKNS0_6ParcelEPSA_NSt3__18functionIFvRSA_EEE"
  },
  {
   "name":"_ZN7android8hardware10biometrics11fingerprint4V2_125BnHwBiometricsFingerprint12_hidl_enrollEPNS_4hidl4base4V1_08BnHwBaseERKNS0_6ParcelEPSA_NSt3__18functionIFvRSA_EEE"
  },
  {
   "name":"_ZN7android8hardware10biometrics11fingerprint4V2_125BnHwBiometricsFingerprint12_hidl_removeEPNS_4hidl4base4V1_08BnHwBaseERKNS0_6ParcelEPSA_NSt3__18functionIFvRSA_EEE"
  },
  {
   "name":"_ZN7android8hardware10biometrics11fingerprint4V2_125BnHwBiometricsFingerprint12getDebugInfoENSt3__18functionIFvRKNS_4hidl4base4V1_09DebugInfoEEEE"
  },
  {
   "name":"_ZN7android8hardware10biometrics11fingerprint4V2_125BnHwBiometricsFingerprint15_hidl_enumerateEPNS_4hidl4base4V1_08BnHwBaseERKNS0_6ParcelEPSA_NSt3__18functionIFvRSA_EEE"
  },
  {
   "name":"_ZN7android8hardware10biometrics11fingerprint4V2_125BnHwBiometricsFingerprint15_hidl_preEnrollEPNS_4hidl4base4V1_08BnHwBaseERKNS0_6ParcelEPSA_NSt3__18functionIFvRSA_EEE"
  },
  {
   "name":"_ZN7android8hardware10biometrics11fingerprint4V2_125BnHwBiometricsFingerprint15_hidl_setNotifyEPNS_4hidl4base4V1_08BnHwBaseERKNS0_6ParcelEPSA_NSt3__18functionIFvRSA_EEE"
  },
  {
   "name":"_ZN7android8hardware10biometrics11fingerprint4V2_125BnHwBiometricsFingerprint16_hidl_postEnrollEPNS_4hidl4base4V1_08BnHwBaseERKNS0_6ParcelEPSA_NSt3__18functionIFvRSA_EEE"
  },
  {
   "name":"_ZN7android8hardware10biometrics11fingerprint4V2_125BnHwBiometricsFingerprint18_hidl_authenticateEPNS_4hidl4base4V1_08BnHwBaseERKNS0_6ParcelEPSA_NSt3__18functionIFvRSA_EEE"
  },
  {
   "name":"_ZN7android8hardware10biometrics11fingerprint4V2_125BnHwBiometricsFingerprint20_hidl_setActiveGroupEPNS_4hidl4base4V1_08BnHwBaseERKNS0_6ParcelEPSA_NSt3__18functionIFvRSA_EEE"
  },
  {
   "name":"_ZN7android8hardware10biometrics11fingerprint4V2_125BnHwBiometricsFingerprint24_hidl_getAuthenticatorIdEPNS_4hidl4base4V1_08BnHwBaseERKNS0_6ParcelEPSA_NSt3__18functionIFvRSA_EEE"
  },
  {
   "name":"_ZN7android8hardware10biometrics11fingerprint4V2_125BnHwBiometricsFingerprint4pingEv"
  },
  {
   "name":"_ZN7android8hardware10biometrics11fingerprint4V2_125BnHwBiometricsFingerprintC1ERKNS_2spINS3_22IBiometricsFingerprintEEE"
  },
  {
   "name":"_ZN7android8hardware10biometrics11fingerprint4V2_125BnHwBiometricsFingerprintC2ERKNS_2spINS3_22IBiometricsFingerprintEEE"
  },
  {
   "name":"_ZN7android8hardware10biometrics11fingerprint4V2_125BnHwBiometricsFingerprintD0Ev"
  },
  {
   "name":"_ZN7android8hardware10biometrics11fingerprint4V2_125BnHwBiometricsFingerprintD1Ev"
  },
  {
   "name":"_ZN7android8hardware10biometrics11fingerprint4V2_125BnHwBiometricsFingerprintD2Ev"
  },
  {
   "name":"_ZN7android8hardware10biometrics11fingerprint4V2_125BpHwBiometricsFingerprint10postEnrollEv"
  },
  {
   "name":"_ZN7android8hardware10biometrics11fingerprint4V2_125BpHwBiometricsFingerprint11linkToDeathERKNS_2spINS0_20hidl_death_recipientEEEm"
  },
  {
   "name":"_ZN7android8hardware10biometrics11fingerprint4V2_125BpHwBiometricsFingerprint12_hidl_cancelEPNS0_10IInterfaceEPNS0_7details16HidlInstrumentorE"
  },
  {
   "name":"_ZN7android8hardware10biometrics11fingerprint4V2_125BpHwBiometricsFingerprint12_hidl_enrollEPNS0_10IInterfaceEPNS0_7details16HidlInstrumentorERKNS0_10hidl_arrayIhLm69EJEEEjj"
  },
  {
   "name":"_ZN7android8hardware10biometrics11fingerprint4V2_125BpHwBiometricsFingerprint12_hidl_removeEPNS0_10IInterfaceEPNS0_7details16HidlInstrumentorEjj"
  },
  {
   "name":"_ZN7android8hardware10biometrics11fingerprint4V2_125BpHwBiometricsFingerprint12authenticateEmj"
  },
  {
   "name":"_ZN7android8hardware10biometrics11fingerprint4V2_125BpHwBiometricsFingerprint12getDebugInfoENSt3__18functionIFvRKNS_4hidl4base4V1_09DebugInfoEEEE"
  },
  {
   "name":"_ZN7android8hardware10biometrics11fingerprint4V2_125BpHwBiometricsFingerprint12getHashChainENSt3__18functionIFvRKNS0_8hidl_vecINS0_10hidl_arrayIhLm32EJEEEEEEEE"
  },
  {
   "name":"_ZN7android8hardware10biometrics11fingerprint4V2_125BpHwBiometricsFingerprint13unlinkToDeathERKNS_2spINS0_20hidl_death_recipientEEE"
  },
  {
   "name":"_ZN7android8hardware10biometrics11fingerprint4V2_125BpHwBiometricsFingerprint14interfaceChainENSt3__18functionIFvRKNS0_8hidl_vecINS0_11hidl_stringEEEEEE"
  },
  {
   "name":"_ZN7android8hardware10biometrics11fingerprint4V2_125BpHwBiometricsFingerprint14setActiveGroupEjRKNS0_11hidl_stringE"
  },
  {
   "name":"_ZN7android8hardware10biometrics11fingerprint4V2_125BpHwBiometricsFingerprint15_hidl_enumerateEPNS0_10IInterfaceEPNS0_7details16HidlInstrumentorE"
  },
  {
   "name":"_ZN7android8hardware10biometrics11fingerprint4V2_125BpHwBiometricsFingerprint15_hidl_preEnrollEPNS0_10IInterfaceEPNS0_7details16HidlInstrumentorE"
  },
  {
   "name":"_ZN7android8hardware10biometrics11fingerprint4V2_125BpHwBiometricsFingerprint15_hidl_setNotifyEPNS0_10IInterfaceEPNS0_7details16HidlInstrumentorERKNS_2spINS3_36IBiometricsFingerprintClientCallbackEEE"
  },
  {
   "name":"_ZN7android8hardware10biometrics11fingerprint4V2_125BpHwBiometricsFingerprint16_hidl_postEnrollEPNS0_10IInterfaceEPNS0_7details16HidlInstrumentorE"
  },
  {
   "name":"_ZN7android8hardware10biometrics11fingerprint4V2_125BpHwBiometricsFingerprint18_hidl_authenticateEPNS0_10IInterfaceEPNS0_7details16HidlInstrumentorEmj"
  },
  {
   "name":"_ZN7android8hardware10biometrics11fingerprint4V2_125BpHwBiometricsFingerprint18getAuthenticatorIdEv"
  },
  {
   "name":"_ZN7android8hardware10biometrics11fingerprint4V2_125BpHwBiometricsFingerprint19interfaceDescriptorENSt3__18functionIFvRKNS0_11hidl_stringEEEE"
  },
  {
   "name":"_ZN7android8hardware10biometrics11fingerprint4V2_125BpHwBiometricsFingerprint20_hidl_setActiveGroupEPNS0_10IInterfaceEPNS0_7details16HidlInstrumentorEjRKNS0_11hidl_stringE"
  },
  {
   "name":"_ZN7android8hardware10biometrics11fingerprint4V2_125BpHwBiometricsFingerprint21notifySyspropsChangedEv"
  },
  {
   "name":"_ZN7android8hardware10biometrics11fingerprint4V2_125BpHwBiometricsFingerprint21setHALInstrumentationEv"
  },
  {
   "name":"_ZN7android8hardware10biometrics11fingerprint4V2_125BpHwBiometricsFingerprint24_hidl_getAuthenticatorIdEPNS0_10IInterfaceEPNS0_7details16HidlInstrumentorE"
  },
  {
   "name":"_ZN7android8hardware10biometrics11fingerprint4V2_125BpHwBiometricsFingerprint4pingEv"
  },
  {
   "name":"_ZN7android8hardware10biometrics11fingerprint4V2_125BpHwBiometricsFingerprint5debugERKNS0_11hidl_handleERKNS0_8hidl_vecINS0_11hidl_stringEEE"
  },
  {
   "name":"_ZN7android8hardware10biometrics11fingerprint4V2_125BpHwBiometricsFingerprint6cancelEv"
  },
  {
   "name":"_ZN7android8hardware10biometrics11fingerprint4V2_125BpHwBiometricsFingerprint6enrollERKNS0_10hidl_arrayIhLm69EJEEEjj"
  },
  {
   "name":"_ZN7android8hardware10biometrics11fingerprint4V2_125BpHwBiometricsFingerprint6removeEjj"
  },
  {
   "name":"_ZN7android8hardware10biometrics11fingerprint4V2_125BpHwBiometricsFingerprint9enumerateEv"
  },
  {
   "name":"_ZN7android8hardware10biometrics11fingerprint4V2_125BpHwBiometricsFingerprint9preEnrollEv"
  },
  {
   "name":"_ZN7android8hardware10biometrics11fingerprint4V2_125BpHwBiometricsFingerprint9setNotifyERKNS_2spINS3_36IBiometricsFingerprintClientCallbackEEE"
  },
  {
   "name":"_ZN7android8hardware10biometrics11fingerprint4V2_125BpHwBiometricsFingerprintC1ERKNS_2spINS0_7IBinderEEE"
  },
  {
   "name":"_ZN7android8hardware10biometrics11fingerprint4V2_125BpHwBiometricsFingerprintC2ERKNS_2spINS0_7IBinderEEE"
  },
  {
   "name":"_ZN7android8hardware10biometrics11fingerprint4V2_136IBiometricsFingerprintClientCallback10getServiceERKNSt3__112basic_stringIcNS5_11char_traitsIcEENS5_9allocatorIcEEEEb"
  },
  {
   "name":"_ZN7android8hardware10biometrics11fingerprint4V2_136IBiometricsFingerprintClientCallback11linkToDeathERKNS_2spINS0_20hidl_death_recipientEEEm"
  },
  {
   "name":"_ZN7android8hardware10biometrics11fingerprint4V2_136IBiometricsFingerprintClientCallback12getDebugInfoENSt3__18functionIFvRKNS_4hidl4base4V1_09DebugInfoEEEE"
  },
  {
   "name":"_ZN7android8hardware10biometrics11fingerprint4V2_136IBiometricsFingerprintClientCallback12getHashChainENSt3__18functionIFvRKNS0_8hidl_vecINS0_10hidl_arrayIhLm32EJEEEEEEEE"
  },
  {
   "name":"_ZN7android8hardware10biometrics11fingerprint4V2_136IBiometricsFingerprintClientCallback13tryGetServiceERKNSt3__112basic_stringIcNS5_11char_traitsIcEENS5_9allocatorIcEEEEb"
  },
  {
   "name":"_ZN7android8hardware10biometrics11fingerprint4V2_136IBiometricsFingerprintClientCallback13unlinkToDeathERKNS_2spINS0_20hidl_death_recipientEEE"
  },
  {
   "name":"_ZN7android8hardware10biometrics11fingerprint4V2_136IBiometricsFingerprintClientCallback14interfaceChainENSt3__18functionIFvRKNS0_8hidl_vecINS0_11hidl_stringEEEEEE"
  },
  {
   "name":"_ZN7android8hardware10biometrics11fingerprint4V2_136IBiometricsFingerprintClientCallback17registerAsServiceERKNSt3__112basic_stringIcNS5_11char_traitsIcEENS5_9allocatorIcEEEE"
  },
  {
   "name":"_ZN7android8hardware10biometrics11fingerprint4V2_136IBiometricsFingerprintClientCallback19interfaceDescriptorENSt3__18functionIFvRKNS0_11hidl_stringEEEE"
  },
  {
   "name":"_ZN7android8hardware10biometrics11fingerprint4V2_136IBiometricsFingerprintClientCallback21notifySyspropsChangedEv"
  },
  {
   "name":"_ZN7android8hardware10biometrics11fingerprint4V2_136IBiometricsFingerprintClientCallback21setHALInstrumentationEv"
  },
  {
   "name":"_ZN7android8hardware10biometrics11fingerprint4V2_136IBiometricsFingerprintClientCallback24registerForNotificationsERKNSt3__112basic_stringIcNS5_11char_traitsIcEENS5_9allocatorIcEEEERKNS_2spINS_4hidl7manager4V1_020IServiceNotificationEEE"
  },
  {
   "name":"_ZN7android8hardware10biometrics11fingerprint4V2_136IBiometricsFingerprintClientCallback4pingEv"
  },
  {
   "name":"_ZN7android8hardware10biometrics11fingerprint4V2_136IBiometricsFingerprintClientCallback5debugERKNS0_11hidl_handleERKNS0_8hidl_vecINS0_11hidl_stringEEE"
  },
  {
   "name":"_ZN7android8hardware10biometrics11fingerprint4V2_136IBiometricsFingerprintClientCallback8castFromERKNS_2spINS_4hidl4base4V1_05IBaseEEEb"
  },
  {
   "name":"_ZN7android8hardware10biometrics11fingerprint4V2_136IBiometricsFingerprintClientCallback8castFromERKNS_2spIS4_EEb"
  },
  {
   "name":"_ZN7android8hardware10biometrics11fingerprint4V2_137BsBiometricsFingerprintClientCallback13addOnewayTaskENSt3__18functionIFvvEEE"
  },
  {
   "name":"_ZN7android8hardware10biometrics11fingerprint4V2_137BsBiometricsFingerprintClientCallbackC1ENS_2spINS3_36IBiometricsFingerprintClientCallbackEEE"
  },
  {
   "name":"_ZN7android8hardware10biometrics11fingerprint4V2_137BsBiometricsFingerprintClientCallbackC2ENS_2spINS3_36IBiometricsFingerprintClientCallbackEEE"
  },
  {
   "name":"_ZN7android8hardware10biometrics11fingerprint4V2_139BnHwBiometricsFingerprintClientCallback10onTransactEjRKNS0_6ParcelEPS5_jNSt3__18functionIFvRS5_EEE"
  },
  {
   "name":"_ZN7android8hardware10biometrics11fingerprint4V2_139BnHwBiometricsFingerprintClientCallback12getDebugInfoENSt3__18functionIFvRKNS_4hidl4base4V1_09DebugInfoEEEE"
  },
  {
   "name":"_ZN7android8hardware10biometrics11fingerprint4V2_139BnHwBiometricsFingerprintClientCallback13_hidl_onErrorEPNS_4hidl4base4V1_08BnHwBaseERKNS0_6ParcelEPSA_NSt3__18functionIFvRSA_EEE"
  },
  {
   "name":"_ZN7android8hardware10biometrics11fingerprint4V2_139BnHwBiometricsFingerprintClientCallback15_hidl_onRemovedEPNS_4hidl4base4V1_08BnHwBaseERKNS0_6ParcelEPSA_NSt3__18functionIFvRSA_EEE"
  },
  {
   "name":"_ZN7android8hardware10biometrics11fingerprint4V2_139BnHwBiometricsFingerprintClientCallback16_hidl_onAcquiredEPNS_4hidl4base4V1_08BnHwBaseERKNS0_6ParcelEPSA_NSt3__18functionIFvRSA_EEE"
  },
  {
   "name":"_ZN7android8hardware10biometrics11fingerprint4V2_139BnHwBiometricsFingerprintClientCallback17_hidl_onEnumerateEPNS_4hidl4base4V1_08BnHwBaseERKNS0_6ParcelEPSA_NSt3__18functionIFvRSA_EEE"
  },
  {
   "name":"_ZN7android8hardware10biometrics11fingerprint4V2_139BnHwBiometricsFingerprintClientCallback20_hidl_onEnrollResultEPNS_4hidl4base4V1_08BnHwBaseERKNS0_6ParcelEPSA_NSt3__18functionIFvRSA_EEE"
  },
  {
   "name":"_ZN7android8hardware10biometrics11fingerprint4V2_139BnHwBiometricsFingerprintClientCallback21_hidl_onAuthenticatedEPNS_4hidl4base4V1_08BnHwBaseERKNS0_6ParcelEPSA_NSt3__18functionIFvRSA_EEE"
  },
  {
   "name":"_ZN7android8hardware10biometrics11fingerprint4V2_139BnHwBiometricsFingerprintClientCallback4pingEv"
  },
  {
   "name":"_ZN7android8hardware10biometrics11fingerprint4V2_139BnHwBiometricsFingerprintClientCallbackC1ERKNS_2spINS3_36IBiometricsFingerprintClientCallbackEEE"
  },
  {
   "name":"_ZN7android8hardware10biometrics11fingerprint4V2_139BnHwBiometricsFingerprintClientCallbackC2ERKNS_2spINS3_36IBiometricsFingerprintClientCallbackEEE"
  },
  {
   "name":"_ZN7android8hardware10biometrics11fingerprint4V2_139BnHwBiometricsFingerprintClientCallbackD0Ev"
  },
  {
   "name":"_ZN7android8hardware10biometrics11fingerprint4V2_139BnHwBiometricsFingerprintClientCallbackD1Ev"
  },
  {
   "name":"_ZN7android8hardware10biometrics11fingerprint4V2_139BnHwBiometricsFingerprintClientCallbackD2Ev"
  },
  {
   "name":"_ZN7android8hardware10biometrics11fingerprint4V2_139BpHwBiometricsFingerprintClientCallback10onAcquiredEmNS3_23FingerprintAcquiredInfoEi"
  },
  {
   "name":"_ZN7android8hardware10biometrics11fingerprint4V2_139BpHwBiometricsFingerprintClientCallback11linkToDeathERKNS_2spINS0_20hidl_death_recipientEEEm"
  },
  {
   "name":"_ZN7android8hardware10biometrics11fingerprint4V2_139BpHwBiometricsFingerprintClientCallback11onEnumerateEmjjj"
  },
  {
   "name":"_ZN7android8hardware10biometrics11fingerprint4V2_139BpHwBiometricsFingerprintClientCallback12getDebugInfoENSt3__18functionIFvRKNS_4hidl4base4V1_09DebugInfoEEEE"
  },
  {
   "name":"_ZN7android8hardware10biometrics11fingerprint4V2_139BpHwBiometricsFingerprintClientCallback12getHashChainENSt3__18functionIFvRKNS0_8hidl_vecINS0_10hidl_arrayIhLm32EJEEEEEEEE"
  },
  {
   "name":"_ZN7android8hardware10biometrics11fingerprint4V2_139BpHwBiometricsFingerprintClientCallback13_hidl_onErrorEPNS0_10IInterfaceEPNS0_7details16HidlInstrumentorEmNS3_16FingerprintErrorEi"
  },
  {
   "name":"_ZN7android8hardware10biometrics11fingerprint4V2_139BpHwBiometricsFingerprintClientCallback13unlinkToDeathERKNS_2spINS0_20hidl_death_recipientEEE"
  },
  {
   "name":"_ZN7android8hardware10biometrics11fingerprint4V2_139BpHwBiometricsFingerprintClientCallback14interfaceChainENSt3__18functionIFvRKNS0_8hidl_vecINS0_11hidl_stringEEEEEE"
  },
  {
   "name":"_ZN7android8hardware10biometrics11fingerprint4V2_139BpHwBiometricsFingerprintClientCallback14onEnrollResultEmjjj"
  },
  {
   "name":"_ZN7android8hardware10biometrics11fingerprint4V2_139BpHwBiometricsFingerprintClientCallback15_hidl_onRemovedEPNS0_10IInterfaceEPNS0_7details16HidlInstrumentorEmjjj"
  },
  {
   "name":"_ZN7android8hardware10biometrics11fingerprint4V2_139BpHwBiometricsFingerprintClientCallback15onAuthenticatedEmjjRKNS0_8hidl_vecIhEE"
  },
  {
   "name":"_ZN7android8hardware10biometrics11fingerprint4V2_139BpHwBiometricsFingerprintClientCallback16_hidl_onAcquiredEPNS0_10IInterfaceEPNS0_7details16HidlInstrumentorEmNS3_23FingerprintAcquiredInfoEi"
  },
  {
   "name":"_ZN7android8hardware10biometrics11fingerprint4V2_139BpHwBiometricsFingerprintClientCallback17_hidl_onEnumerateEPNS0_10IInterfaceEPNS0_7details16HidlInstrumentorEmjjj"
  },
  {
   "name":"_ZN7android8hardware10biometrics11fingerprint4V2_139BpHwBiometricsFingerprintClientCallback19interfaceDescriptorENSt3__18functionIFvRKNS0_11hidl_stringEEEE"
  },
  {
   "name":"_ZN7android8hardware10biometrics11fingerprint4V2_139BpHwBiometricsFingerprintClientCallback20_hidl_onEnrollResultEPNS0_10IInterfaceEPNS0_7details16HidlInstrumentorEmjjj"
  },
  {
   "name":"_ZN7android8hardware10biometrics11fingerprint4V2_139BpHwBiometricsFingerprintClientCallback21_hidl_onAuthenticatedEPNS0_10IInterfaceEPNS0_7details16HidlInstrumentorEmjjRKNS0_8hidl_vecIhEE"
  },
  {
   "name":"_ZN7android8hardware10biometrics11fingerprint4V2_139BpHwBiometricsFingerprintClientCallback21notifySyspropsChangedEv"
  },
  {
   "name":"_ZN7android8hardware10biometrics11fingerprint4V2_139BpHwBiometricsFingerprintClientCallback21setHALInstrumentationEv"
  },
  {
   "name":"_ZN7android8hardware10biometrics11fingerprint4V2_139BpHwBiometricsFingerprintClientCallback4pingEv"
  },
  {
   "name":"_ZN7android8hardware10biometrics11fingerprint4V2_139BpHwBiometricsFingerprintClientCallback5debugERKNS0_11hidl_handleERKNS0_8hidl_vecINS0_11hidl_stringEEE"
  },
  {
   "name":"_ZN7android8hardware10biometrics11fingerprint4V2_139BpHwBiometricsFingerprintClientCallback7onErrorEmNS3_16FingerprintErrorEi"
  },
  {
   "name":"_ZN7android8hardware10biometrics11fingerprint4V2_139BpHwBiometricsFingerprintClientCallback9onRemovedEmjjj"
  },
  {
   "name":"_ZN7android8hardware10biometrics11fingerprint4V2_139BpHwBiometricsFingerprintClientCallbackC1ERKNS_2spINS0_7IBinderEEE"
  },
  {
   "name":"_ZN7android8hardware10biometrics11fingerprint4V2_139BpHwBiometricsFingerprintClientCallbackC2ERKNS_2spINS0_7IBinderEEE"
  },
  {
   "binding":"weak",
   "name":"_ZN7android8hardware10fromBinderINS0_10biometrics11fingerprint4V2_136IBiometricsFingerprintClientCallbackENS4_39BpHwBiometricsFingerprintClientCallbackENS4_39BnHwBiometricsFingerprintClientCallbackEEENS_2spIT_EERKNS8_INS0_7IBinderEEE"
  },
  {
   "binding":"weak",
   "name":"_ZN7android8hardware7details13castInterfaceINS0_10biometrics11fingerprint4V2_122IBiometricsFingerprintENS_4hidl4base4V1_05IBaseENS5_25BpHwBiometricsFingerprintEEENS0_6ReturnINS_2spIT_EEEENSD_IT0_EEPKcb"
  },
  {
   "binding":"weak",
   "name":"_ZN7android8hardware7details13castInterfaceINS0_10biometrics11fingerprint4V2_136IBiometricsFingerprintClientCallbackENS_4hidl4base4V1_05IBaseENS5_39BpHwBiometricsFingerprintClientCallbackEEENS0_6ReturnINS_2spIT_EEEENSD_IT0_EEPKcb"
  },
  {
   "binding":"weak",
   "name":"_ZN7android8hardware7details15wrapPassthroughINS0_10biometrics11fingerprint4V2_136IBiometricsFingerprintClientCallbackEvEENS_2spIT_EES9_"
  },
  {
   "binding":"weak",
   "name":"_ZN7android8hardware7details18getServiceInternalINS0_10biometrics11fingerprint4V2_125BpHwBiometricsFingerprintENS5_22IBiometricsFingerprintEvvEENS_2spIT0_EERKNSt3__112basic_stringIcNSB_11char_traitsIcEENSB_9allocatorIcEEEEbb"
  },
  {
   "binding":"weak",
   "name":"_ZN7android8hardware7details18getServiceInternalINS0_10biometrics11fingerprint4V2_139BpHwBiometricsFingerprintClientCallbackENS5_36IBiometricsFingerprintClientCallbackEvvEENS_2spIT0_EERKNSt3__112basic_stringIcNSB_11char_traitsIcEENSB_9allocatorIcEEEEbb"
  },
  {
   "binding":"weak",
   "name":"_ZN7android8hardware8toBinderINS0_10biometrics11fingerprint4V2_136IBiometricsFingerprintClientCallbackEvEENS_2spINS0_7IBinderEEENS6_IT_EE"
  },
  {
   "binding":"weak",
   "name":"_ZN7android8hardware8toBinderINS_4hidl4base4V1_05IBaseEvEENS_2spINS0_7IBinderEEENS6_IT_EE"
  },
  {
   "name":"_ZThn32_N7android8hardware10biometrics11fingerprint4V2_125BnHwBiometricsFingerprintD0Ev"
  },
  {
   "name":"_ZThn32_N7android8hardware10biometrics11fingerprint4V2_125BnHwBiometricsFingerprintD1Ev"
  },
  {
   "name":"_ZThn32_N7android8hardware10biometrics11fingerprint4V2_139BnHwBiometricsFingerprintClientCallbackD0Ev"
  },
  {
   "name":"_ZThn32_N7android8hardware10biometrics11fingerprint4V2_139BnHwBiometricsFingerprintClientCallbackD1Ev"
  },
  {
   "name":"_ZTv0_n24_N7android8hardware10biometrics11fingerprint4V2_125BnHwBiometricsFingerprintD0Ev"
  },
  {
   "name":"_ZTv0_n24_N7android8hardware10biometrics11fingerprint4V2_125BnHwBiometricsFingerprintD1Ev"
  },
  {
   "name":"_ZTv0_n24_N7android8hardware10biometrics11fingerprint4V2_139BnHwBiometricsFingerprintClientCallbackD0Ev"
  },
  {
   "name":"_ZTv0_n24_N7android8hardware10biometrics11fingerprint4V2_139BnHwBiometricsFingerprintClientCallbackD1Ev"
  }
 ],
 "elf_objects":[
  {
   "name":"_ZN7android8hardware10biometrics11fingerprint4V2_122IBiometricsFingerprint10descriptorE"
  },
  {
   "name":"_ZN7android8hardware10biometrics11fingerprint4V2_136IBiometricsFingerprintClientCallback10descriptorE"
  },
  {
   "name":"_ZTTN7android8hardware10biometrics11fingerprint4V2_122IBiometricsFingerprintE"
  },
  {
   "name":"_ZTTN7android8hardware10biometrics11fingerprint4V2_125BnHwBiometricsFingerprintE"
  },
  {
   "name":"_ZTTN7android8hardware10biometrics11fingerprint4V2_125BpHwBiometricsFingerprintE"
  },
  {
   "name":"_ZTTN7android8hardware10biometrics11fingerprint4V2_136IBiometricsFingerprintClientCallbackE"
  },
  {
   "name":"_ZTTN7android8hardware10biometrics11fingerprint4V2_139BnHwBiometricsFingerprintClientCallbackE"
  },
  {
   "name":"_ZTTN7android8hardware10biometrics11fingerprint4V2_139BpHwBiometricsFingerprintClientCallbackE"
  },
  {
   "name":"_ZTVN7android8hardware10biometrics11fingerprint4V2_122IBiometricsFingerprintE"
  },
  {
   "binding":"weak",
   "name":"_ZTVN7android8hardware10biometrics11fingerprint4V2_123BsBiometricsFingerprintE"
  },
  {
   "name":"_ZTVN7android8hardware10biometrics11fingerprint4V2_125BnHwBiometricsFingerprintE"
  },
  {
   "name":"_ZTVN7android8hardware10biometrics11fingerprint4V2_125BpHwBiometricsFingerprintE"
  },
  {
   "name":"_ZTVN7android8hardware10biometrics11fingerprint4V2_136IBiometricsFingerprintClientCallbackE"
  },
  {
   "binding":"weak",
   "name":"_ZTVN7android8hardware10biometrics11fingerprint4V2_137BsBiometricsFingerprintClientCallbackE"
  },
  {
   "name":"_ZTVN7android8hardware10biometrics11fingerprint4V2_139BnHwBiometricsFingerprintClientCallbackE"
  },
  {
   "name":"_ZTVN7android8hardware10biometrics11fingerprint4V2_139BpHwBiometricsFingerprintClientCallbackE"
  }
 ]
}