{
 "record_types":[
  {
   "vtable_components":[
    {
     "kind":"vbase_offset",
     "component_value":120
    },
    {
     "kind":"offset_to_top"
    },
    {
     "kind":"rtti",
     "mangled_component_name":"_ZTIN7android8hardware10automotive7vehicle4V2_017BsVehicleCallbackE"
    },
    {
     "mangled_component_name":"_ZNK7android8hardware10automotive7vehicle4V2_016IVehicleCallback8isRemoteEv"
    },
    {
     "mangled_component_name":"_ZN7android8hardware10automotive7vehicle4V2_017BsVehicleCallback14interfaceChainENSt3__18functionIFvRKNS0_8hidl_vecINS0_11hidl_stringEEEEEE"
    },
    {
     "mangled_component_name":"_ZN7android8hardware10automotive7vehicle4V2_017BsVehicleCallback5debugERKNS0_11hidl_handleERKNS0_8hidl_vecINS0_11hidl_stringEEE"
    },
    {
     "mangled_component_name":"_ZN7android8hardware10automotive7vehicle4V2_017BsVehicleCallback19interfaceDescriptorENSt3__18functionIFvRKNS0_11hidl_stringEEEE"
    },
    {
     "mangled_component_name":"_ZN7android8hardware10automotive7vehicle4V2_017BsVehicleCallback12getHashChainENSt3__18functionIFvRKNS0_8hidl_vecINS0_10hidl_arrayIhLm32EJEEEEEEEE"
    },
    {
     "mangled_component_name":"_ZN7android8hardware10automotive7vehicle4V2_017BsVehicleCallback21setHALInstrumentationEv"
    },
    {
     "mangled_component_name":"_ZN7android8hardware10automotive7vehicle4V2_017BsVehicleCallback11linkToDeathERKNS_2spINS0_20hidl_death_recipientEEEm"
    },
    {
     "mangled_component_name":"_ZN7android8hardware10automotive7vehicle4V2_017BsVehicleCallback4pingEv"
    },
    {
     "mangled_component_name":"_ZN7android8hardware10automotive7vehicle4V2_017BsVehicleCallback12getDebugInfoENSt3__18functionIFvRKNS_4hidl4base4V1_09DebugInfoEEEE"
    },
    {
     "mangled_component_name":"_ZN7android8hardware10automotive7vehicle4V2_017BsVehicleCallback21notifySyspropsChangedEv"
    },
    {
     "mangled_component_name":"_ZN7android8hardware10automotive7vehicle4V2_017BsVehicleCallback13unlinkToDeathERKNS_2spINS0_20hidl_death_recipientEEE"
    },
    {
     "kind":"complete_dtor_pointer",
     "mangled_component_name":"_ZN7android8hardware10automotive7vehicle4V2_017BsVehicleCallbackD1Ev"
    },
    {
     "kind":"deleting_dtor_pointer",
     "mangled_component_name":"_ZN7android8hardware10automotive7vehicle4V2_017BsVehicleCallbackD0Ev"
    },
    {
     "mangled_component_name":"_ZN7android8hardware10automotive7vehicle4V2_017BsVehicleCallback15onPropertyEventERKNS0_8hidl_vecINS3_16VehiclePropValueEEE"
    },
    {
     "mangled_component_name":"_ZN7android8hardware10automotive7vehicle4V2_017BsVehicleCallback13onPropertySetERKNS3_16VehiclePropValueE"
    },
    {
     "mangled_component_name":"_ZN7android8hardware10automotive7vehicle4V2_017BsVehicleCallback18onPropertySetErrorENS3_10StatusCodeEii"
    },
    {
     "kind":"offset_to_top",
     "component_value":-8
    },
    {
     "kind":"rtti",
     "mangled_component_name":"_ZTIN7android8hardware10automotive7vehicle4V2_017BsVehicleCallbackE"
    },
    {
     "kind":"complete_dtor_pointer",
     "mangled_component_name":"_ZThn8_N7android8hardware10automotive7vehicle4V2_017BsVehicleCallbackD1Ev"
    },
    {
     "kind":"deleting_dtor_pointer",
     "mangled_component_name":"_ZThn8_N7android8hardware10automotive7vehicle4V2_017BsVehicleCallbackD0Ev"
    },
    {
     "kind":"vcall_offset"
    },
    {
     "kind":"vcall_offset"
    },
    {
     "kind":"vcall_offset"
    },
    {
     "kind":"vcall_offset"
    },
    {
     "kind":"vcall_offset",
     "component_value":-120
    },
    {
     "kind":"offset_to_top",
     "component_value":-120
    },
    {
     "kind":"rtti",
     "mangled_component_name":"_ZTIN7android8hardware10automotive7vehicle4V2_017BsVehicleCallbackE"
    },
    {
     "kind":"complete_dtor_pointer",
     "mangled_component_name":"_ZTv0_n24_N7android8hardware10automotive7vehicle4V2_017BsVehicleCallbackD1Ev"
    },
    {
     "kind":"deleting_dtor_pointer",
     "mangled_component_name":"_ZTv0_n24_N7android8hardware10automotive7vehicle4V2_017BsVehicleCallbackD0Ev"
    },
    {
     "mangled_component_name":"_ZN7android7RefBase10onFirstRefEv"
    },
    {
     "mangled_component_name":"_ZN7android7RefBase15onLastStrongRefEPKv"
    },
    {
     "mangled_component_name":"_ZN7android7RefBase20onIncStrongAttemptedEjPKv"
    },
    {
     "mangled_component_name":"_ZN7android7RefBase13onLastWeakRefEPKv"
    }
   ],
   "unique_id":"_ZTSN7android8hardware10automotive7vehicle4V2_017BsVehicleCallbackE"
  },
  {
   "vtable_components":[
    {
     "kind":"vbase_offset",
     "component_value":136
    },
    {
     "kind":"offset_to_top"
    },
    {
     "kind":"rtti",
     "mangled_component_name":"_ZTIN7android8hardware10automotive7vehicle4V2_011BnHwVehicleE"
    },
    {
     "mangled_component_name":"_ZN7android8hardware9BHwBinder8transactEjRKNS0_6ParcelEPS2_jNSt3__18functionIFvRS2_EEE"
    },
    {
     "mangled_component_name":"_ZN7android8hardware9BHwBinder11linkToDeathERKNS_2spINS0_7IBinder14DeathRecipientEEEPvj"
    },
    {
     "mangled_component_name":"_ZN7android8hardware9BHwBinder13unlinkToDeathERKNS_2wpINS0_7IBinder14DeathRecipientEEEPvjPS5_"
    },
    {
     "mangled_component_name":"_ZNK7android8hardware7IBinder13checkSubclassEPKv"
    },
    {
     "mangled_component_name":"_ZN7android8hardware9BHwBinder12attachObjectEPKvPvS4_PFvS3_S4_S4_E"
    },
    {
     "mangled_component_name":"_ZNK7android8hardware9BHwBinder10findObjectEPKv"
    },
    {
     "mangled_component_name":"_ZN7android8hardware9BHwBinder12detachObjectEPKv"
    },
    {
     "mangled_component_name":"_ZN7android8hardware9BHwBinder11localBinderEv"
    },
    {
     "mangled_component_name":"_ZN7android8hardware7IBinder12remoteBinderEv"
    },
    {
     "kind":"complete_dtor_pointer",
     "mangled_component_name":"_ZN7android8hardware10automotive7vehicle4V2_011BnHwVehicleD1Ev"
    },
    {
     "kind":"deleting_dtor_pointer",
     "mangled_component_name":"_ZN7android8hardware10automotive7vehicle4V2_011BnHwVehicleD0Ev"
    },
    {
     "mangled_component_name":"_ZN7android8hardware10automotive7vehicle4V2_011BnHwVehicle10onTransactEjRKNS0_6ParcelEPS5_jNSt3__18functionIFvRS5_EEE"
    },
    {
     "kind":"offset_to_top",
     "component_value":-32
    },
    {
     "kind":"rtti",
     "mangled_component_name":"_ZTIN7android8hardware10automotive7vehicle4V2_011BnHwVehicleE"
    },
    {
     "kind":"complete_dtor_pointer",
     "mangled_component_name":"_ZThn32_N7android8hardware10automotive7vehicle4V2_011BnHwVehicleD1Ev"
    },
    {
     "kind":"deleting_dtor_pointer",
     "mangled_component_name":"_ZThn32_N7android8hardware10automotive7vehicle4V2_011BnHwVehicleD0Ev"
    },
    {
     "kind":"vcall_offset"
    },
    {
     "kind":"vcall_offset"
    },
    {
     "kind":"vcall_offset"
    },
    {
     "kind":"vcall_offset"
    },
    {
     "kind":"vcall_offset",
     "component_value":-136
    },
    {
     "kind":"offset_to_top",
     "component_value":-136
    },
    {
     "kind":"rtti",
     "mangled_component_name":"_ZTIN7android8hardware10automotive7vehicle4V2_011BnHwVehicleE"
    },
    {
     "kind":"complete_dtor_pointer",
     "mangled_component_name":"_ZTv0_n24_N7android8hardware10automotive7vehicle4V2_011BnHwVehicleD1Ev"
    },
    {
     "kind":"deleting_dtor_pointer",
     "mangled_component_name":"_ZTv0_n24_N7android8hardware10automotive7vehicle4V2_011BnHwVehicleD0Ev"
    },
    {
     "mangled_component_name":"_ZN7android7RefBase10onFirstRefEv"
    },
    {
     "mangled_component_name":"_ZN7android7RefBase15onLastStrongRefEPKv"
    },
    {
     "mangled_component_name":"_ZN7android7RefBase20onIncStrongAttemptedEjPKv"
    },
    {
     "mangled_component_name":"_ZN7android7RefBase13onLastWeakRefEPKv"
    }
   ],
   "unique_id":"_ZTSN7android8hardware10automotive7vehicle4V2_011BnHwVehicleE"
  },
  {
   "vtable_components":[
    {
     "kind":"vbase_offset",
     "component_value":120
    },
    {
     "kind":"offset_to_top"
    },
    {
     "kind":"rtti",
     "mangled_component_name":"_ZTIN7android8hardware10automotive7vehicle4V2_09BsVehicleE"
    },
    {
     "mangled_component_name":"_ZNK7android8hardware10automotive7vehicle4V2_08IVehicle8isRemoteEv"
    },
    {
     "mangled_component_name":"_ZN7android8hardware10automotive7vehicle4V2_09BsVehicle14interfaceChainENSt3__18functionIFvRKNS0_8hidl_vecINS0_11hidl_stringEEEEEE"
    },
    {
     "mangled_component_name":"_ZN7android8hardware10automotive7vehicle4V2_09BsVehicle5debugERKNS0_11hidl_handleERKNS0_8hidl_vecINS0_11hidl_stringEEE"
    },
    {
     "mangled_component_name":"_ZN7android8hardware10automotive7vehicle4V2_09BsVehicle19interfaceDescriptorENSt3__18functionIFvRKNS0_11hidl_stringEEEE"
    },
    {
     "mangled_component_name":"_ZN7android8hardware10automotive7vehicle4V2_09BsVehicle12getHashChainENSt3__18functionIFvRKNS0_8hidl_vecINS0_10hidl_arrayIhLm32EJEEEEEEEE"
    },
    {
     "mangled_component_name":"_ZN7android8hardware10automotive7vehicle4V2_09BsVehicle21setHALInstrumentationEv"
    },
    {
     "mangled_component_name":"_ZN7android8hardware10automotive7vehicle4V2_09BsVehicle11linkToDeathERKNS_2spINS0_20hidl_death_recipientEEEm"
    },
    {
     "mangled_component_name":"_ZN7android8hardware10automotive7vehicle4V2_09BsVehicle4pingEv"
    },
    {
     "mangled_component_name":"_ZN7android8hardware10automotive7vehicle4V2_09BsVehicle12getDebugInfoENSt3__18functionIFvRKNS_4hidl4base4V1_09DebugInfoEEEE"
    },
    {
     "mangled_component_name":"_ZN7android8hardware10automotive7vehicle4V2_09BsVehicle21notifySyspropsChangedEv"
    },
    {
     "mangled_component_name":"_ZN7android8hardware10automotive7vehicle4V2_09BsVehicle13unlinkToDeathERKNS_2spINS0_20hidl_death_recipientEEE"
    },
    {
     "kind":"complete_dtor_pointer",
     "mangled_component_name":"_ZN7android8hardware10automotive7vehicle4V2_09BsVehicleD1Ev"
    },
    {
     "kind":"deleting_dtor_pointer",
     "mangled_component_name":"_ZN7android8hardware10automotive7vehicle4V2_09BsVehicleD0Ev"
    },
    {
     "mangled_component_name":"_ZN7android8hardware10automotive7vehicle4V2_09BsVehicle17getAllPropConfigsENSt3__18functionIFvRKNS0_8hidl_vecINS3_17VehiclePropConfigEEEEEE"
    },
    {
     "mangled_component_name":"_ZN7android8hardware10automotive7vehicle4V2_09BsVehicle14getPropConfigsERKNS0_8hidl_vecIiEENSt3__18functionIFvNS3_10StatusCodeERKNS5_INS3_17VehiclePropConfigEEEEEE"
    },
    {
     "mangled_component_name":"_ZN7android8hardware10automotive7vehicle4V2_09BsVehicle3getERKNS3_16VehiclePropValueENSt3__18functionIFvNS3_10StatusCodeES7_EEE"
    },
    {
     "mangled_component_name":"_ZN7android8hardware10automotive7vehicle4V2_09BsVehicle3setERKNS3_16VehiclePropValueE"
    },
    {
     "mangled_component_name":"_ZN7android8hardware10automotive7vehicle4V2_09BsVehicle9subscribeERKNS_2spINS3_16IVehicleCallbackEEERKNS0_8hidl_vecINS3_16SubscribeOptionsEEE"
    },
    {
     "mangled_component_name":"_ZN7android8hardware10automotive7vehicle4V2_09BsVehicle11unsubscribeERKNS_2spINS3_16IVehicleCallbackEEEi"
    },
    {
     "mangled_component_name":"_ZN7android8hardware10automotive7vehicle4V2_09BsVehicle9debugDumpENSt3__18functionIFvRKNS0_11hidl_stringEEEE"
    },
    {
     "kind":"offset_to_top",
     "component_value":-8
    },
    {
     "kind":"rtti",
     "mangled_component_name":"_ZTIN7android8hardware10automotive7vehicle4V2_09BsVehicleE"
    },
    {
     "kind":"complete_dtor_pointer",
     "mangled_component_name":"_ZThn8_N7android8hardware10automotive7vehicle4V2_09BsVehicleD1Ev"
    },
    {
     "kind":"deleting_dtor_pointer",
     "mangled_component_name":"_ZThn8_N7android8hardware10automotive7vehicle4V2_09BsVehicleD0Ev"
    },
    {
     "kind":"vcall_offset"
    },
    {
     "kind":"vcall_offset"
    },
    {
     "kind":"vcall_offset"
    },
    {
     "kind":"vcall_offset"
    },
    {
     "kind":"vcall_offset",
     "component_value":-120
    },
    {
     "kind":"offset_to_top",
     "component_value":-120
    },
    {
     "kind":"rtti",
     "mangled_component_name":"_ZTIN7android8hardware10automotive7vehicle4V2_09BsVehicleE"
    },
    {
     "kind":"complete_dtor_pointer",
     "mangled_component_name":"_ZTv0_n24_N7android8hardware10automotive7vehicle4V2_09BsVehicleD1Ev"
    },
    {
     "kind":"deleting_dtor_pointer",
     "mangled_component_name":"_ZTv0_n24_N7android8hardware10automotive7vehicle4V2_09BsVehicleD0Ev"
    },
    {
     "mangled_component_name":"_ZN7android7RefBase10onFirstRefEv"
    },
    {
     "mangled_component_name":"_ZN7android7RefBase15onLastStrongRefEPKv"
    },
    {
     "mangled_component_name":"_ZN7android7RefBase20onIncStrongAttemptedEjPKv"
    },
    {
     "mangled_component_name":"_ZN7android7RefBase13onLastWeakRefEPKv"
    }
   ],
   "unique_id":"_ZTSN7android8hardware10automotive7vehicle4V2_09BsVehicleE"
  },
  {
   "vtable_components":[
    {
     "kind":"vbase_offset",
     "component_value":200
    },
    {
     "kind":"offset_to_top"
    },
    {
     "kind":"rtti",
     "mangled_component_name":"_ZTIN7android8hardware10automotive7vehicle4V2_011BpHwVehicleE"
    },
    {
     "mangled_component_name":"_ZNK7android8hardware10automotive7vehicle4V2_011BpHwVehicle8isRemoteEv"
    },
    {
     "mangled_component_name":"_ZN7android8hardware10automotive7vehicle4V2_011BpHwVehicle14interfaceChainENSt3__18functionIFvRKNS0_8hidl_vecINS0_11hidl_stringEEEEEE"
    },
    {
     "mangled_component_name":"_ZN7android8hardware10automotive7vehicle4V2_011BpHwVehicle5debugERKNS0_11hidl_handleERKNS0_8hidl_vecINS0_11hidl_stringEEE"
    },
    {
     "mangled_component_name":"_ZN7android8hardware10automotive7vehicle4V2_011BpHwVehicle19interfaceDescriptorENSt3__18functionIFvRKNS0_11hidl_stringEEEE"
    },
    {
     "mangled_component_name":"_ZN7android8hardware10automotive7vehicle4V2_011BpHwVehicle12getHashChainENSt3__18functionIFvRKNS0_8hidl_vecINS0_10hidl_arrayIhLm32EJEEEEEEEE"
    },
    {
     "mangled_component_name":"_ZN7android8hardware10automotive7vehicle4V2_011BpHwVehicle21setHALInstrumentationEv"
    },
    {
     "mangled_component_name":"_ZN7android8hardware10automotive7vehicle4V2_011BpHwVehicle11linkToDeathERKNS_2spINS0_20hidl_death_recipientEEEm"
    },
    {
     "mangled_component_name":"_ZN7android8hardware10automotive7vehicle4V2_011BpHwVehicle4pingEv"
    },
    {
     "mangled_component_name":"_ZN7android8hardware10automotive7vehicle4V2_011BpHwVehicle12getDebugInfoENSt3__18functionIFvRKNS_4hidl4base4V1_09DebugInfoEEEE"
    },
    {
     "mangled_component_name":"_ZN7android8hardware10automotive7vehicle4V2_011BpHwVehicle21notifySyspropsChangedEv"
    },
    {
     "mangled_component_name":"_ZN7android8hardware10automotive7vehicle4V2_011BpHwVehicle13unlinkToDeathERKNS_2spINS0_20hidl_death_recipientEEE"
    },
    {
     "kind":"complete_dtor_pointer",
     "mangled_component_name":"_ZN7android8hardware10automotive7vehicle4V2_011BpHwVehicleD1Ev"
    },
    {
     "kind":"deleting_dtor_pointer",
     "mangled_component_name":"_ZN7android8hardware10automotive7vehicle4V2_011BpHwVehicleD0Ev"
    },
    {
     "mangled_component_name":"_ZN7android8hardware10automotive7vehicle4V2_011BpHwVehicle17getAllPropConfigsENSt3__18functionIFvRKNS0_8hidl_vecINS3_17VehiclePropConfigEEEEEE"
    },
    {
     "mangled_component_name":"_ZN7android8hardware10automotive7vehicle4V2_011BpHwVehicle14getPropConfigsERKNS0_8hidl_vecIiEENSt3__18functionIFvNS3_10StatusCodeERKNS5_INS3_17VehiclePropConfigEEEEEE"
    },
    {
     "mangled_component_name":"_ZN7android8hardware10automotive7vehicle4V2_011BpHwVehicle3getERKNS3_16VehiclePropValueENSt3__18functionIFvNS3_10StatusCodeES7_EEE"
    },
    {
     "mangled_component_name":"_ZN7android8hardware10automotive7vehicle4V2_011BpHwVehicle3setERKNS3_16VehiclePropValueE"
    },
    {
     "mangled_component_name":"_ZN7android8hardware10automotive7vehicle4V2_011BpHwVehicle9subscribeERKNS_2spINS3_16IVehicleCallbackEEERKNS0_8hidl_vecINS3_16SubscribeOptionsEEE"
    },
    {
     "mangled_component_name":"_ZN7android8hardware10automotive7vehicle4V2_011BpHwVehicle11unsubscribeERKNS_2spINS3_16IVehicleCallbackEEEi"
    },
    {
     "mangled_component_name":"_ZN7android8hardware10automotive7vehicle4V2_011BpHwVehicle9debugDumpENSt3__18functionIFvRKNS0_11hidl_stringEEEE"
    },
    {
     "mangled_component_name":"_ZN7android8hardware11BpInterfaceINS0_10automotive7vehicle4V2_08IVehicleEE10onAsBinderEv"
    },
    {
     "kind":"vbase_offset",
     "component_value":192
    },
    {
     "kind":"offset_to_top",
     "component_value":-8
    },
    {
     "kind":"rtti",
     "mangled_component_name":"_ZTIN7android8hardware10automotive7vehicle4V2_011BpHwVehicleE"
    },
    {
     "kind":"complete_dtor_pointer",
     "mangled_component_name":"_ZThn8_N7android8hardware10automotive7vehicle4V2_011BpHwVehicleD1Ev"
    },
    {
     "kind":"deleting_dtor_pointer",
     "mangled_component_name":"_ZThn8_N7android8hardware10automotive7vehicle4V2_011BpHwVehicleD0Ev"
    },
    {
     "mangled_component_name":"_ZThn8_N7android8hardware11BpInterfaceINS0_10automotive7vehicle4V2_08IVehicleEE10onAsBinderEv"
    },
    {
     "kind":"vbase_offset",
     "component_value":184
    },
    {
     "kind":"offset_to_top",
     "component_value":-16
    },
    {
     "kind":"rtti",
     "mangled_component_name":"_ZTIN7android8hardware10automotive7vehicle4V2_011BpHwVehicleE"
    },
    {
     "kind":"complete_dtor_pointer",
     "mangled_component_name":"_ZThn16_N7android8hardware10automotive7vehicle4V2_011BpHwVehicleD1Ev"
    },
    {
     "kind":"deleting_dtor_pointer",
     "mangled_component_name":"_ZThn16_N7android8hardware10automotive7vehicle4V2_011BpHwVehicleD0Ev"
    },
    {
     "mangled_component_name":"_ZN7android8hardware11BpHwRefBase10onFirstRefEv"
    },
    {
     "mangled_component_name":"_ZN7android8hardware11BpHwRefBase15onLastStrongRefEPKv"
    },
    {
     "mangled_component_name":"_ZN7android8hardware11BpHwRefBase20onIncStrongAttemptedEjPKv"
    },
    {
     "kind":"offset_to_top",
     "component_value":-48
    },
    {
     "kind":"rtti",
     "mangled_component_name":"_ZTIN7android8hardware10automotive7vehicle4V2_011BpHwVehicleE"
    },
    {
     "kind":"complete_dtor_pointer",
     "mangled_component_name":"_ZThn48_N7android8hardware10automotive7vehicle4V2_011BpHwVehicleD1Ev"
    },
    {
     "kind":"deleting_dtor_pointer",
     "mangled_component_name":"_ZThn48_N7android8hardware10automotive7vehicle4V2_011BpHwVehicleD0Ev"
    },
    {
     "kind":"vcall_offset"
    },
    {
     "kind":"vcall_offset",
     "component_value":-184
    },
    {
     "kind":"vcall_offset",
     "component_value":-184
    },
    {
     "kind":"vcall_offset",
     "component_value":-184
    },
    {
     "kind":"vcall_offset",
     "component_value":-200
    },
    {
     "kind":"offset_to_top",
     "component_value":-200
    },
    {
     "kind":"rtti",
     "mangled_component_name":"_ZTIN7android8hardware10automotive7vehicle4V2_011BpHwVehicleE"
    },
    {
     "kind":"complete_dtor_pointer",
     "mangled_component_name":"_ZTv0_n24_N7android8hardware10automotive7vehicle4V2_011BpHwVehicleD1Ev"
    },
    {
     "kind":"deleting_dtor_pointer",
     "mangled_component_name":"_ZTv0_n24_N7android8hardware10automotive7vehicle4V2_011BpHwVehicleD0Ev"
    },
    {
     "mangled_component_name":"_ZTv0_n32_N7android8hardware11BpHwRefBase10onFirstRefEv"
    },
    {
     "mangled_component_name":"_ZTv0_n40_N7android8hardware11BpHwRefBase15onLastStrongRefEPKv"
    },
    {
     "mangled_component_name":"_ZTv0_n48_N7android8hardware11BpHwRefBase20onIncStrongAttemptedEjPKv"
    },
    {
     "mangled_component_name":"_ZN7android7RefBase13onLastWeakRefEPKv"
    }
   ],
   "unique_id":"_ZTSN7android8hardware10automotive7vehicle4V2_011BpHwVehicleE"
  },
  {
   "vtable_components":[
    {
     "kind":"vbase_offset",
     "component_value":8
    },
    {
     "kind":"offset_to_top"
    },
    {
     "kind":"rtti",
     "mangled_component_name":"_ZTIN7android8hardware10automotive7vehicle4V2_08IVehicleE"
    },
    {
     "mangled_component_name":"_ZNK7android8hardware10automotive7vehicle4V2_08IVehicle8isRemoteEv"
    },
    {
     "mangled_component_name":"_ZN7android8hardware10automotive7vehicle4V2_08IVehicle14interfaceChainENSt3__18functionIFvRKNS0_8hidl_vecINS0_11hidl_stringEEEEEE"
    },
    {
     "mangled_component_name":"_ZN7android8hardware10automotive7vehicle4V2_08IVehicle5debugERKNS0_11hidl_handleERKNS0_8hidl_vecINS0_11hidl_stringEEE"
    },
    {
     "mangled_component_name":"_ZN7android8hardware10automotive7vehicle4V2_08IVehicle19interfaceDescriptorENSt3__18functionIFvRKNS0_11hidl_stringEEEE"
    },
    {
     "mangled_component_name":"_ZN7android8hardware10automotive7vehicle4V2_08IVehicle12getHashChainENSt3__18functionIFvRKNS0_8hidl_vecINS0_10hidl_arrayIhLm32EJEEEEEEEE"
    },
    {
     "mangled_component_name":"_ZN7android8hardware10automotive7vehicle4V2_08IVehicle21setHALInstrumentationEv"
    },
    {
     "mangled_component_name":"_ZN7android8hardware10automotive7vehicle4V2_08IVehicle11linkToDeathERKNS_2spINS0_20hidl_death_recipientEEEm"
    },
    {
     "mangled_component_name":"_ZN7android8hardware10automotive7vehicle4V2_08IVehicle4pingEv"
    },
    {
     "mangled_component_name":"_ZN7android8hardware10automotive7vehicle4V2_08IVehicle12getDebugInfoENSt3__18functionIFvRKNS_4hidl4base4V1_09DebugInfoEEEE"
    },
    {
     "mangled_component_name":"_ZN7android8hardware10automotive7vehicle4V2_08IVehicle21notifySyspropsChangedEv"
    },
    {
     "mangled_component_name":"_ZN7android8hardware10automotive7vehicle4V2_08IVehicle13unlinkToDeathERKNS_2spINS0_20hidl_death_recipientEEE"
    },
    {
     "kind":"complete_dtor_pointer",
     "mangled_component_name":"_ZN7android8hardware10automotive7vehicle4V2_08IVehicleD1Ev"
    },
    {
     "kind":"deleting_dtor_pointer",
     "mangled_component_name":"_ZN7android8hardware10automotive7vehicle4V2_08IVehicleD0Ev"
    },
    {
     "is_pure":true,
     "mangled_component_name":"_ZN7android8hardware10automotive7vehicle4V2_08IVehicle17getAllPropConfigsENSt3__18functionIFvRKNS0_8hidl_vecINS3_17VehiclePropConfigEEEEEE"
    },
    {
     "is_pure":true,
     "mangled_component_name":"_ZN7android8hardware10automotive7vehicle4V2_08IVehicle14getPropConfigsERKNS0_8hidl_vecIiEENSt3__18functionIFvNS3_10StatusCodeERKNS5_INS3_17VehiclePropConfigEEEEEE"
    },
    {
     "is_pure":true,
     "mangled_component_name":"_ZN7android8hardware10automotive7vehicle4V2_08IVehicle3getERKNS3_16VehiclePropValueENSt3__18functionIFvNS3_10StatusCodeES7_EEE"
    },
    {
     "is_pure":true,
     "mangled_component_name":"_ZN7android8hardware10automotive7vehicle4V2_08IVehicle3setERKNS3_16VehiclePropValueE"
    },
    {
     "is_pure":true,
     "mangled_component_name":"_ZN7android8hardware10automotive7vehicle4V2_08IVehicle9subscribeERKNS_2spINS3_16IVehicleCallbackEEERKNS0_8hidl_vecINS3_16SubscribeOptionsEEE"
    },
    {
     "is_pure":true,
     "mangled_component_name":"_ZN7android8hardware10automotive7vehicle4V2_08IVehicle11unsubscribeERKNS_2spINS3_16IVehicleCallbackEEEi"
    },
    {
     "is_pure":true,
     "mangled_component_name":"_ZN7android8hardware10automotive7vehicle4V2_08IVehicle9debugDumpENSt3__18functionIFvRKNS0_11hidl_stringEEEE"
    },
    {
     "kind":"vcall_offset"
    },
    {
     "kind":"vcall_offset"
    },
    {
     "kind":"vcall_offset"
    },
    {
     "kind":"vcall_offset"
    },
    {
     "kind":"vcall_offset",
     "component_value":-8
    },
    {
     "kind":"offset_to_top",
     "component_value":-8
    },
    {
     "kind":"rtti",
     "mangled_component_name":"_ZTIN7android8hardware10automotive7vehicle4V2_08IVehicleE"
    },
    {
     "kind":"complete_dtor_pointer",
     "mangled_component_name":"_ZTv0_n24_N7android8hardware10automotive7vehicle4V2_08IVehicleD1Ev"
    },
    {
     "kind":"deleting_dtor_pointer",
     "mangled_component_name":"_ZTv0_n24_N7android8hardware10automotive7vehicle4V2_08IVehicleD0Ev"
    },
    {
     "mangled_component_name":"_ZN7android7RefBase10onFirstRefEv"
    },
    {
     "mangled_component_name":"_ZN7android7RefBase15onLastStrongRefEPKv"
    },
    {
     "mangled_component_name":"_ZN7android7RefBase20onIncStrongAttemptedEjPKv"
    },
    {
     "mangled_component_name":"_ZN7android7RefBase13onLastWeakRefEPKv"
    }
   ],
   "unique_id":"_ZTSN7android8hardware10automotive7vehicle4V2_08IVehicleE"
  },
  {
   "vtable_components":[
    {
     "kind":"vbase_offset",
     "component_value":136
    },
    {
     "kind":"offset_to_top"
    },
    {
     "kind":"rtti",
     "mangled_component_name":"_ZTIN7android8hardware10automotive7vehicle4V2_019BnHwVehicleCallbackE"
    },
    {
     "mangled_component_name":"_ZN7android8hardware9BHwBinder8transactEjRKNS0_6ParcelEPS2_jNSt3__18functionIFvRS2_EEE"
    },
    {
     "mangled_component_name":"_ZN7android8hardware9BHwBinder11linkToDeathERKNS_2spINS0_7IBinder14DeathRecipientEEEPvj"
    },
    {
     "mangled_component_name":"_ZN7android8hardware9BHwBinder13unlinkToDeathERKNS_2wpINS0_7IBinder14DeathRecipientEEEPvjPS5_"
    },
    {
     "mangled_component_name":"_ZNK7android8hardware7IBinder13checkSubclassEPKv"
    },
    {
     "mangled_component_name":"_ZN7android8hardware9BHwBinder12attachObjectEPKvPvS4_PFvS3_S4_S4_E"
    },
    {
     "mangled_component_name":"_ZNK7android8hardware9BHwBinder10findObjectEPKv"
    },
    {
     "mangled_component_name":"_ZN7android8hardware9BHwBinder12detachObjectEPKv"
    },
    {
     "mangled_component_name":"_ZN7android8hardware9BHwBinder11localBinderEv"
    },
    {
     "mangled_component_name":"_ZN7android8hardware7IBinder12remoteBinderEv"
    },
    {
     "kind":"complete_dtor_pointer",
     "mangled_component_name":"_ZN7android8hardware10automotive7vehicle4V2_019BnHwVehicleCallbackD1Ev"
    },
    {
     "kind":"deleting_dtor_pointer",
     "mangled_component_name":"_ZN7android8hardware10automotive7vehicle4V2_019BnHwVehicleCallbackD0Ev"
    },
    {
     "mangled_component_name":"_ZN7android8hardware10automotive7vehicle4V2_019BnHwVehicleCallback10onTransactEjRKNS0_6ParcelEPS5_jNSt3__18functionIFvRS5_EEE"
    },
    {
     "kind":"offset_to_top",
     "component_value":-32
    },
    {
     "kind":"rtti",
     "mangled_component_name":"_ZTIN7android8hardware10automotive7vehicle4V2_019BnHwVehicleCallbackE"
    },
    {
     "kind":"complete_dtor_pointer",
     "mangled_component_name":"_ZThn32_N7android8hardware10automotive7vehicle4V2_019BnHwVehicleCallbackD1Ev"
    },
    {
     "kind":"deleting_dtor_pointer",
     "mangled_component_name":"_ZThn32_N7android8hardware10automotive7vehicle4V2_019BnHwVehicleCallbackD0Ev"
    },
    {
     "kind":"vcall_offset"
    },
    {
     "kind":"vcall_offset"
    },
    {
     "kind":"vcall_offset"
    },
    {
     "kind":"vcall_offset"
    },
    {
     "kind":"vcall_offset",
     "component_value":-136
    },
    {
     "kind":"offset_to_top",
     "component_value":-136
    },
    {
     "kind":"rtti",
     "mangled_component_name":"_ZTIN7android8hardware10automotive7vehicle4V2_019BnHwVehicleCallbackE"
    },
    {
     "kind":"complete_dtor_pointer",
     "mangled_component_name":"_ZTv0_n24_N7android8hardware10automotive7vehicle4V2_019BnHwVehicleCallbackD1Ev"
    },
    {
     "kind":"deleting_dtor_pointer",
     "mangled_component_name":"_ZTv0_n24_N7android8hardware10automotive7vehicle4V2_019BnHwVehicleCallbackD0Ev"
    },
    {
     "mangled_component_name":"_ZN7android7RefBase10onFirstRefEv"
    },
    {
     "mangled_component_name":"_ZN7android7RefBase15onLastStrongRefEPKv"
    },
    {
     "mangled_component_name":"_ZN7android7RefBase20onIncStrongAttemptedEjPKv"
    },
    {
     "mangled_component_name":"_ZN7android7RefBase13onLastWeakRefEPKv"
    }
   ],
   "unique_id":"_ZTSN7android8hardware10automotive7vehicle4V2_019BnHwVehicleCallbackE"
  },
  {
   "vtable_components":[
    {
     "kind":"vbase_offset",
     "component_value":8
    },
    {
     "kind":"offset_to_top"
    },
    {
     "kind":"rtti",
     "mangled_component_name":"_ZTIN7android8hardware10automotive7vehicle4V2_016IVehicleCallbackE"
    },
    {
     "mangled_component_name":"_ZNK7android8hardware10automotive7vehicle4V2_016IVehicleCallback8isRemoteEv"
    },
    {
     "mangled_component_name":"_ZN7android8hardware10automotive7vehicle4V2_016IVehicleCallback14interfaceChainENSt3__18functionIFvRKNS0_8hidl_vecINS0_11hidl_stringEEEEEE"
    },
    {
     "mangled_component_name":"_ZN7android8hardware10automotive7vehicle4V2_016IVehicleCallback5debugERKNS0_11hidl_handleERKNS0_8hidl_vecINS0_11hidl_stringEEE"
    },
    {
     "mangled_component_name":"_ZN7android8hardware10automotive7vehicle4V2_016IVehicleCallback19interfaceDescriptorENSt3__18functionIFvRKNS0_11hidl_stringEEEE"
    },
    {
     "mangled_component_name":"_ZN7android8hardware10automotive7vehicle4V2_016IVehicleCallback12getHashChainENSt3__18functionIFvRKNS0_8hidl_vecINS0_10hidl_arrayIhLm32EJEEEEEEEE"
    },
    {
     "mangled_component_name":"_ZN7android8hardware10automotive7vehicle4V2_016IVehicleCallback21setHALInstrumentationEv"
    },
    {
     "mangled_component_name":"_ZN7android8hardware10automotive7vehicle4V2_016IVehicleCallback11linkToDeathERKNS_2spINS0_20hidl_death_recipientEEEm"
    },
    {
     "mangled_component_name":"_ZN7android8hardware10automotive7vehicle4V2_016IVehicleCallback4pingEv"
    },
    {
     "mangled_component_name":"_ZN7android8hardware10automotive7vehicle4V2_016IVehicleCallback12getDebugInfoENSt3__18functionIFvRKNS_4hidl4base4V1_09DebugInfoEEEE"
    },
    {
     "mangled_component_name":"_ZN7android8hardware10automotive7vehicle4V2_016IVehicleCallback21notifySyspropsChangedEv"
    },
    {
     "mangled_component_name":"_ZN7android8hardware10automotive7vehicle4V2_016IVehicleCallback13unlinkToDeathERKNS_2spINS0_20hidl_death_recipientEEE"
    },
    {
     "kind":"complete_dtor_pointer",
     "mangled_component_name":"_ZN7android8hardware10automotive7vehicle4V2_016IVehicleCallbackD1Ev"
    },
    {
     "kind":"deleting_dtor_pointer",
     "mangled_component_name":"_ZN7android8hardware10automotive7vehicle4V2_016IVehicleCallbackD0Ev"
    },
    {
     "is_pure":true,
     "mangled_component_name":"_ZN7android8hardware10automotive7vehicle4V2_016IVehicleCallback15onPropertyEventERKNS0_8hidl_vecINS3_16VehiclePropValueEEE"
    },
    {
     "is_pure":true,
     "mangled_component_name":"_ZN7android8hardware10automotive7vehicle4V2_016IVehicleCallback13onPropertySetERKNS3_16VehiclePropValueE"
    },
    {
     "is_pure":true,
     "mangled_component_name":"_ZN7android8hardware10automotive7vehicle4V2_016IVehicleCallback18onPropertySetErrorENS3_10StatusCodeEii"
    },
    {
     "kind":"vcall_offset"
    },
    {
     "kind":"vcall_offset"
    },
    {
     "kind":"vcall_offset"
    },
    {
     "kind":"vcall_offset"
    },
    {
     "kind":"vcall_offset",
     "component_value":-8
    },
    {
     "kind":"offset_to_top",
     "component_value":-8
    },
    {
     "kind":"rtti",
     "mangled_component_name":"_ZTIN7android8hardware10automotive7vehicle4V2_016IVehicleCallbackE"
    },
    {
     "kind":"complete_dtor_pointer",
     "mangled_component_name":"_ZTv0_n24_N7android8hardware10automotive7vehicle4V2_016IVehicleCallbackD1Ev"
    },
    {
     "kind":"deleting_dtor_pointer",
     "mangled_component_name":"_ZTv0_n24_N7android8hardware10automotive7vehicle4V2_016IVehicleCallbackD0Ev"
    },
    {
     "mangled_component_name":"_ZN7android7RefBase10onFirstRefEv"
    },
    {
     "mangled_component_name":"_ZN7android7RefBase15onLastStrongRefEPKv"
    },
    {
     "mangled_component_name":"_ZN7android7RefBase20onIncStrongAttemptedEjPKv"
    },
    {
     "mangled_component_name":"_ZN7android7RefBase13onLastWeakRefEPKv"
    }
   ],
   "unique_id":"_ZTSN7android8hardware10automotive7vehicle4V2_016IVehicleCallbackE"
  },
  {
   "vtable_components":[
    {
     "kind":"vbase_offset",
     "component_value":200
    },
    {
     "kind":"offset_to_top"
    },
    {
     "kind":"rtti",
     "mangled_component_name":"_ZTIN7android8hardware10automotive7vehicle4V2_019BpHwVehicleCallbackE"
    },
    {
     "mangled_component_name":"_ZNK7android8hardware10automotive7vehicle4V2_019BpHwVehicleCallback8isRemoteEv"
    },
    {
     "mangled_component_name":"_ZN7android8hardware10automotive7vehicle4V2_019BpHwVehicleCallback14interfaceChainENSt3__18functionIFvRKNS0_8hidl_vecINS0_11hidl_stringEEEEEE"
    },
    {
     "mangled_component_name":"_ZN7android8hardware10automotive7vehicle4V2_019BpHwVehicleCallback5debugERKNS0_11hidl_handleERKNS0_8hidl_vecINS0_11hidl_stringEEE"
    },
    {
     "mangled_component_name":"_ZN7android8hardware10automotive7vehicle4V2_019BpHwVehicleCallback19interfaceDescriptorENSt3__18functionIFvRKNS0_11hidl_stringEEEE"
    },
    {
     "mangled_component_name":"_ZN7android8hardware10automotive7vehicle4V2_019BpHwVehicleCallback12getHashChainENSt3__18functionIFvRKNS0_8hidl_vecINS0_10hidl_arrayIhLm32EJEEEEEEEE"
    },
    {
     "mangled_component_name":"_ZN7android8hardware10automotive7vehicle4V2_019BpHwVehicleCallback21setHALInstrumentationEv"
    },
    {
     "mangled_component_name":"_ZN7android8hardware10automotive7vehicle4V2_019BpHwVehicleCallback11linkToDeathERKNS_2spINS0_20hidl_death_recipientEEEm"
    },
    {
     "mangled_component_name":"_ZN7android8hardware10automotive7vehicle4V2_019BpHwVehicleCallback4pingEv"
    },
    {
     "mangled_component_name":"_ZN7android8hardware10automotive7vehicle4V2_019BpHwVehicleCallback12getDebugInfoENSt3__18functionIFvRKNS_4hidl4base4V1_09DebugInfoEEEE"
    },
    {
     "mangled_component_name":"_ZN7android8hardware10automotive7vehicle4V2_019BpHwVehicleCallback21notifySyspropsChangedEv"
    },
    {
     "mangled_component_name":"_ZN7android8hardware10automotive7vehicle4V2_019BpHwVehicleCallback13unlinkToDeathERKNS_2spINS0_20hidl_death_recipientEEE"
    },
    {
     "kind":"complete_dtor_pointer",
     "mangled_component_name":"_ZN7android8hardware10automotive7vehicle4V2_019BpHwVehicleCallbackD1Ev"
    },
    {
     "kind":"deleting_dtor_pointer",
     "mangled_component_name":"_ZN7android8hardware10automotive7vehicle4V2_019BpHwVehicleCallbackD0Ev"
    },
    {
     "mangled_component_name":"_ZN7android8hardware10automotive7vehicle4V2_019BpHwVehicleCallback15onPropertyEventERKNS0_8hidl_vecINS3_16VehiclePropValueEEE"
    },
    {
     "mangled_component_name":"_ZN7android8hardware10automotive7vehicle4V2_019BpHwVehicleCallback13onPropertySetERKNS3_16VehiclePropValueE"
    },
    {
     "mangled_component_name":"_ZN7android8hardware10automotive7vehicle4V2_019BpHwVehicleCallback18onPropertySetErrorENS3_10StatusCodeEii"
    },
    {
     "mangled_component_name":"_ZN7android8hardware11BpInterfaceINS0_10automotive7vehicle4V2_016IVehicleCallbackEE10onAsBinderEv"
    },
    {
     "kind":"vbase_offset",
     "component_value":192
    },
    {
     "kind":"offset_to_top",
     "component_value":-8
    },
    {
     "kind":"rtti",
     "mangled_component_name":"_ZTIN7android8hardware10automotive7vehicle4V2_019BpHwVehicleCallbackE"
    },
    {
     "kind":"complete_dtor_pointer",
     "mangled_component_name":"_ZThn8_N7android8hardware10automotive7vehicle4V2_019BpHwVehicleCallbackD1Ev"
    },
    {
     "kind":"deleting_dtor_pointer",
     "mangled_component_name":"_ZThn8_N7android8hardware10automotive7vehicle4V2_019BpHwVehicleCallbackD0Ev"
    },
    {
     "mangled_component_name":"_ZThn8_N7android8hardware11BpInterfaceINS0_10automotive7vehicle4V2_016IVehicleCallbackEE10onAsBinderEv"
    },
    {
     "kind":"vbase_offset",
     "component_value":184
    },
    {
     "kind":"offset_to_top",
     "component_value":-16
    },
    {
     "kind":"rtti",
     "mangled_component_name":"_ZTIN7android8hardware10automotive7vehicle4V2_019BpHwVehicleCallbackE"
    },
    {
     "kind":"complete_dtor_pointer",
     "mangled_component_name":"_ZThn16_N7android8hardware10automotive7vehicle4V2_019BpHwVehicleCallbackD1Ev"
    },
    {
     "kind":"deleting_dtor_pointer",
     "mangled_component_name":"_ZThn16_N7android8hardware10automotive7vehicle4V2_019BpHwVehicleCallbackD0Ev"
    },
    {
     "mangled_component_name":"_ZN7android8hardware11BpHwRefBase10onFirstRefEv"
    },
    {
     "mangled_component_name":"_ZN7android8hardware11BpHwRefBase15onLastStrongRefEPKv"
    },
    {
     "mangled_component_name":"_ZN7android8hardware11BpHwRefBase20onIncStrongAttemptedEjPKv"
    },
    {
     "kind":"offset_to_top",
     "component_value":-48
    },
    {
     "kind":"rtti",
     "mangled_component_name":"_ZTIN7android8hardware10automotive7vehicle4V2_019BpHwVehicleCallbackE"
    },
    {
     "kind":"complete_dtor_pointer",
     "mangled_component_name":"_ZThn48_N7android8hardware10automotive7vehicle4V2_019BpHwVehicleCallbackD1Ev"
    },
    {
     "kind":"deleting_dtor_pointer",
     "mangled_component_name":"_ZThn48_N7android8hardware10automotive7vehicle4V2_019BpHwVehicleCallbackD0Ev"
    },
    {
     "kind":"vcall_offset"
    },
    {
     "kind":"vcall_offset",
     "component_value":-184
    },
    {
     "kind":"vcall_offset",
     "component_value":-184
    },
    {
     "kind":"vcall_offset",
     "component_value":-184
    },
    {
     "kind":"vcall_offset",
     "component_value":-200
    },
    {
     "kind":"offset_to_top",
     "component_value":-200
    },
    {
     "kind":"rtti",
     "mangled_component_name":"_ZTIN7android8hardware10automotive7vehicle4V2_019BpHwVehicleCallbackE"
    },
    {
     "kind":"complete_dtor_pointer",
     "mangled_component_name":"_ZTv0_n24_N7android8hardware10automotive7vehicle4V2_019BpHwVehicleCallbackD1Ev"
    },
    {
     "kind":"deleting_dtor_pointer",
     "mangled_component_name":"_ZTv0_n24_N7android8hardware10automotive7vehicle4V2_019BpHwVehicleCallbackD0Ev"
    },
    {
     "mangled_component_name":"_ZTv0_n32_N7android8hardware11BpHwRefBase10onFirstRefEv"
    },
    {
     "mangled_component_name":"_ZTv0_n40_N7android8hardware11BpHwRefBase15onLastStrongRefEPKv"
    },
    {
     "mangled_component_name":"_ZTv0_n48_N7android8hardware11BpHwRefBase20onIncStrongAttemptedEjPKv"
    },
    {
     "mangled_component_name":"_ZN7android7RefBase13onLastWeakRefEPKv"
    }
   ],
   "unique_id":"_ZTSN7android8hardware10automotive7vehicle4V2_019BpHwVehicleCallbackE"
  }
 ],
 "elf_functions":[
  {
   "name":"_ZN7android8hardware10automotive7vehicle4V2_011BnHwVehicle10onTransactEjRKNS0_6ParcelEPS5_jNSt3__18functionIFvRS5_EEE"
  },
  {
   "name":"_ZN7android8hardware10automotive7vehicle4V2_011BnHwVehicle12getDebugInfoENSt3__18functionIFvRKNS_4hidl4base4V1_09DebugInfoEEEE"
  },
  {
   "name":"_ZN7android8hardware10automotive7vehicle4V2_011BnHwVehicle15_hidl_debugDumpEPNS_4hidl4base4V1_08BnHwBaseERKNS0_6ParcelEPSA_NSt3__18functionIFvRSA_EEE"
  },
  {
   "name":"_ZN7android8hardware10automotive7vehicle4V2_011BnHwVehicle15_hidl_subscribeEPNS_4hidl4base4V1_08BnHwBaseERKNS0_6ParcelEPSA_NSt3__18functionIFvRSA_EEE"
  },
  {
   "name":"_ZN7android8hardware10automotive7vehicle4V2_011BnHwVehicle17_hidl_unsubscribeEPNS_4hidl4base4V1_08BnHwBaseERKNS0_6ParcelEPSA_NSt3__18functionIFvRSA_EEE"
  },
  {
   "name":"_ZN7android8hardware10automotive7vehicle4V2_011BnHwVehicle20_hidl_getPropConfigsEPNS_4hidl4base4V1_08BnHwBaseERKNS0_6ParcelEPSA_NSt3__18functionIFvRSA_EEE"
  },
  {
   "name":"_ZN7android8hardware10automotive7vehicle4V2_011BnHwVehicle23_hidl_getAllPropConfigsEPNS_4hidl4base4V1_08BnHwBaseERKNS0_6ParcelEPSA_NSt3__18functionIFvRSA_EEE"
  },
  {
   "name":"_ZN7android8hardware10automotive7vehicle4V2_011BnHwVehicle4pingEv"
  },
  {
   "name":"_ZN7android8hardware10automotive7vehicle4V2_011BnHwVehicle9_hidl_getEPNS_4hidl4base4V1_08BnHwBaseERKNS0_6ParcelEPSA_NSt3__18functionIFvRSA_EEE"
  },
  {
   "name":"_ZN7android8hardware10automotive7vehicle4V2_011BnHwVehicle9_hidl_setEPNS_4hidl4base4V1_08BnHwBaseERKNS0_6ParcelEPSA_NSt3__18functionIFvRSA_EEE"
  },
  {
   "name":"_ZN7android8hardware10automotive7vehicle4V2_011BnHwVehicleC1ERKNS_2spINS3_8IVehicleEEE"
  },
  {
   "name":"_ZN7android8hardware10automotive7vehicle4V2_011BnHwVehicleC2ERKNS_2spINS3_8IVehicleEEE"
  },
  {
   "name":"_ZN7android8hardware10automotive7vehicle4V2_011BnHwVehicleD0Ev"
  },
  {
   "name":"_ZN7android8hardware10automotive7vehicle4V2_011BnHwVehicleD1Ev"
  },
  {
   "name":"_ZN7android8hardware10automotive7vehicle4V2_011BnHwVehicleD2Ev"
  },
  {
   "name":"_ZN7android8hardware10automotive7vehicle4V2_011BpHwVehicle11linkToDeathERKNS_2spINS0_20hidl_death_recipientEEEm"
  },
  {
   "name":"_ZN7android8hardware10automotive7vehicle4V2_011BpHwVehicle11unsubscribeERKNS_2spINS3_16IVehicleCallbackEEEi"
  },
  {
   "name":"_ZN7android8hardware10automotive7vehicle4V2_011BpHwVehicle12getDebugInfoENSt3__18functionIFvRKNS_4hidl4base4V1_09DebugInfoEEEE"
  },
  {
   "name":"_ZN7android8hardware10automotive7vehicle4V2_011BpHwVehicle12getHashChainENSt3__18functionIFvRKNS0_8hidl_vecINS0_10hidl_arrayIhLm32EJEEEEEEEE"
  },
  {
   "name":"_ZN7android8hardware10automotive7vehicle4V2_011BpHwVehicle13unlinkToDeathERKNS_2spINS0_20hidl_death_recipientEEE"
  },
  {
   "name":"_ZN7android8hardware10automotive7vehicle4V2_011BpHwVehicle14getPropConfigsERKNS0_8hidl_vecIiEENSt3__18functionIFvNS3_10StatusCodeERKNS5_INS3_17VehiclePropConfigEEEEEE"
  },
  {
   "name":"_ZN7android8hardware10automotive7vehicle4V2_011BpHwVehicle14interfaceChainENSt3__18functionIFvRKNS0_8hidl_vecINS0_11hidl_stringEEEEEE"
  },
  {
   "name":"_ZN7android8hardware10automotive7vehicle4V2_011BpHwVehicle15_hidl_debugDumpEPNS0_10IInterfaceEPNS0_7details16HidlInstrumentorENSt3__18functionIFvRKNS0_11hidl_stringEEEE"
  },
  {
   "name":"_ZN7android8hardware10automotive7vehicle4V2_011BpHwVehicle15_hidl_subscribeEPNS0_10IInterfaceEPNS0_7details16HidlInstrumentorERKNS_2spINS3_16IVehicleCallbackEEERKNS0_8hidl_vecINS3_16SubscribeOptionsEEE"
  },
  {
   "name":"_ZN7android8hardware10automotive7vehicle4V2_011BpHwVehicle17_hidl_unsubscribeEPNS0_10IInterfaceEPNS0_7details16HidlInstrumentorERKNS_2spINS3_16IVehicleCallbackEEEi"
  },
  {
   "name":"_ZN7android8hardware10automotive7vehicle4V2_011BpHwVehicle17getAllPropConfigsENSt3__18functionIFvRKNS0_8hidl_vecINS3_17VehiclePropConfigEEEEEE"
  },
  {
   "name":"_ZN7android8hardware10automotive7vehicle4V2_011BpHwVehicle19interfaceDescriptorENSt3__18functionIFvRKNS0_11hidl_stringEEEE"
  },
  {
   "name":"_ZN7android8hardware10automotive7vehicle4V2_011BpHwVehicle20_hidl_getPropConfigsEPNS0_10IInterfaceEPNS0_7details16HidlInstrumentorERKNS0_8hidl_vecIiEENSt3__18functionIFvNS3_10StatusCodeERKNSA_INS3_17VehiclePropConfigEEEEEE"
  },
  {
   "name":"_ZN7android8hardware10automotive7vehicle4V2_011BpHwVehicle21notifySyspropsChangedEv"
  },
  {
   "name":"_ZN7android8hardware10automotive7vehicle4V2_011BpHwVehicle21setHALInstrumentationEv"
  },
  {
   "name":"_ZN7android8hardware10automotive7vehicle4V2_011BpHwVehicle23_hidl_getAllPropConfigsEPNS0_10IInterfaceEPNS0_7details16HidlInstrumentorENSt3__18functionIFvRKNS0_8hidl_vecINS3_17VehiclePropConfigEEEEEE"
  },
  {
   "name":"_ZN7android8hardware10automotive7vehicle4V2_011BpHwVehicle3getERKNS3_16VehiclePropValueENSt3__18functionIFvNS3_10StatusCodeES7_EEE"
  },
  {
   "name":"_ZN7android8hardware10automotive7vehicle4V2_011BpHwVehicle3setERKNS3_16VehiclePropValueE"
  },
  {
   "name":"_ZN7android8hardware10automotive7vehicle4V2_011BpHwVehicle4pingEv"
  },
  {
   "name":"_ZN7android8hardware10automotive7vehicle4V2_011BpHwVehicle5debugERKNS0_11hidl_handleERKNS0_8hidl_vecINS0_11hidl_stringEEE"
  },
  {
   "name":"_ZN7android8hardware10automotive7vehicle4V2_011BpHwVehicle9_hidl_getEPNS0_10IInterfaceEPNS0_7details16HidlInstrumentorERKNS3_16VehiclePropValueENSt3__18functionIFvNS3_10StatusCodeESC_EEE"
  },
  {
   "name":"_ZN7android8hardware10automotive7vehicle4V2_011BpHwVehicle9_hidl_setEPNS0_10IInterfaceEPNS0_7details16HidlInstrumentorERKNS3_16VehiclePropValueE"
  },
  {
   "name":"_ZN7android8hardware10automotive7vehicle4V2_011BpHwVehicle9debugDumpENSt3__18functionIFvRKNS0_11hidl_stringEEEE"
  },
  {
   "name":"_ZN7android8hardware10automotive7vehicle4V2_011BpHwVehicle9subscribeERKNS_2spINS3_16IVehicleCallbackEEERKNS0_8hidl_vecINS3_16SubscribeOptionsEEE"
  },
  {
   "name":"_ZN7android8hardware10automotive7vehicle4V2_011BpHwVehicleC1ERKNS_2spINS0_7IBinderEEE"
  },
  {
   "name":"_ZN7android8hardware10automotive7vehicle4V2_011BpHwVehicleC2ERKNS_2spINS0_7IBinderEEE"
  },
  {
   "name":"_ZN7android8hardware10automotive7vehicle4V2_016IVehicleCallback10getServiceERKNSt3__112basic_stringIcNS5_11char_traitsIcEENS5_9allocatorIcEEEEb"
  },
  {
   "name":"_ZN7android8hardware10automotive7vehicle4V2_016IVehicleCallback11linkToDeathERKNS_2spINS0_20hidl_death_recipientEEEm"
  },
  {
   "name":"_ZN7android8hardware10automotive7vehicle4V2_016IVehicleCallback12getDebugInfoENSt3__18functionIFvRKNS_4hidl4base4V1_09DebugInfoEEEE"
  },
  {
   "name":"_ZN7android8hardware10automotive7vehicle4V2_016IVehicleCallback12getHashChainENSt3__18functionIFvRKNS0_8hidl_vecINS0_10hidl_arrayIhLm32EJEEEEEEEE"
  },
  {
   "name":"_ZN7android8hardware10automotive7vehicle4V2_016IVehicleCallback13tryGetServiceERKNSt3__112basic_stringIcNS5_11char_traitsIcEENS5_9allocatorIcEEEEb"
  },
  {
   "name":"_ZN7android8hardware10automotive7vehicle4V2_016IVehicleCallback13unlinkToDeathERKNS_2spINS0_20hidl_death_recipientEEE"
  },
  {
   "name":"_ZN7android8hardware10automotive7vehicle4V2_016IVehicleCallback14interfaceChainENSt3__18functionIFvRKNS0_8hidl_vecINS0_11hidl_stringEEEEEE"
  },
  {
   "name":"_ZN7android8hardware10automotive7vehicle4V2_016IVehicleCallback17registerAsServiceERKNSt3__112basic_stringIcNS5_11char_traitsIcEENS5_9allocatorIcEEEE"
  },
  {
   "name":"_ZN7android8hardware10automotive7vehicle4V2_016IVehicleCallback19interfaceDescriptorENSt3__18functionIFvRKNS0_11hidl_stringEEEE"
  },
  {
   "name":"_ZN7android8hardware10automotive7vehicle4V2_016IVehicleCallback21notifySyspropsChangedEv"
  },
  {
   "name":"_ZN7android8hardware10automotive7vehicle4V2_016IVehicleCallback21setHALInstrumentationEv"
  },
  {
   "name":"_ZN7android8hardware10automotive7vehicle4V2_016IVehicleCallback24registerForNotificationsERKNSt3__112basic_stringIcNS5_11char_traitsIcEENS5_9allocatorIcEEEERKNS_2spINS_4hidl7manager4V1_020IServiceNotificationEEE"
  },
  {
   "name":"_ZN7android8hardware10automotive7vehicle4V2_016IVehicleCallback4pingEv"
  },
  {
   "name":"_ZN7android8hardware10automotive7vehicle4V2_016IVehicleCallback5debugERKNS0_11hidl_handleERKNS0_8hidl_vecINS0_11hidl_stringEEE"
  },
  {
   "name":"_ZN7android8hardware10automotive7vehicle4V2_016IVehicleCallback8castFromERKNS_2spINS_4hidl4base4V1_05IBaseEEEb"
  },
  {
   "name":"_ZN7android8hardware10automotive7vehicle4V2_016IVehicleCallback8castFromERKNS_2spIS4_EEb"
  },
  {
   "name":"_ZN7android8hardware10automotive7vehicle4V2_017BsVehicleCallback13addOnewayTaskENSt3__18functionIFvvEEE"
  },
  {
   "name":"_ZN7android8hardware10automotive7vehicle4V2_017BsVehicleCallbackC1ENS_2spINS3_16IVehicleCallbackEEE"
  },
  {
   "name":"_ZN7android8hardware10automotive7vehicle4V2_017BsVehicleCallbackC2ENS_2spINS3_16IVehicleCallbackEEE"
  },
  {
   "name":"_ZN7android8hardware10automotive7vehicle4V2_019BnHwVehicleCallback10onTransactEjRKNS0_6ParcelEPS5_jNSt3__18functionIFvRS5_EEE"
  },
  {
   "name":"_ZN7android8hardware10automotive7vehicle4V2_019BnHwVehicleCallback12getDebugInfoENSt3__18functionIFvRKNS_4hidl4base4V1_09DebugInfoEEEE"
  },
  {
   "name":"_ZN7android8hardware10automotive7vehicle4V2_019BnHwVehicleCallback19_hidl_onPropertySetEPNS_4hidl4base4V1_08BnHwBaseERKNS0_6ParcelEPSA_NSt3__18functionIFvRSA_EEE"
  },
  {
   "name":"_ZN7android8hardware10automotive7vehicle4V2_019BnHwVehicleCallback21_hidl_onPropertyEventEPNS_4hidl4base4V1_08BnHwBaseERKNS0_6ParcelEPSA_NSt3__18functionIFvRSA_EEE"
  },
  {
   "name":"_ZN7android8hardware10automotive7vehicle4V2_019BnHwVehicleCallback24_hidl_onPropertySetErrorEPNS_4hidl4base4V1_08BnHwBaseERKNS0_6ParcelEPSA_NSt3__18functionIFvRSA_EEE"
  },
  {
   "name":"_ZN7android8hardware10automotive7vehicle4V2_019BnHwVehicleCallback4pingEv"
  },
  {
   "name":"_ZN7android8hardware10automotive7vehicle4V2_019BnHwVehicleCallbackC1ERKNS_2spINS3_16IVehicleCallbackEEE"
  },
  {
   "name":"_ZN7android8hardware10automotive7vehicle4V2_019BnHwVehicleCallbackC2ERKNS_2spINS3_16IVehicleCallbackEEE"
  },
  {
   "name":"_ZN7android8hardware10automotive7vehicle4V2_019BnHwVehicleCallbackD0Ev"
  },
  {
   "name":"_ZN7android8hardware10automotive7vehicle4V2_019BnHwVehicleCallbackD1Ev"
  },
  {
   "name":"_ZN7android8hardware10automotive7vehicle4V2_019BnHwVehicleCallbackD2Ev"
  },
  {
   "name":"_ZN7android8hardware10automotive7vehicle4V2_019BpHwVehicleCallback11linkToDeathERKNS_2spINS0_20hidl_death_recipientEEEm"
  },
  {
   "name":"_ZN7android8hardware10automotive7vehicle4V2_019BpHwVehicleCallback12getDebugInfoENSt3__18functionIFvRKNS_4hidl4base4V1_09DebugInfoEEEE"
  },
  {
   "name":"_ZN7android8hardware10automotive7vehicle4V2_019BpHwVehicleCallback12getHashChainENSt3__18functionIFvRKNS0_8hidl_vecINS0_10hidl_arrayIhLm32EJEEEEEEEE"
  },
  {
   "name":"_ZN7android8hardware10automotive7vehicle4V2_019BpHwVehicleCallback13onPropertySetERKNS3_16VehiclePropValueE"
  },
  {
   "name":"_ZN7android8hardware10automotive7vehicle4V2_019BpHwVehicleCallback13unlinkToDeathERKNS_2spINS0_20hidl_death_recipientEEE"
  },
  {
   "name":"_ZN7android8hardware10automotive7vehicle4V2_019BpHwVehicleCallback14interfaceChainENSt3__18functionIFvRKNS0_8hidl_vecINS0_11hidl_stringEEEEEE"
  },
  {
   "name":"_ZN7android8hardware10automotive7vehicle4V2_019BpHwVehicleCallback15onPropertyEventERKNS0_8hidl_vecINS3_16VehiclePropValueEEE"
  },
  {
   "name":"_ZN7android8hardware10automotive7vehicle4V2_019BpHwVehicleCallback18onPropertySetErrorENS3_10StatusCodeEii"
  },
  {
   "name":"_ZN7android8hardware10automotive7vehicle4V2_019BpHwVehicleCallback19_hidl_onPropertySetEPNS0_10IInterfaceEPNS0_7details16HidlInstrumentorERKNS3_16VehiclePropValueE"
  },
  {
   "name":"_ZN7android8hardware10automotive7vehicle4V2_019BpHwVehicleCallback19interfaceDescriptorENSt3__18functionIFvRKNS0_11hidl_stringEEEE"
  },
  {
   "name":"_ZN7android8hardware10automotive7vehicle4V2_019BpHwVehicleCallback21_hidl_onPropertyEventEPNS0_10IInterfaceEPNS0_7details16HidlInstrumentorERKNS0_8hidl_vecINS3_16VehiclePropValueEEE"
  },
  {
   "name":"_ZN7android8hardware10automotive7vehicle4V2_019BpHwVehicleCallback21notifySyspropsChangedEv"
  },
  {
   "name":"_ZN7android8hardware10automotive7vehicle4V2_019BpHwVehicleCallback21setHALInstrumentationEv"
  },
  {
   "name":"_ZN7android8hardware10automotive7vehicle4V2_019BpHwVehicleCallback24_hidl_onPropertySetErrorEPNS0_10IInterfaceEPNS0_7details16HidlInstrumentorENS3_10StatusCodeEii"
  },
  {
   "name":"_ZN7android8hardware10automotive7vehicle4V2_019BpHwVehicleCallback4pingEv"
  },
  {
   "name":"_ZN7android8hardware10automotive7vehicle4V2_019BpHwVehicleCallback5debugERKNS0_11hidl_handleERKNS0_8hidl_vecINS0_11hidl_stringEEE"
  },
  {
   "name":"_ZN7android8hardware10automotive7vehicle4V2_019BpHwVehicleCallbackC1ERKNS_2spINS0_7IBinderEEE"
  },
  {
   "name":"_ZN7android8hardware10automotive7vehicle4V2_019BpHwVehicleCallbackC2ERKNS_2spINS0_7IBinderEEE"
  },
  {
   "name":"_ZN7android8hardware10automotive7vehicle4V2_021writeEmbeddedToParcelERKNS3_16VehiclePropValueEPNS0_6ParcelEmm"
  },
  {
   "name":"_ZN7android8hardware10automotive7vehicle4V2_021writeEmbeddedToParcelERKNS3_17VehiclePropConfigEPNS0_6ParcelEmm"
  },
  {
   "name":"_ZN7android8hardware10automotive7vehicle4V2_022readEmbeddedFromParcelERKNS3_16VehiclePropValueERKNS0_6ParcelEmm"
  },
  {
   "name":"_ZN7android8hardware10automotive7vehicle4V2_022readEmbeddedFromParcelERKNS3_17VehiclePropConfigERKNS0_6ParcelEmm"
  },
  {
   "name":"_ZN7android8hardware10automotive7vehicle4V2_08IVehicle10getServiceERKNSt3__112basic_stringIcNS5_11char_traitsIcEENS5_9allocatorIcEEEEb"
  },
  {
   "name":"_ZN7android8hardware10automotive7vehicle4V2_08IVehicle11linkToDeathERKNS_2spINS0_20hidl_death_recipientEEEm"
  },
  {
   "name":"_ZN7android8hardware10automotive7vehicle4V2_08IVehicle12getDebugInfoENSt3__18functionIFvRKNS_4hidl4base4V1_09DebugInfoEEEE"
  },
  {
   "name":"_ZN7android8hardware10automotive7vehicle4V2_08IVehicle12getHashChainENSt3__18functionIFvRKNS0_8hidl_vecINS0_10hidl_arrayIhLm32EJEEEEEEEE"
  },
  {
   "name":"_ZN7android8hardware10automotive7vehicle4V2_08IVehicle13tryGetServiceERKNSt3__112basic_stringIcNS5_11char_traitsIcEENS5_9allocatorIcEEEEb"
  },
  {
   "name":"_ZN7android8hardware10automotive7vehicle4V2_08IVehicle13unlinkToDeathERKNS_2spINS0_20hidl_death_recipientEEE"
  },
  {
   "name":"_ZN7android8hardware10automotive7vehicle4V2_08IVehicle14interfaceChainENSt3__18functionIFvRKNS0_8hidl_vecINS0_11hidl_stringEEEEEE"
  },
  {
   "name":"_ZN7android8hardware10automotive7vehicle4V2_08IVehicle17registerAsServiceERKNSt3__112basic_stringIcNS5_11char_traitsIcEENS5_9allocatorIcEEEE"
  },
  {
   "name":"_ZN7android8hardware10automotive7vehicle4V2_08IVehicle19interfaceDescriptorENSt3__18functionIFvRKNS0_11hidl_stringEEEE"
  },
  {
   "name":"_ZN7android8hardware10automotive7vehicle4V2_08IVehicle21notifySyspropsChangedEv"
  },
  {
   "name":"_ZN7android8hardware10automotive7vehicle4V2_08IVehicle21setHALInstrumentationEv"
  },
  {
   "name":"_ZN7android8hardware10automotive7vehicle4V2_08IVehicle24registerForNotificationsERKNSt3__112basic_stringIcNS5_11char_traitsIcEENS5_9allocatorIcEEEERKNS_2spINS_4hidl7manager4V1_020IServiceNotificationEEE"
  },
  {
   "name":"_ZN7android8hardware10automotive7vehicle4V2_08IVehicle4pingEv"
  },
  {
   "name":"_ZN7android8hardware10automotive7vehicle4V2_08IVehicle5debugERKNS0_11hidl_handleERKNS0_8hidl_vecINS0_11hidl_stringEEE"
  },
  {
   "name":"_ZN7android8hardware10automotive7vehicle4V2_08IVehicle8castFromERKNS_2spINS_4hidl4base4V1_05IBaseEEEb"
  },
  {
   "name":"_ZN7android8hardware10automotive7vehicle4V2_08IVehicle8castFromERKNS_2spIS4_EEb"
  },
  {
   "name":"_ZN7android8hardware10automotive7vehicle4V2_09BsVehicle13addOnewayTaskENSt3__18functionIFvvEEE"
  },
  {
   "name":"_ZN7android8hardware10automotive7vehicle4V2_09BsVehicleC1ENS_2spINS3_8IVehicleEEE"
  },
  {
   "name":"_ZN7android8hardware10automotive7vehicle4V2_09BsVehicleC2ENS_2spINS3_8IVehicleEEE"
  },
  {
   "binding":"weak",
   "name":"_ZN7android8hardware10fromBinderINS0_10automotive7vehicle4V2_016IVehicleCallbackENS4_19BpHwVehicleCallbackENS4_19BnHwVehicleCallbackEEENS_2spIT_EERKNS8_INS0_7IBinderEEE"
  },
  {
   "binding":"weak",
   "name":"_ZN7android8hardware7details13castInterfaceINS0_10automotive7vehicle4V2_016IVehicleCallbackENS_4hidl4base4V1_05IBaseENS5_19BpHwVehicleCallbackEEENS0_6ReturnINS_2spIT_EEEENSD_IT0_EEPKcb"
  },
  {
   "binding":"weak",
   "name":"_ZN7android8hardware7details13castInterfaceINS0_10automotive7vehicle4V2_08IVehicleENS_4hidl4base4V1_05IBaseENS5_11BpHwVehicleEEENS0_6ReturnINS_2spIT_EEEENSD_IT0_EEPKcb"
  },
  {
   "binding":"weak",
   "name":"_ZN7android8hardware7details15wrapPassthroughINS0_10automotive7vehicle4V2_016IVehicleCallbackEvEENS_2spIT_EES9_"
  },
  {
   "binding":"weak",
   "name":"_ZN7android8hardware7details18getServiceInternalINS0_10automotive7vehicle4V2_011BpHwVehicleENS5_8IVehicleEvvEENS_2spIT0_EERKNSt3__112basic_stringIcNSB_11char_traitsIcEENSB_9allocatorIcEEEEbb"
  },
  {
   "binding":"weak",
   "name":"_ZN7android8hardware7details18getServiceInternalINS0_10automotive7vehicle4V2_019BpHwVehicleCallbackENS5_16IVehicleCallbackEvvEENS_2spIT0_EERKNSt3__112basic_stringIcNSB_11char_traitsIcEENSB_9allocatorIcEEEEbb"
  },
  {
   "binding":"weak",
   "name":"_ZN7android8hardware8toBinderINS0_10automotive7vehicle4V2_016IVehicleCallbackEvEENS_2spINS0_7IBinderEEENS6_IT_EE"
  },
  {
   "binding":"weak",
   "name":"_ZN7android8hardware8toBinderINS_4hidl4base4V1_05IBaseEvEENS_2spINS0_7IBinderEEENS6_IT_EE"
  },
  {
   "name":"_ZThn32_N7android8hardware10automotive7vehicle4V2_011BnHwVehicleD0Ev"
  },
  {
   "name":"_ZThn32_N7android8hardware10automotive7vehicle4V2_011BnHwVehicleD1Ev"
  },
  {
   "name":"_ZThn32_N7android8hardware10automotive7vehicle4V2_019BnHwVehicleCallbackD0Ev"
  },
  {
   "name":"_ZThn32_N7android8hardware10automotive7vehicle4V2_019BnHwVehicleCallbackD1Ev"
  },
  {
   "name":"_ZTv0_n24_N7android8hardware10automotive7vehicle4V2_011BnHwVehicleD0Ev"
  },
  {
   "name":"_ZTv0_n24_N7android8hardware10automotive7vehicle4V2_011BnHwVehicleD1Ev"
  },
  {
   "name":"_ZTv0_n24_N7android8hardware10automotive7vehicle4V2_019BnHwVehicleCallbackD0Ev"
  },
  {
   "name":"_ZTv0_n24_N7android8hardware10automotive7vehicle4V2_019BnHwVehicleCallbackD1Ev"
  }
 ],
 "elf_objects":[
  {
   "name":"_ZN7android8hardware10automotive7vehicle4V2_016IVehicleCallback10descriptorE"
  },
  {
   "name":"_ZN7android8hardware10automotive7vehicle4V2_08IVehicle10descriptorE"
  },
  {
   "name":"_ZTTN7android8hardware10automotive7vehicle4V2_011BnHwVehicleE"
  },
  {
   "name":"_ZTTN7android8hardware10automotive7vehicle4V2_011BpHwVehicleE"
  },
  {
   "name":"_ZTTN7android8hardware10automotive7vehicle4V2_016IVehicleCallbackE"
  },
  {
   "name":"_ZTTN7android8hardware10automotive7vehicle4V2_019BnHwVehicleCallbackE"
  },
  {
   "name":"_ZTTN7android8hardware10automotive7vehicle4V2_019BpHwVehicleCallbackE"
  },
  {
   "name":"_ZTTN7android8hardware10automotive7vehicle4V2_08IVehicleE"
  },
  {
   "name":"_ZTVN7android8hardware10automotive7vehicle4V2_011BnHwVehicleE"
  },
  {
   "name":"_ZTVN7android8hardware10automotive7vehicle4V2_011BpHwVehicleE"
  },
  {
   "name":"_ZTVN7android8hardware10automotive7vehicle4V2_016IVehicleCallbackE"
  },
  {
   "binding":"weak",
   "name":"_ZTVN7android8hardware10automotive7vehicle4V2_017BsVehicleCallbackE"
  },
  {
   "name":"_ZTVN7android8hardware10automotive7vehicle4V2_019BnHwVehicleCallbackE"
  },
  {
   "name":"_ZTVN7android8hardware10automotive7vehicle4V2_019BpHwVehicleCallbackE"
  },
  {
   "name":"_ZTVN7android8hardware10automotive7vehicle4V2_08IVehicleE"
  },
  {
   "binding":"weak",
   "name":"_ZTVN7android8hardware10automotive7vehicle4V2_09BsVehicleE"
  }
 ]
}