{
 "record_types":[
  {
   "vtable_components":[
    {
     "kind":"vbase_offset",
     "component_value":136
    },
    {
     "kind":"offset_to_top"
    },
    {
     "kind":"rtti",
     "mangled_component_name":"_ZTIN7android8hardware13tetheroffload6config4V1_017BnHwOffloadConfigE"
    },
    {
     "mangled_component_name":"_ZN7android8hardware9BHwBinder8transactEjRKNS0_6ParcelEPS2_jNSt3__18functionIFvRS2_EEE"
    },
    {
     "mangled_component_name":"_ZN7android8hardware9BHwBinder11linkToDeathERKNS_2spINS0_7IBinder14DeathRecipientEEEPvj"
    },
    {
     "mangled_component_name":"_ZN7android8hardware9BHwBinder13unlinkToDeathERKNS_2wpINS0_7IBinder14DeathRecipientEEEPvjPS5_"
    },
    {
     "mangled_component_name":"_ZNK7android8hardware7IBinder13checkSubclassEPKv"
    },
    {
     "mangled_component_name":"_ZN7android8hardware9BHwBinder12attachObjectEPKvPvS4_PFvS3_S4_S4_E"
    },
    {
     "mangled_component_name":"_ZNK7android8hardware9BHwBinder10findObjectEPKv"
    },
    {
     "mangled_component_name":"_ZN7android8hardware9BHwBinder12detachObjectEPKv"
    },
    {
     "mangled_component_name":"_ZN7android8hardware9BHwBinder11localBinderEv"
    },
    {
     "mangled_component_name":"_ZN7android8hardware7IBinder12remoteBinderEv"
    },
    {
     "kind":"complete_dtor_pointer",
     "mangled_component_name":"_ZN7android8hardware13tetheroffload6config4V1_017BnHwOffloadConfigD1Ev"
    },
    {
     "kind":"deleting_dtor_pointer",
     "mangled_component_name":"_ZN7android8hardware13tetheroffload6config4V1_017BnHwOffloadConfigD0Ev"
    },
    {
     "mangled_component_name":"_ZN7android8hardware13tetheroffload6config4V1_017BnHwOffloadConfig10onTransactEjRKNS0_6ParcelEPS5_jNSt3__18functionIFvRS5_EEE"
    },
    {
     "kind":"offset_to_top",
     "component_value":-32
    },
    {
     "kind":"rtti",
     "mangled_component_name":"_ZTIN7android8hardware13tetheroffload6config4V1_017BnHwOffloadConfigE"
    },
    {
     "kind":"complete_dtor_pointer",
     "mangled_component_name":"_ZThn32_N7android8hardware13tetheroffload6config4V1_017BnHwOffloadConfigD1Ev"
    },
    {
     "kind":"deleting_dtor_pointer",
     "mangled_component_name":"_ZThn32_N7android8hardware13tetheroffload6config4V1_017BnHwOffloadConfigD0Ev"
    },
    {
     "kind":"vcall_offset"
    },
    {
     "kind":"vcall_offset"
    },
    {
     "kind":"vcall_offset"
    },
    {
     "kind":"vcall_offset"
    },
    {
     "kind":"vcall_offset",
     "component_value":-136
    },
    {
     "kind":"offset_to_top",
     "component_value":-136
    },
    {
     "kind":"rtti",
     "mangled_component_name":"_ZTIN7android8hardware13tetheroffload6config4V1_017BnHwOffloadConfigE"
    },
    {
     "kind":"complete_dtor_pointer",
     "mangled_component_name":"_ZTv0_n24_N7android8hardware13tetheroffload6config4V1_017BnHwOffloadConfigD1Ev"
    },
    {
     "kind":"deleting_dtor_pointer",
     "mangled_component_name":"_ZTv0_n24_N7android8hardware13tetheroffload6config4V1_017BnHwOffloadConfigD0Ev"
    },
    {
     "mangled_component_name":"_ZN7android7RefBase10onFirstRefEv"
    },
    {
     "mangled_component_name":"_ZN7android7RefBase15onLastStrongRefEPKv"
    },
    {
     "mangled_component_name":"_ZN7android7RefBase20onIncStrongAttemptedEjPKv"
    },
    {
     "mangled_component_name":"_ZN7android7RefBase13onLastWeakRefEPKv"
    }
   ],
   "unique_id":"_ZTSN7android8hardware13tetheroffload6config4V1_017BnHwOffloadConfigE"
  },
  {
   "vtable_components":[
    {
     "kind":"vbase_offset",
     "component_value":120
    },
    {
     "kind":"offset_to_top"
    },
    {
     "kind":"rtti",
     "mangled_component_name":"_ZTIN7android8hardware13tetheroffload6config4V1_015BsOffloadConfigE"
    },
    {
     "mangled_component_name":"_ZNK7android8hardware13tetheroffload6config4V1_014IOffloadConfig8isRemoteEv"
    },
    {
     "mangled_component_name":"_ZN7android8hardware13tetheroffload6config4V1_015BsOffloadConfig14interfaceChainENSt3__18functionIFvRKNS0_8hidl_vecINS0_11hidl_stringEEEEEE"
    },
    {
     "mangled_component_name":"_ZN7android8hardware13tetheroffload6config4V1_015BsOffloadConfig5debugERKNS0_11hidl_handleERKNS0_8hidl_vecINS0_11hidl_stringEEE"
    },
    {
     "mangled_component_name":"_ZN7android8hardware13tetheroffload6config4V1_015BsOffloadConfig19interfaceDescriptorENSt3__18functionIFvRKNS0_11hidl_stringEEEE"
    },
    {
     "mangled_component_name":"_ZN7android8hardware13tetheroffload6config4V1_015BsOffloadConfig12getHashChainENSt3__18functionIFvRKNS0_8hidl_vecINS0_10hidl_arrayIhLm32EJEEEEEEEE"
    },
    {
     "mangled_component_name":"_ZN7android8hardware13tetheroffload6config4V1_015BsOffloadConfig21setHALInstrumentationEv"
    },
    {
     "mangled_component_name":"_ZN7android8hardware13tetheroffload6config4V1_015BsOffloadConfig11linkToDeathERKNS_2spINS0_20hidl_death_recipientEEEm"
    },
    {
     "mangled_component_name":"_ZN7android8hardware13tetheroffload6config4V1_015BsOffloadConfig4pingEv"
    },
    {
     "mangled_component_name":"_ZN7android8hardware13tetheroffload6config4V1_015BsOffloadConfig12getDebugInfoENSt3__18functionIFvRKNS_4hidl4base4V1_09DebugInfoEEEE"
    },
    {
     "mangled_component_name":"_ZN7android8hardware13tetheroffload6config4V1_015BsOffloadConfig21notifySyspropsChangedEv"
    },
    {
     "mangled_component_name":"_ZN7android8hardware13tetheroffload6config4V1_015BsOffloadConfig13unlinkToDeathERKNS_2spINS0_20hidl_death_recipientEEE"
    },
    {
     "kind":"complete_dtor_pointer",
     "mangled_component_name":"_ZN7android8hardware13tetheroffload6config4V1_015BsOffloadConfigD1Ev"
    },
    {
     "kind":"deleting_dtor_pointer",
     "mangled_component_name":"_ZN7android8hardware13tetheroffload6config4V1_015BsOffloadConfigD0Ev"
    },
    {
     "mangled_component_name":"_ZN7android8hardware13tetheroffload6config4V1_015BsOffloadConfig10setHandlesERKNS0_11hidl_handleES7_NSt3__18functionIFvbRKNS0_11hidl_stringEEEE"
    },
    {
     "kind":"offset_to_top",
     "component_value":-8
    },
    {
     "kind":"rtti",
     "mangled_component_name":"_ZTIN7android8hardware13tetheroffload6config4V1_015BsOffloadConfigE"
    },
    {
     "kind":"complete_dtor_pointer",
     "mangled_component_name":"_ZThn8_N7android8hardware13tetheroffload6config4V1_015BsOffloadConfigD1Ev"
    },
    {
     "kind":"deleting_dtor_pointer",
     "mangled_component_name":"_ZThn8_N7android8hardware13tetheroffload6config4V1_015BsOffloadConfigD0Ev"
    },
    {
     "kind":"vcall_offset"
    },
    {
     "kind":"vcall_offset"
    },
    {
     "kind":"vcall_offset"
    },
    {
     "kind":"vcall_offset"
    },
    {
     "kind":"vcall_offset",
     "component_value":-120
    },
    {
     "kind":"offset_to_top",
     "component_value":-120
    },
    {
     "kind":"rtti",
     "mangled_component_name":"_ZTIN7android8hardware13tetheroffload6config4V1_015BsOffloadConfigE"
    },
    {
     "kind":"complete_dtor_pointer",
     "mangled_component_name":"_ZTv0_n24_N7android8hardware13tetheroffload6config4V1_015BsOffloadConfigD1Ev"
    },
    {
     "kind":"deleting_dtor_pointer",
     "mangled_component_name":"_ZTv0_n24_N7android8hardware13tetheroffload6config4V1_015BsOffloadConfigD0Ev"
    },
    {
     "mangled_component_name":"_ZN7android7RefBase10onFirstRefEv"
    },
    {
     "mangled_component_name":"_ZN7android7RefBase15onLastStrongRefEPKv"
    },
    {
     "mangled_component_name":"_ZN7android7RefBase20onIncStrongAttemptedEjPKv"
    },
    {
     "mangled_component_name":"_ZN7android7RefBase13onLastWeakRefEPKv"
    }
   ],
   "unique_id":"_ZTSN7android8hardware13tetheroffload6config4V1_015BsOffloadConfigE"
  },
  {
   "vtable_components":[
    {
     "kind":"vbase_offset",
     "component_value":200
    },
    {
     "kind":"offset_to_top"
    },
    {
     "kind":"rtti",
     "mangled_component_name":"_ZTIN7android8hardware13tetheroffload6config4V1_017BpHwOffloadConfigE"
    },
    {
     "mangled_component_name":"_ZNK7android8hardware13tetheroffload6config4V1_017BpHwOffloadConfig8isRemoteEv"
    },
    {
     "mangled_component_name":"_ZN7android8hardware13tetheroffload6config4V1_017BpHwOffloadConfig14interfaceChainENSt3__18functionIFvRKNS0_8hidl_vecINS0_11hidl_stringEEEEEE"
    },
    {
     "mangled_component_name":"_ZN7android8hardware13tetheroffload6config4V1_017BpHwOffloadConfig5debugERKNS0_11hidl_handleERKNS0_8hidl_vecINS0_11hidl_stringEEE"
    },
    {
     "mangled_component_name":"_ZN7android8hardware13tetheroffload6config4V1_017BpHwOffloadConfig19interfaceDescriptorENSt3__18functionIFvRKNS0_11hidl_stringEEEE"
    },
    {
     "mangled_component_name":"_ZN7android8hardware13tetheroffload6config4V1_017BpHwOffloadConfig12getHashChainENSt3__18functionIFvRKNS0_8hidl_vecINS0_10hidl_arrayIhLm32EJEEEEEEEE"
    },
    {
     "mangled_component_name":"_ZN7android8hardware13tetheroffload6config4V1_017BpHwOffloadConfig21setHALInstrumentationEv"
    },
    {
     "mangled_component_name":"_ZN7android8hardware13tetheroffload6config4V1_017BpHwOffloadConfig11linkToDeathERKNS_2spINS0_20hidl_death_recipientEEEm"
    },
    {
     "mangled_component_name":"_ZN7android8hardware13tetheroffload6config4V1_017BpHwOffloadConfig4pingEv"
    },
    {
     "mangled_component_name":"_ZN7android8hardware13tetheroffload6config4V1_017BpHwOffloadConfig12getDebugInfoENSt3__18functionIFvRKNS_4hidl4base4V1_09DebugInfoEEEE"
    },
    {
     "mangled_component_name":"_ZN7android8hardware13tetheroffload6config4V1_017BpHwOffloadConfig21notifySyspropsChangedEv"
    },
    {
     "mangled_component_name":"_ZN7android8hardware13tetheroffload6config4V1_017BpHwOffloadConfig13unlinkToDeathERKNS_2spINS0_20hidl_death_recipientEEE"
    },
    {
     "kind":"complete_dtor_pointer",
     "mangled_component_name":"_ZN7android8hardware13tetheroffload6config4V1_017BpHwOffloadConfigD1Ev"
    },
    {
     "kind":"deleting_dtor_pointer",
     "mangled_component_name":"_ZN7android8hardware13tetheroffload6config4V1_017BpHwOffloadConfigD0Ev"
    },
    {
     "mangled_component_name":"_ZN7android8hardware13tetheroffload6config4V1_017BpHwOffloadConfig10setHandlesERKNS0_11hidl_handleES7_NSt3__18functionIFvbRKNS0_11hidl_stringEEEE"
    },
    {
     "mangled_component_name":"_ZN7android8hardware11BpInterfaceINS0_13tetheroffload6config4V1_014IOffloadConfigEE10onAsBinderEv"
    },
    {
     "kind":"vbase_offset",
     "component_value":192
    },
    {
     "kind":"offset_to_top",
     "component_value":-8
    },
    {
     "kind":"rtti",
     "mangled_component_name":"_ZTIN7android8hardware13tetheroffload6config4V1_017BpHwOffloadConfigE"
    },
    {
     "kind":"complete_dtor_pointer",
     "mangled_component_name":"_ZThn8_N7android8hardware13tetheroffload6config4V1_017BpHwOffloadConfigD1Ev"
    },
    {
     "kind":"deleting_dtor_pointer",
     "mangled_component_name":"_ZThn8_N7android8hardware13tetheroffload6config4V1_017BpHwOffloadConfigD0Ev"
    },
    {
     "mangled_component_name":"_ZThn8_N7android8hardware11BpInterfaceINS0_13tetheroffload6config4V1_014IOffloadConfigEE10onAsBinderEv"
    },
    {
     "kind":"vbase_offset",
     "component_value":184
    },
    {
     "kind":"offset_to_top",
     "component_value":-16
    },
    {
     "kind":"rtti",
     "mangled_component_name":"_ZTIN7android8hardware13tetheroffload6config4V1_017BpHwOffloadConfigE"
    },
    {
     "kind":"complete_dtor_pointer",
     "mangled_component_name":"_ZThn16_N7android8hardware13tetheroffload6config4V1_017BpHwOffloadConfigD1Ev"
    },
    {
     "kind":"deleting_dtor_pointer",
     "mangled_component_name":"_ZThn16_N7android8hardware13tetheroffload6config4V1_017BpHwOffloadConfigD0Ev"
    },
    {
     "mangled_component_name":"_ZN7android8hardware11BpHwRefBase10onFirstRefEv"
    },
    {
     "mangled_component_name":"_ZN7android8hardware11BpHwRefBase15onLastStrongRefEPKv"
    },
    {
     "mangled_component_name":"_ZN7android8hardware11BpHwRefBase20onIncStrongAttemptedEjPKv"
    },
    {
     "kind":"offset_to_top",
     "component_value":-48
    },
    {
     "kind":"rtti",
     "mangled_component_name":"_ZTIN7android8hardware13tetheroffload6config4V1_017BpHwOffloadConfigE"
    },
    {
     "kind":"complete_dtor_pointer",
     "mangled_component_name":"_ZThn48_N7android8hardware13tetheroffload6config4V1_017BpHwOffloadConfigD1Ev"
    },
    {
     "kind":"deleting_dtor_pointer",
     "mangled_component_name":"_ZThn48_N7android8hardware13tetheroffload6config4V1_017BpHwOffloadConfigD0Ev"
    },
    {
     "kind":"vcall_offset"
    },
    {
     "kind":"vcall_offset",
     "component_value":-184
    },
    {
     "kind":"vcall_offset",
     "component_value":-184
    },
    {
     "kind":"vcall_offset",
     "component_value":-184
    },
    {
     "kind":"vcall_offset",
     "component_value":-200
    },
    {
     "kind":"offset_to_top",
     "component_value":-200
    },
    {
     "kind":"rtti",
     "mangled_component_name":"_ZTIN7android8hardware13tetheroffload6config4V1_017BpHwOffloadConfigE"
    },
    {
     "kind":"complete_dtor_pointer",
     "mangled_component_name":"_ZTv0_n24_N7android8hardware13tetheroffload6config4V1_017BpHwOffloadConfigD1Ev"
    },
    {
     "kind":"deleting_dtor_pointer",
     "mangled_component_name":"_ZTv0_n24_N7android8hardware13tetheroffload6config4V1_017BpHwOffloadConfigD0Ev"
    },
    {
     "mangled_component_name":"_ZTv0_n32_N7android8hardware11BpHwRefBase10onFirstRefEv"
    },
    {
     "mangled_component_name":"_ZTv0_n40_N7android8hardware11BpHwRefBase15onLastStrongRefEPKv"
    },
    {
     "mangled_component_name":"_ZTv0_n48_N7android8hardware11BpHwRefBase20onIncStrongAttemptedEjPKv"
    },
    {
     "mangled_component_name":"_ZN7android7RefBase13onLastWeakRefEPKv"
    }
   ],
   "unique_id":"_ZTSN7android8hardware13tetheroffload6config4V1_017BpHwOffloadConfigE"
  },
  {
   "vtable_components":[
    {
     "kind":"vbase_offset",
     "component_value":8
    },
    {
     "kind":"offset_to_top"
    },
    {
     "kind":"rtti",
     "mangled_component_name":"_ZTIN7android8hardware13tetheroffload6config4V1_014IOffloadConfigE"
    },
    {
     "mangled_component_name":"_ZNK7android8hardware13tetheroffload6config4V1_014IOffloadConfig8isRemoteEv"
    },
    {
     "mangled_component_name":"_ZN7android8hardware13tetheroffload6config4V1_014IOffloadConfig14interfaceChainENSt3__18functionIFvRKNS0_8hidl_vecINS0_11hidl_stringEEEEEE"
    },
    {
     "mangled_component_name":"_ZN7android8hardware13tetheroffload6config4V1_014IOffloadConfig5debugERKNS0_11hidl_handleERKNS0_8hidl_vecINS0_11hidl_stringEEE"
    },
    {
     "mangled_component_name":"_ZN7android8hardware13tetheroffload6config4V1_014IOffloadConfig19interfaceDescriptorENSt3__18functionIFvRKNS0_11hidl_stringEEEE"
    },
    {
     "mangled_component_name":"_ZN7android8hardware13tetheroffload6config4V1_014IOffloadConfig12getHashChainENSt3__18functionIFvRKNS0_8hidl_vecINS0_10hidl_arrayIhLm32EJEEEEEEEE"
    },
    {
     "mangled_component_name":"_ZN7android8hardware13tetheroffload6config4V1_014IOffloadConfig21setHALInstrumentationEv"
    },
    {
     "mangled_component_name":"_ZN7android8hardware13tetheroffload6config4V1_014IOffloadConfig11linkToDeathERKNS_2spINS0_20hidl_death_recipientEEEm"
    },
    {
     "mangled_component_name":"_ZN7android8hardware13tetheroffload6config4V1_014IOffloadConfig4pingEv"
    },
    {
     "mangled_component_name":"_ZN7android8hardware13tetheroffload6config4V1_014IOffloadConfig12getDebugInfoENSt3__18functionIFvRKNS_4hidl4base4V1_09DebugInfoEEEE"
    },
    {
     "mangled_component_name":"_ZN7android8hardware13tetheroffload6config4V1_014IOffloadConfig21notifySyspropsChangedEv"
    },
    {
     "mangled_component_name":"_ZN7android8hardware13tetheroffload6config4V1_014IOffloadConfig13unlinkToDeathERKNS_2spINS0_20hidl_death_recipientEEE"
    },
    {
     "kind":"complete_dtor_pointer",
     "mangled_component_name":"_ZN7android8hardware13tetheroffload6config4V1_014IOffloadConfigD1Ev"
    },
    {
     "kind":"deleting_dtor_pointer",
     "mangled_component_name":"_ZN7android8hardware13tetheroffload6config4V1_014IOffloadConfigD0Ev"
    },
    {
     "is_pure":true,
     "mangled_component_name":"_ZN7android8hardware13tetheroffload6config4V1_014IOffloadConfig10setHandlesERKNS0_11hidl_handleES7_NSt3__18functionIFvbRKNS0_11hidl_stringEEEE"
    },
    {
     "kind":"vcall_offset"
    },
    {
     "kind":"vcall_offset"
    },
    {
     "kind":"vcall_offset"
    },
    {
     "kind":"vcall_offset"
    },
    {
     "kind":"vcall_offset",
     "component_value":-8
    },
    {
     "kind":"offset_to_top",
     "component_value":-8
    },
    {
     "kind":"rtti",
     "mangled_component_name":"_ZTIN7android8hardware13tetheroffload6config4V1_014IOffloadConfigE"
    },
    {
     "kind":"complete_dtor_pointer",
     "mangled_component_name":"_ZTv0_n24_N7android8hardware13tetheroffload6config4V1_014IOffloadConfigD1Ev"
    },
    {
     "kind":"deleting_dtor_pointer",
     "mangled_component_name":"_ZTv0_n24_N7android8hardware13tetheroffload6config4V1_014IOffloadConfigD0Ev"
    },
    {
     "mangled_component_name":"_ZN7android7RefBase10onFirstRefEv"
    },
    {
     "mangled_component_name":"_ZN7android7RefBase15onLastStrongRefEPKv"
    },
    {
     "mangled_component_name":"_ZN7android7RefBase20onIncStrongAttemptedEjPKv"
    },
    {
     "mangled_component_name":"_ZN7android7RefBase13onLastWeakRefEPKv"
    }
   ],
   "unique_id":"_ZTSN7android8hardware13tetheroffload6config4V1_014IOffloadConfigE"
  }
 ],
 "elf_functions":[
  {
   "name":"_ZN7android8hardware13tetheroffload6config4V1_014IOffloadConfig10getServiceERKNSt3__112basic_stringIcNS5_11char_traitsIcEENS5_9allocatorIcEEEEb"
  },
  {
   "name":"_ZN7android8hardware13tetheroffload6config4V1_014IOffloadConfig11linkToDeathERKNS_2spINS0_20hidl_death_recipientEEEm"
  },
  {
   "name":"_ZN7android8hardware13tetheroffload6config4V1_014IOffloadConfig12getDebugInfoENSt3__18functionIFvRKNS_4hidl4base4V1_09DebugInfoEEEE"
  },
  {
   "name":"_ZN7android8hardware13tetheroffload6config4V1_014IOffloadConfig12getHashChainENSt3__18functionIFvRKNS0_8hidl_vecINS0_10hidl_arrayIhLm32EJEEEEEEEE"
  },
  {
   "name":"_ZN7android8hardware13tetheroffload6config4V1_014IOffloadConfig13tryGetServiceERKNSt3__112basic_stringIcNS5_11char_traitsIcEENS5_9allocatorIcEEEEb"
  },
  {
   "name":"_ZN7android8hardware13tetheroffload6config4V1_014IOffloadConfig13unlinkToDeathERKNS_2spINS0_20hidl_death_recipientEEE"
  },
  {
   "name":"_ZN7android8hardware13tetheroffload6config4V1_014IOffloadConfig14interfaceChainENSt3__18functionIFvRKNS0_8hidl_vecINS0_11hidl_stringEEEEEE"
  },
  {
   "name":"_ZN7android8hardware13tetheroffload6config4V1_014IOffloadConfig17registerAsServiceERKNSt3__112basic_stringIcNS5_11char_traitsIcEENS5_9allocatorIcEEEE"
  },
  {
   "name":"_ZN7android8hardware13tetheroffload6config4V1_014IOffloadConfig19interfaceDescriptorENSt3__18functionIFvRKNS0_11hidl_stringEEEE"
  },
  {
   "name":"_ZN7android8hardware13tetheroffload6config4V1_014IOffloadConfig21notifySyspropsChangedEv"
  },
  {
   "name":"_ZN7android8hardware13tetheroffload6config4V1_014IOffloadConfig21setHALInstrumentationEv"
  },
  {
   "name":"_ZN7android8hardware13tetheroffload6config4V1_014IOffloadConfig24registerForNotificationsERKNSt3__112basic_stringIcNS5_11char_traitsIcEENS5_9allocatorIcEEEERKNS_2spINS_4hidl7manager4V1_020IServiceNotificationEEE"
  },
  {
   "name":"_ZN7android8hardware13tetheroffload6config4V1_014IOffloadConfig4pingEv"
  },
  {
   "name":"_ZN7android8hardware13tetheroffload6config4V1_014IOffloadConfig5debugERKNS0_11hidl_handleERKNS0_8hidl_vecINS0_11hidl_stringEEE"
  },
  {
   "name":"_ZN7android8hardware13tetheroffload6config4V1_014IOffloadConfig8castFromERKNS_2spINS_4hidl4base4V1_05IBaseEEEb"
  },
  {
   "name":"_ZN7android8hardware13tetheroffload6config4V1_014IOffloadConfig8castFromERKNS_2spIS4_EEb"
  },
  {
   "name":"_ZN7android8hardware13tetheroffload6config4V1_015BsOffloadConfig13addOnewayTaskENSt3__18functionIFvvEEE"
  },
  {
   "name":"_ZN7android8hardware13tetheroffload6config4V1_015BsOffloadConfigC1ENS_2spINS3_14IOffloadConfigEEE"
  },
  {
   "name":"_ZN7android8hardware13tetheroffload6config4V1_015BsOffloadConfigC2ENS_2spINS3_14IOffloadConfigEEE"
  },
  {
   "name":"_ZN7android8hardware13tetheroffload6config4V1_017BnHwOffloadConfig10onTransactEjRKNS0_6ParcelEPS5_jNSt3__18functionIFvRS5_EEE"
  },
  {
   "name":"_ZN7android8hardware13tetheroffload6config4V1_017BnHwOffloadConfig12getDebugInfoENSt3__18functionIFvRKNS_4hidl4base4V1_09DebugInfoEEEE"
  },
  {
   "name":"_ZN7android8hardware13tetheroffload6config4V1_017BnHwOffloadConfig16_hidl_setHandlesEPNS_4hidl4base4V1_08BnHwBaseERKNS0_6ParcelEPSA_NSt3__18functionIFvRSA_EEE"
  },
  {
   "name":"_ZN7android8hardware13tetheroffload6config4V1_017BnHwOffloadConfig4pingEv"
  },
  {
   "name":"_ZN7android8hardware13tetheroffload6config4V1_017BnHwOffloadConfigC1ERKNS_2spINS3_14IOffloadConfigEEE"
  },
  {
   "name":"_ZN7android8hardware13tetheroffload6config4V1_017BnHwOffloadConfigC2ERKNS_2spINS3_14IOffloadConfigEEE"
  },
  {
   "name":"_ZN7android8hardware13tetheroffload6config4V1_017BnHwOffloadConfigD0Ev"
  },
  {
   "name":"_ZN7android8hardware13tetheroffload6config4V1_017BnHwOffloadConfigD1Ev"
  },
  {
   "name":"_ZN7android8hardware13tetheroffload6config4V1_017BnHwOffloadConfigD2Ev"
  },
  {
   "name":"_ZN7android8hardware13tetheroffload6config4V1_017BpHwOffloadConfig10setHandlesERKNS0_11hidl_handleES7_NSt3__18functionIFvbRKNS0_11hidl_stringEEEE"
  },
  {
   "name":"_ZN7android8hardware13tetheroffload6config4V1_017BpHwOffloadConfig11linkToDeathERKNS_2spINS0_20hidl_death_recipientEEEm"
  },
  {
   "name":"_ZN7android8hardware13tetheroffload6config4V1_017BpHwOffloadConfig12getDebugInfoENSt3__18functionIFvRKNS_4hidl4base4V1_09DebugInfoEEEE"
  },
  {
   "name":"_ZN7android8hardware13tetheroffload6config4V1_017BpHwOffloadConfig12getHashChainENSt3__18functionIFvRKNS0_8hidl_vecINS0_10hidl_arrayIhLm32EJEEEEEEEE"
  },
  {
   "name":"_ZN7android8hardware13tetheroffload6config4V1_017BpHwOffloadConfig13unlinkToDeathERKNS_2spINS0_20hidl_death_recipientEEE"
  },
  {
   "name":"_ZN7android8hardware13tetheroffload6config4V1_017BpHwOffloadConfig14interfaceChainENSt3__18functionIFvRKNS0_8hidl_vecINS0_11hidl_stringEEEEEE"
  },
  {
   "name":"_ZN7android8hardware13tetheroffload6config4V1_017BpHwOffloadConfig16_hidl_setHandlesEPNS0_10IInterfaceEPNS0_7details16HidlInstrumentorERKNS0_11hidl_handleESC_NSt3__18functionIFvbRKNS0_11hidl_stringEEEE"
  },
  {
   "name":"_ZN7android8hardware13tetheroffload6config4V1_017BpHwOffloadConfig19interfaceDescriptorENSt3__18functionIFvRKNS0_11hidl_stringEEEE"
  },
  {
   "name":"_ZN7android8hardware13tetheroffload6config4V1_017BpHwOffloadConfig21notifySyspropsChangedEv"
  },
  {
   "name":"_ZN7android8hardware13tetheroffload6config4V1_017BpHwOffloadConfig21setHALInstrumentationEv"
  },
  {
   "name":"_ZN7android8hardware13tetheroffload6config4V1_017BpHwOffloadConfig4pingEv"
  },
  {
   "name":"_ZN7android8hardware13tetheroffload6config4V1_017BpHwOffloadConfig5debugERKNS0_11hidl_handleERKNS0_8hidl_vecINS0_11hidl_stringEEE"
  },
  {
   "name":"_ZN7android8hardware13tetheroffload6config4V1_017BpHwOffloadConfigC1ERKNS_2spINS0_7IBinderEEE"
  },
  {
   "name":"_ZN7android8hardware13tetheroffload6config4V1_017BpHwOffloadConfigC2ERKNS_2spINS0_7IBinderEEE"
  },
  {
   "binding":"weak",
   "name":"_ZN7android8hardware7details13castInterfaceINS0_13tetheroffload6config4V1_014IOffloadConfigENS_4hidl4base4V1_05IBaseENS5_17BpHwOffloadConfigEEENS0_6ReturnINS_2spIT_EEEENSD_IT0_EEPKcb"
  },
  {
   "binding":"weak",
   "name":"_ZN7android8hardware7details18getServiceInternalINS0_13tetheroffload6config4V1_017BpHwOffloadConfigENS5_14IOffloadConfigEvvEENS_2spIT0_EERKNSt3__112basic_stringIcNSB_11char_traitsIcEENSB_9allocatorIcEEEEbb"
  },
  {
   "binding":"weak",
   "name":"_ZN7android8hardware8toBinderINS_4hidl4base4V1_05IBaseEvEENS_2spINS0_7IBinderEEENS6_IT_EE"
  },
  {
   "name":"_ZThn32_N7android8hardware13tetheroffload6config4V1_017BnHwOffloadConfigD0Ev"
  },
  {
   "name":"_ZThn32_N7android8hardware13tetheroffload6config4V1_017BnHwOffloadConfigD1Ev"
  },
  {
   "name":"_ZTv0_n24_N7android8hardware13tetheroffload6config4V1_017BnHwOffloadConfigD0Ev"
  },
  {
   "name":"_ZTv0_n24_N7android8hardware13tetheroffload6config4V1_017BnHwOffloadConfigD1Ev"
  }
 ],
 "elf_objects":[
  {
   "name":"_ZN7android8hardware13tetheroffload6config4V1_014IOffloadConfig10descriptorE"
  },
  {
   "name":"_ZTTN7android8hardware13tetheroffload6config4V1_014IOffloadConfigE"
  },
  {
   "name":"_ZTTN7android8hardware13tetheroffload6config4V1_017BnHwOffloadConfigE"
  },
  {
   "name":"_ZTTN7android8hardware13tetheroffload6config4V1_017BpHwOffloadConfigE"
  },
  {
   "name":"_ZTVN7android8hardware13tetheroffload6config4V1_014IOffloadConfigE"
  },
  {
   "binding":"weak",
   "name":"_ZTVN7android8hardware13tetheroffload6config4V1_015BsOffloadConfigE"
  },
  {
   "name":"_ZTVN7android8hardware13tetheroffload6config4V1_017BnHwOffloadConfigE"
  },
  {
   "name":"_ZTVN7android8hardware13tetheroffload6config4V1_017BpHwOffloadConfigE"
  }
 ]
}