{
 "record_types":[
  {
   "vtable_components":[
    {
     "kind":"offset_to_top"
    },
    {
     "kind":"rtti",
     "mangled_component_name":"_ZTI25audio_utils_fifo_provider"
    },
    {
     "kind":"complete_dtor_pointer",
     "mangled_component_name":"_ZN25audio_utils_fifo_providerD1Ev"
    },
    {
     "kind":"deleting_dtor_pointer",
     "mangled_component_name":"_ZN25audio_utils_fifo_providerD0Ev"
    },
    {
     "is_pure":true,
     "mangled_component_name":"_ZN25audio_utils_fifo_provider6obtainEP17audio_utils_iovecmPK8timespec"
    },
    {
     "is_pure":true,
     "mangled_component_name":"_ZN25audio_utils_fifo_provider7releaseEm"
    },
    {
     "is_pure":true,
     "mangled_component_name":"_ZN25audio_utils_fifo_provider9availableEv"
    }
   ],
   "unique_id":"_ZTS25audio_utils_fifo_provider"
  },
  {
   "vtable_components":[
    {
     "kind":"offset_to_top"
    },
    {
     "kind":"rtti",
     "mangled_component_name":"_ZTI23audio_utils_fifo_writer"
    },
    {
     "kind":"complete_dtor_pointer",
     "mangled_component_name":"_ZN23audio_utils_fifo_writerD1Ev"
    },
    {
     "kind":"deleting_dtor_pointer",
     "mangled_component_name":"_ZN23audio_utils_fifo_writerD0Ev"
    },
    {
     "mangled_component_name":"_ZN23audio_utils_fifo_writer6obtainEP17audio_utils_iovecmPK8timespec"
    },
    {
     "mangled_component_name":"_ZN23audio_utils_fifo_writer7releaseEm"
    },
    {
     "mangled_component_name":"_ZN23audio_utils_fifo_writer9availableEv"
    }
   ],
   "unique_id":"_ZTS23audio_utils_fifo_writer"
  },
  {
   "vtable_components":[
    {
     "kind":"offset_to_top"
    },
    {
     "kind":"rtti",
     "mangled_component_name":"_ZTI23audio_utils_fifo_reader"
    },
    {
     "kind":"complete_dtor_pointer",
     "mangled_component_name":"_ZN23audio_utils_fifo_readerD1Ev"
    },
    {
     "kind":"deleting_dtor_pointer",
     "mangled_component_name":"_ZN23audio_utils_fifo_readerD0Ev"
    },
    {
     "mangled_component_name":"_ZN23audio_utils_fifo_reader6obtainEP17audio_utils_iovecmPK8timespec"
    },
    {
     "mangled_component_name":"_ZN23audio_utils_fifo_reader7releaseEm"
    },
    {
     "mangled_component_name":"_ZN23audio_utils_fifo_reader9availableEv"
    }
   ],
   "unique_id":"_ZTS23audio_utils_fifo_reader"
  }
 ],
 "elf_functions":[
  {
   "name":"_ZN16audio_utils_fifoC1EjjPvR22audio_utils_fifo_indexPS1_"
  },
  {
   "name":"_ZN16audio_utils_fifoC1EjjPvb"
  },
  {
   "name":"_ZN16audio_utils_fifoC2EjjPvR22audio_utils_fifo_indexPS1_"
  },
  {
   "name":"_ZN16audio_utils_fifoC2EjjPvb"
  },
  {
   "name":"_ZN16audio_utils_fifoD1Ev"
  },
  {
   "name":"_ZN16audio_utils_fifoD2Ev"
  },
  {
   "name":"_ZN21audio_utils_fifo_baseC1EjR22audio_utils_fifo_indexPS0_"
  },
  {
   "name":"_ZN21audio_utils_fifo_baseC2EjR22audio_utils_fifo_indexPS0_"
  },
  {
   "name":"_ZN21audio_utils_fifo_baseD1Ev"
  },
  {
   "name":"_ZN21audio_utils_fifo_baseD2Ev"
  },
  {
   "name":"_ZN22audio_utils_fifo_index11loadAcquireEv"
  },
  {
   "name":"_ZN22audio_utils_fifo_index11loadConsumeEv"
  },
  {
   "name":"_ZN22audio_utils_fifo_index12storeReleaseEj"
  },
  {
   "name":"_ZN22audio_utils_fifo_index4waitEijPK8timespec"
  },
  {
   "name":"_ZN22audio_utils_fifo_index4wakeEii"
  },
  {
   "name":"_ZN23audio_utils_fifo_reader13setHysteresisEij"
  },
  {
   "name":"_ZN23audio_utils_fifo_reader4readEPvmPK8timespecPm"
  },
  {
   "name":"_ZN23audio_utils_fifo_reader5flushEPm"
  },
  {
   "name":"_ZN23audio_utils_fifo_reader6obtainEP17audio_utils_iovecmPK8timespec"
  },
  {
   "name":"_ZN23audio_utils_fifo_reader6obtainEP17audio_utils_iovecmPK8timespecPm"
  },
  {
   "name":"_ZN23audio_utils_fifo_reader7releaseEm"
  },
  {
   "name":"_ZN23audio_utils_fifo_reader9availableEPm"
  },
  {
   "name":"_ZN23audio_utils_fifo_reader9availableEv"
  },
  {
   "name":"_ZN23audio_utils_fifo_readerC1ER16audio_utils_fifobb"
  },
  {
   "name":"_ZN23audio_utils_fifo_readerC2ER16audio_utils_fifobb"
  },
  {
   "name":"_ZN23audio_utils_fifo_readerD0Ev"
  },
  {
   "name":"_ZN23audio_utils_fifo_readerD1Ev"
  },
  {
   "name":"_ZN23audio_utils_fifo_readerD2Ev"
  },
  {
   "name":"_ZN23audio_utils_fifo_writer13setHysteresisEjj"
  },
  {
   "name":"_ZN23audio_utils_fifo_writer5writeEPKvmPK8timespec"
  },
  {
   "name":"_ZN23audio_utils_fifo_writer6obtainEP17audio_utils_iovecmPK8timespec"
  },
  {
   "name":"_ZN23audio_utils_fifo_writer6resizeEj"
  },
  {
   "name":"_ZN23audio_utils_fifo_writer7releaseEm"
  },
  {
   "name":"_ZN23audio_utils_fifo_writer9availableEv"
  },
  {
   "name":"_ZN23audio_utils_fifo_writerC1ER16audio_utils_fifo"
  },
  {
   "name":"_ZN23audio_utils_fifo_writerC2ER16audio_utils_fifo"
  },
  {
   "name":"_ZN23audio_utils_fifo_writerD0Ev"
  },
  {
   "name":"_ZN23audio_utils_fifo_writerD1Ev"
  },
  {
   "name":"_ZN23audio_utils_fifo_writerD2Ev"
  },
  {
   "name":"_ZN25audio_utils_fifo_providerC2ER16audio_utils_fifo"
  },
  {
   "name":"_ZN25audio_utils_fifo_providerD0Ev"
  },
  {
   "name":"_ZN25audio_utils_fifo_providerD1Ev"
  },
  {
   "name":"_ZN25audio_utils_fifo_providerD2Ev"
  },
  {
   "name":"_ZN25audio_utils_fifo_writer325writeEPKij"
  },
  {
   "name":"_ZN25audio_utils_fifo_writer32C1ER16audio_utils_fifo"
  },
  {
   "name":"_ZN25audio_utils_fifo_writer32C2ER16audio_utils_fifo"
  },
  {
   "name":"_ZN25audio_utils_fifo_writer32D1Ev"
  },
  {
   "name":"_ZN25audio_utils_fifo_writer32D2Ev"
  },
  {
   "name":"_ZN37RefIndexCachedLoadAcquireDeferredWait10invalidateEv"
  },
  {
   "name":"_ZN37RefIndexCachedLoadAcquireDeferredWait3getEv"
  },
  {
   "name":"_ZN37RefIndexCachedLoadAcquireDeferredWait4waitEiPK8timespec"
  },
  {
   "name":"_ZN37RefIndexCachedLoadAcquireDeferredWait8prefetchEv"
  },
  {
   "name":"_ZN37RefIndexCachedLoadAcquireDeferredWaitC1ER22audio_utils_fifo_index"
  },
  {
   "name":"_ZN37RefIndexCachedLoadAcquireDeferredWaitC2ER22audio_utils_fifo_index"
  },
  {
   "name":"_ZN37RefIndexCachedLoadAcquireDeferredWaitD1Ev"
  },
  {
   "name":"_ZN37RefIndexCachedLoadAcquireDeferredWaitD2Ev"
  },
  {
   "name":"_ZN40RefIndexDeferredStoreReleaseDeferredWake12wakeDeferredEii"
  },
  {
   "name":"_ZN40RefIndexDeferredStoreReleaseDeferredWake12writethroughEj"
  },
  {
   "name":"_ZN40RefIndexDeferredStoreReleaseDeferredWake15wakeNowIfNeededEv"
  },
  {
   "name":"_ZN40RefIndexDeferredStoreReleaseDeferredWake3setEj"
  },
  {
   "name":"_ZN40RefIndexDeferredStoreReleaseDeferredWake7wakeNowEii"
  },
  {
   "name":"_ZN40RefIndexDeferredStoreReleaseDeferredWake9writebackEv"
  },
  {
   "name":"_ZN40RefIndexDeferredStoreReleaseDeferredWakeC1ER22audio_utils_fifo_index"
  },
  {
   "name":"_ZN40RefIndexDeferredStoreReleaseDeferredWakeC2ER22audio_utils_fifo_index"
  },
  {
   "name":"_ZN40RefIndexDeferredStoreReleaseDeferredWakeD1Ev"
  },
  {
   "name":"_ZN40RefIndexDeferredStoreReleaseDeferredWakeD2Ev"
  },
  {
   "name":"_ZN7android8PowerLog3logEPKvml"
  },
  {
   "name":"_ZN7android8PowerLogC1Ejj14audio_format_tmm"
  },
  {
   "name":"_ZN7android8PowerLogC2Ejj14audio_format_tmm"
  },
  {
   "name":"_ZNK21audio_utils_fifo_base3sumEjj"
  },
  {
   "name":"_ZNK21audio_utils_fifo_base4diffEjjPmb"
  },
  {
   "name":"_ZNK21audio_utils_fifo_base8shutdownEv"
  },
  {
   "name":"_ZNK23audio_utils_fifo_reader13getHysteresisEPiPj"
  },
  {
   "name":"_ZNK23audio_utils_fifo_writer13getHysteresisEPjS0_"
  },
  {
   "name":"_ZNK23audio_utils_fifo_writer4sizeEv"
  },
  {
   "name":"_ZNK7android8PowerLog12dumpToStringEPKcml"
  },
  {
   "name":"_ZNK7android8PowerLog4dumpEiPKcml"
  },
  {
   "name":"accumulate_float"
  },
  {
   "name":"accumulate_i16"
  },
  {
   "name":"accumulate_i32"
  },
  {
   "name":"accumulate_p24"
  },
  {
   "name":"accumulate_q8_23"
  },
  {
   "name":"accumulate_u8"
  },
  {
   "name":"adjust_channels"
  },
  {
   "name":"adjust_selected_channels"
  },
  {
   "name":"audio_utils_compute_energy_mono"
  },
  {
   "name":"audio_utils_compute_power_mono"
  },
  {
   "name":"audio_utils_is_compute_power_format_supported"
  },
  {
   "name":"create_echo_reference"
  },
  {
   "name":"create_resampler"
  },
  {
   "name":"ditherAndClamp"
  },
  {
   "name":"downmix_to_mono_float_from_stereo_float"
  },
  {
   "name":"downmix_to_mono_i16_from_stereo_i16"
  },
  {
   "name":"error_log_create"
  },
  {
   "name":"error_log_destroy"
  },
  {
   "name":"error_log_dump"
  },
  {
   "name":"error_log_log"
  },
  {
   "name":"fixed_fft_real"
  },
  {
   "name":"float_from_gain"
  },
  {
   "name":"gain_from_float"
  },
  {
   "name":"limiter"
  },
  {
   "name":"memcpy_by_audio_format"
  },
  {
   "name":"memcpy_by_channel_mask"
  },
  {
   "name":"memcpy_by_index_array"
  },
  {
   "name":"memcpy_by_index_array_initialization"
  },
  {
   "name":"memcpy_by_index_array_initialization_dst_index"
  },
  {
   "name":"memcpy_by_index_array_initialization_from_channel_mask"
  },
  {
   "name":"memcpy_by_index_array_initialization_src_index"
  },
  {
   "name":"memcpy_to_float_from_float_with_clamping"
  },
  {
   "name":"memcpy_to_float_from_i16"
  },
  {
   "name":"memcpy_to_float_from_i32"
  },
  {
   "name":"memcpy_to_float_from_p24"
  },
  {
   "name":"memcpy_to_float_from_q4_27"
  },
  {
   "name":"memcpy_to_float_from_q8_23"
  },
  {
   "name":"memcpy_to_float_from_u8"
  },
  {
   "name":"memcpy_to_i16_from_float"
  },
  {
   "name":"memcpy_to_i16_from_i32"
  },
  {
   "name":"memcpy_to_i16_from_p24"
  },
  {
   "name":"memcpy_to_i16_from_q4_27"
  },
  {
   "name":"memcpy_to_i16_from_q8_23"
  },
  {
   "name":"memcpy_to_i16_from_u8"
  },
  {
   "name":"memcpy_to_i32_from_float"
  },
  {
   "name":"memcpy_to_i32_from_i16"
  },
  {
   "name":"memcpy_to_i32_from_p24"
  },
  {
   "name":"memcpy_to_p24_from_float"
  },
  {
   "name":"memcpy_to_p24_from_i16"
  },
  {
   "name":"memcpy_to_p24_from_i32"
  },
  {
   "name":"memcpy_to_p24_from_q8_23"
  },
  {
   "name":"memcpy_to_q4_27_from_float"
  },
  {
   "name":"memcpy_to_q8_23_from_float_with_clamp"
  },
  {
   "name":"memcpy_to_q8_23_from_i16"
  },
  {
   "name":"memcpy_to_q8_23_from_p24"
  },
  {
   "name":"memcpy_to_u8_from_float"
  },
  {
   "name":"memcpy_to_u8_from_i16"
  },
  {
   "name":"mono_blend"
  },
  {
   "name":"nonZeroMono16"
  },
  {
   "name":"nonZeroMono32"
  },
  {
   "name":"nonZeroStereo16"
  },
  {
   "name":"nonZeroStereo32"
  },
  {
   "name":"power_log_create"
  },
  {
   "name":"power_log_destroy"
  },
  {
   "name":"power_log_dump"
  },
  {
   "name":"power_log_log"
  },
  {
   "name":"release_echo_reference"
  },
  {
   "name":"release_resampler"
  },
  {
   "name":"roundup"
  },
  {
   "name":"upmix_to_stereo_float_from_mono_float"
  },
  {
   "name":"upmix_to_stereo_i16_from_mono_i16"
  }
 ],
 "elf_objects":[
  {
   "name":"_ZTV23audio_utils_fifo_reader"
  },
  {
   "name":"_ZTV23audio_utils_fifo_writer"
  },
  {
   "name":"_ZTV25audio_utils_fifo_provider"
  }
 ]
}