{
 "record_types":[
  {
   "vtable_components":[
    {
     "kind":"offset_to_top"
    },
    {
     "kind":"rtti",
     "mangled_component_name":"_ZTIN7android8hardware7details16HidlInstrumentorE"
    },
    {
     "kind":"complete_dtor_pointer",
     "mangled_component_name":"_ZN7android8hardware7details16HidlInstrumentorD1Ev"
    },
    {
     "kind":"deleting_dtor_pointer",
     "mangled_component_name":"_ZN7android8hardware7details16HidlInstrumentorD0Ev"
    }
   ],
   "unique_id":"_ZTSN7android8hardware7details16HidlInstrumentorE"
  },
  {
   "vtable_components":[
    {
     "kind":"vbase_offset",
     "component_value":48
    },
    {
     "kind":"vbase_offset",
     "component_value":8
    },
    {
     "kind":"offset_to_top"
    },
    {
     "kind":"rtti",
     "mangled_component_name":"_ZTIN7android8hardware10HidlMemoryE"
    },
    {
     "kind":"complete_dtor_pointer",
     "mangled_component_name":"_ZN7android8hardware10HidlMemoryD1Ev"
    },
    {
     "kind":"deleting_dtor_pointer",
     "mangled_component_name":"_ZN7android8hardware10HidlMemoryD0Ev"
    },
    {
     "kind":"vcall_offset"
    },
    {
     "kind":"vcall_offset"
    },
    {
     "kind":"vcall_offset"
    },
    {
     "kind":"vcall_offset"
    },
    {
     "kind":"vcall_offset",
     "component_value":-48
    },
    {
     "kind":"offset_to_top",
     "component_value":-48
    },
    {
     "kind":"rtti",
     "mangled_component_name":"_ZTIN7android8hardware10HidlMemoryE"
    },
    {
     "kind":"complete_dtor_pointer",
     "mangled_component_name":"_ZTv0_n24_N7android8hardware10HidlMemoryD1Ev"
    },
    {
     "kind":"deleting_dtor_pointer",
     "mangled_component_name":"_ZTv0_n24_N7android8hardware10HidlMemoryD0Ev"
    },
    {
     "mangled_component_name":"_ZN7android7RefBase10onFirstRefEv"
    },
    {
     "mangled_component_name":"_ZN7android7RefBase15onLastStrongRefEPKv"
    },
    {
     "mangled_component_name":"_ZN7android7RefBase20onIncStrongAttemptedEjPKv"
    },
    {
     "mangled_component_name":"_ZN7android7RefBase13onLastWeakRefEPKv"
    }
   ],
   "unique_id":"_ZTSN7android8hardware10HidlMemoryE"
  }
 ],
 "elf_functions":[
  {
   "name":"_ZN7android8hardware10HidlMemory11getInstanceEONS0_11hidl_memoryE"
  },
  {
   "name":"_ZN7android8hardware10HidlMemory11getInstanceERKNS0_11hidl_memoryE"
  },
  {
   "name":"_ZN7android8hardware10HidlMemory11getInstanceERKNS0_11hidl_stringEim"
  },
  {
   "name":"_ZN7android8hardware10HidlMemoryC1ERKNS0_11hidl_stringEONS0_11hidl_handleEm"
  },
  {
   "name":"_ZN7android8hardware10HidlMemoryC1Ev"
  },
  {
   "name":"_ZN7android8hardware10HidlMemoryC2ERKNS0_11hidl_stringEONS0_11hidl_handleEm"
  },
  {
   "name":"_ZN7android8hardware10HidlMemoryC2Ev"
  },
  {
   "name":"_ZN7android8hardware10HidlMemoryD0Ev"
  },
  {
   "name":"_ZN7android8hardware10HidlMemoryD1Ev"
  },
  {
   "name":"_ZN7android8hardware10HidlMemoryD2Ev"
  },
  {
   "name":"_ZN7android8hardware11hidl_handle10freeHandleEv"
  },
  {
   "name":"_ZN7android8hardware11hidl_handle5setToEP13native_handleb"
  },
  {
   "name":"_ZN7android8hardware11hidl_handleC1EOS1_"
  },
  {
   "name":"_ZN7android8hardware11hidl_handleC1EPK13native_handle"
  },
  {
   "name":"_ZN7android8hardware11hidl_handleC1ERKS1_"
  },
  {
   "name":"_ZN7android8hardware11hidl_handleC1Ev"
  },
  {
   "name":"_ZN7android8hardware11hidl_handleC2EOS1_"
  },
  {
   "name":"_ZN7android8hardware11hidl_handleC2EPK13native_handle"
  },
  {
   "name":"_ZN7android8hardware11hidl_handleC2ERKS1_"
  },
  {
   "name":"_ZN7android8hardware11hidl_handleC2Ev"
  },
  {
   "name":"_ZN7android8hardware11hidl_handleD1Ev"
  },
  {
   "name":"_ZN7android8hardware11hidl_handleD2Ev"
  },
  {
   "name":"_ZN7android8hardware11hidl_handleaSEOS1_"
  },
  {
   "name":"_ZN7android8hardware11hidl_handleaSEPK13native_handle"
  },
  {
   "name":"_ZN7android8hardware11hidl_handleaSERKS1_"
  },
  {
   "name":"_ZN7android8hardware11hidl_string13setToExternalEPKcm"
  },
  {
   "name":"_ZN7android8hardware11hidl_string5clearEv"
  },
  {
   "name":"_ZN7android8hardware11hidl_string8copyFromEPKcm"
  },
  {
   "name":"_ZN7android8hardware11hidl_string8moveFromEOS1_"
  },
  {
   "name":"_ZN7android8hardware11hidl_stringC1EOS1_"
  },
  {
   "name":"_ZN7android8hardware11hidl_stringC1EPKc"
  },
  {
   "name":"_ZN7android8hardware11hidl_stringC1EPKcm"
  },
  {
   "name":"_ZN7android8hardware11hidl_stringC1ERKNSt3__112basic_stringIcNS2_11char_traitsIcEENS2_9allocatorIcEEEE"
  },
  {
   "name":"_ZN7android8hardware11hidl_stringC1ERKS1_"
  },
  {
   "name":"_ZN7android8hardware11hidl_stringC1Ev"
  },
  {
   "name":"_ZN7android8hardware11hidl_stringC2EOS1_"
  },
  {
   "name":"_ZN7android8hardware11hidl_stringC2EPKc"
  },
  {
   "name":"_ZN7android8hardware11hidl_stringC2EPKcm"
  },
  {
   "name":"_ZN7android8hardware11hidl_stringC2ERKNSt3__112basic_stringIcNS2_11char_traitsIcEENS2_9allocatorIcEEEE"
  },
  {
   "name":"_ZN7android8hardware11hidl_stringC2ERKS1_"
  },
  {
   "name":"_ZN7android8hardware11hidl_stringC2Ev"
  },
  {
   "name":"_ZN7android8hardware11hidl_stringD1Ev"
  },
  {
   "name":"_ZN7android8hardware11hidl_stringD2Ev"
  },
  {
   "name":"_ZN7android8hardware11hidl_stringaSEOS1_"
  },
  {
   "name":"_ZN7android8hardware11hidl_stringaSEPKc"
  },
  {
   "name":"_ZN7android8hardware11hidl_stringaSERKNSt3__112basic_stringIcNS2_11char_traitsIcEENS2_9allocatorIcEEEE"
  },
  {
   "name":"_ZN7android8hardware11hidl_stringaSERKS1_"
  },
  {
   "name":"_ZN7android8hardware6Status11fromStatusTEi"
  },
  {
   "name":"_ZN7android8hardware6Status12setExceptionEiPKc"
  },
  {
   "name":"_ZN7android8hardware6Status14setFromStatusTEi"
  },
  {
   "name":"_ZN7android8hardware6Status17fromExceptionCodeEi"
  },
  {
   "name":"_ZN7android8hardware6Status17fromExceptionCodeEiPKc"
  },
  {
   "name":"_ZN7android8hardware6Status2okEv"
  },
  {
   "name":"_ZN7android8hardware6StatusC1Eii"
  },
  {
   "name":"_ZN7android8hardware6StatusC1EiiPKc"
  },
  {
   "name":"_ZN7android8hardware6StatusC2Eii"
  },
  {
   "name":"_ZN7android8hardware6StatusC2EiiPKc"
  },
  {
   "name":"_ZN7android8hardware7details10TaskRunner4pushERKNSt3__18functionIFvvEEE"
  },
  {
   "name":"_ZN7android8hardware7details10TaskRunner5startEm"
  },
  {
   "name":"_ZN7android8hardware7details10TaskRunnerC1Ev"
  },
  {
   "name":"_ZN7android8hardware7details10TaskRunnerC2Ev"
  },
  {
   "name":"_ZN7android8hardware7details10TaskRunnerD1Ev"
  },
  {
   "name":"_ZN7android8hardware7details10TaskRunnerD2Ev"
  },
  {
   "name":"_ZN7android8hardware7details10debuggableEv"
  },
  {
   "name":"_ZN7android8hardware7details13return_statusD1Ev"
  },
  {
   "name":"_ZN7android8hardware7details13return_statusD2Ev"
  },
  {
   "name":"_ZN7android8hardware7details13return_statusaSEOS2_"
  },
  {
   "name":"_ZN7android8hardware7details14logAlwaysFatalEPKc"
  },
  {
   "name":"_ZN7android8hardware7details16HidlInstrumentor20isInstrumentationLibEPK6dirent"
  },
  {
   "name":"_ZN7android8hardware7details16HidlInstrumentor24configureInstrumentationEb"
  },
  {
   "name":"_ZN7android8hardware7details16HidlInstrumentor32registerInstrumentationCallbacksEPNSt3__16vectorINS3_8functionIFvNS2_20InstrumentationEventEPKcS8_S8_S8_PNS4_IPvNS3_9allocatorIS9_EEEEEEENSA_ISF_EEEE"
  },
  {
   "name":"_ZN7android8hardware7details16HidlInstrumentorC1ERKNSt3__112basic_stringIcNS3_11char_traitsIcEENS3_9allocatorIcEEEESB_"
  },
  {
   "name":"_ZN7android8hardware7details16HidlInstrumentorC2ERKNSt3__112basic_stringIcNS3_11char_traitsIcEENS3_9allocatorIcEEEESB_"
  },
  {
   "name":"_ZN7android8hardware7details16HidlInstrumentorD0Ev"
  },
  {
   "name":"_ZN7android8hardware7details16HidlInstrumentorD1Ev"
  },
  {
   "name":"_ZN7android8hardware7details16HidlInstrumentorD2Ev"
  },
  {
   "name":"_ZN7android8hardware7details17getVndkVersionStrEv"
  },
  {
   "name":"_ZN7android8hardwarelsERNSt3__113basic_ostreamIcNS1_11char_traitsIcEEEERKNS0_11hidl_stringE"
  },
  {
   "name":"_ZN7android8hardwarelsERNSt3__113basic_ostreamIcNS1_11char_traitsIcEEEERKNS0_6StatusE"
  },
  {
   "name":"_ZNK7android8hardware11hidl_handle15getNativeHandleEv"
  },
  {
   "name":"_ZNK7android8hardware11hidl_handlecvPK13native_handleEv"
  },
  {
   "name":"_ZNK7android8hardware11hidl_handleptEv"
  },
  {
   "name":"_ZNK7android8hardware11hidl_string4sizeEv"
  },
  {
   "name":"_ZNK7android8hardware11hidl_string5c_strEv"
  },
  {
   "name":"_ZNK7android8hardware11hidl_string5emptyEv"
  },
  {
   "name":"_ZNK7android8hardware11hidl_stringcvNSt3__112basic_stringIcNS2_11char_traitsIcEENS2_9allocatorIcEEEEEv"
  },
  {
   "name":"_ZNK7android8hardware6Status11descriptionEv"
  },
  {
   "name":"_ZNK7android8hardware7details13return_status8assertOkEv"
  },
  {
   "name":"_ZTv0_n24_N7android8hardware10HidlMemoryD0Ev"
  },
  {
   "name":"_ZTv0_n24_N7android8hardware10HidlMemoryD1Ev"
  }
 ],
 "elf_objects":[
  {
   "name":"_ZTTN7android8hardware10HidlMemoryE"
  },
  {
   "name":"_ZTVN7android8hardware10HidlMemoryE"
  },
  {
   "name":"_ZTVN7android8hardware7details16HidlInstrumentorE"
  }
 ]
}