{
 "record_types":[
  {
   "vtable_components":[
    {
     "kind":"offset_to_top"
    },
    {
     "kind":"rtti",
     "mangled_component_name":"_ZTIN6google8protobuf2io15GzipInputStreamE"
    },
    {
     "kind":"complete_dtor_pointer",
     "mangled_component_name":"_ZN6google8protobuf2io15GzipInputStreamD1Ev"
    },
    {
     "kind":"deleting_dtor_pointer",
     "mangled_component_name":"_ZN6google8protobuf2io15GzipInputStreamD0Ev"
    },
    {
     "mangled_component_name":"_ZN6google8protobuf2io15GzipInputStream4NextEPPKvPi"
    },
    {
     "mangled_component_name":"_ZN6google8protobuf2io15GzipInputStream6BackUpEi"
    },
    {
     "mangled_component_name":"_ZN6google8protobuf2io15GzipInputStream4SkipEi"
    },
    {
     "mangled_component_name":"_ZNK6google8protobuf2io15GzipInputStream9ByteCountEv"
    }
   ],
   "unique_id":"_ZTSN6google8protobuf2io15GzipInputStreamE"
  },
  {
   "vtable_components":[
    {
     "kind":"offset_to_top"
    },
    {
     "kind":"rtti",
     "mangled_component_name":"_ZTIN6google8protobuf2io16GzipOutputStreamE"
    },
    {
     "kind":"complete_dtor_pointer",
     "mangled_component_name":"_ZN6google8protobuf2io16GzipOutputStreamD1Ev"
    },
    {
     "kind":"deleting_dtor_pointer",
     "mangled_component_name":"_ZN6google8protobuf2io16GzipOutputStreamD0Ev"
    },
    {
     "mangled_component_name":"_ZN6google8protobuf2io16GzipOutputStream4NextEPPvPi"
    },
    {
     "mangled_component_name":"_ZN6google8protobuf2io16GzipOutputStream6BackUpEi"
    },
    {
     "mangled_component_name":"_ZNK6google8protobuf2io16GzipOutputStream9ByteCountEv"
    },
    {
     "mangled_component_name":"_ZN6google8protobuf2io20ZeroCopyOutputStream15WriteAliasedRawEPKvi"
    },
    {
     "mangled_component_name":"_ZNK6google8protobuf2io20ZeroCopyOutputStream14AllowsAliasingEv"
    }
   ],
   "unique_id":"_ZTSN6google8protobuf2io16GzipOutputStreamE"
  },
  {
   "vtable_components":[
    {
     "kind":"offset_to_top"
    },
    {
     "kind":"rtti",
     "mangled_component_name":"_ZTIN6google8protobuf8compiler28SourceTreeDescriptorDatabaseE"
    },
    {
     "kind":"complete_dtor_pointer",
     "mangled_component_name":"_ZN6google8protobuf8compiler28SourceTreeDescriptorDatabaseD1Ev"
    },
    {
     "kind":"deleting_dtor_pointer",
     "mangled_component_name":"_ZN6google8protobuf8compiler28SourceTreeDescriptorDatabaseD0Ev"
    },
    {
     "mangled_component_name":"_ZN6google8protobuf8compiler28SourceTreeDescriptorDatabase14FindFileByNameERKNSt3__112basic_stringIcNS3_11char_traitsIcEENS3_9allocatorIcEEEEPNS0_19FileDescriptorProtoE"
    },
    {
     "mangled_component_name":"_ZN6google8protobuf8compiler28SourceTreeDescriptorDatabase24FindFileContainingSymbolERKNSt3__112basic_stringIcNS3_11char_traitsIcEENS3_9allocatorIcEEEEPNS0_19FileDescriptorProtoE"
    },
    {
     "mangled_component_name":"_ZN6google8protobuf8compiler28SourceTreeDescriptorDatabase27FindFileContainingExtensionERKNSt3__112basic_stringIcNS3_11char_traitsIcEENS3_9allocatorIcEEEEiPNS0_19FileDescriptorProtoE"
    },
    {
     "mangled_component_name":"_ZN6google8protobuf18DescriptorDatabase23FindAllExtensionNumbersERKNSt3__112basic_stringIcNS2_11char_traitsIcEENS2_9allocatorIcEEEEPNS2_6vectorIiNS6_IiEEEE"
    }
   ],
   "unique_id":"_ZTSN6google8protobuf8compiler28SourceTreeDescriptorDatabaseE"
  },
  {
   "vtable_components":[
    {
     "kind":"offset_to_top"
    },
    {
     "kind":"rtti",
     "mangled_component_name":"_ZTIN6google8protobuf8compiler10SourceTreeE"
    },
    {
     "kind":"complete_dtor_pointer",
     "mangled_component_name":"_ZN6google8protobuf8compiler10SourceTreeD1Ev"
    },
    {
     "kind":"deleting_dtor_pointer",
     "mangled_component_name":"_ZN6google8protobuf8compiler10SourceTreeD0Ev"
    },
    {
     "is_pure":true,
     "mangled_component_name":"_ZN6google8protobuf8compiler10SourceTree4OpenERKNSt3__112basic_stringIcNS3_11char_traitsIcEENS3_9allocatorIcEEEE"
    },
    {
     "mangled_component_name":"_ZN6google8protobuf8compiler10SourceTree19GetLastErrorMessageEv"
    }
   ],
   "unique_id":"_ZTSN6google8protobuf8compiler10SourceTreeE"
  },
  {
   "vtable_components":[
    {
     "kind":"offset_to_top"
    },
    {
     "kind":"rtti",
     "mangled_component_name":"_ZTIN6google8protobuf8compiler23MultiFileErrorCollectorE"
    },
    {
     "kind":"complete_dtor_pointer",
     "mangled_component_name":"_ZN6google8protobuf8compiler23MultiFileErrorCollectorD1Ev"
    },
    {
     "kind":"deleting_dtor_pointer",
     "mangled_component_name":"_ZN6google8protobuf8compiler23MultiFileErrorCollectorD0Ev"
    },
    {
     "is_pure":true,
     "mangled_component_name":"_ZN6google8protobuf8compiler23MultiFileErrorCollector8AddErrorERKNSt3__112basic_stringIcNS3_11char_traitsIcEENS3_9allocatorIcEEEEiiSB_"
    },
    {
     "mangled_component_name":"_ZN6google8protobuf8compiler23MultiFileErrorCollector10AddWarningERKNSt3__112basic_stringIcNS3_11char_traitsIcEENS3_9allocatorIcEEEEiiSB_"
    }
   ],
   "unique_id":"_ZTSN6google8protobuf8compiler23MultiFileErrorCollectorE"
  },
  {
   "vtable_components":[
    {
     "kind":"offset_to_top"
    },
    {
     "kind":"rtti",
     "mangled_component_name":"_ZTIN6google8protobuf8compiler28SourceTreeDescriptorDatabase24ValidationErrorCollectorE"
    },
    {
     "kind":"complete_dtor_pointer",
     "mangled_component_name":"_ZN6google8protobuf8compiler28SourceTreeDescriptorDatabase24ValidationErrorCollectorD1Ev"
    },
    {
     "kind":"deleting_dtor_pointer",
     "mangled_component_name":"_ZN6google8protobuf8compiler28SourceTreeDescriptorDatabase24ValidationErrorCollectorD0Ev"
    },
    {
     "mangled_component_name":"_ZN6google8protobuf8compiler28SourceTreeDescriptorDatabase24ValidationErrorCollector8AddErrorERKNSt3__112basic_stringIcNS4_11char_traitsIcEENS4_9allocatorIcEEEESC_PKNS0_7MessageENS0_14DescriptorPool14ErrorCollector13ErrorLocationESC_"
    },
    {
     "mangled_component_name":"_ZN6google8protobuf8compiler28SourceTreeDescriptorDatabase24ValidationErrorCollector10AddWarningERKNSt3__112basic_stringIcNS4_11char_traitsIcEENS4_9allocatorIcEEEESC_PKNS0_7MessageENS0_14DescriptorPool14ErrorCollector13ErrorLocationESC_"
    }
   ],
   "unique_id":"_ZTSN6google8protobuf8compiler28SourceTreeDescriptorDatabase24ValidationErrorCollectorE"
  },
  {
   "vtable_components":[
    {
     "kind":"offset_to_top"
    },
    {
     "kind":"rtti",
     "mangled_component_name":"_ZTIN6google8protobuf8compiler14DiskSourceTreeE"
    },
    {
     "kind":"complete_dtor_pointer",
     "mangled_component_name":"_ZN6google8protobuf8compiler14DiskSourceTreeD1Ev"
    },
    {
     "kind":"deleting_dtor_pointer",
     "mangled_component_name":"_ZN6google8protobuf8compiler14DiskSourceTreeD0Ev"
    },
    {
     "mangled_component_name":"_ZN6google8protobuf8compiler14DiskSourceTree4OpenERKNSt3__112basic_stringIcNS3_11char_traitsIcEENS3_9allocatorIcEEEE"
    },
    {
     "mangled_component_name":"_ZN6google8protobuf8compiler14DiskSourceTree19GetLastErrorMessageEv"
    }
   ],
   "unique_id":"_ZTSN6google8protobuf8compiler14DiskSourceTreeE"
  },
  {
   "vtable_components":[
    {
     "kind":"offset_to_top"
    },
    {
     "kind":"rtti",
     "mangled_component_name":"_ZTIN6google8protobuf7strings22UncheckedArrayByteSinkE"
    },
    {
     "kind":"complete_dtor_pointer",
     "mangled_component_name":"_ZN6google8protobuf7strings22UncheckedArrayByteSinkD1Ev"
    },
    {
     "kind":"deleting_dtor_pointer",
     "mangled_component_name":"_ZN6google8protobuf7strings22UncheckedArrayByteSinkD0Ev"
    },
    {
     "mangled_component_name":"_ZN6google8protobuf7strings22UncheckedArrayByteSink6AppendEPKcm"
    },
    {
     "mangled_component_name":"_ZN6google8protobuf7strings8ByteSink5FlushEv"
    }
   ],
   "unique_id":"_ZTSN6google8protobuf7strings22UncheckedArrayByteSinkE"
  },
  {
   "vtable_components":[
    {
     "kind":"offset_to_top"
    },
    {
     "kind":"rtti",
     "mangled_component_name":"_ZTIN6google8protobuf4util15FieldComparatorE"
    },
    {
     "kind":"complete_dtor_pointer",
     "mangled_component_name":"_ZN6google8protobuf4util15FieldComparatorD1Ev"
    },
    {
     "kind":"deleting_dtor_pointer",
     "mangled_component_name":"_ZN6google8protobuf4util15FieldComparatorD0Ev"
    },
    {
     "is_pure":true,
     "mangled_component_name":"_ZN6google8protobuf4util15FieldComparator7CompareERKNS0_7MessageES5_PKNS0_15FieldDescriptorEiiPKNS1_12FieldContextE"
    }
   ],
   "unique_id":"_ZTSN6google8protobuf4util15FieldComparatorE"
  },
  {
   "vtable_components":[
    {
     "kind":"offset_to_top"
    },
    {
     "kind":"rtti",
     "mangled_component_name":"_ZTIN6google8protobuf4util22DefaultFieldComparatorE"
    },
    {
     "kind":"complete_dtor_pointer",
     "mangled_component_name":"_ZN6google8protobuf4util22DefaultFieldComparatorD1Ev"
    },
    {
     "kind":"deleting_dtor_pointer",
     "mangled_component_name":"_ZN6google8protobuf4util22DefaultFieldComparatorD0Ev"
    },
    {
     "mangled_component_name":"_ZN6google8protobuf4util22DefaultFieldComparator7CompareERKNS0_7MessageES5_PKNS0_15FieldDescriptorEiiPKNS1_12FieldContextE"
    }
   ],
   "unique_id":"_ZTSN6google8protobuf4util22DefaultFieldComparatorE"
  },
  {
   "vtable_components":[
    {
     "kind":"offset_to_top"
    },
    {
     "kind":"rtti",
     "mangled_component_name":"_ZTIN6google8protobuf4util9converter9DataPieceE"
    },
    {
     "kind":"complete_dtor_pointer",
     "mangled_component_name":"_ZN6google8protobuf4util9converter9DataPieceD1Ev"
    },
    {
     "kind":"deleting_dtor_pointer",
     "mangled_component_name":"_ZN6google8protobuf4util9converter9DataPieceD0Ev"
    }
   ],
   "unique_id":"_ZTSN6google8protobuf4util9converter9DataPieceE"
  },
  {
   "vtable_components":[
    {
     "kind":"offset_to_top"
    },
    {
     "kind":"rtti",
     "mangled_component_name":"_ZTIN6google8protobuf19FileDescriptorProtoE"
    },
    {
     "kind":"complete_dtor_pointer",
     "mangled_component_name":"_ZN6google8protobuf19FileDescriptorProtoD1Ev"
    },
    {
     "kind":"deleting_dtor_pointer",
     "mangled_component_name":"_ZN6google8protobuf19FileDescriptorProtoD0Ev"
    },
    {
     "mangled_component_name":"_ZNK6google8protobuf7Message11GetTypeNameEv"
    },
    {
     "mangled_component_name":"_ZNK6google8protobuf19FileDescriptorProto3NewEv"
    },
    {
     "mangled_component_name":"_ZNK6google8protobuf19FileDescriptorProto3NewEPNS0_5ArenaE"
    },
    {
     "mangled_component_name":"_ZNK6google8protobuf11MessageLite8GetArenaEv"
    },
    {
     "mangled_component_name":"_ZNK6google8protobuf11MessageLite20GetMaybeArenaPointerEv"
    },
    {
     "mangled_component_name":"_ZN6google8protobuf19FileDescriptorProto5ClearEv"
    },
    {
     "mangled_component_name":"_ZNK6google8protobuf19FileDescriptorProto13IsInitializedEv"
    },
    {
     "mangled_component_name":"_ZNK6google8protobuf7Message25InitializationErrorStringEv"
    },
    {
     "mangled_component_name":"_ZN6google8protobuf7Message21CheckTypeAndMergeFromERKNS0_11MessageLiteE"
    },
    {
     "mangled_component_name":"_ZN6google8protobuf19FileDescriptorProto27MergePartialFromCodedStreamEPNS0_2io16CodedInputStreamE"
    },
    {
     "mangled_component_name":"_ZNK6google8protobuf19FileDescriptorProto8ByteSizeEv"
    },
    {
     "mangled_component_name":"_ZNK6google8protobuf19FileDescriptorProto24SerializeWithCachedSizesEPNS0_2io17CodedOutputStreamE"
    },
    {
     "mangled_component_name":"_ZNK6google8protobuf19FileDescriptorProto31SerializeWithCachedSizesToArrayEPh"
    },
    {
     "mangled_component_name":"_ZNK6google8protobuf19FileDescriptorProto13GetCachedSizeEv"
    },
    {
     "mangled_component_name":"_ZN6google8protobuf19FileDescriptorProto8CopyFromERKNS0_7MessageE"
    },
    {
     "mangled_component_name":"_ZN6google8protobuf19FileDescriptorProto9MergeFromERKNS0_7MessageE"
    },
    {
     "mangled_component_name":"_ZN6google8protobuf7Message20DiscardUnknownFieldsEv"
    },
    {
     "mangled_component_name":"_ZNK6google8protobuf7Message9SpaceUsedEv"
    },
    {
     "mangled_component_name":"_ZNK6google8protobuf19FileDescriptorProto13SetCachedSizeEi"
    },
    {
     "mangled_component_name":"_ZNK6google8protobuf7Message13GetReflectionEv"
    },
    {
     "mangled_component_name":"_ZNK6google8protobuf19FileDescriptorProto11GetMetadataEv"
    }
   ],
   "unique_id":"_ZTSN6google8protobuf19FileDescriptorProtoE"
  },
  {
   "vtable_components":[
    {
     "kind":"offset_to_top"
    },
    {
     "kind":"rtti",
     "mangled_component_name":"_ZTIN6google8protobuf15DescriptorProtoE"
    },
    {
     "kind":"complete_dtor_pointer",
     "mangled_component_name":"_ZN6google8protobuf15DescriptorProtoD1Ev"
    },
    {
     "kind":"deleting_dtor_pointer",
     "mangled_component_name":"_ZN6google8protobuf15DescriptorProtoD0Ev"
    },
    {
     "mangled_component_name":"_ZNK6google8protobuf7Message11GetTypeNameEv"
    },
    {
     "mangled_component_name":"_ZNK6google8protobuf15DescriptorProto3NewEv"
    },
    {
     "mangled_component_name":"_ZNK6google8protobuf15DescriptorProto3NewEPNS0_5ArenaE"
    },
    {
     "mangled_component_name":"_ZNK6google8protobuf11MessageLite8GetArenaEv"
    },
    {
     "mangled_component_name":"_ZNK6google8protobuf11MessageLite20GetMaybeArenaPointerEv"
    },
    {
     "mangled_component_name":"_ZN6google8protobuf15DescriptorProto5ClearEv"
    },
    {
     "mangled_component_name":"_ZNK6google8protobuf15DescriptorProto13IsInitializedEv"
    },
    {
     "mangled_component_name":"_ZNK6google8protobuf7Message25InitializationErrorStringEv"
    },
    {
     "mangled_component_name":"_ZN6google8protobuf7Message21CheckTypeAndMergeFromERKNS0_11MessageLiteE"
    },
    {
     "mangled_component_name":"_ZN6google8protobuf15DescriptorProto27MergePartialFromCodedStreamEPNS0_2io16CodedInputStreamE"
    },
    {
     "mangled_component_name":"_ZNK6google8protobuf15DescriptorProto8ByteSizeEv"
    },
    {
     "mangled_component_name":"_ZNK6google8protobuf15DescriptorProto24SerializeWithCachedSizesEPNS0_2io17CodedOutputStreamE"
    },
    {
     "mangled_component_name":"_ZNK6google8protobuf15DescriptorProto31SerializeWithCachedSizesToArrayEPh"
    },
    {
     "mangled_component_name":"_ZNK6google8protobuf15DescriptorProto13GetCachedSizeEv"
    },
    {
     "mangled_component_name":"_ZN6google8protobuf15DescriptorProto8CopyFromERKNS0_7MessageE"
    },
    {
     "mangled_component_name":"_ZN6google8protobuf15DescriptorProto9MergeFromERKNS0_7MessageE"
    },
    {
     "mangled_component_name":"_ZN6google8protobuf7Message20DiscardUnknownFieldsEv"
    },
    {
     "mangled_component_name":"_ZNK6google8protobuf7Message9SpaceUsedEv"
    },
    {
     "mangled_component_name":"_ZNK6google8protobuf15DescriptorProto13SetCachedSizeEi"
    },
    {
     "mangled_component_name":"_ZNK6google8protobuf7Message13GetReflectionEv"
    },
    {
     "mangled_component_name":"_ZNK6google8protobuf15DescriptorProto11GetMetadataEv"
    }
   ],
   "unique_id":"_ZTSN6google8protobuf15DescriptorProtoE"
  },
  {
   "vtable_components":[
    {
     "kind":"offset_to_top"
    },
    {
     "kind":"rtti",
     "mangled_component_name":"_ZTIN6google8protobuf20FieldDescriptorProtoE"
    },
    {
     "kind":"complete_dtor_pointer",
     "mangled_component_name":"_ZN6google8protobuf20FieldDescriptorProtoD1Ev"
    },
    {
     "kind":"deleting_dtor_pointer",
     "mangled_component_name":"_ZN6google8protobuf20FieldDescriptorProtoD0Ev"
    },
    {
     "mangled_component_name":"_ZNK6google8protobuf7Message11GetTypeNameEv"
    },
    {
     "mangled_component_name":"_ZNK6google8protobuf20FieldDescriptorProto3NewEv"
    },
    {
     "mangled_component_name":"_ZNK6google8protobuf20FieldDescriptorProto3NewEPNS0_5ArenaE"
    },
    {
     "mangled_component_name":"_ZNK6google8protobuf11MessageLite8GetArenaEv"
    },
    {
     "mangled_component_name":"_ZNK6google8protobuf11MessageLite20GetMaybeArenaPointerEv"
    },
    {
     "mangled_component_name":"_ZN6google8protobuf20FieldDescriptorProto5ClearEv"
    },
    {
     "mangled_component_name":"_ZNK6google8protobuf20FieldDescriptorProto13IsInitializedEv"
    },
    {
     "mangled_component_name":"_ZNK6google8protobuf7Message25InitializationErrorStringEv"
    },
    {
     "mangled_component_name":"_ZN6google8protobuf7Message21CheckTypeAndMergeFromERKNS0_11MessageLiteE"
    },
    {
     "mangled_component_name":"_ZN6google8protobuf20FieldDescriptorProto27MergePartialFromCodedStreamEPNS0_2io16CodedInputStreamE"
    },
    {
     "mangled_component_name":"_ZNK6google8protobuf20FieldDescriptorProto8ByteSizeEv"
    },
    {
     "mangled_component_name":"_ZNK6google8protobuf20FieldDescriptorProto24SerializeWithCachedSizesEPNS0_2io17CodedOutputStreamE"
    },
    {
     "mangled_component_name":"_ZNK6google8protobuf20FieldDescriptorProto31SerializeWithCachedSizesToArrayEPh"
    },
    {
     "mangled_component_name":"_ZNK6google8protobuf20FieldDescriptorProto13GetCachedSizeEv"
    },
    {
     "mangled_component_name":"_ZN6google8protobuf20FieldDescriptorProto8CopyFromERKNS0_7MessageE"
    },
    {
     "mangled_component_name":"_ZN6google8protobuf20FieldDescriptorProto9MergeFromERKNS0_7MessageE"
    },
    {
     "mangled_component_name":"_ZN6google8protobuf7Message20DiscardUnknownFieldsEv"
    },
    {
     "mangled_component_name":"_ZNK6google8protobuf7Message9SpaceUsedEv"
    },
    {
     "mangled_component_name":"_ZNK6google8protobuf20FieldDescriptorProto13SetCachedSizeEi"
    },
    {
     "mangled_component_name":"_ZNK6google8protobuf7Message13GetReflectionEv"
    },
    {
     "mangled_component_name":"_ZNK6google8protobuf20FieldDescriptorProto11GetMetadataEv"
    }
   ],
   "unique_id":"_ZTSN6google8protobuf20FieldDescriptorProtoE"
  },
  {
   "vtable_components":[
    {
     "kind":"offset_to_top"
    },
    {
     "kind":"rtti",
     "mangled_component_name":"_ZTIN6google8protobuf12FieldOptionsE"
    },
    {
     "kind":"complete_dtor_pointer",
     "mangled_component_name":"_ZN6google8protobuf12FieldOptionsD1Ev"
    },
    {
     "kind":"deleting_dtor_pointer",
     "mangled_component_name":"_ZN6google8protobuf12FieldOptionsD0Ev"
    },
    {
     "mangled_component_name":"_ZNK6google8protobuf7Message11GetTypeNameEv"
    },
    {
     "mangled_component_name":"_ZNK6google8protobuf12FieldOptions3NewEv"
    },
    {
     "mangled_component_name":"_ZNK6google8protobuf12FieldOptions3NewEPNS0_5ArenaE"
    },
    {
     "mangled_component_name":"_ZNK6google8protobuf11MessageLite8GetArenaEv"
    },
    {
     "mangled_component_name":"_ZNK6google8protobuf11MessageLite20GetMaybeArenaPointerEv"
    },
    {
     "mangled_component_name":"_ZN6google8protobuf12FieldOptions5ClearEv"
    },
    {
     "mangled_component_name":"_ZNK6google8protobuf12FieldOptions13IsInitializedEv"
    },
    {
     "mangled_component_name":"_ZNK6google8protobuf7Message25InitializationErrorStringEv"
    },
    {
     "mangled_component_name":"_ZN6google8protobuf7Message21CheckTypeAndMergeFromERKNS0_11MessageLiteE"
    },
    {
     "mangled_component_name":"_ZN6google8protobuf12FieldOptions27MergePartialFromCodedStreamEPNS0_2io16CodedInputStreamE"
    },
    {
     "mangled_component_name":"_ZNK6google8protobuf12FieldOptions8ByteSizeEv"
    },
    {
     "mangled_component_name":"_ZNK6google8protobuf12FieldOptions24SerializeWithCachedSizesEPNS0_2io17CodedOutputStreamE"
    },
    {
     "mangled_component_name":"_ZNK6google8protobuf12FieldOptions31SerializeWithCachedSizesToArrayEPh"
    },
    {
     "mangled_component_name":"_ZNK6google8protobuf12FieldOptions13GetCachedSizeEv"
    },
    {
     "mangled_component_name":"_ZN6google8protobuf12FieldOptions8CopyFromERKNS0_7MessageE"
    },
    {
     "mangled_component_name":"_ZN6google8protobuf12FieldOptions9MergeFromERKNS0_7MessageE"
    },
    {
     "mangled_component_name":"_ZN6google8protobuf7Message20DiscardUnknownFieldsEv"
    },
    {
     "mangled_component_name":"_ZNK6google8protobuf7Message9SpaceUsedEv"
    },
    {
     "mangled_component_name":"_ZNK6google8protobuf12FieldOptions13SetCachedSizeEi"
    },
    {
     "mangled_component_name":"_ZNK6google8protobuf7Message13GetReflectionEv"
    },
    {
     "mangled_component_name":"_ZNK6google8protobuf12FieldOptions11GetMetadataEv"
    }
   ],
   "unique_id":"_ZTSN6google8protobuf12FieldOptionsE"
  },
  {
   "vtable_components":[
    {
     "kind":"offset_to_top"
    },
    {
     "kind":"rtti",
     "mangled_component_name":"_ZTIN6google8protobuf19UninterpretedOptionE"
    },
    {
     "kind":"complete_dtor_pointer",
     "mangled_component_name":"_ZN6google8protobuf19UninterpretedOptionD1Ev"
    },
    {
     "kind":"deleting_dtor_pointer",
     "mangled_component_name":"_ZN6google8protobuf19UninterpretedOptionD0Ev"
    },
    {
     "mangled_component_name":"_ZNK6google8protobuf7Message11GetTypeNameEv"
    },
    {
     "mangled_component_name":"_ZNK6google8protobuf19UninterpretedOption3NewEv"
    },
    {
     "mangled_component_name":"_ZNK6google8protobuf19UninterpretedOption3NewEPNS0_5ArenaE"
    },
    {
     "mangled_component_name":"_ZNK6google8protobuf11MessageLite8GetArenaEv"
    },
    {
     "mangled_component_name":"_ZNK6google8protobuf11MessageLite20GetMaybeArenaPointerEv"
    },
    {
     "mangled_component_name":"_ZN6google8protobuf19UninterpretedOption5ClearEv"
    },
    {
     "mangled_component_name":"_ZNK6google8protobuf19UninterpretedOption13IsInitializedEv"
    },
    {
     "mangled_component_name":"_ZNK6google8protobuf7Message25InitializationErrorStringEv"
    },
    {
     "mangled_component_name":"_ZN6google8protobuf7Message21CheckTypeAndMergeFromERKNS0_11MessageLiteE"
    },
    {
     "mangled_component_name":"_ZN6google8protobuf19UninterpretedOption27MergePartialFromCodedStreamEPNS0_2io16CodedInputStreamE"
    },
    {
     "mangled_component_name":"_ZNK6google8protobuf19UninterpretedOption8ByteSizeEv"
    },
    {
     "mangled_component_name":"_ZNK6google8protobuf19UninterpretedOption24SerializeWithCachedSizesEPNS0_2io17CodedOutputStreamE"
    },
    {
     "mangled_component_name":"_ZNK6google8protobuf19UninterpretedOption31SerializeWithCachedSizesToArrayEPh"
    },
    {
     "mangled_component_name":"_ZNK6google8protobuf19UninterpretedOption13GetCachedSizeEv"
    },
    {
     "mangled_component_name":"_ZN6google8protobuf19UninterpretedOption8CopyFromERKNS0_7MessageE"
    },
    {
     "mangled_component_name":"_ZN6google8protobuf19UninterpretedOption9MergeFromERKNS0_7MessageE"
    },
    {
     "mangled_component_name":"_ZN6google8protobuf7Message20DiscardUnknownFieldsEv"
    },
    {
     "mangled_component_name":"_ZNK6google8protobuf7Message9SpaceUsedEv"
    },
    {
     "mangled_component_name":"_ZNK6google8protobuf19UninterpretedOption13SetCachedSizeEi"
    },
    {
     "mangled_component_name":"_ZNK6google8protobuf7Message13GetReflectionEv"
    },
    {
     "mangled_component_name":"_ZNK6google8protobuf19UninterpretedOption11GetMetadataEv"
    }
   ],
   "unique_id":"_ZTSN6google8protobuf19UninterpretedOptionE"
  },
  {
   "vtable_components":[
    {
     "kind":"offset_to_top"
    },
    {
     "kind":"rtti",
     "mangled_component_name":"_ZTIN6google8protobuf28UninterpretedOption_NamePartE"
    },
    {
     "kind":"complete_dtor_pointer",
     "mangled_component_name":"_ZN6google8protobuf28UninterpretedOption_NamePartD1Ev"
    },
    {
     "kind":"deleting_dtor_pointer",
     "mangled_component_name":"_ZN6google8protobuf28UninterpretedOption_NamePartD0Ev"
    },
    {
     "mangled_component_name":"_ZNK6google8protobuf7Message11GetTypeNameEv"
    },
    {
     "mangled_component_name":"_ZNK6google8protobuf28UninterpretedOption_NamePart3NewEv"
    },
    {
     "mangled_component_name":"_ZNK6google8protobuf28UninterpretedOption_NamePart3NewEPNS0_5ArenaE"
    },
    {
     "mangled_component_name":"_ZNK6google8protobuf11MessageLite8GetArenaEv"
    },
    {
     "mangled_component_name":"_ZNK6google8protobuf11MessageLite20GetMaybeArenaPointerEv"
    },
    {
     "mangled_component_name":"_ZN6google8protobuf28UninterpretedOption_NamePart5ClearEv"
    },
    {
     "mangled_component_name":"_ZNK6google8protobuf28UninterpretedOption_NamePart13IsInitializedEv"
    },
    {
     "mangled_component_name":"_ZNK6google8protobuf7Message25InitializationErrorStringEv"
    },
    {
     "mangled_component_name":"_ZN6google8protobuf7Message21CheckTypeAndMergeFromERKNS0_11MessageLiteE"
    },
    {
     "mangled_component_name":"_ZN6google8protobuf28UninterpretedOption_NamePart27MergePartialFromCodedStreamEPNS0_2io16CodedInputStreamE"
    },
    {
     "mangled_component_name":"_ZNK6google8protobuf28UninterpretedOption_NamePart8ByteSizeEv"
    },
    {
     "mangled_component_name":"_ZNK6google8protobuf28UninterpretedOption_NamePart24SerializeWithCachedSizesEPNS0_2io17CodedOutputStreamE"
    },
    {
     "mangled_component_name":"_ZNK6google8protobuf28UninterpretedOption_NamePart31SerializeWithCachedSizesToArrayEPh"
    },
    {
     "mangled_component_name":"_ZNK6google8protobuf28UninterpretedOption_NamePart13GetCachedSizeEv"
    },
    {
     "mangled_component_name":"_ZN6google8protobuf28UninterpretedOption_NamePart8CopyFromERKNS0_7MessageE"
    },
    {
     "mangled_component_name":"_ZN6google8protobuf28UninterpretedOption_NamePart9MergeFromERKNS0_7MessageE"
    },
    {
     "mangled_component_name":"_ZN6google8protobuf7Message20DiscardUnknownFieldsEv"
    },
    {
     "mangled_component_name":"_ZNK6google8protobuf7Message9SpaceUsedEv"
    },
    {
     "mangled_component_name":"_ZNK6google8protobuf28UninterpretedOption_NamePart13SetCachedSizeEi"
    },
    {
     "mangled_component_name":"_ZNK6google8protobuf7Message13GetReflectionEv"
    },
    {
     "mangled_component_name":"_ZNK6google8protobuf28UninterpretedOption_NamePart11GetMetadataEv"
    }
   ],
   "unique_id":"_ZTSN6google8protobuf28UninterpretedOption_NamePartE"
  },
  {
   "vtable_components":[
    {
     "kind":"offset_to_top"
    },
    {
     "kind":"rtti",
     "mangled_component_name":"_ZTIN6google8protobuf7MessageE"
    },
    {
     "kind":"complete_dtor_pointer",
     "mangled_component_name":"_ZN6google8protobuf7MessageD1Ev"
    },
    {
     "kind":"deleting_dtor_pointer",
     "mangled_component_name":"_ZN6google8protobuf7MessageD0Ev"
    },
    {
     "mangled_component_name":"_ZNK6google8protobuf7Message11GetTypeNameEv"
    },
    {
     "is_pure":true,
     "mangled_component_name":"_ZNK6google8protobuf7Message3NewEv"
    },
    {
     "mangled_component_name":"_ZNK6google8protobuf7Message3NewEPNS0_5ArenaE"
    },
    {
     "mangled_component_name":"_ZNK6google8protobuf11MessageLite8GetArenaEv"
    },
    {
     "mangled_component_name":"_ZNK6google8protobuf11MessageLite20GetMaybeArenaPointerEv"
    },
    {
     "mangled_component_name":"_ZN6google8protobuf7Message5ClearEv"
    },
    {
     "mangled_component_name":"_ZNK6google8protobuf7Message13IsInitializedEv"
    },
    {
     "mangled_component_name":"_ZNK6google8protobuf7Message25InitializationErrorStringEv"
    },
    {
     "mangled_component_name":"_ZN6google8protobuf7Message21CheckTypeAndMergeFromERKNS0_11MessageLiteE"
    },
    {
     "mangled_component_name":"_ZN6google8protobuf7Message27MergePartialFromCodedStreamEPNS0_2io16CodedInputStreamE"
    },
    {
     "mangled_component_name":"_ZNK6google8protobuf7Message8ByteSizeEv"
    },
    {
     "mangled_component_name":"_ZNK6google8protobuf7Message24SerializeWithCachedSizesEPNS0_2io17CodedOutputStreamE"
    },
    {
     "mangled_component_name":"_ZNK6google8protobuf11MessageLite31SerializeWithCachedSizesToArrayEPh"
    },
    {
     "is_pure":true,
     "mangled_component_name":"_ZNK6google8protobuf11MessageLite13GetCachedSizeEv"
    },
    {
     "mangled_component_name":"_ZN6google8protobuf7Message8CopyFromERKS1_"
    },
    {
     "mangled_component_name":"_ZN6google8protobuf7Message9MergeFromERKS1_"
    },
    {
     "mangled_component_name":"_ZN6google8protobuf7Message20DiscardUnknownFieldsEv"
    },
    {
     "mangled_component_name":"_ZNK6google8protobuf7Message9SpaceUsedEv"
    },
    {
     "mangled_component_name":"_ZNK6google8protobuf7Message13SetCachedSizeEi"
    },
    {
     "mangled_component_name":"_ZNK6google8protobuf7Message13GetReflectionEv"
    },
    {
     "is_pure":true,
     "mangled_component_name":"_ZNK6google8protobuf7Message11GetMetadataEv"
    }
   ],
   "unique_id":"_ZTSN6google8protobuf7MessageE"
  },
  {
   "vtable_components":[
    {
     "kind":"offset_to_top"
    },
    {
     "kind":"rtti",
     "mangled_component_name":"_ZTIN6google8protobuf19EnumDescriptorProtoE"
    },
    {
     "kind":"complete_dtor_pointer",
     "mangled_component_name":"_ZN6google8protobuf19EnumDescriptorProtoD1Ev"
    },
    {
     "kind":"deleting_dtor_pointer",
     "mangled_component_name":"_ZN6google8protobuf19EnumDescriptorProtoD0Ev"
    },
    {
     "mangled_component_name":"_ZNK6google8protobuf7Message11GetTypeNameEv"
    },
    {
     "mangled_component_name":"_ZNK6google8protobuf19EnumDescriptorProto3NewEv"
    },
    {
     "mangled_component_name":"_ZNK6google8protobuf19EnumDescriptorProto3NewEPNS0_5ArenaE"
    },
    {
     "mangled_component_name":"_ZNK6google8protobuf11MessageLite8GetArenaEv"
    },
    {
     "mangled_component_name":"_ZNK6google8protobuf11MessageLite20GetMaybeArenaPointerEv"
    },
    {
     "mangled_component_name":"_ZN6google8protobuf19EnumDescriptorProto5ClearEv"
    },
    {
     "mangled_component_name":"_ZNK6google8protobuf19EnumDescriptorProto13IsInitializedEv"
    },
    {
     "mangled_component_name":"_ZNK6google8protobuf7Message25InitializationErrorStringEv"
    },
    {
     "mangled_component_name":"_ZN6google8protobuf7Message21CheckTypeAndMergeFromERKNS0_11MessageLiteE"
    },
    {
     "mangled_component_name":"_ZN6google8protobuf19EnumDescriptorProto27MergePartialFromCodedStreamEPNS0_2io16CodedInputStreamE"
    },
    {
     "mangled_component_name":"_ZNK6google8protobuf19EnumDescriptorProto8ByteSizeEv"
    },
    {
     "mangled_component_name":"_ZNK6google8protobuf19EnumDescriptorProto24SerializeWithCachedSizesEPNS0_2io17CodedOutputStreamE"
    },
    {
     "mangled_component_name":"_ZNK6google8protobuf19EnumDescriptorProto31SerializeWithCachedSizesToArrayEPh"
    },
    {
     "mangled_component_name":"_ZNK6google8protobuf19EnumDescriptorProto13GetCachedSizeEv"
    },
    {
     "mangled_component_name":"_ZN6google8protobuf19EnumDescriptorProto8CopyFromERKNS0_7MessageE"
    },
    {
     "mangled_component_name":"_ZN6google8protobuf19EnumDescriptorProto9MergeFromERKNS0_7MessageE"
    },
    {
     "mangled_component_name":"_ZN6google8protobuf7Message20DiscardUnknownFieldsEv"
    },
    {
     "mangled_component_name":"_ZNK6google8protobuf7Message9SpaceUsedEv"
    },
    {
     "mangled_component_name":"_ZNK6google8protobuf19EnumDescriptorProto13SetCachedSizeEi"
    },
    {
     "mangled_component_name":"_ZNK6google8protobuf7Message13GetReflectionEv"
    },
    {
     "mangled_component_name":"_ZNK6google8protobuf19EnumDescriptorProto11GetMetadataEv"
    }
   ],
   "unique_id":"_ZTSN6google8protobuf19EnumDescriptorProtoE"
  },
  {
   "vtable_components":[
    {
     "kind":"offset_to_top"
    },
    {
     "kind":"rtti",
     "mangled_component_name":"_ZTIN6google8protobuf4util9converter24DefaultValueObjectWriter4NodeE"
    },
    {
     "kind":"complete_dtor_pointer",
     "mangled_component_name":"_ZN6google8protobuf4util9converter24DefaultValueObjectWriter4NodeD1Ev"
    },
    {
     "kind":"deleting_dtor_pointer",
     "mangled_component_name":"_ZN6google8protobuf4util9converter24DefaultValueObjectWriter4NodeD0Ev"
    }
   ],
   "unique_id":"_ZTSN6google8protobuf4util9converter24DefaultValueObjectWriter4NodeE"
  },
  {
   "vtable_components":[
    {
     "kind":"offset_to_top"
    },
    {
     "kind":"rtti",
     "mangled_component_name":"_ZTIN6google8protobuf24EnumValueDescriptorProtoE"
    },
    {
     "kind":"complete_dtor_pointer",
     "mangled_component_name":"_ZN6google8protobuf24EnumValueDescriptorProtoD1Ev"
    },
    {
     "kind":"deleting_dtor_pointer",
     "mangled_component_name":"_ZN6google8protobuf24EnumValueDescriptorProtoD0Ev"
    },
    {
     "mangled_component_name":"_ZNK6google8protobuf7Message11GetTypeNameEv"
    },
    {
     "mangled_component_name":"_ZNK6google8protobuf24EnumValueDescriptorProto3NewEv"
    },
    {
     "mangled_component_name":"_ZNK6google8protobuf24EnumValueDescriptorProto3NewEPNS0_5ArenaE"
    },
    {
     "mangled_component_name":"_ZNK6google8protobuf11MessageLite8GetArenaEv"
    },
    {
     "mangled_component_name":"_ZNK6google8protobuf11MessageLite20GetMaybeArenaPointerEv"
    },
    {
     "mangled_component_name":"_ZN6google8protobuf24EnumValueDescriptorProto5ClearEv"
    },
    {
     "mangled_component_name":"_ZNK6google8protobuf24EnumValueDescriptorProto13IsInitializedEv"
    },
    {
     "mangled_component_name":"_ZNK6google8protobuf7Message25InitializationErrorStringEv"
    },
    {
     "mangled_component_name":"_ZN6google8protobuf7Message21CheckTypeAndMergeFromERKNS0_11MessageLiteE"
    },
    {
     "mangled_component_name":"_ZN6google8protobuf24EnumValueDescriptorProto27MergePartialFromCodedStreamEPNS0_2io16CodedInputStreamE"
    },
    {
     "mangled_component_name":"_ZNK6google8protobuf24EnumValueDescriptorProto8ByteSizeEv"
    },
    {
     "mangled_component_name":"_ZNK6google8protobuf24EnumValueDescriptorProto24SerializeWithCachedSizesEPNS0_2io17CodedOutputStreamE"
    },
    {
     "mangled_component_name":"_ZNK6google8protobuf24EnumValueDescriptorProto31SerializeWithCachedSizesToArrayEPh"
    },
    {
     "mangled_component_name":"_ZNK6google8protobuf24EnumValueDescriptorProto13GetCachedSizeEv"
    },
    {
     "mangled_component_name":"_ZN6google8protobuf24EnumValueDescriptorProto8CopyFromERKNS0_7MessageE"
    },
    {
     "mangled_component_name":"_ZN6google8protobuf24EnumValueDescriptorProto9MergeFromERKNS0_7MessageE"
    },
    {
     "mangled_component_name":"_ZN6google8protobuf7Message20DiscardUnknownFieldsEv"
    },
    {
     "mangled_component_name":"_ZNK6google8protobuf7Message9SpaceUsedEv"
    },
    {
     "mangled_component_name":"_ZNK6google8protobuf24EnumValueDescriptorProto13SetCachedSizeEi"
    },
    {
     "mangled_component_name":"_ZNK6google8protobuf7Message13GetReflectionEv"
    },
    {
     "mangled_component_name":"_ZNK6google8protobuf24EnumValueDescriptorProto11GetMetadataEv"
    }
   ],
   "unique_id":"_ZTSN6google8protobuf24EnumValueDescriptorProtoE"
  },
  {
   "vtable_components":[
    {
     "kind":"offset_to_top"
    },
    {
     "kind":"rtti",
     "mangled_component_name":"_ZTIN6google8protobuf16EnumValueOptionsE"
    },
    {
     "kind":"complete_dtor_pointer",
     "mangled_component_name":"_ZN6google8protobuf16EnumValueOptionsD1Ev"
    },
    {
     "kind":"deleting_dtor_pointer",
     "mangled_component_name":"_ZN6google8protobuf16EnumValueOptionsD0Ev"
    },
    {
     "mangled_component_name":"_ZNK6google8protobuf7Message11GetTypeNameEv"
    },
    {
     "mangled_component_name":"_ZNK6google8protobuf16EnumValueOptions3NewEv"
    },
    {
     "mangled_component_name":"_ZNK6google8protobuf16EnumValueOptions3NewEPNS0_5ArenaE"
    },
    {
     "mangled_component_name":"_ZNK6google8protobuf11MessageLite8GetArenaEv"
    },
    {
     "mangled_component_name":"_ZNK6google8protobuf11MessageLite20GetMaybeArenaPointerEv"
    },
    {
     "mangled_component_name":"_ZN6google8protobuf16EnumValueOptions5ClearEv"
    },
    {
     "mangled_component_name":"_ZNK6google8protobuf16EnumValueOptions13IsInitializedEv"
    },
    {
     "mangled_component_name":"_ZNK6google8protobuf7Message25InitializationErrorStringEv"
    },
    {
     "mangled_component_name":"_ZN6google8protobuf7Message21CheckTypeAndMergeFromERKNS0_11MessageLiteE"
    },
    {
     "mangled_component_name":"_ZN6google8protobuf16EnumValueOptions27MergePartialFromCodedStreamEPNS0_2io16CodedInputStreamE"
    },
    {
     "mangled_component_name":"_ZNK6google8protobuf16EnumValueOptions8ByteSizeEv"
    },
    {
     "mangled_component_name":"_ZNK6google8protobuf16EnumValueOptions24SerializeWithCachedSizesEPNS0_2io17CodedOutputStreamE"
    },
    {
     "mangled_component_name":"_ZNK6google8protobuf16EnumValueOptions31SerializeWithCachedSizesToArrayEPh"
    },
    {
     "mangled_component_name":"_ZNK6google8protobuf16EnumValueOptions13GetCachedSizeEv"
    },
    {
     "mangled_component_name":"_ZN6google8protobuf16EnumValueOptions8CopyFromERKNS0_7MessageE"
    },
    {
     "mangled_component_name":"_ZN6google8protobuf16EnumValueOptions9MergeFromERKNS0_7MessageE"
    },
    {
     "mangled_component_name":"_ZN6google8protobuf7Message20DiscardUnknownFieldsEv"
    },
    {
     "mangled_component_name":"_ZNK6google8protobuf7Message9SpaceUsedEv"
    },
    {
     "mangled_component_name":"_ZNK6google8protobuf16EnumValueOptions13SetCachedSizeEi"
    },
    {
     "mangled_component_name":"_ZNK6google8protobuf7Message13GetReflectionEv"
    },
    {
     "mangled_component_name":"_ZNK6google8protobuf16EnumValueOptions11GetMetadataEv"
    }
   ],
   "unique_id":"_ZTSN6google8protobuf16EnumValueOptionsE"
  },
  {
   "vtable_components":[
    {
     "kind":"offset_to_top"
    },
    {
     "kind":"rtti",
     "mangled_component_name":"_ZTIN6google8protobuf11EnumOptionsE"
    },
    {
     "kind":"complete_dtor_pointer",
     "mangled_component_name":"_ZN6google8protobuf11EnumOptionsD1Ev"
    },
    {
     "kind":"deleting_dtor_pointer",
     "mangled_component_name":"_ZN6google8protobuf11EnumOptionsD0Ev"
    },
    {
     "mangled_component_name":"_ZNK6google8protobuf7Message11GetTypeNameEv"
    },
    {
     "mangled_component_name":"_ZNK6google8protobuf11EnumOptions3NewEv"
    },
    {
     "mangled_component_name":"_ZNK6google8protobuf11EnumOptions3NewEPNS0_5ArenaE"
    },
    {
     "mangled_component_name":"_ZNK6google8protobuf11MessageLite8GetArenaEv"
    },
    {
     "mangled_component_name":"_ZNK6google8protobuf11MessageLite20GetMaybeArenaPointerEv"
    },
    {
     "mangled_component_name":"_ZN6google8protobuf11EnumOptions5ClearEv"
    },
    {
     "mangled_component_name":"_ZNK6google8protobuf11EnumOptions13IsInitializedEv"
    },
    {
     "mangled_component_name":"_ZNK6google8protobuf7Message25InitializationErrorStringEv"
    },
    {
     "mangled_component_name":"_ZN6google8protobuf7Message21CheckTypeAndMergeFromERKNS0_11MessageLiteE"
    },
    {
     "mangled_component_name":"_ZN6google8protobuf11EnumOptions27MergePartialFromCodedStreamEPNS0_2io16CodedInputStreamE"
    },
    {
     "mangled_component_name":"_ZNK6google8protobuf11EnumOptions8ByteSizeEv"
    },
    {
     "mangled_component_name":"_ZNK6google8protobuf11EnumOptions24SerializeWithCachedSizesEPNS0_2io17CodedOutputStreamE"
    },
    {
     "mangled_component_name":"_ZNK6google8protobuf11EnumOptions31SerializeWithCachedSizesToArrayEPh"
    },
    {
     "mangled_component_name":"_ZNK6google8protobuf11EnumOptions13GetCachedSizeEv"
    },
    {
     "mangled_component_name":"_ZN6google8protobuf11EnumOptions8CopyFromERKNS0_7MessageE"
    },
    {
     "mangled_component_name":"_ZN6google8protobuf11EnumOptions9MergeFromERKNS0_7MessageE"
    },
    {
     "mangled_component_name":"_ZN6google8protobuf7Message20DiscardUnknownFieldsEv"
    },
    {
     "mangled_component_name":"_ZNK6google8protobuf7Message9SpaceUsedEv"
    },
    {
     "mangled_component_name":"_ZNK6google8protobuf11EnumOptions13SetCachedSizeEi"
    },
    {
     "mangled_component_name":"_ZNK6google8protobuf7Message13GetReflectionEv"
    },
    {
     "mangled_component_name":"_ZNK6google8protobuf11EnumOptions11GetMetadataEv"
    }
   ],
   "unique_id":"_ZTSN6google8protobuf11EnumOptionsE"
  },
  {
   "vtable_components":[
    {
     "kind":"offset_to_top"
    },
    {
     "kind":"rtti",
     "mangled_component_name":"_ZTIN6google8protobuf30DescriptorProto_ExtensionRangeE"
    },
    {
     "kind":"complete_dtor_pointer",
     "mangled_component_name":"_ZN6google8protobuf30DescriptorProto_ExtensionRangeD1Ev"
    },
    {
     "kind":"deleting_dtor_pointer",
     "mangled_component_name":"_ZN6google8protobuf30DescriptorProto_ExtensionRangeD0Ev"
    },
    {
     "mangled_component_name":"_ZNK6google8protobuf7Message11GetTypeNameEv"
    },
    {
     "mangled_component_name":"_ZNK6google8protobuf30DescriptorProto_ExtensionRange3NewEv"
    },
    {
     "mangled_component_name":"_ZNK6google8protobuf30DescriptorProto_ExtensionRange3NewEPNS0_5ArenaE"
    },
    {
     "mangled_component_name":"_ZNK6google8protobuf11MessageLite8GetArenaEv"
    },
    {
     "mangled_component_name":"_ZNK6google8protobuf11MessageLite20GetMaybeArenaPointerEv"
    },
    {
     "mangled_component_name":"_ZN6google8protobuf30DescriptorProto_ExtensionRange5ClearEv"
    },
    {
     "mangled_component_name":"_ZNK6google8protobuf30DescriptorProto_ExtensionRange13IsInitializedEv"
    },
    {
     "mangled_component_name":"_ZNK6google8protobuf7Message25InitializationErrorStringEv"
    },
    {
     "mangled_component_name":"_ZN6google8protobuf7Message21CheckTypeAndMergeFromERKNS0_11MessageLiteE"
    },
    {
     "mangled_component_name":"_ZN6google8protobuf30DescriptorProto_ExtensionRange27MergePartialFromCodedStreamEPNS0_2io16CodedInputStreamE"
    },
    {
     "mangled_component_name":"_ZNK6google8protobuf30DescriptorProto_ExtensionRange8ByteSizeEv"
    },
    {
     "mangled_component_name":"_ZNK6google8protobuf30DescriptorProto_ExtensionRange24SerializeWithCachedSizesEPNS0_2io17CodedOutputStreamE"
    },
    {
     "mangled_component_name":"_ZNK6google8protobuf30DescriptorProto_ExtensionRange31SerializeWithCachedSizesToArrayEPh"
    },
    {
     "mangled_component_name":"_ZNK6google8protobuf30DescriptorProto_ExtensionRange13GetCachedSizeEv"
    },
    {
     "mangled_component_name":"_ZN6google8protobuf30DescriptorProto_ExtensionRange8CopyFromERKNS0_7MessageE"
    },
    {
     "mangled_component_name":"_ZN6google8protobuf30DescriptorProto_ExtensionRange9MergeFromERKNS0_7MessageE"
    },
    {
     "mangled_component_name":"_ZN6google8protobuf7Message20DiscardUnknownFieldsEv"
    },
    {
     "mangled_component_name":"_ZNK6google8protobuf7Message9SpaceUsedEv"
    },
    {
     "mangled_component_name":"_ZNK6google8protobuf30DescriptorProto_ExtensionRange13SetCachedSizeEi"
    },
    {
     "mangled_component_name":"_ZNK6google8protobuf7Message13GetReflectionEv"
    },
    {
     "mangled_component_name":"_ZNK6google8protobuf30DescriptorProto_ExtensionRange11GetMetadataEv"
    }
   ],
   "unique_id":"_ZTSN6google8protobuf30DescriptorProto_ExtensionRangeE"
  },
  {
   "vtable_components":[
    {
     "kind":"offset_to_top"
    },
    {
     "kind":"rtti",
     "mangled_component_name":"_ZTIN6google8protobuf20OneofDescriptorProtoE"
    },
    {
     "kind":"complete_dtor_pointer",
     "mangled_component_name":"_ZN6google8protobuf20OneofDescriptorProtoD1Ev"
    },
    {
     "kind":"deleting_dtor_pointer",
     "mangled_component_name":"_ZN6google8protobuf20OneofDescriptorProtoD0Ev"
    },
    {
     "mangled_component_name":"_ZNK6google8protobuf7Message11GetTypeNameEv"
    },
    {
     "mangled_component_name":"_ZNK6google8protobuf20OneofDescriptorProto3NewEv"
    },
    {
     "mangled_component_name":"_ZNK6google8protobuf20OneofDescriptorProto3NewEPNS0_5ArenaE"
    },
    {
     "mangled_component_name":"_ZNK6google8protobuf11MessageLite8GetArenaEv"
    },
    {
     "mangled_component_name":"_ZNK6google8protobuf11MessageLite20GetMaybeArenaPointerEv"
    },
    {
     "mangled_component_name":"_ZN6google8protobuf20OneofDescriptorProto5ClearEv"
    },
    {
     "mangled_component_name":"_ZNK6google8protobuf20OneofDescriptorProto13IsInitializedEv"
    },
    {
     "mangled_component_name":"_ZNK6google8protobuf7Message25InitializationErrorStringEv"
    },
    {
     "mangled_component_name":"_ZN6google8protobuf7Message21CheckTypeAndMergeFromERKNS0_11MessageLiteE"
    },
    {
     "mangled_component_name":"_ZN6google8protobuf20OneofDescriptorProto27MergePartialFromCodedStreamEPNS0_2io16CodedInputStreamE"
    },
    {
     "mangled_component_name":"_ZNK6google8protobuf20OneofDescriptorProto8ByteSizeEv"
    },
    {
     "mangled_component_name":"_ZNK6google8protobuf20OneofDescriptorProto24SerializeWithCachedSizesEPNS0_2io17CodedOutputStreamE"
    },
    {
     "mangled_component_name":"_ZNK6google8protobuf20OneofDescriptorProto31SerializeWithCachedSizesToArrayEPh"
    },
    {
     "mangled_component_name":"_ZNK6google8protobuf20OneofDescriptorProto13GetCachedSizeEv"
    },
    {
     "mangled_component_name":"_ZN6google8protobuf20OneofDescriptorProto8CopyFromERKNS0_7MessageE"
    },
    {
     "mangled_component_name":"_ZN6google8protobuf20OneofDescriptorProto9MergeFromERKNS0_7MessageE"
    },
    {
     "mangled_component_name":"_ZN6google8protobuf7Message20DiscardUnknownFieldsEv"
    },
    {
     "mangled_component_name":"_ZNK6google8protobuf7Message9SpaceUsedEv"
    },
    {
     "mangled_component_name":"_ZNK6google8protobuf20OneofDescriptorProto13SetCachedSizeEi"
    },
    {
     "mangled_component_name":"_ZNK6google8protobuf7Message13GetReflectionEv"
    },
    {
     "mangled_component_name":"_ZNK6google8protobuf20OneofDescriptorProto11GetMetadataEv"
    }
   ],
   "unique_id":"_ZTSN6google8protobuf20OneofDescriptorProtoE"
  },
  {
   "vtable_components":[
    {
     "kind":"offset_to_top"
    },
    {
     "kind":"rtti",
     "mangled_component_name":"_ZTIN6google8protobuf4util9converter24DefaultValueObjectWriterE"
    },
    {
     "kind":"complete_dtor_pointer",
     "mangled_component_name":"_ZN6google8protobuf4util9converter24DefaultValueObjectWriterD1Ev"
    },
    {
     "kind":"deleting_dtor_pointer",
     "mangled_component_name":"_ZN6google8protobuf4util9converter24DefaultValueObjectWriterD0Ev"
    },
    {
     "mangled_component_name":"_ZN6google8protobuf4util9converter24DefaultValueObjectWriter11StartObjectENS0_11StringPieceE"
    },
    {
     "mangled_component_name":"_ZN6google8protobuf4util9converter24DefaultValueObjectWriter9EndObjectEv"
    },
    {
     "mangled_component_name":"_ZN6google8protobuf4util9converter24DefaultValueObjectWriter9StartListENS0_11StringPieceE"
    },
    {
     "mangled_component_name":"_ZN6google8protobuf4util9converter24DefaultValueObjectWriter7EndListEv"
    },
    {
     "mangled_component_name":"_ZN6google8protobuf4util9converter24DefaultValueObjectWriter10RenderBoolENS0_11StringPieceEb"
    },
    {
     "mangled_component_name":"_ZN6google8protobuf4util9converter24DefaultValueObjectWriter11RenderInt32ENS0_11StringPieceEi"
    },
    {
     "mangled_component_name":"_ZN6google8protobuf4util9converter24DefaultValueObjectWriter12RenderUint32ENS0_11StringPieceEj"
    },
    {
     "mangled_component_name":"_ZN6google8protobuf4util9converter24DefaultValueObjectWriter11RenderInt64ENS0_11StringPieceEx"
    },
    {
     "mangled_component_name":"_ZN6google8protobuf4util9converter24DefaultValueObjectWriter12RenderUint64ENS0_11StringPieceEy"
    },
    {
     "mangled_component_name":"_ZN6google8protobuf4util9converter24DefaultValueObjectWriter12RenderDoubleENS0_11StringPieceEd"
    },
    {
     "mangled_component_name":"_ZN6google8protobuf4util9converter24DefaultValueObjectWriter11RenderFloatENS0_11StringPieceEf"
    },
    {
     "mangled_component_name":"_ZN6google8protobuf4util9converter24DefaultValueObjectWriter12RenderStringENS0_11StringPieceES4_"
    },
    {
     "mangled_component_name":"_ZN6google8protobuf4util9converter24DefaultValueObjectWriter11RenderBytesENS0_11StringPieceES4_"
    },
    {
     "mangled_component_name":"_ZN6google8protobuf4util9converter24DefaultValueObjectWriter10RenderNullENS0_11StringPieceE"
    },
    {
     "mangled_component_name":"_ZN6google8protobuf4util9converter12ObjectWriter4doneEv"
    }
   ],
   "unique_id":"_ZTSN6google8protobuf4util9converter24DefaultValueObjectWriterE"
  },
  {
   "vtable_components":[
    {
     "kind":"offset_to_top"
    },
    {
     "kind":"rtti",
     "mangled_component_name":"_ZTIN6google8protobuf14MessageOptionsE"
    },
    {
     "kind":"complete_dtor_pointer",
     "mangled_component_name":"_ZN6google8protobuf14MessageOptionsD1Ev"
    },
    {
     "kind":"deleting_dtor_pointer",
     "mangled_component_name":"_ZN6google8protobuf14MessageOptionsD0Ev"
    },
    {
     "mangled_component_name":"_ZNK6google8protobuf7Message11GetTypeNameEv"
    },
    {
     "mangled_component_name":"_ZNK6google8protobuf14MessageOptions3NewEv"
    },
    {
     "mangled_component_name":"_ZNK6google8protobuf14MessageOptions3NewEPNS0_5ArenaE"
    },
    {
     "mangled_component_name":"_ZNK6google8protobuf11MessageLite8GetArenaEv"
    },
    {
     "mangled_component_name":"_ZNK6google8protobuf11MessageLite20GetMaybeArenaPointerEv"
    },
    {
     "mangled_component_name":"_ZN6google8protobuf14MessageOptions5ClearEv"
    },
    {
     "mangled_component_name":"_ZNK6google8protobuf14MessageOptions13IsInitializedEv"
    },
    {
     "mangled_component_name":"_ZNK6google8protobuf7Message25InitializationErrorStringEv"
    },
    {
     "mangled_component_name":"_ZN6google8protobuf7Message21CheckTypeAndMergeFromERKNS0_11MessageLiteE"
    },
    {
     "mangled_component_name":"_ZN6google8protobuf14MessageOptions27MergePartialFromCodedStreamEPNS0_2io16CodedInputStreamE"
    },
    {
     "mangled_component_name":"_ZNK6google8protobuf14MessageOptions8ByteSizeEv"
    },
    {
     "mangled_component_name":"_ZNK6google8protobuf14MessageOptions24SerializeWithCachedSizesEPNS0_2io17CodedOutputStreamE"
    },
    {
     "mangled_component_name":"_ZNK6google8protobuf14MessageOptions31SerializeWithCachedSizesToArrayEPh"
    },
    {
     "mangled_component_name":"_ZNK6google8protobuf14MessageOptions13GetCachedSizeEv"
    },
    {
     "mangled_component_name":"_ZN6google8protobuf14MessageOptions8CopyFromERKNS0_7MessageE"
    },
    {
     "mangled_component_name":"_ZN6google8protobuf14MessageOptions9MergeFromERKNS0_7MessageE"
    },
    {
     "mangled_component_name":"_ZN6google8protobuf7Message20DiscardUnknownFieldsEv"
    },
    {
     "mangled_component_name":"_ZNK6google8protobuf7Message9SpaceUsedEv"
    },
    {
     "mangled_component_name":"_ZNK6google8protobuf14MessageOptions13SetCachedSizeEi"
    },
    {
     "mangled_component_name":"_ZNK6google8protobuf7Message13GetReflectionEv"
    },
    {
     "mangled_component_name":"_ZNK6google8protobuf14MessageOptions11GetMetadataEv"
    }
   ],
   "unique_id":"_ZTSN6google8protobuf14MessageOptionsE"
  },
  {
   "vtable_components":[
    {
     "kind":"offset_to_top"
    },
    {
     "kind":"rtti",
     "mangled_component_name":"_ZTIN6google8protobuf29DescriptorProto_ReservedRangeE"
    },
    {
     "kind":"complete_dtor_pointer",
     "mangled_component_name":"_ZN6google8protobuf29DescriptorProto_ReservedRangeD1Ev"
    },
    {
     "kind":"deleting_dtor_pointer",
     "mangled_component_name":"_ZN6google8protobuf29DescriptorProto_ReservedRangeD0Ev"
    },
    {
     "mangled_component_name":"_ZNK6google8protobuf7Message11GetTypeNameEv"
    },
    {
     "mangled_component_name":"_ZNK6google8protobuf29DescriptorProto_ReservedRange3NewEv"
    },
    {
     "mangled_component_name":"_ZNK6google8protobuf29DescriptorProto_ReservedRange3NewEPNS0_5ArenaE"
    },
    {
     "mangled_component_name":"_ZNK6google8protobuf11MessageLite8GetArenaEv"
    },
    {
     "mangled_component_name":"_ZNK6google8protobuf11MessageLite20GetMaybeArenaPointerEv"
    },
    {
     "mangled_component_name":"_ZN6google8protobuf29DescriptorProto_ReservedRange5ClearEv"
    },
    {
     "mangled_component_name":"_ZNK6google8protobuf29DescriptorProto_ReservedRange13IsInitializedEv"
    },
    {
     "mangled_component_name":"_ZNK6google8protobuf7Message25InitializationErrorStringEv"
    },
    {
     "mangled_component_name":"_ZN6google8protobuf7Message21CheckTypeAndMergeFromERKNS0_11MessageLiteE"
    },
    {
     "mangled_component_name":"_ZN6google8protobuf29DescriptorProto_ReservedRange27MergePartialFromCodedStreamEPNS0_2io16CodedInputStreamE"
    },
    {
     "mangled_component_name":"_ZNK6google8protobuf29DescriptorProto_ReservedRange8ByteSizeEv"
    },
    {
     "mangled_component_name":"_ZNK6google8protobuf29DescriptorProto_ReservedRange24SerializeWithCachedSizesEPNS0_2io17CodedOutputStreamE"
    },
    {
     "mangled_component_name":"_ZNK6google8protobuf29DescriptorProto_ReservedRange31SerializeWithCachedSizesToArrayEPh"
    },
    {
     "mangled_component_name":"_ZNK6google8protobuf29DescriptorProto_ReservedRange13GetCachedSizeEv"
    },
    {
     "mangled_component_name":"_ZN6google8protobuf29DescriptorProto_ReservedRange8CopyFromERKNS0_7MessageE"
    },
    {
     "mangled_component_name":"_ZN6google8protobuf29DescriptorProto_ReservedRange9MergeFromERKNS0_7MessageE"
    },
    {
     "mangled_component_name":"_ZN6google8protobuf7Message20DiscardUnknownFieldsEv"
    },
    {
     "mangled_component_name":"_ZNK6google8protobuf7Message9SpaceUsedEv"
    },
    {
     "mangled_component_name":"_ZNK6google8protobuf29DescriptorProto_ReservedRange13SetCachedSizeEi"
    },
    {
     "mangled_component_name":"_ZNK6google8protobuf7Message13GetReflectionEv"
    },
    {
     "mangled_component_name":"_ZNK6google8protobuf29DescriptorProto_ReservedRange11GetMetadataEv"
    }
   ],
   "unique_id":"_ZTSN6google8protobuf29DescriptorProto_ReservedRangeE"
  },
  {
   "vtable_components":[
    {
     "kind":"offset_to_top"
    },
    {
     "kind":"rtti",
     "mangled_component_name":"_ZTIN6google8protobuf22ServiceDescriptorProtoE"
    },
    {
     "kind":"complete_dtor_pointer",
     "mangled_component_name":"_ZN6google8protobuf22ServiceDescriptorProtoD1Ev"
    },
    {
     "kind":"deleting_dtor_pointer",
     "mangled_component_name":"_ZN6google8protobuf22ServiceDescriptorProtoD0Ev"
    },
    {
     "mangled_component_name":"_ZNK6google8protobuf7Message11GetTypeNameEv"
    },
    {
     "mangled_component_name":"_ZNK6google8protobuf22ServiceDescriptorProto3NewEv"
    },
    {
     "mangled_component_name":"_ZNK6google8protobuf22ServiceDescriptorProto3NewEPNS0_5ArenaE"
    },
    {
     "mangled_component_name":"_ZNK6google8protobuf11MessageLite8GetArenaEv"
    },
    {
     "mangled_component_name":"_ZNK6google8protobuf11MessageLite20GetMaybeArenaPointerEv"
    },
    {
     "mangled_component_name":"_ZN6google8protobuf22ServiceDescriptorProto5ClearEv"
    },
    {
     "mangled_component_name":"_ZNK6google8protobuf22ServiceDescriptorProto13IsInitializedEv"
    },
    {
     "mangled_component_name":"_ZNK6google8protobuf7Message25InitializationErrorStringEv"
    },
    {
     "mangled_component_name":"_ZN6google8protobuf7Message21CheckTypeAndMergeFromERKNS0_11MessageLiteE"
    },
    {
     "mangled_component_name":"_ZN6google8protobuf22ServiceDescriptorProto27MergePartialFromCodedStreamEPNS0_2io16CodedInputStreamE"
    },
    {
     "mangled_component_name":"_ZNK6google8protobuf22ServiceDescriptorProto8ByteSizeEv"
    },
    {
     "mangled_component_name":"_ZNK6google8protobuf22ServiceDescriptorProto24SerializeWithCachedSizesEPNS0_2io17CodedOutputStreamE"
    },
    {
     "mangled_component_name":"_ZNK6google8protobuf22ServiceDescriptorProto31SerializeWithCachedSizesToArrayEPh"
    },
    {
     "mangled_component_name":"_ZNK6google8protobuf22ServiceDescriptorProto13GetCachedSizeEv"
    },
    {
     "mangled_component_name":"_ZN6google8protobuf22ServiceDescriptorProto8CopyFromERKNS0_7MessageE"
    },
    {
     "mangled_component_name":"_ZN6google8protobuf22ServiceDescriptorProto9MergeFromERKNS0_7MessageE"
    },
    {
     "mangled_component_name":"_ZN6google8protobuf7Message20DiscardUnknownFieldsEv"
    },
    {
     "mangled_component_name":"_ZNK6google8protobuf7Message9SpaceUsedEv"
    },
    {
     "mangled_component_name":"_ZNK6google8protobuf22ServiceDescriptorProto13SetCachedSizeEi"
    },
    {
     "mangled_component_name":"_ZNK6google8protobuf7Message13GetReflectionEv"
    },
    {
     "mangled_component_name":"_ZNK6google8protobuf22ServiceDescriptorProto11GetMetadataEv"
    }
   ],
   "unique_id":"_ZTSN6google8protobuf22ServiceDescriptorProtoE"
  },
  {
   "vtable_components":[
    {
     "kind":"offset_to_top"
    },
    {
     "kind":"rtti",
     "mangled_component_name":"_ZTIN6google8protobuf21MethodDescriptorProtoE"
    },
    {
     "kind":"complete_dtor_pointer",
     "mangled_component_name":"_ZN6google8protobuf21MethodDescriptorProtoD1Ev"
    },
    {
     "kind":"deleting_dtor_pointer",
     "mangled_component_name":"_ZN6google8protobuf21MethodDescriptorProtoD0Ev"
    },
    {
     "mangled_component_name":"_ZNK6google8protobuf7Message11GetTypeNameEv"
    },
    {
     "mangled_component_name":"_ZNK6google8protobuf21MethodDescriptorProto3NewEv"
    },
    {
     "mangled_component_name":"_ZNK6google8protobuf21MethodDescriptorProto3NewEPNS0_5ArenaE"
    },
    {
     "mangled_component_name":"_ZNK6google8protobuf11MessageLite8GetArenaEv"
    },
    {
     "mangled_component_name":"_ZNK6google8protobuf11MessageLite20GetMaybeArenaPointerEv"
    },
    {
     "mangled_component_name":"_ZN6google8protobuf21MethodDescriptorProto5ClearEv"
    },
    {
     "mangled_component_name":"_ZNK6google8protobuf21MethodDescriptorProto13IsInitializedEv"
    },
    {
     "mangled_component_name":"_ZNK6google8protobuf7Message25InitializationErrorStringEv"
    },
    {
     "mangled_component_name":"_ZN6google8protobuf7Message21CheckTypeAndMergeFromERKNS0_11MessageLiteE"
    },
    {
     "mangled_component_name":"_ZN6google8protobuf21MethodDescriptorProto27MergePartialFromCodedStreamEPNS0_2io16CodedInputStreamE"
    },
    {
     "mangled_component_name":"_ZNK6google8protobuf21MethodDescriptorProto8ByteSizeEv"
    },
    {
     "mangled_component_name":"_ZNK6google8protobuf21MethodDescriptorProto24SerializeWithCachedSizesEPNS0_2io17CodedOutputStreamE"
    },
    {
     "mangled_component_name":"_ZNK6google8protobuf21MethodDescriptorProto31SerializeWithCachedSizesToArrayEPh"
    },
    {
     "mangled_component_name":"_ZNK6google8protobuf21MethodDescriptorProto13GetCachedSizeEv"
    },
    {
     "mangled_component_name":"_ZN6google8protobuf21MethodDescriptorProto8CopyFromERKNS0_7MessageE"
    },
    {
     "mangled_component_name":"_ZN6google8protobuf21MethodDescriptorProto9MergeFromERKNS0_7MessageE"
    },
    {
     "mangled_component_name":"_ZN6google8protobuf7Message20DiscardUnknownFieldsEv"
    },
    {
     "mangled_component_name":"_ZNK6google8protobuf7Message9SpaceUsedEv"
    },
    {
     "mangled_component_name":"_ZNK6google8protobuf21MethodDescriptorProto13SetCachedSizeEi"
    },
    {
     "mangled_component_name":"_ZNK6google8protobuf7Message13GetReflectionEv"
    },
    {
     "mangled_component_name":"_ZNK6google8protobuf21MethodDescriptorProto11GetMetadataEv"
    }
   ],
   "unique_id":"_ZTSN6google8protobuf21MethodDescriptorProtoE"
  },
  {
   "vtable_components":[
    {
     "kind":"offset_to_top"
    },
    {
     "kind":"rtti",
     "mangled_component_name":"_ZTIN6google8protobuf13MethodOptionsE"
    },
    {
     "kind":"complete_dtor_pointer",
     "mangled_component_name":"_ZN6google8protobuf13MethodOptionsD1Ev"
    },
    {
     "kind":"deleting_dtor_pointer",
     "mangled_component_name":"_ZN6google8protobuf13MethodOptionsD0Ev"
    },
    {
     "mangled_component_name":"_ZNK6google8protobuf7Message11GetTypeNameEv"
    },
    {
     "mangled_component_name":"_ZNK6google8protobuf13MethodOptions3NewEv"
    },
    {
     "mangled_component_name":"_ZNK6google8protobuf13MethodOptions3NewEPNS0_5ArenaE"
    },
    {
     "mangled_component_name":"_ZNK6google8protobuf11MessageLite8GetArenaEv"
    },
    {
     "mangled_component_name":"_ZNK6google8protobuf11MessageLite20GetMaybeArenaPointerEv"
    },
    {
     "mangled_component_name":"_ZN6google8protobuf13MethodOptions5ClearEv"
    },
    {
     "mangled_component_name":"_ZNK6google8protobuf13MethodOptions13IsInitializedEv"
    },
    {
     "mangled_component_name":"_ZNK6google8protobuf7Message25InitializationErrorStringEv"
    },
    {
     "mangled_component_name":"_ZN6google8protobuf7Message21CheckTypeAndMergeFromERKNS0_11MessageLiteE"
    },
    {
     "mangled_component_name":"_ZN6google8protobuf13MethodOptions27MergePartialFromCodedStreamEPNS0_2io16CodedInputStreamE"
    },
    {
     "mangled_component_name":"_ZNK6google8protobuf13MethodOptions8ByteSizeEv"
    },
    {
     "mangled_component_name":"_ZNK6google8protobuf13MethodOptions24SerializeWithCachedSizesEPNS0_2io17CodedOutputStreamE"
    },
    {
     "mangled_component_name":"_ZNK6google8protobuf13MethodOptions31SerializeWithCachedSizesToArrayEPh"
    },
    {
     "mangled_component_name":"_ZNK6google8protobuf13MethodOptions13GetCachedSizeEv"
    },
    {
     "mangled_component_name":"_ZN6google8protobuf13MethodOptions8CopyFromERKNS0_7MessageE"
    },
    {
     "mangled_component_name":"_ZN6google8protobuf13MethodOptions9MergeFromERKNS0_7MessageE"
    },
    {
     "mangled_component_name":"_ZN6google8protobuf7Message20DiscardUnknownFieldsEv"
    },
    {
     "mangled_component_name":"_ZNK6google8protobuf7Message9SpaceUsedEv"
    },
    {
     "mangled_component_name":"_ZNK6google8protobuf13MethodOptions13SetCachedSizeEi"
    },
    {
     "mangled_component_name":"_ZNK6google8protobuf7Message13GetReflectionEv"
    },
    {
     "mangled_component_name":"_ZNK6google8protobuf13MethodOptions11GetMetadataEv"
    }
   ],
   "unique_id":"_ZTSN6google8protobuf13MethodOptionsE"
  },
  {
   "vtable_components":[
    {
     "kind":"offset_to_top"
    },
    {
     "kind":"rtti",
     "mangled_component_name":"_ZTIN6google8protobuf14ServiceOptionsE"
    },
    {
     "kind":"complete_dtor_pointer",
     "mangled_component_name":"_ZN6google8protobuf14ServiceOptionsD1Ev"
    },
    {
     "kind":"deleting_dtor_pointer",
     "mangled_component_name":"_ZN6google8protobuf14ServiceOptionsD0Ev"
    },
    {
     "mangled_component_name":"_ZNK6google8protobuf7Message11GetTypeNameEv"
    },
    {
     "mangled_component_name":"_ZNK6google8protobuf14ServiceOptions3NewEv"
    },
    {
     "mangled_component_name":"_ZNK6google8protobuf14ServiceOptions3NewEPNS0_5ArenaE"
    },
    {
     "mangled_component_name":"_ZNK6google8protobuf11MessageLite8GetArenaEv"
    },
    {
     "mangled_component_name":"_ZNK6google8protobuf11MessageLite20GetMaybeArenaPointerEv"
    },
    {
     "mangled_component_name":"_ZN6google8protobuf14ServiceOptions5ClearEv"
    },
    {
     "mangled_component_name":"_ZNK6google8protobuf14ServiceOptions13IsInitializedEv"
    },
    {
     "mangled_component_name":"_ZNK6google8protobuf7Message25InitializationErrorStringEv"
    },
    {
     "mangled_component_name":"_ZN6google8protobuf7Message21CheckTypeAndMergeFromERKNS0_11MessageLiteE"
    },
    {
     "mangled_component_name":"_ZN6google8protobuf14ServiceOptions27MergePartialFromCodedStreamEPNS0_2io16CodedInputStreamE"
    },
    {
     "mangled_component_name":"_ZNK6google8protobuf14ServiceOptions8ByteSizeEv"
    },
    {
     "mangled_component_name":"_ZNK6google8protobuf14ServiceOptions24SerializeWithCachedSizesEPNS0_2io17CodedOutputStreamE"
    },
    {
     "mangled_component_name":"_ZNK6google8protobuf14ServiceOptions31SerializeWithCachedSizesToArrayEPh"
    },
    {
     "mangled_component_name":"_ZNK6google8protobuf14ServiceOptions13GetCachedSizeEv"
    },
    {
     "mangled_component_name":"_ZN6google8protobuf14ServiceOptions8CopyFromERKNS0_7MessageE"
    },
    {
     "mangled_component_name":"_ZN6google8protobuf14ServiceOptions9MergeFromERKNS0_7MessageE"
    },
    {
     "mangled_component_name":"_ZN6google8protobuf7Message20DiscardUnknownFieldsEv"
    },
    {
     "mangled_component_name":"_ZNK6google8protobuf7Message9SpaceUsedEv"
    },
    {
     "mangled_component_name":"_ZNK6google8protobuf14ServiceOptions13SetCachedSizeEi"
    },
    {
     "mangled_component_name":"_ZNK6google8protobuf7Message13GetReflectionEv"
    },
    {
     "mangled_component_name":"_ZNK6google8protobuf14ServiceOptions11GetMetadataEv"
    }
   ],
   "unique_id":"_ZTSN6google8protobuf14ServiceOptionsE"
  },
  {
   "vtable_components":[
    {
     "kind":"offset_to_top"
    },
    {
     "kind":"rtti",
     "mangled_component_name":"_ZTIN6google8protobuf11FileOptionsE"
    },
    {
     "kind":"complete_dtor_pointer",
     "mangled_component_name":"_ZN6google8protobuf11FileOptionsD1Ev"
    },
    {
     "kind":"deleting_dtor_pointer",
     "mangled_component_name":"_ZN6google8protobuf11FileOptionsD0Ev"
    },
    {
     "mangled_component_name":"_ZNK6google8protobuf7Message11GetTypeNameEv"
    },
    {
     "mangled_component_name":"_ZNK6google8protobuf11FileOptions3NewEv"
    },
    {
     "mangled_component_name":"_ZNK6google8protobuf11FileOptions3NewEPNS0_5ArenaE"
    },
    {
     "mangled_component_name":"_ZNK6google8protobuf11MessageLite8GetArenaEv"
    },
    {
     "mangled_component_name":"_ZNK6google8protobuf11MessageLite20GetMaybeArenaPointerEv"
    },
    {
     "mangled_component_name":"_ZN6google8protobuf11FileOptions5ClearEv"
    },
    {
     "mangled_component_name":"_ZNK6google8protobuf11FileOptions13IsInitializedEv"
    },
    {
     "mangled_component_name":"_ZNK6google8protobuf7Message25InitializationErrorStringEv"
    },
    {
     "mangled_component_name":"_ZN6google8protobuf7Message21CheckTypeAndMergeFromERKNS0_11MessageLiteE"
    },
    {
     "mangled_component_name":"_ZN6google8protobuf11FileOptions27MergePartialFromCodedStreamEPNS0_2io16CodedInputStreamE"
    },
    {
     "mangled_component_name":"_ZNK6google8protobuf11FileOptions8ByteSizeEv"
    },
    {
     "mangled_component_name":"_ZNK6google8protobuf11FileOptions24SerializeWithCachedSizesEPNS0_2io17CodedOutputStreamE"
    },
    {
     "mangled_component_name":"_ZNK6google8protobuf11FileOptions31SerializeWithCachedSizesToArrayEPh"
    },
    {
     "mangled_component_name":"_ZNK6google8protobuf11FileOptions13GetCachedSizeEv"
    },
    {
     "mangled_component_name":"_ZN6google8protobuf11FileOptions8CopyFromERKNS0_7MessageE"
    },
    {
     "mangled_component_name":"_ZN6google8protobuf11FileOptions9MergeFromERKNS0_7MessageE"
    },
    {
     "mangled_component_name":"_ZN6google8protobuf7Message20DiscardUnknownFieldsEv"
    },
    {
     "mangled_component_name":"_ZNK6google8protobuf7Message9SpaceUsedEv"
    },
    {
     "mangled_component_name":"_ZNK6google8protobuf11FileOptions13SetCachedSizeEi"
    },
    {
     "mangled_component_name":"_ZNK6google8protobuf7Message13GetReflectionEv"
    },
    {
     "mangled_component_name":"_ZNK6google8protobuf11FileOptions11GetMetadataEv"
    }
   ],
   "unique_id":"_ZTSN6google8protobuf11FileOptionsE"
  },
  {
   "vtable_components":[
    {
     "kind":"offset_to_top"
    },
    {
     "kind":"rtti",
     "mangled_component_name":"_ZTIN6google8protobuf14SourceCodeInfoE"
    },
    {
     "kind":"complete_dtor_pointer",
     "mangled_component_name":"_ZN6google8protobuf14SourceCodeInfoD1Ev"
    },
    {
     "kind":"deleting_dtor_pointer",
     "mangled_component_name":"_ZN6google8protobuf14SourceCodeInfoD0Ev"
    },
    {
     "mangled_component_name":"_ZNK6google8protobuf7Message11GetTypeNameEv"
    },
    {
     "mangled_component_name":"_ZNK6google8protobuf14SourceCodeInfo3NewEv"
    },
    {
     "mangled_component_name":"_ZNK6google8protobuf14SourceCodeInfo3NewEPNS0_5ArenaE"
    },
    {
     "mangled_component_name":"_ZNK6google8protobuf11MessageLite8GetArenaEv"
    },
    {
     "mangled_component_name":"_ZNK6google8protobuf11MessageLite20GetMaybeArenaPointerEv"
    },
    {
     "mangled_component_name":"_ZN6google8protobuf14SourceCodeInfo5ClearEv"
    },
    {
     "mangled_component_name":"_ZNK6google8protobuf14SourceCodeInfo13IsInitializedEv"
    },
    {
     "mangled_component_name":"_ZNK6google8protobuf7Message25InitializationErrorStringEv"
    },
    {
     "mangled_component_name":"_ZN6google8protobuf7Message21CheckTypeAndMergeFromERKNS0_11MessageLiteE"
    },
    {
     "mangled_component_name":"_ZN6google8protobuf14SourceCodeInfo27MergePartialFromCodedStreamEPNS0_2io16CodedInputStreamE"
    },
    {
     "mangled_component_name":"_ZNK6google8protobuf14SourceCodeInfo8ByteSizeEv"
    },
    {
     "mangled_component_name":"_ZNK6google8protobuf14SourceCodeInfo24SerializeWithCachedSizesEPNS0_2io17CodedOutputStreamE"
    },
    {
     "mangled_component_name":"_ZNK6google8protobuf14SourceCodeInfo31SerializeWithCachedSizesToArrayEPh"
    },
    {
     "mangled_component_name":"_ZNK6google8protobuf14SourceCodeInfo13GetCachedSizeEv"
    },
    {
     "mangled_component_name":"_ZN6google8protobuf14SourceCodeInfo8CopyFromERKNS0_7MessageE"
    },
    {
     "mangled_component_name":"_ZN6google8protobuf14SourceCodeInfo9MergeFromERKNS0_7MessageE"
    },
    {
     "mangled_component_name":"_ZN6google8protobuf7Message20DiscardUnknownFieldsEv"
    },
    {
     "mangled_component_name":"_ZNK6google8protobuf7Message9SpaceUsedEv"
    },
    {
     "mangled_component_name":"_ZNK6google8protobuf14SourceCodeInfo13SetCachedSizeEi"
    },
    {
     "mangled_component_name":"_ZNK6google8protobuf7Message13GetReflectionEv"
    },
    {
     "mangled_component_name":"_ZNK6google8protobuf14SourceCodeInfo11GetMetadataEv"
    }
   ],
   "unique_id":"_ZTSN6google8protobuf14SourceCodeInfoE"
  },
  {
   "vtable_components":[
    {
     "kind":"offset_to_top"
    },
    {
     "kind":"rtti",
     "mangled_component_name":"_ZTIN6google8protobuf23SourceCodeInfo_LocationE"
    },
    {
     "kind":"complete_dtor_pointer",
     "mangled_component_name":"_ZN6google8protobuf23SourceCodeInfo_LocationD1Ev"
    },
    {
     "kind":"deleting_dtor_pointer",
     "mangled_component_name":"_ZN6google8protobuf23SourceCodeInfo_LocationD0Ev"
    },
    {
     "mangled_component_name":"_ZNK6google8protobuf7Message11GetTypeNameEv"
    },
    {
     "mangled_component_name":"_ZNK6google8protobuf23SourceCodeInfo_Location3NewEv"
    },
    {
     "mangled_component_name":"_ZNK6google8protobuf23SourceCodeInfo_Location3NewEPNS0_5ArenaE"
    },
    {
     "mangled_component_name":"_ZNK6google8protobuf11MessageLite8GetArenaEv"
    },
    {
     "mangled_component_name":"_ZNK6google8protobuf11MessageLite20GetMaybeArenaPointerEv"
    },
    {
     "mangled_component_name":"_ZN6google8protobuf23SourceCodeInfo_Location5ClearEv"
    },
    {
     "mangled_component_name":"_ZNK6google8protobuf23SourceCodeInfo_Location13IsInitializedEv"
    },
    {
     "mangled_component_name":"_ZNK6google8protobuf7Message25InitializationErrorStringEv"
    },
    {
     "mangled_component_name":"_ZN6google8protobuf7Message21CheckTypeAndMergeFromERKNS0_11MessageLiteE"
    },
    {
     "mangled_component_name":"_ZN6google8protobuf23SourceCodeInfo_Location27MergePartialFromCodedStreamEPNS0_2io16CodedInputStreamE"
    },
    {
     "mangled_component_name":"_ZNK6google8protobuf23SourceCodeInfo_Location8ByteSizeEv"
    },
    {
     "mangled_component_name":"_ZNK6google8protobuf23SourceCodeInfo_Location24SerializeWithCachedSizesEPNS0_2io17CodedOutputStreamE"
    },
    {
     "mangled_component_name":"_ZNK6google8protobuf23SourceCodeInfo_Location31SerializeWithCachedSizesToArrayEPh"
    },
    {
     "mangled_component_name":"_ZNK6google8protobuf23SourceCodeInfo_Location13GetCachedSizeEv"
    },
    {
     "mangled_component_name":"_ZN6google8protobuf23SourceCodeInfo_Location8CopyFromERKNS0_7MessageE"
    },
    {
     "mangled_component_name":"_ZN6google8protobuf23SourceCodeInfo_Location9MergeFromERKNS0_7MessageE"
    },
    {
     "mangled_component_name":"_ZN6google8protobuf7Message20DiscardUnknownFieldsEv"
    },
    {
     "mangled_component_name":"_ZNK6google8protobuf7Message9SpaceUsedEv"
    },
    {
     "mangled_component_name":"_ZNK6google8protobuf23SourceCodeInfo_Location13SetCachedSizeEi"
    },
    {
     "mangled_component_name":"_ZNK6google8protobuf7Message13GetReflectionEv"
    },
    {
     "mangled_component_name":"_ZNK6google8protobuf23SourceCodeInfo_Location11GetMetadataEv"
    }
   ],
   "unique_id":"_ZTSN6google8protobuf23SourceCodeInfo_LocationE"
  },
  {
   "vtable_components":[
    {
     "kind":"offset_to_top"
    },
    {
     "kind":"rtti",
     "mangled_component_name":"_ZTIN6google8protobuf7strings8ByteSinkE"
    },
    {
     "kind":"complete_dtor_pointer",
     "mangled_component_name":"_ZN6google8protobuf7strings8ByteSinkD1Ev"
    },
    {
     "kind":"deleting_dtor_pointer",
     "mangled_component_name":"_ZN6google8protobuf7strings8ByteSinkD0Ev"
    },
    {
     "is_pure":true,
     "mangled_component_name":"_ZN6google8protobuf7strings8ByteSink6AppendEPKcm"
    },
    {
     "mangled_component_name":"_ZN6google8protobuf7strings8ByteSink5FlushEv"
    }
   ],
   "unique_id":"_ZTSN6google8protobuf7strings8ByteSinkE"
  },
  {
   "vtable_components":[
    {
     "kind":"offset_to_top"
    },
    {
     "kind":"rtti",
     "mangled_component_name":"_ZTIN6google8protobuf28GeneratedCodeInfo_AnnotationE"
    },
    {
     "kind":"complete_dtor_pointer",
     "mangled_component_name":"_ZN6google8protobuf28GeneratedCodeInfo_AnnotationD1Ev"
    },
    {
     "kind":"deleting_dtor_pointer",
     "mangled_component_name":"_ZN6google8protobuf28GeneratedCodeInfo_AnnotationD0Ev"
    },
    {
     "mangled_component_name":"_ZNK6google8protobuf7Message11GetTypeNameEv"
    },
    {
     "mangled_component_name":"_ZNK6google8protobuf28GeneratedCodeInfo_Annotation3NewEv"
    },
    {
     "mangled_component_name":"_ZNK6google8protobuf28GeneratedCodeInfo_Annotation3NewEPNS0_5ArenaE"
    },
    {
     "mangled_component_name":"_ZNK6google8protobuf11MessageLite8GetArenaEv"
    },
    {
     "mangled_component_name":"_ZNK6google8protobuf11MessageLite20GetMaybeArenaPointerEv"
    },
    {
     "mangled_component_name":"_ZN6google8protobuf28GeneratedCodeInfo_Annotation5ClearEv"
    },
    {
     "mangled_component_name":"_ZNK6google8protobuf28GeneratedCodeInfo_Annotation13IsInitializedEv"
    },
    {
     "mangled_component_name":"_ZNK6google8protobuf7Message25InitializationErrorStringEv"
    },
    {
     "mangled_component_name":"_ZN6google8protobuf7Message21CheckTypeAndMergeFromERKNS0_11MessageLiteE"
    },
    {
     "mangled_component_name":"_ZN6google8protobuf28GeneratedCodeInfo_Annotation27MergePartialFromCodedStreamEPNS0_2io16CodedInputStreamE"
    },
    {
     "mangled_component_name":"_ZNK6google8protobuf28GeneratedCodeInfo_Annotation8ByteSizeEv"
    },
    {
     "mangled_component_name":"_ZNK6google8protobuf28GeneratedCodeInfo_Annotation24SerializeWithCachedSizesEPNS0_2io17CodedOutputStreamE"
    },
    {
     "mangled_component_name":"_ZNK6google8protobuf28GeneratedCodeInfo_Annotation31SerializeWithCachedSizesToArrayEPh"
    },
    {
     "mangled_component_name":"_ZNK6google8protobuf28GeneratedCodeInfo_Annotation13GetCachedSizeEv"
    },
    {
     "mangled_component_name":"_ZN6google8protobuf28GeneratedCodeInfo_Annotation8CopyFromERKNS0_7MessageE"
    },
    {
     "mangled_component_name":"_ZN6google8protobuf28GeneratedCodeInfo_Annotation9MergeFromERKNS0_7MessageE"
    },
    {
     "mangled_component_name":"_ZN6google8protobuf7Message20DiscardUnknownFieldsEv"
    },
    {
     "mangled_component_name":"_ZNK6google8protobuf7Message9SpaceUsedEv"
    },
    {
     "mangled_component_name":"_ZNK6google8protobuf28GeneratedCodeInfo_Annotation13SetCachedSizeEi"
    },
    {
     "mangled_component_name":"_ZNK6google8protobuf7Message13GetReflectionEv"
    },
    {
     "mangled_component_name":"_ZNK6google8protobuf28GeneratedCodeInfo_Annotation11GetMetadataEv"
    }
   ],
   "unique_id":"_ZTSN6google8protobuf28GeneratedCodeInfo_AnnotationE"
  },
  {
   "vtable_components":[
    {
     "kind":"offset_to_top"
    },
    {
     "kind":"rtti",
     "mangled_component_name":"_ZTIN6google8protobuf7strings20CheckedArrayByteSinkE"
    },
    {
     "kind":"complete_dtor_pointer",
     "mangled_component_name":"_ZN6google8protobuf7strings20CheckedArrayByteSinkD1Ev"
    },
    {
     "kind":"deleting_dtor_pointer",
     "mangled_component_name":"_ZN6google8protobuf7strings20CheckedArrayByteSinkD0Ev"
    },
    {
     "mangled_component_name":"_ZN6google8protobuf7strings20CheckedArrayByteSink6AppendEPKcm"
    },
    {
     "mangled_component_name":"_ZN6google8protobuf7strings8ByteSink5FlushEv"
    }
   ],
   "unique_id":"_ZTSN6google8protobuf7strings20CheckedArrayByteSinkE"
  },
  {
   "vtable_components":[
    {
     "kind":"offset_to_top"
    },
    {
     "kind":"rtti",
     "mangled_component_name":"_ZTIN6google8protobuf3AnyE"
    },
    {
     "kind":"complete_dtor_pointer",
     "mangled_component_name":"_ZN6google8protobuf3AnyD1Ev"
    },
    {
     "kind":"deleting_dtor_pointer",
     "mangled_component_name":"_ZN6google8protobuf3AnyD0Ev"
    },
    {
     "mangled_component_name":"_ZNK6google8protobuf7Message11GetTypeNameEv"
    },
    {
     "mangled_component_name":"_ZNK6google8protobuf3Any3NewEv"
    },
    {
     "mangled_component_name":"_ZNK6google8protobuf3Any3NewEPNS0_5ArenaE"
    },
    {
     "mangled_component_name":"_ZNK6google8protobuf11MessageLite8GetArenaEv"
    },
    {
     "mangled_component_name":"_ZNK6google8protobuf11MessageLite20GetMaybeArenaPointerEv"
    },
    {
     "mangled_component_name":"_ZN6google8protobuf3Any5ClearEv"
    },
    {
     "mangled_component_name":"_ZNK6google8protobuf3Any13IsInitializedEv"
    },
    {
     "mangled_component_name":"_ZNK6google8protobuf7Message25InitializationErrorStringEv"
    },
    {
     "mangled_component_name":"_ZN6google8protobuf7Message21CheckTypeAndMergeFromERKNS0_11MessageLiteE"
    },
    {
     "mangled_component_name":"_ZN6google8protobuf3Any27MergePartialFromCodedStreamEPNS0_2io16CodedInputStreamE"
    },
    {
     "mangled_component_name":"_ZNK6google8protobuf3Any8ByteSizeEv"
    },
    {
     "mangled_component_name":"_ZNK6google8protobuf3Any24SerializeWithCachedSizesEPNS0_2io17CodedOutputStreamE"
    },
    {
     "mangled_component_name":"_ZNK6google8protobuf3Any31SerializeWithCachedSizesToArrayEPh"
    },
    {
     "mangled_component_name":"_ZNK6google8protobuf3Any13GetCachedSizeEv"
    },
    {
     "mangled_component_name":"_ZN6google8protobuf3Any8CopyFromERKNS0_7MessageE"
    },
    {
     "mangled_component_name":"_ZN6google8protobuf3Any9MergeFromERKNS0_7MessageE"
    },
    {
     "mangled_component_name":"_ZN6google8protobuf7Message20DiscardUnknownFieldsEv"
    },
    {
     "mangled_component_name":"_ZNK6google8protobuf7Message9SpaceUsedEv"
    },
    {
     "mangled_component_name":"_ZNK6google8protobuf3Any13SetCachedSizeEi"
    },
    {
     "mangled_component_name":"_ZNK6google8protobuf7Message13GetReflectionEv"
    },
    {
     "mangled_component_name":"_ZNK6google8protobuf3Any11GetMetadataEv"
    }
   ],
   "unique_id":"_ZTSN6google8protobuf3AnyE"
  },
  {
   "vtable_components":[
    {
     "kind":"offset_to_top"
    },
    {
     "kind":"rtti",
     "mangled_component_name":"_ZTIN6google8protobuf14DescriptorPool14ErrorCollectorE"
    },
    {
     "kind":"complete_dtor_pointer",
     "mangled_component_name":"_ZN6google8protobuf14DescriptorPool14ErrorCollectorD1Ev"
    },
    {
     "kind":"deleting_dtor_pointer",
     "mangled_component_name":"_ZN6google8protobuf14DescriptorPool14ErrorCollectorD0Ev"
    },
    {
     "is_pure":true,
     "mangled_component_name":"_ZN6google8protobuf14DescriptorPool14ErrorCollector8AddErrorERKNSt3__112basic_stringIcNS3_11char_traitsIcEENS3_9allocatorIcEEEESB_PKNS0_7MessageENS2_13ErrorLocationESB_"
    },
    {
     "mangled_component_name":"_ZN6google8protobuf14DescriptorPool14ErrorCollector10AddWarningERKNSt3__112basic_stringIcNS3_11char_traitsIcEENS3_9allocatorIcEEEESB_PKNS0_7MessageENS2_13ErrorLocationESB_"
    }
   ],
   "unique_id":"_ZTSN6google8protobuf14DescriptorPool14ErrorCollectorE"
  },
  {
   "vtable_components":[
    {
     "kind":"offset_to_top"
    },
    {
     "kind":"rtti",
     "mangled_component_name":"_ZTIN6google8protobuf4util9converter16JsonObjectWriter7ElementE"
    },
    {
     "kind":"complete_dtor_pointer",
     "mangled_component_name":"_ZN6google8protobuf4util9converter16JsonObjectWriter7ElementD1Ev"
    },
    {
     "kind":"deleting_dtor_pointer",
     "mangled_component_name":"_ZN6google8protobuf4util9converter16JsonObjectWriter7ElementD0Ev"
    },
    {
     "mangled_component_name":"_ZNK6google8protobuf4util9converter22StructuredObjectWriter11BaseElement6parentEv"
    }
   ],
   "unique_id":"_ZTSN6google8protobuf4util9converter16JsonObjectWriter7ElementE"
  },
  {
   "vtable_components":[
    {
     "kind":"offset_to_top"
    },
    {
     "kind":"rtti",
     "mangled_component_name":"_ZTIN6google8protobuf4util9converter22StructuredObjectWriter11BaseElementE"
    },
    {
     "kind":"complete_dtor_pointer",
     "mangled_component_name":"_ZN6google8protobuf4util9converter22StructuredObjectWriter11BaseElementD1Ev"
    },
    {
     "kind":"deleting_dtor_pointer",
     "mangled_component_name":"_ZN6google8protobuf4util9converter22StructuredObjectWriter11BaseElementD0Ev"
    },
    {
     "mangled_component_name":"_ZNK6google8protobuf4util9converter22StructuredObjectWriter11BaseElement6parentEv"
    }
   ],
   "unique_id":"_ZTSN6google8protobuf4util9converter22StructuredObjectWriter11BaseElementE"
  },
  {
   "vtable_components":[
    {
     "kind":"offset_to_top"
    },
    {
     "kind":"rtti",
     "mangled_component_name":"_ZTIN6google8protobuf4util9converter16JsonObjectWriterE"
    },
    {
     "kind":"complete_dtor_pointer",
     "mangled_component_name":"_ZN6google8protobuf4util9converter16JsonObjectWriterD1Ev"
    },
    {
     "kind":"deleting_dtor_pointer",
     "mangled_component_name":"_ZN6google8protobuf4util9converter16JsonObjectWriterD0Ev"
    },
    {
     "mangled_component_name":"_ZN6google8protobuf4util9converter16JsonObjectWriter11StartObjectENS0_11StringPieceE"
    },
    {
     "mangled_component_name":"_ZN6google8protobuf4util9converter16JsonObjectWriter9EndObjectEv"
    },
    {
     "mangled_component_name":"_ZN6google8protobuf4util9converter16JsonObjectWriter9StartListENS0_11StringPieceE"
    },
    {
     "mangled_component_name":"_ZN6google8protobuf4util9converter16JsonObjectWriter7EndListEv"
    },
    {
     "mangled_component_name":"_ZN6google8protobuf4util9converter16JsonObjectWriter10RenderBoolENS0_11StringPieceEb"
    },
    {
     "mangled_component_name":"_ZN6google8protobuf4util9converter16JsonObjectWriter11RenderInt32ENS0_11StringPieceEi"
    },
    {
     "mangled_component_name":"_ZN6google8protobuf4util9converter16JsonObjectWriter12RenderUint32ENS0_11StringPieceEj"
    },
    {
     "mangled_component_name":"_ZN6google8protobuf4util9converter16JsonObjectWriter11RenderInt64ENS0_11StringPieceEx"
    },
    {
     "mangled_component_name":"_ZN6google8protobuf4util9converter16JsonObjectWriter12RenderUint64ENS0_11StringPieceEy"
    },
    {
     "mangled_component_name":"_ZN6google8protobuf4util9converter16JsonObjectWriter12RenderDoubleENS0_11StringPieceEd"
    },
    {
     "mangled_component_name":"_ZN6google8protobuf4util9converter16JsonObjectWriter11RenderFloatENS0_11StringPieceEf"
    },
    {
     "mangled_component_name":"_ZN6google8protobuf4util9converter16JsonObjectWriter12RenderStringENS0_11StringPieceES4_"
    },
    {
     "mangled_component_name":"_ZN6google8protobuf4util9converter16JsonObjectWriter11RenderBytesENS0_11StringPieceES4_"
    },
    {
     "mangled_component_name":"_ZN6google8protobuf4util9converter16JsonObjectWriter10RenderNullENS0_11StringPieceE"
    },
    {
     "mangled_component_name":"_ZN6google8protobuf4util9converter12ObjectWriter4doneEv"
    },
    {
     "mangled_component_name":"_ZN6google8protobuf4util9converter16JsonObjectWriter7elementEv"
    }
   ],
   "unique_id":"_ZTSN6google8protobuf4util9converter16JsonObjectWriterE"
  },
  {
   "vtable_components":[
    {
     "kind":"offset_to_top"
    },
    {
     "kind":"rtti",
     "mangled_component_name":"_ZTIN6google8protobuf4util9converter16JsonObjectWriter15ByteSinkWrapperE"
    },
    {
     "kind":"complete_dtor_pointer",
     "mangled_component_name":"_ZN6google8protobuf4util9converter16JsonObjectWriter15ByteSinkWrapperD1Ev"
    },
    {
     "kind":"deleting_dtor_pointer",
     "mangled_component_name":"_ZN6google8protobuf4util9converter16JsonObjectWriter15ByteSinkWrapperD0Ev"
    },
    {
     "mangled_component_name":"_ZN6google8protobuf4util9converter16JsonObjectWriter15ByteSinkWrapper6AppendEPKcm"
    },
    {
     "mangled_component_name":"_ZN6google8protobuf7strings8ByteSink5FlushEv"
    }
   ],
   "unique_id":"_ZTSN6google8protobuf4util9converter16JsonObjectWriter15ByteSinkWrapperE"
  },
  {
   "vtable_components":[
    {
     "kind":"offset_to_top"
    },
    {
     "kind":"rtti",
     "mangled_component_name":"_ZTIN6google8protobuf4util9converter16JsonStreamParserE"
    },
    {
     "kind":"complete_dtor_pointer",
     "mangled_component_name":"_ZN6google8protobuf4util9converter16JsonStreamParserD1Ev"
    },
    {
     "kind":"deleting_dtor_pointer",
     "mangled_component_name":"_ZN6google8protobuf4util9converter16JsonStreamParserD0Ev"
    }
   ],
   "unique_id":"_ZTSN6google8protobuf4util9converter16JsonStreamParserE"
  },
  {
   "vtable_components":[
    {
     "kind":"offset_to_top"
    },
    {
     "kind":"rtti",
     "mangled_component_name":"_ZTIN6google8protobuf4util9converter23ProtoStreamObjectSourceE"
    },
    {
     "kind":"complete_dtor_pointer",
     "mangled_component_name":"_ZN6google8protobuf4util9converter23ProtoStreamObjectSourceD1Ev"
    },
    {
     "kind":"deleting_dtor_pointer",
     "mangled_component_name":"_ZN6google8protobuf4util9converter23ProtoStreamObjectSourceD0Ev"
    },
    {
     "mangled_component_name":"_ZNK6google8protobuf4util9converter12ObjectSource7WriteToEPNS2_12ObjectWriterE"
    },
    {
     "mangled_component_name":"_ZNK6google8protobuf4util9converter23ProtoStreamObjectSource12NamedWriteToENS0_11StringPieceEPNS2_12ObjectWriterE"
    },
    {
     "mangled_component_name":"_ZNK6google8protobuf4util9converter23ProtoStreamObjectSource12WriteMessageERKNS0_4TypeENS0_11StringPieceEjbPNS2_12ObjectWriterE"
    }
   ],
   "unique_id":"_ZTSN6google8protobuf4util9converter23ProtoStreamObjectSourceE"
  },
  {
   "vtable_components":[
    {
     "kind":"offset_to_top"
    },
    {
     "kind":"rtti",
     "mangled_component_name":"_ZTIN6google8protobuf8internal26FunctionResultCallback_1_1INS0_4util6StatusEPNS3_9converter23ProtoStreamObjectWriterENS0_11StringPieceEEE"
    },
    {
     "kind":"complete_dtor_pointer",
     "mangled_component_name":"_ZN6google8protobuf8internal26FunctionResultCallback_1_1INS0_4util6StatusEPNS3_9converter23ProtoStreamObjectWriterENS0_11StringPieceEED1Ev"
    },
    {
     "kind":"deleting_dtor_pointer",
     "mangled_component_name":"_ZN6google8protobuf8internal26FunctionResultCallback_1_1INS0_4util6StatusEPNS3_9converter23ProtoStreamObjectWriterENS0_11StringPieceEED0Ev"
    },
    {
     "mangled_component_name":"_ZN6google8protobuf8internal26FunctionResultCallback_1_1INS0_4util6StatusEPNS3_9converter23ProtoStreamObjectWriterENS0_11StringPieceEE3RunES8_"
    }
   ],
   "unique_id":"_ZTSN6google8protobuf8internal26FunctionResultCallback_1_1INS0_4util6StatusEPNS3_9converter23ProtoStreamObjectWriterENS0_11StringPieceEEE"
  },
  {
   "vtable_components":[
    {
     "kind":"offset_to_top"
    },
    {
     "kind":"rtti",
     "mangled_component_name":"_ZTIN6google8protobuf4util9converter23ProtoStreamObjectWriterE"
    },
    {
     "kind":"complete_dtor_pointer",
     "mangled_component_name":"_ZN6google8protobuf4util9converter23ProtoStreamObjectWriterD1Ev"
    },
    {
     "kind":"deleting_dtor_pointer",
     "mangled_component_name":"_ZN6google8protobuf4util9converter23ProtoStreamObjectWriterD0Ev"
    },
    {
     "mangled_component_name":"_ZN6google8protobuf4util9converter23ProtoStreamObjectWriter11StartObjectENS0_11StringPieceE"
    },
    {
     "mangled_component_name":"_ZN6google8protobuf4util9converter23ProtoStreamObjectWriter9EndObjectEv"
    },
    {
     "mangled_component_name":"_ZN6google8protobuf4util9converter23ProtoStreamObjectWriter9StartListENS0_11StringPieceE"
    },
    {
     "mangled_component_name":"_ZN6google8protobuf4util9converter23ProtoStreamObjectWriter7EndListEv"
    },
    {
     "mangled_component_name":"_ZN6google8protobuf4util9converter11ProtoWriter10RenderBoolENS0_11StringPieceEb"
    },
    {
     "mangled_component_name":"_ZN6google8protobuf4util9converter11ProtoWriter11RenderInt32ENS0_11StringPieceEi"
    },
    {
     "mangled_component_name":"_ZN6google8protobuf4util9converter11ProtoWriter12RenderUint32ENS0_11StringPieceEj"
    },
    {
     "mangled_component_name":"_ZN6google8protobuf4util9converter11ProtoWriter11RenderInt64ENS0_11StringPieceEx"
    },
    {
     "mangled_component_name":"_ZN6google8protobuf4util9converter11ProtoWriter12RenderUint64ENS0_11StringPieceEy"
    },
    {
     "mangled_component_name":"_ZN6google8protobuf4util9converter11ProtoWriter12RenderDoubleENS0_11StringPieceEd"
    },
    {
     "mangled_component_name":"_ZN6google8protobuf4util9converter11ProtoWriter11RenderFloatENS0_11StringPieceEf"
    },
    {
     "mangled_component_name":"_ZN6google8protobuf4util9converter11ProtoWriter12RenderStringENS0_11StringPieceES4_"
    },
    {
     "mangled_component_name":"_ZN6google8protobuf4util9converter11ProtoWriter11RenderBytesENS0_11StringPieceES4_"
    },
    {
     "mangled_component_name":"_ZN6google8protobuf4util9converter11ProtoWriter10RenderNullENS0_11StringPieceE"
    },
    {
     "mangled_component_name":"_ZN6google8protobuf4util9converter11ProtoWriter4doneEv"
    },
    {
     "mangled_component_name":"_ZN6google8protobuf4util9converter11ProtoWriter7elementEv"
    },
    {
     "mangled_component_name":"_ZN6google8protobuf4util9converter23ProtoStreamObjectWriter15RenderDataPieceENS0_11StringPieceERKNS2_9DataPieceE"
    }
   ],
   "unique_id":"_ZTSN6google8protobuf4util9converter23ProtoStreamObjectWriterE"
  },
  {
   "vtable_components":[
    {
     "kind":"offset_to_top"
    },
    {
     "kind":"rtti",
     "mangled_component_name":"_ZTIN6google8protobuf4util9converter23ProtoStreamObjectWriter4ItemE"
    },
    {
     "kind":"complete_dtor_pointer",
     "mangled_component_name":"_ZN6google8protobuf4util9converter23ProtoStreamObjectWriter4ItemD1Ev"
    },
    {
     "kind":"deleting_dtor_pointer",
     "mangled_component_name":"_ZN6google8protobuf4util9converter23ProtoStreamObjectWriter4ItemD0Ev"
    },
    {
     "mangled_component_name":"_ZNK6google8protobuf4util9converter23ProtoStreamObjectWriter4Item6parentEv"
    }
   ],
   "unique_id":"_ZTSN6google8protobuf4util9converter23ProtoStreamObjectWriter4ItemE"
  },
  {
   "vtable_components":[
    {
     "kind":"offset_to_top"
    },
    {
     "kind":"rtti",
     "mangled_component_name":"_ZTIN6google8protobuf4util9converter11ProtoWriterE"
    },
    {
     "kind":"complete_dtor_pointer",
     "mangled_component_name":"_ZN6google8protobuf4util9converter11ProtoWriterD1Ev"
    },
    {
     "kind":"deleting_dtor_pointer",
     "mangled_component_name":"_ZN6google8protobuf4util9converter11ProtoWriterD0Ev"
    },
    {
     "mangled_component_name":"_ZN6google8protobuf4util9converter11ProtoWriter11StartObjectENS0_11StringPieceE"
    },
    {
     "mangled_component_name":"_ZN6google8protobuf4util9converter11ProtoWriter9EndObjectEv"
    },
    {
     "mangled_component_name":"_ZN6google8protobuf4util9converter11ProtoWriter9StartListENS0_11StringPieceE"
    },
    {
     "mangled_component_name":"_ZN6google8protobuf4util9converter11ProtoWriter7EndListEv"
    },
    {
     "mangled_component_name":"_ZN6google8protobuf4util9converter11ProtoWriter10RenderBoolENS0_11StringPieceEb"
    },
    {
     "mangled_component_name":"_ZN6google8protobuf4util9converter11ProtoWriter11RenderInt32ENS0_11StringPieceEi"
    },
    {
     "mangled_component_name":"_ZN6google8protobuf4util9converter11ProtoWriter12RenderUint32ENS0_11StringPieceEj"
    },
    {
     "mangled_component_name":"_ZN6google8protobuf4util9converter11ProtoWriter11RenderInt64ENS0_11StringPieceEx"
    },
    {
     "mangled_component_name":"_ZN6google8protobuf4util9converter11ProtoWriter12RenderUint64ENS0_11StringPieceEy"
    },
    {
     "mangled_component_name":"_ZN6google8protobuf4util9converter11ProtoWriter12RenderDoubleENS0_11StringPieceEd"
    },
    {
     "mangled_component_name":"_ZN6google8protobuf4util9converter11ProtoWriter11RenderFloatENS0_11StringPieceEf"
    },
    {
     "mangled_component_name":"_ZN6google8protobuf4util9converter11ProtoWriter12RenderStringENS0_11StringPieceES4_"
    },
    {
     "mangled_component_name":"_ZN6google8protobuf4util9converter11ProtoWriter11RenderBytesENS0_11StringPieceES4_"
    },
    {
     "mangled_component_name":"_ZN6google8protobuf4util9converter11ProtoWriter10RenderNullENS0_11StringPieceE"
    },
    {
     "mangled_component_name":"_ZN6google8protobuf4util9converter11ProtoWriter4doneEv"
    },
    {
     "mangled_component_name":"_ZN6google8protobuf4util9converter11ProtoWriter7elementEv"
    },
    {
     "mangled_component_name":"_ZN6google8protobuf4util9converter11ProtoWriter15RenderDataPieceENS0_11StringPieceERKNS2_9DataPieceE"
    }
   ],
   "unique_id":"_ZTSN6google8protobuf4util9converter11ProtoWriterE"
  },
  {
   "vtable_components":[
    {
     "kind":"offset_to_top"
    },
    {
     "kind":"rtti",
     "mangled_component_name":"_ZTIN6google8protobuf4util9converter11ProtoWriter12ProtoElementE"
    },
    {
     "kind":"complete_dtor_pointer",
     "mangled_component_name":"_ZN6google8protobuf4util9converter11ProtoWriter12ProtoElementD1Ev"
    },
    {
     "kind":"deleting_dtor_pointer",
     "mangled_component_name":"_ZN6google8protobuf4util9converter11ProtoWriter12ProtoElementD0Ev"
    },
    {
     "mangled_component_name":"_ZNK6google8protobuf4util9converter11ProtoWriter12ProtoElement6parentEv"
    },
    {
     "mangled_component_name":"_ZNK6google8protobuf4util9converter11ProtoWriter12ProtoElement8ToStringEv"
    },
    {
     "kind":"offset_to_top",
     "component_value":-24
    },
    {
     "kind":"rtti",
     "mangled_component_name":"_ZTIN6google8protobuf4util9converter11ProtoWriter12ProtoElementE"
    },
    {
     "kind":"complete_dtor_pointer",
     "mangled_component_name":"_ZThn24_N6google8protobuf4util9converter11ProtoWriter12ProtoElementD1Ev"
    },
    {
     "kind":"deleting_dtor_pointer",
     "mangled_component_name":"_ZThn24_N6google8protobuf4util9converter11ProtoWriter12ProtoElementD0Ev"
    },
    {
     "mangled_component_name":"_ZThn24_NK6google8protobuf4util9converter11ProtoWriter12ProtoElement8ToStringEv"
    }
   ],
   "unique_id":"_ZTSN6google8protobuf4util9converter11ProtoWriter12ProtoElementE"
  },
  {
   "vtable_components":[
    {
     "kind":"offset_to_top"
    },
    {
     "kind":"rtti",
     "mangled_component_name":"_ZTIN6google8protobuf4util9converter21ObjectLocationTrackerE"
    },
    {
     "kind":"complete_dtor_pointer",
     "mangled_component_name":"_ZN6google8protobuf4util9converter21ObjectLocationTrackerD1Ev"
    },
    {
     "kind":"deleting_dtor_pointer",
     "mangled_component_name":"_ZN6google8protobuf4util9converter21ObjectLocationTrackerD0Ev"
    },
    {
     "mangled_component_name":"_ZNK6google8protobuf4util9converter21ObjectLocationTracker8ToStringEv"
    }
   ],
   "unique_id":"_ZTSN6google8protobuf4util9converter21ObjectLocationTrackerE"
  },
  {
   "vtable_components":[
    {
     "kind":"offset_to_top"
    },
    {
     "kind":"rtti",
     "mangled_component_name":"_ZTIN6google8protobuf10ReflectionE"
    },
    {
     "kind":"complete_dtor_pointer",
     "mangled_component_name":"_ZN6google8protobuf10ReflectionD1Ev"
    },
    {
     "kind":"deleting_dtor_pointer",
     "mangled_component_name":"_ZN6google8protobuf10ReflectionD0Ev"
    },
    {
     "is_pure":true,
     "mangled_component_name":"_ZNK6google8protobuf10Reflection16GetUnknownFieldsERKNS0_7MessageE"
    },
    {
     "is_pure":true,
     "mangled_component_name":"_ZNK6google8protobuf10Reflection20MutableUnknownFieldsEPNS0_7MessageE"
    },
    {
     "is_pure":true,
     "mangled_component_name":"_ZNK6google8protobuf10Reflection9SpaceUsedERKNS0_7MessageE"
    },
    {
     "is_pure":true,
     "mangled_component_name":"_ZNK6google8protobuf10Reflection8HasFieldERKNS0_7MessageEPKNS0_15FieldDescriptorE"
    },
    {
     "is_pure":true,
     "mangled_component_name":"_ZNK6google8protobuf10Reflection9FieldSizeERKNS0_7MessageEPKNS0_15FieldDescriptorE"
    },
    {
     "is_pure":true,
     "mangled_component_name":"_ZNK6google8protobuf10Reflection10ClearFieldEPNS0_7MessageEPKNS0_15FieldDescriptorE"
    },
    {
     "mangled_component_name":"_ZNK6google8protobuf10Reflection8HasOneofERKNS0_7MessageEPKNS0_15OneofDescriptorE"
    },
    {
     "mangled_component_name":"_ZNK6google8protobuf10Reflection10ClearOneofEPNS0_7MessageEPKNS0_15OneofDescriptorE"
    },
    {
     "mangled_component_name":"_ZNK6google8protobuf10Reflection23GetOneofFieldDescriptorERKNS0_7MessageEPKNS0_15OneofDescriptorE"
    },
    {
     "is_pure":true,
     "mangled_component_name":"_ZNK6google8protobuf10Reflection10RemoveLastEPNS0_7MessageEPKNS0_15FieldDescriptorE"
    },
    {
     "is_pure":true,
     "mangled_component_name":"_ZNK6google8protobuf10Reflection11ReleaseLastEPNS0_7MessageEPKNS0_15FieldDescriptorE"
    },
    {
     "is_pure":true,
     "mangled_component_name":"_ZNK6google8protobuf10Reflection4SwapEPNS0_7MessageES3_"
    },
    {
     "is_pure":true,
     "mangled_component_name":"_ZNK6google8protobuf10Reflection10SwapFieldsEPNS0_7MessageES3_RKNSt3__16vectorIPKNS0_15FieldDescriptorENS4_9allocatorIS8_EEEE"
    },
    {
     "is_pure":true,
     "mangled_component_name":"_ZNK6google8protobuf10Reflection12SwapElementsEPNS0_7MessageEPKNS0_15FieldDescriptorEii"
    },
    {
     "is_pure":true,
     "mangled_component_name":"_ZNK6google8protobuf10Reflection10ListFieldsERKNS0_7MessageEPNSt3__16vectorIPKNS0_15FieldDescriptorENS5_9allocatorIS9_EEEE"
    },
    {
     "is_pure":true,
     "mangled_component_name":"_ZNK6google8protobuf10Reflection8GetInt32ERKNS0_7MessageEPKNS0_15FieldDescriptorE"
    },
    {
     "is_pure":true,
     "mangled_component_name":"_ZNK6google8protobuf10Reflection8GetInt64ERKNS0_7MessageEPKNS0_15FieldDescriptorE"
    },
    {
     "is_pure":true,
     "mangled_component_name":"_ZNK6google8protobuf10Reflection9GetUInt32ERKNS0_7MessageEPKNS0_15FieldDescriptorE"
    },
    {
     "is_pure":true,
     "mangled_component_name":"_ZNK6google8protobuf10Reflection9GetUInt64ERKNS0_7MessageEPKNS0_15FieldDescriptorE"
    },
    {
     "is_pure":true,
     "mangled_component_name":"_ZNK6google8protobuf10Reflection8GetFloatERKNS0_7MessageEPKNS0_15FieldDescriptorE"
    },
    {
     "is_pure":true,
     "mangled_component_name":"_ZNK6google8protobuf10Reflection9GetDoubleERKNS0_7MessageEPKNS0_15FieldDescriptorE"
    },
    {
     "is_pure":true,
     "mangled_component_name":"_ZNK6google8protobuf10Reflection7GetBoolERKNS0_7MessageEPKNS0_15FieldDescriptorE"
    },
    {
     "is_pure":true,
     "mangled_component_name":"_ZNK6google8protobuf10Reflection9GetStringERKNS0_7MessageEPKNS0_15FieldDescriptorE"
    },
    {
     "is_pure":true,
     "mangled_component_name":"_ZNK6google8protobuf10Reflection7GetEnumERKNS0_7MessageEPKNS0_15FieldDescriptorE"
    },
    {
     "mangled_component_name":"_ZNK6google8protobuf10Reflection12GetEnumValueERKNS0_7MessageEPKNS0_15FieldDescriptorE"
    },
    {
     "is_pure":true,
     "mangled_component_name":"_ZNK6google8protobuf10Reflection10GetMessageERKNS0_7MessageEPKNS0_15FieldDescriptorEPNS0_14MessageFactoryE"
    },
    {
     "is_pure":true,
     "mangled_component_name":"_ZNK6google8protobuf10Reflection18GetStringReferenceERKNS0_7MessageEPKNS0_15FieldDescriptorEPNSt3__112basic_stringIcNS8_11char_traitsIcEENS8_9allocatorIcEEEE"
    },
    {
     "is_pure":true,
     "mangled_component_name":"_ZNK6google8protobuf10Reflection8SetInt32EPNS0_7MessageEPKNS0_15FieldDescriptorEi"
    },
    {
     "is_pure":true,
     "mangled_component_name":"_ZNK6google8protobuf10Reflection8SetInt64EPNS0_7MessageEPKNS0_15FieldDescriptorEx"
    },
    {
     "is_pure":true,
     "mangled_component_name":"_ZNK6google8protobuf10Reflection9SetUInt32EPNS0_7MessageEPKNS0_15FieldDescriptorEj"
    },
    {
     "is_pure":true,
     "mangled_component_name":"_ZNK6google8protobuf10Reflection9SetUInt64EPNS0_7MessageEPKNS0_15FieldDescriptorEy"
    },
    {
     "is_pure":true,
     "mangled_component_name":"_ZNK6google8protobuf10Reflection8SetFloatEPNS0_7MessageEPKNS0_15FieldDescriptorEf"
    },
    {
     "is_pure":true,
     "mangled_component_name":"_ZNK6google8protobuf10Reflection9SetDoubleEPNS0_7MessageEPKNS0_15FieldDescriptorEd"
    },
    {
     "is_pure":true,
     "mangled_component_name":"_ZNK6google8protobuf10Reflection7SetBoolEPNS0_7MessageEPKNS0_15FieldDescriptorEb"
    },
    {
     "is_pure":true,
     "mangled_component_name":"_ZNK6google8protobuf10Reflection9SetStringEPNS0_7MessageEPKNS0_15FieldDescriptorERKNSt3__112basic_stringIcNS7_11char_traitsIcEENS7_9allocatorIcEEEE"
    },
    {
     "is_pure":true,
     "mangled_component_name":"_ZNK6google8protobuf10Reflection7SetEnumEPNS0_7MessageEPKNS0_15FieldDescriptorEPKNS0_19EnumValueDescriptorE"
    },
    {
     "mangled_component_name":"_ZNK6google8protobuf10Reflection12SetEnumValueEPNS0_7MessageEPKNS0_15FieldDescriptorEi"
    },
    {
     "is_pure":true,
     "mangled_component_name":"_ZNK6google8protobuf10Reflection14MutableMessageEPNS0_7MessageEPKNS0_15FieldDescriptorEPNS0_14MessageFactoryE"
    },
    {
     "is_pure":true,
     "mangled_component_name":"_ZNK6google8protobuf10Reflection19SetAllocatedMessageEPNS0_7MessageES3_PKNS0_15FieldDescriptorE"
    },
    {
     "is_pure":true,
     "mangled_component_name":"_ZNK6google8protobuf10Reflection14ReleaseMessageEPNS0_7MessageEPKNS0_15FieldDescriptorEPNS0_14MessageFactoryE"
    },
    {
     "is_pure":true,
     "mangled_component_name":"_ZNK6google8protobuf10Reflection16GetRepeatedInt32ERKNS0_7MessageEPKNS0_15FieldDescriptorEi"
    },
    {
     "is_pure":true,
     "mangled_component_name":"_ZNK6google8protobuf10Reflection16GetRepeatedInt64ERKNS0_7MessageEPKNS0_15FieldDescriptorEi"
    },
    {
     "is_pure":true,
     "mangled_component_name":"_ZNK6google8protobuf10Reflection17GetRepeatedUInt32ERKNS0_7MessageEPKNS0_15FieldDescriptorEi"
    },
    {
     "is_pure":true,
     "mangled_component_name":"_ZNK6google8protobuf10Reflection17GetRepeatedUInt64ERKNS0_7MessageEPKNS0_15FieldDescriptorEi"
    },
    {
     "is_pure":true,
     "mangled_component_name":"_ZNK6google8protobuf10Reflection16GetRepeatedFloatERKNS0_7MessageEPKNS0_15FieldDescriptorEi"
    },
    {
     "is_pure":true,
     "mangled_component_name":"_ZNK6google8protobuf10Reflection17GetRepeatedDoubleERKNS0_7MessageEPKNS0_15FieldDescriptorEi"
    },
    {
     "is_pure":true,
     "mangled_component_name":"_ZNK6google8protobuf10Reflection15GetRepeatedBoolERKNS0_7MessageEPKNS0_15FieldDescriptorEi"
    },
    {
     "is_pure":true,
     "mangled_component_name":"_ZNK6google8protobuf10Reflection17GetRepeatedStringERKNS0_7MessageEPKNS0_15FieldDescriptorEi"
    },
    {
     "is_pure":true,
     "mangled_component_name":"_ZNK6google8protobuf10Reflection15GetRepeatedEnumERKNS0_7MessageEPKNS0_15FieldDescriptorEi"
    },
    {
     "mangled_component_name":"_ZNK6google8protobuf10Reflection20GetRepeatedEnumValueERKNS0_7MessageEPKNS0_15FieldDescriptorEi"
    },
    {
     "is_pure":true,
     "mangled_component_name":"_ZNK6google8protobuf10Reflection18GetRepeatedMessageERKNS0_7MessageEPKNS0_15FieldDescriptorEi"
    },
    {
     "is_pure":true,
     "mangled_component_name":"_ZNK6google8protobuf10Reflection26GetRepeatedStringReferenceERKNS0_7MessageEPKNS0_15FieldDescriptorEiPNSt3__112basic_stringIcNS8_11char_traitsIcEENS8_9allocatorIcEEEE"
    },
    {
     "is_pure":true,
     "mangled_component_name":"_ZNK6google8protobuf10Reflection16SetRepeatedInt32EPNS0_7MessageEPKNS0_15FieldDescriptorEii"
    },
    {
     "is_pure":true,
     "mangled_component_name":"_ZNK6google8protobuf10Reflection16SetRepeatedInt64EPNS0_7MessageEPKNS0_15FieldDescriptorEix"
    },
    {
     "is_pure":true,
     "mangled_component_name":"_ZNK6google8protobuf10Reflection17SetRepeatedUInt32EPNS0_7MessageEPKNS0_15FieldDescriptorEij"
    },
    {
     "is_pure":true,
     "mangled_component_name":"_ZNK6google8protobuf10Reflection17SetRepeatedUInt64EPNS0_7MessageEPKNS0_15FieldDescriptorEiy"
    },
    {
     "is_pure":true,
     "mangled_component_name":"_ZNK6google8protobuf10Reflection16SetRepeatedFloatEPNS0_7MessageEPKNS0_15FieldDescriptorEif"
    },
    {
     "is_pure":true,
     "mangled_component_name":"_ZNK6google8protobuf10Reflection17SetRepeatedDoubleEPNS0_7MessageEPKNS0_15FieldDescriptorEid"
    },
    {
     "is_pure":true,
     "mangled_component_name":"_ZNK6google8protobuf10Reflection15SetRepeatedBoolEPNS0_7MessageEPKNS0_15FieldDescriptorEib"
    },
    {
     "is_pure":true,
     "mangled_component_name":"_ZNK6google8protobuf10Reflection17SetRepeatedStringEPNS0_7MessageEPKNS0_15FieldDescriptorEiRKNSt3__112basic_stringIcNS7_11char_traitsIcEENS7_9allocatorIcEEEE"
    },
    {
     "is_pure":true,
     "mangled_component_name":"_ZNK6google8protobuf10Reflection15SetRepeatedEnumEPNS0_7MessageEPKNS0_15FieldDescriptorEiPKNS0_19EnumValueDescriptorE"
    },
    {
     "mangled_component_name":"_ZNK6google8protobuf10Reflection20SetRepeatedEnumValueEPNS0_7MessageEPKNS0_15FieldDescriptorEii"
    },
    {
     "is_pure":true,
     "mangled_component_name":"_ZNK6google8protobuf10Reflection22MutableRepeatedMessageEPNS0_7MessageEPKNS0_15FieldDescriptorEi"
    },
    {
     "is_pure":true,
     "mangled_component_name":"_ZNK6google8protobuf10Reflection8AddInt32EPNS0_7MessageEPKNS0_15FieldDescriptorEi"
    },
    {
     "is_pure":true,
     "mangled_component_name":"_ZNK6google8protobuf10Reflection8AddInt64EPNS0_7MessageEPKNS0_15FieldDescriptorEx"
    },
    {
     "is_pure":true,
     "mangled_component_name":"_ZNK6google8protobuf10Reflection9AddUInt32EPNS0_7MessageEPKNS0_15FieldDescriptorEj"
    },
    {
     "is_pure":true,
     "mangled_component_name":"_ZNK6google8protobuf10Reflection9AddUInt64EPNS0_7MessageEPKNS0_15FieldDescriptorEy"
    },
    {
     "is_pure":true,
     "mangled_component_name":"_ZNK6google8protobuf10Reflection8AddFloatEPNS0_7MessageEPKNS0_15FieldDescriptorEf"
    },
    {
     "is_pure":true,
     "mangled_component_name":"_ZNK6google8protobuf10Reflection9AddDoubleEPNS0_7MessageEPKNS0_15FieldDescriptorEd"
    },
    {
     "is_pure":true,
     "mangled_component_name":"_ZNK6google8protobuf10Reflection7AddBoolEPNS0_7MessageEPKNS0_15FieldDescriptorEb"
    },
    {
     "is_pure":true,
     "mangled_component_name":"_ZNK6google8protobuf10Reflection9AddStringEPNS0_7MessageEPKNS0_15FieldDescriptorERKNSt3__112basic_stringIcNS7_11char_traitsIcEENS7_9allocatorIcEEEE"
    },
    {
     "is_pure":true,
     "mangled_component_name":"_ZNK6google8protobuf10Reflection7AddEnumEPNS0_7MessageEPKNS0_15FieldDescriptorEPKNS0_19EnumValueDescriptorE"
    },
    {
     "mangled_component_name":"_ZNK6google8protobuf10Reflection12AddEnumValueEPNS0_7MessageEPKNS0_15FieldDescriptorEi"
    },
    {
     "is_pure":true,
     "mangled_component_name":"_ZNK6google8protobuf10Reflection10AddMessageEPNS0_7MessageEPKNS0_15FieldDescriptorEPNS0_14MessageFactoryE"
    },
    {
     "mangled_component_name":"_ZNK6google8protobuf10Reflection19AddAllocatedMessageEPNS0_7MessageEPKNS0_15FieldDescriptorES3_"
    },
    {
     "is_pure":true,
     "mangled_component_name":"_ZNK6google8protobuf10Reflection24FindKnownExtensionByNameERKNSt3__112basic_stringIcNS2_11char_traitsIcEENS2_9allocatorIcEEEE"
    },
    {
     "is_pure":true,
     "mangled_component_name":"_ZNK6google8protobuf10Reflection26FindKnownExtensionByNumberEi"
    },
    {
     "mangled_component_name":"_ZNK6google8protobuf10Reflection25SupportsUnknownEnumValuesEv"
    },
    {
     "mangled_component_name":"_ZNK6google8protobuf10Reflection17GetMessageFactoryEv"
    },
    {
     "is_pure":true,
     "mangled_component_name":"_ZNK6google8protobuf10Reflection23MutableRawRepeatedFieldEPNS0_7MessageEPKNS0_15FieldDescriptorENS4_7CppTypeEiPKNS0_10DescriptorE"
    },
    {
     "mangled_component_name":"_ZNK6google8protobuf10Reflection19GetRawRepeatedFieldERKNS0_7MessageEPKNS0_15FieldDescriptorENS5_7CppTypeEiPKNS0_10DescriptorE"
    },
    {
     "mangled_component_name":"_ZNK6google8protobuf10Reflection17RepeatedFieldDataEPNS0_7MessageEPKNS0_15FieldDescriptorENS4_7CppTypeEPKNS0_10DescriptorE"
    },
    {
     "mangled_component_name":"_ZNK6google8protobuf10Reflection21RepeatedFieldAccessorEPKNS0_15FieldDescriptorE"
    },
    {
     "mangled_component_name":"_ZNK6google8protobuf10Reflection14ContainsMapKeyERKNS0_7MessageEPKNS0_15FieldDescriptorERKNS0_6MapKeyE"
    },
    {
     "mangled_component_name":"_ZNK6google8protobuf10Reflection22InsertOrLookupMapValueEPNS0_7MessageEPKNS0_15FieldDescriptorERKNS0_6MapKeyEPNS0_11MapValueRefE"
    },
    {
     "mangled_component_name":"_ZNK6google8protobuf10Reflection14DeleteMapValueEPNS0_7MessageEPKNS0_15FieldDescriptorERKNS0_6MapKeyE"
    },
    {
     "mangled_component_name":"_ZNK6google8protobuf10Reflection8MapBeginEPNS0_7MessageEPKNS0_15FieldDescriptorE"
    },
    {
     "mangled_component_name":"_ZNK6google8protobuf10Reflection6MapEndEPNS0_7MessageEPKNS0_15FieldDescriptorE"
    },
    {
     "mangled_component_name":"_ZNK6google8protobuf10Reflection7MapSizeERKNS0_7MessageEPKNS0_15FieldDescriptorE"
    },
    {
     "mangled_component_name":"_ZNK6google8protobuf10Reflection7MapDataEPNS0_7MessageEPKNS0_15FieldDescriptorE"
    }
   ],
   "unique_id":"_ZTSN6google8protobuf10ReflectionE"
  },
  {
   "vtable_components":[
    {
     "kind":"offset_to_top"
    },
    {
     "kind":"rtti",
     "mangled_component_name":"_ZTIN6google8protobuf14MessageFactoryE"
    },
    {
     "kind":"complete_dtor_pointer",
     "mangled_component_name":"_ZN6google8protobuf14MessageFactoryD1Ev"
    },
    {
     "kind":"deleting_dtor_pointer",
     "mangled_component_name":"_ZN6google8protobuf14MessageFactoryD0Ev"
    },
    {
     "is_pure":true,
     "mangled_component_name":"_ZN6google8protobuf14MessageFactory12GetPrototypeEPKNS0_10DescriptorE"
    }
   ],
   "unique_id":"_ZTSN6google8protobuf14MessageFactoryE"
  },
  {
   "vtable_components":[
    {
     "kind":"offset_to_top"
    },
    {
     "kind":"rtti",
     "mangled_component_name":"_ZTIN6google8protobuf8internal26GeneratedMessageReflectionE"
    },
    {
     "kind":"complete_dtor_pointer",
     "mangled_component_name":"_ZN6google8protobuf8internal26GeneratedMessageReflectionD1Ev"
    },
    {
     "kind":"deleting_dtor_pointer",
     "mangled_component_name":"_ZN6google8protobuf8internal26GeneratedMessageReflectionD0Ev"
    },
    {
     "mangled_component_name":"_ZNK6google8protobuf8internal26GeneratedMessageReflection16GetUnknownFieldsERKNS0_7MessageE"
    },
    {
     "mangled_component_name":"_ZNK6google8protobuf8internal26GeneratedMessageReflection20MutableUnknownFieldsEPNS0_7MessageE"
    },
    {
     "mangled_component_name":"_ZNK6google8protobuf8internal26GeneratedMessageReflection9SpaceUsedERKNS0_7MessageE"
    },
    {
     "mangled_component_name":"_ZNK6google8protobuf8internal26GeneratedMessageReflection8HasFieldERKNS0_7MessageEPKNS0_15FieldDescriptorE"
    },
    {
     "mangled_component_name":"_ZNK6google8protobuf8internal26GeneratedMessageReflection9FieldSizeERKNS0_7MessageEPKNS0_15FieldDescriptorE"
    },
    {
     "mangled_component_name":"_ZNK6google8protobuf8internal26GeneratedMessageReflection10ClearFieldEPNS0_7MessageEPKNS0_15FieldDescriptorE"
    },
    {
     "mangled_component_name":"_ZNK6google8protobuf8internal26GeneratedMessageReflection8HasOneofERKNS0_7MessageEPKNS0_15OneofDescriptorE"
    },
    {
     "mangled_component_name":"_ZNK6google8protobuf8internal26GeneratedMessageReflection10ClearOneofEPNS0_7MessageEPKNS0_15OneofDescriptorE"
    },
    {
     "mangled_component_name":"_ZNK6google8protobuf8internal26GeneratedMessageReflection23GetOneofFieldDescriptorERKNS0_7MessageEPKNS0_15OneofDescriptorE"
    },
    {
     "mangled_component_name":"_ZNK6google8protobuf8internal26GeneratedMessageReflection10RemoveLastEPNS0_7MessageEPKNS0_15FieldDescriptorE"
    },
    {
     "mangled_component_name":"_ZNK6google8protobuf8internal26GeneratedMessageReflection11ReleaseLastEPNS0_7MessageEPKNS0_15FieldDescriptorE"
    },
    {
     "mangled_component_name":"_ZNK6google8protobuf8internal26GeneratedMessageReflection4SwapEPNS0_7MessageES4_"
    },
    {
     "mangled_component_name":"_ZNK6google8protobuf8internal26GeneratedMessageReflection10SwapFieldsEPNS0_7MessageES4_RKNSt3__16vectorIPKNS0_15FieldDescriptorENS5_9allocatorIS9_EEEE"
    },
    {
     "mangled_component_name":"_ZNK6google8protobuf8internal26GeneratedMessageReflection12SwapElementsEPNS0_7MessageEPKNS0_15FieldDescriptorEii"
    },
    {
     "mangled_component_name":"_ZNK6google8protobuf8internal26GeneratedMessageReflection10ListFieldsERKNS0_7MessageEPNSt3__16vectorIPKNS0_15FieldDescriptorENS6_9allocatorISA_EEEE"
    },
    {
     "mangled_component_name":"_ZNK6google8protobuf8internal26GeneratedMessageReflection8GetInt32ERKNS0_7MessageEPKNS0_15FieldDescriptorE"
    },
    {
     "mangled_component_name":"_ZNK6google8protobuf8internal26GeneratedMessageReflection8GetInt64ERKNS0_7MessageEPKNS0_15FieldDescriptorE"
    },
    {
     "mangled_component_name":"_ZNK6google8protobuf8internal26GeneratedMessageReflection9GetUInt32ERKNS0_7MessageEPKNS0_15FieldDescriptorE"
    },
    {
     "mangled_component_name":"_ZNK6google8protobuf8internal26GeneratedMessageReflection9GetUInt64ERKNS0_7MessageEPKNS0_15FieldDescriptorE"
    },
    {
     "mangled_component_name":"_ZNK6google8protobuf8internal26GeneratedMessageReflection8GetFloatERKNS0_7MessageEPKNS0_15FieldDescriptorE"
    },
    {
     "mangled_component_name":"_ZNK6google8protobuf8internal26GeneratedMessageReflection9GetDoubleERKNS0_7MessageEPKNS0_15FieldDescriptorE"
    },
    {
     "mangled_component_name":"_ZNK6google8protobuf8internal26GeneratedMessageReflection7GetBoolERKNS0_7MessageEPKNS0_15FieldDescriptorE"
    },
    {
     "mangled_component_name":"_ZNK6google8protobuf8internal26GeneratedMessageReflection9GetStringERKNS0_7MessageEPKNS0_15FieldDescriptorE"
    },
    {
     "mangled_component_name":"_ZNK6google8protobuf8internal26GeneratedMessageReflection7GetEnumERKNS0_7MessageEPKNS0_15FieldDescriptorE"
    },
    {
     "mangled_component_name":"_ZNK6google8protobuf8internal26GeneratedMessageReflection12GetEnumValueERKNS0_7MessageEPKNS0_15FieldDescriptorE"
    },
    {
     "mangled_component_name":"_ZNK6google8protobuf8internal26GeneratedMessageReflection10GetMessageERKNS0_7MessageEPKNS0_15FieldDescriptorEPNS0_14MessageFactoryE"
    },
    {
     "mangled_component_name":"_ZNK6google8protobuf8internal26GeneratedMessageReflection18GetStringReferenceERKNS0_7MessageEPKNS0_15FieldDescriptorEPNSt3__112basic_stringIcNS9_11char_traitsIcEENS9_9allocatorIcEEEE"
    },
    {
     "mangled_component_name":"_ZNK6google8protobuf8internal26GeneratedMessageReflection8SetInt32EPNS0_7MessageEPKNS0_15FieldDescriptorEi"
    },
    {
     "mangled_component_name":"_ZNK6google8protobuf8internal26GeneratedMessageReflection8SetInt64EPNS0_7MessageEPKNS0_15FieldDescriptorEx"
    },
    {
     "mangled_component_name":"_ZNK6google8protobuf8internal26GeneratedMessageReflection9SetUInt32EPNS0_7MessageEPKNS0_15FieldDescriptorEj"
    },
    {
     "mangled_component_name":"_ZNK6google8protobuf8internal26GeneratedMessageReflection9SetUInt64EPNS0_7MessageEPKNS0_15FieldDescriptorEy"
    },
    {
     "mangled_component_name":"_ZNK6google8protobuf8internal26GeneratedMessageReflection8SetFloatEPNS0_7MessageEPKNS0_15FieldDescriptorEf"
    },
    {
     "mangled_component_name":"_ZNK6google8protobuf8internal26GeneratedMessageReflection9SetDoubleEPNS0_7MessageEPKNS0_15FieldDescriptorEd"
    },
    {
     "mangled_component_name":"_ZNK6google8protobuf8internal26GeneratedMessageReflection7SetBoolEPNS0_7MessageEPKNS0_15FieldDescriptorEb"
    },
    {
     "mangled_component_name":"_ZNK6google8protobuf8internal26GeneratedMessageReflection9SetStringEPNS0_7MessageEPKNS0_15FieldDescriptorERKNSt3__112basic_stringIcNS8_11char_traitsIcEENS8_9allocatorIcEEEE"
    },
    {
     "mangled_component_name":"_ZNK6google8protobuf8internal26GeneratedMessageReflection7SetEnumEPNS0_7MessageEPKNS0_15FieldDescriptorEPKNS0_19EnumValueDescriptorE"
    },
    {
     "mangled_component_name":"_ZNK6google8protobuf8internal26GeneratedMessageReflection12SetEnumValueEPNS0_7MessageEPKNS0_15FieldDescriptorEi"
    },
    {
     "mangled_component_name":"_ZNK6google8protobuf8internal26GeneratedMessageReflection14MutableMessageEPNS0_7MessageEPKNS0_15FieldDescriptorEPNS0_14MessageFactoryE"
    },
    {
     "mangled_component_name":"_ZNK6google8protobuf8internal26GeneratedMessageReflection19SetAllocatedMessageEPNS0_7MessageES4_PKNS0_15FieldDescriptorE"
    },
    {
     "mangled_component_name":"_ZNK6google8protobuf8internal26GeneratedMessageReflection14ReleaseMessageEPNS0_7MessageEPKNS0_15FieldDescriptorEPNS0_14MessageFactoryE"
    },
    {
     "mangled_component_name":"_ZNK6google8protobuf8internal26GeneratedMessageReflection16GetRepeatedInt32ERKNS0_7MessageEPKNS0_15FieldDescriptorEi"
    },
    {
     "mangled_component_name":"_ZNK6google8protobuf8internal26GeneratedMessageReflection16GetRepeatedInt64ERKNS0_7MessageEPKNS0_15FieldDescriptorEi"
    },
    {
     "mangled_component_name":"_ZNK6google8protobuf8internal26GeneratedMessageReflection17GetRepeatedUInt32ERKNS0_7MessageEPKNS0_15FieldDescriptorEi"
    },
    {
     "mangled_component_name":"_ZNK6google8protobuf8internal26GeneratedMessageReflection17GetRepeatedUInt64ERKNS0_7MessageEPKNS0_15FieldDescriptorEi"
    },
    {
     "mangled_component_name":"_ZNK6google8protobuf8internal26GeneratedMessageReflection16GetRepeatedFloatERKNS0_7MessageEPKNS0_15FieldDescriptorEi"
    },
    {
     "mangled_component_name":"_ZNK6google8protobuf8internal26GeneratedMessageReflection17GetRepeatedDoubleERKNS0_7MessageEPKNS0_15FieldDescriptorEi"
    },
    {
     "mangled_component_name":"_ZNK6google8protobuf8internal26GeneratedMessageReflection15GetRepeatedBoolERKNS0_7MessageEPKNS0_15FieldDescriptorEi"
    },
    {
     "mangled_component_name":"_ZNK6google8protobuf8internal26GeneratedMessageReflection17GetRepeatedStringERKNS0_7MessageEPKNS0_15FieldDescriptorEi"
    },
    {
     "mangled_component_name":"_ZNK6google8protobuf8internal26GeneratedMessageReflection15GetRepeatedEnumERKNS0_7MessageEPKNS0_15FieldDescriptorEi"
    },
    {
     "mangled_component_name":"_ZNK6google8protobuf8internal26GeneratedMessageReflection20GetRepeatedEnumValueERKNS0_7MessageEPKNS0_15FieldDescriptorEi"
    },
    {
     "mangled_component_name":"_ZNK6google8protobuf8internal26GeneratedMessageReflection18GetRepeatedMessageERKNS0_7MessageEPKNS0_15FieldDescriptorEi"
    },
    {
     "mangled_component_name":"_ZNK6google8protobuf8internal26GeneratedMessageReflection26GetRepeatedStringReferenceERKNS0_7MessageEPKNS0_15FieldDescriptorEiPNSt3__112basic_stringIcNS9_11char_traitsIcEENS9_9allocatorIcEEEE"
    },
    {
     "mangled_component_name":"_ZNK6google8protobuf8internal26GeneratedMessageReflection16SetRepeatedInt32EPNS0_7MessageEPKNS0_15FieldDescriptorEii"
    },
    {
     "mangled_component_name":"_ZNK6google8protobuf8internal26GeneratedMessageReflection16SetRepeatedInt64EPNS0_7MessageEPKNS0_15FieldDescriptorEix"
    },
    {
     "mangled_component_name":"_ZNK6google8protobuf8internal26GeneratedMessageReflection17SetRepeatedUInt32EPNS0_7MessageEPKNS0_15FieldDescriptorEij"
    },
    {
     "mangled_component_name":"_ZNK6google8protobuf8internal26GeneratedMessageReflection17SetRepeatedUInt64EPNS0_7MessageEPKNS0_15FieldDescriptorEiy"
    },
    {
     "mangled_component_name":"_ZNK6google8protobuf8internal26GeneratedMessageReflection16SetRepeatedFloatEPNS0_7MessageEPKNS0_15FieldDescriptorEif"
    },
    {
     "mangled_component_name":"_ZNK6google8protobuf8internal26GeneratedMessageReflection17SetRepeatedDoubleEPNS0_7MessageEPKNS0_15FieldDescriptorEid"
    },
    {
     "mangled_component_name":"_ZNK6google8protobuf8internal26GeneratedMessageReflection15SetRepeatedBoolEPNS0_7MessageEPKNS0_15FieldDescriptorEib"
    },
    {
     "mangled_component_name":"_ZNK6google8protobuf8internal26GeneratedMessageReflection17SetRepeatedStringEPNS0_7MessageEPKNS0_15FieldDescriptorEiRKNSt3__112basic_stringIcNS8_11char_traitsIcEENS8_9allocatorIcEEEE"
    },
    {
     "mangled_component_name":"_ZNK6google8protobuf8internal26GeneratedMessageReflection15SetRepeatedEnumEPNS0_7MessageEPKNS0_15FieldDescriptorEiPKNS0_19EnumValueDescriptorE"
    },
    {
     "mangled_component_name":"_ZNK6google8protobuf8internal26GeneratedMessageReflection20SetRepeatedEnumValueEPNS0_7MessageEPKNS0_15FieldDescriptorEii"
    },
    {
     "mangled_component_name":"_ZNK6google8protobuf8internal26GeneratedMessageReflection22MutableRepeatedMessageEPNS0_7MessageEPKNS0_15FieldDescriptorEi"
    },
    {
     "mangled_component_name":"_ZNK6google8protobuf8internal26GeneratedMessageReflection8AddInt32EPNS0_7MessageEPKNS0_15FieldDescriptorEi"
    },
    {
     "mangled_component_name":"_ZNK6google8protobuf8internal26GeneratedMessageReflection8AddInt64EPNS0_7MessageEPKNS0_15FieldDescriptorEx"
    },
    {
     "mangled_component_name":"_ZNK6google8protobuf8internal26GeneratedMessageReflection9AddUInt32EPNS0_7MessageEPKNS0_15FieldDescriptorEj"
    },
    {
     "mangled_component_name":"_ZNK6google8protobuf8internal26GeneratedMessageReflection9AddUInt64EPNS0_7MessageEPKNS0_15FieldDescriptorEy"
    },
    {
     "mangled_component_name":"_ZNK6google8protobuf8internal26GeneratedMessageReflection8AddFloatEPNS0_7MessageEPKNS0_15FieldDescriptorEf"
    },
    {
     "mangled_component_name":"_ZNK6google8protobuf8internal26GeneratedMessageReflection9AddDoubleEPNS0_7MessageEPKNS0_15FieldDescriptorEd"
    },
    {
     "mangled_component_name":"_ZNK6google8protobuf8internal26GeneratedMessageReflection7AddBoolEPNS0_7MessageEPKNS0_15FieldDescriptorEb"
    },
    {
     "mangled_component_name":"_ZNK6google8protobuf8internal26GeneratedMessageReflection9AddStringEPNS0_7MessageEPKNS0_15FieldDescriptorERKNSt3__112basic_stringIcNS8_11char_traitsIcEENS8_9allocatorIcEEEE"
    },
    {
     "mangled_component_name":"_ZNK6google8protobuf8internal26GeneratedMessageReflection7AddEnumEPNS0_7MessageEPKNS0_15FieldDescriptorEPKNS0_19EnumValueDescriptorE"
    },
    {
     "mangled_component_name":"_ZNK6google8protobuf8internal26GeneratedMessageReflection12AddEnumValueEPNS0_7MessageEPKNS0_15FieldDescriptorEi"
    },
    {
     "mangled_component_name":"_ZNK6google8protobuf8internal26GeneratedMessageReflection10AddMessageEPNS0_7MessageEPKNS0_15FieldDescriptorEPNS0_14MessageFactoryE"
    },
    {
     "mangled_component_name":"_ZNK6google8protobuf8internal26GeneratedMessageReflection19AddAllocatedMessageEPNS0_7MessageEPKNS0_15FieldDescriptorES4_"
    },
    {
     "mangled_component_name":"_ZNK6google8protobuf8internal26GeneratedMessageReflection24FindKnownExtensionByNameERKNSt3__112basic_stringIcNS3_11char_traitsIcEENS3_9allocatorIcEEEE"
    },
    {
     "mangled_component_name":"_ZNK6google8protobuf8internal26GeneratedMessageReflection26FindKnownExtensionByNumberEi"
    },
    {
     "mangled_component_name":"_ZNK6google8protobuf8internal26GeneratedMessageReflection25SupportsUnknownEnumValuesEv"
    },
    {
     "mangled_component_name":"_ZNK6google8protobuf8internal26GeneratedMessageReflection17GetMessageFactoryEv"
    },
    {
     "mangled_component_name":"_ZNK6google8protobuf8internal26GeneratedMessageReflection23MutableRawRepeatedFieldEPNS0_7MessageEPKNS0_15FieldDescriptorENS5_7CppTypeEiPKNS0_10DescriptorE"
    },
    {
     "mangled_component_name":"_ZNK6google8protobuf8internal26GeneratedMessageReflection19GetRawRepeatedFieldERKNS0_7MessageEPKNS0_15FieldDescriptorENS6_7CppTypeEiPKNS0_10DescriptorE"
    },
    {
     "mangled_component_name":"_ZNK6google8protobuf8internal26GeneratedMessageReflection17RepeatedFieldDataEPNS0_7MessageEPKNS0_15FieldDescriptorENS5_7CppTypeEPKNS0_10DescriptorE"
    },
    {
     "mangled_component_name":"_ZNK6google8protobuf10Reflection21RepeatedFieldAccessorEPKNS0_15FieldDescriptorE"
    },
    {
     "mangled_component_name":"_ZNK6google8protobuf8internal26GeneratedMessageReflection14ContainsMapKeyERKNS0_7MessageEPKNS0_15FieldDescriptorERKNS0_6MapKeyE"
    },
    {
     "mangled_component_name":"_ZNK6google8protobuf8internal26GeneratedMessageReflection22InsertOrLookupMapValueEPNS0_7MessageEPKNS0_15FieldDescriptorERKNS0_6MapKeyEPNS0_11MapValueRefE"
    },
    {
     "mangled_component_name":"_ZNK6google8protobuf8internal26GeneratedMessageReflection14DeleteMapValueEPNS0_7MessageEPKNS0_15FieldDescriptorERKNS0_6MapKeyE"
    },
    {
     "mangled_component_name":"_ZNK6google8protobuf8internal26GeneratedMessageReflection8MapBeginEPNS0_7MessageEPKNS0_15FieldDescriptorE"
    },
    {
     "mangled_component_name":"_ZNK6google8protobuf8internal26GeneratedMessageReflection6MapEndEPNS0_7MessageEPKNS0_15FieldDescriptorE"
    },
    {
     "mangled_component_name":"_ZNK6google8protobuf8internal26GeneratedMessageReflection7MapSizeERKNS0_7MessageEPKNS0_15FieldDescriptorE"
    },
    {
     "mangled_component_name":"_ZNK6google8protobuf8internal26GeneratedMessageReflection7MapDataEPNS0_7MessageEPKNS0_15FieldDescriptorE"
    }
   ],
   "unique_id":"_ZTSN6google8protobuf8internal26GeneratedMessageReflectionE"
  },
  {
   "vtable_components":[
    {
     "kind":"offset_to_top"
    },
    {
     "kind":"rtti",
     "mangled_component_name":"_ZTIN6google8protobuf17FileDescriptorSetE"
    },
    {
     "kind":"complete_dtor_pointer",
     "mangled_component_name":"_ZN6google8protobuf17FileDescriptorSetD1Ev"
    },
    {
     "kind":"deleting_dtor_pointer",
     "mangled_component_name":"_ZN6google8protobuf17FileDescriptorSetD0Ev"
    },
    {
     "mangled_component_name":"_ZNK6google8protobuf7Message11GetTypeNameEv"
    },
    {
     "mangled_component_name":"_ZNK6google8protobuf17FileDescriptorSet3NewEv"
    },
    {
     "mangled_component_name":"_ZNK6google8protobuf17FileDescriptorSet3NewEPNS0_5ArenaE"
    },
    {
     "mangled_component_name":"_ZNK6google8protobuf11MessageLite8GetArenaEv"
    },
    {
     "mangled_component_name":"_ZNK6google8protobuf11MessageLite20GetMaybeArenaPointerEv"
    },
    {
     "mangled_component_name":"_ZN6google8protobuf17FileDescriptorSet5ClearEv"
    },
    {
     "mangled_component_name":"_ZNK6google8protobuf17FileDescriptorSet13IsInitializedEv"
    },
    {
     "mangled_component_name":"_ZNK6google8protobuf7Message25InitializationErrorStringEv"
    },
    {
     "mangled_component_name":"_ZN6google8protobuf7Message21CheckTypeAndMergeFromERKNS0_11MessageLiteE"
    },
    {
     "mangled_component_name":"_ZN6google8protobuf17FileDescriptorSet27MergePartialFromCodedStreamEPNS0_2io16CodedInputStreamE"
    },
    {
     "mangled_component_name":"_ZNK6google8protobuf17FileDescriptorSet8ByteSizeEv"
    },
    {
     "mangled_component_name":"_ZNK6google8protobuf17FileDescriptorSet24SerializeWithCachedSizesEPNS0_2io17CodedOutputStreamE"
    },
    {
     "mangled_component_name":"_ZNK6google8protobuf17FileDescriptorSet31SerializeWithCachedSizesToArrayEPh"
    },
    {
     "mangled_component_name":"_ZNK6google8protobuf17FileDescriptorSet13GetCachedSizeEv"
    },
    {
     "mangled_component_name":"_ZN6google8protobuf17FileDescriptorSet8CopyFromERKNS0_7MessageE"
    },
    {
     "mangled_component_name":"_ZN6google8protobuf17FileDescriptorSet9MergeFromERKNS0_7MessageE"
    },
    {
     "mangled_component_name":"_ZN6google8protobuf7Message20DiscardUnknownFieldsEv"
    },
    {
     "mangled_component_name":"_ZNK6google8protobuf7Message9SpaceUsedEv"
    },
    {
     "mangled_component_name":"_ZNK6google8protobuf17FileDescriptorSet13SetCachedSizeEi"
    },
    {
     "mangled_component_name":"_ZNK6google8protobuf7Message13GetReflectionEv"
    },
    {
     "mangled_component_name":"_ZNK6google8protobuf17FileDescriptorSet11GetMetadataEv"
    }
   ],
   "unique_id":"_ZTSN6google8protobuf17FileDescriptorSetE"
  },
  {
   "vtable_components":[
    {
     "kind":"offset_to_top"
    },
    {
     "kind":"rtti",
     "mangled_component_name":"_ZTIN6google8protobuf17GeneratedCodeInfoE"
    },
    {
     "kind":"complete_dtor_pointer",
     "mangled_component_name":"_ZN6google8protobuf17GeneratedCodeInfoD1Ev"
    },
    {
     "kind":"deleting_dtor_pointer",
     "mangled_component_name":"_ZN6google8protobuf17GeneratedCodeInfoD0Ev"
    },
    {
     "mangled_component_name":"_ZNK6google8protobuf7Message11GetTypeNameEv"
    },
    {
     "mangled_component_name":"_ZNK6google8protobuf17GeneratedCodeInfo3NewEv"
    },
    {
     "mangled_component_name":"_ZNK6google8protobuf17GeneratedCodeInfo3NewEPNS0_5ArenaE"
    },
    {
     "mangled_component_name":"_ZNK6google8protobuf11MessageLite8GetArenaEv"
    },
    {
     "mangled_component_name":"_ZNK6google8protobuf11MessageLite20GetMaybeArenaPointerEv"
    },
    {
     "mangled_component_name":"_ZN6google8protobuf17GeneratedCodeInfo5ClearEv"
    },
    {
     "mangled_component_name":"_ZNK6google8protobuf17GeneratedCodeInfo13IsInitializedEv"
    },
    {
     "mangled_component_name":"_ZNK6google8protobuf7Message25InitializationErrorStringEv"
    },
    {
     "mangled_component_name":"_ZN6google8protobuf7Message21CheckTypeAndMergeFromERKNS0_11MessageLiteE"
    },
    {
     "mangled_component_name":"_ZN6google8protobuf17GeneratedCodeInfo27MergePartialFromCodedStreamEPNS0_2io16CodedInputStreamE"
    },
    {
     "mangled_component_name":"_ZNK6google8protobuf17GeneratedCodeInfo8ByteSizeEv"
    },
    {
     "mangled_component_name":"_ZNK6google8protobuf17GeneratedCodeInfo24SerializeWithCachedSizesEPNS0_2io17CodedOutputStreamE"
    },
    {
     "mangled_component_name":"_ZNK6google8protobuf17GeneratedCodeInfo31SerializeWithCachedSizesToArrayEPh"
    },
    {
     "mangled_component_name":"_ZNK6google8protobuf17GeneratedCodeInfo13GetCachedSizeEv"
    },
    {
     "mangled_component_name":"_ZN6google8protobuf17GeneratedCodeInfo8CopyFromERKNS0_7MessageE"
    },
    {
     "mangled_component_name":"_ZN6google8protobuf17GeneratedCodeInfo9MergeFromERKNS0_7MessageE"
    },
    {
     "mangled_component_name":"_ZN6google8protobuf7Message20DiscardUnknownFieldsEv"
    },
    {
     "mangled_component_name":"_ZNK6google8protobuf7Message9SpaceUsedEv"
    },
    {
     "mangled_component_name":"_ZNK6google8protobuf17GeneratedCodeInfo13SetCachedSizeEi"
    },
    {
     "mangled_component_name":"_ZNK6google8protobuf7Message13GetReflectionEv"
    },
    {
     "mangled_component_name":"_ZNK6google8protobuf17GeneratedCodeInfo11GetMetadataEv"
    }
   ],
   "unique_id":"_ZTSN6google8protobuf17GeneratedCodeInfoE"
  },
  {
   "vtable_components":[
    {
     "kind":"offset_to_top"
    },
    {
     "kind":"rtti",
     "mangled_component_name":"_ZTIN6google8protobuf8internal27UnknownFieldSetFieldSkipperE"
    },
    {
     "kind":"complete_dtor_pointer",
     "mangled_component_name":"_ZN6google8protobuf8internal27UnknownFieldSetFieldSkipperD1Ev"
    },
    {
     "kind":"deleting_dtor_pointer",
     "mangled_component_name":"_ZN6google8protobuf8internal27UnknownFieldSetFieldSkipperD0Ev"
    },
    {
     "mangled_component_name":"_ZN6google8protobuf8internal27UnknownFieldSetFieldSkipper9SkipFieldEPNS0_2io16CodedInputStreamEj"
    },
    {
     "mangled_component_name":"_ZN6google8protobuf8internal27UnknownFieldSetFieldSkipper11SkipMessageEPNS0_2io16CodedInputStreamE"
    },
    {
     "mangled_component_name":"_ZN6google8protobuf8internal27UnknownFieldSetFieldSkipper15SkipUnknownEnumEii"
    }
   ],
   "unique_id":"_ZTSN6google8protobuf8internal27UnknownFieldSetFieldSkipperE"
  },
  {
   "vtable_components":[
    {
     "kind":"offset_to_top"
    },
    {
     "kind":"rtti",
     "mangled_component_name":"_ZTIN6google8protobuf3ApiE"
    },
    {
     "kind":"complete_dtor_pointer",
     "mangled_component_name":"_ZN6google8protobuf3ApiD1Ev"
    },
    {
     "kind":"deleting_dtor_pointer",
     "mangled_component_name":"_ZN6google8protobuf3ApiD0Ev"
    },
    {
     "mangled_component_name":"_ZNK6google8protobuf7Message11GetTypeNameEv"
    },
    {
     "mangled_component_name":"_ZNK6google8protobuf3Api3NewEv"
    },
    {
     "mangled_component_name":"_ZNK6google8protobuf3Api3NewEPNS0_5ArenaE"
    },
    {
     "mangled_component_name":"_ZNK6google8protobuf11MessageLite8GetArenaEv"
    },
    {
     "mangled_component_name":"_ZNK6google8protobuf11MessageLite20GetMaybeArenaPointerEv"
    },
    {
     "mangled_component_name":"_ZN6google8protobuf3Api5ClearEv"
    },
    {
     "mangled_component_name":"_ZNK6google8protobuf3Api13IsInitializedEv"
    },
    {
     "mangled_component_name":"_ZNK6google8protobuf7Message25InitializationErrorStringEv"
    },
    {
     "mangled_component_name":"_ZN6google8protobuf7Message21CheckTypeAndMergeFromERKNS0_11MessageLiteE"
    },
    {
     "mangled_component_name":"_ZN6google8protobuf3Api27MergePartialFromCodedStreamEPNS0_2io16CodedInputStreamE"
    },
    {
     "mangled_component_name":"_ZNK6google8protobuf3Api8ByteSizeEv"
    },
    {
     "mangled_component_name":"_ZNK6google8protobuf3Api24SerializeWithCachedSizesEPNS0_2io17CodedOutputStreamE"
    },
    {
     "mangled_component_name":"_ZNK6google8protobuf3Api31SerializeWithCachedSizesToArrayEPh"
    },
    {
     "mangled_component_name":"_ZNK6google8protobuf3Api13GetCachedSizeEv"
    },
    {
     "mangled_component_name":"_ZN6google8protobuf3Api8CopyFromERKNS0_7MessageE"
    },
    {
     "mangled_component_name":"_ZN6google8protobuf3Api9MergeFromERKNS0_7MessageE"
    },
    {
     "mangled_component_name":"_ZN6google8protobuf7Message20DiscardUnknownFieldsEv"
    },
    {
     "mangled_component_name":"_ZNK6google8protobuf7Message9SpaceUsedEv"
    },
    {
     "mangled_component_name":"_ZNK6google8protobuf3Api13SetCachedSizeEi"
    },
    {
     "mangled_component_name":"_ZNK6google8protobuf7Message13GetReflectionEv"
    },
    {
     "mangled_component_name":"_ZNK6google8protobuf3Api11GetMetadataEv"
    }
   ],
   "unique_id":"_ZTSN6google8protobuf3ApiE"
  },
  {
   "vtable_components":[
    {
     "kind":"offset_to_top"
    },
    {
     "kind":"rtti",
     "mangled_component_name":"_ZTIN6google8protobuf6MethodE"
    },
    {
     "kind":"complete_dtor_pointer",
     "mangled_component_name":"_ZN6google8protobuf6MethodD1Ev"
    },
    {
     "kind":"deleting_dtor_pointer",
     "mangled_component_name":"_ZN6google8protobuf6MethodD0Ev"
    },
    {
     "mangled_component_name":"_ZNK6google8protobuf7Message11GetTypeNameEv"
    },
    {
     "mangled_component_name":"_ZNK6google8protobuf6Method3NewEv"
    },
    {
     "mangled_component_name":"_ZNK6google8protobuf6Method3NewEPNS0_5ArenaE"
    },
    {
     "mangled_component_name":"_ZNK6google8protobuf11MessageLite8GetArenaEv"
    },
    {
     "mangled_component_name":"_ZNK6google8protobuf11MessageLite20GetMaybeArenaPointerEv"
    },
    {
     "mangled_component_name":"_ZN6google8protobuf6Method5ClearEv"
    },
    {
     "mangled_component_name":"_ZNK6google8protobuf6Method13IsInitializedEv"
    },
    {
     "mangled_component_name":"_ZNK6google8protobuf7Message25InitializationErrorStringEv"
    },
    {
     "mangled_component_name":"_ZN6google8protobuf7Message21CheckTypeAndMergeFromERKNS0_11MessageLiteE"
    },
    {
     "mangled_component_name":"_ZN6google8protobuf6Method27MergePartialFromCodedStreamEPNS0_2io16CodedInputStreamE"
    },
    {
     "mangled_component_name":"_ZNK6google8protobuf6Method8ByteSizeEv"
    },
    {
     "mangled_component_name":"_ZNK6google8protobuf6Method24SerializeWithCachedSizesEPNS0_2io17CodedOutputStreamE"
    },
    {
     "mangled_component_name":"_ZNK6google8protobuf6Method31SerializeWithCachedSizesToArrayEPh"
    },
    {
     "mangled_component_name":"_ZNK6google8protobuf6Method13GetCachedSizeEv"
    },
    {
     "mangled_component_name":"_ZN6google8protobuf6Method8CopyFromERKNS0_7MessageE"
    },
    {
     "mangled_component_name":"_ZN6google8protobuf6Method9MergeFromERKNS0_7MessageE"
    },
    {
     "mangled_component_name":"_ZN6google8protobuf7Message20DiscardUnknownFieldsEv"
    },
    {
     "mangled_component_name":"_ZNK6google8protobuf7Message9SpaceUsedEv"
    },
    {
     "mangled_component_name":"_ZNK6google8protobuf6Method13SetCachedSizeEi"
    },
    {
     "mangled_component_name":"_ZNK6google8protobuf7Message13GetReflectionEv"
    },
    {
     "mangled_component_name":"_ZNK6google8protobuf6Method11GetMetadataEv"
    }
   ],
   "unique_id":"_ZTSN6google8protobuf6MethodE"
  },
  {
   "vtable_components":[
    {
     "kind":"offset_to_top"
    },
    {
     "kind":"rtti",
     "mangled_component_name":"_ZTIN6google8protobuf6OptionE"
    },
    {
     "kind":"complete_dtor_pointer",
     "mangled_component_name":"_ZN6google8protobuf6OptionD1Ev"
    },
    {
     "kind":"deleting_dtor_pointer",
     "mangled_component_name":"_ZN6google8protobuf6OptionD0Ev"
    },
    {
     "mangled_component_name":"_ZNK6google8protobuf7Message11GetTypeNameEv"
    },
    {
     "mangled_component_name":"_ZNK6google8protobuf6Option3NewEv"
    },
    {
     "mangled_component_name":"_ZNK6google8protobuf6Option3NewEPNS0_5ArenaE"
    },
    {
     "mangled_component_name":"_ZNK6google8protobuf11MessageLite8GetArenaEv"
    },
    {
     "mangled_component_name":"_ZNK6google8protobuf11MessageLite20GetMaybeArenaPointerEv"
    },
    {
     "mangled_component_name":"_ZN6google8protobuf6Option5ClearEv"
    },
    {
     "mangled_component_name":"_ZNK6google8protobuf6Option13IsInitializedEv"
    },
    {
     "mangled_component_name":"_ZNK6google8protobuf7Message25InitializationErrorStringEv"
    },
    {
     "mangled_component_name":"_ZN6google8protobuf7Message21CheckTypeAndMergeFromERKNS0_11MessageLiteE"
    },
    {
     "mangled_component_name":"_ZN6google8protobuf6Option27MergePartialFromCodedStreamEPNS0_2io16CodedInputStreamE"
    },
    {
     "mangled_component_name":"_ZNK6google8protobuf6Option8ByteSizeEv"
    },
    {
     "mangled_component_name":"_ZNK6google8protobuf6Option24SerializeWithCachedSizesEPNS0_2io17CodedOutputStreamE"
    },
    {
     "mangled_component_name":"_ZNK6google8protobuf6Option31SerializeWithCachedSizesToArrayEPh"
    },
    {
     "mangled_component_name":"_ZNK6google8protobuf6Option13GetCachedSizeEv"
    },
    {
     "mangled_component_name":"_ZN6google8protobuf6Option8CopyFromERKNS0_7MessageE"
    },
    {
     "mangled_component_name":"_ZN6google8protobuf6Option9MergeFromERKNS0_7MessageE"
    },
    {
     "mangled_component_name":"_ZN6google8protobuf7Message20DiscardUnknownFieldsEv"
    },
    {
     "mangled_component_name":"_ZNK6google8protobuf7Message9SpaceUsedEv"
    },
    {
     "mangled_component_name":"_ZNK6google8protobuf6Option13SetCachedSizeEi"
    },
    {
     "mangled_component_name":"_ZNK6google8protobuf7Message13GetReflectionEv"
    },
    {
     "mangled_component_name":"_ZNK6google8protobuf6Option11GetMetadataEv"
    }
   ],
   "unique_id":"_ZTSN6google8protobuf6OptionE"
  },
  {
   "vtable_components":[
    {
     "kind":"offset_to_top"
    },
    {
     "kind":"rtti",
     "mangled_component_name":"_ZTIN6google8protobuf13SourceContextE"
    },
    {
     "kind":"complete_dtor_pointer",
     "mangled_component_name":"_ZN6google8protobuf13SourceContextD1Ev"
    },
    {
     "kind":"deleting_dtor_pointer",
     "mangled_component_name":"_ZN6google8protobuf13SourceContextD0Ev"
    },
    {
     "mangled_component_name":"_ZNK6google8protobuf7Message11GetTypeNameEv"
    },
    {
     "mangled_component_name":"_ZNK6google8protobuf13SourceContext3NewEv"
    },
    {
     "mangled_component_name":"_ZNK6google8protobuf13SourceContext3NewEPNS0_5ArenaE"
    },
    {
     "mangled_component_name":"_ZNK6google8protobuf11MessageLite8GetArenaEv"
    },
    {
     "mangled_component_name":"_ZNK6google8protobuf11MessageLite20GetMaybeArenaPointerEv"
    },
    {
     "mangled_component_name":"_ZN6google8protobuf13SourceContext5ClearEv"
    },
    {
     "mangled_component_name":"_ZNK6google8protobuf13SourceContext13IsInitializedEv"
    },
    {
     "mangled_component_name":"_ZNK6google8protobuf7Message25InitializationErrorStringEv"
    },
    {
     "mangled_component_name":"_ZN6google8protobuf7Message21CheckTypeAndMergeFromERKNS0_11MessageLiteE"
    },
    {
     "mangled_component_name":"_ZN6google8protobuf13SourceContext27MergePartialFromCodedStreamEPNS0_2io16CodedInputStreamE"
    },
    {
     "mangled_component_name":"_ZNK6google8protobuf13SourceContext8ByteSizeEv"
    },
    {
     "mangled_component_name":"_ZNK6google8protobuf13SourceContext24SerializeWithCachedSizesEPNS0_2io17CodedOutputStreamE"
    },
    {
     "mangled_component_name":"_ZNK6google8protobuf13SourceContext31SerializeWithCachedSizesToArrayEPh"
    },
    {
     "mangled_component_name":"_ZNK6google8protobuf13SourceContext13GetCachedSizeEv"
    },
    {
     "mangled_component_name":"_ZN6google8protobuf13SourceContext8CopyFromERKNS0_7MessageE"
    },
    {
     "mangled_component_name":"_ZN6google8protobuf13SourceContext9MergeFromERKNS0_7MessageE"
    },
    {
     "mangled_component_name":"_ZN6google8protobuf7Message20DiscardUnknownFieldsEv"
    },
    {
     "mangled_component_name":"_ZNK6google8protobuf7Message9SpaceUsedEv"
    },
    {
     "mangled_component_name":"_ZNK6google8protobuf13SourceContext13SetCachedSizeEi"
    },
    {
     "mangled_component_name":"_ZNK6google8protobuf7Message13GetReflectionEv"
    },
    {
     "mangled_component_name":"_ZNK6google8protobuf13SourceContext11GetMetadataEv"
    }
   ],
   "unique_id":"_ZTSN6google8protobuf13SourceContextE"
  },
  {
   "vtable_components":[
    {
     "kind":"offset_to_top"
    },
    {
     "kind":"rtti",
     "mangled_component_name":"_ZTIN6google8protobuf5MixinE"
    },
    {
     "kind":"complete_dtor_pointer",
     "mangled_component_name":"_ZN6google8protobuf5MixinD1Ev"
    },
    {
     "kind":"deleting_dtor_pointer",
     "mangled_component_name":"_ZN6google8protobuf5MixinD0Ev"
    },
    {
     "mangled_component_name":"_ZNK6google8protobuf7Message11GetTypeNameEv"
    },
    {
     "mangled_component_name":"_ZNK6google8protobuf5Mixin3NewEv"
    },
    {
     "mangled_component_name":"_ZNK6google8protobuf5Mixin3NewEPNS0_5ArenaE"
    },
    {
     "mangled_component_name":"_ZNK6google8protobuf11MessageLite8GetArenaEv"
    },
    {
     "mangled_component_name":"_ZNK6google8protobuf11MessageLite20GetMaybeArenaPointerEv"
    },
    {
     "mangled_component_name":"_ZN6google8protobuf5Mixin5ClearEv"
    },
    {
     "mangled_component_name":"_ZNK6google8protobuf5Mixin13IsInitializedEv"
    },
    {
     "mangled_component_name":"_ZNK6google8protobuf7Message25InitializationErrorStringEv"
    },
    {
     "mangled_component_name":"_ZN6google8protobuf7Message21CheckTypeAndMergeFromERKNS0_11MessageLiteE"
    },
    {
     "mangled_component_name":"_ZN6google8protobuf5Mixin27MergePartialFromCodedStreamEPNS0_2io16CodedInputStreamE"
    },
    {
     "mangled_component_name":"_ZNK6google8protobuf5Mixin8ByteSizeEv"
    },
    {
     "mangled_component_name":"_ZNK6google8protobuf5Mixin24SerializeWithCachedSizesEPNS0_2io17CodedOutputStreamE"
    },
    {
     "mangled_component_name":"_ZNK6google8protobuf5Mixin31SerializeWithCachedSizesToArrayEPh"
    },
    {
     "mangled_component_name":"_ZNK6google8protobuf5Mixin13GetCachedSizeEv"
    },
    {
     "mangled_component_name":"_ZN6google8protobuf5Mixin8CopyFromERKNS0_7MessageE"
    },
    {
     "mangled_component_name":"_ZN6google8protobuf5Mixin9MergeFromERKNS0_7MessageE"
    },
    {
     "mangled_component_name":"_ZN6google8protobuf7Message20DiscardUnknownFieldsEv"
    },
    {
     "mangled_component_name":"_ZNK6google8protobuf7Message9SpaceUsedEv"
    },
    {
     "mangled_component_name":"_ZNK6google8protobuf5Mixin13SetCachedSizeEi"
    },
    {
     "mangled_component_name":"_ZNK6google8protobuf7Message13GetReflectionEv"
    },
    {
     "mangled_component_name":"_ZNK6google8protobuf5Mixin11GetMetadataEv"
    }
   ],
   "unique_id":"_ZTSN6google8protobuf5MixinE"
  },
  {
   "vtable_components":[
    {
     "kind":"offset_to_top"
    },
    {
     "kind":"rtti",
     "mangled_component_name":"_ZTIN6google8protobuf5FieldE"
    },
    {
     "kind":"complete_dtor_pointer",
     "mangled_component_name":"_ZN6google8protobuf5FieldD1Ev"
    },
    {
     "kind":"deleting_dtor_pointer",
     "mangled_component_name":"_ZN6google8protobuf5FieldD0Ev"
    },
    {
     "mangled_component_name":"_ZNK6google8protobuf7Message11GetTypeNameEv"
    },
    {
     "mangled_component_name":"_ZNK6google8protobuf5Field3NewEv"
    },
    {
     "mangled_component_name":"_ZNK6google8protobuf5Field3NewEPNS0_5ArenaE"
    },
    {
     "mangled_component_name":"_ZNK6google8protobuf11MessageLite8GetArenaEv"
    },
    {
     "mangled_component_name":"_ZNK6google8protobuf11MessageLite20GetMaybeArenaPointerEv"
    },
    {
     "mangled_component_name":"_ZN6google8protobuf5Field5ClearEv"
    },
    {
     "mangled_component_name":"_ZNK6google8protobuf5Field13IsInitializedEv"
    },
    {
     "mangled_component_name":"_ZNK6google8protobuf7Message25InitializationErrorStringEv"
    },
    {
     "mangled_component_name":"_ZN6google8protobuf7Message21CheckTypeAndMergeFromERKNS0_11MessageLiteE"
    },
    {
     "mangled_component_name":"_ZN6google8protobuf5Field27MergePartialFromCodedStreamEPNS0_2io16CodedInputStreamE"
    },
    {
     "mangled_component_name":"_ZNK6google8protobuf5Field8ByteSizeEv"
    },
    {
     "mangled_component_name":"_ZNK6google8protobuf5Field24SerializeWithCachedSizesEPNS0_2io17CodedOutputStreamE"
    },
    {
     "mangled_component_name":"_ZNK6google8protobuf5Field31SerializeWithCachedSizesToArrayEPh"
    },
    {
     "mangled_component_name":"_ZNK6google8protobuf5Field13GetCachedSizeEv"
    },
    {
     "mangled_component_name":"_ZN6google8protobuf5Field8CopyFromERKNS0_7MessageE"
    },
    {
     "mangled_component_name":"_ZN6google8protobuf5Field9MergeFromERKNS0_7MessageE"
    },
    {
     "mangled_component_name":"_ZN6google8protobuf7Message20DiscardUnknownFieldsEv"
    },
    {
     "mangled_component_name":"_ZNK6google8protobuf7Message9SpaceUsedEv"
    },
    {
     "mangled_component_name":"_ZNK6google8protobuf5Field13SetCachedSizeEi"
    },
    {
     "mangled_component_name":"_ZNK6google8protobuf7Message13GetReflectionEv"
    },
    {
     "mangled_component_name":"_ZNK6google8protobuf5Field11GetMetadataEv"
    }
   ],
   "unique_id":"_ZTSN6google8protobuf5FieldE"
  },
  {
   "vtable_components":[
    {
     "kind":"offset_to_top"
    },
    {
     "kind":"rtti",
     "mangled_component_name":"_ZTIN6google8protobuf9EnumValueE"
    },
    {
     "kind":"complete_dtor_pointer",
     "mangled_component_name":"_ZN6google8protobuf9EnumValueD1Ev"
    },
    {
     "kind":"deleting_dtor_pointer",
     "mangled_component_name":"_ZN6google8protobuf9EnumValueD0Ev"
    },
    {
     "mangled_component_name":"_ZNK6google8protobuf7Message11GetTypeNameEv"
    },
    {
     "mangled_component_name":"_ZNK6google8protobuf9EnumValue3NewEv"
    },
    {
     "mangled_component_name":"_ZNK6google8protobuf9EnumValue3NewEPNS0_5ArenaE"
    },
    {
     "mangled_component_name":"_ZNK6google8protobuf11MessageLite8GetArenaEv"
    },
    {
     "mangled_component_name":"_ZNK6google8protobuf11MessageLite20GetMaybeArenaPointerEv"
    },
    {
     "mangled_component_name":"_ZN6google8protobuf9EnumValue5ClearEv"
    },
    {
     "mangled_component_name":"_ZNK6google8protobuf9EnumValue13IsInitializedEv"
    },
    {
     "mangled_component_name":"_ZNK6google8protobuf7Message25InitializationErrorStringEv"
    },
    {
     "mangled_component_name":"_ZN6google8protobuf7Message21CheckTypeAndMergeFromERKNS0_11MessageLiteE"
    },
    {
     "mangled_component_name":"_ZN6google8protobuf9EnumValue27MergePartialFromCodedStreamEPNS0_2io16CodedInputStreamE"
    },
    {
     "mangled_component_name":"_ZNK6google8protobuf9EnumValue8ByteSizeEv"
    },
    {
     "mangled_component_name":"_ZNK6google8protobuf9EnumValue24SerializeWithCachedSizesEPNS0_2io17CodedOutputStreamE"
    },
    {
     "mangled_component_name":"_ZNK6google8protobuf9EnumValue31SerializeWithCachedSizesToArrayEPh"
    },
    {
     "mangled_component_name":"_ZNK6google8protobuf9EnumValue13GetCachedSizeEv"
    },
    {
     "mangled_component_name":"_ZN6google8protobuf9EnumValue8CopyFromERKNS0_7MessageE"
    },
    {
     "mangled_component_name":"_ZN6google8protobuf9EnumValue9MergeFromERKNS0_7MessageE"
    },
    {
     "mangled_component_name":"_ZN6google8protobuf7Message20DiscardUnknownFieldsEv"
    },
    {
     "mangled_component_name":"_ZNK6google8protobuf7Message9SpaceUsedEv"
    },
    {
     "mangled_component_name":"_ZNK6google8protobuf9EnumValue13SetCachedSizeEi"
    },
    {
     "mangled_component_name":"_ZNK6google8protobuf7Message13GetReflectionEv"
    },
    {
     "mangled_component_name":"_ZNK6google8protobuf9EnumValue11GetMetadataEv"
    }
   ],
   "unique_id":"_ZTSN6google8protobuf9EnumValueE"
  },
  {
   "vtable_components":[
    {
     "kind":"offset_to_top"
    },
    {
     "kind":"rtti",
     "mangled_component_name":"_ZTIN6google8protobuf7ClosureE"
    },
    {
     "kind":"complete_dtor_pointer",
     "mangled_component_name":"_ZN6google8protobuf7ClosureD1Ev"
    },
    {
     "kind":"deleting_dtor_pointer",
     "mangled_component_name":"_ZN6google8protobuf7ClosureD0Ev"
    },
    {
     "is_pure":true,
     "mangled_component_name":"_ZN6google8protobuf7Closure3RunEv"
    }
   ],
   "unique_id":"_ZTSN6google8protobuf7ClosureE"
  },
  {
   "vtable_components":[
    {
     "kind":"offset_to_top"
    },
    {
     "kind":"rtti",
     "mangled_component_name":"_ZTIN6google8protobuf4TypeE"
    },
    {
     "kind":"complete_dtor_pointer",
     "mangled_component_name":"_ZN6google8protobuf4TypeD1Ev"
    },
    {
     "kind":"deleting_dtor_pointer",
     "mangled_component_name":"_ZN6google8protobuf4TypeD0Ev"
    },
    {
     "mangled_component_name":"_ZNK6google8protobuf7Message11GetTypeNameEv"
    },
    {
     "mangled_component_name":"_ZNK6google8protobuf4Type3NewEv"
    },
    {
     "mangled_component_name":"_ZNK6google8protobuf4Type3NewEPNS0_5ArenaE"
    },
    {
     "mangled_component_name":"_ZNK6google8protobuf11MessageLite8GetArenaEv"
    },
    {
     "mangled_component_name":"_ZNK6google8protobuf11MessageLite20GetMaybeArenaPointerEv"
    },
    {
     "mangled_component_name":"_ZN6google8protobuf4Type5ClearEv"
    },
    {
     "mangled_component_name":"_ZNK6google8protobuf4Type13IsInitializedEv"
    },
    {
     "mangled_component_name":"_ZNK6google8protobuf7Message25InitializationErrorStringEv"
    },
    {
     "mangled_component_name":"_ZN6google8protobuf7Message21CheckTypeAndMergeFromERKNS0_11MessageLiteE"
    },
    {
     "mangled_component_name":"_ZN6google8protobuf4Type27MergePartialFromCodedStreamEPNS0_2io16CodedInputStreamE"
    },
    {
     "mangled_component_name":"_ZNK6google8protobuf4Type8ByteSizeEv"
    },
    {
     "mangled_component_name":"_ZNK6google8protobuf4Type24SerializeWithCachedSizesEPNS0_2io17CodedOutputStreamE"
    },
    {
     "mangled_component_name":"_ZNK6google8protobuf4Type31SerializeWithCachedSizesToArrayEPh"
    },
    {
     "mangled_component_name":"_ZNK6google8protobuf4Type13GetCachedSizeEv"
    },
    {
     "mangled_component_name":"_ZN6google8protobuf4Type8CopyFromERKNS0_7MessageE"
    },
    {
     "mangled_component_name":"_ZN6google8protobuf4Type9MergeFromERKNS0_7MessageE"
    },
    {
     "mangled_component_name":"_ZN6google8protobuf7Message20DiscardUnknownFieldsEv"
    },
    {
     "mangled_component_name":"_ZNK6google8protobuf7Message9SpaceUsedEv"
    },
    {
     "mangled_component_name":"_ZNK6google8protobuf4Type13SetCachedSizeEi"
    },
    {
     "mangled_component_name":"_ZNK6google8protobuf7Message13GetReflectionEv"
    },
    {
     "mangled_component_name":"_ZNK6google8protobuf4Type11GetMetadataEv"
    }
   ],
   "unique_id":"_ZTSN6google8protobuf4TypeE"
  },
  {
   "vtable_components":[
    {
     "kind":"offset_to_top"
    },
    {
     "kind":"rtti",
     "mangled_component_name":"_ZTIN6google8protobuf4EnumE"
    },
    {
     "kind":"complete_dtor_pointer",
     "mangled_component_name":"_ZN6google8protobuf4EnumD1Ev"
    },
    {
     "kind":"deleting_dtor_pointer",
     "mangled_component_name":"_ZN6google8protobuf4EnumD0Ev"
    },
    {
     "mangled_component_name":"_ZNK6google8protobuf7Message11GetTypeNameEv"
    },
    {
     "mangled_component_name":"_ZNK6google8protobuf4Enum3NewEv"
    },
    {
     "mangled_component_name":"_ZNK6google8protobuf4Enum3NewEPNS0_5ArenaE"
    },
    {
     "mangled_component_name":"_ZNK6google8protobuf11MessageLite8GetArenaEv"
    },
    {
     "mangled_component_name":"_ZNK6google8protobuf11MessageLite20GetMaybeArenaPointerEv"
    },
    {
     "mangled_component_name":"_ZN6google8protobuf4Enum5ClearEv"
    },
    {
     "mangled_component_name":"_ZNK6google8protobuf4Enum13IsInitializedEv"
    },
    {
     "mangled_component_name":"_ZNK6google8protobuf7Message25InitializationErrorStringEv"
    },
    {
     "mangled_component_name":"_ZN6google8protobuf7Message21CheckTypeAndMergeFromERKNS0_11MessageLiteE"
    },
    {
     "mangled_component_name":"_ZN6google8protobuf4Enum27MergePartialFromCodedStreamEPNS0_2io16CodedInputStreamE"
    },
    {
     "mangled_component_name":"_ZNK6google8protobuf4Enum8ByteSizeEv"
    },
    {
     "mangled_component_name":"_ZNK6google8protobuf4Enum24SerializeWithCachedSizesEPNS0_2io17CodedOutputStreamE"
    },
    {
     "mangled_component_name":"_ZNK6google8protobuf4Enum31SerializeWithCachedSizesToArrayEPh"
    },
    {
     "mangled_component_name":"_ZNK6google8protobuf4Enum13GetCachedSizeEv"
    },
    {
     "mangled_component_name":"_ZN6google8protobuf4Enum8CopyFromERKNS0_7MessageE"
    },
    {
     "mangled_component_name":"_ZN6google8protobuf4Enum9MergeFromERKNS0_7MessageE"
    },
    {
     "mangled_component_name":"_ZN6google8protobuf7Message20DiscardUnknownFieldsEv"
    },
    {
     "mangled_component_name":"_ZNK6google8protobuf7Message9SpaceUsedEv"
    },
    {
     "mangled_component_name":"_ZNK6google8protobuf4Enum13SetCachedSizeEi"
    },
    {
     "mangled_component_name":"_ZNK6google8protobuf7Message13GetReflectionEv"
    },
    {
     "mangled_component_name":"_ZNK6google8protobuf4Enum11GetMetadataEv"
    }
   ],
   "unique_id":"_ZTSN6google8protobuf4EnumE"
  },
  {
   "vtable_components":[
    {
     "kind":"offset_to_top"
    },
    {
     "kind":"rtti",
     "mangled_component_name":"_ZTIN6google8protobuf7strings20GrowingArrayByteSinkE"
    },
    {
     "kind":"complete_dtor_pointer",
     "mangled_component_name":"_ZN6google8protobuf7strings20GrowingArrayByteSinkD1Ev"
    },
    {
     "kind":"deleting_dtor_pointer",
     "mangled_component_name":"_ZN6google8protobuf7strings20GrowingArrayByteSinkD0Ev"
    },
    {
     "mangled_component_name":"_ZN6google8protobuf7strings20GrowingArrayByteSink6AppendEPKcm"
    },
    {
     "mangled_component_name":"_ZN6google8protobuf7strings8ByteSink5FlushEv"
    }
   ],
   "unique_id":"_ZTSN6google8protobuf7strings20GrowingArrayByteSinkE"
  },
  {
   "vtable_components":[
    {
     "kind":"offset_to_top"
    },
    {
     "kind":"rtti",
     "mangled_component_name":"_ZTIN6google8protobuf8internal16FunctionClosure0E"
    },
    {
     "kind":"complete_dtor_pointer",
     "mangled_component_name":"_ZN6google8protobuf8internal16FunctionClosure0D1Ev"
    },
    {
     "kind":"deleting_dtor_pointer",
     "mangled_component_name":"_ZN6google8protobuf8internal16FunctionClosure0D0Ev"
    },
    {
     "mangled_component_name":"_ZN6google8protobuf8internal16FunctionClosure03RunEv"
    }
   ],
   "unique_id":"_ZTSN6google8protobuf8internal16FunctionClosure0E"
  },
  {
   "vtable_components":[
    {
     "kind":"offset_to_top"
    },
    {
     "kind":"rtti",
     "mangled_component_name":"_ZTIN6google8protobuf2io15FileInputStreamE"
    },
    {
     "kind":"complete_dtor_pointer",
     "mangled_component_name":"_ZN6google8protobuf2io15FileInputStreamD1Ev"
    },
    {
     "kind":"deleting_dtor_pointer",
     "mangled_component_name":"_ZN6google8protobuf2io15FileInputStreamD0Ev"
    },
    {
     "mangled_component_name":"_ZN6google8protobuf2io15FileInputStream4NextEPPKvPi"
    },
    {
     "mangled_component_name":"_ZN6google8protobuf2io15FileInputStream6BackUpEi"
    },
    {
     "mangled_component_name":"_ZN6google8protobuf2io15FileInputStream4SkipEi"
    },
    {
     "mangled_component_name":"_ZNK6google8protobuf2io15FileInputStream9ByteCountEv"
    }
   ],
   "unique_id":"_ZTSN6google8protobuf2io15FileInputStreamE"
  },
  {
   "vtable_components":[
    {
     "kind":"offset_to_top"
    },
    {
     "kind":"rtti",
     "mangled_component_name":"_ZTIN6google8protobuf2io15FileInputStream22CopyingFileInputStreamE"
    },
    {
     "kind":"complete_dtor_pointer",
     "mangled_component_name":"_ZN6google8protobuf2io15FileInputStream22CopyingFileInputStreamD1Ev"
    },
    {
     "kind":"deleting_dtor_pointer",
     "mangled_component_name":"_ZN6google8protobuf2io15FileInputStream22CopyingFileInputStreamD0Ev"
    },
    {
     "mangled_component_name":"_ZN6google8protobuf2io15FileInputStream22CopyingFileInputStream4ReadEPvi"
    },
    {
     "mangled_component_name":"_ZN6google8protobuf2io15FileInputStream22CopyingFileInputStream4SkipEi"
    }
   ],
   "unique_id":"_ZTSN6google8protobuf2io15FileInputStream22CopyingFileInputStreamE"
  },
  {
   "vtable_components":[
    {
     "kind":"offset_to_top"
    },
    {
     "kind":"rtti",
     "mangled_component_name":"_ZTIN6google8protobuf2io16FileOutputStreamE"
    },
    {
     "kind":"complete_dtor_pointer",
     "mangled_component_name":"_ZN6google8protobuf2io16FileOutputStreamD1Ev"
    },
    {
     "kind":"deleting_dtor_pointer",
     "mangled_component_name":"_ZN6google8protobuf2io16FileOutputStreamD0Ev"
    },
    {
     "mangled_component_name":"_ZN6google8protobuf2io16FileOutputStream4NextEPPvPi"
    },
    {
     "mangled_component_name":"_ZN6google8protobuf2io16FileOutputStream6BackUpEi"
    },
    {
     "mangled_component_name":"_ZNK6google8protobuf2io16FileOutputStream9ByteCountEv"
    },
    {
     "mangled_component_name":"_ZN6google8protobuf2io20ZeroCopyOutputStream15WriteAliasedRawEPKvi"
    },
    {
     "mangled_component_name":"_ZNK6google8protobuf2io20ZeroCopyOutputStream14AllowsAliasingEv"
    }
   ],
   "unique_id":"_ZTSN6google8protobuf2io16FileOutputStreamE"
  },
  {
   "vtable_components":[
    {
     "kind":"offset_to_top"
    },
    {
     "kind":"rtti",
     "mangled_component_name":"_ZTIN6google8protobuf2io16FileOutputStream23CopyingFileOutputStreamE"
    },
    {
     "kind":"complete_dtor_pointer",
     "mangled_component_name":"_ZN6google8protobuf2io16FileOutputStream23CopyingFileOutputStreamD1Ev"
    },
    {
     "kind":"deleting_dtor_pointer",
     "mangled_component_name":"_ZN6google8protobuf2io16FileOutputStream23CopyingFileOutputStreamD0Ev"
    },
    {
     "mangled_component_name":"_ZN6google8protobuf2io16FileOutputStream23CopyingFileOutputStream5WriteEPKvi"
    }
   ],
   "unique_id":"_ZTSN6google8protobuf2io16FileOutputStream23CopyingFileOutputStreamE"
  },
  {
   "vtable_components":[
    {
     "kind":"offset_to_top"
    },
    {
     "kind":"rtti",
     "mangled_component_name":"_ZTIN6google8protobuf2io18IstreamInputStreamE"
    },
    {
     "kind":"complete_dtor_pointer",
     "mangled_component_name":"_ZN6google8protobuf2io18IstreamInputStreamD1Ev"
    },
    {
     "kind":"deleting_dtor_pointer",
     "mangled_component_name":"_ZN6google8protobuf2io18IstreamInputStreamD0Ev"
    },
    {
     "mangled_component_name":"_ZN6google8protobuf2io18IstreamInputStream4NextEPPKvPi"
    },
    {
     "mangled_component_name":"_ZN6google8protobuf2io18IstreamInputStream6BackUpEi"
    },
    {
     "mangled_component_name":"_ZN6google8protobuf2io18IstreamInputStream4SkipEi"
    },
    {
     "mangled_component_name":"_ZNK6google8protobuf2io18IstreamInputStream9ByteCountEv"
    }
   ],
   "unique_id":"_ZTSN6google8protobuf2io18IstreamInputStreamE"
  },
  {
   "vtable_components":[
    {
     "kind":"offset_to_top"
    },
    {
     "kind":"rtti",
     "mangled_component_name":"_ZTIN6google8protobuf2io18IstreamInputStream25CopyingIstreamInputStreamE"
    },
    {
     "kind":"complete_dtor_pointer",
     "mangled_component_name":"_ZN6google8protobuf2io18IstreamInputStream25CopyingIstreamInputStreamD1Ev"
    },
    {
     "kind":"deleting_dtor_pointer",
     "mangled_component_name":"_ZN6google8protobuf2io18IstreamInputStream25CopyingIstreamInputStreamD0Ev"
    },
    {
     "mangled_component_name":"_ZN6google8protobuf2io18IstreamInputStream25CopyingIstreamInputStream4ReadEPvi"
    },
    {
     "mangled_component_name":"_ZN6google8protobuf2io18CopyingInputStream4SkipEi"
    }
   ],
   "unique_id":"_ZTSN6google8protobuf2io18IstreamInputStream25CopyingIstreamInputStreamE"
  },
  {
   "vtable_components":[
    {
     "kind":"offset_to_top"
    },
    {
     "kind":"rtti",
     "mangled_component_name":"_ZTIN6google8protobuf2io19OstreamOutputStreamE"
    },
    {
     "kind":"complete_dtor_pointer",
     "mangled_component_name":"_ZN6google8protobuf2io19OstreamOutputStreamD1Ev"
    },
    {
     "kind":"deleting_dtor_pointer",
     "mangled_component_name":"_ZN6google8protobuf2io19OstreamOutputStreamD0Ev"
    },
    {
     "mangled_component_name":"_ZN6google8protobuf2io19OstreamOutputStream4NextEPPvPi"
    },
    {
     "mangled_component_name":"_ZN6google8protobuf2io19OstreamOutputStream6BackUpEi"
    },
    {
     "mangled_component_name":"_ZNK6google8protobuf2io19OstreamOutputStream9ByteCountEv"
    },
    {
     "mangled_component_name":"_ZN6google8protobuf2io20ZeroCopyOutputStream15WriteAliasedRawEPKvi"
    },
    {
     "mangled_component_name":"_ZNK6google8protobuf2io20ZeroCopyOutputStream14AllowsAliasingEv"
    }
   ],
   "unique_id":"_ZTSN6google8protobuf2io19OstreamOutputStreamE"
  },
  {
   "vtable_components":[
    {
     "kind":"offset_to_top"
    },
    {
     "kind":"rtti",
     "mangled_component_name":"_ZTIN6google8protobuf2io19OstreamOutputStream26CopyingOstreamOutputStreamE"
    },
    {
     "kind":"complete_dtor_pointer",
     "mangled_component_name":"_ZN6google8protobuf2io19OstreamOutputStream26CopyingOstreamOutputStreamD1Ev"
    },
    {
     "kind":"deleting_dtor_pointer",
     "mangled_component_name":"_ZN6google8protobuf2io19OstreamOutputStream26CopyingOstreamOutputStreamD0Ev"
    },
    {
     "mangled_component_name":"_ZN6google8protobuf2io19OstreamOutputStream26CopyingOstreamOutputStream5WriteEPKvi"
    }
   ],
   "unique_id":"_ZTSN6google8protobuf2io19OstreamOutputStream26CopyingOstreamOutputStreamE"
  },
  {
   "vtable_components":[
    {
     "kind":"offset_to_top"
    },
    {
     "kind":"rtti",
     "mangled_component_name":"_ZTIN6google8protobuf2io24ConcatenatingInputStreamE"
    },
    {
     "kind":"complete_dtor_pointer",
     "mangled_component_name":"_ZN6google8protobuf2io24ConcatenatingInputStreamD1Ev"
    },
    {
     "kind":"deleting_dtor_pointer",
     "mangled_component_name":"_ZN6google8protobuf2io24ConcatenatingInputStreamD0Ev"
    },
    {
     "mangled_component_name":"_ZN6google8protobuf2io24ConcatenatingInputStream4NextEPPKvPi"
    },
    {
     "mangled_component_name":"_ZN6google8protobuf2io24ConcatenatingInputStream6BackUpEi"
    },
    {
     "mangled_component_name":"_ZN6google8protobuf2io24ConcatenatingInputStream4SkipEi"
    },
    {
     "mangled_component_name":"_ZNK6google8protobuf2io24ConcatenatingInputStream9ByteCountEv"
    }
   ],
   "unique_id":"_ZTSN6google8protobuf2io24ConcatenatingInputStreamE"
  },
  {
   "vtable_components":[
    {
     "kind":"offset_to_top"
    },
    {
     "kind":"rtti",
     "mangled_component_name":"_ZTIN6google8protobuf2io19LimitingInputStreamE"
    },
    {
     "kind":"complete_dtor_pointer",
     "mangled_component_name":"_ZN6google8protobuf2io19LimitingInputStreamD1Ev"
    },
    {
     "kind":"deleting_dtor_pointer",
     "mangled_component_name":"_ZN6google8protobuf2io19LimitingInputStreamD0Ev"
    },
    {
     "mangled_component_name":"_ZN6google8protobuf2io19LimitingInputStream4NextEPPKvPi"
    },
    {
     "mangled_component_name":"_ZN6google8protobuf2io19LimitingInputStream6BackUpEi"
    },
    {
     "mangled_component_name":"_ZN6google8protobuf2io19LimitingInputStream4SkipEi"
    },
    {
     "mangled_component_name":"_ZNK6google8protobuf2io19LimitingInputStream9ByteCountEv"
    }
   ],
   "unique_id":"_ZTSN6google8protobuf2io19LimitingInputStreamE"
  },
  {
   "vtable_components":[
    {
     "kind":"offset_to_top"
    },
    {
     "kind":"rtti",
     "mangled_component_name":"_ZTIN6google8protobuf4util8internal22ZeroCopyStreamByteSinkE"
    },
    {
     "kind":"complete_dtor_pointer",
     "mangled_component_name":"_ZN6google8protobuf4util8internal22ZeroCopyStreamByteSinkD1Ev"
    },
    {
     "kind":"deleting_dtor_pointer",
     "mangled_component_name":"_ZN6google8protobuf4util8internal22ZeroCopyStreamByteSinkD0Ev"
    },
    {
     "mangled_component_name":"_ZN6google8protobuf4util8internal22ZeroCopyStreamByteSink6AppendEPKcm"
    },
    {
     "mangled_component_name":"_ZN6google8protobuf7strings8ByteSink5FlushEv"
    }
   ],
   "unique_id":"_ZTSN6google8protobuf4util8internal22ZeroCopyStreamByteSinkE"
  },
  {
   "vtable_components":[
    {
     "kind":"offset_to_top"
    },
    {
     "kind":"rtti",
     "mangled_component_name":"_ZTIN6google8protobuf4util18MessageDifferencer16MapKeyComparatorE"
    },
    {
     "kind":"complete_dtor_pointer",
     "mangled_component_name":"_ZN6google8protobuf4util18MessageDifferencer16MapKeyComparatorD1Ev"
    },
    {
     "kind":"deleting_dtor_pointer",
     "mangled_component_name":"_ZN6google8protobuf4util18MessageDifferencer16MapKeyComparatorD0Ev"
    },
    {
     "mangled_component_name":"_ZNK6google8protobuf4util18MessageDifferencer16MapKeyComparator7IsMatchERKNS0_7MessageES6_RKNSt3__16vectorINS2_13SpecificFieldENS7_9allocatorIS9_EEEE"
    }
   ],
   "unique_id":"_ZTSN6google8protobuf4util18MessageDifferencer16MapKeyComparatorE"
  },
  {
   "vtable_components":[
    {
     "kind":"offset_to_top"
    },
    {
     "kind":"rtti",
     "mangled_component_name":"_ZTIN6google8protobuf8internal24MethodResultCallback_5_2IbNS0_4util18MessageDifferencerEPKNS0_15FieldDescriptorEPKNS4_16MapKeyComparatorEPKNS0_7MessageESD_RKNSt3__16vectorINS4_13SpecificFieldENSE_9allocatorISG_EEEEiiEE"
    },
    {
     "kind":"complete_dtor_pointer",
     "mangled_component_name":"_ZN6google8protobuf8internal24MethodResultCallback_5_2IbNS0_4util18MessageDifferencerEPKNS0_15FieldDescriptorEPKNS4_16MapKeyComparatorEPKNS0_7MessageESD_RKNSt3__16vectorINS4_13SpecificFieldENSE_9allocatorISG_EEEEiiED1Ev"
    },
    {
     "kind":"deleting_dtor_pointer",
     "mangled_component_name":"_ZN6google8protobuf8internal24MethodResultCallback_5_2IbNS0_4util18MessageDifferencerEPKNS0_15FieldDescriptorEPKNS4_16MapKeyComparatorEPKNS0_7MessageESD_RKNSt3__16vectorINS4_13SpecificFieldENSE_9allocatorISG_EEEEiiED0Ev"
    },
    {
     "mangled_component_name":"_ZN6google8protobuf8internal24MethodResultCallback_5_2IbNS0_4util18MessageDifferencerEPKNS0_15FieldDescriptorEPKNS4_16MapKeyComparatorEPKNS0_7MessageESD_RKNSt3__16vectorINS4_13SpecificFieldENSE_9allocatorISG_EEEEiiE3RunEii"
    }
   ],
   "unique_id":"_ZTSN6google8protobuf8internal24MethodResultCallback_5_2IbNS0_4util18MessageDifferencerEPKNS0_15FieldDescriptorEPKNS4_16MapKeyComparatorEPKNS0_7MessageESD_RKNSt3__16vectorINS4_13SpecificFieldENSE_9allocatorISG_EEEEiiEE"
  },
  {
   "vtable_components":[
    {
     "kind":"offset_to_top"
    },
    {
     "kind":"rtti",
     "mangled_component_name":"_ZTIN6google8protobuf4util18MessageDifferencer8ReporterE"
    },
    {
     "kind":"complete_dtor_pointer",
     "mangled_component_name":"_ZN6google8protobuf4util18MessageDifferencer8ReporterD1Ev"
    },
    {
     "kind":"deleting_dtor_pointer",
     "mangled_component_name":"_ZN6google8protobuf4util18MessageDifferencer8ReporterD0Ev"
    },
    {
     "is_pure":true,
     "mangled_component_name":"_ZN6google8protobuf4util18MessageDifferencer8Reporter11ReportAddedERKNS0_7MessageES6_RKNSt3__16vectorINS2_13SpecificFieldENS7_9allocatorIS9_EEEE"
    },
    {
     "is_pure":true,
     "mangled_component_name":"_ZN6google8protobuf4util18MessageDifferencer8Reporter13ReportDeletedERKNS0_7MessageES6_RKNSt3__16vectorINS2_13SpecificFieldENS7_9allocatorIS9_EEEE"
    },
    {
     "is_pure":true,
     "mangled_component_name":"_ZN6google8protobuf4util18MessageDifferencer8Reporter14ReportModifiedERKNS0_7MessageES6_RKNSt3__16vectorINS2_13SpecificFieldENS7_9allocatorIS9_EEEE"
    },
    {
     "mangled_component_name":"_ZN6google8protobuf4util18MessageDifferencer8Reporter11ReportMovedERKNS0_7MessageES6_RKNSt3__16vectorINS2_13SpecificFieldENS7_9allocatorIS9_EEEE"
    },
    {
     "mangled_component_name":"_ZN6google8protobuf4util18MessageDifferencer8Reporter13ReportMatchedERKNS0_7MessageES6_RKNSt3__16vectorINS2_13SpecificFieldENS7_9allocatorIS9_EEEE"
    },
    {
     "mangled_component_name":"_ZN6google8protobuf4util18MessageDifferencer8Reporter13ReportIgnoredERKNS0_7MessageES6_RKNSt3__16vectorINS2_13SpecificFieldENS7_9allocatorIS9_EEEE"
    },
    {
     "mangled_component_name":"_ZN6google8protobuf4util18MessageDifferencer8Reporter25ReportUnknownFieldIgnoredERKNS0_7MessageES6_RKNSt3__16vectorINS2_13SpecificFieldENS7_9allocatorIS9_EEEE"
    }
   ],
   "unique_id":"_ZTSN6google8protobuf4util18MessageDifferencer8ReporterE"
  },
  {
   "vtable_components":[
    {
     "kind":"offset_to_top"
    },
    {
     "kind":"rtti",
     "mangled_component_name":"_ZTIN6google8protobuf4util18MessageDifferencer14IgnoreCriteriaE"
    },
    {
     "kind":"complete_dtor_pointer",
     "mangled_component_name":"_ZN6google8protobuf4util18MessageDifferencer14IgnoreCriteriaD1Ev"
    },
    {
     "kind":"deleting_dtor_pointer",
     "mangled_component_name":"_ZN6google8protobuf4util18MessageDifferencer14IgnoreCriteriaD0Ev"
    },
    {
     "is_pure":true,
     "mangled_component_name":"_ZN6google8protobuf4util18MessageDifferencer14IgnoreCriteria9IsIgnoredERKNS0_7MessageES6_PKNS0_15FieldDescriptorERKNSt3__16vectorINS2_13SpecificFieldENSA_9allocatorISC_EEEE"
    },
    {
     "mangled_component_name":"_ZN6google8protobuf4util18MessageDifferencer14IgnoreCriteria21IsUnknownFieldIgnoredERKNS0_7MessageES6_RKNS2_13SpecificFieldERKNSt3__16vectorIS7_NSA_9allocatorIS7_EEEE"
    }
   ],
   "unique_id":"_ZTSN6google8protobuf4util18MessageDifferencer14IgnoreCriteriaE"
  },
  {
   "vtable_components":[
    {
     "kind":"offset_to_top"
    },
    {
     "kind":"rtti",
     "mangled_component_name":"_ZTIN6google8protobuf4util18MessageDifferencer14StreamReporterE"
    },
    {
     "kind":"complete_dtor_pointer",
     "mangled_component_name":"_ZN6google8protobuf4util18MessageDifferencer14StreamReporterD1Ev"
    },
    {
     "kind":"deleting_dtor_pointer",
     "mangled_component_name":"_ZN6google8protobuf4util18MessageDifferencer14StreamReporterD0Ev"
    },
    {
     "mangled_component_name":"_ZN6google8protobuf4util18MessageDifferencer14StreamReporter11ReportAddedERKNS0_7MessageES6_RKNSt3__16vectorINS2_13SpecificFieldENS7_9allocatorIS9_EEEE"
    },
    {
     "mangled_component_name":"_ZN6google8protobuf4util18MessageDifferencer14StreamReporter13ReportDeletedERKNS0_7MessageES6_RKNSt3__16vectorINS2_13SpecificFieldENS7_9allocatorIS9_EEEE"
    },
    {
     "mangled_component_name":"_ZN6google8protobuf4util18MessageDifferencer14StreamReporter14ReportModifiedERKNS0_7MessageES6_RKNSt3__16vectorINS2_13SpecificFieldENS7_9allocatorIS9_EEEE"
    },
    {
     "mangled_component_name":"_ZN6google8protobuf4util18MessageDifferencer14StreamReporter11ReportMovedERKNS0_7MessageES6_RKNSt3__16vectorINS2_13SpecificFieldENS7_9allocatorIS9_EEEE"
    },
    {
     "mangled_component_name":"_ZN6google8protobuf4util18MessageDifferencer14StreamReporter13ReportMatchedERKNS0_7MessageES6_RKNSt3__16vectorINS2_13SpecificFieldENS7_9allocatorIS9_EEEE"
    },
    {
     "mangled_component_name":"_ZN6google8protobuf4util18MessageDifferencer14StreamReporter13ReportIgnoredERKNS0_7MessageES6_RKNSt3__16vectorINS2_13SpecificFieldENS7_9allocatorIS9_EEEE"
    },
    {
     "mangled_component_name":"_ZN6google8protobuf4util18MessageDifferencer14StreamReporter25ReportUnknownFieldIgnoredERKNS0_7MessageES6_RKNSt3__16vectorINS2_13SpecificFieldENS7_9allocatorIS9_EEEE"
    },
    {
     "mangled_component_name":"_ZN6google8protobuf4util18MessageDifferencer14StreamReporter9PrintPathERKNSt3__16vectorINS2_13SpecificFieldENS4_9allocatorIS6_EEEEb"
    },
    {
     "mangled_component_name":"_ZN6google8protobuf4util18MessageDifferencer14StreamReporter10PrintValueERKNS0_7MessageERKNSt3__16vectorINS2_13SpecificFieldENS7_9allocatorIS9_EEEEb"
    },
    {
     "mangled_component_name":"_ZN6google8protobuf4util18MessageDifferencer14StreamReporter22PrintUnknownFieldValueEPKNS0_12UnknownFieldE"
    }
   ],
   "unique_id":"_ZTSN6google8protobuf4util18MessageDifferencer14StreamReporterE"
  },
  {
   "vtable_components":[
    {
     "kind":"offset_to_top"
    },
    {
     "kind":"rtti",
     "mangled_component_name":"_ZTIN6google8protobuf8internal16FunctionClosure1IPNSt3__14pairIPKNS0_20FileDescriptorTablesEPKNS0_14SourceCodeInfoEEEEE"
    },
    {
     "kind":"complete_dtor_pointer",
     "mangled_component_name":"_ZN6google8protobuf8internal16FunctionClosure1IPNSt3__14pairIPKNS0_20FileDescriptorTablesEPKNS0_14SourceCodeInfoEEEED1Ev"
    },
    {
     "kind":"deleting_dtor_pointer",
     "mangled_component_name":"_ZN6google8protobuf8internal16FunctionClosure1IPNSt3__14pairIPKNS0_20FileDescriptorTablesEPKNS0_14SourceCodeInfoEEEED0Ev"
    },
    {
     "mangled_component_name":"_ZN6google8protobuf8internal16FunctionClosure1IPNSt3__14pairIPKNS0_20FileDescriptorTablesEPKNS0_14SourceCodeInfoEEEE3RunEv"
    }
   ],
   "unique_id":"_ZTSN6google8protobuf8internal16FunctionClosure1IPNSt3__14pairIPKNS0_20FileDescriptorTablesEPKNS0_14SourceCodeInfoEEEEE"
  },
  {
   "vtable_components":[
    {
     "kind":"offset_to_top"
    },
    {
     "kind":"rtti",
     "mangled_component_name":"_ZTIN6google8protobuf10TextFormat17FieldValuePrinterE"
    },
    {
     "kind":"complete_dtor_pointer",
     "mangled_component_name":"_ZN6google8protobuf10TextFormat17FieldValuePrinterD1Ev"
    },
    {
     "kind":"deleting_dtor_pointer",
     "mangled_component_name":"_ZN6google8protobuf10TextFormat17FieldValuePrinterD0Ev"
    },
    {
     "mangled_component_name":"_ZNK6google8protobuf10TextFormat17FieldValuePrinter9PrintBoolEb"
    },
    {
     "mangled_component_name":"_ZNK6google8protobuf10TextFormat17FieldValuePrinter10PrintInt32Ei"
    },
    {
     "mangled_component_name":"_ZNK6google8protobuf10TextFormat17FieldValuePrinter11PrintUInt32Ej"
    },
    {
     "mangled_component_name":"_ZNK6google8protobuf10TextFormat17FieldValuePrinter10PrintInt64Ex"
    },
    {
     "mangled_component_name":"_ZNK6google8protobuf10TextFormat17FieldValuePrinter11PrintUInt64Ey"
    },
    {
     "mangled_component_name":"_ZNK6google8protobuf10TextFormat17FieldValuePrinter10PrintFloatEf"
    },
    {
     "mangled_component_name":"_ZNK6google8protobuf10TextFormat17FieldValuePrinter11PrintDoubleEd"
    },
    {
     "mangled_component_name":"_ZNK6google8protobuf10TextFormat17FieldValuePrinter11PrintStringERKNSt3__112basic_stringIcNS3_11char_traitsIcEENS3_9allocatorIcEEEE"
    },
    {
     "mangled_component_name":"_ZNK6google8protobuf10TextFormat17FieldValuePrinter10PrintBytesERKNSt3__112basic_stringIcNS3_11char_traitsIcEENS3_9allocatorIcEEEE"
    },
    {
     "mangled_component_name":"_ZNK6google8protobuf10TextFormat17FieldValuePrinter9PrintEnumEiRKNSt3__112basic_stringIcNS3_11char_traitsIcEENS3_9allocatorIcEEEE"
    },
    {
     "mangled_component_name":"_ZNK6google8protobuf10TextFormat17FieldValuePrinter14PrintFieldNameERKNS0_7MessageEPKNS0_10ReflectionEPKNS0_15FieldDescriptorE"
    },
    {
     "mangled_component_name":"_ZNK6google8protobuf10TextFormat17FieldValuePrinter17PrintMessageStartERKNS0_7MessageEiib"
    },
    {
     "mangled_component_name":"_ZNK6google8protobuf10TextFormat17FieldValuePrinter15PrintMessageEndERKNS0_7MessageEiib"
    }
   ],
   "unique_id":"_ZTSN6google8protobuf10TextFormat17FieldValuePrinterE"
  },
  {
   "vtable_components":[
    {
     "kind":"offset_to_top"
    },
    {
     "kind":"rtti",
     "mangled_component_name":"_ZTIN6google8protobuf18DescriptorDatabaseE"
    },
    {
     "kind":"complete_dtor_pointer",
     "mangled_component_name":"_ZN6google8protobuf18DescriptorDatabaseD1Ev"
    },
    {
     "kind":"deleting_dtor_pointer",
     "mangled_component_name":"_ZN6google8protobuf18DescriptorDatabaseD0Ev"
    },
    {
     "is_pure":true,
     "mangled_component_name":"_ZN6google8protobuf18DescriptorDatabase14FindFileByNameERKNSt3__112basic_stringIcNS2_11char_traitsIcEENS2_9allocatorIcEEEEPNS0_19FileDescriptorProtoE"
    },
    {
     "is_pure":true,
     "mangled_component_name":"_ZN6google8protobuf18DescriptorDatabase24FindFileContainingSymbolERKNSt3__112basic_stringIcNS2_11char_traitsIcEENS2_9allocatorIcEEEEPNS0_19FileDescriptorProtoE"
    },
    {
     "is_pure":true,
     "mangled_component_name":"_ZN6google8protobuf18DescriptorDatabase27FindFileContainingExtensionERKNSt3__112basic_stringIcNS2_11char_traitsIcEENS2_9allocatorIcEEEEiPNS0_19FileDescriptorProtoE"
    },
    {
     "mangled_component_name":"_ZN6google8protobuf18DescriptorDatabase23FindAllExtensionNumbersERKNSt3__112basic_stringIcNS2_11char_traitsIcEENS2_9allocatorIcEEEEPNS2_6vectorIiNS6_IiEEEE"
    }
   ],
   "unique_id":"_ZTSN6google8protobuf18DescriptorDatabaseE"
  },
  {
   "vtable_components":[
    {
     "kind":"offset_to_top"
    },
    {
     "kind":"rtti",
     "mangled_component_name":"_ZTIN6google8protobuf24SimpleDescriptorDatabaseE"
    },
    {
     "kind":"complete_dtor_pointer",
     "mangled_component_name":"_ZN6google8protobuf24SimpleDescriptorDatabaseD1Ev"
    },
    {
     "kind":"deleting_dtor_pointer",
     "mangled_component_name":"_ZN6google8protobuf24SimpleDescriptorDatabaseD0Ev"
    },
    {
     "mangled_component_name":"_ZN6google8protobuf24SimpleDescriptorDatabase14FindFileByNameERKNSt3__112basic_stringIcNS2_11char_traitsIcEENS2_9allocatorIcEEEEPNS0_19FileDescriptorProtoE"
    },
    {
     "mangled_component_name":"_ZN6google8protobuf24SimpleDescriptorDatabase24FindFileContainingSymbolERKNSt3__112basic_stringIcNS2_11char_traitsIcEENS2_9allocatorIcEEEEPNS0_19FileDescriptorProtoE"
    },
    {
     "mangled_component_name":"_ZN6google8protobuf24SimpleDescriptorDatabase27FindFileContainingExtensionERKNSt3__112basic_stringIcNS2_11char_traitsIcEENS2_9allocatorIcEEEEiPNS0_19FileDescriptorProtoE"
    },
    {
     "mangled_component_name":"_ZN6google8protobuf24SimpleDescriptorDatabase23FindAllExtensionNumbersERKNSt3__112basic_stringIcNS2_11char_traitsIcEENS2_9allocatorIcEEEEPNS2_6vectorIiNS6_IiEEEE"
    }
   ],
   "unique_id":"_ZTSN6google8protobuf24SimpleDescriptorDatabaseE"
  },
  {
   "vtable_components":[
    {
     "kind":"offset_to_top"
    },
    {
     "kind":"rtti",
     "mangled_component_name":"_ZTIN6google8protobuf25EncodedDescriptorDatabaseE"
    },
    {
     "kind":"complete_dtor_pointer",
     "mangled_component_name":"_ZN6google8protobuf25EncodedDescriptorDatabaseD1Ev"
    },
    {
     "kind":"deleting_dtor_pointer",
     "mangled_component_name":"_ZN6google8protobuf25EncodedDescriptorDatabaseD0Ev"
    },
    {
     "mangled_component_name":"_ZN6google8protobuf25EncodedDescriptorDatabase14FindFileByNameERKNSt3__112basic_stringIcNS2_11char_traitsIcEENS2_9allocatorIcEEEEPNS0_19FileDescriptorProtoE"
    },
    {
     "mangled_component_name":"_ZN6google8protobuf25EncodedDescriptorDatabase24FindFileContainingSymbolERKNSt3__112basic_stringIcNS2_11char_traitsIcEENS2_9allocatorIcEEEEPNS0_19FileDescriptorProtoE"
    },
    {
     "mangled_component_name":"_ZN6google8protobuf25EncodedDescriptorDatabase27FindFileContainingExtensionERKNSt3__112basic_stringIcNS2_11char_traitsIcEENS2_9allocatorIcEEEEiPNS0_19FileDescriptorProtoE"
    },
    {
     "mangled_component_name":"_ZN6google8protobuf25EncodedDescriptorDatabase23FindAllExtensionNumbersERKNSt3__112basic_stringIcNS2_11char_traitsIcEENS2_9allocatorIcEEEEPNS2_6vectorIiNS6_IiEEEE"
    }
   ],
   "unique_id":"_ZTSN6google8protobuf25EncodedDescriptorDatabaseE"
  },
  {
   "vtable_components":[
    {
     "kind":"offset_to_top"
    },
    {
     "kind":"rtti",
     "mangled_component_name":"_ZTIN6google8protobuf22DescriptorPoolDatabaseE"
    },
    {
     "kind":"complete_dtor_pointer",
     "mangled_component_name":"_ZN6google8protobuf22DescriptorPoolDatabaseD1Ev"
    },
    {
     "kind":"deleting_dtor_pointer",
     "mangled_component_name":"_ZN6google8protobuf22DescriptorPoolDatabaseD0Ev"
    },
    {
     "mangled_component_name":"_ZN6google8protobuf22DescriptorPoolDatabase14FindFileByNameERKNSt3__112basic_stringIcNS2_11char_traitsIcEENS2_9allocatorIcEEEEPNS0_19FileDescriptorProtoE"
    },
    {
     "mangled_component_name":"_ZN6google8protobuf22DescriptorPoolDatabase24FindFileContainingSymbolERKNSt3__112basic_stringIcNS2_11char_traitsIcEENS2_9allocatorIcEEEEPNS0_19FileDescriptorProtoE"
    },
    {
     "mangled_component_name":"_ZN6google8protobuf22DescriptorPoolDatabase27FindFileContainingExtensionERKNSt3__112basic_stringIcNS2_11char_traitsIcEENS2_9allocatorIcEEEEiPNS0_19FileDescriptorProtoE"
    },
    {
     "mangled_component_name":"_ZN6google8protobuf22DescriptorPoolDatabase23FindAllExtensionNumbersERKNSt3__112basic_stringIcNS2_11char_traitsIcEENS2_9allocatorIcEEEEPNS2_6vectorIiNS6_IiEEEE"
    }
   ],
   "unique_id":"_ZTSN6google8protobuf22DescriptorPoolDatabaseE"
  },
  {
   "vtable_components":[
    {
     "kind":"offset_to_top"
    },
    {
     "kind":"rtti",
     "mangled_component_name":"_ZTIN6google8protobuf24MergedDescriptorDatabaseE"
    },
    {
     "kind":"complete_dtor_pointer",
     "mangled_component_name":"_ZN6google8protobuf24MergedDescriptorDatabaseD1Ev"
    },
    {
     "kind":"deleting_dtor_pointer",
     "mangled_component_name":"_ZN6google8protobuf24MergedDescriptorDatabaseD0Ev"
    },
    {
     "mangled_component_name":"_ZN6google8protobuf24MergedDescriptorDatabase14FindFileByNameERKNSt3__112basic_stringIcNS2_11char_traitsIcEENS2_9allocatorIcEEEEPNS0_19FileDescriptorProtoE"
    },
    {
     "mangled_component_name":"_ZN6google8protobuf24MergedDescriptorDatabase24FindFileContainingSymbolERKNSt3__112basic_stringIcNS2_11char_traitsIcEENS2_9allocatorIcEEEEPNS0_19FileDescriptorProtoE"
    },
    {
     "mangled_component_name":"_ZN6google8protobuf24MergedDescriptorDatabase27FindFileContainingExtensionERKNSt3__112basic_stringIcNS2_11char_traitsIcEENS2_9allocatorIcEEEEiPNS0_19FileDescriptorProtoE"
    },
    {
     "mangled_component_name":"_ZN6google8protobuf24MergedDescriptorDatabase23FindAllExtensionNumbersERKNSt3__112basic_stringIcNS2_11char_traitsIcEENS2_9allocatorIcEEEEPNS2_6vectorIiNS6_IiEEEE"
    }
   ],
   "unique_id":"_ZTSN6google8protobuf24MergedDescriptorDatabaseE"
  },
  {
   "vtable_components":[
    {
     "kind":"offset_to_top"
    },
    {
     "kind":"rtti",
     "mangled_component_name":"_ZTIN6google8protobuf7strings14StringByteSinkE"
    },
    {
     "kind":"complete_dtor_pointer",
     "mangled_component_name":"_ZN6google8protobuf7strings14StringByteSinkD1Ev"
    },
    {
     "kind":"deleting_dtor_pointer",
     "mangled_component_name":"_ZN6google8protobuf7strings14StringByteSinkD0Ev"
    },
    {
     "mangled_component_name":"_ZN6google8protobuf7strings14StringByteSink6AppendEPKcm"
    },
    {
     "mangled_component_name":"_ZN6google8protobuf7strings8ByteSink5FlushEv"
    }
   ],
   "unique_id":"_ZTSN6google8protobuf7strings14StringByteSinkE"
  },
  {
   "vtable_components":[
    {
     "kind":"offset_to_top"
    },
    {
     "kind":"rtti",
     "mangled_component_name":"_ZTIN6google8protobuf21DynamicMessageFactoryE"
    },
    {
     "kind":"complete_dtor_pointer",
     "mangled_component_name":"_ZN6google8protobuf21DynamicMessageFactoryD1Ev"
    },
    {
     "kind":"deleting_dtor_pointer",
     "mangled_component_name":"_ZN6google8protobuf21DynamicMessageFactoryD0Ev"
    },
    {
     "mangled_component_name":"_ZN6google8protobuf21DynamicMessageFactory12GetPrototypeEPKNS0_10DescriptorE"
    }
   ],
   "unique_id":"_ZTSN6google8protobuf21DynamicMessageFactoryE"
  },
  {
   "vtable_components":[
    {
     "kind":"offset_to_top"
    },
    {
     "kind":"rtti",
     "mangled_component_name":"_ZTIN6google8protobuf10TextFormat6FinderE"
    },
    {
     "kind":"complete_dtor_pointer",
     "mangled_component_name":"_ZN6google8protobuf10TextFormat6FinderD1Ev"
    },
    {
     "kind":"deleting_dtor_pointer",
     "mangled_component_name":"_ZN6google8protobuf10TextFormat6FinderD0Ev"
    },
    {
     "is_pure":true,
     "mangled_component_name":"_ZNK6google8protobuf10TextFormat6Finder13FindExtensionEPNS0_7MessageERKNSt3__112basic_stringIcNS5_11char_traitsIcEENS5_9allocatorIcEEEE"
    }
   ],
   "unique_id":"_ZTSN6google8protobuf10TextFormat6FinderE"
  },
  {
   "vtable_components":[
    {
     "kind":"offset_to_top"
    },
    {
     "kind":"rtti",
     "mangled_component_name":"_ZTIN6google8protobuf2io14ErrorCollectorE"
    },
    {
     "kind":"complete_dtor_pointer",
     "mangled_component_name":"_ZN6google8protobuf2io14ErrorCollectorD1Ev"
    },
    {
     "kind":"deleting_dtor_pointer",
     "mangled_component_name":"_ZN6google8protobuf2io14ErrorCollectorD0Ev"
    },
    {
     "is_pure":true,
     "mangled_component_name":"_ZN6google8protobuf2io14ErrorCollector8AddErrorEiiRKNSt3__112basic_stringIcNS3_11char_traitsIcEENS3_9allocatorIcEEEE"
    },
    {
     "mangled_component_name":"_ZN6google8protobuf2io14ErrorCollector10AddWarningEiiRKNSt3__112basic_stringIcNS3_11char_traitsIcEENS3_9allocatorIcEEEE"
    }
   ],
   "unique_id":"_ZTSN6google8protobuf2io14ErrorCollectorE"
  },
  {
   "vtable_components":[
    {
     "kind":"offset_to_top"
    },
    {
     "kind":"rtti",
     "mangled_component_name":"_ZTIN6google8protobuf7strings15ArrayByteSourceE"
    },
    {
     "kind":"complete_dtor_pointer",
     "mangled_component_name":"_ZN6google8protobuf7strings15ArrayByteSourceD1Ev"
    },
    {
     "kind":"deleting_dtor_pointer",
     "mangled_component_name":"_ZN6google8protobuf7strings15ArrayByteSourceD0Ev"
    },
    {
     "mangled_component_name":"_ZNK6google8protobuf7strings15ArrayByteSource9AvailableEv"
    },
    {
     "mangled_component_name":"_ZN6google8protobuf7strings15ArrayByteSource4PeekEv"
    },
    {
     "mangled_component_name":"_ZN6google8protobuf7strings15ArrayByteSource4SkipEm"
    },
    {
     "mangled_component_name":"_ZN6google8protobuf7strings10ByteSource6CopyToEPNS1_8ByteSinkEm"
    }
   ],
   "unique_id":"_ZTSN6google8protobuf7strings15ArrayByteSourceE"
  },
  {
   "vtable_components":[
    {
     "kind":"offset_to_top"
    },
    {
     "kind":"rtti",
     "mangled_component_name":"_ZTIN6google8protobuf7strings10ByteSourceE"
    },
    {
     "kind":"complete_dtor_pointer",
     "mangled_component_name":"_ZN6google8protobuf7strings10ByteSourceD1Ev"
    },
    {
     "kind":"deleting_dtor_pointer",
     "mangled_component_name":"_ZN6google8protobuf7strings10ByteSourceD0Ev"
    },
    {
     "is_pure":true,
     "mangled_component_name":"_ZNK6google8protobuf7strings10ByteSource9AvailableEv"
    },
    {
     "is_pure":true,
     "mangled_component_name":"_ZN6google8protobuf7strings10ByteSource4PeekEv"
    },
    {
     "is_pure":true,
     "mangled_component_name":"_ZN6google8protobuf7strings10ByteSource4SkipEm"
    },
    {
     "mangled_component_name":"_ZN6google8protobuf7strings10ByteSource6CopyToEPNS1_8ByteSinkEm"
    }
   ],
   "unique_id":"_ZTSN6google8protobuf7strings10ByteSourceE"
  },
  {
   "vtable_components":[
    {
     "kind":"offset_to_top"
    },
    {
     "kind":"rtti",
     "mangled_component_name":"_ZTIN6google8protobuf7strings15LimitByteSourceE"
    },
    {
     "kind":"complete_dtor_pointer",
     "mangled_component_name":"_ZN6google8protobuf7strings15LimitByteSourceD1Ev"
    },
    {
     "kind":"deleting_dtor_pointer",
     "mangled_component_name":"_ZN6google8protobuf7strings15LimitByteSourceD0Ev"
    },
    {
     "mangled_component_name":"_ZNK6google8protobuf7strings15LimitByteSource9AvailableEv"
    },
    {
     "mangled_component_name":"_ZN6google8protobuf7strings15LimitByteSource4PeekEv"
    },
    {
     "mangled_component_name":"_ZN6google8protobuf7strings15LimitByteSource4SkipEm"
    },
    {
     "mangled_component_name":"_ZN6google8protobuf7strings15LimitByteSource6CopyToEPNS1_8ByteSinkEm"
    }
   ],
   "unique_id":"_ZTSN6google8protobuf7strings15LimitByteSourceE"
  },
  {
   "vtable_components":[
    {
     "kind":"offset_to_top"
    },
    {
     "kind":"rtti",
     "mangled_component_name":"_ZTIN6google8protobuf8DurationE"
    },
    {
     "kind":"complete_dtor_pointer",
     "mangled_component_name":"_ZN6google8protobuf8DurationD1Ev"
    },
    {
     "kind":"deleting_dtor_pointer",
     "mangled_component_name":"_ZN6google8protobuf8DurationD0Ev"
    },
    {
     "mangled_component_name":"_ZNK6google8protobuf7Message11GetTypeNameEv"
    },
    {
     "mangled_component_name":"_ZNK6google8protobuf8Duration3NewEv"
    },
    {
     "mangled_component_name":"_ZNK6google8protobuf8Duration3NewEPNS0_5ArenaE"
    },
    {
     "mangled_component_name":"_ZNK6google8protobuf11MessageLite8GetArenaEv"
    },
    {
     "mangled_component_name":"_ZNK6google8protobuf11MessageLite20GetMaybeArenaPointerEv"
    },
    {
     "mangled_component_name":"_ZN6google8protobuf8Duration5ClearEv"
    },
    {
     "mangled_component_name":"_ZNK6google8protobuf8Duration13IsInitializedEv"
    },
    {
     "mangled_component_name":"_ZNK6google8protobuf7Message25InitializationErrorStringEv"
    },
    {
     "mangled_component_name":"_ZN6google8protobuf7Message21CheckTypeAndMergeFromERKNS0_11MessageLiteE"
    },
    {
     "mangled_component_name":"_ZN6google8protobuf8Duration27MergePartialFromCodedStreamEPNS0_2io16CodedInputStreamE"
    },
    {
     "mangled_component_name":"_ZNK6google8protobuf8Duration8ByteSizeEv"
    },
    {
     "mangled_component_name":"_ZNK6google8protobuf8Duration24SerializeWithCachedSizesEPNS0_2io17CodedOutputStreamE"
    },
    {
     "mangled_component_name":"_ZNK6google8protobuf8Duration31SerializeWithCachedSizesToArrayEPh"
    },
    {
     "mangled_component_name":"_ZNK6google8protobuf8Duration13GetCachedSizeEv"
    },
    {
     "mangled_component_name":"_ZN6google8protobuf8Duration8CopyFromERKNS0_7MessageE"
    },
    {
     "mangled_component_name":"_ZN6google8protobuf8Duration9MergeFromERKNS0_7MessageE"
    },
    {
     "mangled_component_name":"_ZN6google8protobuf7Message20DiscardUnknownFieldsEv"
    },
    {
     "mangled_component_name":"_ZNK6google8protobuf7Message9SpaceUsedEv"
    },
    {
     "mangled_component_name":"_ZNK6google8protobuf8Duration13SetCachedSizeEi"
    },
    {
     "mangled_component_name":"_ZNK6google8protobuf7Message13GetReflectionEv"
    },
    {
     "mangled_component_name":"_ZNK6google8protobuf8Duration11GetMetadataEv"
    }
   ],
   "unique_id":"_ZTSN6google8protobuf8DurationE"
  },
  {
   "vtable_components":[
    {
     "kind":"offset_to_top"
    },
    {
     "kind":"rtti",
     "mangled_component_name":"_ZTIN6google8protobuf11MessageLiteE"
    },
    {
     "kind":"complete_dtor_pointer",
     "mangled_component_name":"_ZN6google8protobuf11MessageLiteD1Ev"
    },
    {
     "kind":"deleting_dtor_pointer",
     "mangled_component_name":"_ZN6google8protobuf11MessageLiteD0Ev"
    },
    {
     "is_pure":true,
     "mangled_component_name":"_ZNK6google8protobuf11MessageLite11GetTypeNameEv"
    },
    {
     "is_pure":true,
     "mangled_component_name":"_ZNK6google8protobuf11MessageLite3NewEv"
    },
    {
     "mangled_component_name":"_ZNK6google8protobuf11MessageLite3NewEPNS0_5ArenaE"
    },
    {
     "mangled_component_name":"_ZNK6google8protobuf11MessageLite8GetArenaEv"
    },
    {
     "mangled_component_name":"_ZNK6google8protobuf11MessageLite20GetMaybeArenaPointerEv"
    },
    {
     "is_pure":true,
     "mangled_component_name":"_ZN6google8protobuf11MessageLite5ClearEv"
    },
    {
     "is_pure":true,
     "mangled_component_name":"_ZNK6google8protobuf11MessageLite13IsInitializedEv"
    },
    {
     "mangled_component_name":"_ZNK6google8protobuf11MessageLite25InitializationErrorStringEv"
    },
    {
     "is_pure":true,
     "mangled_component_name":"_ZN6google8protobuf11MessageLite21CheckTypeAndMergeFromERKS1_"
    },
    {
     "is_pure":true,
     "mangled_component_name":"_ZN6google8protobuf11MessageLite27MergePartialFromCodedStreamEPNS0_2io16CodedInputStreamE"
    },
    {
     "is_pure":true,
     "mangled_component_name":"_ZNK6google8protobuf11MessageLite8ByteSizeEv"
    },
    {
     "is_pure":true,
     "mangled_component_name":"_ZNK6google8protobuf11MessageLite24SerializeWithCachedSizesEPNS0_2io17CodedOutputStreamE"
    },
    {
     "mangled_component_name":"_ZNK6google8protobuf11MessageLite31SerializeWithCachedSizesToArrayEPh"
    },
    {
     "is_pure":true,
     "mangled_component_name":"_ZNK6google8protobuf11MessageLite13GetCachedSizeEv"
    }
   ],
   "unique_id":"_ZTSN6google8protobuf11MessageLiteE"
  },
  {
   "vtable_components":[
    {
     "kind":"offset_to_top"
    },
    {
     "kind":"rtti",
     "mangled_component_name":"_ZTIN6google8protobuf8internal12MapFieldBaseE"
    },
    {
     "kind":"complete_dtor_pointer",
     "mangled_component_name":"_ZN6google8protobuf8internal12MapFieldBaseD1Ev"
    },
    {
     "kind":"deleting_dtor_pointer",
     "mangled_component_name":"_ZN6google8protobuf8internal12MapFieldBaseD0Ev"
    },
    {
     "is_pure":true,
     "mangled_component_name":"_ZNK6google8protobuf8internal12MapFieldBase14ContainsMapKeyERKNS0_6MapKeyE"
    },
    {
     "is_pure":true,
     "mangled_component_name":"_ZN6google8protobuf8internal12MapFieldBase22InsertOrLookupMapValueERKNS0_6MapKeyEPNS0_11MapValueRefE"
    },
    {
     "is_pure":true,
     "mangled_component_name":"_ZN6google8protobuf8internal12MapFieldBase14DeleteMapValueERKNS0_6MapKeyE"
    },
    {
     "is_pure":true,
     "mangled_component_name":"_ZNK6google8protobuf8internal12MapFieldBase13EqualIteratorERKNS0_11MapIteratorES5_"
    },
    {
     "is_pure":true,
     "mangled_component_name":"_ZNK6google8protobuf8internal12MapFieldBase8MapBeginEPNS0_11MapIteratorE"
    },
    {
     "is_pure":true,
     "mangled_component_name":"_ZNK6google8protobuf8internal12MapFieldBase6MapEndEPNS0_11MapIteratorE"
    },
    {
     "is_pure":true,
     "mangled_component_name":"_ZNK6google8protobuf8internal12MapFieldBase4sizeEv"
    },
    {
     "mangled_component_name":"_ZNK6google8protobuf8internal12MapFieldBase28SpaceUsedExcludingSelfNoLockEv"
    },
    {
     "mangled_component_name":"_ZNK6google8protobuf8internal12MapFieldBase30SyncRepeatedFieldWithMapNoLockEv"
    },
    {
     "mangled_component_name":"_ZNK6google8protobuf8internal12MapFieldBase30SyncMapWithRepeatedFieldNoLockEv"
    },
    {
     "is_pure":true,
     "mangled_component_name":"_ZNK6google8protobuf8internal12MapFieldBase18InitializeIteratorEPNS0_11MapIteratorE"
    },
    {
     "is_pure":true,
     "mangled_component_name":"_ZNK6google8protobuf8internal12MapFieldBase14DeleteIteratorEPNS0_11MapIteratorE"
    },
    {
     "is_pure":true,
     "mangled_component_name":"_ZNK6google8protobuf8internal12MapFieldBase12CopyIteratorEPNS0_11MapIteratorERKS3_"
    },
    {
     "is_pure":true,
     "mangled_component_name":"_ZNK6google8protobuf8internal12MapFieldBase16IncreaseIteratorEPNS0_11MapIteratorE"
    }
   ],
   "unique_id":"_ZTSN6google8protobuf8internal12MapFieldBaseE"
  },
  {
   "vtable_components":[
    {
     "kind":"offset_to_top"
    },
    {
     "kind":"rtti",
     "mangled_component_name":"_ZTIN6google8protobuf8internal15DynamicMapFieldE"
    },
    {
     "kind":"complete_dtor_pointer",
     "mangled_component_name":"_ZN6google8protobuf8internal15DynamicMapFieldD1Ev"
    },
    {
     "kind":"deleting_dtor_pointer",
     "mangled_component_name":"_ZN6google8protobuf8internal15DynamicMapFieldD0Ev"
    },
    {
     "mangled_component_name":"_ZNK6google8protobuf8internal15DynamicMapField14ContainsMapKeyERKNS0_6MapKeyE"
    },
    {
     "mangled_component_name":"_ZN6google8protobuf8internal15DynamicMapField22InsertOrLookupMapValueERKNS0_6MapKeyEPNS0_11MapValueRefE"
    },
    {
     "mangled_component_name":"_ZN6google8protobuf8internal15DynamicMapField14DeleteMapValueERKNS0_6MapKeyE"
    },
    {
     "mangled_component_name":"_ZNK6google8protobuf8internal23TypeDefinedMapFieldBaseINS0_6MapKeyENS0_11MapValueRefEE13EqualIteratorERKNS0_11MapIteratorES8_"
    },
    {
     "mangled_component_name":"_ZNK6google8protobuf8internal23TypeDefinedMapFieldBaseINS0_6MapKeyENS0_11MapValueRefEE8MapBeginEPNS0_11MapIteratorE"
    },
    {
     "mangled_component_name":"_ZNK6google8protobuf8internal23TypeDefinedMapFieldBaseINS0_6MapKeyENS0_11MapValueRefEE6MapEndEPNS0_11MapIteratorE"
    },
    {
     "mangled_component_name":"_ZNK6google8protobuf8internal15DynamicMapField4sizeEv"
    },
    {
     "mangled_component_name":"_ZNK6google8protobuf8internal15DynamicMapField28SpaceUsedExcludingSelfNoLockEv"
    },
    {
     "mangled_component_name":"_ZNK6google8protobuf8internal15DynamicMapField30SyncRepeatedFieldWithMapNoLockEv"
    },
    {
     "mangled_component_name":"_ZNK6google8protobuf8internal15DynamicMapField30SyncMapWithRepeatedFieldNoLockEv"
    },
    {
     "mangled_component_name":"_ZNK6google8protobuf8internal23TypeDefinedMapFieldBaseINS0_6MapKeyENS0_11MapValueRefEE18InitializeIteratorEPNS0_11MapIteratorE"
    },
    {
     "mangled_component_name":"_ZNK6google8protobuf8internal23TypeDefinedMapFieldBaseINS0_6MapKeyENS0_11MapValueRefEE14DeleteIteratorEPNS0_11MapIteratorE"
    },
    {
     "mangled_component_name":"_ZNK6google8protobuf8internal23TypeDefinedMapFieldBaseINS0_6MapKeyENS0_11MapValueRefEE12CopyIteratorEPNS0_11MapIteratorERKS6_"
    },
    {
     "mangled_component_name":"_ZNK6google8protobuf8internal23TypeDefinedMapFieldBaseINS0_6MapKeyENS0_11MapValueRefEE16IncreaseIteratorEPNS0_11MapIteratorE"
    },
    {
     "mangled_component_name":"_ZNK6google8protobuf8internal15DynamicMapField6GetMapEv"
    },
    {
     "mangled_component_name":"_ZN6google8protobuf8internal15DynamicMapField10MutableMapEv"
    },
    {
     "mangled_component_name":"_ZNK6google8protobuf8internal15DynamicMapField19SetMapIteratorValueEPNS0_11MapIteratorE"
    }
   ],
   "unique_id":"_ZTSN6google8protobuf8internal15DynamicMapFieldE"
  },
  {
   "vtable_components":[
    {
     "kind":"offset_to_top"
    },
    {
     "kind":"rtti",
     "mangled_component_name":"_ZTIN6google8protobuf5EmptyE"
    },
    {
     "kind":"complete_dtor_pointer",
     "mangled_component_name":"_ZN6google8protobuf5EmptyD1Ev"
    },
    {
     "kind":"deleting_dtor_pointer",
     "mangled_component_name":"_ZN6google8protobuf5EmptyD0Ev"
    },
    {
     "mangled_component_name":"_ZNK6google8protobuf7Message11GetTypeNameEv"
    },
    {
     "mangled_component_name":"_ZNK6google8protobuf5Empty3NewEv"
    },
    {
     "mangled_component_name":"_ZNK6google8protobuf5Empty3NewEPNS0_5ArenaE"
    },
    {
     "mangled_component_name":"_ZNK6google8protobuf5Empty8GetArenaEv"
    },
    {
     "mangled_component_name":"_ZNK6google8protobuf5Empty20GetMaybeArenaPointerEv"
    },
    {
     "mangled_component_name":"_ZN6google8protobuf5Empty5ClearEv"
    },
    {
     "mangled_component_name":"_ZNK6google8protobuf5Empty13IsInitializedEv"
    },
    {
     "mangled_component_name":"_ZNK6google8protobuf7Message25InitializationErrorStringEv"
    },
    {
     "mangled_component_name":"_ZN6google8protobuf7Message21CheckTypeAndMergeFromERKNS0_11MessageLiteE"
    },
    {
     "mangled_component_name":"_ZN6google8protobuf5Empty27MergePartialFromCodedStreamEPNS0_2io16CodedInputStreamE"
    },
    {
     "mangled_component_name":"_ZNK6google8protobuf5Empty8ByteSizeEv"
    },
    {
     "mangled_component_name":"_ZNK6google8protobuf5Empty24SerializeWithCachedSizesEPNS0_2io17CodedOutputStreamE"
    },
    {
     "mangled_component_name":"_ZNK6google8protobuf5Empty31SerializeWithCachedSizesToArrayEPh"
    },
    {
     "mangled_component_name":"_ZNK6google8protobuf5Empty13GetCachedSizeEv"
    },
    {
     "mangled_component_name":"_ZN6google8protobuf5Empty8CopyFromERKNS0_7MessageE"
    },
    {
     "mangled_component_name":"_ZN6google8protobuf5Empty9MergeFromERKNS0_7MessageE"
    },
    {
     "mangled_component_name":"_ZN6google8protobuf7Message20DiscardUnknownFieldsEv"
    },
    {
     "mangled_component_name":"_ZNK6google8protobuf7Message9SpaceUsedEv"
    },
    {
     "mangled_component_name":"_ZNK6google8protobuf5Empty13SetCachedSizeEi"
    },
    {
     "mangled_component_name":"_ZNK6google8protobuf7Message13GetReflectionEv"
    },
    {
     "mangled_component_name":"_ZNK6google8protobuf5Empty11GetMetadataEv"
    }
   ],
   "unique_id":"_ZTSN6google8protobuf5EmptyE"
  },
  {
   "vtable_components":[
    {
     "kind":"offset_to_top"
    },
    {
     "kind":"rtti",
     "mangled_component_name":"_ZTIN6google8protobuf9FieldMaskE"
    },
    {
     "kind":"complete_dtor_pointer",
     "mangled_component_name":"_ZN6google8protobuf9FieldMaskD1Ev"
    },
    {
     "kind":"deleting_dtor_pointer",
     "mangled_component_name":"_ZN6google8protobuf9FieldMaskD0Ev"
    },
    {
     "mangled_component_name":"_ZNK6google8protobuf7Message11GetTypeNameEv"
    },
    {
     "mangled_component_name":"_ZNK6google8protobuf9FieldMask3NewEv"
    },
    {
     "mangled_component_name":"_ZNK6google8protobuf9FieldMask3NewEPNS0_5ArenaE"
    },
    {
     "mangled_component_name":"_ZNK6google8protobuf11MessageLite8GetArenaEv"
    },
    {
     "mangled_component_name":"_ZNK6google8protobuf11MessageLite20GetMaybeArenaPointerEv"
    },
    {
     "mangled_component_name":"_ZN6google8protobuf9FieldMask5ClearEv"
    },
    {
     "mangled_component_name":"_ZNK6google8protobuf9FieldMask13IsInitializedEv"
    },
    {
     "mangled_component_name":"_ZNK6google8protobuf7Message25InitializationErrorStringEv"
    },
    {
     "mangled_component_name":"_ZN6google8protobuf7Message21CheckTypeAndMergeFromERKNS0_11MessageLiteE"
    },
    {
     "mangled_component_name":"_ZN6google8protobuf9FieldMask27MergePartialFromCodedStreamEPNS0_2io16CodedInputStreamE"
    },
    {
     "mangled_component_name":"_ZNK6google8protobuf9FieldMask8ByteSizeEv"
    },
    {
     "mangled_component_name":"_ZNK6google8protobuf9FieldMask24SerializeWithCachedSizesEPNS0_2io17CodedOutputStreamE"
    },
    {
     "mangled_component_name":"_ZNK6google8protobuf9FieldMask31SerializeWithCachedSizesToArrayEPh"
    },
    {
     "mangled_component_name":"_ZNK6google8protobuf9FieldMask13GetCachedSizeEv"
    },
    {
     "mangled_component_name":"_ZN6google8protobuf9FieldMask8CopyFromERKNS0_7MessageE"
    },
    {
     "mangled_component_name":"_ZN6google8protobuf9FieldMask9MergeFromERKNS0_7MessageE"
    },
    {
     "mangled_component_name":"_ZN6google8protobuf7Message20DiscardUnknownFieldsEv"
    },
    {
     "mangled_component_name":"_ZNK6google8protobuf7Message9SpaceUsedEv"
    },
    {
     "mangled_component_name":"_ZNK6google8protobuf9FieldMask13SetCachedSizeEi"
    },
    {
     "mangled_component_name":"_ZNK6google8protobuf7Message13GetReflectionEv"
    },
    {
     "mangled_component_name":"_ZNK6google8protobuf9FieldMask11GetMetadataEv"
    }
   ],
   "unique_id":"_ZTSN6google8protobuf9FieldMaskE"
  },
  {
   "vtable_components":[
    {
     "kind":"offset_to_top"
    },
    {
     "kind":"rtti",
     "mangled_component_name":"_ZTIN6google8protobuf5ValueE"
    },
    {
     "kind":"complete_dtor_pointer",
     "mangled_component_name":"_ZN6google8protobuf5ValueD1Ev"
    },
    {
     "kind":"deleting_dtor_pointer",
     "mangled_component_name":"_ZN6google8protobuf5ValueD0Ev"
    },
    {
     "mangled_component_name":"_ZNK6google8protobuf7Message11GetTypeNameEv"
    },
    {
     "mangled_component_name":"_ZNK6google8protobuf5Value3NewEv"
    },
    {
     "mangled_component_name":"_ZNK6google8protobuf5Value3NewEPNS0_5ArenaE"
    },
    {
     "mangled_component_name":"_ZNK6google8protobuf11MessageLite8GetArenaEv"
    },
    {
     "mangled_component_name":"_ZNK6google8protobuf11MessageLite20GetMaybeArenaPointerEv"
    },
    {
     "mangled_component_name":"_ZN6google8protobuf5Value5ClearEv"
    },
    {
     "mangled_component_name":"_ZNK6google8protobuf5Value13IsInitializedEv"
    },
    {
     "mangled_component_name":"_ZNK6google8protobuf7Message25InitializationErrorStringEv"
    },
    {
     "mangled_component_name":"_ZN6google8protobuf7Message21CheckTypeAndMergeFromERKNS0_11MessageLiteE"
    },
    {
     "mangled_component_name":"_ZN6google8protobuf5Value27MergePartialFromCodedStreamEPNS0_2io16CodedInputStreamE"
    },
    {
     "mangled_component_name":"_ZNK6google8protobuf5Value8ByteSizeEv"
    },
    {
     "mangled_component_name":"_ZNK6google8protobuf5Value24SerializeWithCachedSizesEPNS0_2io17CodedOutputStreamE"
    },
    {
     "mangled_component_name":"_ZNK6google8protobuf5Value31SerializeWithCachedSizesToArrayEPh"
    },
    {
     "mangled_component_name":"_ZNK6google8protobuf5Value13GetCachedSizeEv"
    },
    {
     "mangled_component_name":"_ZN6google8protobuf5Value8CopyFromERKNS0_7MessageE"
    },
    {
     "mangled_component_name":"_ZN6google8protobuf5Value9MergeFromERKNS0_7MessageE"
    },
    {
     "mangled_component_name":"_ZN6google8protobuf7Message20DiscardUnknownFieldsEv"
    },
    {
     "mangled_component_name":"_ZNK6google8protobuf7Message9SpaceUsedEv"
    },
    {
     "mangled_component_name":"_ZNK6google8protobuf5Value13SetCachedSizeEi"
    },
    {
     "mangled_component_name":"_ZNK6google8protobuf7Message13GetReflectionEv"
    },
    {
     "mangled_component_name":"_ZNK6google8protobuf5Value11GetMetadataEv"
    }
   ],
   "unique_id":"_ZTSN6google8protobuf5ValueE"
  },
  {
   "vtable_components":[
    {
     "kind":"offset_to_top"
    },
    {
     "kind":"rtti",
     "mangled_component_name":"_ZTIN6google8protobuf6StructE"
    },
    {
     "kind":"complete_dtor_pointer",
     "mangled_component_name":"_ZN6google8protobuf6StructD1Ev"
    },
    {
     "kind":"deleting_dtor_pointer",
     "mangled_component_name":"_ZN6google8protobuf6StructD0Ev"
    },
    {
     "mangled_component_name":"_ZNK6google8protobuf7Message11GetTypeNameEv"
    },
    {
     "mangled_component_name":"_ZNK6google8protobuf6Struct3NewEv"
    },
    {
     "mangled_component_name":"_ZNK6google8protobuf6Struct3NewEPNS0_5ArenaE"
    },
    {
     "mangled_component_name":"_ZNK6google8protobuf11MessageLite8GetArenaEv"
    },
    {
     "mangled_component_name":"_ZNK6google8protobuf11MessageLite20GetMaybeArenaPointerEv"
    },
    {
     "mangled_component_name":"_ZN6google8protobuf6Struct5ClearEv"
    },
    {
     "mangled_component_name":"_ZNK6google8protobuf6Struct13IsInitializedEv"
    },
    {
     "mangled_component_name":"_ZNK6google8protobuf7Message25InitializationErrorStringEv"
    },
    {
     "mangled_component_name":"_ZN6google8protobuf7Message21CheckTypeAndMergeFromERKNS0_11MessageLiteE"
    },
    {
     "mangled_component_name":"_ZN6google8protobuf6Struct27MergePartialFromCodedStreamEPNS0_2io16CodedInputStreamE"
    },
    {
     "mangled_component_name":"_ZNK6google8protobuf6Struct8ByteSizeEv"
    },
    {
     "mangled_component_name":"_ZNK6google8protobuf6Struct24SerializeWithCachedSizesEPNS0_2io17CodedOutputStreamE"
    },
    {
     "mangled_component_name":"_ZNK6google8protobuf6Struct31SerializeWithCachedSizesToArrayEPh"
    },
    {
     "mangled_component_name":"_ZNK6google8protobuf6Struct13GetCachedSizeEv"
    },
    {
     "mangled_component_name":"_ZN6google8protobuf6Struct8CopyFromERKNS0_7MessageE"
    },
    {
     "mangled_component_name":"_ZN6google8protobuf6Struct9MergeFromERKNS0_7MessageE"
    },
    {
     "mangled_component_name":"_ZN6google8protobuf7Message20DiscardUnknownFieldsEv"
    },
    {
     "mangled_component_name":"_ZNK6google8protobuf7Message9SpaceUsedEv"
    },
    {
     "mangled_component_name":"_ZNK6google8protobuf6Struct13SetCachedSizeEi"
    },
    {
     "mangled_component_name":"_ZNK6google8protobuf7Message13GetReflectionEv"
    },
    {
     "mangled_component_name":"_ZNK6google8protobuf6Struct11GetMetadataEv"
    }
   ],
   "unique_id":"_ZTSN6google8protobuf6StructE"
  },
  {
   "vtable_components":[
    {
     "kind":"offset_to_top"
    },
    {
     "kind":"rtti",
     "mangled_component_name":"_ZTIN6google8protobuf8internal8MapFieldINSt3__112basic_stringIcNS3_11char_traitsIcEENS3_9allocatorIcEEEENS0_5ValueELNS1_14WireFormatLite9FieldTypeE9ELSC_11ELi0EEE"
    },
    {
     "kind":"complete_dtor_pointer",
     "mangled_component_name":"_ZN6google8protobuf8internal8MapFieldINSt3__112basic_stringIcNS3_11char_traitsIcEENS3_9allocatorIcEEEENS0_5ValueELNS1_14WireFormatLite9FieldTypeE9ELSC_11ELi0EED1Ev"
    },
    {
     "kind":"deleting_dtor_pointer",
     "mangled_component_name":"_ZN6google8protobuf8internal8MapFieldINSt3__112basic_stringIcNS3_11char_traitsIcEENS3_9allocatorIcEEEENS0_5ValueELNS1_14WireFormatLite9FieldTypeE9ELSC_11ELi0EED0Ev"
    },
    {
     "mangled_component_name":"_ZNK6google8protobuf8internal8MapFieldINSt3__112basic_stringIcNS3_11char_traitsIcEENS3_9allocatorIcEEEENS0_5ValueELNS1_14WireFormatLite9FieldTypeE9ELSC_11ELi0EE14ContainsMapKeyERKNS0_6MapKeyE"
    },
    {
     "mangled_component_name":"_ZN6google8protobuf8internal8MapFieldINSt3__112basic_stringIcNS3_11char_traitsIcEENS3_9allocatorIcEEEENS0_5ValueELNS1_14WireFormatLite9FieldTypeE9ELSC_11ELi0EE22InsertOrLookupMapValueERKNS0_6MapKeyEPNS0_11MapValueRefE"
    },
    {
     "mangled_component_name":"_ZN6google8protobuf8internal8MapFieldINSt3__112basic_stringIcNS3_11char_traitsIcEENS3_9allocatorIcEEEENS0_5ValueELNS1_14WireFormatLite9FieldTypeE9ELSC_11ELi0EE14DeleteMapValueERKNS0_6MapKeyE"
    },
    {
     "mangled_component_name":"_ZNK6google8protobuf8internal23TypeDefinedMapFieldBaseINSt3__112basic_stringIcNS3_11char_traitsIcEENS3_9allocatorIcEEEENS0_5ValueEE13EqualIteratorERKNS0_11MapIteratorESE_"
    },
    {
     "mangled_component_name":"_ZNK6google8protobuf8internal23TypeDefinedMapFieldBaseINSt3__112basic_stringIcNS3_11char_traitsIcEENS3_9allocatorIcEEEENS0_5ValueEE8MapBeginEPNS0_11MapIteratorE"
    },
    {
     "mangled_component_name":"_ZNK6google8protobuf8internal23TypeDefinedMapFieldBaseINSt3__112basic_stringIcNS3_11char_traitsIcEENS3_9allocatorIcEEEENS0_5ValueEE6MapEndEPNS0_11MapIteratorE"
    },
    {
     "mangled_component_name":"_ZNK6google8protobuf8internal8MapFieldINSt3__112basic_stringIcNS3_11char_traitsIcEENS3_9allocatorIcEEEENS0_5ValueELNS1_14WireFormatLite9FieldTypeE9ELSC_11ELi0EE4sizeEv"
    },
    {
     "mangled_component_name":"_ZNK6google8protobuf8internal8MapFieldINSt3__112basic_stringIcNS3_11char_traitsIcEENS3_9allocatorIcEEEENS0_5ValueELNS1_14WireFormatLite9FieldTypeE9ELSC_11ELi0EE28SpaceUsedExcludingSelfNoLockEv"
    },
    {
     "mangled_component_name":"_ZNK6google8protobuf8internal8MapFieldINSt3__112basic_stringIcNS3_11char_traitsIcEENS3_9allocatorIcEEEENS0_5ValueELNS1_14WireFormatLite9FieldTypeE9ELSC_11ELi0EE30SyncRepeatedFieldWithMapNoLockEv"
    },
    {
     "mangled_component_name":"_ZNK6google8protobuf8internal8MapFieldINSt3__112basic_stringIcNS3_11char_traitsIcEENS3_9allocatorIcEEEENS0_5ValueELNS1_14WireFormatLite9FieldTypeE9ELSC_11ELi0EE30SyncMapWithRepeatedFieldNoLockEv"
    },
    {
     "mangled_component_name":"_ZNK6google8protobuf8internal23TypeDefinedMapFieldBaseINSt3__112basic_stringIcNS3_11char_traitsIcEENS3_9allocatorIcEEEENS0_5ValueEE18InitializeIteratorEPNS0_11MapIteratorE"
    },
    {
     "mangled_component_name":"_ZNK6google8protobuf8internal23TypeDefinedMapFieldBaseINSt3__112basic_stringIcNS3_11char_traitsIcEENS3_9allocatorIcEEEENS0_5ValueEE14DeleteIteratorEPNS0_11MapIteratorE"
    },
    {
     "mangled_component_name":"_ZNK6google8protobuf8internal23TypeDefinedMapFieldBaseINSt3__112basic_stringIcNS3_11char_traitsIcEENS3_9allocatorIcEEEENS0_5ValueEE12CopyIteratorEPNS0_11MapIteratorERKSC_"
    },
    {
     "mangled_component_name":"_ZNK6google8protobuf8internal23TypeDefinedMapFieldBaseINSt3__112basic_stringIcNS3_11char_traitsIcEENS3_9allocatorIcEEEENS0_5ValueEE16IncreaseIteratorEPNS0_11MapIteratorE"
    },
    {
     "mangled_component_name":"_ZNK6google8protobuf8internal8MapFieldINSt3__112basic_stringIcNS3_11char_traitsIcEENS3_9allocatorIcEEEENS0_5ValueELNS1_14WireFormatLite9FieldTypeE9ELSC_11ELi0EE6GetMapEv"
    },
    {
     "mangled_component_name":"_ZN6google8protobuf8internal8MapFieldINSt3__112basic_stringIcNS3_11char_traitsIcEENS3_9allocatorIcEEEENS0_5ValueELNS1_14WireFormatLite9FieldTypeE9ELSC_11ELi0EE10MutableMapEv"
    },
    {
     "mangled_component_name":"_ZNK6google8protobuf8internal8MapFieldINSt3__112basic_stringIcNS3_11char_traitsIcEENS3_9allocatorIcEEEENS0_5ValueELNS1_14WireFormatLite9FieldTypeE9ELSC_11ELi0EE19SetMapIteratorValueEPNS0_11MapIteratorE"
    },
    {
     "mangled_component_name":"_ZN6google8protobuf8internal8MapFieldINSt3__112basic_stringIcNS3_11char_traitsIcEENS3_9allocatorIcEEEENS0_5ValueELNS1_14WireFormatLite9FieldTypeE9ELSC_11ELi0EE5ClearEv"
    },
    {
     "mangled_component_name":"_ZN6google8protobuf8internal8MapFieldINSt3__112basic_stringIcNS3_11char_traitsIcEENS3_9allocatorIcEEEENS0_5ValueELNS1_14WireFormatLite9FieldTypeE9ELSC_11ELi0EE9MergeFromERKNS1_12MapFieldLiteIS9_SA_LSC_9ELSC_11ELi0EEE"
    },
    {
     "mangled_component_name":"_ZN6google8protobuf8internal8MapFieldINSt3__112basic_stringIcNS3_11char_traitsIcEENS3_9allocatorIcEEEENS0_5ValueELNS1_14WireFormatLite9FieldTypeE9ELSC_11ELi0EE4SwapEPNS1_12MapFieldLiteIS9_SA_LSC_9ELSC_11ELi0EEE"
    },
    {
     "mangled_component_name":"_ZNK6google8protobuf8internal8MapFieldINSt3__112basic_stringIcNS3_11char_traitsIcEENS3_9allocatorIcEEEENS0_5ValueELNS1_14WireFormatLite9FieldTypeE9ELSC_11ELi0EE14GetInternalMapEv"
    },
    {
     "mangled_component_name":"_ZN6google8protobuf8internal8MapFieldINSt3__112basic_stringIcNS3_11char_traitsIcEENS3_9allocatorIcEEEENS0_5ValueELNS1_14WireFormatLite9FieldTypeE9ELSC_11ELi0EE18MutableInternalMapEv"
    },
    {
     "kind":"offset_to_top",
     "component_value":-56
    },
    {
     "kind":"rtti",
     "mangled_component_name":"_ZTIN6google8protobuf8internal8MapFieldINSt3__112basic_stringIcNS3_11char_traitsIcEENS3_9allocatorIcEEEENS0_5ValueELNS1_14WireFormatLite9FieldTypeE9ELSC_11ELi0EEE"
    },
    {
     "kind":"complete_dtor_pointer",
     "mangled_component_name":"_ZThn56_N6google8protobuf8internal8MapFieldINSt3__112basic_stringIcNS3_11char_traitsIcEENS3_9allocatorIcEEEENS0_5ValueELNS1_14WireFormatLite9FieldTypeE9ELSC_11ELi0EED1Ev"
    },
    {
     "kind":"deleting_dtor_pointer",
     "mangled_component_name":"_ZThn56_N6google8protobuf8internal8MapFieldINSt3__112basic_stringIcNS3_11char_traitsIcEENS3_9allocatorIcEEEENS0_5ValueELNS1_14WireFormatLite9FieldTypeE9ELSC_11ELi0EED0Ev"
    },
    {
     "mangled_component_name":"_ZThn56_NK6google8protobuf8internal8MapFieldINSt3__112basic_stringIcNS3_11char_traitsIcEENS3_9allocatorIcEEEENS0_5ValueELNS1_14WireFormatLite9FieldTypeE9ELSC_11ELi0EE6GetMapEv"
    },
    {
     "mangled_component_name":"_ZThn56_N6google8protobuf8internal8MapFieldINSt3__112basic_stringIcNS3_11char_traitsIcEENS3_9allocatorIcEEEENS0_5ValueELNS1_14WireFormatLite9FieldTypeE9ELSC_11ELi0EE10MutableMapEv"
    },
    {
     "mangled_component_name":"_ZThn56_NK6google8protobuf8internal8MapFieldINSt3__112basic_stringIcNS3_11char_traitsIcEENS3_9allocatorIcEEEENS0_5ValueELNS1_14WireFormatLite9FieldTypeE9ELSC_11ELi0EE4sizeEv"
    },
    {
     "mangled_component_name":"_ZThn56_N6google8protobuf8internal8MapFieldINSt3__112basic_stringIcNS3_11char_traitsIcEENS3_9allocatorIcEEEENS0_5ValueELNS1_14WireFormatLite9FieldTypeE9ELSC_11ELi0EE5ClearEv"
    },
    {
     "mangled_component_name":"_ZThn56_N6google8protobuf8internal8MapFieldINSt3__112basic_stringIcNS3_11char_traitsIcEENS3_9allocatorIcEEEENS0_5ValueELNS1_14WireFormatLite9FieldTypeE9ELSC_11ELi0EE9MergeFromERKNS1_12MapFieldLiteIS9_SA_LSC_9ELSC_11ELi0EEE"
    },
    {
     "mangled_component_name":"_ZThn56_N6google8protobuf8internal8MapFieldINSt3__112basic_stringIcNS3_11char_traitsIcEENS3_9allocatorIcEEEENS0_5ValueELNS1_14WireFormatLite9FieldTypeE9ELSC_11ELi0EE4SwapEPNS1_12MapFieldLiteIS9_SA_LSC_9ELSC_11ELi0EEE"
    },
    {
     "mangled_component_name":"_ZThn56_NK6google8protobuf8internal8MapFieldINSt3__112basic_stringIcNS3_11char_traitsIcEENS3_9allocatorIcEEEENS0_5ValueELNS1_14WireFormatLite9FieldTypeE9ELSC_11ELi0EE14GetInternalMapEv"
    },
    {
     "mangled_component_name":"_ZThn56_N6google8protobuf8internal8MapFieldINSt3__112basic_stringIcNS3_11char_traitsIcEENS3_9allocatorIcEEEENS0_5ValueELNS1_14WireFormatLite9FieldTypeE9ELSC_11ELi0EE18MutableInternalMapEv"
    }
   ],
   "unique_id":"_ZTSN6google8protobuf8internal8MapFieldINSt3__112basic_stringIcNS3_11char_traitsIcEENS3_9allocatorIcEEEENS0_5ValueELNS1_14WireFormatLite9FieldTypeE9ELSC_11ELi0EEE"
  },
  {
   "vtable_components":[
    {
     "kind":"offset_to_top"
    },
    {
     "kind":"rtti",
     "mangled_component_name":"_ZTIN6google8protobuf8internal8MapEntryINSt3__112basic_stringIcNS3_11char_traitsIcEENS3_9allocatorIcEEEENS0_5ValueELNS1_14WireFormatLite9FieldTypeE9ELSC_11ELi0EEE"
    },
    {
     "kind":"complete_dtor_pointer",
     "mangled_component_name":"_ZN6google8protobuf8internal8MapEntryINSt3__112basic_stringIcNS3_11char_traitsIcEENS3_9allocatorIcEEEENS0_5ValueELNS1_14WireFormatLite9FieldTypeE9ELSC_11ELi0EED1Ev"
    },
    {
     "kind":"deleting_dtor_pointer",
     "mangled_component_name":"_ZN6google8protobuf8internal8MapEntryINSt3__112basic_stringIcNS3_11char_traitsIcEENS3_9allocatorIcEEEENS0_5ValueELNS1_14WireFormatLite9FieldTypeE9ELSC_11ELi0EED0Ev"
    },
    {
     "mangled_component_name":"_ZNK6google8protobuf7Message11GetTypeNameEv"
    },
    {
     "mangled_component_name":"_ZNK6google8protobuf8internal8MapEntryINSt3__112basic_stringIcNS3_11char_traitsIcEENS3_9allocatorIcEEEENS0_5ValueELNS1_14WireFormatLite9FieldTypeE9ELSC_11ELi0EE3NewEv"
    },
    {
     "mangled_component_name":"_ZNK6google8protobuf8internal8MapEntryINSt3__112basic_stringIcNS3_11char_traitsIcEENS3_9allocatorIcEEEENS0_5ValueELNS1_14WireFormatLite9FieldTypeE9ELSC_11ELi0EE3NewEPNS0_5ArenaE"
    },
    {
     "mangled_component_name":"_ZNK6google8protobuf8internal8MapEntryINSt3__112basic_stringIcNS3_11char_traitsIcEENS3_9allocatorIcEEEENS0_5ValueELNS1_14WireFormatLite9FieldTypeE9ELSC_11ELi0EE8GetArenaEv"
    },
    {
     "mangled_component_name":"_ZNK6google8protobuf11MessageLite20GetMaybeArenaPointerEv"
    },
    {
     "mangled_component_name":"_ZN6google8protobuf8internal8MapEntryINSt3__112basic_stringIcNS3_11char_traitsIcEENS3_9allocatorIcEEEENS0_5ValueELNS1_14WireFormatLite9FieldTypeE9ELSC_11ELi0EE5ClearEv"
    },
    {
     "mangled_component_name":"_ZNK6google8protobuf8internal8MapEntryINSt3__112basic_stringIcNS3_11char_traitsIcEENS3_9allocatorIcEEEENS0_5ValueELNS1_14WireFormatLite9FieldTypeE9ELSC_11ELi0EE13IsInitializedEv"
    },
    {
     "mangled_component_name":"_ZNK6google8protobuf7Message25InitializationErrorStringEv"
    },
    {
     "mangled_component_name":"_ZN6google8protobuf7Message21CheckTypeAndMergeFromERKNS0_11MessageLiteE"
    },
    {
     "mangled_component_name":"_ZN6google8protobuf8internal8MapEntryINSt3__112basic_stringIcNS3_11char_traitsIcEENS3_9allocatorIcEEEENS0_5ValueELNS1_14WireFormatLite9FieldTypeE9ELSC_11ELi0EE27MergePartialFromCodedStreamEPNS0_2io16CodedInputStreamE"
    },
    {
     "mangled_component_name":"_ZNK6google8protobuf8internal8MapEntryINSt3__112basic_stringIcNS3_11char_traitsIcEENS3_9allocatorIcEEEENS0_5ValueELNS1_14WireFormatLite9FieldTypeE9ELSC_11ELi0EE8ByteSizeEv"
    },
    {
     "mangled_component_name":"_ZNK6google8protobuf8internal8MapEntryINSt3__112basic_stringIcNS3_11char_traitsIcEENS3_9allocatorIcEEEENS0_5ValueELNS1_14WireFormatLite9FieldTypeE9ELSC_11ELi0EE24SerializeWithCachedSizesEPNS0_2io17CodedOutputStreamE"
    },
    {
     "mangled_component_name":"_ZNK6google8protobuf8internal8MapEntryINSt3__112basic_stringIcNS3_11char_traitsIcEENS3_9allocatorIcEEEENS0_5ValueELNS1_14WireFormatLite9FieldTypeE9ELSC_11ELi0EE31SerializeWithCachedSizesToArrayEPh"
    },
    {
     "mangled_component_name":"_ZNK6google8protobuf8internal8MapEntryINSt3__112basic_stringIcNS3_11char_traitsIcEENS3_9allocatorIcEEEENS0_5ValueELNS1_14WireFormatLite9FieldTypeE9ELSC_11ELi0EE13GetCachedSizeEv"
    },
    {
     "mangled_component_name":"_ZN6google8protobuf8internal8MapEntryINSt3__112basic_stringIcNS3_11char_traitsIcEENS3_9allocatorIcEEEENS0_5ValueELNS1_14WireFormatLite9FieldTypeE9ELSC_11ELi0EE8CopyFromERKNS0_7MessageE"
    },
    {
     "mangled_component_name":"_ZN6google8protobuf8internal8MapEntryINSt3__112basic_stringIcNS3_11char_traitsIcEENS3_9allocatorIcEEEENS0_5ValueELNS1_14WireFormatLite9FieldTypeE9ELSC_11ELi0EE9MergeFromERKNS0_7MessageE"
    },
    {
     "mangled_component_name":"_ZN6google8protobuf7Message20DiscardUnknownFieldsEv"
    },
    {
     "mangled_component_name":"_ZNK6google8protobuf8internal8MapEntryINSt3__112basic_stringIcNS3_11char_traitsIcEENS3_9allocatorIcEEEENS0_5ValueELNS1_14WireFormatLite9FieldTypeE9ELSC_11ELi0EE9SpaceUsedEv"
    },
    {
     "mangled_component_name":"_ZNK6google8protobuf7Message13SetCachedSizeEi"
    },
    {
     "mangled_component_name":"_ZNK6google8protobuf7Message13GetReflectionEv"
    },
    {
     "mangled_component_name":"_ZNK6google8protobuf8internal12MapEntryBase11GetMetadataEv"
    },
    {
     "mangled_component_name":"_ZNK6google8protobuf8internal8MapEntryINSt3__112basic_stringIcNS3_11char_traitsIcEENS3_9allocatorIcEEEENS0_5ValueELNS1_14WireFormatLite9FieldTypeE9ELSC_11ELi0EE3keyEv"
    },
    {
     "mangled_component_name":"_ZNK6google8protobuf8internal8MapEntryINSt3__112basic_stringIcNS3_11char_traitsIcEENS3_9allocatorIcEEEENS0_5ValueELNS1_14WireFormatLite9FieldTypeE9ELSC_11ELi0EE5valueEv"
    }
   ],
   "unique_id":"_ZTSN6google8protobuf8internal8MapEntryINSt3__112basic_stringIcNS3_11char_traitsIcEENS3_9allocatorIcEEEENS0_5ValueELNS1_14WireFormatLite9FieldTypeE9ELSC_11ELi0EEE"
  },
  {
   "vtable_components":[
    {
     "kind":"offset_to_top"
    },
    {
     "kind":"rtti",
     "mangled_component_name":"_ZTIN6google8protobuf8internal12MapEntryLiteINSt3__112basic_stringIcNS3_11char_traitsIcEENS3_9allocatorIcEEEENS0_5ValueELNS1_14WireFormatLite9FieldTypeE9ELSC_11ELi0EEE"
    },
    {
     "kind":"complete_dtor_pointer",
     "mangled_component_name":"_ZN6google8protobuf8internal12MapEntryLiteINSt3__112basic_stringIcNS3_11char_traitsIcEENS3_9allocatorIcEEEENS0_5ValueELNS1_14WireFormatLite9FieldTypeE9ELSC_11ELi0EED1Ev"
    },
    {
     "kind":"deleting_dtor_pointer",
     "mangled_component_name":"_ZN6google8protobuf8internal12MapEntryLiteINSt3__112basic_stringIcNS3_11char_traitsIcEENS3_9allocatorIcEEEENS0_5ValueELNS1_14WireFormatLite9FieldTypeE9ELSC_11ELi0EED0Ev"
    },
    {
     "mangled_component_name":"_ZNK6google8protobuf8internal12MapEntryLiteINSt3__112basic_stringIcNS3_11char_traitsIcEENS3_9allocatorIcEEEENS0_5ValueELNS1_14WireFormatLite9FieldTypeE9ELSC_11ELi0EE11GetTypeNameEv"
    },
    {
     "mangled_component_name":"_ZNK6google8protobuf8internal12MapEntryLiteINSt3__112basic_stringIcNS3_11char_traitsIcEENS3_9allocatorIcEEEENS0_5ValueELNS1_14WireFormatLite9FieldTypeE9ELSC_11ELi0EE3NewEv"
    },
    {
     "mangled_component_name":"_ZNK6google8protobuf8internal12MapEntryLiteINSt3__112basic_stringIcNS3_11char_traitsIcEENS3_9allocatorIcEEEENS0_5ValueELNS1_14WireFormatLite9FieldTypeE9ELSC_11ELi0EE3NewEPNS0_5ArenaE"
    },
    {
     "mangled_component_name":"_ZNK6google8protobuf8internal12MapEntryLiteINSt3__112basic_stringIcNS3_11char_traitsIcEENS3_9allocatorIcEEEENS0_5ValueELNS1_14WireFormatLite9FieldTypeE9ELSC_11ELi0EE8GetArenaEv"
    },
    {
     "mangled_component_name":"_ZNK6google8protobuf11MessageLite20GetMaybeArenaPointerEv"
    },
    {
     "mangled_component_name":"_ZN6google8protobuf8internal12MapEntryLiteINSt3__112basic_stringIcNS3_11char_traitsIcEENS3_9allocatorIcEEEENS0_5ValueELNS1_14WireFormatLite9FieldTypeE9ELSC_11ELi0EE5ClearEv"
    },
    {
     "mangled_component_name":"_ZNK6google8protobuf8internal12MapEntryLiteINSt3__112basic_stringIcNS3_11char_traitsIcEENS3_9allocatorIcEEEENS0_5ValueELNS1_14WireFormatLite9FieldTypeE9ELSC_11ELi0EE13IsInitializedEv"
    },
    {
     "mangled_component_name":"_ZNK6google8protobuf11MessageLite25InitializationErrorStringEv"
    },
    {
     "mangled_component_name":"_ZN6google8protobuf8internal12MapEntryLiteINSt3__112basic_stringIcNS3_11char_traitsIcEENS3_9allocatorIcEEEENS0_5ValueELNS1_14WireFormatLite9FieldTypeE9ELSC_11ELi0EE21CheckTypeAndMergeFromERKNS0_11MessageLiteE"
    },
    {
     "mangled_component_name":"_ZN6google8protobuf8internal12MapEntryLiteINSt3__112basic_stringIcNS3_11char_traitsIcEENS3_9allocatorIcEEEENS0_5ValueELNS1_14WireFormatLite9FieldTypeE9ELSC_11ELi0EE27MergePartialFromCodedStreamEPNS0_2io16CodedInputStreamE"
    },
    {
     "mangled_component_name":"_ZNK6google8protobuf8internal12MapEntryLiteINSt3__112basic_stringIcNS3_11char_traitsIcEENS3_9allocatorIcEEEENS0_5ValueELNS1_14WireFormatLite9FieldTypeE9ELSC_11ELi0EE8ByteSizeEv"
    },
    {
     "mangled_component_name":"_ZNK6google8protobuf8internal12MapEntryLiteINSt3__112basic_stringIcNS3_11char_traitsIcEENS3_9allocatorIcEEEENS0_5ValueELNS1_14WireFormatLite9FieldTypeE9ELSC_11ELi0EE24SerializeWithCachedSizesEPNS0_2io17CodedOutputStreamE"
    },
    {
     "mangled_component_name":"_ZNK6google8protobuf8internal12MapEntryLiteINSt3__112basic_stringIcNS3_11char_traitsIcEENS3_9allocatorIcEEEENS0_5ValueELNS1_14WireFormatLite9FieldTypeE9ELSC_11ELi0EE31SerializeWithCachedSizesToArrayEPh"
    },
    {
     "mangled_component_name":"_ZNK6google8protobuf8internal12MapEntryLiteINSt3__112basic_stringIcNS3_11char_traitsIcEENS3_9allocatorIcEEEENS0_5ValueELNS1_14WireFormatLite9FieldTypeE9ELSC_11ELi0EE13GetCachedSizeEv"
    },
    {
     "mangled_component_name":"_ZNK6google8protobuf8internal12MapEntryLiteINSt3__112basic_stringIcNS3_11char_traitsIcEENS3_9allocatorIcEEEENS0_5ValueELNS1_14WireFormatLite9FieldTypeE9ELSC_11ELi0EE3keyEv"
    },
    {
     "mangled_component_name":"_ZNK6google8protobuf8internal12MapEntryLiteINSt3__112basic_stringIcNS3_11char_traitsIcEENS3_9allocatorIcEEEENS0_5ValueELNS1_14WireFormatLite9FieldTypeE9ELSC_11ELi0EE5valueEv"
    }
   ],
   "unique_id":"_ZTSN6google8protobuf8internal12MapEntryLiteINSt3__112basic_stringIcNS3_11char_traitsIcEENS3_9allocatorIcEEEENS0_5ValueELNS1_14WireFormatLite9FieldTypeE9ELSC_11ELi0EEE"
  },
  {
   "vtable_components":[
    {
     "kind":"offset_to_top"
    },
    {
     "kind":"rtti",
     "mangled_component_name":"_ZTIN6google8protobuf8internal23TypeDefinedMapFieldBaseINSt3__112basic_stringIcNS3_11char_traitsIcEENS3_9allocatorIcEEEENS0_5ValueEEE"
    },
    {
     "kind":"complete_dtor_pointer",
     "mangled_component_name":"_ZN6google8protobuf8internal23TypeDefinedMapFieldBaseINSt3__112basic_stringIcNS3_11char_traitsIcEENS3_9allocatorIcEEEENS0_5ValueEED1Ev"
    },
    {
     "kind":"deleting_dtor_pointer",
     "mangled_component_name":"_ZN6google8protobuf8internal23TypeDefinedMapFieldBaseINSt3__112basic_stringIcNS3_11char_traitsIcEENS3_9allocatorIcEEEENS0_5ValueEED0Ev"
    },
    {
     "is_pure":true,
     "mangled_component_name":"_ZNK6google8protobuf8internal12MapFieldBase14ContainsMapKeyERKNS0_6MapKeyE"
    },
    {
     "is_pure":true,
     "mangled_component_name":"_ZN6google8protobuf8internal12MapFieldBase22InsertOrLookupMapValueERKNS0_6MapKeyEPNS0_11MapValueRefE"
    },
    {
     "is_pure":true,
     "mangled_component_name":"_ZN6google8protobuf8internal12MapFieldBase14DeleteMapValueERKNS0_6MapKeyE"
    },
    {
     "mangled_component_name":"_ZNK6google8protobuf8internal23TypeDefinedMapFieldBaseINSt3__112basic_stringIcNS3_11char_traitsIcEENS3_9allocatorIcEEEENS0_5ValueEE13EqualIteratorERKNS0_11MapIteratorESE_"
    },
    {
     "mangled_component_name":"_ZNK6google8protobuf8internal23TypeDefinedMapFieldBaseINSt3__112basic_stringIcNS3_11char_traitsIcEENS3_9allocatorIcEEEENS0_5ValueEE8MapBeginEPNS0_11MapIteratorE"
    },
    {
     "mangled_component_name":"_ZNK6google8protobuf8internal23TypeDefinedMapFieldBaseINSt3__112basic_stringIcNS3_11char_traitsIcEENS3_9allocatorIcEEEENS0_5ValueEE6MapEndEPNS0_11MapIteratorE"
    },
    {
     "is_pure":true,
     "mangled_component_name":"_ZNK6google8protobuf8internal12MapFieldBase4sizeEv"
    },
    {
     "mangled_component_name":"_ZNK6google8protobuf8internal12MapFieldBase28SpaceUsedExcludingSelfNoLockEv"
    },
    {
     "mangled_component_name":"_ZNK6google8protobuf8internal12MapFieldBase30SyncRepeatedFieldWithMapNoLockEv"
    },
    {
     "mangled_component_name":"_ZNK6google8protobuf8internal12MapFieldBase30SyncMapWithRepeatedFieldNoLockEv"
    },
    {
     "mangled_component_name":"_ZNK6google8protobuf8internal23TypeDefinedMapFieldBaseINSt3__112basic_stringIcNS3_11char_traitsIcEENS3_9allocatorIcEEEENS0_5ValueEE18InitializeIteratorEPNS0_11MapIteratorE"
    },
    {
     "mangled_component_name":"_ZNK6google8protobuf8internal23TypeDefinedMapFieldBaseINSt3__112basic_stringIcNS3_11char_traitsIcEENS3_9allocatorIcEEEENS0_5ValueEE14DeleteIteratorEPNS0_11MapIteratorE"
    },
    {
     "mangled_component_name":"_ZNK6google8protobuf8internal23TypeDefinedMapFieldBaseINSt3__112basic_stringIcNS3_11char_traitsIcEENS3_9allocatorIcEEEENS0_5ValueEE12CopyIteratorEPNS0_11MapIteratorERKSC_"
    },
    {
     "mangled_component_name":"_ZNK6google8protobuf8internal23TypeDefinedMapFieldBaseINSt3__112basic_stringIcNS3_11char_traitsIcEENS3_9allocatorIcEEEENS0_5ValueEE16IncreaseIteratorEPNS0_11MapIteratorE"
    },
    {
     "is_pure":true,
     "mangled_component_name":"_ZNK6google8protobuf8internal23TypeDefinedMapFieldBaseINSt3__112basic_stringIcNS3_11char_traitsIcEENS3_9allocatorIcEEEENS0_5ValueEE6GetMapEv"
    },
    {
     "is_pure":true,
     "mangled_component_name":"_ZN6google8protobuf8internal23TypeDefinedMapFieldBaseINSt3__112basic_stringIcNS3_11char_traitsIcEENS3_9allocatorIcEEEENS0_5ValueEE10MutableMapEv"
    },
    {
     "is_pure":true,
     "mangled_component_name":"_ZNK6google8protobuf8internal23TypeDefinedMapFieldBaseINSt3__112basic_stringIcNS3_11char_traitsIcEENS3_9allocatorIcEEEENS0_5ValueEE19SetMapIteratorValueEPNS0_11MapIteratorE"
    }
   ],
   "unique_id":"_ZTSN6google8protobuf8internal23TypeDefinedMapFieldBaseINSt3__112basic_stringIcNS3_11char_traitsIcEENS3_9allocatorIcEEEENS0_5ValueEEE"
  },
  {
   "vtable_components":[
    {
     "kind":"offset_to_top"
    },
    {
     "kind":"rtti",
     "mangled_component_name":"_ZTIN6google8protobuf8internal12MapFieldLiteINSt3__112basic_stringIcNS3_11char_traitsIcEENS3_9allocatorIcEEEENS0_5ValueELNS1_14WireFormatLite9FieldTypeE9ELSC_11ELi0EEE"
    },
    {
     "kind":"complete_dtor_pointer",
     "mangled_component_name":"_ZN6google8protobuf8internal12MapFieldLiteINSt3__112basic_stringIcNS3_11char_traitsIcEENS3_9allocatorIcEEEENS0_5ValueELNS1_14WireFormatLite9FieldTypeE9ELSC_11ELi0EED1Ev"
    },
    {
     "kind":"deleting_dtor_pointer",
     "mangled_component_name":"_ZN6google8protobuf8internal12MapFieldLiteINSt3__112basic_stringIcNS3_11char_traitsIcEENS3_9allocatorIcEEEENS0_5ValueELNS1_14WireFormatLite9FieldTypeE9ELSC_11ELi0EED0Ev"
    },
    {
     "mangled_component_name":"_ZNK6google8protobuf8internal12MapFieldLiteINSt3__112basic_stringIcNS3_11char_traitsIcEENS3_9allocatorIcEEEENS0_5ValueELNS1_14WireFormatLite9FieldTypeE9ELSC_11ELi0EE6GetMapEv"
    },
    {
     "mangled_component_name":"_ZN6google8protobuf8internal12MapFieldLiteINSt3__112basic_stringIcNS3_11char_traitsIcEENS3_9allocatorIcEEEENS0_5ValueELNS1_14WireFormatLite9FieldTypeE9ELSC_11ELi0EE10MutableMapEv"
    },
    {
     "mangled_component_name":"_ZNK6google8protobuf8internal12MapFieldLiteINSt3__112basic_stringIcNS3_11char_traitsIcEENS3_9allocatorIcEEEENS0_5ValueELNS1_14WireFormatLite9FieldTypeE9ELSC_11ELi0EE4sizeEv"
    },
    {
     "mangled_component_name":"_ZN6google8protobuf8internal12MapFieldLiteINSt3__112basic_stringIcNS3_11char_traitsIcEENS3_9allocatorIcEEEENS0_5ValueELNS1_14WireFormatLite9FieldTypeE9ELSC_11ELi0EE5ClearEv"
    },
    {
     "mangled_component_name":"_ZN6google8protobuf8internal12MapFieldLiteINSt3__112basic_stringIcNS3_11char_traitsIcEENS3_9allocatorIcEEEENS0_5ValueELNS1_14WireFormatLite9FieldTypeE9ELSC_11ELi0EE9MergeFromERKSD_"
    },
    {
     "mangled_component_name":"_ZN6google8protobuf8internal12MapFieldLiteINSt3__112basic_stringIcNS3_11char_traitsIcEENS3_9allocatorIcEEEENS0_5ValueELNS1_14WireFormatLite9FieldTypeE9ELSC_11ELi0EE4SwapEPSD_"
    },
    {
     "mangled_component_name":"_ZNK6google8protobuf8internal12MapFieldLiteINSt3__112basic_stringIcNS3_11char_traitsIcEENS3_9allocatorIcEEEENS0_5ValueELNS1_14WireFormatLite9FieldTypeE9ELSC_11ELi0EE14GetInternalMapEv"
    },
    {
     "mangled_component_name":"_ZN6google8protobuf8internal12MapFieldLiteINSt3__112basic_stringIcNS3_11char_traitsIcEENS3_9allocatorIcEEEENS0_5ValueELNS1_14WireFormatLite9FieldTypeE9ELSC_11ELi0EE18MutableInternalMapEv"
    }
   ],
   "unique_id":"_ZTSN6google8protobuf8internal12MapFieldLiteINSt3__112basic_stringIcNS3_11char_traitsIcEENS3_9allocatorIcEEEENS0_5ValueELNS1_14WireFormatLite9FieldTypeE9ELSC_11ELi0EEE"
  },
  {
   "vtable_components":[
    {
     "kind":"offset_to_top"
    },
    {
     "kind":"rtti",
     "mangled_component_name":"_ZTIN6google8protobuf9ListValueE"
    },
    {
     "kind":"complete_dtor_pointer",
     "mangled_component_name":"_ZN6google8protobuf9ListValueD1Ev"
    },
    {
     "kind":"deleting_dtor_pointer",
     "mangled_component_name":"_ZN6google8protobuf9ListValueD0Ev"
    },
    {
     "mangled_component_name":"_ZNK6google8protobuf7Message11GetTypeNameEv"
    },
    {
     "mangled_component_name":"_ZNK6google8protobuf9ListValue3NewEv"
    },
    {
     "mangled_component_name":"_ZNK6google8protobuf9ListValue3NewEPNS0_5ArenaE"
    },
    {
     "mangled_component_name":"_ZNK6google8protobuf11MessageLite8GetArenaEv"
    },
    {
     "mangled_component_name":"_ZNK6google8protobuf11MessageLite20GetMaybeArenaPointerEv"
    },
    {
     "mangled_component_name":"_ZN6google8protobuf9ListValue5ClearEv"
    },
    {
     "mangled_component_name":"_ZNK6google8protobuf9ListValue13IsInitializedEv"
    },
    {
     "mangled_component_name":"_ZNK6google8protobuf7Message25InitializationErrorStringEv"
    },
    {
     "mangled_component_name":"_ZN6google8protobuf7Message21CheckTypeAndMergeFromERKNS0_11MessageLiteE"
    },
    {
     "mangled_component_name":"_ZN6google8protobuf9ListValue27MergePartialFromCodedStreamEPNS0_2io16CodedInputStreamE"
    },
    {
     "mangled_component_name":"_ZNK6google8protobuf9ListValue8ByteSizeEv"
    },
    {
     "mangled_component_name":"_ZNK6google8protobuf9ListValue24SerializeWithCachedSizesEPNS0_2io17CodedOutputStreamE"
    },
    {
     "mangled_component_name":"_ZNK6google8protobuf9ListValue31SerializeWithCachedSizesToArrayEPh"
    },
    {
     "mangled_component_name":"_ZNK6google8protobuf9ListValue13GetCachedSizeEv"
    },
    {
     "mangled_component_name":"_ZN6google8protobuf9ListValue8CopyFromERKNS0_7MessageE"
    },
    {
     "mangled_component_name":"_ZN6google8protobuf9ListValue9MergeFromERKNS0_7MessageE"
    },
    {
     "mangled_component_name":"_ZN6google8protobuf7Message20DiscardUnknownFieldsEv"
    },
    {
     "mangled_component_name":"_ZNK6google8protobuf7Message9SpaceUsedEv"
    },
    {
     "mangled_component_name":"_ZNK6google8protobuf9ListValue13SetCachedSizeEi"
    },
    {
     "mangled_component_name":"_ZNK6google8protobuf7Message13GetReflectionEv"
    },
    {
     "mangled_component_name":"_ZNK6google8protobuf9ListValue11GetMetadataEv"
    }
   ],
   "unique_id":"_ZTSN6google8protobuf9ListValueE"
  },
  {
   "vtable_components":[
    {
     "kind":"offset_to_top"
    },
    {
     "kind":"rtti",
     "mangled_component_name":"_ZTIN6google8protobuf8internal12MapEntryLiteINSt3__112basic_stringIcNS3_11char_traitsIcEENS3_9allocatorIcEEEENS0_5ValueELNS1_14WireFormatLite9FieldTypeE9ELSC_11ELi0EE15MapEntryWrapperIS9_SA_LSC_9ELSC_11ELi0EEE"
    },
    {
     "kind":"complete_dtor_pointer",
     "mangled_component_name":"_ZN6google8protobuf8internal12MapEntryLiteINSt3__112basic_stringIcNS3_11char_traitsIcEENS3_9allocatorIcEEEENS0_5ValueELNS1_14WireFormatLite9FieldTypeE9ELSC_11ELi0EE15MapEntryWrapperIS9_SA_LSC_9ELSC_11ELi0EED1Ev"
    },
    {
     "kind":"deleting_dtor_pointer",
     "mangled_component_name":"_ZN6google8protobuf8internal12MapEntryLiteINSt3__112basic_stringIcNS3_11char_traitsIcEENS3_9allocatorIcEEEENS0_5ValueELNS1_14WireFormatLite9FieldTypeE9ELSC_11ELi0EE15MapEntryWrapperIS9_SA_LSC_9ELSC_11ELi0EED0Ev"
    },
    {
     "mangled_component_name":"_ZNK6google8protobuf8internal12MapEntryLiteINSt3__112basic_stringIcNS3_11char_traitsIcEENS3_9allocatorIcEEEENS0_5ValueELNS1_14WireFormatLite9FieldTypeE9ELSC_11ELi0EE11GetTypeNameEv"
    },
    {
     "mangled_component_name":"_ZNK6google8protobuf8internal12MapEntryLiteINSt3__112basic_stringIcNS3_11char_traitsIcEENS3_9allocatorIcEEEENS0_5ValueELNS1_14WireFormatLite9FieldTypeE9ELSC_11ELi0EE3NewEv"
    },
    {
     "mangled_component_name":"_ZNK6google8protobuf8internal12MapEntryLiteINSt3__112basic_stringIcNS3_11char_traitsIcEENS3_9allocatorIcEEEENS0_5ValueELNS1_14WireFormatLite9FieldTypeE9ELSC_11ELi0EE3NewEPNS0_5ArenaE"
    },
    {
     "mangled_component_name":"_ZNK6google8protobuf8internal12MapEntryLiteINSt3__112basic_stringIcNS3_11char_traitsIcEENS3_9allocatorIcEEEENS0_5ValueELNS1_14WireFormatLite9FieldTypeE9ELSC_11ELi0EE8GetArenaEv"
    },
    {
     "mangled_component_name":"_ZNK6google8protobuf11MessageLite20GetMaybeArenaPointerEv"
    },
    {
     "mangled_component_name":"_ZN6google8protobuf8internal12MapEntryLiteINSt3__112basic_stringIcNS3_11char_traitsIcEENS3_9allocatorIcEEEENS0_5ValueELNS1_14WireFormatLite9FieldTypeE9ELSC_11ELi0EE5ClearEv"
    },
    {
     "mangled_component_name":"_ZNK6google8protobuf8internal12MapEntryLiteINSt3__112basic_stringIcNS3_11char_traitsIcEENS3_9allocatorIcEEEENS0_5ValueELNS1_14WireFormatLite9FieldTypeE9ELSC_11ELi0EE13IsInitializedEv"
    },
    {
     "mangled_component_name":"_ZNK6google8protobuf11MessageLite25InitializationErrorStringEv"
    },
    {
     "mangled_component_name":"_ZN6google8protobuf8internal12MapEntryLiteINSt3__112basic_stringIcNS3_11char_traitsIcEENS3_9allocatorIcEEEENS0_5ValueELNS1_14WireFormatLite9FieldTypeE9ELSC_11ELi0EE21CheckTypeAndMergeFromERKNS0_11MessageLiteE"
    },
    {
     "mangled_component_name":"_ZN6google8protobuf8internal12MapEntryLiteINSt3__112basic_stringIcNS3_11char_traitsIcEENS3_9allocatorIcEEEENS0_5ValueELNS1_14WireFormatLite9FieldTypeE9ELSC_11ELi0EE27MergePartialFromCodedStreamEPNS0_2io16CodedInputStreamE"
    },
    {
     "mangled_component_name":"_ZNK6google8protobuf8internal12MapEntryLiteINSt3__112basic_stringIcNS3_11char_traitsIcEENS3_9allocatorIcEEEENS0_5ValueELNS1_14WireFormatLite9FieldTypeE9ELSC_11ELi0EE8ByteSizeEv"
    },
    {
     "mangled_component_name":"_ZNK6google8protobuf8internal12MapEntryLiteINSt3__112basic_stringIcNS3_11char_traitsIcEENS3_9allocatorIcEEEENS0_5ValueELNS1_14WireFormatLite9FieldTypeE9ELSC_11ELi0EE24SerializeWithCachedSizesEPNS0_2io17CodedOutputStreamE"
    },
    {
     "mangled_component_name":"_ZNK6google8protobuf8internal12MapEntryLiteINSt3__112basic_stringIcNS3_11char_traitsIcEENS3_9allocatorIcEEEENS0_5ValueELNS1_14WireFormatLite9FieldTypeE9ELSC_11ELi0EE31SerializeWithCachedSizesToArrayEPh"
    },
    {
     "mangled_component_name":"_ZNK6google8protobuf8internal12MapEntryLiteINSt3__112basic_stringIcNS3_11char_traitsIcEENS3_9allocatorIcEEEENS0_5ValueELNS1_14WireFormatLite9FieldTypeE9ELSC_11ELi0EE13GetCachedSizeEv"
    },
    {
     "mangled_component_name":"_ZNK6google8protobuf8internal12MapEntryLiteINSt3__112basic_stringIcNS3_11char_traitsIcEENS3_9allocatorIcEEEENS0_5ValueELNS1_14WireFormatLite9FieldTypeE9ELSC_11ELi0EE15MapEntryWrapperIS9_SA_LSC_9ELSC_11ELi0EE3keyEv"
    },
    {
     "mangled_component_name":"_ZNK6google8protobuf8internal12MapEntryLiteINSt3__112basic_stringIcNS3_11char_traitsIcEENS3_9allocatorIcEEEENS0_5ValueELNS1_14WireFormatLite9FieldTypeE9ELSC_11ELi0EE15MapEntryWrapperIS9_SA_LSC_9ELSC_11ELi0EE5valueEv"
    }
   ],
   "unique_id":"_ZTSN6google8protobuf8internal12MapEntryLiteINSt3__112basic_stringIcNS3_11char_traitsIcEENS3_9allocatorIcEEEENS0_5ValueELNS1_14WireFormatLite9FieldTypeE9ELSC_11ELi0EE15MapEntryWrapperIS9_SA_LSC_9ELSC_11ELi0EEE"
  },
  {
   "vtable_components":[
    {
     "kind":"offset_to_top"
    },
    {
     "kind":"rtti",
     "mangled_component_name":"_ZTIN6google8protobuf8internal15ExtensionFinderE"
    },
    {
     "kind":"complete_dtor_pointer",
     "mangled_component_name":"_ZN6google8protobuf8internal15ExtensionFinderD1Ev"
    },
    {
     "kind":"deleting_dtor_pointer",
     "mangled_component_name":"_ZN6google8protobuf8internal15ExtensionFinderD0Ev"
    },
    {
     "is_pure":true,
     "mangled_component_name":"_ZN6google8protobuf8internal15ExtensionFinder4FindEiPNS1_13ExtensionInfoE"
    }
   ],
   "unique_id":"_ZTSN6google8protobuf8internal15ExtensionFinderE"
  },
  {
   "vtable_components":[
    {
     "kind":"offset_to_top"
    },
    {
     "kind":"rtti",
     "mangled_component_name":"_ZTIN6google8protobuf8internal24GeneratedExtensionFinderE"
    },
    {
     "kind":"complete_dtor_pointer",
     "mangled_component_name":"_ZN6google8protobuf8internal24GeneratedExtensionFinderD1Ev"
    },
    {
     "kind":"deleting_dtor_pointer",
     "mangled_component_name":"_ZN6google8protobuf8internal24GeneratedExtensionFinderD0Ev"
    },
    {
     "mangled_component_name":"_ZN6google8protobuf8internal24GeneratedExtensionFinder4FindEiPNS1_13ExtensionInfoE"
    }
   ],
   "unique_id":"_ZTSN6google8protobuf8internal24GeneratedExtensionFinderE"
  },
  {
   "vtable_components":[
    {
     "kind":"offset_to_top"
    },
    {
     "kind":"rtti",
     "mangled_component_name":"_ZTIN6google8protobuf8internal12FieldSkipperE"
    },
    {
     "kind":"complete_dtor_pointer",
     "mangled_component_name":"_ZN6google8protobuf8internal12FieldSkipperD1Ev"
    },
    {
     "kind":"deleting_dtor_pointer",
     "mangled_component_name":"_ZN6google8protobuf8internal12FieldSkipperD0Ev"
    },
    {
     "mangled_component_name":"_ZN6google8protobuf8internal12FieldSkipper9SkipFieldEPNS0_2io16CodedInputStreamEj"
    },
    {
     "mangled_component_name":"_ZN6google8protobuf8internal12FieldSkipper11SkipMessageEPNS0_2io16CodedInputStreamE"
    },
    {
     "mangled_component_name":"_ZN6google8protobuf8internal12FieldSkipper15SkipUnknownEnumEii"
    }
   ],
   "unique_id":"_ZTSN6google8protobuf8internal12FieldSkipperE"
  },
  {
   "vtable_components":[
    {
     "kind":"offset_to_top"
    },
    {
     "kind":"rtti",
     "mangled_component_name":"_ZTIN6google8protobuf8internal29CodedOutputStreamFieldSkipperE"
    },
    {
     "kind":"complete_dtor_pointer",
     "mangled_component_name":"_ZN6google8protobuf8internal29CodedOutputStreamFieldSkipperD1Ev"
    },
    {
     "kind":"deleting_dtor_pointer",
     "mangled_component_name":"_ZN6google8protobuf8internal29CodedOutputStreamFieldSkipperD0Ev"
    },
    {
     "mangled_component_name":"_ZN6google8protobuf8internal29CodedOutputStreamFieldSkipper9SkipFieldEPNS0_2io16CodedInputStreamEj"
    },
    {
     "mangled_component_name":"_ZN6google8protobuf8internal29CodedOutputStreamFieldSkipper11SkipMessageEPNS0_2io16CodedInputStreamE"
    },
    {
     "mangled_component_name":"_ZN6google8protobuf8internal29CodedOutputStreamFieldSkipper15SkipUnknownEnumEii"
    }
   ],
   "unique_id":"_ZTSN6google8protobuf8internal29CodedOutputStreamFieldSkipperE"
  },
  {
   "vtable_components":[
    {
     "kind":"offset_to_top"
    },
    {
     "kind":"rtti",
     "mangled_component_name":"_ZTIN6google8protobuf8internal16MapFieldAccessorE"
    },
    {
     "kind":"complete_dtor_pointer",
     "mangled_component_name":"_ZN6google8protobuf8internal16MapFieldAccessorD1Ev"
    },
    {
     "kind":"deleting_dtor_pointer",
     "mangled_component_name":"_ZN6google8protobuf8internal16MapFieldAccessorD0Ev"
    },
    {
     "mangled_component_name":"_ZNK6google8protobuf8internal16MapFieldAccessor7IsEmptyEPKv"
    },
    {
     "mangled_component_name":"_ZNK6google8protobuf8internal16MapFieldAccessor4SizeEPKv"
    },
    {
     "mangled_component_name":"_ZNK6google8protobuf8internal16MapFieldAccessor3GetEPKviPv"
    },
    {
     "mangled_component_name":"_ZNK6google8protobuf8internal16MapFieldAccessor5ClearEPv"
    },
    {
     "mangled_component_name":"_ZNK6google8protobuf8internal16MapFieldAccessor3SetEPviPKv"
    },
    {
     "mangled_component_name":"_ZNK6google8protobuf8internal16MapFieldAccessor3AddEPvPKv"
    },
    {
     "mangled_component_name":"_ZNK6google8protobuf8internal16MapFieldAccessor10RemoveLastEPv"
    },
    {
     "mangled_component_name":"_ZNK6google8protobuf8internal16MapFieldAccessor12SwapElementsEPvii"
    },
    {
     "mangled_component_name":"_ZNK6google8protobuf8internal16MapFieldAccessor4SwapEPvPKNS1_21RepeatedFieldAccessorES3_"
    },
    {
     "mangled_component_name":"_ZNK6google8protobuf8internal33RandomAccessRepeatedFieldAccessor13BeginIteratorEPKv"
    },
    {
     "mangled_component_name":"_ZNK6google8protobuf8internal33RandomAccessRepeatedFieldAccessor11EndIteratorEPKv"
    },
    {
     "mangled_component_name":"_ZNK6google8protobuf8internal33RandomAccessRepeatedFieldAccessor12CopyIteratorEPKvS4_"
    },
    {
     "mangled_component_name":"_ZNK6google8protobuf8internal33RandomAccessRepeatedFieldAccessor15AdvanceIteratorEPKvPv"
    },
    {
     "mangled_component_name":"_ZNK6google8protobuf8internal33RandomAccessRepeatedFieldAccessor14EqualsIteratorEPKvS4_S4_"
    },
    {
     "mangled_component_name":"_ZNK6google8protobuf8internal33RandomAccessRepeatedFieldAccessor14DeleteIteratorEPKvPv"
    },
    {
     "mangled_component_name":"_ZNK6google8protobuf8internal33RandomAccessRepeatedFieldAccessor16GetIteratorValueEPKvS4_Pv"
    },
    {
     "mangled_component_name":"_ZNK6google8protobuf8internal16MapFieldAccessor3NewEPKv"
    },
    {
     "mangled_component_name":"_ZNK6google8protobuf8internal16MapFieldAccessor14ConvertToEntryEPKvPNS0_7MessageE"
    },
    {
     "mangled_component_name":"_ZNK6google8protobuf8internal16MapFieldAccessor16ConvertFromEntryERKNS0_7MessageEPv"
    }
   ],
   "unique_id":"_ZTSN6google8protobuf8internal16MapFieldAccessorE"
  },
  {
   "vtable_components":[
    {
     "kind":"offset_to_top"
    },
    {
     "kind":"rtti",
     "mangled_component_name":"_ZTIN6google8protobuf8internal21RepeatedFieldAccessorE"
    },
    {
     "kind":"complete_dtor_pointer",
     "mangled_component_name":"_ZN6google8protobuf8internal21RepeatedFieldAccessorD1Ev"
    },
    {
     "kind":"deleting_dtor_pointer",
     "mangled_component_name":"_ZN6google8protobuf8internal21RepeatedFieldAccessorD0Ev"
    },
    {
     "is_pure":true,
     "mangled_component_name":"_ZNK6google8protobuf8internal21RepeatedFieldAccessor7IsEmptyEPKv"
    },
    {
     "is_pure":true,
     "mangled_component_name":"_ZNK6google8protobuf8internal21RepeatedFieldAccessor4SizeEPKv"
    },
    {
     "is_pure":true,
     "mangled_component_name":"_ZNK6google8protobuf8internal21RepeatedFieldAccessor3GetEPKviPv"
    },
    {
     "is_pure":true,
     "mangled_component_name":"_ZNK6google8protobuf8internal21RepeatedFieldAccessor5ClearEPv"
    },
    {
     "is_pure":true,
     "mangled_component_name":"_ZNK6google8protobuf8internal21RepeatedFieldAccessor3SetEPviPKv"
    },
    {
     "is_pure":true,
     "mangled_component_name":"_ZNK6google8protobuf8internal21RepeatedFieldAccessor3AddEPvPKv"
    },
    {
     "is_pure":true,
     "mangled_component_name":"_ZNK6google8protobuf8internal21RepeatedFieldAccessor10RemoveLastEPv"
    },
    {
     "is_pure":true,
     "mangled_component_name":"_ZNK6google8protobuf8internal21RepeatedFieldAccessor12SwapElementsEPvii"
    },
    {
     "is_pure":true,
     "mangled_component_name":"_ZNK6google8protobuf8internal21RepeatedFieldAccessor4SwapEPvPKS2_S3_"
    },
    {
     "is_pure":true,
     "mangled_component_name":"_ZNK6google8protobuf8internal21RepeatedFieldAccessor13BeginIteratorEPKv"
    },
    {
     "is_pure":true,
     "mangled_component_name":"_ZNK6google8protobuf8internal21RepeatedFieldAccessor11EndIteratorEPKv"
    },
    {
     "is_pure":true,
     "mangled_component_name":"_ZNK6google8protobuf8internal21RepeatedFieldAccessor12CopyIteratorEPKvS4_"
    },
    {
     "is_pure":true,
     "mangled_component_name":"_ZNK6google8protobuf8internal21RepeatedFieldAccessor15AdvanceIteratorEPKvPv"
    },
    {
     "is_pure":true,
     "mangled_component_name":"_ZNK6google8protobuf8internal21RepeatedFieldAccessor14EqualsIteratorEPKvS4_S4_"
    },
    {
     "is_pure":true,
     "mangled_component_name":"_ZNK6google8protobuf8internal21RepeatedFieldAccessor14DeleteIteratorEPKvPv"
    },
    {
     "is_pure":true,
     "mangled_component_name":"_ZNK6google8protobuf8internal21RepeatedFieldAccessor16GetIteratorValueEPKvS4_Pv"
    }
   ],
   "unique_id":"_ZTSN6google8protobuf8internal21RepeatedFieldAccessorE"
  },
  {
   "vtable_components":[
    {
     "kind":"offset_to_top"
    },
    {
     "kind":"rtti",
     "mangled_component_name":"_ZTIN6google8protobuf8internal30RepeatedFieldPrimitiveAccessorIiEE"
    },
    {
     "kind":"complete_dtor_pointer",
     "mangled_component_name":"_ZN6google8protobuf8internal30RepeatedFieldPrimitiveAccessorIiED1Ev"
    },
    {
     "kind":"deleting_dtor_pointer",
     "mangled_component_name":"_ZN6google8protobuf8internal30RepeatedFieldPrimitiveAccessorIiED0Ev"
    },
    {
     "mangled_component_name":"_ZNK6google8protobuf8internal20RepeatedFieldWrapperIiE7IsEmptyEPKv"
    },
    {
     "mangled_component_name":"_ZNK6google8protobuf8internal20RepeatedFieldWrapperIiE4SizeEPKv"
    },
    {
     "mangled_component_name":"_ZNK6google8protobuf8internal20RepeatedFieldWrapperIiE3GetEPKviPv"
    },
    {
     "mangled_component_name":"_ZNK6google8protobuf8internal20RepeatedFieldWrapperIiE5ClearEPv"
    },
    {
     "mangled_component_name":"_ZNK6google8protobuf8internal20RepeatedFieldWrapperIiE3SetEPviPKv"
    },
    {
     "mangled_component_name":"_ZNK6google8protobuf8internal20RepeatedFieldWrapperIiE3AddEPvPKv"
    },
    {
     "mangled_component_name":"_ZNK6google8protobuf8internal20RepeatedFieldWrapperIiE10RemoveLastEPv"
    },
    {
     "mangled_component_name":"_ZNK6google8protobuf8internal20RepeatedFieldWrapperIiE12SwapElementsEPvii"
    },
    {
     "mangled_component_name":"_ZNK6google8protobuf8internal30RepeatedFieldPrimitiveAccessorIiE4SwapEPvPKNS1_21RepeatedFieldAccessorES4_"
    },
    {
     "mangled_component_name":"_ZNK6google8protobuf8internal33RandomAccessRepeatedFieldAccessor13BeginIteratorEPKv"
    },
    {
     "mangled_component_name":"_ZNK6google8protobuf8internal33RandomAccessRepeatedFieldAccessor11EndIteratorEPKv"
    },
    {
     "mangled_component_name":"_ZNK6google8protobuf8internal33RandomAccessRepeatedFieldAccessor12CopyIteratorEPKvS4_"
    },
    {
     "mangled_component_name":"_ZNK6google8protobuf8internal33RandomAccessRepeatedFieldAccessor15AdvanceIteratorEPKvPv"
    },
    {
     "mangled_component_name":"_ZNK6google8protobuf8internal33RandomAccessRepeatedFieldAccessor14EqualsIteratorEPKvS4_S4_"
    },
    {
     "mangled_component_name":"_ZNK6google8protobuf8internal33RandomAccessRepeatedFieldAccessor14DeleteIteratorEPKvPv"
    },
    {
     "mangled_component_name":"_ZNK6google8protobuf8internal33RandomAccessRepeatedFieldAccessor16GetIteratorValueEPKvS4_Pv"
    },
    {
     "mangled_component_name":"_ZNK6google8protobuf8internal30RepeatedFieldPrimitiveAccessorIiE10ConvertToTEPKv"
    },
    {
     "mangled_component_name":"_ZNK6google8protobuf8internal30RepeatedFieldPrimitiveAccessorIiE12ConvertFromTERKiPv"
    }
   ],
   "unique_id":"_ZTSN6google8protobuf8internal30RepeatedFieldPrimitiveAccessorIiEE"
  },
  {
   "vtable_components":[
    {
     "kind":"offset_to_top"
    },
    {
     "kind":"rtti",
     "mangled_component_name":"_ZTIN6google8protobuf8internal30RepeatedFieldPrimitiveAccessorIjEE"
    },
    {
     "kind":"complete_dtor_pointer",
     "mangled_component_name":"_ZN6google8protobuf8internal30RepeatedFieldPrimitiveAccessorIjED1Ev"
    },
    {
     "kind":"deleting_dtor_pointer",
     "mangled_component_name":"_ZN6google8protobuf8internal30RepeatedFieldPrimitiveAccessorIjED0Ev"
    },
    {
     "mangled_component_name":"_ZNK6google8protobuf8internal20RepeatedFieldWrapperIjE7IsEmptyEPKv"
    },
    {
     "mangled_component_name":"_ZNK6google8protobuf8internal20RepeatedFieldWrapperIjE4SizeEPKv"
    },
    {
     "mangled_component_name":"_ZNK6google8protobuf8internal20RepeatedFieldWrapperIjE3GetEPKviPv"
    },
    {
     "mangled_component_name":"_ZNK6google8protobuf8internal20RepeatedFieldWrapperIjE5ClearEPv"
    },
    {
     "mangled_component_name":"_ZNK6google8protobuf8internal20RepeatedFieldWrapperIjE3SetEPviPKv"
    },
    {
     "mangled_component_name":"_ZNK6google8protobuf8internal20RepeatedFieldWrapperIjE3AddEPvPKv"
    },
    {
     "mangled_component_name":"_ZNK6google8protobuf8internal20RepeatedFieldWrapperIjE10RemoveLastEPv"
    },
    {
     "mangled_component_name":"_ZNK6google8protobuf8internal20RepeatedFieldWrapperIjE12SwapElementsEPvii"
    },
    {
     "mangled_component_name":"_ZNK6google8protobuf8internal30RepeatedFieldPrimitiveAccessorIjE4SwapEPvPKNS1_21RepeatedFieldAccessorES4_"
    },
    {
     "mangled_component_name":"_ZNK6google8protobuf8internal33RandomAccessRepeatedFieldAccessor13BeginIteratorEPKv"
    },
    {
     "mangled_component_name":"_ZNK6google8protobuf8internal33RandomAccessRepeatedFieldAccessor11EndIteratorEPKv"
    },
    {
     "mangled_component_name":"_ZNK6google8protobuf8internal33RandomAccessRepeatedFieldAccessor12CopyIteratorEPKvS4_"
    },
    {
     "mangled_component_name":"_ZNK6google8protobuf8internal33RandomAccessRepeatedFieldAccessor15AdvanceIteratorEPKvPv"
    },
    {
     "mangled_component_name":"_ZNK6google8protobuf8internal33RandomAccessRepeatedFieldAccessor14EqualsIteratorEPKvS4_S4_"
    },
    {
     "mangled_component_name":"_ZNK6google8protobuf8internal33RandomAccessRepeatedFieldAccessor14DeleteIteratorEPKvPv"
    },
    {
     "mangled_component_name":"_ZNK6google8protobuf8internal33RandomAccessRepeatedFieldAccessor16GetIteratorValueEPKvS4_Pv"
    },
    {
     "mangled_component_name":"_ZNK6google8protobuf8internal30RepeatedFieldPrimitiveAccessorIjE10ConvertToTEPKv"
    },
    {
     "mangled_component_name":"_ZNK6google8protobuf8internal30RepeatedFieldPrimitiveAccessorIjE12ConvertFromTERKjPv"
    }
   ],
   "unique_id":"_ZTSN6google8protobuf8internal30RepeatedFieldPrimitiveAccessorIjEE"
  },
  {
   "vtable_components":[
    {
     "kind":"offset_to_top"
    },
    {
     "kind":"rtti",
     "mangled_component_name":"_ZTIN6google8protobuf8internal30RepeatedFieldPrimitiveAccessorIxEE"
    },
    {
     "kind":"complete_dtor_pointer",
     "mangled_component_name":"_ZN6google8protobuf8internal30RepeatedFieldPrimitiveAccessorIxED1Ev"
    },
    {
     "kind":"deleting_dtor_pointer",
     "mangled_component_name":"_ZN6google8protobuf8internal30RepeatedFieldPrimitiveAccessorIxED0Ev"
    },
    {
     "mangled_component_name":"_ZNK6google8protobuf8internal20RepeatedFieldWrapperIxE7IsEmptyEPKv"
    },
    {
     "mangled_component_name":"_ZNK6google8protobuf8internal20RepeatedFieldWrapperIxE4SizeEPKv"
    },
    {
     "mangled_component_name":"_ZNK6google8protobuf8internal20RepeatedFieldWrapperIxE3GetEPKviPv"
    },
    {
     "mangled_component_name":"_ZNK6google8protobuf8internal20RepeatedFieldWrapperIxE5ClearEPv"
    },
    {
     "mangled_component_name":"_ZNK6google8protobuf8internal20RepeatedFieldWrapperIxE3SetEPviPKv"
    },
    {
     "mangled_component_name":"_ZNK6google8protobuf8internal20RepeatedFieldWrapperIxE3AddEPvPKv"
    },
    {
     "mangled_component_name":"_ZNK6google8protobuf8internal20RepeatedFieldWrapperIxE10RemoveLastEPv"
    },
    {
     "mangled_component_name":"_ZNK6google8protobuf8internal20RepeatedFieldWrapperIxE12SwapElementsEPvii"
    },
    {
     "mangled_component_name":"_ZNK6google8protobuf8internal30RepeatedFieldPrimitiveAccessorIxE4SwapEPvPKNS1_21RepeatedFieldAccessorES4_"
    },
    {
     "mangled_component_name":"_ZNK6google8protobuf8internal33RandomAccessRepeatedFieldAccessor13BeginIteratorEPKv"
    },
    {
     "mangled_component_name":"_ZNK6google8protobuf8internal33RandomAccessRepeatedFieldAccessor11EndIteratorEPKv"
    },
    {
     "mangled_component_name":"_ZNK6google8protobuf8internal33RandomAccessRepeatedFieldAccessor12CopyIteratorEPKvS4_"
    },
    {
     "mangled_component_name":"_ZNK6google8protobuf8internal33RandomAccessRepeatedFieldAccessor15AdvanceIteratorEPKvPv"
    },
    {
     "mangled_component_name":"_ZNK6google8protobuf8internal33RandomAccessRepeatedFieldAccessor14EqualsIteratorEPKvS4_S4_"
    },
    {
     "mangled_component_name":"_ZNK6google8protobuf8internal33RandomAccessRepeatedFieldAccessor14DeleteIteratorEPKvPv"
    },
    {
     "mangled_component_name":"_ZNK6google8protobuf8internal33RandomAccessRepeatedFieldAccessor16GetIteratorValueEPKvS4_Pv"
    },
    {
     "mangled_component_name":"_ZNK6google8protobuf8internal30RepeatedFieldPrimitiveAccessorIxE10ConvertToTEPKv"
    },
    {
     "mangled_component_name":"_ZNK6google8protobuf8internal30RepeatedFieldPrimitiveAccessorIxE12ConvertFromTERKxPv"
    }
   ],
   "unique_id":"_ZTSN6google8protobuf8internal30RepeatedFieldPrimitiveAccessorIxEE"
  },
  {
   "vtable_components":[
    {
     "kind":"offset_to_top"
    },
    {
     "kind":"rtti",
     "mangled_component_name":"_ZTIN6google8protobuf8internal30RepeatedFieldPrimitiveAccessorIyEE"
    },
    {
     "kind":"complete_dtor_pointer",
     "mangled_component_name":"_ZN6google8protobuf8internal30RepeatedFieldPrimitiveAccessorIyED1Ev"
    },
    {
     "kind":"deleting_dtor_pointer",
     "mangled_component_name":"_ZN6google8protobuf8internal30RepeatedFieldPrimitiveAccessorIyED0Ev"
    },
    {
     "mangled_component_name":"_ZNK6google8protobuf8internal20RepeatedFieldWrapperIyE7IsEmptyEPKv"
    },
    {
     "mangled_component_name":"_ZNK6google8protobuf8internal20RepeatedFieldWrapperIyE4SizeEPKv"
    },
    {
     "mangled_component_name":"_ZNK6google8protobuf8internal20RepeatedFieldWrapperIyE3GetEPKviPv"
    },
    {
     "mangled_component_name":"_ZNK6google8protobuf8internal20RepeatedFieldWrapperIyE5ClearEPv"
    },
    {
     "mangled_component_name":"_ZNK6google8protobuf8internal20RepeatedFieldWrapperIyE3SetEPviPKv"
    },
    {
     "mangled_component_name":"_ZNK6google8protobuf8internal20RepeatedFieldWrapperIyE3AddEPvPKv"
    },
    {
     "mangled_component_name":"_ZNK6google8protobuf8internal20RepeatedFieldWrapperIyE10RemoveLastEPv"
    },
    {
     "mangled_component_name":"_ZNK6google8protobuf8internal20RepeatedFieldWrapperIyE12SwapElementsEPvii"
    },
    {
     "mangled_component_name":"_ZNK6google8protobuf8internal30RepeatedFieldPrimitiveAccessorIyE4SwapEPvPKNS1_21RepeatedFieldAccessorES4_"
    },
    {
     "mangled_component_name":"_ZNK6google8protobuf8internal33RandomAccessRepeatedFieldAccessor13BeginIteratorEPKv"
    },
    {
     "mangled_component_name":"_ZNK6google8protobuf8internal33RandomAccessRepeatedFieldAccessor11EndIteratorEPKv"
    },
    {
     "mangled_component_name":"_ZNK6google8protobuf8internal33RandomAccessRepeatedFieldAccessor12CopyIteratorEPKvS4_"
    },
    {
     "mangled_component_name":"_ZNK6google8protobuf8internal33RandomAccessRepeatedFieldAccessor15AdvanceIteratorEPKvPv"
    },
    {
     "mangled_component_name":"_ZNK6google8protobuf8internal33RandomAccessRepeatedFieldAccessor14EqualsIteratorEPKvS4_S4_"
    },
    {
     "mangled_component_name":"_ZNK6google8protobuf8internal33RandomAccessRepeatedFieldAccessor14DeleteIteratorEPKvPv"
    },
    {
     "mangled_component_name":"_ZNK6google8protobuf8internal33RandomAccessRepeatedFieldAccessor16GetIteratorValueEPKvS4_Pv"
    },
    {
     "mangled_component_name":"_ZNK6google8protobuf8internal30RepeatedFieldPrimitiveAccessorIyE10ConvertToTEPKv"
    },
    {
     "mangled_component_name":"_ZNK6google8protobuf8internal30RepeatedFieldPrimitiveAccessorIyE12ConvertFromTERKyPv"
    }
   ],
   "unique_id":"_ZTSN6google8protobuf8internal30RepeatedFieldPrimitiveAccessorIyEE"
  },
  {
   "vtable_components":[
    {
     "kind":"offset_to_top"
    },
    {
     "kind":"rtti",
     "mangled_component_name":"_ZTIN6google8protobuf8internal30RepeatedFieldPrimitiveAccessorIfEE"
    },
    {
     "kind":"complete_dtor_pointer",
     "mangled_component_name":"_ZN6google8protobuf8internal30RepeatedFieldPrimitiveAccessorIfED1Ev"
    },
    {
     "kind":"deleting_dtor_pointer",
     "mangled_component_name":"_ZN6google8protobuf8internal30RepeatedFieldPrimitiveAccessorIfED0Ev"
    },
    {
     "mangled_component_name":"_ZNK6google8protobuf8internal20RepeatedFieldWrapperIfE7IsEmptyEPKv"
    },
    {
     "mangled_component_name":"_ZNK6google8protobuf8internal20RepeatedFieldWrapperIfE4SizeEPKv"
    },
    {
     "mangled_component_name":"_ZNK6google8protobuf8internal20RepeatedFieldWrapperIfE3GetEPKviPv"
    },
    {
     "mangled_component_name":"_ZNK6google8protobuf8internal20RepeatedFieldWrapperIfE5ClearEPv"
    },
    {
     "mangled_component_name":"_ZNK6google8protobuf8internal20RepeatedFieldWrapperIfE3SetEPviPKv"
    },
    {
     "mangled_component_name":"_ZNK6google8protobuf8internal20RepeatedFieldWrapperIfE3AddEPvPKv"
    },
    {
     "mangled_component_name":"_ZNK6google8protobuf8internal20RepeatedFieldWrapperIfE10RemoveLastEPv"
    },
    {
     "mangled_component_name":"_ZNK6google8protobuf8internal20RepeatedFieldWrapperIfE12SwapElementsEPvii"
    },
    {
     "mangled_component_name":"_ZNK6google8protobuf8internal30RepeatedFieldPrimitiveAccessorIfE4SwapEPvPKNS1_21RepeatedFieldAccessorES4_"
    },
    {
     "mangled_component_name":"_ZNK6google8protobuf8internal33RandomAccessRepeatedFieldAccessor13BeginIteratorEPKv"
    },
    {
     "mangled_component_name":"_ZNK6google8protobuf8internal33RandomAccessRepeatedFieldAccessor11EndIteratorEPKv"
    },
    {
     "mangled_component_name":"_ZNK6google8protobuf8internal33RandomAccessRepeatedFieldAccessor12CopyIteratorEPKvS4_"
    },
    {
     "mangled_component_name":"_ZNK6google8protobuf8internal33RandomAccessRepeatedFieldAccessor15AdvanceIteratorEPKvPv"
    },
    {
     "mangled_component_name":"_ZNK6google8protobuf8internal33RandomAccessRepeatedFieldAccessor14EqualsIteratorEPKvS4_S4_"
    },
    {
     "mangled_component_name":"_ZNK6google8protobuf8internal33RandomAccessRepeatedFieldAccessor14DeleteIteratorEPKvPv"
    },
    {
     "mangled_component_name":"_ZNK6google8protobuf8internal33RandomAccessRepeatedFieldAccessor16GetIteratorValueEPKvS4_Pv"
    },
    {
     "mangled_component_name":"_ZNK6google8protobuf8internal30RepeatedFieldPrimitiveAccessorIfE10ConvertToTEPKv"
    },
    {
     "mangled_component_name":"_ZNK6google8protobuf8internal30RepeatedFieldPrimitiveAccessorIfE12ConvertFromTERKfPv"
    }
   ],
   "unique_id":"_ZTSN6google8protobuf8internal30RepeatedFieldPrimitiveAccessorIfEE"
  },
  {
   "vtable_components":[
    {
     "kind":"offset_to_top"
    },
    {
     "kind":"rtti",
     "mangled_component_name":"_ZTIN6google8protobuf8internal30RepeatedFieldPrimitiveAccessorIdEE"
    },
    {
     "kind":"complete_dtor_pointer",
     "mangled_component_name":"_ZN6google8protobuf8internal30RepeatedFieldPrimitiveAccessorIdED1Ev"
    },
    {
     "kind":"deleting_dtor_pointer",
     "mangled_component_name":"_ZN6google8protobuf8internal30RepeatedFieldPrimitiveAccessorIdED0Ev"
    },
    {
     "mangled_component_name":"_ZNK6google8protobuf8internal20RepeatedFieldWrapperIdE7IsEmptyEPKv"
    },
    {
     "mangled_component_name":"_ZNK6google8protobuf8internal20RepeatedFieldWrapperIdE4SizeEPKv"
    },
    {
     "mangled_component_name":"_ZNK6google8protobuf8internal20RepeatedFieldWrapperIdE3GetEPKviPv"
    },
    {
     "mangled_component_name":"_ZNK6google8protobuf8internal20RepeatedFieldWrapperIdE5ClearEPv"
    },
    {
     "mangled_component_name":"_ZNK6google8protobuf8internal20RepeatedFieldWrapperIdE3SetEPviPKv"
    },
    {
     "mangled_component_name":"_ZNK6google8protobuf8internal20RepeatedFieldWrapperIdE3AddEPvPKv"
    },
    {
     "mangled_component_name":"_ZNK6google8protobuf8internal20RepeatedFieldWrapperIdE10RemoveLastEPv"
    },
    {
     "mangled_component_name":"_ZNK6google8protobuf8internal20RepeatedFieldWrapperIdE12SwapElementsEPvii"
    },
    {
     "mangled_component_name":"_ZNK6google8protobuf8internal30RepeatedFieldPrimitiveAccessorIdE4SwapEPvPKNS1_21RepeatedFieldAccessorES4_"
    },
    {
     "mangled_component_name":"_ZNK6google8protobuf8internal33RandomAccessRepeatedFieldAccessor13BeginIteratorEPKv"
    },
    {
     "mangled_component_name":"_ZNK6google8protobuf8internal33RandomAccessRepeatedFieldAccessor11EndIteratorEPKv"
    },
    {
     "mangled_component_name":"_ZNK6google8protobuf8internal33RandomAccessRepeatedFieldAccessor12CopyIteratorEPKvS4_"
    },
    {
     "mangled_component_name":"_ZNK6google8protobuf8internal33RandomAccessRepeatedFieldAccessor15AdvanceIteratorEPKvPv"
    },
    {
     "mangled_component_name":"_ZNK6google8protobuf8internal33RandomAccessRepeatedFieldAccessor14EqualsIteratorEPKvS4_S4_"
    },
    {
     "mangled_component_name":"_ZNK6google8protobuf8internal33RandomAccessRepeatedFieldAccessor14DeleteIteratorEPKvPv"
    },
    {
     "mangled_component_name":"_ZNK6google8protobuf8internal33RandomAccessRepeatedFieldAccessor16GetIteratorValueEPKvS4_Pv"
    },
    {
     "mangled_component_name":"_ZNK6google8protobuf8internal30RepeatedFieldPrimitiveAccessorIdE10ConvertToTEPKv"
    },
    {
     "mangled_component_name":"_ZNK6google8protobuf8internal30RepeatedFieldPrimitiveAccessorIdE12ConvertFromTERKdPv"
    }
   ],
   "unique_id":"_ZTSN6google8protobuf8internal30RepeatedFieldPrimitiveAccessorIdEE"
  },
  {
   "vtable_components":[
    {
     "kind":"offset_to_top"
    },
    {
     "kind":"rtti",
     "mangled_component_name":"_ZTIN6google8protobuf8internal30RepeatedFieldPrimitiveAccessorIbEE"
    },
    {
     "kind":"complete_dtor_pointer",
     "mangled_component_name":"_ZN6google8protobuf8internal30RepeatedFieldPrimitiveAccessorIbED1Ev"
    },
    {
     "kind":"deleting_dtor_pointer",
     "mangled_component_name":"_ZN6google8protobuf8internal30RepeatedFieldPrimitiveAccessorIbED0Ev"
    },
    {
     "mangled_component_name":"_ZNK6google8protobuf8internal20RepeatedFieldWrapperIbE7IsEmptyEPKv"
    },
    {
     "mangled_component_name":"_ZNK6google8protobuf8internal20RepeatedFieldWrapperIbE4SizeEPKv"
    },
    {
     "mangled_component_name":"_ZNK6google8protobuf8internal20RepeatedFieldWrapperIbE3GetEPKviPv"
    },
    {
     "mangled_component_name":"_ZNK6google8protobuf8internal20RepeatedFieldWrapperIbE5ClearEPv"
    },
    {
     "mangled_component_name":"_ZNK6google8protobuf8internal20RepeatedFieldWrapperIbE3SetEPviPKv"
    },
    {
     "mangled_component_name":"_ZNK6google8protobuf8internal20RepeatedFieldWrapperIbE3AddEPvPKv"
    },
    {
     "mangled_component_name":"_ZNK6google8protobuf8internal20RepeatedFieldWrapperIbE10RemoveLastEPv"
    },
    {
     "mangled_component_name":"_ZNK6google8protobuf8internal20RepeatedFieldWrapperIbE12SwapElementsEPvii"
    },
    {
     "mangled_component_name":"_ZNK6google8protobuf8internal30RepeatedFieldPrimitiveAccessorIbE4SwapEPvPKNS1_21RepeatedFieldAccessorES4_"
    },
    {
     "mangled_component_name":"_ZNK6google8protobuf8internal33RandomAccessRepeatedFieldAccessor13BeginIteratorEPKv"
    },
    {
     "mangled_component_name":"_ZNK6google8protobuf8internal33RandomAccessRepeatedFieldAccessor11EndIteratorEPKv"
    },
    {
     "mangled_component_name":"_ZNK6google8protobuf8internal33RandomAccessRepeatedFieldAccessor12CopyIteratorEPKvS4_"
    },
    {
     "mangled_component_name":"_ZNK6google8protobuf8internal33RandomAccessRepeatedFieldAccessor15AdvanceIteratorEPKvPv"
    },
    {
     "mangled_component_name":"_ZNK6google8protobuf8internal33RandomAccessRepeatedFieldAccessor14EqualsIteratorEPKvS4_S4_"
    },
    {
     "mangled_component_name":"_ZNK6google8protobuf8internal33RandomAccessRepeatedFieldAccessor14DeleteIteratorEPKvPv"
    },
    {
     "mangled_component_name":"_ZNK6google8protobuf8internal33RandomAccessRepeatedFieldAccessor16GetIteratorValueEPKvS4_Pv"
    },
    {
     "mangled_component_name":"_ZNK6google8protobuf8internal30RepeatedFieldPrimitiveAccessorIbE10ConvertToTEPKv"
    },
    {
     "mangled_component_name":"_ZNK6google8protobuf8internal30RepeatedFieldPrimitiveAccessorIbE12ConvertFromTERKbPv"
    }
   ],
   "unique_id":"_ZTSN6google8protobuf8internal30RepeatedFieldPrimitiveAccessorIbEE"
  },
  {
   "vtable_components":[
    {
     "kind":"offset_to_top"
    },
    {
     "kind":"rtti",
     "mangled_component_name":"_ZTIN6google8protobuf8internal30RepeatedPtrFieldStringAccessorE"
    },
    {
     "kind":"complete_dtor_pointer",
     "mangled_component_name":"_ZN6google8protobuf8internal30RepeatedPtrFieldStringAccessorD1Ev"
    },
    {
     "kind":"deleting_dtor_pointer",
     "mangled_component_name":"_ZN6google8protobuf8internal30RepeatedPtrFieldStringAccessorD0Ev"
    },
    {
     "mangled_component_name":"_ZNK6google8protobuf8internal23RepeatedPtrFieldWrapperINSt3__112basic_stringIcNS3_11char_traitsIcEENS3_9allocatorIcEEEEE7IsEmptyEPKv"
    },
    {
     "mangled_component_name":"_ZNK6google8protobuf8internal23RepeatedPtrFieldWrapperINSt3__112basic_stringIcNS3_11char_traitsIcEENS3_9allocatorIcEEEEE4SizeEPKv"
    },
    {
     "mangled_component_name":"_ZNK6google8protobuf8internal23RepeatedPtrFieldWrapperINSt3__112basic_stringIcNS3_11char_traitsIcEENS3_9allocatorIcEEEEE3GetEPKviPv"
    },
    {
     "mangled_component_name":"_ZNK6google8protobuf8internal23RepeatedPtrFieldWrapperINSt3__112basic_stringIcNS3_11char_traitsIcEENS3_9allocatorIcEEEEE5ClearEPv"
    },
    {
     "mangled_component_name":"_ZNK6google8protobuf8internal23RepeatedPtrFieldWrapperINSt3__112basic_stringIcNS3_11char_traitsIcEENS3_9allocatorIcEEEEE3SetEPviPKv"
    },
    {
     "mangled_component_name":"_ZNK6google8protobuf8internal23RepeatedPtrFieldWrapperINSt3__112basic_stringIcNS3_11char_traitsIcEENS3_9allocatorIcEEEEE3AddEPvPKv"
    },
    {
     "mangled_component_name":"_ZNK6google8protobuf8internal23RepeatedPtrFieldWrapperINSt3__112basic_stringIcNS3_11char_traitsIcEENS3_9allocatorIcEEEEE10RemoveLastEPv"
    },
    {
     "mangled_component_name":"_ZNK6google8protobuf8internal23RepeatedPtrFieldWrapperINSt3__112basic_stringIcNS3_11char_traitsIcEENS3_9allocatorIcEEEEE12SwapElementsEPvii"
    },
    {
     "mangled_component_name":"_ZNK6google8protobuf8internal30RepeatedPtrFieldStringAccessor4SwapEPvPKNS1_21RepeatedFieldAccessorES3_"
    },
    {
     "mangled_component_name":"_ZNK6google8protobuf8internal33RandomAccessRepeatedFieldAccessor13BeginIteratorEPKv"
    },
    {
     "mangled_component_name":"_ZNK6google8protobuf8internal33RandomAccessRepeatedFieldAccessor11EndIteratorEPKv"
    },
    {
     "mangled_component_name":"_ZNK6google8protobuf8internal33RandomAccessRepeatedFieldAccessor12CopyIteratorEPKvS4_"
    },
    {
     "mangled_component_name":"_ZNK6google8protobuf8internal33RandomAccessRepeatedFieldAccessor15AdvanceIteratorEPKvPv"
    },
    {
     "mangled_component_name":"_ZNK6google8protobuf8internal33RandomAccessRepeatedFieldAccessor14EqualsIteratorEPKvS4_S4_"
    },
    {
     "mangled_component_name":"_ZNK6google8protobuf8internal33RandomAccessRepeatedFieldAccessor14DeleteIteratorEPKvPv"
    },
    {
     "mangled_component_name":"_ZNK6google8protobuf8internal33RandomAccessRepeatedFieldAccessor16GetIteratorValueEPKvS4_Pv"
    },
    {
     "mangled_component_name":"_ZNK6google8protobuf8internal30RepeatedPtrFieldStringAccessor3NewEPKv"
    },
    {
     "mangled_component_name":"_ZNK6google8protobuf8internal30RepeatedPtrFieldStringAccessor10ConvertToTEPKvPNSt3__112basic_stringIcNS5_11char_traitsIcEENS5_9allocatorIcEEEE"
    },
    {
     "mangled_component_name":"_ZNK6google8protobuf8internal30RepeatedPtrFieldStringAccessor12ConvertFromTERKNSt3__112basic_stringIcNS3_11char_traitsIcEENS3_9allocatorIcEEEEPv"
    }
   ],
   "unique_id":"_ZTSN6google8protobuf8internal30RepeatedPtrFieldStringAccessorE"
  },
  {
   "vtable_components":[
    {
     "kind":"offset_to_top"
    },
    {
     "kind":"rtti",
     "mangled_component_name":"_ZTIN6google8protobuf8internal31RepeatedPtrFieldMessageAccessorE"
    },
    {
     "kind":"complete_dtor_pointer",
     "mangled_component_name":"_ZN6google8protobuf8internal31RepeatedPtrFieldMessageAccessorD1Ev"
    },
    {
     "kind":"deleting_dtor_pointer",
     "mangled_component_name":"_ZN6google8protobuf8internal31RepeatedPtrFieldMessageAccessorD0Ev"
    },
    {
     "mangled_component_name":"_ZNK6google8protobuf8internal23RepeatedPtrFieldWrapperINS0_7MessageEE7IsEmptyEPKv"
    },
    {
     "mangled_component_name":"_ZNK6google8protobuf8internal23RepeatedPtrFieldWrapperINS0_7MessageEE4SizeEPKv"
    },
    {
     "mangled_component_name":"_ZNK6google8protobuf8internal23RepeatedPtrFieldWrapperINS0_7MessageEE3GetEPKviPv"
    },
    {
     "mangled_component_name":"_ZNK6google8protobuf8internal23RepeatedPtrFieldWrapperINS0_7MessageEE5ClearEPv"
    },
    {
     "mangled_component_name":"_ZNK6google8protobuf8internal23RepeatedPtrFieldWrapperINS0_7MessageEE3SetEPviPKv"
    },
    {
     "mangled_component_name":"_ZNK6google8protobuf8internal23RepeatedPtrFieldWrapperINS0_7MessageEE3AddEPvPKv"
    },
    {
     "mangled_component_name":"_ZNK6google8protobuf8internal23RepeatedPtrFieldWrapperINS0_7MessageEE10RemoveLastEPv"
    },
    {
     "mangled_component_name":"_ZNK6google8protobuf8internal23RepeatedPtrFieldWrapperINS0_7MessageEE12SwapElementsEPvii"
    },
    {
     "mangled_component_name":"_ZNK6google8protobuf8internal31RepeatedPtrFieldMessageAccessor4SwapEPvPKNS1_21RepeatedFieldAccessorES3_"
    },
    {
     "mangled_component_name":"_ZNK6google8protobuf8internal33RandomAccessRepeatedFieldAccessor13BeginIteratorEPKv"
    },
    {
     "mangled_component_name":"_ZNK6google8protobuf8internal33RandomAccessRepeatedFieldAccessor11EndIteratorEPKv"
    },
    {
     "mangled_component_name":"_ZNK6google8protobuf8internal33RandomAccessRepeatedFieldAccessor12CopyIteratorEPKvS4_"
    },
    {
     "mangled_component_name":"_ZNK6google8protobuf8internal33RandomAccessRepeatedFieldAccessor15AdvanceIteratorEPKvPv"
    },
    {
     "mangled_component_name":"_ZNK6google8protobuf8internal33RandomAccessRepeatedFieldAccessor14EqualsIteratorEPKvS4_S4_"
    },
    {
     "mangled_component_name":"_ZNK6google8protobuf8internal33RandomAccessRepeatedFieldAccessor14DeleteIteratorEPKvPv"
    },
    {
     "mangled_component_name":"_ZNK6google8protobuf8internal33RandomAccessRepeatedFieldAccessor16GetIteratorValueEPKvS4_Pv"
    },
    {
     "mangled_component_name":"_ZNK6google8protobuf8internal31RepeatedPtrFieldMessageAccessor3NewEPKv"
    },
    {
     "mangled_component_name":"_ZNK6google8protobuf8internal31RepeatedPtrFieldMessageAccessor10ConvertToTEPKvPNS0_7MessageE"
    },
    {
     "mangled_component_name":"_ZNK6google8protobuf8internal31RepeatedPtrFieldMessageAccessor12ConvertFromTERKNS0_7MessageEPv"
    }
   ],
   "unique_id":"_ZTSN6google8protobuf8internal31RepeatedPtrFieldMessageAccessorE"
  },
  {
   "vtable_components":[
    {
     "kind":"offset_to_top"
    },
    {
     "kind":"rtti",
     "mangled_component_name":"_ZTIN6google8protobuf7ServiceE"
    },
    {
     "kind":"complete_dtor_pointer",
     "mangled_component_name":"_ZN6google8protobuf7ServiceD1Ev"
    },
    {
     "kind":"deleting_dtor_pointer",
     "mangled_component_name":"_ZN6google8protobuf7ServiceD0Ev"
    },
    {
     "is_pure":true,
     "mangled_component_name":"_ZN6google8protobuf7Service13GetDescriptorEv"
    },
    {
     "is_pure":true,
     "mangled_component_name":"_ZN6google8protobuf7Service10CallMethodEPKNS0_16MethodDescriptorEPNS0_13RpcControllerEPKNS0_7MessageEPS7_PNS0_7ClosureE"
    },
    {
     "is_pure":true,
     "mangled_component_name":"_ZNK6google8protobuf7Service19GetRequestPrototypeEPKNS0_16MethodDescriptorE"
    },
    {
     "is_pure":true,
     "mangled_component_name":"_ZNK6google8protobuf7Service20GetResponsePrototypeEPKNS0_16MethodDescriptorE"
    }
   ],
   "unique_id":"_ZTSN6google8protobuf7ServiceE"
  },
  {
   "vtable_components":[
    {
     "kind":"offset_to_top"
    },
    {
     "kind":"rtti",
     "mangled_component_name":"_ZTIN6google8protobuf13RpcControllerE"
    },
    {
     "kind":"complete_dtor_pointer",
     "mangled_component_name":"_ZN6google8protobuf13RpcControllerD1Ev"
    },
    {
     "kind":"deleting_dtor_pointer",
     "mangled_component_name":"_ZN6google8protobuf13RpcControllerD0Ev"
    },
    {
     "is_pure":true,
     "mangled_component_name":"_ZN6google8protobuf13RpcController5ResetEv"
    },
    {
     "is_pure":true,
     "mangled_component_name":"_ZNK6google8protobuf13RpcController6FailedEv"
    },
    {
     "is_pure":true,
     "mangled_component_name":"_ZNK6google8protobuf13RpcController9ErrorTextEv"
    },
    {
     "is_pure":true,
     "mangled_component_name":"_ZN6google8protobuf13RpcController11StartCancelEv"
    },
    {
     "is_pure":true,
     "mangled_component_name":"_ZN6google8protobuf13RpcController9SetFailedERKNSt3__112basic_stringIcNS2_11char_traitsIcEENS2_9allocatorIcEEEE"
    },
    {
     "is_pure":true,
     "mangled_component_name":"_ZNK6google8protobuf13RpcController10IsCanceledEv"
    },
    {
     "is_pure":true,
     "mangled_component_name":"_ZN6google8protobuf13RpcController14NotifyOnCancelEPNS0_7ClosureE"
    }
   ],
   "unique_id":"_ZTSN6google8protobuf13RpcControllerE"
  },
  {
   "vtable_components":[
    {
     "kind":"offset_to_top"
    },
    {
     "kind":"rtti",
     "mangled_component_name":"_ZTIN6google8protobuf10RpcChannelE"
    },
    {
     "kind":"complete_dtor_pointer",
     "mangled_component_name":"_ZN6google8protobuf10RpcChannelD1Ev"
    },
    {
     "kind":"deleting_dtor_pointer",
     "mangled_component_name":"_ZN6google8protobuf10RpcChannelD0Ev"
    },
    {
     "is_pure":true,
     "mangled_component_name":"_ZN6google8protobuf10RpcChannel10CallMethodEPKNS0_16MethodDescriptorEPNS0_13RpcControllerEPKNS0_7MessageEPS7_PNS0_7ClosureE"
    }
   ],
   "unique_id":"_ZTSN6google8protobuf10RpcChannelE"
  },
  {
   "vtable_components":[
    {
     "kind":"offset_to_top"
    },
    {
     "kind":"rtti",
     "mangled_component_name":"_ZTIN6google8protobuf2io20ZeroCopyOutputStreamE"
    },
    {
     "kind":"complete_dtor_pointer",
     "mangled_component_name":"_ZN6google8protobuf2io20ZeroCopyOutputStreamD1Ev"
    },
    {
     "kind":"deleting_dtor_pointer",
     "mangled_component_name":"_ZN6google8protobuf2io20ZeroCopyOutputStreamD0Ev"
    },
    {
     "is_pure":true,
     "mangled_component_name":"_ZN6google8protobuf2io20ZeroCopyOutputStream4NextEPPvPi"
    },
    {
     "is_pure":true,
     "mangled_component_name":"_ZN6google8protobuf2io20ZeroCopyOutputStream6BackUpEi"
    },
    {
     "is_pure":true,
     "mangled_component_name":"_ZNK6google8protobuf2io20ZeroCopyOutputStream9ByteCountEv"
    },
    {
     "mangled_component_name":"_ZN6google8protobuf2io20ZeroCopyOutputStream15WriteAliasedRawEPKvi"
    },
    {
     "mangled_component_name":"_ZNK6google8protobuf2io20ZeroCopyOutputStream14AllowsAliasingEv"
    }
   ],
   "unique_id":"_ZTSN6google8protobuf2io20ZeroCopyOutputStreamE"
  },
  {
   "vtable_components":[
    {
     "kind":"offset_to_top"
    },
    {
     "kind":"rtti",
     "mangled_component_name":"_ZTIN6google8protobuf2io16ArrayInputStreamE"
    },
    {
     "kind":"complete_dtor_pointer",
     "mangled_component_name":"_ZN6google8protobuf2io16ArrayInputStreamD1Ev"
    },
    {
     "kind":"deleting_dtor_pointer",
     "mangled_component_name":"_ZN6google8protobuf2io16ArrayInputStreamD0Ev"
    },
    {
     "mangled_component_name":"_ZN6google8protobuf2io16ArrayInputStream4NextEPPKvPi"
    },
    {
     "mangled_component_name":"_ZN6google8protobuf2io16ArrayInputStream6BackUpEi"
    },
    {
     "mangled_component_name":"_ZN6google8protobuf2io16ArrayInputStream4SkipEi"
    },
    {
     "mangled_component_name":"_ZNK6google8protobuf2io16ArrayInputStream9ByteCountEv"
    }
   ],
   "unique_id":"_ZTSN6google8protobuf2io16ArrayInputStreamE"
  },
  {
   "vtable_components":[
    {
     "kind":"offset_to_top"
    },
    {
     "kind":"rtti",
     "mangled_component_name":"_ZTIN6google8protobuf2io19ZeroCopyInputStreamE"
    },
    {
     "kind":"complete_dtor_pointer",
     "mangled_component_name":"_ZN6google8protobuf2io19ZeroCopyInputStreamD1Ev"
    },
    {
     "kind":"deleting_dtor_pointer",
     "mangled_component_name":"_ZN6google8protobuf2io19ZeroCopyInputStreamD0Ev"
    },
    {
     "is_pure":true,
     "mangled_component_name":"_ZN6google8protobuf2io19ZeroCopyInputStream4NextEPPKvPi"
    },
    {
     "is_pure":true,
     "mangled_component_name":"_ZN6google8protobuf2io19ZeroCopyInputStream6BackUpEi"
    },
    {
     "is_pure":true,
     "mangled_component_name":"_ZN6google8protobuf2io19ZeroCopyInputStream4SkipEi"
    },
    {
     "is_pure":true,
     "mangled_component_name":"_ZNK6google8protobuf2io19ZeroCopyInputStream9ByteCountEv"
    }
   ],
   "unique_id":"_ZTSN6google8protobuf2io19ZeroCopyInputStreamE"
  },
  {
   "vtable_components":[
    {
     "kind":"offset_to_top"
    },
    {
     "kind":"rtti",
     "mangled_component_name":"_ZTIN6google8protobuf2io17ArrayOutputStreamE"
    },
    {
     "kind":"complete_dtor_pointer",
     "mangled_component_name":"_ZN6google8protobuf2io17ArrayOutputStreamD1Ev"
    },
    {
     "kind":"deleting_dtor_pointer",
     "mangled_component_name":"_ZN6google8protobuf2io17ArrayOutputStreamD0Ev"
    },
    {
     "mangled_component_name":"_ZN6google8protobuf2io17ArrayOutputStream4NextEPPvPi"
    },
    {
     "mangled_component_name":"_ZN6google8protobuf2io17ArrayOutputStream6BackUpEi"
    },
    {
     "mangled_component_name":"_ZNK6google8protobuf2io17ArrayOutputStream9ByteCountEv"
    },
    {
     "mangled_component_name":"_ZN6google8protobuf2io20ZeroCopyOutputStream15WriteAliasedRawEPKvi"
    },
    {
     "mangled_component_name":"_ZNK6google8protobuf2io20ZeroCopyOutputStream14AllowsAliasingEv"
    }
   ],
   "unique_id":"_ZTSN6google8protobuf2io17ArrayOutputStreamE"
  },
  {
   "vtable_components":[
    {
     "kind":"offset_to_top"
    },
    {
     "kind":"rtti",
     "mangled_component_name":"_ZTIN6google8protobuf2io18StringOutputStreamE"
    },
    {
     "kind":"complete_dtor_pointer",
     "mangled_component_name":"_ZN6google8protobuf2io18StringOutputStreamD1Ev"
    },
    {
     "kind":"deleting_dtor_pointer",
     "mangled_component_name":"_ZN6google8protobuf2io18StringOutputStreamD0Ev"
    },
    {
     "mangled_component_name":"_ZN6google8protobuf2io18StringOutputStream4NextEPPvPi"
    },
    {
     "mangled_component_name":"_ZN6google8protobuf2io18StringOutputStream6BackUpEi"
    },
    {
     "mangled_component_name":"_ZNK6google8protobuf2io18StringOutputStream9ByteCountEv"
    },
    {
     "mangled_component_name":"_ZN6google8protobuf2io20ZeroCopyOutputStream15WriteAliasedRawEPKvi"
    },
    {
     "mangled_component_name":"_ZNK6google8protobuf2io20ZeroCopyOutputStream14AllowsAliasingEv"
    }
   ],
   "unique_id":"_ZTSN6google8protobuf2io18StringOutputStreamE"
  },
  {
   "vtable_components":[
    {
     "kind":"offset_to_top"
    },
    {
     "kind":"rtti",
     "mangled_component_name":"_ZTIN6google8protobuf2io22LazyStringOutputStreamE"
    },
    {
     "kind":"complete_dtor_pointer",
     "mangled_component_name":"_ZN6google8protobuf2io22LazyStringOutputStreamD1Ev"
    },
    {
     "kind":"deleting_dtor_pointer",
     "mangled_component_name":"_ZN6google8protobuf2io22LazyStringOutputStreamD0Ev"
    },
    {
     "mangled_component_name":"_ZN6google8protobuf2io22LazyStringOutputStream4NextEPPvPi"
    },
    {
     "mangled_component_name":"_ZN6google8protobuf2io18StringOutputStream6BackUpEi"
    },
    {
     "mangled_component_name":"_ZNK6google8protobuf2io22LazyStringOutputStream9ByteCountEv"
    },
    {
     "mangled_component_name":"_ZN6google8protobuf2io20ZeroCopyOutputStream15WriteAliasedRawEPKvi"
    },
    {
     "mangled_component_name":"_ZNK6google8protobuf2io20ZeroCopyOutputStream14AllowsAliasingEv"
    }
   ],
   "unique_id":"_ZTSN6google8protobuf2io22LazyStringOutputStreamE"
  },
  {
   "vtable_components":[
    {
     "kind":"offset_to_top"
    },
    {
     "kind":"rtti",
     "mangled_component_name":"_ZTIN6google8protobuf2io18CopyingInputStreamE"
    },
    {
     "kind":"complete_dtor_pointer",
     "mangled_component_name":"_ZN6google8protobuf2io18CopyingInputStreamD1Ev"
    },
    {
     "kind":"deleting_dtor_pointer",
     "mangled_component_name":"_ZN6google8protobuf2io18CopyingInputStreamD0Ev"
    },
    {
     "is_pure":true,
     "mangled_component_name":"_ZN6google8protobuf2io18CopyingInputStream4ReadEPvi"
    },
    {
     "mangled_component_name":"_ZN6google8protobuf2io18CopyingInputStream4SkipEi"
    }
   ],
   "unique_id":"_ZTSN6google8protobuf2io18CopyingInputStreamE"
  },
  {
   "vtable_components":[
    {
     "kind":"offset_to_top"
    },
    {
     "kind":"rtti",
     "mangled_component_name":"_ZTIN6google8protobuf2io25CopyingInputStreamAdaptorE"
    },
    {
     "kind":"complete_dtor_pointer",
     "mangled_component_name":"_ZN6google8protobuf2io25CopyingInputStreamAdaptorD1Ev"
    },
    {
     "kind":"deleting_dtor_pointer",
     "mangled_component_name":"_ZN6google8protobuf2io25CopyingInputStreamAdaptorD0Ev"
    },
    {
     "mangled_component_name":"_ZN6google8protobuf2io25CopyingInputStreamAdaptor4NextEPPKvPi"
    },
    {
     "mangled_component_name":"_ZN6google8protobuf2io25CopyingInputStreamAdaptor6BackUpEi"
    },
    {
     "mangled_component_name":"_ZN6google8protobuf2io25CopyingInputStreamAdaptor4SkipEi"
    },
    {
     "mangled_component_name":"_ZNK6google8protobuf2io25CopyingInputStreamAdaptor9ByteCountEv"
    }
   ],
   "unique_id":"_ZTSN6google8protobuf2io25CopyingInputStreamAdaptorE"
  },
  {
   "vtable_components":[
    {
     "kind":"offset_to_top"
    },
    {
     "kind":"rtti",
     "mangled_component_name":"_ZTIN6google8protobuf2io19CopyingOutputStreamE"
    },
    {
     "kind":"complete_dtor_pointer",
     "mangled_component_name":"_ZN6google8protobuf2io19CopyingOutputStreamD1Ev"
    },
    {
     "kind":"deleting_dtor_pointer",
     "mangled_component_name":"_ZN6google8protobuf2io19CopyingOutputStreamD0Ev"
    },
    {
     "is_pure":true,
     "mangled_component_name":"_ZN6google8protobuf2io19CopyingOutputStream5WriteEPKvi"
    }
   ],
   "unique_id":"_ZTSN6google8protobuf2io19CopyingOutputStreamE"
  },
  {
   "vtable_components":[
    {
     "kind":"offset_to_top"
    },
    {
     "kind":"rtti",
     "mangled_component_name":"_ZTIN6google8protobuf2io26CopyingOutputStreamAdaptorE"
    },
    {
     "kind":"complete_dtor_pointer",
     "mangled_component_name":"_ZN6google8protobuf2io26CopyingOutputStreamAdaptorD1Ev"
    },
    {
     "kind":"deleting_dtor_pointer",
     "mangled_component_name":"_ZN6google8protobuf2io26CopyingOutputStreamAdaptorD0Ev"
    },
    {
     "mangled_component_name":"_ZN6google8protobuf2io26CopyingOutputStreamAdaptor4NextEPPvPi"
    },
    {
     "mangled_component_name":"_ZN6google8protobuf2io26CopyingOutputStreamAdaptor6BackUpEi"
    },
    {
     "mangled_component_name":"_ZNK6google8protobuf2io26CopyingOutputStreamAdaptor9ByteCountEv"
    },
    {
     "mangled_component_name":"_ZN6google8protobuf2io20ZeroCopyOutputStream15WriteAliasedRawEPKvi"
    },
    {
     "mangled_component_name":"_ZNK6google8protobuf2io20ZeroCopyOutputStream14AllowsAliasingEv"
    }
   ],
   "unique_id":"_ZTSN6google8protobuf2io26CopyingOutputStreamAdaptorE"
  },
  {
   "vtable_components":[
    {
     "kind":"offset_to_top"
    },
    {
     "kind":"rtti",
     "mangled_component_name":"_ZTIN6google8protobuf9TimestampE"
    },
    {
     "kind":"complete_dtor_pointer",
     "mangled_component_name":"_ZN6google8protobuf9TimestampD1Ev"
    },
    {
     "kind":"deleting_dtor_pointer",
     "mangled_component_name":"_ZN6google8protobuf9TimestampD0Ev"
    },
    {
     "mangled_component_name":"_ZNK6google8protobuf7Message11GetTypeNameEv"
    },
    {
     "mangled_component_name":"_ZNK6google8protobuf9Timestamp3NewEv"
    },
    {
     "mangled_component_name":"_ZNK6google8protobuf9Timestamp3NewEPNS0_5ArenaE"
    },
    {
     "mangled_component_name":"_ZNK6google8protobuf9Timestamp8GetArenaEv"
    },
    {
     "mangled_component_name":"_ZNK6google8protobuf9Timestamp20GetMaybeArenaPointerEv"
    },
    {
     "mangled_component_name":"_ZN6google8protobuf9Timestamp5ClearEv"
    },
    {
     "mangled_component_name":"_ZNK6google8protobuf9Timestamp13IsInitializedEv"
    },
    {
     "mangled_component_name":"_ZNK6google8protobuf7Message25InitializationErrorStringEv"
    },
    {
     "mangled_component_name":"_ZN6google8protobuf7Message21CheckTypeAndMergeFromERKNS0_11MessageLiteE"
    },
    {
     "mangled_component_name":"_ZN6google8protobuf9Timestamp27MergePartialFromCodedStreamEPNS0_2io16CodedInputStreamE"
    },
    {
     "mangled_component_name":"_ZNK6google8protobuf9Timestamp8ByteSizeEv"
    },
    {
     "mangled_component_name":"_ZNK6google8protobuf9Timestamp24SerializeWithCachedSizesEPNS0_2io17CodedOutputStreamE"
    },
    {
     "mangled_component_name":"_ZNK6google8protobuf9Timestamp31SerializeWithCachedSizesToArrayEPh"
    },
    {
     "mangled_component_name":"_ZNK6google8protobuf9Timestamp13GetCachedSizeEv"
    },
    {
     "mangled_component_name":"_ZN6google8protobuf9Timestamp8CopyFromERKNS0_7MessageE"
    },
    {
     "mangled_component_name":"_ZN6google8protobuf9Timestamp9MergeFromERKNS0_7MessageE"
    },
    {
     "mangled_component_name":"_ZN6google8protobuf7Message20DiscardUnknownFieldsEv"
    },
    {
     "mangled_component_name":"_ZNK6google8protobuf7Message9SpaceUsedEv"
    },
    {
     "mangled_component_name":"_ZNK6google8protobuf9Timestamp13SetCachedSizeEi"
    },
    {
     "mangled_component_name":"_ZNK6google8protobuf7Message13GetReflectionEv"
    },
    {
     "mangled_component_name":"_ZNK6google8protobuf9Timestamp11GetMetadataEv"
    }
   ],
   "unique_id":"_ZTSN6google8protobuf9TimestampE"
  },
  {
   "vtable_components":[
    {
     "kind":"offset_to_top"
    },
    {
     "kind":"rtti",
     "mangled_component_name":"_ZTIN6google8protobuf11DoubleValueE"
    },
    {
     "kind":"complete_dtor_pointer",
     "mangled_component_name":"_ZN6google8protobuf11DoubleValueD1Ev"
    },
    {
     "kind":"deleting_dtor_pointer",
     "mangled_component_name":"_ZN6google8protobuf11DoubleValueD0Ev"
    },
    {
     "mangled_component_name":"_ZNK6google8protobuf7Message11GetTypeNameEv"
    },
    {
     "mangled_component_name":"_ZNK6google8protobuf11DoubleValue3NewEv"
    },
    {
     "mangled_component_name":"_ZNK6google8protobuf11DoubleValue3NewEPNS0_5ArenaE"
    },
    {
     "mangled_component_name":"_ZNK6google8protobuf11DoubleValue8GetArenaEv"
    },
    {
     "mangled_component_name":"_ZNK6google8protobuf11DoubleValue20GetMaybeArenaPointerEv"
    },
    {
     "mangled_component_name":"_ZN6google8protobuf11DoubleValue5ClearEv"
    },
    {
     "mangled_component_name":"_ZNK6google8protobuf11DoubleValue13IsInitializedEv"
    },
    {
     "mangled_component_name":"_ZNK6google8protobuf7Message25InitializationErrorStringEv"
    },
    {
     "mangled_component_name":"_ZN6google8protobuf7Message21CheckTypeAndMergeFromERKNS0_11MessageLiteE"
    },
    {
     "mangled_component_name":"_ZN6google8protobuf11DoubleValue27MergePartialFromCodedStreamEPNS0_2io16CodedInputStreamE"
    },
    {
     "mangled_component_name":"_ZNK6google8protobuf11DoubleValue8ByteSizeEv"
    },
    {
     "mangled_component_name":"_ZNK6google8protobuf11DoubleValue24SerializeWithCachedSizesEPNS0_2io17CodedOutputStreamE"
    },
    {
     "mangled_component_name":"_ZNK6google8protobuf11DoubleValue31SerializeWithCachedSizesToArrayEPh"
    },
    {
     "mangled_component_name":"_ZNK6google8protobuf11DoubleValue13GetCachedSizeEv"
    },
    {
     "mangled_component_name":"_ZN6google8protobuf11DoubleValue8CopyFromERKNS0_7MessageE"
    },
    {
     "mangled_component_name":"_ZN6google8protobuf11DoubleValue9MergeFromERKNS0_7MessageE"
    },
    {
     "mangled_component_name":"_ZN6google8protobuf7Message20DiscardUnknownFieldsEv"
    },
    {
     "mangled_component_name":"_ZNK6google8protobuf7Message9SpaceUsedEv"
    },
    {
     "mangled_component_name":"_ZNK6google8protobuf11DoubleValue13SetCachedSizeEi"
    },
    {
     "mangled_component_name":"_ZNK6google8protobuf7Message13GetReflectionEv"
    },
    {
     "mangled_component_name":"_ZNK6google8protobuf11DoubleValue11GetMetadataEv"
    }
   ],
   "unique_id":"_ZTSN6google8protobuf11DoubleValueE"
  },
  {
   "vtable_components":[
    {
     "kind":"offset_to_top"
    },
    {
     "kind":"rtti",
     "mangled_component_name":"_ZTIN6google8protobuf10FloatValueE"
    },
    {
     "kind":"complete_dtor_pointer",
     "mangled_component_name":"_ZN6google8protobuf10FloatValueD1Ev"
    },
    {
     "kind":"deleting_dtor_pointer",
     "mangled_component_name":"_ZN6google8protobuf10FloatValueD0Ev"
    },
    {
     "mangled_component_name":"_ZNK6google8protobuf7Message11GetTypeNameEv"
    },
    {
     "mangled_component_name":"_ZNK6google8protobuf10FloatValue3NewEv"
    },
    {
     "mangled_component_name":"_ZNK6google8protobuf10FloatValue3NewEPNS0_5ArenaE"
    },
    {
     "mangled_component_name":"_ZNK6google8protobuf10FloatValue8GetArenaEv"
    },
    {
     "mangled_component_name":"_ZNK6google8protobuf10FloatValue20GetMaybeArenaPointerEv"
    },
    {
     "mangled_component_name":"_ZN6google8protobuf10FloatValue5ClearEv"
    },
    {
     "mangled_component_name":"_ZNK6google8protobuf10FloatValue13IsInitializedEv"
    },
    {
     "mangled_component_name":"_ZNK6google8protobuf7Message25InitializationErrorStringEv"
    },
    {
     "mangled_component_name":"_ZN6google8protobuf7Message21CheckTypeAndMergeFromERKNS0_11MessageLiteE"
    },
    {
     "mangled_component_name":"_ZN6google8protobuf10FloatValue27MergePartialFromCodedStreamEPNS0_2io16CodedInputStreamE"
    },
    {
     "mangled_component_name":"_ZNK6google8protobuf10FloatValue8ByteSizeEv"
    },
    {
     "mangled_component_name":"_ZNK6google8protobuf10FloatValue24SerializeWithCachedSizesEPNS0_2io17CodedOutputStreamE"
    },
    {
     "mangled_component_name":"_ZNK6google8protobuf10FloatValue31SerializeWithCachedSizesToArrayEPh"
    },
    {
     "mangled_component_name":"_ZNK6google8protobuf10FloatValue13GetCachedSizeEv"
    },
    {
     "mangled_component_name":"_ZN6google8protobuf10FloatValue8CopyFromERKNS0_7MessageE"
    },
    {
     "mangled_component_name":"_ZN6google8protobuf10FloatValue9MergeFromERKNS0_7MessageE"
    },
    {
     "mangled_component_name":"_ZN6google8protobuf7Message20DiscardUnknownFieldsEv"
    },
    {
     "mangled_component_name":"_ZNK6google8protobuf7Message9SpaceUsedEv"
    },
    {
     "mangled_component_name":"_ZNK6google8protobuf10FloatValue13SetCachedSizeEi"
    },
    {
     "mangled_component_name":"_ZNK6google8protobuf7Message13GetReflectionEv"
    },
    {
     "mangled_component_name":"_ZNK6google8protobuf10FloatValue11GetMetadataEv"
    }
   ],
   "unique_id":"_ZTSN6google8protobuf10FloatValueE"
  },
  {
   "vtable_components":[
    {
     "kind":"offset_to_top"
    },
    {
     "kind":"rtti",
     "mangled_component_name":"_ZTIN6google8protobuf10Int64ValueE"
    },
    {
     "kind":"complete_dtor_pointer",
     "mangled_component_name":"_ZN6google8protobuf10Int64ValueD1Ev"
    },
    {
     "kind":"deleting_dtor_pointer",
     "mangled_component_name":"_ZN6google8protobuf10Int64ValueD0Ev"
    },
    {
     "mangled_component_name":"_ZNK6google8protobuf7Message11GetTypeNameEv"
    },
    {
     "mangled_component_name":"_ZNK6google8protobuf10Int64Value3NewEv"
    },
    {
     "mangled_component_name":"_ZNK6google8protobuf10Int64Value3NewEPNS0_5ArenaE"
    },
    {
     "mangled_component_name":"_ZNK6google8protobuf10Int64Value8GetArenaEv"
    },
    {
     "mangled_component_name":"_ZNK6google8protobuf10Int64Value20GetMaybeArenaPointerEv"
    },
    {
     "mangled_component_name":"_ZN6google8protobuf10Int64Value5ClearEv"
    },
    {
     "mangled_component_name":"_ZNK6google8protobuf10Int64Value13IsInitializedEv"
    },
    {
     "mangled_component_name":"_ZNK6google8protobuf7Message25InitializationErrorStringEv"
    },
    {
     "mangled_component_name":"_ZN6google8protobuf7Message21CheckTypeAndMergeFromERKNS0_11MessageLiteE"
    },
    {
     "mangled_component_name":"_ZN6google8protobuf10Int64Value27MergePartialFromCodedStreamEPNS0_2io16CodedInputStreamE"
    },
    {
     "mangled_component_name":"_ZNK6google8protobuf10Int64Value8ByteSizeEv"
    },
    {
     "mangled_component_name":"_ZNK6google8protobuf10Int64Value24SerializeWithCachedSizesEPNS0_2io17CodedOutputStreamE"
    },
    {
     "mangled_component_name":"_ZNK6google8protobuf10Int64Value31SerializeWithCachedSizesToArrayEPh"
    },
    {
     "mangled_component_name":"_ZNK6google8protobuf10Int64Value13GetCachedSizeEv"
    },
    {
     "mangled_component_name":"_ZN6google8protobuf10Int64Value8CopyFromERKNS0_7MessageE"
    },
    {
     "mangled_component_name":"_ZN6google8protobuf10Int64Value9MergeFromERKNS0_7MessageE"
    },
    {
     "mangled_component_name":"_ZN6google8protobuf7Message20DiscardUnknownFieldsEv"
    },
    {
     "mangled_component_name":"_ZNK6google8protobuf7Message9SpaceUsedEv"
    },
    {
     "mangled_component_name":"_ZNK6google8protobuf10Int64Value13SetCachedSizeEi"
    },
    {
     "mangled_component_name":"_ZNK6google8protobuf7Message13GetReflectionEv"
    },
    {
     "mangled_component_name":"_ZNK6google8protobuf10Int64Value11GetMetadataEv"
    }
   ],
   "unique_id":"_ZTSN6google8protobuf10Int64ValueE"
  },
  {
   "vtable_components":[
    {
     "kind":"offset_to_top"
    },
    {
     "kind":"rtti",
     "mangled_component_name":"_ZTIN6google8protobuf11UInt64ValueE"
    },
    {
     "kind":"complete_dtor_pointer",
     "mangled_component_name":"_ZN6google8protobuf11UInt64ValueD1Ev"
    },
    {
     "kind":"deleting_dtor_pointer",
     "mangled_component_name":"_ZN6google8protobuf11UInt64ValueD0Ev"
    },
    {
     "mangled_component_name":"_ZNK6google8protobuf7Message11GetTypeNameEv"
    },
    {
     "mangled_component_name":"_ZNK6google8protobuf11UInt64Value3NewEv"
    },
    {
     "mangled_component_name":"_ZNK6google8protobuf11UInt64Value3NewEPNS0_5ArenaE"
    },
    {
     "mangled_component_name":"_ZNK6google8protobuf11UInt64Value8GetArenaEv"
    },
    {
     "mangled_component_name":"_ZNK6google8protobuf11UInt64Value20GetMaybeArenaPointerEv"
    },
    {
     "mangled_component_name":"_ZN6google8protobuf11UInt64Value5ClearEv"
    },
    {
     "mangled_component_name":"_ZNK6google8protobuf11UInt64Value13IsInitializedEv"
    },
    {
     "mangled_component_name":"_ZNK6google8protobuf7Message25InitializationErrorStringEv"
    },
    {
     "mangled_component_name":"_ZN6google8protobuf7Message21CheckTypeAndMergeFromERKNS0_11MessageLiteE"
    },
    {
     "mangled_component_name":"_ZN6google8protobuf11UInt64Value27MergePartialFromCodedStreamEPNS0_2io16CodedInputStreamE"
    },
    {
     "mangled_component_name":"_ZNK6google8protobuf11UInt64Value8ByteSizeEv"
    },
    {
     "mangled_component_name":"_ZNK6google8protobuf11UInt64Value24SerializeWithCachedSizesEPNS0_2io17CodedOutputStreamE"
    },
    {
     "mangled_component_name":"_ZNK6google8protobuf11UInt64Value31SerializeWithCachedSizesToArrayEPh"
    },
    {
     "mangled_component_name":"_ZNK6google8protobuf11UInt64Value13GetCachedSizeEv"
    },
    {
     "mangled_component_name":"_ZN6google8protobuf11UInt64Value8CopyFromERKNS0_7MessageE"
    },
    {
     "mangled_component_name":"_ZN6google8protobuf11UInt64Value9MergeFromERKNS0_7MessageE"
    },
    {
     "mangled_component_name":"_ZN6google8protobuf7Message20DiscardUnknownFieldsEv"
    },
    {
     "mangled_component_name":"_ZNK6google8protobuf7Message9SpaceUsedEv"
    },
    {
     "mangled_component_name":"_ZNK6google8protobuf11UInt64Value13SetCachedSizeEi"
    },
    {
     "mangled_component_name":"_ZNK6google8protobuf7Message13GetReflectionEv"
    },
    {
     "mangled_component_name":"_ZNK6google8protobuf11UInt64Value11GetMetadataEv"
    }
   ],
   "unique_id":"_ZTSN6google8protobuf11UInt64ValueE"
  },
  {
   "vtable_components":[
    {
     "kind":"offset_to_top"
    },
    {
     "kind":"rtti",
     "mangled_component_name":"_ZTIN6google8protobuf10Int32ValueE"
    },
    {
     "kind":"complete_dtor_pointer",
     "mangled_component_name":"_ZN6google8protobuf10Int32ValueD1Ev"
    },
    {
     "kind":"deleting_dtor_pointer",
     "mangled_component_name":"_ZN6google8protobuf10Int32ValueD0Ev"
    },
    {
     "mangled_component_name":"_ZNK6google8protobuf7Message11GetTypeNameEv"
    },
    {
     "mangled_component_name":"_ZNK6google8protobuf10Int32Value3NewEv"
    },
    {
     "mangled_component_name":"_ZNK6google8protobuf10Int32Value3NewEPNS0_5ArenaE"
    },
    {
     "mangled_component_name":"_ZNK6google8protobuf10Int32Value8GetArenaEv"
    },
    {
     "mangled_component_name":"_ZNK6google8protobuf10Int32Value20GetMaybeArenaPointerEv"
    },
    {
     "mangled_component_name":"_ZN6google8protobuf10Int32Value5ClearEv"
    },
    {
     "mangled_component_name":"_ZNK6google8protobuf10Int32Value13IsInitializedEv"
    },
    {
     "mangled_component_name":"_ZNK6google8protobuf7Message25InitializationErrorStringEv"
    },
    {
     "mangled_component_name":"_ZN6google8protobuf7Message21CheckTypeAndMergeFromERKNS0_11MessageLiteE"
    },
    {
     "mangled_component_name":"_ZN6google8protobuf10Int32Value27MergePartialFromCodedStreamEPNS0_2io16CodedInputStreamE"
    },
    {
     "mangled_component_name":"_ZNK6google8protobuf10Int32Value8ByteSizeEv"
    },
    {
     "mangled_component_name":"_ZNK6google8protobuf10Int32Value24SerializeWithCachedSizesEPNS0_2io17CodedOutputStreamE"
    },
    {
     "mangled_component_name":"_ZNK6google8protobuf10Int32Value31SerializeWithCachedSizesToArrayEPh"
    },
    {
     "mangled_component_name":"_ZNK6google8protobuf10Int32Value13GetCachedSizeEv"
    },
    {
     "mangled_component_name":"_ZN6google8protobuf10Int32Value8CopyFromERKNS0_7MessageE"
    },
    {
     "mangled_component_name":"_ZN6google8protobuf10Int32Value9MergeFromERKNS0_7MessageE"
    },
    {
     "mangled_component_name":"_ZN6google8protobuf7Message20DiscardUnknownFieldsEv"
    },
    {
     "mangled_component_name":"_ZNK6google8protobuf7Message9SpaceUsedEv"
    },
    {
     "mangled_component_name":"_ZNK6google8protobuf10Int32Value13SetCachedSizeEi"
    },
    {
     "mangled_component_name":"_ZNK6google8protobuf7Message13GetReflectionEv"
    },
    {
     "mangled_component_name":"_ZNK6google8protobuf10Int32Value11GetMetadataEv"
    }
   ],
   "unique_id":"_ZTSN6google8protobuf10Int32ValueE"
  },
  {
   "vtable_components":[
    {
     "kind":"offset_to_top"
    },
    {
     "kind":"rtti",
     "mangled_component_name":"_ZTIN6google8protobuf11UInt32ValueE"
    },
    {
     "kind":"complete_dtor_pointer",
     "mangled_component_name":"_ZN6google8protobuf11UInt32ValueD1Ev"
    },
    {
     "kind":"deleting_dtor_pointer",
     "mangled_component_name":"_ZN6google8protobuf11UInt32ValueD0Ev"
    },
    {
     "mangled_component_name":"_ZNK6google8protobuf7Message11GetTypeNameEv"
    },
    {
     "mangled_component_name":"_ZNK6google8protobuf11UInt32Value3NewEv"
    },
    {
     "mangled_component_name":"_ZNK6google8protobuf11UInt32Value3NewEPNS0_5ArenaE"
    },
    {
     "mangled_component_name":"_ZNK6google8protobuf11UInt32Value8GetArenaEv"
    },
    {
     "mangled_component_name":"_ZNK6google8protobuf11UInt32Value20GetMaybeArenaPointerEv"
    },
    {
     "mangled_component_name":"_ZN6google8protobuf11UInt32Value5ClearEv"
    },
    {
     "mangled_component_name":"_ZNK6google8protobuf11UInt32Value13IsInitializedEv"
    },
    {
     "mangled_component_name":"_ZNK6google8protobuf7Message25InitializationErrorStringEv"
    },
    {
     "mangled_component_name":"_ZN6google8protobuf7Message21CheckTypeAndMergeFromERKNS0_11MessageLiteE"
    },
    {
     "mangled_component_name":"_ZN6google8protobuf11UInt32Value27MergePartialFromCodedStreamEPNS0_2io16CodedInputStreamE"
    },
    {
     "mangled_component_name":"_ZNK6google8protobuf11UInt32Value8ByteSizeEv"
    },
    {
     "mangled_component_name":"_ZNK6google8protobuf11UInt32Value24SerializeWithCachedSizesEPNS0_2io17CodedOutputStreamE"
    },
    {
     "mangled_component_name":"_ZNK6google8protobuf11UInt32Value31SerializeWithCachedSizesToArrayEPh"
    },
    {
     "mangled_component_name":"_ZNK6google8protobuf11UInt32Value13GetCachedSizeEv"
    },
    {
     "mangled_component_name":"_ZN6google8protobuf11UInt32Value8CopyFromERKNS0_7MessageE"
    },
    {
     "mangled_component_name":"_ZN6google8protobuf11UInt32Value9MergeFromERKNS0_7MessageE"
    },
    {
     "mangled_component_name":"_ZN6google8protobuf7Message20DiscardUnknownFieldsEv"
    },
    {
     "mangled_component_name":"_ZNK6google8protobuf7Message9SpaceUsedEv"
    },
    {
     "mangled_component_name":"_ZNK6google8protobuf11UInt32Value13SetCachedSizeEi"
    },
    {
     "mangled_component_name":"_ZNK6google8protobuf7Message13GetReflectionEv"
    },
    {
     "mangled_component_name":"_ZNK6google8protobuf11UInt32Value11GetMetadataEv"
    }
   ],
   "unique_id":"_ZTSN6google8protobuf11UInt32ValueE"
  },
  {
   "vtable_components":[
    {
     "kind":"offset_to_top"
    },
    {
     "kind":"rtti",
     "mangled_component_name":"_ZTIN6google8protobuf9BoolValueE"
    },
    {
     "kind":"complete_dtor_pointer",
     "mangled_component_name":"_ZN6google8protobuf9BoolValueD1Ev"
    },
    {
     "kind":"deleting_dtor_pointer",
     "mangled_component_name":"_ZN6google8protobuf9BoolValueD0Ev"
    },
    {
     "mangled_component_name":"_ZNK6google8protobuf7Message11GetTypeNameEv"
    },
    {
     "mangled_component_name":"_ZNK6google8protobuf9BoolValue3NewEv"
    },
    {
     "mangled_component_name":"_ZNK6google8protobuf9BoolValue3NewEPNS0_5ArenaE"
    },
    {
     "mangled_component_name":"_ZNK6google8protobuf9BoolValue8GetArenaEv"
    },
    {
     "mangled_component_name":"_ZNK6google8protobuf9BoolValue20GetMaybeArenaPointerEv"
    },
    {
     "mangled_component_name":"_ZN6google8protobuf9BoolValue5ClearEv"
    },
    {
     "mangled_component_name":"_ZNK6google8protobuf9BoolValue13IsInitializedEv"
    },
    {
     "mangled_component_name":"_ZNK6google8protobuf7Message25InitializationErrorStringEv"
    },
    {
     "mangled_component_name":"_ZN6google8protobuf7Message21CheckTypeAndMergeFromERKNS0_11MessageLiteE"
    },
    {
     "mangled_component_name":"_ZN6google8protobuf9BoolValue27MergePartialFromCodedStreamEPNS0_2io16CodedInputStreamE"
    },
    {
     "mangled_component_name":"_ZNK6google8protobuf9BoolValue8ByteSizeEv"
    },
    {
     "mangled_component_name":"_ZNK6google8protobuf9BoolValue24SerializeWithCachedSizesEPNS0_2io17CodedOutputStreamE"
    },
    {
     "mangled_component_name":"_ZNK6google8protobuf9BoolValue31SerializeWithCachedSizesToArrayEPh"
    },
    {
     "mangled_component_name":"_ZNK6google8protobuf9BoolValue13GetCachedSizeEv"
    },
    {
     "mangled_component_name":"_ZN6google8protobuf9BoolValue8CopyFromERKNS0_7MessageE"
    },
    {
     "mangled_component_name":"_ZN6google8protobuf9BoolValue9MergeFromERKNS0_7MessageE"
    },
    {
     "mangled_component_name":"_ZN6google8protobuf7Message20DiscardUnknownFieldsEv"
    },
    {
     "mangled_component_name":"_ZNK6google8protobuf7Message9SpaceUsedEv"
    },
    {
     "mangled_component_name":"_ZNK6google8protobuf9BoolValue13SetCachedSizeEi"
    },
    {
     "mangled_component_name":"_ZNK6google8protobuf7Message13GetReflectionEv"
    },
    {
     "mangled_component_name":"_ZNK6google8protobuf9BoolValue11GetMetadataEv"
    }
   ],
   "unique_id":"_ZTSN6google8protobuf9BoolValueE"
  },
  {
   "vtable_components":[
    {
     "kind":"offset_to_top"
    },
    {
     "kind":"rtti",
     "mangled_component_name":"_ZTIN6google8protobuf11StringValueE"
    },
    {
     "kind":"complete_dtor_pointer",
     "mangled_component_name":"_ZN6google8protobuf11StringValueD1Ev"
    },
    {
     "kind":"deleting_dtor_pointer",
     "mangled_component_name":"_ZN6google8protobuf11StringValueD0Ev"
    },
    {
     "mangled_component_name":"_ZNK6google8protobuf7Message11GetTypeNameEv"
    },
    {
     "mangled_component_name":"_ZNK6google8protobuf11StringValue3NewEv"
    },
    {
     "mangled_component_name":"_ZNK6google8protobuf11StringValue3NewEPNS0_5ArenaE"
    },
    {
     "mangled_component_name":"_ZNK6google8protobuf11StringValue8GetArenaEv"
    },
    {
     "mangled_component_name":"_ZNK6google8protobuf11StringValue20GetMaybeArenaPointerEv"
    },
    {
     "mangled_component_name":"_ZN6google8protobuf11StringValue5ClearEv"
    },
    {
     "mangled_component_name":"_ZNK6google8protobuf11StringValue13IsInitializedEv"
    },
    {
     "mangled_component_name":"_ZNK6google8protobuf7Message25InitializationErrorStringEv"
    },
    {
     "mangled_component_name":"_ZN6google8protobuf7Message21CheckTypeAndMergeFromERKNS0_11MessageLiteE"
    },
    {
     "mangled_component_name":"_ZN6google8protobuf11StringValue27MergePartialFromCodedStreamEPNS0_2io16CodedInputStreamE"
    },
    {
     "mangled_component_name":"_ZNK6google8protobuf11StringValue8ByteSizeEv"
    },
    {
     "mangled_component_name":"_ZNK6google8protobuf11StringValue24SerializeWithCachedSizesEPNS0_2io17CodedOutputStreamE"
    },
    {
     "mangled_component_name":"_ZNK6google8protobuf11StringValue31SerializeWithCachedSizesToArrayEPh"
    },
    {
     "mangled_component_name":"_ZNK6google8protobuf11StringValue13GetCachedSizeEv"
    },
    {
     "mangled_component_name":"_ZN6google8protobuf11StringValue8CopyFromERKNS0_7MessageE"
    },
    {
     "mangled_component_name":"_ZN6google8protobuf11StringValue9MergeFromERKNS0_7MessageE"
    },
    {
     "mangled_component_name":"_ZN6google8protobuf7Message20DiscardUnknownFieldsEv"
    },
    {
     "mangled_component_name":"_ZNK6google8protobuf7Message9SpaceUsedEv"
    },
    {
     "mangled_component_name":"_ZNK6google8protobuf11StringValue13SetCachedSizeEi"
    },
    {
     "mangled_component_name":"_ZNK6google8protobuf7Message13GetReflectionEv"
    },
    {
     "mangled_component_name":"_ZNK6google8protobuf11StringValue11GetMetadataEv"
    }
   ],
   "unique_id":"_ZTSN6google8protobuf11StringValueE"
  },
  {
   "vtable_components":[
    {
     "kind":"offset_to_top"
    },
    {
     "kind":"rtti",
     "mangled_component_name":"_ZTIN6google8protobuf10BytesValueE"
    },
    {
     "kind":"complete_dtor_pointer",
     "mangled_component_name":"_ZN6google8protobuf10BytesValueD1Ev"
    },
    {
     "kind":"deleting_dtor_pointer",
     "mangled_component_name":"_ZN6google8protobuf10BytesValueD0Ev"
    },
    {
     "mangled_component_name":"_ZNK6google8protobuf7Message11GetTypeNameEv"
    },
    {
     "mangled_component_name":"_ZNK6google8protobuf10BytesValue3NewEv"
    },
    {
     "mangled_component_name":"_ZNK6google8protobuf10BytesValue3NewEPNS0_5ArenaE"
    },
    {
     "mangled_component_name":"_ZNK6google8protobuf10BytesValue8GetArenaEv"
    },
    {
     "mangled_component_name":"_ZNK6google8protobuf10BytesValue20GetMaybeArenaPointerEv"
    },
    {
     "mangled_component_name":"_ZN6google8protobuf10BytesValue5ClearEv"
    },
    {
     "mangled_component_name":"_ZNK6google8protobuf10BytesValue13IsInitializedEv"
    },
    {
     "mangled_component_name":"_ZNK6google8protobuf7Message25InitializationErrorStringEv"
    },
    {
     "mangled_component_name":"_ZN6google8protobuf7Message21CheckTypeAndMergeFromERKNS0_11MessageLiteE"
    },
    {
     "mangled_component_name":"_ZN6google8protobuf10BytesValue27MergePartialFromCodedStreamEPNS0_2io16CodedInputStreamE"
    },
    {
     "mangled_component_name":"_ZNK6google8protobuf10BytesValue8ByteSizeEv"
    },
    {
     "mangled_component_name":"_ZNK6google8protobuf10BytesValue24SerializeWithCachedSizesEPNS0_2io17CodedOutputStreamE"
    },
    {
     "mangled_component_name":"_ZNK6google8protobuf10BytesValue31SerializeWithCachedSizesToArrayEPh"
    },
    {
     "mangled_component_name":"_ZNK6google8protobuf10BytesValue13GetCachedSizeEv"
    },
    {
     "mangled_component_name":"_ZN6google8protobuf10BytesValue8CopyFromERKNS0_7MessageE"
    },
    {
     "mangled_component_name":"_ZN6google8protobuf10BytesValue9MergeFromERKNS0_7MessageE"
    },
    {
     "mangled_component_name":"_ZN6google8protobuf7Message20DiscardUnknownFieldsEv"
    },
    {
     "mangled_component_name":"_ZNK6google8protobuf7Message9SpaceUsedEv"
    },
    {
     "mangled_component_name":"_ZNK6google8protobuf10BytesValue13SetCachedSizeEi"
    },
    {
     "mangled_component_name":"_ZNK6google8protobuf7Message13GetReflectionEv"
    },
    {
     "mangled_component_name":"_ZNK6google8protobuf10BytesValue11GetMetadataEv"
    }
   ],
   "unique_id":"_ZTSN6google8protobuf10BytesValueE"
  }
 ],
 "elf_functions":[
  {
   "name":"_ZN6google8protobuf10BytesValue10SharedCtorEv"
  },
  {
   "name":"_ZN6google8protobuf10BytesValue10SharedDtorEv"
  },
  {
   "name":"_ZN6google8protobuf10BytesValue10descriptorEv"
  },
  {
   "name":"_ZN6google8protobuf10BytesValue12InternalSwapEPS1_"
  },
  {
   "name":"_ZN6google8protobuf10BytesValue15UnsafeArenaSwapEPS1_"
  },
  {
   "name":"_ZN6google8protobuf10BytesValue16default_instanceEv"
  },
  {
   "name":"_ZN6google8protobuf10BytesValue21InitAsDefaultInstanceEv"
  },
  {
   "name":"_ZN6google8protobuf10BytesValue27MergePartialFromCodedStreamEPNS0_2io16CodedInputStreamE"
  },
  {
   "name":"_ZN6google8protobuf10BytesValue4SwapEPS1_"
  },
  {
   "name":"_ZN6google8protobuf10BytesValue5ClearEv"
  },
  {
   "name":"_ZN6google8protobuf10BytesValue8CopyFromERKNS0_7MessageE"
  },
  {
   "name":"_ZN6google8protobuf10BytesValue8CopyFromERKS1_"
  },
  {
   "name":"_ZN6google8protobuf10BytesValue9ArenaDtorEPv"
  },
  {
   "name":"_ZN6google8protobuf10BytesValue9MergeFromERKNS0_7MessageE"
  },
  {
   "name":"_ZN6google8protobuf10BytesValue9MergeFromERKS1_"
  },
  {
   "name":"_ZN6google8protobuf10BytesValueC1EPNS0_5ArenaE"
  },
  {
   "name":"_ZN6google8protobuf10BytesValueC1ERKS1_"
  },
  {
   "name":"_ZN6google8protobuf10BytesValueC1Ev"
  },
  {
   "name":"_ZN6google8protobuf10BytesValueC2EPNS0_5ArenaE"
  },
  {
   "name":"_ZN6google8protobuf10BytesValueC2ERKS1_"
  },
  {
   "name":"_ZN6google8protobuf10BytesValueC2Ev"
  },
  {
   "name":"_ZN6google8protobuf10BytesValueD0Ev"
  },
  {
   "name":"_ZN6google8protobuf10BytesValueD1Ev"
  },
  {
   "name":"_ZN6google8protobuf10BytesValueD2Ev"
  },
  {
   "name":"_ZN6google8protobuf10FloatValue10SharedCtorEv"
  },
  {
   "name":"_ZN6google8protobuf10FloatValue10SharedDtorEv"
  },
  {
   "name":"_ZN6google8protobuf10FloatValue10descriptorEv"
  },
  {
   "name":"_ZN6google8protobuf10FloatValue12InternalSwapEPS1_"
  },
  {
   "name":"_ZN6google8protobuf10FloatValue15UnsafeArenaSwapEPS1_"
  },
  {
   "name":"_ZN6google8protobuf10FloatValue16default_instanceEv"
  },
  {
   "name":"_ZN6google8protobuf10FloatValue21InitAsDefaultInstanceEv"
  },
  {
   "name":"_ZN6google8protobuf10FloatValue27MergePartialFromCodedStreamEPNS0_2io16CodedInputStreamE"
  },
  {
   "name":"_ZN6google8protobuf10FloatValue4SwapEPS1_"
  },
  {
   "name":"_ZN6google8protobuf10FloatValue5ClearEv"
  },
  {
   "name":"_ZN6google8protobuf10FloatValue8CopyFromERKNS0_7MessageE"
  },
  {
   "name":"_ZN6google8protobuf10FloatValue8CopyFromERKS1_"
  },
  {
   "name":"_ZN6google8protobuf10FloatValue9ArenaDtorEPv"
  },
  {
   "name":"_ZN6google8protobuf10FloatValue9MergeFromERKNS0_7MessageE"
  },
  {
   "name":"_ZN6google8protobuf10FloatValue9MergeFromERKS1_"
  },
  {
   "name":"_ZN6google8protobuf10FloatValueC1EPNS0_5ArenaE"
  },
  {
   "name":"_ZN6google8protobuf10FloatValueC1ERKS1_"
  },
  {
   "name":"_ZN6google8protobuf10FloatValueC1Ev"
  },
  {
   "name":"_ZN6google8protobuf10FloatValueC2EPNS0_5ArenaE"
  },
  {
   "name":"_ZN6google8protobuf10FloatValueC2ERKS1_"
  },
  {
   "name":"_ZN6google8protobuf10FloatValueC2Ev"
  },
  {
   "name":"_ZN6google8protobuf10FloatValueD0Ev"
  },
  {
   "name":"_ZN6google8protobuf10FloatValueD1Ev"
  },
  {
   "name":"_ZN6google8protobuf10FloatValueD2Ev"
  },
  {
   "name":"_ZN6google8protobuf10Int32Value10SharedCtorEv"
  },
  {
   "name":"_ZN6google8protobuf10Int32Value10SharedDtorEv"
  },
  {
   "name":"_ZN6google8protobuf10Int32Value10descriptorEv"
  },
  {
   "name":"_ZN6google8protobuf10Int32Value12InternalSwapEPS1_"
  },
  {
   "name":"_ZN6google8protobuf10Int32Value15UnsafeArenaSwapEPS1_"
  },
  {
   "name":"_ZN6google8protobuf10Int32Value16default_instanceEv"
  },
  {
   "name":"_ZN6google8protobuf10Int32Value21InitAsDefaultInstanceEv"
  },
  {
   "name":"_ZN6google8protobuf10Int32Value27MergePartialFromCodedStreamEPNS0_2io16CodedInputStreamE"
  },
  {
   "name":"_ZN6google8protobuf10Int32Value4SwapEPS1_"
  },
  {
   "name":"_ZN6google8protobuf10Int32Value5ClearEv"
  },
  {
   "name":"_ZN6google8protobuf10Int32Value8CopyFromERKNS0_7MessageE"
  },
  {
   "name":"_ZN6google8protobuf10Int32Value8CopyFromERKS1_"
  },
  {
   "name":"_ZN6google8protobuf10Int32Value9ArenaDtorEPv"
  },
  {
   "name":"_ZN6google8protobuf10Int32Value9MergeFromERKNS0_7MessageE"
  },
  {
   "name":"_ZN6google8protobuf10Int32Value9MergeFromERKS1_"
  },
  {
   "name":"_ZN6google8protobuf10Int32ValueC1EPNS0_5ArenaE"
  },
  {
   "name":"_ZN6google8protobuf10Int32ValueC1ERKS1_"
  },
  {
   "name":"_ZN6google8protobuf10Int32ValueC1Ev"
  },
  {
   "name":"_ZN6google8protobuf10Int32ValueC2EPNS0_5ArenaE"
  },
  {
   "name":"_ZN6google8protobuf10Int32ValueC2ERKS1_"
  },
  {
   "name":"_ZN6google8protobuf10Int32ValueC2Ev"
  },
  {
   "name":"_ZN6google8protobuf10Int32ValueD0Ev"
  },
  {
   "name":"_ZN6google8protobuf10Int32ValueD1Ev"
  },
  {
   "name":"_ZN6google8protobuf10Int32ValueD2Ev"
  },
  {
   "name":"_ZN6google8protobuf10Int64Value10SharedCtorEv"
  },
  {
   "name":"_ZN6google8protobuf10Int64Value10SharedDtorEv"
  },
  {
   "name":"_ZN6google8protobuf10Int64Value10descriptorEv"
  },
  {
   "name":"_ZN6google8protobuf10Int64Value12InternalSwapEPS1_"
  },
  {
   "name":"_ZN6google8protobuf10Int64Value15UnsafeArenaSwapEPS1_"
  },
  {
   "name":"_ZN6google8protobuf10Int64Value16default_instanceEv"
  },
  {
   "name":"_ZN6google8protobuf10Int64Value21InitAsDefaultInstanceEv"
  },
  {
   "name":"_ZN6google8protobuf10Int64Value27MergePartialFromCodedStreamEPNS0_2io16CodedInputStreamE"
  },
  {
   "name":"_ZN6google8protobuf10Int64Value4SwapEPS1_"
  },
  {
   "name":"_ZN6google8protobuf10Int64Value5ClearEv"
  },
  {
   "name":"_ZN6google8protobuf10Int64Value8CopyFromERKNS0_7MessageE"
  },
  {
   "name":"_ZN6google8protobuf10Int64Value8CopyFromERKS1_"
  },
  {
   "name":"_ZN6google8protobuf10Int64Value9ArenaDtorEPv"
  },
  {
   "name":"_ZN6google8protobuf10Int64Value9MergeFromERKNS0_7MessageE"
  },
  {
   "name":"_ZN6google8protobuf10Int64Value9MergeFromERKS1_"
  },
  {
   "name":"_ZN6google8protobuf10Int64ValueC1EPNS0_5ArenaE"
  },
  {
   "name":"_ZN6google8protobuf10Int64ValueC1ERKS1_"
  },
  {
   "name":"_ZN6google8protobuf10Int64ValueC1Ev"
  },
  {
   "name":"_ZN6google8protobuf10Int64ValueC2EPNS0_5ArenaE"
  },
  {
   "name":"_ZN6google8protobuf10Int64ValueC2ERKS1_"
  },
  {
   "name":"_ZN6google8protobuf10Int64ValueC2Ev"
  },
  {
   "name":"_ZN6google8protobuf10Int64ValueD0Ev"
  },
  {
   "name":"_ZN6google8protobuf10Int64ValueD1Ev"
  },
  {
   "name":"_ZN6google8protobuf10Int64ValueD2Ev"
  },
  {
   "name":"_ZN6google8protobuf10ReflectionD0Ev"
  },
  {
   "name":"_ZN6google8protobuf10ReflectionD1Ev"
  },
  {
   "name":"_ZN6google8protobuf10ReflectionD2Ev"
  },
  {
   "name":"_ZN6google8protobuf10RpcChannelD0Ev"
  },
  {
   "name":"_ZN6google8protobuf10RpcChannelD1Ev"
  },
  {
   "name":"_ZN6google8protobuf10RpcChannelD2Ev"
  },
  {
   "name":"_ZN6google8protobuf10SimpleDtoaEd"
  },
  {
   "name":"_ZN6google8protobuf10SimpleFtoaEf"
  },
  {
   "name":"_ZN6google8protobuf10SimpleItoaEi"
  },
  {
   "name":"_ZN6google8protobuf10SimpleItoaEj"
  },
  {
   "name":"_ZN6google8protobuf10SimpleItoaEl"
  },
  {
   "name":"_ZN6google8protobuf10SimpleItoaEm"
  },
  {
   "name":"_ZN6google8protobuf10SimpleItoaEx"
  },
  {
   "name":"_ZN6google8protobuf10SimpleItoaEy"
  },
  {
   "name":"_ZN6google8protobuf10TextFormat13ParseInfoTree12CreateNestedEPKNS0_15FieldDescriptorE"
  },
  {
   "name":"_ZN6google8protobuf10TextFormat13ParseInfoTree14RecordLocationEPKNS0_15FieldDescriptorENS1_13ParseLocationE"
  },
  {
   "name":"_ZN6google8protobuf10TextFormat13ParseInfoTreeC1Ev"
  },
  {
   "name":"_ZN6google8protobuf10TextFormat13ParseInfoTreeC2Ev"
  },
  {
   "name":"_ZN6google8protobuf10TextFormat13ParseInfoTreeD1Ev"
  },
  {
   "name":"_ZN6google8protobuf10TextFormat13ParseInfoTreeD2Ev"
  },
  {
   "name":"_ZN6google8protobuf10TextFormat13PrintToStringERKNS0_7MessageEPNSt3__112basic_stringIcNS5_11char_traitsIcEENS5_9allocatorIcEEEE"
  },
  {
   "name":"_ZN6google8protobuf10TextFormat15MergeFromStringERKNSt3__112basic_stringIcNS2_11char_traitsIcEENS2_9allocatorIcEEEEPNS0_7MessageE"
  },
  {
   "name":"_ZN6google8protobuf10TextFormat15ParseFromStringERKNSt3__112basic_stringIcNS2_11char_traitsIcEENS2_9allocatorIcEEEEPNS0_7MessageE"
  },
  {
   "name":"_ZN6google8protobuf10TextFormat17FieldValuePrinterC1Ev"
  },
  {
   "name":"_ZN6google8protobuf10TextFormat17FieldValuePrinterC2Ev"
  },
  {
   "name":"_ZN6google8protobuf10TextFormat17FieldValuePrinterD0Ev"
  },
  {
   "name":"_ZN6google8protobuf10TextFormat17FieldValuePrinterD1Ev"
  },
  {
   "name":"_ZN6google8protobuf10TextFormat17FieldValuePrinterD2Ev"
  },
  {
   "name":"_ZN6google8protobuf10TextFormat18PrintUnknownFieldsERKNS0_15UnknownFieldSetEPNS0_2io20ZeroCopyOutputStreamE"
  },
  {
   "name":"_ZN6google8protobuf10TextFormat23PrintFieldValueToStringERKNS0_7MessageEPKNS0_15FieldDescriptorEiPNSt3__112basic_stringIcNS8_11char_traitsIcEENS8_9allocatorIcEEEE"
  },
  {
   "name":"_ZN6google8protobuf10TextFormat25ParseFieldValueFromStringERKNSt3__112basic_stringIcNS2_11char_traitsIcEENS2_9allocatorIcEEEEPKNS0_15FieldDescriptorEPNS0_7MessageE"
  },
  {
   "name":"_ZN6google8protobuf10TextFormat26PrintUnknownFieldsToStringERKNS0_15UnknownFieldSetEPNSt3__112basic_stringIcNS5_11char_traitsIcEENS5_9allocatorIcEEEE"
  },
  {
   "name":"_ZN6google8protobuf10TextFormat5MergeEPNS0_2io19ZeroCopyInputStreamEPNS0_7MessageE"
  },
  {
   "name":"_ZN6google8protobuf10TextFormat5ParseEPNS0_2io19ZeroCopyInputStreamEPNS0_7MessageE"
  },
  {
   "name":"_ZN6google8protobuf10TextFormat5PrintERKNS0_7MessageEPNS0_2io20ZeroCopyOutputStreamE"
  },
  {
   "name":"_ZN6google8protobuf10TextFormat6FinderD0Ev"
  },
  {
   "name":"_ZN6google8protobuf10TextFormat6FinderD1Ev"
  },
  {
   "name":"_ZN6google8protobuf10TextFormat6FinderD2Ev"
  },
  {
   "name":"_ZN6google8protobuf10TextFormat6Parser14MergeUsingImplEPNS0_2io19ZeroCopyInputStreamEPNS0_7MessageEPNS2_10ParserImplE"
  },
  {
   "name":"_ZN6google8protobuf10TextFormat6Parser15MergeFromStringERKNSt3__112basic_stringIcNS3_11char_traitsIcEENS3_9allocatorIcEEEEPNS0_7MessageE"
  },
  {
   "name":"_ZN6google8protobuf10TextFormat6Parser15ParseFromStringERKNSt3__112basic_stringIcNS3_11char_traitsIcEENS3_9allocatorIcEEEEPNS0_7MessageE"
  },
  {
   "name":"_ZN6google8protobuf10TextFormat6Parser25ParseFieldValueFromStringERKNSt3__112basic_stringIcNS3_11char_traitsIcEENS3_9allocatorIcEEEEPKNS0_15FieldDescriptorEPNS0_7MessageE"
  },
  {
   "name":"_ZN6google8protobuf10TextFormat6Parser5MergeEPNS0_2io19ZeroCopyInputStreamEPNS0_7MessageE"
  },
  {
   "name":"_ZN6google8protobuf10TextFormat6Parser5ParseEPNS0_2io19ZeroCopyInputStreamEPNS0_7MessageE"
  },
  {
   "name":"_ZN6google8protobuf10TextFormat6ParserC1Ev"
  },
  {
   "name":"_ZN6google8protobuf10TextFormat6ParserC2Ev"
  },
  {
   "name":"_ZN6google8protobuf10TextFormat6ParserD1Ev"
  },
  {
   "name":"_ZN6google8protobuf10TextFormat6ParserD2Ev"
  },
  {
   "name":"_ZN6google8protobuf10TextFormat7Printer24SetUseUtf8StringEscapingEb"
  },
  {
   "name":"_ZN6google8protobuf10TextFormat7Printer25RegisterFieldValuePrinterEPKNS0_15FieldDescriptorEPKNS1_17FieldValuePrinterE"
  },
  {
   "name":"_ZN6google8protobuf10TextFormat7Printer27SetDefaultFieldValuePrinterEPKNS1_17FieldValuePrinterE"
  },
  {
   "name":"_ZN6google8protobuf10TextFormat7PrinterC1Ev"
  },
  {
   "name":"_ZN6google8protobuf10TextFormat7PrinterC2Ev"
  },
  {
   "name":"_ZN6google8protobuf10TextFormat7PrinterD1Ev"
  },
  {
   "name":"_ZN6google8protobuf10TextFormat7PrinterD2Ev"
  },
  {
   "name":"_ZN6google8protobuf11DoubleValue10SharedCtorEv"
  },
  {
   "name":"_ZN6google8protobuf11DoubleValue10SharedDtorEv"
  },
  {
   "name":"_ZN6google8protobuf11DoubleValue10descriptorEv"
  },
  {
   "name":"_ZN6google8protobuf11DoubleValue12InternalSwapEPS1_"
  },
  {
   "name":"_ZN6google8protobuf11DoubleValue15UnsafeArenaSwapEPS1_"
  },
  {
   "name":"_ZN6google8protobuf11DoubleValue16default_instanceEv"
  },
  {
   "name":"_ZN6google8protobuf11DoubleValue21InitAsDefaultInstanceEv"
  },
  {
   "name":"_ZN6google8protobuf11DoubleValue27MergePartialFromCodedStreamEPNS0_2io16CodedInputStreamE"
  },
  {
   "name":"_ZN6google8protobuf11DoubleValue4SwapEPS1_"
  },
  {
   "name":"_ZN6google8protobuf11DoubleValue5ClearEv"
  },
  {
   "name":"_ZN6google8protobuf11DoubleValue8CopyFromERKNS0_7MessageE"
  },
  {
   "name":"_ZN6google8protobuf11DoubleValue8CopyFromERKS1_"
  },
  {
   "name":"_ZN6google8protobuf11DoubleValue9ArenaDtorEPv"
  },
  {
   "name":"_ZN6google8protobuf11DoubleValue9MergeFromERKNS0_7MessageE"
  },
  {
   "name":"_ZN6google8protobuf11DoubleValue9MergeFromERKS1_"
  },
  {
   "name":"_ZN6google8protobuf11DoubleValueC1EPNS0_5ArenaE"
  },
  {
   "name":"_ZN6google8protobuf11DoubleValueC1ERKS1_"
  },
  {
   "name":"_ZN6google8protobuf11DoubleValueC1Ev"
  },
  {
   "name":"_ZN6google8protobuf11DoubleValueC2EPNS0_5ArenaE"
  },
  {
   "name":"_ZN6google8protobuf11DoubleValueC2ERKS1_"
  },
  {
   "name":"_ZN6google8protobuf11DoubleValueC2Ev"
  },
  {
   "name":"_ZN6google8protobuf11DoubleValueD0Ev"
  },
  {
   "name":"_ZN6google8protobuf11DoubleValueD1Ev"
  },
  {
   "name":"_ZN6google8protobuf11DoubleValueD2Ev"
  },
  {
   "name":"_ZN6google8protobuf11EnumOptions10SharedCtorEv"
  },
  {
   "name":"_ZN6google8protobuf11EnumOptions10SharedDtorEv"
  },
  {
   "name":"_ZN6google8protobuf11EnumOptions10descriptorEv"
  },
  {
   "name":"_ZN6google8protobuf11EnumOptions12InternalSwapEPS1_"
  },
  {
   "name":"_ZN6google8protobuf11EnumOptions16default_instanceEv"
  },
  {
   "name":"_ZN6google8protobuf11EnumOptions21InitAsDefaultInstanceEv"
  },
  {
   "name":"_ZN6google8protobuf11EnumOptions27MergePartialFromCodedStreamEPNS0_2io16CodedInputStreamE"
  },
  {
   "name":"_ZN6google8protobuf11EnumOptions4SwapEPS1_"
  },
  {
   "name":"_ZN6google8protobuf11EnumOptions5ClearEv"
  },
  {
   "name":"_ZN6google8protobuf11EnumOptions8CopyFromERKNS0_7MessageE"
  },
  {
   "name":"_ZN6google8protobuf11EnumOptions8CopyFromERKS1_"
  },
  {
   "name":"_ZN6google8protobuf11EnumOptions9MergeFromERKNS0_7MessageE"
  },
  {
   "name":"_ZN6google8protobuf11EnumOptions9MergeFromERKS1_"
  },
  {
   "name":"_ZN6google8protobuf11EnumOptionsC1ERKS1_"
  },
  {
   "name":"_ZN6google8protobuf11EnumOptionsC1Ev"
  },
  {
   "name":"_ZN6google8protobuf11EnumOptionsC2ERKS1_"
  },
  {
   "name":"_ZN6google8protobuf11EnumOptionsC2Ev"
  },
  {
   "name":"_ZN6google8protobuf11EnumOptionsD0Ev"
  },
  {
   "name":"_ZN6google8protobuf11EnumOptionsD1Ev"
  },
  {
   "name":"_ZN6google8protobuf11EnumOptionsD2Ev"
  },
  {
   "name":"_ZN6google8protobuf11FileOptions10SharedCtorEv"
  },
  {
   "name":"_ZN6google8protobuf11FileOptions10SharedDtorEv"
  },
  {
   "name":"_ZN6google8protobuf11FileOptions10descriptorEv"
  },
  {
   "name":"_ZN6google8protobuf11FileOptions12InternalSwapEPS1_"
  },
  {
   "name":"_ZN6google8protobuf11FileOptions16default_instanceEv"
  },
  {
   "name":"_ZN6google8protobuf11FileOptions21InitAsDefaultInstanceEv"
  },
  {
   "name":"_ZN6google8protobuf11FileOptions27MergePartialFromCodedStreamEPNS0_2io16CodedInputStreamE"
  },
  {
   "name":"_ZN6google8protobuf11FileOptions4SwapEPS1_"
  },
  {
   "name":"_ZN6google8protobuf11FileOptions5ClearEv"
  },
  {
   "name":"_ZN6google8protobuf11FileOptions8CopyFromERKNS0_7MessageE"
  },
  {
   "name":"_ZN6google8protobuf11FileOptions8CopyFromERKS1_"
  },
  {
   "name":"_ZN6google8protobuf11FileOptions9MergeFromERKNS0_7MessageE"
  },
  {
   "name":"_ZN6google8protobuf11FileOptions9MergeFromERKS1_"
  },
  {
   "name":"_ZN6google8protobuf11FileOptionsC1ERKS1_"
  },
  {
   "name":"_ZN6google8protobuf11FileOptionsC1Ev"
  },
  {
   "name":"_ZN6google8protobuf11FileOptionsC2ERKS1_"
  },
  {
   "name":"_ZN6google8protobuf11FileOptionsC2Ev"
  },
  {
   "name":"_ZN6google8protobuf11FileOptionsD0Ev"
  },
  {
   "name":"_ZN6google8protobuf11FileOptionsD1Ev"
  },
  {
   "name":"_ZN6google8protobuf11FileOptionsD2Ev"
  },
  {
   "name":"_ZN6google8protobuf11JoinStringsERKNSt3__16vectorINS1_12basic_stringIcNS1_11char_traitsIcEENS1_9allocatorIcEEEENS6_IS8_EEEEPKcPS8_"
  },
  {
   "name":"_ZN6google8protobuf11LogSilencerC1Ev"
  },
  {
   "name":"_ZN6google8protobuf11LogSilencerC2Ev"
  },
  {
   "name":"_ZN6google8protobuf11LogSilencerD1Ev"
  },
  {
   "name":"_ZN6google8protobuf11LogSilencerD2Ev"
  },
  {
   "name":"_ZN6google8protobuf11MessageLite14ParseFromArrayEPKvi"
  },
  {
   "name":"_ZN6google8protobuf11MessageLite15ParseFromStringERKNSt3__112basic_stringIcNS2_11char_traitsIcEENS2_9allocatorIcEEEE"
  },
  {
   "name":"_ZN6google8protobuf11MessageLite20MergeFromCodedStreamEPNS0_2io16CodedInputStreamE"
  },
  {
   "name":"_ZN6google8protobuf11MessageLite20ParseFromCodedStreamEPNS0_2io16CodedInputStreamE"
  },
  {
   "name":"_ZN6google8protobuf11MessageLite21ParsePartialFromArrayEPKvi"
  },
  {
   "name":"_ZN6google8protobuf11MessageLite22ParsePartialFromStringERKNSt3__112basic_stringIcNS2_11char_traitsIcEENS2_9allocatorIcEEEE"
  },
  {
   "name":"_ZN6google8protobuf11MessageLite23ParseFromZeroCopyStreamEPNS0_2io19ZeroCopyInputStreamE"
  },
  {
   "name":"_ZN6google8protobuf11MessageLite27ParsePartialFromCodedStreamEPNS0_2io16CodedInputStreamE"
  },
  {
   "name":"_ZN6google8protobuf11MessageLite30ParseFromBoundedZeroCopyStreamEPNS0_2io19ZeroCopyInputStreamEi"
  },
  {
   "name":"_ZN6google8protobuf11MessageLite30ParsePartialFromZeroCopyStreamEPNS0_2io19ZeroCopyInputStreamE"
  },
  {
   "name":"_ZN6google8protobuf11MessageLite37ParsePartialFromBoundedZeroCopyStreamEPNS0_2io19ZeroCopyInputStreamEi"
  },
  {
   "name":"_ZN6google8protobuf11MessageLiteD0Ev"
  },
  {
   "name":"_ZN6google8protobuf11MessageLiteD1Ev"
  },
  {
   "name":"_ZN6google8protobuf11MessageLiteD2Ev"
  },
  {
   "name":"_ZN6google8protobuf11StringPiece14ConsumeFromEndES1_"
  },
  {
   "name":"_ZN6google8protobuf11StringPiece18LogFatalSizeTooBigEmPKc"
  },
  {
   "name":"_ZN6google8protobuf11StringPiece7ConsumeES1_"
  },
  {
   "name":"_ZN6google8protobuf11StringPieceC1ES1_l"
  },
  {
   "name":"_ZN6google8protobuf11StringPieceC1ES1_ll"
  },
  {
   "name":"_ZN6google8protobuf11StringPieceC2ES1_l"
  },
  {
   "name":"_ZN6google8protobuf11StringPieceC2ES1_ll"
  },
  {
   "name":"_ZN6google8protobuf11StringValue10SharedCtorEv"
  },
  {
   "name":"_ZN6google8protobuf11StringValue10SharedDtorEv"
  },
  {
   "name":"_ZN6google8protobuf11StringValue10descriptorEv"
  },
  {
   "name":"_ZN6google8protobuf11StringValue12InternalSwapEPS1_"
  },
  {
   "name":"_ZN6google8protobuf11StringValue15UnsafeArenaSwapEPS1_"
  },
  {
   "name":"_ZN6google8protobuf11StringValue16default_instanceEv"
  },
  {
   "name":"_ZN6google8protobuf11StringValue21InitAsDefaultInstanceEv"
  },
  {
   "name":"_ZN6google8protobuf11StringValue27MergePartialFromCodedStreamEPNS0_2io16CodedInputStreamE"
  },
  {
   "name":"_ZN6google8protobuf11StringValue4SwapEPS1_"
  },
  {
   "name":"_ZN6google8protobuf11StringValue5ClearEv"
  },
  {
   "name":"_ZN6google8protobuf11StringValue8CopyFromERKNS0_7MessageE"
  },
  {
   "name":"_ZN6google8protobuf11StringValue8CopyFromERKS1_"
  },
  {
   "name":"_ZN6google8protobuf11StringValue9ArenaDtorEPv"
  },
  {
   "name":"_ZN6google8protobuf11StringValue9MergeFromERKNS0_7MessageE"
  },
  {
   "name":"_ZN6google8protobuf11StringValue9MergeFromERKS1_"
  },
  {
   "name":"_ZN6google8protobuf11StringValueC1EPNS0_5ArenaE"
  },
  {
   "name":"_ZN6google8protobuf11StringValueC1ERKS1_"
  },
  {
   "name":"_ZN6google8protobuf11StringValueC1Ev"
  },
  {
   "name":"_ZN6google8protobuf11StringValueC2EPNS0_5ArenaE"
  },
  {
   "name":"_ZN6google8protobuf11StringValueC2ERKS1_"
  },
  {
   "name":"_ZN6google8protobuf11StringValueC2Ev"
  },
  {
   "name":"_ZN6google8protobuf11StringValueD0Ev"
  },
  {
   "name":"_ZN6google8protobuf11StringValueD1Ev"
  },
  {
   "name":"_ZN6google8protobuf11StringValueD2Ev"
  },
  {
   "name":"_ZN6google8protobuf11StripStringEPNSt3__112basic_stringIcNS1_11char_traitsIcEENS1_9allocatorIcEEEEPKcc"
  },
  {
   "name":"_ZN6google8protobuf11UInt32Value10SharedCtorEv"
  },
  {
   "name":"_ZN6google8protobuf11UInt32Value10SharedDtorEv"
  },
  {
   "name":"_ZN6google8protobuf11UInt32Value10descriptorEv"
  },
  {
   "name":"_ZN6google8protobuf11UInt32Value12InternalSwapEPS1_"
  },
  {
   "name":"_ZN6google8protobuf11UInt32Value15UnsafeArenaSwapEPS1_"
  },
  {
   "name":"_ZN6google8protobuf11UInt32Value16default_instanceEv"
  },
  {
   "name":"_ZN6google8protobuf11UInt32Value21InitAsDefaultInstanceEv"
  },
  {
   "name":"_ZN6google8protobuf11UInt32Value27MergePartialFromCodedStreamEPNS0_2io16CodedInputStreamE"
  },
  {
   "name":"_ZN6google8protobuf11UInt32Value4SwapEPS1_"
  },
  {
   "name":"_ZN6google8protobuf11UInt32Value5ClearEv"
  },
  {
   "name":"_ZN6google8protobuf11UInt32Value8CopyFromERKNS0_7MessageE"
  },
  {
   "name":"_ZN6google8protobuf11UInt32Value8CopyFromERKS1_"
  },
  {
   "name":"_ZN6google8protobuf11UInt32Value9ArenaDtorEPv"
  },
  {
   "name":"_ZN6google8protobuf11UInt32Value9MergeFromERKNS0_7MessageE"
  },
  {
   "name":"_ZN6google8protobuf11UInt32Value9MergeFromERKS1_"
  },
  {
   "name":"_ZN6google8protobuf11UInt32ValueC1EPNS0_5ArenaE"
  },
  {
   "name":"_ZN6google8protobuf11UInt32ValueC1ERKS1_"
  },
  {
   "name":"_ZN6google8protobuf11UInt32ValueC1Ev"
  },
  {
   "name":"_ZN6google8protobuf11UInt32ValueC2EPNS0_5ArenaE"
  },
  {
   "name":"_ZN6google8protobuf11UInt32ValueC2ERKS1_"
  },
  {
   "name":"_ZN6google8protobuf11UInt32ValueC2Ev"
  },
  {
   "name":"_ZN6google8protobuf11UInt32ValueD0Ev"
  },
  {
   "name":"_ZN6google8protobuf11UInt32ValueD1Ev"
  },
  {
   "name":"_ZN6google8protobuf11UInt32ValueD2Ev"
  },
  {
   "name":"_ZN6google8protobuf11UInt64Value10SharedCtorEv"
  },
  {
   "name":"_ZN6google8protobuf11UInt64Value10SharedDtorEv"
  },
  {
   "name":"_ZN6google8protobuf11UInt64Value10descriptorEv"
  },
  {
   "name":"_ZN6google8protobuf11UInt64Value12InternalSwapEPS1_"
  },
  {
   "name":"_ZN6google8protobuf11UInt64Value15UnsafeArenaSwapEPS1_"
  },
  {
   "name":"_ZN6google8protobuf11UInt64Value16default_instanceEv"
  },
  {
   "name":"_ZN6google8protobuf11UInt64Value21InitAsDefaultInstanceEv"
  },
  {
   "name":"_ZN6google8protobuf11UInt64Value27MergePartialFromCodedStreamEPNS0_2io16CodedInputStreamE"
  },
  {
   "name":"_ZN6google8protobuf11UInt64Value4SwapEPS1_"
  },
  {
   "name":"_ZN6google8protobuf11UInt64Value5ClearEv"
  },
  {
   "name":"_ZN6google8protobuf11UInt64Value8CopyFromERKNS0_7MessageE"
  },
  {
   "name":"_ZN6google8protobuf11UInt64Value8CopyFromERKS1_"
  },
  {
   "name":"_ZN6google8protobuf11UInt64Value9ArenaDtorEPv"
  },
  {
   "name":"_ZN6google8protobuf11UInt64Value9MergeFromERKNS0_7MessageE"
  },
  {
   "name":"_ZN6google8protobuf11UInt64Value9MergeFromERKS1_"
  },
  {
   "name":"_ZN6google8protobuf11UInt64ValueC1EPNS0_5ArenaE"
  },
  {
   "name":"_ZN6google8protobuf11UInt64ValueC1ERKS1_"
  },
  {
   "name":"_ZN6google8protobuf11UInt64ValueC1Ev"
  },
  {
   "name":"_ZN6google8protobuf11UInt64ValueC2EPNS0_5ArenaE"
  },
  {
   "name":"_ZN6google8protobuf11UInt64ValueC2ERKS1_"
  },
  {
   "name":"_ZN6google8protobuf11UInt64ValueC2Ev"
  },
  {
   "name":"_ZN6google8protobuf11UInt64ValueD0Ev"
  },
  {
   "name":"_ZN6google8protobuf11UInt64ValueD1Ev"
  },
  {
   "name":"_ZN6google8protobuf11UInt64ValueD2Ev"
  },
  {
   "name":"_ZN6google8protobuf11safe_strtobENS0_11StringPieceEPb"
  },
  {
   "name":"_ZN6google8protobuf11safe_strtodEPKcPd"
  },
  {
   "name":"_ZN6google8protobuf11safe_strtofEPKcPf"
  },
  {
   "name":"_ZN6google8protobuf12Base64EscapeENS0_11StringPieceEPNSt3__112basic_stringIcNS2_11char_traitsIcEENS2_9allocatorIcEEEE"
  },
  {
   "name":"_ZN6google8protobuf12Base64EscapeEPKhiPNSt3__112basic_stringIcNS3_11char_traitsIcEENS3_9allocatorIcEEEEb"
  },
  {
   "name":"_ZN6google8protobuf12Base64EscapeEPKhiPci"
  },
  {
   "name":"_ZN6google8protobuf12FieldOptions10SharedCtorEv"
  },
  {
   "name":"_ZN6google8protobuf12FieldOptions10SharedDtorEv"
  },
  {
   "name":"_ZN6google8protobuf12FieldOptions10descriptorEv"
  },
  {
   "name":"_ZN6google8protobuf12FieldOptions12InternalSwapEPS1_"
  },
  {
   "name":"_ZN6google8protobuf12FieldOptions16default_instanceEv"
  },
  {
   "name":"_ZN6google8protobuf12FieldOptions21InitAsDefaultInstanceEv"
  },
  {
   "name":"_ZN6google8protobuf12FieldOptions27MergePartialFromCodedStreamEPNS0_2io16CodedInputStreamE"
  },
  {
   "name":"_ZN6google8protobuf12FieldOptions4SwapEPS1_"
  },
  {
   "name":"_ZN6google8protobuf12FieldOptions5ClearEv"
  },
  {
   "name":"_ZN6google8protobuf12FieldOptions8CopyFromERKNS0_7MessageE"
  },
  {
   "name":"_ZN6google8protobuf12FieldOptions8CopyFromERKS1_"
  },
  {
   "name":"_ZN6google8protobuf12FieldOptions9MergeFromERKNS0_7MessageE"
  },
  {
   "name":"_ZN6google8protobuf12FieldOptions9MergeFromERKS1_"
  },
  {
   "name":"_ZN6google8protobuf12FieldOptionsC1ERKS1_"
  },
  {
   "name":"_ZN6google8protobuf12FieldOptionsC1Ev"
  },
  {
   "name":"_ZN6google8protobuf12FieldOptionsC2ERKS1_"
  },
  {
   "name":"_ZN6google8protobuf12FieldOptionsC2Ev"
  },
  {
   "name":"_ZN6google8protobuf12FieldOptionsD0Ev"
  },
  {
   "name":"_ZN6google8protobuf12FieldOptionsD1Ev"
  },
  {
   "name":"_ZN6google8protobuf12FieldOptionsD2Ev"
  },
  {
   "name":"_ZN6google8protobuf12StringPrintfEPKcz"
  },
  {
   "name":"_ZN6google8protobuf12UnknownField5ResetEv"
  },
  {
   "name":"_ZN6google8protobuf12UnknownField6DeleteEv"
  },
  {
   "name":"_ZN6google8protobuf12UnknownField8DeepCopyERKS1_"
  },
  {
   "name":"_ZN6google8protobuf12safe_strto32ERKNSt3__112basic_stringIcNS1_11char_traitsIcEENS1_9allocatorIcEEEEPi"
  },
  {
   "name":"_ZN6google8protobuf12safe_strto64ERKNSt3__112basic_stringIcNS1_11char_traitsIcEENS1_9allocatorIcEEEEPx"
  },
  {
   "name":"_ZN6google8protobuf13FloatToBufferEfPc"
  },
  {
   "name":"_ZN6google8protobuf13MethodOptions10SharedCtorEv"
  },
  {
   "name":"_ZN6google8protobuf13MethodOptions10SharedDtorEv"
  },
  {
   "name":"_ZN6google8protobuf13MethodOptions10descriptorEv"
  },
  {
   "name":"_ZN6google8protobuf13MethodOptions12InternalSwapEPS1_"
  },
  {
   "name":"_ZN6google8protobuf13MethodOptions16default_instanceEv"
  },
  {
   "name":"_ZN6google8protobuf13MethodOptions21InitAsDefaultInstanceEv"
  },
  {
   "name":"_ZN6google8protobuf13MethodOptions27MergePartialFromCodedStreamEPNS0_2io16CodedInputStreamE"
  },
  {
   "name":"_ZN6google8protobuf13MethodOptions4SwapEPS1_"
  },
  {
   "name":"_ZN6google8protobuf13MethodOptions5ClearEv"
  },
  {
   "name":"_ZN6google8protobuf13MethodOptions8CopyFromERKNS0_7MessageE"
  },
  {
   "name":"_ZN6google8protobuf13MethodOptions8CopyFromERKS1_"
  },
  {
   "name":"_ZN6google8protobuf13MethodOptions9MergeFromERKNS0_7MessageE"
  },
  {
   "name":"_ZN6google8protobuf13MethodOptions9MergeFromERKS1_"
  },
  {
   "name":"_ZN6google8protobuf13MethodOptionsC1ERKS1_"
  },
  {
   "name":"_ZN6google8protobuf13MethodOptionsC1Ev"
  },
  {
   "name":"_ZN6google8protobuf13MethodOptionsC2ERKS1_"
  },
  {
   "name":"_ZN6google8protobuf13MethodOptionsC2Ev"
  },
  {
   "name":"_ZN6google8protobuf13MethodOptionsD0Ev"
  },
  {
   "name":"_ZN6google8protobuf13MethodOptionsD1Ev"
  },
  {
   "name":"_ZN6google8protobuf13MethodOptionsD2Ev"
  },
  {
   "binding":"weak",
   "name":"_ZN6google8protobuf13RepeatedFieldIbE4SwapEPS2_"
  },
  {
   "binding":"weak",
   "name":"_ZN6google8protobuf13RepeatedFieldIbE7ReserveEi"
  },
  {
   "binding":"weak",
   "name":"_ZN6google8protobuf13RepeatedFieldIdE4SwapEPS2_"
  },
  {
   "binding":"weak",
   "name":"_ZN6google8protobuf13RepeatedFieldIdE7ReserveEi"
  },
  {
   "binding":"weak",
   "name":"_ZN6google8protobuf13RepeatedFieldIfE4SwapEPS2_"
  },
  {
   "binding":"weak",
   "name":"_ZN6google8protobuf13RepeatedFieldIfE7ReserveEi"
  },
  {
   "binding":"weak",
   "name":"_ZN6google8protobuf13RepeatedFieldIiE4SwapEPS2_"
  },
  {
   "binding":"weak",
   "name":"_ZN6google8protobuf13RepeatedFieldIiE7ReserveEi"
  },
  {
   "binding":"weak",
   "name":"_ZN6google8protobuf13RepeatedFieldIjE4SwapEPS2_"
  },
  {
   "binding":"weak",
   "name":"_ZN6google8protobuf13RepeatedFieldIjE7ReserveEi"
  },
  {
   "binding":"weak",
   "name":"_ZN6google8protobuf13RepeatedFieldIxE4SwapEPS2_"
  },
  {
   "binding":"weak",
   "name":"_ZN6google8protobuf13RepeatedFieldIxE7ReserveEi"
  },
  {
   "binding":"weak",
   "name":"_ZN6google8protobuf13RepeatedFieldIyE4SwapEPS2_"
  },
  {
   "binding":"weak",
   "name":"_ZN6google8protobuf13RepeatedFieldIyE7ReserveEi"
  },
  {
   "name":"_ZN6google8protobuf13RpcControllerD0Ev"
  },
  {
   "name":"_ZN6google8protobuf13RpcControllerD1Ev"
  },
  {
   "name":"_ZN6google8protobuf13RpcControllerD2Ev"
  },
  {
   "name":"_ZN6google8protobuf13SStringPrintfEPNSt3__112basic_stringIcNS1_11char_traitsIcEENS1_9allocatorIcEEEEPKcz"
  },
  {
   "name":"_ZN6google8protobuf13SetLogHandlerEPFvNS0_8LogLevelEPKciRKNSt3__112basic_stringIcNS4_11char_traitsIcEENS4_9allocatorIcEEEEE"
  },
  {
   "name":"_ZN6google8protobuf13SourceContext10SharedCtorEv"
  },
  {
   "name":"_ZN6google8protobuf13SourceContext10SharedDtorEv"
  },
  {
   "name":"_ZN6google8protobuf13SourceContext10descriptorEv"
  },
  {
   "name":"_ZN6google8protobuf13SourceContext12InternalSwapEPS1_"
  },
  {
   "name":"_ZN6google8protobuf13SourceContext16default_instanceEv"
  },
  {
   "name":"_ZN6google8protobuf13SourceContext21InitAsDefaultInstanceEv"
  },
  {
   "name":"_ZN6google8protobuf13SourceContext27MergePartialFromCodedStreamEPNS0_2io16CodedInputStreamE"
  },
  {
   "name":"_ZN6google8protobuf13SourceContext4SwapEPS1_"
  },
  {
   "name":"_ZN6google8protobuf13SourceContext5ClearEv"
  },
  {
   "name":"_ZN6google8protobuf13SourceContext8CopyFromERKNS0_7MessageE"
  },
  {
   "name":"_ZN6google8protobuf13SourceContext8CopyFromERKS1_"
  },
  {
   "name":"_ZN6google8protobuf13SourceContext9MergeFromERKNS0_7MessageE"
  },
  {
   "name":"_ZN6google8protobuf13SourceContext9MergeFromERKS1_"
  },
  {
   "name":"_ZN6google8protobuf13SourceContextC1ERKS1_"
  },
  {
   "name":"_ZN6google8protobuf13SourceContextC1Ev"
  },
  {
   "name":"_ZN6google8protobuf13SourceContextC2ERKS1_"
  },
  {
   "name":"_ZN6google8protobuf13SourceContextC2Ev"
  },
  {
   "name":"_ZN6google8protobuf13SourceContextD0Ev"
  },
  {
   "name":"_ZN6google8protobuf13SourceContextD1Ev"
  },
  {
   "name":"_ZN6google8protobuf13SourceContextD2Ev"
  },
  {
   "name":"_ZN6google8protobuf13StringAppendFEPNSt3__112basic_stringIcNS1_11char_traitsIcEENS1_9allocatorIcEEEEPKcz"
  },
  {
   "name":"_ZN6google8protobuf13StringAppendVEPNSt3__112basic_stringIcNS1_11char_traitsIcEENS1_9allocatorIcEEEEPKcP13__va_list_tag"
  },
  {
   "name":"_ZN6google8protobuf13StringReplaceERKNSt3__112basic_stringIcNS1_11char_traitsIcEENS1_9allocatorIcEEEES9_S9_b"
  },
  {
   "name":"_ZN6google8protobuf13safe_strtou32ERKNSt3__112basic_stringIcNS1_11char_traitsIcEENS1_9allocatorIcEEEEPj"
  },
  {
   "name":"_ZN6google8protobuf13safe_strtou64ERKNSt3__112basic_stringIcNS1_11char_traitsIcEENS1_9allocatorIcEEEEPy"
  },
  {
   "name":"_ZN6google8protobuf14Base64UnescapeENS0_11StringPieceEPNSt3__112basic_stringIcNS2_11char_traitsIcEENS2_9allocatorIcEEEE"
  },
  {
   "name":"_ZN6google8protobuf14DescriptorPool14ErrorCollectorD0Ev"
  },
  {
   "name":"_ZN6google8protobuf14DescriptorPool14ErrorCollectorD1Ev"
  },
  {
   "name":"_ZN6google8protobuf14DescriptorPool14ErrorCollectorD2Ev"
  },
  {
   "name":"_ZN6google8protobuf14DescriptorPool14generated_poolEv"
  },
  {
   "name":"_ZN6google8protobuf14DescriptorPool23internal_generated_poolEv"
  },
  {
   "name":"_ZN6google8protobuf14DescriptorPool24AddUnusedImportTrackFileERKNSt3__112basic_stringIcNS2_11char_traitsIcEENS2_9allocatorIcEEEE"
  },
  {
   "name":"_ZN6google8protobuf14DescriptorPool24InternalAddGeneratedFileEPKvi"
  },
  {
   "name":"_ZN6google8protobuf14DescriptorPool25BuildFileCollectingErrorsERKNS0_19FileDescriptorProtoEPNS1_14ErrorCollectorE"
  },
  {
   "name":"_ZN6google8protobuf14DescriptorPool27ClearUnusedImportTrackFilesEv"
  },
  {
   "name":"_ZN6google8protobuf14DescriptorPool31InternalDontEnforceDependenciesEv"
  },
  {
   "name":"_ZN6google8protobuf14DescriptorPool9BuildFileERKNS0_19FileDescriptorProtoE"
  },
  {
   "name":"_ZN6google8protobuf14DescriptorPoolC1EPKS1_"
  },
  {
   "name":"_ZN6google8protobuf14DescriptorPoolC1EPNS0_18DescriptorDatabaseEPNS1_14ErrorCollectorE"
  },
  {
   "name":"_ZN6google8protobuf14DescriptorPoolC1Ev"
  },
  {
   "name":"_ZN6google8protobuf14DescriptorPoolC2EPKS1_"
  },
  {
   "name":"_ZN6google8protobuf14DescriptorPoolC2EPNS0_18DescriptorDatabaseEPNS1_14ErrorCollectorE"
  },
  {
   "name":"_ZN6google8protobuf14DescriptorPoolC2Ev"
  },
  {
   "name":"_ZN6google8protobuf14DescriptorPoolD1Ev"
  },
  {
   "name":"_ZN6google8protobuf14DescriptorPoolD2Ev"
  },
  {
   "name":"_ZN6google8protobuf14DoubleToBufferEdPc"
  },
  {
   "name":"_ZN6google8protobuf14FileDescriptor10SyntaxNameENS1_6SyntaxE"
  },
  {
   "name":"_ZN6google8protobuf14MessageFactory17generated_factoryEv"
  },
  {
   "name":"_ZN6google8protobuf14MessageFactory29InternalRegisterGeneratedFileEPKcPFvRKNSt3__112basic_stringIcNS4_11char_traitsIcEENS4_9allocatorIcEEEEE"
  },
  {
   "name":"_ZN6google8protobuf14MessageFactory32InternalRegisterGeneratedMessageEPKNS0_10DescriptorEPKNS0_7MessageE"
  },
  {
   "name":"_ZN6google8protobuf14MessageFactoryD0Ev"
  },
  {
   "name":"_ZN6google8protobuf14MessageFactoryD1Ev"
  },
  {
   "name":"_ZN6google8protobuf14MessageFactoryD2Ev"
  },
  {
   "name":"_ZN6google8protobuf14MessageOptions10SharedCtorEv"
  },
  {
   "name":"_ZN6google8protobuf14MessageOptions10SharedDtorEv"
  },
  {
   "name":"_ZN6google8protobuf14MessageOptions10descriptorEv"
  },
  {
   "name":"_ZN6google8protobuf14MessageOptions12InternalSwapEPS1_"
  },
  {
   "name":"_ZN6google8protobuf14MessageOptions16default_instanceEv"
  },
  {
   "name":"_ZN6google8protobuf14MessageOptions21InitAsDefaultInstanceEv"
  },
  {
   "name":"_ZN6google8protobuf14MessageOptions27MergePartialFromCodedStreamEPNS0_2io16CodedInputStreamE"
  },
  {
   "name":"_ZN6google8protobuf14MessageOptions4SwapEPS1_"
  },
  {
   "name":"_ZN6google8protobuf14MessageOptions5ClearEv"
  },
  {
   "name":"_ZN6google8protobuf14MessageOptions8CopyFromERKNS0_7MessageE"
  },
  {
   "name":"_ZN6google8protobuf14MessageOptions8CopyFromERKS1_"
  },
  {
   "name":"_ZN6google8protobuf14MessageOptions9MergeFromERKNS0_7MessageE"
  },
  {
   "name":"_ZN6google8protobuf14MessageOptions9MergeFromERKS1_"
  },
  {
   "name":"_ZN6google8protobuf14MessageOptionsC1ERKS1_"
  },
  {
   "name":"_ZN6google8protobuf14MessageOptionsC1Ev"
  },
  {
   "name":"_ZN6google8protobuf14MessageOptionsC2ERKS1_"
  },
  {
   "name":"_ZN6google8protobuf14MessageOptionsC2Ev"
  },
  {
   "name":"_ZN6google8protobuf14MessageOptionsD0Ev"
  },
  {
   "name":"_ZN6google8protobuf14MessageOptionsD1Ev"
  },
  {
   "name":"_ZN6google8protobuf14MessageOptionsD2Ev"
  },
  {
   "name":"_ZN6google8protobuf14ServiceOptions10SharedCtorEv"
  },
  {
   "name":"_ZN6google8protobuf14ServiceOptions10SharedDtorEv"
  },
  {
   "name":"_ZN6google8protobuf14ServiceOptions10descriptorEv"
  },
  {
   "name":"_ZN6google8protobuf14ServiceOptions12InternalSwapEPS1_"
  },
  {
   "name":"_ZN6google8protobuf14ServiceOptions16default_instanceEv"
  },
  {
   "name":"_ZN6google8protobuf14ServiceOptions21InitAsDefaultInstanceEv"
  },
  {
   "name":"_ZN6google8protobuf14ServiceOptions27MergePartialFromCodedStreamEPNS0_2io16CodedInputStreamE"
  },
  {
   "name":"_ZN6google8protobuf14ServiceOptions4SwapEPS1_"
  },
  {
   "name":"_ZN6google8protobuf14ServiceOptions5ClearEv"
  },
  {
   "name":"_ZN6google8protobuf14ServiceOptions8CopyFromERKNS0_7MessageE"
  },
  {
   "name":"_ZN6google8protobuf14ServiceOptions8CopyFromERKS1_"
  },
  {
   "name":"_ZN6google8protobuf14ServiceOptions9MergeFromERKNS0_7MessageE"
  },
  {
   "name":"_ZN6google8protobuf14ServiceOptions9MergeFromERKS1_"
  },
  {
   "name":"_ZN6google8protobuf14ServiceOptionsC1ERKS1_"
  },
  {
   "name":"_ZN6google8protobuf14ServiceOptionsC1Ev"
  },
  {
   "name":"_ZN6google8protobuf14ServiceOptionsC2ERKS1_"
  },
  {
   "name":"_ZN6google8protobuf14ServiceOptionsC2Ev"
  },
  {
   "name":"_ZN6google8protobuf14ServiceOptionsD0Ev"
  },
  {
   "name":"_ZN6google8protobuf14ServiceOptionsD1Ev"
  },
  {
   "name":"_ZN6google8protobuf14ServiceOptionsD2Ev"
  },
  {
   "name":"_ZN6google8protobuf14SourceCodeInfo10SharedCtorEv"
  },
  {
   "name":"_ZN6google8protobuf14SourceCodeInfo10SharedDtorEv"
  },
  {
   "name":"_ZN6google8protobuf14SourceCodeInfo10descriptorEv"
  },
  {
   "name":"_ZN6google8protobuf14SourceCodeInfo12InternalSwapEPS1_"
  },
  {
   "name":"_ZN6google8protobuf14SourceCodeInfo16default_instanceEv"
  },
  {
   "name":"_ZN6google8protobuf14SourceCodeInfo21InitAsDefaultInstanceEv"
  },
  {
   "name":"_ZN6google8protobuf14SourceCodeInfo27MergePartialFromCodedStreamEPNS0_2io16CodedInputStreamE"
  },
  {
   "name":"_ZN6google8protobuf14SourceCodeInfo4SwapEPS1_"
  },
  {
   "name":"_ZN6google8protobuf14SourceCodeInfo5ClearEv"
  },
  {
   "name":"_ZN6google8protobuf14SourceCodeInfo8CopyFromERKNS0_7MessageE"
  },
  {
   "name":"_ZN6google8protobuf14SourceCodeInfo8CopyFromERKS1_"
  },
  {
   "name":"_ZN6google8protobuf14SourceCodeInfo9MergeFromERKNS0_7MessageE"
  },
  {
   "name":"_ZN6google8protobuf14SourceCodeInfo9MergeFromERKS1_"
  },
  {
   "name":"_ZN6google8protobuf14SourceCodeInfoC1ERKS1_"
  },
  {
   "name":"_ZN6google8protobuf14SourceCodeInfoC1Ev"
  },
  {
   "name":"_ZN6google8protobuf14SourceCodeInfoC2ERKS1_"
  },
  {
   "name":"_ZN6google8protobuf14SourceCodeInfoC2Ev"
  },
  {
   "name":"_ZN6google8protobuf14SourceCodeInfoD0Ev"
  },
  {
   "name":"_ZN6google8protobuf14SourceCodeInfoD1Ev"
  },
  {
   "name":"_ZN6google8protobuf14SourceCodeInfoD2Ev"
  },
  {
   "name":"_ZN6google8protobuf14Syntax_IsValidEi"
  },
  {
   "name":"_ZN6google8protobuf15DescriptorProto10SharedCtorEv"
  },
  {
   "name":"_ZN6google8protobuf15DescriptorProto10SharedDtorEv"
  },
  {
   "name":"_ZN6google8protobuf15DescriptorProto10descriptorEv"
  },
  {
   "name":"_ZN6google8protobuf15DescriptorProto12InternalSwapEPS1_"
  },
  {
   "name":"_ZN6google8protobuf15DescriptorProto16default_instanceEv"
  },
  {
   "name":"_ZN6google8protobuf15DescriptorProto21InitAsDefaultInstanceEv"
  },
  {
   "name":"_ZN6google8protobuf15DescriptorProto27MergePartialFromCodedStreamEPNS0_2io16CodedInputStreamE"
  },
  {
   "name":"_ZN6google8protobuf15DescriptorProto4SwapEPS1_"
  },
  {
   "name":"_ZN6google8protobuf15DescriptorProto5ClearEv"
  },
  {
   "name":"_ZN6google8protobuf15DescriptorProto8CopyFromERKNS0_7MessageE"
  },
  {
   "name":"_ZN6google8protobuf15DescriptorProto8CopyFromERKS1_"
  },
  {
   "name":"_ZN6google8protobuf15DescriptorProto9MergeFromERKNS0_7MessageE"
  },
  {
   "name":"_ZN6google8protobuf15DescriptorProto9MergeFromERKS1_"
  },
  {
   "name":"_ZN6google8protobuf15DescriptorProtoC1ERKS1_"
  },
  {
   "name":"_ZN6google8protobuf15DescriptorProtoC1Ev"
  },
  {
   "name":"_ZN6google8protobuf15DescriptorProtoC2ERKS1_"
  },
  {
   "name":"_ZN6google8protobuf15DescriptorProtoC2Ev"
  },
  {
   "name":"_ZN6google8protobuf15DescriptorProtoD0Ev"
  },
  {
   "name":"_ZN6google8protobuf15DescriptorProtoD1Ev"
  },
  {
   "name":"_ZN6google8protobuf15DescriptorProtoD2Ev"
  },
  {
   "name":"_ZN6google8protobuf15FastHexToBufferEiPc"
  },
  {
   "name":"_ZN6google8protobuf15StripWhitespaceEPNSt3__112basic_stringIcNS1_11char_traitsIcEENS1_9allocatorIcEEEE"
  },
  {
   "name":"_ZN6google8protobuf15UnknownFieldSet10AddFixed32Eij"
  },
  {
   "name":"_ZN6google8protobuf15UnknownFieldSet10AddFixed64Eiy"
  },
  {
   "name":"_ZN6google8protobuf15UnknownFieldSet13ClearFallbackEv"
  },
  {
   "name":"_ZN6google8protobuf15UnknownFieldSet14DeleteByNumberEi"
  },
  {
   "name":"_ZN6google8protobuf15UnknownFieldSet14DeleteSubrangeEii"
  },
  {
   "name":"_ZN6google8protobuf15UnknownFieldSet14ParseFromArrayEPKvi"
  },
  {
   "name":"_ZN6google8protobuf15UnknownFieldSet16default_instanceEv"
  },
  {
   "name":"_ZN6google8protobuf15UnknownFieldSet17InternalMergeFromERKS1_"
  },
  {
   "name":"_ZN6google8protobuf15UnknownFieldSet18AddLengthDelimitedEi"
  },
  {
   "name":"_ZN6google8protobuf15UnknownFieldSet18ClearAndFreeMemoryEv"
  },
  {
   "name":"_ZN6google8protobuf15UnknownFieldSet19MergeFromAndDestroyEPS1_"
  },
  {
   "name":"_ZN6google8protobuf15UnknownFieldSet20MergeFromCodedStreamEPNS0_2io16CodedInputStreamE"
  },
  {
   "name":"_ZN6google8protobuf15UnknownFieldSet20ParseFromCodedStreamEPNS0_2io16CodedInputStreamE"
  },
  {
   "name":"_ZN6google8protobuf15UnknownFieldSet23ParseFromZeroCopyStreamEPNS0_2io19ZeroCopyInputStreamE"
  },
  {
   "name":"_ZN6google8protobuf15UnknownFieldSet8AddFieldERKNS0_12UnknownFieldE"
  },
  {
   "name":"_ZN6google8protobuf15UnknownFieldSet8AddGroupEi"
  },
  {
   "name":"_ZN6google8protobuf15UnknownFieldSet9AddVarintEiy"
  },
  {
   "name":"_ZN6google8protobuf15UnknownFieldSet9MergeFromERKS1_"
  },
  {
   "name":"_ZN6google8protobuf15UnknownFieldSetC1Ev"
  },
  {
   "name":"_ZN6google8protobuf15UnknownFieldSetC2Ev"
  },
  {
   "name":"_ZN6google8protobuf15UnknownFieldSetD1Ev"
  },
  {
   "name":"_ZN6google8protobuf15UnknownFieldSetD2Ev"
  },
  {
   "name":"_ZN6google8protobuf15strto32_adaptorEPKcPPci"
  },
  {
   "name":"_ZN6google8protobuf16CEscapeAndAppendENS0_11StringPieceEPNSt3__112basic_stringIcNS2_11char_traitsIcEENS2_9allocatorIcEEEE"
  },
  {
   "name":"_ZN6google8protobuf16EncodeAsUTF8CharEjPc"
  },
  {
   "name":"_ZN6google8protobuf16EnumValueOptions10SharedCtorEv"
  },
  {
   "name":"_ZN6google8protobuf16EnumValueOptions10SharedDtorEv"
  },
  {
   "name":"_ZN6google8protobuf16EnumValueOptions10descriptorEv"
  },
  {
   "name":"_ZN6google8protobuf16EnumValueOptions12InternalSwapEPS1_"
  },
  {
   "name":"_ZN6google8protobuf16EnumValueOptions16default_instanceEv"
  },
  {
   "name":"_ZN6google8protobuf16EnumValueOptions21InitAsDefaultInstanceEv"
  },
  {
   "name":"_ZN6google8protobuf16EnumValueOptions27MergePartialFromCodedStreamEPNS0_2io16CodedInputStreamE"
  },
  {
   "name":"_ZN6google8protobuf16EnumValueOptions4SwapEPS1_"
  },
  {
   "name":"_ZN6google8protobuf16EnumValueOptions5ClearEv"
  },
  {
   "name":"_ZN6google8protobuf16EnumValueOptions8CopyFromERKNS0_7MessageE"
  },
  {
   "name":"_ZN6google8protobuf16EnumValueOptions8CopyFromERKS1_"
  },
  {
   "name":"_ZN6google8protobuf16EnumValueOptions9MergeFromERKNS0_7MessageE"
  },
  {
   "name":"_ZN6google8protobuf16EnumValueOptions9MergeFromERKS1_"
  },
  {
   "name":"_ZN6google8protobuf16EnumValueOptionsC1ERKS1_"
  },
  {
   "name":"_ZN6google8protobuf16EnumValueOptionsC1Ev"
  },
  {
   "name":"_ZN6google8protobuf16EnumValueOptionsC2ERKS1_"
  },
  {
   "name":"_ZN6google8protobuf16EnumValueOptionsC2Ev"
  },
  {
   "name":"_ZN6google8protobuf16EnumValueOptionsD0Ev"
  },
  {
   "name":"_ZN6google8protobuf16EnumValueOptionsD1Ev"
  },
  {
   "name":"_ZN6google8protobuf16EnumValueOptionsD2Ev"
  },
  {
   "name":"_ZN6google8protobuf16SplitStringUsingERKNSt3__112basic_stringIcNS1_11char_traitsIcEENS1_9allocatorIcEEEEPKcPNS1_6vectorIS7_NS5_IS7_EEEE"
  },
  {
   "name":"_ZN6google8protobuf16strtou32_adaptorEPKcPPci"
  },
  {
   "name":"_ZN6google8protobuf17FastHex32ToBufferEjPc"
  },
  {
   "name":"_ZN6google8protobuf17FastHex64ToBufferEyPc"
  },
  {
   "name":"_ZN6google8protobuf17FastInt32ToBufferEiPc"
  },
  {
   "name":"_ZN6google8protobuf17FastInt64ToBufferExPc"
  },
  {
   "name":"_ZN6google8protobuf17FileDescriptorSet10SharedCtorEv"
  },
  {
   "name":"_ZN6google8protobuf17FileDescriptorSet10SharedDtorEv"
  },
  {
   "name":"_ZN6google8protobuf17FileDescriptorSet10descriptorEv"
  },
  {
   "name":"_ZN6google8protobuf17FileDescriptorSet12InternalSwapEPS1_"
  },
  {
   "name":"_ZN6google8protobuf17FileDescriptorSet16default_instanceEv"
  },
  {
   "name":"_ZN6google8protobuf17FileDescriptorSet21InitAsDefaultInstanceEv"
  },
  {
   "name":"_ZN6google8protobuf17FileDescriptorSet27MergePartialFromCodedStreamEPNS0_2io16CodedInputStreamE"
  },
  {
   "name":"_ZN6google8protobuf17FileDescriptorSet4SwapEPS1_"
  },
  {
   "name":"_ZN6google8protobuf17FileDescriptorSet5ClearEv"
  },
  {
   "name":"_ZN6google8protobuf17FileDescriptorSet8CopyFromERKNS0_7MessageE"
  },
  {
   "name":"_ZN6google8protobuf17FileDescriptorSet8CopyFromERKS1_"
  },
  {
   "name":"_ZN6google8protobuf17FileDescriptorSet9MergeFromERKNS0_7MessageE"
  },
  {
   "name":"_ZN6google8protobuf17FileDescriptorSet9MergeFromERKS1_"
  },
  {
   "name":"_ZN6google8protobuf17FileDescriptorSetC1ERKS1_"
  },
  {
   "name":"_ZN6google8protobuf17FileDescriptorSetC1Ev"
  },
  {
   "name":"_ZN6google8protobuf17FileDescriptorSetC2ERKS1_"
  },
  {
   "name":"_ZN6google8protobuf17FileDescriptorSetC2Ev"
  },
  {
   "name":"_ZN6google8protobuf17FileDescriptorSetD0Ev"
  },
  {
   "name":"_ZN6google8protobuf17FileDescriptorSetD1Ev"
  },
  {
   "name":"_ZN6google8protobuf17FileDescriptorSetD2Ev"
  },
  {
   "name":"_ZN6google8protobuf17GeneratedCodeInfo10SharedCtorEv"
  },
  {
   "name":"_ZN6google8protobuf17GeneratedCodeInfo10SharedDtorEv"
  },
  {
   "name":"_ZN6google8protobuf17GeneratedCodeInfo10descriptorEv"
  },
  {
   "name":"_ZN6google8protobuf17GeneratedCodeInfo12InternalSwapEPS1_"
  },
  {
   "name":"_ZN6google8protobuf17GeneratedCodeInfo16default_instanceEv"
  },
  {
   "name":"_ZN6google8protobuf17GeneratedCodeInfo21InitAsDefaultInstanceEv"
  },
  {
   "name":"_ZN6google8protobuf17GeneratedCodeInfo27MergePartialFromCodedStreamEPNS0_2io16CodedInputStreamE"
  },
  {
   "name":"_ZN6google8protobuf17GeneratedCodeInfo4SwapEPS1_"
  },
  {
   "name":"_ZN6google8protobuf17GeneratedCodeInfo5ClearEv"
  },
  {
   "name":"_ZN6google8protobuf17GeneratedCodeInfo8CopyFromERKNS0_7MessageE"
  },
  {
   "name":"_ZN6google8protobuf17GeneratedCodeInfo8CopyFromERKS1_"
  },
  {
   "name":"_ZN6google8protobuf17GeneratedCodeInfo9MergeFromERKNS0_7MessageE"
  },
  {
   "name":"_ZN6google8protobuf17GeneratedCodeInfo9MergeFromERKS1_"
  },
  {
   "name":"_ZN6google8protobuf17GeneratedCodeInfoC1ERKS1_"
  },
  {
   "name":"_ZN6google8protobuf17GeneratedCodeInfoC1Ev"
  },
  {
   "name":"_ZN6google8protobuf17GeneratedCodeInfoC2ERKS1_"
  },
  {
   "name":"_ZN6google8protobuf17GeneratedCodeInfoC2Ev"
  },
  {
   "name":"_ZN6google8protobuf17GeneratedCodeInfoD0Ev"
  },
  {
   "name":"_ZN6google8protobuf17GeneratedCodeInfoD1Ev"
  },
  {
   "name":"_ZN6google8protobuf17GeneratedCodeInfoD2Ev"
  },
  {
   "name":"_ZN6google8protobuf17NullValue_IsValidEi"
  },
  {
   "name":"_ZN6google8protobuf17Syntax_descriptorEv"
  },
  {
   "name":"_ZN6google8protobuf18DescriptorDatabaseD0Ev"
  },
  {
   "name":"_ZN6google8protobuf18DescriptorDatabaseD1Ev"
  },
  {
   "name":"_ZN6google8protobuf18DescriptorDatabaseD2Ev"
  },
  {
   "name":"_ZN6google8protobuf18Field_Kind_IsValidEi"
  },
  {
   "name":"_ZN6google8protobuf18GoogleOnceInitImplEPlPNS0_7ClosureE"
  },
  {
   "binding":"weak",
   "name":"_ZN6google8protobuf18InsertIfNotPresentINS0_8hash_mapINSt3__14pairIPKNS0_11MessageLiteEiEENS0_8internal13ExtensionInfoENS0_4hashIS8_EENS3_8equal_toIS8_EENS3_9allocatorINS4_IKS8_SA_EEEEEEEEbPT_RKNSK_10value_type10first_typeERKNSK_10value_type11second_typeE"
  },
  {
   "binding":"weak",
   "name":"_ZN6google8protobuf18InsertIfNotPresentINSt3__13mapINS2_12basic_stringIcNS2_11char_traitsIcEENS2_9allocatorIcEEEENS2_4pairIPKviEENS2_4lessIS9_EENS7_INSA_IKS9_SD_EEEEEEEEbPT_RKNSK_10value_type10first_typeERKNSK_10value_type11second_typeE"
  },
  {
   "binding":"weak",
   "name":"_ZN6google8protobuf18InsertIfNotPresentINSt3__13mapINS2_4pairIPKNS0_10DescriptorEiEEPKNS0_15FieldDescriptorENS2_4lessIS8_EENS2_9allocatorINS4_IKS8_SB_EEEEEEEEbPT_RKNSJ_10value_type10first_typeERKNSJ_10value_type11second_typeE"
  },
  {
   "name":"_ZN6google8protobuf18StringPrintfVectorEPKcRKNSt3__16vectorINS3_12basic_stringIcNS3_11char_traitsIcEENS3_9allocatorIcEEEENS8_ISA_EEEE"
  },
  {
   "name":"_ZN6google8protobuf19EnumDescriptorProto10SharedCtorEv"
  },
  {
   "name":"_ZN6google8protobuf19EnumDescriptorProto10SharedDtorEv"
  },
  {
   "name":"_ZN6google8protobuf19EnumDescriptorProto10descriptorEv"
  },
  {
   "name":"_ZN6google8protobuf19EnumDescriptorProto12InternalSwapEPS1_"
  },
  {
   "name":"_ZN6google8protobuf19EnumDescriptorProto16default_instanceEv"
  },
  {
   "name":"_ZN6google8protobuf19EnumDescriptorProto21InitAsDefaultInstanceEv"
  },
  {
   "name":"_ZN6google8protobuf19EnumDescriptorProto27MergePartialFromCodedStreamEPNS0_2io16CodedInputStreamE"
  },
  {
   "name":"_ZN6google8protobuf19EnumDescriptorProto4SwapEPS1_"
  },
  {
   "name":"_ZN6google8protobuf19EnumDescriptorProto5ClearEv"
  },
  {
   "name":"_ZN6google8protobuf19EnumDescriptorProto8CopyFromERKNS0_7MessageE"
  },
  {
   "name":"_ZN6google8protobuf19EnumDescriptorProto8CopyFromERKS1_"
  },
  {
   "name":"_ZN6google8protobuf19EnumDescriptorProto9MergeFromERKNS0_7MessageE"
  },
  {
   "name":"_ZN6google8protobuf19EnumDescriptorProto9MergeFromERKS1_"
  },
  {
   "name":"_ZN6google8protobuf19EnumDescriptorProtoC1ERKS1_"
  },
  {
   "name":"_ZN6google8protobuf19EnumDescriptorProtoC1Ev"
  },
  {
   "name":"_ZN6google8protobuf19EnumDescriptorProtoC2ERKS1_"
  },
  {
   "name":"_ZN6google8protobuf19EnumDescriptorProtoC2Ev"
  },
  {
   "name":"_ZN6google8protobuf19EnumDescriptorProtoD0Ev"
  },
  {
   "name":"_ZN6google8protobuf19EnumDescriptorProtoD1Ev"
  },
  {
   "name":"_ZN6google8protobuf19EnumDescriptorProtoD2Ev"
  },
  {
   "name":"_ZN6google8protobuf19FileDescriptorProto10SharedCtorEv"
  },
  {
   "name":"_ZN6google8protobuf19FileDescriptorProto10SharedDtorEv"
  },
  {
   "name":"_ZN6google8protobuf19FileDescriptorProto10descriptorEv"
  },
  {
   "name":"_ZN6google8protobuf19FileDescriptorProto12InternalSwapEPS1_"
  },
  {
   "name":"_ZN6google8protobuf19FileDescriptorProto16default_instanceEv"
  },
  {
   "name":"_ZN6google8protobuf19FileDescriptorProto21InitAsDefaultInstanceEv"
  },
  {
   "name":"_ZN6google8protobuf19FileDescriptorProto27MergePartialFromCodedStreamEPNS0_2io16CodedInputStreamE"
  },
  {
   "name":"_ZN6google8protobuf19FileDescriptorProto4SwapEPS1_"
  },
  {
   "name":"_ZN6google8protobuf19FileDescriptorProto5ClearEv"
  },
  {
   "name":"_ZN6google8protobuf19FileDescriptorProto8CopyFromERKNS0_7MessageE"
  },
  {
   "name":"_ZN6google8protobuf19FileDescriptorProto8CopyFromERKS1_"
  },
  {
   "name":"_ZN6google8protobuf19FileDescriptorProto9MergeFromERKNS0_7MessageE"
  },
  {
   "name":"_ZN6google8protobuf19FileDescriptorProto9MergeFromERKS1_"
  },
  {
   "name":"_ZN6google8protobuf19FileDescriptorProtoC1ERKS1_"
  },
  {
   "name":"_ZN6google8protobuf19FileDescriptorProtoC1Ev"
  },
  {
   "name":"_ZN6google8protobuf19FileDescriptorProtoC2ERKS1_"
  },
  {
   "name":"_ZN6google8protobuf19FileDescriptorProtoC2Ev"
  },
  {
   "name":"_ZN6google8protobuf19FileDescriptorProtoD0Ev"
  },
  {
   "name":"_ZN6google8protobuf19FileDescriptorProtoD1Ev"
  },
  {
   "name":"_ZN6google8protobuf19FileDescriptorProtoD2Ev"
  },
  {
   "name":"_ZN6google8protobuf19UninterpretedOption10SharedCtorEv"
  },
  {
   "name":"_ZN6google8protobuf19UninterpretedOption10SharedDtorEv"
  },
  {
   "name":"_ZN6google8protobuf19UninterpretedOption10descriptorEv"
  },
  {
   "name":"_ZN6google8protobuf19UninterpretedOption12InternalSwapEPS1_"
  },
  {
   "name":"_ZN6google8protobuf19UninterpretedOption16default_instanceEv"
  },
  {
   "name":"_ZN6google8protobuf19UninterpretedOption21InitAsDefaultInstanceEv"
  },
  {
   "name":"_ZN6google8protobuf19UninterpretedOption27MergePartialFromCodedStreamEPNS0_2io16CodedInputStreamE"
  },
  {
   "name":"_ZN6google8protobuf19UninterpretedOption4SwapEPS1_"
  },
  {
   "name":"_ZN6google8protobuf19UninterpretedOption5ClearEv"
  },
  {
   "name":"_ZN6google8protobuf19UninterpretedOption8CopyFromERKNS0_7MessageE"
  },
  {
   "name":"_ZN6google8protobuf19UninterpretedOption8CopyFromERKS1_"
  },
  {
   "name":"_ZN6google8protobuf19UninterpretedOption9MergeFromERKNS0_7MessageE"
  },
  {
   "name":"_ZN6google8protobuf19UninterpretedOption9MergeFromERKS1_"
  },
  {
   "name":"_ZN6google8protobuf19UninterpretedOptionC1ERKS1_"
  },
  {
   "name":"_ZN6google8protobuf19UninterpretedOptionC1Ev"
  },
  {
   "name":"_ZN6google8protobuf19UninterpretedOptionC2ERKS1_"
  },
  {
   "name":"_ZN6google8protobuf19UninterpretedOptionC2Ev"
  },
  {
   "name":"_ZN6google8protobuf19UninterpretedOptionD0Ev"
  },
  {
   "name":"_ZN6google8protobuf19UninterpretedOptionD1Ev"
  },
  {
   "name":"_ZN6google8protobuf19UninterpretedOptionD2Ev"
  },
  {
   "name":"_ZN6google8protobuf19WebSafeBase64EscapeENS0_11StringPieceEPNSt3__112basic_stringIcNS2_11char_traitsIcEENS2_9allocatorIcEEEE"
  },
  {
   "name":"_ZN6google8protobuf19WebSafeBase64EscapeEPKhiPNSt3__112basic_stringIcNS3_11char_traitsIcEENS3_9allocatorIcEEEEb"
  },
  {
   "name":"_ZN6google8protobuf19WebSafeBase64EscapeEPKhiPcib"
  },
  {
   "name":"_ZN6google8protobuf20FieldDescriptorProto10SharedCtorEv"
  },
  {
   "name":"_ZN6google8protobuf20FieldDescriptorProto10SharedDtorEv"
  },
  {
   "name":"_ZN6google8protobuf20FieldDescriptorProto10descriptorEv"
  },
  {
   "name":"_ZN6google8protobuf20FieldDescriptorProto12InternalSwapEPS1_"
  },
  {
   "name":"_ZN6google8protobuf20FieldDescriptorProto16default_instanceEv"
  },
  {
   "name":"_ZN6google8protobuf20FieldDescriptorProto21InitAsDefaultInstanceEv"
  },
  {
   "name":"_ZN6google8protobuf20FieldDescriptorProto27MergePartialFromCodedStreamEPNS0_2io16CodedInputStreamE"
  },
  {
   "name":"_ZN6google8protobuf20FieldDescriptorProto4SwapEPS1_"
  },
  {
   "name":"_ZN6google8protobuf20FieldDescriptorProto5ClearEv"
  },
  {
   "name":"_ZN6google8protobuf20FieldDescriptorProto8CopyFromERKNS0_7MessageE"
  },
  {
   "name":"_ZN6google8protobuf20FieldDescriptorProto8CopyFromERKS1_"
  },
  {
   "name":"_ZN6google8protobuf20FieldDescriptorProto9MergeFromERKNS0_7MessageE"
  },
  {
   "name":"_ZN6google8protobuf20FieldDescriptorProto9MergeFromERKS1_"
  },
  {
   "name":"_ZN6google8protobuf20FieldDescriptorProtoC1ERKS1_"
  },
  {
   "name":"_ZN6google8protobuf20FieldDescriptorProtoC1Ev"
  },
  {
   "name":"_ZN6google8protobuf20FieldDescriptorProtoC2ERKS1_"
  },
  {
   "name":"_ZN6google8protobuf20FieldDescriptorProtoC2Ev"
  },
  {
   "name":"_ZN6google8protobuf20FieldDescriptorProtoD0Ev"
  },
  {
   "name":"_ZN6google8protobuf20FieldDescriptorProtoD1Ev"
  },
  {
   "name":"_ZN6google8protobuf20FieldDescriptorProtoD2Ev"
  },
  {
   "name":"_ZN6google8protobuf20NullValue_descriptorEv"
  },
  {
   "name":"_ZN6google8protobuf20OneofDescriptorProto10SharedCtorEv"
  },
  {
   "name":"_ZN6google8protobuf20OneofDescriptorProto10SharedDtorEv"
  },
  {
   "name":"_ZN6google8protobuf20OneofDescriptorProto10descriptorEv"
  },
  {
   "name":"_ZN6google8protobuf20OneofDescriptorProto12InternalSwapEPS1_"
  },
  {
   "name":"_ZN6google8protobuf20OneofDescriptorProto16default_instanceEv"
  },
  {
   "name":"_ZN6google8protobuf20OneofDescriptorProto21InitAsDefaultInstanceEv"
  },
  {
   "name":"_ZN6google8protobuf20OneofDescriptorProto27MergePartialFromCodedStreamEPNS0_2io16CodedInputStreamE"
  },
  {
   "name":"_ZN6google8protobuf20OneofDescriptorProto4SwapEPS1_"
  },
  {
   "name":"_ZN6google8protobuf20OneofDescriptorProto5ClearEv"
  },
  {
   "name":"_ZN6google8protobuf20OneofDescriptorProto8CopyFromERKNS0_7MessageE"
  },
  {
   "name":"_ZN6google8protobuf20OneofDescriptorProto8CopyFromERKS1_"
  },
  {
   "name":"_ZN6google8protobuf20OneofDescriptorProto9MergeFromERKNS0_7MessageE"
  },
  {
   "name":"_ZN6google8protobuf20OneofDescriptorProto9MergeFromERKS1_"
  },
  {
   "name":"_ZN6google8protobuf20OneofDescriptorProtoC1ERKS1_"
  },
  {
   "name":"_ZN6google8protobuf20OneofDescriptorProtoC1Ev"
  },
  {
   "name":"_ZN6google8protobuf20OneofDescriptorProtoC2ERKS1_"
  },
  {
   "name":"_ZN6google8protobuf20OneofDescriptorProtoC2Ev"
  },
  {
   "name":"_ZN6google8protobuf20OneofDescriptorProtoD0Ev"
  },
  {
   "name":"_ZN6google8protobuf20OneofDescriptorProtoD1Ev"
  },
  {
   "name":"_ZN6google8protobuf20OneofDescriptorProtoD2Ev"
  },
  {
   "name":"_ZN6google8protobuf21DynamicMessageFactory12GetPrototypeEPKNS0_10DescriptorE"
  },
  {
   "name":"_ZN6google8protobuf21DynamicMessageFactory18GetPrototypeNoLockEPKNS0_10DescriptorE"
  },
  {
   "name":"_ZN6google8protobuf21DynamicMessageFactory26DeleteDefaultOneofInstanceEPKNS0_10DescriptorEPKiPv"
  },
  {
   "name":"_ZN6google8protobuf21DynamicMessageFactory29ConstructDefaultOneofInstanceEPKNS0_10DescriptorEPKiPv"
  },
  {
   "name":"_ZN6google8protobuf21DynamicMessageFactoryC1EPKNS0_14DescriptorPoolE"
  },
  {
   "name":"_ZN6google8protobuf21DynamicMessageFactoryC1Ev"
  },
  {
   "name":"_ZN6google8protobuf21DynamicMessageFactoryC2EPKNS0_14DescriptorPoolE"
  },
  {
   "name":"_ZN6google8protobuf21DynamicMessageFactoryC2Ev"
  },
  {
   "name":"_ZN6google8protobuf21DynamicMessageFactoryD0Ev"
  },
  {
   "name":"_ZN6google8protobuf21DynamicMessageFactoryD1Ev"
  },
  {
   "name":"_ZN6google8protobuf21DynamicMessageFactoryD2Ev"
  },
  {
   "name":"_ZN6google8protobuf21FastInt32ToBufferLeftEiPc"
  },
  {
   "name":"_ZN6google8protobuf21FastInt64ToBufferLeftExPc"
  },
  {
   "name":"_ZN6google8protobuf21Field_Kind_descriptorEv"
  },
  {
   "name":"_ZN6google8protobuf21MethodDescriptorProto10SharedCtorEv"
  },
  {
   "name":"_ZN6google8protobuf21MethodDescriptorProto10SharedDtorEv"
  },
  {
   "name":"_ZN6google8protobuf21MethodDescriptorProto10descriptorEv"
  },
  {
   "name":"_ZN6google8protobuf21MethodDescriptorProto12InternalSwapEPS1_"
  },
  {
   "name":"_ZN6google8protobuf21MethodDescriptorProto16default_instanceEv"
  },
  {
   "name":"_ZN6google8protobuf21MethodDescriptorProto21InitAsDefaultInstanceEv"
  },
  {
   "name":"_ZN6google8protobuf21MethodDescriptorProto27MergePartialFromCodedStreamEPNS0_2io16CodedInputStreamE"
  },
  {
   "name":"_ZN6google8protobuf21MethodDescriptorProto4SwapEPS1_"
  },
  {
   "name":"_ZN6google8protobuf21MethodDescriptorProto5ClearEv"
  },
  {
   "name":"_ZN6google8protobuf21MethodDescriptorProto8CopyFromERKNS0_7MessageE"
  },
  {
   "name":"_ZN6google8protobuf21MethodDescriptorProto8CopyFromERKS1_"
  },
  {
   "name":"_ZN6google8protobuf21MethodDescriptorProto9MergeFromERKNS0_7MessageE"
  },
  {
   "name":"_ZN6google8protobuf21MethodDescriptorProto9MergeFromERKS1_"
  },
  {
   "name":"_ZN6google8protobuf21MethodDescriptorProtoC1ERKS1_"
  },
  {
   "name":"_ZN6google8protobuf21MethodDescriptorProtoC1Ev"
  },
  {
   "name":"_ZN6google8protobuf21MethodDescriptorProtoC2ERKS1_"
  },
  {
   "name":"_ZN6google8protobuf21MethodDescriptorProtoC2Ev"
  },
  {
   "name":"_ZN6google8protobuf21MethodDescriptorProtoD0Ev"
  },
  {
   "name":"_ZN6google8protobuf21MethodDescriptorProtoD1Ev"
  },
  {
   "name":"_ZN6google8protobuf21MethodDescriptorProtoD2Ev"
  },
  {
   "name":"_ZN6google8protobuf21SplitStringAllowEmptyERKNSt3__112basic_stringIcNS1_11char_traitsIcEENS1_9allocatorIcEEEEPKcPNS1_6vectorIS7_NS5_IS7_EEEE"
  },
  {
   "name":"_ZN6google8protobuf21UnescapeCEscapeStringERKNSt3__112basic_stringIcNS1_11char_traitsIcEENS1_9allocatorIcEEEE"
  },
  {
   "name":"_ZN6google8protobuf21UnescapeCEscapeStringERKNSt3__112basic_stringIcNS1_11char_traitsIcEENS1_9allocatorIcEEEEPS7_"
  },
  {
   "name":"_ZN6google8protobuf21UnescapeCEscapeStringERKNSt3__112basic_stringIcNS1_11char_traitsIcEENS1_9allocatorIcEEEEPS7_PNS1_6vectorIS7_NS5_IS7_EEEE"
  },
  {
   "name":"_ZN6google8protobuf21WebSafeBase64UnescapeENS0_11StringPieceEPNSt3__112basic_stringIcNS2_11char_traitsIcEENS2_9allocatorIcEEEE"
  },
  {
   "name":"_ZN6google8protobuf21WebSafeBase64UnescapeEPKciPci"
  },
  {
   "name":"_ZN6google8protobuf22DescriptorPoolDatabase14FindFileByNameERKNSt3__112basic_stringIcNS2_11char_traitsIcEENS2_9allocatorIcEEEEPNS0_19FileDescriptorProtoE"
  },
  {
   "name":"_ZN6google8protobuf22DescriptorPoolDatabase23FindAllExtensionNumbersERKNSt3__112basic_stringIcNS2_11char_traitsIcEENS2_9allocatorIcEEEEPNS2_6vectorIiNS6_IiEEEE"
  },
  {
   "name":"_ZN6google8protobuf22DescriptorPoolDatabase24FindFileContainingSymbolERKNSt3__112basic_stringIcNS2_11char_traitsIcEENS2_9allocatorIcEEEEPNS0_19FileDescriptorProtoE"
  },
  {
   "name":"_ZN6google8protobuf22DescriptorPoolDatabase27FindFileContainingExtensionERKNSt3__112basic_stringIcNS2_11char_traitsIcEENS2_9allocatorIcEEEEiPNS0_19FileDescriptorProtoE"
  },
  {
   "name":"_ZN6google8protobuf22DescriptorPoolDatabaseC1ERKNS0_14DescriptorPoolE"
  },
  {
   "name":"_ZN6google8protobuf22DescriptorPoolDatabaseC2ERKNS0_14DescriptorPoolE"
  },
  {
   "name":"_ZN6google8protobuf22DescriptorPoolDatabaseD0Ev"
  },
  {
   "name":"_ZN6google8protobuf22DescriptorPoolDatabaseD1Ev"
  },
  {
   "name":"_ZN6google8protobuf22DescriptorPoolDatabaseD2Ev"
  },
  {
   "name":"_ZN6google8protobuf22FastUInt32ToBufferLeftEjPc"
  },
  {
   "name":"_ZN6google8protobuf22FastUInt64ToBufferLeftEyPc"
  },
  {
   "name":"_ZN6google8protobuf22GlobalReplaceSubstringERKNSt3__112basic_stringIcNS1_11char_traitsIcEENS1_9allocatorIcEEEES9_PS7_"
  },
  {
   "name":"_ZN6google8protobuf22ServiceDescriptorProto10SharedCtorEv"
  },
  {
   "name":"_ZN6google8protobuf22ServiceDescriptorProto10SharedDtorEv"
  },
  {
   "name":"_ZN6google8protobuf22ServiceDescriptorProto10descriptorEv"
  },
  {
   "name":"_ZN6google8protobuf22ServiceDescriptorProto12InternalSwapEPS1_"
  },
  {
   "name":"_ZN6google8protobuf22ServiceDescriptorProto16default_instanceEv"
  },
  {
   "name":"_ZN6google8protobuf22ServiceDescriptorProto21InitAsDefaultInstanceEv"
  },
  {
   "name":"_ZN6google8protobuf22ServiceDescriptorProto27MergePartialFromCodedStreamEPNS0_2io16CodedInputStreamE"
  },
  {
   "name":"_ZN6google8protobuf22ServiceDescriptorProto4SwapEPS1_"
  },
  {
   "name":"_ZN6google8protobuf22ServiceDescriptorProto5ClearEv"
  },
  {
   "name":"_ZN6google8protobuf22ServiceDescriptorProto8CopyFromERKNS0_7MessageE"
  },
  {
   "name":"_ZN6google8protobuf22ServiceDescriptorProto8CopyFromERKS1_"
  },
  {
   "name":"_ZN6google8protobuf22ServiceDescriptorProto9MergeFromERKNS0_7MessageE"
  },
  {
   "name":"_ZN6google8protobuf22ServiceDescriptorProto9MergeFromERKS1_"
  },
  {
   "name":"_ZN6google8protobuf22ServiceDescriptorProtoC1ERKS1_"
  },
  {
   "name":"_ZN6google8protobuf22ServiceDescriptorProtoC1Ev"
  },
  {
   "name":"_ZN6google8protobuf22ServiceDescriptorProtoC2ERKS1_"
  },
  {
   "name":"_ZN6google8protobuf22ServiceDescriptorProtoC2Ev"
  },
  {
   "name":"_ZN6google8protobuf22ServiceDescriptorProtoD0Ev"
  },
  {
   "name":"_ZN6google8protobuf22ServiceDescriptorProtoD1Ev"
  },
  {
   "name":"_ZN6google8protobuf22ServiceDescriptorProtoD2Ev"
  },
  {
   "name":"_ZN6google8protobuf23ShutdownProtobufLibraryEv"
  },
  {
   "name":"_ZN6google8protobuf23SourceCodeInfo_Location10SharedCtorEv"
  },
  {
   "name":"_ZN6google8protobuf23SourceCodeInfo_Location10SharedDtorEv"
  },
  {
   "name":"_ZN6google8protobuf23SourceCodeInfo_Location10descriptorEv"
  },
  {
   "name":"_ZN6google8protobuf23SourceCodeInfo_Location12InternalSwapEPS1_"
  },
  {
   "name":"_ZN6google8protobuf23SourceCodeInfo_Location16default_instanceEv"
  },
  {
   "name":"_ZN6google8protobuf23SourceCodeInfo_Location21InitAsDefaultInstanceEv"
  },
  {
   "name":"_ZN6google8protobuf23SourceCodeInfo_Location27MergePartialFromCodedStreamEPNS0_2io16CodedInputStreamE"
  },
  {
   "name":"_ZN6google8protobuf23SourceCodeInfo_Location4SwapEPS1_"
  },
  {
   "name":"_ZN6google8protobuf23SourceCodeInfo_Location5ClearEv"
  },
  {
   "name":"_ZN6google8protobuf23SourceCodeInfo_Location8CopyFromERKNS0_7MessageE"
  },
  {
   "name":"_ZN6google8protobuf23SourceCodeInfo_Location8CopyFromERKS1_"
  },
  {
   "name":"_ZN6google8protobuf23SourceCodeInfo_Location9MergeFromERKNS0_7MessageE"
  },
  {
   "name":"_ZN6google8protobuf23SourceCodeInfo_Location9MergeFromERKS1_"
  },
  {
   "name":"_ZN6google8protobuf23SourceCodeInfo_LocationC1ERKS1_"
  },
  {
   "name":"_ZN6google8protobuf23SourceCodeInfo_LocationC1Ev"
  },
  {
   "name":"_ZN6google8protobuf23SourceCodeInfo_LocationC2ERKS1_"
  },
  {
   "name":"_ZN6google8protobuf23SourceCodeInfo_LocationC2Ev"
  },
  {
   "name":"_ZN6google8protobuf23SourceCodeInfo_LocationD0Ev"
  },
  {
   "name":"_ZN6google8protobuf23SourceCodeInfo_LocationD1Ev"
  },
  {
   "name":"_ZN6google8protobuf23SourceCodeInfo_LocationD2Ev"
  },
  {
   "name":"_ZN6google8protobuf23UTF8FirstLetterNumBytesEPKci"
  },
  {
   "name":"_ZN6google8protobuf24EnumValueDescriptorProto10SharedCtorEv"
  },
  {
   "name":"_ZN6google8protobuf24EnumValueDescriptorProto10SharedDtorEv"
  },
  {
   "name":"_ZN6google8protobuf24EnumValueDescriptorProto10descriptorEv"
  },
  {
   "name":"_ZN6google8protobuf24EnumValueDescriptorProto12InternalSwapEPS1_"
  },
  {
   "name":"_ZN6google8protobuf24EnumValueDescriptorProto16default_instanceEv"
  },
  {
   "name":"_ZN6google8protobuf24EnumValueDescriptorProto21InitAsDefaultInstanceEv"
  },
  {
   "name":"_ZN6google8protobuf24EnumValueDescriptorProto27MergePartialFromCodedStreamEPNS0_2io16CodedInputStreamE"
  },
  {
   "name":"_ZN6google8protobuf24EnumValueDescriptorProto4SwapEPS1_"
  },
  {
   "name":"_ZN6google8protobuf24EnumValueDescriptorProto5ClearEv"
  },
  {
   "name":"_ZN6google8protobuf24EnumValueDescriptorProto8CopyFromERKNS0_7MessageE"
  },
  {
   "name":"_ZN6google8protobuf24EnumValueDescriptorProto8CopyFromERKS1_"
  },
  {
   "name":"_ZN6google8protobuf24EnumValueDescriptorProto9MergeFromERKNS0_7MessageE"
  },
  {
   "name":"_ZN6google8protobuf24EnumValueDescriptorProto9MergeFromERKS1_"
  },
  {
   "name":"_ZN6google8protobuf24EnumValueDescriptorProtoC1ERKS1_"
  },
  {
   "name":"_ZN6google8protobuf24EnumValueDescriptorProtoC1Ev"
  },
  {
   "name":"_ZN6google8protobuf24EnumValueDescriptorProtoC2ERKS1_"
  },
  {
   "name":"_ZN6google8protobuf24EnumValueDescriptorProtoC2Ev"
  },
  {
   "name":"_ZN6google8protobuf24EnumValueDescriptorProtoD0Ev"
  },
  {
   "name":"_ZN6google8protobuf24EnumValueDescriptorProtoD1Ev"
  },
  {
   "name":"_ZN6google8protobuf24EnumValueDescriptorProtoD2Ev"
  },
  {
   "name":"_ZN6google8protobuf24MergedDescriptorDatabase14FindFileByNameERKNSt3__112basic_stringIcNS2_11char_traitsIcEENS2_9allocatorIcEEEEPNS0_19FileDescriptorProtoE"
  },
  {
   "name":"_ZN6google8protobuf24MergedDescriptorDatabase23FindAllExtensionNumbersERKNSt3__112basic_stringIcNS2_11char_traitsIcEENS2_9allocatorIcEEEEPNS2_6vectorIiNS6_IiEEEE"
  },
  {
   "name":"_ZN6google8protobuf24MergedDescriptorDatabase24FindFileContainingSymbolERKNSt3__112basic_stringIcNS2_11char_traitsIcEENS2_9allocatorIcEEEEPNS0_19FileDescriptorProtoE"
  },
  {
   "name":"_ZN6google8protobuf24MergedDescriptorDatabase27FindFileContainingExtensionERKNSt3__112basic_stringIcNS2_11char_traitsIcEENS2_9allocatorIcEEEEiPNS0_19FileDescriptorProtoE"
  },
  {
   "name":"_ZN6google8protobuf24MergedDescriptorDatabaseC1EPNS0_18DescriptorDatabaseES3_"
  },
  {
   "name":"_ZN6google8protobuf24MergedDescriptorDatabaseC1ERKNSt3__16vectorIPNS0_18DescriptorDatabaseENS2_9allocatorIS5_EEEE"
  },
  {
   "name":"_ZN6google8protobuf24MergedDescriptorDatabaseC2EPNS0_18DescriptorDatabaseES3_"
  },
  {
   "name":"_ZN6google8protobuf24MergedDescriptorDatabaseC2ERKNSt3__16vectorIPNS0_18DescriptorDatabaseENS2_9allocatorIS5_EEEE"
  },
  {
   "name":"_ZN6google8protobuf24MergedDescriptorDatabaseD0Ev"
  },
  {
   "name":"_ZN6google8protobuf24MergedDescriptorDatabaseD1Ev"
  },
  {
   "name":"_ZN6google8protobuf24MergedDescriptorDatabaseD2Ev"
  },
  {
   "name":"_ZN6google8protobuf24SimpleDescriptorDatabase14FindFileByNameERKNSt3__112basic_stringIcNS2_11char_traitsIcEENS2_9allocatorIcEEEEPNS0_19FileDescriptorProtoE"
  },
  {
   "binding":"weak",
   "name":"_ZN6google8protobuf24SimpleDescriptorDatabase15DescriptorIndexINSt3__14pairIPKviEEE11IsSubSymbolERKNS3_12basic_stringIcNS3_11char_traitsIcEENS3_9allocatorIcEEEESG_"
  },
  {
   "binding":"weak",
   "name":"_ZN6google8protobuf24SimpleDescriptorDatabase15DescriptorIndexINSt3__14pairIPKviEEE12AddExtensionERKNS0_20FieldDescriptorProtoES7_"
  },
  {
   "binding":"weak",
   "name":"_ZN6google8protobuf24SimpleDescriptorDatabase15DescriptorIndexINSt3__14pairIPKviEEE19AddNestedExtensionsERKNS0_15DescriptorProtoES7_"
  },
  {
   "binding":"weak",
   "name":"_ZN6google8protobuf24SimpleDescriptorDatabase15DescriptorIndexINSt3__14pairIPKviEEE19FindLastLessOrEqualERKNS3_12basic_stringIcNS3_11char_traitsIcEENS3_9allocatorIcEEEE"
  },
  {
   "binding":"weak",
   "name":"_ZN6google8protobuf24SimpleDescriptorDatabase15DescriptorIndexINSt3__14pairIPKviEEE23FindAllExtensionNumbersERKNS3_12basic_stringIcNS3_11char_traitsIcEENS3_9allocatorIcEEEEPNS3_6vectorIiNSC_IiEEEE"
  },
  {
   "binding":"weak",
   "name":"_ZN6google8protobuf24SimpleDescriptorDatabase15DescriptorIndexINSt3__14pairIPKviEEE7AddFileERKNS0_19FileDescriptorProtoES7_"
  },
  {
   "binding":"weak",
   "name":"_ZN6google8protobuf24SimpleDescriptorDatabase15DescriptorIndexINSt3__14pairIPKviEEE9AddSymbolERKNS3_12basic_stringIcNS3_11char_traitsIcEENS3_9allocatorIcEEEES7_"
  },
  {
   "binding":"weak",
   "name":"_ZN6google8protobuf24SimpleDescriptorDatabase15DescriptorIndexIPKNS0_19FileDescriptorProtoEE11IsSubSymbolERKNSt3__112basic_stringIcNS7_11char_traitsIcEENS7_9allocatorIcEEEESF_"
  },
  {
   "binding":"weak",
   "name":"_ZN6google8protobuf24SimpleDescriptorDatabase15DescriptorIndexIPKNS0_19FileDescriptorProtoEE12AddExtensionERKNS0_20FieldDescriptorProtoES5_"
  },
  {
   "binding":"weak",
   "name":"_ZN6google8protobuf24SimpleDescriptorDatabase15DescriptorIndexIPKNS0_19FileDescriptorProtoEE19AddNestedExtensionsERKNS0_15DescriptorProtoES5_"
  },
  {
   "binding":"weak",
   "name":"_ZN6google8protobuf24SimpleDescriptorDatabase15DescriptorIndexIPKNS0_19FileDescriptorProtoEE19FindLastLessOrEqualERKNSt3__112basic_stringIcNS7_11char_traitsIcEENS7_9allocatorIcEEEE"
  },
  {
   "binding":"weak",
   "name":"_ZN6google8protobuf24SimpleDescriptorDatabase15DescriptorIndexIPKNS0_19FileDescriptorProtoEE23FindAllExtensionNumbersERKNSt3__112basic_stringIcNS7_11char_traitsIcEENS7_9allocatorIcEEEEPNS7_6vectorIiNSB_IiEEEE"
  },
  {
   "binding":"weak",
   "name":"_ZN6google8protobuf24SimpleDescriptorDatabase15DescriptorIndexIPKNS0_19FileDescriptorProtoEE7AddFileERS4_S5_"
  },
  {
   "binding":"weak",
   "name":"_ZN6google8protobuf24SimpleDescriptorDatabase15DescriptorIndexIPKNS0_19FileDescriptorProtoEE9AddSymbolERKNSt3__112basic_stringIcNS7_11char_traitsIcEENS7_9allocatorIcEEEES5_"
  },
  {
   "name":"_ZN6google8protobuf24SimpleDescriptorDatabase23FindAllExtensionNumbersERKNSt3__112basic_stringIcNS2_11char_traitsIcEENS2_9allocatorIcEEEEPNS2_6vectorIiNS6_IiEEEE"
  },
  {
   "name":"_ZN6google8protobuf24SimpleDescriptorDatabase24FindFileContainingSymbolERKNSt3__112basic_stringIcNS2_11char_traitsIcEENS2_9allocatorIcEEEEPNS0_19FileDescriptorProtoE"
  },
  {
   "name":"_ZN6google8protobuf24SimpleDescriptorDatabase27FindFileContainingExtensionERKNSt3__112basic_stringIcNS2_11char_traitsIcEENS2_9allocatorIcEEEEiPNS0_19FileDescriptorProtoE"
  },
  {
   "name":"_ZN6google8protobuf24SimpleDescriptorDatabase3AddERKNS0_19FileDescriptorProtoE"
  },
  {
   "name":"_ZN6google8protobuf24SimpleDescriptorDatabase9AddAndOwnEPKNS0_19FileDescriptorProtoE"
  },
  {
   "name":"_ZN6google8protobuf24SimpleDescriptorDatabase9MaybeCopyEPKNS0_19FileDescriptorProtoEPS2_"
  },
  {
   "name":"_ZN6google8protobuf24SimpleDescriptorDatabaseC1Ev"
  },
  {
   "name":"_ZN6google8protobuf24SimpleDescriptorDatabaseC2Ev"
  },
  {
   "name":"_ZN6google8protobuf24SimpleDescriptorDatabaseD0Ev"
  },
  {
   "name":"_ZN6google8protobuf24SimpleDescriptorDatabaseD1Ev"
  },
  {
   "name":"_ZN6google8protobuf24SimpleDescriptorDatabaseD2Ev"
  },
  {
   "name":"_ZN6google8protobuf24UnescapeCEscapeSequencesEPKcPc"
  },
  {
   "name":"_ZN6google8protobuf24UnescapeCEscapeSequencesEPKcPcPNSt3__16vectorINS4_12basic_stringIcNS4_11char_traitsIcEENS4_9allocatorIcEEEENS9_ISB_EEEE"
  },
  {
   "name":"_ZN6google8protobuf25CalculateBase64EscapedLenEi"
  },
  {
   "name":"_ZN6google8protobuf25CalculateBase64EscapedLenEib"
  },
  {
   "name":"_ZN6google8protobuf25EncodedDescriptorDatabase10MaybeParseENSt3__14pairIPKviEEPNS0_19FileDescriptorProtoE"
  },
  {
   "name":"_ZN6google8protobuf25EncodedDescriptorDatabase14FindFileByNameERKNSt3__112basic_stringIcNS2_11char_traitsIcEENS2_9allocatorIcEEEEPNS0_19FileDescriptorProtoE"
  },
  {
   "name":"_ZN6google8protobuf25EncodedDescriptorDatabase23FindAllExtensionNumbersERKNSt3__112basic_stringIcNS2_11char_traitsIcEENS2_9allocatorIcEEEEPNS2_6vectorIiNS6_IiEEEE"
  },
  {
   "name":"_ZN6google8protobuf25EncodedDescriptorDatabase24FindFileContainingSymbolERKNSt3__112basic_stringIcNS2_11char_traitsIcEENS2_9allocatorIcEEEEPNS0_19FileDescriptorProtoE"
  },
  {
   "name":"_ZN6google8protobuf25EncodedDescriptorDatabase27FindFileContainingExtensionERKNSt3__112basic_stringIcNS2_11char_traitsIcEENS2_9allocatorIcEEEEiPNS0_19FileDescriptorProtoE"
  },
  {
   "name":"_ZN6google8protobuf25EncodedDescriptorDatabase30FindNameOfFileContainingSymbolERKNSt3__112basic_stringIcNS2_11char_traitsIcEENS2_9allocatorIcEEEEPS8_"
  },
  {
   "name":"_ZN6google8protobuf25EncodedDescriptorDatabase3AddEPKvi"
  },
  {
   "name":"_ZN6google8protobuf25EncodedDescriptorDatabase7AddCopyEPKvi"
  },
  {
   "name":"_ZN6google8protobuf25EncodedDescriptorDatabaseC1Ev"
  },
  {
   "name":"_ZN6google8protobuf25EncodedDescriptorDatabaseC2Ev"
  },
  {
   "name":"_ZN6google8protobuf25EncodedDescriptorDatabaseD0Ev"
  },
  {
   "name":"_ZN6google8protobuf25EncodedDescriptorDatabaseD1Ev"
  },
  {
   "name":"_ZN6google8protobuf25EncodedDescriptorDatabaseD2Ev"
  },
  {
   "name":"_ZN6google8protobuf25Field_Cardinality_IsValidEi"
  },
  {
   "name":"_ZN6google8protobuf26FieldOptions_CType_IsValidEi"
  },
  {
   "binding":"weak",
   "name":"_ZN6google8protobuf26STLDeleteContainerPointersINSt3__111__wrap_iterIPPNS0_20FileDescriptorTablesEEEEEvT_S8_"
  },
  {
   "name":"_ZN6google8protobuf27FieldOptions_JSType_IsValidEi"
  },
  {
   "name":"_ZN6google8protobuf28Field_Cardinality_descriptorEv"
  },
  {
   "name":"_ZN6google8protobuf28GeneratedCodeInfo_Annotation10SharedCtorEv"
  },
  {
   "name":"_ZN6google8protobuf28GeneratedCodeInfo_Annotation10SharedDtorEv"
  },
  {
   "name":"_ZN6google8protobuf28GeneratedCodeInfo_Annotation10descriptorEv"
  },
  {
   "name":"_ZN6google8protobuf28GeneratedCodeInfo_Annotation12InternalSwapEPS1_"
  },
  {
   "name":"_ZN6google8protobuf28GeneratedCodeInfo_Annotation16default_instanceEv"
  },
  {
   "name":"_ZN6google8protobuf28GeneratedCodeInfo_Annotation21InitAsDefaultInstanceEv"
  },
  {
   "name":"_ZN6google8protobuf28GeneratedCodeInfo_Annotation27MergePartialFromCodedStreamEPNS0_2io16CodedInputStreamE"
  },
  {
   "name":"_ZN6google8protobuf28GeneratedCodeInfo_Annotation4SwapEPS1_"
  },
  {
   "name":"_ZN6google8protobuf28GeneratedCodeInfo_Annotation5ClearEv"
  },
  {
   "name":"_ZN6google8protobuf28GeneratedCodeInfo_Annotation8CopyFromERKNS0_7MessageE"
  },
  {
   "name":"_ZN6google8protobuf28GeneratedCodeInfo_Annotation8CopyFromERKS1_"
  },
  {
   "name":"_ZN6google8protobuf28GeneratedCodeInfo_Annotation9MergeFromERKNS0_7MessageE"
  },
  {
   "name":"_ZN6google8protobuf28GeneratedCodeInfo_Annotation9MergeFromERKS1_"
  },
  {
   "name":"_ZN6google8protobuf28GeneratedCodeInfo_AnnotationC1ERKS1_"
  },
  {
   "name":"_ZN6google8protobuf28GeneratedCodeInfo_AnnotationC1Ev"
  },
  {
   "name":"_ZN6google8protobuf28GeneratedCodeInfo_AnnotationC2ERKS1_"
  },
  {
   "name":"_ZN6google8protobuf28GeneratedCodeInfo_AnnotationC2Ev"
  },
  {
   "name":"_ZN6google8protobuf28GeneratedCodeInfo_AnnotationD0Ev"
  },
  {
   "name":"_ZN6google8protobuf28GeneratedCodeInfo_AnnotationD1Ev"
  },
  {
   "name":"_ZN6google8protobuf28GeneratedCodeInfo_AnnotationD2Ev"
  },
  {
   "name":"_ZN6google8protobuf28UninterpretedOption_NamePart10SharedCtorEv"
  },
  {
   "name":"_ZN6google8protobuf28UninterpretedOption_NamePart10SharedDtorEv"
  },
  {
   "name":"_ZN6google8protobuf28UninterpretedOption_NamePart10descriptorEv"
  },
  {
   "name":"_ZN6google8protobuf28UninterpretedOption_NamePart12InternalSwapEPS1_"
  },
  {
   "name":"_ZN6google8protobuf28UninterpretedOption_NamePart16default_instanceEv"
  },
  {
   "name":"_ZN6google8protobuf28UninterpretedOption_NamePart21InitAsDefaultInstanceEv"
  },
  {
   "name":"_ZN6google8protobuf28UninterpretedOption_NamePart27MergePartialFromCodedStreamEPNS0_2io16CodedInputStreamE"
  },
  {
   "name":"_ZN6google8protobuf28UninterpretedOption_NamePart4SwapEPS1_"
  },
  {
   "name":"_ZN6google8protobuf28UninterpretedOption_NamePart5ClearEv"
  },
  {
   "name":"_ZN6google8protobuf28UninterpretedOption_NamePart8CopyFromERKNS0_7MessageE"
  },
  {
   "name":"_ZN6google8protobuf28UninterpretedOption_NamePart8CopyFromERKS1_"
  },
  {
   "name":"_ZN6google8protobuf28UninterpretedOption_NamePart9MergeFromERKNS0_7MessageE"
  },
  {
   "name":"_ZN6google8protobuf28UninterpretedOption_NamePart9MergeFromERKS1_"
  },
  {
   "name":"_ZN6google8protobuf28UninterpretedOption_NamePartC1ERKS1_"
  },
  {
   "name":"_ZN6google8protobuf28UninterpretedOption_NamePartC1Ev"
  },
  {
   "name":"_ZN6google8protobuf28UninterpretedOption_NamePartC2ERKS1_"
  },
  {
   "name":"_ZN6google8protobuf28UninterpretedOption_NamePartC2Ev"
  },
  {
   "name":"_ZN6google8protobuf28UninterpretedOption_NamePartD0Ev"
  },
  {
   "name":"_ZN6google8protobuf28UninterpretedOption_NamePartD1Ev"
  },
  {
   "name":"_ZN6google8protobuf28UninterpretedOption_NamePartD2Ev"
  },
  {
   "name":"_ZN6google8protobuf29DescriptorProto_ReservedRange10SharedCtorEv"
  },
  {
   "name":"_ZN6google8protobuf29DescriptorProto_ReservedRange10SharedDtorEv"
  },
  {
   "name":"_ZN6google8protobuf29DescriptorProto_ReservedRange10descriptorEv"
  },
  {
   "name":"_ZN6google8protobuf29DescriptorProto_ReservedRange12InternalSwapEPS1_"
  },
  {
   "name":"_ZN6google8protobuf29DescriptorProto_ReservedRange16default_instanceEv"
  },
  {
   "name":"_ZN6google8protobuf29DescriptorProto_ReservedRange21InitAsDefaultInstanceEv"
  },
  {
   "name":"_ZN6google8protobuf29DescriptorProto_ReservedRange27MergePartialFromCodedStreamEPNS0_2io16CodedInputStreamE"
  },
  {
   "name":"_ZN6google8protobuf29DescriptorProto_ReservedRange4SwapEPS1_"
  },
  {
   "name":"_ZN6google8protobuf29DescriptorProto_ReservedRange5ClearEv"
  },
  {
   "name":"_ZN6google8protobuf29DescriptorProto_ReservedRange8CopyFromERKNS0_7MessageE"
  },
  {
   "name":"_ZN6google8protobuf29DescriptorProto_ReservedRange8CopyFromERKS1_"
  },
  {
   "name":"_ZN6google8protobuf29DescriptorProto_ReservedRange9MergeFromERKNS0_7MessageE"
  },
  {
   "name":"_ZN6google8protobuf29DescriptorProto_ReservedRange9MergeFromERKS1_"
  },
  {
   "name":"_ZN6google8protobuf29DescriptorProto_ReservedRangeC1ERKS1_"
  },
  {
   "name":"_ZN6google8protobuf29DescriptorProto_ReservedRangeC1Ev"
  },
  {
   "name":"_ZN6google8protobuf29DescriptorProto_ReservedRangeC2ERKS1_"
  },
  {
   "name":"_ZN6google8protobuf29DescriptorProto_ReservedRangeC2Ev"
  },
  {
   "name":"_ZN6google8protobuf29DescriptorProto_ReservedRangeD0Ev"
  },
  {
   "name":"_ZN6google8protobuf29DescriptorProto_ReservedRangeD1Ev"
  },
  {
   "name":"_ZN6google8protobuf29DescriptorProto_ReservedRangeD2Ev"
  },
  {
   "name":"_ZN6google8protobuf29FieldOptions_CType_descriptorEv"
  },
  {
   "name":"_ZN6google8protobuf2io14ErrorCollectorD0Ev"
  },
  {
   "name":"_ZN6google8protobuf2io14ErrorCollectorD1Ev"
  },
  {
   "name":"_ZN6google8protobuf2io14ErrorCollectorD2Ev"
  },
  {
   "name":"_ZN6google8protobuf2io14NoLocaleStrtodEPKcPPc"
  },
  {
   "name":"_ZN6google8protobuf2io15FileInputStream22CopyingFileInputStream4ReadEPvi"
  },
  {
   "name":"_ZN6google8protobuf2io15FileInputStream22CopyingFileInputStream4SkipEi"
  },
  {
   "name":"_ZN6google8protobuf2io15FileInputStream22CopyingFileInputStream5CloseEv"
  },
  {
   "name":"_ZN6google8protobuf2io15FileInputStream22CopyingFileInputStreamC1Ei"
  },
  {
   "name":"_ZN6google8protobuf2io15FileInputStream22CopyingFileInputStreamC2Ei"
  },
  {
   "name":"_ZN6google8protobuf2io15FileInputStream22CopyingFileInputStreamD0Ev"
  },
  {
   "name":"_ZN6google8protobuf2io15FileInputStream22CopyingFileInputStreamD1Ev"
  },
  {
   "name":"_ZN6google8protobuf2io15FileInputStream22CopyingFileInputStreamD2Ev"
  },
  {
   "name":"_ZN6google8protobuf2io15FileInputStream4NextEPPKvPi"
  },
  {
   "name":"_ZN6google8protobuf2io15FileInputStream4SkipEi"
  },
  {
   "name":"_ZN6google8protobuf2io15FileInputStream5CloseEv"
  },
  {
   "name":"_ZN6google8protobuf2io15FileInputStream6BackUpEi"
  },
  {
   "name":"_ZN6google8protobuf2io15FileInputStreamC1Eii"
  },
  {
   "name":"_ZN6google8protobuf2io15FileInputStreamC2Eii"
  },
  {
   "name":"_ZN6google8protobuf2io15FileInputStreamD0Ev"
  },
  {
   "name":"_ZN6google8protobuf2io15FileInputStreamD1Ev"
  },
  {
   "name":"_ZN6google8protobuf2io15FileInputStreamD2Ev"
  },
  {
   "name":"_ZN6google8protobuf2io15GzipInputStream12DoNextOutputEPPKvPi"
  },
  {
   "name":"_ZN6google8protobuf2io15GzipInputStream4NextEPPKvPi"
  },
  {
   "name":"_ZN6google8protobuf2io15GzipInputStream4SkipEi"
  },
  {
   "name":"_ZN6google8protobuf2io15GzipInputStream6BackUpEi"
  },
  {
   "name":"_ZN6google8protobuf2io15GzipInputStream7InflateEi"
  },
  {
   "name":"_ZN6google8protobuf2io15GzipInputStreamC1EPNS1_19ZeroCopyInputStreamENS2_6FormatEi"
  },
  {
   "name":"_ZN6google8protobuf2io15GzipInputStreamC2EPNS1_19ZeroCopyInputStreamENS2_6FormatEi"
  },
  {
   "name":"_ZN6google8protobuf2io15GzipInputStreamD0Ev"
  },
  {
   "name":"_ZN6google8protobuf2io15GzipInputStreamD1Ev"
  },
  {
   "name":"_ZN6google8protobuf2io15GzipInputStreamD2Ev"
  },
  {
   "name":"_ZN6google8protobuf2io16ArrayInputStream4NextEPPKvPi"
  },
  {
   "name":"_ZN6google8protobuf2io16ArrayInputStream4SkipEi"
  },
  {
   "name":"_ZN6google8protobuf2io16ArrayInputStream6BackUpEi"
  },
  {
   "name":"_ZN6google8protobuf2io16ArrayInputStreamC1EPKvii"
  },
  {
   "name":"_ZN6google8protobuf2io16ArrayInputStreamC2EPKvii"
  },
  {
   "name":"_ZN6google8protobuf2io16ArrayInputStreamD0Ev"
  },
  {
   "name":"_ZN6google8protobuf2io16ArrayInputStreamD1Ev"
  },
  {
   "name":"_ZN6google8protobuf2io16ArrayInputStreamD2Ev"
  },
  {
   "name":"_ZN6google8protobuf2io16CodedInputStream10ReadStringEPNSt3__112basic_stringIcNS3_11char_traitsIcEENS3_9allocatorIcEEEEi"
  },
  {
   "name":"_ZN6google8protobuf2io16CodedInputStream11ReadTagSlowEv"
  },
  {
   "name":"_ZN6google8protobuf2io16CodedInputStream15ReadTagFallbackEj"
  },
  {
   "name":"_ZN6google8protobuf2io16CodedInputStream16ReadVarint32SlowEPj"
  },
  {
   "name":"_ZN6google8protobuf2io16CodedInputStream16ReadVarint64SlowEPy"
  },
  {
   "name":"_ZN6google8protobuf2io16CodedInputStream18ReadStringFallbackEPNSt3__112basic_stringIcNS3_11char_traitsIcEENS3_9allocatorIcEEEEi"
  },
  {
   "name":"_ZN6google8protobuf2io16CodedInputStream18SetTotalBytesLimitEii"
  },
  {
   "name":"_ZN6google8protobuf2io16CodedInputStream20ReadVarint32FallbackEj"
  },
  {
   "name":"_ZN6google8protobuf2io16CodedInputStream20ReadVarint64FallbackEv"
  },
  {
   "name":"_ZN6google8protobuf2io16CodedInputStream22GetDirectBufferPointerEPPKvPi"
  },
  {
   "name":"_ZN6google8protobuf2io16CodedInputStream22ReadLengthAndPushLimitEv"
  },
  {
   "name":"_ZN6google8protobuf2io16CodedInputStream25PrintTotalBytesLimitErrorEv"
  },
  {
   "name":"_ZN6google8protobuf2io16CodedInputStream26ReadLittleEndian32FallbackEPj"
  },
  {
   "name":"_ZN6google8protobuf2io16CodedInputStream26ReadLittleEndian64FallbackEPy"
  },
  {
   "name":"_ZN6google8protobuf2io16CodedInputStream28BackUpInputToCurrentPositionEv"
  },
  {
   "name":"_ZN6google8protobuf2io16CodedInputStream34DecrementRecursionDepthAndPopLimitEi"
  },
  {
   "name":"_ZN6google8protobuf2io16CodedInputStream35IncrementRecursionDepthAndPushLimitEi"
  },
  {
   "name":"_ZN6google8protobuf2io16CodedInputStream37CheckEntireMessageConsumedAndPopLimitEi"
  },
  {
   "name":"_ZN6google8protobuf2io16CodedInputStream4SkipEi"
  },
  {
   "name":"_ZN6google8protobuf2io16CodedInputStream7ReadRawEPvi"
  },
  {
   "name":"_ZN6google8protobuf2io16CodedInputStream7RefreshEv"
  },
  {
   "name":"_ZN6google8protobuf2io16CodedInputStream8PopLimitEi"
  },
  {
   "name":"_ZN6google8protobuf2io16CodedInputStream9PushLimitEi"
  },
  {
   "name":"_ZN6google8protobuf2io16CodedInputStreamD1Ev"
  },
  {
   "name":"_ZN6google8protobuf2io16CodedInputStreamD2Ev"
  },
  {
   "name":"_ZN6google8protobuf2io16FileOutputStream23CopyingFileOutputStream5CloseEv"
  },
  {
   "name":"_ZN6google8protobuf2io16FileOutputStream23CopyingFileOutputStream5WriteEPKvi"
  },
  {
   "name":"_ZN6google8protobuf2io16FileOutputStream23CopyingFileOutputStreamC1Ei"
  },
  {
   "name":"_ZN6google8protobuf2io16FileOutputStream23CopyingFileOutputStreamC2Ei"
  },
  {
   "name":"_ZN6google8protobuf2io16FileOutputStream23CopyingFileOutputStreamD0Ev"
  },
  {
   "name":"_ZN6google8protobuf2io16FileOutputStream23CopyingFileOutputStreamD1Ev"
  },
  {
   "name":"_ZN6google8protobuf2io16FileOutputStream23CopyingFileOutputStreamD2Ev"
  },
  {
   "name":"_ZN6google8protobuf2io16FileOutputStream4NextEPPvPi"
  },
  {
   "name":"_ZN6google8protobuf2io16FileOutputStream5CloseEv"
  },
  {
   "name":"_ZN6google8protobuf2io16FileOutputStream5FlushEv"
  },
  {
   "name":"_ZN6google8protobuf2io16FileOutputStream6BackUpEi"
  },
  {
   "name":"_ZN6google8protobuf2io16FileOutputStreamC1Eii"
  },
  {
   "name":"_ZN6google8protobuf2io16FileOutputStreamC2Eii"
  },
  {
   "name":"_ZN6google8protobuf2io16FileOutputStreamD0Ev"
  },
  {
   "name":"_ZN6google8protobuf2io16FileOutputStreamD1Ev"
  },
  {
   "name":"_ZN6google8protobuf2io16FileOutputStreamD2Ev"
  },
  {
   "name":"_ZN6google8protobuf2io16GzipOutputStream4InitEPNS1_20ZeroCopyOutputStreamERKNS2_7OptionsE"
  },
  {
   "name":"_ZN6google8protobuf2io16GzipOutputStream4NextEPPvPi"
  },
  {
   "name":"_ZN6google8protobuf2io16GzipOutputStream5CloseEv"
  },
  {
   "name":"_ZN6google8protobuf2io16GzipOutputStream5FlushEv"
  },
  {
   "name":"_ZN6google8protobuf2io16GzipOutputStream6BackUpEi"
  },
  {
   "name":"_ZN6google8protobuf2io16GzipOutputStream7DeflateEi"
  },
  {
   "name":"_ZN6google8protobuf2io16GzipOutputStream7OptionsC1Ev"
  },
  {
   "name":"_ZN6google8protobuf2io16GzipOutputStream7OptionsC2Ev"
  },
  {
   "name":"_ZN6google8protobuf2io16GzipOutputStreamC1EPNS1_20ZeroCopyOutputStreamE"
  },
  {
   "name":"_ZN6google8protobuf2io16GzipOutputStreamC1EPNS1_20ZeroCopyOutputStreamERKNS2_7OptionsE"
  },
  {
   "name":"_ZN6google8protobuf2io16GzipOutputStreamC2EPNS1_20ZeroCopyOutputStreamE"
  },
  {
   "name":"_ZN6google8protobuf2io16GzipOutputStreamC2EPNS1_20ZeroCopyOutputStreamERKNS2_7OptionsE"
  },
  {
   "name":"_ZN6google8protobuf2io16GzipOutputStreamD0Ev"
  },
  {
   "name":"_ZN6google8protobuf2io16GzipOutputStreamD1Ev"
  },
  {
   "name":"_ZN6google8protobuf2io16GzipOutputStreamD2Ev"
  },
  {
   "name":"_ZN6google8protobuf2io17ArrayOutputStream4NextEPPvPi"
  },
  {
   "name":"_ZN6google8protobuf2io17ArrayOutputStream6BackUpEi"
  },
  {
   "name":"_ZN6google8protobuf2io17ArrayOutputStreamC1EPvii"
  },
  {
   "name":"_ZN6google8protobuf2io17ArrayOutputStreamC2EPvii"
  },
  {
   "name":"_ZN6google8protobuf2io17ArrayOutputStreamD0Ev"
  },
  {
   "name":"_ZN6google8protobuf2io17ArrayOutputStreamD1Ev"
  },
  {
   "name":"_ZN6google8protobuf2io17ArrayOutputStreamD2Ev"
  },
  {
   "name":"_ZN6google8protobuf2io17CodedOutputStream12VarintSize64Ey"
  },
  {
   "name":"_ZN6google8protobuf2io17CodedOutputStream13WriteVarint64Ey"
  },
  {
   "name":"_ZN6google8protobuf2io17CodedOutputStream14EnableAliasingEb"
  },
  {
   "name":"_ZN6google8protobuf2io17CodedOutputStream15WriteAliasedRawEPKvi"
  },
  {
   "name":"_ZN6google8protobuf2io17CodedOutputStream15WriteRawToArrayEPKviPh"
  },
  {
   "name":"_ZN6google8protobuf2io17CodedOutputStream19WriteLittleEndian32Ej"
  },
  {
   "name":"_ZN6google8protobuf2io17CodedOutputStream19WriteLittleEndian64Ey"
  },
  {
   "name":"_ZN6google8protobuf2io17CodedOutputStream20VarintSize32FallbackEj"
  },
  {
   "name":"_ZN6google8protobuf2io17CodedOutputStream20WriteVarint64ToArrayEyPh"
  },
  {
   "name":"_ZN6google8protobuf2io17CodedOutputStream21WriteVarint32SlowPathEj"
  },
  {
   "name":"_ZN6google8protobuf2io17CodedOutputStream22GetDirectBufferPointerEPPvPi"
  },
  {
   "name":"_ZN6google8protobuf2io17CodedOutputStream26WriteStringWithSizeToArrayERKNSt3__112basic_stringIcNS3_11char_traitsIcEENS3_9allocatorIcEEEEPh"
  },
  {
   "name":"_ZN6google8protobuf2io17CodedOutputStream4SkipEi"
  },
  {
   "name":"_ZN6google8protobuf2io17CodedOutputStream4TrimEv"
  },
  {
   "name":"_ZN6google8protobuf2io17CodedOutputStream7RefreshEv"
  },
  {
   "name":"_ZN6google8protobuf2io17CodedOutputStream8WriteRawEPKvi"
  },
  {
   "name":"_ZN6google8protobuf2io17CodedOutputStreamC1EPNS1_20ZeroCopyOutputStreamE"
  },
  {
   "name":"_ZN6google8protobuf2io17CodedOutputStreamC1EPNS1_20ZeroCopyOutputStreamEb"
  },
  {
   "name":"_ZN6google8protobuf2io17CodedOutputStreamC2EPNS1_20ZeroCopyOutputStreamE"
  },
  {
   "name":"_ZN6google8protobuf2io17CodedOutputStreamC2EPNS1_20ZeroCopyOutputStreamEb"
  },
  {
   "name":"_ZN6google8protobuf2io17CodedOutputStreamD1Ev"
  },
  {
   "name":"_ZN6google8protobuf2io17CodedOutputStreamD2Ev"
  },
  {
   "name":"_ZN6google8protobuf2io17SafeDoubleToFloatEd"
  },
  {
   "name":"_ZN6google8protobuf2io18CopyingInputStream4SkipEi"
  },
  {
   "name":"_ZN6google8protobuf2io18CopyingInputStreamD0Ev"
  },
  {
   "name":"_ZN6google8protobuf2io18CopyingInputStreamD1Ev"
  },
  {
   "name":"_ZN6google8protobuf2io18CopyingInputStreamD2Ev"
  },
  {
   "name":"_ZN6google8protobuf2io18IstreamInputStream25CopyingIstreamInputStream4ReadEPvi"
  },
  {
   "name":"_ZN6google8protobuf2io18IstreamInputStream25CopyingIstreamInputStreamC1EPNSt3__113basic_istreamIcNS4_11char_traitsIcEEEE"
  },
  {
   "name":"_ZN6google8protobuf2io18IstreamInputStream25CopyingIstreamInputStreamC2EPNSt3__113basic_istreamIcNS4_11char_traitsIcEEEE"
  },
  {
   "name":"_ZN6google8protobuf2io18IstreamInputStream25CopyingIstreamInputStreamD0Ev"
  },
  {
   "name":"_ZN6google8protobuf2io18IstreamInputStream25CopyingIstreamInputStreamD1Ev"
  },
  {
   "name":"_ZN6google8protobuf2io18IstreamInputStream25CopyingIstreamInputStreamD2Ev"
  },
  {
   "name":"_ZN6google8protobuf2io18IstreamInputStream4NextEPPKvPi"
  },
  {
   "name":"_ZN6google8protobuf2io18IstreamInputStream4SkipEi"
  },
  {
   "name":"_ZN6google8protobuf2io18IstreamInputStream6BackUpEi"
  },
  {
   "name":"_ZN6google8protobuf2io18IstreamInputStreamC1EPNSt3__113basic_istreamIcNS3_11char_traitsIcEEEEi"
  },
  {
   "name":"_ZN6google8protobuf2io18IstreamInputStreamC2EPNSt3__113basic_istreamIcNS3_11char_traitsIcEEEEi"
  },
  {
   "name":"_ZN6google8protobuf2io18IstreamInputStreamD0Ev"
  },
  {
   "name":"_ZN6google8protobuf2io18IstreamInputStreamD1Ev"
  },
  {
   "name":"_ZN6google8protobuf2io18IstreamInputStreamD2Ev"
  },
  {
   "name":"_ZN6google8protobuf2io18StringOutputStream4NextEPPvPi"
  },
  {
   "name":"_ZN6google8protobuf2io18StringOutputStream6BackUpEi"
  },
  {
   "name":"_ZN6google8protobuf2io18StringOutputStream9SetStringEPNSt3__112basic_stringIcNS3_11char_traitsIcEENS3_9allocatorIcEEEE"
  },
  {
   "name":"_ZN6google8protobuf2io18StringOutputStreamC1EPNSt3__112basic_stringIcNS3_11char_traitsIcEENS3_9allocatorIcEEEE"
  },
  {
   "name":"_ZN6google8protobuf2io18StringOutputStreamC2EPNSt3__112basic_stringIcNS3_11char_traitsIcEENS3_9allocatorIcEEEE"
  },
  {
   "name":"_ZN6google8protobuf2io18StringOutputStreamD0Ev"
  },
  {
   "name":"_ZN6google8protobuf2io18StringOutputStreamD1Ev"
  },
  {
   "name":"_ZN6google8protobuf2io18StringOutputStreamD2Ev"
  },
  {
   "name":"_ZN6google8protobuf2io19CopyingOutputStreamD0Ev"
  },
  {
   "name":"_ZN6google8protobuf2io19CopyingOutputStreamD1Ev"
  },
  {
   "name":"_ZN6google8protobuf2io19CopyingOutputStreamD2Ev"
  },
  {
   "name":"_ZN6google8protobuf2io19LimitingInputStream4NextEPPKvPi"
  },
  {
   "name":"_ZN6google8protobuf2io19LimitingInputStream4SkipEi"
  },
  {
   "name":"_ZN6google8protobuf2io19LimitingInputStream6BackUpEi"
  },
  {
   "name":"_ZN6google8protobuf2io19LimitingInputStreamC1EPNS1_19ZeroCopyInputStreamEx"
  },
  {
   "name":"_ZN6google8protobuf2io19LimitingInputStreamC2EPNS1_19ZeroCopyInputStreamEx"
  },
  {
   "name":"_ZN6google8protobuf2io19LimitingInputStreamD0Ev"
  },
  {
   "name":"_ZN6google8protobuf2io19LimitingInputStreamD1Ev"
  },
  {
   "name":"_ZN6google8protobuf2io19LimitingInputStreamD2Ev"
  },
  {
   "name":"_ZN6google8protobuf2io19OstreamOutputStream26CopyingOstreamOutputStream5WriteEPKvi"
  },
  {
   "name":"_ZN6google8protobuf2io19OstreamOutputStream26CopyingOstreamOutputStreamC1EPNSt3__113basic_ostreamIcNS4_11char_traitsIcEEEE"
  },
  {
   "name":"_ZN6google8protobuf2io19OstreamOutputStream26CopyingOstreamOutputStreamC2EPNSt3__113basic_ostreamIcNS4_11char_traitsIcEEEE"
  },
  {
   "name":"_ZN6google8protobuf2io19OstreamOutputStream26CopyingOstreamOutputStreamD0Ev"
  },
  {
   "name":"_ZN6google8protobuf2io19OstreamOutputStream26CopyingOstreamOutputStreamD1Ev"
  },
  {
   "name":"_ZN6google8protobuf2io19OstreamOutputStream26CopyingOstreamOutputStreamD2Ev"
  },
  {
   "name":"_ZN6google8protobuf2io19OstreamOutputStream4NextEPPvPi"
  },
  {
   "name":"_ZN6google8protobuf2io19OstreamOutputStream6BackUpEi"
  },
  {
   "name":"_ZN6google8protobuf2io19OstreamOutputStreamC1EPNSt3__113basic_ostreamIcNS3_11char_traitsIcEEEEi"
  },
  {
   "name":"_ZN6google8protobuf2io19OstreamOutputStreamC2EPNSt3__113basic_ostreamIcNS3_11char_traitsIcEEEEi"
  },
  {
   "name":"_ZN6google8protobuf2io19OstreamOutputStreamD0Ev"
  },
  {
   "name":"_ZN6google8protobuf2io19OstreamOutputStreamD1Ev"
  },
  {
   "name":"_ZN6google8protobuf2io19OstreamOutputStreamD2Ev"
  },
  {
   "name":"_ZN6google8protobuf2io19ZeroCopyInputStreamD0Ev"
  },
  {
   "name":"_ZN6google8protobuf2io19ZeroCopyInputStreamD1Ev"
  },
  {
   "name":"_ZN6google8protobuf2io19ZeroCopyInputStreamD2Ev"
  },
  {
   "name":"_ZN6google8protobuf2io20ZeroCopyOutputStream15WriteAliasedRawEPKvi"
  },
  {
   "name":"_ZN6google8protobuf2io20ZeroCopyOutputStreamD0Ev"
  },
  {
   "name":"_ZN6google8protobuf2io20ZeroCopyOutputStreamD1Ev"
  },
  {
   "name":"_ZN6google8protobuf2io20ZeroCopyOutputStreamD2Ev"
  },
  {
   "name":"_ZN6google8protobuf2io22LazyStringOutputStream4NextEPPvPi"
  },
  {
   "name":"_ZN6google8protobuf2io22LazyStringOutputStreamC1EPNS0_14ResultCallbackIPNSt3__112basic_stringIcNS4_11char_traitsIcEENS4_9allocatorIcEEEEEE"
  },
  {
   "name":"_ZN6google8protobuf2io22LazyStringOutputStreamC2EPNS0_14ResultCallbackIPNSt3__112basic_stringIcNS4_11char_traitsIcEENS4_9allocatorIcEEEEEE"
  },
  {
   "name":"_ZN6google8protobuf2io22LazyStringOutputStreamD0Ev"
  },
  {
   "name":"_ZN6google8protobuf2io22LazyStringOutputStreamD1Ev"
  },
  {
   "name":"_ZN6google8protobuf2io22LazyStringOutputStreamD2Ev"
  },
  {
   "name":"_ZN6google8protobuf2io24ConcatenatingInputStream4NextEPPKvPi"
  },
  {
   "name":"_ZN6google8protobuf2io24ConcatenatingInputStream4SkipEi"
  },
  {
   "name":"_ZN6google8protobuf2io24ConcatenatingInputStream6BackUpEi"
  },
  {
   "name":"_ZN6google8protobuf2io24ConcatenatingInputStreamC1EPKPNS1_19ZeroCopyInputStreamEi"
  },
  {
   "name":"_ZN6google8protobuf2io24ConcatenatingInputStreamC2EPKPNS1_19ZeroCopyInputStreamEi"
  },
  {
   "name":"_ZN6google8protobuf2io24ConcatenatingInputStreamD0Ev"
  },
  {
   "name":"_ZN6google8protobuf2io24ConcatenatingInputStreamD1Ev"
  },
  {
   "name":"_ZN6google8protobuf2io24ConcatenatingInputStreamD2Ev"
  },
  {
   "name":"_ZN6google8protobuf2io25CopyingInputStreamAdaptor10FreeBufferEv"
  },
  {
   "name":"_ZN6google8protobuf2io25CopyingInputStreamAdaptor22AllocateBufferIfNeededEv"
  },
  {
   "name":"_ZN6google8protobuf2io25CopyingInputStreamAdaptor4NextEPPKvPi"
  },
  {
   "name":"_ZN6google8protobuf2io25CopyingInputStreamAdaptor4SkipEi"
  },
  {
   "name":"_ZN6google8protobuf2io25CopyingInputStreamAdaptor6BackUpEi"
  },
  {
   "name":"_ZN6google8protobuf2io25CopyingInputStreamAdaptorC1EPNS1_18CopyingInputStreamEi"
  },
  {
   "name":"_ZN6google8protobuf2io25CopyingInputStreamAdaptorC2EPNS1_18CopyingInputStreamEi"
  },
  {
   "name":"_ZN6google8protobuf2io25CopyingInputStreamAdaptorD0Ev"
  },
  {
   "name":"_ZN6google8protobuf2io25CopyingInputStreamAdaptorD1Ev"
  },
  {
   "name":"_ZN6google8protobuf2io25CopyingInputStreamAdaptorD2Ev"
  },
  {
   "name":"_ZN6google8protobuf2io26CopyingOutputStreamAdaptor10FreeBufferEv"
  },
  {
   "name":"_ZN6google8protobuf2io26CopyingOutputStreamAdaptor11WriteBufferEv"
  },
  {
   "name":"_ZN6google8protobuf2io26CopyingOutputStreamAdaptor22AllocateBufferIfNeededEv"
  },
  {
   "name":"_ZN6google8protobuf2io26CopyingOutputStreamAdaptor4NextEPPvPi"
  },
  {
   "name":"_ZN6google8protobuf2io26CopyingOutputStreamAdaptor5FlushEv"
  },
  {
   "name":"_ZN6google8protobuf2io26CopyingOutputStreamAdaptor6BackUpEi"
  },
  {
   "name":"_ZN6google8protobuf2io26CopyingOutputStreamAdaptorC1EPNS1_19CopyingOutputStreamEi"
  },
  {
   "name":"_ZN6google8protobuf2io26CopyingOutputStreamAdaptorC2EPNS1_19CopyingOutputStreamEi"
  },
  {
   "name":"_ZN6google8protobuf2io26CopyingOutputStreamAdaptorD0Ev"
  },
  {
   "name":"_ZN6google8protobuf2io26CopyingOutputStreamAdaptorD1Ev"
  },
  {
   "name":"_ZN6google8protobuf2io26CopyingOutputStreamAdaptorD2Ev"
  },
  {
   "name":"_ZN6google8protobuf2io7Printer20GetSubstitutionRangeEPKcPNSt3__14pairImmEE"
  },
  {
   "name":"_ZN6google8protobuf2io7Printer5PrintEPKc"
  },
  {
   "name":"_ZN6google8protobuf2io7Printer5PrintEPKcS4_RKNSt3__112basic_stringIcNS5_11char_traitsIcEENS5_9allocatorIcEEEE"
  },
  {
   "name":"_ZN6google8protobuf2io7Printer5PrintEPKcS4_RKNSt3__112basic_stringIcNS5_11char_traitsIcEENS5_9allocatorIcEEEES4_SD_"
  },
  {
   "name":"_ZN6google8protobuf2io7Printer5PrintEPKcS4_RKNSt3__112basic_stringIcNS5_11char_traitsIcEENS5_9allocatorIcEEEES4_SD_S4_SD_"
  },
  {
   "name":"_ZN6google8protobuf2io7Printer5PrintEPKcS4_RKNSt3__112basic_stringIcNS5_11char_traitsIcEENS5_9allocatorIcEEEES4_SD_S4_SD_S4_SD_"
  },
  {
   "name":"_ZN6google8protobuf2io7Printer5PrintEPKcS4_RKNSt3__112basic_stringIcNS5_11char_traitsIcEENS5_9allocatorIcEEEES4_SD_S4_SD_S4_SD_S4_SD_"
  },
  {
   "name":"_ZN6google8protobuf2io7Printer5PrintEPKcS4_RKNSt3__112basic_stringIcNS5_11char_traitsIcEENS5_9allocatorIcEEEES4_SD_S4_SD_S4_SD_S4_SD_S4_SD_"
  },
  {
   "name":"_ZN6google8protobuf2io7Printer5PrintEPKcS4_RKNSt3__112basic_stringIcNS5_11char_traitsIcEENS5_9allocatorIcEEEES4_SD_S4_SD_S4_SD_S4_SD_S4_SD_S4_SD_"
  },
  {
   "name":"_ZN6google8protobuf2io7Printer5PrintEPKcS4_RKNSt3__112basic_stringIcNS5_11char_traitsIcEENS5_9allocatorIcEEEES4_SD_S4_SD_S4_SD_S4_SD_S4_SD_S4_SD_S4_SD_"
  },
  {
   "name":"_ZN6google8protobuf2io7Printer5PrintERKNSt3__13mapINS3_12basic_stringIcNS3_11char_traitsIcEENS3_9allocatorIcEEEESA_NS3_4lessISA_EENS8_INS3_4pairIKSA_SA_EEEEEEPKc"
  },
  {
   "name":"_ZN6google8protobuf2io7Printer6IndentEv"
  },
  {
   "name":"_ZN6google8protobuf2io7Printer7OutdentEv"
  },
  {
   "name":"_ZN6google8protobuf2io7Printer8AnnotateEPKcS4_RKNSt3__112basic_stringIcNS5_11char_traitsIcEENS5_9allocatorIcEEEERKNS5_6vectorIiNS9_IiEEEE"
  },
  {
   "name":"_ZN6google8protobuf2io7Printer8PrintRawEPKc"
  },
  {
   "name":"_ZN6google8protobuf2io7Printer8PrintRawERKNSt3__112basic_stringIcNS3_11char_traitsIcEENS3_9allocatorIcEEEE"
  },
  {
   "name":"_ZN6google8protobuf2io7Printer8WriteRawEPKci"
  },
  {
   "name":"_ZN6google8protobuf2io7PrinterC1EPNS1_20ZeroCopyOutputStreamEc"
  },
  {
   "name":"_ZN6google8protobuf2io7PrinterC1EPNS1_20ZeroCopyOutputStreamEcPNS1_19AnnotationCollectorE"
  },
  {
   "name":"_ZN6google8protobuf2io7PrinterC2EPNS1_20ZeroCopyOutputStreamEc"
  },
  {
   "name":"_ZN6google8protobuf2io7PrinterC2EPNS1_20ZeroCopyOutputStreamEcPNS1_19AnnotationCollectorE"
  },
  {
   "name":"_ZN6google8protobuf2io7PrinterD1Ev"
  },
  {
   "name":"_ZN6google8protobuf2io7PrinterD2Ev"
  },
  {
   "name":"_ZN6google8protobuf2io9Tokenizer10ParseFloatERKNSt3__112basic_stringIcNS3_11char_traitsIcEENS3_9allocatorIcEEEE"
  },
  {
   "name":"_ZN6google8protobuf2io9Tokenizer12IsIdentifierERKNSt3__112basic_stringIcNS3_11char_traitsIcEENS3_9allocatorIcEEEE"
  },
  {
   "name":"_ZN6google8protobuf2io9Tokenizer12ParseIntegerERKNSt3__112basic_stringIcNS3_11char_traitsIcEENS3_9allocatorIcEEEEyPy"
  },
  {
   "name":"_ZN6google8protobuf2io9Tokenizer13ConsumeNumberEbb"
  },
  {
   "name":"_ZN6google8protobuf2io9Tokenizer13ConsumeStringEc"
  },
  {
   "name":"_ZN6google8protobuf2io9Tokenizer16NextWithCommentsEPNSt3__112basic_stringIcNS3_11char_traitsIcEENS3_9allocatorIcEEEEPNS3_6vectorIS9_NS7_IS9_EEEESA_"
  },
  {
   "name":"_ZN6google8protobuf2io9Tokenizer17ParseStringAppendERKNSt3__112basic_stringIcNS3_11char_traitsIcEENS3_9allocatorIcEEEEPS9_"
  },
  {
   "name":"_ZN6google8protobuf2io9Tokenizer18ConsumeLineCommentEPNSt3__112basic_stringIcNS3_11char_traitsIcEENS3_9allocatorIcEEEE"
  },
  {
   "name":"_ZN6google8protobuf2io9Tokenizer19ConsumeBlockCommentEPNSt3__112basic_stringIcNS3_11char_traitsIcEENS3_9allocatorIcEEEE"
  },
  {
   "name":"_ZN6google8protobuf2io9Tokenizer22TryConsumeCommentStartEv"
  },
  {
   "name":"_ZN6google8protobuf2io9Tokenizer4NextEv"
  },
  {
   "name":"_ZN6google8protobuf2io9Tokenizer7RefreshEv"
  },
  {
   "name":"_ZN6google8protobuf2io9Tokenizer8NextCharEv"
  },
  {
   "name":"_ZN6google8protobuf2io9TokenizerC1EPNS1_19ZeroCopyInputStreamEPNS1_14ErrorCollectorE"
  },
  {
   "name":"_ZN6google8protobuf2io9TokenizerC2EPNS1_19ZeroCopyInputStreamEPNS1_14ErrorCollectorE"
  },
  {
   "name":"_ZN6google8protobuf2io9TokenizerD1Ev"
  },
  {
   "name":"_ZN6google8protobuf2io9TokenizerD2Ev"
  },
  {
   "name":"_ZN6google8protobuf30DescriptorProto_ExtensionRange10SharedCtorEv"
  },
  {
   "name":"_ZN6google8protobuf30DescriptorProto_ExtensionRange10SharedDtorEv"
  },
  {
   "name":"_ZN6google8protobuf30DescriptorProto_ExtensionRange10descriptorEv"
  },
  {
   "name":"_ZN6google8protobuf30DescriptorProto_ExtensionRange12InternalSwapEPS1_"
  },
  {
   "name":"_ZN6google8protobuf30DescriptorProto_ExtensionRange16default_instanceEv"
  },
  {
   "name":"_ZN6google8protobuf30DescriptorProto_ExtensionRange21InitAsDefaultInstanceEv"
  },
  {
   "name":"_ZN6google8protobuf30DescriptorProto_ExtensionRange27MergePartialFromCodedStreamEPNS0_2io16CodedInputStreamE"
  },
  {
   "name":"_ZN6google8protobuf30DescriptorProto_ExtensionRange4SwapEPS1_"
  },
  {
   "name":"_ZN6google8protobuf30DescriptorProto_ExtensionRange5ClearEv"
  },
  {
   "name":"_ZN6google8protobuf30DescriptorProto_ExtensionRange8CopyFromERKNS0_7MessageE"
  },
  {
   "name":"_ZN6google8protobuf30DescriptorProto_ExtensionRange8CopyFromERKS1_"
  },
  {
   "name":"_ZN6google8protobuf30DescriptorProto_ExtensionRange9MergeFromERKNS0_7MessageE"
  },
  {
   "name":"_ZN6google8protobuf30DescriptorProto_ExtensionRange9MergeFromERKS1_"
  },
  {
   "name":"_ZN6google8protobuf30DescriptorProto_ExtensionRangeC1ERKS1_"
  },
  {
   "name":"_ZN6google8protobuf30DescriptorProto_ExtensionRangeC1Ev"
  },
  {
   "name":"_ZN6google8protobuf30DescriptorProto_ExtensionRangeC2ERKS1_"
  },
  {
   "name":"_ZN6google8protobuf30DescriptorProto_ExtensionRangeC2Ev"
  },
  {
   "name":"_ZN6google8protobuf30DescriptorProto_ExtensionRangeD0Ev"
  },
  {
   "name":"_ZN6google8protobuf30DescriptorProto_ExtensionRangeD1Ev"
  },
  {
   "name":"_ZN6google8protobuf30DescriptorProto_ExtensionRangeD2Ev"
  },
  {
   "name":"_ZN6google8protobuf30FieldOptions_JSType_descriptorEv"
  },
  {
   "name":"_ZN6google8protobuf30WebSafeBase64EscapeWithPaddingENS0_11StringPieceEPNSt3__112basic_stringIcNS2_11char_traitsIcEENS2_9allocatorIcEEEE"
  },
  {
   "name":"_ZN6google8protobuf32FileOptions_OptimizeMode_IsValidEi"
  },
  {
   "name":"_ZN6google8protobuf33FieldDescriptorProto_Type_IsValidEi"
  },
  {
   "name":"_ZN6google8protobuf34FieldDescriptorProto_Label_IsValidEi"
  },
  {
   "name":"_ZN6google8protobuf35FileOptions_OptimizeMode_descriptorEv"
  },
  {
   "name":"_ZN6google8protobuf36FieldDescriptorProto_Type_descriptorEv"
  },
  {
   "name":"_ZN6google8protobuf37FieldDescriptorProto_Label_descriptorEv"
  },
  {
   "name":"_ZN6google8protobuf3Any10SharedCtorEv"
  },
  {
   "name":"_ZN6google8protobuf3Any10SharedDtorEv"
  },
  {
   "name":"_ZN6google8protobuf3Any10descriptorEv"
  },
  {
   "name":"_ZN6google8protobuf3Any12InternalSwapEPS1_"
  },
  {
   "name":"_ZN6google8protobuf3Any16default_instanceEv"
  },
  {
   "name":"_ZN6google8protobuf3Any21InitAsDefaultInstanceEv"
  },
  {
   "name":"_ZN6google8protobuf3Any27MergePartialFromCodedStreamEPNS0_2io16CodedInputStreamE"
  },
  {
   "name":"_ZN6google8protobuf3Any4SwapEPS1_"
  },
  {
   "name":"_ZN6google8protobuf3Any5ClearEv"
  },
  {
   "name":"_ZN6google8protobuf3Any8CopyFromERKNS0_7MessageE"
  },
  {
   "name":"_ZN6google8protobuf3Any8CopyFromERKS1_"
  },
  {
   "name":"_ZN6google8protobuf3Any8PackFromERKNS0_7MessageE"
  },
  {
   "name":"_ZN6google8protobuf3Any8PackFromERKNS0_7MessageERKNSt3__112basic_stringIcNS5_11char_traitsIcEENS5_9allocatorIcEEEE"
  },
  {
   "name":"_ZN6google8protobuf3Any9MergeFromERKNS0_7MessageE"
  },
  {
   "name":"_ZN6google8protobuf3Any9MergeFromERKS1_"
  },
  {
   "name":"_ZN6google8protobuf3AnyC1ERKS1_"
  },
  {
   "name":"_ZN6google8protobuf3AnyC1Ev"
  },
  {
   "name":"_ZN6google8protobuf3AnyC2ERKS1_"
  },
  {
   "name":"_ZN6google8protobuf3AnyC2Ev"
  },
  {
   "name":"_ZN6google8protobuf3AnyD0Ev"
  },
  {
   "name":"_ZN6google8protobuf3AnyD1Ev"
  },
  {
   "name":"_ZN6google8protobuf3AnyD2Ev"
  },
  {
   "name":"_ZN6google8protobuf3Api10SharedCtorEv"
  },
  {
   "name":"_ZN6google8protobuf3Api10SharedDtorEv"
  },
  {
   "name":"_ZN6google8protobuf3Api10descriptorEv"
  },
  {
   "name":"_ZN6google8protobuf3Api12InternalSwapEPS1_"
  },
  {
   "name":"_ZN6google8protobuf3Api16default_instanceEv"
  },
  {
   "name":"_ZN6google8protobuf3Api21InitAsDefaultInstanceEv"
  },
  {
   "name":"_ZN6google8protobuf3Api27MergePartialFromCodedStreamEPNS0_2io16CodedInputStreamE"
  },
  {
   "name":"_ZN6google8protobuf3Api4SwapEPS1_"
  },
  {
   "name":"_ZN6google8protobuf3Api5ClearEv"
  },
  {
   "name":"_ZN6google8protobuf3Api8CopyFromERKNS0_7MessageE"
  },
  {
   "name":"_ZN6google8protobuf3Api8CopyFromERKS1_"
  },
  {
   "name":"_ZN6google8protobuf3Api9MergeFromERKNS0_7MessageE"
  },
  {
   "name":"_ZN6google8protobuf3Api9MergeFromERKS1_"
  },
  {
   "name":"_ZN6google8protobuf3ApiC1ERKS1_"
  },
  {
   "name":"_ZN6google8protobuf3ApiC1Ev"
  },
  {
   "name":"_ZN6google8protobuf3ApiC2ERKS1_"
  },
  {
   "name":"_ZN6google8protobuf3ApiC2Ev"
  },
  {
   "name":"_ZN6google8protobuf3ApiD0Ev"
  },
  {
   "name":"_ZN6google8protobuf3ApiD1Ev"
  },
  {
   "name":"_ZN6google8protobuf3ApiD2Ev"
  },
  {
   "name":"_ZN6google8protobuf48protobuf_AddDesc_google_2fprotobuf_2fany_2eprotoEv"
  },
  {
   "name":"_ZN6google8protobuf48protobuf_AddDesc_google_2fprotobuf_2fapi_2eprotoEv"
  },
  {
   "name":"_ZN6google8protobuf49protobuf_AddDesc_google_2fprotobuf_2ftype_2eprotoEv"
  },
  {
   "name":"_ZN6google8protobuf4Enum10SharedCtorEv"
  },
  {
   "name":"_ZN6google8protobuf4Enum10SharedDtorEv"
  },
  {
   "name":"_ZN6google8protobuf4Enum10descriptorEv"
  },
  {
   "name":"_ZN6google8protobuf4Enum12InternalSwapEPS1_"
  },
  {
   "name":"_ZN6google8protobuf4Enum16default_instanceEv"
  },
  {
   "name":"_ZN6google8protobuf4Enum21InitAsDefaultInstanceEv"
  },
  {
   "name":"_ZN6google8protobuf4Enum27MergePartialFromCodedStreamEPNS0_2io16CodedInputStreamE"
  },
  {
   "name":"_ZN6google8protobuf4Enum4SwapEPS1_"
  },
  {
   "name":"_ZN6google8protobuf4Enum5ClearEv"
  },
  {
   "name":"_ZN6google8protobuf4Enum8CopyFromERKNS0_7MessageE"
  },
  {
   "name":"_ZN6google8protobuf4Enum8CopyFromERKS1_"
  },
  {
   "name":"_ZN6google8protobuf4Enum9MergeFromERKNS0_7MessageE"
  },
  {
   "name":"_ZN6google8protobuf4Enum9MergeFromERKS1_"
  },
  {
   "name":"_ZN6google8protobuf4EnumC1ERKS1_"
  },
  {
   "name":"_ZN6google8protobuf4EnumC1Ev"
  },
  {
   "name":"_ZN6google8protobuf4EnumC2ERKS1_"
  },
  {
   "name":"_ZN6google8protobuf4EnumC2Ev"
  },
  {
   "name":"_ZN6google8protobuf4EnumD0Ev"
  },
  {
   "name":"_ZN6google8protobuf4EnumD1Ev"
  },
  {
   "name":"_ZN6google8protobuf4EnumD2Ev"
  },
  {
   "name":"_ZN6google8protobuf4Type10SharedCtorEv"
  },
  {
   "name":"_ZN6google8protobuf4Type10SharedDtorEv"
  },
  {
   "name":"_ZN6google8protobuf4Type10descriptorEv"
  },
  {
   "name":"_ZN6google8protobuf4Type12InternalSwapEPS1_"
  },
  {
   "name":"_ZN6google8protobuf4Type16default_instanceEv"
  },
  {
   "name":"_ZN6google8protobuf4Type21InitAsDefaultInstanceEv"
  },
  {
   "name":"_ZN6google8protobuf4Type27MergePartialFromCodedStreamEPNS0_2io16CodedInputStreamE"
  },
  {
   "name":"_ZN6google8protobuf4Type4SwapEPS1_"
  },
  {
   "name":"_ZN6google8protobuf4Type5ClearEv"
  },
  {
   "name":"_ZN6google8protobuf4Type8CopyFromERKNS0_7MessageE"
  },
  {
   "name":"_ZN6google8protobuf4Type8CopyFromERKS1_"
  },
  {
   "name":"_ZN6google8protobuf4Type9MergeFromERKNS0_7MessageE"
  },
  {
   "name":"_ZN6google8protobuf4Type9MergeFromERKS1_"
  },
  {
   "name":"_ZN6google8protobuf4TypeC1ERKS1_"
  },
  {
   "name":"_ZN6google8protobuf4TypeC1Ev"
  },
  {
   "name":"_ZN6google8protobuf4TypeC2ERKS1_"
  },
  {
   "name":"_ZN6google8protobuf4TypeC2Ev"
  },
  {
   "name":"_ZN6google8protobuf4TypeD0Ev"
  },
  {
   "name":"_ZN6google8protobuf4TypeD1Ev"
  },
  {
   "name":"_ZN6google8protobuf4TypeD2Ev"
  },
  {
   "name":"_ZN6google8protobuf4util13FieldMaskUtil10FromStringENS0_11StringPieceEPNS0_9FieldMaskE"
  },
  {
   "name":"_ZN6google8protobuf4util13FieldMaskUtil12ToJsonStringERKNS0_9FieldMaskEPNSt3__112basic_stringIcNS6_11char_traitsIcEENS6_9allocatorIcEEEE"
  },
  {
   "name":"_ZN6google8protobuf4util13FieldMaskUtil14FromJsonStringENS0_11StringPieceEPNS0_9FieldMaskE"
  },
  {
   "name":"_ZN6google8protobuf4util13FieldMaskUtil14MergeMessageToERKNS0_7MessageERKNS0_9FieldMaskERKNS2_12MergeOptionsEPS3_"
  },
  {
   "name":"_ZN6google8protobuf4util13FieldMaskUtil15ToCanonicalFormERKNS0_9FieldMaskEPS3_"
  },
  {
   "name":"_ZN6google8protobuf4util13FieldMaskUtil17IsPathInFieldMaskENS0_11StringPieceERKNS0_9FieldMaskE"
  },
  {
   "name":"_ZN6google8protobuf4util13FieldMaskUtil19InternalIsValidPathEPKNS0_10DescriptorENS0_11StringPieceE"
  },
  {
   "name":"_ZN6google8protobuf4util13FieldMaskUtil20CamelCaseToSnakeCaseENS0_11StringPieceEPNSt3__112basic_stringIcNS4_11char_traitsIcEENS4_9allocatorIcEEEE"
  },
  {
   "name":"_ZN6google8protobuf4util13FieldMaskUtil20SnakeCaseToCamelCaseENS0_11StringPieceEPNSt3__112basic_stringIcNS4_11char_traitsIcEENS4_9allocatorIcEEEE"
  },
  {
   "name":"_ZN6google8protobuf4util13FieldMaskUtil32InternalGetFieldMaskForAllFieldsEPKNS0_10DescriptorEPNS0_9FieldMaskE"
  },
  {
   "name":"_ZN6google8protobuf4util13FieldMaskUtil5UnionERKNS0_9FieldMaskES5_PS3_"
  },
  {
   "name":"_ZN6google8protobuf4util13FieldMaskUtil8ToStringERKNS0_9FieldMaskE"
  },
  {
   "name":"_ZN6google8protobuf4util13FieldMaskUtil9IntersectERKNS0_9FieldMaskES5_PS3_"
  },
  {
   "name":"_ZN6google8protobuf4util15FieldComparatorC2Ev"
  },
  {
   "name":"_ZN6google8protobuf4util15FieldComparatorD0Ev"
  },
  {
   "name":"_ZN6google8protobuf4util15FieldComparatorD1Ev"
  },
  {
   "name":"_ZN6google8protobuf4util15FieldComparatorD2Ev"
  },
  {
   "name":"_ZN6google8protobuf4util18BinaryToJsonStreamEPNS1_12TypeResolverERKNSt3__112basic_stringIcNS4_11char_traitsIcEENS4_9allocatorIcEEEEPNS0_2io19ZeroCopyInputStreamEPNSD_20ZeroCopyOutputStreamERKNS1_11JsonOptionsE"
  },
  {
   "name":"_ZN6google8protobuf4util18BinaryToJsonStringEPNS1_12TypeResolverERKNSt3__112basic_stringIcNS4_11char_traitsIcEENS4_9allocatorIcEEEESC_PSA_RKNS1_11JsonOptionsE"
  },
  {
   "name":"_ZN6google8protobuf4util18JsonToBinaryStreamEPNS1_12TypeResolverERKNSt3__112basic_stringIcNS4_11char_traitsIcEENS4_9allocatorIcEEEEPNS0_2io19ZeroCopyInputStreamEPNSD_20ZeroCopyOutputStreamE"
  },
  {
   "name":"_ZN6google8protobuf4util18JsonToBinaryStringEPNS1_12TypeResolverERKNSt3__112basic_stringIcNS4_11char_traitsIcEENS4_9allocatorIcEEEESC_PSA_"
  },
  {
   "name":"_ZN6google8protobuf4util18MessageDifferencer10EquivalentERKNS0_7MessageES5_"
  },
  {
   "name":"_ZN6google8protobuf4util18MessageDifferencer10TreatAsMapEPKNS0_15FieldDescriptorES5_"
  },
  {
   "name":"_ZN6google8protobuf4util18MessageDifferencer10TreatAsSetEPKNS0_15FieldDescriptorE"
  },
  {
   "name":"_ZN6google8protobuf4util18MessageDifferencer11FieldBeforeEPKNS0_15FieldDescriptorES5_"
  },
  {
   "name":"_ZN6google8protobuf4util18MessageDifferencer11IgnoreFieldEPKNS0_15FieldDescriptorE"
  },
  {
   "name":"_ZN6google8protobuf4util18MessageDifferencer11TreatAsListEPKNS0_15FieldDescriptorE"
  },
  {
   "name":"_ZN6google8protobuf4util18MessageDifferencer13CombineFieldsERKNSt3__16vectorIPKNS0_15FieldDescriptorENS3_9allocatorIS7_EEEENS2_5ScopeESC_SD_PSA_"
  },
  {
   "name":"_ZN6google8protobuf4util18MessageDifferencer14IgnoreCriteriaC2Ev"
  },
  {
   "name":"_ZN6google8protobuf4util18MessageDifferencer14IgnoreCriteriaD0Ev"
  },
  {
   "name":"_ZN6google8protobuf4util18MessageDifferencer14IgnoreCriteriaD1Ev"
  },
  {
   "name":"_ZN6google8protobuf4util18MessageDifferencer14IgnoreCriteriaD2Ev"
  },
  {
   "name":"_ZN6google8protobuf4util18MessageDifferencer14IsTreatedAsSetEPKNS0_15FieldDescriptorE"
  },
  {
   "name":"_ZN6google8protobuf4util18MessageDifferencer14StreamReporter10PrintValueERKNS0_7MessageERKNSt3__16vectorINS2_13SpecificFieldENS7_9allocatorIS9_EEEEb"
  },
  {
   "name":"_ZN6google8protobuf4util18MessageDifferencer14StreamReporter11ReportAddedERKNS0_7MessageES6_RKNSt3__16vectorINS2_13SpecificFieldENS7_9allocatorIS9_EEEE"
  },
  {
   "name":"_ZN6google8protobuf4util18MessageDifferencer14StreamReporter11ReportMovedERKNS0_7MessageES6_RKNSt3__16vectorINS2_13SpecificFieldENS7_9allocatorIS9_EEEE"
  },
  {
   "name":"_ZN6google8protobuf4util18MessageDifferencer14StreamReporter13ReportDeletedERKNS0_7MessageES6_RKNSt3__16vectorINS2_13SpecificFieldENS7_9allocatorIS9_EEEE"
  },
  {
   "name":"_ZN6google8protobuf4util18MessageDifferencer14StreamReporter13ReportIgnoredERKNS0_7MessageES6_RKNSt3__16vectorINS2_13SpecificFieldENS7_9allocatorIS9_EEEE"
  },
  {
   "name":"_ZN6google8protobuf4util18MessageDifferencer14StreamReporter13ReportMatchedERKNS0_7MessageES6_RKNSt3__16vectorINS2_13SpecificFieldENS7_9allocatorIS9_EEEE"
  },
  {
   "name":"_ZN6google8protobuf4util18MessageDifferencer14StreamReporter14ReportModifiedERKNS0_7MessageES6_RKNSt3__16vectorINS2_13SpecificFieldENS7_9allocatorIS9_EEEE"
  },
  {
   "name":"_ZN6google8protobuf4util18MessageDifferencer14StreamReporter22PrintUnknownFieldValueEPKNS0_12UnknownFieldE"
  },
  {
   "name":"_ZN6google8protobuf4util18MessageDifferencer14StreamReporter25ReportUnknownFieldIgnoredERKNS0_7MessageES6_RKNSt3__16vectorINS2_13SpecificFieldENS7_9allocatorIS9_EEEE"
  },
  {
   "name":"_ZN6google8protobuf4util18MessageDifferencer14StreamReporter5PrintERKNSt3__112basic_stringIcNS4_11char_traitsIcEENS4_9allocatorIcEEEE"
  },
  {
   "name":"_ZN6google8protobuf4util18MessageDifferencer14StreamReporter9PrintPathERKNSt3__16vectorINS2_13SpecificFieldENS4_9allocatorIS6_EEEEb"
  },
  {
   "name":"_ZN6google8protobuf4util18MessageDifferencer14StreamReporterC1EPNS0_2io20ZeroCopyOutputStreamE"
  },
  {
   "name":"_ZN6google8protobuf4util18MessageDifferencer14StreamReporterC1EPNS0_2io7PrinterE"
  },
  {
   "name":"_ZN6google8protobuf4util18MessageDifferencer14StreamReporterC2EPNS0_2io20ZeroCopyOutputStreamE"
  },
  {
   "name":"_ZN6google8protobuf4util18MessageDifferencer14StreamReporterC2EPNS0_2io7PrinterE"
  },
  {
   "name":"_ZN6google8protobuf4util18MessageDifferencer14StreamReporterD0Ev"
  },
  {
   "name":"_ZN6google8protobuf4util18MessageDifferencer14StreamReporterD1Ev"
  },
  {
   "name":"_ZN6google8protobuf4util18MessageDifferencer14StreamReporterD2Ev"
  },
  {
   "name":"_ZN6google8protobuf4util18MessageDifferencer16CheckPathChangedERKNSt3__16vectorINS2_13SpecificFieldENS3_9allocatorIS5_EEEE"
  },
  {
   "name":"_ZN6google8protobuf4util18MessageDifferencer16MapKeyComparatorC1Ev"
  },
  {
   "name":"_ZN6google8protobuf4util18MessageDifferencer16MapKeyComparatorC2Ev"
  },
  {
   "name":"_ZN6google8protobuf4util18MessageDifferencer16MapKeyComparatorD0Ev"
  },
  {
   "name":"_ZN6google8protobuf4util18MessageDifferencer16MapKeyComparatorD1Ev"
  },
  {
   "name":"_ZN6google8protobuf4util18MessageDifferencer16MapKeyComparatorD2Ev"
  },
  {
   "name":"_ZN6google8protobuf4util18MessageDifferencer17AddIgnoreCriteriaEPNS2_14IgnoreCriteriaE"
  },
  {
   "name":"_ZN6google8protobuf4util18MessageDifferencer17CompareFieldValueERKNS0_7MessageES5_PKNS0_15FieldDescriptorEii"
  },
  {
   "name":"_ZN6google8protobuf4util18MessageDifferencer17CompareWithFieldsERKNS0_7MessageES5_RKNSt3__16vectorIPKNS0_15FieldDescriptorENS6_9allocatorISA_EEEESF_"
  },
  {
   "name":"_ZN6google8protobuf4util18MessageDifferencer17IsTreatedAsSubsetEPKNS0_15FieldDescriptorE"
  },
  {
   "name":"_ZN6google8protobuf4util18MessageDifferencer19ApproximatelyEqualsERKNS0_7MessageES5_"
  },
  {
   "name":"_ZN6google8protobuf4util18MessageDifferencer19GetMapKeyComparatorEPKNS0_15FieldDescriptorE"
  },
  {
   "name":"_ZN6google8protobuf4util18MessageDifferencer19ReportDifferencesToEPNS2_8ReporterE"
  },
  {
   "name":"_ZN6google8protobuf4util18MessageDifferencer20CompareRepeatedFieldERKNS0_7MessageES5_PKNS0_15FieldDescriptorEPNSt3__16vectorINS2_13SpecificFieldENS9_9allocatorISB_EEEE"
  },
  {
   "name":"_ZN6google8protobuf4util18MessageDifferencer20CompareUnknownFieldsERKNS0_7MessageES5_RKNS0_15UnknownFieldSetES8_PNSt3__16vectorINS2_13SpecificFieldENS9_9allocatorISB_EEEE"
  },
  {
   "name":"_ZN6google8protobuf4util18MessageDifferencer20SetFractionAndMarginEPKNS0_15FieldDescriptorEdd"
  },
  {
   "name":"_ZN6google8protobuf4util18MessageDifferencer20set_field_comparatorEPNS1_15FieldComparatorE"
  },
  {
   "name":"_ZN6google8protobuf4util18MessageDifferencer20set_float_comparisonENS2_15FloatComparisonE"
  },
  {
   "name":"_ZN6google8protobuf4util18MessageDifferencer21IsUnknownFieldIgnoredERKNS0_7MessageES5_RKNS2_13SpecificFieldERKNSt3__16vectorIS6_NS9_9allocatorIS6_EEEE"
  },
  {
   "name":"_ZN6google8protobuf4util18MessageDifferencer23ApproximatelyEquivalentERKNS0_7MessageES5_"
  },
  {
   "name":"_ZN6google8protobuf4util18MessageDifferencer24GetFieldComparisonResultERKNS0_7MessageES5_PKNS0_15FieldDescriptorEiiPKNS1_12FieldContextE"
  },
  {
   "name":"_ZN6google8protobuf4util18MessageDifferencer25CompareWithFieldsInternalERKNS0_7MessageES5_RKNSt3__16vectorIPKNS0_15FieldDescriptorENS6_9allocatorISA_EEEESF_PNS7_INS2_13SpecificFieldENSB_ISG_EEEE"
  },
  {
   "name":"_ZN6google8protobuf4util18MessageDifferencer25MatchRepeatedFieldIndicesERKNS0_7MessageES5_PKNS0_15FieldDescriptorERKNSt3__16vectorINS2_13SpecificFieldENS9_9allocatorISB_EEEEPNSA_IiNSC_IiEEEESJ_"
  },
  {
   "name":"_ZN6google8protobuf4util18MessageDifferencer25ReportDifferencesToStringEPNSt3__112basic_stringIcNS3_11char_traitsIcEENS3_9allocatorIcEEEE"
  },
  {
   "name":"_ZN6google8protobuf4util18MessageDifferencer28TreatAsMapUsingKeyComparatorEPKNS0_15FieldDescriptorEPKNS2_16MapKeyComparatorE"
  },
  {
   "name":"_ZN6google8protobuf4util18MessageDifferencer28set_message_field_comparisonENS2_22MessageFieldComparisonE"
  },
  {
   "name":"_ZN6google8protobuf4util18MessageDifferencer29set_repeated_field_comparisonENS2_23RepeatedFieldComparisonE"
  },
  {
   "name":"_ZN6google8protobuf4util18MessageDifferencer33TreatAsMapWithMultipleFieldsAsKeyEPKNS0_15FieldDescriptorERKNSt3__16vectorIS5_NS6_9allocatorIS5_EEEE"
  },
  {
   "name":"_ZN6google8protobuf4util18MessageDifferencer34CompareFieldValueUsingParentFieldsERKNS0_7MessageES5_PKNS0_15FieldDescriptorEiiPNSt3__16vectorINS2_13SpecificFieldENS9_9allocatorISB_EEEE"
  },
  {
   "name":"_ZN6google8protobuf4util18MessageDifferencer35CompareRequestedFieldsUsingSettingsERKNS0_7MessageES5_RKNSt3__16vectorIPKNS0_15FieldDescriptorENS6_9allocatorISA_EEEESF_PNS7_INS2_13SpecificFieldENSB_ISG_EEEE"
  },
  {
   "name":"_ZN6google8protobuf4util18MessageDifferencer37TreatAsMapWithMultipleFieldPathsAsKeyEPKNS0_15FieldDescriptorERKNSt3__16vectorINS7_IS5_NS6_9allocatorIS5_EEEENS8_ISA_EEEE"
  },
  {
   "name":"_ZN6google8protobuf4util18MessageDifferencer5scopeEv"
  },
  {
   "name":"_ZN6google8protobuf4util18MessageDifferencer6EqualsERKNS0_7MessageES5_"
  },
  {
   "name":"_ZN6google8protobuf4util18MessageDifferencer7CompareERKNS0_7MessageES5_"
  },
  {
   "name":"_ZN6google8protobuf4util18MessageDifferencer7CompareERKNS0_7MessageES5_PNSt3__16vectorINS2_13SpecificFieldENS6_9allocatorIS8_EEEE"
  },
  {
   "name":"_ZN6google8protobuf4util18MessageDifferencer7IsMatchEPKNS0_15FieldDescriptorEPKNS2_16MapKeyComparatorEPKNS0_7MessageESB_RKNSt3__16vectorINS2_13SpecificFieldENSC_9allocatorISE_EEEEii"
  },
  {
   "name":"_ZN6google8protobuf4util18MessageDifferencer8ReporterC2Ev"
  },
  {
   "name":"_ZN6google8protobuf4util18MessageDifferencer8ReporterD0Ev"
  },
  {
   "name":"_ZN6google8protobuf4util18MessageDifferencer8ReporterD1Ev"
  },
  {
   "name":"_ZN6google8protobuf4util18MessageDifferencer8ReporterD2Ev"
  },
  {
   "name":"_ZN6google8protobuf4util18MessageDifferencer9IsIgnoredERKNS0_7MessageES5_PKNS0_15FieldDescriptorERKNSt3__16vectorINS2_13SpecificFieldENS9_9allocatorISB_EEEE"
  },
  {
   "name":"_ZN6google8protobuf4util18MessageDifferencer9UnpackAnyERKNS0_7MessageEPNS0_8internal10scoped_ptrIS3_EE"
  },
  {
   "name":"_ZN6google8protobuf4util18MessageDifferencer9set_scopeENS2_5ScopeE"
  },
  {
   "name":"_ZN6google8protobuf4util18MessageDifferencerC1Ev"
  },
  {
   "name":"_ZN6google8protobuf4util18MessageDifferencerC2Ev"
  },
  {
   "name":"_ZN6google8protobuf4util18MessageDifferencerD1Ev"
  },
  {
   "name":"_ZN6google8protobuf4util18MessageDifferencerD2Ev"
  },
  {
   "name":"_ZN6google8protobuf4util22DefaultFieldComparator11CompareEnumERKNS0_15FieldDescriptorEPKNS0_19EnumValueDescriptorES8_"
  },
  {
   "name":"_ZN6google8protobuf4util22DefaultFieldComparator12CompareFloatERKNS0_15FieldDescriptorEff"
  },
  {
   "name":"_ZN6google8protobuf4util22DefaultFieldComparator13CompareDoubleERKNS0_15FieldDescriptorEdd"
  },
  {
   "binding":"weak",
   "name":"_ZN6google8protobuf4util22DefaultFieldComparator20CompareDoubleOrFloatIdEEbRKNS0_15FieldDescriptorET_S7_"
  },
  {
   "binding":"weak",
   "name":"_ZN6google8protobuf4util22DefaultFieldComparator20CompareDoubleOrFloatIfEEbRKNS0_15FieldDescriptorET_S7_"
  },
  {
   "name":"_ZN6google8protobuf4util22DefaultFieldComparator20SetFractionAndMarginEPKNS0_15FieldDescriptorEdd"
  },
  {
   "name":"_ZN6google8protobuf4util22DefaultFieldComparator27SetDefaultFractionAndMarginEdd"
  },
  {
   "name":"_ZN6google8protobuf4util22DefaultFieldComparator7CompareERKNS0_7MessageES5_PKNS0_15FieldDescriptorEiiPKNS1_12FieldContextE"
  },
  {
   "name":"_ZN6google8protobuf4util22DefaultFieldComparatorC1Ev"
  },
  {
   "name":"_ZN6google8protobuf4util22DefaultFieldComparatorC2Ev"
  },
  {
   "name":"_ZN6google8protobuf4util22DefaultFieldComparatorD0Ev"
  },
  {
   "name":"_ZN6google8protobuf4util22DefaultFieldComparatorD1Ev"
  },
  {
   "name":"_ZN6google8protobuf4util22DefaultFieldComparatorD2Ev"
  },
  {
   "name":"_ZN6google8protobuf4util32NewTypeResolverForDescriptorPoolERKNSt3__112basic_stringIcNS2_11char_traitsIcEENS2_9allocatorIcEEEEPKNS0_14DescriptorPoolE"
  },
  {
   "name":"_ZN6google8protobuf4util6StatusC1ENS1_5error4CodeENS0_11StringPieceE"
  },
  {
   "name":"_ZN6google8protobuf4util6StatusC1ERKS2_"
  },
  {
   "name":"_ZN6google8protobuf4util6StatusC1Ev"
  },
  {
   "name":"_ZN6google8protobuf4util6StatusC2ENS1_5error4CodeENS0_11StringPieceE"
  },
  {
   "name":"_ZN6google8protobuf4util6StatusC2ERKS2_"
  },
  {
   "name":"_ZN6google8protobuf4util6StatusC2Ev"
  },
  {
   "name":"_ZN6google8protobuf4util6StatusaSERKS2_"
  },
  {
   "name":"_ZN6google8protobuf4util8TimeUtil10FromStringERKNSt3__112basic_stringIcNS3_11char_traitsIcEENS3_9allocatorIcEEEEPNS0_8DurationE"
  },
  {
   "name":"_ZN6google8protobuf4util8TimeUtil10FromStringERKNSt3__112basic_stringIcNS3_11char_traitsIcEENS3_9allocatorIcEEEEPNS0_9TimestampE"
  },
  {
   "name":"_ZN6google8protobuf4util8TimeUtil14GetCurrentTimeEv"
  },
  {
   "name":"_ZN6google8protobuf4util8TimeUtil15DurationToHoursERKNS0_8DurationE"
  },
  {
   "name":"_ZN6google8protobuf4util8TimeUtil15HoursToDurationEx"
  },
  {
   "name":"_ZN6google8protobuf4util8TimeUtil16TimeTToTimestampEl"
  },
  {
   "name":"_ZN6google8protobuf4util8TimeUtil16TimestampToTimeTERKNS0_9TimestampE"
  },
  {
   "name":"_ZN6google8protobuf4util8TimeUtil17DurationToMinutesERKNS0_8DurationE"
  },
  {
   "name":"_ZN6google8protobuf4util8TimeUtil17DurationToSecondsERKNS0_8DurationE"
  },
  {
   "name":"_ZN6google8protobuf4util8TimeUtil17DurationToTimevalERKNS0_8DurationE"
  },
  {
   "name":"_ZN6google8protobuf4util8TimeUtil17MinutesToDurationEx"
  },
  {
   "name":"_ZN6google8protobuf4util8TimeUtil17SecondsToDurationEx"
  },
  {
   "name":"_ZN6google8protobuf4util8TimeUtil17TimevalToDurationERK7timeval"
  },
  {
   "name":"_ZN6google8protobuf4util8TimeUtil18SecondsToTimestampEx"
  },
  {
   "name":"_ZN6google8protobuf4util8TimeUtil18TimestampToSecondsERKNS0_9TimestampE"
  },
  {
   "name":"_ZN6google8protobuf4util8TimeUtil18TimestampToTimevalERKNS0_9TimestampE"
  },
  {
   "name":"_ZN6google8protobuf4util8TimeUtil18TimevalToTimestampERK7timeval"
  },
  {
   "name":"_ZN6google8protobuf4util8TimeUtil21DurationToNanosecondsERKNS0_8DurationE"
  },
  {
   "name":"_ZN6google8protobuf4util8TimeUtil21NanosecondsToDurationEx"
  },
  {
   "name":"_ZN6google8protobuf4util8TimeUtil22DurationToMicrosecondsERKNS0_8DurationE"
  },
  {
   "name":"_ZN6google8protobuf4util8TimeUtil22DurationToMillisecondsERKNS0_8DurationE"
  },
  {
   "name":"_ZN6google8protobuf4util8TimeUtil22MicrosecondsToDurationEx"
  },
  {
   "name":"_ZN6google8protobuf4util8TimeUtil22MillisecondsToDurationEx"
  },
  {
   "name":"_ZN6google8protobuf4util8TimeUtil22NanosecondsToTimestampEx"
  },
  {
   "name":"_ZN6google8protobuf4util8TimeUtil22TimestampToNanosecondsERKNS0_9TimestampE"
  },
  {
   "name":"_ZN6google8protobuf4util8TimeUtil23MicrosecondsToTimestampEx"
  },
  {
   "name":"_ZN6google8protobuf4util8TimeUtil23MillisecondsToTimestampEx"
  },
  {
   "name":"_ZN6google8protobuf4util8TimeUtil23TimestampToMicrosecondsERKNS0_9TimestampE"
  },
  {
   "name":"_ZN6google8protobuf4util8TimeUtil23TimestampToMillisecondsERKNS0_9TimestampE"
  },
  {
   "name":"_ZN6google8protobuf4util8TimeUtil8GetEpochEv"
  },
  {
   "name":"_ZN6google8protobuf4util8TimeUtil8ToStringERKNS0_8DurationE"
  },
  {
   "name":"_ZN6google8protobuf4util8TimeUtil8ToStringERKNS0_9TimestampE"
  },
  {
   "name":"_ZN6google8protobuf4util8internal14StatusOrHelper5CrashERKNS1_6StatusE"
  },
  {
   "name":"_ZN6google8protobuf4util8internal22ZeroCopyStreamByteSink6AppendEPKcm"
  },
  {
   "name":"_ZN6google8protobuf4util9converter11ProtoWriter10BeginNamedENS0_11StringPieceEb"
  },
  {
   "name":"_ZN6google8protobuf4util9converter11ProtoWriter10IsRepeatedERKNS0_5FieldE"
  },
  {
   "name":"_ZN6google8protobuf4util9converter11ProtoWriter10LookupTypeEPKNS0_5FieldE"
  },
  {
   "name":"_ZN6google8protobuf4util9converter11ProtoWriter10ValidOneofERKNS0_5FieldENS0_11StringPieceE"
  },
  {
   "name":"_ZN6google8protobuf4util9converter11ProtoWriter11InvalidNameENS0_11StringPieceES4_"
  },
  {
   "name":"_ZN6google8protobuf4util9converter11ProtoWriter11StartObjectENS0_11StringPieceE"
  },
  {
   "name":"_ZN6google8protobuf4util9converter11ProtoWriter12InvalidValueENS0_11StringPieceES4_"
  },
  {
   "name":"_ZN6google8protobuf4util9converter11ProtoWriter12MissingFieldENS0_11StringPieceE"
  },
  {
   "name":"_ZN6google8protobuf4util9converter11ProtoWriter12ProtoElement13RegisterFieldEPKNS0_5FieldE"
  },
  {
   "name":"_ZN6google8protobuf4util9converter11ProtoWriter12ProtoElement14TakeOneofIndexEi"
  },
  {
   "name":"_ZN6google8protobuf4util9converter11ProtoWriter12ProtoElement17IsOneofIndexTakenEi"
  },
  {
   "name":"_ZN6google8protobuf4util9converter11ProtoWriter12ProtoElement3popEv"
  },
  {
   "name":"_ZN6google8protobuf4util9converter11ProtoWriter12ProtoElementC1EPKNS2_8TypeInfoERKNS0_4TypeEPS3_"
  },
  {
   "name":"_ZN6google8protobuf4util9converter11ProtoWriter12ProtoElementC1EPS4_PKNS0_5FieldERKNS0_4TypeEb"
  },
  {
   "name":"_ZN6google8protobuf4util9converter11ProtoWriter12ProtoElementC2EPKNS2_8TypeInfoERKNS0_4TypeEPS3_"
  },
  {
   "name":"_ZN6google8protobuf4util9converter11ProtoWriter12ProtoElementC2EPS4_PKNS0_5FieldERKNS0_4TypeEb"
  },
  {
   "name":"_ZN6google8protobuf4util9converter11ProtoWriter14StartListFieldERKNS0_5FieldERKNS0_4TypeE"
  },
  {
   "name":"_ZN6google8protobuf4util9converter11ProtoWriter15RenderDataPieceENS0_11StringPieceERKNS2_9DataPieceE"
  },
  {
   "name":"_ZN6google8protobuf4util9converter11ProtoWriter16StartObjectFieldERKNS0_5FieldERKNS0_4TypeE"
  },
  {
   "name":"_ZN6google8protobuf4util9converter11ProtoWriter16WriteRootMessageEv"
  },
  {
   "name":"_ZN6google8protobuf4util9converter11ProtoWriter20RenderPrimitiveFieldERKNS0_5FieldERKNS0_4TypeERKNS2_9DataPieceE"
  },
  {
   "name":"_ZN6google8protobuf4util9converter11ProtoWriter6LookupENS0_11StringPieceE"
  },
  {
   "name":"_ZN6google8protobuf4util9converter11ProtoWriter7EndListEv"
  },
  {
   "name":"_ZN6google8protobuf4util9converter11ProtoWriter8WriteTagERKNS0_5FieldE"
  },
  {
   "name":"_ZN6google8protobuf4util9converter11ProtoWriter9EndObjectEv"
  },
  {
   "name":"_ZN6google8protobuf4util9converter11ProtoWriter9StartListENS0_11StringPieceE"
  },
  {
   "name":"_ZN6google8protobuf4util9converter11ProtoWriterC1EPKNS2_8TypeInfoERKNS0_4TypeEPNS0_7strings8ByteSinkEPNS2_13ErrorListenerE"
  },
  {
   "name":"_ZN6google8protobuf4util9converter11ProtoWriterC1EPNS1_12TypeResolverERKNS0_4TypeEPNS0_7strings8ByteSinkEPNS2_13ErrorListenerE"
  },
  {
   "name":"_ZN6google8protobuf4util9converter11ProtoWriterC2EPKNS2_8TypeInfoERKNS0_4TypeEPNS0_7strings8ByteSinkEPNS2_13ErrorListenerE"
  },
  {
   "name":"_ZN6google8protobuf4util9converter11ProtoWriterC2EPNS1_12TypeResolverERKNS0_4TypeEPNS0_7strings8ByteSinkEPNS2_13ErrorListenerE"
  },
  {
   "name":"_ZN6google8protobuf4util9converter11ProtoWriterD0Ev"
  },
  {
   "name":"_ZN6google8protobuf4util9converter11ProtoWriterD1Ev"
  },
  {
   "name":"_ZN6google8protobuf4util9converter11ProtoWriterD2Ev"
  },
  {
   "name":"_ZN6google8protobuf4util9converter11ToCamelCaseENS0_11StringPieceE"
  },
  {
   "name":"_ZN6google8protobuf4util9converter11ToSnakeCaseENS0_11StringPieceE"
  },
  {
   "name":"_ZN6google8protobuf4util9converter12JsonEscaping6EscapeEPNS0_7strings10ByteSourceEPNS4_8ByteSinkE"
  },
  {
   "name":"_ZN6google8protobuf4util9converter12ObjectWriter17RenderDataPieceToERKNS2_9DataPieceENS0_11StringPieceEPS3_"
  },
  {
   "name":"_ZN6google8protobuf4util9converter13FloatAsStringEf"
  },
  {
   "name":"_ZN6google8protobuf4util9converter14DoubleAsStringEd"
  },
  {
   "name":"_ZN6google8protobuf4util9converter14GetBoolFromAnyERKNS0_3AnyE"
  },
  {
   "name":"_ZN6google8protobuf4util9converter14SafeStrToFloatENS0_11StringPieceEPf"
  },
  {
   "name":"_ZN6google8protobuf4util9converter15GetInt64FromAnyERKNS0_3AnyE"
  },
  {
   "name":"_ZN6google8protobuf4util9converter15IsWellKnownTypeERKNSt3__112basic_stringIcNS3_11char_traitsIcEENS3_9allocatorIcEEEE"
  },
  {
   "name":"_ZN6google8protobuf4util9converter16FindOptionOrNullERKNS0_16RepeatedPtrFieldINS0_6OptionEEERKNSt3__112basic_stringIcNS8_11char_traitsIcEENS8_9allocatorIcEEEE"
  },
  {
   "name":"_ZN6google8protobuf4util9converter16GetDoubleFromAnyERKNS0_3AnyE"
  },
  {
   "name":"_ZN6google8protobuf4util9converter16GetStringFromAnyERKNS0_3AnyE"
  },
  {
   "name":"_ZN6google8protobuf4util9converter16JsonObjectWriter10RenderBoolENS0_11StringPieceEb"
  },
  {
   "name":"_ZN6google8protobuf4util9converter16JsonObjectWriter10RenderNullENS0_11StringPieceE"
  },
  {
   "name":"_ZN6google8protobuf4util9converter16JsonObjectWriter11RenderBytesENS0_11StringPieceES4_"
  },
  {
   "name":"_ZN6google8protobuf4util9converter16JsonObjectWriter11RenderFloatENS0_11StringPieceEf"
  },
  {
   "name":"_ZN6google8protobuf4util9converter16JsonObjectWriter11RenderInt32ENS0_11StringPieceEi"
  },
  {
   "name":"_ZN6google8protobuf4util9converter16JsonObjectWriter11RenderInt64ENS0_11StringPieceEx"
  },
  {
   "name":"_ZN6google8protobuf4util9converter16JsonObjectWriter11StartObjectENS0_11StringPieceE"
  },
  {
   "name":"_ZN6google8protobuf4util9converter16JsonObjectWriter11WritePrefixENS0_11StringPieceE"
  },
  {
   "name":"_ZN6google8protobuf4util9converter16JsonObjectWriter12RenderDoubleENS0_11StringPieceEd"
  },
  {
   "name":"_ZN6google8protobuf4util9converter16JsonObjectWriter12RenderStringENS0_11StringPieceES4_"
  },
  {
   "name":"_ZN6google8protobuf4util9converter16JsonObjectWriter12RenderUint32ENS0_11StringPieceEj"
  },
  {
   "name":"_ZN6google8protobuf4util9converter16JsonObjectWriter12RenderUint64ENS0_11StringPieceEy"
  },
  {
   "name":"_ZN6google8protobuf4util9converter16JsonObjectWriter7EndListEv"
  },
  {
   "name":"_ZN6google8protobuf4util9converter16JsonObjectWriter9EndObjectEv"
  },
  {
   "name":"_ZN6google8protobuf4util9converter16JsonObjectWriter9StartListENS0_11StringPieceE"
  },
  {
   "name":"_ZN6google8protobuf4util9converter16JsonObjectWriterD0Ev"
  },
  {
   "name":"_ZN6google8protobuf4util9converter16JsonObjectWriterD1Ev"
  },
  {
   "name":"_ZN6google8protobuf4util9converter16JsonObjectWriterD2Ev"
  },
  {
   "name":"_ZN6google8protobuf4util9converter16JsonStreamParser10ParseChunkENS0_11StringPieceE"
  },
  {
   "name":"_ZN6google8protobuf4util9converter16JsonStreamParser10ParseEntryENS3_9TokenTypeE"
  },
  {
   "name":"_ZN6google8protobuf4util9converter16JsonStreamParser10ParseFalseEv"
  },
  {
   "name":"_ZN6google8protobuf4util9converter16JsonStreamParser10ParseValueENS3_9TokenTypeE"
  },
  {
   "name":"_ZN6google8protobuf4util9converter16JsonStreamParser11FinishParseEv"
  },
  {
   "name":"_ZN6google8protobuf4util9converter16JsonStreamParser11ParseNumberEv"
  },
  {
   "name":"_ZN6google8protobuf4util9converter16JsonStreamParser11ParseStringEv"
  },
  {
   "name":"_ZN6google8protobuf4util9converter16JsonStreamParser13ParseArrayMidENS3_9TokenTypeE"
  },
  {
   "name":"_ZN6google8protobuf4util9converter16JsonStreamParser13ParseEntryMidENS3_9TokenTypeE"
  },
  {
   "name":"_ZN6google8protobuf4util9converter16JsonStreamParser13ReportFailureENS0_11StringPieceE"
  },
  {
   "name":"_ZN6google8protobuf4util9converter16JsonStreamParser13ReportUnknownENS0_11StringPieceE"
  },
  {
   "name":"_ZN6google8protobuf4util9converter16JsonStreamParser14ParseObjectMidENS3_9TokenTypeE"
  },
  {
   "name":"_ZN6google8protobuf4util9converter16JsonStreamParser14SkipWhitespaceEv"
  },
  {
   "name":"_ZN6google8protobuf4util9converter16JsonStreamParser15ParseArrayValueENS3_9TokenTypeE"
  },
  {
   "name":"_ZN6google8protobuf4util9converter16JsonStreamParser16GetNextTokenTypeEv"
  },
  {
   "name":"_ZN6google8protobuf4util9converter16JsonStreamParser16HandleBeginArrayEv"
  },
  {
   "name":"_ZN6google8protobuf4util9converter16JsonStreamParser17HandleBeginObjectEv"
  },
  {
   "name":"_ZN6google8protobuf4util9converter16JsonStreamParser17ParseNumberHelperEPNS3_12NumberResultE"
  },
  {
   "name":"_ZN6google8protobuf4util9converter16JsonStreamParser17ParseStringHelperEv"
  },
  {
   "name":"_ZN6google8protobuf4util9converter16JsonStreamParser18ParseUnicodeEscapeEv"
  },
  {
   "name":"_ZN6google8protobuf4util9converter16JsonStreamParser5ParseENS0_11StringPieceE"
  },
  {
   "name":"_ZN6google8protobuf4util9converter16JsonStreamParser7AdvanceEv"
  },
  {
   "name":"_ZN6google8protobuf4util9converter16JsonStreamParser8ParseKeyEv"
  },
  {
   "name":"_ZN6google8protobuf4util9converter16JsonStreamParser9ParseNullEv"
  },
  {
   "name":"_ZN6google8protobuf4util9converter16JsonStreamParser9ParseTrueEv"
  },
  {
   "name":"_ZN6google8protobuf4util9converter16JsonStreamParser9RunParserEv"
  },
  {
   "name":"_ZN6google8protobuf4util9converter16JsonStreamParserC1EPNS2_12ObjectWriterE"
  },
  {
   "name":"_ZN6google8protobuf4util9converter16JsonStreamParserC2EPNS2_12ObjectWriterE"
  },
  {
   "name":"_ZN6google8protobuf4util9converter16JsonStreamParserD0Ev"
  },
  {
   "name":"_ZN6google8protobuf4util9converter16JsonStreamParserD1Ev"
  },
  {
   "name":"_ZN6google8protobuf4util9converter16JsonStreamParserD2Ev"
  },
  {
   "name":"_ZN6google8protobuf4util9converter17GetTypeWithoutUrlENS0_11StringPieceE"
  },
  {
   "name":"_ZN6google8protobuf4util9converter17IsValidBoolStringERKNSt3__112basic_stringIcNS3_11char_traitsIcEENS3_9allocatorIcEEEE"
  },
  {
   "name":"_ZN6google8protobuf4util9converter18GetFullTypeWithUrlENS0_11StringPieceE"
  },
  {
   "name":"_ZN6google8protobuf4util9converter20ConvertFieldMaskPathENS0_11StringPieceEPFNSt3__112basic_stringIcNS4_11char_traitsIcEENS4_9allocatorIcEEEES3_E"
  },
  {
   "name":"_ZN6google8protobuf4util9converter21FindFieldInTypeOrNullEPKNS0_4TypeENS0_11StringPieceE"
  },
  {
   "name":"_ZN6google8protobuf4util9converter22GetBoolOptionOrDefaultERKNS0_16RepeatedPtrFieldINS0_6OptionEEERKNSt3__112basic_stringIcNS8_11char_traitsIcEENS8_9allocatorIcEEEEb"
  },
  {
   "name":"_ZN6google8protobuf4util9converter22IsMessageSetWireFormatERKNS0_4TypeE"
  },
  {
   "name":"_ZN6google8protobuf4util9converter23GetInt64OptionOrDefaultERKNS0_16RepeatedPtrFieldINS0_6OptionEEERKNSt3__112basic_stringIcNS8_11char_traitsIcEENS8_9allocatorIcEEEEx"
  },
  {
   "name":"_ZN6google8protobuf4util9converter23ProtoStreamObjectSource10RenderBoolEPKS3_RKNS0_4TypeENS0_11StringPieceEPNS2_12ObjectWriterE"
  },
  {
   "name":"_ZN6google8protobuf4util9converter23ProtoStreamObjectSource11RenderBytesEPKS3_RKNS0_4TypeENS0_11StringPieceEPNS2_12ObjectWriterE"
  },
  {
   "name":"_ZN6google8protobuf4util9converter23ProtoStreamObjectSource11RenderFloatEPKS3_RKNS0_4TypeENS0_11StringPieceEPNS2_12ObjectWriterE"
  },
  {
   "name":"_ZN6google8protobuf4util9converter23ProtoStreamObjectSource11RenderInt32EPKS3_RKNS0_4TypeENS0_11StringPieceEPNS2_12ObjectWriterE"
  },
  {
   "name":"_ZN6google8protobuf4util9converter23ProtoStreamObjectSource11RenderInt64EPKS3_RKNS0_4TypeENS0_11StringPieceEPNS2_12ObjectWriterE"
  },
  {
   "name":"_ZN6google8protobuf4util9converter23ProtoStreamObjectSource12RenderDoubleEPKS3_RKNS0_4TypeENS0_11StringPieceEPNS2_12ObjectWriterE"
  },
  {
   "name":"_ZN6google8protobuf4util9converter23ProtoStreamObjectSource12RenderStringEPKS3_RKNS0_4TypeENS0_11StringPieceEPNS2_12ObjectWriterE"
  },
  {
   "name":"_ZN6google8protobuf4util9converter23ProtoStreamObjectSource12RenderStructEPKS3_RKNS0_4TypeENS0_11StringPieceEPNS2_12ObjectWriterE"
  },
  {
   "name":"_ZN6google8protobuf4util9converter23ProtoStreamObjectSource12RenderUInt32EPKS3_RKNS0_4TypeENS0_11StringPieceEPNS2_12ObjectWriterE"
  },
  {
   "name":"_ZN6google8protobuf4util9converter23ProtoStreamObjectSource12RenderUInt64EPKS3_RKNS0_4TypeENS0_11StringPieceEPNS2_12ObjectWriterE"
  },
  {
   "name":"_ZN6google8protobuf4util9converter23ProtoStreamObjectSource14RenderDurationEPKS3_RKNS0_4TypeENS0_11StringPieceEPNS2_12ObjectWriterE"
  },
  {
   "name":"_ZN6google8protobuf4util9converter23ProtoStreamObjectSource15InitRendererMapEv"
  },
  {
   "name":"_ZN6google8protobuf4util9converter23ProtoStreamObjectSource15RenderFieldMaskEPKS3_RKNS0_4TypeENS0_11StringPieceEPNS2_12ObjectWriterE"
  },
  {
   "name":"_ZN6google8protobuf4util9converter23ProtoStreamObjectSource15RenderTimestampEPKS3_RKNS0_4TypeENS0_11StringPieceEPNS2_12ObjectWriterE"
  },
  {
   "name":"_ZN6google8protobuf4util9converter23ProtoStreamObjectSource16FindTypeRendererERKNSt3__112basic_stringIcNS4_11char_traitsIcEENS4_9allocatorIcEEEE"
  },
  {
   "name":"_ZN6google8protobuf4util9converter23ProtoStreamObjectSource17DeleteRendererMapEv"
  },
  {
   "name":"_ZN6google8protobuf4util9converter23ProtoStreamObjectSource17RenderStructValueEPKS3_RKNS0_4TypeENS0_11StringPieceEPNS2_12ObjectWriterE"
  },
  {
   "name":"_ZN6google8protobuf4util9converter23ProtoStreamObjectSource21RenderStructListValueEPKS3_RKNS0_4TypeENS0_11StringPieceEPNS2_12ObjectWriterE"
  },
  {
   "name":"_ZN6google8protobuf4util9converter23ProtoStreamObjectSource9RenderAnyEPKS3_RKNS0_4TypeENS0_11StringPieceEPNS2_12ObjectWriterE"
  },
  {
   "name":"_ZN6google8protobuf4util9converter23ProtoStreamObjectSourceC1EPNS0_2io16CodedInputStreamEPKNS2_8TypeInfoERKNS0_4TypeE"
  },
  {
   "name":"_ZN6google8protobuf4util9converter23ProtoStreamObjectSourceC1EPNS0_2io16CodedInputStreamEPNS1_12TypeResolverERKNS0_4TypeE"
  },
  {
   "name":"_ZN6google8protobuf4util9converter23ProtoStreamObjectSourceC2EPNS0_2io16CodedInputStreamEPKNS2_8TypeInfoERKNS0_4TypeE"
  },
  {
   "name":"_ZN6google8protobuf4util9converter23ProtoStreamObjectSourceC2EPNS0_2io16CodedInputStreamEPNS1_12TypeResolverERKNS0_4TypeE"
  },
  {
   "name":"_ZN6google8protobuf4util9converter23ProtoStreamObjectSourceD0Ev"
  },
  {
   "name":"_ZN6google8protobuf4util9converter23ProtoStreamObjectSourceD1Ev"
  },
  {
   "name":"_ZN6google8protobuf4util9converter23ProtoStreamObjectSourceD2Ev"
  },
  {
   "name":"_ZN6google8protobuf4util9converter23ProtoStreamObjectWriter11StartObjectENS0_11StringPieceE"
  },
  {
   "name":"_ZN6google8protobuf4util9converter23ProtoStreamObjectWriter11ValidMapKeyENS0_11StringPieceE"
  },
  {
   "name":"_ZN6google8protobuf4util9converter23ProtoStreamObjectWriter13IsStructValueERKNS0_5FieldE"
  },
  {
   "name":"_ZN6google8protobuf4util9converter23ProtoStreamObjectWriter13PopOneElementEv"
  },
  {
   "name":"_ZN6google8protobuf4util9converter23ProtoStreamObjectWriter14RenderDurationEPS3_RKNS2_9DataPieceE"
  },
  {
   "name":"_ZN6google8protobuf4util9converter23ProtoStreamObjectWriter15InitRendererMapEv"
  },
  {
   "name":"_ZN6google8protobuf4util9converter23ProtoStreamObjectWriter15RenderDataPieceENS0_11StringPieceERKNS2_9DataPieceE"
  },
  {
   "name":"_ZN6google8protobuf4util9converter23ProtoStreamObjectWriter15RenderFieldMaskEPS3_RKNS2_9DataPieceE"
  },
  {
   "name":"_ZN6google8protobuf4util9converter23ProtoStreamObjectWriter15RenderTimestampEPS3_RKNS2_9DataPieceE"
  },
  {
   "name":"_ZN6google8protobuf4util9converter23ProtoStreamObjectWriter16FindTypeRendererERKNSt3__112basic_stringIcNS4_11char_traitsIcEENS4_9allocatorIcEEEE"
  },
  {
   "name":"_ZN6google8protobuf4util9converter23ProtoStreamObjectWriter17DeleteRendererMapEv"
  },
  {
   "name":"_ZN6google8protobuf4util9converter23ProtoStreamObjectWriter17IsStructListValueERKNS0_5FieldE"
  },
  {
   "name":"_ZN6google8protobuf4util9converter23ProtoStreamObjectWriter17RenderStructValueEPS3_RKNS2_9DataPieceE"
  },
  {
   "name":"_ZN6google8protobuf4util9converter23ProtoStreamObjectWriter17RenderWrapperTypeEPS3_RKNS2_9DataPieceE"
  },
  {
   "name":"_ZN6google8protobuf4util9converter23ProtoStreamObjectWriter3PopEv"
  },
  {
   "name":"_ZN6google8protobuf4util9converter23ProtoStreamObjectWriter4Item24InsertMapKeyIfNotPresentENS0_11StringPieceE"
  },
  {
   "name":"_ZN6google8protobuf4util9converter23ProtoStreamObjectWriter4ItemC1EPS3_NS4_8ItemTypeEbb"
  },
  {
   "name":"_ZN6google8protobuf4util9converter23ProtoStreamObjectWriter4ItemC1EPS4_NS4_8ItemTypeEbb"
  },
  {
   "name":"_ZN6google8protobuf4util9converter23ProtoStreamObjectWriter4ItemC2EPS3_NS4_8ItemTypeEbb"
  },
  {
   "name":"_ZN6google8protobuf4util9converter23ProtoStreamObjectWriter4ItemC2EPS4_NS4_8ItemTypeEbb"
  },
  {
   "name":"_ZN6google8protobuf4util9converter23ProtoStreamObjectWriter4PushENS0_11StringPieceENS3_4Item8ItemTypeEbb"
  },
  {
   "name":"_ZN6google8protobuf4util9converter23ProtoStreamObjectWriter5IsAnyERKNS0_5FieldE"
  },
  {
   "name":"_ZN6google8protobuf4util9converter23ProtoStreamObjectWriter5IsMapERKNS0_5FieldE"
  },
  {
   "name":"_ZN6google8protobuf4util9converter23ProtoStreamObjectWriter7EndListEv"
  },
  {
   "name":"_ZN6google8protobuf4util9converter23ProtoStreamObjectWriter8IsStructERKNS0_5FieldE"
  },
  {
   "name":"_ZN6google8protobuf4util9converter23ProtoStreamObjectWriter9AnyWriter11StartObjectENS0_11StringPieceE"
  },
  {
   "name":"_ZN6google8protobuf4util9converter23ProtoStreamObjectWriter9AnyWriter15RenderDataPieceENS0_11StringPieceERKNS2_9DataPieceE"
  },
  {
   "name":"_ZN6google8protobuf4util9converter23ProtoStreamObjectWriter9AnyWriter7EndListEv"
  },
  {
   "name":"_ZN6google8protobuf4util9converter23ProtoStreamObjectWriter9AnyWriter8StartAnyERKNS2_9DataPieceE"
  },
  {
   "name":"_ZN6google8protobuf4util9converter23ProtoStreamObjectWriter9AnyWriter8WriteAnyEv"
  },
  {
   "name":"_ZN6google8protobuf4util9converter23ProtoStreamObjectWriter9AnyWriter9EndObjectEv"
  },
  {
   "name":"_ZN6google8protobuf4util9converter23ProtoStreamObjectWriter9AnyWriter9StartListENS0_11StringPieceE"
  },
  {
   "name":"_ZN6google8protobuf4util9converter23ProtoStreamObjectWriter9AnyWriterC1EPS3_"
  },
  {
   "name":"_ZN6google8protobuf4util9converter23ProtoStreamObjectWriter9AnyWriterC2EPS3_"
  },
  {
   "name":"_ZN6google8protobuf4util9converter23ProtoStreamObjectWriter9AnyWriterD1Ev"
  },
  {
   "name":"_ZN6google8protobuf4util9converter23ProtoStreamObjectWriter9AnyWriterD2Ev"
  },
  {
   "name":"_ZN6google8protobuf4util9converter23ProtoStreamObjectWriter9EndObjectEv"
  },
  {
   "name":"_ZN6google8protobuf4util9converter23ProtoStreamObjectWriter9StartListENS0_11StringPieceE"
  },
  {
   "name":"_ZN6google8protobuf4util9converter23ProtoStreamObjectWriterC1EPKNS2_8TypeInfoERKNS0_4TypeEPNS0_7strings8ByteSinkEPNS2_13ErrorListenerE"
  },
  {
   "name":"_ZN6google8protobuf4util9converter23ProtoStreamObjectWriterC1EPNS1_12TypeResolverERKNS0_4TypeEPNS0_7strings8ByteSinkEPNS2_13ErrorListenerERKNS3_7OptionsE"
  },
  {
   "name":"_ZN6google8protobuf4util9converter23ProtoStreamObjectWriterC2EPKNS2_8TypeInfoERKNS0_4TypeEPNS0_7strings8ByteSinkEPNS2_13ErrorListenerE"
  },
  {
   "name":"_ZN6google8protobuf4util9converter23ProtoStreamObjectWriterC2EPNS1_12TypeResolverERKNS0_4TypeEPNS0_7strings8ByteSinkEPNS2_13ErrorListenerERKNS3_7OptionsE"
  },
  {
   "name":"_ZN6google8protobuf4util9converter23ProtoStreamObjectWriterD0Ev"
  },
  {
   "name":"_ZN6google8protobuf4util9converter23ProtoStreamObjectWriterD1Ev"
  },
  {
   "name":"_ZN6google8protobuf4util9converter23ProtoStreamObjectWriterD2Ev"
  },
  {
   "name":"_ZN6google8protobuf4util9converter24DefaultValueObjectWriter10RenderBoolENS0_11StringPieceEb"
  },
  {
   "name":"_ZN6google8protobuf4util9converter24DefaultValueObjectWriter10RenderNullENS0_11StringPieceE"
  },
  {
   "name":"_ZN6google8protobuf4util9converter24DefaultValueObjectWriter11RenderBytesENS0_11StringPieceES4_"
  },
  {
   "name":"_ZN6google8protobuf4util9converter24DefaultValueObjectWriter11RenderFloatENS0_11StringPieceEf"
  },
  {
   "name":"_ZN6google8protobuf4util9converter24DefaultValueObjectWriter11RenderInt32ENS0_11StringPieceEi"
  },
  {
   "name":"_ZN6google8protobuf4util9converter24DefaultValueObjectWriter11RenderInt64ENS0_11StringPieceEx"
  },
  {
   "name":"_ZN6google8protobuf4util9converter24DefaultValueObjectWriter11StartObjectENS0_11StringPieceE"
  },
  {
   "name":"_ZN6google8protobuf4util9converter24DefaultValueObjectWriter12RenderDoubleENS0_11StringPieceEd"
  },
  {
   "name":"_ZN6google8protobuf4util9converter24DefaultValueObjectWriter12RenderStringENS0_11StringPieceES4_"
  },
  {
   "name":"_ZN6google8protobuf4util9converter24DefaultValueObjectWriter12RenderUint32ENS0_11StringPieceEj"
  },
  {
   "name":"_ZN6google8protobuf4util9converter24DefaultValueObjectWriter12RenderUint64ENS0_11StringPieceEy"
  },
  {
   "name":"_ZN6google8protobuf4util9converter24DefaultValueObjectWriter15FindEnumDefaultERKNS0_5FieldEPKNS2_8TypeInfoE"
  },
  {
   "name":"_ZN6google8protobuf4util9converter24DefaultValueObjectWriter15RenderDataPieceENS0_11StringPieceERKNS2_9DataPieceE"
  },
  {
   "name":"_ZN6google8protobuf4util9converter24DefaultValueObjectWriter26MaybePopulateChildrenOfAnyEPNS3_4NodeE"
  },
  {
   "name":"_ZN6google8protobuf4util9converter24DefaultValueObjectWriter26RegisterFieldScrubCallBackENS0_8internal10scoped_ptrINS0_15ResultCallback2IbRKNSt3__16vectorINS7_12basic_stringIcNS7_11char_traitsIcEENS7_9allocatorIcEEEENSC_ISE_EEEEPKNS0_5FieldEEEEE"
  },
  {
   "name":"_ZN6google8protobuf4util9converter24DefaultValueObjectWriter30CreateDefaultDataPieceForFieldERKNS0_5FieldEPKNS2_8TypeInfoE"
  },
  {
   "name":"_ZN6google8protobuf4util9converter24DefaultValueObjectWriter4Node13WriteChildrenEPNS2_12ObjectWriterE"
  },
  {
   "name":"_ZN6google8protobuf4util9converter24DefaultValueObjectWriter4Node15GetMapValueTypeERKNS0_4TypeEPKNS2_8TypeInfoE"
  },
  {
   "name":"_ZN6google8protobuf4util9converter24DefaultValueObjectWriter4Node16PopulateChildrenEPKNS2_8TypeInfoE"
  },
  {
   "name":"_ZN6google8protobuf4util9converter24DefaultValueObjectWriter4Node7WriteToEPNS2_12ObjectWriterE"
  },
  {
   "name":"_ZN6google8protobuf4util9converter24DefaultValueObjectWriter4Node9FindChildENS0_11StringPieceE"
  },
  {
   "name":"_ZN6google8protobuf4util9converter24DefaultValueObjectWriter4NodeC1ERKNSt3__112basic_stringIcNS5_11char_traitsIcEENS5_9allocatorIcEEEEPKNS0_4TypeENS3_8NodeKindERKNS2_9DataPieceEbRKNS5_6vectorISB_NS9_ISB_EEEEPNS0_15ResultCallback2IbSP_PKNS0_5FieldEEE"
  },
  {
   "name":"_ZN6google8protobuf4util9converter24DefaultValueObjectWriter4NodeC2ERKNSt3__112basic_stringIcNS5_11char_traitsIcEENS5_9allocatorIcEEEEPKNS0_4TypeENS3_8NodeKindERKNS2_9DataPieceEbRKNS5_6vectorISB_NS9_ISB_EEEEPNS0_15ResultCallback2IbSP_PKNS0_5FieldEEE"
  },
  {
   "name":"_ZN6google8protobuf4util9converter24DefaultValueObjectWriter7EndListEv"
  },
  {
   "name":"_ZN6google8protobuf4util9converter24DefaultValueObjectWriter9EndObjectEv"
  },
  {
   "name":"_ZN6google8protobuf4util9converter24DefaultValueObjectWriter9StartListENS0_11StringPieceE"
  },
  {
   "name":"_ZN6google8protobuf4util9converter24DefaultValueObjectWriter9WriteRootEv"
  },
  {
   "name":"_ZN6google8protobuf4util9converter24DefaultValueObjectWriterC1EPNS1_12TypeResolverERKNS0_4TypeEPNS2_12ObjectWriterE"
  },
  {
   "name":"_ZN6google8protobuf4util9converter24DefaultValueObjectWriterC2EPNS1_12TypeResolverERKNS0_4TypeEPNS2_12ObjectWriterE"
  },
  {
   "name":"_ZN6google8protobuf4util9converter24DefaultValueObjectWriterD0Ev"
  },
  {
   "name":"_ZN6google8protobuf4util9converter24DefaultValueObjectWriterD1Ev"
  },
  {
   "name":"_ZN6google8protobuf4util9converter24DefaultValueObjectWriterD2Ev"
  },
  {
   "name":"_ZN6google8protobuf4util9converter24GetDoubleOptionOrDefaultERKNS0_16RepeatedPtrFieldINS0_6OptionEEERKNSt3__112basic_stringIcNS8_11char_traitsIcEENS8_9allocatorIcEEEEd"
  },
  {
   "name":"_ZN6google8protobuf4util9converter24GetStringOptionOrDefaultERKNS0_16RepeatedPtrFieldINS0_6OptionEEERKNSt3__112basic_stringIcNS8_11char_traitsIcEENS8_9allocatorIcEEEESG_"
  },
  {
   "name":"_ZN6google8protobuf4util9converter25FindEnumValueByNameOrNullEPKNS0_4EnumENS0_11StringPieceE"
  },
  {
   "name":"_ZN6google8protobuf4util9converter25FindJsonFieldInTypeOrNullEPKNS0_4TypeENS0_11StringPieceE"
  },
  {
   "name":"_ZN6google8protobuf4util9converter27DecodeCompactFieldMaskPathsENS0_11StringPieceEPNS0_15ResultCallback1INS1_6StatusES3_EE"
  },
  {
   "name":"_ZN6google8protobuf4util9converter27FindEnumValueByNumberOrNullEPKNS0_4EnumEi"
  },
  {
   "name":"_ZN6google8protobuf4util9converter5IsMapERKNS0_5FieldERKNS0_4TypeE"
  },
  {
   "name":"_ZN6google8protobuf4util9converter7testing18TypeInfoTestHelper11GetTypeInfoEv"
  },
  {
   "name":"_ZN6google8protobuf4util9converter7testing18TypeInfoTestHelper13ResetTypeInfoEPKNS0_10DescriptorE"
  },
  {
   "name":"_ZN6google8protobuf4util9converter7testing18TypeInfoTestHelper13ResetTypeInfoEPKNS0_10DescriptorES7_"
  },
  {
   "name":"_ZN6google8protobuf4util9converter7testing18TypeInfoTestHelper13ResetTypeInfoERKNSt3__16vectorIPKNS0_10DescriptorENS5_9allocatorIS9_EEEE"
  },
  {
   "name":"_ZN6google8protobuf4util9converter7testing18TypeInfoTestHelper14NewProtoSourceEPNS0_2io16CodedInputStreamERKNSt3__112basic_stringIcNS8_11char_traitsIcEENS8_9allocatorIcEEEE"
  },
  {
   "name":"_ZN6google8protobuf4util9converter7testing18TypeInfoTestHelper14NewProtoWriterERKNSt3__112basic_stringIcNS5_11char_traitsIcEENS5_9allocatorIcEEEEPNS0_7strings8ByteSinkEPNS2_13ErrorListenerERKNS2_23ProtoStreamObjectWriter7OptionsE"
  },
  {
   "name":"_ZN6google8protobuf4util9converter7testing18TypeInfoTestHelper21NewDefaultValueWriterERKNSt3__112basic_stringIcNS5_11char_traitsIcEENS5_9allocatorIcEEEEPNS2_12ObjectWriterE"
  },
  {
   "name":"_ZN6google8protobuf4util9converter8TypeInfo11NewTypeInfoEPNS1_12TypeResolverE"
  },
  {
   "name":"_ZN6google8protobuf4utillsERNSt3__113basic_ostreamIcNS2_11char_traitsIcEEEERKNS1_6StatusE"
  },
  {
   "name":"_ZN6google8protobuf50protobuf_AddDesc_google_2fprotobuf_2fempty_2eprotoEv"
  },
  {
   "name":"_ZN6google8protobuf51protobuf_AddDesc_google_2fprotobuf_2fstruct_2eprotoEv"
  },
  {
   "name":"_ZN6google8protobuf51protobuf_AssignDesc_google_2fprotobuf_2fany_2eprotoEv"
  },
  {
   "name":"_ZN6google8protobuf51protobuf_AssignDesc_google_2fprotobuf_2fapi_2eprotoEv"
  },
  {
   "name":"_ZN6google8protobuf52protobuf_AssignDesc_google_2fprotobuf_2ftype_2eprotoEv"
  },
  {
   "name":"_ZN6google8protobuf53protobuf_AddDesc_google_2fprotobuf_2fduration_2eprotoEv"
  },
  {
   "name":"_ZN6google8protobuf53protobuf_AddDesc_google_2fprotobuf_2fwrappers_2eprotoEv"
  },
  {
   "name":"_ZN6google8protobuf53protobuf_AssignDesc_google_2fprotobuf_2fempty_2eprotoEv"
  },
  {
   "name":"_ZN6google8protobuf53protobuf_ShutdownFile_google_2fprotobuf_2fany_2eprotoEv"
  },
  {
   "name":"_ZN6google8protobuf53protobuf_ShutdownFile_google_2fprotobuf_2fapi_2eprotoEv"
  },
  {
   "name":"_ZN6google8protobuf54protobuf_AddDesc_google_2fprotobuf_2ftimestamp_2eprotoEv"
  },
  {
   "name":"_ZN6google8protobuf54protobuf_AssignDesc_google_2fprotobuf_2fstruct_2eprotoEv"
  },
  {
   "name":"_ZN6google8protobuf54protobuf_ShutdownFile_google_2fprotobuf_2ftype_2eprotoEv"
  },
  {
   "name":"_ZN6google8protobuf55protobuf_AddDesc_google_2fprotobuf_2fdescriptor_2eprotoEv"
  },
  {
   "name":"_ZN6google8protobuf55protobuf_ShutdownFile_google_2fprotobuf_2fempty_2eprotoEv"
  },
  {
   "name":"_ZN6google8protobuf56protobuf_AssignDesc_google_2fprotobuf_2fduration_2eprotoEv"
  },
  {
   "name":"_ZN6google8protobuf56protobuf_AssignDesc_google_2fprotobuf_2fwrappers_2eprotoEv"
  },
  {
   "name":"_ZN6google8protobuf56protobuf_ShutdownFile_google_2fprotobuf_2fstruct_2eprotoEv"
  },
  {
   "name":"_ZN6google8protobuf57protobuf_AddDesc_google_2fprotobuf_2ffield_5fmask_2eprotoEv"
  },
  {
   "name":"_ZN6google8protobuf57protobuf_AssignDesc_google_2fprotobuf_2ftimestamp_2eprotoEv"
  },
  {
   "name":"_ZN6google8protobuf58protobuf_AssignDesc_google_2fprotobuf_2fdescriptor_2eprotoEv"
  },
  {
   "name":"_ZN6google8protobuf58protobuf_ShutdownFile_google_2fprotobuf_2fduration_2eprotoEv"
  },
  {
   "name":"_ZN6google8protobuf58protobuf_ShutdownFile_google_2fprotobuf_2fwrappers_2eprotoEv"
  },
  {
   "name":"_ZN6google8protobuf59protobuf_ShutdownFile_google_2fprotobuf_2ftimestamp_2eprotoEv"
  },
  {
   "name":"_ZN6google8protobuf5Arena10FreeBlocksEv"
  },
  {
   "name":"_ZN6google8protobuf5Arena11AddListNodeEPvPFvS2_E"
  },
  {
   "name":"_ZN6google8protobuf5Arena11CleanupListEv"
  },
  {
   "name":"_ZN6google8protobuf5Arena12thread_cacheEv"
  },
  {
   "name":"_ZN6google8protobuf5Arena13ResetInternalEv"
  },
  {
   "name":"_ZN6google8protobuf5Arena14AllocFromBlockEPNS1_5BlockEm"
  },
  {
   "name":"_ZN6google8protobuf5Arena15AllocateAlignedEPKSt9type_infom"
  },
  {
   "name":"_ZN6google8protobuf5Arena16AddBlockInternalEPNS1_5BlockE"
  },
  {
   "name":"_ZN6google8protobuf5Arena4InitEv"
  },
  {
   "name":"_ZN6google8protobuf5Arena5ResetEv"
  },
  {
   "name":"_ZN6google8protobuf5Arena8AddBlockEPNS1_5BlockE"
  },
  {
   "name":"_ZN6google8protobuf5Arena8NewBlockEPvPNS1_5BlockEmmm"
  },
  {
   "name":"_ZN6google8protobuf5Arena9FindBlockEPv"
  },
  {
   "name":"_ZN6google8protobuf5Arena9SlowAllocEm"
  },
  {
   "name":"_ZN6google8protobuf5ArenaD1Ev"
  },
  {
   "name":"_ZN6google8protobuf5ArenaD2Ev"
  },
  {
   "name":"_ZN6google8protobuf5Empty10SharedCtorEv"
  },
  {
   "name":"_ZN6google8protobuf5Empty10SharedDtorEv"
  },
  {
   "name":"_ZN6google8protobuf5Empty10descriptorEv"
  },
  {
   "name":"_ZN6google8protobuf5Empty12InternalSwapEPS1_"
  },
  {
   "name":"_ZN6google8protobuf5Empty15UnsafeArenaSwapEPS1_"
  },
  {
   "name":"_ZN6google8protobuf5Empty16default_instanceEv"
  },
  {
   "name":"_ZN6google8protobuf5Empty21InitAsDefaultInstanceEv"
  },
  {
   "name":"_ZN6google8protobuf5Empty27MergePartialFromCodedStreamEPNS0_2io16CodedInputStreamE"
  },
  {
   "name":"_ZN6google8protobuf5Empty4SwapEPS1_"
  },
  {
   "name":"_ZN6google8protobuf5Empty5ClearEv"
  },
  {
   "name":"_ZN6google8protobuf5Empty8CopyFromERKNS0_7MessageE"
  },
  {
   "name":"_ZN6google8protobuf5Empty8CopyFromERKS1_"
  },
  {
   "name":"_ZN6google8protobuf5Empty9ArenaDtorEPv"
  },
  {
   "name":"_ZN6google8protobuf5Empty9MergeFromERKNS0_7MessageE"
  },
  {
   "name":"_ZN6google8protobuf5Empty9MergeFromERKS1_"
  },
  {
   "name":"_ZN6google8protobuf5EmptyC1EPNS0_5ArenaE"
  },
  {
   "name":"_ZN6google8protobuf5EmptyC1ERKS1_"
  },
  {
   "name":"_ZN6google8protobuf5EmptyC1Ev"
  },
  {
   "name":"_ZN6google8protobuf5EmptyC2EPNS0_5ArenaE"
  },
  {
   "name":"_ZN6google8protobuf5EmptyC2ERKS1_"
  },
  {
   "name":"_ZN6google8protobuf5EmptyC2Ev"
  },
  {
   "name":"_ZN6google8protobuf5EmptyD0Ev"
  },
  {
   "name":"_ZN6google8protobuf5EmptyD1Ev"
  },
  {
   "name":"_ZN6google8protobuf5EmptyD2Ev"
  },
  {
   "name":"_ZN6google8protobuf5Field10SharedCtorEv"
  },
  {
   "name":"_ZN6google8protobuf5Field10SharedDtorEv"
  },
  {
   "name":"_ZN6google8protobuf5Field10descriptorEv"
  },
  {
   "name":"_ZN6google8protobuf5Field12InternalSwapEPS1_"
  },
  {
   "name":"_ZN6google8protobuf5Field16default_instanceEv"
  },
  {
   "name":"_ZN6google8protobuf5Field21InitAsDefaultInstanceEv"
  },
  {
   "name":"_ZN6google8protobuf5Field27MergePartialFromCodedStreamEPNS0_2io16CodedInputStreamE"
  },
  {
   "name":"_ZN6google8protobuf5Field4SwapEPS1_"
  },
  {
   "name":"_ZN6google8protobuf5Field5ClearEv"
  },
  {
   "name":"_ZN6google8protobuf5Field8CopyFromERKNS0_7MessageE"
  },
  {
   "name":"_ZN6google8protobuf5Field8CopyFromERKS1_"
  },
  {
   "name":"_ZN6google8protobuf5Field9MergeFromERKNS0_7MessageE"
  },
  {
   "name":"_ZN6google8protobuf5Field9MergeFromERKS1_"
  },
  {
   "name":"_ZN6google8protobuf5FieldC1ERKS1_"
  },
  {
   "name":"_ZN6google8protobuf5FieldC1Ev"
  },
  {
   "name":"_ZN6google8protobuf5FieldC2ERKS1_"
  },
  {
   "name":"_ZN6google8protobuf5FieldC2Ev"
  },
  {
   "name":"_ZN6google8protobuf5FieldD0Ev"
  },
  {
   "name":"_ZN6google8protobuf5FieldD1Ev"
  },
  {
   "name":"_ZN6google8protobuf5FieldD2Ev"
  },
  {
   "name":"_ZN6google8protobuf5Mixin10SharedCtorEv"
  },
  {
   "name":"_ZN6google8protobuf5Mixin10SharedDtorEv"
  },
  {
   "name":"_ZN6google8protobuf5Mixin10descriptorEv"
  },
  {
   "name":"_ZN6google8protobuf5Mixin12InternalSwapEPS1_"
  },
  {
   "name":"_ZN6google8protobuf5Mixin16default_instanceEv"
  },
  {
   "name":"_ZN6google8protobuf5Mixin21InitAsDefaultInstanceEv"
  },
  {
   "name":"_ZN6google8protobuf5Mixin27MergePartialFromCodedStreamEPNS0_2io16CodedInputStreamE"
  },
  {
   "name":"_ZN6google8protobuf5Mixin4SwapEPS1_"
  },
  {
   "name":"_ZN6google8protobuf5Mixin5ClearEv"
  },
  {
   "name":"_ZN6google8protobuf5Mixin8CopyFromERKNS0_7MessageE"
  },
  {
   "name":"_ZN6google8protobuf5Mixin8CopyFromERKS1_"
  },
  {
   "name":"_ZN6google8protobuf5Mixin9MergeFromERKNS0_7MessageE"
  },
  {
   "name":"_ZN6google8protobuf5Mixin9MergeFromERKS1_"
  },
  {
   "name":"_ZN6google8protobuf5MixinC1ERKS1_"
  },
  {
   "name":"_ZN6google8protobuf5MixinC1Ev"
  },
  {
   "name":"_ZN6google8protobuf5MixinC2ERKS1_"
  },
  {
   "name":"_ZN6google8protobuf5MixinC2Ev"
  },
  {
   "name":"_ZN6google8protobuf5MixinD0Ev"
  },
  {
   "name":"_ZN6google8protobuf5MixinD1Ev"
  },
  {
   "name":"_ZN6google8protobuf5MixinD2Ev"
  },
  {
   "name":"_ZN6google8protobuf5Value10SharedCtorEv"
  },
  {
   "name":"_ZN6google8protobuf5Value10SharedDtorEv"
  },
  {
   "name":"_ZN6google8protobuf5Value10clear_kindEv"
  },
  {
   "name":"_ZN6google8protobuf5Value10descriptorEv"
  },
  {
   "name":"_ZN6google8protobuf5Value12InternalSwapEPS1_"
  },
  {
   "name":"_ZN6google8protobuf5Value16default_instanceEv"
  },
  {
   "name":"_ZN6google8protobuf5Value21InitAsDefaultInstanceEv"
  },
  {
   "name":"_ZN6google8protobuf5Value27MergePartialFromCodedStreamEPNS0_2io16CodedInputStreamE"
  },
  {
   "name":"_ZN6google8protobuf5Value4SwapEPS1_"
  },
  {
   "name":"_ZN6google8protobuf5Value5ClearEv"
  },
  {
   "name":"_ZN6google8protobuf5Value8CopyFromERKNS0_7MessageE"
  },
  {
   "name":"_ZN6google8protobuf5Value8CopyFromERKS1_"
  },
  {
   "name":"_ZN6google8protobuf5Value9MergeFromERKNS0_7MessageE"
  },
  {
   "name":"_ZN6google8protobuf5Value9MergeFromERKS1_"
  },
  {
   "name":"_ZN6google8protobuf5ValueC1ERKS1_"
  },
  {
   "name":"_ZN6google8protobuf5ValueC1Ev"
  },
  {
   "name":"_ZN6google8protobuf5ValueC2ERKS1_"
  },
  {
   "name":"_ZN6google8protobuf5ValueC2Ev"
  },
  {
   "name":"_ZN6google8protobuf5ValueD0Ev"
  },
  {
   "name":"_ZN6google8protobuf5ValueD1Ev"
  },
  {
   "name":"_ZN6google8protobuf5ValueD2Ev"
  },
  {
   "name":"_ZN6google8protobuf60protobuf_AssignDesc_google_2fprotobuf_2ffield_5fmask_2eprotoEv"
  },
  {
   "name":"_ZN6google8protobuf60protobuf_ShutdownFile_google_2fprotobuf_2fdescriptor_2eprotoEv"
  },
  {
   "name":"_ZN6google8protobuf61protobuf_AddDesc_google_2fprotobuf_2fsource_5fcontext_2eprotoEv"
  },
  {
   "name":"_ZN6google8protobuf62protobuf_ShutdownFile_google_2fprotobuf_2ffield_5fmask_2eprotoEv"
  },
  {
   "name":"_ZN6google8protobuf64protobuf_AssignDesc_google_2fprotobuf_2fsource_5fcontext_2eprotoEv"
  },
  {
   "name":"_ZN6google8protobuf66protobuf_ShutdownFile_google_2fprotobuf_2fsource_5fcontext_2eprotoEv"
  },
  {
   "name":"_ZN6google8protobuf6Method10SharedCtorEv"
  },
  {
   "name":"_ZN6google8protobuf6Method10SharedDtorEv"
  },
  {
   "name":"_ZN6google8protobuf6Method10descriptorEv"
  },
  {
   "name":"_ZN6google8protobuf6Method12InternalSwapEPS1_"
  },
  {
   "name":"_ZN6google8protobuf6Method16default_instanceEv"
  },
  {
   "name":"_ZN6google8protobuf6Method21InitAsDefaultInstanceEv"
  },
  {
   "name":"_ZN6google8protobuf6Method27MergePartialFromCodedStreamEPNS0_2io16CodedInputStreamE"
  },
  {
   "name":"_ZN6google8protobuf6Method4SwapEPS1_"
  },
  {
   "name":"_ZN6google8protobuf6Method5ClearEv"
  },
  {
   "name":"_ZN6google8protobuf6Method8CopyFromERKNS0_7MessageE"
  },
  {
   "name":"_ZN6google8protobuf6Method8CopyFromERKS1_"
  },
  {
   "name":"_ZN6google8protobuf6Method9MergeFromERKNS0_7MessageE"
  },
  {
   "name":"_ZN6google8protobuf6Method9MergeFromERKS1_"
  },
  {
   "name":"_ZN6google8protobuf6MethodC1ERKS1_"
  },
  {
   "name":"_ZN6google8protobuf6MethodC1Ev"
  },
  {
   "name":"_ZN6google8protobuf6MethodC2ERKS1_"
  },
  {
   "name":"_ZN6google8protobuf6MethodC2Ev"
  },
  {
   "name":"_ZN6google8protobuf6MethodD0Ev"
  },
  {
   "name":"_ZN6google8protobuf6MethodD1Ev"
  },
  {
   "name":"_ZN6google8protobuf6MethodD2Ev"
  },
  {
   "name":"_ZN6google8protobuf6Option10SharedCtorEv"
  },
  {
   "name":"_ZN6google8protobuf6Option10SharedDtorEv"
  },
  {
   "name":"_ZN6google8protobuf6Option10descriptorEv"
  },
  {
   "name":"_ZN6google8protobuf6Option12InternalSwapEPS1_"
  },
  {
   "name":"_ZN6google8protobuf6Option16default_instanceEv"
  },
  {
   "name":"_ZN6google8protobuf6Option21InitAsDefaultInstanceEv"
  },
  {
   "name":"_ZN6google8protobuf6Option27MergePartialFromCodedStreamEPNS0_2io16CodedInputStreamE"
  },
  {
   "name":"_ZN6google8protobuf6Option4SwapEPS1_"
  },
  {
   "name":"_ZN6google8protobuf6Option5ClearEv"
  },
  {
   "name":"_ZN6google8protobuf6Option8CopyFromERKNS0_7MessageE"
  },
  {
   "name":"_ZN6google8protobuf6Option8CopyFromERKS1_"
  },
  {
   "name":"_ZN6google8protobuf6Option9MergeFromERKNS0_7MessageE"
  },
  {
   "name":"_ZN6google8protobuf6Option9MergeFromERKS1_"
  },
  {
   "name":"_ZN6google8protobuf6OptionC1ERKS1_"
  },
  {
   "name":"_ZN6google8protobuf6OptionC1Ev"
  },
  {
   "name":"_ZN6google8protobuf6OptionC2ERKS1_"
  },
  {
   "name":"_ZN6google8protobuf6OptionC2Ev"
  },
  {
   "name":"_ZN6google8protobuf6OptionD0Ev"
  },
  {
   "name":"_ZN6google8protobuf6OptionD1Ev"
  },
  {
   "name":"_ZN6google8protobuf6OptionD2Ev"
  },
  {
   "name":"_ZN6google8protobuf6StrCatERKNS0_7strings8AlphaNumES4_"
  },
  {
   "name":"_ZN6google8protobuf6StrCatERKNS0_7strings8AlphaNumES4_S4_"
  },
  {
   "name":"_ZN6google8protobuf6StrCatERKNS0_7strings8AlphaNumES4_S4_S4_"
  },
  {
   "name":"_ZN6google8protobuf6StrCatERKNS0_7strings8AlphaNumES4_S4_S4_S4_"
  },
  {
   "name":"_ZN6google8protobuf6StrCatERKNS0_7strings8AlphaNumES4_S4_S4_S4_S4_"
  },
  {
   "name":"_ZN6google8protobuf6StrCatERKNS0_7strings8AlphaNumES4_S4_S4_S4_S4_S4_"
  },
  {
   "name":"_ZN6google8protobuf6StrCatERKNS0_7strings8AlphaNumES4_S4_S4_S4_S4_S4_S4_"
  },
  {
   "name":"_ZN6google8protobuf6StrCatERKNS0_7strings8AlphaNumES4_S4_S4_S4_S4_S4_S4_S4_"
  },
  {
   "name":"_ZN6google8protobuf6Struct10SharedCtorEv"
  },
  {
   "name":"_ZN6google8protobuf6Struct10SharedDtorEv"
  },
  {
   "name":"_ZN6google8protobuf6Struct10descriptorEv"
  },
  {
   "name":"_ZN6google8protobuf6Struct12InternalSwapEPS1_"
  },
  {
   "name":"_ZN6google8protobuf6Struct16default_instanceEv"
  },
  {
   "name":"_ZN6google8protobuf6Struct21InitAsDefaultInstanceEv"
  },
  {
   "name":"_ZN6google8protobuf6Struct27MergePartialFromCodedStreamEPNS0_2io16CodedInputStreamE"
  },
  {
   "name":"_ZN6google8protobuf6Struct4SwapEPS1_"
  },
  {
   "name":"_ZN6google8protobuf6Struct5ClearEv"
  },
  {
   "name":"_ZN6google8protobuf6Struct8CopyFromERKNS0_7MessageE"
  },
  {
   "name":"_ZN6google8protobuf6Struct8CopyFromERKS1_"
  },
  {
   "name":"_ZN6google8protobuf6Struct9MergeFromERKNS0_7MessageE"
  },
  {
   "name":"_ZN6google8protobuf6Struct9MergeFromERKS1_"
  },
  {
   "name":"_ZN6google8protobuf6StructC1ERKS1_"
  },
  {
   "name":"_ZN6google8protobuf6StructC1Ev"
  },
  {
   "name":"_ZN6google8protobuf6StructC2ERKS1_"
  },
  {
   "name":"_ZN6google8protobuf6StructC2Ev"
  },
  {
   "name":"_ZN6google8protobuf6StructD0Ev"
  },
  {
   "name":"_ZN6google8protobuf6StructD1Ev"
  },
  {
   "name":"_ZN6google8protobuf6StructD2Ev"
  },
  {
   "name":"_ZN6google8protobuf6ghtonlEj"
  },
  {
   "name":"_ZN6google8protobuf7CEscapeERKNSt3__112basic_stringIcNS1_11char_traitsIcEENS1_9allocatorIcEEEE"
  },
  {
   "name":"_ZN6google8protobuf7ClosureD0Ev"
  },
  {
   "name":"_ZN6google8protobuf7ClosureD1Ev"
  },
  {
   "name":"_ZN6google8protobuf7ClosureD2Ev"
  },
  {
   "name":"_ZN6google8protobuf7Message16ParseFromIstreamEPNSt3__113basic_istreamIcNS2_11char_traitsIcEEEE"
  },
  {
   "name":"_ZN6google8protobuf7Message20DiscardUnknownFieldsEv"
  },
  {
   "name":"_ZN6google8protobuf7Message21CheckTypeAndMergeFromERKNS0_11MessageLiteE"
  },
  {
   "name":"_ZN6google8protobuf7Message23ParseFromFileDescriptorEi"
  },
  {
   "name":"_ZN6google8protobuf7Message23ParsePartialFromIstreamEPNSt3__113basic_istreamIcNS2_11char_traitsIcEEEE"
  },
  {
   "name":"_ZN6google8protobuf7Message27MergePartialFromCodedStreamEPNS0_2io16CodedInputStreamE"
  },
  {
   "name":"_ZN6google8protobuf7Message30ParsePartialFromFileDescriptorEi"
  },
  {
   "name":"_ZN6google8protobuf7Message5ClearEv"
  },
  {
   "name":"_ZN6google8protobuf7Message8CopyFromERKS1_"
  },
  {
   "name":"_ZN6google8protobuf7Message9MergeFromERKS1_"
  },
  {
   "name":"_ZN6google8protobuf7MessageD0Ev"
  },
  {
   "name":"_ZN6google8protobuf7MessageD1Ev"
  },
  {
   "name":"_ZN6google8protobuf7MessageD2Ev"
  },
  {
   "name":"_ZN6google8protobuf7ServiceD0Ev"
  },
  {
   "name":"_ZN6google8protobuf7ServiceD1Ev"
  },
  {
   "name":"_ZN6google8protobuf7ServiceD2Ev"
  },
  {
   "name":"_ZN6google8protobuf7strings10ByteSource6CopyToEPNS1_8ByteSinkEm"
  },
  {
   "name":"_ZN6google8protobuf7strings10CHexEscapeERKNSt3__112basic_stringIcNS2_11char_traitsIcEENS2_9allocatorIcEEEE"
  },
  {
   "name":"_ZN6google8protobuf7strings10SubstituteEPKcRKNS1_8internal13SubstituteArgES7_S7_S7_S7_S7_S7_S7_S7_S7_"
  },
  {
   "name":"_ZN6google8protobuf7strings14StringByteSink6AppendEPKcm"
  },
  {
   "name":"_ZN6google8protobuf7strings15ArrayByteSource4PeekEv"
  },
  {
   "name":"_ZN6google8protobuf7strings15ArrayByteSource4SkipEm"
  },
  {
   "name":"_ZN6google8protobuf7strings15LimitByteSource4PeekEv"
  },
  {
   "name":"_ZN6google8protobuf7strings15LimitByteSource4SkipEm"
  },
  {
   "name":"_ZN6google8protobuf7strings15LimitByteSource6CopyToEPNS1_8ByteSinkEm"
  },
  {
   "name":"_ZN6google8protobuf7strings15LimitByteSourceC1EPNS1_10ByteSourceEm"
  },
  {
   "name":"_ZN6google8protobuf7strings15LimitByteSourceC2EPNS1_10ByteSourceEm"
  },
  {
   "name":"_ZN6google8protobuf7strings15Utf8SafeCEscapeERKNSt3__112basic_stringIcNS2_11char_traitsIcEENS2_9allocatorIcEEEE"
  },
  {
   "name":"_ZN6google8protobuf7strings19SubstituteAndAppendEPNSt3__112basic_stringIcNS2_11char_traitsIcEENS2_9allocatorIcEEEEPKcRKNS1_8internal13SubstituteArgESF_SF_SF_SF_SF_SF_SF_SF_SF_"
  },
  {
   "name":"_ZN6google8protobuf7strings20CheckedArrayByteSink6AppendEPKcm"
  },
  {
   "name":"_ZN6google8protobuf7strings20CheckedArrayByteSinkC1EPcm"
  },
  {
   "name":"_ZN6google8protobuf7strings20CheckedArrayByteSinkC2EPcm"
  },
  {
   "name":"_ZN6google8protobuf7strings20GrowingArrayByteSink11ShrinkToFitEv"
  },
  {
   "name":"_ZN6google8protobuf7strings20GrowingArrayByteSink6AppendEPKcm"
  },
  {
   "name":"_ZN6google8protobuf7strings20GrowingArrayByteSink6ExpandEm"
  },
  {
   "name":"_ZN6google8protobuf7strings20GrowingArrayByteSink9GetBufferEPm"
  },
  {
   "name":"_ZN6google8protobuf7strings20GrowingArrayByteSinkC1Em"
  },
  {
   "name":"_ZN6google8protobuf7strings20GrowingArrayByteSinkC2Em"
  },
  {
   "name":"_ZN6google8protobuf7strings20GrowingArrayByteSinkD0Ev"
  },
  {
   "name":"_ZN6google8protobuf7strings20GrowingArrayByteSinkD1Ev"
  },
  {
   "name":"_ZN6google8protobuf7strings20GrowingArrayByteSinkD2Ev"
  },
  {
   "name":"_ZN6google8protobuf7strings22UncheckedArrayByteSink6AppendEPKcm"
  },
  {
   "name":"_ZN6google8protobuf7strings8AlphaNumC1ENS1_3HexE"
  },
  {
   "name":"_ZN6google8protobuf7strings8AlphaNumC2ENS1_3HexE"
  },
  {
   "name":"_ZN6google8protobuf7strings8ByteSink5FlushEv"
  },
  {
   "name":"_ZN6google8protobuf7uint12810DivModImplES1_S1_PS1_S2_"
  },
  {
   "name":"_ZN6google8protobuf7uint128dVERKS1_"
  },
  {
   "name":"_ZN6google8protobuf7uint128rMERKS1_"
  },
  {
   "name":"_ZN6google8protobuf8Duration10SharedCtorEv"
  },
  {
   "name":"_ZN6google8protobuf8Duration10SharedDtorEv"
  },
  {
   "name":"_ZN6google8protobuf8Duration10descriptorEv"
  },
  {
   "name":"_ZN6google8protobuf8Duration12InternalSwapEPS1_"
  },
  {
   "name":"_ZN6google8protobuf8Duration16default_instanceEv"
  },
  {
   "name":"_ZN6google8protobuf8Duration21InitAsDefaultInstanceEv"
  },
  {
   "name":"_ZN6google8protobuf8Duration27MergePartialFromCodedStreamEPNS0_2io16CodedInputStreamE"
  },
  {
   "name":"_ZN6google8protobuf8Duration4SwapEPS1_"
  },
  {
   "name":"_ZN6google8protobuf8Duration5ClearEv"
  },
  {
   "name":"_ZN6google8protobuf8Duration8CopyFromERKNS0_7MessageE"
  },
  {
   "name":"_ZN6google8protobuf8Duration8CopyFromERKS1_"
  },
  {
   "name":"_ZN6google8protobuf8Duration9MergeFromERKNS0_7MessageE"
  },
  {
   "name":"_ZN6google8protobuf8Duration9MergeFromERKS1_"
  },
  {
   "name":"_ZN6google8protobuf8DurationC1ERKS1_"
  },
  {
   "name":"_ZN6google8protobuf8DurationC1Ev"
  },
  {
   "name":"_ZN6google8protobuf8DurationC2ERKS1_"
  },
  {
   "name":"_ZN6google8protobuf8DurationC2Ev"
  },
  {
   "name":"_ZN6google8protobuf8DurationD0Ev"
  },
  {
   "name":"_ZN6google8protobuf8DurationD1Ev"
  },
  {
   "name":"_ZN6google8protobuf8DurationD2Ev"
  },
  {
   "binding":"weak",
   "name":"_ZN6google8protobuf8MathUtil22WithinFractionOrMarginIdEEbT_S3_S3_S3_"
  },
  {
   "name":"_ZN6google8protobuf8compiler10SourceTree19GetLastErrorMessageEv"
  },
  {
   "name":"_ZN6google8protobuf8compiler10SourceTreeD0Ev"
  },
  {
   "name":"_ZN6google8protobuf8compiler10SourceTreeD1Ev"
  },
  {
   "name":"_ZN6google8protobuf8compiler10SourceTreeD2Ev"
  },
  {
   "name":"_ZN6google8protobuf8compiler14DiskSourceTree12OpenDiskFileERKNSt3__112basic_stringIcNS3_11char_traitsIcEENS3_9allocatorIcEEEE"
  },
  {
   "name":"_ZN6google8protobuf8compiler14DiskSourceTree15OpenVirtualFileERKNSt3__112basic_stringIcNS3_11char_traitsIcEENS3_9allocatorIcEEEEPS9_"
  },
  {
   "name":"_ZN6google8protobuf8compiler14DiskSourceTree19GetLastErrorMessageEv"
  },
  {
   "name":"_ZN6google8protobuf8compiler14DiskSourceTree21DiskFileToVirtualFileERKNSt3__112basic_stringIcNS3_11char_traitsIcEENS3_9allocatorIcEEEEPS9_SC_"
  },
  {
   "name":"_ZN6google8protobuf8compiler14DiskSourceTree21VirtualFileToDiskFileERKNSt3__112basic_stringIcNS3_11char_traitsIcEENS3_9allocatorIcEEEEPS9_"
  },
  {
   "name":"_ZN6google8protobuf8compiler14DiskSourceTree4OpenERKNSt3__112basic_stringIcNS3_11char_traitsIcEENS3_9allocatorIcEEEE"
  },
  {
   "name":"_ZN6google8protobuf8compiler14DiskSourceTree7MapPathERKNSt3__112basic_stringIcNS3_11char_traitsIcEENS3_9allocatorIcEEEESB_"
  },
  {
   "name":"_ZN6google8protobuf8compiler14DiskSourceTreeC1Ev"
  },
  {
   "name":"_ZN6google8protobuf8compiler14DiskSourceTreeC2Ev"
  },
  {
   "name":"_ZN6google8protobuf8compiler14DiskSourceTreeD0Ev"
  },
  {
   "name":"_ZN6google8protobuf8compiler14DiskSourceTreeD1Ev"
  },
  {
   "name":"_ZN6google8protobuf8compiler14DiskSourceTreeD2Ev"
  },
  {
   "name":"_ZN6google8protobuf8compiler19SourceLocationTable3AddEPKNS0_7MessageENS0_14DescriptorPool14ErrorCollector13ErrorLocationEii"
  },
  {
   "name":"_ZN6google8protobuf8compiler19SourceLocationTable5ClearEv"
  },
  {
   "name":"_ZN6google8protobuf8compiler19SourceLocationTableC1Ev"
  },
  {
   "name":"_ZN6google8protobuf8compiler19SourceLocationTableC2Ev"
  },
  {
   "name":"_ZN6google8protobuf8compiler19SourceLocationTableD1Ev"
  },
  {
   "name":"_ZN6google8protobuf8compiler19SourceLocationTableD2Ev"
  },
  {
   "name":"_ZN6google8protobuf8compiler23MultiFileErrorCollectorD0Ev"
  },
  {
   "name":"_ZN6google8protobuf8compiler23MultiFileErrorCollectorD1Ev"
  },
  {
   "name":"_ZN6google8protobuf8compiler23MultiFileErrorCollectorD2Ev"
  },
  {
   "name":"_ZN6google8protobuf8compiler28SourceTreeDescriptorDatabase14FindFileByNameERKNSt3__112basic_stringIcNS3_11char_traitsIcEENS3_9allocatorIcEEEEPNS0_19FileDescriptorProtoE"
  },
  {
   "name":"_ZN6google8protobuf8compiler28SourceTreeDescriptorDatabase24FindFileContainingSymbolERKNSt3__112basic_stringIcNS3_11char_traitsIcEENS3_9allocatorIcEEEEPNS0_19FileDescriptorProtoE"
  },
  {
   "name":"_ZN6google8protobuf8compiler28SourceTreeDescriptorDatabase24ValidationErrorCollector10AddWarningERKNSt3__112basic_stringIcNS4_11char_traitsIcEENS4_9allocatorIcEEEESC_PKNS0_7MessageENS0_14DescriptorPool14ErrorCollector13ErrorLocationESC_"
  },
  {
   "name":"_ZN6google8protobuf8compiler28SourceTreeDescriptorDatabase24ValidationErrorCollector8AddErrorERKNSt3__112basic_stringIcNS4_11char_traitsIcEENS4_9allocatorIcEEEESC_PKNS0_7MessageENS0_14DescriptorPool14ErrorCollector13ErrorLocationESC_"
  },
  {
   "name":"_ZN6google8protobuf8compiler28SourceTreeDescriptorDatabase24ValidationErrorCollectorC1EPS2_"
  },
  {
   "name":"_ZN6google8protobuf8compiler28SourceTreeDescriptorDatabase24ValidationErrorCollectorC2EPS2_"
  },
  {
   "name":"_ZN6google8protobuf8compiler28SourceTreeDescriptorDatabase24ValidationErrorCollectorD0Ev"
  },
  {
   "name":"_ZN6google8protobuf8compiler28SourceTreeDescriptorDatabase24ValidationErrorCollectorD1Ev"
  },
  {
   "name":"_ZN6google8protobuf8compiler28SourceTreeDescriptorDatabase24ValidationErrorCollectorD2Ev"
  },
  {
   "name":"_ZN6google8protobuf8compiler28SourceTreeDescriptorDatabase27FindFileContainingExtensionERKNSt3__112basic_stringIcNS3_11char_traitsIcEENS3_9allocatorIcEEEEiPNS0_19FileDescriptorProtoE"
  },
  {
   "name":"_ZN6google8protobuf8compiler28SourceTreeDescriptorDatabaseC1EPNS1_10SourceTreeE"
  },
  {
   "name":"_ZN6google8protobuf8compiler28SourceTreeDescriptorDatabaseC2EPNS1_10SourceTreeE"
  },
  {
   "name":"_ZN6google8protobuf8compiler28SourceTreeDescriptorDatabaseD0Ev"
  },
  {
   "name":"_ZN6google8protobuf8compiler28SourceTreeDescriptorDatabaseD1Ev"
  },
  {
   "name":"_ZN6google8protobuf8compiler28SourceTreeDescriptorDatabaseD2Ev"
  },
  {
   "name":"_ZN6google8protobuf8compiler6Parser10ParseLabelEPNS0_26FieldDescriptorProto_LabelEPKNS0_19FileDescriptorProtoE"
  },
  {
   "name":"_ZN6google8protobuf8compiler6Parser10ParseOneofEPNS0_20OneofDescriptorProtoEPNS0_15DescriptorProtoEiRKNS2_16LocationRecorderES9_PKNS0_19FileDescriptorProtoE"
  },
  {
   "name":"_ZN6google8protobuf8compiler6Parser10TryConsumeEPKc"
  },
  {
   "name":"_ZN6google8protobuf8compiler6Parser11ParseExtendEPNS0_16RepeatedPtrFieldINS0_20FieldDescriptorProtoEEEPNS3_INS0_15DescriptorProtoEEERKNS2_16LocationRecorderEiSC_PKNS0_19FileDescriptorProtoE"
  },
  {
   "name":"_ZN6google8protobuf8compiler6Parser11ParseImportEPNS0_16RepeatedPtrFieldINSt3__112basic_stringIcNS4_11char_traitsIcEENS4_9allocatorIcEEEEEEPNS0_13RepeatedFieldIiEESF_RKNS2_16LocationRecorderEPKNS0_19FileDescriptorProtoE"
  },
  {
   "name":"_ZN6google8protobuf8compiler6Parser11ParseOptionEPNS0_7MessageERKNS2_16LocationRecorderEPKNS0_19FileDescriptorProtoENS2_11OptionStyleE"
  },
  {
   "name":"_ZN6google8protobuf8compiler6Parser12ParsePackageEPNS0_19FileDescriptorProtoERKNS2_16LocationRecorderEPKS3_"
  },
  {
   "name":"_ZN6google8protobuf8compiler6Parser12ValidateEnumEPKNS0_19EnumDescriptorProtoE"
  },
  {
   "name":"_ZN6google8protobuf8compiler6Parser13ConsumeNumberEPdPKc"
  },
  {
   "name":"_ZN6google8protobuf8compiler6Parser13ConsumeStringEPNSt3__112basic_stringIcNS3_11char_traitsIcEENS3_9allocatorIcEEEEPKc"
  },
  {
   "name":"_ZN6google8protobuf8compiler6Parser13ParseJsonNameEPNS0_20FieldDescriptorProtoERKNS2_16LocationRecorderEPKNS0_19FileDescriptorProtoE"
  },
  {
   "name":"_ZN6google8protobuf8compiler6Parser13ParseReservedEPNS0_15DescriptorProtoERKNS2_16LocationRecorderE"
  },
  {
   "name":"_ZN6google8protobuf8compiler6Parser13SkipStatementEv"
  },
  {
   "name":"_ZN6google8protobuf8compiler6Parser14ConsumeIntegerEPiPKc"
  },
  {
   "name":"_ZN6google8protobuf8compiler6Parser14ParseEnumBlockEPNS0_19EnumDescriptorProtoERKNS2_16LocationRecorderEPKNS0_19FileDescriptorProtoE"
  },
  {
   "name":"_ZN6google8protobuf8compiler6Parser15ParseExtensionsEPNS0_15DescriptorProtoERKNS2_16LocationRecorderEPKNS0_19FileDescriptorProtoE"
  },
  {
   "name":"_ZN6google8protobuf8compiler6Parser15SkipRestOfBlockEv"
  },
  {
   "name":"_ZN6google8protobuf8compiler6Parser16ConsumeInteger64EyPyPKc"
  },
  {
   "name":"_ZN6google8protobuf8compiler6Parser16GenerateMapEntryERKNS2_8MapFieldEPNS0_20FieldDescriptorProtoEPNS0_16RepeatedPtrFieldINS0_15DescriptorProtoEEE"
  },
  {
   "name":"_ZN6google8protobuf8compiler6Parser16LocationRecorder20RecordLegacyLocationEPKNS0_7MessageENS0_14DescriptorPool14ErrorCollector13ErrorLocationE"
  },
  {
   "name":"_ZN6google8protobuf8compiler6Parser16LocationRecorder4InitERKS3_"
  },
  {
   "name":"_ZN6google8protobuf8compiler6Parser16LocationRecorder5EndAtERKNS0_2io9Tokenizer5TokenE"
  },
  {
   "name":"_ZN6google8protobuf8compiler6Parser16LocationRecorder7AddPathEi"
  },
  {
   "name":"_ZN6google8protobuf8compiler6Parser16LocationRecorder7StartAtERKNS0_2io9Tokenizer5TokenE"
  },
  {
   "name":"_ZN6google8protobuf8compiler6Parser16LocationRecorder7StartAtERKS3_"
  },
  {
   "name":"_ZN6google8protobuf8compiler6Parser16LocationRecorderC1EPS2_"
  },
  {
   "name":"_ZN6google8protobuf8compiler6Parser16LocationRecorderC1ERKS3_"
  },
  {
   "name":"_ZN6google8protobuf8compiler6Parser16LocationRecorderC1ERKS3_i"
  },
  {
   "name":"_ZN6google8protobuf8compiler6Parser16LocationRecorderC1ERKS3_ii"
  },
  {
   "name":"_ZN6google8protobuf8compiler6Parser16LocationRecorderC2EPS2_"
  },
  {
   "name":"_ZN6google8protobuf8compiler6Parser16LocationRecorderC2ERKS3_"
  },
  {
   "name":"_ZN6google8protobuf8compiler6Parser16LocationRecorderC2ERKS3_i"
  },
  {
   "name":"_ZN6google8protobuf8compiler6Parser16LocationRecorderC2ERKS3_ii"
  },
  {
   "name":"_ZN6google8protobuf8compiler6Parser16LocationRecorderD1Ev"
  },
  {
   "name":"_ZN6google8protobuf8compiler6Parser16LocationRecorderD2Ev"
  },
  {
   "name":"_ZN6google8protobuf8compiler6Parser17ConsumeIdentifierEPNSt3__112basic_stringIcNS3_11char_traitsIcEENS3_9allocatorIcEEEEPKc"
  },
  {
   "name":"_ZN6google8protobuf8compiler6Parser17ParseEnumConstantEPNS0_24EnumValueDescriptorProtoERKNS2_16LocationRecorderEPKNS0_19FileDescriptorProtoE"
  },
  {
   "name":"_ZN6google8protobuf8compiler6Parser17ParseFieldOptionsEPNS0_20FieldDescriptorProtoERKNS2_16LocationRecorderEPKNS0_19FileDescriptorProtoE"
  },
  {
   "name":"_ZN6google8protobuf8compiler6Parser17ParseMessageBlockEPNS0_15DescriptorProtoERKNS2_16LocationRecorderEPKNS0_19FileDescriptorProtoE"
  },
  {
   "name":"_ZN6google8protobuf8compiler6Parser17ParseMessageFieldEPNS0_20FieldDescriptorProtoEPNS0_16RepeatedPtrFieldINS0_15DescriptorProtoEEERKNS2_16LocationRecorderEiSB_PKNS0_19FileDescriptorProtoE"
  },
  {
   "name":"_ZN6google8protobuf8compiler6Parser17ParseServiceBlockEPNS0_22ServiceDescriptorProtoERKNS2_16LocationRecorderEPKNS0_19FileDescriptorProtoE"
  },
  {
   "name":"_ZN6google8protobuf8compiler6Parser18ParseEnumStatementEPNS0_19EnumDescriptorProtoERKNS2_16LocationRecorderEPKNS0_19FileDescriptorProtoE"
  },
  {
   "name":"_ZN6google8protobuf8compiler6Parser18ParseMethodOptionsERKNS2_16LocationRecorderEPKNS0_19FileDescriptorProtoEiPNS0_7MessageE"
  },
  {
   "name":"_ZN6google8protobuf8compiler6Parser18ParseReservedNamesEPNS0_15DescriptorProtoERKNS2_16LocationRecorderE"
  },
  {
   "name":"_ZN6google8protobuf8compiler6Parser18ParseServiceMethodEPNS0_21MethodDescriptorProtoERKNS2_16LocationRecorderEPKNS0_19FileDescriptorProtoE"
  },
  {
   "name":"_ZN6google8protobuf8compiler6Parser19ParseEnumDefinitionEPNS0_19EnumDescriptorProtoERKNS2_16LocationRecorderEPKNS0_19FileDescriptorProtoE"
  },
  {
   "name":"_ZN6google8protobuf8compiler6Parser19ParseOptionNamePartEPNS0_19UninterpretedOptionERKNS2_16LocationRecorderEPKNS0_19FileDescriptorProtoE"
  },
  {
   "name":"_ZN6google8protobuf8compiler6Parser20ConsumeSignedIntegerEPiPKc"
  },
  {
   "name":"_ZN6google8protobuf8compiler6Parser20ParseReservedNumbersEPNS0_15DescriptorProtoERKNS2_16LocationRecorderE"
  },
  {
   "name":"_ZN6google8protobuf8compiler6Parser20ParseUserDefinedTypeEPNSt3__112basic_stringIcNS3_11char_traitsIcEENS3_9allocatorIcEEEE"
  },
  {
   "name":"_ZN6google8protobuf8compiler6Parser21ParseMessageStatementEPNS0_15DescriptorProtoERKNS2_16LocationRecorderEPKNS0_19FileDescriptorProtoE"
  },
  {
   "name":"_ZN6google8protobuf8compiler6Parser21ParseServiceStatementEPNS0_22ServiceDescriptorProtoERKNS2_16LocationRecorderEPKNS0_19FileDescriptorProtoE"
  },
  {
   "name":"_ZN6google8protobuf8compiler6Parser21ParseSyntaxIdentifierERKNS2_16LocationRecorderE"
  },
  {
   "name":"_ZN6google8protobuf8compiler6Parser22ParseDefaultAssignmentEPNS0_20FieldDescriptorProtoERKNS2_16LocationRecorderEPKNS0_19FileDescriptorProtoE"
  },
  {
   "name":"_ZN6google8protobuf8compiler6Parser22ParseMessageDefinitionEPNS0_15DescriptorProtoERKNS2_16LocationRecorderEPKNS0_19FileDescriptorProtoE"
  },
  {
   "name":"_ZN6google8protobuf8compiler6Parser22ParseServiceDefinitionEPNS0_22ServiceDescriptorProtoERKNS2_16LocationRecorderEPKNS0_19FileDescriptorProtoE"
  },
  {
   "name":"_ZN6google8protobuf8compiler6Parser22ParseTopLevelStatementEPNS0_19FileDescriptorProtoERKNS2_16LocationRecorderE"
  },
  {
   "name":"_ZN6google8protobuf8compiler6Parser23ConsumeEndOfDeclarationEPKcPKNS2_16LocationRecorderE"
  },
  {
   "name":"_ZN6google8protobuf8compiler6Parser23ParseUninterpretedBlockEPNSt3__112basic_stringIcNS3_11char_traitsIcEENS3_9allocatorIcEEEE"
  },
  {
   "name":"_ZN6google8protobuf8compiler6Parser24ParseEnumConstantOptionsEPNS0_24EnumValueDescriptorProtoERKNS2_16LocationRecorderEPKNS0_19FileDescriptorProtoE"
  },
  {
