{
 "record_types":[
  {
   "vtable_components":[
    {
     "kind":"offset_to_top"
    },
    {
     "kind":"rtti",
     "mangled_component_name":"_ZTIN7android12renderscript7SamplerE"
    },
    {
     "mangled_component_name":"_ZN7android12renderscript10ObjectBase12freeChildrenEv"
    },
    {
     "mangled_component_name":"_ZNK7android12renderscript10ObjectBase8dumpLOGVEPKc"
    },
    {
     "mangled_component_name":"_ZNK7android12renderscript7Sampler9serializeEPNS0_7ContextEPNS0_7OStreamE"
    },
    {
     "mangled_component_name":"_ZNK7android12renderscript7Sampler10getClassIdEv"
    },
    {
     "mangled_component_name":"_ZNK7android12renderscript10ObjectBase21callUpdateCacheObjectEPKNS0_7ContextEPv"
    },
    {
     "mangled_component_name":"_ZNK7android12renderscript7Sampler10preDestroyEv"
    },
    {
     "kind":"complete_dtor_pointer",
     "mangled_component_name":"_ZN7android12renderscript7SamplerD1Ev"
    },
    {
     "kind":"deleting_dtor_pointer",
     "mangled_component_name":"_ZN7android12renderscript7SamplerD0Ev"
    }
   ],
   "unique_id":"_ZTSN7android12renderscript7SamplerE"
  },
  {
   "vtable_components":[
    {
     "kind":"vbase_offset",
     "component_value":128
    },
    {
     "kind":"offset_to_top"
    },
    {
     "kind":"rtti",
     "mangled_component_name":"_ZTINSt3__118basic_stringstreamIcNS_11char_traitsIcEENS_9allocatorIcEEEE"
    },
    {
     "kind":"complete_dtor_pointer",
     "mangled_component_name":"_ZNSt3__118basic_stringstreamIcNS_11char_traitsIcEENS_9allocatorIcEEED1Ev"
    },
    {
     "kind":"deleting_dtor_pointer",
     "mangled_component_name":"_ZNSt3__118basic_stringstreamIcNS_11char_traitsIcEENS_9allocatorIcEEED0Ev"
    },
    {
     "kind":"vbase_offset",
     "component_value":112
    },
    {
     "kind":"offset_to_top",
     "component_value":-16
    },
    {
     "kind":"rtti",
     "mangled_component_name":"_ZTINSt3__118basic_stringstreamIcNS_11char_traitsIcEENS_9allocatorIcEEEE"
    },
    {
     "kind":"complete_dtor_pointer",
     "mangled_component_name":"_ZThn16_NSt3__118basic_stringstreamIcNS_11char_traitsIcEENS_9allocatorIcEEED1Ev"
    },
    {
     "kind":"deleting_dtor_pointer",
     "mangled_component_name":"_ZThn16_NSt3__118basic_stringstreamIcNS_11char_traitsIcEENS_9allocatorIcEEED0Ev"
    },
    {
     "kind":"vcall_offset",
     "component_value":-128
    },
    {
     "kind":"offset_to_top",
     "component_value":-128
    },
    {
     "kind":"rtti",
     "mangled_component_name":"_ZTINSt3__118basic_stringstreamIcNS_11char_traitsIcEENS_9allocatorIcEEEE"
    },
    {
     "kind":"complete_dtor_pointer",
     "mangled_component_name":"_ZTv0_n24_NSt3__118basic_stringstreamIcNS_11char_traitsIcEENS_9allocatorIcEEED1Ev"
    },
    {
     "kind":"deleting_dtor_pointer",
     "mangled_component_name":"_ZTv0_n24_NSt3__118basic_stringstreamIcNS_11char_traitsIcEENS_9allocatorIcEEED0Ev"
    }
   ],
   "unique_id":"_ZTSNSt3__118basic_stringstreamIcNS_11char_traitsIcEENS_9allocatorIcEEEE"
  },
  {
   "vtable_components":[
    {
     "kind":"offset_to_top"
    },
    {
     "kind":"rtti",
     "mangled_component_name":"_ZTINSt3__115basic_stringbufIcNS_11char_traitsIcEENS_9allocatorIcEEEE"
    },
    {
     "kind":"complete_dtor_pointer",
     "mangled_component_name":"_ZNSt3__115basic_stringbufIcNS_11char_traitsIcEENS_9allocatorIcEEED1Ev"
    },
    {
     "kind":"deleting_dtor_pointer",
     "mangled_component_name":"_ZNSt3__115basic_stringbufIcNS_11char_traitsIcEENS_9allocatorIcEEED0Ev"
    },
    {
     "mangled_component_name":"_ZNSt3__115basic_streambufIcNS_11char_traitsIcEEE5imbueERKNS_6localeE"
    },
    {
     "mangled_component_name":"_ZNSt3__115basic_streambufIcNS_11char_traitsIcEEE6setbufEPcl"
    },
    {
     "mangled_component_name":"_ZNSt3__115basic_stringbufIcNS_11char_traitsIcEENS_9allocatorIcEEE7seekoffExNS_8ios_base7seekdirEj"
    },
    {
     "mangled_component_name":"_ZNSt3__115basic_stringbufIcNS_11char_traitsIcEENS_9allocatorIcEEE7seekposENS_4fposI9mbstate_tEEj"
    },
    {
     "mangled_component_name":"_ZNSt3__115basic_streambufIcNS_11char_traitsIcEEE4syncEv"
    },
    {
     "mangled_component_name":"_ZNSt3__115basic_streambufIcNS_11char_traitsIcEEE9showmanycEv"
    },
    {
     "mangled_component_name":"_ZNSt3__115basic_streambufIcNS_11char_traitsIcEEE6xsgetnEPcl"
    },
    {
     "mangled_component_name":"_ZNSt3__115basic_stringbufIcNS_11char_traitsIcEENS_9allocatorIcEEE9underflowEv"
    },
    {
     "mangled_component_name":"_ZNSt3__115basic_streambufIcNS_11char_traitsIcEEE5uflowEv"
    },
    {
     "mangled_component_name":"_ZNSt3__115basic_stringbufIcNS_11char_traitsIcEENS_9allocatorIcEEE9pbackfailEi"
    },
    {
     "mangled_component_name":"_ZNSt3__115basic_streambufIcNS_11char_traitsIcEEE6xsputnEPKcl"
    },
    {
     "mangled_component_name":"_ZNSt3__115basic_stringbufIcNS_11char_traitsIcEENS_9allocatorIcEEE8overflowEi"
    }
   ],
   "unique_id":"_ZTSNSt3__115basic_stringbufIcNS_11char_traitsIcEENS_9allocatorIcEEEE"
  },
  {
   "vtable_components":[
    {
     "kind":"offset_to_top"
    },
    {
     "kind":"rtti",
     "mangled_component_name":"_ZTIN7android12renderscript15ProgramFragmentE"
    },
    {
     "mangled_component_name":"_ZN7android12renderscript7Program12freeChildrenEv"
    },
    {
     "mangled_component_name":"_ZNK7android12renderscript10ObjectBase8dumpLOGVEPKc"
    },
    {
     "mangled_component_name":"_ZNK7android12renderscript15ProgramFragment9serializeEPNS0_7ContextEPNS0_7OStreamE"
    },
    {
     "mangled_component_name":"_ZNK7android12renderscript15ProgramFragment10getClassIdEv"
    },
    {
     "mangled_component_name":"_ZNK7android12renderscript10ObjectBase21callUpdateCacheObjectEPKNS0_7ContextEPv"
    },
    {
     "mangled_component_name":"_ZNK7android12renderscript10ObjectBase10preDestroyEv"
    },
    {
     "kind":"complete_dtor_pointer",
     "mangled_component_name":"_ZN7android12renderscript15ProgramFragmentD1Ev"
    },
    {
     "kind":"deleting_dtor_pointer",
     "mangled_component_name":"_ZN7android12renderscript15ProgramFragmentD0Ev"
    },
    {
     "mangled_component_name":"_ZN7android12renderscript15ProgramFragment5setupEPNS0_7ContextEPNS0_20ProgramFragmentStateE"
    }
   ],
   "unique_id":"_ZTSN7android12renderscript15ProgramFragmentE"
  },
  {
   "vtable_components":[
    {
     "kind":"offset_to_top"
    },
    {
     "kind":"rtti",
     "mangled_component_name":"_ZTIN7android12renderscript13ProgramRasterE"
    },
    {
     "mangled_component_name":"_ZN7android12renderscript10ObjectBase12freeChildrenEv"
    },
    {
     "mangled_component_name":"_ZNK7android12renderscript10ObjectBase8dumpLOGVEPKc"
    },
    {
     "mangled_component_name":"_ZNK7android12renderscript13ProgramRaster9serializeEPNS0_7ContextEPNS0_7OStreamE"
    },
    {
     "mangled_component_name":"_ZNK7android12renderscript13ProgramRaster10getClassIdEv"
    },
    {
     "mangled_component_name":"_ZNK7android12renderscript10ObjectBase21callUpdateCacheObjectEPKNS0_7ContextEPv"
    },
    {
     "mangled_component_name":"_ZNK7android12renderscript13ProgramRaster10preDestroyEv"
    },
    {
     "kind":"complete_dtor_pointer",
     "mangled_component_name":"_ZN7android12renderscript13ProgramRasterD1Ev"
    },
    {
     "kind":"deleting_dtor_pointer",
     "mangled_component_name":"_ZN7android12renderscript13ProgramRasterD0Ev"
    },
    {
     "mangled_component_name":"_ZN7android12renderscript13ProgramRaster5setupEPKNS0_7ContextEPNS0_18ProgramRasterStateE"
    }
   ],
   "unique_id":"_ZTSN7android12renderscript13ProgramRasterE"
  },
  {
   "vtable_components":[
    {
     "kind":"offset_to_top"
    },
    {
     "kind":"rtti",
     "mangled_component_name":"_ZTIN7android12renderscript12ProgramStoreE"
    },
    {
     "mangled_component_name":"_ZN7android12renderscript10ObjectBase12freeChildrenEv"
    },
    {
     "mangled_component_name":"_ZNK7android12renderscript10ObjectBase8dumpLOGVEPKc"
    },
    {
     "mangled_component_name":"_ZNK7android12renderscript12ProgramStore9serializeEPNS0_7ContextEPNS0_7OStreamE"
    },
    {
     "mangled_component_name":"_ZNK7android12renderscript12ProgramStore10getClassIdEv"
    },
    {
     "mangled_component_name":"_ZNK7android12renderscript10ObjectBase21callUpdateCacheObjectEPKNS0_7ContextEPv"
    },
    {
     "mangled_component_name":"_ZNK7android12renderscript12ProgramStore10preDestroyEv"
    },
    {
     "kind":"complete_dtor_pointer",
     "mangled_component_name":"_ZN7android12renderscript12ProgramStoreD1Ev"
    },
    {
     "kind":"deleting_dtor_pointer",
     "mangled_component_name":"_ZN7android12renderscript12ProgramStoreD0Ev"
    },
    {
     "mangled_component_name":"_ZN7android12renderscript12ProgramStore5setupEPKNS0_7ContextEPNS0_17ProgramStoreStateE"
    }
   ],
   "unique_id":"_ZTSN7android12renderscript12ProgramStoreE"
  },
  {
   "vtable_components":[
    {
     "kind":"offset_to_top"
    },
    {
     "kind":"rtti",
     "mangled_component_name":"_ZTIN7android12renderscript12ScriptGroup2E"
    },
    {
     "mangled_component_name":"_ZN7android12renderscript10ObjectBase12freeChildrenEv"
    },
    {
     "mangled_component_name":"_ZNK7android12renderscript10ObjectBase8dumpLOGVEPKc"
    },
    {
     "mangled_component_name":"_ZNK7android12renderscript15ScriptGroupBase9serializeEPNS0_7ContextEPNS0_7OStreamE"
    },
    {
     "mangled_component_name":"_ZNK7android12renderscript15ScriptGroupBase10getClassIdEv"
    },
    {
     "mangled_component_name":"_ZNK7android12renderscript10ObjectBase21callUpdateCacheObjectEPKNS0_7ContextEPv"
    },
    {
     "mangled_component_name":"_ZNK7android12renderscript10ObjectBase10preDestroyEv"
    },
    {
     "kind":"complete_dtor_pointer",
     "mangled_component_name":"_ZN7android12renderscript12ScriptGroup2D1Ev"
    },
    {
     "kind":"deleting_dtor_pointer",
     "mangled_component_name":"_ZN7android12renderscript12ScriptGroup2D0Ev"
    },
    {
     "mangled_component_name":"_ZN7android12renderscript12ScriptGroup27executeEPNS0_7ContextE"
    },
    {
     "mangled_component_name":"_ZNK7android12renderscript12ScriptGroup213getApiVersionEv"
    }
   ],
   "unique_id":"_ZTSN7android12renderscript12ScriptGroup2E"
  },
  {
   "vtable_components":[
    {
     "kind":"offset_to_top"
    },
    {
     "kind":"rtti",
     "mangled_component_name":"_ZTIN7android12renderscript15ScriptIntrinsicE"
    },
    {
     "mangled_component_name":"_ZN7android12renderscript15ScriptIntrinsic12freeChildrenEv"
    },
    {
     "mangled_component_name":"_ZNK7android12renderscript10ObjectBase8dumpLOGVEPKc"
    },
    {
     "mangled_component_name":"_ZNK7android12renderscript15ScriptIntrinsic9serializeEPNS0_7ContextEPNS0_7OStreamE"
    },
    {
     "mangled_component_name":"_ZNK7android12renderscript15ScriptIntrinsic10getClassIdEv"
    },
    {
     "mangled_component_name":"_ZNK7android12renderscript6Script21callUpdateCacheObjectEPKNS0_7ContextEPv"
    },
    {
     "mangled_component_name":"_ZNK7android12renderscript10ObjectBase10preDestroyEv"
    },
    {
     "kind":"complete_dtor_pointer",
     "mangled_component_name":"_ZN7android12renderscript15ScriptIntrinsicD1Ev"
    },
    {
     "kind":"deleting_dtor_pointer",
     "mangled_component_name":"_ZN7android12renderscript15ScriptIntrinsicD0Ev"
    },
    {
     "mangled_component_name":"_ZN7android12renderscript15ScriptIntrinsic10runForEachEPNS0_7ContextEjPPKNS0_10AllocationEmPS4_PKvmPK12RsScriptCall"
    },
    {
     "mangled_component_name":"_ZN7android12renderscript15ScriptIntrinsic9runReduceEPNS0_7ContextEjPPKNS0_10AllocationEmPS4_PK12RsScriptCall"
    },
    {
     "mangled_component_name":"_ZN7android12renderscript15ScriptIntrinsic6InvokeEPNS0_7ContextEjPKvm"
    },
    {
     "mangled_component_name":"_ZN7android12renderscript15ScriptIntrinsic11setupScriptEPNS0_7ContextE"
    },
    {
     "mangled_component_name":"_ZN7android12renderscript15ScriptIntrinsic3runEPNS0_7ContextE"
    },
    {
     "mangled_component_name":"_ZNK7android12renderscript15ScriptIntrinsic11isIntrinsicEv"
    }
   ],
   "unique_id":"_ZTSN7android12renderscript15ScriptIntrinsicE"
  },
  {
   "vtable_components":[
    {
     "kind":"offset_to_top"
    },
    {
     "kind":"rtti",
     "mangled_component_name":"_ZTIN7android12renderscript10ObjectBaseE"
    },
    {
     "mangled_component_name":"_ZN7android12renderscript10ObjectBase12freeChildrenEv"
    },
    {
     "mangled_component_name":"_ZNK7android12renderscript10ObjectBase8dumpLOGVEPKc"
    },
    {
     "is_pure":true,
     "mangled_component_name":"_ZNK7android12renderscript10ObjectBase9serializeEPNS0_7ContextEPNS0_7OStreamE"
    },
    {
     "is_pure":true,
     "mangled_component_name":"_ZNK7android12renderscript10ObjectBase10getClassIdEv"
    },
    {
     "mangled_component_name":"_ZNK7android12renderscript10ObjectBase21callUpdateCacheObjectEPKNS0_7ContextEPv"
    },
    {
     "mangled_component_name":"_ZNK7android12renderscript10ObjectBase10preDestroyEv"
    },
    {
     "kind":"complete_dtor_pointer",
     "mangled_component_name":"_ZN7android12renderscript10ObjectBaseD1Ev"
    },
    {
     "kind":"deleting_dtor_pointer",
     "mangled_component_name":"_ZN7android12renderscript10ObjectBaseD0Ev"
    }
   ],
   "unique_id":"_ZTSN7android12renderscript10ObjectBaseE"
  },
  {
   "vtable_components":[
    {
     "kind":"offset_to_top"
    },
    {
     "kind":"rtti",
     "mangled_component_name":"_ZTIN7android12renderscript11ScriptGroupE"
    },
    {
     "mangled_component_name":"_ZN7android12renderscript10ObjectBase12freeChildrenEv"
    },
    {
     "mangled_component_name":"_ZNK7android12renderscript10ObjectBase8dumpLOGVEPKc"
    },
    {
     "mangled_component_name":"_ZNK7android12renderscript15ScriptGroupBase9serializeEPNS0_7ContextEPNS0_7OStreamE"
    },
    {
     "mangled_component_name":"_ZNK7android12renderscript15ScriptGroupBase10getClassIdEv"
    },
    {
     "mangled_component_name":"_ZNK7android12renderscript10ObjectBase21callUpdateCacheObjectEPKNS0_7ContextEPv"
    },
    {
     "mangled_component_name":"_ZNK7android12renderscript10ObjectBase10preDestroyEv"
    },
    {
     "kind":"complete_dtor_pointer",
     "mangled_component_name":"_ZN7android12renderscript11ScriptGroupD1Ev"
    },
    {
     "kind":"deleting_dtor_pointer",
     "mangled_component_name":"_ZN7android12renderscript11ScriptGroupD0Ev"
    },
    {
     "mangled_component_name":"_ZN7android12renderscript11ScriptGroup7executeEPNS0_7ContextE"
    },
    {
     "mangled_component_name":"_ZNK7android12renderscript11ScriptGroup13getApiVersionEv"
    }
   ],
   "unique_id":"_ZTSN7android12renderscript11ScriptGroupE"
  },
  {
   "vtable_components":[
    {
     "kind":"offset_to_top"
    },
    {
     "kind":"rtti",
     "mangled_component_name":"_ZTIN7android12renderscript14ScriptKernelIDE"
    },
    {
     "mangled_component_name":"_ZN7android12renderscript10ObjectBase12freeChildrenEv"
    },
    {
     "mangled_component_name":"_ZNK7android12renderscript10ObjectBase8dumpLOGVEPKc"
    },
    {
     "mangled_component_name":"_ZNK7android12renderscript6IDBase9serializeEPNS0_7ContextEPNS0_7OStreamE"
    },
    {
     "mangled_component_name":"_ZNK7android12renderscript14ScriptKernelID10getClassIdEv"
    },
    {
     "mangled_component_name":"_ZNK7android12renderscript10ObjectBase21callUpdateCacheObjectEPKNS0_7ContextEPv"
    },
    {
     "mangled_component_name":"_ZNK7android12renderscript10ObjectBase10preDestroyEv"
    },
    {
     "kind":"complete_dtor_pointer",
     "mangled_component_name":"_ZN7android12renderscript14ScriptKernelIDD1Ev"
    },
    {
     "kind":"deleting_dtor_pointer",
     "mangled_component_name":"_ZN7android12renderscript14ScriptKernelIDD0Ev"
    }
   ],
   "unique_id":"_ZTSN7android12renderscript14ScriptKernelIDE"
  },
  {
   "vtable_components":[
    {
     "kind":"offset_to_top"
    },
    {
     "kind":"rtti",
     "mangled_component_name":"_ZTIN7android12renderscript13ScriptFieldIDE"
    },
    {
     "mangled_component_name":"_ZN7android12renderscript10ObjectBase12freeChildrenEv"
    },
    {
     "mangled_component_name":"_ZNK7android12renderscript10ObjectBase8dumpLOGVEPKc"
    },
    {
     "mangled_component_name":"_ZNK7android12renderscript6IDBase9serializeEPNS0_7ContextEPNS0_7OStreamE"
    },
    {
     "mangled_component_name":"_ZNK7android12renderscript13ScriptFieldID10getClassIdEv"
    },
    {
     "mangled_component_name":"_ZNK7android12renderscript10ObjectBase21callUpdateCacheObjectEPKNS0_7ContextEPv"
    },
    {
     "mangled_component_name":"_ZNK7android12renderscript10ObjectBase10preDestroyEv"
    },
    {
     "kind":"complete_dtor_pointer",
     "mangled_component_name":"_ZN7android12renderscript13ScriptFieldIDD1Ev"
    },
    {
     "kind":"deleting_dtor_pointer",
     "mangled_component_name":"_ZN7android12renderscript13ScriptFieldIDD0Ev"
    }
   ],
   "unique_id":"_ZTSN7android12renderscript13ScriptFieldIDE"
  },
  {
   "vtable_components":[
    {
     "kind":"offset_to_top"
    },
    {
     "kind":"rtti",
     "mangled_component_name":"_ZTIN7android12renderscript4MeshE"
    },
    {
     "mangled_component_name":"_ZN7android12renderscript10ObjectBase12freeChildrenEv"
    },
    {
     "mangled_component_name":"_ZNK7android12renderscript10ObjectBase8dumpLOGVEPKc"
    },
    {
     "mangled_component_name":"_ZNK7android12renderscript4Mesh9serializeEPNS0_7ContextEPNS0_7OStreamE"
    },
    {
     "mangled_component_name":"_ZNK7android12renderscript4Mesh10getClassIdEv"
    },
    {
     "mangled_component_name":"_ZNK7android12renderscript10ObjectBase21callUpdateCacheObjectEPKNS0_7ContextEPv"
    },
    {
     "mangled_component_name":"_ZNK7android12renderscript10ObjectBase10preDestroyEv"
    },
    {
     "kind":"complete_dtor_pointer",
     "mangled_component_name":"_ZN7android12renderscript4MeshD1Ev"
    },
    {
     "kind":"deleting_dtor_pointer",
     "mangled_component_name":"_ZN7android12renderscript4MeshD0Ev"
    }
   ],
   "unique_id":"_ZTSN7android12renderscript4MeshE"
  },
  {
   "vtable_components":[
    {
     "kind":"offset_to_top"
    },
    {
     "kind":"rtti",
     "mangled_component_name":"_ZTIN7android12renderscript7FileA3DE"
    },
    {
     "mangled_component_name":"_ZN7android12renderscript10ObjectBase12freeChildrenEv"
    },
    {
     "mangled_component_name":"_ZNK7android12renderscript10ObjectBase8dumpLOGVEPKc"
    },
    {
     "mangled_component_name":"_ZNK7android12renderscript7FileA3D9serializeEPNS0_7ContextEPNS0_7OStreamE"
    },
    {
     "mangled_component_name":"_ZNK7android12renderscript7FileA3D10getClassIdEv"
    },
    {
     "mangled_component_name":"_ZNK7android12renderscript10ObjectBase21callUpdateCacheObjectEPKNS0_7ContextEPv"
    },
    {
     "mangled_component_name":"_ZNK7android12renderscript10ObjectBase10preDestroyEv"
    },
    {
     "kind":"complete_dtor_pointer",
     "mangled_component_name":"_ZN7android12renderscript7FileA3DD1Ev"
    },
    {
     "kind":"deleting_dtor_pointer",
     "mangled_component_name":"_ZN7android12renderscript7FileA3DD0Ev"
    }
   ],
   "unique_id":"_ZTSN7android12renderscript7FileA3DE"
  },
  {
   "vtable_components":[
    {
     "kind":"offset_to_top"
    },
    {
     "kind":"rtti",
     "mangled_component_name":"_ZTIN7android12renderscript15GrallocConsumerE"
    },
    {
     "kind":"complete_dtor_pointer",
     "mangled_component_name":"_ZN7android12renderscript15GrallocConsumerD1Ev"
    },
    {
     "kind":"deleting_dtor_pointer",
     "mangled_component_name":"_ZN7android12renderscript15GrallocConsumerD0Ev"
    }
   ],
   "unique_id":"_ZTSN7android12renderscript15GrallocConsumerE"
  },
  {
   "vtable_components":[
    {
     "kind":"offset_to_top"
    },
    {
     "kind":"rtti",
     "mangled_component_name":"_ZTIN7android12renderscript4FontE"
    },
    {
     "mangled_component_name":"_ZN7android12renderscript10ObjectBase12freeChildrenEv"
    },
    {
     "mangled_component_name":"_ZNK7android12renderscript10ObjectBase8dumpLOGVEPKc"
    },
    {
     "mangled_component_name":"_ZNK7android12renderscript4Font9serializeEPNS0_7ContextEPNS0_7OStreamE"
    },
    {
     "mangled_component_name":"_ZNK7android12renderscript4Font10getClassIdEv"
    },
    {
     "mangled_component_name":"_ZNK7android12renderscript10ObjectBase21callUpdateCacheObjectEPKNS0_7ContextEPv"
    },
    {
     "mangled_component_name":"_ZNK7android12renderscript4Font10preDestroyEv"
    },
    {
     "kind":"complete_dtor_pointer",
     "mangled_component_name":"_ZN7android12renderscript4FontD1Ev"
    },
    {
     "kind":"deleting_dtor_pointer",
     "mangled_component_name":"_ZN7android12renderscript4FontD0Ev"
    }
   ],
   "unique_id":"_ZTSN7android12renderscript4FontE"
  },
  {
   "vtable_components":[
    {
     "kind":"offset_to_top"
    },
    {
     "kind":"rtti",
     "mangled_component_name":"_ZTIN7android12SortedVectorINS_16key_value_pair_tIjPNS_12renderscript4Font15CachedGlyphInfoEEEEE"
    },
    {
     "kind":"complete_dtor_pointer",
     "mangled_component_name":"_ZN7android12SortedVectorINS_16key_value_pair_tIjPNS_12renderscript4Font15CachedGlyphInfoEEEED1Ev"
    },
    {
     "kind":"deleting_dtor_pointer",
     "mangled_component_name":"_ZN7android12SortedVectorINS_16key_value_pair_tIjPNS_12renderscript4Font15CachedGlyphInfoEEEED0Ev"
    },
    {
     "mangled_component_name":"_ZNK7android12SortedVectorINS_16key_value_pair_tIjPNS_12renderscript4Font15CachedGlyphInfoEEEE12do_constructEPvm"
    },
    {
     "mangled_component_name":"_ZNK7android12SortedVectorINS_16key_value_pair_tIjPNS_12renderscript4Font15CachedGlyphInfoEEEE10do_destroyEPvm"
    },
    {
     "mangled_component_name":"_ZNK7android12SortedVectorINS_16key_value_pair_tIjPNS_12renderscript4Font15CachedGlyphInfoEEEE7do_copyEPvPKvm"
    },
    {
     "mangled_component_name":"_ZNK7android12SortedVectorINS_16key_value_pair_tIjPNS_12renderscript4Font15CachedGlyphInfoEEEE8do_splatEPvPKvm"
    },
    {
     "mangled_component_name":"_ZNK7android12SortedVectorINS_16key_value_pair_tIjPNS_12renderscript4Font15CachedGlyphInfoEEEE15do_move_forwardEPvPKvm"
    },
    {
     "mangled_component_name":"_ZNK7android12SortedVectorINS_16key_value_pair_tIjPNS_12renderscript4Font15CachedGlyphInfoEEEE16do_move_backwardEPvPKvm"
    },
    {
     "mangled_component_name":"_ZNK7android12SortedVectorINS_16key_value_pair_tIjPNS_12renderscript4Font15CachedGlyphInfoEEEE10do_compareEPKvS9_"
    }
   ],
   "unique_id":"_ZTSN7android12SortedVectorINS_16key_value_pair_tIjPNS_12renderscript4Font15CachedGlyphInfoEEEEE"
  },
  {
   "vtable_components":[
    {
     "kind":"offset_to_top"
    },
    {
     "kind":"rtti",
     "mangled_component_name":"_ZTIN7android12renderscript10FifoSocketE"
    },
    {
     "kind":"complete_dtor_pointer",
     "mangled_component_name":"_ZN7android12renderscript10FifoSocketD1Ev"
    },
    {
     "kind":"deleting_dtor_pointer",
     "mangled_component_name":"_ZN7android12renderscript10FifoSocketD0Ev"
    }
   ],
   "unique_id":"_ZTSN7android12renderscript10FifoSocketE"
  },
  {
   "vtable_components":[
    {
     "kind":"offset_to_top"
    },
    {
     "kind":"rtti",
     "mangled_component_name":"_ZTIN7android12renderscript7ScriptCE"
    },
    {
     "mangled_component_name":"_ZN7android12renderscript6Script12freeChildrenEv"
    },
    {
     "mangled_component_name":"_ZNK7android12renderscript10ObjectBase8dumpLOGVEPKc"
    },
    {
     "mangled_component_name":"_ZNK7android12renderscript7ScriptC9serializeEPNS0_7ContextEPNS0_7OStreamE"
    },
    {
     "mangled_component_name":"_ZNK7android12renderscript7ScriptC10getClassIdEv"
    },
    {
     "mangled_component_name":"_ZNK7android12renderscript6Script21callUpdateCacheObjectEPKNS0_7ContextEPv"
    },
    {
     "mangled_component_name":"_ZNK7android12renderscript10ObjectBase10preDestroyEv"
    },
    {
     "kind":"complete_dtor_pointer",
     "mangled_component_name":"_ZN7android12renderscript7ScriptCD1Ev"
    },
    {
     "kind":"deleting_dtor_pointer",
     "mangled_component_name":"_ZN7android12renderscript7ScriptCD0Ev"
    },
    {
     "mangled_component_name":"_ZN7android12renderscript7ScriptC10runForEachEPNS0_7ContextEjPPKNS0_10AllocationEmPS4_PKvmPK12RsScriptCall"
    },
    {
     "mangled_component_name":"_ZN7android12renderscript7ScriptC9runReduceEPNS0_7ContextEjPPKNS0_10AllocationEmPS4_PK12RsScriptCall"
    },
    {
     "mangled_component_name":"_ZN7android12renderscript7ScriptC6InvokeEPNS0_7ContextEjPKvm"
    },
    {
     "mangled_component_name":"_ZN7android12renderscript7ScriptC11setupScriptEPNS0_7ContextE"
    },
    {
     "mangled_component_name":"_ZN7android12renderscript7ScriptC3runEPNS0_7ContextE"
    },
    {
     "mangled_component_name":"_ZNK7android12renderscript6Script11isIntrinsicEv"
    }
   ],
   "unique_id":"_ZTSN7android12renderscript7ScriptCE"
  },
  {
   "vtable_components":[
    {
     "kind":"offset_to_top"
    },
    {
     "kind":"rtti",
     "mangled_component_name":"_ZTIN7android12renderscript6ScriptE"
    },
    {
     "mangled_component_name":"_ZN7android12renderscript6Script12freeChildrenEv"
    },
    {
     "mangled_component_name":"_ZNK7android12renderscript10ObjectBase8dumpLOGVEPKc"
    },
    {
     "is_pure":true,
     "mangled_component_name":"_ZNK7android12renderscript10ObjectBase9serializeEPNS0_7ContextEPNS0_7OStreamE"
    },
    {
     "is_pure":true,
     "mangled_component_name":"_ZNK7android12renderscript10ObjectBase10getClassIdEv"
    },
    {
     "mangled_component_name":"_ZNK7android12renderscript6Script21callUpdateCacheObjectEPKNS0_7ContextEPv"
    },
    {
     "mangled_component_name":"_ZNK7android12renderscript10ObjectBase10preDestroyEv"
    },
    {
     "kind":"complete_dtor_pointer",
     "mangled_component_name":"_ZN7android12renderscript6ScriptD1Ev"
    },
    {
     "kind":"deleting_dtor_pointer",
     "mangled_component_name":"_ZN7android12renderscript6ScriptD0Ev"
    },
    {
     "is_pure":true,
     "mangled_component_name":"_ZN7android12renderscript6Script10runForEachEPNS0_7ContextEjPPKNS0_10AllocationEmPS4_PKvmPK12RsScriptCall"
    },
    {
     "is_pure":true,
     "mangled_component_name":"_ZN7android12renderscript6Script9runReduceEPNS0_7ContextEjPPKNS0_10AllocationEmPS4_PK12RsScriptCall"
    },
    {
     "is_pure":true,
     "mangled_component_name":"_ZN7android12renderscript6Script6InvokeEPNS0_7ContextEjPKvm"
    },
    {
     "is_pure":true,
     "mangled_component_name":"_ZN7android12renderscript6Script11setupScriptEPNS0_7ContextE"
    },
    {
     "is_pure":true,
     "mangled_component_name":"_ZN7android12renderscript6Script3runEPNS0_7ContextE"
    },
    {
     "mangled_component_name":"_ZNK7android12renderscript6Script11isIntrinsicEv"
    }
   ],
   "unique_id":"_ZTSN7android12renderscript6ScriptE"
  },
  {
   "vtable_components":[
    {
     "kind":"offset_to_top"
    },
    {
     "kind":"rtti",
     "mangled_component_name":"_ZTIN7android12renderscript7ClosureE"
    },
    {
     "mangled_component_name":"_ZN7android12renderscript10ObjectBase12freeChildrenEv"
    },
    {
     "mangled_component_name":"_ZNK7android12renderscript10ObjectBase8dumpLOGVEPKc"
    },
    {
     "mangled_component_name":"_ZNK7android12renderscript7Closure9serializeEPNS0_7ContextEPNS0_7OStreamE"
    },
    {
     "mangled_component_name":"_ZNK7android12renderscript7Closure10getClassIdEv"
    },
    {
     "mangled_component_name":"_ZNK7android12renderscript10ObjectBase21callUpdateCacheObjectEPKNS0_7ContextEPv"
    },
    {
     "mangled_component_name":"_ZNK7android12renderscript10ObjectBase10preDestroyEv"
    },
    {
     "kind":"complete_dtor_pointer",
     "mangled_component_name":"_ZN7android12renderscript7ClosureD1Ev"
    },
    {
     "kind":"deleting_dtor_pointer",
     "mangled_component_name":"_ZN7android12renderscript7ClosureD0Ev"
    }
   ],
   "unique_id":"_ZTSN7android12renderscript7ClosureE"
  },
  {
   "vtable_components":[
    {
     "kind":"offset_to_top"
    },
    {
     "kind":"rtti",
     "mangled_component_name":"_ZTIN7android12renderscript13ProgramVertexE"
    },
    {
     "mangled_component_name":"_ZN7android12renderscript7Program12freeChildrenEv"
    },
    {
     "mangled_component_name":"_ZNK7android12renderscript10ObjectBase8dumpLOGVEPKc"
    },
    {
     "mangled_component_name":"_ZNK7android12renderscript13ProgramVertex9serializeEPNS0_7ContextEPNS0_7OStreamE"
    },
    {
     "mangled_component_name":"_ZNK7android12renderscript13ProgramVertex10getClassIdEv"
    },
    {
     "mangled_component_name":"_ZNK7android12renderscript10ObjectBase21callUpdateCacheObjectEPKNS0_7ContextEPv"
    },
    {
     "mangled_component_name":"_ZNK7android12renderscript10ObjectBase10preDestroyEv"
    },
    {
     "kind":"complete_dtor_pointer",
     "mangled_component_name":"_ZN7android12renderscript13ProgramVertexD1Ev"
    },
    {
     "kind":"deleting_dtor_pointer",
     "mangled_component_name":"_ZN7android12renderscript13ProgramVertexD0Ev"
    },
    {
     "mangled_component_name":"_ZN7android12renderscript13ProgramVertex5setupEPNS0_7ContextEPNS0_18ProgramVertexStateE"
    }
   ],
   "unique_id":"_ZTSN7android12renderscript13ProgramVertexE"
  },
  {
   "vtable_components":[
    {
     "kind":"offset_to_top"
    },
    {
     "kind":"rtti",
     "mangled_component_name":"_ZTIN7android12renderscript7ProgramE"
    },
    {
     "mangled_component_name":"_ZN7android12renderscript7Program12freeChildrenEv"
    },
    {
     "mangled_component_name":"_ZNK7android12renderscript10ObjectBase8dumpLOGVEPKc"
    },
    {
     "is_pure":true,
     "mangled_component_name":"_ZNK7android12renderscript10ObjectBase9serializeEPNS0_7ContextEPNS0_7OStreamE"
    },
    {
     "is_pure":true,
     "mangled_component_name":"_ZNK7android12renderscript10ObjectBase10getClassIdEv"
    },
    {
     "mangled_component_name":"_ZNK7android12renderscript10ObjectBase21callUpdateCacheObjectEPKNS0_7ContextEPv"
    },
    {
     "mangled_component_name":"_ZNK7android12renderscript10ObjectBase10preDestroyEv"
    },
    {
     "kind":"complete_dtor_pointer",
     "mangled_component_name":"_ZN7android12renderscript7ProgramD1Ev"
    },
    {
     "kind":"deleting_dtor_pointer",
     "mangled_component_name":"_ZN7android12renderscript7ProgramD0Ev"
    }
   ],
   "unique_id":"_ZTSN7android12renderscript7ProgramE"
  },
  {
   "vtable_components":[
    {
     "kind":"offset_to_top"
    },
    {
     "kind":"rtti",
     "mangled_component_name":"_ZTIN7android12renderscript10AllocationE"
    },
    {
     "mangled_component_name":"_ZN7android12renderscript10Allocation12freeChildrenEv"
    },
    {
     "mangled_component_name":"_ZNK7android12renderscript10Allocation8dumpLOGVEPKc"
    },
    {
     "mangled_component_name":"_ZNK7android12renderscript10Allocation9serializeEPNS0_7ContextEPNS0_7OStreamE"
    },
    {
     "mangled_component_name":"_ZNK7android12renderscript10Allocation10getClassIdEv"
    },
    {
     "mangled_component_name":"_ZNK7android12renderscript10Allocation21callUpdateCacheObjectEPKNS0_7ContextEPv"
    },
    {
     "mangled_component_name":"_ZNK7android12renderscript10ObjectBase10preDestroyEv"
    },
    {
     "kind":"complete_dtor_pointer",
     "mangled_component_name":"_ZN7android12renderscript10AllocationD1Ev"
    },
    {
     "kind":"deleting_dtor_pointer",
     "mangled_component_name":"_ZN7android12renderscript10AllocationD0Ev"
    }
   ],
   "unique_id":"_ZTSN7android12renderscript10AllocationE"
  },
  {
   "vtable_components":[
    {
     "kind":"offset_to_top"
    },
    {
     "kind":"rtti",
     "mangled_component_name":"_ZTIN7android12renderscript14ScriptInvokeIDE"
    },
    {
     "mangled_component_name":"_ZN7android12renderscript10ObjectBase12freeChildrenEv"
    },
    {
     "mangled_component_name":"_ZNK7android12renderscript10ObjectBase8dumpLOGVEPKc"
    },
    {
     "mangled_component_name":"_ZNK7android12renderscript6IDBase9serializeEPNS0_7ContextEPNS0_7OStreamE"
    },
    {
     "mangled_component_name":"_ZNK7android12renderscript14ScriptInvokeID10getClassIdEv"
    },
    {
     "mangled_component_name":"_ZNK7android12renderscript10ObjectBase21callUpdateCacheObjectEPKNS0_7ContextEPv"
    },
    {
     "mangled_component_name":"_ZNK7android12renderscript10ObjectBase10preDestroyEv"
    },
    {
     "kind":"complete_dtor_pointer",
     "mangled_component_name":"_ZN7android12renderscript14ScriptInvokeIDD1Ev"
    },
    {
     "kind":"deleting_dtor_pointer",
     "mangled_component_name":"_ZN7android12renderscript14ScriptInvokeIDD0Ev"
    }
   ],
   "unique_id":"_ZTSN7android12renderscript14ScriptInvokeIDE"
  },
  {
   "vtable_components":[
    {
     "kind":"offset_to_top"
    },
    {
     "kind":"rtti",
     "mangled_component_name":"_ZTIN7android12renderscript4TypeE"
    },
    {
     "mangled_component_name":"_ZN7android12renderscript10ObjectBase12freeChildrenEv"
    },
    {
     "mangled_component_name":"_ZNK7android12renderscript4Type8dumpLOGVEPKc"
    },
    {
     "mangled_component_name":"_ZNK7android12renderscript4Type9serializeEPNS0_7ContextEPNS0_7OStreamE"
    },
    {
     "mangled_component_name":"_ZNK7android12renderscript4Type10getClassIdEv"
    },
    {
     "mangled_component_name":"_ZNK7android12renderscript4Type21callUpdateCacheObjectEPKNS0_7ContextEPv"
    },
    {
     "mangled_component_name":"_ZNK7android12renderscript4Type10preDestroyEv"
    },
    {
     "kind":"complete_dtor_pointer",
     "mangled_component_name":"_ZN7android12renderscript4TypeD1Ev"
    },
    {
     "kind":"deleting_dtor_pointer",
     "mangled_component_name":"_ZN7android12renderscript4TypeD0Ev"
    }
   ],
   "unique_id":"_ZTSN7android12renderscript4TypeE"
  },
  {
   "vtable_components":[
    {
     "kind":"offset_to_top"
    },
    {
     "kind":"rtti",
     "mangled_component_name":"_ZTIN7android12renderscript7ElementE"
    },
    {
     "mangled_component_name":"_ZN7android12renderscript10ObjectBase12freeChildrenEv"
    },
    {
     "mangled_component_name":"_ZNK7android12renderscript7Element8dumpLOGVEPKc"
    },
    {
     "mangled_component_name":"_ZNK7android12renderscript7Element9serializeEPNS0_7ContextEPNS0_7OStreamE"
    },
    {
     "mangled_component_name":"_ZNK7android12renderscript7Element10getClassIdEv"
    },
    {
     "mangled_component_name":"_ZNK7android12renderscript7Element21callUpdateCacheObjectEPKNS0_7ContextEPv"
    },
    {
     "mangled_component_name":"_ZNK7android12renderscript7Element10preDestroyEv"
    },
    {
     "kind":"complete_dtor_pointer",
     "mangled_component_name":"_ZN7android12renderscript7ElementD1Ev"
    },
    {
     "kind":"deleting_dtor_pointer",
     "mangled_component_name":"_ZN7android12renderscript7ElementD0Ev"
    }
   ],
   "unique_id":"_ZTSN7android12renderscript7ElementE"
  }
 ],
 "elf_functions":[
  {
   "name":"_Z17rsaMeshGetIndicesPvS_PS_Pjj"
  },
  {
   "name":"_Z18rsaMeshGetVerticesPvS_PS_j"
  },
  {
   "name":"_Z20rsaMeshGetIndexCountPvS_Pi"
  },
  {
   "name":"_Z24rsaFileA3DCreateFromFilePvPKc"
  },
  {
   "name":"_Z25rsaFileA3DCreateFromAssetPvS_"
  },
  {
   "name":"_Z25rsaFileA3DGetEntryByIndexPvjS_"
  },
  {
   "name":"_Z25rsaFileA3DGetIndexEntriesPvP16RsFileIndexEntryjS_"
  },
  {
   "name":"_Z26rsaFileA3DCreateFromMemoryPvPKvj"
  },
  {
   "name":"_Z27rsaMeshGetVertexBufferCountPvS_Pi"
  },
  {
   "name":"_Z28rsaFileA3DGetNumIndexEntriesPvPiS_"
  },
  {
   "name":"_ZN7android12renderscript10Allocation10getPointerEPKNS0_7ContextEj23RsAllocationCubemapFacejjPm"
  },
  {
   "name":"_ZN7android12renderscript10Allocation10getSurfaceEPKNS0_7ContextE"
  },
  {
   "name":"_ZN7android12renderscript10Allocation10setSurfaceEPKNS0_7ContextEPv"
  },
  {
   "name":"_ZN7android12renderscript10Allocation11copyRange1DEPNS0_7ContextEPKS1_iii"
  },
  {
   "name":"_ZN7android12renderscript10Allocation11elementDataEPNS0_7ContextEjjjPKvjm"
  },
  {
   "name":"_ZN7android12renderscript10Allocation11elementReadEPNS0_7ContextEjjjPvjm"
  },
  {
   "name":"_ZN7android12renderscript10Allocation11updateCacheEv"
  },
  {
   "name":"_ZN7android12renderscript10Allocation12freeChildrenEv"
  },
  {
   "name":"_ZN7android12renderscript10Allocation13adapterOffsetEPNS0_7ContextEPKjm"
  },
  {
   "name":"_ZN7android12renderscript10Allocation13createAdapterEPNS0_7ContextEPKS1_PKNS0_4TypeE"
  },
  {
   "name":"_ZN7android12renderscript10Allocation15writePackedDataEPNS0_7ContextEPKNS0_4TypeEPhPKhb"
  },
  {
   "name":"_ZN7android12renderscript10Allocation16createAllocationEPNS0_7ContextEPKNS0_4TypeEj25RsAllocationMipmapControlPv"
  },
  {
   "name":"_ZN7android12renderscript10Allocation16createFromStreamEPNS0_7ContextEPNS0_7IStreamE"
  },
  {
   "name":"_ZN7android12renderscript10Allocation16shareBufferQueueEPKNS0_7ContextEPKS1_"
  },
  {
   "name":"_ZN7android12renderscript10Allocation17addProgramToDirtyEPKNS0_7ProgramE"
  },
  {
   "name":"_ZN7android12renderscript10Allocation20freeChildrenUnlockedEv"
  },
  {
   "name":"_ZN7android12renderscript10Allocation20removeProgramToDirtyEPKNS0_7ProgramE"
  },
  {
   "name":"_ZN7android12renderscript10Allocation20setupGrallocConsumerEPKNS0_7ContextEj"
  },
  {
   "name":"_ZN7android12renderscript10Allocation20unpackVec3AllocationEPNS0_7ContextEPKvm"
  },
  {
   "name":"_ZN7android12renderscript10Allocation23createAllocationStridedEPNS0_7ContextEPKNS0_4TypeEj25RsAllocationMipmapControlPvm"
  },
  {
   "name":"_ZN7android12renderscript10Allocation4dataEPNS0_7ContextEjjj23RsAllocationCubemapFacejjPKvmm"
  },
  {
   "name":"_ZN7android12renderscript10Allocation4dataEPNS0_7ContextEjjjPKvm"
  },
  {
   "name":"_ZN7android12renderscript10Allocation4dataEPNS0_7ContextEjjjjjjjPKvmm"
  },
  {
   "name":"_ZN7android12renderscript10Allocation4readEPNS0_7ContextEjjj23RsAllocationCubemapFacejjPvmm"
  },
  {
   "name":"_ZN7android12renderscript10Allocation4readEPNS0_7ContextEjjjPvm"
  },
  {
   "name":"_ZN7android12renderscript10Allocation4readEPNS0_7ContextEjjjjjjjPvmm"
  },
  {
   "name":"_ZN7android12renderscript10Allocation6ioSendEPKNS0_7ContextE"
  },
  {
   "name":"_ZN7android12renderscript10Allocation7syncAllEPNS0_7ContextE21RsAllocationUsageType"
  },
  {
   "name":"_ZN7android12renderscript10Allocation8resize1DEPNS0_7ContextEj"
  },
  {
   "name":"_ZN7android12renderscript10Allocation8resize2DEPNS0_7ContextEjj"
  },
  {
   "name":"_ZN7android12renderscript10Allocation9ioReceiveEPKNS0_7ContextE"
  },
  {
   "name":"_ZN7android12renderscript10AllocationC1EPNS0_7ContextEPKNS0_4TypeEj25RsAllocationMipmapControlPv"
  },
  {
   "name":"_ZN7android12renderscript10AllocationC1EPNS0_7ContextEPKS1_PKNS0_4TypeE"
  },
  {
   "name":"_ZN7android12renderscript10AllocationC2EPNS0_7ContextEPKNS0_4TypeEj25RsAllocationMipmapControlPv"
  },
  {
   "name":"_ZN7android12renderscript10AllocationC2EPNS0_7ContextEPKS1_PKNS0_4TypeE"
  },
  {
   "name":"_ZN7android12renderscript10AllocationD0Ev"
  },
  {
   "name":"_ZN7android12renderscript10AllocationD1Ev"
  },
  {
   "name":"_ZN7android12renderscript10AllocationD2Ev"
  },
  {
   "name":"_ZN7android12renderscript10AllocationdlEPv"
  },
  {
   "name":"_ZN7android12renderscript10FifoSocket10readReturnEPKvm"
  },
  {
   "name":"_ZN7android12renderscript10FifoSocket10writeAsyncEPKvmb"
  },
  {
   "name":"_ZN7android12renderscript10FifoSocket15writeWaitReturnEPvm"
  },
  {
   "name":"_ZN7android12renderscript10FifoSocket4initEbbm"
  },
  {
   "name":"_ZN7android12renderscript10FifoSocket4readEPvm"
  },
  {
   "name":"_ZN7android12renderscript10FifoSocket7isEmptyEv"
  },
  {
   "name":"_ZN7android12renderscript10FifoSocket8shutdownEv"
  },
  {
   "name":"_ZN7android12renderscript10FifoSocketC1Ev"
  },
  {
   "name":"_ZN7android12renderscript10FifoSocketC2Ev"
  },
  {
   "name":"_ZN7android12renderscript10FifoSocketD0Ev"
  },
  {
   "name":"_ZN7android12renderscript10FifoSocketD1Ev"
  },
  {
   "name":"_ZN7android12renderscript10FifoSocketD2Ev"
  },
  {
   "name":"_ZN7android12renderscript10ObjectBase11asyncUnlockEv"
  },
  {
   "name":"_ZN7android12renderscript10ObjectBase11checkDeleteEPKS1_"
  },
  {
   "name":"_ZN7android12renderscript10ObjectBase12freeChildrenEv"
  },
  {
   "name":"_ZN7android12renderscript10ObjectBase14zeroAllUserRefEPNS0_7ContextE"
  },
  {
   "name":"_ZN7android12renderscript10ObjectBase15freeAllChildrenEPNS0_7ContextE"
  },
  {
   "name":"_ZN7android12renderscript10ObjectBase7dumpAllEPNS0_7ContextE"
  },
  {
   "name":"_ZN7android12renderscript10ObjectBase7isValidEPKNS0_7ContextEPKS1_"
  },
  {
   "name":"_ZN7android12renderscript10ObjectBase7setNameEPKc"
  },
  {
   "name":"_ZN7android12renderscript10ObjectBase7setNameEPKcj"
  },
  {
   "name":"_ZN7android12renderscript10ObjectBase9asyncLockEv"
  },
  {
   "name":"_ZN7android12renderscript10ObjectBaseC2EPNS0_7ContextE"
  },
  {
   "name":"_ZN7android12renderscript10ObjectBaseD0Ev"
  },
  {
   "name":"_ZN7android12renderscript10ObjectBaseD1Ev"
  },
  {
   "name":"_ZN7android12renderscript10ObjectBaseD2Ev"
  },
  {
   "name":"_ZN7android12renderscript10rsrForEachEPNS0_7ContextEPNS0_6ScriptEjjPPNS0_10AllocationES6_PKvjPK12RsScriptCall"
  },
  {
   "name":"_ZN7android12renderscript11ScriptGroup16calcOrderRecurseEPNS1_4NodeEi"
  },
  {
   "name":"_ZN7android12renderscript11ScriptGroup22validateInputAndOutputEPNS0_7ContextE"
  },
  {
   "name":"_ZN7android12renderscript11ScriptGroup2IOC1EPKNS0_14ScriptKernelIDE"
  },
  {
   "name":"_ZN7android12renderscript11ScriptGroup2IOC2EPKNS0_14ScriptKernelIDE"
  },
  {
   "name":"_ZN7android12renderscript11ScriptGroup4LinkC1Ev"
  },
  {
   "name":"_ZN7android12renderscript11ScriptGroup4LinkC2Ev"
  },
  {
   "name":"_ZN7android12renderscript11ScriptGroup4LinkD1Ev"
  },
  {
   "name":"_ZN7android12renderscript11ScriptGroup4LinkD2Ev"
  },
  {
   "name":"_ZN7android12renderscript11ScriptGroup4NodeC1EPNS0_6ScriptE"
  },
  {
   "name":"_ZN7android12renderscript11ScriptGroup4NodeC2EPNS0_6ScriptE"
  },
  {
   "name":"_ZN7android12renderscript11ScriptGroup6createEPNS0_7ContextEPPNS0_14ScriptKernelIDEmS6_mS6_mPPNS0_13ScriptFieldIDEmPPKNS0_4TypeEm"
  },
  {
   "name":"_ZN7android12renderscript11ScriptGroup7executeEPNS0_7ContextE"
  },
  {
   "name":"_ZN7android12renderscript11ScriptGroup8setInputEPNS0_7ContextEPNS0_14ScriptKernelIDEPNS0_10AllocationE"
  },
  {
   "name":"_ZN7android12renderscript11ScriptGroup9calcOrderEv"
  },
  {
   "name":"_ZN7android12renderscript11ScriptGroup9setOutputEPNS0_7ContextEPNS0_14ScriptKernelIDEPNS0_10AllocationE"
  },
  {
   "name":"_ZN7android12renderscript11ScriptGroupC1EPNS0_7ContextE"
  },
  {
   "name":"_ZN7android12renderscript11ScriptGroupC2EPNS0_7ContextE"
  },
  {
   "name":"_ZN7android12renderscript11ScriptGroupD0Ev"
  },
  {
   "name":"_ZN7android12renderscript11ScriptGroupD1Ev"
  },
  {
   "name":"_ZN7android12renderscript11ScriptGroupD2Ev"
  },
  {
   "name":"_ZN7android12renderscript11rsrBindFontEPNS0_7ContextEPNS0_4FontE"
  },
  {
   "name":"_ZN7android12renderscript11rsrDrawMeshEPNS0_7ContextEPNS0_4MeshE"
  },
  {
   "name":"_ZN7android12renderscript11rsrDrawPathEPNS0_7ContextEPNS0_4PathE"
  },
  {
   "name":"_ZN7android12renderscript11rsrDrawTextEPNS0_7ContextEPKcii"
  },
  {
   "name":"_ZN7android12renderscript11rsrGetWidthEPNS0_7ContextE"
  },
  {
   "name":"_ZN7android12renderscript11rsrIsObjectEPKNS0_7ContextENS0_14rs_object_baseE"
  },
  {
   "name":"_ZN7android12renderscript11rsrIsObjectEPKNS0_7ContextEPNS0_10ObjectBaseE"
  },
  {
   "name":"_ZN7android12renderscript11rsrToClientEPNS0_7ContextEiPKvi"
  },
  {
   "name":"_ZN7android12renderscript11rsrToClientEPNS0_7ContextEiPvi"
  },
  {
   "name":"_ZN7android12renderscript12ElementStateC1Ev"
  },
  {
   "name":"_ZN7android12renderscript12ElementStateC2Ev"
  },
  {
   "name":"_ZN7android12renderscript12ElementStateD1Ev"
  },
  {
   "name":"_ZN7android12renderscript12ElementStateD2Ev"
  },
  {
   "name":"_ZN7android12renderscript12ProgramStore15getProgramStoreEPNS0_7ContextEbbbbbb14RsBlendSrcFunc14RsBlendDstFunc11RsDepthFunc"
  },
  {
   "name":"_ZN7android12renderscript12ProgramStore16createFromStreamEPNS0_7ContextEPNS0_7IStreamE"
  },
  {
   "name":"_ZN7android12renderscript12ProgramStore4initEv"
  },
  {
   "name":"_ZN7android12renderscript12ProgramStore5setupEPKNS0_7ContextEPNS0_17ProgramStoreStateE"
  },
  {
   "name":"_ZN7android12renderscript12ProgramStoreC1EPNS0_7ContextEbbbbbb14RsBlendSrcFunc14RsBlendDstFunc11RsDepthFunc"
  },
  {
   "name":"_ZN7android12renderscript12ProgramStoreC2EPNS0_7ContextEbbbbbb14RsBlendSrcFunc14RsBlendDstFunc11RsDepthFunc"
  },
  {
   "name":"_ZN7android12renderscript12ProgramStoreD0Ev"
  },
  {
   "name":"_ZN7android12renderscript12ProgramStoreD1Ev"
  },
  {
   "name":"_ZN7android12renderscript12ProgramStoreD2Ev"
  },
  {
   "name":"_ZN7android12renderscript12ScriptGroup27executeEPNS0_7ContextE"
  },
  {
   "name":"_ZN7android12renderscript12ScriptGroup2D0Ev"
  },
  {
   "name":"_ZN7android12renderscript12ScriptGroup2D1Ev"
  },
  {
   "name":"_ZN7android12renderscript12ScriptGroup2D2Ev"
  },
  {
   "name":"_ZN7android12renderscript12property_getEPKcPcS2_"
  },
  {
   "name":"_ZN7android12renderscript12rsrFontColorEPNS0_7ContextEffff"
  },
  {
   "name":"_ZN7android12renderscript12rsrGetHeightEPNS0_7ContextE"
  },
  {
   "name":"_ZN7android12renderscript12rsrLocalTimeEPNS0_7ContextEP2tmPl"
  },
  {
   "name":"_ZN7android12renderscript12rsrSetObjectEPKNS0_7ContextEPNS0_14rs_object_baseEPKNS0_10ObjectBaseE"
  },
  {
   "name":"_ZN7android12renderscript12rsrSetObjectEPKNS0_7ContextEPvPNS0_10ObjectBaseE"
  },
  {
   "name":"_ZN7android12renderscript13ProgramRaster16createFromStreamEPNS0_7ContextEPNS0_7IStreamE"
  },
  {
   "name":"_ZN7android12renderscript13ProgramRaster16getProgramRasterEPNS0_7ContextEb10RsCullMode"
  },
  {
   "name":"_ZN7android12renderscript13ProgramRaster5setupEPKNS0_7ContextEPNS0_18ProgramRasterStateE"
  },
  {
   "name":"_ZN7android12renderscript13ProgramRasterC1EPNS0_7ContextEb10RsCullMode"
  },
  {
   "name":"_ZN7android12renderscript13ProgramRasterC2EPNS0_7ContextEb10RsCullMode"
  },
  {
   "name":"_ZN7android12renderscript13ProgramRasterD0Ev"
  },
  {
   "name":"_ZN7android12renderscript13ProgramRasterD1Ev"
  },
  {
   "name":"_ZN7android12renderscript13ProgramRasterD2Ev"
  },
  {
   "name":"_ZN7android12renderscript13ProgramVertex16createFromStreamEPNS0_7ContextEPNS0_7IStreamE"
  },
  {
   "name":"_ZN7android12renderscript13ProgramVertex5setupEPNS0_7ContextEPNS0_18ProgramVertexStateE"
  },
  {
   "name":"_ZN7android12renderscript13ProgramVertexC1EPNS0_7ContextEPKcmPS5_mPKmS8_m"
  },
  {
   "name":"_ZN7android12renderscript13ProgramVertexC2EPNS0_7ContextEPKcmPS5_mPKmS8_m"
  },
  {
   "name":"_ZN7android12renderscript13ProgramVertexD0Ev"
  },
  {
   "name":"_ZN7android12renderscript13ProgramVertexD1Ev"
  },
  {
   "name":"_ZN7android12renderscript13ProgramVertexD2Ev"
  },
  {
   "name":"_ZN7android12renderscript13ScriptFieldIDC1EPNS0_7ContextEPNS0_6ScriptEi"
  },
  {
   "name":"_ZN7android12renderscript13ScriptFieldIDC2EPNS0_7ContextEPNS0_6ScriptEi"
  },
  {
   "name":"_ZN7android12renderscript13rsrTypeCreateEPNS0_7ContextEPvjjjbbj"
  },
  {
   "name":"_ZN7android12renderscript13rsuCopyStringEPKc"
  },
  {
   "name":"_ZN7android12renderscript13rsuCopyStringEPKcm"
  },
  {
   "name":"_ZN7android12renderscript14ScriptInvokeIDC1EPNS0_7ContextEPNS0_6ScriptEi"
  },
  {
   "name":"_ZN7android12renderscript14ScriptInvokeIDC2EPNS0_7ContextEPNS0_6ScriptEi"
  },
  {
   "name":"_ZN7android12renderscript14ScriptKernelIDC1EPNS0_7ContextEPNS0_6ScriptEii"
  },
  {
   "name":"_ZN7android12renderscript14ScriptKernelIDC2EPNS0_7ContextEPNS0_6ScriptEii"
  },
  {
   "name":"_ZN7android12renderscript14rsi_AssignNameEPNS0_7ContextEPvPKcm"
  },
  {
   "name":"_ZN7android12renderscript14rsi_MeshCreateEPNS0_7ContextEPPvmS4_mPjm"
  },
  {
   "name":"_ZN7android12renderscript14rsi_ObjDestroyEPNS0_7ContextEPv"
  },
  {
   "name":"_ZN7android12renderscript14rsi_TypeCreateEPNS0_7ContextEPvjjjbbj"
  },
  {
   "name":"_ZN7android12renderscript14rsp_AssignNameEPNS0_7ContextEPKvm"
  },
  {
   "name":"_ZN7android12renderscript14rsp_MeshCreateEPNS0_7ContextEPKvm"
  },
  {
   "name":"_ZN7android12renderscript14rsp_ObjDestroyEPNS0_7ContextEPKvm"
  },
  {
   "name":"_ZN7android12renderscript14rsrBindSamplerEPNS0_7ContextEPNS0_15ProgramFragmentEjPNS0_7SamplerE"
  },
  {
   "name":"_ZN7android12renderscript14rsrBindTextureEPNS0_7ContextEPNS0_15ProgramFragmentEjPNS0_10AllocationE"
  },
  {
   "name":"_ZN7android12renderscript14rsrClearObjectEPKNS0_7ContextEPNS0_14rs_object_baseE"
  },
  {
   "name":"_ZN7android12renderscript14rsrClearObjectEPKNS0_7ContextEPv"
  },
  {
   "name":"_ZN7android12renderscript14rsrClearObjectEPNS0_14rs_object_baseE"
  },
  {
   "name":"_ZN7android12renderscript14rsrMeasureTextEPNS0_7ContextEPKcPiS5_S5_S5_"
  },
  {
   "name":"_ZN7android12renderscript14rsrUptimeNanosEPNS0_7ContextE"
  },
  {
   "name":"_ZN7android12renderscript14rsuJoinStringsEiPKPKc"
  },
  {
   "name":"_ZN7android12renderscript15GrallocConsumer10releaseIdxEj"
  },
  {
   "name":"_ZN7android12renderscript15GrallocConsumer12unlockBufferEj"
  },
  {
   "name":"_ZN7android12renderscript15GrallocConsumer14lockNextBufferEj"
  },
  {
   "name":"_ZN7android12renderscript15GrallocConsumer15getNativeWindowEv"
  },
  {
   "name":"_ZN7android12renderscript15GrallocConsumer16onFrameAvailableEPvP12AImageReader"
  },
  {
   "name":"_ZN7android12renderscript15GrallocConsumer19getNextAvailableIdxEPNS0_10AllocationE"
  },
  {
   "name":"_ZN7android12renderscript15GrallocConsumer8isActiveEv"
  },
  {
   "name":"_ZN7android12renderscript15GrallocConsumerC1EPKNS0_7ContextEPNS0_10AllocationEj"
  },
  {
   "name":"_ZN7android12renderscript15GrallocConsumerC2EPKNS0_7ContextEPNS0_10AllocationEj"
  },
  {
   "name":"_ZN7android12renderscript15GrallocConsumerD0Ev"
  },
  {
   "name":"_ZN7android12renderscript15GrallocConsumerD1Ev"
  },
  {
   "name":"_ZN7android12renderscript15GrallocConsumerD2Ev"
  },
  {
   "name":"_ZN7android12renderscript15ProgramFragment16createFromStreamEPNS0_7ContextEPNS0_7IStreamE"
  },
  {
   "name":"_ZN7android12renderscript15ProgramFragment16setConstantColorEPNS0_7ContextEffff"
  },
  {
   "name":"_ZN7android12renderscript15ProgramFragment5setupEPNS0_7ContextEPNS0_20ProgramFragmentStateE"
  },
  {
   "name":"_ZN7android12renderscript15ProgramFragmentC1EPNS0_7ContextEPKcmPS5_mPKmS8_m"
  },
  {
   "name":"_ZN7android12renderscript15ProgramFragmentC2EPNS0_7ContextEPKcmPS5_mPKmS8_m"
  },
  {
   "name":"_ZN7android12renderscript15ProgramFragmentD0Ev"
  },
  {
   "name":"_ZN7android12renderscript15ProgramFragmentD1Ev"
  },
  {
   "name":"_ZN7android12renderscript15ProgramFragmentD2Ev"
  },
  {
   "name":"_ZN7android12renderscript15ScriptIntrinsic10runForEachEPNS0_7ContextEjPPKNS0_10AllocationEmPS4_PKvmPK12RsScriptCall"
  },
  {
   "name":"_ZN7android12renderscript15ScriptIntrinsic11setupScriptEPNS0_7ContextE"
  },
  {
   "name":"_ZN7android12renderscript15ScriptIntrinsic12freeChildrenEv"
  },
  {
   "name":"_ZN7android12renderscript15ScriptIntrinsic3runEPNS0_7ContextE"
  },
  {
   "name":"_ZN7android12renderscript15ScriptIntrinsic4initEPNS0_7ContextE19RsScriptIntrinsicIDPNS0_7ElementE"
  },
  {
   "name":"_ZN7android12renderscript15ScriptIntrinsic6InvokeEPNS0_7ContextEjPKvm"
  },
  {
   "name":"_ZN7android12renderscript15ScriptIntrinsic9runReduceEPNS0_7ContextEjPPKNS0_10AllocationEmPS4_PK12RsScriptCall"
  },
  {
   "name":"_ZN7android12renderscript15ScriptIntrinsicC1EPNS0_7ContextE"
  },
  {
   "name":"_ZN7android12renderscript15ScriptIntrinsicC2EPNS0_7ContextE"
  },
  {
   "name":"_ZN7android12renderscript15ScriptIntrinsicD0Ev"
  },
  {
   "name":"_ZN7android12renderscript15ScriptIntrinsicD1Ev"
  },
  {
   "name":"_ZN7android12renderscript15ScriptIntrinsicD2Ev"
  },
  {
   "name":"_ZN7android12renderscript15rsi_ContextDumpEPNS0_7ContextEi"
  },
  {
   "name":"_ZN7android12renderscript15rsi_TypeCreate2EPNS0_7ContextEPK18RsTypeCreateParamsm"
  },
  {
   "name":"_ZN7android12renderscript15rsp_ContextDumpEPNS0_7ContextEPKvm"
  },
  {
   "name":"_ZN7android12renderscript15rsrBindConstantEPNS0_7ContextEPNS0_13ProgramVertexEjPNS0_10AllocationE"
  },
  {
   "name":"_ZN7android12renderscript15rsrBindConstantEPNS0_7ContextEPNS0_15ProgramFragmentEjPNS0_10AllocationE"
  },
  {
   "name":"_ZN7android12renderscript15rsrPrepareClearEPNS0_7ContextE"
  },
  {
   "name":"_ZN7android12renderscript15rsrUptimeMillisEPNS0_7ContextE"
  },
  {
   "name":"_ZN7android12renderscript16rsi_ContextPauseEPNS0_7ContextE"
  },
  {
   "name":"_ZN7android12renderscript16rsi_ScriptInvokeEPNS0_7ContextEPvj"
  },
  {
   "name":"_ZN7android12renderscript16rsi_ScriptReduceEPNS0_7ContextEPvjPS3_mS3_PK12RsScriptCallm"
  },
  {
   "name":"_ZN7android12renderscript16rsp_ContextPauseEPNS0_7ContextEPKvm"
  },
  {
   "name":"_ZN7android12renderscript16rsp_ScriptInvokeEPNS0_7ContextEPKvm"
  },
  {
   "name":"_ZN7android12renderscript16rsp_ScriptReduceEPNS0_7ContextEPKvm"
  },
  {
   "name":"_ZN7android12renderscript16rsrDrawTextAllocEPNS0_7ContextEPNS0_10AllocationEii"
  },
  {
   "name":"_ZN7android12renderscript16rsrElementCreateEPNS0_7ContextE10RsDataType10RsDataKindbj"
  },
  {
   "name":"_ZN7android12renderscript17ProgramStoreState4initEPNS0_7ContextE"
  },
  {
   "name":"_ZN7android12renderscript17ProgramStoreState6deinitEPNS0_7ContextE"
  },
  {
   "name":"_ZN7android12renderscript17ProgramStoreStateC1Ev"
  },
  {
   "name":"_ZN7android12renderscript17ProgramStoreStateC2Ev"
  },
  {
   "name":"_ZN7android12renderscript17ProgramStoreStateD1Ev"
  },
  {
   "name":"_ZN7android12renderscript17ProgramStoreStateD2Ev"
  },
  {
   "name":"_ZN7android12renderscript17rsi_ClosureCreateEPNS0_7ContextEPvS3_PS3_mPKlmPKimS4_mS4_m"
  },
  {
   "name":"_ZN7android12renderscript17rsi_ClosureSetArgEPNS0_7ContextEPvjmi"
  },
  {
   "name":"_ZN7android12renderscript17rsi_ContextFinishEPNS0_7ContextE"
  },
  {
   "name":"_ZN7android12renderscript17rsi_ContextResumeEPNS0_7ContextE"
  },
  {
   "name":"_ZN7android12renderscript17rsi_ElementCreateEPNS0_7ContextE10RsDataType10RsDataKindbj"
  },
  {
   "name":"_ZN7android12renderscript17rsi_SamplerCreateEPNS0_7ContextE14RsSamplerValueS3_S3_S3_S3_f"
  },
  {
   "name":"_ZN7android12renderscript17rsi_ScriptCCreateEPNS0_7ContextEPKcmS4_mS4_m"
  },
  {
   "name":"_ZN7android12renderscript17rsi_ScriptForEachEPNS0_7ContextEPvjS3_S3_PKvmPK12RsScriptCallm"
  },
  {
   "name":"_ZN7android12renderscript17rsi_ScriptGetVarVEPNS0_7ContextEPvjS3_m"
  },
  {
   "name":"_ZN7android12renderscript17rsi_ScriptInvokeVEPNS0_7ContextEPvjPKvm"
  },
  {
   "name":"_ZN7android12renderscript17rsi_ScriptSetVarDEPNS0_7ContextEPvjd"
  },
  {
   "name":"_ZN7android12renderscript17rsi_ScriptSetVarFEPNS0_7ContextEPvjf"
  },
  {
   "name":"_ZN7android12renderscript17rsi_ScriptSetVarIEPNS0_7ContextEPvji"
  },
  {
   "name":"_ZN7android12renderscript17rsi_ScriptSetVarJEPNS0_7ContextEPvjl"
  },
  {
   "name":"_ZN7android12renderscript17rsi_ScriptSetVarVEPNS0_7ContextEPvjPKvm"
  },
  {
   "name":"_ZN7android12renderscript17rsp_ClosureSetArgEPNS0_7ContextEPKvm"
  },
  {
   "name":"_ZN7android12renderscript17rsp_ContextFinishEPNS0_7ContextEPKvm"
  },
  {
   "name":"_ZN7android12renderscript17rsp_ContextResumeEPNS0_7ContextEPKvm"
  },
  {
   "name":"_ZN7android12renderscript17rsp_ScriptCCreateEPNS0_7ContextEPKvm"
  },
  {
   "name":"_ZN7android12renderscript17rsp_ScriptForEachEPNS0_7ContextEPKvm"
  },
  {
   "name":"_ZN7android12renderscript17rsp_ScriptGetVarVEPNS0_7ContextEPKvm"
  },
  {
   "name":"_ZN7android12renderscript17rsp_ScriptInvokeVEPNS0_7ContextEPKvm"
  },
  {
   "name":"_ZN7android12renderscript17rsp_ScriptSetVarDEPNS0_7ContextEPKvm"
  },
  {
   "name":"_ZN7android12renderscript17rsp_ScriptSetVarFEPNS0_7ContextEPKvm"
  },
  {
   "name":"_ZN7android12renderscript17rsp_ScriptSetVarIEPNS0_7ContextEPKvm"
  },
  {
   "name":"_ZN7android12renderscript17rsp_ScriptSetVarJEPNS0_7ContextEPKvm"
  },
  {
   "name":"_ZN7android12renderscript17rsp_ScriptSetVarVEPNS0_7ContextEPKvm"
  },
  {
   "name":"_ZN7android12renderscript17rsuExecuteCommandEPKciPKS2_"
  },
  {
   "name":"_ZN7android12renderscript18ProgramRasterState4initEPNS0_7ContextE"
  },
  {
   "name":"_ZN7android12renderscript18ProgramRasterState6deinitEPNS0_7ContextE"
  },
  {
   "name":"_ZN7android12renderscript18ProgramRasterStateC1Ev"
  },
  {
   "name":"_ZN7android12renderscript18ProgramRasterStateC2Ev"
  },
  {
   "name":"_ZN7android12renderscript18ProgramRasterStateD1Ev"
  },
  {
   "name":"_ZN7android12renderscript18ProgramRasterStateD2Ev"
  },
  {
   "name":"_ZN7android12renderscript18ProgramVertexState10updateSizeEPNS0_7ContextE"
  },
  {
   "name":"_ZN7android12renderscript18ProgramVertexState4initEPNS0_7ContextE"
  },
  {
   "name":"_ZN7android12renderscript18ProgramVertexState6deinitEPNS0_7ContextE"
  },
  {
   "name":"_ZN7android12renderscript18ProgramVertexStateC1Ev"
  },
  {
   "name":"_ZN7android12renderscript18ProgramVertexStateC2Ev"
  },
  {
   "name":"_ZN7android12renderscript18ProgramVertexStateD1Ev"
  },
  {
   "name":"_ZN7android12renderscript18ProgramVertexStateD2Ev"
  },
  {
   "name":"_ZN7android12renderscript18rsi_AllocationReadEPNS0_7ContextEPvS3_m"
  },
  {
   "name":"_ZN7android12renderscript18rsi_ContextDestroyEPNS0_7ContextE"
  },
  {
   "name":"_ZN7android12renderscript18rsi_ElementCreate2EPNS0_7ContextEPKPvmPPKcmPKmPKjm"
  },
  {
   "name":"_ZN7android12renderscript18rsi_ScriptSetVarVEEPNS0_7ContextEPvjPKvmS3_PKjm"
  },
  {
   "name":"_ZN7android12renderscript18rsp_AllocationReadEPNS0_7ContextEPKvm"
  },
  {
   "name":"_ZN7android12renderscript18rsp_ScriptSetVarVEEPNS0_7ContextEPKvm"
  },
  {
   "name":"_ZN7android12renderscript18rsrPfConstantColorEPNS0_7ContextEPNS0_15ProgramFragmentEffff"
  },
  {
   "name":"_ZN7android12renderscript19rsi_AnimationCreateEPNS0_7ContextEPKfS4_j24RsAnimationInterpolation15RsAnimationEdgeS6_"
  },
  {
   "name":"_ZN7android12renderscript19rsi_ContextBindFontEPNS0_7ContextEPv"
  },
  {
   "name":"_ZN7android12renderscript19rsi_ScriptSetVarObjEPNS0_7ContextEPvjS3_"
  },
  {
   "name":"_ZN7android12renderscript19rsp_ContextBindFontEPNS0_7ContextEPKvm"
  },
  {
   "name":"_ZN7android12renderscript19rsp_ScriptSetVarObjEPNS0_7ContextEPKvm"
  },
  {
   "name":"_ZN7android12renderscript19rsrAllocationIoSendEPNS0_7ContextEPNS0_10AllocationE"
  },
  {
   "name":"_ZN7android12renderscript19rsrBindProgramStoreEPNS0_7ContextEPNS0_12ProgramStoreE"
  },
  {
   "name":"_ZN7android12renderscript19rsrMeasureTextAllocEPNS0_7ContextEPNS0_10AllocationEPiS5_S5_S5_"
  },
  {
   "name":"_ZN7android12renderscript19rsrToClientBlockingEPNS0_7ContextEiPKvi"
  },
  {
   "name":"_ZN7android12renderscript19rsrToClientBlockingEPNS0_7ContextEiPvi"
  },
  {
   "name":"_ZN7android12renderscript20ProgramFragmentState4initEPNS0_7ContextE"
  },
  {
   "name":"_ZN7android12renderscript20ProgramFragmentState6deinitEPNS0_7ContextE"
  },
  {
   "name":"_ZN7android12renderscript20ProgramFragmentStateC1Ev"
  },
  {
   "name":"_ZN7android12renderscript20ProgramFragmentStateC2Ev"
  },
  {
   "name":"_ZN7android12renderscript20ProgramFragmentStateD1Ev"
  },
  {
   "name":"_ZN7android12renderscript20ProgramFragmentStateD2Ev"
  },
  {
   "name":"_ZN7android12renderscript20rsi_Allocation1DDataEPNS0_7ContextEPvjjjPKvm"
  },
  {
   "name":"_ZN7android12renderscript20rsi_Allocation1DReadEPNS0_7ContextEPvjjjS3_m"
  },
  {
   "name":"_ZN7android12renderscript20rsi_Allocation2DDataEPNS0_7ContextEPvjjj23RsAllocationCubemapFacejjPKvmm"
  },
  {
   "name":"_ZN7android12renderscript20rsi_Allocation2DReadEPNS0_7ContextEPvjjj23RsAllocationCubemapFacejjS3_mm"
  },
  {
   "name":"_ZN7android12renderscript20rsi_Allocation3DDataEPNS0_7ContextEPvjjjjjjjPKvmm"
  },
  {
   "name":"_ZN7android12renderscript20rsi_Allocation3DReadEPNS0_7ContextEPvjjjjjjjS3_mm"
  },
  {
   "name":"_ZN7android12renderscript20rsi_AllocationIoSendEPNS0_7ContextEPv"
  },
  {
   "name":"_ZN7android12renderscript20rsi_ClosureSetGlobalEPNS0_7ContextEPvS3_li"
  },
  {
   "name":"_ZN7android12renderscript20rsi_ScriptInvokeDataEPNS0_7ContextEPvjS3_"
  },
  {
   "name":"_ZN7android12renderscript20rsp_Allocation1DDataEPNS0_7ContextEPKvm"
  },
  {
   "name":"_ZN7android12renderscript20rsp_Allocation1DReadEPNS0_7ContextEPKvm"
  },
  {
   "name":"_ZN7android12renderscript20rsp_Allocation2DDataEPNS0_7ContextEPKvm"
  },
  {
   "name":"_ZN7android12renderscript20rsp_Allocation2DReadEPNS0_7ContextEPKvm"
  },
  {
   "name":"_ZN7android12renderscript20rsp_Allocation3DDataEPNS0_7ContextEPKvm"
  },
  {
   "name":"_ZN7android12renderscript20rsp_Allocation3DReadEPNS0_7ContextEPKvm"
  },
  {
   "name":"_ZN7android12renderscript20rsp_AllocationIoSendEPNS0_7ContextEPKvm"
  },
  {
   "name":"_ZN7android12renderscript20rsp_ClosureSetGlobalEPNS0_7ContextEPKvm"
  },
  {
   "name":"_ZN7android12renderscript20rsrAllocationSyncAllEPNS0_7ContextEPNS0_10AllocationE21RsAllocationUsageType"
  },
  {
   "name":"_ZN7android12renderscript20rsrBindProgramRasterEPNS0_7ContextEPNS0_13ProgramRasterE"
  },
  {
   "name":"_ZN7android12renderscript20rsrBindProgramVertexEPNS0_7ContextEPNS0_13ProgramVertexE"
  },
  {
   "name":"_ZN7android12renderscript20rsrDrawMeshPrimitiveEPNS0_7ContextEPNS0_4MeshEj"
  },
  {
   "name":"_ZN7android12renderscript20rsrVpLoadModelMatrixEPNS0_7ContextEPK10rsc_Matrix"
  },
  {
   "name":"_ZN7android12renderscript21rsi_AllocationSyncAllEPNS0_7ContextEPv21RsAllocationUsageType"
  },
  {
   "name":"_ZN7android12renderscript21rsi_ContextGetMessageEPNS0_7ContextEPvmPmmPjm"
  },
  {
   "name":"_ZN7android12renderscript21rsi_ContextSetSurfaceEPNS0_7ContextEjjPv"
  },
  {
   "name":"_ZN7android12renderscript21rsi_ScriptGroupCreateEPNS0_7ContextEPPvmS4_mS4_mS4_mPKS3_m"
  },
  {
   "name":"_ZN7android12renderscript21rsi_ScriptSetTimeZoneEPNS0_7ContextEPvPKcm"
  },
  {
   "name":"_ZN7android12renderscript21rsp_AllocationSyncAllEPNS0_7ContextEPKvm"
  },
  {
   "name":"_ZN7android12renderscript21rsp_ContextSetSurfaceEPNS0_7ContextEPKvm"
  },
  {
   "name":"_ZN7android12renderscript21rsp_ScriptSetTimeZoneEPNS0_7ContextEPKvm"
  },
  {
   "name":"_ZN7android12renderscript22LF_ObjDestroy_handcodeEPKNS0_7ContextEPv"
  },
  {
   "name":"_ZN7android12renderscript22rsi_AllocationResize1DEPNS0_7ContextEPvj"
  },
  {
   "name":"_ZN7android12renderscript22rsi_AllocationResize2DEPNS0_7ContextEPvjj"
  },
  {
   "name":"_ZN7android12renderscript22rsi_ContextBindSamplerEPNS0_7ContextEjPv"
  },
  {
   "name":"_ZN7android12renderscript22rsi_ContextPeekMessageEPNS0_7ContextEPmmPjm"
  },
  {
   "name":"_ZN7android12renderscript22rsi_ContextSendMessageEPNS0_7ContextEjPKhm"
  },
  {
   "name":"_ZN7android12renderscript22rsi_ContextSetCacheDirEPNS0_7ContextEPKcm"
  },
  {
   "name":"_ZN7android12renderscript22rsi_ContextSetPriorityEPNS0_7ContextEi"
  },
  {
   "name":"_ZN7android12renderscript22rsi_FontCreateFromFileEPNS0_7ContextEPKcmfj"
  },
  {
   "name":"_ZN7android12renderscript22rsi_ProgramBindSamplerEPNS0_7ContextEPvjS3_"
  },
  {
   "name":"_ZN7android12renderscript22rsi_ProgramBindTextureEPNS0_7ContextEPvjS3_"
  },
  {
   "name":"_ZN7android12renderscript22rsi_ProgramStoreCreateEPNS0_7ContextEbbbbbb14RsBlendSrcFunc14RsBlendDstFunc11RsDepthFunc"
  },
  {
   "name":"_ZN7android12renderscript22rsi_ScriptForEachMultiEPNS0_7ContextEPvjPS3_mS3_PKvmPK12RsScriptCallm"
  },
  {
   "name":"_ZN7android12renderscript22rsi_ScriptGroup2CreateEPNS0_7ContextEPKcmS4_mPPvm"
  },
  {
   "name":"_ZN7android12renderscript22rsi_ScriptGroupExecuteEPNS0_7ContextEPv"
  },
  {
   "name":"_ZN7android12renderscript22rsp_AllocationResize1DEPNS0_7ContextEPKvm"
  },
  {
   "name":"_ZN7android12renderscript22rsp_ContextSendMessageEPNS0_7ContextEPKvm"
  },
  {
   "name":"_ZN7android12renderscript22rsp_ContextSetPriorityEPNS0_7ContextEPKvm"
  },
  {
   "name":"_ZN7android12renderscript22rsp_FontCreateFromFileEPNS0_7ContextEPKvm"
  },
  {
   "name":"_ZN7android12renderscript22rsp_ProgramBindSamplerEPNS0_7ContextEPKvm"
  },
  {
   "name":"_ZN7android12renderscript22rsp_ProgramBindTextureEPNS0_7ContextEPKvm"
  },
  {
   "name":"_ZN7android12renderscript22rsp_ScriptForEachMultiEPNS0_7ContextEPKvm"
  },
  {
   "name":"_ZN7android12renderscript22rsp_ScriptGroupExecuteEPNS0_7ContextEPKvm"
  },
  {
   "name":"_ZN7android12renderscript22rsrAllocationIoReceiveEPNS0_7ContextEPNS0_10AllocationE"
  },
  {
   "name":"_ZN7android12renderscript22rsrBindProgramFragmentEPNS0_7ContextEPNS0_15ProgramFragmentE"
  },
  {
   "name":"_ZN7android12renderscript22rsrVpLoadTextureMatrixEPNS0_7ContextEPK10rsc_Matrix"
  },
  {
   "name":"_ZN7android12renderscript23rsi_AllocationIoReceiveEPNS0_7ContextEPv"
  },
  {
   "name":"_ZN7android12renderscript23rsi_ContextInitToClientEPNS0_7ContextE"
  },
  {
   "name":"_ZN7android12renderscript23rsi_InvokeClosureCreateEPNS0_7ContextEPvPKvmPKS3_mPKlmPKim"
  },
  {
   "name":"_ZN7android12renderscript23rsi_ProgramRasterCreateEPNS0_7ContextEb10RsCullMode"
  },
  {
   "name":"_ZN7android12renderscript23rsi_ProgramVertexCreateEPNS0_7ContextEPKcmPS4_mPKmS7_m"
  },
  {
   "name":"_ZN7android12renderscript23rsi_ScriptFieldIDCreateEPNS0_7ContextEPvi"
  },
  {
   "name":"_ZN7android12renderscript23rsi_ScriptGroupSetInputEPNS0_7ContextEPvS3_S3_"
  },
  {
   "name":"_ZN7android12renderscript23rsp_AllocationIoReceiveEPNS0_7ContextEPKvm"
  },
  {
   "name":"_ZN7android12renderscript23rsp_ScriptGroupSetInputEPNS0_7ContextEPKvm"
  },
  {
   "name":"_ZN7android12renderscript24rsi_AllocationGetPointerEPNS0_7ContextEPvj23RsAllocationCubemapFacejjPmm"
  },
  {
   "name":"_ZN7android12renderscript24rsi_AllocationGetSurfaceEPNS0_7ContextEPv"
  },
  {
   "name":"_ZN7android12renderscript24rsi_AllocationSetSurfaceEPNS0_7ContextEPvS3_"
  },
  {
   "name":"_ZN7android12renderscript24rsi_ContextDestroyWorkerEPNS0_7ContextE"
  },
  {
   "name":"_ZN7android12renderscript24rsi_FontCreateFromMemoryEPNS0_7ContextEPKcmfjPKvm"
  },
  {
   "name":"_ZN7android12renderscript24rsi_ProgramBindConstantsEPNS0_7ContextEPvjS3_"
  },
  {
   "name":"_ZN7android12renderscript24rsi_ScriptBindAllocationEPNS0_7ContextEPvS3_j"
  },
  {
   "name":"_ZN7android12renderscript24rsi_ScriptGroupSetOutputEPNS0_7ContextEPvS3_S3_"
  },
  {
   "name":"_ZN7android12renderscript24rsi_ScriptInvokeIDCreateEPNS0_7ContextEPvj"
  },
  {
   "name":"_ZN7android12renderscript24rsi_ScriptKernelIDCreateEPNS0_7ContextEPvii"
  },
  {
   "name":"_ZN7android12renderscript24rsp_AllocationGetPointerEPNS0_7ContextEPKvm"
  },
  {
   "name":"_ZN7android12renderscript24rsp_AllocationGetSurfaceEPNS0_7ContextEPKvm"
  },
  {
   "name":"_ZN7android12renderscript24rsp_AllocationSetSurfaceEPNS0_7ContextEPKvm"
  },
  {
   "name":"_ZN7android12renderscript24rsp_ContextDestroyWorkerEPNS0_7ContextEPKvm"
  },
  {
   "name":"_ZN7android12renderscript24rsp_FontCreateFromMemoryEPNS0_7ContextEPKvm"
  },
  {
   "name":"_ZN7android12renderscript24rsp_ProgramBindConstantsEPNS0_7ContextEPKvm"
  },
  {
   "name":"_ZN7android12renderscript24rsp_ScriptBindAllocationEPNS0_7ContextEPKvm"
  },
  {
   "name":"_ZN7android12renderscript24rsp_ScriptGroupSetOutputEPNS0_7ContextEPKvm"
  },
  {
   "name":"_ZN7android12renderscript24rsp_ScriptInvokeIDCreateEPNS0_7ContextEPKvm"
  },
  {
   "name":"_ZN7android12renderscript24rsrAllocationCopy1DRangeEPNS0_7ContextEPNS0_10AllocationEjjjS4_jj"
  },
  {
   "name":"_ZN7android12renderscript24rsrAllocationCopy2DRangeEPNS0_7ContextEPNS0_10AllocationEjjjjjjS4_jjjj"
  },
  {
   "name":"_ZN7android12renderscript24rsrAllocationCreateTypedEPNS0_7ContextEPv25RsAllocationMipmapControljm"
  },
  {
   "name":"_ZN7android12renderscript24rsrVpGetProjectionMatrixEPNS0_7ContextEP10rsc_Matrix"
  },
  {
   "name":"_ZN7android12renderscript25rsi_AllocationCopy2DRangeEPNS0_7ContextEPvjjjjjjS3_jjjj"
  },
  {
   "name":"_ZN7android12renderscript25rsi_AllocationCopy3DRangeEPNS0_7ContextEPvjjjjjjjS3_jjjj"
  },
  {
   "name":"_ZN7android12renderscript25rsi_AllocationCreateTypedEPNS0_7ContextEPv25RsAllocationMipmapControljm"
  },
  {
   "name":"_ZN7android12renderscript25rsi_AllocationElementDataEPNS0_7ContextEPvjjjjPKvmm"
  },
  {
   "name":"_ZN7android12renderscript25rsi_AllocationElementReadEPNS0_7ContextEPvjjjjS3_mm"
  },
  {
   "name":"_ZN7android12renderscript25rsi_ContextBindRootScriptEPNS0_7ContextEPv"
  },
  {
   "name":"_ZN7android12renderscript25rsi_ContextDeinitToClientEPNS0_7ContextE"
  },
  {
   "name":"_ZN7android12renderscript25rsi_ProgramFragmentCreateEPNS0_7ContextEPKcmPS4_mPKmS7_m"
  },
  {
   "name":"_ZN7android12renderscript25rsi_ScriptIntrinsicCreateEPNS0_7ContextEjPv"
  },
  {
   "name":"_ZN7android12renderscript25rsp_AllocationCopy2DRangeEPNS0_7ContextEPKvm"
  },
  {
   "name":"_ZN7android12renderscript25rsp_AllocationCopy3DRangeEPNS0_7ContextEPKvm"
  },
  {
   "name":"_ZN7android12renderscript25rsp_AllocationElementDataEPNS0_7ContextEPKvm"
  },
  {
   "name":"_ZN7android12renderscript25rsp_AllocationElementReadEPNS0_7ContextEPKvm"
  },
  {
   "name":"_ZN7android12renderscript25rsp_ContextBindRootScriptEPNS0_7ContextEPKvm"
  },
  {
   "name":"_ZN7android12renderscript25rsp_ScriptIntrinsicCreateEPNS0_7ContextEPKvm"
  },
  {
   "name":"_ZN7android12renderscript25rsrDrawMeshPrimitiveRangeEPNS0_7ContextEPNS0_4MeshEjjj"
  },
  {
   "name":"_ZN7android12renderscript25rsrMeshComputeBoundingBoxEPNS0_7ContextEPNS0_4MeshEPfS5_S5_S5_S5_S5_"
  },
  {
   "name":"_ZN7android12renderscript25rsrVpLoadProjectionMatrixEPNS0_7ContextEPK10rsc_Matrix"
  },
  {
   "name":"_ZN7android12renderscript26rsi_AllocationCopyToBitmapEPNS0_7ContextEPvS3_m"
  },
  {
   "name":"_ZN7android12renderscript26rsp_AllocationCopyToBitmapEPNS0_7ContextEPKvm"
  },
  {
   "name":"_ZN7android12renderscript27rsi_Allocation1DElementDataEPNS0_7ContextEPvjjPKvmm"
  },
  {
   "name":"_ZN7android12renderscript27rsi_AllocationAdapterCreateEPNS0_7ContextEPvS3_"
  },
  {
   "name":"_ZN7android12renderscript27rsi_AllocationAdapterOffsetEPNS0_7ContextEPvPKjm"
  },
  {
   "name":"_ZN7android12renderscript27rsi_AllocationCreateStridedEPNS0_7ContextEPv25RsAllocationMipmapControljmm"
  },
  {
   "name":"_ZN7android12renderscript27rsi_ContextBindProgramStoreEPNS0_7ContextEPv"
  },
  {
   "name":"_ZN7android12renderscript27rsp_Allocation1DElementDataEPNS0_7ContextEPKvm"
  },
  {
   "name":"_ZN7android12renderscript27rsp_AllocationAdapterOffsetEPNS0_7ContextEPKvm"
  },
  {
   "name":"_ZN7android12renderscript27rsp_ContextBindProgramStoreEPNS0_7ContextEPKvm"
  },
  {
   "name":"_ZN7android12renderscript28rsi_ContextBindProgramRasterEPNS0_7ContextEPv"
  },
  {
   "name":"_ZN7android12renderscript28rsi_ContextBindProgramVertexEPNS0_7ContextEPv"
  },
  {
   "name":"_ZN7android12renderscript28rsp_ContextBindProgramRasterEPNS0_7ContextEPKvm"
  },
  {
   "name":"_ZN7android12renderscript28rsp_ContextBindProgramVertexEPNS0_7ContextEPKvm"
  },
  {
   "name":"_ZN7android12renderscript29rsi_AllocationGenerateMipmapsEPNS0_7ContextEPv"
  },
  {
   "name":"_ZN7android12renderscript29rsp_AllocationGenerateMipmapsEPNS0_7ContextEPKvm"
  },
  {
   "name":"_ZN7android12renderscript30rsi_AllocationCreateFromBitmapEPNS0_7ContextEPv25RsAllocationMipmapControlPKvmj"
  },
  {
   "name":"_ZN7android12renderscript30rsi_AllocationSetupBufferQueueEPNS0_7ContextEPvj"
  },
  {
   "name":"_ZN7android12renderscript30rsi_AllocationShareBufferQueueEPNS0_7ContextEPvS3_"
  },
  {
   "name":"_ZN7android12renderscript30rsi_ContextBindProgramFragmentEPNS0_7ContextEPv"
  },
  {
   "name":"_ZN7android12renderscript30rsp_AllocationSetupBufferQueueEPNS0_7ContextEPKvm"
  },
  {
   "name":"_ZN7android12renderscript30rsp_AllocationShareBufferQueueEPNS0_7ContextEPKvm"
  },
  {
   "name":"_ZN7android12renderscript30rsp_ContextBindProgramFragmentEPNS0_7ContextEPKvm"
  },
  {
   "name":"_ZN7android12renderscript32rsrClearFrameBufferObjectTargetsEPNS0_7ContextE"
  },
  {
   "name":"_ZN7android12renderscript34rsi_AllocationCubeCreateFromBitmapEPNS0_7ContextEPv25RsAllocationMipmapControlPKvmj"
  },
  {
   "name":"_ZN7android12renderscript35rsrBindFrameBufferObjectColorTargetEPNS0_7ContextEPNS0_10AllocationEj"
  },
  {
   "name":"_ZN7android12renderscript35rsrBindFrameBufferObjectDepthTargetEPNS0_7ContextEPNS0_10AllocationE"
  },
  {
   "name":"_ZN7android12renderscript36rsrClearFrameBufferObjectColorTargetEPNS0_7ContextEj"
  },
  {
   "name":"_ZN7android12renderscript36rsrClearFrameBufferObjectDepthTargetEPNS0_7ContextE"
  },
  {
   "name":"_ZN7android12renderscript4Font10cacheGlyphEj"
  },
  {
   "name":"_ZN7android12renderscript4Font15drawCachedGlyphEPNS1_15CachedGlyphInfoEii"
  },
  {
   "name":"_ZN7android12renderscript4Font15drawCachedGlyphEPNS1_15CachedGlyphInfoEiiPhjj"
  },
  {
   "name":"_ZN7android12renderscript4Font16getCachedUTFCharEi"
  },
  {
   "name":"_ZN7android12renderscript4Font16updateGlyphCacheEPNS1_15CachedGlyphInfoE"
  },
  {
   "name":"_ZN7android12renderscript4Font18measureCachedGlyphEPNS1_15CachedGlyphInfoEiiPNS1_4RectE"
  },
  {
   "name":"_ZN7android12renderscript4Font22invalidateTextureCacheEv"
  },
  {
   "name":"_ZN7android12renderscript4Font4initEPKcfjPKvj"
  },
  {
   "name":"_ZN7android12renderscript4Font6createEPNS0_7ContextEPKcfjPKvj"
  },
  {
   "name":"_ZN7android12renderscript4Font9renderUTFEPKcjiijiNS1_10RenderModeEPNS1_4RectEPhjj"
  },
  {
   "name":"_ZN7android12renderscript4FontC1EPNS0_7ContextE"
  },
  {
   "name":"_ZN7android12renderscript4FontC2EPNS0_7ContextE"
  },
  {
   "name":"_ZN7android12renderscript4FontD0Ev"
  },
  {
   "name":"_ZN7android12renderscript4FontD1Ev"
  },
  {
   "name":"_ZN7android12renderscript4FontD2Ev"
  },
  {
   "name":"_ZN7android12renderscript4Mesh11computeBBoxEPNS0_7ContextE"
  },
  {
   "name":"_ZN7android12renderscript4Mesh16createFromStreamEPNS0_7ContextEPNS0_7IStreamE"
  },
  {
   "name":"_ZN7android12renderscript4Mesh4initEv"
  },
  {
   "name":"_ZN7android12renderscript4Mesh9uploadAllEPNS0_7ContextE"
  },
  {
   "name":"_ZN7android12renderscript4MeshC1EPNS0_7ContextE"
  },
  {
   "name":"_ZN7android12renderscript4MeshC1EPNS0_7ContextEjj"
  },
  {
   "name":"_ZN7android12renderscript4MeshC2EPNS0_7ContextE"
  },
  {
   "name":"_ZN7android12renderscript4MeshC2EPNS0_7ContextEjj"
  },
  {
   "name":"_ZN7android12renderscript4MeshD0Ev"
  },
  {
   "name":"_ZN7android12renderscript4MeshD1Ev"
  },
  {
   "name":"_ZN7android12renderscript4MeshD2Ev"
  },
  {
   "name":"_ZN7android12renderscript4Type10getTypeRefEPNS0_7ContextEPKNS0_7ElementEPK18RsTypeCreateParamsm"
  },
  {
   "name":"_ZN7android12renderscript4Type16createFromStreamEPNS0_7ContextEPNS0_7IStreamE"
  },
  {
   "name":"_ZN7android12renderscript4Type5clearEv"
  },
  {
   "name":"_ZN7android12renderscript4Type7computeEv"
  },
  {
   "name":"_ZN7android12renderscript4TypeC1EPNS0_7ContextE"
  },
  {
   "name":"_ZN7android12renderscript4TypeC2EPNS0_7ContextE"
  },
  {
   "name":"_ZN7android12renderscript4TypeD0Ev"
  },
  {
   "name":"_ZN7android12renderscript4TypeD1Ev"
  },
  {
   "name":"_ZN7android12renderscript4TypeD2Ev"
  },
  {
   "name":"_ZN7android12renderscript4TypedlEPv"
  },
  {
   "name":"_ZN7android12renderscript5Mutex4initEv"
  },
  {
   "name":"_ZN7android12renderscript5Mutex4lockEv"
  },
  {
   "name":"_ZN7android12renderscript5Mutex6unlockEv"
  },
  {
   "name":"_ZN7android12renderscript5MutexC1Ev"
  },
  {
   "name":"_ZN7android12renderscript5MutexC2Ev"
  },
  {
   "name":"_ZN7android12renderscript5MutexD1Ev"
  },
  {
   "name":"_ZN7android12renderscript5MutexD2Ev"
  },
  {
   "name":"_ZN7android12renderscript6Device10addContextEPNS0_7ContextE"
  },
  {
   "name":"_ZN7android12renderscript6Device13removeContextEPNS0_7ContextE"
  },
  {
   "name":"_ZN7android12renderscript6DeviceC1Ev"
  },
  {
   "name":"_ZN7android12renderscript6DeviceC2Ev"
  },
  {
   "name":"_ZN7android12renderscript6DeviceD1Ev"
  },
  {
   "name":"_ZN7android12renderscript6DeviceD2Ev"
  },
  {
   "name":"_ZN7android12renderscript6Script12freeChildrenEv"
  },
  {
   "name":"_ZN7android12renderscript6Script6getVarEjPKvm"
  },
  {
   "name":"_ZN7android12renderscript6Script6setVarEjPKvm"
  },
  {
   "name":"_ZN7android12renderscript6Script6setVarEjPKvmPNS0_7ElementEPKjm"
  },
  {
   "name":"_ZN7android12renderscript6Script7setSlotEjPNS0_10AllocationE"
  },
  {
   "name":"_ZN7android12renderscript6Script9setVarObjEjPNS0_10ObjectBaseE"
  },
  {
   "name":"_ZN7android12renderscript6ScriptC2EPNS0_7ContextE"
  },
  {
   "name":"_ZN7android12renderscript6ScriptD0Ev"
  },
  {
   "name":"_ZN7android12renderscript6ScriptD1Ev"
  },
  {
   "name":"_ZN7android12renderscript6ScriptD2Ev"
  },
  {
   "name":"_ZN7android12renderscript6Signal3setEv"
  },
  {
   "name":"_ZN7android12renderscript6Signal4initEv"
  },
  {
   "name":"_ZN7android12renderscript6Signal4waitEv"
  },
  {
   "name":"_ZN7android12renderscript6SignalC1Ev"
  },
  {
   "name":"_ZN7android12renderscript6SignalC2Ev"
  },
  {
   "name":"_ZN7android12renderscript6SignalD1Ev"
  },
  {
   "name":"_ZN7android12renderscript6SignalD2Ev"
  },
  {
   "name":"_ZN7android12renderscript7Closure6setArgEjPKvi"
  },
  {
   "name":"_ZN7android12renderscript7Closure9setGlobalEPKNS0_13ScriptFieldIDEli"
  },
  {
   "name":"_ZN7android12renderscript7ClosureC1EPNS0_7ContextEPKNS0_14ScriptInvokeIDEPKvmmPPKNS0_13ScriptFieldIDEPKlPKi"
  },
  {
   "name":"_ZN7android12renderscript7ClosureC1EPNS0_7ContextEPKNS0_14ScriptKernelIDEPNS0_10AllocationEiPPKNS0_13ScriptFieldIDEPKlPKiPPKS1_SC_"
  },
  {
   "name":"_ZN7android12renderscript7ClosureC2EPNS0_7ContextEPKNS0_14ScriptInvokeIDEPKvmmPPKNS0_13ScriptFieldIDEPKlPKi"
  },
  {
   "name":"_ZN7android12renderscript7ClosureC2EPNS0_7ContextEPKNS0_14ScriptKernelIDEPNS0_10AllocationEiPPKNS0_13ScriptFieldIDEPKlPKiPPKS1_SC_"
  },
  {
   "name":"_ZN7android12renderscript7ClosureD0Ev"
  },
  {
   "name":"_ZN7android12renderscript7ClosureD1Ev"
  },
  {
   "name":"_ZN7android12renderscript7ClosureD2Ev"
  },
  {
   "name":"_ZN7android12renderscript7Context10assignNameEPNS0_10ObjectBaseEPKcj"
  },
  {
   "name":"_ZN7android12renderscript7Context10loadDriverEbb"
  },
  {
   "name":"_ZN7android12renderscript7Context10removeNameEPNS0_10ObjectBaseE"
  },
  {
   "name":"_ZN7android12renderscript7Context10setSurfaceEjjPv"
  },
  {
   "name":"_ZN7android12renderscript7Context10setupCheckEv"
  },
  {
   "name":"_ZN7android12renderscript7Context10threadProcEPv"
  },
  {
   "name":"_ZN7android12renderscript7Context10timerFrameEv"
  },
  {
   "name":"_ZN7android12renderscript7Context10timerPrintEv"
  },
  {
   "name":"_ZN7android12renderscript7Context10timerResetEv"
  },
  {
   "name":"_ZN7android12renderscript7Context11initContextEPNS0_6DeviceEPK15RsSurfaceConfig"
  },
  {
   "name":"_ZN7android12renderscript7Context11loadRuntimeEPKc"
  },
  {
   "name":"_ZN7android12renderscript7Context11setCacheDirEPKcj"
  },
  {
   "name":"_ZN7android12renderscript7Context11setPriorityEi"
  },
  {
   "name":"_ZN7android12renderscript7Context12initGLThreadEv"
  },
  {
   "name":"_ZN7android12renderscript7Context12initToClientEv"
  },
  {
   "name":"_ZN7android12renderscript7Context13createContextEPNS0_6DeviceEPK15RsSurfaceConfig13RsContextTypejPKc"
  },
  {
   "name":"_ZN7android12renderscript7Context13runRootScriptEv"
  },
  {
   "name":"_ZN7android12renderscript7Context13setRootScriptEPNS0_6ScriptE"
  },
  {
   "name":"_ZN7android12renderscript7Context14deinitToClientEv"
  },
  {
   "name":"_ZN7android12renderscript7Context15setProgramStoreEPNS0_12ProgramStoreE"
  },
  {
   "name":"_ZN7android12renderscript7Context16setProgramRasterEPNS0_13ProgramRasterE"
  },
  {
   "name":"_ZN7android12renderscript7Context16setProgramVertexEPNS0_13ProgramVertexE"
  },
  {
   "name":"_ZN7android12renderscript7Context17createContextLiteEv"
  },
  {
   "name":"_ZN7android12renderscript7Context17displayDebugStatsEv"
  },
  {
   "name":"_ZN7android12renderscript7Context17printWatchdogInfoEPv"
  },
  {
   "name":"_ZN7android12renderscript7Context17setupProgramStoreEv"
  },
  {
   "name":"_ZN7android12renderscript7Context18getMessageToClientEPvPmPjm"
  },
  {
   "name":"_ZN7android12renderscript7Context18setProgramFragmentEPNS0_15ProgramFragmentE"
  },
  {
   "name":"_ZN7android12renderscript7Context19peekMessageToClientEPmPj"
  },
  {
   "name":"_ZN7android12renderscript7Context28destroyWorkerThreadResourcesEv"
  },
  {
   "name":"_ZN7android12renderscript7Context5pauseEv"
  },
  {
   "name":"_ZN7android12renderscript7Context6finishEv"
  },
  {
   "name":"_ZN7android12renderscript7Context6resumeEv"
  },
  {
   "name":"_ZN7android12renderscript7Context7setFontEPNS0_4FontE"
  },
  {
   "name":"_ZN7android12renderscript7Context8timerSetENS1_6TimersE"
  },
  {
   "name":"_ZN7android12renderscript7Context9PushStateC1EPS1_"
  },
  {
   "name":"_ZN7android12renderscript7Context9PushStateC2EPS1_"
  },
  {
   "name":"_ZN7android12renderscript7Context9PushStateD1Ev"
  },
  {
   "name":"_ZN7android12renderscript7Context9PushStateD2Ev"
  },
  {
   "name":"_ZN7android12renderscript7Context9deinitEGLEv"
  },
  {
   "name":"_ZN7android12renderscript7Context9runScriptEPNS0_6ScriptE"
  },
  {
   "name":"_ZN7android12renderscript7Context9timerInitEv"
  },
  {
   "name":"_ZN7android12renderscript7ContextC1Ev"
  },
  {
   "name":"_ZN7android12renderscript7ContextC2Ev"
  },
  {
   "name":"_ZN7android12renderscript7ContextD1Ev"
  },
  {
   "name":"_ZN7android12renderscript7ContextD2Ev"
  },
  {
   "name":"_ZN7android12renderscript7Element16createFromStreamEPNS0_7ContextEPNS0_7IStreamE"
  },
  {
   "name":"_ZN7android12renderscript7Element5clearEv"
  },
  {
   "name":"_ZN7android12renderscript7Element7computeEv"
  },
  {
   "name":"_ZN7android12renderscript7Element9createRefEPNS0_7ContextE10RsDataType10RsDataKindbj"
  },
  {
   "name":"_ZN7android12renderscript7Element9createRefEPNS0_7ContextEmPPKS1_PPKcPKmPKj"
  },
  {
   "name":"_ZN7android12renderscript7ElementC1EPNS0_7ContextE"
  },
  {
   "name":"_ZN7android12renderscript7ElementC2EPNS0_7ContextE"
  },
  {
   "name":"_ZN7android12renderscript7ElementD0Ev"
  },
  {
   "name":"_ZN7android12renderscript7ElementD1Ev"
  },
  {
   "name":"_ZN7android12renderscript7ElementD2Ev"
  },
  {
   "name":"_ZN7android12renderscript7ElementdlEPv"
  },
  {
   "name":"_ZN7android12renderscript7FileA3D11parseHeaderEPNS0_7IStreamE"
  },
  {
   "name":"_ZN7android12renderscript7FileA3D12appendToFileEPNS0_7ContextEPNS0_10ObjectBaseE"
  },
  {
   "name":"_ZN7android12renderscript7FileA3D13A3DIndexEntryD1Ev"
  },
  {
   "name":"_ZN7android12renderscript7FileA3D13A3DIndexEntryD2Ev"
  },
  {
   "name":"_ZN7android12renderscript7FileA3D19initializeFromEntryEm"
  },
  {
   "name":"_ZN7android12renderscript7FileA3D4loadEP7__sFILE"
  },
  {
   "name":"_ZN7android12renderscript7FileA3D4loadEPKvm"
  },
  {
   "name":"_ZN7android12renderscript7FileA3D4loadEPNS_5AssetE"
  },
  {
   "name":"_ZN7android12renderscript7FileA3D9writeFileEPKc"
  },
  {
   "name":"_ZN7android12renderscript7FileA3DC1EPNS0_7ContextE"
  },
  {
   "name":"_ZN7android12renderscript7FileA3DC2EPNS0_7ContextE"
  },
  {
   "name":"_ZN7android12renderscript7FileA3DD0Ev"
  },
  {
   "name":"_ZN7android12renderscript7FileA3DD1Ev"
  },
  {
   "name":"_ZN7android12renderscript7FileA3DD2Ev"
  },
  {
   "name":"_ZN7android12renderscript7IStream10loadOffsetEv"
  },
  {
   "name":"_ZN7android12renderscript7IStream10loadStringEv"
  },
  {
   "name":"_ZN7android12renderscript7IStream13loadByteArrayEPvm"
  },
  {
   "name":"_ZN7android12renderscript7IStreamC1EPKhb"
  },
  {
   "name":"_ZN7android12renderscript7IStreamC2EPKhb"
  },
  {
   "name":"_ZN7android12renderscript7OStream12addByteArrayEPKvm"
  },
  {
   "name":"_ZN7android12renderscript7OStream8growSizeEv"
  },
  {
   "name":"_ZN7android12renderscript7OStream9addOffsetEm"
  },
  {
   "name":"_ZN7android12renderscript7OStream9addStringEPKc"
  },
  {
   "name":"_ZN7android12renderscript7OStream9addStringEPKcm"
  },
  {
   "name":"_ZN7android12renderscript7OStreamC1Emb"
  },
  {
   "name":"_ZN7android12renderscript7OStreamC2Emb"
  },
  {
   "name":"_ZN7android12renderscript7OStreamD1Ev"
  },
  {
   "name":"_ZN7android12renderscript7OStreamD2Ev"
  },
  {
   "name":"_ZN7android12renderscript7Program11bindSamplerEPNS0_7ContextEjPNS0_7SamplerE"
  },
  {
   "name":"_ZN7android12renderscript7Program11bindTextureEPNS0_7ContextEjPNS0_10AllocationE"
  },
  {
   "name":"_ZN7android12renderscript7Program12freeChildrenEv"
  },
  {
   "name":"_ZN7android12renderscript7Program14bindAllocationEPNS0_7ContextEPNS0_10AllocationEj"
  },
  {
   "name":"_ZN7android12renderscript7Program14initMemberVarsEv"
  },
  {
   "name":"_ZN7android12renderscript7ProgramC2EPNS0_7ContextEPKcmPKmm"
  },
  {
   "name":"_ZN7android12renderscript7ProgramD0Ev"
  },
  {
   "name":"_ZN7android12renderscript7ProgramD1Ev"
  },
  {
   "name":"_ZN7android12renderscript7ProgramD2Ev"
  },
  {
   "name":"_ZN7android12renderscript7Sampler10getSamplerEPNS0_7ContextE14RsSamplerValueS4_S4_S4_S4_f"
  },
  {
   "name":"_ZN7android12renderscript7Sampler13bindToContextEPNS0_12SamplerStateEj"
  },
  {
   "name":"_ZN7android12renderscript7Sampler16createFromStreamEPNS0_7ContextEPNS0_7IStreamE"
  },
  {
   "name":"_ZN7android12renderscript7Sampler17unbindFromContextEPNS0_12SamplerStateE"
  },
  {
   "name":"_ZN7android12renderscript7SamplerC1EPNS0_7ContextE"
  },
  {
   "name":"_ZN7android12renderscript7SamplerC1EPNS0_7ContextE14RsSamplerValueS4_S4_S4_S4_f"
  },
  {
   "name":"_ZN7android12renderscript7SamplerC2EPNS0_7ContextE"
  },
  {
   "name":"_ZN7android12renderscript7SamplerC2EPNS0_7ContextE14RsSamplerValueS4_S4_S4_S4_f"
  },
  {
   "name":"_ZN7android12renderscript7SamplerD0Ev"
  },
  {
   "name":"_ZN7android12renderscript7SamplerD1Ev"
  },
  {
   "name":"_ZN7android12renderscript7SamplerD2Ev"
  },
  {
   "name":"_ZN7android12renderscript7SamplerdlEPv"
  },
  {
   "name":"_ZN7android12renderscript7ScriptC10runForEachEPNS0_7ContextEjPPKNS0_10AllocationEmPS4_PKvmPK12RsScriptCall"
  },
  {
   "name":"_ZN7android12renderscript7ScriptC11runCompilerEPNS0_7ContextEPKcS5_PKhm"
  },
  {
   "name":"_ZN7android12renderscript7ScriptC11setupScriptEPNS0_7ContextE"
  },
  {
   "name":"_ZN7android12renderscript7ScriptC12setupGLStateEPNS0_7ContextE"
  },
  {
   "name":"_ZN7android12renderscript7ScriptC14createCacheDirEPKc"
  },
  {
   "name":"_ZN7android12renderscript7ScriptC3runEPNS0_7ContextE"
  },
  {
   "name":"_ZN7android12renderscript7ScriptC6InvokeEPNS0_7ContextEjPKvm"
  },
  {
   "name":"_ZN7android12renderscript7ScriptC9runReduceEPNS0_7ContextEjPPKNS0_10AllocationEmPS4_PK12RsScriptCall"
  },
  {
   "name":"_ZN7android12renderscript7ScriptCC1EPNS0_7ContextE"
  },
  {
   "name":"_ZN7android12renderscript7ScriptCC2EPNS0_7ContextE"
  },
  {
   "name":"_ZN7android12renderscript7ScriptCD0Ev"
  },
  {
   "name":"_ZN7android12renderscript7ScriptCD1Ev"
  },
  {
   "name":"_ZN7android12renderscript7ScriptCD2Ev"
  },
  {
   "name":"_ZN7android12renderscript7rsrTimeEPNS0_7ContextEPl"
  },
  {
   "name":"_ZN7android12renderscript8FBOCache15bindColorTargetEPNS0_7ContextEPNS0_10AllocationEj"
  },
  {
   "name":"_ZN7android12renderscript8FBOCache15bindDepthTargetEPNS0_7ContextEPNS0_10AllocationE"
  },
  {
   "name":"_ZN7android12renderscript8FBOCache4initEPNS0_7ContextE"
  },
  {
   "name":"_ZN7android12renderscript8FBOCache5setupEPNS0_7ContextE"
  },
  {
   "name":"_ZN7android12renderscript8FBOCache6deinitEPNS0_7ContextE"
  },
  {
   "name":"_ZN7android12renderscript8FBOCache8resetAllEPNS0_7ContextE"
  },
  {
   "name":"_ZN7android12renderscript8FBOCacheC1Ev"
  },
  {
   "name":"_ZN7android12renderscript8FBOCacheC2Ev"
  },
  {
   "name":"_ZN7android12renderscript8FBOCacheD1Ev"
  },
  {
   "name":"_ZN7android12renderscript8FBOCacheD2Ev"
  },
  {
   "name":"_ZN7android12renderscript8ThreadIO10coreCommitEv"
  },
  {
   "name":"_ZN7android12renderscript8ThreadIO10coreHeaderEjm"
  },
  {
   "name":"_ZN7android12renderscript8ThreadIO12sendToClientE21RsMessageToClientTypejPKvmb"
  },
  {
   "name":"_ZN7android12renderscript8ThreadIO13coreGetReturnEPvm"
  },
  {
   "name":"_ZN7android12renderscript8ThreadIO13coreSetReturnEPKvm"
  },
  {
   "name":"_ZN7android12renderscript8ThreadIO14clientShutdownEv"
  },
  {
   "name":"_ZN7android12renderscript8ThreadIO15getClientHeaderEPmPj"
  },
  {
   "name":"_ZN7android12renderscript8ThreadIO16getClientPayloadEPvPmPjm"
  },
  {
   "name":"_ZN7android12renderscript8ThreadIO16playCoreCommandsEPNS0_7ContextEi"
  },
  {
   "name":"_ZN7android12renderscript8ThreadIO18setTimeoutCallbackEPFvPvES2_m"
  },
  {
   "name":"_ZN7android12renderscript8ThreadIO4initEv"
  },
  {
   "name":"_ZN7android12renderscript8ThreadIO8coreReadEPvm"
  },
  {
   "name":"_ZN7android12renderscript8ThreadIO8shutdownEv"
  },
  {
   "name":"_ZN7android12renderscript8ThreadIO9coreWriteEPKvm"
  },
  {
   "name":"_ZN7android12renderscript8ThreadIOC1Ev"
  },
  {
   "name":"_ZN7android12renderscript8ThreadIOC2Ev"
  },
  {
   "name":"_ZN7android12renderscript8ThreadIOD1Ev"
  },
  {
   "name":"_ZN7android12renderscript8ThreadIOD2Ev"
  },
  {
   "name":"_ZN7android12renderscript8rsrColorEPNS0_7ContextEffff"
  },
  {
   "name":"_ZN7android12renderscript8rsrGetDtEPNS0_7ContextEPKNS0_6ScriptE"
  },
  {
   "name":"_ZN7android12renderscript9Animation16createFromStreamEPNS0_7ContextEPNS0_7IStreamE"
  },
  {
   "name":"_ZN7android12renderscript9Component14loadFromStreamEPNS0_7IStreamE"
  },
  {
   "name":"_ZN7android12renderscript9Component3setE10RsDataType10RsDataKindbj"
  },
  {
   "name":"_ZN7android12renderscript9ComponentC1Ev"
  },
  {
   "name":"_ZN7android12renderscript9ComponentC2Ev"
  },
  {
   "name":"_ZN7android12renderscript9ComponentD1Ev"
  },
  {
   "name":"_ZN7android12renderscript9ComponentD2Ev"
  },
  {
   "name":"_ZN7android12renderscript9FontState10renderTextEPKcjiijiNS0_4Font10RenderModeEPNS4_4RectEPhjj"
  },
  {
   "name":"_ZN7android12renderscript9FontState11cacheBitmapEP10FT_Bitmap_PjS4_"
  },
  {
   "name":"_ZN7android12renderscript9FontState11measureTextEPKcjPNS0_4Font4RectE"
  },
  {
   "name":"_ZN7android12renderscript9FontState12setFontColorEffff"
  },
  {
   "name":"_ZN7android12renderscript9FontState13precacheLatinEPNS0_4FontE"
  },
  {
   "name":"_ZN7android12renderscript9FontState14appendMeshQuadEffffffffffffffffffff"
  },
  {
   "name":"_ZN7android12renderscript9FontState15initRenderStateEv"
  },
  {
   "name":"_ZN7android12renderscript9FontState15initTextTextureEv"
  },
  {
   "name":"_ZN7android12renderscript9FontState16CacheTextureLine9fitBitmapEP10FT_Bitmap_PjS5_"
  },
  {
   "name":"_ZN7android12renderscript9FontState16issueDrawCommandEv"
  },
  {
   "name":"_ZN7android12renderscript9FontState21flushAllAndInvalidateEv"
  },
  {
   "name":"_ZN7android12renderscript9FontState22initVertexArrayBuffersEv"
  },
  {
   "name":"_ZN7android12renderscript9FontState25getRemainingCacheCapacityEv"
  },
  {
   "name":"_ZN7android12renderscript9FontState4initEPNS0_7ContextE"
  },
  {
   "name":"_ZN7android12renderscript9FontState6deinitEPNS0_7ContextE"
  },
  {
   "name":"_ZN7android12renderscript9FontState6getLibEv"
  },
  {
   "name":"_ZN7android12renderscript9FontState9checkInitEv"
  },
  {
   "name":"_ZN7android12renderscript9FontStateC1Ev"
  },
  {
   "name":"_ZN7android12renderscript9FontStateC2Ev"
  },
  {
   "name":"_ZN7android12renderscript9FontStateD1Ev"
  },
  {
   "name":"_ZN7android12renderscript9FontStateD2Ev"
  },
  {
   "name":"_ZN7android12renderscript9Matrix2x212loadIdentityEv"
  },
  {
   "name":"_ZN7android12renderscript9Matrix2x212loadMultiplyEPK12rs_matrix2x2S4_"
  },
  {
   "name":"_ZN7android12renderscript9Matrix2x24loadEPK12rs_matrix2x2"
  },
  {
   "name":"_ZN7android12renderscript9Matrix2x24loadEPKf"
  },
  {
   "name":"_ZN7android12renderscript9Matrix2x29transposeEv"
  },
  {
   "name":"_ZN7android12renderscript9Matrix3x312loadIdentityEv"
  },
  {
   "name":"_ZN7android12renderscript9Matrix3x312loadMultiplyEPK12rs_matrix3x3S4_"
  },
  {
   "name":"_ZN7android12renderscript9Matrix3x34loadEPK12rs_matrix3x3"
  },
  {
   "name":"_ZN7android12renderscript9Matrix3x34loadEPKf"
  },
  {
   "name":"_ZN7android12renderscript9Matrix3x39transposeEv"
  },
  {
   "name":"_ZN7android12renderscript9Matrix4x410loadRotateEffff"
  },
  {
   "name":"_ZN7android12renderscript9Matrix4x411loadFrustumEffffff"
  },
  {
   "name":"_ZN7android12renderscript9Matrix4x412loadIdentityEv"
  },
  {
   "name":"_ZN7android12renderscript9Matrix4x412loadMultiplyEPK12rs_matrix4x4S4_"
  },
  {
   "name":"_ZN7android12renderscript9Matrix4x413loadTranslateEfff"
  },
  {
   "name":"_ZN7android12renderscript9Matrix4x415loadPerspectiveEffff"
  },
  {
   "name":"_ZN7android12renderscript9Matrix4x416inverseTransposeEv"
  },
  {
   "name":"_ZN7android12renderscript9Matrix4x44loadEPK12rs_matrix2x2"
  },
  {
   "name":"_ZN7android12renderscript9Matrix4x44loadEPK12rs_matrix3x3"
  },
  {
   "name":"_ZN7android12renderscript9Matrix4x44loadEPK12rs_matrix4x4"
  },
  {
   "name":"_ZN7android12renderscript9Matrix4x44loadEPKf"
  },
  {
   "name":"_ZN7android12renderscript9Matrix4x47inverseEv"
  },
  {
   "name":"_ZN7android12renderscript9Matrix4x49loadOrthoEffffff"
  },
  {
   "name":"_ZN7android12renderscript9Matrix4x49loadScaleEfff"
  },
  {
   "name":"_ZN7android12renderscript9Matrix4x49transposeEv"
  },
  {
   "name":"_ZN7android12renderscript9TypeStateC1Ev"
  },
  {
   "name":"_ZN7android12renderscript9TypeStateC2Ev"
  },
  {
   "name":"_ZN7android12renderscript9TypeStateD1Ev"
  },
  {
   "name":"_ZN7android12renderscript9TypeStateD2Ev"
  },
  {
   "binding":"weak",
   "name":"_ZNK7android12SortedVectorINS_16key_value_pair_tIjPNS_12renderscript4Font15CachedGlyphInfoEEEE10do_compareEPKvS9_"
  },
  {
   "binding":"weak",
   "name":"_ZNK7android12SortedVectorINS_16key_value_pair_tIjPNS_12renderscript4Font15CachedGlyphInfoEEEE10do_destroyEPvm"
  },
  {
   "binding":"weak",
   "name":"_ZNK7android12SortedVectorINS_16key_value_pair_tIjPNS_12renderscript4Font15CachedGlyphInfoEEEE12do_constructEPvm"
  },
  {
   "binding":"weak",
   "name":"_ZNK7android12SortedVectorINS_16key_value_pair_tIjPNS_12renderscript4Font15CachedGlyphInfoEEEE15do_move_forwardEPvPKvm"
  },
  {
   "binding":"weak",
   "name":"_ZNK7android12SortedVectorINS_16key_value_pair_tIjPNS_12renderscript4Font15CachedGlyphInfoEEEE16do_move_backwardEPvPKvm"
  },
  {
   "binding":"weak",
   "name":"_ZNK7android12SortedVectorINS_16key_value_pair_tIjPNS_12renderscript4Font15CachedGlyphInfoEEEE7do_copyEPvPKvm"
  },
  {
   "binding":"weak",
   "name":"_ZNK7android12SortedVectorINS_16key_value_pair_tIjPNS_12renderscript4Font15CachedGlyphInfoEEEE8do_splatEPvPKvm"
  },
  {
   "name":"_ZNK7android12renderscript10Allocation11hasSameDimsEPKS1_"
  },
  {
   "name":"_ZNK7android12renderscript10Allocation13getPackedSizeEv"
  },
  {
   "name":"_ZNK7android12renderscript10Allocation18packVec3AllocationEPNS0_7ContextEPNS0_7OStreamE"
  },
  {
   "name":"_ZNK7android12renderscript10Allocation21callUpdateCacheObjectEPKNS0_7ContextEPv"
  },
  {
   "name":"_ZNK7android12renderscript10Allocation7decRefsEPKvmm"
  },
  {
   "name":"_ZNK7android12renderscript10Allocation7incRefsEPKvmm"
  },
  {
   "name":"_ZNK7android12renderscript10Allocation8dumpLOGVEPKc"
  },
  {
   "name":"_ZNK7android12renderscript10Allocation9sendDirtyEPKNS0_7ContextE"
  },
  {
   "name":"_ZNK7android12renderscript10Allocation9serializeEPNS0_7ContextEPNS0_7OStreamE"
  },
  {
   "name":"_ZNK7android12renderscript10ObjectBase10decUserRefEv"
  },
  {
   "name":"_ZNK7android12renderscript10ObjectBase10incUserRefEv"
  },
  {
   "name":"_ZNK7android12renderscript10ObjectBase10preDestroyEv"
  },
  {
   "name":"_ZNK7android12renderscript10ObjectBase11zeroUserRefEv"
  },
  {
   "name":"_ZNK7android12renderscript10ObjectBase21callUpdateCacheObjectEPKNS0_7ContextEPv"
  },
  {
   "name":"_ZNK7android12renderscript10ObjectBase3addEv"
  },
  {
   "name":"_ZNK7android12renderscript10ObjectBase6removeEv"
  },
  {
   "name":"_ZNK7android12renderscript10ObjectBase8dumpLOGVEPKc"
  },
  {
   "name":"_ZNK7android12renderscript10ObjectBase9decSysRefEv"
  },
  {
   "name":"_ZNK7android12renderscript10ObjectBase9incSysRefEv"
  },
  {
   "name":"_ZNK7android12renderscript11ScriptGroup8findNodeEPNS0_6ScriptE"
  },
  {
   "name":"_ZNK7android12renderscript12ProgramStore10preDestroyEv"
  },
  {
   "name":"_ZNK7android12renderscript12ProgramStore9serializeEPNS0_7ContextEPNS0_7OStreamE"
  },
  {
   "name":"_ZNK7android12renderscript13ProgramRaster10preDestroyEv"
  },
  {
   "name":"_ZNK7android12renderscript13ProgramRaster9serializeEPNS0_7ContextEPNS0_7OStreamE"
  },
  {
   "name":"_ZNK7android12renderscript13ProgramVertex16setTextureMatrixEPNS0_7ContextEPK10rsc_Matrix"
  },
  {
   "name":"_ZNK7android12renderscript13ProgramVertex17transformToScreenEPNS0_7ContextEPfPKf"
  },
  {
   "name":"_ZNK7android12renderscript13ProgramVertex18setModelviewMatrixEPNS0_7ContextEPK10rsc_Matrix"
  },
  {
   "name":"_ZNK7android12renderscript13ProgramVertex19getProjectionMatrixEPNS0_7ContextEP10rsc_Matrix"
  },
  {
   "name":"_ZNK7android12renderscript13ProgramVertex19setProjectionMatrixEPNS0_7ContextEPK10rsc_Matrix"
  },
  {
   "name":"_ZNK7android12renderscript13ProgramVertex9serializeEPNS0_7ContextEPNS0_7OStreamE"
  },
  {
   "name":"_ZNK7android12renderscript13ScriptFieldID10getClassIdEv"
  },
  {
   "name":"_ZNK7android12renderscript14ScriptInvokeID10getClassIdEv"
  },
  {
   "name":"_ZNK7android12renderscript14ScriptKernelID10getClassIdEv"
  },
  {
   "name":"_ZNK7android12renderscript15ProgramFragment9serializeEPNS0_7ContextEPNS0_7OStreamE"
  },
  {
   "name":"_ZNK7android12renderscript15ScriptIntrinsic10getClassIdEv"
  },
  {
   "name":"_ZNK7android12renderscript15ScriptIntrinsic9serializeEPNS0_7ContextEPNS0_7OStreamE"
  },
  {
   "name":"_ZNK7android12renderscript4Font10preDestroyEv"
  },
  {
   "name":"_ZNK7android12renderscript4Mesh15renderPrimitiveEPNS0_7ContextEj"
  },
  {
   "name":"_ZNK7android12renderscript4Mesh20renderPrimitiveRangeEPNS0_7ContextEjjj"
  },
  {
   "name":"_ZNK7android12renderscript4Mesh6renderEPNS0_7ContextE"
  },
  {
   "name":"_ZNK7android12renderscript4Mesh9serializeEPNS0_7ContextEPNS0_7OStreamE"
  },
  {
   "name":"_ZNK7android12renderscript4Type10preDestroyEv"
  },
  {
   "name":"_ZNK7android12renderscript4Type16cloneAndResize1DEPNS0_7ContextEj"
  },
  {
   "name":"_ZNK7android12renderscript4Type16cloneAndResize2DEPNS0_7ContextEjj"
  },
  {
   "name":"_ZNK7android12renderscript4Type21callUpdateCacheObjectEPKNS0_7ContextEPv"
  },
  {
   "name":"_ZNK7android12renderscript4Type7decRefsEPKvmm"
  },
  {
   "name":"_ZNK7android12renderscript4Type7incRefsEPKvmm"
  },
  {
   "name":"_ZNK7android12renderscript4Type8dumpLOGVEPKc"
  },
  {
   "name":"_ZNK7android12renderscript4Type8getIsNp2Ev"
  },
  {
   "name":"_ZNK7android12renderscript4Type9serializeEPNS0_7ContextEPNS0_7OStreamE"
  },
  {
   "name":"_ZNK7android12renderscript6Script21callUpdateCacheObjectEPKNS0_7ContextEPv"
  },
  {
   "name":"_ZNK7android12renderscript7Context19sendMessageToClientEPKv21RsMessageToClientTypejmb"
  },
  {
   "name":"_ZNK7android12renderscript7Context22getCurrentSurfaceWidthEv"
  },
  {
   "name":"_ZNK7android12renderscript7Context23getCurrentSurfaceHeightEv"
  },
  {
   "name":"_ZNK7android12renderscript7Context7getTimeEv"
  },
  {
   "name":"_ZNK7android12renderscript7Context8setErrorE7RsErrorPKc"
  },
  {
   "name":"_ZNK7android12renderscript7Context9dumpDebugEv"
  },
  {
   "name":"_ZNK7android12renderscript7Element10preDestroyEv"
  },
  {
   "name":"_ZNK7android12renderscript7Element11getSizeBitsEv"
  },
  {
   "name":"_ZNK7android12renderscript7Element19getSizeBitsUnpaddedEv"
  },
  {
   "name":"_ZNK7android12renderscript7Element21callUpdateCacheObjectEPKNS0_7ContextEPv"
  },
  {
   "name":"_ZNK7android12renderscript7Element7decRefsEPKv"
  },
  {
   "name":"_ZNK7android12renderscript7Element7incRefsEPKv"
  },
  {
   "name":"_ZNK7android12renderscript7Element8dumpLOGVEPKc"
  },
  {
   "name":"_ZNK7android12renderscript7Element9serializeEPNS0_7ContextEPNS0_7OStreamE"
  },
  {
   "name":"_ZNK7android12renderscript7FileA3D13getIndexEntryEm"
  },
  {
   "name":"_ZNK7android12renderscript7FileA3D18getNumIndexEntriesEv"
  },
  {
   "name":"_ZNK7android12renderscript7Sampler10preDestroyEv"
  },
  {
   "name":"_ZNK7android12renderscript7Sampler9serializeEPNS0_7ContextEPNS0_7OStreamE"
  },
  {
   "name":"_ZNK7android12renderscript9Animation9serializeEPNS0_7ContextEPNS0_7OStreamE"
  },
  {
   "name":"_ZNK7android12renderscript9Component11isReferenceEv"
  },
  {
   "name":"_ZNK7android12renderscript9Component8dumpLOGVEPKc"
  },
  {
   "name":"_ZNK7android12renderscript9Component9serializeEPNS0_7OStreamE"
  },
  {
   "name":"_ZNK7android12renderscript9FontState12getFontColorEPfS2_S2_S2_"
  },
  {
   "name":"_ZNK7android12renderscript9Matrix4x414vectorMultiplyEPfPKf"
  },
  {
   "name":"_ZNK7android12renderscript9Matrix4x44logvEPKc"
  },
  {
   "binding":"weak",
   "name":"_ZNKSt3__115basic_stringbufIcNS_11char_traitsIcEENS_9allocatorIcEEE3strEv"
  },
  {
   "binding":"weak",
   "name":"_ZNSt3__115basic_stringbufIcNS_11char_traitsIcEENS_9allocatorIcEEE7seekoffExNS_8ios_base7seekdirEj"
  },
  {
   "binding":"weak",
   "name":"_ZNSt3__115basic_stringbufIcNS_11char_traitsIcEENS_9allocatorIcEEE8overflowEi"
  },
  {
   "binding":"weak",
   "name":"_ZNSt3__115basic_stringbufIcNS_11char_traitsIcEENS_9allocatorIcEEE9pbackfailEi"
  },
  {
   "binding":"weak",
   "name":"_ZNSt3__115basic_stringbufIcNS_11char_traitsIcEENS_9allocatorIcEEE9underflowEv"
  },
  {
   "binding":"weak",
   "name":"_ZNSt3__124__put_character_sequenceIcNS_11char_traitsIcEEEERNS_13basic_ostreamIT_T0_EES7_PKS4_m"
  },
  {
   "binding":"weak",
   "name":"_ZNSt3__127__insertion_sort_incompleteIRN7android12renderscript11NodeCompareEPPNS2_11ScriptGroup4NodeEEEbT0_S9_T_"
  },
  {
   "binding":"weak",
   "name":"_ZNSt3__16__sortIRN7android12renderscript11NodeCompareEPPNS2_11ScriptGroup4NodeEEEvT0_S9_T_"
  },
  {
   "binding":"weak",
   "name":"_ZNSt3__16vectorIN7android12renderscript13ObjectBaseRefINS2_14ScriptKernelIDEEENS_9allocatorIS5_EEE21__push_back_slow_pathIS5_EEvOT_"
  },
  {
   "binding":"weak",
   "name":"_ZNSt3__16vectorIN7android12renderscript13ObjectBaseRefINS2_14ScriptKernelIDEEENS_9allocatorIS5_EEE7reserveEm"
  },
  {
   "binding":"weak",
   "name":"_ZNSt3__16vectorIPKN7android12renderscript14ScriptKernelIDENS_9allocatorIS5_EEE21__push_back_slow_pathIRKS5_EEvOT_"
  },
  {
   "binding":"weak",
   "name":"_ZNSt3__16vectorIPKN7android12renderscript7ProgramENS_9allocatorIS5_EEE21__push_back_slow_pathIRKS5_EEvOT_"
  },
  {
   "binding":"weak",
   "name":"_ZNSt3__16vectorIPN7android12renderscript10ObjectBaseENS_9allocatorIS4_EEE21__push_back_slow_pathIRKS4_EEvOT_"
  },
  {
   "binding":"weak",
   "name":"_ZNSt3__16vectorIPN7android12renderscript11ScriptGroup2IOENS_9allocatorIS5_EEE21__push_back_slow_pathIS5_EEvOT_"
  },
  {
   "binding":"weak",
   "name":"_ZNSt3__16vectorIPN7android12renderscript11ScriptGroup4LinkENS_9allocatorIS5_EEE21__push_back_slow_pathIRKS5_EEvOT_"
  },
  {
   "binding":"weak",
   "name":"_ZNSt3__16vectorIPN7android12renderscript11ScriptGroup4NodeENS_9allocatorIS5_EEE21__push_back_slow_pathIRKS5_EEvOT_"
  },
  {
   "binding":"weak",
   "name":"_ZNSt3__16vectorIPN7android12renderscript12ProgramStoreENS_9allocatorIS4_EEE21__push_back_slow_pathIRKS4_EEvOT_"
  },
  {
   "binding":"weak",
   "name":"_ZNSt3__16vectorIPN7android12renderscript13ProgramRasterENS_9allocatorIS4_EEE21__push_back_slow_pathIRKS4_EEvOT_"
  },
  {
   "binding":"weak",
   "name":"_ZNSt3__16vectorIPN7android12renderscript4FontENS_9allocatorIS4_EEE21__push_back_slow_pathIRKS4_EEvOT_"
  },
  {
   "binding":"weak",
   "name":"_ZNSt3__16vectorIPN7android12renderscript4TypeENS_9allocatorIS4_EEE21__push_back_slow_pathIRKS4_EEvOT_"
  },
  {
   "binding":"weak",
   "name":"_ZNSt3__16vectorIPN7android12renderscript7ContextENS_9allocatorIS4_EEE21__push_back_slow_pathIRKS4_EEvOT_"
  },
  {
   "binding":"weak",
   "name":"_ZNSt3__16vectorIPN7android12renderscript7ElementENS_9allocatorIS4_EEE21__push_back_slow_pathIRKS4_EEvOT_"
  },
  {
   "binding":"weak",
   "name":"_ZNSt3__16vectorIPN7android12renderscript7FileA3D13A3DIndexEntryENS_9allocatorIS5_EEE21__push_back_slow_pathIRKS5_EEvOT_"
  },
  {
   "binding":"weak",
   "name":"_ZNSt3__16vectorIPN7android12renderscript7SamplerENS_9allocatorIS4_EEE21__push_back_slow_pathIRKS4_EEvOT_"
  },
  {
   "binding":"weak",
   "name":"_ZNSt3__16vectorIPN7android12renderscript9FontState16CacheTextureLineENS_9allocatorIS5_EEE21__push_back_slow_pathIS5_EEvOT_"
  },
  {
   "binding":"weak",
   "name":"_ZNSt3__17__sort4IRN7android12renderscript11NodeCompareEPPNS2_11ScriptGroup4NodeEEEjT0_S9_S9_S9_T_"
  },
  {
   "name":"rsAllocation1DData"
  },
  {
   "name":"rsAllocation1DElementData"
  },
  {
   "name":"rsAllocation1DRead"
  },
  {
   "name":"rsAllocation2DData"
  },
  {
   "name":"rsAllocation2DRead"
  },
  {
   "name":"rsAllocation3DData"
  },
  {
   "name":"rsAllocation3DRead"
  },
  {
   "name":"rsAllocationAdapterCreate"
  },
  {
   "name":"rsAllocationAdapterOffset"
  },
  {
   "name":"rsAllocationCopy2DRange"
  },
  {
   "name":"rsAllocationCopy3DRange"
  },
  {
   "name":"rsAllocationCopyToBitmap"
  },
  {
   "name":"rsAllocationCreateFromBitmap"
  },
  {
   "name":"rsAllocationCreateTyped"
  },
  {
   "name":"rsAllocationCubeCreateFromBitmap"
  },
  {
   "name":"rsAllocationElementData"
  },
  {
   "name":"rsAllocationElementRead"
  },
  {
   "name":"rsAllocationGenerateMipmaps"
  },
  {
   "name":"rsAllocationGetPointer"
  },
  {
   "name":"rsAllocationGetSurface"
  },
  {
   "name":"rsAllocationIoReceive"
  },
  {
   "name":"rsAllocationIoSend"
  },
  {
   "name":"rsAllocationRead"
  },
  {
   "name":"rsAllocationResize1D"
  },
  {
   "name":"rsAllocationSetSurface"
  },
  {
   "name":"rsAllocationSetupBufferQueue"
  },
  {
   "name":"rsAllocationShareBufferQueue"
  },
  {
   "name":"rsAllocationSyncAll"
  },
  {
   "name":"rsAssignName"
  },
  {
   "name":"rsClosureCreate"
  },
  {
   "name":"rsClosureSetArg"
  },
  {
   "name":"rsClosureSetGlobal"
  },
  {
   "name":"rsContextBindFont"
  },
  {
   "name":"rsContextBindProgramFragment"
  },
  {
   "name":"rsContextBindProgramRaster"
  },
  {
   "name":"rsContextBindProgramStore"
  },
  {
   "name":"rsContextBindProgramVertex"
  },
  {
   "name":"rsContextBindRootScript"
  },
  {
   "name":"rsContextCreate"
  },
  {
   "name":"rsContextCreateGL"
  },
  {
   "name":"rsContextCreateVendor"
  },
  {
   "name":"rsContextDeinitToClient"
  },
  {
   "name":"rsContextDestroy"
  },
  {
   "name":"rsContextDestroyWorker"
  },
  {
   "name":"rsContextDump"
  },
  {
   "name":"rsContextFinish"
  },
  {
   "name":"rsContextGetMessage"
  },
  {
   "name":"rsContextInitToClient"
  },
  {
   "name":"rsContextPause"
  },
  {
   "name":"rsContextPeekMessage"
  },
  {
   "name":"rsContextResume"
  },
  {
   "name":"rsContextSendMessage"
  },
  {
   "name":"rsContextSetCacheDir"
  },
  {
   "name":"rsContextSetPriority"
  },
  {
   "name":"rsContextSetSurface"
  },
  {
   "name":"rsDeviceCreate"
  },
  {
   "name":"rsDeviceDestroy"
  },
  {
   "name":"rsDeviceSetConfig"
  },
  {
   "name":"rsElementCreate"
  },
  {
   "name":"rsElementCreate2"
  },
  {
   "name":"rsFontCreateFromFile"
  },
  {
   "name":"rsFontCreateFromMemory"
  },
  {
   "name":"rsInvokeClosureCreate"
  },
  {
   "name":"rsMeshCreate"
  },
  {
   "name":"rsObjDestroy"
  },
  {
   "name":"rsProgramBindConstants"
  },
  {
   "name":"rsProgramBindSampler"
  },
  {
   "name":"rsProgramBindTexture"
  },
  {
   "name":"rsProgramFragmentCreate"
  },
  {
   "name":"rsProgramRasterCreate"
  },
  {
   "name":"rsProgramStoreCreate"
  },
  {
   "name":"rsProgramVertexCreate"
  },
  {
   "name":"rsSamplerCreate"
  },
  {
   "name":"rsScriptBindAllocation"
  },
  {
   "name":"rsScriptCCreate"
  },
  {
   "name":"rsScriptFieldIDCreate"
  },
  {
   "name":"rsScriptForEach"
  },
  {
   "name":"rsScriptForEachMulti"
  },
  {
   "name":"rsScriptGetVarV"
  },
  {
   "name":"rsScriptGroup2Create"
  },
  {
   "name":"rsScriptGroupCreate"
  },
  {
   "name":"rsScriptGroupExecute"
  },
  {
   "name":"rsScriptGroupSetInput"
  },
  {
   "name":"rsScriptGroupSetOutput"
  },
  {
   "name":"rsScriptIntrinsicCreate"
  },
  {
   "name":"rsScriptInvoke"
  },
  {
   "name":"rsScriptInvokeIDCreate"
  },
  {
   "name":"rsScriptInvokeV"
  },
  {
   "name":"rsScriptKernelIDCreate"
  },
  {
   "name":"rsScriptReduce"
  },
  {
   "name":"rsScriptSetTimeZone"
  },
  {
   "name":"rsScriptSetVarD"
  },
  {
   "name":"rsScriptSetVarF"
  },
  {
   "name":"rsScriptSetVarI"
  },
  {
   "name":"rsScriptSetVarJ"
  },
  {
   "name":"rsScriptSetVarObj"
  },
  {
   "name":"rsScriptSetVarV"
  },
  {
   "name":"rsScriptSetVarVE"
  },
  {
   "name":"rsTypeCreate"
  },
  {
   "name":"rsTypeCreate2"
  },
  {
   "name":"rsaAllocationGetType"
  },
  {
   "name":"rsaContextSetNativeLibDir"
  },
  {
   "name":"rsaElementGetNativeData"
  },
  {
   "name":"rsaElementGetSubElements"
  },
  {
   "name":"rsaGetName"
  },
  {
   "name":"rsaTypeGetNativeData"
  }
 ],
 "elf_objects":[
  {
   "name":"_ZN7android12renderscript10ObjectBase16gObjectInitMutexE"
  },
  {
   "name":"_ZN7android12renderscript14gPlaybackFuncsE"
  },
  {
   "name":"_ZN7android12renderscript7Context10gInitMutexE"
  },
  {
   "name":"_ZN7android12renderscript7Context13gMessageMutexE"
  },
  {
   "name":"_ZN7android12renderscript7Context9gLibMutexE"
  },
  {
   "binding":"weak",
   "name":"_ZTTNSt3__118basic_stringstreamIcNS_11char_traitsIcEENS_9allocatorIcEEEE"
  },
  {
   "binding":"weak",
   "name":"_ZTVN7android12SortedVectorINS_16key_value_pair_tIjPNS_12renderscript4Font15CachedGlyphInfoEEEEE"
  },
  {
   "name":"_ZTVN7android12renderscript10AllocationE"
  },
  {
   "name":"_ZTVN7android12renderscript10FifoSocketE"
  },
  {
   "name":"_ZTVN7android12renderscript10ObjectBaseE"
  },
  {
   "name":"_ZTVN7android12renderscript11ScriptGroupE"
  },
  {
   "name":"_ZTVN7android12renderscript12ProgramStoreE"
  },
  {
   "name":"_ZTVN7android12renderscript12ScriptGroup2E"
  },
  {
   "name":"_ZTVN7android12renderscript13ProgramRasterE"
  },
  {
   "name":"_ZTVN7android12renderscript13ProgramVertexE"
  },
  {
   "name":"_ZTVN7android12renderscript13ScriptFieldIDE"
  },
  {
   "name":"_ZTVN7android12renderscript14ScriptInvokeIDE"
  },
  {
   "name":"_ZTVN7android12renderscript14ScriptKernelIDE"
  },
  {
   "name":"_ZTVN7android12renderscript15GrallocConsumerE"
  },
  {
   "name":"_ZTVN7android12renderscript15ProgramFragmentE"
  },
  {
   "name":"_ZTVN7android12renderscript15ScriptIntrinsicE"
  },
  {
   "name":"_ZTVN7android12renderscript4FontE"
  },
  {
   "name":"_ZTVN7android12renderscript4MeshE"
  },
  {
   "name":"_ZTVN7android12renderscript4TypeE"
  },
  {
   "name":"_ZTVN7android12renderscript6ScriptE"
  },
  {
   "name":"_ZTVN7android12renderscript7ClosureE"
  },
  {
   "name":"_ZTVN7android12renderscript7ElementE"
  },
  {
   "name":"_ZTVN7android12renderscript7FileA3DE"
  },
  {
   "name":"_ZTVN7android12renderscript7ProgramE"
  },
  {
   "name":"_ZTVN7android12renderscript7SamplerE"
  },
  {
   "name":"_ZTVN7android12renderscript7ScriptCE"
  },
  {
   "binding":"weak",
   "name":"_ZTVNSt3__115basic_stringbufIcNS_11char_traitsIcEENS_9allocatorIcEEEE"
  },
  {
   "binding":"weak",
   "name":"_ZTVNSt3__118basic_stringstreamIcNS_11char_traitsIcEENS_9allocatorIcEEEE"
  }
 ]
}