{
 "record_types":[
  {
   "vtable_components":[
    {
     "kind":"vbase_offset",
     "component_value":72
    },
    {
     "kind":"offset_to_top"
    },
    {
     "kind":"rtti",
     "mangled_component_name":"_ZTIN7android6system3net4netd4V1_08BnHwNetdE"
    },
    {
     "mangled_component_name":"_ZN7android8hardware9BHwBinder8transactEjRKNS0_6ParcelEPS2_jNSt3__18functionIFvRS2_EEE"
    },
    {
     "mangled_component_name":"_ZN7android8hardware9BHwBinder11linkToDeathERKNS_2spINS0_7IBinder14DeathRecipientEEEPvj"
    },
    {
     "mangled_component_name":"_ZN7android8hardware9BHwBinder13unlinkToDeathERKNS_2wpINS0_7IBinder14DeathRecipientEEEPvjPS5_"
    },
    {
     "mangled_component_name":"_ZNK7android8hardware7IBinder13checkSubclassEPKv"
    },
    {
     "mangled_component_name":"_ZN7android8hardware9BHwBinder12attachObjectEPKvPvS4_PFvS3_S4_S4_E"
    },
    {
     "mangled_component_name":"_ZNK7android8hardware9BHwBinder10findObjectEPKv"
    },
    {
     "mangled_component_name":"_ZN7android8hardware9BHwBinder12detachObjectEPKv"
    },
    {
     "mangled_component_name":"_ZN7android8hardware9BHwBinder11localBinderEv"
    },
    {
     "mangled_component_name":"_ZN7android8hardware7IBinder12remoteBinderEv"
    },
    {
     "kind":"complete_dtor_pointer",
     "mangled_component_name":"_ZN7android6system3net4netd4V1_08BnHwNetdD1Ev"
    },
    {
     "kind":"deleting_dtor_pointer",
     "mangled_component_name":"_ZN7android6system3net4netd4V1_08BnHwNetdD0Ev"
    },
    {
     "mangled_component_name":"_ZN7android6system3net4netd4V1_08BnHwNetd10onTransactEjRKNS_8hardware6ParcelEPS6_jNSt3__18functionIFvRS6_EEE"
    },
    {
     "kind":"offset_to_top",
     "component_value":-20
    },
    {
     "kind":"rtti",
     "mangled_component_name":"_ZTIN7android6system3net4netd4V1_08BnHwNetdE"
    },
    {
     "kind":"complete_dtor_pointer",
     "mangled_component_name":"_ZThn20_N7android6system3net4netd4V1_08BnHwNetdD1Ev"
    },
    {
     "kind":"deleting_dtor_pointer",
     "mangled_component_name":"_ZThn20_N7android6system3net4netd4V1_08BnHwNetdD0Ev"
    },
    {
     "kind":"vcall_offset"
    },
    {
     "kind":"vcall_offset"
    },
    {
     "kind":"vcall_offset"
    },
    {
     "kind":"vcall_offset"
    },
    {
     "kind":"vcall_offset",
     "component_value":-72
    },
    {
     "kind":"offset_to_top",
     "component_value":-72
    },
    {
     "kind":"rtti",
     "mangled_component_name":"_ZTIN7android6system3net4netd4V1_08BnHwNetdE"
    },
    {
     "kind":"complete_dtor_pointer",
     "mangled_component_name":"_ZTv0_n12_N7android6system3net4netd4V1_08BnHwNetdD1Ev"
    },
    {
     "kind":"deleting_dtor_pointer",
     "mangled_component_name":"_ZTv0_n12_N7android6system3net4netd4V1_08BnHwNetdD0Ev"
    },
    {
     "mangled_component_name":"_ZN7android7RefBase10onFirstRefEv"
    },
    {
     "mangled_component_name":"_ZN7android7RefBase15onLastStrongRefEPKv"
    },
    {
     "mangled_component_name":"_ZN7android7RefBase20onIncStrongAttemptedEjPKv"
    },
    {
     "mangled_component_name":"_ZN7android7RefBase13onLastWeakRefEPKv"
    }
   ],
   "unique_id":"_ZTSN7android6system3net4netd4V1_08BnHwNetdE"
  },
  {
   "vtable_components":[
    {
     "kind":"vbase_offset",
     "component_value":60
    },
    {
     "kind":"offset_to_top"
    },
    {
     "kind":"rtti",
     "mangled_component_name":"_ZTIN7android6system3net4netd4V1_06BsNetdE"
    },
    {
     "mangled_component_name":"_ZNK7android6system3net4netd4V1_05INetd8isRemoteEv"
    },
    {
     "mangled_component_name":"_ZN7android6system3net4netd4V1_06BsNetd14interfaceChainENSt3__18functionIFvRKNS_8hardware8hidl_vecINS7_11hidl_stringEEEEEE"
    },
    {
     "mangled_component_name":"_ZN7android6system3net4netd4V1_06BsNetd5debugERKNS_8hardware11hidl_handleERKNS5_8hidl_vecINS5_11hidl_stringEEE"
    },
    {
     "mangled_component_name":"_ZN7android6system3net4netd4V1_06BsNetd19interfaceDescriptorENSt3__18functionIFvRKNS_8hardware11hidl_stringEEEE"
    },
    {
     "mangled_component_name":"_ZN7android6system3net4netd4V1_06BsNetd12getHashChainENSt3__18functionIFvRKNS_8hardware8hidl_vecINS7_10hidl_arrayIhLj32EJEEEEEEEE"
    },
    {
     "mangled_component_name":"_ZN7android6system3net4netd4V1_06BsNetd21setHALInstrumentationEv"
    },
    {
     "mangled_component_name":"_ZN7android6system3net4netd4V1_06BsNetd11linkToDeathERKNS_2spINS_8hardware20hidl_death_recipientEEEy"
    },
    {
     "mangled_component_name":"_ZN7android6system3net4netd4V1_06BsNetd4pingEv"
    },
    {
     "mangled_component_name":"_ZN7android6system3net4netd4V1_06BsNetd12getDebugInfoENSt3__18functionIFvRKNS_4hidl4base4V1_09DebugInfoEEEE"
    },
    {
     "mangled_component_name":"_ZN7android6system3net4netd4V1_06BsNetd21notifySyspropsChangedEv"
    },
    {
     "mangled_component_name":"_ZN7android6system3net4netd4V1_06BsNetd13unlinkToDeathERKNS_2spINS_8hardware20hidl_death_recipientEEE"
    },
    {
     "kind":"complete_dtor_pointer",
     "mangled_component_name":"_ZN7android6system3net4netd4V1_06BsNetdD1Ev"
    },
    {
     "kind":"deleting_dtor_pointer",
     "mangled_component_name":"_ZN7android6system3net4netd4V1_06BsNetdD0Ev"
    },
    {
     "mangled_component_name":"_ZN7android6system3net4netd4V1_06BsNetd16createOemNetworkENSt3__18functionIFvyjNS3_5INetd10StatusCodeEEEE"
    },
    {
     "mangled_component_name":"_ZN7android6system3net4netd4V1_06BsNetd17destroyOemNetworkEy"
    },
    {
     "kind":"offset_to_top",
     "component_value":-4
    },
    {
     "kind":"rtti",
     "mangled_component_name":"_ZTIN7android6system3net4netd4V1_06BsNetdE"
    },
    {
     "kind":"complete_dtor_pointer",
     "mangled_component_name":"_ZThn4_N7android6system3net4netd4V1_06BsNetdD1Ev"
    },
    {
     "kind":"deleting_dtor_pointer",
     "mangled_component_name":"_ZThn4_N7android6system3net4netd4V1_06BsNetdD0Ev"
    },
    {
     "kind":"vcall_offset"
    },
    {
     "kind":"vcall_offset"
    },
    {
     "kind":"vcall_offset"
    },
    {
     "kind":"vcall_offset"
    },
    {
     "kind":"vcall_offset",
     "component_value":-60
    },
    {
     "kind":"offset_to_top",
     "component_value":-60
    },
    {
     "kind":"rtti",
     "mangled_component_name":"_ZTIN7android6system3net4netd4V1_06BsNetdE"
    },
    {
     "kind":"complete_dtor_pointer",
     "mangled_component_name":"_ZTv0_n12_N7android6system3net4netd4V1_06BsNetdD1Ev"
    },
    {
     "kind":"deleting_dtor_pointer",
     "mangled_component_name":"_ZTv0_n12_N7android6system3net4netd4V1_06BsNetdD0Ev"
    },
    {
     "mangled_component_name":"_ZN7android7RefBase10onFirstRefEv"
    },
    {
     "mangled_component_name":"_ZN7android7RefBase15onLastStrongRefEPKv"
    },
    {
     "mangled_component_name":"_ZN7android7RefBase20onIncStrongAttemptedEjPKv"
    },
    {
     "mangled_component_name":"_ZN7android7RefBase13onLastWeakRefEPKv"
    }
   ],
   "unique_id":"_ZTSN7android6system3net4netd4V1_06BsNetdE"
  },
  {
   "vtable_components":[
    {
     "kind":"vbase_offset",
     "component_value":84
    },
    {
     "kind":"offset_to_top"
    },
    {
     "kind":"rtti",
     "mangled_component_name":"_ZTIN7android6system3net4netd4V1_08BpHwNetdE"
    },
    {
     "mangled_component_name":"_ZNK7android6system3net4netd4V1_08BpHwNetd8isRemoteEv"
    },
    {
     "mangled_component_name":"_ZN7android6system3net4netd4V1_08BpHwNetd14interfaceChainENSt3__18functionIFvRKNS_8hardware8hidl_vecINS7_11hidl_stringEEEEEE"
    },
    {
     "mangled_component_name":"_ZN7android6system3net4netd4V1_08BpHwNetd5debugERKNS_8hardware11hidl_handleERKNS5_8hidl_vecINS5_11hidl_stringEEE"
    },
    {
     "mangled_component_name":"_ZN7android6system3net4netd4V1_08BpHwNetd19interfaceDescriptorENSt3__18functionIFvRKNS_8hardware11hidl_stringEEEE"
    },
    {
     "mangled_component_name":"_ZN7android6system3net4netd4V1_08BpHwNetd12getHashChainENSt3__18functionIFvRKNS_8hardware8hidl_vecINS7_10hidl_arrayIhLj32EJEEEEEEEE"
    },
    {
     "mangled_component_name":"_ZN7android6system3net4netd4V1_08BpHwNetd21setHALInstrumentationEv"
    },
    {
     "mangled_component_name":"_ZN7android6system3net4netd4V1_08BpHwNetd11linkToDeathERKNS_2spINS_8hardware20hidl_death_recipientEEEy"
    },
    {
     "mangled_component_name":"_ZN7android6system3net4netd4V1_08BpHwNetd4pingEv"
    },
    {
     "mangled_component_name":"_ZN7android6system3net4netd4V1_08BpHwNetd12getDebugInfoENSt3__18functionIFvRKNS_4hidl4base4V1_09DebugInfoEEEE"
    },
    {
     "mangled_component_name":"_ZN7android6system3net4netd4V1_08BpHwNetd21notifySyspropsChangedEv"
    },
    {
     "mangled_component_name":"_ZN7android6system3net4netd4V1_08BpHwNetd13unlinkToDeathERKNS_2spINS_8hardware20hidl_death_recipientEEE"
    },
    {
     "kind":"complete_dtor_pointer",
     "mangled_component_name":"_ZN7android6system3net4netd4V1_08BpHwNetdD1Ev"
    },
    {
     "kind":"deleting_dtor_pointer",
     "mangled_component_name":"_ZN7android6system3net4netd4V1_08BpHwNetdD0Ev"
    },
    {
     "mangled_component_name":"_ZN7android6system3net4netd4V1_08BpHwNetd16createOemNetworkENSt3__18functionIFvyjNS3_5INetd10StatusCodeEEEE"
    },
    {
     "mangled_component_name":"_ZN7android6system3net4netd4V1_08BpHwNetd17destroyOemNetworkEy"
    },
    {
     "mangled_component_name":"_ZN7android8hardware11BpInterfaceINS_6system3net4netd4V1_05INetdEE10onAsBinderEv"
    },
    {
     "kind":"vbase_offset",
     "component_value":80
    },
    {
     "kind":"offset_to_top",
     "component_value":-4
    },
    {
     "kind":"rtti",
     "mangled_component_name":"_ZTIN7android6system3net4netd4V1_08BpHwNetdE"
    },
    {
     "kind":"complete_dtor_pointer",
     "mangled_component_name":"_ZThn4_N7android6system3net4netd4V1_08BpHwNetdD1Ev"
    },
    {
     "kind":"deleting_dtor_pointer",
     "mangled_component_name":"_ZThn4_N7android6system3net4netd4V1_08BpHwNetdD0Ev"
    },
    {
     "mangled_component_name":"_ZThn4_N7android8hardware11BpInterfaceINS_6system3net4netd4V1_05INetdEE10onAsBinderEv"
    },
    {
     "kind":"vbase_offset",
     "component_value":76
    },
    {
     "kind":"offset_to_top",
     "component_value":-8
    },
    {
     "kind":"rtti",
     "mangled_component_name":"_ZTIN7android6system3net4netd4V1_08BpHwNetdE"
    },
    {
     "kind":"complete_dtor_pointer",
     "mangled_component_name":"_ZThn8_N7android6system3net4netd4V1_08BpHwNetdD1Ev"
    },
    {
     "kind":"deleting_dtor_pointer",
     "mangled_component_name":"_ZThn8_N7android6system3net4netd4V1_08BpHwNetdD0Ev"
    },
    {
     "mangled_component_name":"_ZN7android8hardware11BpHwRefBase10onFirstRefEv"
    },
    {
     "mangled_component_name":"_ZN7android8hardware11BpHwRefBase15onLastStrongRefEPKv"
    },
    {
     "mangled_component_name":"_ZN7android8hardware11BpHwRefBase20onIncStrongAttemptedEjPKv"
    },
    {
     "kind":"offset_to_top",
     "component_value":-24
    },
    {
     "kind":"rtti",
     "mangled_component_name":"_ZTIN7android6system3net4netd4V1_08BpHwNetdE"
    },
    {
     "kind":"complete_dtor_pointer",
     "mangled_component_name":"_ZThn24_N7android6system3net4netd4V1_08BpHwNetdD1Ev"
    },
    {
     "kind":"deleting_dtor_pointer",
     "mangled_component_name":"_ZThn24_N7android6system3net4netd4V1_08BpHwNetdD0Ev"
    },
    {
     "kind":"vcall_offset"
    },
    {
     "kind":"vcall_offset",
     "component_value":-76
    },
    {
     "kind":"vcall_offset",
     "component_value":-76
    },
    {
     "kind":"vcall_offset",
     "component_value":-76
    },
    {
     "kind":"vcall_offset",
     "component_value":-84
    },
    {
     "kind":"offset_to_top",
     "component_value":-84
    },
    {
     "kind":"rtti",
     "mangled_component_name":"_ZTIN7android6system3net4netd4V1_08BpHwNetdE"
    },
    {
     "kind":"complete_dtor_pointer",
     "mangled_component_name":"_ZTv0_n12_N7android6system3net4netd4V1_08BpHwNetdD1Ev"
    },
    {
     "kind":"deleting_dtor_pointer",
     "mangled_component_name":"_ZTv0_n12_N7android6system3net4netd4V1_08BpHwNetdD0Ev"
    },
    {
     "mangled_component_name":"_ZTv0_n16_N7android8hardware11BpHwRefBase10onFirstRefEv"
    },
    {
     "mangled_component_name":"_ZTv0_n20_N7android8hardware11BpHwRefBase15onLastStrongRefEPKv"
    },
    {
     "mangled_component_name":"_ZTv0_n24_N7android8hardware11BpHwRefBase20onIncStrongAttemptedEjPKv"
    },
    {
     "mangled_component_name":"_ZN7android7RefBase13onLastWeakRefEPKv"
    }
   ],
   "unique_id":"_ZTSN7android6system3net4netd4V1_08BpHwNetdE"
  },
  {
   "vtable_components":[
    {
     "kind":"vbase_offset",
     "component_value":4
    },
    {
     "kind":"offset_to_top"
    },
    {
     "kind":"rtti",
     "mangled_component_name":"_ZTIN7android6system3net4netd4V1_05INetdE"
    },
    {
     "mangled_component_name":"_ZNK7android6system3net4netd4V1_05INetd8isRemoteEv"
    },
    {
     "mangled_component_name":"_ZN7android6system3net4netd4V1_05INetd14interfaceChainENSt3__18functionIFvRKNS_8hardware8hidl_vecINS7_11hidl_stringEEEEEE"
    },
    {
     "mangled_component_name":"_ZN7android6system3net4netd4V1_05INetd5debugERKNS_8hardware11hidl_handleERKNS5_8hidl_vecINS5_11hidl_stringEEE"
    },
    {
     "mangled_component_name":"_ZN7android6system3net4netd4V1_05INetd19interfaceDescriptorENSt3__18functionIFvRKNS_8hardware11hidl_stringEEEE"
    },
    {
     "mangled_component_name":"_ZN7android6system3net4netd4V1_05INetd12getHashChainENSt3__18functionIFvRKNS_8hardware8hidl_vecINS7_10hidl_arrayIhLj32EJEEEEEEEE"
    },
    {
     "mangled_component_name":"_ZN7android6system3net4netd4V1_05INetd21setHALInstrumentationEv"
    },
    {
     "mangled_component_name":"_ZN7android6system3net4netd4V1_05INetd11linkToDeathERKNS_2spINS_8hardware20hidl_death_recipientEEEy"
    },
    {
     "mangled_component_name":"_ZN7android6system3net4netd4V1_05INetd4pingEv"
    },
    {
     "mangled_component_name":"_ZN7android6system3net4netd4V1_05INetd12getDebugInfoENSt3__18functionIFvRKNS_4hidl4base4V1_09DebugInfoEEEE"
    },
    {
     "mangled_component_name":"_ZN7android6system3net4netd4V1_05INetd21notifySyspropsChangedEv"
    },
    {
     "mangled_component_name":"_ZN7android6system3net4netd4V1_05INetd13unlinkToDeathERKNS_2spINS_8hardware20hidl_death_recipientEEE"
    },
    {
     "kind":"complete_dtor_pointer",
     "mangled_component_name":"_ZN7android6system3net4netd4V1_05INetdD1Ev"
    },
    {
     "kind":"deleting_dtor_pointer",
     "mangled_component_name":"_ZN7android6system3net4netd4V1_05INetdD0Ev"
    },
    {
     "is_pure":true,
     "mangled_component_name":"_ZN7android6system3net4netd4V1_05INetd16createOemNetworkENSt3__18functionIFvyjNS4_10StatusCodeEEEE"
    },
    {
     "is_pure":true,
     "mangled_component_name":"_ZN7android6system3net4netd4V1_05INetd17destroyOemNetworkEy"
    },
    {
     "kind":"vcall_offset"
    },
    {
     "kind":"vcall_offset"
    },
    {
     "kind":"vcall_offset"
    },
    {
     "kind":"vcall_offset"
    },
    {
     "kind":"vcall_offset",
     "component_value":-4
    },
    {
     "kind":"offset_to_top",
     "component_value":-4
    },
    {
     "kind":"rtti",
     "mangled_component_name":"_ZTIN7android6system3net4netd4V1_05INetdE"
    },
    {
     "kind":"complete_dtor_pointer",
     "mangled_component_name":"_ZTv0_n12_N7android6system3net4netd4V1_05INetdD1Ev"
    },
    {
     "kind":"deleting_dtor_pointer",
     "mangled_component_name":"_ZTv0_n12_N7android6system3net4netd4V1_05INetdD0Ev"
    },
    {
     "mangled_component_name":"_ZN7android7RefBase10onFirstRefEv"
    },
    {
     "mangled_component_name":"_ZN7android7RefBase15onLastStrongRefEPKv"
    },
    {
     "mangled_component_name":"_ZN7android7RefBase20onIncStrongAttemptedEjPKv"
    },
    {
     "mangled_component_name":"_ZN7android7RefBase13onLastWeakRefEPKv"
    }
   ],
   "unique_id":"_ZTSN7android6system3net4netd4V1_05INetdE"
  }
 ],
 "elf_functions":[
  {
   "name":"_ZN7android6system3net4netd4V1_05INetd10getServiceERKNSt3__112basic_stringIcNS5_11char_traitsIcEENS5_9allocatorIcEEEEb"
  },
  {
   "name":"_ZN7android6system3net4netd4V1_05INetd11linkToDeathERKNS_2spINS_8hardware20hidl_death_recipientEEEy"
  },
  {
   "name":"_ZN7android6system3net4netd4V1_05INetd12getDebugInfoENSt3__18functionIFvRKNS_4hidl4base4V1_09DebugInfoEEEE"
  },
  {
   "name":"_ZN7android6system3net4netd4V1_05INetd12getHashChainENSt3__18functionIFvRKNS_8hardware8hidl_vecINS7_10hidl_arrayIhLj32EJEEEEEEEE"
  },
  {
   "name":"_ZN7android6system3net4netd4V1_05INetd13tryGetServiceERKNSt3__112basic_stringIcNS5_11char_traitsIcEENS5_9allocatorIcEEEEb"
  },
  {
   "name":"_ZN7android6system3net4netd4V1_05INetd13unlinkToDeathERKNS_2spINS_8hardware20hidl_death_recipientEEE"
  },
  {
   "name":"_ZN7android6system3net4netd4V1_05INetd14interfaceChainENSt3__18functionIFvRKNS_8hardware8hidl_vecINS7_11hidl_stringEEEEEE"
  },
  {
   "name":"_ZN7android6system3net4netd4V1_05INetd17registerAsServiceERKNSt3__112basic_stringIcNS5_11char_traitsIcEENS5_9allocatorIcEEEE"
  },
  {
   "name":"_ZN7android6system3net4netd4V1_05INetd19interfaceDescriptorENSt3__18functionIFvRKNS_8hardware11hidl_stringEEEE"
  },
  {
   "name":"_ZN7android6system3net4netd4V1_05INetd21notifySyspropsChangedEv"
  },
  {
   "name":"_ZN7android6system3net4netd4V1_05INetd21setHALInstrumentationEv"
  },
  {
   "name":"_ZN7android6system3net4netd4V1_05INetd24registerForNotificationsERKNSt3__112basic_stringIcNS5_11char_traitsIcEENS5_9allocatorIcEEEERKNS_2spINS_4hidl7manager4V1_020IServiceNotificationEEE"
  },
  {
   "name":"_ZN7android6system3net4netd4V1_05INetd4pingEv"
  },
  {
   "name":"_ZN7android6system3net4netd4V1_05INetd5debugERKNS_8hardware11hidl_handleERKNS5_8hidl_vecINS5_11hidl_stringEEE"
  },
  {
   "name":"_ZN7android6system3net4netd4V1_05INetd8castFromERKNS_2spINS_4hidl4base4V1_05IBaseEEEb"
  },
  {
   "name":"_ZN7android6system3net4netd4V1_05INetd8castFromERKNS_2spIS4_EEb"
  },
  {
   "name":"_ZN7android6system3net4netd4V1_06BsNetd13addOnewayTaskENSt3__18functionIFvvEEE"
  },
  {
   "name":"_ZN7android6system3net4netd4V1_06BsNetdC1ENS_2spINS3_5INetdEEE"
  },
  {
   "name":"_ZN7android6system3net4netd4V1_06BsNetdC2ENS_2spINS3_5INetdEEE"
  },
  {
   "name":"_ZN7android6system3net4netd4V1_08BnHwNetd10onTransactEjRKNS_8hardware6ParcelEPS6_jNSt3__18functionIFvRS6_EEE"
  },
  {
   "name":"_ZN7android6system3net4netd4V1_08BnHwNetd12getDebugInfoENSt3__18functionIFvRKNS_4hidl4base4V1_09DebugInfoEEEE"
  },
  {
   "name":"_ZN7android6system3net4netd4V1_08BnHwNetd22_hidl_createOemNetworkEPNS_4hidl4base4V1_08BnHwBaseERKNS_8hardware6ParcelEPSB_NSt3__18functionIFvRSB_EEE"
  },
  {
   "name":"_ZN7android6system3net4netd4V1_08BnHwNetd23_hidl_destroyOemNetworkEPNS_4hidl4base4V1_08BnHwBaseERKNS_8hardware6ParcelEPSB_NSt3__18functionIFvRSB_EEE"
  },
  {
   "name":"_ZN7android6system3net4netd4V1_08BnHwNetd4pingEv"
  },
  {
   "name":"_ZN7android6system3net4netd4V1_08BnHwNetdC1ERKNS_2spINS3_5INetdEEE"
  },
  {
   "name":"_ZN7android6system3net4netd4V1_08BnHwNetdC2ERKNS_2spINS3_5INetdEEE"
  },
  {
   "name":"_ZN7android6system3net4netd4V1_08BnHwNetdD0Ev"
  },
  {
   "name":"_ZN7android6system3net4netd4V1_08BnHwNetdD1Ev"
  },
  {
   "name":"_ZN7android6system3net4netd4V1_08BnHwNetdD2Ev"
  },
  {
   "name":"_ZN7android6system3net4netd4V1_08BpHwNetd11linkToDeathERKNS_2spINS_8hardware20hidl_death_recipientEEEy"
  },
  {
   "name":"_ZN7android6system3net4netd4V1_08BpHwNetd12getDebugInfoENSt3__18functionIFvRKNS_4hidl4base4V1_09DebugInfoEEEE"
  },
  {
   "name":"_ZN7android6system3net4netd4V1_08BpHwNetd12getHashChainENSt3__18functionIFvRKNS_8hardware8hidl_vecINS7_10hidl_arrayIhLj32EJEEEEEEEE"
  },
  {
   "name":"_ZN7android6system3net4netd4V1_08BpHwNetd13unlinkToDeathERKNS_2spINS_8hardware20hidl_death_recipientEEE"
  },
  {
   "name":"_ZN7android6system3net4netd4V1_08BpHwNetd14interfaceChainENSt3__18functionIFvRKNS_8hardware8hidl_vecINS7_11hidl_stringEEEEEE"
  },
  {
   "name":"_ZN7android6system3net4netd4V1_08BpHwNetd16createOemNetworkENSt3__18functionIFvyjNS3_5INetd10StatusCodeEEEE"
  },
  {
   "name":"_ZN7android6system3net4netd4V1_08BpHwNetd17destroyOemNetworkEy"
  },
  {
   "name":"_ZN7android6system3net4netd4V1_08BpHwNetd19interfaceDescriptorENSt3__18functionIFvRKNS_8hardware11hidl_stringEEEE"
  },
  {
   "name":"_ZN7android6system3net4netd4V1_08BpHwNetd21notifySyspropsChangedEv"
  },
  {
   "name":"_ZN7android6system3net4netd4V1_08BpHwNetd21setHALInstrumentationEv"
  },
  {
   "name":"_ZN7android6system3net4netd4V1_08BpHwNetd22_hidl_createOemNetworkEPNS_8hardware10IInterfaceEPNS5_7details16HidlInstrumentorENSt3__18functionIFvyjNS3_5INetd10StatusCodeEEEE"
  },
  {
   "name":"_ZN7android6system3net4netd4V1_08BpHwNetd23_hidl_destroyOemNetworkEPNS_8hardware10IInterfaceEPNS5_7details16HidlInstrumentorEy"
  },
  {
   "name":"_ZN7android6system3net4netd4V1_08BpHwNetd4pingEv"
  },
  {
   "name":"_ZN7android6system3net4netd4V1_08BpHwNetd5debugERKNS_8hardware11hidl_handleERKNS5_8hidl_vecINS5_11hidl_stringEEE"
  },
  {
   "name":"_ZN7android6system3net4netd4V1_08BpHwNetdC1ERKNS_2spINS_8hardware7IBinderEEE"
  },
  {
   "name":"_ZN7android6system3net4netd4V1_08BpHwNetdC2ERKNS_2spINS_8hardware7IBinderEEE"
  },
  {
   "binding":"weak",
   "name":"_ZN7android8hardware7details13castInterfaceINS_6system3net4netd4V1_05INetdENS_4hidl4base4V1_05IBaseENS6_8BpHwNetdEEENS0_6ReturnINS_2spIT_EEEENSE_IT0_EEPKcb"
  },
  {
   "binding":"weak",
   "name":"_ZN7android8hardware7details18getServiceInternalINS_6system3net4netd4V1_08BpHwNetdENS6_5INetdEvvEENS_2spIT0_EERKNSt3__112basic_stringIcNSC_11char_traitsIcEENSC_9allocatorIcEEEEbb"
  },
  {
   "binding":"weak",
   "name":"_ZN7android8hardware8toBinderINS_4hidl4base4V1_05IBaseEvEENS_2spINS0_7IBinderEEENS6_IT_EE"
  },
  {
   "name":"_ZThn20_N7android6system3net4netd4V1_08BnHwNetdD0Ev"
  },
  {
   "name":"_ZThn20_N7android6system3net4netd4V1_08BnHwNetdD1Ev"
  },
  {
   "name":"_ZTv0_n12_N7android6system3net4netd4V1_08BnHwNetdD0Ev"
  },
  {
   "name":"_ZTv0_n12_N7android6system3net4netd4V1_08BnHwNetdD1Ev"
  }
 ],
 "elf_objects":[
  {
   "name":"_ZN7android6system3net4netd4V1_05INetd10descriptorE"
  },
  {
   "name":"_ZTTN7android6system3net4netd4V1_05INetdE"
  },
  {
   "name":"_ZTTN7android6system3net4netd4V1_08BnHwNetdE"
  },
  {
   "name":"_ZTTN7android6system3net4netd4V1_08BpHwNetdE"
  },
  {
   "name":"_ZTVN7android6system3net4netd4V1_05INetdE"
  },
  {
   "binding":"weak",
   "name":"_ZTVN7android6system3net4netd4V1_06BsNetdE"
  },
  {
   "name":"_ZTVN7android6system3net4netd4V1_08BnHwNetdE"
  },
  {
   "name":"_ZTVN7android6system3net4netd4V1_08BpHwNetdE"
  }
 ]
}