{
 "record_types":[
  {
   "vtable_components":[
    {
     "kind":"vbase_offset",
     "component_value":4
    },
    {
     "kind":"offset_to_top"
    },
    {
     "kind":"rtti",
     "mangled_component_name":"_ZTIN7android8hardware3cas6native4V1_012IDescramblerE"
    },
    {
     "mangled_component_name":"_ZNK7android8hardware3cas6native4V1_012IDescrambler8isRemoteEv"
    },
    {
     "mangled_component_name":"_ZN7android8hardware3cas6native4V1_012IDescrambler14interfaceChainENSt3__18functionIFvRKNS0_8hidl_vecINS0_11hidl_stringEEEEEE"
    },
    {
     "mangled_component_name":"_ZN7android8hardware3cas6native4V1_012IDescrambler5debugERKNS0_11hidl_handleERKNS0_8hidl_vecINS0_11hidl_stringEEE"
    },
    {
     "mangled_component_name":"_ZN7android8hardware3cas6native4V1_012IDescrambler19interfaceDescriptorENSt3__18functionIFvRKNS0_11hidl_stringEEEE"
    },
    {
     "mangled_component_name":"_ZN7android8hardware3cas6native4V1_012IDescrambler12getHashChainENSt3__18functionIFvRKNS0_8hidl_vecINS0_10hidl_arrayIhLj32EJEEEEEEEE"
    },
    {
     "mangled_component_name":"_ZN7android8hardware3cas6native4V1_012IDescrambler21setHALInstrumentationEv"
    },
    {
     "mangled_component_name":"_ZN7android8hardware3cas6native4V1_012IDescrambler11linkToDeathERKNS_2spINS0_20hidl_death_recipientEEEy"
    },
    {
     "mangled_component_name":"_ZN7android8hardware3cas6native4V1_012IDescrambler4pingEv"
    },
    {
     "mangled_component_name":"_ZN7android8hardware3cas6native4V1_012IDescrambler12getDebugInfoENSt3__18functionIFvRKNS_4hidl4base4V1_09DebugInfoEEEE"
    },
    {
     "mangled_component_name":"_ZN7android8hardware3cas6native4V1_012IDescrambler21notifySyspropsChangedEv"
    },
    {
     "mangled_component_name":"_ZN7android8hardware3cas6native4V1_012IDescrambler13unlinkToDeathERKNS_2spINS0_20hidl_death_recipientEEE"
    },
    {
     "kind":"complete_dtor_pointer",
     "mangled_component_name":"_ZN7android8hardware3cas6native4V1_012IDescramblerD1Ev"
    },
    {
     "kind":"deleting_dtor_pointer",
     "mangled_component_name":"_ZN7android8hardware3cas6native4V1_012IDescramblerD0Ev"
    },
    {
     "is_pure":true,
     "mangled_component_name":"_ZN7android8hardware3cas6native4V1_012IDescrambler18setMediaCasSessionERKNS0_8hidl_vecIhEE"
    },
    {
     "is_pure":true,
     "mangled_component_name":"_ZN7android8hardware3cas6native4V1_012IDescrambler30requiresSecureDecoderComponentERKNS0_11hidl_stringE"
    },
    {
     "is_pure":true,
     "mangled_component_name":"_ZN7android8hardware3cas6native4V1_012IDescrambler7releaseEv"
    },
    {
     "is_pure":true,
     "mangled_component_name":"_ZN7android8hardware3cas6native4V1_012IDescrambler10descrambleENS3_17ScramblingControlERKNS0_8hidl_vecINS3_9SubSampleEEERKNS3_12SharedBufferEyRKNS3_17DestinationBufferEyNSt3__18functionIFvNS1_4V1_06StatusEjRKNS0_11hidl_stringEEEE"
    },
    {
     "kind":"vcall_offset"
    },
    {
     "kind":"vcall_offset"
    },
    {
     "kind":"vcall_offset"
    },
    {
     "kind":"vcall_offset"
    },
    {
     "kind":"vcall_offset",
     "component_value":-4
    },
    {
     "kind":"offset_to_top",
     "component_value":-4
    },
    {
     "kind":"rtti",
     "mangled_component_name":"_ZTIN7android8hardware3cas6native4V1_012IDescramblerE"
    },
    {
     "kind":"complete_dtor_pointer",
     "mangled_component_name":"_ZTv0_n12_N7android8hardware3cas6native4V1_012IDescramblerD1Ev"
    },
    {
     "kind":"deleting_dtor_pointer",
     "mangled_component_name":"_ZTv0_n12_N7android8hardware3cas6native4V1_012IDescramblerD0Ev"
    },
    {
     "mangled_component_name":"_ZN7android7RefBase10onFirstRefEv"
    },
    {
     "mangled_component_name":"_ZN7android7RefBase15onLastStrongRefEPKv"
    },
    {
     "mangled_component_name":"_ZN7android7RefBase20onIncStrongAttemptedEjPKv"
    },
    {
     "mangled_component_name":"_ZN7android7RefBase13onLastWeakRefEPKv"
    }
   ],
   "unique_id":"_ZTSN7android8hardware3cas6native4V1_012IDescramblerE"
  },
  {
   "vtable_components":[
    {
     "kind":"vbase_offset",
     "component_value":72
    },
    {
     "kind":"offset_to_top"
    },
    {
     "kind":"rtti",
     "mangled_component_name":"_ZTIN7android8hardware3cas6native4V1_015BnHwDescramblerE"
    },
    {
     "mangled_component_name":"_ZN7android8hardware9BHwBinder8transactEjRKNS0_6ParcelEPS2_jNSt3__18functionIFvRS2_EEE"
    },
    {
     "mangled_component_name":"_ZN7android8hardware9BHwBinder11linkToDeathERKNS_2spINS0_7IBinder14DeathRecipientEEEPvj"
    },
    {
     "mangled_component_name":"_ZN7android8hardware9BHwBinder13unlinkToDeathERKNS_2wpINS0_7IBinder14DeathRecipientEEEPvjPS5_"
    },
    {
     "mangled_component_name":"_ZNK7android8hardware7IBinder13checkSubclassEPKv"
    },
    {
     "mangled_component_name":"_ZN7android8hardware9BHwBinder12attachObjectEPKvPvS4_PFvS3_S4_S4_E"
    },
    {
     "mangled_component_name":"_ZNK7android8hardware9BHwBinder10findObjectEPKv"
    },
    {
     "mangled_component_name":"_ZN7android8hardware9BHwBinder12detachObjectEPKv"
    },
    {
     "mangled_component_name":"_ZN7android8hardware9BHwBinder11localBinderEv"
    },
    {
     "mangled_component_name":"_ZN7android8hardware7IBinder12remoteBinderEv"
    },
    {
     "kind":"complete_dtor_pointer",
     "mangled_component_name":"_ZN7android8hardware3cas6native4V1_015BnHwDescramblerD1Ev"
    },
    {
     "kind":"deleting_dtor_pointer",
     "mangled_component_name":"_ZN7android8hardware3cas6native4V1_015BnHwDescramblerD0Ev"
    },
    {
     "mangled_component_name":"_ZN7android8hardware3cas6native4V1_015BnHwDescrambler10onTransactEjRKNS0_6ParcelEPS5_jNSt3__18functionIFvRS5_EEE"
    },
    {
     "kind":"offset_to_top",
     "component_value":-20
    },
    {
     "kind":"rtti",
     "mangled_component_name":"_ZTIN7android8hardware3cas6native4V1_015BnHwDescramblerE"
    },
    {
     "kind":"complete_dtor_pointer",
     "mangled_component_name":"_ZThn20_N7android8hardware3cas6native4V1_015BnHwDescramblerD1Ev"
    },
    {
     "kind":"deleting_dtor_pointer",
     "mangled_component_name":"_ZThn20_N7android8hardware3cas6native4V1_015BnHwDescramblerD0Ev"
    },
    {
     "kind":"vcall_offset"
    },
    {
     "kind":"vcall_offset"
    },
    {
     "kind":"vcall_offset"
    },
    {
     "kind":"vcall_offset"
    },
    {
     "kind":"vcall_offset",
     "component_value":-72
    },
    {
     "kind":"offset_to_top",
     "component_value":-72
    },
    {
     "kind":"rtti",
     "mangled_component_name":"_ZTIN7android8hardware3cas6native4V1_015BnHwDescramblerE"
    },
    {
     "kind":"complete_dtor_pointer",
     "mangled_component_name":"_ZTv0_n12_N7android8hardware3cas6native4V1_015BnHwDescramblerD1Ev"
    },
    {
     "kind":"deleting_dtor_pointer",
     "mangled_component_name":"_ZTv0_n12_N7android8hardware3cas6native4V1_015BnHwDescramblerD0Ev"
    },
    {
     "mangled_component_name":"_ZN7android7RefBase10onFirstRefEv"
    },
    {
     "mangled_component_name":"_ZN7android7RefBase15onLastStrongRefEPKv"
    },
    {
     "mangled_component_name":"_ZN7android7RefBase20onIncStrongAttemptedEjPKv"
    },
    {
     "mangled_component_name":"_ZN7android7RefBase13onLastWeakRefEPKv"
    }
   ],
   "unique_id":"_ZTSN7android8hardware3cas6native4V1_015BnHwDescramblerE"
  },
  {
   "vtable_components":[
    {
     "kind":"vbase_offset",
     "component_value":84
    },
    {
     "kind":"offset_to_top"
    },
    {
     "kind":"rtti",
     "mangled_component_name":"_ZTIN7android8hardware3cas6native4V1_015BpHwDescramblerE"
    },
    {
     "mangled_component_name":"_ZNK7android8hardware3cas6native4V1_015BpHwDescrambler8isRemoteEv"
    },
    {
     "mangled_component_name":"_ZN7android8hardware3cas6native4V1_015BpHwDescrambler14interfaceChainENSt3__18functionIFvRKNS0_8hidl_vecINS0_11hidl_stringEEEEEE"
    },
    {
     "mangled_component_name":"_ZN7android8hardware3cas6native4V1_015BpHwDescrambler5debugERKNS0_11hidl_handleERKNS0_8hidl_vecINS0_11hidl_stringEEE"
    },
    {
     "mangled_component_name":"_ZN7android8hardware3cas6native4V1_015BpHwDescrambler19interfaceDescriptorENSt3__18functionIFvRKNS0_11hidl_stringEEEE"
    },
    {
     "mangled_component_name":"_ZN7android8hardware3cas6native4V1_015BpHwDescrambler12getHashChainENSt3__18functionIFvRKNS0_8hidl_vecINS0_10hidl_arrayIhLj32EJEEEEEEEE"
    },
    {
     "mangled_component_name":"_ZN7android8hardware3cas6native4V1_015BpHwDescrambler21setHALInstrumentationEv"
    },
    {
     "mangled_component_name":"_ZN7android8hardware3cas6native4V1_015BpHwDescrambler11linkToDeathERKNS_2spINS0_20hidl_death_recipientEEEy"
    },
    {
     "mangled_component_name":"_ZN7android8hardware3cas6native4V1_015BpHwDescrambler4pingEv"
    },
    {
     "mangled_component_name":"_ZN7android8hardware3cas6native4V1_015BpHwDescrambler12getDebugInfoENSt3__18functionIFvRKNS_4hidl4base4V1_09DebugInfoEEEE"
    },
    {
     "mangled_component_name":"_ZN7android8hardware3cas6native4V1_015BpHwDescrambler21notifySyspropsChangedEv"
    },
    {
     "mangled_component_name":"_ZN7android8hardware3cas6native4V1_015BpHwDescrambler13unlinkToDeathERKNS_2spINS0_20hidl_death_recipientEEE"
    },
    {
     "kind":"complete_dtor_pointer",
     "mangled_component_name":"_ZN7android8hardware3cas6native4V1_015BpHwDescramblerD1Ev"
    },
    {
     "kind":"deleting_dtor_pointer",
     "mangled_component_name":"_ZN7android8hardware3cas6native4V1_015BpHwDescramblerD0Ev"
    },
    {
     "mangled_component_name":"_ZN7android8hardware3cas6native4V1_015BpHwDescrambler18setMediaCasSessionERKNS0_8hidl_vecIhEE"
    },
    {
     "mangled_component_name":"_ZN7android8hardware3cas6native4V1_015BpHwDescrambler30requiresSecureDecoderComponentERKNS0_11hidl_stringE"
    },
    {
     "mangled_component_name":"_ZN7android8hardware3cas6native4V1_015BpHwDescrambler7releaseEv"
    },
    {
     "mangled_component_name":"_ZN7android8hardware3cas6native4V1_015BpHwDescrambler10descrambleENS3_17ScramblingControlERKNS0_8hidl_vecINS3_9SubSampleEEERKNS3_12SharedBufferEyRKNS3_17DestinationBufferEyNSt3__18functionIFvNS1_4V1_06StatusEjRKNS0_11hidl_stringEEEE"
    },
    {
     "mangled_component_name":"_ZN7android8hardware11BpInterfaceINS0_3cas6native4V1_012IDescramblerEE10onAsBinderEv"
    },
    {
     "kind":"vbase_offset",
     "component_value":80
    },
    {
     "kind":"offset_to_top",
     "component_value":-4
    },
    {
     "kind":"rtti",
     "mangled_component_name":"_ZTIN7android8hardware3cas6native4V1_015BpHwDescramblerE"
    },
    {
     "kind":"complete_dtor_pointer",
     "mangled_component_name":"_ZThn4_N7android8hardware3cas6native4V1_015BpHwDescramblerD1Ev"
    },
    {
     "kind":"deleting_dtor_pointer",
     "mangled_component_name":"_ZThn4_N7android8hardware3cas6native4V1_015BpHwDescramblerD0Ev"
    },
    {
     "mangled_component_name":"_ZThn4_N7android8hardware11BpInterfaceINS0_3cas6native4V1_012IDescramblerEE10onAsBinderEv"
    },
    {
     "kind":"vbase_offset",
     "component_value":76
    },
    {
     "kind":"offset_to_top",
     "component_value":-8
    },
    {
     "kind":"rtti",
     "mangled_component_name":"_ZTIN7android8hardware3cas6native4V1_015BpHwDescramblerE"
    },
    {
     "kind":"complete_dtor_pointer",
     "mangled_component_name":"_ZThn8_N7android8hardware3cas6native4V1_015BpHwDescramblerD1Ev"
    },
    {
     "kind":"deleting_dtor_pointer",
     "mangled_component_name":"_ZThn8_N7android8hardware3cas6native4V1_015BpHwDescramblerD0Ev"
    },
    {
     "mangled_component_name":"_ZN7android8hardware11BpHwRefBase10onFirstRefEv"
    },
    {
     "mangled_component_name":"_ZN7android8hardware11BpHwRefBase15onLastStrongRefEPKv"
    },
    {
     "mangled_component_name":"_ZN7android8hardware11BpHwRefBase20onIncStrongAttemptedEjPKv"
    },
    {
     "kind":"offset_to_top",
     "component_value":-24
    },
    {
     "kind":"rtti",
     "mangled_component_name":"_ZTIN7android8hardware3cas6native4V1_015BpHwDescramblerE"
    },
    {
     "kind":"complete_dtor_pointer",
     "mangled_component_name":"_ZThn24_N7android8hardware3cas6native4V1_015BpHwDescramblerD1Ev"
    },
    {
     "kind":"deleting_dtor_pointer",
     "mangled_component_name":"_ZThn24_N7android8hardware3cas6native4V1_015BpHwDescramblerD0Ev"
    },
    {
     "kind":"vcall_offset"
    },
    {
     "kind":"vcall_offset",
     "component_value":-76
    },
    {
     "kind":"vcall_offset",
     "component_value":-76
    },
    {
     "kind":"vcall_offset",
     "component_value":-76
    },
    {
     "kind":"vcall_offset",
     "component_value":-84
    },
    {
     "kind":"offset_to_top",
     "component_value":-84
    },
    {
     "kind":"rtti",
     "mangled_component_name":"_ZTIN7android8hardware3cas6native4V1_015BpHwDescramblerE"
    },
    {
     "kind":"complete_dtor_pointer",
     "mangled_component_name":"_ZTv0_n12_N7android8hardware3cas6native4V1_015BpHwDescramblerD1Ev"
    },
    {
     "kind":"deleting_dtor_pointer",
     "mangled_component_name":"_ZTv0_n12_N7android8hardware3cas6native4V1_015BpHwDescramblerD0Ev"
    },
    {
     "mangled_component_name":"_ZTv0_n16_N7android8hardware11BpHwRefBase10onFirstRefEv"
    },
    {
     "mangled_component_name":"_ZTv0_n20_N7android8hardware11BpHwRefBase15onLastStrongRefEPKv"
    },
    {
     "mangled_component_name":"_ZTv0_n24_N7android8hardware11BpHwRefBase20onIncStrongAttemptedEjPKv"
    },
    {
     "mangled_component_name":"_ZN7android7RefBase13onLastWeakRefEPKv"
    }
   ],
   "unique_id":"_ZTSN7android8hardware3cas6native4V1_015BpHwDescramblerE"
  },
  {
   "vtable_components":[
    {
     "kind":"vbase_offset",
     "component_value":60
    },
    {
     "kind":"offset_to_top"
    },
    {
     "kind":"rtti",
     "mangled_component_name":"_ZTIN7android8hardware3cas6native4V1_013BsDescramblerE"
    },
    {
     "mangled_component_name":"_ZNK7android8hardware3cas6native4V1_012IDescrambler8isRemoteEv"
    },
    {
     "mangled_component_name":"_ZN7android8hardware3cas6native4V1_013BsDescrambler14interfaceChainENSt3__18functionIFvRKNS0_8hidl_vecINS0_11hidl_stringEEEEEE"
    },
    {
     "mangled_component_name":"_ZN7android8hardware3cas6native4V1_013BsDescrambler5debugERKNS0_11hidl_handleERKNS0_8hidl_vecINS0_11hidl_stringEEE"
    },
    {
     "mangled_component_name":"_ZN7android8hardware3cas6native4V1_013BsDescrambler19interfaceDescriptorENSt3__18functionIFvRKNS0_11hidl_stringEEEE"
    },
    {
     "mangled_component_name":"_ZN7android8hardware3cas6native4V1_013BsDescrambler12getHashChainENSt3__18functionIFvRKNS0_8hidl_vecINS0_10hidl_arrayIhLj32EJEEEEEEEE"
    },
    {
     "mangled_component_name":"_ZN7android8hardware3cas6native4V1_013BsDescrambler21setHALInstrumentationEv"
    },
    {
     "mangled_component_name":"_ZN7android8hardware3cas6native4V1_013BsDescrambler11linkToDeathERKNS_2spINS0_20hidl_death_recipientEEEy"
    },
    {
     "mangled_component_name":"_ZN7android8hardware3cas6native4V1_013BsDescrambler4pingEv"
    },
    {
     "mangled_component_name":"_ZN7android8hardware3cas6native4V1_013BsDescrambler12getDebugInfoENSt3__18functionIFvRKNS_4hidl4base4V1_09DebugInfoEEEE"
    },
    {
     "mangled_component_name":"_ZN7android8hardware3cas6native4V1_013BsDescrambler21notifySyspropsChangedEv"
    },
    {
     "mangled_component_name":"_ZN7android8hardware3cas6native4V1_013BsDescrambler13unlinkToDeathERKNS_2spINS0_20hidl_death_recipientEEE"
    },
    {
     "kind":"complete_dtor_pointer",
     "mangled_component_name":"_ZN7android8hardware3cas6native4V1_013BsDescramblerD1Ev"
    },
    {
     "kind":"deleting_dtor_pointer",
     "mangled_component_name":"_ZN7android8hardware3cas6native4V1_013BsDescramblerD0Ev"
    },
    {
     "mangled_component_name":"_ZN7android8hardware3cas6native4V1_013BsDescrambler18setMediaCasSessionERKNS0_8hidl_vecIhEE"
    },
    {
     "mangled_component_name":"_ZN7android8hardware3cas6native4V1_013BsDescrambler30requiresSecureDecoderComponentERKNS0_11hidl_stringE"
    },
    {
     "mangled_component_name":"_ZN7android8hardware3cas6native4V1_013BsDescrambler7releaseEv"
    },
    {
     "mangled_component_name":"_ZN7android8hardware3cas6native4V1_013BsDescrambler10descrambleENS3_17ScramblingControlERKNS0_8hidl_vecINS3_9SubSampleEEERKNS3_12SharedBufferEyRKNS3_17DestinationBufferEyNSt3__18functionIFvNS1_4V1_06StatusEjRKNS0_11hidl_stringEEEE"
    },
    {
     "kind":"offset_to_top",
     "component_value":-4
    },
    {
     "kind":"rtti",
     "mangled_component_name":"_ZTIN7android8hardware3cas6native4V1_013BsDescramblerE"
    },
    {
     "kind":"complete_dtor_pointer",
     "mangled_component_name":"_ZThn4_N7android8hardware3cas6native4V1_013BsDescramblerD1Ev"
    },
    {
     "kind":"deleting_dtor_pointer",
     "mangled_component_name":"_ZThn4_N7android8hardware3cas6native4V1_013BsDescramblerD0Ev"
    },
    {
     "kind":"vcall_offset"
    },
    {
     "kind":"vcall_offset"
    },
    {
     "kind":"vcall_offset"
    },
    {
     "kind":"vcall_offset"
    },
    {
     "kind":"vcall_offset",
     "component_value":-60
    },
    {
     "kind":"offset_to_top",
     "component_value":-60
    },
    {
     "kind":"rtti",
     "mangled_component_name":"_ZTIN7android8hardware3cas6native4V1_013BsDescramblerE"
    },
    {
     "kind":"complete_dtor_pointer",
     "mangled_component_name":"_ZTv0_n12_N7android8hardware3cas6native4V1_013BsDescramblerD1Ev"
    },
    {
     "kind":"deleting_dtor_pointer",
     "mangled_component_name":"_ZTv0_n12_N7android8hardware3cas6native4V1_013BsDescramblerD0Ev"
    },
    {
     "mangled_component_name":"_ZN7android7RefBase10onFirstRefEv"
    },
    {
     "mangled_component_name":"_ZN7android7RefBase15onLastStrongRefEPKv"
    },
    {
     "mangled_component_name":"_ZN7android7RefBase20onIncStrongAttemptedEjPKv"
    },
    {
     "mangled_component_name":"_ZN7android7RefBase13onLastWeakRefEPKv"
    }
   ],
   "unique_id":"_ZTSN7android8hardware3cas6native4V1_013BsDescramblerE"
  }
 ],
 "elf_functions":[
  {
   "name":"_ZN7android8hardware3cas6native4V1_012IDescrambler10getServiceERKNSt3__112basic_stringIcNS5_11char_traitsIcEENS5_9allocatorIcEEEEb"
  },
  {
   "name":"_ZN7android8hardware3cas6native4V1_012IDescrambler11linkToDeathERKNS_2spINS0_20hidl_death_recipientEEEy"
  },
  {
   "name":"_ZN7android8hardware3cas6native4V1_012IDescrambler12getDebugInfoENSt3__18functionIFvRKNS_4hidl4base4V1_09DebugInfoEEEE"
  },
  {
   "name":"_ZN7android8hardware3cas6native4V1_012IDescrambler12getHashChainENSt3__18functionIFvRKNS0_8hidl_vecINS0_10hidl_arrayIhLj32EJEEEEEEEE"
  },
  {
   "name":"_ZN7android8hardware3cas6native4V1_012IDescrambler13tryGetServiceERKNSt3__112basic_stringIcNS5_11char_traitsIcEENS5_9allocatorIcEEEEb"
  },
  {
   "name":"_ZN7android8hardware3cas6native4V1_012IDescrambler13unlinkToDeathERKNS_2spINS0_20hidl_death_recipientEEE"
  },
  {
   "name":"_ZN7android8hardware3cas6native4V1_012IDescrambler14interfaceChainENSt3__18functionIFvRKNS0_8hidl_vecINS0_11hidl_stringEEEEEE"
  },
  {
   "name":"_ZN7android8hardware3cas6native4V1_012IDescrambler17registerAsServiceERKNSt3__112basic_stringIcNS5_11char_traitsIcEENS5_9allocatorIcEEEE"
  },
  {
   "name":"_ZN7android8hardware3cas6native4V1_012IDescrambler19interfaceDescriptorENSt3__18functionIFvRKNS0_11hidl_stringEEEE"
  },
  {
   "name":"_ZN7android8hardware3cas6native4V1_012IDescrambler21notifySyspropsChangedEv"
  },
  {
   "name":"_ZN7android8hardware3cas6native4V1_012IDescrambler21setHALInstrumentationEv"
  },
  {
   "name":"_ZN7android8hardware3cas6native4V1_012IDescrambler24registerForNotificationsERKNSt3__112basic_stringIcNS5_11char_traitsIcEENS5_9allocatorIcEEEERKNS_2spINS_4hidl7manager4V1_020IServiceNotificationEEE"
  },
  {
   "name":"_ZN7android8hardware3cas6native4V1_012IDescrambler4pingEv"
  },
  {
   "name":"_ZN7android8hardware3cas6native4V1_012IDescrambler5debugERKNS0_11hidl_handleERKNS0_8hidl_vecINS0_11hidl_stringEEE"
  },
  {
   "name":"_ZN7android8hardware3cas6native4V1_012IDescrambler8castFromERKNS_2spINS1_4V1_016IDescramblerBaseEEEb"
  },
  {
   "name":"_ZN7android8hardware3cas6native4V1_012IDescrambler8castFromERKNS_2spINS_4hidl4base4V1_05IBaseEEEb"
  },
  {
   "name":"_ZN7android8hardware3cas6native4V1_012IDescrambler8castFromERKNS_2spIS4_EEb"
  },
  {
   "name":"_ZN7android8hardware3cas6native4V1_013BsDescrambler13addOnewayTaskENSt3__18functionIFvvEEE"
  },
  {
   "name":"_ZN7android8hardware3cas6native4V1_013BsDescramblerC1ENS_2spINS3_12IDescramblerEEE"
  },
  {
   "name":"_ZN7android8hardware3cas6native4V1_013BsDescramblerC2ENS_2spINS3_12IDescramblerEEE"
  },
  {
   "name":"_ZN7android8hardware3cas6native4V1_015BnHwDescrambler10onTransactEjRKNS0_6ParcelEPS5_jNSt3__18functionIFvRS5_EEE"
  },
  {
   "name":"_ZN7android8hardware3cas6native4V1_015BnHwDescrambler12getDebugInfoENSt3__18functionIFvRKNS_4hidl4base4V1_09DebugInfoEEEE"
  },
  {
   "name":"_ZN7android8hardware3cas6native4V1_015BnHwDescrambler16_hidl_descrambleEPNS_4hidl4base4V1_08BnHwBaseERKNS0_6ParcelEPSA_NSt3__18functionIFvRSA_EEE"
  },
  {
   "name":"_ZN7android8hardware3cas6native4V1_015BnHwDescrambler4pingEv"
  },
  {
   "name":"_ZN7android8hardware3cas6native4V1_015BnHwDescramblerC1ERKNS_2spINS3_12IDescramblerEEE"
  },
  {
   "name":"_ZN7android8hardware3cas6native4V1_015BnHwDescramblerC2ERKNS_2spINS3_12IDescramblerEEE"
  },
  {
   "name":"_ZN7android8hardware3cas6native4V1_015BnHwDescramblerD0Ev"
  },
  {
   "name":"_ZN7android8hardware3cas6native4V1_015BnHwDescramblerD1Ev"
  },
  {
   "name":"_ZN7android8hardware3cas6native4V1_015BnHwDescramblerD2Ev"
  },
  {
   "name":"_ZN7android8hardware3cas6native4V1_015BpHwDescrambler10descrambleENS3_17ScramblingControlERKNS0_8hidl_vecINS3_9SubSampleEEERKNS3_12SharedBufferEyRKNS3_17DestinationBufferEyNSt3__18functionIFvNS1_4V1_06StatusEjRKNS0_11hidl_stringEEEE"
  },
  {
   "name":"_ZN7android8hardware3cas6native4V1_015BpHwDescrambler11linkToDeathERKNS_2spINS0_20hidl_death_recipientEEEy"
  },
  {
   "name":"_ZN7android8hardware3cas6native4V1_015BpHwDescrambler12getDebugInfoENSt3__18functionIFvRKNS_4hidl4base4V1_09DebugInfoEEEE"
  },
  {
   "name":"_ZN7android8hardware3cas6native4V1_015BpHwDescrambler12getHashChainENSt3__18functionIFvRKNS0_8hidl_vecINS0_10hidl_arrayIhLj32EJEEEEEEEE"
  },
  {
   "name":"_ZN7android8hardware3cas6native4V1_015BpHwDescrambler13unlinkToDeathERKNS_2spINS0_20hidl_death_recipientEEE"
  },
  {
   "name":"_ZN7android8hardware3cas6native4V1_015BpHwDescrambler14interfaceChainENSt3__18functionIFvRKNS0_8hidl_vecINS0_11hidl_stringEEEEEE"
  },
  {
   "name":"_ZN7android8hardware3cas6native4V1_015BpHwDescrambler16_hidl_descrambleEPNS0_10IInterfaceEPNS0_7details16HidlInstrumentorENS3_17ScramblingControlERKNS0_8hidl_vecINS3_9SubSampleEEERKNS3_12SharedBufferEyRKNS3_17DestinationBufferEyNSt3__18functionIFvNS1_4V1_06StatusEjRKNS0_11hidl_stringEEEE"
  },
  {
   "name":"_ZN7android8hardware3cas6native4V1_015BpHwDescrambler18setMediaCasSessionERKNS0_8hidl_vecIhEE"
  },
  {
   "name":"_ZN7android8hardware3cas6native4V1_015BpHwDescrambler19interfaceDescriptorENSt3__18functionIFvRKNS0_11hidl_stringEEEE"
  },
  {
   "name":"_ZN7android8hardware3cas6native4V1_015BpHwDescrambler21notifySyspropsChangedEv"
  },
  {
   "name":"_ZN7android8hardware3cas6native4V1_015BpHwDescrambler21setHALInstrumentationEv"
  },
  {
   "name":"_ZN7android8hardware3cas6native4V1_015BpHwDescrambler30requiresSecureDecoderComponentERKNS0_11hidl_stringE"
  },
  {
   "name":"_ZN7android8hardware3cas6native4V1_015BpHwDescrambler4pingEv"
  },
  {
   "name":"_ZN7android8hardware3cas6native4V1_015BpHwDescrambler5debugERKNS0_11hidl_handleERKNS0_8hidl_vecINS0_11hidl_stringEEE"
  },
  {
   "name":"_ZN7android8hardware3cas6native4V1_015BpHwDescrambler7releaseEv"
  },
  {
   "name":"_ZN7android8hardware3cas6native4V1_015BpHwDescramblerC1ERKNS_2spINS0_7IBinderEEE"
  },
  {
   "name":"_ZN7android8hardware3cas6native4V1_015BpHwDescramblerC2ERKNS_2spINS0_7IBinderEEE"
  },
  {
   "name":"_ZN7android8hardware3cas6native4V1_021writeEmbeddedToParcelERKNS3_12SharedBufferEPNS0_6ParcelEjj"
  },
  {
   "name":"_ZN7android8hardware3cas6native4V1_021writeEmbeddedToParcelERKNS3_17DestinationBufferEPNS0_6ParcelEjj"
  },
  {
   "name":"_ZN7android8hardware3cas6native4V1_022readEmbeddedFromParcelERKNS3_12SharedBufferERKNS0_6ParcelEjj"
  },
  {
   "name":"_ZN7android8hardware3cas6native4V1_022readEmbeddedFromParcelERKNS3_17DestinationBufferERKNS0_6ParcelEjj"
  },
  {
   "binding":"weak",
   "name":"_ZN7android8hardware7details13castInterfaceINS0_3cas6native4V1_012IDescramblerENS3_4V1_016IDescramblerBaseENS5_15BpHwDescramblerEEENS0_6ReturnINS_2spIT_EEEENSB_IT0_EEPKcb"
  },
  {
   "binding":"weak",
   "name":"_ZN7android8hardware7details13castInterfaceINS0_3cas6native4V1_012IDescramblerENS_4hidl4base4V1_05IBaseENS5_15BpHwDescramblerEEENS0_6ReturnINS_2spIT_EEEENSD_IT0_EEPKcb"
  },
  {
   "binding":"weak",
   "name":"_ZN7android8hardware7details18getServiceInternalINS0_3cas6native4V1_015BpHwDescramblerENS5_12IDescramblerEvvEENS_2spIT0_EERKNSt3__112basic_stringIcNSB_11char_traitsIcEENSB_9allocatorIcEEEEbb"
  },
  {
   "binding":"weak",
   "name":"_ZN7android8hardware8toBinderINS0_3cas4V1_016IDescramblerBaseEvEENS_2spINS0_7IBinderEEENS5_IT_EE"
  },
  {
   "binding":"weak",
   "name":"_ZN7android8hardware8toBinderINS_4hidl4base4V1_05IBaseEvEENS_2spINS0_7IBinderEEENS6_IT_EE"
  },
  {
   "name":"_ZThn20_N7android8hardware3cas6native4V1_015BnHwDescramblerD0Ev"
  },
  {
   "name":"_ZThn20_N7android8hardware3cas6native4V1_015BnHwDescramblerD1Ev"
  },
  {
   "name":"_ZTv0_n12_N7android8hardware3cas6native4V1_015BnHwDescramblerD0Ev"
  },
  {
   "name":"_ZTv0_n12_N7android8hardware3cas6native4V1_015BnHwDescramblerD1Ev"
  }
 ],
 "elf_objects":[
  {
   "name":"_ZN7android8hardware3cas6native4V1_012IDescrambler10descriptorE"
  },
  {
   "name":"_ZTTN7android8hardware3cas6native4V1_012IDescramblerE"
  },
  {
   "name":"_ZTTN7android8hardware3cas6native4V1_015BnHwDescramblerE"
  },
  {
   "name":"_ZTTN7android8hardware3cas6native4V1_015BpHwDescramblerE"
  },
  {
   "name":"_ZTVN7android8hardware3cas6native4V1_012IDescramblerE"
  },
  {
   "binding":"weak",
   "name":"_ZTVN7android8hardware3cas6native4V1_013BsDescramblerE"
  },
  {
   "name":"_ZTVN7android8hardware3cas6native4V1_015BnHwDescramblerE"
  },
  {
   "name":"_ZTVN7android8hardware3cas6native4V1_015BpHwDescramblerE"
  }
 ]
}