{
 "record_types":[
  {
   "vtable_components":[
    {
     "kind":"vbase_offset",
     "component_value":4
    },
    {
     "kind":"offset_to_top"
    },
    {
     "kind":"rtti",
     "mangled_component_name":"_ZTIN7android8hardware3usb6gadget4V1_018IUsbGadgetCallbackE"
    },
    {
     "mangled_component_name":"_ZNK7android8hardware3usb6gadget4V1_018IUsbGadgetCallback8isRemoteEv"
    },
    {
     "mangled_component_name":"_ZN7android8hardware3usb6gadget4V1_018IUsbGadgetCallback14interfaceChainENSt3__18functionIFvRKNS0_8hidl_vecINS0_11hidl_stringEEEEEE"
    },
    {
     "mangled_component_name":"_ZN7android8hardware3usb6gadget4V1_018IUsbGadgetCallback5debugERKNS0_11hidl_handleERKNS0_8hidl_vecINS0_11hidl_stringEEE"
    },
    {
     "mangled_component_name":"_ZN7android8hardware3usb6gadget4V1_018IUsbGadgetCallback19interfaceDescriptorENSt3__18functionIFvRKNS0_11hidl_stringEEEE"
    },
    {
     "mangled_component_name":"_ZN7android8hardware3usb6gadget4V1_018IUsbGadgetCallback12getHashChainENSt3__18functionIFvRKNS0_8hidl_vecINS0_10hidl_arrayIhLj32EJEEEEEEEE"
    },
    {
     "mangled_component_name":"_ZN7android8hardware3usb6gadget4V1_018IUsbGadgetCallback21setHALInstrumentationEv"
    },
    {
     "mangled_component_name":"_ZN7android8hardware3usb6gadget4V1_018IUsbGadgetCallback11linkToDeathERKNS_2spINS0_20hidl_death_recipientEEEy"
    },
    {
     "mangled_component_name":"_ZN7android8hardware3usb6gadget4V1_018IUsbGadgetCallback4pingEv"
    },
    {
     "mangled_component_name":"_ZN7android8hardware3usb6gadget4V1_018IUsbGadgetCallback12getDebugInfoENSt3__18functionIFvRKNS_4hidl4base4V1_09DebugInfoEEEE"
    },
    {
     "mangled_component_name":"_ZN7android8hardware3usb6gadget4V1_018IUsbGadgetCallback21notifySyspropsChangedEv"
    },
    {
     "mangled_component_name":"_ZN7android8hardware3usb6gadget4V1_018IUsbGadgetCallback13unlinkToDeathERKNS_2spINS0_20hidl_death_recipientEEE"
    },
    {
     "kind":"complete_dtor_pointer",
     "mangled_component_name":"_ZN7android8hardware3usb6gadget4V1_018IUsbGadgetCallbackD1Ev"
    },
    {
     "kind":"deleting_dtor_pointer",
     "mangled_component_name":"_ZN7android8hardware3usb6gadget4V1_018IUsbGadgetCallbackD0Ev"
    },
    {
     "is_pure":true,
     "mangled_component_name":"_ZN7android8hardware3usb6gadget4V1_018IUsbGadgetCallback24setCurrentUsbFunctionsCbEyNS3_6StatusE"
    },
    {
     "is_pure":true,
     "mangled_component_name":"_ZN7android8hardware3usb6gadget4V1_018IUsbGadgetCallback24getCurrentUsbFunctionsCbEyNS3_6StatusE"
    },
    {
     "kind":"vcall_offset"
    },
    {
     "kind":"vcall_offset"
    },
    {
     "kind":"vcall_offset"
    },
    {
     "kind":"vcall_offset"
    },
    {
     "kind":"vcall_offset",
     "component_value":-4
    },
    {
     "kind":"offset_to_top",
     "component_value":-4
    },
    {
     "kind":"rtti",
     "mangled_component_name":"_ZTIN7android8hardware3usb6gadget4V1_018IUsbGadgetCallbackE"
    },
    {
     "kind":"complete_dtor_pointer",
     "mangled_component_name":"_ZTv0_n12_N7android8hardware3usb6gadget4V1_018IUsbGadgetCallbackD1Ev"
    },
    {
     "kind":"deleting_dtor_pointer",
     "mangled_component_name":"_ZTv0_n12_N7android8hardware3usb6gadget4V1_018IUsbGadgetCallbackD0Ev"
    },
    {
     "mangled_component_name":"_ZN7android7RefBase10onFirstRefEv"
    },
    {
     "mangled_component_name":"_ZN7android7RefBase15onLastStrongRefEPKv"
    },
    {
     "mangled_component_name":"_ZN7android7RefBase20onIncStrongAttemptedEjPKv"
    },
    {
     "mangled_component_name":"_ZN7android7RefBase13onLastWeakRefEPKv"
    }
   ],
   "unique_id":"_ZTSN7android8hardware3usb6gadget4V1_018IUsbGadgetCallbackE"
  },
  {
   "vtable_components":[
    {
     "kind":"vbase_offset",
     "component_value":84
    },
    {
     "kind":"offset_to_top"
    },
    {
     "kind":"rtti",
     "mangled_component_name":"_ZTIN7android8hardware3usb6gadget4V1_021BpHwUsbGadgetCallbackE"
    },
    {
     "mangled_component_name":"_ZNK7android8hardware3usb6gadget4V1_021BpHwUsbGadgetCallback8isRemoteEv"
    },
    {
     "mangled_component_name":"_ZN7android8hardware3usb6gadget4V1_021BpHwUsbGadgetCallback14interfaceChainENSt3__18functionIFvRKNS0_8hidl_vecINS0_11hidl_stringEEEEEE"
    },
    {
     "mangled_component_name":"_ZN7android8hardware3usb6gadget4V1_021BpHwUsbGadgetCallback5debugERKNS0_11hidl_handleERKNS0_8hidl_vecINS0_11hidl_stringEEE"
    },
    {
     "mangled_component_name":"_ZN7android8hardware3usb6gadget4V1_021BpHwUsbGadgetCallback19interfaceDescriptorENSt3__18functionIFvRKNS0_11hidl_stringEEEE"
    },
    {
     "mangled_component_name":"_ZN7android8hardware3usb6gadget4V1_021BpHwUsbGadgetCallback12getHashChainENSt3__18functionIFvRKNS0_8hidl_vecINS0_10hidl_arrayIhLj32EJEEEEEEEE"
    },
    {
     "mangled_component_name":"_ZN7android8hardware3usb6gadget4V1_021BpHwUsbGadgetCallback21setHALInstrumentationEv"
    },
    {
     "mangled_component_name":"_ZN7android8hardware3usb6gadget4V1_021BpHwUsbGadgetCallback11linkToDeathERKNS_2spINS0_20hidl_death_recipientEEEy"
    },
    {
     "mangled_component_name":"_ZN7android8hardware3usb6gadget4V1_021BpHwUsbGadgetCallback4pingEv"
    },
    {
     "mangled_component_name":"_ZN7android8hardware3usb6gadget4V1_021BpHwUsbGadgetCallback12getDebugInfoENSt3__18functionIFvRKNS_4hidl4base4V1_09DebugInfoEEEE"
    },
    {
     "mangled_component_name":"_ZN7android8hardware3usb6gadget4V1_021BpHwUsbGadgetCallback21notifySyspropsChangedEv"
    },
    {
     "mangled_component_name":"_ZN7android8hardware3usb6gadget4V1_021BpHwUsbGadgetCallback13unlinkToDeathERKNS_2spINS0_20hidl_death_recipientEEE"
    },
    {
     "kind":"complete_dtor_pointer",
     "mangled_component_name":"_ZN7android8hardware3usb6gadget4V1_021BpHwUsbGadgetCallbackD1Ev"
    },
    {
     "kind":"deleting_dtor_pointer",
     "mangled_component_name":"_ZN7android8hardware3usb6gadget4V1_021BpHwUsbGadgetCallbackD0Ev"
    },
    {
     "mangled_component_name":"_ZN7android8hardware3usb6gadget4V1_021BpHwUsbGadgetCallback24setCurrentUsbFunctionsCbEyNS3_6StatusE"
    },
    {
     "mangled_component_name":"_ZN7android8hardware3usb6gadget4V1_021BpHwUsbGadgetCallback24getCurrentUsbFunctionsCbEyNS3_6StatusE"
    },
    {
     "mangled_component_name":"_ZN7android8hardware11BpInterfaceINS0_3usb6gadget4V1_018IUsbGadgetCallbackEE10onAsBinderEv"
    },
    {
     "kind":"vbase_offset",
     "component_value":80
    },
    {
     "kind":"offset_to_top",
     "component_value":-4
    },
    {
     "kind":"rtti",
     "mangled_component_name":"_ZTIN7android8hardware3usb6gadget4V1_021BpHwUsbGadgetCallbackE"
    },
    {
     "kind":"complete_dtor_pointer",
     "mangled_component_name":"_ZThn4_N7android8hardware3usb6gadget4V1_021BpHwUsbGadgetCallbackD1Ev"
    },
    {
     "kind":"deleting_dtor_pointer",
     "mangled_component_name":"_ZThn4_N7android8hardware3usb6gadget4V1_021BpHwUsbGadgetCallbackD0Ev"
    },
    {
     "mangled_component_name":"_ZThn4_N7android8hardware11BpInterfaceINS0_3usb6gadget4V1_018IUsbGadgetCallbackEE10onAsBinderEv"
    },
    {
     "kind":"vbase_offset",
     "component_value":76
    },
    {
     "kind":"offset_to_top",
     "component_value":-8
    },
    {
     "kind":"rtti",
     "mangled_component_name":"_ZTIN7android8hardware3usb6gadget4V1_021BpHwUsbGadgetCallbackE"
    },
    {
     "kind":"complete_dtor_pointer",
     "mangled_component_name":"_ZThn8_N7android8hardware3usb6gadget4V1_021BpHwUsbGadgetCallbackD1Ev"
    },
    {
     "kind":"deleting_dtor_pointer",
     "mangled_component_name":"_ZThn8_N7android8hardware3usb6gadget4V1_021BpHwUsbGadgetCallbackD0Ev"
    },
    {
     "mangled_component_name":"_ZN7android8hardware11BpHwRefBase10onFirstRefEv"
    },
    {
     "mangled_component_name":"_ZN7android8hardware11BpHwRefBase15onLastStrongRefEPKv"
    },
    {
     "mangled_component_name":"_ZN7android8hardware11BpHwRefBase20onIncStrongAttemptedEjPKv"
    },
    {
     "kind":"offset_to_top",
     "component_value":-24
    },
    {
     "kind":"rtti",
     "mangled_component_name":"_ZTIN7android8hardware3usb6gadget4V1_021BpHwUsbGadgetCallbackE"
    },
    {
     "kind":"complete_dtor_pointer",
     "mangled_component_name":"_ZThn24_N7android8hardware3usb6gadget4V1_021BpHwUsbGadgetCallbackD1Ev"
    },
    {
     "kind":"deleting_dtor_pointer",
     "mangled_component_name":"_ZThn24_N7android8hardware3usb6gadget4V1_021BpHwUsbGadgetCallbackD0Ev"
    },
    {
     "kind":"vcall_offset"
    },
    {
     "kind":"vcall_offset",
     "component_value":-76
    },
    {
     "kind":"vcall_offset",
     "component_value":-76
    },
    {
     "kind":"vcall_offset",
     "component_value":-76
    },
    {
     "kind":"vcall_offset",
     "component_value":-84
    },
    {
     "kind":"offset_to_top",
     "component_value":-84
    },
    {
     "kind":"rtti",
     "mangled_component_name":"_ZTIN7android8hardware3usb6gadget4V1_021BpHwUsbGadgetCallbackE"
    },
    {
     "kind":"complete_dtor_pointer",
     "mangled_component_name":"_ZTv0_n12_N7android8hardware3usb6gadget4V1_021BpHwUsbGadgetCallbackD1Ev"
    },
    {
     "kind":"deleting_dtor_pointer",
     "mangled_component_name":"_ZTv0_n12_N7android8hardware3usb6gadget4V1_021BpHwUsbGadgetCallbackD0Ev"
    },
    {
     "mangled_component_name":"_ZTv0_n16_N7android8hardware11BpHwRefBase10onFirstRefEv"
    },
    {
     "mangled_component_name":"_ZTv0_n20_N7android8hardware11BpHwRefBase15onLastStrongRefEPKv"
    },
    {
     "mangled_component_name":"_ZTv0_n24_N7android8hardware11BpHwRefBase20onIncStrongAttemptedEjPKv"
    },
    {
     "mangled_component_name":"_ZN7android7RefBase13onLastWeakRefEPKv"
    }
   ],
   "unique_id":"_ZTSN7android8hardware3usb6gadget4V1_021BpHwUsbGadgetCallbackE"
  },
  {
   "vtable_components":[
    {
     "kind":"vbase_offset",
     "component_value":4
    },
    {
     "kind":"offset_to_top"
    },
    {
     "kind":"rtti",
     "mangled_component_name":"_ZTIN7android8hardware3usb6gadget4V1_010IUsbGadgetE"
    },
    {
     "mangled_component_name":"_ZNK7android8hardware3usb6gadget4V1_010IUsbGadget8isRemoteEv"
    },
    {
     "mangled_component_name":"_ZN7android8hardware3usb6gadget4V1_010IUsbGadget14interfaceChainENSt3__18functionIFvRKNS0_8hidl_vecINS0_11hidl_stringEEEEEE"
    },
    {
     "mangled_component_name":"_ZN7android8hardware3usb6gadget4V1_010IUsbGadget5debugERKNS0_11hidl_handleERKNS0_8hidl_vecINS0_11hidl_stringEEE"
    },
    {
     "mangled_component_name":"_ZN7android8hardware3usb6gadget4V1_010IUsbGadget19interfaceDescriptorENSt3__18functionIFvRKNS0_11hidl_stringEEEE"
    },
    {
     "mangled_component_name":"_ZN7android8hardware3usb6gadget4V1_010IUsbGadget12getHashChainENSt3__18functionIFvRKNS0_8hidl_vecINS0_10hidl_arrayIhLj32EJEEEEEEEE"
    },
    {
     "mangled_component_name":"_ZN7android8hardware3usb6gadget4V1_010IUsbGadget21setHALInstrumentationEv"
    },
    {
     "mangled_component_name":"_ZN7android8hardware3usb6gadget4V1_010IUsbGadget11linkToDeathERKNS_2spINS0_20hidl_death_recipientEEEy"
    },
    {
     "mangled_component_name":"_ZN7android8hardware3usb6gadget4V1_010IUsbGadget4pingEv"
    },
    {
     "mangled_component_name":"_ZN7android8hardware3usb6gadget4V1_010IUsbGadget12getDebugInfoENSt3__18functionIFvRKNS_4hidl4base4V1_09DebugInfoEEEE"
    },
    {
     "mangled_component_name":"_ZN7android8hardware3usb6gadget4V1_010IUsbGadget21notifySyspropsChangedEv"
    },
    {
     "mangled_component_name":"_ZN7android8hardware3usb6gadget4V1_010IUsbGadget13unlinkToDeathERKNS_2spINS0_20hidl_death_recipientEEE"
    },
    {
     "kind":"complete_dtor_pointer",
     "mangled_component_name":"_ZN7android8hardware3usb6gadget4V1_010IUsbGadgetD1Ev"
    },
    {
     "kind":"deleting_dtor_pointer",
     "mangled_component_name":"_ZN7android8hardware3usb6gadget4V1_010IUsbGadgetD0Ev"
    },
    {
     "is_pure":true,
     "mangled_component_name":"_ZN7android8hardware3usb6gadget4V1_010IUsbGadget22setCurrentUsbFunctionsEyRKNS_2spINS3_18IUsbGadgetCallbackEEEy"
    },
    {
     "is_pure":true,
     "mangled_component_name":"_ZN7android8hardware3usb6gadget4V1_010IUsbGadget22getCurrentUsbFunctionsERKNS_2spINS3_18IUsbGadgetCallbackEEE"
    },
    {
     "kind":"vcall_offset"
    },
    {
     "kind":"vcall_offset"
    },
    {
     "kind":"vcall_offset"
    },
    {
     "kind":"vcall_offset"
    },
    {
     "kind":"vcall_offset",
     "component_value":-4
    },
    {
     "kind":"offset_to_top",
     "component_value":-4
    },
    {
     "kind":"rtti",
     "mangled_component_name":"_ZTIN7android8hardware3usb6gadget4V1_010IUsbGadgetE"
    },
    {
     "kind":"complete_dtor_pointer",
     "mangled_component_name":"_ZTv0_n12_N7android8hardware3usb6gadget4V1_010IUsbGadgetD1Ev"
    },
    {
     "kind":"deleting_dtor_pointer",
     "mangled_component_name":"_ZTv0_n12_N7android8hardware3usb6gadget4V1_010IUsbGadgetD0Ev"
    },
    {
     "mangled_component_name":"_ZN7android7RefBase10onFirstRefEv"
    },
    {
     "mangled_component_name":"_ZN7android7RefBase15onLastStrongRefEPKv"
    },
    {
     "mangled_component_name":"_ZN7android7RefBase20onIncStrongAttemptedEjPKv"
    },
    {
     "mangled_component_name":"_ZN7android7RefBase13onLastWeakRefEPKv"
    }
   ],
   "unique_id":"_ZTSN7android8hardware3usb6gadget4V1_010IUsbGadgetE"
  },
  {
   "vtable_components":[
    {
     "kind":"vbase_offset",
     "component_value":72
    },
    {
     "kind":"offset_to_top"
    },
    {
     "kind":"rtti",
     "mangled_component_name":"_ZTIN7android8hardware3usb6gadget4V1_013BnHwUsbGadgetE"
    },
    {
     "mangled_component_name":"_ZN7android8hardware9BHwBinder8transactEjRKNS0_6ParcelEPS2_jNSt3__18functionIFvRS2_EEE"
    },
    {
     "mangled_component_name":"_ZN7android8hardware9BHwBinder11linkToDeathERKNS_2spINS0_7IBinder14DeathRecipientEEEPvj"
    },
    {
     "mangled_component_name":"_ZN7android8hardware9BHwBinder13unlinkToDeathERKNS_2wpINS0_7IBinder14DeathRecipientEEEPvjPS5_"
    },
    {
     "mangled_component_name":"_ZNK7android8hardware7IBinder13checkSubclassEPKv"
    },
    {
     "mangled_component_name":"_ZN7android8hardware9BHwBinder12attachObjectEPKvPvS4_PFvS3_S4_S4_E"
    },
    {
     "mangled_component_name":"_ZNK7android8hardware9BHwBinder10findObjectEPKv"
    },
    {
     "mangled_component_name":"_ZN7android8hardware9BHwBinder12detachObjectEPKv"
    },
    {
     "mangled_component_name":"_ZN7android8hardware9BHwBinder11localBinderEv"
    },
    {
     "mangled_component_name":"_ZN7android8hardware7IBinder12remoteBinderEv"
    },
    {
     "kind":"complete_dtor_pointer",
     "mangled_component_name":"_ZN7android8hardware3usb6gadget4V1_013BnHwUsbGadgetD1Ev"
    },
    {
     "kind":"deleting_dtor_pointer",
     "mangled_component_name":"_ZN7android8hardware3usb6gadget4V1_013BnHwUsbGadgetD0Ev"
    },
    {
     "mangled_component_name":"_ZN7android8hardware3usb6gadget4V1_013BnHwUsbGadget10onTransactEjRKNS0_6ParcelEPS5_jNSt3__18functionIFvRS5_EEE"
    },
    {
     "kind":"offset_to_top",
     "component_value":-20
    },
    {
     "kind":"rtti",
     "mangled_component_name":"_ZTIN7android8hardware3usb6gadget4V1_013BnHwUsbGadgetE"
    },
    {
     "kind":"complete_dtor_pointer",
     "mangled_component_name":"_ZThn20_N7android8hardware3usb6gadget4V1_013BnHwUsbGadgetD1Ev"
    },
    {
     "kind":"deleting_dtor_pointer",
     "mangled_component_name":"_ZThn20_N7android8hardware3usb6gadget4V1_013BnHwUsbGadgetD0Ev"
    },
    {
     "kind":"vcall_offset"
    },
    {
     "kind":"vcall_offset"
    },
    {
     "kind":"vcall_offset"
    },
    {
     "kind":"vcall_offset"
    },
    {
     "kind":"vcall_offset",
     "component_value":-72
    },
    {
     "kind":"offset_to_top",
     "component_value":-72
    },
    {
     "kind":"rtti",
     "mangled_component_name":"_ZTIN7android8hardware3usb6gadget4V1_013BnHwUsbGadgetE"
    },
    {
     "kind":"complete_dtor_pointer",
     "mangled_component_name":"_ZTv0_n12_N7android8hardware3usb6gadget4V1_013BnHwUsbGadgetD1Ev"
    },
    {
     "kind":"deleting_dtor_pointer",
     "mangled_component_name":"_ZTv0_n12_N7android8hardware3usb6gadget4V1_013BnHwUsbGadgetD0Ev"
    },
    {
     "mangled_component_name":"_ZN7android7RefBase10onFirstRefEv"
    },
    {
     "mangled_component_name":"_ZN7android7RefBase15onLastStrongRefEPKv"
    },
    {
     "mangled_component_name":"_ZN7android7RefBase20onIncStrongAttemptedEjPKv"
    },
    {
     "mangled_component_name":"_ZN7android7RefBase13onLastWeakRefEPKv"
    }
   ],
   "unique_id":"_ZTSN7android8hardware3usb6gadget4V1_013BnHwUsbGadgetE"
  },
  {
   "vtable_components":[
    {
     "kind":"vbase_offset",
     "component_value":72
    },
    {
     "kind":"offset_to_top"
    },
    {
     "kind":"rtti",
     "mangled_component_name":"_ZTIN7android8hardware3usb6gadget4V1_021BnHwUsbGadgetCallbackE"
    },
    {
     "mangled_component_name":"_ZN7android8hardware9BHwBinder8transactEjRKNS0_6ParcelEPS2_jNSt3__18functionIFvRS2_EEE"
    },
    {
     "mangled_component_name":"_ZN7android8hardware9BHwBinder11linkToDeathERKNS_2spINS0_7IBinder14DeathRecipientEEEPvj"
    },
    {
     "mangled_component_name":"_ZN7android8hardware9BHwBinder13unlinkToDeathERKNS_2wpINS0_7IBinder14DeathRecipientEEEPvjPS5_"
    },
    {
     "mangled_component_name":"_ZNK7android8hardware7IBinder13checkSubclassEPKv"
    },
    {
     "mangled_component_name":"_ZN7android8hardware9BHwBinder12attachObjectEPKvPvS4_PFvS3_S4_S4_E"
    },
    {
     "mangled_component_name":"_ZNK7android8hardware9BHwBinder10findObjectEPKv"
    },
    {
     "mangled_component_name":"_ZN7android8hardware9BHwBinder12detachObjectEPKv"
    },
    {
     "mangled_component_name":"_ZN7android8hardware9BHwBinder11localBinderEv"
    },
    {
     "mangled_component_name":"_ZN7android8hardware7IBinder12remoteBinderEv"
    },
    {
     "kind":"complete_dtor_pointer",
     "mangled_component_name":"_ZN7android8hardware3usb6gadget4V1_021BnHwUsbGadgetCallbackD1Ev"
    },
    {
     "kind":"deleting_dtor_pointer",
     "mangled_component_name":"_ZN7android8hardware3usb6gadget4V1_021BnHwUsbGadgetCallbackD0Ev"
    },
    {
     "mangled_component_name":"_ZN7android8hardware3usb6gadget4V1_021BnHwUsbGadgetCallback10onTransactEjRKNS0_6ParcelEPS5_jNSt3__18functionIFvRS5_EEE"
    },
    {
     "kind":"offset_to_top",
     "component_value":-20
    },
    {
     "kind":"rtti",
     "mangled_component_name":"_ZTIN7android8hardware3usb6gadget4V1_021BnHwUsbGadgetCallbackE"
    },
    {
     "kind":"complete_dtor_pointer",
     "mangled_component_name":"_ZThn20_N7android8hardware3usb6gadget4V1_021BnHwUsbGadgetCallbackD1Ev"
    },
    {
     "kind":"deleting_dtor_pointer",
     "mangled_component_name":"_ZThn20_N7android8hardware3usb6gadget4V1_021BnHwUsbGadgetCallbackD0Ev"
    },
    {
     "kind":"vcall_offset"
    },
    {
     "kind":"vcall_offset"
    },
    {
     "kind":"vcall_offset"
    },
    {
     "kind":"vcall_offset"
    },
    {
     "kind":"vcall_offset",
     "component_value":-72
    },
    {
     "kind":"offset_to_top",
     "component_value":-72
    },
    {
     "kind":"rtti",
     "mangled_component_name":"_ZTIN7android8hardware3usb6gadget4V1_021BnHwUsbGadgetCallbackE"
    },
    {
     "kind":"complete_dtor_pointer",
     "mangled_component_name":"_ZTv0_n12_N7android8hardware3usb6gadget4V1_021BnHwUsbGadgetCallbackD1Ev"
    },
    {
     "kind":"deleting_dtor_pointer",
     "mangled_component_name":"_ZTv0_n12_N7android8hardware3usb6gadget4V1_021BnHwUsbGadgetCallbackD0Ev"
    },
    {
     "mangled_component_name":"_ZN7android7RefBase10onFirstRefEv"
    },
    {
     "mangled_component_name":"_ZN7android7RefBase15onLastStrongRefEPKv"
    },
    {
     "mangled_component_name":"_ZN7android7RefBase20onIncStrongAttemptedEjPKv"
    },
    {
     "mangled_component_name":"_ZN7android7RefBase13onLastWeakRefEPKv"
    }
   ],
   "unique_id":"_ZTSN7android8hardware3usb6gadget4V1_021BnHwUsbGadgetCallbackE"
  },
  {
   "vtable_components":[
    {
     "kind":"vbase_offset",
     "component_value":60
    },
    {
     "kind":"offset_to_top"
    },
    {
     "kind":"rtti",
     "mangled_component_name":"_ZTIN7android8hardware3usb6gadget4V1_011BsUsbGadgetE"
    },
    {
     "mangled_component_name":"_ZNK7android8hardware3usb6gadget4V1_010IUsbGadget8isRemoteEv"
    },
    {
     "mangled_component_name":"_ZN7android8hardware3usb6gadget4V1_011BsUsbGadget14interfaceChainENSt3__18functionIFvRKNS0_8hidl_vecINS0_11hidl_stringEEEEEE"
    },
    {
     "mangled_component_name":"_ZN7android8hardware3usb6gadget4V1_011BsUsbGadget5debugERKNS0_11hidl_handleERKNS0_8hidl_vecINS0_11hidl_stringEEE"
    },
    {
     "mangled_component_name":"_ZN7android8hardware3usb6gadget4V1_011BsUsbGadget19interfaceDescriptorENSt3__18functionIFvRKNS0_11hidl_stringEEEE"
    },
    {
     "mangled_component_name":"_ZN7android8hardware3usb6gadget4V1_011BsUsbGadget12getHashChainENSt3__18functionIFvRKNS0_8hidl_vecINS0_10hidl_arrayIhLj32EJEEEEEEEE"
    },
    {
     "mangled_component_name":"_ZN7android8hardware3usb6gadget4V1_011BsUsbGadget21setHALInstrumentationEv"
    },
    {
     "mangled_component_name":"_ZN7android8hardware3usb6gadget4V1_011BsUsbGadget11linkToDeathERKNS_2spINS0_20hidl_death_recipientEEEy"
    },
    {
     "mangled_component_name":"_ZN7android8hardware3usb6gadget4V1_011BsUsbGadget4pingEv"
    },
    {
     "mangled_component_name":"_ZN7android8hardware3usb6gadget4V1_011BsUsbGadget12getDebugInfoENSt3__18functionIFvRKNS_4hidl4base4V1_09DebugInfoEEEE"
    },
    {
     "mangled_component_name":"_ZN7android8hardware3usb6gadget4V1_011BsUsbGadget21notifySyspropsChangedEv"
    },
    {
     "mangled_component_name":"_ZN7android8hardware3usb6gadget4V1_011BsUsbGadget13unlinkToDeathERKNS_2spINS0_20hidl_death_recipientEEE"
    },
    {
     "kind":"complete_dtor_pointer",
     "mangled_component_name":"_ZN7android8hardware3usb6gadget4V1_011BsUsbGadgetD1Ev"
    },
    {
     "kind":"deleting_dtor_pointer",
     "mangled_component_name":"_ZN7android8hardware3usb6gadget4V1_011BsUsbGadgetD0Ev"
    },
    {
     "mangled_component_name":"_ZN7android8hardware3usb6gadget4V1_011BsUsbGadget22setCurrentUsbFunctionsEyRKNS_2spINS3_18IUsbGadgetCallbackEEEy"
    },
    {
     "mangled_component_name":"_ZN7android8hardware3usb6gadget4V1_011BsUsbGadget22getCurrentUsbFunctionsERKNS_2spINS3_18IUsbGadgetCallbackEEE"
    },
    {
     "kind":"offset_to_top",
     "component_value":-4
    },
    {
     "kind":"rtti",
     "mangled_component_name":"_ZTIN7android8hardware3usb6gadget4V1_011BsUsbGadgetE"
    },
    {
     "kind":"complete_dtor_pointer",
     "mangled_component_name":"_ZThn4_N7android8hardware3usb6gadget4V1_011BsUsbGadgetD1Ev"
    },
    {
     "kind":"deleting_dtor_pointer",
     "mangled_component_name":"_ZThn4_N7android8hardware3usb6gadget4V1_011BsUsbGadgetD0Ev"
    },
    {
     "kind":"vcall_offset"
    },
    {
     "kind":"vcall_offset"
    },
    {
     "kind":"vcall_offset"
    },
    {
     "kind":"vcall_offset"
    },
    {
     "kind":"vcall_offset",
     "component_value":-60
    },
    {
     "kind":"offset_to_top",
     "component_value":-60
    },
    {
     "kind":"rtti",
     "mangled_component_name":"_ZTIN7android8hardware3usb6gadget4V1_011BsUsbGadgetE"
    },
    {
     "kind":"complete_dtor_pointer",
     "mangled_component_name":"_ZTv0_n12_N7android8hardware3usb6gadget4V1_011BsUsbGadgetD1Ev"
    },
    {
     "kind":"deleting_dtor_pointer",
     "mangled_component_name":"_ZTv0_n12_N7android8hardware3usb6gadget4V1_011BsUsbGadgetD0Ev"
    },
    {
     "mangled_component_name":"_ZN7android7RefBase10onFirstRefEv"
    },
    {
     "mangled_component_name":"_ZN7android7RefBase15onLastStrongRefEPKv"
    },
    {
     "mangled_component_name":"_ZN7android7RefBase20onIncStrongAttemptedEjPKv"
    },
    {
     "mangled_component_name":"_ZN7android7RefBase13onLastWeakRefEPKv"
    }
   ],
   "unique_id":"_ZTSN7android8hardware3usb6gadget4V1_011BsUsbGadgetE"
  },
  {
   "vtable_components":[
    {
     "kind":"vbase_offset",
     "component_value":84
    },
    {
     "kind":"offset_to_top"
    },
    {
     "kind":"rtti",
     "mangled_component_name":"_ZTIN7android8hardware3usb6gadget4V1_013BpHwUsbGadgetE"
    },
    {
     "mangled_component_name":"_ZNK7android8hardware3usb6gadget4V1_013BpHwUsbGadget8isRemoteEv"
    },
    {
     "mangled_component_name":"_ZN7android8hardware3usb6gadget4V1_013BpHwUsbGadget14interfaceChainENSt3__18functionIFvRKNS0_8hidl_vecINS0_11hidl_stringEEEEEE"
    },
    {
     "mangled_component_name":"_ZN7android8hardware3usb6gadget4V1_013BpHwUsbGadget5debugERKNS0_11hidl_handleERKNS0_8hidl_vecINS0_11hidl_stringEEE"
    },
    {
     "mangled_component_name":"_ZN7android8hardware3usb6gadget4V1_013BpHwUsbGadget19interfaceDescriptorENSt3__18functionIFvRKNS0_11hidl_stringEEEE"
    },
    {
     "mangled_component_name":"_ZN7android8hardware3usb6gadget4V1_013BpHwUsbGadget12getHashChainENSt3__18functionIFvRKNS0_8hidl_vecINS0_10hidl_arrayIhLj32EJEEEEEEEE"
    },
    {
     "mangled_component_name":"_ZN7android8hardware3usb6gadget4V1_013BpHwUsbGadget21setHALInstrumentationEv"
    },
    {
     "mangled_component_name":"_ZN7android8hardware3usb6gadget4V1_013BpHwUsbGadget11linkToDeathERKNS_2spINS0_20hidl_death_recipientEEEy"
    },
    {
     "mangled_component_name":"_ZN7android8hardware3usb6gadget4V1_013BpHwUsbGadget4pingEv"
    },
    {
     "mangled_component_name":"_ZN7android8hardware3usb6gadget4V1_013BpHwUsbGadget12getDebugInfoENSt3__18functionIFvRKNS_4hidl4base4V1_09DebugInfoEEEE"
    },
    {
     "mangled_component_name":"_ZN7android8hardware3usb6gadget4V1_013BpHwUsbGadget21notifySyspropsChangedEv"
    },
    {
     "mangled_component_name":"_ZN7android8hardware3usb6gadget4V1_013BpHwUsbGadget13unlinkToDeathERKNS_2spINS0_20hidl_death_recipientEEE"
    },
    {
     "kind":"complete_dtor_pointer",
     "mangled_component_name":"_ZN7android8hardware3usb6gadget4V1_013BpHwUsbGadgetD1Ev"
    },
    {
     "kind":"deleting_dtor_pointer",
     "mangled_component_name":"_ZN7android8hardware3usb6gadget4V1_013BpHwUsbGadgetD0Ev"
    },
    {
     "mangled_component_name":"_ZN7android8hardware3usb6gadget4V1_013BpHwUsbGadget22setCurrentUsbFunctionsEyRKNS_2spINS3_18IUsbGadgetCallbackEEEy"
    },
    {
     "mangled_component_name":"_ZN7android8hardware3usb6gadget4V1_013BpHwUsbGadget22getCurrentUsbFunctionsERKNS_2spINS3_18IUsbGadgetCallbackEEE"
    },
    {
     "mangled_component_name":"_ZN7android8hardware11BpInterfaceINS0_3usb6gadget4V1_010IUsbGadgetEE10onAsBinderEv"
    },
    {
     "kind":"vbase_offset",
     "component_value":80
    },
    {
     "kind":"offset_to_top",
     "component_value":-4
    },
    {
     "kind":"rtti",
     "mangled_component_name":"_ZTIN7android8hardware3usb6gadget4V1_013BpHwUsbGadgetE"
    },
    {
     "kind":"complete_dtor_pointer",
     "mangled_component_name":"_ZThn4_N7android8hardware3usb6gadget4V1_013BpHwUsbGadgetD1Ev"
    },
    {
     "kind":"deleting_dtor_pointer",
     "mangled_component_name":"_ZThn4_N7android8hardware3usb6gadget4V1_013BpHwUsbGadgetD0Ev"
    },
    {
     "mangled_component_name":"_ZThn4_N7android8hardware11BpInterfaceINS0_3usb6gadget4V1_010IUsbGadgetEE10onAsBinderEv"
    },
    {
     "kind":"vbase_offset",
     "component_value":76
    },
    {
     "kind":"offset_to_top",
     "component_value":-8
    },
    {
     "kind":"rtti",
     "mangled_component_name":"_ZTIN7android8hardware3usb6gadget4V1_013BpHwUsbGadgetE"
    },
    {
     "kind":"complete_dtor_pointer",
     "mangled_component_name":"_ZThn8_N7android8hardware3usb6gadget4V1_013BpHwUsbGadgetD1Ev"
    },
    {
     "kind":"deleting_dtor_pointer",
     "mangled_component_name":"_ZThn8_N7android8hardware3usb6gadget4V1_013BpHwUsbGadgetD0Ev"
    },
    {
     "mangled_component_name":"_ZN7android8hardware11BpHwRefBase10onFirstRefEv"
    },
    {
     "mangled_component_name":"_ZN7android8hardware11BpHwRefBase15onLastStrongRefEPKv"
    },
    {
     "mangled_component_name":"_ZN7android8hardware11BpHwRefBase20onIncStrongAttemptedEjPKv"
    },
    {
     "kind":"offset_to_top",
     "component_value":-24
    },
    {
     "kind":"rtti",
     "mangled_component_name":"_ZTIN7android8hardware3usb6gadget4V1_013BpHwUsbGadgetE"
    },
    {
     "kind":"complete_dtor_pointer",
     "mangled_component_name":"_ZThn24_N7android8hardware3usb6gadget4V1_013BpHwUsbGadgetD1Ev"
    },
    {
     "kind":"deleting_dtor_pointer",
     "mangled_component_name":"_ZThn24_N7android8hardware3usb6gadget4V1_013BpHwUsbGadgetD0Ev"
    },
    {
     "kind":"vcall_offset"
    },
    {
     "kind":"vcall_offset",
     "component_value":-76
    },
    {
     "kind":"vcall_offset",
     "component_value":-76
    },
    {
     "kind":"vcall_offset",
     "component_value":-76
    },
    {
     "kind":"vcall_offset",
     "component_value":-84
    },
    {
     "kind":"offset_to_top",
     "component_value":-84
    },
    {
     "kind":"rtti",
     "mangled_component_name":"_ZTIN7android8hardware3usb6gadget4V1_013BpHwUsbGadgetE"
    },
    {
     "kind":"complete_dtor_pointer",
     "mangled_component_name":"_ZTv0_n12_N7android8hardware3usb6gadget4V1_013BpHwUsbGadgetD1Ev"
    },
    {
     "kind":"deleting_dtor_pointer",
     "mangled_component_name":"_ZTv0_n12_N7android8hardware3usb6gadget4V1_013BpHwUsbGadgetD0Ev"
    },
    {
     "mangled_component_name":"_ZTv0_n16_N7android8hardware11BpHwRefBase10onFirstRefEv"
    },
    {
     "mangled_component_name":"_ZTv0_n20_N7android8hardware11BpHwRefBase15onLastStrongRefEPKv"
    },
    {
     "mangled_component_name":"_ZTv0_n24_N7android8hardware11BpHwRefBase20onIncStrongAttemptedEjPKv"
    },
    {
     "mangled_component_name":"_ZN7android7RefBase13onLastWeakRefEPKv"
    }
   ],
   "unique_id":"_ZTSN7android8hardware3usb6gadget4V1_013BpHwUsbGadgetE"
  },
  {
   "vtable_components":[
    {
     "kind":"vbase_offset",
     "component_value":60
    },
    {
     "kind":"offset_to_top"
    },
    {
     "kind":"rtti",
     "mangled_component_name":"_ZTIN7android8hardware3usb6gadget4V1_019BsUsbGadgetCallbackE"
    },
    {
     "mangled_component_name":"_ZNK7android8hardware3usb6gadget4V1_018IUsbGadgetCallback8isRemoteEv"
    },
    {
     "mangled_component_name":"_ZN7android8hardware3usb6gadget4V1_019BsUsbGadgetCallback14interfaceChainENSt3__18functionIFvRKNS0_8hidl_vecINS0_11hidl_stringEEEEEE"
    },
    {
     "mangled_component_name":"_ZN7android8hardware3usb6gadget4V1_019BsUsbGadgetCallback5debugERKNS0_11hidl_handleERKNS0_8hidl_vecINS0_11hidl_stringEEE"
    },
    {
     "mangled_component_name":"_ZN7android8hardware3usb6gadget4V1_019BsUsbGadgetCallback19interfaceDescriptorENSt3__18functionIFvRKNS0_11hidl_stringEEEE"
    },
    {
     "mangled_component_name":"_ZN7android8hardware3usb6gadget4V1_019BsUsbGadgetCallback12getHashChainENSt3__18functionIFvRKNS0_8hidl_vecINS0_10hidl_arrayIhLj32EJEEEEEEEE"
    },
    {
     "mangled_component_name":"_ZN7android8hardware3usb6gadget4V1_019BsUsbGadgetCallback21setHALInstrumentationEv"
    },
    {
     "mangled_component_name":"_ZN7android8hardware3usb6gadget4V1_019BsUsbGadgetCallback11linkToDeathERKNS_2spINS0_20hidl_death_recipientEEEy"
    },
    {
     "mangled_component_name":"_ZN7android8hardware3usb6gadget4V1_019BsUsbGadgetCallback4pingEv"
    },
    {
     "mangled_component_name":"_ZN7android8hardware3usb6gadget4V1_019BsUsbGadgetCallback12getDebugInfoENSt3__18functionIFvRKNS_4hidl4base4V1_09DebugInfoEEEE"
    },
    {
     "mangled_component_name":"_ZN7android8hardware3usb6gadget4V1_019BsUsbGadgetCallback21notifySyspropsChangedEv"
    },
    {
     "mangled_component_name":"_ZN7android8hardware3usb6gadget4V1_019BsUsbGadgetCallback13unlinkToDeathERKNS_2spINS0_20hidl_death_recipientEEE"
    },
    {
     "kind":"complete_dtor_pointer",
     "mangled_component_name":"_ZN7android8hardware3usb6gadget4V1_019BsUsbGadgetCallbackD1Ev"
    },
    {
     "kind":"deleting_dtor_pointer",
     "mangled_component_name":"_ZN7android8hardware3usb6gadget4V1_019BsUsbGadgetCallbackD0Ev"
    },
    {
     "mangled_component_name":"_ZN7android8hardware3usb6gadget4V1_019BsUsbGadgetCallback24setCurrentUsbFunctionsCbEyNS3_6StatusE"
    },
    {
     "mangled_component_name":"_ZN7android8hardware3usb6gadget4V1_019BsUsbGadgetCallback24getCurrentUsbFunctionsCbEyNS3_6StatusE"
    },
    {
     "kind":"offset_to_top",
     "component_value":-4
    },
    {
     "kind":"rtti",
     "mangled_component_name":"_ZTIN7android8hardware3usb6gadget4V1_019BsUsbGadgetCallbackE"
    },
    {
     "kind":"complete_dtor_pointer",
     "mangled_component_name":"_ZThn4_N7android8hardware3usb6gadget4V1_019BsUsbGadgetCallbackD1Ev"
    },
    {
     "kind":"deleting_dtor_pointer",
     "mangled_component_name":"_ZThn4_N7android8hardware3usb6gadget4V1_019BsUsbGadgetCallbackD0Ev"
    },
    {
     "kind":"vcall_offset"
    },
    {
     "kind":"vcall_offset"
    },
    {
     "kind":"vcall_offset"
    },
    {
     "kind":"vcall_offset"
    },
    {
     "kind":"vcall_offset",
     "component_value":-60
    },
    {
     "kind":"offset_to_top",
     "component_value":-60
    },
    {
     "kind":"rtti",
     "mangled_component_name":"_ZTIN7android8hardware3usb6gadget4V1_019BsUsbGadgetCallbackE"
    },
    {
     "kind":"complete_dtor_pointer",
     "mangled_component_name":"_ZTv0_n12_N7android8hardware3usb6gadget4V1_019BsUsbGadgetCallbackD1Ev"
    },
    {
     "kind":"deleting_dtor_pointer",
     "mangled_component_name":"_ZTv0_n12_N7android8hardware3usb6gadget4V1_019BsUsbGadgetCallbackD0Ev"
    },
    {
     "mangled_component_name":"_ZN7android7RefBase10onFirstRefEv"
    },
    {
     "mangled_component_name":"_ZN7android7RefBase15onLastStrongRefEPKv"
    },
    {
     "mangled_component_name":"_ZN7android7RefBase20onIncStrongAttemptedEjPKv"
    },
    {
     "mangled_component_name":"_ZN7android7RefBase13onLastWeakRefEPKv"
    }
   ],
   "unique_id":"_ZTSN7android8hardware3usb6gadget4V1_019BsUsbGadgetCallbackE"
  }
 ],
 "elf_functions":[
  {
   "binding":"weak",
   "name":"_ZN7android8hardware10fromBinderINS0_3usb6gadget4V1_018IUsbGadgetCallbackENS4_21BpHwUsbGadgetCallbackENS4_21BnHwUsbGadgetCallbackEEENS_2spIT_EERKNS8_INS0_7IBinderEEE"
  },
  {
   "name":"_ZN7android8hardware3usb6gadget4V1_010IUsbGadget10getServiceERKNSt3__112basic_stringIcNS5_11char_traitsIcEENS5_9allocatorIcEEEEb"
  },
  {
   "name":"_ZN7android8hardware3usb6gadget4V1_010IUsbGadget11linkToDeathERKNS_2spINS0_20hidl_death_recipientEEEy"
  },
  {
   "name":"_ZN7android8hardware3usb6gadget4V1_010IUsbGadget12getDebugInfoENSt3__18functionIFvRKNS_4hidl4base4V1_09DebugInfoEEEE"
  },
  {
   "name":"_ZN7android8hardware3usb6gadget4V1_010IUsbGadget12getHashChainENSt3__18functionIFvRKNS0_8hidl_vecINS0_10hidl_arrayIhLj32EJEEEEEEEE"
  },
  {
   "name":"_ZN7android8hardware3usb6gadget4V1_010IUsbGadget13tryGetServiceERKNSt3__112basic_stringIcNS5_11char_traitsIcEENS5_9allocatorIcEEEEb"
  },
  {
   "name":"_ZN7android8hardware3usb6gadget4V1_010IUsbGadget13unlinkToDeathERKNS_2spINS0_20hidl_death_recipientEEE"
  },
  {
   "name":"_ZN7android8hardware3usb6gadget4V1_010IUsbGadget14interfaceChainENSt3__18functionIFvRKNS0_8hidl_vecINS0_11hidl_stringEEEEEE"
  },
  {
   "name":"_ZN7android8hardware3usb6gadget4V1_010IUsbGadget17registerAsServiceERKNSt3__112basic_stringIcNS5_11char_traitsIcEENS5_9allocatorIcEEEE"
  },
  {
   "name":"_ZN7android8hardware3usb6gadget4V1_010IUsbGadget19interfaceDescriptorENSt3__18functionIFvRKNS0_11hidl_stringEEEE"
  },
  {
   "name":"_ZN7android8hardware3usb6gadget4V1_010IUsbGadget21notifySyspropsChangedEv"
  },
  {
   "name":"_ZN7android8hardware3usb6gadget4V1_010IUsbGadget21setHALInstrumentationEv"
  },
  {
   "name":"_ZN7android8hardware3usb6gadget4V1_010IUsbGadget24registerForNotificationsERKNSt3__112basic_stringIcNS5_11char_traitsIcEENS5_9allocatorIcEEEERKNS_2spINS_4hidl7manager4V1_020IServiceNotificationEEE"
  },
  {
   "name":"_ZN7android8hardware3usb6gadget4V1_010IUsbGadget4pingEv"
  },
  {
   "name":"_ZN7android8hardware3usb6gadget4V1_010IUsbGadget5debugERKNS0_11hidl_handleERKNS0_8hidl_vecINS0_11hidl_stringEEE"
  },
  {
   "name":"_ZN7android8hardware3usb6gadget4V1_010IUsbGadget8castFromERKNS_2spINS_4hidl4base4V1_05IBaseEEEb"
  },
  {
   "name":"_ZN7android8hardware3usb6gadget4V1_010IUsbGadget8castFromERKNS_2spIS4_EEb"
  },
  {
   "name":"_ZN7android8hardware3usb6gadget4V1_011BsUsbGadget13addOnewayTaskENSt3__18functionIFvvEEE"
  },
  {
   "name":"_ZN7android8hardware3usb6gadget4V1_011BsUsbGadgetC1ENS_2spINS3_10IUsbGadgetEEE"
  },
  {
   "name":"_ZN7android8hardware3usb6gadget4V1_011BsUsbGadgetC2ENS_2spINS3_10IUsbGadgetEEE"
  },
  {
   "name":"_ZN7android8hardware3usb6gadget4V1_013BnHwUsbGadget10onTransactEjRKNS0_6ParcelEPS5_jNSt3__18functionIFvRS5_EEE"
  },
  {
   "name":"_ZN7android8hardware3usb6gadget4V1_013BnHwUsbGadget12getDebugInfoENSt3__18functionIFvRKNS_4hidl4base4V1_09DebugInfoEEEE"
  },
  {
   "name":"_ZN7android8hardware3usb6gadget4V1_013BnHwUsbGadget28_hidl_getCurrentUsbFunctionsEPNS_4hidl4base4V1_08BnHwBaseERKNS0_6ParcelEPSA_NSt3__18functionIFvRSA_EEE"
  },
  {
   "name":"_ZN7android8hardware3usb6gadget4V1_013BnHwUsbGadget28_hidl_setCurrentUsbFunctionsEPNS_4hidl4base4V1_08BnHwBaseERKNS0_6ParcelEPSA_NSt3__18functionIFvRSA_EEE"
  },
  {
   "name":"_ZN7android8hardware3usb6gadget4V1_013BnHwUsbGadget4pingEv"
  },
  {
   "name":"_ZN7android8hardware3usb6gadget4V1_013BnHwUsbGadgetC1ERKNS_2spINS3_10IUsbGadgetEEE"
  },
  {
   "name":"_ZN7android8hardware3usb6gadget4V1_013BnHwUsbGadgetC2ERKNS_2spINS3_10IUsbGadgetEEE"
  },
  {
   "name":"_ZN7android8hardware3usb6gadget4V1_013BnHwUsbGadgetD0Ev"
  },
  {
   "name":"_ZN7android8hardware3usb6gadget4V1_013BnHwUsbGadgetD1Ev"
  },
  {
   "name":"_ZN7android8hardware3usb6gadget4V1_013BnHwUsbGadgetD2Ev"
  },
  {
   "name":"_ZN7android8hardware3usb6gadget4V1_013BpHwUsbGadget11linkToDeathERKNS_2spINS0_20hidl_death_recipientEEEy"
  },
  {
   "name":"_ZN7android8hardware3usb6gadget4V1_013BpHwUsbGadget12getDebugInfoENSt3__18functionIFvRKNS_4hidl4base4V1_09DebugInfoEEEE"
  },
  {
   "name":"_ZN7android8hardware3usb6gadget4V1_013BpHwUsbGadget12getHashChainENSt3__18functionIFvRKNS0_8hidl_vecINS0_10hidl_arrayIhLj32EJEEEEEEEE"
  },
  {
   "name":"_ZN7android8hardware3usb6gadget4V1_013BpHwUsbGadget13unlinkToDeathERKNS_2spINS0_20hidl_death_recipientEEE"
  },
  {
   "name":"_ZN7android8hardware3usb6gadget4V1_013BpHwUsbGadget14interfaceChainENSt3__18functionIFvRKNS0_8hidl_vecINS0_11hidl_stringEEEEEE"
  },
  {
   "name":"_ZN7android8hardware3usb6gadget4V1_013BpHwUsbGadget19interfaceDescriptorENSt3__18functionIFvRKNS0_11hidl_stringEEEE"
  },
  {
   "name":"_ZN7android8hardware3usb6gadget4V1_013BpHwUsbGadget21notifySyspropsChangedEv"
  },
  {
   "name":"_ZN7android8hardware3usb6gadget4V1_013BpHwUsbGadget21setHALInstrumentationEv"
  },
  {
   "name":"_ZN7android8hardware3usb6gadget4V1_013BpHwUsbGadget22getCurrentUsbFunctionsERKNS_2spINS3_18IUsbGadgetCallbackEEE"
  },
  {
   "name":"_ZN7android8hardware3usb6gadget4V1_013BpHwUsbGadget22setCurrentUsbFunctionsEyRKNS_2spINS3_18IUsbGadgetCallbackEEEy"
  },
  {
   "name":"_ZN7android8hardware3usb6gadget4V1_013BpHwUsbGadget28_hidl_getCurrentUsbFunctionsEPNS0_10IInterfaceEPNS0_7details16HidlInstrumentorERKNS_2spINS3_18IUsbGadgetCallbackEEE"
  },
  {
   "name":"_ZN7android8hardware3usb6gadget4V1_013BpHwUsbGadget28_hidl_setCurrentUsbFunctionsEPNS0_10IInterfaceEPNS0_7details16HidlInstrumentorEyRKNS_2spINS3_18IUsbGadgetCallbackEEEy"
  },
  {
   "name":"_ZN7android8hardware3usb6gadget4V1_013BpHwUsbGadget4pingEv"
  },
  {
   "name":"_ZN7android8hardware3usb6gadget4V1_013BpHwUsbGadget5debugERKNS0_11hidl_handleERKNS0_8hidl_vecINS0_11hidl_stringEEE"
  },
  {
   "name":"_ZN7android8hardware3usb6gadget4V1_013BpHwUsbGadgetC1ERKNS_2spINS0_7IBinderEEE"
  },
  {
   "name":"_ZN7android8hardware3usb6gadget4V1_013BpHwUsbGadgetC2ERKNS_2spINS0_7IBinderEEE"
  },
  {
   "name":"_ZN7android8hardware3usb6gadget4V1_018IUsbGadgetCallback10getServiceERKNSt3__112basic_stringIcNS5_11char_traitsIcEENS5_9allocatorIcEEEEb"
  },
  {
   "name":"_ZN7android8hardware3usb6gadget4V1_018IUsbGadgetCallback11linkToDeathERKNS_2spINS0_20hidl_death_recipientEEEy"
  },
  {
   "name":"_ZN7android8hardware3usb6gadget4V1_018IUsbGadgetCallback12getDebugInfoENSt3__18functionIFvRKNS_4hidl4base4V1_09DebugInfoEEEE"
  },
  {
   "name":"_ZN7android8hardware3usb6gadget4V1_018IUsbGadgetCallback12getHashChainENSt3__18functionIFvRKNS0_8hidl_vecINS0_10hidl_arrayIhLj32EJEEEEEEEE"
  },
  {
   "name":"_ZN7android8hardware3usb6gadget4V1_018IUsbGadgetCallback13tryGetServiceERKNSt3__112basic_stringIcNS5_11char_traitsIcEENS5_9allocatorIcEEEEb"
  },
  {
   "name":"_ZN7android8hardware3usb6gadget4V1_018IUsbGadgetCallback13unlinkToDeathERKNS_2spINS0_20hidl_death_recipientEEE"
  },
  {
   "name":"_ZN7android8hardware3usb6gadget4V1_018IUsbGadgetCallback14interfaceChainENSt3__18functionIFvRKNS0_8hidl_vecINS0_11hidl_stringEEEEEE"
  },
  {
   "name":"_ZN7android8hardware3usb6gadget4V1_018IUsbGadgetCallback17registerAsServiceERKNSt3__112basic_stringIcNS5_11char_traitsIcEENS5_9allocatorIcEEEE"
  },
  {
   "name":"_ZN7android8hardware3usb6gadget4V1_018IUsbGadgetCallback19interfaceDescriptorENSt3__18functionIFvRKNS0_11hidl_stringEEEE"
  },
  {
   "name":"_ZN7android8hardware3usb6gadget4V1_018IUsbGadgetCallback21notifySyspropsChangedEv"
  },
  {
   "name":"_ZN7android8hardware3usb6gadget4V1_018IUsbGadgetCallback21setHALInstrumentationEv"
  },
  {
   "name":"_ZN7android8hardware3usb6gadget4V1_018IUsbGadgetCallback24registerForNotificationsERKNSt3__112basic_stringIcNS5_11char_traitsIcEENS5_9allocatorIcEEEERKNS_2spINS_4hidl7manager4V1_020IServiceNotificationEEE"
  },
  {
   "name":"_ZN7android8hardware3usb6gadget4V1_018IUsbGadgetCallback4pingEv"
  },
  {
   "name":"_ZN7android8hardware3usb6gadget4V1_018IUsbGadgetCallback5debugERKNS0_11hidl_handleERKNS0_8hidl_vecINS0_11hidl_stringEEE"
  },
  {
   "name":"_ZN7android8hardware3usb6gadget4V1_018IUsbGadgetCallback8castFromERKNS_2spINS_4hidl4base4V1_05IBaseEEEb"
  },
  {
   "name":"_ZN7android8hardware3usb6gadget4V1_018IUsbGadgetCallback8castFromERKNS_2spIS4_EEb"
  },
  {
   "name":"_ZN7android8hardware3usb6gadget4V1_019BsUsbGadgetCallback13addOnewayTaskENSt3__18functionIFvvEEE"
  },
  {
   "name":"_ZN7android8hardware3usb6gadget4V1_019BsUsbGadgetCallbackC1ENS_2spINS3_18IUsbGadgetCallbackEEE"
  },
  {
   "name":"_ZN7android8hardware3usb6gadget4V1_019BsUsbGadgetCallbackC2ENS_2spINS3_18IUsbGadgetCallbackEEE"
  },
  {
   "name":"_ZN7android8hardware3usb6gadget4V1_021BnHwUsbGadgetCallback10onTransactEjRKNS0_6ParcelEPS5_jNSt3__18functionIFvRS5_EEE"
  },
  {
   "name":"_ZN7android8hardware3usb6gadget4V1_021BnHwUsbGadgetCallback12getDebugInfoENSt3__18functionIFvRKNS_4hidl4base4V1_09DebugInfoEEEE"
  },
  {
   "name":"_ZN7android8hardware3usb6gadget4V1_021BnHwUsbGadgetCallback30_hidl_getCurrentUsbFunctionsCbEPNS_4hidl4base4V1_08BnHwBaseERKNS0_6ParcelEPSA_NSt3__18functionIFvRSA_EEE"
  },
  {
   "name":"_ZN7android8hardware3usb6gadget4V1_021BnHwUsbGadgetCallback30_hidl_setCurrentUsbFunctionsCbEPNS_4hidl4base4V1_08BnHwBaseERKNS0_6ParcelEPSA_NSt3__18functionIFvRSA_EEE"
  },
  {
   "name":"_ZN7android8hardware3usb6gadget4V1_021BnHwUsbGadgetCallback4pingEv"
  },
  {
   "name":"_ZN7android8hardware3usb6gadget4V1_021BnHwUsbGadgetCallbackC1ERKNS_2spINS3_18IUsbGadgetCallbackEEE"
  },
  {
   "name":"_ZN7android8hardware3usb6gadget4V1_021BnHwUsbGadgetCallbackC2ERKNS_2spINS3_18IUsbGadgetCallbackEEE"
  },
  {
   "name":"_ZN7android8hardware3usb6gadget4V1_021BnHwUsbGadgetCallbackD0Ev"
  },
  {
   "name":"_ZN7android8hardware3usb6gadget4V1_021BnHwUsbGadgetCallbackD1Ev"
  },
  {
   "name":"_ZN7android8hardware3usb6gadget4V1_021BnHwUsbGadgetCallbackD2Ev"
  },
  {
   "name":"_ZN7android8hardware3usb6gadget4V1_021BpHwUsbGadgetCallback11linkToDeathERKNS_2spINS0_20hidl_death_recipientEEEy"
  },
  {
   "name":"_ZN7android8hardware3usb6gadget4V1_021BpHwUsbGadgetCallback12getDebugInfoENSt3__18functionIFvRKNS_4hidl4base4V1_09DebugInfoEEEE"
  },
  {
   "name":"_ZN7android8hardware3usb6gadget4V1_021BpHwUsbGadgetCallback12getHashChainENSt3__18functionIFvRKNS0_8hidl_vecINS0_10hidl_arrayIhLj32EJEEEEEEEE"
  },
  {
   "name":"_ZN7android8hardware3usb6gadget4V1_021BpHwUsbGadgetCallback13unlinkToDeathERKNS_2spINS0_20hidl_death_recipientEEE"
  },
  {
   "name":"_ZN7android8hardware3usb6gadget4V1_021BpHwUsbGadgetCallback14interfaceChainENSt3__18functionIFvRKNS0_8hidl_vecINS0_11hidl_stringEEEEEE"
  },
  {
   "name":"_ZN7android8hardware3usb6gadget4V1_021BpHwUsbGadgetCallback19interfaceDescriptorENSt3__18functionIFvRKNS0_11hidl_stringEEEE"
  },
  {
   "name":"_ZN7android8hardware3usb6gadget4V1_021BpHwUsbGadgetCallback21notifySyspropsChangedEv"
  },
  {
   "name":"_ZN7android8hardware3usb6gadget4V1_021BpHwUsbGadgetCallback21setHALInstrumentationEv"
  },
  {
   "name":"_ZN7android8hardware3usb6gadget4V1_021BpHwUsbGadgetCallback24getCurrentUsbFunctionsCbEyNS3_6StatusE"
  },
  {
   "name":"_ZN7android8hardware3usb6gadget4V1_021BpHwUsbGadgetCallback24setCurrentUsbFunctionsCbEyNS3_6StatusE"
  },
  {
   "name":"_ZN7android8hardware3usb6gadget4V1_021BpHwUsbGadgetCallback30_hidl_getCurrentUsbFunctionsCbEPNS0_10IInterfaceEPNS0_7details16HidlInstrumentorEyNS3_6StatusE"
  },
  {
   "name":"_ZN7android8hardware3usb6gadget4V1_021BpHwUsbGadgetCallback30_hidl_setCurrentUsbFunctionsCbEPNS0_10IInterfaceEPNS0_7details16HidlInstrumentorEyNS3_6StatusE"
  },
  {
   "name":"_ZN7android8hardware3usb6gadget4V1_021BpHwUsbGadgetCallback4pingEv"
  },
  {
   "name":"_ZN7android8hardware3usb6gadget4V1_021BpHwUsbGadgetCallback5debugERKNS0_11hidl_handleERKNS0_8hidl_vecINS0_11hidl_stringEEE"
  },
  {
   "name":"_ZN7android8hardware3usb6gadget4V1_021BpHwUsbGadgetCallbackC1ERKNS_2spINS0_7IBinderEEE"
  },
  {
   "name":"_ZN7android8hardware3usb6gadget4V1_021BpHwUsbGadgetCallbackC2ERKNS_2spINS0_7IBinderEEE"
  },
  {
   "binding":"weak",
   "name":"_ZN7android8hardware7details13castInterfaceINS0_3usb6gadget4V1_010IUsbGadgetENS_4hidl4base4V1_05IBaseENS5_13BpHwUsbGadgetEEENS0_6ReturnINS_2spIT_EEEENSD_IT0_EEPKcb"
  },
  {
   "binding":"weak",
   "name":"_ZN7android8hardware7details13castInterfaceINS0_3usb6gadget4V1_018IUsbGadgetCallbackENS_4hidl4base4V1_05IBaseENS5_21BpHwUsbGadgetCallbackEEENS0_6ReturnINS_2spIT_EEEENSD_IT0_EEPKcb"
  },
  {
   "binding":"weak",
   "name":"_ZN7android8hardware7details15wrapPassthroughINS0_3usb6gadget4V1_018IUsbGadgetCallbackEvEENS_2spIT_EES9_"
  },
  {
   "binding":"weak",
   "name":"_ZN7android8hardware7details18getServiceInternalINS0_3usb6gadget4V1_013BpHwUsbGadgetENS5_10IUsbGadgetEvvEENS_2spIT0_EERKNSt3__112basic_stringIcNSB_11char_traitsIcEENSB_9allocatorIcEEEEbb"
  },
  {
   "binding":"weak",
   "name":"_ZN7android8hardware7details18getServiceInternalINS0_3usb6gadget4V1_021BpHwUsbGadgetCallbackENS5_18IUsbGadgetCallbackEvvEENS_2spIT0_EERKNSt3__112basic_stringIcNSB_11char_traitsIcEENSB_9allocatorIcEEEEbb"
  },
  {
   "binding":"weak",
   "name":"_ZN7android8hardware8toBinderINS0_3usb6gadget4V1_018IUsbGadgetCallbackEvEENS_2spINS0_7IBinderEEENS6_IT_EE"
  },
  {
   "binding":"weak",
   "name":"_ZN7android8hardware8toBinderINS_4hidl4base4V1_05IBaseEvEENS_2spINS0_7IBinderEEENS6_IT_EE"
  },
  {
   "name":"_ZThn20_N7android8hardware3usb6gadget4V1_013BnHwUsbGadgetD0Ev"
  },
  {
   "name":"_ZThn20_N7android8hardware3usb6gadget4V1_013BnHwUsbGadgetD1Ev"
  },
  {
   "name":"_ZThn20_N7android8hardware3usb6gadget4V1_021BnHwUsbGadgetCallbackD0Ev"
  },
  {
   "name":"_ZThn20_N7android8hardware3usb6gadget4V1_021BnHwUsbGadgetCallbackD1Ev"
  },
  {
   "name":"_ZTv0_n12_N7android8hardware3usb6gadget4V1_013BnHwUsbGadgetD0Ev"
  },
  {
   "name":"_ZTv0_n12_N7android8hardware3usb6gadget4V1_013BnHwUsbGadgetD1Ev"
  },
  {
   "name":"_ZTv0_n12_N7android8hardware3usb6gadget4V1_021BnHwUsbGadgetCallbackD0Ev"
  },
  {
   "name":"_ZTv0_n12_N7android8hardware3usb6gadget4V1_021BnHwUsbGadgetCallbackD1Ev"
  }
 ],
 "elf_objects":[
  {
   "name":"_ZN7android8hardware3usb6gadget4V1_010IUsbGadget10descriptorE"
  },
  {
   "name":"_ZN7android8hardware3usb6gadget4V1_018IUsbGadgetCallback10descriptorE"
  },
  {
   "name":"_ZTTN7android8hardware3usb6gadget4V1_010IUsbGadgetE"
  },
  {
   "name":"_ZTTN7android8hardware3usb6gadget4V1_013BnHwUsbGadgetE"
  },
  {
   "name":"_ZTTN7android8hardware3usb6gadget4V1_013BpHwUsbGadgetE"
  },
  {
   "name":"_ZTTN7android8hardware3usb6gadget4V1_018IUsbGadgetCallbackE"
  },
  {
   "name":"_ZTTN7android8hardware3usb6gadget4V1_021BnHwUsbGadgetCallbackE"
  },
  {
   "name":"_ZTTN7android8hardware3usb6gadget4V1_021BpHwUsbGadgetCallbackE"
  },
  {
   "name":"_ZTVN7android8hardware3usb6gadget4V1_010IUsbGadgetE"
  },
  {
   "binding":"weak",
   "name":"_ZTVN7android8hardware3usb6gadget4V1_011BsUsbGadgetE"
  },
  {
   "name":"_ZTVN7android8hardware3usb6gadget4V1_013BnHwUsbGadgetE"
  },
  {
   "name":"_ZTVN7android8hardware3usb6gadget4V1_013BpHwUsbGadgetE"
  },
  {
   "name":"_ZTVN7android8hardware3usb6gadget4V1_018IUsbGadgetCallbackE"
  },
  {
   "binding":"weak",
   "name":"_ZTVN7android8hardware3usb6gadget4V1_019BsUsbGadgetCallbackE"
  },
  {
   "name":"_ZTVN7android8hardware3usb6gadget4V1_021BnHwUsbGadgetCallbackE"
  },
  {
   "name":"_ZTVN7android8hardware3usb6gadget4V1_021BpHwUsbGadgetCallbackE"
  }
 ]
}