{
 "record_types":[
  {
   "vtable_components":[
    {
     "kind":"vbase_offset",
     "component_value":60
    },
    {
     "kind":"offset_to_top"
    },
    {
     "kind":"rtti",
     "mangled_component_name":"_ZTIN7android10frameworks14displayservice4V1_015BsEventCallbackE"
    },
    {
     "mangled_component_name":"_ZNK7android10frameworks14displayservice4V1_014IEventCallback8isRemoteEv"
    },
    {
     "mangled_component_name":"_ZN7android10frameworks14displayservice4V1_015BsEventCallback14interfaceChainENSt3__18functionIFvRKNS_8hardware8hidl_vecINS6_11hidl_stringEEEEEE"
    },
    {
     "mangled_component_name":"_ZN7android10frameworks14displayservice4V1_015BsEventCallback5debugERKNS_8hardware11hidl_handleERKNS4_8hidl_vecINS4_11hidl_stringEEE"
    },
    {
     "mangled_component_name":"_ZN7android10frameworks14displayservice4V1_015BsEventCallback19interfaceDescriptorENSt3__18functionIFvRKNS_8hardware11hidl_stringEEEE"
    },
    {
     "mangled_component_name":"_ZN7android10frameworks14displayservice4V1_015BsEventCallback12getHashChainENSt3__18functionIFvRKNS_8hardware8hidl_vecINS6_10hidl_arrayIhLj32EJEEEEEEEE"
    },
    {
     "mangled_component_name":"_ZN7android10frameworks14displayservice4V1_015BsEventCallback21setHALInstrumentationEv"
    },
    {
     "mangled_component_name":"_ZN7android10frameworks14displayservice4V1_015BsEventCallback11linkToDeathERKNS_2spINS_8hardware20hidl_death_recipientEEEy"
    },
    {
     "mangled_component_name":"_ZN7android10frameworks14displayservice4V1_015BsEventCallback4pingEv"
    },
    {
     "mangled_component_name":"_ZN7android10frameworks14displayservice4V1_015BsEventCallback12getDebugInfoENSt3__18functionIFvRKNS_4hidl4base4V1_09DebugInfoEEEE"
    },
    {
     "mangled_component_name":"_ZN7android10frameworks14displayservice4V1_015BsEventCallback21notifySyspropsChangedEv"
    },
    {
     "mangled_component_name":"_ZN7android10frameworks14displayservice4V1_015BsEventCallback13unlinkToDeathERKNS_2spINS_8hardware20hidl_death_recipientEEE"
    },
    {
     "kind":"complete_dtor_pointer",
     "mangled_component_name":"_ZN7android10frameworks14displayservice4V1_015BsEventCallbackD1Ev"
    },
    {
     "kind":"deleting_dtor_pointer",
     "mangled_component_name":"_ZN7android10frameworks14displayservice4V1_015BsEventCallbackD0Ev"
    },
    {
     "mangled_component_name":"_ZN7android10frameworks14displayservice4V1_015BsEventCallback7onVsyncEyj"
    },
    {
     "mangled_component_name":"_ZN7android10frameworks14displayservice4V1_015BsEventCallback9onHotplugEyb"
    },
    {
     "kind":"offset_to_top",
     "component_value":-4
    },
    {
     "kind":"rtti",
     "mangled_component_name":"_ZTIN7android10frameworks14displayservice4V1_015BsEventCallbackE"
    },
    {
     "kind":"complete_dtor_pointer",
     "mangled_component_name":"_ZThn4_N7android10frameworks14displayservice4V1_015BsEventCallbackD1Ev"
    },
    {
     "kind":"deleting_dtor_pointer",
     "mangled_component_name":"_ZThn4_N7android10frameworks14displayservice4V1_015BsEventCallbackD0Ev"
    },
    {
     "kind":"vcall_offset"
    },
    {
     "kind":"vcall_offset"
    },
    {
     "kind":"vcall_offset"
    },
    {
     "kind":"vcall_offset"
    },
    {
     "kind":"vcall_offset",
     "component_value":-60
    },
    {
     "kind":"offset_to_top",
     "component_value":-60
    },
    {
     "kind":"rtti",
     "mangled_component_name":"_ZTIN7android10frameworks14displayservice4V1_015BsEventCallbackE"
    },
    {
     "kind":"complete_dtor_pointer",
     "mangled_component_name":"_ZTv0_n12_N7android10frameworks14displayservice4V1_015BsEventCallbackD1Ev"
    },
    {
     "kind":"deleting_dtor_pointer",
     "mangled_component_name":"_ZTv0_n12_N7android10frameworks14displayservice4V1_015BsEventCallbackD0Ev"
    },
    {
     "mangled_component_name":"_ZN7android7RefBase10onFirstRefEv"
    },
    {
     "mangled_component_name":"_ZN7android7RefBase15onLastStrongRefEPKv"
    },
    {
     "mangled_component_name":"_ZN7android7RefBase20onIncStrongAttemptedEjPKv"
    },
    {
     "mangled_component_name":"_ZN7android7RefBase13onLastWeakRefEPKv"
    }
   ],
   "unique_id":"_ZTSN7android10frameworks14displayservice4V1_015BsEventCallbackE"
  },
  {
   "vtable_components":[
    {
     "kind":"vbase_offset",
     "component_value":84
    },
    {
     "kind":"offset_to_top"
    },
    {
     "kind":"rtti",
     "mangled_component_name":"_ZTIN7android10frameworks14displayservice4V1_017BpHwEventCallbackE"
    },
    {
     "mangled_component_name":"_ZNK7android10frameworks14displayservice4V1_017BpHwEventCallback8isRemoteEv"
    },
    {
     "mangled_component_name":"_ZN7android10frameworks14displayservice4V1_017BpHwEventCallback14interfaceChainENSt3__18functionIFvRKNS_8hardware8hidl_vecINS6_11hidl_stringEEEEEE"
    },
    {
     "mangled_component_name":"_ZN7android10frameworks14displayservice4V1_017BpHwEventCallback5debugERKNS_8hardware11hidl_handleERKNS4_8hidl_vecINS4_11hidl_stringEEE"
    },
    {
     "mangled_component_name":"_ZN7android10frameworks14displayservice4V1_017BpHwEventCallback19interfaceDescriptorENSt3__18functionIFvRKNS_8hardware11hidl_stringEEEE"
    },
    {
     "mangled_component_name":"_ZN7android10frameworks14displayservice4V1_017BpHwEventCallback12getHashChainENSt3__18functionIFvRKNS_8hardware8hidl_vecINS6_10hidl_arrayIhLj32EJEEEEEEEE"
    },
    {
     "mangled_component_name":"_ZN7android10frameworks14displayservice4V1_017BpHwEventCallback21setHALInstrumentationEv"
    },
    {
     "mangled_component_name":"_ZN7android10frameworks14displayservice4V1_017BpHwEventCallback11linkToDeathERKNS_2spINS_8hardware20hidl_death_recipientEEEy"
    },
    {
     "mangled_component_name":"_ZN7android10frameworks14displayservice4V1_017BpHwEventCallback4pingEv"
    },
    {
     "mangled_component_name":"_ZN7android10frameworks14displayservice4V1_017BpHwEventCallback12getDebugInfoENSt3__18functionIFvRKNS_4hidl4base4V1_09DebugInfoEEEE"
    },
    {
     "mangled_component_name":"_ZN7android10frameworks14displayservice4V1_017BpHwEventCallback21notifySyspropsChangedEv"
    },
    {
     "mangled_component_name":"_ZN7android10frameworks14displayservice4V1_017BpHwEventCallback13unlinkToDeathERKNS_2spINS_8hardware20hidl_death_recipientEEE"
    },
    {
     "kind":"complete_dtor_pointer",
     "mangled_component_name":"_ZN7android10frameworks14displayservice4V1_017BpHwEventCallbackD1Ev"
    },
    {
     "kind":"deleting_dtor_pointer",
     "mangled_component_name":"_ZN7android10frameworks14displayservice4V1_017BpHwEventCallbackD0Ev"
    },
    {
     "mangled_component_name":"_ZN7android10frameworks14displayservice4V1_017BpHwEventCallback7onVsyncEyj"
    },
    {
     "mangled_component_name":"_ZN7android10frameworks14displayservice4V1_017BpHwEventCallback9onHotplugEyb"
    },
    {
     "mangled_component_name":"_ZN7android8hardware11BpInterfaceINS_10frameworks14displayservice4V1_014IEventCallbackEE10onAsBinderEv"
    },
    {
     "kind":"vbase_offset",
     "component_value":80
    },
    {
     "kind":"offset_to_top",
     "component_value":-4
    },
    {
     "kind":"rtti",
     "mangled_component_name":"_ZTIN7android10frameworks14displayservice4V1_017BpHwEventCallbackE"
    },
    {
     "kind":"complete_dtor_pointer",
     "mangled_component_name":"_ZThn4_N7android10frameworks14displayservice4V1_017BpHwEventCallbackD1Ev"
    },
    {
     "kind":"deleting_dtor_pointer",
     "mangled_component_name":"_ZThn4_N7android10frameworks14displayservice4V1_017BpHwEventCallbackD0Ev"
    },
    {
     "mangled_component_name":"_ZThn4_N7android8hardware11BpInterfaceINS_10frameworks14displayservice4V1_014IEventCallbackEE10onAsBinderEv"
    },
    {
     "kind":"vbase_offset",
     "component_value":76
    },
    {
     "kind":"offset_to_top",
     "component_value":-8
    },
    {
     "kind":"rtti",
     "mangled_component_name":"_ZTIN7android10frameworks14displayservice4V1_017BpHwEventCallbackE"
    },
    {
     "kind":"complete_dtor_pointer",
     "mangled_component_name":"_ZThn8_N7android10frameworks14displayservice4V1_017BpHwEventCallbackD1Ev"
    },
    {
     "kind":"deleting_dtor_pointer",
     "mangled_component_name":"_ZThn8_N7android10frameworks14displayservice4V1_017BpHwEventCallbackD0Ev"
    },
    {
     "mangled_component_name":"_ZN7android8hardware11BpHwRefBase10onFirstRefEv"
    },
    {
     "mangled_component_name":"_ZN7android8hardware11BpHwRefBase15onLastStrongRefEPKv"
    },
    {
     "mangled_component_name":"_ZN7android8hardware11BpHwRefBase20onIncStrongAttemptedEjPKv"
    },
    {
     "kind":"offset_to_top",
     "component_value":-24
    },
    {
     "kind":"rtti",
     "mangled_component_name":"_ZTIN7android10frameworks14displayservice4V1_017BpHwEventCallbackE"
    },
    {
     "kind":"complete_dtor_pointer",
     "mangled_component_name":"_ZThn24_N7android10frameworks14displayservice4V1_017BpHwEventCallbackD1Ev"
    },
    {
     "kind":"deleting_dtor_pointer",
     "mangled_component_name":"_ZThn24_N7android10frameworks14displayservice4V1_017BpHwEventCallbackD0Ev"
    },
    {
     "kind":"vcall_offset"
    },
    {
     "kind":"vcall_offset",
     "component_value":-76
    },
    {
     "kind":"vcall_offset",
     "component_value":-76
    },
    {
     "kind":"vcall_offset",
     "component_value":-76
    },
    {
     "kind":"vcall_offset",
     "component_value":-84
    },
    {
     "kind":"offset_to_top",
     "component_value":-84
    },
    {
     "kind":"rtti",
     "mangled_component_name":"_ZTIN7android10frameworks14displayservice4V1_017BpHwEventCallbackE"
    },
    {
     "kind":"complete_dtor_pointer",
     "mangled_component_name":"_ZTv0_n12_N7android10frameworks14displayservice4V1_017BpHwEventCallbackD1Ev"
    },
    {
     "kind":"deleting_dtor_pointer",
     "mangled_component_name":"_ZTv0_n12_N7android10frameworks14displayservice4V1_017BpHwEventCallbackD0Ev"
    },
    {
     "mangled_component_name":"_ZTv0_n16_N7android8hardware11BpHwRefBase10onFirstRefEv"
    },
    {
     "mangled_component_name":"_ZTv0_n20_N7android8hardware11BpHwRefBase15onLastStrongRefEPKv"
    },
    {
     "mangled_component_name":"_ZTv0_n24_N7android8hardware11BpHwRefBase20onIncStrongAttemptedEjPKv"
    },
    {
     "mangled_component_name":"_ZN7android7RefBase13onLastWeakRefEPKv"
    }
   ],
   "unique_id":"_ZTSN7android10frameworks14displayservice4V1_017BpHwEventCallbackE"
  },
  {
   "vtable_components":[
    {
     "kind":"vbase_offset",
     "component_value":4
    },
    {
     "kind":"offset_to_top"
    },
    {
     "kind":"rtti",
     "mangled_component_name":"_ZTIN7android10frameworks14displayservice4V1_021IDisplayEventReceiverE"
    },
    {
     "mangled_component_name":"_ZNK7android10frameworks14displayservice4V1_021IDisplayEventReceiver8isRemoteEv"
    },
    {
     "mangled_component_name":"_ZN7android10frameworks14displayservice4V1_021IDisplayEventReceiver14interfaceChainENSt3__18functionIFvRKNS_8hardware8hidl_vecINS6_11hidl_stringEEEEEE"
    },
    {
     "mangled_component_name":"_ZN7android10frameworks14displayservice4V1_021IDisplayEventReceiver5debugERKNS_8hardware11hidl_handleERKNS4_8hidl_vecINS4_11hidl_stringEEE"
    },
    {
     "mangled_component_name":"_ZN7android10frameworks14displayservice4V1_021IDisplayEventReceiver19interfaceDescriptorENSt3__18functionIFvRKNS_8hardware11hidl_stringEEEE"
    },
    {
     "mangled_component_name":"_ZN7android10frameworks14displayservice4V1_021IDisplayEventReceiver12getHashChainENSt3__18functionIFvRKNS_8hardware8hidl_vecINS6_10hidl_arrayIhLj32EJEEEEEEEE"
    },
    {
     "mangled_component_name":"_ZN7android10frameworks14displayservice4V1_021IDisplayEventReceiver21setHALInstrumentationEv"
    },
    {
     "mangled_component_name":"_ZN7android10frameworks14displayservice4V1_021IDisplayEventReceiver11linkToDeathERKNS_2spINS_8hardware20hidl_death_recipientEEEy"
    },
    {
     "mangled_component_name":"_ZN7android10frameworks14displayservice4V1_021IDisplayEventReceiver4pingEv"
    },
    {
     "mangled_component_name":"_ZN7android10frameworks14displayservice4V1_021IDisplayEventReceiver12getDebugInfoENSt3__18functionIFvRKNS_4hidl4base4V1_09DebugInfoEEEE"
    },
    {
     "mangled_component_name":"_ZN7android10frameworks14displayservice4V1_021IDisplayEventReceiver21notifySyspropsChangedEv"
    },
    {
     "mangled_component_name":"_ZN7android10frameworks14displayservice4V1_021IDisplayEventReceiver13unlinkToDeathERKNS_2spINS_8hardware20hidl_death_recipientEEE"
    },
    {
     "kind":"complete_dtor_pointer",
     "mangled_component_name":"_ZN7android10frameworks14displayservice4V1_021IDisplayEventReceiverD1Ev"
    },
    {
     "kind":"deleting_dtor_pointer",
     "mangled_component_name":"_ZN7android10frameworks14displayservice4V1_021IDisplayEventReceiverD0Ev"
    },
    {
     "is_pure":true,
     "mangled_component_name":"_ZN7android10frameworks14displayservice4V1_021IDisplayEventReceiver4initERKNS_2spINS2_14IEventCallbackEEE"
    },
    {
     "is_pure":true,
     "mangled_component_name":"_ZN7android10frameworks14displayservice4V1_021IDisplayEventReceiver12setVsyncRateEi"
    },
    {
     "is_pure":true,
     "mangled_component_name":"_ZN7android10frameworks14displayservice4V1_021IDisplayEventReceiver16requestNextVsyncEv"
    },
    {
     "is_pure":true,
     "mangled_component_name":"_ZN7android10frameworks14displayservice4V1_021IDisplayEventReceiver5closeEv"
    },
    {
     "kind":"vcall_offset"
    },
    {
     "kind":"vcall_offset"
    },
    {
     "kind":"vcall_offset"
    },
    {
     "kind":"vcall_offset"
    },
    {
     "kind":"vcall_offset",
     "component_value":-4
    },
    {
     "kind":"offset_to_top",
     "component_value":-4
    },
    {
     "kind":"rtti",
     "mangled_component_name":"_ZTIN7android10frameworks14displayservice4V1_021IDisplayEventReceiverE"
    },
    {
     "kind":"complete_dtor_pointer",
     "mangled_component_name":"_ZTv0_n12_N7android10frameworks14displayservice4V1_021IDisplayEventReceiverD1Ev"
    },
    {
     "kind":"deleting_dtor_pointer",
     "mangled_component_name":"_ZTv0_n12_N7android10frameworks14displayservice4V1_021IDisplayEventReceiverD0Ev"
    },
    {
     "mangled_component_name":"_ZN7android7RefBase10onFirstRefEv"
    },
    {
     "mangled_component_name":"_ZN7android7RefBase15onLastStrongRefEPKv"
    },
    {
     "mangled_component_name":"_ZN7android7RefBase20onIncStrongAttemptedEjPKv"
    },
    {
     "mangled_component_name":"_ZN7android7RefBase13onLastWeakRefEPKv"
    }
   ],
   "unique_id":"_ZTSN7android10frameworks14displayservice4V1_021IDisplayEventReceiverE"
  },
  {
   "vtable_components":[
    {
     "kind":"vbase_offset",
     "component_value":4
    },
    {
     "kind":"offset_to_top"
    },
    {
     "kind":"rtti",
     "mangled_component_name":"_ZTIN7android10frameworks14displayservice4V1_014IEventCallbackE"
    },
    {
     "mangled_component_name":"_ZNK7android10frameworks14displayservice4V1_014IEventCallback8isRemoteEv"
    },
    {
     "mangled_component_name":"_ZN7android10frameworks14displayservice4V1_014IEventCallback14interfaceChainENSt3__18functionIFvRKNS_8hardware8hidl_vecINS6_11hidl_stringEEEEEE"
    },
    {
     "mangled_component_name":"_ZN7android10frameworks14displayservice4V1_014IEventCallback5debugERKNS_8hardware11hidl_handleERKNS4_8hidl_vecINS4_11hidl_stringEEE"
    },
    {
     "mangled_component_name":"_ZN7android10frameworks14displayservice4V1_014IEventCallback19interfaceDescriptorENSt3__18functionIFvRKNS_8hardware11hidl_stringEEEE"
    },
    {
     "mangled_component_name":"_ZN7android10frameworks14displayservice4V1_014IEventCallback12getHashChainENSt3__18functionIFvRKNS_8hardware8hidl_vecINS6_10hidl_arrayIhLj32EJEEEEEEEE"
    },
    {
     "mangled_component_name":"_ZN7android10frameworks14displayservice4V1_014IEventCallback21setHALInstrumentationEv"
    },
    {
     "mangled_component_name":"_ZN7android10frameworks14displayservice4V1_014IEventCallback11linkToDeathERKNS_2spINS_8hardware20hidl_death_recipientEEEy"
    },
    {
     "mangled_component_name":"_ZN7android10frameworks14displayservice4V1_014IEventCallback4pingEv"
    },
    {
     "mangled_component_name":"_ZN7android10frameworks14displayservice4V1_014IEventCallback12getDebugInfoENSt3__18functionIFvRKNS_4hidl4base4V1_09DebugInfoEEEE"
    },
    {
     "mangled_component_name":"_ZN7android10frameworks14displayservice4V1_014IEventCallback21notifySyspropsChangedEv"
    },
    {
     "mangled_component_name":"_ZN7android10frameworks14displayservice4V1_014IEventCallback13unlinkToDeathERKNS_2spINS_8hardware20hidl_death_recipientEEE"
    },
    {
     "kind":"complete_dtor_pointer",
     "mangled_component_name":"_ZN7android10frameworks14displayservice4V1_014IEventCallbackD1Ev"
    },
    {
     "kind":"deleting_dtor_pointer",
     "mangled_component_name":"_ZN7android10frameworks14displayservice4V1_014IEventCallbackD0Ev"
    },
    {
     "is_pure":true,
     "mangled_component_name":"_ZN7android10frameworks14displayservice4V1_014IEventCallback7onVsyncEyj"
    },
    {
     "is_pure":true,
     "mangled_component_name":"_ZN7android10frameworks14displayservice4V1_014IEventCallback9onHotplugEyb"
    },
    {
     "kind":"vcall_offset"
    },
    {
     "kind":"vcall_offset"
    },
    {
     "kind":"vcall_offset"
    },
    {
     "kind":"vcall_offset"
    },
    {
     "kind":"vcall_offset",
     "component_value":-4
    },
    {
     "kind":"offset_to_top",
     "component_value":-4
    },
    {
     "kind":"rtti",
     "mangled_component_name":"_ZTIN7android10frameworks14displayservice4V1_014IEventCallbackE"
    },
    {
     "kind":"complete_dtor_pointer",
     "mangled_component_name":"_ZTv0_n12_N7android10frameworks14displayservice4V1_014IEventCallbackD1Ev"
    },
    {
     "kind":"deleting_dtor_pointer",
     "mangled_component_name":"_ZTv0_n12_N7android10frameworks14displayservice4V1_014IEventCallbackD0Ev"
    },
    {
     "mangled_component_name":"_ZN7android7RefBase10onFirstRefEv"
    },
    {
     "mangled_component_name":"_ZN7android7RefBase15onLastStrongRefEPKv"
    },
    {
     "mangled_component_name":"_ZN7android7RefBase20onIncStrongAttemptedEjPKv"
    },
    {
     "mangled_component_name":"_ZN7android7RefBase13onLastWeakRefEPKv"
    }
   ],
   "unique_id":"_ZTSN7android10frameworks14displayservice4V1_014IEventCallbackE"
  },
  {
   "vtable_components":[
    {
     "kind":"vbase_offset",
     "component_value":72
    },
    {
     "kind":"offset_to_top"
    },
    {
     "kind":"rtti",
     "mangled_component_name":"_ZTIN7android10frameworks14displayservice4V1_024BnHwDisplayEventReceiverE"
    },
    {
     "mangled_component_name":"_ZN7android8hardware9BHwBinder8transactEjRKNS0_6ParcelEPS2_jNSt3__18functionIFvRS2_EEE"
    },
    {
     "mangled_component_name":"_ZN7android8hardware9BHwBinder11linkToDeathERKNS_2spINS0_7IBinder14DeathRecipientEEEPvj"
    },
    {
     "mangled_component_name":"_ZN7android8hardware9BHwBinder13unlinkToDeathERKNS_2wpINS0_7IBinder14DeathRecipientEEEPvjPS5_"
    },
    {
     "mangled_component_name":"_ZNK7android8hardware7IBinder13checkSubclassEPKv"
    },
    {
     "mangled_component_name":"_ZN7android8hardware9BHwBinder12attachObjectEPKvPvS4_PFvS3_S4_S4_E"
    },
    {
     "mangled_component_name":"_ZNK7android8hardware9BHwBinder10findObjectEPKv"
    },
    {
     "mangled_component_name":"_ZN7android8hardware9BHwBinder12detachObjectEPKv"
    },
    {
     "mangled_component_name":"_ZN7android8hardware9BHwBinder11localBinderEv"
    },
    {
     "mangled_component_name":"_ZN7android8hardware7IBinder12remoteBinderEv"
    },
    {
     "kind":"complete_dtor_pointer",
     "mangled_component_name":"_ZN7android10frameworks14displayservice4V1_024BnHwDisplayEventReceiverD1Ev"
    },
    {
     "kind":"deleting_dtor_pointer",
     "mangled_component_name":"_ZN7android10frameworks14displayservice4V1_024BnHwDisplayEventReceiverD0Ev"
    },
    {
     "mangled_component_name":"_ZN7android10frameworks14displayservice4V1_024BnHwDisplayEventReceiver10onTransactEjRKNS_8hardware6ParcelEPS5_jNSt3__18functionIFvRS5_EEE"
    },
    {
     "kind":"offset_to_top",
     "component_value":-20
    },
    {
     "kind":"rtti",
     "mangled_component_name":"_ZTIN7android10frameworks14displayservice4V1_024BnHwDisplayEventReceiverE"
    },
    {
     "kind":"complete_dtor_pointer",
     "mangled_component_name":"_ZThn20_N7android10frameworks14displayservice4V1_024BnHwDisplayEventReceiverD1Ev"
    },
    {
     "kind":"deleting_dtor_pointer",
     "mangled_component_name":"_ZThn20_N7android10frameworks14displayservice4V1_024BnHwDisplayEventReceiverD0Ev"
    },
    {
     "kind":"vcall_offset"
    },
    {
     "kind":"vcall_offset"
    },
    {
     "kind":"vcall_offset"
    },
    {
     "kind":"vcall_offset"
    },
    {
     "kind":"vcall_offset",
     "component_value":-72
    },
    {
     "kind":"offset_to_top",
     "component_value":-72
    },
    {
     "kind":"rtti",
     "mangled_component_name":"_ZTIN7android10frameworks14displayservice4V1_024BnHwDisplayEventReceiverE"
    },
    {
     "kind":"complete_dtor_pointer",
     "mangled_component_name":"_ZTv0_n12_N7android10frameworks14displayservice4V1_024BnHwDisplayEventReceiverD1Ev"
    },
    {
     "kind":"deleting_dtor_pointer",
     "mangled_component_name":"_ZTv0_n12_N7android10frameworks14displayservice4V1_024BnHwDisplayEventReceiverD0Ev"
    },
    {
     "mangled_component_name":"_ZN7android7RefBase10onFirstRefEv"
    },
    {
     "mangled_component_name":"_ZN7android7RefBase15onLastStrongRefEPKv"
    },
    {
     "mangled_component_name":"_ZN7android7RefBase20onIncStrongAttemptedEjPKv"
    },
    {
     "mangled_component_name":"_ZN7android7RefBase13onLastWeakRefEPKv"
    }
   ],
   "unique_id":"_ZTSN7android10frameworks14displayservice4V1_024BnHwDisplayEventReceiverE"
  },
  {
   "vtable_components":[
    {
     "kind":"vbase_offset",
     "component_value":72
    },
    {
     "kind":"offset_to_top"
    },
    {
     "kind":"rtti",
     "mangled_component_name":"_ZTIN7android10frameworks14displayservice4V1_017BnHwEventCallbackE"
    },
    {
     "mangled_component_name":"_ZN7android8hardware9BHwBinder8transactEjRKNS0_6ParcelEPS2_jNSt3__18functionIFvRS2_EEE"
    },
    {
     "mangled_component_name":"_ZN7android8hardware9BHwBinder11linkToDeathERKNS_2spINS0_7IBinder14DeathRecipientEEEPvj"
    },
    {
     "mangled_component_name":"_ZN7android8hardware9BHwBinder13unlinkToDeathERKNS_2wpINS0_7IBinder14DeathRecipientEEEPvjPS5_"
    },
    {
     "mangled_component_name":"_ZNK7android8hardware7IBinder13checkSubclassEPKv"
    },
    {
     "mangled_component_name":"_ZN7android8hardware9BHwBinder12attachObjectEPKvPvS4_PFvS3_S4_S4_E"
    },
    {
     "mangled_component_name":"_ZNK7android8hardware9BHwBinder10findObjectEPKv"
    },
    {
     "mangled_component_name":"_ZN7android8hardware9BHwBinder12detachObjectEPKv"
    },
    {
     "mangled_component_name":"_ZN7android8hardware9BHwBinder11localBinderEv"
    },
    {
     "mangled_component_name":"_ZN7android8hardware7IBinder12remoteBinderEv"
    },
    {
     "kind":"complete_dtor_pointer",
     "mangled_component_name":"_ZN7android10frameworks14displayservice4V1_017BnHwEventCallbackD1Ev"
    },
    {
     "kind":"deleting_dtor_pointer",
     "mangled_component_name":"_ZN7android10frameworks14displayservice4V1_017BnHwEventCallbackD0Ev"
    },
    {
     "mangled_component_name":"_ZN7android10frameworks14displayservice4V1_017BnHwEventCallback10onTransactEjRKNS_8hardware6ParcelEPS5_jNSt3__18functionIFvRS5_EEE"
    },
    {
     "kind":"offset_to_top",
     "component_value":-20
    },
    {
     "kind":"rtti",
     "mangled_component_name":"_ZTIN7android10frameworks14displayservice4V1_017BnHwEventCallbackE"
    },
    {
     "kind":"complete_dtor_pointer",
     "mangled_component_name":"_ZThn20_N7android10frameworks14displayservice4V1_017BnHwEventCallbackD1Ev"
    },
    {
     "kind":"deleting_dtor_pointer",
     "mangled_component_name":"_ZThn20_N7android10frameworks14displayservice4V1_017BnHwEventCallbackD0Ev"
    },
    {
     "kind":"vcall_offset"
    },
    {
     "kind":"vcall_offset"
    },
    {
     "kind":"vcall_offset"
    },
    {
     "kind":"vcall_offset"
    },
    {
     "kind":"vcall_offset",
     "component_value":-72
    },
    {
     "kind":"offset_to_top",
     "component_value":-72
    },
    {
     "kind":"rtti",
     "mangled_component_name":"_ZTIN7android10frameworks14displayservice4V1_017BnHwEventCallbackE"
    },
    {
     "kind":"complete_dtor_pointer",
     "mangled_component_name":"_ZTv0_n12_N7android10frameworks14displayservice4V1_017BnHwEventCallbackD1Ev"
    },
    {
     "kind":"deleting_dtor_pointer",
     "mangled_component_name":"_ZTv0_n12_N7android10frameworks14displayservice4V1_017BnHwEventCallbackD0Ev"
    },
    {
     "mangled_component_name":"_ZN7android7RefBase10onFirstRefEv"
    },
    {
     "mangled_component_name":"_ZN7android7RefBase15onLastStrongRefEPKv"
    },
    {
     "mangled_component_name":"_ZN7android7RefBase20onIncStrongAttemptedEjPKv"
    },
    {
     "mangled_component_name":"_ZN7android7RefBase13onLastWeakRefEPKv"
    }
   ],
   "unique_id":"_ZTSN7android10frameworks14displayservice4V1_017BnHwEventCallbackE"
  },
  {
   "vtable_components":[
    {
     "kind":"vbase_offset",
     "component_value":60
    },
    {
     "kind":"offset_to_top"
    },
    {
     "kind":"rtti",
     "mangled_component_name":"_ZTIN7android10frameworks14displayservice4V1_022BsDisplayEventReceiverE"
    },
    {
     "mangled_component_name":"_ZNK7android10frameworks14displayservice4V1_021IDisplayEventReceiver8isRemoteEv"
    },
    {
     "mangled_component_name":"_ZN7android10frameworks14displayservice4V1_022BsDisplayEventReceiver14interfaceChainENSt3__18functionIFvRKNS_8hardware8hidl_vecINS6_11hidl_stringEEEEEE"
    },
    {
     "mangled_component_name":"_ZN7android10frameworks14displayservice4V1_022BsDisplayEventReceiver5debugERKNS_8hardware11hidl_handleERKNS4_8hidl_vecINS4_11hidl_stringEEE"
    },
    {
     "mangled_component_name":"_ZN7android10frameworks14displayservice4V1_022BsDisplayEventReceiver19interfaceDescriptorENSt3__18functionIFvRKNS_8hardware11hidl_stringEEEE"
    },
    {
     "mangled_component_name":"_ZN7android10frameworks14displayservice4V1_022BsDisplayEventReceiver12getHashChainENSt3__18functionIFvRKNS_8hardware8hidl_vecINS6_10hidl_arrayIhLj32EJEEEEEEEE"
    },
    {
     "mangled_component_name":"_ZN7android10frameworks14displayservice4V1_022BsDisplayEventReceiver21setHALInstrumentationEv"
    },
    {
     "mangled_component_name":"_ZN7android10frameworks14displayservice4V1_022BsDisplayEventReceiver11linkToDeathERKNS_2spINS_8hardware20hidl_death_recipientEEEy"
    },
    {
     "mangled_component_name":"_ZN7android10frameworks14displayservice4V1_022BsDisplayEventReceiver4pingEv"
    },
    {
     "mangled_component_name":"_ZN7android10frameworks14displayservice4V1_022BsDisplayEventReceiver12getDebugInfoENSt3__18functionIFvRKNS_4hidl4base4V1_09DebugInfoEEEE"
    },
    {
     "mangled_component_name":"_ZN7android10frameworks14displayservice4V1_022BsDisplayEventReceiver21notifySyspropsChangedEv"
    },
    {
     "mangled_component_name":"_ZN7android10frameworks14displayservice4V1_022BsDisplayEventReceiver13unlinkToDeathERKNS_2spINS_8hardware20hidl_death_recipientEEE"
    },
    {
     "kind":"complete_dtor_pointer",
     "mangled_component_name":"_ZN7android10frameworks14displayservice4V1_022BsDisplayEventReceiverD1Ev"
    },
    {
     "kind":"deleting_dtor_pointer",
     "mangled_component_name":"_ZN7android10frameworks14displayservice4V1_022BsDisplayEventReceiverD0Ev"
    },
    {
     "mangled_component_name":"_ZN7android10frameworks14displayservice4V1_022BsDisplayEventReceiver4initERKNS_2spINS2_14IEventCallbackEEE"
    },
    {
     "mangled_component_name":"_ZN7android10frameworks14displayservice4V1_022BsDisplayEventReceiver12setVsyncRateEi"
    },
    {
     "mangled_component_name":"_ZN7android10frameworks14displayservice4V1_022BsDisplayEventReceiver16requestNextVsyncEv"
    },
    {
     "mangled_component_name":"_ZN7android10frameworks14displayservice4V1_022BsDisplayEventReceiver5closeEv"
    },
    {
     "kind":"offset_to_top",
     "component_value":-4
    },
    {
     "kind":"rtti",
     "mangled_component_name":"_ZTIN7android10frameworks14displayservice4V1_022BsDisplayEventReceiverE"
    },
    {
     "kind":"complete_dtor_pointer",
     "mangled_component_name":"_ZThn4_N7android10frameworks14displayservice4V1_022BsDisplayEventReceiverD1Ev"
    },
    {
     "kind":"deleting_dtor_pointer",
     "mangled_component_name":"_ZThn4_N7android10frameworks14displayservice4V1_022BsDisplayEventReceiverD0Ev"
    },
    {
     "kind":"vcall_offset"
    },
    {
     "kind":"vcall_offset"
    },
    {
     "kind":"vcall_offset"
    },
    {
     "kind":"vcall_offset"
    },
    {
     "kind":"vcall_offset",
     "component_value":-60
    },
    {
     "kind":"offset_to_top",
     "component_value":-60
    },
    {
     "kind":"rtti",
     "mangled_component_name":"_ZTIN7android10frameworks14displayservice4V1_022BsDisplayEventReceiverE"
    },
    {
     "kind":"complete_dtor_pointer",
     "mangled_component_name":"_ZTv0_n12_N7android10frameworks14displayservice4V1_022BsDisplayEventReceiverD1Ev"
    },
    {
     "kind":"deleting_dtor_pointer",
     "mangled_component_name":"_ZTv0_n12_N7android10frameworks14displayservice4V1_022BsDisplayEventReceiverD0Ev"
    },
    {
     "mangled_component_name":"_ZN7android7RefBase10onFirstRefEv"
    },
    {
     "mangled_component_name":"_ZN7android7RefBase15onLastStrongRefEPKv"
    },
    {
     "mangled_component_name":"_ZN7android7RefBase20onIncStrongAttemptedEjPKv"
    },
    {
     "mangled_component_name":"_ZN7android7RefBase13onLastWeakRefEPKv"
    }
   ],
   "unique_id":"_ZTSN7android10frameworks14displayservice4V1_022BsDisplayEventReceiverE"
  },
  {
   "vtable_components":[
    {
     "kind":"vbase_offset",
     "component_value":84
    },
    {
     "kind":"offset_to_top"
    },
    {
     "kind":"rtti",
     "mangled_component_name":"_ZTIN7android10frameworks14displayservice4V1_024BpHwDisplayEventReceiverE"
    },
    {
     "mangled_component_name":"_ZNK7android10frameworks14displayservice4V1_024BpHwDisplayEventReceiver8isRemoteEv"
    },
    {
     "mangled_component_name":"_ZN7android10frameworks14displayservice4V1_024BpHwDisplayEventReceiver14interfaceChainENSt3__18functionIFvRKNS_8hardware8hidl_vecINS6_11hidl_stringEEEEEE"
    },
    {
     "mangled_component_name":"_ZN7android10frameworks14displayservice4V1_024BpHwDisplayEventReceiver5debugERKNS_8hardware11hidl_handleERKNS4_8hidl_vecINS4_11hidl_stringEEE"
    },
    {
     "mangled_component_name":"_ZN7android10frameworks14displayservice4V1_024BpHwDisplayEventReceiver19interfaceDescriptorENSt3__18functionIFvRKNS_8hardware11hidl_stringEEEE"
    },
    {
     "mangled_component_name":"_ZN7android10frameworks14displayservice4V1_024BpHwDisplayEventReceiver12getHashChainENSt3__18functionIFvRKNS_8hardware8hidl_vecINS6_10hidl_arrayIhLj32EJEEEEEEEE"
    },
    {
     "mangled_component_name":"_ZN7android10frameworks14displayservice4V1_024BpHwDisplayEventReceiver21setHALInstrumentationEv"
    },
    {
     "mangled_component_name":"_ZN7android10frameworks14displayservice4V1_024BpHwDisplayEventReceiver11linkToDeathERKNS_2spINS_8hardware20hidl_death_recipientEEEy"
    },
    {
     "mangled_component_name":"_ZN7android10frameworks14displayservice4V1_024BpHwDisplayEventReceiver4pingEv"
    },
    {
     "mangled_component_name":"_ZN7android10frameworks14displayservice4V1_024BpHwDisplayEventReceiver12getDebugInfoENSt3__18functionIFvRKNS_4hidl4base4V1_09DebugInfoEEEE"
    },
    {
     "mangled_component_name":"_ZN7android10frameworks14displayservice4V1_024BpHwDisplayEventReceiver21notifySyspropsChangedEv"
    },
    {
     "mangled_component_name":"_ZN7android10frameworks14displayservice4V1_024BpHwDisplayEventReceiver13unlinkToDeathERKNS_2spINS_8hardware20hidl_death_recipientEEE"
    },
    {
     "kind":"complete_dtor_pointer",
     "mangled_component_name":"_ZN7android10frameworks14displayservice4V1_024BpHwDisplayEventReceiverD1Ev"
    },
    {
     "kind":"deleting_dtor_pointer",
     "mangled_component_name":"_ZN7android10frameworks14displayservice4V1_024BpHwDisplayEventReceiverD0Ev"
    },
    {
     "mangled_component_name":"_ZN7android10frameworks14displayservice4V1_024BpHwDisplayEventReceiver4initERKNS_2spINS2_14IEventCallbackEEE"
    },
    {
     "mangled_component_name":"_ZN7android10frameworks14displayservice4V1_024BpHwDisplayEventReceiver12setVsyncRateEi"
    },
    {
     "mangled_component_name":"_ZN7android10frameworks14displayservice4V1_024BpHwDisplayEventReceiver16requestNextVsyncEv"
    },
    {
     "mangled_component_name":"_ZN7android10frameworks14displayservice4V1_024BpHwDisplayEventReceiver5closeEv"
    },
    {
     "mangled_component_name":"_ZN7android8hardware11BpInterfaceINS_10frameworks14displayservice4V1_021IDisplayEventReceiverEE10onAsBinderEv"
    },
    {
     "kind":"vbase_offset",
     "component_value":80
    },
    {
     "kind":"offset_to_top",
     "component_value":-4
    },
    {
     "kind":"rtti",
     "mangled_component_name":"_ZTIN7android10frameworks14displayservice4V1_024BpHwDisplayEventReceiverE"
    },
    {
     "kind":"complete_dtor_pointer",
     "mangled_component_name":"_ZThn4_N7android10frameworks14displayservice4V1_024BpHwDisplayEventReceiverD1Ev"
    },
    {
     "kind":"deleting_dtor_pointer",
     "mangled_component_name":"_ZThn4_N7android10frameworks14displayservice4V1_024BpHwDisplayEventReceiverD0Ev"
    },
    {
     "mangled_component_name":"_ZThn4_N7android8hardware11BpInterfaceINS_10frameworks14displayservice4V1_021IDisplayEventReceiverEE10onAsBinderEv"
    },
    {
     "kind":"vbase_offset",
     "component_value":76
    },
    {
     "kind":"offset_to_top",
     "component_value":-8
    },
    {
     "kind":"rtti",
     "mangled_component_name":"_ZTIN7android10frameworks14displayservice4V1_024BpHwDisplayEventReceiverE"
    },
    {
     "kind":"complete_dtor_pointer",
     "mangled_component_name":"_ZThn8_N7android10frameworks14displayservice4V1_024BpHwDisplayEventReceiverD1Ev"
    },
    {
     "kind":"deleting_dtor_pointer",
     "mangled_component_name":"_ZThn8_N7android10frameworks14displayservice4V1_024BpHwDisplayEventReceiverD0Ev"
    },
    {
     "mangled_component_name":"_ZN7android8hardware11BpHwRefBase10onFirstRefEv"
    },
    {
     "mangled_component_name":"_ZN7android8hardware11BpHwRefBase15onLastStrongRefEPKv"
    },
    {
     "mangled_component_name":"_ZN7android8hardware11BpHwRefBase20onIncStrongAttemptedEjPKv"
    },
    {
     "kind":"offset_to_top",
     "component_value":-24
    },
    {
     "kind":"rtti",
     "mangled_component_name":"_ZTIN7android10frameworks14displayservice4V1_024BpHwDisplayEventReceiverE"
    },
    {
     "kind":"complete_dtor_pointer",
     "mangled_component_name":"_ZThn24_N7android10frameworks14displayservice4V1_024BpHwDisplayEventReceiverD1Ev"
    },
    {
     "kind":"deleting_dtor_pointer",
     "mangled_component_name":"_ZThn24_N7android10frameworks14displayservice4V1_024BpHwDisplayEventReceiverD0Ev"
    },
    {
     "kind":"vcall_offset"
    },
    {
     "kind":"vcall_offset",
     "component_value":-76
    },
    {
     "kind":"vcall_offset",
     "component_value":-76
    },
    {
     "kind":"vcall_offset",
     "component_value":-76
    },
    {
     "kind":"vcall_offset",
     "component_value":-84
    },
    {
     "kind":"offset_to_top",
     "component_value":-84
    },
    {
     "kind":"rtti",
     "mangled_component_name":"_ZTIN7android10frameworks14displayservice4V1_024BpHwDisplayEventReceiverE"
    },
    {
     "kind":"complete_dtor_pointer",
     "mangled_component_name":"_ZTv0_n12_N7android10frameworks14displayservice4V1_024BpHwDisplayEventReceiverD1Ev"
    },
    {
     "kind":"deleting_dtor_pointer",
     "mangled_component_name":"_ZTv0_n12_N7android10frameworks14displayservice4V1_024BpHwDisplayEventReceiverD0Ev"
    },
    {
     "mangled_component_name":"_ZTv0_n16_N7android8hardware11BpHwRefBase10onFirstRefEv"
    },
    {
     "mangled_component_name":"_ZTv0_n20_N7android8hardware11BpHwRefBase15onLastStrongRefEPKv"
    },
    {
     "mangled_component_name":"_ZTv0_n24_N7android8hardware11BpHwRefBase20onIncStrongAttemptedEjPKv"
    },
    {
     "mangled_component_name":"_ZN7android7RefBase13onLastWeakRefEPKv"
    }
   ],
   "unique_id":"_ZTSN7android10frameworks14displayservice4V1_024BpHwDisplayEventReceiverE"
  },
  {
   "vtable_components":[
    {
     "kind":"vbase_offset",
     "component_value":72
    },
    {
     "kind":"offset_to_top"
    },
    {
     "kind":"rtti",
     "mangled_component_name":"_ZTIN7android10frameworks14displayservice4V1_018BnHwDisplayServiceE"
    },
    {
     "mangled_component_name":"_ZN7android8hardware9BHwBinder8transactEjRKNS0_6ParcelEPS2_jNSt3__18functionIFvRS2_EEE"
    },
    {
     "mangled_component_name":"_ZN7android8hardware9BHwBinder11linkToDeathERKNS_2spINS0_7IBinder14DeathRecipientEEEPvj"
    },
    {
     "mangled_component_name":"_ZN7android8hardware9BHwBinder13unlinkToDeathERKNS_2wpINS0_7IBinder14DeathRecipientEEEPvjPS5_"
    },
    {
     "mangled_component_name":"_ZNK7android8hardware7IBinder13checkSubclassEPKv"
    },
    {
     "mangled_component_name":"_ZN7android8hardware9BHwBinder12attachObjectEPKvPvS4_PFvS3_S4_S4_E"
    },
    {
     "mangled_component_name":"_ZNK7android8hardware9BHwBinder10findObjectEPKv"
    },
    {
     "mangled_component_name":"_ZN7android8hardware9BHwBinder12detachObjectEPKv"
    },
    {
     "mangled_component_name":"_ZN7android8hardware9BHwBinder11localBinderEv"
    },
    {
     "mangled_component_name":"_ZN7android8hardware7IBinder12remoteBinderEv"
    },
    {
     "kind":"complete_dtor_pointer",
     "mangled_component_name":"_ZN7android10frameworks14displayservice4V1_018BnHwDisplayServiceD1Ev"
    },
    {
     "kind":"deleting_dtor_pointer",
     "mangled_component_name":"_ZN7android10frameworks14displayservice4V1_018BnHwDisplayServiceD0Ev"
    },
    {
     "mangled_component_name":"_ZN7android10frameworks14displayservice4V1_018BnHwDisplayService10onTransactEjRKNS_8hardware6ParcelEPS5_jNSt3__18functionIFvRS5_EEE"
    },
    {
     "kind":"offset_to_top",
     "component_value":-20
    },
    {
     "kind":"rtti",
     "mangled_component_name":"_ZTIN7android10frameworks14displayservice4V1_018BnHwDisplayServiceE"
    },
    {
     "kind":"complete_dtor_pointer",
     "mangled_component_name":"_ZThn20_N7android10frameworks14displayservice4V1_018BnHwDisplayServiceD1Ev"
    },
    {
     "kind":"deleting_dtor_pointer",
     "mangled_component_name":"_ZThn20_N7android10frameworks14displayservice4V1_018BnHwDisplayServiceD0Ev"
    },
    {
     "kind":"vcall_offset"
    },
    {
     "kind":"vcall_offset"
    },
    {
     "kind":"vcall_offset"
    },
    {
     "kind":"vcall_offset"
    },
    {
     "kind":"vcall_offset",
     "component_value":-72
    },
    {
     "kind":"offset_to_top",
     "component_value":-72
    },
    {
     "kind":"rtti",
     "mangled_component_name":"_ZTIN7android10frameworks14displayservice4V1_018BnHwDisplayServiceE"
    },
    {
     "kind":"complete_dtor_pointer",
     "mangled_component_name":"_ZTv0_n12_N7android10frameworks14displayservice4V1_018BnHwDisplayServiceD1Ev"
    },
    {
     "kind":"deleting_dtor_pointer",
     "mangled_component_name":"_ZTv0_n12_N7android10frameworks14displayservice4V1_018BnHwDisplayServiceD0Ev"
    },
    {
     "mangled_component_name":"_ZN7android7RefBase10onFirstRefEv"
    },
    {
     "mangled_component_name":"_ZN7android7RefBase15onLastStrongRefEPKv"
    },
    {
     "mangled_component_name":"_ZN7android7RefBase20onIncStrongAttemptedEjPKv"
    },
    {
     "mangled_component_name":"_ZN7android7RefBase13onLastWeakRefEPKv"
    }
   ],
   "unique_id":"_ZTSN7android10frameworks14displayservice4V1_018BnHwDisplayServiceE"
  },
  {
   "vtable_components":[
    {
     "kind":"vbase_offset",
     "component_value":4
    },
    {
     "kind":"offset_to_top"
    },
    {
     "kind":"rtti",
     "mangled_component_name":"_ZTIN7android10frameworks14displayservice4V1_015IDisplayServiceE"
    },
    {
     "mangled_component_name":"_ZNK7android10frameworks14displayservice4V1_015IDisplayService8isRemoteEv"
    },
    {
     "mangled_component_name":"_ZN7android10frameworks14displayservice4V1_015IDisplayService14interfaceChainENSt3__18functionIFvRKNS_8hardware8hidl_vecINS6_11hidl_stringEEEEEE"
    },
    {
     "mangled_component_name":"_ZN7android10frameworks14displayservice4V1_015IDisplayService5debugERKNS_8hardware11hidl_handleERKNS4_8hidl_vecINS4_11hidl_stringEEE"
    },
    {
     "mangled_component_name":"_ZN7android10frameworks14displayservice4V1_015IDisplayService19interfaceDescriptorENSt3__18functionIFvRKNS_8hardware11hidl_stringEEEE"
    },
    {
     "mangled_component_name":"_ZN7android10frameworks14displayservice4V1_015IDisplayService12getHashChainENSt3__18functionIFvRKNS_8hardware8hidl_vecINS6_10hidl_arrayIhLj32EJEEEEEEEE"
    },
    {
     "mangled_component_name":"_ZN7android10frameworks14displayservice4V1_015IDisplayService21setHALInstrumentationEv"
    },
    {
     "mangled_component_name":"_ZN7android10frameworks14displayservice4V1_015IDisplayService11linkToDeathERKNS_2spINS_8hardware20hidl_death_recipientEEEy"
    },
    {
     "mangled_component_name":"_ZN7android10frameworks14displayservice4V1_015IDisplayService4pingEv"
    },
    {
     "mangled_component_name":"_ZN7android10frameworks14displayservice4V1_015IDisplayService12getDebugInfoENSt3__18functionIFvRKNS_4hidl4base4V1_09DebugInfoEEEE"
    },
    {
     "mangled_component_name":"_ZN7android10frameworks14displayservice4V1_015IDisplayService21notifySyspropsChangedEv"
    },
    {
     "mangled_component_name":"_ZN7android10frameworks14displayservice4V1_015IDisplayService13unlinkToDeathERKNS_2spINS_8hardware20hidl_death_recipientEEE"
    },
    {
     "kind":"complete_dtor_pointer",
     "mangled_component_name":"_ZN7android10frameworks14displayservice4V1_015IDisplayServiceD1Ev"
    },
    {
     "kind":"deleting_dtor_pointer",
     "mangled_component_name":"_ZN7android10frameworks14displayservice4V1_015IDisplayServiceD0Ev"
    },
    {
     "is_pure":true,
     "mangled_component_name":"_ZN7android10frameworks14displayservice4V1_015IDisplayService16getEventReceiverEv"
    },
    {
     "kind":"vcall_offset"
    },
    {
     "kind":"vcall_offset"
    },
    {
     "kind":"vcall_offset"
    },
    {
     "kind":"vcall_offset"
    },
    {
     "kind":"vcall_offset",
     "component_value":-4
    },
    {
     "kind":"offset_to_top",
     "component_value":-4
    },
    {
     "kind":"rtti",
     "mangled_component_name":"_ZTIN7android10frameworks14displayservice4V1_015IDisplayServiceE"
    },
    {
     "kind":"complete_dtor_pointer",
     "mangled_component_name":"_ZTv0_n12_N7android10frameworks14displayservice4V1_015IDisplayServiceD1Ev"
    },
    {
     "kind":"deleting_dtor_pointer",
     "mangled_component_name":"_ZTv0_n12_N7android10frameworks14displayservice4V1_015IDisplayServiceD0Ev"
    },
    {
     "mangled_component_name":"_ZN7android7RefBase10onFirstRefEv"
    },
    {
     "mangled_component_name":"_ZN7android7RefBase15onLastStrongRefEPKv"
    },
    {
     "mangled_component_name":"_ZN7android7RefBase20onIncStrongAttemptedEjPKv"
    },
    {
     "mangled_component_name":"_ZN7android7RefBase13onLastWeakRefEPKv"
    }
   ],
   "unique_id":"_ZTSN7android10frameworks14displayservice4V1_015IDisplayServiceE"
  },
  {
   "vtable_components":[
    {
     "kind":"vbase_offset",
     "component_value":60
    },
    {
     "kind":"offset_to_top"
    },
    {
     "kind":"rtti",
     "mangled_component_name":"_ZTIN7android10frameworks14displayservice4V1_016BsDisplayServiceE"
    },
    {
     "mangled_component_name":"_ZNK7android10frameworks14displayservice4V1_015IDisplayService8isRemoteEv"
    },
    {
     "mangled_component_name":"_ZN7android10frameworks14displayservice4V1_016BsDisplayService14interfaceChainENSt3__18functionIFvRKNS_8hardware8hidl_vecINS6_11hidl_stringEEEEEE"
    },
    {
     "mangled_component_name":"_ZN7android10frameworks14displayservice4V1_016BsDisplayService5debugERKNS_8hardware11hidl_handleERKNS4_8hidl_vecINS4_11hidl_stringEEE"
    },
    {
     "mangled_component_name":"_ZN7android10frameworks14displayservice4V1_016BsDisplayService19interfaceDescriptorENSt3__18functionIFvRKNS_8hardware11hidl_stringEEEE"
    },
    {
     "mangled_component_name":"_ZN7android10frameworks14displayservice4V1_016BsDisplayService12getHashChainENSt3__18functionIFvRKNS_8hardware8hidl_vecINS6_10hidl_arrayIhLj32EJEEEEEEEE"
    },
    {
     "mangled_component_name":"_ZN7android10frameworks14displayservice4V1_016BsDisplayService21setHALInstrumentationEv"
    },
    {
     "mangled_component_name":"_ZN7android10frameworks14displayservice4V1_016BsDisplayService11linkToDeathERKNS_2spINS_8hardware20hidl_death_recipientEEEy"
    },
    {
     "mangled_component_name":"_ZN7android10frameworks14displayservice4V1_016BsDisplayService4pingEv"
    },
    {
     "mangled_component_name":"_ZN7android10frameworks14displayservice4V1_016BsDisplayService12getDebugInfoENSt3__18functionIFvRKNS_4hidl4base4V1_09DebugInfoEEEE"
    },
    {
     "mangled_component_name":"_ZN7android10frameworks14displayservice4V1_016BsDisplayService21notifySyspropsChangedEv"
    },
    {
     "mangled_component_name":"_ZN7android10frameworks14displayservice4V1_016BsDisplayService13unlinkToDeathERKNS_2spINS_8hardware20hidl_death_recipientEEE"
    },
    {
     "kind":"complete_dtor_pointer",
     "mangled_component_name":"_ZN7android10frameworks14displayservice4V1_016BsDisplayServiceD1Ev"
    },
    {
     "kind":"deleting_dtor_pointer",
     "mangled_component_name":"_ZN7android10frameworks14displayservice4V1_016BsDisplayServiceD0Ev"
    },
    {
     "mangled_component_name":"_ZN7android10frameworks14displayservice4V1_016BsDisplayService16getEventReceiverEv"
    },
    {
     "kind":"offset_to_top",
     "component_value":-4
    },
    {
     "kind":"rtti",
     "mangled_component_name":"_ZTIN7android10frameworks14displayservice4V1_016BsDisplayServiceE"
    },
    {
     "kind":"complete_dtor_pointer",
     "mangled_component_name":"_ZThn4_N7android10frameworks14displayservice4V1_016BsDisplayServiceD1Ev"
    },
    {
     "kind":"deleting_dtor_pointer",
     "mangled_component_name":"_ZThn4_N7android10frameworks14displayservice4V1_016BsDisplayServiceD0Ev"
    },
    {
     "kind":"vcall_offset"
    },
    {
     "kind":"vcall_offset"
    },
    {
     "kind":"vcall_offset"
    },
    {
     "kind":"vcall_offset"
    },
    {
     "kind":"vcall_offset",
     "component_value":-60
    },
    {
     "kind":"offset_to_top",
     "component_value":-60
    },
    {
     "kind":"rtti",
     "mangled_component_name":"_ZTIN7android10frameworks14displayservice4V1_016BsDisplayServiceE"
    },
    {
     "kind":"complete_dtor_pointer",
     "mangled_component_name":"_ZTv0_n12_N7android10frameworks14displayservice4V1_016BsDisplayServiceD1Ev"
    },
    {
     "kind":"deleting_dtor_pointer",
     "mangled_component_name":"_ZTv0_n12_N7android10frameworks14displayservice4V1_016BsDisplayServiceD0Ev"
    },
    {
     "mangled_component_name":"_ZN7android7RefBase10onFirstRefEv"
    },
    {
     "mangled_component_name":"_ZN7android7RefBase15onLastStrongRefEPKv"
    },
    {
     "mangled_component_name":"_ZN7android7RefBase20onIncStrongAttemptedEjPKv"
    },
    {
     "mangled_component_name":"_ZN7android7RefBase13onLastWeakRefEPKv"
    }
   ],
   "unique_id":"_ZTSN7android10frameworks14displayservice4V1_016BsDisplayServiceE"
  },
  {
   "vtable_components":[
    {
     "kind":"vbase_offset",
     "component_value":84
    },
    {
     "kind":"offset_to_top"
    },
    {
     "kind":"rtti",
     "mangled_component_name":"_ZTIN7android10frameworks14displayservice4V1_018BpHwDisplayServiceE"
    },
    {
     "mangled_component_name":"_ZNK7android10frameworks14displayservice4V1_018BpHwDisplayService8isRemoteEv"
    },
    {
     "mangled_component_name":"_ZN7android10frameworks14displayservice4V1_018BpHwDisplayService14interfaceChainENSt3__18functionIFvRKNS_8hardware8hidl_vecINS6_11hidl_stringEEEEEE"
    },
    {
     "mangled_component_name":"_ZN7android10frameworks14displayservice4V1_018BpHwDisplayService5debugERKNS_8hardware11hidl_handleERKNS4_8hidl_vecINS4_11hidl_stringEEE"
    },
    {
     "mangled_component_name":"_ZN7android10frameworks14displayservice4V1_018BpHwDisplayService19interfaceDescriptorENSt3__18functionIFvRKNS_8hardware11hidl_stringEEEE"
    },
    {
     "mangled_component_name":"_ZN7android10frameworks14displayservice4V1_018BpHwDisplayService12getHashChainENSt3__18functionIFvRKNS_8hardware8hidl_vecINS6_10hidl_arrayIhLj32EJEEEEEEEE"
    },
    {
     "mangled_component_name":"_ZN7android10frameworks14displayservice4V1_018BpHwDisplayService21setHALInstrumentationEv"
    },
    {
     "mangled_component_name":"_ZN7android10frameworks14displayservice4V1_018BpHwDisplayService11linkToDeathERKNS_2spINS_8hardware20hidl_death_recipientEEEy"
    },
    {
     "mangled_component_name":"_ZN7android10frameworks14displayservice4V1_018BpHwDisplayService4pingEv"
    },
    {
     "mangled_component_name":"_ZN7android10frameworks14displayservice4V1_018BpHwDisplayService12getDebugInfoENSt3__18functionIFvRKNS_4hidl4base4V1_09DebugInfoEEEE"
    },
    {
     "mangled_component_name":"_ZN7android10frameworks14displayservice4V1_018BpHwDisplayService21notifySyspropsChangedEv"
    },
    {
     "mangled_component_name":"_ZN7android10frameworks14displayservice4V1_018BpHwDisplayService13unlinkToDeathERKNS_2spINS_8hardware20hidl_death_recipientEEE"
    },
    {
     "kind":"complete_dtor_pointer",
     "mangled_component_name":"_ZN7android10frameworks14displayservice4V1_018BpHwDisplayServiceD1Ev"
    },
    {
     "kind":"deleting_dtor_pointer",
     "mangled_component_name":"_ZN7android10frameworks14displayservice4V1_018BpHwDisplayServiceD0Ev"
    },
    {
     "mangled_component_name":"_ZN7android10frameworks14displayservice4V1_018BpHwDisplayService16getEventReceiverEv"
    },
    {
     "mangled_component_name":"_ZN7android8hardware11BpInterfaceINS_10frameworks14displayservice4V1_015IDisplayServiceEE10onAsBinderEv"
    },
    {
     "kind":"vbase_offset",
     "component_value":80
    },
    {
     "kind":"offset_to_top",
     "component_value":-4
    },
    {
     "kind":"rtti",
     "mangled_component_name":"_ZTIN7android10frameworks14displayservice4V1_018BpHwDisplayServiceE"
    },
    {
     "kind":"complete_dtor_pointer",
     "mangled_component_name":"_ZThn4_N7android10frameworks14displayservice4V1_018BpHwDisplayServiceD1Ev"
    },
    {
     "kind":"deleting_dtor_pointer",
     "mangled_component_name":"_ZThn4_N7android10frameworks14displayservice4V1_018BpHwDisplayServiceD0Ev"
    },
    {
     "mangled_component_name":"_ZThn4_N7android8hardware11BpInterfaceINS_10frameworks14displayservice4V1_015IDisplayServiceEE10onAsBinderEv"
    },
    {
     "kind":"vbase_offset",
     "component_value":76
    },
    {
     "kind":"offset_to_top",
     "component_value":-8
    },
    {
     "kind":"rtti",
     "mangled_component_name":"_ZTIN7android10frameworks14displayservice4V1_018BpHwDisplayServiceE"
    },
    {
     "kind":"complete_dtor_pointer",
     "mangled_component_name":"_ZThn8_N7android10frameworks14displayservice4V1_018BpHwDisplayServiceD1Ev"
    },
    {
     "kind":"deleting_dtor_pointer",
     "mangled_component_name":"_ZThn8_N7android10frameworks14displayservice4V1_018BpHwDisplayServiceD0Ev"
    },
    {
     "mangled_component_name":"_ZN7android8hardware11BpHwRefBase10onFirstRefEv"
    },
    {
     "mangled_component_name":"_ZN7android8hardware11BpHwRefBase15onLastStrongRefEPKv"
    },
    {
     "mangled_component_name":"_ZN7android8hardware11BpHwRefBase20onIncStrongAttemptedEjPKv"
    },
    {
     "kind":"offset_to_top",
     "component_value":-24
    },
    {
     "kind":"rtti",
     "mangled_component_name":"_ZTIN7android10frameworks14displayservice4V1_018BpHwDisplayServiceE"
    },
    {
     "kind":"complete_dtor_pointer",
     "mangled_component_name":"_ZThn24_N7android10frameworks14displayservice4V1_018BpHwDisplayServiceD1Ev"
    },
    {
     "kind":"deleting_dtor_pointer",
     "mangled_component_name":"_ZThn24_N7android10frameworks14displayservice4V1_018BpHwDisplayServiceD0Ev"
    },
    {
     "kind":"vcall_offset"
    },
    {
     "kind":"vcall_offset",
     "component_value":-76
    },
    {
     "kind":"vcall_offset",
     "component_value":-76
    },
    {
     "kind":"vcall_offset",
     "component_value":-76
    },
    {
     "kind":"vcall_offset",
     "component_value":-84
    },
    {
     "kind":"offset_to_top",
     "component_value":-84
    },
    {
     "kind":"rtti",
     "mangled_component_name":"_ZTIN7android10frameworks14displayservice4V1_018BpHwDisplayServiceE"
    },
    {
     "kind":"complete_dtor_pointer",
     "mangled_component_name":"_ZTv0_n12_N7android10frameworks14displayservice4V1_018BpHwDisplayServiceD1Ev"
    },
    {
     "kind":"deleting_dtor_pointer",
     "mangled_component_name":"_ZTv0_n12_N7android10frameworks14displayservice4V1_018BpHwDisplayServiceD0Ev"
    },
    {
     "mangled_component_name":"_ZTv0_n16_N7android8hardware11BpHwRefBase10onFirstRefEv"
    },
    {
     "mangled_component_name":"_ZTv0_n20_N7android8hardware11BpHwRefBase15onLastStrongRefEPKv"
    },
    {
     "mangled_component_name":"_ZTv0_n24_N7android8hardware11BpHwRefBase20onIncStrongAttemptedEjPKv"
    },
    {
     "mangled_component_name":"_ZN7android7RefBase13onLastWeakRefEPKv"
    }
   ],
   "unique_id":"_ZTSN7android10frameworks14displayservice4V1_018BpHwDisplayServiceE"
  }
 ],
 "elf_functions":[
  {
   "name":"_ZN7android10frameworks14displayservice4V1_014IEventCallback10getServiceERKNSt3__112basic_stringIcNS4_11char_traitsIcEENS4_9allocatorIcEEEEb"
  },
  {
   "name":"_ZN7android10frameworks14displayservice4V1_014IEventCallback11linkToDeathERKNS_2spINS_8hardware20hidl_death_recipientEEEy"
  },
  {
   "name":"_ZN7android10frameworks14displayservice4V1_014IEventCallback12getDebugInfoENSt3__18functionIFvRKNS_4hidl4base4V1_09DebugInfoEEEE"
  },
  {
   "name":"_ZN7android10frameworks14displayservice4V1_014IEventCallback12getHashChainENSt3__18functionIFvRKNS_8hardware8hidl_vecINS6_10hidl_arrayIhLj32EJEEEEEEEE"
  },
  {
   "name":"_ZN7android10frameworks14displayservice4V1_014IEventCallback13tryGetServiceERKNSt3__112basic_stringIcNS4_11char_traitsIcEENS4_9allocatorIcEEEEb"
  },
  {
   "name":"_ZN7android10frameworks14displayservice4V1_014IEventCallback13unlinkToDeathERKNS_2spINS_8hardware20hidl_death_recipientEEE"
  },
  {
   "name":"_ZN7android10frameworks14displayservice4V1_014IEventCallback14interfaceChainENSt3__18functionIFvRKNS_8hardware8hidl_vecINS6_11hidl_stringEEEEEE"
  },
  {
   "name":"_ZN7android10frameworks14displayservice4V1_014IEventCallback17registerAsServiceERKNSt3__112basic_stringIcNS4_11char_traitsIcEENS4_9allocatorIcEEEE"
  },
  {
   "name":"_ZN7android10frameworks14displayservice4V1_014IEventCallback19interfaceDescriptorENSt3__18functionIFvRKNS_8hardware11hidl_stringEEEE"
  },
  {
   "name":"_ZN7android10frameworks14displayservice4V1_014IEventCallback21notifySyspropsChangedEv"
  },
  {
   "name":"_ZN7android10frameworks14displayservice4V1_014IEventCallback21setHALInstrumentationEv"
  },
  {
   "name":"_ZN7android10frameworks14displayservice4V1_014IEventCallback24registerForNotificationsERKNSt3__112basic_stringIcNS4_11char_traitsIcEENS4_9allocatorIcEEEERKNS_2spINS_4hidl7manager4V1_020IServiceNotificationEEE"
  },
  {
   "name":"_ZN7android10frameworks14displayservice4V1_014IEventCallback4pingEv"
  },
  {
   "name":"_ZN7android10frameworks14displayservice4V1_014IEventCallback5debugERKNS_8hardware11hidl_handleERKNS4_8hidl_vecINS4_11hidl_stringEEE"
  },
  {
   "name":"_ZN7android10frameworks14displayservice4V1_014IEventCallback8castFromERKNS_2spINS_4hidl4base4V1_05IBaseEEEb"
  },
  {
   "name":"_ZN7android10frameworks14displayservice4V1_014IEventCallback8castFromERKNS_2spIS3_EEb"
  },
  {
   "name":"_ZN7android10frameworks14displayservice4V1_015BsEventCallback13addOnewayTaskENSt3__18functionIFvvEEE"
  },
  {
   "name":"_ZN7android10frameworks14displayservice4V1_015BsEventCallbackC1ENS_2spINS2_14IEventCallbackEEE"
  },
  {
   "name":"_ZN7android10frameworks14displayservice4V1_015BsEventCallbackC2ENS_2spINS2_14IEventCallbackEEE"
  },
  {
   "name":"_ZN7android10frameworks14displayservice4V1_015IDisplayService10getServiceERKNSt3__112basic_stringIcNS4_11char_traitsIcEENS4_9allocatorIcEEEEb"
  },
  {
   "name":"_ZN7android10frameworks14displayservice4V1_015IDisplayService11linkToDeathERKNS_2spINS_8hardware20hidl_death_recipientEEEy"
  },
  {
   "name":"_ZN7android10frameworks14displayservice4V1_015IDisplayService12getDebugInfoENSt3__18functionIFvRKNS_4hidl4base4V1_09DebugInfoEEEE"
  },
  {
   "name":"_ZN7android10frameworks14displayservice4V1_015IDisplayService12getHashChainENSt3__18functionIFvRKNS_8hardware8hidl_vecINS6_10hidl_arrayIhLj32EJEEEEEEEE"
  },
  {
   "name":"_ZN7android10frameworks14displayservice4V1_015IDisplayService13tryGetServiceERKNSt3__112basic_stringIcNS4_11char_traitsIcEENS4_9allocatorIcEEEEb"
  },
  {
   "name":"_ZN7android10frameworks14displayservice4V1_015IDisplayService13unlinkToDeathERKNS_2spINS_8hardware20hidl_death_recipientEEE"
  },
  {
   "name":"_ZN7android10frameworks14displayservice4V1_015IDisplayService14interfaceChainENSt3__18functionIFvRKNS_8hardware8hidl_vecINS6_11hidl_stringEEEEEE"
  },
  {
   "name":"_ZN7android10frameworks14displayservice4V1_015IDisplayService17registerAsServiceERKNSt3__112basic_stringIcNS4_11char_traitsIcEENS4_9allocatorIcEEEE"
  },
  {
   "name":"_ZN7android10frameworks14displayservice4V1_015IDisplayService19interfaceDescriptorENSt3__18functionIFvRKNS_8hardware11hidl_stringEEEE"
  },
  {
   "name":"_ZN7android10frameworks14displayservice4V1_015IDisplayService21notifySyspropsChangedEv"
  },
  {
   "name":"_ZN7android10frameworks14displayservice4V1_015IDisplayService21setHALInstrumentationEv"
  },
  {
   "name":"_ZN7android10frameworks14displayservice4V1_015IDisplayService24registerForNotificationsERKNSt3__112basic_stringIcNS4_11char_traitsIcEENS4_9allocatorIcEEEERKNS_2spINS_4hidl7manager4V1_020IServiceNotificationEEE"
  },
  {
   "name":"_ZN7android10frameworks14displayservice4V1_015IDisplayService4pingEv"
  },
  {
   "name":"_ZN7android10frameworks14displayservice4V1_015IDisplayService5debugERKNS_8hardware11hidl_handleERKNS4_8hidl_vecINS4_11hidl_stringEEE"
  },
  {
   "name":"_ZN7android10frameworks14displayservice4V1_015IDisplayService8castFromERKNS_2spINS_4hidl4base4V1_05IBaseEEEb"
  },
  {
   "name":"_ZN7android10frameworks14displayservice4V1_015IDisplayService8castFromERKNS_2spIS3_EEb"
  },
  {
   "name":"_ZN7android10frameworks14displayservice4V1_016BsDisplayService13addOnewayTaskENSt3__18functionIFvvEEE"
  },
  {
   "name":"_ZN7android10frameworks14displayservice4V1_016BsDisplayServiceC1ENS_2spINS2_15IDisplayServiceEEE"
  },
  {
   "name":"_ZN7android10frameworks14displayservice4V1_016BsDisplayServiceC2ENS_2spINS2_15IDisplayServiceEEE"
  },
  {
   "name":"_ZN7android10frameworks14displayservice4V1_017BnHwEventCallback10onTransactEjRKNS_8hardware6ParcelEPS5_jNSt3__18functionIFvRS5_EEE"
  },
  {
   "name":"_ZN7android10frameworks14displayservice4V1_017BnHwEventCallback12getDebugInfoENSt3__18functionIFvRKNS_4hidl4base4V1_09DebugInfoEEEE"
  },
  {
   "name":"_ZN7android10frameworks14displayservice4V1_017BnHwEventCallback13_hidl_onVsyncEPNS_4hidl4base4V1_08BnHwBaseERKNS_8hardware6ParcelEPSA_NSt3__18functionIFvRSA_EEE"
  },
  {
   "name":"_ZN7android10frameworks14displayservice4V1_017BnHwEventCallback15_hidl_onHotplugEPNS_4hidl4base4V1_08BnHwBaseERKNS_8hardware6ParcelEPSA_NSt3__18functionIFvRSA_EEE"
  },
  {
   "name":"_ZN7android10frameworks14displayservice4V1_017BnHwEventCallback4pingEv"
  },
  {
   "name":"_ZN7android10frameworks14displayservice4V1_017BnHwEventCallbackC1ERKNS_2spINS2_14IEventCallbackEEE"
  },
  {
   "name":"_ZN7android10frameworks14displayservice4V1_017BnHwEventCallbackC2ERKNS_2spINS2_14IEventCallbackEEE"
  },
  {
   "name":"_ZN7android10frameworks14displayservice4V1_017BnHwEventCallbackD0Ev"
  },
  {
   "name":"_ZN7android10frameworks14displayservice4V1_017BnHwEventCallbackD1Ev"
  },
  {
   "name":"_ZN7android10frameworks14displayservice4V1_017BnHwEventCallbackD2Ev"
  },
  {
   "name":"_ZN7android10frameworks14displayservice4V1_017BpHwEventCallback11linkToDeathERKNS_2spINS_8hardware20hidl_death_recipientEEEy"
  },
  {
   "name":"_ZN7android10frameworks14displayservice4V1_017BpHwEventCallback12getDebugInfoENSt3__18functionIFvRKNS_4hidl4base4V1_09DebugInfoEEEE"
  },
  {
   "name":"_ZN7android10frameworks14displayservice4V1_017BpHwEventCallback12getHashChainENSt3__18functionIFvRKNS_8hardware8hidl_vecINS6_10hidl_arrayIhLj32EJEEEEEEEE"
  },
  {
   "name":"_ZN7android10frameworks14displayservice4V1_017BpHwEventCallback13_hidl_onVsyncEPNS_8hardware10IInterfaceEPNS4_7details16HidlInstrumentorEyj"
  },
  {
   "name":"_ZN7android10frameworks14displayservice4V1_017BpHwEventCallback13unlinkToDeathERKNS_2spINS_8hardware20hidl_death_recipientEEE"
  },
  {
   "name":"_ZN7android10frameworks14displayservice4V1_017BpHwEventCallback14interfaceChainENSt3__18functionIFvRKNS_8hardware8hidl_vecINS6_11hidl_stringEEEEEE"
  },
  {
   "name":"_ZN7android10frameworks14displayservice4V1_017BpHwEventCallback15_hidl_onHotplugEPNS_8hardware10IInterfaceEPNS4_7details16HidlInstrumentorEyb"
  },
  {
   "name":"_ZN7android10frameworks14displayservice4V1_017BpHwEventCallback19interfaceDescriptorENSt3__18functionIFvRKNS_8hardware11hidl_stringEEEE"
  },
  {
   "name":"_ZN7android10frameworks14displayservice4V1_017BpHwEventCallback21notifySyspropsChangedEv"
  },
  {
   "name":"_ZN7android10frameworks14displayservice4V1_017BpHwEventCallback21setHALInstrumentationEv"
  },
  {
   "name":"_ZN7android10frameworks14displayservice4V1_017BpHwEventCallback4pingEv"
  },
  {
   "name":"_ZN7android10frameworks14displayservice4V1_017BpHwEventCallback5debugERKNS_8hardware11hidl_handleERKNS4_8hidl_vecINS4_11hidl_stringEEE"
  },
  {
   "name":"_ZN7android10frameworks14displayservice4V1_017BpHwEventCallback7onVsyncEyj"
  },
  {
   "name":"_ZN7android10frameworks14displayservice4V1_017BpHwEventCallback9onHotplugEyb"
  },
  {
   "name":"_ZN7android10frameworks14displayservice4V1_017BpHwEventCallbackC1ERKNS_2spINS_8hardware7IBinderEEE"
  },
  {
   "name":"_ZN7android10frameworks14displayservice4V1_017BpHwEventCallbackC2ERKNS_2spINS_8hardware7IBinderEEE"
  },
  {
   "name":"_ZN7android10frameworks14displayservice4V1_018BnHwDisplayService10onTransactEjRKNS_8hardware6ParcelEPS5_jNSt3__18functionIFvRS5_EEE"
  },
  {
   "name":"_ZN7android10frameworks14displayservice4V1_018BnHwDisplayService12getDebugInfoENSt3__18functionIFvRKNS_4hidl4base4V1_09DebugInfoEEEE"
  },
  {
   "name":"_ZN7android10frameworks14displayservice4V1_018BnHwDisplayService22_hidl_getEventReceiverEPNS_4hidl4base4V1_08BnHwBaseERKNS_8hardware6ParcelEPSA_NSt3__18functionIFvRSA_EEE"
  },
  {
   "name":"_ZN7android10frameworks14displayservice4V1_018BnHwDisplayService4pingEv"
  },
  {
   "name":"_ZN7android10frameworks14displayservice4V1_018BnHwDisplayServiceC1ERKNS_2spINS2_15IDisplayServiceEEE"
  },
  {
   "name":"_ZN7android10frameworks14displayservice4V1_018BnHwDisplayServiceC2ERKNS_2spINS2_15IDisplayServiceEEE"
  },
  {
   "name":"_ZN7android10frameworks14displayservice4V1_018BnHwDisplayServiceD0Ev"
  },
  {
   "name":"_ZN7android10frameworks14displayservice4V1_018BnHwDisplayServiceD1Ev"
  },
  {
   "name":"_ZN7android10frameworks14displayservice4V1_018BnHwDisplayServiceD2Ev"
  },
  {
   "name":"_ZN7android10frameworks14displayservice4V1_018BpHwDisplayService11linkToDeathERKNS_2spINS_8hardware20hidl_death_recipientEEEy"
  },
  {
   "name":"_ZN7android10frameworks14displayservice4V1_018BpHwDisplayService12getDebugInfoENSt3__18functionIFvRKNS_4hidl4base4V1_09DebugInfoEEEE"
  },
  {
   "name":"_ZN7android10frameworks14displayservice4V1_018BpHwDisplayService12getHashChainENSt3__18functionIFvRKNS_8hardware8hidl_vecINS6_10hidl_arrayIhLj32EJEEEEEEEE"
  },
  {
   "name":"_ZN7android10frameworks14displayservice4V1_018BpHwDisplayService13unlinkToDeathERKNS_2spINS_8hardware20hidl_death_recipientEEE"
  },
  {
   "name":"_ZN7android10frameworks14displayservice4V1_018BpHwDisplayService14interfaceChainENSt3__18functionIFvRKNS_8hardware8hidl_vecINS6_11hidl_stringEEEEEE"
  },
  {
   "name":"_ZN7android10frameworks14displayservice4V1_018BpHwDisplayService16getEventReceiverEv"
  },
  {
   "name":"_ZN7android10frameworks14displayservice4V1_018BpHwDisplayService19interfaceDescriptorENSt3__18functionIFvRKNS_8hardware11hidl_stringEEEE"
  },
  {
   "name":"_ZN7android10frameworks14displayservice4V1_018BpHwDisplayService21notifySyspropsChangedEv"
  },
  {
   "name":"_ZN7android10frameworks14displayservice4V1_018BpHwDisplayService21setHALInstrumentationEv"
  },
  {
   "name":"_ZN7android10frameworks14displayservice4V1_018BpHwDisplayService22_hidl_getEventReceiverEPNS_8hardware10IInterfaceEPNS4_7details16HidlInstrumentorE"
  },
  {
   "name":"_ZN7android10frameworks14displayservice4V1_018BpHwDisplayService4pingEv"
  },
  {
   "name":"_ZN7android10frameworks14displayservice4V1_018BpHwDisplayService5debugERKNS_8hardware11hidl_handleERKNS4_8hidl_vecINS4_11hidl_stringEEE"
  },
  {
   "name":"_ZN7android10frameworks14displayservice4V1_018BpHwDisplayServiceC1ERKNS_2spINS_8hardware7IBinderEEE"
  },
  {
   "name":"_ZN7android10frameworks14displayservice4V1_018BpHwDisplayServiceC2ERKNS_2spINS_8hardware7IBinderEEE"
  },
  {
   "name":"_ZN7android10frameworks14displayservice4V1_021IDisplayEventReceiver10getServiceERKNSt3__112basic_stringIcNS4_11char_traitsIcEENS4_9allocatorIcEEEEb"
  },
  {
   "name":"_ZN7android10frameworks14displayservice4V1_021IDisplayEventReceiver11linkToDeathERKNS_2spINS_8hardware20hidl_death_recipientEEEy"
  },
  {
   "name":"_ZN7android10frameworks14displayservice4V1_021IDisplayEventReceiver12getDebugInfoENSt3__18functionIFvRKNS_4hidl4base4V1_09DebugInfoEEEE"
  },
  {
   "name":"_ZN7android10frameworks14displayservice4V1_021IDisplayEventReceiver12getHashChainENSt3__18functionIFvRKNS_8hardware8hidl_vecINS6_10hidl_arrayIhLj32EJEEEEEEEE"
  },
  {
   "name":"_ZN7android10frameworks14displayservice4V1_021IDisplayEventReceiver13tryGetServiceERKNSt3__112basic_stringIcNS4_11char_traitsIcEENS4_9allocatorIcEEEEb"
  },
  {
   "name":"_ZN7android10frameworks14displayservice4V1_021IDisplayEventReceiver13unlinkToDeathERKNS_2spINS_8hardware20hidl_death_recipientEEE"
  },
  {
   "name":"_ZN7android10frameworks14displayservice4V1_021IDisplayEventReceiver14interfaceChainENSt3__18functionIFvRKNS_8hardware8hidl_vecINS6_11hidl_stringEEEEEE"
  },
  {
   "name":"_ZN7android10frameworks14displayservice4V1_021IDisplayEventReceiver17registerAsServiceERKNSt3__112basic_stringIcNS4_11char_traitsIcEENS4_9allocatorIcEEEE"
  },
  {
   "name":"_ZN7android10frameworks14displayservice4V1_021IDisplayEventReceiver19interfaceDescriptorENSt3__18functionIFvRKNS_8hardware11hidl_stringEEEE"
  },
  {
   "name":"_ZN7android10frameworks14displayservice4V1_021IDisplayEventReceiver21notifySyspropsChangedEv"
  },
  {
   "name":"_ZN7android10frameworks14displayservice4V1_021IDisplayEventReceiver21setHALInstrumentationEv"
  },
  {
   "name":"_ZN7android10frameworks14displayservice4V1_021IDisplayEventReceiver24registerForNotificationsERKNSt3__112basic_stringIcNS4_11char_traitsIcEENS4_9allocatorIcEEEERKNS_2spINS_4hidl7manager4V1_020IServiceNotificationEEE"
  },
  {
   "name":"_ZN7android10frameworks14displayservice4V1_021IDisplayEventReceiver4pingEv"
  },
  {
   "name":"_ZN7android10frameworks14displayservice4V1_021IDisplayEventReceiver5debugERKNS_8hardware11hidl_handleERKNS4_8hidl_vecINS4_11hidl_stringEEE"
  },
  {
   "name":"_ZN7android10frameworks14displayservice4V1_021IDisplayEventReceiver8castFromERKNS_2spINS_4hidl4base4V1_05IBaseEEEb"
  },
  {
   "name":"_ZN7android10frameworks14displayservice4V1_021IDisplayEventReceiver8castFromERKNS_2spIS3_EEb"
  },
  {
   "name":"_ZN7android10frameworks14displayservice4V1_022BsDisplayEventReceiver13addOnewayTaskENSt3__18functionIFvvEEE"
  },
  {
   "name":"_ZN7android10frameworks14displayservice4V1_022BsDisplayEventReceiverC1ENS_2spINS2_21IDisplayEventReceiverEEE"
  },
  {
   "name":"_ZN7android10frameworks14displayservice4V1_022BsDisplayEventReceiverC2ENS_2spINS2_21IDisplayEventReceiverEEE"
  },
  {
   "name":"_ZN7android10frameworks14displayservice4V1_024BnHwDisplayEventReceiver10_hidl_initEPNS_4hidl4base4V1_08BnHwBaseERKNS_8hardware6ParcelEPSA_NSt3__18functionIFvRSA_EEE"
  },
  {
   "name":"_ZN7android10frameworks14displayservice4V1_024BnHwDisplayEventReceiver10onTransactEjRKNS_8hardware6ParcelEPS5_jNSt3__18functionIFvRS5_EEE"
  },
  {
   "name":"_ZN7android10frameworks14displayservice4V1_024BnHwDisplayEventReceiver11_hidl_closeEPNS_4hidl4base4V1_08BnHwBaseERKNS_8hardware6ParcelEPSA_NSt3__18functionIFvRSA_EEE"
  },
  {
   "name":"_ZN7android10frameworks14displayservice4V1_024BnHwDisplayEventReceiver12getDebugInfoENSt3__18functionIFvRKNS_4hidl4base4V1_09DebugInfoEEEE"
  },
  {
   "name":"_ZN7android10frameworks14displayservice4V1_024BnHwDisplayEventReceiver18_hidl_setVsyncRateEPNS_4hidl4base4V1_08BnHwBaseERKNS_8hardware6ParcelEPSA_NSt3__18functionIFvRSA_EEE"
  },
  {
   "name":"_ZN7android10frameworks14displayservice4V1_024BnHwDisplayEventReceiver22_hidl_requestNextVsyncEPNS_4hidl4base4V1_08BnHwBaseERKNS_8hardware6ParcelEPSA_NSt3__18functionIFvRSA_EEE"
  },
  {
   "name":"_ZN7android10frameworks14displayservice4V1_024BnHwDisplayEventReceiver4pingEv"
  },
  {
   "name":"_ZN7android10frameworks14displayservice4V1_024BnHwDisplayEventReceiverC1ERKNS_2spINS2_21IDisplayEventReceiverEEE"
  },
  {
   "name":"_ZN7android10frameworks14displayservice4V1_024BnHwDisplayEventReceiverC2ERKNS_2spINS2_21IDisplayEventReceiverEEE"
  },
  {
   "name":"_ZN7android10frameworks14displayservice4V1_024BnHwDisplayEventReceiverD0Ev"
  },
  {
   "name":"_ZN7android10frameworks14displayservice4V1_024BnHwDisplayEventReceiverD1Ev"
  },
  {
   "name":"_ZN7android10frameworks14displayservice4V1_024BnHwDisplayEventReceiverD2Ev"
  },
  {
   "name":"_ZN7android10frameworks14displayservice4V1_024BpHwDisplayEventReceiver10_hidl_initEPNS_8hardware10IInterfaceEPNS4_7details16HidlInstrumentorERKNS_2spINS2_14IEventCallbackEEE"
  },
  {
   "name":"_ZN7android10frameworks14displayservice4V1_024BpHwDisplayEventReceiver11_hidl_closeEPNS_8hardware10IInterfaceEPNS4_7details16HidlInstrumentorE"
  },
  {
   "name":"_ZN7android10frameworks14displayservice4V1_024BpHwDisplayEventReceiver11linkToDeathERKNS_2spINS_8hardware20hidl_death_recipientEEEy"
  },
  {
   "name":"_ZN7android10frameworks14displayservice4V1_024BpHwDisplayEventReceiver12getDebugInfoENSt3__18functionIFvRKNS_4hidl4base4V1_09DebugInfoEEEE"
  },
  {
   "name":"_ZN7android10frameworks14displayservice4V1_024BpHwDisplayEventReceiver12getHashChainENSt3__18functionIFvRKNS_8hardware8hidl_vecINS6_10hidl_arrayIhLj32EJEEEEEEEE"
  },
  {
   "name":"_ZN7android10frameworks14displayservice4V1_024BpHwDisplayEventReceiver12setVsyncRateEi"
  },
  {
   "name":"_ZN7android10frameworks14displayservice4V1_024BpHwDisplayEventReceiver13unlinkToDeathERKNS_2spINS_8hardware20hidl_death_recipientEEE"
  },
  {
   "name":"_ZN7android10frameworks14displayservice4V1_024BpHwDisplayEventReceiver14interfaceChainENSt3__18functionIFvRKNS_8hardware8hidl_vecINS6_11hidl_stringEEEEEE"
  },
  {
   "name":"_ZN7android10frameworks14displayservice4V1_024BpHwDisplayEventReceiver16requestNextVsyncEv"
  },
  {
   "name":"_ZN7android10frameworks14displayservice4V1_024BpHwDisplayEventReceiver18_hidl_setVsyncRateEPNS_8hardware10IInterfaceEPNS4_7details16HidlInstrumentorEi"
  },
  {
   "name":"_ZN7android10frameworks14displayservice4V1_024BpHwDisplayEventReceiver19interfaceDescriptorENSt3__18functionIFvRKNS_8hardware11hidl_stringEEEE"
  },
  {
   "name":"_ZN7android10frameworks14displayservice4V1_024BpHwDisplayEventReceiver21notifySyspropsChangedEv"
  },
  {
   "name":"_ZN7android10frameworks14displayservice4V1_024BpHwDisplayEventReceiver21setHALInstrumentationEv"
  },
  {
   "name":"_ZN7android10frameworks14displayservice4V1_024BpHwDisplayEventReceiver22_hidl_requestNextVsyncEPNS_8hardware10IInterfaceEPNS4_7details16HidlInstrumentorE"
  },
  {
   "name":"_ZN7android10frameworks14displayservice4V1_024BpHwDisplayEventReceiver4initERKNS_2spINS2_14IEventCallbackEEE"
  },
  {
   "name":"_ZN7android10frameworks14displayservice4V1_024BpHwDisplayEventReceiver4pingEv"
  },
  {
   "name":"_ZN7android10frameworks14displayservice4V1_024BpHwDisplayEventReceiver5closeEv"
  },
  {
   "name":"_ZN7android10frameworks14displayservice4V1_024BpHwDisplayEventReceiver5debugERKNS_8hardware11hidl_handleERKNS4_8hidl_vecINS4_11hidl_stringEEE"
  },
  {
   "name":"_ZN7android10frameworks14displayservice4V1_024BpHwDisplayEventReceiverC1ERKNS_2spINS_8hardware7IBinderEEE"
  },
  {
   "name":"_ZN7android10frameworks14displayservice4V1_024BpHwDisplayEventReceiverC2ERKNS_2spINS_8hardware7IBinderEEE"
  },
  {
   "binding":"weak",
   "name":"_ZN7android8hardware10fromBinderINS_10frameworks14displayservice4V1_014IEventCallbackENS4_17BpHwEventCallbackENS4_17BnHwEventCallbackEEENS_2spIT_EERKNS8_INS0_7IBinderEEE"
  },
  {
   "binding":"weak",
   "name":"_ZN7android8hardware10fromBinderINS_10frameworks14displayservice4V1_021IDisplayEventReceiverENS4_24BpHwDisplayEventReceiverENS4_24BnHwDisplayEventReceiverEEENS_2spIT_EERKNS8_INS0_7IBinderEEE"
  },
  {
   "binding":"weak",
   "name":"_ZN7android8hardware7details13castInterfaceINS_10frameworks14displayservice4V1_014IEventCallbackENS_4hidl4base4V1_05IBaseENS5_17BpHwEventCallbackEEENS0_6ReturnINS_2spIT_EEEENSD_IT0_EEPKcb"
  },
  {
   "binding":"weak",
   "name":"_ZN7android8hardware7details13castInterfaceINS_10frameworks14displayservice4V1_015IDisplayServiceENS_4hidl4base4V1_05IBaseENS5_18BpHwDisplayServiceEEENS0_6ReturnINS_2spIT_EEEENSD_IT0_EEPKcb"
  },
  {
   "binding":"weak",
   "name":"_ZN7android8hardware7details13castInterfaceINS_10frameworks14displayservice4V1_021IDisplayEventReceiverENS_4hidl4base4V1_05IBaseENS5_24BpHwDisplayEventReceiverEEENS0_6ReturnINS_2spIT_EEEENSD_IT0_EEPKcb"
  },
  {
   "binding":"weak",
   "name":"_ZN7android8hardware7details15wrapPassthroughINS_10frameworks14displayservice4V1_014IEventCallbackEvEENS_2spIT_EES9_"
  },
  {
   "binding":"weak",
   "name":"_ZN7android8hardware7details18getServiceInternalINS_10frameworks14displayservice4V1_017BpHwEventCallbackENS5_14IEventCallbackEvvEENS_2spIT0_EERKNSt3__112basic_stringIcNSB_11char_traitsIcEENSB_9allocatorIcEEEEbb"
  },
  {
   "binding":"weak",
   "name":"_ZN7android8hardware7details18getServiceInternalINS_10frameworks14displayservice4V1_018BpHwDisplayServiceENS5_15IDisplayServiceEvvEENS_2spIT0_EERKNSt3__112basic_stringIcNSB_11char_traitsIcEENSB_9allocatorIcEEEEbb"
  },
  {
   "binding":"weak",
   "name":"_ZN7android8hardware7details18getServiceInternalINS_10frameworks14displayservice4V1_024BpHwDisplayEventReceiverENS5_21IDisplayEventReceiverEvvEENS_2spIT0_EERKNSt3__112basic_stringIcNSB_11char_traitsIcEENSB_9allocatorIcEEEEbb"
  },
  {
   "binding":"weak",
   "name":"_ZN7android8hardware8toBinderINS_10frameworks14displayservice4V1_014IEventCallbackEvEENS_2spINS0_7IBinderEEENS6_IT_EE"
  },
  {
   "binding":"weak",
   "name":"_ZN7android8hardware8toBinderINS_10frameworks14displayservice4V1_021IDisplayEventReceiverEvEENS_2spINS0_7IBinderEEENS6_IT_EE"
  },
  {
   "binding":"weak",
   "name":"_ZN7android8hardware8toBinderINS_4hidl4base4V1_05IBaseEvEENS_2spINS0_7IBinderEEENS6_IT_EE"
  },
  {
   "name":"_ZThn20_N7android10frameworks14displayservice4V1_017BnHwEventCallbackD0Ev"
  },
  {
   "name":"_ZThn20_N7android10frameworks14displayservice4V1_017BnHwEventCallbackD1Ev"
  },
  {
   "name":"_ZThn20_N7android10frameworks14displayservice4V1_018BnHwDisplayServiceD0Ev"
  },
  {
   "name":"_ZThn20_N7android10frameworks14displayservice4V1_018BnHwDisplayServiceD1Ev"
  },
  {
   "name":"_ZThn20_N7android10frameworks14displayservice4V1_024BnHwDisplayEventReceiverD0Ev"
  },
  {
   "name":"_ZThn20_N7android10frameworks14displayservice4V1_024BnHwDisplayEventReceiverD1Ev"
  },
  {
   "name":"_ZTv0_n12_N7android10frameworks14displayservice4V1_017BnHwEventCallbackD0Ev"
  },
  {
   "name":"_ZTv0_n12_N7android10frameworks14displayservice4V1_017BnHwEventCallbackD1Ev"
  },
  {
   "name":"_ZTv0_n12_N7android10frameworks14displayservice4V1_018BnHwDisplayServiceD0Ev"
  },
  {
   "name":"_ZTv0_n12_N7android10frameworks14displayservice4V1_018BnHwDisplayServiceD1Ev"
  },
  {
   "name":"_ZTv0_n12_N7android10frameworks14displayservice4V1_024BnHwDisplayEventReceiverD0Ev"
  },
  {
   "name":"_ZTv0_n12_N7android10frameworks14displayservice4V1_024BnHwDisplayEventReceiverD1Ev"
  }
 ],
 "elf_objects":[
  {
   "name":"_ZN7android10frameworks14displayservice4V1_014IEventCallback10descriptorE"
  },
  {
   "name":"_ZN7android10frameworks14displayservice4V1_015IDisplayService10descriptorE"
  },
  {
   "name":"_ZN7android10frameworks14displayservice4V1_021IDisplayEventReceiver10descriptorE"
  },
  {
   "name":"_ZTTN7android10frameworks14displayservice4V1_014IEventCallbackE"
  },
  {
   "name":"_ZTTN7android10frameworks14displayservice4V1_015IDisplayServiceE"
  },
  {
   "name":"_ZTTN7android10frameworks14displayservice4V1_017BnHwEventCallbackE"
  },
  {
   "name":"_ZTTN7android10frameworks14displayservice4V1_017BpHwEventCallbackE"
  },
  {
   "name":"_ZTTN7android10frameworks14displayservice4V1_018BnHwDisplayServiceE"
  },
  {
   "name":"_ZTTN7android10frameworks14displayservice4V1_018BpHwDisplayServiceE"
  },
  {
   "name":"_ZTTN7android10frameworks14displayservice4V1_021IDisplayEventReceiverE"
  },
  {
   "name":"_ZTTN7android10frameworks14displayservice4V1_024BnHwDisplayEventReceiverE"
  },
  {
   "name":"_ZTTN7android10frameworks14displayservice4V1_024BpHwDisplayEventReceiverE"
  },
  {
   "name":"_ZTVN7android10frameworks14displayservice4V1_014IEventCallbackE"
  },
  {
   "binding":"weak",
   "name":"_ZTVN7android10frameworks14displayservice4V1_015BsEventCallbackE"
  },
  {
   "name":"_ZTVN7android10frameworks14displayservice4V1_015IDisplayServiceE"
  },
  {
   "binding":"weak",
   "name":"_ZTVN7android10frameworks14displayservice4V1_016BsDisplayServiceE"
  },
  {
   "name":"_ZTVN7android10frameworks14displayservice4V1_017BnHwEventCallbackE"
  },
  {
   "name":"_ZTVN7android10frameworks14displayservice4V1_017BpHwEventCallbackE"
  },
  {
   "name":"_ZTVN7android10frameworks14displayservice4V1_018BnHwDisplayServiceE"
  },
  {
   "name":"_ZTVN7android10frameworks14displayservice4V1_018BpHwDisplayServiceE"
  },
  {
   "name":"_ZTVN7android10frameworks14displayservice4V1_021IDisplayEventReceiverE"
  },
  {
   "binding":"weak",
   "name":"_ZTVN7android10frameworks14displayservice4V1_022BsDisplayEventReceiverE"
  },
  {
   "name":"_ZTVN7android10frameworks14displayservice4V1_024BnHwDisplayEventReceiverE"
  },
  {
   "name":"_ZTVN7android10frameworks14displayservice4V1_024BpHwDisplayEventReceiverE"
  }
 ]
}