{
 "record_types":[
  {
   "vtable_components":[
    {
     "kind":"vbase_offset",
     "component_value":84
    },
    {
     "kind":"offset_to_top"
    },
    {
     "kind":"rtti",
     "mangled_component_name":"_ZTIN7android8hardware3drm4V1_114BpHwDrmFactoryE"
    },
    {
     "mangled_component_name":"_ZNK7android8hardware3drm4V1_114BpHwDrmFactory8isRemoteEv"
    },
    {
     "mangled_component_name":"_ZN7android8hardware3drm4V1_114BpHwDrmFactory14interfaceChainENSt3__18functionIFvRKNS0_8hidl_vecINS0_11hidl_stringEEEEEE"
    },
    {
     "mangled_component_name":"_ZN7android8hardware3drm4V1_114BpHwDrmFactory5debugERKNS0_11hidl_handleERKNS0_8hidl_vecINS0_11hidl_stringEEE"
    },
    {
     "mangled_component_name":"_ZN7android8hardware3drm4V1_114BpHwDrmFactory19interfaceDescriptorENSt3__18functionIFvRKNS0_11hidl_stringEEEE"
    },
    {
     "mangled_component_name":"_ZN7android8hardware3drm4V1_114BpHwDrmFactory12getHashChainENSt3__18functionIFvRKNS0_8hidl_vecINS0_10hidl_arrayIhLj32EJEEEEEEEE"
    },
    {
     "mangled_component_name":"_ZN7android8hardware3drm4V1_114BpHwDrmFactory21setHALInstrumentationEv"
    },
    {
     "mangled_component_name":"_ZN7android8hardware3drm4V1_114BpHwDrmFactory11linkToDeathERKNS_2spINS0_20hidl_death_recipientEEEy"
    },
    {
     "mangled_component_name":"_ZN7android8hardware3drm4V1_114BpHwDrmFactory4pingEv"
    },
    {
     "mangled_component_name":"_ZN7android8hardware3drm4V1_114BpHwDrmFactory12getDebugInfoENSt3__18functionIFvRKNS_4hidl4base4V1_09DebugInfoEEEE"
    },
    {
     "mangled_component_name":"_ZN7android8hardware3drm4V1_114BpHwDrmFactory21notifySyspropsChangedEv"
    },
    {
     "mangled_component_name":"_ZN7android8hardware3drm4V1_114BpHwDrmFactory13unlinkToDeathERKNS_2spINS0_20hidl_death_recipientEEE"
    },
    {
     "kind":"complete_dtor_pointer",
     "mangled_component_name":"_ZN7android8hardware3drm4V1_114BpHwDrmFactoryD1Ev"
    },
    {
     "kind":"deleting_dtor_pointer",
     "mangled_component_name":"_ZN7android8hardware3drm4V1_114BpHwDrmFactoryD0Ev"
    },
    {
     "mangled_component_name":"_ZN7android8hardware3drm4V1_114BpHwDrmFactory23isCryptoSchemeSupportedERKNS0_10hidl_arrayIhLj16EJEEE"
    },
    {
     "mangled_component_name":"_ZN7android8hardware3drm4V1_114BpHwDrmFactory22isContentTypeSupportedERKNS0_11hidl_stringE"
    },
    {
     "mangled_component_name":"_ZN7android8hardware3drm4V1_114BpHwDrmFactory12createPluginERKNS0_10hidl_arrayIhLj16EJEEERKNS0_11hidl_stringENSt3__18functionIFvNS1_4V1_06StatusERKNS_2spINSD_10IDrmPluginEEEEEE"
    },
    {
     "mangled_component_name":"_ZN7android8hardware11BpInterfaceINS0_3drm4V1_111IDrmFactoryEE10onAsBinderEv"
    },
    {
     "kind":"vbase_offset",
     "component_value":80
    },
    {
     "kind":"offset_to_top",
     "component_value":-4
    },
    {
     "kind":"rtti",
     "mangled_component_name":"_ZTIN7android8hardware3drm4V1_114BpHwDrmFactoryE"
    },
    {
     "kind":"complete_dtor_pointer",
     "mangled_component_name":"_ZThn4_N7android8hardware3drm4V1_114BpHwDrmFactoryD1Ev"
    },
    {
     "kind":"deleting_dtor_pointer",
     "mangled_component_name":"_ZThn4_N7android8hardware3drm4V1_114BpHwDrmFactoryD0Ev"
    },
    {
     "mangled_component_name":"_ZThn4_N7android8hardware11BpInterfaceINS0_3drm4V1_111IDrmFactoryEE10onAsBinderEv"
    },
    {
     "kind":"vbase_offset",
     "component_value":76
    },
    {
     "kind":"offset_to_top",
     "component_value":-8
    },
    {
     "kind":"rtti",
     "mangled_component_name":"_ZTIN7android8hardware3drm4V1_114BpHwDrmFactoryE"
    },
    {
     "kind":"complete_dtor_pointer",
     "mangled_component_name":"_ZThn8_N7android8hardware3drm4V1_114BpHwDrmFactoryD1Ev"
    },
    {
     "kind":"deleting_dtor_pointer",
     "mangled_component_name":"_ZThn8_N7android8hardware3drm4V1_114BpHwDrmFactoryD0Ev"
    },
    {
     "mangled_component_name":"_ZN7android8hardware11BpHwRefBase10onFirstRefEv"
    },
    {
     "mangled_component_name":"_ZN7android8hardware11BpHwRefBase15onLastStrongRefEPKv"
    },
    {
     "mangled_component_name":"_ZN7android8hardware11BpHwRefBase20onIncStrongAttemptedEjPKv"
    },
    {
     "kind":"offset_to_top",
     "component_value":-24
    },
    {
     "kind":"rtti",
     "mangled_component_name":"_ZTIN7android8hardware3drm4V1_114BpHwDrmFactoryE"
    },
    {
     "kind":"complete_dtor_pointer",
     "mangled_component_name":"_ZThn24_N7android8hardware3drm4V1_114BpHwDrmFactoryD1Ev"
    },
    {
     "kind":"deleting_dtor_pointer",
     "mangled_component_name":"_ZThn24_N7android8hardware3drm4V1_114BpHwDrmFactoryD0Ev"
    },
    {
     "kind":"vcall_offset"
    },
    {
     "kind":"vcall_offset",
     "component_value":-76
    },
    {
     "kind":"vcall_offset",
     "component_value":-76
    },
    {
     "kind":"vcall_offset",
     "component_value":-76
    },
    {
     "kind":"vcall_offset",
     "component_value":-84
    },
    {
     "kind":"offset_to_top",
     "component_value":-84
    },
    {
     "kind":"rtti",
     "mangled_component_name":"_ZTIN7android8hardware3drm4V1_114BpHwDrmFactoryE"
    },
    {
     "kind":"complete_dtor_pointer",
     "mangled_component_name":"_ZTv0_n12_N7android8hardware3drm4V1_114BpHwDrmFactoryD1Ev"
    },
    {
     "kind":"deleting_dtor_pointer",
     "mangled_component_name":"_ZTv0_n12_N7android8hardware3drm4V1_114BpHwDrmFactoryD0Ev"
    },
    {
     "mangled_component_name":"_ZTv0_n16_N7android8hardware11BpHwRefBase10onFirstRefEv"
    },
    {
     "mangled_component_name":"_ZTv0_n20_N7android8hardware11BpHwRefBase15onLastStrongRefEPKv"
    },
    {
     "mangled_component_name":"_ZTv0_n24_N7android8hardware11BpHwRefBase20onIncStrongAttemptedEjPKv"
    },
    {
     "mangled_component_name":"_ZN7android7RefBase13onLastWeakRefEPKv"
    }
   ],
   "unique_id":"_ZTSN7android8hardware3drm4V1_114BpHwDrmFactoryE"
  },
  {
   "vtable_components":[
    {
     "kind":"vbase_offset",
     "component_value":4
    },
    {
     "kind":"offset_to_top"
    },
    {
     "kind":"rtti",
     "mangled_component_name":"_ZTIN7android8hardware3drm4V1_110IDrmPluginE"
    },
    {
     "mangled_component_name":"_ZNK7android8hardware3drm4V1_110IDrmPlugin8isRemoteEv"
    },
    {
     "mangled_component_name":"_ZN7android8hardware3drm4V1_110IDrmPlugin14interfaceChainENSt3__18functionIFvRKNS0_8hidl_vecINS0_11hidl_stringEEEEEE"
    },
    {
     "mangled_component_name":"_ZN7android8hardware3drm4V1_110IDrmPlugin5debugERKNS0_11hidl_handleERKNS0_8hidl_vecINS0_11hidl_stringEEE"
    },
    {
     "mangled_component_name":"_ZN7android8hardware3drm4V1_110IDrmPlugin19interfaceDescriptorENSt3__18functionIFvRKNS0_11hidl_stringEEEE"
    },
    {
     "mangled_component_name":"_ZN7android8hardware3drm4V1_110IDrmPlugin12getHashChainENSt3__18functionIFvRKNS0_8hidl_vecINS0_10hidl_arrayIhLj32EJEEEEEEEE"
    },
    {
     "mangled_component_name":"_ZN7android8hardware3drm4V1_110IDrmPlugin21setHALInstrumentationEv"
    },
    {
     "mangled_component_name":"_ZN7android8hardware3drm4V1_110IDrmPlugin11linkToDeathERKNS_2spINS0_20hidl_death_recipientEEEy"
    },
    {
     "mangled_component_name":"_ZN7android8hardware3drm4V1_110IDrmPlugin4pingEv"
    },
    {
     "mangled_component_name":"_ZN7android8hardware3drm4V1_110IDrmPlugin12getDebugInfoENSt3__18functionIFvRKNS_4hidl4base4V1_09DebugInfoEEEE"
    },
    {
     "mangled_component_name":"_ZN7android8hardware3drm4V1_110IDrmPlugin21notifySyspropsChangedEv"
    },
    {
     "mangled_component_name":"_ZN7android8hardware3drm4V1_110IDrmPlugin13unlinkToDeathERKNS_2spINS0_20hidl_death_recipientEEE"
    },
    {
     "kind":"complete_dtor_pointer",
     "mangled_component_name":"_ZN7android8hardware3drm4V1_110IDrmPluginD1Ev"
    },
    {
     "kind":"deleting_dtor_pointer",
     "mangled_component_name":"_ZN7android8hardware3drm4V1_110IDrmPluginD0Ev"
    },
    {
     "is_pure":true,
     "mangled_component_name":"_ZN7android8hardware3drm4V1_110IDrmPlugin11openSessionENSt3__18functionIFvNS1_4V1_06StatusERKNS0_8hidl_vecIhEEEEE"
    },
    {
     "is_pure":true,
     "mangled_component_name":"_ZN7android8hardware3drm4V1_110IDrmPlugin12closeSessionERKNS0_8hidl_vecIhEE"
    },
    {
     "is_pure":true,
     "mangled_component_name":"_ZN7android8hardware3drm4V1_110IDrmPlugin13getKeyRequestERKNS0_8hidl_vecIhEES7_RKNS0_11hidl_stringENS1_4V1_07KeyTypeERKNS4_INSB_8KeyValueEEENSt3__18functionIFvNSB_6StatusES7_NSB_14KeyRequestTypeESA_EEE"
    },
    {
     "is_pure":true,
     "mangled_component_name":"_ZN7android8hardware3drm4V1_110IDrmPlugin18provideKeyResponseERKNS0_8hidl_vecIhEES7_NSt3__18functionIFvNS1_4V1_06StatusES7_EEE"
    },
    {
     "is_pure":true,
     "mangled_component_name":"_ZN7android8hardware3drm4V1_110IDrmPlugin10removeKeysERKNS0_8hidl_vecIhEE"
    },
    {
     "is_pure":true,
     "mangled_component_name":"_ZN7android8hardware3drm4V1_110IDrmPlugin11restoreKeysERKNS0_8hidl_vecIhEES7_"
    },
    {
     "is_pure":true,
     "mangled_component_name":"_ZN7android8hardware3drm4V1_110IDrmPlugin14queryKeyStatusERKNS0_8hidl_vecIhEENSt3__18functionIFvNS1_4V1_06StatusERKNS4_INSA_8KeyValueEEEEEE"
    },
    {
     "is_pure":true,
     "mangled_component_name":"_ZN7android8hardware3drm4V1_110IDrmPlugin19getProvisionRequestERKNS0_11hidl_stringES6_NSt3__18functionIFvNS1_4V1_06StatusERKNS0_8hidl_vecIhEES6_EEE"
    },
    {
     "is_pure":true,
     "mangled_component_name":"_ZN7android8hardware3drm4V1_110IDrmPlugin24provideProvisionResponseERKNS0_8hidl_vecIhEENSt3__18functionIFvNS1_4V1_06StatusES7_S7_EEE"
    },
    {
     "is_pure":true,
     "mangled_component_name":"_ZN7android8hardware3drm4V1_110IDrmPlugin14getSecureStopsENSt3__18functionIFvNS1_4V1_06StatusERKNS0_8hidl_vecINS6_10SecureStopEEEEEE"
    },
    {
     "is_pure":true,
     "mangled_component_name":"_ZN7android8hardware3drm4V1_110IDrmPlugin13getSecureStopERKNS0_8hidl_vecIhEENSt3__18functionIFvNS1_4V1_06StatusERKNSA_10SecureStopEEEE"
    },
    {
     "is_pure":true,
     "mangled_component_name":"_ZN7android8hardware3drm4V1_110IDrmPlugin21releaseAllSecureStopsEv"
    },
    {
     "is_pure":true,
     "mangled_component_name":"_ZN7android8hardware3drm4V1_110IDrmPlugin17releaseSecureStopERKNS0_8hidl_vecIhEE"
    },
    {
     "is_pure":true,
     "mangled_component_name":"_ZN7android8hardware3drm4V1_110IDrmPlugin17getPropertyStringERKNS0_11hidl_stringENSt3__18functionIFvNS1_4V1_06StatusES6_EEE"
    },
    {
     "is_pure":true,
     "mangled_component_name":"_ZN7android8hardware3drm4V1_110IDrmPlugin20getPropertyByteArrayERKNS0_11hidl_stringENSt3__18functionIFvNS1_4V1_06StatusERKNS0_8hidl_vecIhEEEEE"
    },
    {
     "is_pure":true,
     "mangled_component_name":"_ZN7android8hardware3drm4V1_110IDrmPlugin17setPropertyStringERKNS0_11hidl_stringES6_"
    },
    {
     "is_pure":true,
     "mangled_component_name":"_ZN7android8hardware3drm4V1_110IDrmPlugin20setPropertyByteArrayERKNS0_11hidl_stringERKNS0_8hidl_vecIhEE"
    },
    {
     "is_pure":true,
     "mangled_component_name":"_ZN7android8hardware3drm4V1_110IDrmPlugin18setCipherAlgorithmERKNS0_8hidl_vecIhEERKNS0_11hidl_stringE"
    },
    {
     "is_pure":true,
     "mangled_component_name":"_ZN7android8hardware3drm4V1_110IDrmPlugin15setMacAlgorithmERKNS0_8hidl_vecIhEERKNS0_11hidl_stringE"
    },
    {
     "is_pure":true,
     "mangled_component_name":"_ZN7android8hardware3drm4V1_110IDrmPlugin7encryptERKNS0_8hidl_vecIhEES7_S7_S7_NSt3__18functionIFvNS1_4V1_06StatusES7_EEE"
    },
    {
     "is_pure":true,
     "mangled_component_name":"_ZN7android8hardware3drm4V1_110IDrmPlugin7decryptERKNS0_8hidl_vecIhEES7_S7_S7_NSt3__18functionIFvNS1_4V1_06StatusES7_EEE"
    },
    {
     "is_pure":true,
     "mangled_component_name":"_ZN7android8hardware3drm4V1_110IDrmPlugin4signERKNS0_8hidl_vecIhEES7_S7_NSt3__18functionIFvNS1_4V1_06StatusES7_EEE"
    },
    {
     "is_pure":true,
     "mangled_component_name":"_ZN7android8hardware3drm4V1_110IDrmPlugin6verifyERKNS0_8hidl_vecIhEES7_S7_S7_NSt3__18functionIFvNS1_4V1_06StatusEbEEE"
    },
    {
     "is_pure":true,
     "mangled_component_name":"_ZN7android8hardware3drm4V1_110IDrmPlugin7signRSAERKNS0_8hidl_vecIhEERKNS0_11hidl_stringES7_S7_NSt3__18functionIFvNS1_4V1_06StatusES7_EEE"
    },
    {
     "is_pure":true,
     "mangled_component_name":"_ZN7android8hardware3drm4V1_110IDrmPlugin11setListenerERKNS_2spINS1_4V1_018IDrmPluginListenerEEE"
    },
    {
     "is_pure":true,
     "mangled_component_name":"_ZN7android8hardware3drm4V1_110IDrmPlugin9sendEventENS1_4V1_09EventTypeERKNS0_8hidl_vecIhEES9_"
    },
    {
     "is_pure":true,
     "mangled_component_name":"_ZN7android8hardware3drm4V1_110IDrmPlugin20sendExpirationUpdateERKNS0_8hidl_vecIhEEx"
    },
    {
     "is_pure":true,
     "mangled_component_name":"_ZN7android8hardware3drm4V1_110IDrmPlugin14sendKeysChangeERKNS0_8hidl_vecIhEERKNS4_INS1_4V1_09KeyStatusEEEb"
    },
    {
     "is_pure":true,
     "mangled_component_name":"_ZN7android8hardware3drm4V1_110IDrmPlugin15openSession_1_1ENS2_13SecurityLevelENSt3__18functionIFvNS1_4V1_06StatusERKNS0_8hidl_vecIhEEEEE"
    },
    {
     "is_pure":true,
     "mangled_component_name":"_ZN7android8hardware3drm4V1_110IDrmPlugin17getKeyRequest_1_1ERKNS0_8hidl_vecIhEES7_RKNS0_11hidl_stringENS1_4V1_07KeyTypeERKNS4_INSB_8KeyValueEEENSt3__18functionIFvNSB_6StatusES7_NS2_14KeyRequestTypeESA_EEE"
    },
    {
     "is_pure":true,
     "mangled_component_name":"_ZN7android8hardware3drm4V1_110IDrmPlugin13getHdcpLevelsENSt3__18functionIFvNS1_4V1_06StatusENS2_9HdcpLevelES8_EEE"
    },
    {
     "is_pure":true,
     "mangled_component_name":"_ZN7android8hardware3drm4V1_110IDrmPlugin19getNumberOfSessionsENSt3__18functionIFvNS1_4V1_06StatusEjjEEE"
    },
    {
     "is_pure":true,
     "mangled_component_name":"_ZN7android8hardware3drm4V1_110IDrmPlugin16getSecurityLevelERKNS0_8hidl_vecIhEENSt3__18functionIFvNS1_4V1_06StatusENS2_13SecurityLevelEEEE"
    },
    {
     "is_pure":true,
     "mangled_component_name":"_ZN7android8hardware3drm4V1_110IDrmPlugin10getMetricsENSt3__18functionIFvNS1_4V1_06StatusERKNS0_8hidl_vecINS2_14DrmMetricGroupEEEEEE"
    },
    {
     "is_pure":true,
     "mangled_component_name":"_ZN7android8hardware3drm4V1_110IDrmPlugin16getSecureStopIdsENSt3__18functionIFvNS1_4V1_06StatusERKNS0_8hidl_vecINS8_IhEEEEEEE"
    },
    {
     "is_pure":true,
     "mangled_component_name":"_ZN7android8hardware3drm4V1_110IDrmPlugin18releaseSecureStopsERKNS2_17SecureStopReleaseE"
    },
    {
     "is_pure":true,
     "mangled_component_name":"_ZN7android8hardware3drm4V1_110IDrmPlugin16removeSecureStopERKNS0_8hidl_vecIhEE"
    },
    {
     "is_pure":true,
     "mangled_component_name":"_ZN7android8hardware3drm4V1_110IDrmPlugin20removeAllSecureStopsEv"
    },
    {
     "kind":"vcall_offset"
    },
    {
     "kind":"vcall_offset"
    },
    {
     "kind":"vcall_offset"
    },
    {
     "kind":"vcall_offset"
    },
    {
     "kind":"vcall_offset",
     "component_value":-4
    },
    {
     "kind":"offset_to_top",
     "component_value":-4
    },
    {
     "kind":"rtti",
     "mangled_component_name":"_ZTIN7android8hardware3drm4V1_110IDrmPluginE"
    },
    {
     "kind":"complete_dtor_pointer",
     "mangled_component_name":"_ZTv0_n12_N7android8hardware3drm4V1_110IDrmPluginD1Ev"
    },
    {
     "kind":"deleting_dtor_pointer",
     "mangled_component_name":"_ZTv0_n12_N7android8hardware3drm4V1_110IDrmPluginD0Ev"
    },
    {
     "mangled_component_name":"_ZN7android7RefBase10onFirstRefEv"
    },
    {
     "mangled_component_name":"_ZN7android7RefBase15onLastStrongRefEPKv"
    },
    {
     "mangled_component_name":"_ZN7android7RefBase20onIncStrongAttemptedEjPKv"
    },
    {
     "mangled_component_name":"_ZN7android7RefBase13onLastWeakRefEPKv"
    }
   ],
   "unique_id":"_ZTSN7android8hardware3drm4V1_110IDrmPluginE"
  },
  {
   "vtable_components":[
    {
     "kind":"vbase_offset",
     "component_value":72
    },
    {
     "kind":"offset_to_top"
    },
    {
     "kind":"rtti",
     "mangled_component_name":"_ZTIN7android8hardware3drm4V1_113BnHwDrmPluginE"
    },
    {
     "mangled_component_name":"_ZN7android8hardware9BHwBinder8transactEjRKNS0_6ParcelEPS2_jNSt3__18functionIFvRS2_EEE"
    },
    {
     "mangled_component_name":"_ZN7android8hardware9BHwBinder11linkToDeathERKNS_2spINS0_7IBinder14DeathRecipientEEEPvj"
    },
    {
     "mangled_component_name":"_ZN7android8hardware9BHwBinder13unlinkToDeathERKNS_2wpINS0_7IBinder14DeathRecipientEEEPvjPS5_"
    },
    {
     "mangled_component_name":"_ZNK7android8hardware7IBinder13checkSubclassEPKv"
    },
    {
     "mangled_component_name":"_ZN7android8hardware9BHwBinder12attachObjectEPKvPvS4_PFvS3_S4_S4_E"
    },
    {
     "mangled_component_name":"_ZNK7android8hardware9BHwBinder10findObjectEPKv"
    },
    {
     "mangled_component_name":"_ZN7android8hardware9BHwBinder12detachObjectEPKv"
    },
    {
     "mangled_component_name":"_ZN7android8hardware9BHwBinder11localBinderEv"
    },
    {
     "mangled_component_name":"_ZN7android8hardware7IBinder12remoteBinderEv"
    },
    {
     "kind":"complete_dtor_pointer",
     "mangled_component_name":"_ZN7android8hardware3drm4V1_113BnHwDrmPluginD1Ev"
    },
    {
     "kind":"deleting_dtor_pointer",
     "mangled_component_name":"_ZN7android8hardware3drm4V1_113BnHwDrmPluginD0Ev"
    },
    {
     "mangled_component_name":"_ZN7android8hardware3drm4V1_113BnHwDrmPlugin10onTransactEjRKNS0_6ParcelEPS4_jNSt3__18functionIFvRS4_EEE"
    },
    {
     "kind":"offset_to_top",
     "component_value":-20
    },
    {
     "kind":"rtti",
     "mangled_component_name":"_ZTIN7android8hardware3drm4V1_113BnHwDrmPluginE"
    },
    {
     "kind":"complete_dtor_pointer",
     "mangled_component_name":"_ZThn20_N7android8hardware3drm4V1_113BnHwDrmPluginD1Ev"
    },
    {
     "kind":"deleting_dtor_pointer",
     "mangled_component_name":"_ZThn20_N7android8hardware3drm4V1_113BnHwDrmPluginD0Ev"
    },
    {
     "kind":"vcall_offset"
    },
    {
     "kind":"vcall_offset"
    },
    {
     "kind":"vcall_offset"
    },
    {
     "kind":"vcall_offset"
    },
    {
     "kind":"vcall_offset",
     "component_value":-72
    },
    {
     "kind":"offset_to_top",
     "component_value":-72
    },
    {
     "kind":"rtti",
     "mangled_component_name":"_ZTIN7android8hardware3drm4V1_113BnHwDrmPluginE"
    },
    {
     "kind":"complete_dtor_pointer",
     "mangled_component_name":"_ZTv0_n12_N7android8hardware3drm4V1_113BnHwDrmPluginD1Ev"
    },
    {
     "kind":"deleting_dtor_pointer",
     "mangled_component_name":"_ZTv0_n12_N7android8hardware3drm4V1_113BnHwDrmPluginD0Ev"
    },
    {
     "mangled_component_name":"_ZN7android7RefBase10onFirstRefEv"
    },
    {
     "mangled_component_name":"_ZN7android7RefBase15onLastStrongRefEPKv"
    },
    {
     "mangled_component_name":"_ZN7android7RefBase20onIncStrongAttemptedEjPKv"
    },
    {
     "mangled_component_name":"_ZN7android7RefBase13onLastWeakRefEPKv"
    }
   ],
   "unique_id":"_ZTSN7android8hardware3drm4V1_113BnHwDrmPluginE"
  },
  {
   "vtable_components":[
    {
     "kind":"vbase_offset",
     "component_value":60
    },
    {
     "kind":"offset_to_top"
    },
    {
     "kind":"rtti",
     "mangled_component_name":"_ZTIN7android8hardware3drm4V1_111BsDrmPluginE"
    },
    {
     "mangled_component_name":"_ZNK7android8hardware3drm4V1_110IDrmPlugin8isRemoteEv"
    },
    {
     "mangled_component_name":"_ZN7android8hardware3drm4V1_111BsDrmPlugin14interfaceChainENSt3__18functionIFvRKNS0_8hidl_vecINS0_11hidl_stringEEEEEE"
    },
    {
     "mangled_component_name":"_ZN7android8hardware3drm4V1_111BsDrmPlugin5debugERKNS0_11hidl_handleERKNS0_8hidl_vecINS0_11hidl_stringEEE"
    },
    {
     "mangled_component_name":"_ZN7android8hardware3drm4V1_111BsDrmPlugin19interfaceDescriptorENSt3__18functionIFvRKNS0_11hidl_stringEEEE"
    },
    {
     "mangled_component_name":"_ZN7android8hardware3drm4V1_111BsDrmPlugin12getHashChainENSt3__18functionIFvRKNS0_8hidl_vecINS0_10hidl_arrayIhLj32EJEEEEEEEE"
    },
    {
     "mangled_component_name":"_ZN7android8hardware3drm4V1_111BsDrmPlugin21setHALInstrumentationEv"
    },
    {
     "mangled_component_name":"_ZN7android8hardware3drm4V1_111BsDrmPlugin11linkToDeathERKNS_2spINS0_20hidl_death_recipientEEEy"
    },
    {
     "mangled_component_name":"_ZN7android8hardware3drm4V1_111BsDrmPlugin4pingEv"
    },
    {
     "mangled_component_name":"_ZN7android8hardware3drm4V1_111BsDrmPlugin12getDebugInfoENSt3__18functionIFvRKNS_4hidl4base4V1_09DebugInfoEEEE"
    },
    {
     "mangled_component_name":"_ZN7android8hardware3drm4V1_111BsDrmPlugin21notifySyspropsChangedEv"
    },
    {
     "mangled_component_name":"_ZN7android8hardware3drm4V1_111BsDrmPlugin13unlinkToDeathERKNS_2spINS0_20hidl_death_recipientEEE"
    },
    {
     "kind":"complete_dtor_pointer",
     "mangled_component_name":"_ZN7android8hardware3drm4V1_111BsDrmPluginD1Ev"
    },
    {
     "kind":"deleting_dtor_pointer",
     "mangled_component_name":"_ZN7android8hardware3drm4V1_111BsDrmPluginD0Ev"
    },
    {
     "mangled_component_name":"_ZN7android8hardware3drm4V1_111BsDrmPlugin11openSessionENSt3__18functionIFvNS1_4V1_06StatusERKNS0_8hidl_vecIhEEEEE"
    },
    {
     "mangled_component_name":"_ZN7android8hardware3drm4V1_111BsDrmPlugin12closeSessionERKNS0_8hidl_vecIhEE"
    },
    {
     "mangled_component_name":"_ZN7android8hardware3drm4V1_111BsDrmPlugin13getKeyRequestERKNS0_8hidl_vecIhEES7_RKNS0_11hidl_stringENS1_4V1_07KeyTypeERKNS4_INSB_8KeyValueEEENSt3__18functionIFvNSB_6StatusES7_NSB_14KeyRequestTypeESA_EEE"
    },
    {
     "mangled_component_name":"_ZN7android8hardware3drm4V1_111BsDrmPlugin18provideKeyResponseERKNS0_8hidl_vecIhEES7_NSt3__18functionIFvNS1_4V1_06StatusES7_EEE"
    },
    {
     "mangled_component_name":"_ZN7android8hardware3drm4V1_111BsDrmPlugin10removeKeysERKNS0_8hidl_vecIhEE"
    },
    {
     "mangled_component_name":"_ZN7android8hardware3drm4V1_111BsDrmPlugin11restoreKeysERKNS0_8hidl_vecIhEES7_"
    },
    {
     "mangled_component_name":"_ZN7android8hardware3drm4V1_111BsDrmPlugin14queryKeyStatusERKNS0_8hidl_vecIhEENSt3__18functionIFvNS1_4V1_06StatusERKNS4_INSA_8KeyValueEEEEEE"
    },
    {
     "mangled_component_name":"_ZN7android8hardware3drm4V1_111BsDrmPlugin19getProvisionRequestERKNS0_11hidl_stringES6_NSt3__18functionIFvNS1_4V1_06StatusERKNS0_8hidl_vecIhEES6_EEE"
    },
    {
     "mangled_component_name":"_ZN7android8hardware3drm4V1_111BsDrmPlugin24provideProvisionResponseERKNS0_8hidl_vecIhEENSt3__18functionIFvNS1_4V1_06StatusES7_S7_EEE"
    },
    {
     "mangled_component_name":"_ZN7android8hardware3drm4V1_111BsDrmPlugin14getSecureStopsENSt3__18functionIFvNS1_4V1_06StatusERKNS0_8hidl_vecINS6_10SecureStopEEEEEE"
    },
    {
     "mangled_component_name":"_ZN7android8hardware3drm4V1_111BsDrmPlugin13getSecureStopERKNS0_8hidl_vecIhEENSt3__18functionIFvNS1_4V1_06StatusERKNSA_10SecureStopEEEE"
    },
    {
     "mangled_component_name":"_ZN7android8hardware3drm4V1_111BsDrmPlugin21releaseAllSecureStopsEv"
    },
    {
     "mangled_component_name":"_ZN7android8hardware3drm4V1_111BsDrmPlugin17releaseSecureStopERKNS0_8hidl_vecIhEE"
    },
    {
     "mangled_component_name":"_ZN7android8hardware3drm4V1_111BsDrmPlugin17getPropertyStringERKNS0_11hidl_stringENSt3__18functionIFvNS1_4V1_06StatusES6_EEE"
    },
    {
     "mangled_component_name":"_ZN7android8hardware3drm4V1_111BsDrmPlugin20getPropertyByteArrayERKNS0_11hidl_stringENSt3__18functionIFvNS1_4V1_06StatusERKNS0_8hidl_vecIhEEEEE"
    },
    {
     "mangled_component_name":"_ZN7android8hardware3drm4V1_111BsDrmPlugin17setPropertyStringERKNS0_11hidl_stringES6_"
    },
    {
     "mangled_component_name":"_ZN7android8hardware3drm4V1_111BsDrmPlugin20setPropertyByteArrayERKNS0_11hidl_stringERKNS0_8hidl_vecIhEE"
    },
    {
     "mangled_component_name":"_ZN7android8hardware3drm4V1_111BsDrmPlugin18setCipherAlgorithmERKNS0_8hidl_vecIhEERKNS0_11hidl_stringE"
    },
    {
     "mangled_component_name":"_ZN7android8hardware3drm4V1_111BsDrmPlugin15setMacAlgorithmERKNS0_8hidl_vecIhEERKNS0_11hidl_stringE"
    },
    {
     "mangled_component_name":"_ZN7android8hardware3drm4V1_111BsDrmPlugin7encryptERKNS0_8hidl_vecIhEES7_S7_S7_NSt3__18functionIFvNS1_4V1_06StatusES7_EEE"
    },
    {
     "mangled_component_name":"_ZN7android8hardware3drm4V1_111BsDrmPlugin7decryptERKNS0_8hidl_vecIhEES7_S7_S7_NSt3__18functionIFvNS1_4V1_06StatusES7_EEE"
    },
    {
     "mangled_component_name":"_ZN7android8hardware3drm4V1_111BsDrmPlugin4signERKNS0_8hidl_vecIhEES7_S7_NSt3__18functionIFvNS1_4V1_06StatusES7_EEE"
    },
    {
     "mangled_component_name":"_ZN7android8hardware3drm4V1_111BsDrmPlugin6verifyERKNS0_8hidl_vecIhEES7_S7_S7_NSt3__18functionIFvNS1_4V1_06StatusEbEEE"
    },
    {
     "mangled_component_name":"_ZN7android8hardware3drm4V1_111BsDrmPlugin7signRSAERKNS0_8hidl_vecIhEERKNS0_11hidl_stringES7_S7_NSt3__18functionIFvNS1_4V1_06StatusES7_EEE"
    },
    {
     "mangled_component_name":"_ZN7android8hardware3drm4V1_111BsDrmPlugin11setListenerERKNS_2spINS1_4V1_018IDrmPluginListenerEEE"
    },
    {
     "mangled_component_name":"_ZN7android8hardware3drm4V1_111BsDrmPlugin9sendEventENS1_4V1_09EventTypeERKNS0_8hidl_vecIhEES9_"
    },
    {
     "mangled_component_name":"_ZN7android8hardware3drm4V1_111BsDrmPlugin20sendExpirationUpdateERKNS0_8hidl_vecIhEEx"
    },
    {
     "mangled_component_name":"_ZN7android8hardware3drm4V1_111BsDrmPlugin14sendKeysChangeERKNS0_8hidl_vecIhEERKNS4_INS1_4V1_09KeyStatusEEEb"
    },
    {
     "mangled_component_name":"_ZN7android8hardware3drm4V1_111BsDrmPlugin15openSession_1_1ENS2_13SecurityLevelENSt3__18functionIFvNS1_4V1_06StatusERKNS0_8hidl_vecIhEEEEE"
    },
    {
     "mangled_component_name":"_ZN7android8hardware3drm4V1_111BsDrmPlugin17getKeyRequest_1_1ERKNS0_8hidl_vecIhEES7_RKNS0_11hidl_stringENS1_4V1_07KeyTypeERKNS4_INSB_8KeyValueEEENSt3__18functionIFvNSB_6StatusES7_NS2_14KeyRequestTypeESA_EEE"
    },
    {
     "mangled_component_name":"_ZN7android8hardware3drm4V1_111BsDrmPlugin13getHdcpLevelsENSt3__18functionIFvNS1_4V1_06StatusENS2_9HdcpLevelES8_EEE"
    },
    {
     "mangled_component_name":"_ZN7android8hardware3drm4V1_111BsDrmPlugin19getNumberOfSessionsENSt3__18functionIFvNS1_4V1_06StatusEjjEEE"
    },
    {
     "mangled_component_name":"_ZN7android8hardware3drm4V1_111BsDrmPlugin16getSecurityLevelERKNS0_8hidl_vecIhEENSt3__18functionIFvNS1_4V1_06StatusENS2_13SecurityLevelEEEE"
    },
    {
     "mangled_component_name":"_ZN7android8hardware3drm4V1_111BsDrmPlugin10getMetricsENSt3__18functionIFvNS1_4V1_06StatusERKNS0_8hidl_vecINS2_14DrmMetricGroupEEEEEE"
    },
    {
     "mangled_component_name":"_ZN7android8hardware3drm4V1_111BsDrmPlugin16getSecureStopIdsENSt3__18functionIFvNS1_4V1_06StatusERKNS0_8hidl_vecINS8_IhEEEEEEE"
    },
    {
     "mangled_component_name":"_ZN7android8hardware3drm4V1_111BsDrmPlugin18releaseSecureStopsERKNS2_17SecureStopReleaseE"
    },
    {
     "mangled_component_name":"_ZN7android8hardware3drm4V1_111BsDrmPlugin16removeSecureStopERKNS0_8hidl_vecIhEE"
    },
    {
     "mangled_component_name":"_ZN7android8hardware3drm4V1_111BsDrmPlugin20removeAllSecureStopsEv"
    },
    {
     "kind":"offset_to_top",
     "component_value":-4
    },
    {
     "kind":"rtti",
     "mangled_component_name":"_ZTIN7android8hardware3drm4V1_111BsDrmPluginE"
    },
    {
     "kind":"complete_dtor_pointer",
     "mangled_component_name":"_ZThn4_N7android8hardware3drm4V1_111BsDrmPluginD1Ev"
    },
    {
     "kind":"deleting_dtor_pointer",
     "mangled_component_name":"_ZThn4_N7android8hardware3drm4V1_111BsDrmPluginD0Ev"
    },
    {
     "kind":"vcall_offset"
    },
    {
     "kind":"vcall_offset"
    },
    {
     "kind":"vcall_offset"
    },
    {
     "kind":"vcall_offset"
    },
    {
     "kind":"vcall_offset",
     "component_value":-60
    },
    {
     "kind":"offset_to_top",
     "component_value":-60
    },
    {
     "kind":"rtti",
     "mangled_component_name":"_ZTIN7android8hardware3drm4V1_111BsDrmPluginE"
    },
    {
     "kind":"complete_dtor_pointer",
     "mangled_component_name":"_ZTv0_n12_N7android8hardware3drm4V1_111BsDrmPluginD1Ev"
    },
    {
     "kind":"deleting_dtor_pointer",
     "mangled_component_name":"_ZTv0_n12_N7android8hardware3drm4V1_111BsDrmPluginD0Ev"
    },
    {
     "mangled_component_name":"_ZN7android7RefBase10onFirstRefEv"
    },
    {
     "mangled_component_name":"_ZN7android7RefBase15onLastStrongRefEPKv"
    },
    {
     "mangled_component_name":"_ZN7android7RefBase20onIncStrongAttemptedEjPKv"
    },
    {
     "mangled_component_name":"_ZN7android7RefBase13onLastWeakRefEPKv"
    }
   ],
   "unique_id":"_ZTSN7android8hardware3drm4V1_111BsDrmPluginE"
  },
  {
   "vtable_components":[
    {
     "kind":"vbase_offset",
     "component_value":84
    },
    {
     "kind":"offset_to_top"
    },
    {
     "kind":"rtti",
     "mangled_component_name":"_ZTIN7android8hardware3drm4V1_113BpHwDrmPluginE"
    },
    {
     "mangled_component_name":"_ZNK7android8hardware3drm4V1_113BpHwDrmPlugin8isRemoteEv"
    },
    {
     "mangled_component_name":"_ZN7android8hardware3drm4V1_113BpHwDrmPlugin14interfaceChainENSt3__18functionIFvRKNS0_8hidl_vecINS0_11hidl_stringEEEEEE"
    },
    {
     "mangled_component_name":"_ZN7android8hardware3drm4V1_113BpHwDrmPlugin5debugERKNS0_11hidl_handleERKNS0_8hidl_vecINS0_11hidl_stringEEE"
    },
    {
     "mangled_component_name":"_ZN7android8hardware3drm4V1_113BpHwDrmPlugin19interfaceDescriptorENSt3__18functionIFvRKNS0_11hidl_stringEEEE"
    },
    {
     "mangled_component_name":"_ZN7android8hardware3drm4V1_113BpHwDrmPlugin12getHashChainENSt3__18functionIFvRKNS0_8hidl_vecINS0_10hidl_arrayIhLj32EJEEEEEEEE"
    },
    {
     "mangled_component_name":"_ZN7android8hardware3drm4V1_113BpHwDrmPlugin21setHALInstrumentationEv"
    },
    {
     "mangled_component_name":"_ZN7android8hardware3drm4V1_113BpHwDrmPlugin11linkToDeathERKNS_2spINS0_20hidl_death_recipientEEEy"
    },
    {
     "mangled_component_name":"_ZN7android8hardware3drm4V1_113BpHwDrmPlugin4pingEv"
    },
    {
     "mangled_component_name":"_ZN7android8hardware3drm4V1_113BpHwDrmPlugin12getDebugInfoENSt3__18functionIFvRKNS_4hidl4base4V1_09DebugInfoEEEE"
    },
    {
     "mangled_component_name":"_ZN7android8hardware3drm4V1_113BpHwDrmPlugin21notifySyspropsChangedEv"
    },
    {
     "mangled_component_name":"_ZN7android8hardware3drm4V1_113BpHwDrmPlugin13unlinkToDeathERKNS_2spINS0_20hidl_death_recipientEEE"
    },
    {
     "kind":"complete_dtor_pointer",
     "mangled_component_name":"_ZN7android8hardware3drm4V1_113BpHwDrmPluginD1Ev"
    },
    {
     "kind":"deleting_dtor_pointer",
     "mangled_component_name":"_ZN7android8hardware3drm4V1_113BpHwDrmPluginD0Ev"
    },
    {
     "mangled_component_name":"_ZN7android8hardware3drm4V1_113BpHwDrmPlugin11openSessionENSt3__18functionIFvNS1_4V1_06StatusERKNS0_8hidl_vecIhEEEEE"
    },
    {
     "mangled_component_name":"_ZN7android8hardware3drm4V1_113BpHwDrmPlugin12closeSessionERKNS0_8hidl_vecIhEE"
    },
    {
     "mangled_component_name":"_ZN7android8hardware3drm4V1_113BpHwDrmPlugin13getKeyRequestERKNS0_8hidl_vecIhEES7_RKNS0_11hidl_stringENS1_4V1_07KeyTypeERKNS4_INSB_8KeyValueEEENSt3__18functionIFvNSB_6StatusES7_NSB_14KeyRequestTypeESA_EEE"
    },
    {
     "mangled_component_name":"_ZN7android8hardware3drm4V1_113BpHwDrmPlugin18provideKeyResponseERKNS0_8hidl_vecIhEES7_NSt3__18functionIFvNS1_4V1_06StatusES7_EEE"
    },
    {
     "mangled_component_name":"_ZN7android8hardware3drm4V1_113BpHwDrmPlugin10removeKeysERKNS0_8hidl_vecIhEE"
    },
    {
     "mangled_component_name":"_ZN7android8hardware3drm4V1_113BpHwDrmPlugin11restoreKeysERKNS0_8hidl_vecIhEES7_"
    },
    {
     "mangled_component_name":"_ZN7android8hardware3drm4V1_113BpHwDrmPlugin14queryKeyStatusERKNS0_8hidl_vecIhEENSt3__18functionIFvNS1_4V1_06StatusERKNS4_INSA_8KeyValueEEEEEE"
    },
    {
     "mangled_component_name":"_ZN7android8hardware3drm4V1_113BpHwDrmPlugin19getProvisionRequestERKNS0_11hidl_stringES6_NSt3__18functionIFvNS1_4V1_06StatusERKNS0_8hidl_vecIhEES6_EEE"
    },
    {
     "mangled_component_name":"_ZN7android8hardware3drm4V1_113BpHwDrmPlugin24provideProvisionResponseERKNS0_8hidl_vecIhEENSt3__18functionIFvNS1_4V1_06StatusES7_S7_EEE"
    },
    {
     "mangled_component_name":"_ZN7android8hardware3drm4V1_113BpHwDrmPlugin14getSecureStopsENSt3__18functionIFvNS1_4V1_06StatusERKNS0_8hidl_vecINS6_10SecureStopEEEEEE"
    },
    {
     "mangled_component_name":"_ZN7android8hardware3drm4V1_113BpHwDrmPlugin13getSecureStopERKNS0_8hidl_vecIhEENSt3__18functionIFvNS1_4V1_06StatusERKNSA_10SecureStopEEEE"
    },
    {
     "mangled_component_name":"_ZN7android8hardware3drm4V1_113BpHwDrmPlugin21releaseAllSecureStopsEv"
    },
    {
     "mangled_component_name":"_ZN7android8hardware3drm4V1_113BpHwDrmPlugin17releaseSecureStopERKNS0_8hidl_vecIhEE"
    },
    {
     "mangled_component_name":"_ZN7android8hardware3drm4V1_113BpHwDrmPlugin17getPropertyStringERKNS0_11hidl_stringENSt3__18functionIFvNS1_4V1_06StatusES6_EEE"
    },
    {
     "mangled_component_name":"_ZN7android8hardware3drm4V1_113BpHwDrmPlugin20getPropertyByteArrayERKNS0_11hidl_stringENSt3__18functionIFvNS1_4V1_06StatusERKNS0_8hidl_vecIhEEEEE"
    },
    {
     "mangled_component_name":"_ZN7android8hardware3drm4V1_113BpHwDrmPlugin17setPropertyStringERKNS0_11hidl_stringES6_"
    },
    {
     "mangled_component_name":"_ZN7android8hardware3drm4V1_113BpHwDrmPlugin20setPropertyByteArrayERKNS0_11hidl_stringERKNS0_8hidl_vecIhEE"
    },
    {
     "mangled_component_name":"_ZN7android8hardware3drm4V1_113BpHwDrmPlugin18setCipherAlgorithmERKNS0_8hidl_vecIhEERKNS0_11hidl_stringE"
    },
    {
     "mangled_component_name":"_ZN7android8hardware3drm4V1_113BpHwDrmPlugin15setMacAlgorithmERKNS0_8hidl_vecIhEERKNS0_11hidl_stringE"
    },
    {
     "mangled_component_name":"_ZN7android8hardware3drm4V1_113BpHwDrmPlugin7encryptERKNS0_8hidl_vecIhEES7_S7_S7_NSt3__18functionIFvNS1_4V1_06StatusES7_EEE"
    },
    {
     "mangled_component_name":"_ZN7android8hardware3drm4V1_113BpHwDrmPlugin7decryptERKNS0_8hidl_vecIhEES7_S7_S7_NSt3__18functionIFvNS1_4V1_06StatusES7_EEE"
    },
    {
     "mangled_component_name":"_ZN7android8hardware3drm4V1_113BpHwDrmPlugin4signERKNS0_8hidl_vecIhEES7_S7_NSt3__18functionIFvNS1_4V1_06StatusES7_EEE"
    },
    {
     "mangled_component_name":"_ZN7android8hardware3drm4V1_113BpHwDrmPlugin6verifyERKNS0_8hidl_vecIhEES7_S7_S7_NSt3__18functionIFvNS1_4V1_06StatusEbEEE"
    },
    {
     "mangled_component_name":"_ZN7android8hardware3drm4V1_113BpHwDrmPlugin7signRSAERKNS0_8hidl_vecIhEERKNS0_11hidl_stringES7_S7_NSt3__18functionIFvNS1_4V1_06StatusES7_EEE"
    },
    {
     "mangled_component_name":"_ZN7android8hardware3drm4V1_113BpHwDrmPlugin11setListenerERKNS_2spINS1_4V1_018IDrmPluginListenerEEE"
    },
    {
     "mangled_component_name":"_ZN7android8hardware3drm4V1_113BpHwDrmPlugin9sendEventENS1_4V1_09EventTypeERKNS0_8hidl_vecIhEES9_"
    },
    {
     "mangled_component_name":"_ZN7android8hardware3drm4V1_113BpHwDrmPlugin20sendExpirationUpdateERKNS0_8hidl_vecIhEEx"
    },
    {
     "mangled_component_name":"_ZN7android8hardware3drm4V1_113BpHwDrmPlugin14sendKeysChangeERKNS0_8hidl_vecIhEERKNS4_INS1_4V1_09KeyStatusEEEb"
    },
    {
     "mangled_component_name":"_ZN7android8hardware3drm4V1_113BpHwDrmPlugin15openSession_1_1ENS2_13SecurityLevelENSt3__18functionIFvNS1_4V1_06StatusERKNS0_8hidl_vecIhEEEEE"
    },
    {
     "mangled_component_name":"_ZN7android8hardware3drm4V1_113BpHwDrmPlugin17getKeyRequest_1_1ERKNS0_8hidl_vecIhEES7_RKNS0_11hidl_stringENS1_4V1_07KeyTypeERKNS4_INSB_8KeyValueEEENSt3__18functionIFvNSB_6StatusES7_NS2_14KeyRequestTypeESA_EEE"
    },
    {
     "mangled_component_name":"_ZN7android8hardware3drm4V1_113BpHwDrmPlugin13getHdcpLevelsENSt3__18functionIFvNS1_4V1_06StatusENS2_9HdcpLevelES8_EEE"
    },
    {
     "mangled_component_name":"_ZN7android8hardware3drm4V1_113BpHwDrmPlugin19getNumberOfSessionsENSt3__18functionIFvNS1_4V1_06StatusEjjEEE"
    },
    {
     "mangled_component_name":"_ZN7android8hardware3drm4V1_113BpHwDrmPlugin16getSecurityLevelERKNS0_8hidl_vecIhEENSt3__18functionIFvNS1_4V1_06StatusENS2_13SecurityLevelEEEE"
    },
    {
     "mangled_component_name":"_ZN7android8hardware3drm4V1_113BpHwDrmPlugin10getMetricsENSt3__18functionIFvNS1_4V1_06StatusERKNS0_8hidl_vecINS2_14DrmMetricGroupEEEEEE"
    },
    {
     "mangled_component_name":"_ZN7android8hardware3drm4V1_113BpHwDrmPlugin16getSecureStopIdsENSt3__18functionIFvNS1_4V1_06StatusERKNS0_8hidl_vecINS8_IhEEEEEEE"
    },
    {
     "mangled_component_name":"_ZN7android8hardware3drm4V1_113BpHwDrmPlugin18releaseSecureStopsERKNS2_17SecureStopReleaseE"
    },
    {
     "mangled_component_name":"_ZN7android8hardware3drm4V1_113BpHwDrmPlugin16removeSecureStopERKNS0_8hidl_vecIhEE"
    },
    {
     "mangled_component_name":"_ZN7android8hardware3drm4V1_113BpHwDrmPlugin20removeAllSecureStopsEv"
    },
    {
     "mangled_component_name":"_ZN7android8hardware11BpInterfaceINS0_3drm4V1_110IDrmPluginEE10onAsBinderEv"
    },
    {
     "kind":"vbase_offset",
     "component_value":80
    },
    {
     "kind":"offset_to_top",
     "component_value":-4
    },
    {
     "kind":"rtti",
     "mangled_component_name":"_ZTIN7android8hardware3drm4V1_113BpHwDrmPluginE"
    },
    {
     "kind":"complete_dtor_pointer",
     "mangled_component_name":"_ZThn4_N7android8hardware3drm4V1_113BpHwDrmPluginD1Ev"
    },
    {
     "kind":"deleting_dtor_pointer",
     "mangled_component_name":"_ZThn4_N7android8hardware3drm4V1_113BpHwDrmPluginD0Ev"
    },
    {
     "mangled_component_name":"_ZThn4_N7android8hardware11BpInterfaceINS0_3drm4V1_110IDrmPluginEE10onAsBinderEv"
    },
    {
     "kind":"vbase_offset",
     "component_value":76
    },
    {
     "kind":"offset_to_top",
     "component_value":-8
    },
    {
     "kind":"rtti",
     "mangled_component_name":"_ZTIN7android8hardware3drm4V1_113BpHwDrmPluginE"
    },
    {
     "kind":"complete_dtor_pointer",
     "mangled_component_name":"_ZThn8_N7android8hardware3drm4V1_113BpHwDrmPluginD1Ev"
    },
    {
     "kind":"deleting_dtor_pointer",
     "mangled_component_name":"_ZThn8_N7android8hardware3drm4V1_113BpHwDrmPluginD0Ev"
    },
    {
     "mangled_component_name":"_ZN7android8hardware11BpHwRefBase10onFirstRefEv"
    },
    {
     "mangled_component_name":"_ZN7android8hardware11BpHwRefBase15onLastStrongRefEPKv"
    },
    {
     "mangled_component_name":"_ZN7android8hardware11BpHwRefBase20onIncStrongAttemptedEjPKv"
    },
    {
     "kind":"offset_to_top",
     "component_value":-24
    },
    {
     "kind":"rtti",
     "mangled_component_name":"_ZTIN7android8hardware3drm4V1_113BpHwDrmPluginE"
    },
    {
     "kind":"complete_dtor_pointer",
     "mangled_component_name":"_ZThn24_N7android8hardware3drm4V1_113BpHwDrmPluginD1Ev"
    },
    {
     "kind":"deleting_dtor_pointer",
     "mangled_component_name":"_ZThn24_N7android8hardware3drm4V1_113BpHwDrmPluginD0Ev"
    },
    {
     "kind":"vcall_offset"
    },
    {
     "kind":"vcall_offset",
     "component_value":-76
    },
    {
     "kind":"vcall_offset",
     "component_value":-76
    },
    {
     "kind":"vcall_offset",
     "component_value":-76
    },
    {
     "kind":"vcall_offset",
     "component_value":-84
    },
    {
     "kind":"offset_to_top",
     "component_value":-84
    },
    {
     "kind":"rtti",
     "mangled_component_name":"_ZTIN7android8hardware3drm4V1_113BpHwDrmPluginE"
    },
    {
     "kind":"complete_dtor_pointer",
     "mangled_component_name":"_ZTv0_n12_N7android8hardware3drm4V1_113BpHwDrmPluginD1Ev"
    },
    {
     "kind":"deleting_dtor_pointer",
     "mangled_component_name":"_ZTv0_n12_N7android8hardware3drm4V1_113BpHwDrmPluginD0Ev"
    },
    {
     "mangled_component_name":"_ZTv0_n16_N7android8hardware11BpHwRefBase10onFirstRefEv"
    },
    {
     "mangled_component_name":"_ZTv0_n20_N7android8hardware11BpHwRefBase15onLastStrongRefEPKv"
    },
    {
     "mangled_component_name":"_ZTv0_n24_N7android8hardware11BpHwRefBase20onIncStrongAttemptedEjPKv"
    },
    {
     "mangled_component_name":"_ZN7android7RefBase13onLastWeakRefEPKv"
    }
   ],
   "unique_id":"_ZTSN7android8hardware3drm4V1_113BpHwDrmPluginE"
  },
  {
   "vtable_components":[
    {
     "kind":"vbase_offset",
     "component_value":4
    },
    {
     "kind":"offset_to_top"
    },
    {
     "kind":"rtti",
     "mangled_component_name":"_ZTIN7android8hardware3drm4V1_114ICryptoFactoryE"
    },
    {
     "mangled_component_name":"_ZNK7android8hardware3drm4V1_114ICryptoFactory8isRemoteEv"
    },
    {
     "mangled_component_name":"_ZN7android8hardware3drm4V1_114ICryptoFactory14interfaceChainENSt3__18functionIFvRKNS0_8hidl_vecINS0_11hidl_stringEEEEEE"
    },
    {
     "mangled_component_name":"_ZN7android8hardware3drm4V1_114ICryptoFactory5debugERKNS0_11hidl_handleERKNS0_8hidl_vecINS0_11hidl_stringEEE"
    },
    {
     "mangled_component_name":"_ZN7android8hardware3drm4V1_114ICryptoFactory19interfaceDescriptorENSt3__18functionIFvRKNS0_11hidl_stringEEEE"
    },
    {
     "mangled_component_name":"_ZN7android8hardware3drm4V1_114ICryptoFactory12getHashChainENSt3__18functionIFvRKNS0_8hidl_vecINS0_10hidl_arrayIhLj32EJEEEEEEEE"
    },
    {
     "mangled_component_name":"_ZN7android8hardware3drm4V1_114ICryptoFactory21setHALInstrumentationEv"
    },
    {
     "mangled_component_name":"_ZN7android8hardware3drm4V1_114ICryptoFactory11linkToDeathERKNS_2spINS0_20hidl_death_recipientEEEy"
    },
    {
     "mangled_component_name":"_ZN7android8hardware3drm4V1_114ICryptoFactory4pingEv"
    },
    {
     "mangled_component_name":"_ZN7android8hardware3drm4V1_114ICryptoFactory12getDebugInfoENSt3__18functionIFvRKNS_4hidl4base4V1_09DebugInfoEEEE"
    },
    {
     "mangled_component_name":"_ZN7android8hardware3drm4V1_114ICryptoFactory21notifySyspropsChangedEv"
    },
    {
     "mangled_component_name":"_ZN7android8hardware3drm4V1_114ICryptoFactory13unlinkToDeathERKNS_2spINS0_20hidl_death_recipientEEE"
    },
    {
     "kind":"complete_dtor_pointer",
     "mangled_component_name":"_ZN7android8hardware3drm4V1_114ICryptoFactoryD1Ev"
    },
    {
     "kind":"deleting_dtor_pointer",
     "mangled_component_name":"_ZN7android8hardware3drm4V1_114ICryptoFactoryD0Ev"
    },
    {
     "is_pure":true,
     "mangled_component_name":"_ZN7android8hardware3drm4V1_114ICryptoFactory23isCryptoSchemeSupportedERKNS0_10hidl_arrayIhLj16EJEEE"
    },
    {
     "is_pure":true,
     "mangled_component_name":"_ZN7android8hardware3drm4V1_114ICryptoFactory12createPluginERKNS0_10hidl_arrayIhLj16EJEEERKNS0_8hidl_vecIhEENSt3__18functionIFvNS1_4V1_06StatusERKNS_2spINSE_13ICryptoPluginEEEEEE"
    },
    {
     "kind":"vcall_offset"
    },
    {
     "kind":"vcall_offset"
    },
    {
     "kind":"vcall_offset"
    },
    {
     "kind":"vcall_offset"
    },
    {
     "kind":"vcall_offset",
     "component_value":-4
    },
    {
     "kind":"offset_to_top",
     "component_value":-4
    },
    {
     "kind":"rtti",
     "mangled_component_name":"_ZTIN7android8hardware3drm4V1_114ICryptoFactoryE"
    },
    {
     "kind":"complete_dtor_pointer",
     "mangled_component_name":"_ZTv0_n12_N7android8hardware3drm4V1_114ICryptoFactoryD1Ev"
    },
    {
     "kind":"deleting_dtor_pointer",
     "mangled_component_name":"_ZTv0_n12_N7android8hardware3drm4V1_114ICryptoFactoryD0Ev"
    },
    {
     "mangled_component_name":"_ZN7android7RefBase10onFirstRefEv"
    },
    {
     "mangled_component_name":"_ZN7android7RefBase15onLastStrongRefEPKv"
    },
    {
     "mangled_component_name":"_ZN7android7RefBase20onIncStrongAttemptedEjPKv"
    },
    {
     "mangled_component_name":"_ZN7android7RefBase13onLastWeakRefEPKv"
    }
   ],
   "unique_id":"_ZTSN7android8hardware3drm4V1_114ICryptoFactoryE"
  },
  {
   "vtable_components":[
    {
     "kind":"vbase_offset",
     "component_value":4
    },
    {
     "kind":"offset_to_top"
    },
    {
     "kind":"rtti",
     "mangled_component_name":"_ZTIN7android8hardware3drm4V1_111IDrmFactoryE"
    },
    {
     "mangled_component_name":"_ZNK7android8hardware3drm4V1_111IDrmFactory8isRemoteEv"
    },
    {
     "mangled_component_name":"_ZN7android8hardware3drm4V1_111IDrmFactory14interfaceChainENSt3__18functionIFvRKNS0_8hidl_vecINS0_11hidl_stringEEEEEE"
    },
    {
     "mangled_component_name":"_ZN7android8hardware3drm4V1_111IDrmFactory5debugERKNS0_11hidl_handleERKNS0_8hidl_vecINS0_11hidl_stringEEE"
    },
    {
     "mangled_component_name":"_ZN7android8hardware3drm4V1_111IDrmFactory19interfaceDescriptorENSt3__18functionIFvRKNS0_11hidl_stringEEEE"
    },
    {
     "mangled_component_name":"_ZN7android8hardware3drm4V1_111IDrmFactory12getHashChainENSt3__18functionIFvRKNS0_8hidl_vecINS0_10hidl_arrayIhLj32EJEEEEEEEE"
    },
    {
     "mangled_component_name":"_ZN7android8hardware3drm4V1_111IDrmFactory21setHALInstrumentationEv"
    },
    {
     "mangled_component_name":"_ZN7android8hardware3drm4V1_111IDrmFactory11linkToDeathERKNS_2spINS0_20hidl_death_recipientEEEy"
    },
    {
     "mangled_component_name":"_ZN7android8hardware3drm4V1_111IDrmFactory4pingEv"
    },
    {
     "mangled_component_name":"_ZN7android8hardware3drm4V1_111IDrmFactory12getDebugInfoENSt3__18functionIFvRKNS_4hidl4base4V1_09DebugInfoEEEE"
    },
    {
     "mangled_component_name":"_ZN7android8hardware3drm4V1_111IDrmFactory21notifySyspropsChangedEv"
    },
    {
     "mangled_component_name":"_ZN7android8hardware3drm4V1_111IDrmFactory13unlinkToDeathERKNS_2spINS0_20hidl_death_recipientEEE"
    },
    {
     "kind":"complete_dtor_pointer",
     "mangled_component_name":"_ZN7android8hardware3drm4V1_111IDrmFactoryD1Ev"
    },
    {
     "kind":"deleting_dtor_pointer",
     "mangled_component_name":"_ZN7android8hardware3drm4V1_111IDrmFactoryD0Ev"
    },
    {
     "is_pure":true,
     "mangled_component_name":"_ZN7android8hardware3drm4V1_111IDrmFactory23isCryptoSchemeSupportedERKNS0_10hidl_arrayIhLj16EJEEE"
    },
    {
     "is_pure":true,
     "mangled_component_name":"_ZN7android8hardware3drm4V1_111IDrmFactory22isContentTypeSupportedERKNS0_11hidl_stringE"
    },
    {
     "is_pure":true,
     "mangled_component_name":"_ZN7android8hardware3drm4V1_111IDrmFactory12createPluginERKNS0_10hidl_arrayIhLj16EJEEERKNS0_11hidl_stringENSt3__18functionIFvNS1_4V1_06StatusERKNS_2spINSD_10IDrmPluginEEEEEE"
    },
    {
     "kind":"vcall_offset"
    },
    {
     "kind":"vcall_offset"
    },
    {
     "kind":"vcall_offset"
    },
    {
     "kind":"vcall_offset"
    },
    {
     "kind":"vcall_offset",
     "component_value":-4
    },
    {
     "kind":"offset_to_top",
     "component_value":-4
    },
    {
     "kind":"rtti",
     "mangled_component_name":"_ZTIN7android8hardware3drm4V1_111IDrmFactoryE"
    },
    {
     "kind":"complete_dtor_pointer",
     "mangled_component_name":"_ZTv0_n12_N7android8hardware3drm4V1_111IDrmFactoryD1Ev"
    },
    {
     "kind":"deleting_dtor_pointer",
     "mangled_component_name":"_ZTv0_n12_N7android8hardware3drm4V1_111IDrmFactoryD0Ev"
    },
    {
     "mangled_component_name":"_ZN7android7RefBase10onFirstRefEv"
    },
    {
     "mangled_component_name":"_ZN7android7RefBase15onLastStrongRefEPKv"
    },
    {
     "mangled_component_name":"_ZN7android7RefBase20onIncStrongAttemptedEjPKv"
    },
    {
     "mangled_component_name":"_ZN7android7RefBase13onLastWeakRefEPKv"
    }
   ],
   "unique_id":"_ZTSN7android8hardware3drm4V1_111IDrmFactoryE"
  },
  {
   "vtable_components":[
    {
     "kind":"vbase_offset",
     "component_value":72
    },
    {
     "kind":"offset_to_top"
    },
    {
     "kind":"rtti",
     "mangled_component_name":"_ZTIN7android8hardware3drm4V1_117BnHwCryptoFactoryE"
    },
    {
     "mangled_component_name":"_ZN7android8hardware9BHwBinder8transactEjRKNS0_6ParcelEPS2_jNSt3__18functionIFvRS2_EEE"
    },
    {
     "mangled_component_name":"_ZN7android8hardware9BHwBinder11linkToDeathERKNS_2spINS0_7IBinder14DeathRecipientEEEPvj"
    },
    {
     "mangled_component_name":"_ZN7android8hardware9BHwBinder13unlinkToDeathERKNS_2wpINS0_7IBinder14DeathRecipientEEEPvjPS5_"
    },
    {
     "mangled_component_name":"_ZNK7android8hardware7IBinder13checkSubclassEPKv"
    },
    {
     "mangled_component_name":"_ZN7android8hardware9BHwBinder12attachObjectEPKvPvS4_PFvS3_S4_S4_E"
    },
    {
     "mangled_component_name":"_ZNK7android8hardware9BHwBinder10findObjectEPKv"
    },
    {
     "mangled_component_name":"_ZN7android8hardware9BHwBinder12detachObjectEPKv"
    },
    {
     "mangled_component_name":"_ZN7android8hardware9BHwBinder11localBinderEv"
    },
    {
     "mangled_component_name":"_ZN7android8hardware7IBinder12remoteBinderEv"
    },
    {
     "kind":"complete_dtor_pointer",
     "mangled_component_name":"_ZN7android8hardware3drm4V1_117BnHwCryptoFactoryD1Ev"
    },
    {
     "kind":"deleting_dtor_pointer",
     "mangled_component_name":"_ZN7android8hardware3drm4V1_117BnHwCryptoFactoryD0Ev"
    },
    {
     "mangled_component_name":"_ZN7android8hardware3drm4V1_117BnHwCryptoFactory10onTransactEjRKNS0_6ParcelEPS4_jNSt3__18functionIFvRS4_EEE"
    },
    {
     "kind":"offset_to_top",
     "component_value":-20
    },
    {
     "kind":"rtti",
     "mangled_component_name":"_ZTIN7android8hardware3drm4V1_117BnHwCryptoFactoryE"
    },
    {
     "kind":"complete_dtor_pointer",
     "mangled_component_name":"_ZThn20_N7android8hardware3drm4V1_117BnHwCryptoFactoryD1Ev"
    },
    {
     "kind":"deleting_dtor_pointer",
     "mangled_component_name":"_ZThn20_N7android8hardware3drm4V1_117BnHwCryptoFactoryD0Ev"
    },
    {
     "kind":"vcall_offset"
    },
    {
     "kind":"vcall_offset"
    },
    {
     "kind":"vcall_offset"
    },
    {
     "kind":"vcall_offset"
    },
    {
     "kind":"vcall_offset",
     "component_value":-72
    },
    {
     "kind":"offset_to_top",
     "component_value":-72
    },
    {
     "kind":"rtti",
     "mangled_component_name":"_ZTIN7android8hardware3drm4V1_117BnHwCryptoFactoryE"
    },
    {
     "kind":"complete_dtor_pointer",
     "mangled_component_name":"_ZTv0_n12_N7android8hardware3drm4V1_117BnHwCryptoFactoryD1Ev"
    },
    {
     "kind":"deleting_dtor_pointer",
     "mangled_component_name":"_ZTv0_n12_N7android8hardware3drm4V1_117BnHwCryptoFactoryD0Ev"
    },
    {
     "mangled_component_name":"_ZN7android7RefBase10onFirstRefEv"
    },
    {
     "mangled_component_name":"_ZN7android7RefBase15onLastStrongRefEPKv"
    },
    {
     "mangled_component_name":"_ZN7android7RefBase20onIncStrongAttemptedEjPKv"
    },
    {
     "mangled_component_name":"_ZN7android7RefBase13onLastWeakRefEPKv"
    }
   ],
   "unique_id":"_ZTSN7android8hardware3drm4V1_117BnHwCryptoFactoryE"
  },
  {
   "vtable_components":[
    {
     "kind":"vbase_offset",
     "component_value":84
    },
    {
     "kind":"offset_to_top"
    },
    {
     "kind":"rtti",
     "mangled_component_name":"_ZTIN7android8hardware3drm4V1_117BpHwCryptoFactoryE"
    },
    {
     "mangled_component_name":"_ZNK7android8hardware3drm4V1_117BpHwCryptoFactory8isRemoteEv"
    },
    {
     "mangled_component_name":"_ZN7android8hardware3drm4V1_117BpHwCryptoFactory14interfaceChainENSt3__18functionIFvRKNS0_8hidl_vecINS0_11hidl_stringEEEEEE"
    },
    {
     "mangled_component_name":"_ZN7android8hardware3drm4V1_117BpHwCryptoFactory5debugERKNS0_11hidl_handleERKNS0_8hidl_vecINS0_11hidl_stringEEE"
    },
    {
     "mangled_component_name":"_ZN7android8hardware3drm4V1_117BpHwCryptoFactory19interfaceDescriptorENSt3__18functionIFvRKNS0_11hidl_stringEEEE"
    },
    {
     "mangled_component_name":"_ZN7android8hardware3drm4V1_117BpHwCryptoFactory12getHashChainENSt3__18functionIFvRKNS0_8hidl_vecINS0_10hidl_arrayIhLj32EJEEEEEEEE"
    },
    {
     "mangled_component_name":"_ZN7android8hardware3drm4V1_117BpHwCryptoFactory21setHALInstrumentationEv"
    },
    {
     "mangled_component_name":"_ZN7android8hardware3drm4V1_117BpHwCryptoFactory11linkToDeathERKNS_2spINS0_20hidl_death_recipientEEEy"
    },
    {
     "mangled_component_name":"_ZN7android8hardware3drm4V1_117BpHwCryptoFactory4pingEv"
    },
    {
     "mangled_component_name":"_ZN7android8hardware3drm4V1_117BpHwCryptoFactory12getDebugInfoENSt3__18functionIFvRKNS_4hidl4base4V1_09DebugInfoEEEE"
    },
    {
     "mangled_component_name":"_ZN7android8hardware3drm4V1_117BpHwCryptoFactory21notifySyspropsChangedEv"
    },
    {
     "mangled_component_name":"_ZN7android8hardware3drm4V1_117BpHwCryptoFactory13unlinkToDeathERKNS_2spINS0_20hidl_death_recipientEEE"
    },
    {
     "kind":"complete_dtor_pointer",
     "mangled_component_name":"_ZN7android8hardware3drm4V1_117BpHwCryptoFactoryD1Ev"
    },
    {
     "kind":"deleting_dtor_pointer",
     "mangled_component_name":"_ZN7android8hardware3drm4V1_117BpHwCryptoFactoryD0Ev"
    },
    {
     "mangled_component_name":"_ZN7android8hardware3drm4V1_117BpHwCryptoFactory23isCryptoSchemeSupportedERKNS0_10hidl_arrayIhLj16EJEEE"
    },
    {
     "mangled_component_name":"_ZN7android8hardware3drm4V1_117BpHwCryptoFactory12createPluginERKNS0_10hidl_arrayIhLj16EJEEERKNS0_8hidl_vecIhEENSt3__18functionIFvNS1_4V1_06StatusERKNS_2spINSE_13ICryptoPluginEEEEEE"
    },
    {
     "mangled_component_name":"_ZN7android8hardware11BpInterfaceINS0_3drm4V1_114ICryptoFactoryEE10onAsBinderEv"
    },
    {
     "kind":"vbase_offset",
     "component_value":80
    },
    {
     "kind":"offset_to_top",
     "component_value":-4
    },
    {
     "kind":"rtti",
     "mangled_component_name":"_ZTIN7android8hardware3drm4V1_117BpHwCryptoFactoryE"
    },
    {
     "kind":"complete_dtor_pointer",
     "mangled_component_name":"_ZThn4_N7android8hardware3drm4V1_117BpHwCryptoFactoryD1Ev"
    },
    {
     "kind":"deleting_dtor_pointer",
     "mangled_component_name":"_ZThn4_N7android8hardware3drm4V1_117BpHwCryptoFactoryD0Ev"
    },
    {
     "mangled_component_name":"_ZThn4_N7android8hardware11BpInterfaceINS0_3drm4V1_114ICryptoFactoryEE10onAsBinderEv"
    },
    {
     "kind":"vbase_offset",
     "component_value":76
    },
    {
     "kind":"offset_to_top",
     "component_value":-8
    },
    {
     "kind":"rtti",
     "mangled_component_name":"_ZTIN7android8hardware3drm4V1_117BpHwCryptoFactoryE"
    },
    {
     "kind":"complete_dtor_pointer",
     "mangled_component_name":"_ZThn8_N7android8hardware3drm4V1_117BpHwCryptoFactoryD1Ev"
    },
    {
     "kind":"deleting_dtor_pointer",
     "mangled_component_name":"_ZThn8_N7android8hardware3drm4V1_117BpHwCryptoFactoryD0Ev"
    },
    {
     "mangled_component_name":"_ZN7android8hardware11BpHwRefBase10onFirstRefEv"
    },
    {
     "mangled_component_name":"_ZN7android8hardware11BpHwRefBase15onLastStrongRefEPKv"
    },
    {
     "mangled_component_name":"_ZN7android8hardware11BpHwRefBase20onIncStrongAttemptedEjPKv"
    },
    {
     "kind":"offset_to_top",
     "component_value":-24
    },
    {
     "kind":"rtti",
     "mangled_component_name":"_ZTIN7android8hardware3drm4V1_117BpHwCryptoFactoryE"
    },
    {
     "kind":"complete_dtor_pointer",
     "mangled_component_name":"_ZThn24_N7android8hardware3drm4V1_117BpHwCryptoFactoryD1Ev"
    },
    {
     "kind":"deleting_dtor_pointer",
     "mangled_component_name":"_ZThn24_N7android8hardware3drm4V1_117BpHwCryptoFactoryD0Ev"
    },
    {
     "kind":"vcall_offset"
    },
    {
     "kind":"vcall_offset",
     "component_value":-76
    },
    {
     "kind":"vcall_offset",
     "component_value":-76
    },
    {
     "kind":"vcall_offset",
     "component_value":-76
    },
    {
     "kind":"vcall_offset",
     "component_value":-84
    },
    {
     "kind":"offset_to_top",
     "component_value":-84
    },
    {
     "kind":"rtti",
     "mangled_component_name":"_ZTIN7android8hardware3drm4V1_117BpHwCryptoFactoryE"
    },
    {
     "kind":"complete_dtor_pointer",
     "mangled_component_name":"_ZTv0_n12_N7android8hardware3drm4V1_117BpHwCryptoFactoryD1Ev"
    },
    {
     "kind":"deleting_dtor_pointer",
     "mangled_component_name":"_ZTv0_n12_N7android8hardware3drm4V1_117BpHwCryptoFactoryD0Ev"
    },
    {
     "mangled_component_name":"_ZTv0_n16_N7android8hardware11BpHwRefBase10onFirstRefEv"
    },
    {
     "mangled_component_name":"_ZTv0_n20_N7android8hardware11BpHwRefBase15onLastStrongRefEPKv"
    },
    {
     "mangled_component_name":"_ZTv0_n24_N7android8hardware11BpHwRefBase20onIncStrongAttemptedEjPKv"
    },
    {
     "mangled_component_name":"_ZN7android7RefBase13onLastWeakRefEPKv"
    }
   ],
   "unique_id":"_ZTSN7android8hardware3drm4V1_117BpHwCryptoFactoryE"
  },
  {
   "vtable_components":[
    {
     "kind":"vbase_offset",
     "component_value":72
    },
    {
     "kind":"offset_to_top"
    },
    {
     "kind":"rtti",
     "mangled_component_name":"_ZTIN7android8hardware3drm4V1_114BnHwDrmFactoryE"
    },
    {
     "mangled_component_name":"_ZN7android8hardware9BHwBinder8transactEjRKNS0_6ParcelEPS2_jNSt3__18functionIFvRS2_EEE"
    },
    {
     "mangled_component_name":"_ZN7android8hardware9BHwBinder11linkToDeathERKNS_2spINS0_7IBinder14DeathRecipientEEEPvj"
    },
    {
     "mangled_component_name":"_ZN7android8hardware9BHwBinder13unlinkToDeathERKNS_2wpINS0_7IBinder14DeathRecipientEEEPvjPS5_"
    },
    {
     "mangled_component_name":"_ZNK7android8hardware7IBinder13checkSubclassEPKv"
    },
    {
     "mangled_component_name":"_ZN7android8hardware9BHwBinder12attachObjectEPKvPvS4_PFvS3_S4_S4_E"
    },
    {
     "mangled_component_name":"_ZNK7android8hardware9BHwBinder10findObjectEPKv"
    },
    {
     "mangled_component_name":"_ZN7android8hardware9BHwBinder12detachObjectEPKv"
    },
    {
     "mangled_component_name":"_ZN7android8hardware9BHwBinder11localBinderEv"
    },
    {
     "mangled_component_name":"_ZN7android8hardware7IBinder12remoteBinderEv"
    },
    {
     "kind":"complete_dtor_pointer",
     "mangled_component_name":"_ZN7android8hardware3drm4V1_114BnHwDrmFactoryD1Ev"
    },
    {
     "kind":"deleting_dtor_pointer",
     "mangled_component_name":"_ZN7android8hardware3drm4V1_114BnHwDrmFactoryD0Ev"
    },
    {
     "mangled_component_name":"_ZN7android8hardware3drm4V1_114BnHwDrmFactory10onTransactEjRKNS0_6ParcelEPS4_jNSt3__18functionIFvRS4_EEE"
    },
    {
     "kind":"offset_to_top",
     "component_value":-20
    },
    {
     "kind":"rtti",
     "mangled_component_name":"_ZTIN7android8hardware3drm4V1_114BnHwDrmFactoryE"
    },
    {
     "kind":"complete_dtor_pointer",
     "mangled_component_name":"_ZThn20_N7android8hardware3drm4V1_114BnHwDrmFactoryD1Ev"
    },
    {
     "kind":"deleting_dtor_pointer",
     "mangled_component_name":"_ZThn20_N7android8hardware3drm4V1_114BnHwDrmFactoryD0Ev"
    },
    {
     "kind":"vcall_offset"
    },
    {
     "kind":"vcall_offset"
    },
    {
     "kind":"vcall_offset"
    },
    {
     "kind":"vcall_offset"
    },
    {
     "kind":"vcall_offset",
     "component_value":-72
    },
    {
     "kind":"offset_to_top",
     "component_value":-72
    },
    {
     "kind":"rtti",
     "mangled_component_name":"_ZTIN7android8hardware3drm4V1_114BnHwDrmFactoryE"
    },
    {
     "kind":"complete_dtor_pointer",
     "mangled_component_name":"_ZTv0_n12_N7android8hardware3drm4V1_114BnHwDrmFactoryD1Ev"
    },
    {
     "kind":"deleting_dtor_pointer",
     "mangled_component_name":"_ZTv0_n12_N7android8hardware3drm4V1_114BnHwDrmFactoryD0Ev"
    },
    {
     "mangled_component_name":"_ZN7android7RefBase10onFirstRefEv"
    },
    {
     "mangled_component_name":"_ZN7android7RefBase15onLastStrongRefEPKv"
    },
    {
     "mangled_component_name":"_ZN7android7RefBase20onIncStrongAttemptedEjPKv"
    },
    {
     "mangled_component_name":"_ZN7android7RefBase13onLastWeakRefEPKv"
    }
   ],
   "unique_id":"_ZTSN7android8hardware3drm4V1_114BnHwDrmFactoryE"
  },
  {
   "vtable_components":[
    {
     "kind":"vbase_offset",
     "component_value":60
    },
    {
     "kind":"offset_to_top"
    },
    {
     "kind":"rtti",
     "mangled_component_name":"_ZTIN7android8hardware3drm4V1_112BsDrmFactoryE"
    },
    {
     "mangled_component_name":"_ZNK7android8hardware3drm4V1_111IDrmFactory8isRemoteEv"
    },
    {
     "mangled_component_name":"_ZN7android8hardware3drm4V1_112BsDrmFactory14interfaceChainENSt3__18functionIFvRKNS0_8hidl_vecINS0_11hidl_stringEEEEEE"
    },
    {
     "mangled_component_name":"_ZN7android8hardware3drm4V1_112BsDrmFactory5debugERKNS0_11hidl_handleERKNS0_8hidl_vecINS0_11hidl_stringEEE"
    },
    {
     "mangled_component_name":"_ZN7android8hardware3drm4V1_112BsDrmFactory19interfaceDescriptorENSt3__18functionIFvRKNS0_11hidl_stringEEEE"
    },
    {
     "mangled_component_name":"_ZN7android8hardware3drm4V1_112BsDrmFactory12getHashChainENSt3__18functionIFvRKNS0_8hidl_vecINS0_10hidl_arrayIhLj32EJEEEEEEEE"
    },
    {
     "mangled_component_name":"_ZN7android8hardware3drm4V1_112BsDrmFactory21setHALInstrumentationEv"
    },
    {
     "mangled_component_name":"_ZN7android8hardware3drm4V1_112BsDrmFactory11linkToDeathERKNS_2spINS0_20hidl_death_recipientEEEy"
    },
    {
     "mangled_component_name":"_ZN7android8hardware3drm4V1_112BsDrmFactory4pingEv"
    },
    {
     "mangled_component_name":"_ZN7android8hardware3drm4V1_112BsDrmFactory12getDebugInfoENSt3__18functionIFvRKNS_4hidl4base4V1_09DebugInfoEEEE"
    },
    {
     "mangled_component_name":"_ZN7android8hardware3drm4V1_112BsDrmFactory21notifySyspropsChangedEv"
    },
    {
     "mangled_component_name":"_ZN7android8hardware3drm4V1_112BsDrmFactory13unlinkToDeathERKNS_2spINS0_20hidl_death_recipientEEE"
    },
    {
     "kind":"complete_dtor_pointer",
     "mangled_component_name":"_ZN7android8hardware3drm4V1_112BsDrmFactoryD1Ev"
    },
    {
     "kind":"deleting_dtor_pointer",
     "mangled_component_name":"_ZN7android8hardware3drm4V1_112BsDrmFactoryD0Ev"
    },
    {
     "mangled_component_name":"_ZN7android8hardware3drm4V1_112BsDrmFactory23isCryptoSchemeSupportedERKNS0_10hidl_arrayIhLj16EJEEE"
    },
    {
     "mangled_component_name":"_ZN7android8hardware3drm4V1_112BsDrmFactory22isContentTypeSupportedERKNS0_11hidl_stringE"
    },
    {
     "mangled_component_name":"_ZN7android8hardware3drm4V1_112BsDrmFactory12createPluginERKNS0_10hidl_arrayIhLj16EJEEERKNS0_11hidl_stringENSt3__18functionIFvNS1_4V1_06StatusERKNS_2spINSD_10IDrmPluginEEEEEE"
    },
    {
     "kind":"offset_to_top",
     "component_value":-4
    },
    {
     "kind":"rtti",
     "mangled_component_name":"_ZTIN7android8hardware3drm4V1_112BsDrmFactoryE"
    },
    {
     "kind":"complete_dtor_pointer",
     "mangled_component_name":"_ZThn4_N7android8hardware3drm4V1_112BsDrmFactoryD1Ev"
    },
    {
     "kind":"deleting_dtor_pointer",
     "mangled_component_name":"_ZThn4_N7android8hardware3drm4V1_112BsDrmFactoryD0Ev"
    },
    {
     "kind":"vcall_offset"
    },
    {
     "kind":"vcall_offset"
    },
    {
     "kind":"vcall_offset"
    },
    {
     "kind":"vcall_offset"
    },
    {
     "kind":"vcall_offset",
     "component_value":-60
    },
    {
     "kind":"offset_to_top",
     "component_value":-60
    },
    {
     "kind":"rtti",
     "mangled_component_name":"_ZTIN7android8hardware3drm4V1_112BsDrmFactoryE"
    },
    {
     "kind":"complete_dtor_pointer",
     "mangled_component_name":"_ZTv0_n12_N7android8hardware3drm4V1_112BsDrmFactoryD1Ev"
    },
    {
     "kind":"deleting_dtor_pointer",
     "mangled_component_name":"_ZTv0_n12_N7android8hardware3drm4V1_112BsDrmFactoryD0Ev"
    },
    {
     "mangled_component_name":"_ZN7android7RefBase10onFirstRefEv"
    },
    {
     "mangled_component_name":"_ZN7android7RefBase15onLastStrongRefEPKv"
    },
    {
     "mangled_component_name":"_ZN7android7RefBase20onIncStrongAttemptedEjPKv"
    },
    {
     "mangled_component_name":"_ZN7android7RefBase13onLastWeakRefEPKv"
    }
   ],
   "unique_id":"_ZTSN7android8hardware3drm4V1_112BsDrmFactoryE"
  },
  {
   "vtable_components":[
    {
     "kind":"vbase_offset",
     "component_value":60
    },
    {
     "kind":"offset_to_top"
    },
    {
     "kind":"rtti",
     "mangled_component_name":"_ZTIN7android8hardware3drm4V1_115BsCryptoFactoryE"
    },
    {
     "mangled_component_name":"_ZNK7android8hardware3drm4V1_114ICryptoFactory8isRemoteEv"
    },
    {
     "mangled_component_name":"_ZN7android8hardware3drm4V1_115BsCryptoFactory14interfaceChainENSt3__18functionIFvRKNS0_8hidl_vecINS0_11hidl_stringEEEEEE"
    },
    {
     "mangled_component_name":"_ZN7android8hardware3drm4V1_115BsCryptoFactory5debugERKNS0_11hidl_handleERKNS0_8hidl_vecINS0_11hidl_stringEEE"
    },
    {
     "mangled_component_name":"_ZN7android8hardware3drm4V1_115BsCryptoFactory19interfaceDescriptorENSt3__18functionIFvRKNS0_11hidl_stringEEEE"
    },
    {
     "mangled_component_name":"_ZN7android8hardware3drm4V1_115BsCryptoFactory12getHashChainENSt3__18functionIFvRKNS0_8hidl_vecINS0_10hidl_arrayIhLj32EJEEEEEEEE"
    },
    {
     "mangled_component_name":"_ZN7android8hardware3drm4V1_115BsCryptoFactory21setHALInstrumentationEv"
    },
    {
     "mangled_component_name":"_ZN7android8hardware3drm4V1_115BsCryptoFactory11linkToDeathERKNS_2spINS0_20hidl_death_recipientEEEy"
    },
    {
     "mangled_component_name":"_ZN7android8hardware3drm4V1_115BsCryptoFactory4pingEv"
    },
    {
     "mangled_component_name":"_ZN7android8hardware3drm4V1_115BsCryptoFactory12getDebugInfoENSt3__18functionIFvRKNS_4hidl4base4V1_09DebugInfoEEEE"
    },
    {
     "mangled_component_name":"_ZN7android8hardware3drm4V1_115BsCryptoFactory21notifySyspropsChangedEv"
    },
    {
     "mangled_component_name":"_ZN7android8hardware3drm4V1_115BsCryptoFactory13unlinkToDeathERKNS_2spINS0_20hidl_death_recipientEEE"
    },
    {
     "kind":"complete_dtor_pointer",
     "mangled_component_name":"_ZN7android8hardware3drm4V1_115BsCryptoFactoryD1Ev"
    },
    {
     "kind":"deleting_dtor_pointer",
     "mangled_component_name":"_ZN7android8hardware3drm4V1_115BsCryptoFactoryD0Ev"
    },
    {
     "mangled_component_name":"_ZN7android8hardware3drm4V1_115BsCryptoFactory23isCryptoSchemeSupportedERKNS0_10hidl_arrayIhLj16EJEEE"
    },
    {
     "mangled_component_name":"_ZN7android8hardware3drm4V1_115BsCryptoFactory12createPluginERKNS0_10hidl_arrayIhLj16EJEEERKNS0_8hidl_vecIhEENSt3__18functionIFvNS1_4V1_06StatusERKNS_2spINSE_13ICryptoPluginEEEEEE"
    },
    {
     "kind":"offset_to_top",
     "component_value":-4
    },
    {
     "kind":"rtti",
     "mangled_component_name":"_ZTIN7android8hardware3drm4V1_115BsCryptoFactoryE"
    },
    {
     "kind":"complete_dtor_pointer",
     "mangled_component_name":"_ZThn4_N7android8hardware3drm4V1_115BsCryptoFactoryD1Ev"
    },
    {
     "kind":"deleting_dtor_pointer",
     "mangled_component_name":"_ZThn4_N7android8hardware3drm4V1_115BsCryptoFactoryD0Ev"
    },
    {
     "kind":"vcall_offset"
    },
    {
     "kind":"vcall_offset"
    },
    {
     "kind":"vcall_offset"
    },
    {
     "kind":"vcall_offset"
    },
    {
     "kind":"vcall_offset",
     "component_value":-60
    },
    {
     "kind":"offset_to_top",
     "component_value":-60
    },
    {
     "kind":"rtti",
     "mangled_component_name":"_ZTIN7android8hardware3drm4V1_115BsCryptoFactoryE"
    },
    {
     "kind":"complete_dtor_pointer",
     "mangled_component_name":"_ZTv0_n12_N7android8hardware3drm4V1_115BsCryptoFactoryD1Ev"
    },
    {
     "kind":"deleting_dtor_pointer",
     "mangled_component_name":"_ZTv0_n12_N7android8hardware3drm4V1_115BsCryptoFactoryD0Ev"
    },
    {
     "mangled_component_name":"_ZN7android7RefBase10onFirstRefEv"
    },
    {
     "mangled_component_name":"_ZN7android7RefBase15onLastStrongRefEPKv"
    },
    {
     "mangled_component_name":"_ZN7android7RefBase20onIncStrongAttemptedEjPKv"
    },
    {
     "mangled_component_name":"_ZN7android7RefBase13onLastWeakRefEPKv"
    }
   ],
   "unique_id":"_ZTSN7android8hardware3drm4V1_115BsCryptoFactoryE"
  }
 ],
 "elf_functions":[
  {
   "name":"_ZN7android8hardware3drm4V1_110IDrmPlugin10getServiceERKNSt3__112basic_stringIcNS4_11char_traitsIcEENS4_9allocatorIcEEEEb"
  },
  {
   "name":"_ZN7android8hardware3drm4V1_110IDrmPlugin11linkToDeathERKNS_2spINS0_20hidl_death_recipientEEEy"
  },
  {
   "name":"_ZN7android8hardware3drm4V1_110IDrmPlugin12getDebugInfoENSt3__18functionIFvRKNS_4hidl4base4V1_09DebugInfoEEEE"
  },
  {
   "name":"_ZN7android8hardware3drm4V1_110IDrmPlugin12getHashChainENSt3__18functionIFvRKNS0_8hidl_vecINS0_10hidl_arrayIhLj32EJEEEEEEEE"
  },
  {
   "name":"_ZN7android8hardware3drm4V1_110IDrmPlugin13tryGetServiceERKNSt3__112basic_stringIcNS4_11char_traitsIcEENS4_9allocatorIcEEEEb"
  },
  {
   "name":"_ZN7android8hardware3drm4V1_110IDrmPlugin13unlinkToDeathERKNS_2spINS0_20hidl_death_recipientEEE"
  },
  {
   "name":"_ZN7android8hardware3drm4V1_110IDrmPlugin14interfaceChainENSt3__18functionIFvRKNS0_8hidl_vecINS0_11hidl_stringEEEEEE"
  },
  {
   "name":"_ZN7android8hardware3drm4V1_110IDrmPlugin17registerAsServiceERKNSt3__112basic_stringIcNS4_11char_traitsIcEENS4_9allocatorIcEEEE"
  },
  {
   "name":"_ZN7android8hardware3drm4V1_110IDrmPlugin19interfaceDescriptorENSt3__18functionIFvRKNS0_11hidl_stringEEEE"
  },
  {
   "name":"_ZN7android8hardware3drm4V1_110IDrmPlugin21notifySyspropsChangedEv"
  },
  {
   "name":"_ZN7android8hardware3drm4V1_110IDrmPlugin21setHALInstrumentationEv"
  },
  {
   "name":"_ZN7android8hardware3drm4V1_110IDrmPlugin24registerForNotificationsERKNSt3__112basic_stringIcNS4_11char_traitsIcEENS4_9allocatorIcEEEERKNS_2spINS_4hidl7manager4V1_020IServiceNotificationEEE"
  },
  {
   "name":"_ZN7android8hardware3drm4V1_110IDrmPlugin4pingEv"
  },
  {
   "name":"_ZN7android8hardware3drm4V1_110IDrmPlugin5debugERKNS0_11hidl_handleERKNS0_8hidl_vecINS0_11hidl_stringEEE"
  },
  {
   "name":"_ZN7android8hardware3drm4V1_110IDrmPlugin8castFromERKNS_2spINS1_4V1_010IDrmPluginEEEb"
  },
  {
   "name":"_ZN7android8hardware3drm4V1_110IDrmPlugin8castFromERKNS_2spINS_4hidl4base4V1_05IBaseEEEb"
  },
  {
   "name":"_ZN7android8hardware3drm4V1_110IDrmPlugin8castFromERKNS_2spIS3_EEb"
  },
  {
   "name":"_ZN7android8hardware3drm4V1_111BsDrmPlugin13addOnewayTaskENSt3__18functionIFvvEEE"
  },
  {
   "name":"_ZN7android8hardware3drm4V1_111BsDrmPluginC1ENS_2spINS2_10IDrmPluginEEE"
  },
  {
   "name":"_ZN7android8hardware3drm4V1_111BsDrmPluginC2ENS_2spINS2_10IDrmPluginEEE"
  },
  {
   "name":"_ZN7android8hardware3drm4V1_111IDrmFactory10getServiceERKNSt3__112basic_stringIcNS4_11char_traitsIcEENS4_9allocatorIcEEEEb"
  },
  {
   "name":"_ZN7android8hardware3drm4V1_111IDrmFactory11linkToDeathERKNS_2spINS0_20hidl_death_recipientEEEy"
  },
  {
   "name":"_ZN7android8hardware3drm4V1_111IDrmFactory12getDebugInfoENSt3__18functionIFvRKNS_4hidl4base4V1_09DebugInfoEEEE"
  },
  {
   "name":"_ZN7android8hardware3drm4V1_111IDrmFactory12getHashChainENSt3__18functionIFvRKNS0_8hidl_vecINS0_10hidl_arrayIhLj32EJEEEEEEEE"
  },
  {
   "name":"_ZN7android8hardware3drm4V1_111IDrmFactory13tryGetServiceERKNSt3__112basic_stringIcNS4_11char_traitsIcEENS4_9allocatorIcEEEEb"
  },
  {
   "name":"_ZN7android8hardware3drm4V1_111IDrmFactory13unlinkToDeathERKNS_2spINS0_20hidl_death_recipientEEE"
  },
  {
   "name":"_ZN7android8hardware3drm4V1_111IDrmFactory14interfaceChainENSt3__18functionIFvRKNS0_8hidl_vecINS0_11hidl_stringEEEEEE"
  },
  {
   "name":"_ZN7android8hardware3drm4V1_111IDrmFactory17registerAsServiceERKNSt3__112basic_stringIcNS4_11char_traitsIcEENS4_9allocatorIcEEEE"
  },
  {
   "name":"_ZN7android8hardware3drm4V1_111IDrmFactory19interfaceDescriptorENSt3__18functionIFvRKNS0_11hidl_stringEEEE"
  },
  {
   "name":"_ZN7android8hardware3drm4V1_111IDrmFactory21notifySyspropsChangedEv"
  },
  {
   "name":"_ZN7android8hardware3drm4V1_111IDrmFactory21setHALInstrumentationEv"
  },
  {
   "name":"_ZN7android8hardware3drm4V1_111IDrmFactory24registerForNotificationsERKNSt3__112basic_stringIcNS4_11char_traitsIcEENS4_9allocatorIcEEEERKNS_2spINS_4hidl7manager4V1_020IServiceNotificationEEE"
  },
  {
   "name":"_ZN7android8hardware3drm4V1_111IDrmFactory4pingEv"
  },
  {
   "name":"_ZN7android8hardware3drm4V1_111IDrmFactory5debugERKNS0_11hidl_handleERKNS0_8hidl_vecINS0_11hidl_stringEEE"
  },
  {
   "name":"_ZN7android8hardware3drm4V1_111IDrmFactory8castFromERKNS_2spINS1_4V1_011IDrmFactoryEEEb"
  },
  {
   "name":"_ZN7android8hardware3drm4V1_111IDrmFactory8castFromERKNS_2spINS_4hidl4base4V1_05IBaseEEEb"
  },
  {
   "name":"_ZN7android8hardware3drm4V1_111IDrmFactory8castFromERKNS_2spIS3_EEb"
  },
  {
   "name":"_ZN7android8hardware3drm4V1_112BsDrmFactory13addOnewayTaskENSt3__18functionIFvvEEE"
  },
  {
   "name":"_ZN7android8hardware3drm4V1_112BsDrmFactoryC1ENS_2spINS2_11IDrmFactoryEEE"
  },
  {
   "name":"_ZN7android8hardware3drm4V1_112BsDrmFactoryC2ENS_2spINS2_11IDrmFactoryEEE"
  },
  {
   "name":"_ZN7android8hardware3drm4V1_113BnHwDrmPlugin10onTransactEjRKNS0_6ParcelEPS4_jNSt3__18functionIFvRS4_EEE"
  },
  {
   "name":"_ZN7android8hardware3drm4V1_113BnHwDrmPlugin12getDebugInfoENSt3__18functionIFvRKNS_4hidl4base4V1_09DebugInfoEEEE"
  },
  {
   "name":"_ZN7android8hardware3drm4V1_113BnHwDrmPlugin16_hidl_getMetricsEPNS_4hidl4base4V1_08BnHwBaseERKNS0_6ParcelEPS9_NSt3__18functionIFvRS9_EEE"
  },
  {
   "name":"_ZN7android8hardware3drm4V1_113BnHwDrmPlugin19_hidl_getHdcpLevelsEPNS_4hidl4base4V1_08BnHwBaseERKNS0_6ParcelEPS9_NSt3__18functionIFvRS9_EEE"
  },
  {
   "name":"_ZN7android8hardware3drm4V1_113BnHwDrmPlugin21_hidl_openSession_1_1EPNS_4hidl4base4V1_08BnHwBaseERKNS0_6ParcelEPS9_NSt3__18functionIFvRS9_EEE"
  },
  {
   "name":"_ZN7android8hardware3drm4V1_113BnHwDrmPlugin22_hidl_getSecureStopIdsEPNS_4hidl4base4V1_08BnHwBaseERKNS0_6ParcelEPS9_NSt3__18functionIFvRS9_EEE"
  },
  {
   "name":"_ZN7android8hardware3drm4V1_113BnHwDrmPlugin22_hidl_getSecurityLevelEPNS_4hidl4base4V1_08BnHwBaseERKNS0_6ParcelEPS9_NSt3__18functionIFvRS9_EEE"
  },
  {
   "name":"_ZN7android8hardware3drm4V1_113BnHwDrmPlugin22_hidl_removeSecureStopEPNS_4hidl4base4V1_08BnHwBaseERKNS0_6ParcelEPS9_NSt3__18functionIFvRS9_EEE"
  },
  {
   "name":"_ZN7android8hardware3drm4V1_113BnHwDrmPlugin23_hidl_getKeyRequest_1_1EPNS_4hidl4base4V1_08BnHwBaseERKNS0_6ParcelEPS9_NSt3__18functionIFvRS9_EEE"
  },
  {
   "name":"_ZN7android8hardware3drm4V1_113BnHwDrmPlugin24_hidl_releaseSecureStopsEPNS_4hidl4base4V1_08BnHwBaseERKNS0_6ParcelEPS9_NSt3__18functionIFvRS9_EEE"
  },
  {
   "name":"_ZN7android8hardware3drm4V1_113BnHwDrmPlugin25_hidl_getNumberOfSessionsEPNS_4hidl4base4V1_08BnHwBaseERKNS0_6ParcelEPS9_NSt3__18functionIFvRS9_EEE"
  },
  {
   "name":"_ZN7android8hardware3drm4V1_113BnHwDrmPlugin26_hidl_removeAllSecureStopsEPNS_4hidl4base4V1_08BnHwBaseERKNS0_6ParcelEPS9_NSt3__18functionIFvRS9_EEE"
  },
  {
   "name":"_ZN7android8hardware3drm4V1_113BnHwDrmPlugin4pingEv"
  },
  {
   "name":"_ZN7android8hardware3drm4V1_113BnHwDrmPluginC1ERKNS_2spINS2_10IDrmPluginEEE"
  },
  {
   "name":"_ZN7android8hardware3drm4V1_113BnHwDrmPluginC2ERKNS_2spINS2_10IDrmPluginEEE"
  },
  {
   "name":"_ZN7android8hardware3drm4V1_113BnHwDrmPluginD0Ev"
  },
  {
   "name":"_ZN7android8hardware3drm4V1_113BnHwDrmPluginD1Ev"
  },
  {
   "name":"_ZN7android8hardware3drm4V1_113BnHwDrmPluginD2Ev"
  },
  {
   "name":"_ZN7android8hardware3drm4V1_113BpHwDrmPlugin10getMetricsENSt3__18functionIFvNS1_4V1_06StatusERKNS0_8hidl_vecINS2_14DrmMetricGroupEEEEEE"
  },
  {
   "name":"_ZN7android8hardware3drm4V1_113BpHwDrmPlugin10removeKeysERKNS0_8hidl_vecIhEE"
  },
  {
   "name":"_ZN7android8hardware3drm4V1_113BpHwDrmPlugin11linkToDeathERKNS_2spINS0_20hidl_death_recipientEEEy"
  },
  {
   "name":"_ZN7android8hardware3drm4V1_113BpHwDrmPlugin11openSessionENSt3__18functionIFvNS1_4V1_06StatusERKNS0_8hidl_vecIhEEEEE"
  },
  {
   "name":"_ZN7android8hardware3drm4V1_113BpHwDrmPlugin11restoreKeysERKNS0_8hidl_vecIhEES7_"
  },
  {
   "name":"_ZN7android8hardware3drm4V1_113BpHwDrmPlugin11setListenerERKNS_2spINS1_4V1_018IDrmPluginListenerEEE"
  },
  {
   "name":"_ZN7android8hardware3drm4V1_113BpHwDrmPlugin12closeSessionERKNS0_8hidl_vecIhEE"
  },
  {
   "name":"_ZN7android8hardware3drm4V1_113BpHwDrmPlugin12getDebugInfoENSt3__18functionIFvRKNS_4hidl4base4V1_09DebugInfoEEEE"
  },
  {
   "name":"_ZN7android8hardware3drm4V1_113BpHwDrmPlugin12getHashChainENSt3__18functionIFvRKNS0_8hidl_vecINS0_10hidl_arrayIhLj32EJEEEEEEEE"
  },
  {
   "name":"_ZN7android8hardware3drm4V1_113BpHwDrmPlugin13getHdcpLevelsENSt3__18functionIFvNS1_4V1_06StatusENS2_9HdcpLevelES8_EEE"
  },
  {
   "name":"_ZN7android8hardware3drm4V1_113BpHwDrmPlugin13getKeyRequestERKNS0_8hidl_vecIhEES7_RKNS0_11hidl_stringENS1_4V1_07KeyTypeERKNS4_INSB_8KeyValueEEENSt3__18functionIFvNSB_6StatusES7_NSB_14KeyRequestTypeESA_EEE"
  },
  {
   "name":"_ZN7android8hardware3drm4V1_113BpHwDrmPlugin13getSecureStopERKNS0_8hidl_vecIhEENSt3__18functionIFvNS1_4V1_06StatusERKNSA_10SecureStopEEEE"
  },
  {
   "name":"_ZN7android8hardware3drm4V1_113BpHwDrmPlugin13unlinkToDeathERKNS_2spINS0_20hidl_death_recipientEEE"
  },
  {
   "name":"_ZN7android8hardware3drm4V1_113BpHwDrmPlugin14getSecureStopsENSt3__18functionIFvNS1_4V1_06StatusERKNS0_8hidl_vecINS6_10SecureStopEEEEEE"
  },
  {
   "name":"_ZN7android8hardware3drm4V1_113BpHwDrmPlugin14interfaceChainENSt3__18functionIFvRKNS0_8hidl_vecINS0_11hidl_stringEEEEEE"
  },
  {
   "name":"_ZN7android8hardware3drm4V1_113BpHwDrmPlugin14queryKeyStatusERKNS0_8hidl_vecIhEENSt3__18functionIFvNS1_4V1_06StatusERKNS4_INSA_8KeyValueEEEEEE"
  },
  {
   "name":"_ZN7android8hardware3drm4V1_113BpHwDrmPlugin14sendKeysChangeERKNS0_8hidl_vecIhEERKNS4_INS1_4V1_09KeyStatusEEEb"
  },
  {
   "name":"_ZN7android8hardware3drm4V1_113BpHwDrmPlugin15openSession_1_1ENS2_13SecurityLevelENSt3__18functionIFvNS1_4V1_06StatusERKNS0_8hidl_vecIhEEEEE"
  },
  {
   "name":"_ZN7android8hardware3drm4V1_113BpHwDrmPlugin15setMacAlgorithmERKNS0_8hidl_vecIhEERKNS0_11hidl_stringE"
  },
  {
   "name":"_ZN7android8hardware3drm4V1_113BpHwDrmPlugin16_hidl_getMetricsEPNS0_10IInterfaceEPNS0_7details16HidlInstrumentorENSt3__18functionIFvNS1_4V1_06StatusERKNS0_8hidl_vecINS2_14DrmMetricGroupEEEEEE"
  },
  {
   "name":"_ZN7android8hardware3drm4V1_113BpHwDrmPlugin16getSecureStopIdsENSt3__18functionIFvNS1_4V1_06StatusERKNS0_8hidl_vecINS8_IhEEEEEEE"
  },
  {
   "name":"_ZN7android8hardware3drm4V1_113BpHwDrmPlugin16getSecurityLevelERKNS0_8hidl_vecIhEENSt3__18functionIFvNS1_4V1_06StatusENS2_13SecurityLevelEEEE"
  },
  {
   "name":"_ZN7android8hardware3drm4V1_113BpHwDrmPlugin16removeSecureStopERKNS0_8hidl_vecIhEE"
  },
  {
   "name":"_ZN7android8hardware3drm4V1_113BpHwDrmPlugin17getKeyRequest_1_1ERKNS0_8hidl_vecIhEES7_RKNS0_11hidl_stringENS1_4V1_07KeyTypeERKNS4_INSB_8KeyValueEEENSt3__18functionIFvNSB_6StatusES7_NS2_14KeyRequestTypeESA_EEE"
  },
  {
   "name":"_ZN7android8hardware3drm4V1_113BpHwDrmPlugin17getPropertyStringERKNS0_11hidl_stringENSt3__18functionIFvNS1_4V1_06StatusES6_EEE"
  },
  {
   "name":"_ZN7android8hardware3drm4V1_113BpHwDrmPlugin17releaseSecureStopERKNS0_8hidl_vecIhEE"
  },
  {
   "name":"_ZN7android8hardware3drm4V1_113BpHwDrmPlugin17setPropertyStringERKNS0_11hidl_stringES6_"
  },
  {
   "name":"_ZN7android8hardware3drm4V1_113BpHwDrmPlugin18provideKeyResponseERKNS0_8hidl_vecIhEES7_NSt3__18functionIFvNS1_4V1_06StatusES7_EEE"
  },
  {
   "name":"_ZN7android8hardware3drm4V1_113BpHwDrmPlugin18releaseSecureStopsERKNS2_17SecureStopReleaseE"
  },
  {
   "name":"_ZN7android8hardware3drm4V1_113BpHwDrmPlugin18setCipherAlgorithmERKNS0_8hidl_vecIhEERKNS0_11hidl_stringE"
  },
  {
   "name":"_ZN7android8hardware3drm4V1_113BpHwDrmPlugin19_hidl_getHdcpLevelsEPNS0_10IInterfaceEPNS0_7details16HidlInstrumentorENSt3__18functionIFvNS1_4V1_06StatusENS2_9HdcpLevelESD_EEE"
  },
  {
   "name":"_ZN7android8hardware3drm4V1_113BpHwDrmPlugin19getNumberOfSessionsENSt3__18functionIFvNS1_4V1_06StatusEjjEEE"
  },
  {
   "name":"_ZN7android8hardware3drm4V1_113BpHwDrmPlugin19getProvisionRequestERKNS0_11hidl_stringES6_NSt3__18functionIFvNS1_4V1_06StatusERKNS0_8hidl_vecIhEES6_EEE"
  },
  {
   "name":"_ZN7android8hardware3drm4V1_113BpHwDrmPlugin19interfaceDescriptorENSt3__18functionIFvRKNS0_11hidl_stringEEEE"
  },
  {
   "name":"_ZN7android8hardware3drm4V1_113BpHwDrmPlugin20getPropertyByteArrayERKNS0_11hidl_stringENSt3__18functionIFvNS1_4V1_06StatusERKNS0_8hidl_vecIhEEEEE"
  },
  {
   "name":"_ZN7android8hardware3drm4V1_113BpHwDrmPlugin20removeAllSecureStopsEv"
  },
  {
   "name":"_ZN7android8hardware3drm4V1_113BpHwDrmPlugin20sendExpirationUpdateERKNS0_8hidl_vecIhEEx"
  },
  {
   "name":"_ZN7android8hardware3drm4V1_113BpHwDrmPlugin20setPropertyByteArrayERKNS0_11hidl_stringERKNS0_8hidl_vecIhEE"
  },
  {
   "name":"_ZN7android8hardware3drm4V1_113BpHwDrmPlugin21_hidl_openSession_1_1EPNS0_10IInterfaceEPNS0_7details16HidlInstrumentorENS2_13SecurityLevelENSt3__18functionIFvNS1_4V1_06StatusERKNS0_8hidl_vecIhEEEEE"
  },
  {
   "name":"_ZN7android8hardware3drm4V1_113BpHwDrmPlugin21notifySyspropsChangedEv"
  },
  {
   "name":"_ZN7android8hardware3drm4V1_113BpHwDrmPlugin21releaseAllSecureStopsEv"
  },
  {
   "name":"_ZN7android8hardware3drm4V1_113BpHwDrmPlugin21setHALInstrumentationEv"
  },
  {
   "name":"_ZN7android8hardware3drm4V1_113BpHwDrmPlugin22_hidl_getSecureStopIdsEPNS0_10IInterfaceEPNS0_7details16HidlInstrumentorENSt3__18functionIFvNS1_4V1_06StatusERKNS0_8hidl_vecINSD_IhEEEEEEE"
  },
  {
   "name":"_ZN7android8hardware3drm4V1_113BpHwDrmPlugin22_hidl_getSecurityLevelEPNS0_10IInterfaceEPNS0_7details16HidlInstrumentorERKNS0_8hidl_vecIhEENSt3__18functionIFvNS1_4V1_06StatusENS2_13SecurityLevelEEEE"
  },
  {
   "name":"_ZN7android8hardware3drm4V1_113BpHwDrmPlugin22_hidl_removeSecureStopEPNS0_10IInterfaceEPNS0_7details16HidlInstrumentorERKNS0_8hidl_vecIhEE"
  },
  {
   "name":"_ZN7android8hardware3drm4V1_113BpHwDrmPlugin23_hidl_getKeyRequest_1_1EPNS0_10IInterfaceEPNS0_7details16HidlInstrumentorERKNS0_8hidl_vecIhEESC_RKNS0_11hidl_stringENS1_4V1_07KeyTypeERKNS9_INSG_8KeyValueEEENSt3__18functionIFvNSG_6StatusESC_NS2_14KeyRequestTypeESF_EEE"
  },
  {
   "name":"_ZN7android8hardware3drm4V1_113BpHwDrmPlugin24_hidl_releaseSecureStopsEPNS0_10IInterfaceEPNS0_7details16HidlInstrumentorERKNS2_17SecureStopReleaseE"
  },
  {
   "name":"_ZN7android8hardware3drm4V1_113BpHwDrmPlugin24provideProvisionResponseERKNS0_8hidl_vecIhEENSt3__18functionIFvNS1_4V1_06StatusES7_S7_EEE"
  },
  {
   "name":"_ZN7android8hardware3drm4V1_113BpHwDrmPlugin25_hidl_getNumberOfSessionsEPNS0_10IInterfaceEPNS0_7details16HidlInstrumentorENSt3__18functionIFvNS1_4V1_06StatusEjjEEE"
  },
  {
   "name":"_ZN7android8hardware3drm4V1_113BpHwDrmPlugin26_hidl_removeAllSecureStopsEPNS0_10IInterfaceEPNS0_7details16HidlInstrumentorE"
  },
  {
   "name":"_ZN7android8hardware3drm4V1_113BpHwDrmPlugin4pingEv"
  },
  {
   "name":"_ZN7android8hardware3drm4V1_113BpHwDrmPlugin4signERKNS0_8hidl_vecIhEES7_S7_NSt3__18functionIFvNS1_4V1_06StatusES7_EEE"
  },
  {
   "name":"_ZN7android8hardware3drm4V1_113BpHwDrmPlugin5debugERKNS0_11hidl_handleERKNS0_8hidl_vecINS0_11hidl_stringEEE"
  },
  {
   "name":"_ZN7android8hardware3drm4V1_113BpHwDrmPlugin6verifyERKNS0_8hidl_vecIhEES7_S7_S7_NSt3__18functionIFvNS1_4V1_06StatusEbEEE"
  },
  {
   "name":"_ZN7android8hardware3drm4V1_113BpHwDrmPlugin7decryptERKNS0_8hidl_vecIhEES7_S7_S7_NSt3__18functionIFvNS1_4V1_06StatusES7_EEE"
  },
  {
   "name":"_ZN7android8hardware3drm4V1_113BpHwDrmPlugin7encryptERKNS0_8hidl_vecIhEES7_S7_S7_NSt3__18functionIFvNS1_4V1_06StatusES7_EEE"
  },
  {
   "name":"_ZN7android8hardware3drm4V1_113BpHwDrmPlugin7signRSAERKNS0_8hidl_vecIhEERKNS0_11hidl_stringES7_S7_NSt3__18functionIFvNS1_4V1_06StatusES7_EEE"
  },
  {
   "name":"_ZN7android8hardware3drm4V1_113BpHwDrmPlugin9sendEventENS1_4V1_09EventTypeERKNS0_8hidl_vecIhEES9_"
  },
  {
   "name":"_ZN7android8hardware3drm4V1_113BpHwDrmPluginC1ERKNS_2spINS0_7IBinderEEE"
  },
  {
   "name":"_ZN7android8hardware3drm4V1_113BpHwDrmPluginC2ERKNS_2spINS0_7IBinderEEE"
  },
  {
   "name":"_ZN7android8hardware3drm4V1_114BnHwDrmFactory10onTransactEjRKNS0_6ParcelEPS4_jNSt3__18functionIFvRS4_EEE"
  },
  {
   "name":"_ZN7android8hardware3drm4V1_114BnHwDrmFactory12getDebugInfoENSt3__18functionIFvRKNS_4hidl4base4V1_09DebugInfoEEEE"
  },
  {
   "name":"_ZN7android8hardware3drm4V1_114BnHwDrmFactory4pingEv"
  },
  {
   "name":"_ZN7android8hardware3drm4V1_114BnHwDrmFactoryC1ERKNS_2spINS2_11IDrmFactoryEEE"
  },
  {
   "name":"_ZN7android8hardware3drm4V1_114BnHwDrmFactoryC2ERKNS_2spINS2_11IDrmFactoryEEE"
  },
  {
   "name":"_ZN7android8hardware3drm4V1_114BnHwDrmFactoryD0Ev"
  },
  {
   "name":"_ZN7android8hardware3drm4V1_114BnHwDrmFactoryD1Ev"
  },
  {
   "name":"_ZN7android8hardware3drm4V1_114BnHwDrmFactoryD2Ev"
  },
  {
   "name":"_ZN7android8hardware3drm4V1_114BpHwDrmFactory11linkToDeathERKNS_2spINS0_20hidl_death_recipientEEEy"
  },
  {
   "name":"_ZN7android8hardware3drm4V1_114BpHwDrmFactory12createPluginERKNS0_10hidl_arrayIhLj16EJEEERKNS0_11hidl_stringENSt3__18functionIFvNS1_4V1_06StatusERKNS_2spINSD_10IDrmPluginEEEEEE"
  },
  {
   "name":"_ZN7android8hardware3drm4V1_114BpHwDrmFactory12getDebugInfoENSt3__18functionIFvRKNS_4hidl4base4V1_09DebugInfoEEEE"
  },
  {
   "name":"_ZN7android8hardware3drm4V1_114BpHwDrmFactory12getHashChainENSt3__18functionIFvRKNS0_8hidl_vecINS0_10hidl_arrayIhLj32EJEEEEEEEE"
  },
  {
   "name":"_ZN7android8hardware3drm4V1_114BpHwDrmFactory13unlinkToDeathERKNS_2spINS0_20hidl_death_recipientEEE"
  },
  {
   "name":"_ZN7android8hardware3drm4V1_114BpHwDrmFactory14interfaceChainENSt3__18functionIFvRKNS0_8hidl_vecINS0_11hidl_stringEEEEEE"
  },
  {
   "name":"_ZN7android8hardware3drm4V1_114BpHwDrmFactory19interfaceDescriptorENSt3__18functionIFvRKNS0_11hidl_stringEEEE"
  },
  {
   "name":"_ZN7android8hardware3drm4V1_114BpHwDrmFactory21notifySyspropsChangedEv"
  },
  {
   "name":"_ZN7android8hardware3drm4V1_114BpHwDrmFactory21setHALInstrumentationEv"
  },
  {
   "name":"_ZN7android8hardware3drm4V1_114BpHwDrmFactory22isContentTypeSupportedERKNS0_11hidl_stringE"
  },
  {
   "name":"_ZN7android8hardware3drm4V1_114BpHwDrmFactory23isCryptoSchemeSupportedERKNS0_10hidl_arrayIhLj16EJEEE"
  },
  {
   "name":"_ZN7android8hardware3drm4V1_114BpHwDrmFactory4pingEv"
  },
  {
   "name":"_ZN7android8hardware3drm4V1_114BpHwDrmFactory5debugERKNS0_11hidl_handleERKNS0_8hidl_vecINS0_11hidl_stringEEE"
  },
  {
   "name":"_ZN7android8hardware3drm4V1_114BpHwDrmFactoryC1ERKNS_2spINS0_7IBinderEEE"
  },
  {
   "name":"_ZN7android8hardware3drm4V1_114BpHwDrmFactoryC2ERKNS_2spINS0_7IBinderEEE"
  },
  {
   "name":"_ZN7android8hardware3drm4V1_114ICryptoFactory10getServiceERKNSt3__112basic_stringIcNS4_11char_traitsIcEENS4_9allocatorIcEEEEb"
  },
  {
   "name":"_ZN7android8hardware3drm4V1_114ICryptoFactory11linkToDeathERKNS_2spINS0_20hidl_death_recipientEEEy"
  },
  {
   "name":"_ZN7android8hardware3drm4V1_114ICryptoFactory12getDebugInfoENSt3__18functionIFvRKNS_4hidl4base4V1_09DebugInfoEEEE"
  },
  {
   "name":"_ZN7android8hardware3drm4V1_114ICryptoFactory12getHashChainENSt3__18functionIFvRKNS0_8hidl_vecINS0_10hidl_arrayIhLj32EJEEEEEEEE"
  },
  {
   "name":"_ZN7android8hardware3drm4V1_114ICryptoFactory13tryGetServiceERKNSt3__112basic_stringIcNS4_11char_traitsIcEENS4_9allocatorIcEEEEb"
  },
  {
   "name":"_ZN7android8hardware3drm4V1_114ICryptoFactory13unlinkToDeathERKNS_2spINS0_20hidl_death_recipientEEE"
  },
  {
   "name":"_ZN7android8hardware3drm4V1_114ICryptoFactory14interfaceChainENSt3__18functionIFvRKNS0_8hidl_vecINS0_11hidl_stringEEEEEE"
  },
  {
   "name":"_ZN7android8hardware3drm4V1_114ICryptoFactory17registerAsServiceERKNSt3__112basic_stringIcNS4_11char_traitsIcEENS4_9allocatorIcEEEE"
  },
  {
   "name":"_ZN7android8hardware3drm4V1_114ICryptoFactory19interfaceDescriptorENSt3__18functionIFvRKNS0_11hidl_stringEEEE"
  },
  {
   "name":"_ZN7android8hardware3drm4V1_114ICryptoFactory21notifySyspropsChangedEv"
  },
  {
   "name":"_ZN7android8hardware3drm4V1_114ICryptoFactory21setHALInstrumentationEv"
  },
  {
   "name":"_ZN7android8hardware3drm4V1_114ICryptoFactory24registerForNotificationsERKNSt3__112basic_stringIcNS4_11char_traitsIcEENS4_9allocatorIcEEEERKNS_2spINS_4hidl7manager4V1_020IServiceNotificationEEE"
  },
  {
   "name":"_ZN7android8hardware3drm4V1_114ICryptoFactory4pingEv"
  },
  {
   "name":"_ZN7android8hardware3drm4V1_114ICryptoFactory5debugERKNS0_11hidl_handleERKNS0_8hidl_vecINS0_11hidl_stringEEE"
  },
  {
   "name":"_ZN7android8hardware3drm4V1_114ICryptoFactory8castFromERKNS_2spINS1_4V1_014ICryptoFactoryEEEb"
  },
  {
   "name":"_ZN7android8hardware3drm4V1_114ICryptoFactory8castFromERKNS_2spINS_4hidl4base4V1_05IBaseEEEb"
  },
  {
   "name":"_ZN7android8hardware3drm4V1_114ICryptoFactory8castFromERKNS_2spIS3_EEb"
  },
  {
   "name":"_ZN7android8hardware3drm4V1_115BsCryptoFactory13addOnewayTaskENSt3__18functionIFvvEEE"
  },
  {
   "name":"_ZN7android8hardware3drm4V1_115BsCryptoFactoryC1ENS_2spINS2_14ICryptoFactoryEEE"
  },
  {
   "name":"_ZN7android8hardware3drm4V1_115BsCryptoFactoryC2ENS_2spINS2_14ICryptoFactoryEEE"
  },
  {
   "name":"_ZN7android8hardware3drm4V1_117BnHwCryptoFactory10onTransactEjRKNS0_6ParcelEPS4_jNSt3__18functionIFvRS4_EEE"
  },
  {
   "name":"_ZN7android8hardware3drm4V1_117BnHwCryptoFactory12getDebugInfoENSt3__18functionIFvRKNS_4hidl4base4V1_09DebugInfoEEEE"
  },
  {
   "name":"_ZN7android8hardware3drm4V1_117BnHwCryptoFactory4pingEv"
  },
  {
   "name":"_ZN7android8hardware3drm4V1_117BnHwCryptoFactoryC1ERKNS_2spINS2_14ICryptoFactoryEEE"
  },
  {
   "name":"_ZN7android8hardware3drm4V1_117BnHwCryptoFactoryC2ERKNS_2spINS2_14ICryptoFactoryEEE"
  },
  {
   "name":"_ZN7android8hardware3drm4V1_117BnHwCryptoFactoryD0Ev"
  },
  {
   "name":"_ZN7android8hardware3drm4V1_117BnHwCryptoFactoryD1Ev"
  },
  {
   "name":"_ZN7android8hardware3drm4V1_117BnHwCryptoFactoryD2Ev"
  },
  {
   "name":"_ZN7android8hardware3drm4V1_117BpHwCryptoFactory11linkToDeathERKNS_2spINS0_20hidl_death_recipientEEEy"
  },
  {
   "name":"_ZN7android8hardware3drm4V1_117BpHwCryptoFactory12createPluginERKNS0_10hidl_arrayIhLj16EJEEERKNS0_8hidl_vecIhEENSt3__18functionIFvNS1_4V1_06StatusERKNS_2spINSE_13ICryptoPluginEEEEEE"
  },
  {
   "name":"_ZN7android8hardware3drm4V1_117BpHwCryptoFactory12getDebugInfoENSt3__18functionIFvRKNS_4hidl4base4V1_09DebugInfoEEEE"
  },
  {
   "name":"_ZN7android8hardware3drm4V1_117BpHwCryptoFactory12getHashChainENSt3__18functionIFvRKNS0_8hidl_vecINS0_10hidl_arrayIhLj32EJEEEEEEEE"
  },
  {
   "name":"_ZN7android8hardware3drm4V1_117BpHwCryptoFactory13unlinkToDeathERKNS_2spINS0_20hidl_death_recipientEEE"
  },
  {
   "name":"_ZN7android8hardware3drm4V1_117BpHwCryptoFactory14interfaceChainENSt3__18functionIFvRKNS0_8hidl_vecINS0_11hidl_stringEEEEEE"
  },
  {
   "name":"_ZN7android8hardware3drm4V1_117BpHwCryptoFactory19interfaceDescriptorENSt3__18functionIFvRKNS0_11hidl_stringEEEE"
  },
  {
   "name":"_ZN7android8hardware3drm4V1_117BpHwCryptoFactory21notifySyspropsChangedEv"
  },
  {
   "name":"_ZN7android8hardware3drm4V1_117BpHwCryptoFactory21setHALInstrumentationEv"
  },
  {
   "name":"_ZN7android8hardware3drm4V1_117BpHwCryptoFactory23isCryptoSchemeSupportedERKNS0_10hidl_arrayIhLj16EJEEE"
  },
  {
   "name":"_ZN7android8hardware3drm4V1_117BpHwCryptoFactory4pingEv"
  },
  {
   "name":"_ZN7android8hardware3drm4V1_117BpHwCryptoFactory5debugERKNS0_11hidl_handleERKNS0_8hidl_vecINS0_11hidl_stringEEE"
  },
  {
   "name":"_ZN7android8hardware3drm4V1_117BpHwCryptoFactoryC1ERKNS_2spINS0_7IBinderEEE"
  },
  {
   "name":"_ZN7android8hardware3drm4V1_117BpHwCryptoFactoryC2ERKNS_2spINS0_7IBinderEEE"
  },
  {
   "name":"_ZN7android8hardware3drm4V1_121writeEmbeddedToParcelERKNS2_14DrmMetricGroupEPNS0_6ParcelEjj"
  },
  {
   "name":"_ZN7android8hardware3drm4V1_121writeEmbeddedToParcelERKNS2_17SecureStopReleaseEPNS0_6ParcelEjj"
  },
  {
   "name":"_ZN7android8hardware3drm4V1_122readEmbeddedFromParcelERKNS2_14DrmMetricGroupERKNS0_6ParcelEjj"
  },
  {
   "name":"_ZN7android8hardware3drm4V1_122readEmbeddedFromParcelERKNS2_17SecureStopReleaseERKNS0_6ParcelEjj"
  },
  {
   "binding":"weak",
   "name":"_ZN7android8hardware7details13castInterfaceINS0_3drm4V1_110IDrmPluginENS3_4V1_010IDrmPluginENS4_13BpHwDrmPluginEEENS0_6ReturnINS_2spIT_EEEENSA_IT0_EEPKcb"
  },
  {
   "binding":"weak",
   "name":"_ZN7android8hardware7details13castInterfaceINS0_3drm4V1_110IDrmPluginENS_4hidl4base4V1_05IBaseENS4_13BpHwDrmPluginEEENS0_6ReturnINS_2spIT_EEEENSC_IT0_EEPKcb"
  },
  {
   "binding":"weak",
   "name":"_ZN7android8hardware7details13castInterfaceINS0_3drm4V1_111IDrmFactoryENS3_4V1_011IDrmFactoryENS4_14BpHwDrmFactoryEEENS0_6ReturnINS_2spIT_EEEENSA_IT0_EEPKcb"
  },
  {
   "binding":"weak",
   "name":"_ZN7android8hardware7details13castInterfaceINS0_3drm4V1_111IDrmFactoryENS_4hidl4base4V1_05IBaseENS4_14BpHwDrmFactoryEEENS0_6ReturnINS_2spIT_EEEENSC_IT0_EEPKcb"
  },
  {
   "binding":"weak",
   "name":"_ZN7android8hardware7details13castInterfaceINS0_3drm4V1_114ICryptoFactoryENS3_4V1_014ICryptoFactoryENS4_17BpHwCryptoFactoryEEENS0_6ReturnINS_2spIT_EEEENSA_IT0_EEPKcb"
  },
  {
   "binding":"weak",
   "name":"_ZN7android8hardware7details13castInterfaceINS0_3drm4V1_114ICryptoFactoryENS_4hidl4base4V1_05IBaseENS4_17BpHwCryptoFactoryEEENS0_6ReturnINS_2spIT_EEEENSC_IT0_EEPKcb"
  },
  {
   "binding":"weak",
   "name":"_ZN7android8hardware7details15wrapPassthroughINS0_3drm4V1_010IDrmPluginEvEENS_2spIT_EES8_"
  },
  {
   "binding":"weak",
   "name":"_ZN7android8hardware7details15wrapPassthroughINS0_3drm4V1_013ICryptoPluginEvEENS_2spIT_EES8_"
  },
  {
   "binding":"weak",
   "name":"_ZN7android8hardware7details15wrapPassthroughINS0_3drm4V1_018IDrmPluginListenerEvEENS_2spIT_EES8_"
  },
  {
   "binding":"weak",
   "name":"_ZN7android8hardware7details18getServiceInternalINS0_3drm4V1_113BpHwDrmPluginENS4_10IDrmPluginEvvEENS_2spIT0_EERKNSt3__112basic_stringIcNSA_11char_traitsIcEENSA_9allocatorIcEEEEbb"
  },
  {
   "binding":"weak",
   "name":"_ZN7android8hardware7details18getServiceInternalINS0_3drm4V1_114BpHwDrmFactoryENS4_11IDrmFactoryEvvEENS_2spIT0_EERKNSt3__112basic_stringIcNSA_11char_traitsIcEENSA_9allocatorIcEEEEbb"
  },
  {
   "binding":"weak",
   "name":"_ZN7android8hardware7details18getServiceInternalINS0_3drm4V1_117BpHwCryptoFactoryENS4_14ICryptoFactoryEvvEENS_2spIT0_EERKNSt3__112basic_stringIcNSA_11char_traitsIcEENSA_9allocatorIcEEEEbb"
  },
  {
   "binding":"weak",
   "name":"_ZN7android8hardware8toBinderINS0_3drm4V1_010IDrmPluginEvEENS_2spINS0_7IBinderEEENS5_IT_EE"
  },
  {
   "binding":"weak",
   "name":"_ZN7android8hardware8toBinderINS0_3drm4V1_011IDrmFactoryEvEENS_2spINS0_7IBinderEEENS5_IT_EE"
  },
  {
   "binding":"weak",
   "name":"_ZN7android8hardware8toBinderINS0_3drm4V1_014ICryptoFactoryEvEENS_2spINS0_7IBinderEEENS5_IT_EE"
  },
  {
   "binding":"weak",
   "name":"_ZN7android8hardware8toBinderINS_4hidl4base4V1_05IBaseEvEENS_2spINS0_7IBinderEEENS6_IT_EE"
  },
  {
   "name":"_ZThn20_N7android8hardware3drm4V1_113BnHwDrmPluginD0Ev"
  },
  {
   "name":"_ZThn20_N7android8hardware3drm4V1_113BnHwDrmPluginD1Ev"
  },
  {
   "name":"_ZThn20_N7android8hardware3drm4V1_114BnHwDrmFactoryD0Ev"
  },
  {
   "name":"_ZThn20_N7android8hardware3drm4V1_114BnHwDrmFactoryD1Ev"
  },
  {
   "name":"_ZThn20_N7android8hardware3drm4V1_117BnHwCryptoFactoryD0Ev"
  },
  {
   "name":"_ZThn20_N7android8hardware3drm4V1_117BnHwCryptoFactoryD1Ev"
  },
  {
   "name":"_ZTv0_n12_N7android8hardware3drm4V1_113BnHwDrmPluginD0Ev"
  },
  {
   "name":"_ZTv0_n12_N7android8hardware3drm4V1_113BnHwDrmPluginD1Ev"
  },
  {
   "name":"_ZTv0_n12_N7android8hardware3drm4V1_114BnHwDrmFactoryD0Ev"
  },
  {
   "name":"_ZTv0_n12_N7android8hardware3drm4V1_114BnHwDrmFactoryD1Ev"
  },
  {
   "name":"_ZTv0_n12_N7android8hardware3drm4V1_117BnHwCryptoFactoryD0Ev"
  },
  {
   "name":"_ZTv0_n12_N7android8hardware3drm4V1_117BnHwCryptoFactoryD1Ev"
  }
 ],
 "elf_objects":[
  {
   "name":"_ZN7android8hardware3drm4V1_110IDrmPlugin10descriptorE"
  },
  {
   "name":"_ZN7android8hardware3drm4V1_111IDrmFactory10descriptorE"
  },
  {
   "name":"_ZN7android8hardware3drm4V1_114ICryptoFactory10descriptorE"
  },
  {
   "name":"_ZTTN7android8hardware3drm4V1_110IDrmPluginE"
  },
  {
   "name":"_ZTTN7android8hardware3drm4V1_111IDrmFactoryE"
  },
  {
   "name":"_ZTTN7android8hardware3drm4V1_113BnHwDrmPluginE"
  },
  {
   "name":"_ZTTN7android8hardware3drm4V1_113BpHwDrmPluginE"
  },
  {
   "name":"_ZTTN7android8hardware3drm4V1_114BnHwDrmFactoryE"
  },
  {
   "name":"_ZTTN7android8hardware3drm4V1_114BpHwDrmFactoryE"
  },
  {
   "name":"_ZTTN7android8hardware3drm4V1_114ICryptoFactoryE"
  },
  {
   "name":"_ZTTN7android8hardware3drm4V1_117BnHwCryptoFactoryE"
  },
  {
   "name":"_ZTTN7android8hardware3drm4V1_117BpHwCryptoFactoryE"
  },
  {
   "name":"_ZTVN7android8hardware3drm4V1_110IDrmPluginE"
  },
  {
   "binding":"weak",
   "name":"_ZTVN7android8hardware3drm4V1_111BsDrmPluginE"
  },
  {
   "name":"_ZTVN7android8hardware3drm4V1_111IDrmFactoryE"
  },
  {
   "binding":"weak",
   "name":"_ZTVN7android8hardware3drm4V1_112BsDrmFactoryE"
  },
  {
   "name":"_ZTVN7android8hardware3drm4V1_113BnHwDrmPluginE"
  },
  {
   "name":"_ZTVN7android8hardware3drm4V1_113BpHwDrmPluginE"
  },
  {
   "name":"_ZTVN7android8hardware3drm4V1_114BnHwDrmFactoryE"
  },
  {
   "name":"_ZTVN7android8hardware3drm4V1_114BpHwDrmFactoryE"
  },
  {
   "name":"_ZTVN7android8hardware3drm4V1_114ICryptoFactoryE"
  },
  {
   "binding":"weak",
   "name":"_ZTVN7android8hardware3drm4V1_115BsCryptoFactoryE"
  },
  {
   "name":"_ZTVN7android8hardware3drm4V1_117BnHwCryptoFactoryE"
  },
  {
   "name":"_ZTVN7android8hardware3drm4V1_117BpHwCryptoFactoryE"
  }
 ]
}