{
 "record_types":[
  {
   "vtable_components":[
    {
     "kind":"vbase_offset",
     "component_value":60
    },
    {
     "kind":"offset_to_top"
    },
    {
     "kind":"rtti",
     "mangled_component_name":"_ZTIN7android8hardware6camera6device4V3_321BsCameraDeviceSessionE"
    },
    {
     "mangled_component_name":"_ZNK7android8hardware6camera6device4V3_320ICameraDeviceSession8isRemoteEv"
    },
    {
     "mangled_component_name":"_ZN7android8hardware6camera6device4V3_321BsCameraDeviceSession14interfaceChainENSt3__18functionIFvRKNS0_8hidl_vecINS0_11hidl_stringEEEEEE"
    },
    {
     "mangled_component_name":"_ZN7android8hardware6camera6device4V3_321BsCameraDeviceSession5debugERKNS0_11hidl_handleERKNS0_8hidl_vecINS0_11hidl_stringEEE"
    },
    {
     "mangled_component_name":"_ZN7android8hardware6camera6device4V3_321BsCameraDeviceSession19interfaceDescriptorENSt3__18functionIFvRKNS0_11hidl_stringEEEE"
    },
    {
     "mangled_component_name":"_ZN7android8hardware6camera6device4V3_321BsCameraDeviceSession12getHashChainENSt3__18functionIFvRKNS0_8hidl_vecINS0_10hidl_arrayIhLj32EJEEEEEEEE"
    },
    {
     "mangled_component_name":"_ZN7android8hardware6camera6device4V3_321BsCameraDeviceSession21setHALInstrumentationEv"
    },
    {
     "mangled_component_name":"_ZN7android8hardware6camera6device4V3_321BsCameraDeviceSession11linkToDeathERKNS_2spINS0_20hidl_death_recipientEEEy"
    },
    {
     "mangled_component_name":"_ZN7android8hardware6camera6device4V3_321BsCameraDeviceSession4pingEv"
    },
    {
     "mangled_component_name":"_ZN7android8hardware6camera6device4V3_321BsCameraDeviceSession12getDebugInfoENSt3__18functionIFvRKNS_4hidl4base4V1_09DebugInfoEEEE"
    },
    {
     "mangled_component_name":"_ZN7android8hardware6camera6device4V3_321BsCameraDeviceSession21notifySyspropsChangedEv"
    },
    {
     "mangled_component_name":"_ZN7android8hardware6camera6device4V3_321BsCameraDeviceSession13unlinkToDeathERKNS_2spINS0_20hidl_death_recipientEEE"
    },
    {
     "kind":"complete_dtor_pointer",
     "mangled_component_name":"_ZN7android8hardware6camera6device4V3_321BsCameraDeviceSessionD1Ev"
    },
    {
     "kind":"deleting_dtor_pointer",
     "mangled_component_name":"_ZN7android8hardware6camera6device4V3_321BsCameraDeviceSessionD0Ev"
    },
    {
     "mangled_component_name":"_ZN7android8hardware6camera6device4V3_321BsCameraDeviceSession31constructDefaultRequestSettingsENS2_4V3_215RequestTemplateENSt3__18functionIFvNS1_6common4V1_06StatusERKNS0_8hidl_vecIhEEEEE"
    },
    {
     "mangled_component_name":"_ZN7android8hardware6camera6device4V3_321BsCameraDeviceSession16configureStreamsERKNS2_4V3_219StreamConfigurationENSt3__18functionIFvNS1_6common4V1_06StatusERKNS5_22HalStreamConfigurationEEEE"
    },
    {
     "mangled_component_name":"_ZN7android8hardware6camera6device4V3_321BsCameraDeviceSession21processCaptureRequestERKNS0_8hidl_vecINS2_4V3_214CaptureRequestEEERKNS5_INS6_11BufferCacheEEENSt3__18functionIFvNS1_6common4V1_06StatusEjEEE"
    },
    {
     "mangled_component_name":"_ZN7android8hardware6camera6device4V3_321BsCameraDeviceSession30getCaptureRequestMetadataQueueENSt3__18functionIFvRKNS0_12MQDescriptorIhLNS0_8MQFlavorE1EEEEEE"
    },
    {
     "mangled_component_name":"_ZN7android8hardware6camera6device4V3_321BsCameraDeviceSession29getCaptureResultMetadataQueueENSt3__18functionIFvRKNS0_12MQDescriptorIhLNS0_8MQFlavorE1EEEEEE"
    },
    {
     "mangled_component_name":"_ZN7android8hardware6camera6device4V3_321BsCameraDeviceSession5flushEv"
    },
    {
     "mangled_component_name":"_ZN7android8hardware6camera6device4V3_321BsCameraDeviceSession5closeEv"
    },
    {
     "mangled_component_name":"_ZN7android8hardware6camera6device4V3_321BsCameraDeviceSession20configureStreams_3_3ERKNS2_4V3_219StreamConfigurationENSt3__18functionIFvNS1_6common4V1_06StatusERKNS3_22HalStreamConfigurationEEEE"
    },
    {
     "kind":"offset_to_top",
     "component_value":-4
    },
    {
     "kind":"rtti",
     "mangled_component_name":"_ZTIN7android8hardware6camera6device4V3_321BsCameraDeviceSessionE"
    },
    {
     "kind":"complete_dtor_pointer",
     "mangled_component_name":"_ZThn4_N7android8hardware6camera6device4V3_321BsCameraDeviceSessionD1Ev"
    },
    {
     "kind":"deleting_dtor_pointer",
     "mangled_component_name":"_ZThn4_N7android8hardware6camera6device4V3_321BsCameraDeviceSessionD0Ev"
    },
    {
     "kind":"vcall_offset"
    },
    {
     "kind":"vcall_offset"
    },
    {
     "kind":"vcall_offset"
    },
    {
     "kind":"vcall_offset"
    },
    {
     "kind":"vcall_offset",
     "component_value":-60
    },
    {
     "kind":"offset_to_top",
     "component_value":-60
    },
    {
     "kind":"rtti",
     "mangled_component_name":"_ZTIN7android8hardware6camera6device4V3_321BsCameraDeviceSessionE"
    },
    {
     "kind":"complete_dtor_pointer",
     "mangled_component_name":"_ZTv0_n12_N7android8hardware6camera6device4V3_321BsCameraDeviceSessionD1Ev"
    },
    {
     "kind":"deleting_dtor_pointer",
     "mangled_component_name":"_ZTv0_n12_N7android8hardware6camera6device4V3_321BsCameraDeviceSessionD0Ev"
    },
    {
     "mangled_component_name":"_ZN7android7RefBase10onFirstRefEv"
    },
    {
     "mangled_component_name":"_ZN7android7RefBase15onLastStrongRefEPKv"
    },
    {
     "mangled_component_name":"_ZN7android7RefBase20onIncStrongAttemptedEjPKv"
    },
    {
     "mangled_component_name":"_ZN7android7RefBase13onLastWeakRefEPKv"
    }
   ],
   "unique_id":"_ZTSN7android8hardware6camera6device4V3_321BsCameraDeviceSessionE"
  },
  {
   "vtable_components":[
    {
     "kind":"vbase_offset",
     "component_value":4
    },
    {
     "kind":"offset_to_top"
    },
    {
     "kind":"rtti",
     "mangled_component_name":"_ZTIN7android8hardware6camera6device4V3_320ICameraDeviceSessionE"
    },
    {
     "mangled_component_name":"_ZNK7android8hardware6camera6device4V3_320ICameraDeviceSession8isRemoteEv"
    },
    {
     "mangled_component_name":"_ZN7android8hardware6camera6device4V3_320ICameraDeviceSession14interfaceChainENSt3__18functionIFvRKNS0_8hidl_vecINS0_11hidl_stringEEEEEE"
    },
    {
     "mangled_component_name":"_ZN7android8hardware6camera6device4V3_320ICameraDeviceSession5debugERKNS0_11hidl_handleERKNS0_8hidl_vecINS0_11hidl_stringEEE"
    },
    {
     "mangled_component_name":"_ZN7android8hardware6camera6device4V3_320ICameraDeviceSession19interfaceDescriptorENSt3__18functionIFvRKNS0_11hidl_stringEEEE"
    },
    {
     "mangled_component_name":"_ZN7android8hardware6camera6device4V3_320ICameraDeviceSession12getHashChainENSt3__18functionIFvRKNS0_8hidl_vecINS0_10hidl_arrayIhLj32EJEEEEEEEE"
    },
    {
     "mangled_component_name":"_ZN7android8hardware6camera6device4V3_320ICameraDeviceSession21setHALInstrumentationEv"
    },
    {
     "mangled_component_name":"_ZN7android8hardware6camera6device4V3_320ICameraDeviceSession11linkToDeathERKNS_2spINS0_20hidl_death_recipientEEEy"
    },
    {
     "mangled_component_name":"_ZN7android8hardware6camera6device4V3_320ICameraDeviceSession4pingEv"
    },
    {
     "mangled_component_name":"_ZN7android8hardware6camera6device4V3_320ICameraDeviceSession12getDebugInfoENSt3__18functionIFvRKNS_4hidl4base4V1_09DebugInfoEEEE"
    },
    {
     "mangled_component_name":"_ZN7android8hardware6camera6device4V3_320ICameraDeviceSession21notifySyspropsChangedEv"
    },
    {
     "mangled_component_name":"_ZN7android8hardware6camera6device4V3_320ICameraDeviceSession13unlinkToDeathERKNS_2spINS0_20hidl_death_recipientEEE"
    },
    {
     "kind":"complete_dtor_pointer",
     "mangled_component_name":"_ZN7android8hardware6camera6device4V3_320ICameraDeviceSessionD1Ev"
    },
    {
     "kind":"deleting_dtor_pointer",
     "mangled_component_name":"_ZN7android8hardware6camera6device4V3_320ICameraDeviceSessionD0Ev"
    },
    {
     "is_pure":true,
     "mangled_component_name":"_ZN7android8hardware6camera6device4V3_320ICameraDeviceSession31constructDefaultRequestSettingsENS2_4V3_215RequestTemplateENSt3__18functionIFvNS1_6common4V1_06StatusERKNS0_8hidl_vecIhEEEEE"
    },
    {
     "is_pure":true,
     "mangled_component_name":"_ZN7android8hardware6camera6device4V3_320ICameraDeviceSession16configureStreamsERKNS2_4V3_219StreamConfigurationENSt3__18functionIFvNS1_6common4V1_06StatusERKNS5_22HalStreamConfigurationEEEE"
    },
    {
     "is_pure":true,
     "mangled_component_name":"_ZN7android8hardware6camera6device4V3_320ICameraDeviceSession21processCaptureRequestERKNS0_8hidl_vecINS2_4V3_214CaptureRequestEEERKNS5_INS6_11BufferCacheEEENSt3__18functionIFvNS1_6common4V1_06StatusEjEEE"
    },
    {
     "is_pure":true,
     "mangled_component_name":"_ZN7android8hardware6camera6device4V3_320ICameraDeviceSession30getCaptureRequestMetadataQueueENSt3__18functionIFvRKNS0_12MQDescriptorIhLNS0_8MQFlavorE1EEEEEE"
    },
    {
     "is_pure":true,
     "mangled_component_name":"_ZN7android8hardware6camera6device4V3_320ICameraDeviceSession29getCaptureResultMetadataQueueENSt3__18functionIFvRKNS0_12MQDescriptorIhLNS0_8MQFlavorE1EEEEEE"
    },
    {
     "is_pure":true,
     "mangled_component_name":"_ZN7android8hardware6camera6device4V3_320ICameraDeviceSession5flushEv"
    },
    {
     "is_pure":true,
     "mangled_component_name":"_ZN7android8hardware6camera6device4V3_320ICameraDeviceSession5closeEv"
    },
    {
     "is_pure":true,
     "mangled_component_name":"_ZN7android8hardware6camera6device4V3_320ICameraDeviceSession20configureStreams_3_3ERKNS2_4V3_219StreamConfigurationENSt3__18functionIFvNS1_6common4V1_06StatusERKNS3_22HalStreamConfigurationEEEE"
    },
    {
     "kind":"vcall_offset"
    },
    {
     "kind":"vcall_offset"
    },
    {
     "kind":"vcall_offset"
    },
    {
     "kind":"vcall_offset"
    },
    {
     "kind":"vcall_offset",
     "component_value":-4
    },
    {
     "kind":"offset_to_top",
     "component_value":-4
    },
    {
     "kind":"rtti",
     "mangled_component_name":"_ZTIN7android8hardware6camera6device4V3_320ICameraDeviceSessionE"
    },
    {
     "kind":"complete_dtor_pointer",
     "mangled_component_name":"_ZTv0_n12_N7android8hardware6camera6device4V3_320ICameraDeviceSessionD1Ev"
    },
    {
     "kind":"deleting_dtor_pointer",
     "mangled_component_name":"_ZTv0_n12_N7android8hardware6camera6device4V3_320ICameraDeviceSessionD0Ev"
    },
    {
     "mangled_component_name":"_ZN7android7RefBase10onFirstRefEv"
    },
    {
     "mangled_component_name":"_ZN7android7RefBase15onLastStrongRefEPKv"
    },
    {
     "mangled_component_name":"_ZN7android7RefBase20onIncStrongAttemptedEjPKv"
    },
    {
     "mangled_component_name":"_ZN7android7RefBase13onLastWeakRefEPKv"
    }
   ],
   "unique_id":"_ZTSN7android8hardware6camera6device4V3_320ICameraDeviceSessionE"
  },
  {
   "vtable_components":[
    {
     "kind":"vbase_offset",
     "component_value":84
    },
    {
     "kind":"offset_to_top"
    },
    {
     "kind":"rtti",
     "mangled_component_name":"_ZTIN7android8hardware6camera6device4V3_323BpHwCameraDeviceSessionE"
    },
    {
     "mangled_component_name":"_ZNK7android8hardware6camera6device4V3_323BpHwCameraDeviceSession8isRemoteEv"
    },
    {
     "mangled_component_name":"_ZN7android8hardware6camera6device4V3_323BpHwCameraDeviceSession14interfaceChainENSt3__18functionIFvRKNS0_8hidl_vecINS0_11hidl_stringEEEEEE"
    },
    {
     "mangled_component_name":"_ZN7android8hardware6camera6device4V3_323BpHwCameraDeviceSession5debugERKNS0_11hidl_handleERKNS0_8hidl_vecINS0_11hidl_stringEEE"
    },
    {
     "mangled_component_name":"_ZN7android8hardware6camera6device4V3_323BpHwCameraDeviceSession19interfaceDescriptorENSt3__18functionIFvRKNS0_11hidl_stringEEEE"
    },
    {
     "mangled_component_name":"_ZN7android8hardware6camera6device4V3_323BpHwCameraDeviceSession12getHashChainENSt3__18functionIFvRKNS0_8hidl_vecINS0_10hidl_arrayIhLj32EJEEEEEEEE"
    },
    {
     "mangled_component_name":"_ZN7android8hardware6camera6device4V3_323BpHwCameraDeviceSession21setHALInstrumentationEv"
    },
    {
     "mangled_component_name":"_ZN7android8hardware6camera6device4V3_323BpHwCameraDeviceSession11linkToDeathERKNS_2spINS0_20hidl_death_recipientEEEy"
    },
    {
     "mangled_component_name":"_ZN7android8hardware6camera6device4V3_323BpHwCameraDeviceSession4pingEv"
    },
    {
     "mangled_component_name":"_ZN7android8hardware6camera6device4V3_323BpHwCameraDeviceSession12getDebugInfoENSt3__18functionIFvRKNS_4hidl4base4V1_09DebugInfoEEEE"
    },
    {
     "mangled_component_name":"_ZN7android8hardware6camera6device4V3_323BpHwCameraDeviceSession21notifySyspropsChangedEv"
    },
    {
     "mangled_component_name":"_ZN7android8hardware6camera6device4V3_323BpHwCameraDeviceSession13unlinkToDeathERKNS_2spINS0_20hidl_death_recipientEEE"
    },
    {
     "kind":"complete_dtor_pointer",
     "mangled_component_name":"_ZN7android8hardware6camera6device4V3_323BpHwCameraDeviceSessionD1Ev"
    },
    {
     "kind":"deleting_dtor_pointer",
     "mangled_component_name":"_ZN7android8hardware6camera6device4V3_323BpHwCameraDeviceSessionD0Ev"
    },
    {
     "mangled_component_name":"_ZN7android8hardware6camera6device4V3_323BpHwCameraDeviceSession31constructDefaultRequestSettingsENS2_4V3_215RequestTemplateENSt3__18functionIFvNS1_6common4V1_06StatusERKNS0_8hidl_vecIhEEEEE"
    },
    {
     "mangled_component_name":"_ZN7android8hardware6camera6device4V3_323BpHwCameraDeviceSession16configureStreamsERKNS2_4V3_219StreamConfigurationENSt3__18functionIFvNS1_6common4V1_06StatusERKNS5_22HalStreamConfigurationEEEE"
    },
    {
     "mangled_component_name":"_ZN7android8hardware6camera6device4V3_323BpHwCameraDeviceSession21processCaptureRequestERKNS0_8hidl_vecINS2_4V3_214CaptureRequestEEERKNS5_INS6_11BufferCacheEEENSt3__18functionIFvNS1_6common4V1_06StatusEjEEE"
    },
    {
     "mangled_component_name":"_ZN7android8hardware6camera6device4V3_323BpHwCameraDeviceSession30getCaptureRequestMetadataQueueENSt3__18functionIFvRKNS0_12MQDescriptorIhLNS0_8MQFlavorE1EEEEEE"
    },
    {
     "mangled_component_name":"_ZN7android8hardware6camera6device4V3_323BpHwCameraDeviceSession29getCaptureResultMetadataQueueENSt3__18functionIFvRKNS0_12MQDescriptorIhLNS0_8MQFlavorE1EEEEEE"
    },
    {
     "mangled_component_name":"_ZN7android8hardware6camera6device4V3_323BpHwCameraDeviceSession5flushEv"
    },
    {
     "mangled_component_name":"_ZN7android8hardware6camera6device4V3_323BpHwCameraDeviceSession5closeEv"
    },
    {
     "mangled_component_name":"_ZN7android8hardware6camera6device4V3_323BpHwCameraDeviceSession20configureStreams_3_3ERKNS2_4V3_219StreamConfigurationENSt3__18functionIFvNS1_6common4V1_06StatusERKNS3_22HalStreamConfigurationEEEE"
    },
    {
     "mangled_component_name":"_ZN7android8hardware11BpInterfaceINS0_6camera6device4V3_320ICameraDeviceSessionEE10onAsBinderEv"
    },
    {
     "kind":"vbase_offset",
     "component_value":80
    },
    {
     "kind":"offset_to_top",
     "component_value":-4
    },
    {
     "kind":"rtti",
     "mangled_component_name":"_ZTIN7android8hardware6camera6device4V3_323BpHwCameraDeviceSessionE"
    },
    {
     "kind":"complete_dtor_pointer",
     "mangled_component_name":"_ZThn4_N7android8hardware6camera6device4V3_323BpHwCameraDeviceSessionD1Ev"
    },
    {
     "kind":"deleting_dtor_pointer",
     "mangled_component_name":"_ZThn4_N7android8hardware6camera6device4V3_323BpHwCameraDeviceSessionD0Ev"
    },
    {
     "mangled_component_name":"_ZThn4_N7android8hardware11BpInterfaceINS0_6camera6device4V3_320ICameraDeviceSessionEE10onAsBinderEv"
    },
    {
     "kind":"vbase_offset",
     "component_value":76
    },
    {
     "kind":"offset_to_top",
     "component_value":-8
    },
    {
     "kind":"rtti",
     "mangled_component_name":"_ZTIN7android8hardware6camera6device4V3_323BpHwCameraDeviceSessionE"
    },
    {
     "kind":"complete_dtor_pointer",
     "mangled_component_name":"_ZThn8_N7android8hardware6camera6device4V3_323BpHwCameraDeviceSessionD1Ev"
    },
    {
     "kind":"deleting_dtor_pointer",
     "mangled_component_name":"_ZThn8_N7android8hardware6camera6device4V3_323BpHwCameraDeviceSessionD0Ev"
    },
    {
     "mangled_component_name":"_ZN7android8hardware11BpHwRefBase10onFirstRefEv"
    },
    {
     "mangled_component_name":"_ZN7android8hardware11BpHwRefBase15onLastStrongRefEPKv"
    },
    {
     "mangled_component_name":"_ZN7android8hardware11BpHwRefBase20onIncStrongAttemptedEjPKv"
    },
    {
     "kind":"offset_to_top",
     "component_value":-24
    },
    {
     "kind":"rtti",
     "mangled_component_name":"_ZTIN7android8hardware6camera6device4V3_323BpHwCameraDeviceSessionE"
    },
    {
     "kind":"complete_dtor_pointer",
     "mangled_component_name":"_ZThn24_N7android8hardware6camera6device4V3_323BpHwCameraDeviceSessionD1Ev"
    },
    {
     "kind":"deleting_dtor_pointer",
     "mangled_component_name":"_ZThn24_N7android8hardware6camera6device4V3_323BpHwCameraDeviceSessionD0Ev"
    },
    {
     "kind":"vcall_offset"
    },
    {
     "kind":"vcall_offset",
     "component_value":-76
    },
    {
     "kind":"vcall_offset",
     "component_value":-76
    },
    {
     "kind":"vcall_offset",
     "component_value":-76
    },
    {
     "kind":"vcall_offset",
     "component_value":-84
    },
    {
     "kind":"offset_to_top",
     "component_value":-84
    },
    {
     "kind":"rtti",
     "mangled_component_name":"_ZTIN7android8hardware6camera6device4V3_323BpHwCameraDeviceSessionE"
    },
    {
     "kind":"complete_dtor_pointer",
     "mangled_component_name":"_ZTv0_n12_N7android8hardware6camera6device4V3_323BpHwCameraDeviceSessionD1Ev"
    },
    {
     "kind":"deleting_dtor_pointer",
     "mangled_component_name":"_ZTv0_n12_N7android8hardware6camera6device4V3_323BpHwCameraDeviceSessionD0Ev"
    },
    {
     "mangled_component_name":"_ZTv0_n16_N7android8hardware11BpHwRefBase10onFirstRefEv"
    },
    {
     "mangled_component_name":"_ZTv0_n20_N7android8hardware11BpHwRefBase15onLastStrongRefEPKv"
    },
    {
     "mangled_component_name":"_ZTv0_n24_N7android8hardware11BpHwRefBase20onIncStrongAttemptedEjPKv"
    },
    {
     "mangled_component_name":"_ZN7android7RefBase13onLastWeakRefEPKv"
    }
   ],
   "unique_id":"_ZTSN7android8hardware6camera6device4V3_323BpHwCameraDeviceSessionE"
  },
  {
   "vtable_components":[
    {
     "kind":"vbase_offset",
     "component_value":72
    },
    {
     "kind":"offset_to_top"
    },
    {
     "kind":"rtti",
     "mangled_component_name":"_ZTIN7android8hardware6camera6device4V3_323BnHwCameraDeviceSessionE"
    },
    {
     "mangled_component_name":"_ZN7android8hardware9BHwBinder8transactEjRKNS0_6ParcelEPS2_jNSt3__18functionIFvRS2_EEE"
    },
    {
     "mangled_component_name":"_ZN7android8hardware9BHwBinder11linkToDeathERKNS_2spINS0_7IBinder14DeathRecipientEEEPvj"
    },
    {
     "mangled_component_name":"_ZN7android8hardware9BHwBinder13unlinkToDeathERKNS_2wpINS0_7IBinder14DeathRecipientEEEPvjPS5_"
    },
    {
     "mangled_component_name":"_ZNK7android8hardware7IBinder13checkSubclassEPKv"
    },
    {
     "mangled_component_name":"_ZN7android8hardware9BHwBinder12attachObjectEPKvPvS4_PFvS3_S4_S4_E"
    },
    {
     "mangled_component_name":"_ZNK7android8hardware9BHwBinder10findObjectEPKv"
    },
    {
     "mangled_component_name":"_ZN7android8hardware9BHwBinder12detachObjectEPKv"
    },
    {
     "mangled_component_name":"_ZN7android8hardware9BHwBinder11localBinderEv"
    },
    {
     "mangled_component_name":"_ZN7android8hardware7IBinder12remoteBinderEv"
    },
    {
     "kind":"complete_dtor_pointer",
     "mangled_component_name":"_ZN7android8hardware6camera6device4V3_323BnHwCameraDeviceSessionD1Ev"
    },
    {
     "kind":"deleting_dtor_pointer",
     "mangled_component_name":"_ZN7android8hardware6camera6device4V3_323BnHwCameraDeviceSessionD0Ev"
    },
    {
     "mangled_component_name":"_ZN7android8hardware6camera6device4V3_323BnHwCameraDeviceSession10onTransactEjRKNS0_6ParcelEPS5_jNSt3__18functionIFvRS5_EEE"
    },
    {
     "kind":"offset_to_top",
     "component_value":-20
    },
    {
     "kind":"rtti",
     "mangled_component_name":"_ZTIN7android8hardware6camera6device4V3_323BnHwCameraDeviceSessionE"
    },
    {
     "kind":"complete_dtor_pointer",
     "mangled_component_name":"_ZThn20_N7android8hardware6camera6device4V3_323BnHwCameraDeviceSessionD1Ev"
    },
    {
     "kind":"deleting_dtor_pointer",
     "mangled_component_name":"_ZThn20_N7android8hardware6camera6device4V3_323BnHwCameraDeviceSessionD0Ev"
    },
    {
     "kind":"vcall_offset"
    },
    {
     "kind":"vcall_offset"
    },
    {
     "kind":"vcall_offset"
    },
    {
     "kind":"vcall_offset"
    },
    {
     "kind":"vcall_offset",
     "component_value":-72
    },
    {
     "kind":"offset_to_top",
     "component_value":-72
    },
    {
     "kind":"rtti",
     "mangled_component_name":"_ZTIN7android8hardware6camera6device4V3_323BnHwCameraDeviceSessionE"
    },
    {
     "kind":"complete_dtor_pointer",
     "mangled_component_name":"_ZTv0_n12_N7android8hardware6camera6device4V3_323BnHwCameraDeviceSessionD1Ev"
    },
    {
     "kind":"deleting_dtor_pointer",
     "mangled_component_name":"_ZTv0_n12_N7android8hardware6camera6device4V3_323BnHwCameraDeviceSessionD0Ev"
    },
    {
     "mangled_component_name":"_ZN7android7RefBase10onFirstRefEv"
    },
    {
     "mangled_component_name":"_ZN7android7RefBase15onLastStrongRefEPKv"
    },
    {
     "mangled_component_name":"_ZN7android7RefBase20onIncStrongAttemptedEjPKv"
    },
    {
     "mangled_component_name":"_ZN7android7RefBase13onLastWeakRefEPKv"
    }
   ],
   "unique_id":"_ZTSN7android8hardware6camera6device4V3_323BnHwCameraDeviceSessionE"
  }
 ],
 "elf_functions":[
  {
   "name":"_ZN7android8hardware6camera6device4V3_320ICameraDeviceSession10getServiceERKNSt3__112basic_stringIcNS5_11char_traitsIcEENS5_9allocatorIcEEEEb"
  },
  {
   "name":"_ZN7android8hardware6camera6device4V3_320ICameraDeviceSession11linkToDeathERKNS_2spINS0_20hidl_death_recipientEEEy"
  },
  {
   "name":"_ZN7android8hardware6camera6device4V3_320ICameraDeviceSession12getDebugInfoENSt3__18functionIFvRKNS_4hidl4base4V1_09DebugInfoEEEE"
  },
  {
   "name":"_ZN7android8hardware6camera6device4V3_320ICameraDeviceSession12getHashChainENSt3__18functionIFvRKNS0_8hidl_vecINS0_10hidl_arrayIhLj32EJEEEEEEEE"
  },
  {
   "name":"_ZN7android8hardware6camera6device4V3_320ICameraDeviceSession13tryGetServiceERKNSt3__112basic_stringIcNS5_11char_traitsIcEENS5_9allocatorIcEEEEb"
  },
  {
   "name":"_ZN7android8hardware6camera6device4V3_320ICameraDeviceSession13unlinkToDeathERKNS_2spINS0_20hidl_death_recipientEEE"
  },
  {
   "name":"_ZN7android8hardware6camera6device4V3_320ICameraDeviceSession14interfaceChainENSt3__18functionIFvRKNS0_8hidl_vecINS0_11hidl_stringEEEEEE"
  },
  {
   "name":"_ZN7android8hardware6camera6device4V3_320ICameraDeviceSession17registerAsServiceERKNSt3__112basic_stringIcNS5_11char_traitsIcEENS5_9allocatorIcEEEE"
  },
  {
   "name":"_ZN7android8hardware6camera6device4V3_320ICameraDeviceSession19interfaceDescriptorENSt3__18functionIFvRKNS0_11hidl_stringEEEE"
  },
  {
   "name":"_ZN7android8hardware6camera6device4V3_320ICameraDeviceSession21notifySyspropsChangedEv"
  },
  {
   "name":"_ZN7android8hardware6camera6device4V3_320ICameraDeviceSession21setHALInstrumentationEv"
  },
  {
   "name":"_ZN7android8hardware6camera6device4V3_320ICameraDeviceSession24registerForNotificationsERKNSt3__112basic_stringIcNS5_11char_traitsIcEENS5_9allocatorIcEEEERKNS_2spINS_4hidl7manager4V1_020IServiceNotificationEEE"
  },
  {
   "name":"_ZN7android8hardware6camera6device4V3_320ICameraDeviceSession4pingEv"
  },
  {
   "name":"_ZN7android8hardware6camera6device4V3_320ICameraDeviceSession5debugERKNS0_11hidl_handleERKNS0_8hidl_vecINS0_11hidl_stringEEE"
  },
  {
   "name":"_ZN7android8hardware6camera6device4V3_320ICameraDeviceSession8castFromERKNS_2spINS2_4V3_220ICameraDeviceSessionEEEb"
  },
  {
   "name":"_ZN7android8hardware6camera6device4V3_320ICameraDeviceSession8castFromERKNS_2spINS_4hidl4base4V1_05IBaseEEEb"
  },
  {
   "name":"_ZN7android8hardware6camera6device4V3_320ICameraDeviceSession8castFromERKNS_2spIS4_EEb"
  },
  {
   "name":"_ZN7android8hardware6camera6device4V3_321BsCameraDeviceSession13addOnewayTaskENSt3__18functionIFvvEEE"
  },
  {
   "name":"_ZN7android8hardware6camera6device4V3_321BsCameraDeviceSessionC1ENS_2spINS3_20ICameraDeviceSessionEEE"
  },
  {
   "name":"_ZN7android8hardware6camera6device4V3_321BsCameraDeviceSessionC2ENS_2spINS3_20ICameraDeviceSessionEEE"
  },
  {
   "name":"_ZN7android8hardware6camera6device4V3_321writeEmbeddedToParcelERKNS3_22HalStreamConfigurationEPNS0_6ParcelEjj"
  },
  {
   "name":"_ZN7android8hardware6camera6device4V3_322readEmbeddedFromParcelERKNS3_22HalStreamConfigurationERKNS0_6ParcelEjj"
  },
  {
   "name":"_ZN7android8hardware6camera6device4V3_323BnHwCameraDeviceSession10onTransactEjRKNS0_6ParcelEPS5_jNSt3__18functionIFvRS5_EEE"
  },
  {
   "name":"_ZN7android8hardware6camera6device4V3_323BnHwCameraDeviceSession12getDebugInfoENSt3__18functionIFvRKNS_4hidl4base4V1_09DebugInfoEEEE"
  },
  {
   "name":"_ZN7android8hardware6camera6device4V3_323BnHwCameraDeviceSession26_hidl_configureStreams_3_3EPNS_4hidl4base4V1_08BnHwBaseERKNS0_6ParcelEPSA_NSt3__18functionIFvRSA_EEE"
  },
  {
   "name":"_ZN7android8hardware6camera6device4V3_323BnHwCameraDeviceSession4pingEv"
  },
  {
   "name":"_ZN7android8hardware6camera6device4V3_323BnHwCameraDeviceSessionC1ERKNS_2spINS3_20ICameraDeviceSessionEEE"
  },
  {
   "name":"_ZN7android8hardware6camera6device4V3_323BnHwCameraDeviceSessionC2ERKNS_2spINS3_20ICameraDeviceSessionEEE"
  },
  {
   "name":"_ZN7android8hardware6camera6device4V3_323BnHwCameraDeviceSessionD0Ev"
  },
  {
   "name":"_ZN7android8hardware6camera6device4V3_323BnHwCameraDeviceSessionD1Ev"
  },
  {
   "name":"_ZN7android8hardware6camera6device4V3_323BnHwCameraDeviceSessionD2Ev"
  },
  {
   "name":"_ZN7android8hardware6camera6device4V3_323BpHwCameraDeviceSession11linkToDeathERKNS_2spINS0_20hidl_death_recipientEEEy"
  },
  {
   "name":"_ZN7android8hardware6camera6device4V3_323BpHwCameraDeviceSession12getDebugInfoENSt3__18functionIFvRKNS_4hidl4base4V1_09DebugInfoEEEE"
  },
  {
   "name":"_ZN7android8hardware6camera6device4V3_323BpHwCameraDeviceSession12getHashChainENSt3__18functionIFvRKNS0_8hidl_vecINS0_10hidl_arrayIhLj32EJEEEEEEEE"
  },
  {
   "name":"_ZN7android8hardware6camera6device4V3_323BpHwCameraDeviceSession13unlinkToDeathERKNS_2spINS0_20hidl_death_recipientEEE"
  },
  {
   "name":"_ZN7android8hardware6camera6device4V3_323BpHwCameraDeviceSession14interfaceChainENSt3__18functionIFvRKNS0_8hidl_vecINS0_11hidl_stringEEEEEE"
  },
  {
   "name":"_ZN7android8hardware6camera6device4V3_323BpHwCameraDeviceSession16configureStreamsERKNS2_4V3_219StreamConfigurationENSt3__18functionIFvNS1_6common4V1_06StatusERKNS5_22HalStreamConfigurationEEEE"
  },
  {
   "name":"_ZN7android8hardware6camera6device4V3_323BpHwCameraDeviceSession19interfaceDescriptorENSt3__18functionIFvRKNS0_11hidl_stringEEEE"
  },
  {
   "name":"_ZN7android8hardware6camera6device4V3_323BpHwCameraDeviceSession20configureStreams_3_3ERKNS2_4V3_219StreamConfigurationENSt3__18functionIFvNS1_6common4V1_06StatusERKNS3_22HalStreamConfigurationEEEE"
  },
  {
   "name":"_ZN7android8hardware6camera6device4V3_323BpHwCameraDeviceSession21notifySyspropsChangedEv"
  },
  {
   "name":"_ZN7android8hardware6camera6device4V3_323BpHwCameraDeviceSession21processCaptureRequestERKNS0_8hidl_vecINS2_4V3_214CaptureRequestEEERKNS5_INS6_11BufferCacheEEENSt3__18functionIFvNS1_6common4V1_06StatusEjEEE"
  },
  {
   "name":"_ZN7android8hardware6camera6device4V3_323BpHwCameraDeviceSession21setHALInstrumentationEv"
  },
  {
   "name":"_ZN7android8hardware6camera6device4V3_323BpHwCameraDeviceSession26_hidl_configureStreams_3_3EPNS0_10IInterfaceEPNS0_7details16HidlInstrumentorERKNS2_4V3_219StreamConfigurationENSt3__18functionIFvNS1_6common4V1_06StatusERKNS3_22HalStreamConfigurationEEEE"
  },
  {
   "name":"_ZN7android8hardware6camera6device4V3_323BpHwCameraDeviceSession29getCaptureResultMetadataQueueENSt3__18functionIFvRKNS0_12MQDescriptorIhLNS0_8MQFlavorE1EEEEEE"
  },
  {
   "name":"_ZN7android8hardware6camera6device4V3_323BpHwCameraDeviceSession30getCaptureRequestMetadataQueueENSt3__18functionIFvRKNS0_12MQDescriptorIhLNS0_8MQFlavorE1EEEEEE"
  },
  {
   "name":"_ZN7android8hardware6camera6device4V3_323BpHwCameraDeviceSession31constructDefaultRequestSettingsENS2_4V3_215RequestTemplateENSt3__18functionIFvNS1_6common4V1_06StatusERKNS0_8hidl_vecIhEEEEE"
  },
  {
   "name":"_ZN7android8hardware6camera6device4V3_323BpHwCameraDeviceSession4pingEv"
  },
  {
   "name":"_ZN7android8hardware6camera6device4V3_323BpHwCameraDeviceSession5closeEv"
  },
  {
   "name":"_ZN7android8hardware6camera6device4V3_323BpHwCameraDeviceSession5debugERKNS0_11hidl_handleERKNS0_8hidl_vecINS0_11hidl_stringEEE"
  },
  {
   "name":"_ZN7android8hardware6camera6device4V3_323BpHwCameraDeviceSession5flushEv"
  },
  {
   "name":"_ZN7android8hardware6camera6device4V3_323BpHwCameraDeviceSessionC1ERKNS_2spINS0_7IBinderEEE"
  },
  {
   "name":"_ZN7android8hardware6camera6device4V3_323BpHwCameraDeviceSessionC2ERKNS_2spINS0_7IBinderEEE"
  },
  {
   "binding":"weak",
   "name":"_ZN7android8hardware7details13castInterfaceINS0_6camera6device4V3_320ICameraDeviceSessionENS4_4V3_220ICameraDeviceSessionENS5_23BpHwCameraDeviceSessionEEENS0_6ReturnINS_2spIT_EEEENSB_IT0_EEPKcb"
  },
  {
   "binding":"weak",
   "name":"_ZN7android8hardware7details13castInterfaceINS0_6camera6device4V3_320ICameraDeviceSessionENS_4hidl4base4V1_05IBaseENS5_23BpHwCameraDeviceSessionEEENS0_6ReturnINS_2spIT_EEEENSD_IT0_EEPKcb"
  },
  {
   "binding":"weak",
   "name":"_ZN7android8hardware7details18getServiceInternalINS0_6camera6device4V3_323BpHwCameraDeviceSessionENS5_20ICameraDeviceSessionEvvEENS_2spIT0_EERKNSt3__112basic_stringIcNSB_11char_traitsIcEENSB_9allocatorIcEEEEbb"
  },
  {
   "binding":"weak",
   "name":"_ZN7android8hardware8toBinderINS0_6camera6device4V3_220ICameraDeviceSessionEvEENS_2spINS0_7IBinderEEENS6_IT_EE"
  },
  {
   "binding":"weak",
   "name":"_ZN7android8hardware8toBinderINS_4hidl4base4V1_05IBaseEvEENS_2spINS0_7IBinderEEENS6_IT_EE"
  },
  {
   "name":"_ZThn20_N7android8hardware6camera6device4V3_323BnHwCameraDeviceSessionD0Ev"
  },
  {
   "name":"_ZThn20_N7android8hardware6camera6device4V3_323BnHwCameraDeviceSessionD1Ev"
  },
  {
   "name":"_ZTv0_n12_N7android8hardware6camera6device4V3_323BnHwCameraDeviceSessionD0Ev"
  },
  {
   "name":"_ZTv0_n12_N7android8hardware6camera6device4V3_323BnHwCameraDeviceSessionD1Ev"
  }
 ],
 "elf_objects":[
  {
   "name":"_ZN7android8hardware6camera6device4V3_320ICameraDeviceSession10descriptorE"
  },
  {
   "name":"_ZTTN7android8hardware6camera6device4V3_320ICameraDeviceSessionE"
  },
  {
   "name":"_ZTTN7android8hardware6camera6device4V3_323BnHwCameraDeviceSessionE"
  },
  {
   "name":"_ZTTN7android8hardware6camera6device4V3_323BpHwCameraDeviceSessionE"
  },
  {
   "name":"_ZTVN7android8hardware6camera6device4V3_320ICameraDeviceSessionE"
  },
  {
   "binding":"weak",
   "name":"_ZTVN7android8hardware6camera6device4V3_321BsCameraDeviceSessionE"
  },
  {
   "name":"_ZTVN7android8hardware6camera6device4V3_323BnHwCameraDeviceSessionE"
  },
  {
   "name":"_ZTVN7android8hardware6camera6device4V3_323BpHwCameraDeviceSessionE"
  }
 ]
}