{
 "record_types":[
  {
   "vtable_components":[
    {
     "kind":"vbase_offset",
     "component_value":28
    },
    {
     "kind":"offset_to_top"
    },
    {
     "kind":"rtti",
     "mangled_component_name":"_ZTIN7android8hardware27hidl_binder_death_recipientE"
    },
    {
     "mangled_component_name":"_ZN7android8hardware27hidl_binder_death_recipient10binderDiedERKNS_2wpINS0_7IBinderEEE"
    },
    {
     "kind":"complete_dtor_pointer",
     "mangled_component_name":"_ZN7android8hardware27hidl_binder_death_recipientD1Ev"
    },
    {
     "kind":"deleting_dtor_pointer",
     "mangled_component_name":"_ZN7android8hardware27hidl_binder_death_recipientD0Ev"
    },
    {
     "kind":"vcall_offset"
    },
    {
     "kind":"vcall_offset"
    },
    {
     "kind":"vcall_offset"
    },
    {
     "kind":"vcall_offset"
    },
    {
     "kind":"vcall_offset",
     "component_value":-28
    },
    {
     "kind":"offset_to_top",
     "component_value":-28
    },
    {
     "kind":"rtti",
     "mangled_component_name":"_ZTIN7android8hardware27hidl_binder_death_recipientE"
    },
    {
     "kind":"complete_dtor_pointer",
     "mangled_component_name":"_ZTv0_n12_N7android8hardware27hidl_binder_death_recipientD1Ev"
    },
    {
     "kind":"deleting_dtor_pointer",
     "mangled_component_name":"_ZTv0_n12_N7android8hardware27hidl_binder_death_recipientD0Ev"
    },
    {
     "mangled_component_name":"_ZN7android7RefBase10onFirstRefEv"
    },
    {
     "mangled_component_name":"_ZN7android7RefBase15onLastStrongRefEPKv"
    },
    {
     "mangled_component_name":"_ZN7android7RefBase20onIncStrongAttemptedEjPKv"
    },
    {
     "mangled_component_name":"_ZN7android7RefBase13onLastWeakRefEPKv"
    }
   ],
   "unique_id":"_ZTSN7android8hardware27hidl_binder_death_recipientE"
  },
  {
   "vtable_components":[
    {
     "kind":"vbase_offset",
     "component_value":60
    },
    {
     "kind":"offset_to_top"
    },
    {
     "kind":"rtti",
     "mangled_component_name":"_ZTIN7android4hidl7manager4V1_016BsServiceManagerE"
    },
    {
     "mangled_component_name":"_ZNK7android4hidl7manager4V1_015IServiceManager8isRemoteEv"
    },
    {
     "mangled_component_name":"_ZN7android4hidl7manager4V1_016BsServiceManager14interfaceChainENSt3__18functionIFvRKNS_8hardware8hidl_vecINS6_11hidl_stringEEEEEE"
    },
    {
     "mangled_component_name":"_ZN7android4hidl7manager4V1_016BsServiceManager5debugERKNS_8hardware11hidl_handleERKNS4_8hidl_vecINS4_11hidl_stringEEE"
    },
    {
     "mangled_component_name":"_ZN7android4hidl7manager4V1_016BsServiceManager19interfaceDescriptorENSt3__18functionIFvRKNS_8hardware11hidl_stringEEEE"
    },
    {
     "mangled_component_name":"_ZN7android4hidl7manager4V1_016BsServiceManager12getHashChainENSt3__18functionIFvRKNS_8hardware8hidl_vecINS6_10hidl_arrayIhLj32EJEEEEEEEE"
    },
    {
     "mangled_component_name":"_ZN7android4hidl7manager4V1_016BsServiceManager21setHALInstrumentationEv"
    },
    {
     "mangled_component_name":"_ZN7android4hidl7manager4V1_016BsServiceManager11linkToDeathERKNS_2spINS_8hardware20hidl_death_recipientEEEy"
    },
    {
     "mangled_component_name":"_ZN7android4hidl7manager4V1_016BsServiceManager4pingEv"
    },
    {
     "mangled_component_name":"_ZN7android4hidl7manager4V1_016BsServiceManager12getDebugInfoENSt3__18functionIFvRKNS0_4base4V1_09DebugInfoEEEE"
    },
    {
     "mangled_component_name":"_ZN7android4hidl7manager4V1_016BsServiceManager21notifySyspropsChangedEv"
    },
    {
     "mangled_component_name":"_ZN7android4hidl7manager4V1_016BsServiceManager13unlinkToDeathERKNS_2spINS_8hardware20hidl_death_recipientEEE"
    },
    {
     "kind":"complete_dtor_pointer",
     "mangled_component_name":"_ZN7android4hidl7manager4V1_016BsServiceManagerD1Ev"
    },
    {
     "kind":"deleting_dtor_pointer",
     "mangled_component_name":"_ZN7android4hidl7manager4V1_016BsServiceManagerD0Ev"
    },
    {
     "mangled_component_name":"_ZN7android4hidl7manager4V1_016BsServiceManager3getERKNS_8hardware11hidl_stringES7_"
    },
    {
     "mangled_component_name":"_ZN7android4hidl7manager4V1_016BsServiceManager3addERKNS_8hardware11hidl_stringERKNS_2spINS0_4base4V1_05IBaseEEE"
    },
    {
     "mangled_component_name":"_ZN7android4hidl7manager4V1_016BsServiceManager12getTransportERKNS_8hardware11hidl_stringES7_"
    },
    {
     "mangled_component_name":"_ZN7android4hidl7manager4V1_016BsServiceManager4listENSt3__18functionIFvRKNS_8hardware8hidl_vecINS6_11hidl_stringEEEEEE"
    },
    {
     "mangled_component_name":"_ZN7android4hidl7manager4V1_016BsServiceManager15listByInterfaceERKNS_8hardware11hidl_stringENSt3__18functionIFvRKNS4_8hidl_vecIS5_EEEEE"
    },
    {
     "mangled_component_name":"_ZN7android4hidl7manager4V1_016BsServiceManager24registerForNotificationsERKNS_8hardware11hidl_stringES7_RKNS_2spINS2_20IServiceNotificationEEE"
    },
    {
     "mangled_component_name":"_ZN7android4hidl7manager4V1_016BsServiceManager9debugDumpENSt3__18functionIFvRKNS_8hardware8hidl_vecINS2_15IServiceManager17InstanceDebugInfoEEEEEE"
    },
    {
     "mangled_component_name":"_ZN7android4hidl7manager4V1_016BsServiceManager25registerPassthroughClientERKNS_8hardware11hidl_stringES7_"
    },
    {
     "kind":"offset_to_top",
     "component_value":-4
    },
    {
     "kind":"rtti",
     "mangled_component_name":"_ZTIN7android4hidl7manager4V1_016BsServiceManagerE"
    },
    {
     "kind":"complete_dtor_pointer",
     "mangled_component_name":"_ZThn4_N7android4hidl7manager4V1_016BsServiceManagerD1Ev"
    },
    {
     "kind":"deleting_dtor_pointer",
     "mangled_component_name":"_ZThn4_N7android4hidl7manager4V1_016BsServiceManagerD0Ev"
    },
    {
     "kind":"vcall_offset"
    },
    {
     "kind":"vcall_offset"
    },
    {
     "kind":"vcall_offset"
    },
    {
     "kind":"vcall_offset"
    },
    {
     "kind":"vcall_offset",
     "component_value":-60
    },
    {
     "kind":"offset_to_top",
     "component_value":-60
    },
    {
     "kind":"rtti",
     "mangled_component_name":"_ZTIN7android4hidl7manager4V1_016BsServiceManagerE"
    },
    {
     "kind":"complete_dtor_pointer",
     "mangled_component_name":"_ZTv0_n12_N7android4hidl7manager4V1_016BsServiceManagerD1Ev"
    },
    {
     "kind":"deleting_dtor_pointer",
     "mangled_component_name":"_ZTv0_n12_N7android4hidl7manager4V1_016BsServiceManagerD0Ev"
    },
    {
     "mangled_component_name":"_ZN7android7RefBase10onFirstRefEv"
    },
    {
     "mangled_component_name":"_ZN7android7RefBase15onLastStrongRefEPKv"
    },
    {
     "mangled_component_name":"_ZN7android7RefBase20onIncStrongAttemptedEjPKv"
    },
    {
     "mangled_component_name":"_ZN7android7RefBase13onLastWeakRefEPKv"
    }
   ],
   "unique_id":"_ZTSN7android4hidl7manager4V1_016BsServiceManagerE"
  },
  {
   "vtable_components":[
    {
     "kind":"vbase_offset",
     "component_value":72
    },
    {
     "kind":"offset_to_top"
    },
    {
     "kind":"rtti",
     "mangled_component_name":"_ZTIN7android4hidl7manager4V1_118BnHwServiceManagerE"
    },
    {
     "mangled_component_name":"_ZN7android8hardware9BHwBinder8transactEjRKNS0_6ParcelEPS2_jNSt3__18functionIFvRS2_EEE"
    },
    {
     "mangled_component_name":"_ZN7android8hardware9BHwBinder11linkToDeathERKNS_2spINS0_7IBinder14DeathRecipientEEEPvj"
    },
    {
     "mangled_component_name":"_ZN7android8hardware9BHwBinder13unlinkToDeathERKNS_2wpINS0_7IBinder14DeathRecipientEEEPvjPS5_"
    },
    {
     "mangled_component_name":"_ZNK7android8hardware7IBinder13checkSubclassEPKv"
    },
    {
     "mangled_component_name":"_ZN7android8hardware9BHwBinder12attachObjectEPKvPvS4_PFvS3_S4_S4_E"
    },
    {
     "mangled_component_name":"_ZNK7android8hardware9BHwBinder10findObjectEPKv"
    },
    {
     "mangled_component_name":"_ZN7android8hardware9BHwBinder12detachObjectEPKv"
    },
    {
     "mangled_component_name":"_ZN7android8hardware9BHwBinder11localBinderEv"
    },
    {
     "mangled_component_name":"_ZN7android8hardware7IBinder12remoteBinderEv"
    },
    {
     "kind":"complete_dtor_pointer",
     "mangled_component_name":"_ZN7android4hidl7manager4V1_118BnHwServiceManagerD1Ev"
    },
    {
     "kind":"deleting_dtor_pointer",
     "mangled_component_name":"_ZN7android4hidl7manager4V1_118BnHwServiceManagerD0Ev"
    },
    {
     "mangled_component_name":"_ZN7android4hidl7manager4V1_118BnHwServiceManager10onTransactEjRKNS_8hardware6ParcelEPS5_jNSt3__18functionIFvRS5_EEE"
    },
    {
     "kind":"offset_to_top",
     "component_value":-20
    },
    {
     "kind":"rtti",
     "mangled_component_name":"_ZTIN7android4hidl7manager4V1_118BnHwServiceManagerE"
    },
    {
     "kind":"complete_dtor_pointer",
     "mangled_component_name":"_ZThn20_N7android4hidl7manager4V1_118BnHwServiceManagerD1Ev"
    },
    {
     "kind":"deleting_dtor_pointer",
     "mangled_component_name":"_ZThn20_N7android4hidl7manager4V1_118BnHwServiceManagerD0Ev"
    },
    {
     "kind":"vcall_offset"
    },
    {
     "kind":"vcall_offset"
    },
    {
     "kind":"vcall_offset"
    },
    {
     "kind":"vcall_offset"
    },
    {
     "kind":"vcall_offset",
     "component_value":-72
    },
    {
     "kind":"offset_to_top",
     "component_value":-72
    },
    {
     "kind":"rtti",
     "mangled_component_name":"_ZTIN7android4hidl7manager4V1_118BnHwServiceManagerE"
    },
    {
     "kind":"complete_dtor_pointer",
     "mangled_component_name":"_ZTv0_n12_N7android4hidl7manager4V1_118BnHwServiceManagerD1Ev"
    },
    {
     "kind":"deleting_dtor_pointer",
     "mangled_component_name":"_ZTv0_n12_N7android4hidl7manager4V1_118BnHwServiceManagerD0Ev"
    },
    {
     "mangled_component_name":"_ZN7android7RefBase10onFirstRefEv"
    },
    {
     "mangled_component_name":"_ZN7android7RefBase15onLastStrongRefEPKv"
    },
    {
     "mangled_component_name":"_ZN7android7RefBase20onIncStrongAttemptedEjPKv"
    },
    {
     "mangled_component_name":"_ZN7android7RefBase13onLastWeakRefEPKv"
    }
   ],
   "unique_id":"_ZTSN7android4hidl7manager4V1_118BnHwServiceManagerE"
  },
  {
   "vtable_components":[
    {
     "kind":"vbase_offset",
     "component_value":4
    },
    {
     "kind":"offset_to_top"
    },
    {
     "kind":"rtti",
     "mangled_component_name":"_ZTIN7android4hidl7manager4V1_115IServiceManagerE"
    },
    {
     "mangled_component_name":"_ZNK7android4hidl7manager4V1_115IServiceManager8isRemoteEv"
    },
    {
     "mangled_component_name":"_ZN7android4hidl7manager4V1_115IServiceManager14interfaceChainENSt3__18functionIFvRKNS_8hardware8hidl_vecINS6_11hidl_stringEEEEEE"
    },
    {
     "mangled_component_name":"_ZN7android4hidl7manager4V1_115IServiceManager5debugERKNS_8hardware11hidl_handleERKNS4_8hidl_vecINS4_11hidl_stringEEE"
    },
    {
     "mangled_component_name":"_ZN7android4hidl7manager4V1_115IServiceManager19interfaceDescriptorENSt3__18functionIFvRKNS_8hardware11hidl_stringEEEE"
    },
    {
     "mangled_component_name":"_ZN7android4hidl7manager4V1_115IServiceManager12getHashChainENSt3__18functionIFvRKNS_8hardware8hidl_vecINS6_10hidl_arrayIhLj32EJEEEEEEEE"
    },
    {
     "mangled_component_name":"_ZN7android4hidl7manager4V1_115IServiceManager21setHALInstrumentationEv"
    },
    {
     "mangled_component_name":"_ZN7android4hidl7manager4V1_115IServiceManager11linkToDeathERKNS_2spINS_8hardware20hidl_death_recipientEEEy"
    },
    {
     "mangled_component_name":"_ZN7android4hidl7manager4V1_115IServiceManager4pingEv"
    },
    {
     "mangled_component_name":"_ZN7android4hidl7manager4V1_115IServiceManager12getDebugInfoENSt3__18functionIFvRKNS0_4base4V1_09DebugInfoEEEE"
    },
    {
     "mangled_component_name":"_ZN7android4hidl7manager4V1_115IServiceManager21notifySyspropsChangedEv"
    },
    {
     "mangled_component_name":"_ZN7android4hidl7manager4V1_115IServiceManager13unlinkToDeathERKNS_2spINS_8hardware20hidl_death_recipientEEE"
    },
    {
     "kind":"complete_dtor_pointer",
     "mangled_component_name":"_ZN7android4hidl7manager4V1_115IServiceManagerD1Ev"
    },
    {
     "kind":"deleting_dtor_pointer",
     "mangled_component_name":"_ZN7android4hidl7manager4V1_115IServiceManagerD0Ev"
    },
    {
     "is_pure":true,
     "mangled_component_name":"_ZN7android4hidl7manager4V1_115IServiceManager3getERKNS_8hardware11hidl_stringES7_"
    },
    {
     "is_pure":true,
     "mangled_component_name":"_ZN7android4hidl7manager4V1_115IServiceManager3addERKNS_8hardware11hidl_stringERKNS_2spINS0_4base4V1_05IBaseEEE"
    },
    {
     "is_pure":true,
     "mangled_component_name":"_ZN7android4hidl7manager4V1_115IServiceManager12getTransportERKNS_8hardware11hidl_stringES7_"
    },
    {
     "is_pure":true,
     "mangled_component_name":"_ZN7android4hidl7manager4V1_115IServiceManager4listENSt3__18functionIFvRKNS_8hardware8hidl_vecINS6_11hidl_stringEEEEEE"
    },
    {
     "is_pure":true,
     "mangled_component_name":"_ZN7android4hidl7manager4V1_115IServiceManager15listByInterfaceERKNS_8hardware11hidl_stringENSt3__18functionIFvRKNS4_8hidl_vecIS5_EEEEE"
    },
    {
     "is_pure":true,
     "mangled_component_name":"_ZN7android4hidl7manager4V1_115IServiceManager24registerForNotificationsERKNS_8hardware11hidl_stringES7_RKNS_2spINS1_4V1_020IServiceNotificationEEE"
    },
    {
     "is_pure":true,
     "mangled_component_name":"_ZN7android4hidl7manager4V1_115IServiceManager9debugDumpENSt3__18functionIFvRKNS_8hardware8hidl_vecINS1_4V1_015IServiceManager17InstanceDebugInfoEEEEEE"
    },
    {
     "is_pure":true,
     "mangled_component_name":"_ZN7android4hidl7manager4V1_115IServiceManager25registerPassthroughClientERKNS_8hardware11hidl_stringES7_"
    },
    {
     "is_pure":true,
     "mangled_component_name":"_ZN7android4hidl7manager4V1_115IServiceManager26unregisterForNotificationsERKNS_8hardware11hidl_stringES7_RKNS_2spINS1_4V1_020IServiceNotificationEEE"
    },
    {
     "kind":"vcall_offset"
    },
    {
     "kind":"vcall_offset"
    },
    {
     "kind":"vcall_offset"
    },
    {
     "kind":"vcall_offset"
    },
    {
     "kind":"vcall_offset",
     "component_value":-4
    },
    {
     "kind":"offset_to_top",
     "component_value":-4
    },
    {
     "kind":"rtti",
     "mangled_component_name":"_ZTIN7android4hidl7manager4V1_115IServiceManagerE"
    },
    {
     "kind":"complete_dtor_pointer",
     "mangled_component_name":"_ZTv0_n12_N7android4hidl7manager4V1_115IServiceManagerD1Ev"
    },
    {
     "kind":"deleting_dtor_pointer",
     "mangled_component_name":"_ZTv0_n12_N7android4hidl7manager4V1_115IServiceManagerD0Ev"
    },
    {
     "mangled_component_name":"_ZN7android7RefBase10onFirstRefEv"
    },
    {
     "mangled_component_name":"_ZN7android7RefBase15onLastStrongRefEPKv"
    },
    {
     "mangled_component_name":"_ZN7android7RefBase20onIncStrongAttemptedEjPKv"
    },
    {
     "mangled_component_name":"_ZN7android7RefBase13onLastWeakRefEPKv"
    }
   ],
   "unique_id":"_ZTSN7android4hidl7manager4V1_115IServiceManagerE"
  },
  {
   "vtable_components":[
    {
     "kind":"vbase_offset",
     "component_value":4
    },
    {
     "kind":"offset_to_top"
    },
    {
     "kind":"rtti",
     "mangled_component_name":"_ZTIN7android4hidl7manager4V1_015IServiceManagerE"
    },
    {
     "mangled_component_name":"_ZNK7android4hidl7manager4V1_015IServiceManager8isRemoteEv"
    },
    {
     "mangled_component_name":"_ZN7android4hidl7manager4V1_015IServiceManager14interfaceChainENSt3__18functionIFvRKNS_8hardware8hidl_vecINS6_11hidl_stringEEEEEE"
    },
    {
     "mangled_component_name":"_ZN7android4hidl7manager4V1_015IServiceManager5debugERKNS_8hardware11hidl_handleERKNS4_8hidl_vecINS4_11hidl_stringEEE"
    },
    {
     "mangled_component_name":"_ZN7android4hidl7manager4V1_015IServiceManager19interfaceDescriptorENSt3__18functionIFvRKNS_8hardware11hidl_stringEEEE"
    },
    {
     "mangled_component_name":"_ZN7android4hidl7manager4V1_015IServiceManager12getHashChainENSt3__18functionIFvRKNS_8hardware8hidl_vecINS6_10hidl_arrayIhLj32EJEEEEEEEE"
    },
    {
     "mangled_component_name":"_ZN7android4hidl7manager4V1_015IServiceManager21setHALInstrumentationEv"
    },
    {
     "mangled_component_name":"_ZN7android4hidl7manager4V1_015IServiceManager11linkToDeathERKNS_2spINS_8hardware20hidl_death_recipientEEEy"
    },
    {
     "mangled_component_name":"_ZN7android4hidl7manager4V1_015IServiceManager4pingEv"
    },
    {
     "mangled_component_name":"_ZN7android4hidl7manager4V1_015IServiceManager12getDebugInfoENSt3__18functionIFvRKNS0_4base4V1_09DebugInfoEEEE"
    },
    {
     "mangled_component_name":"_ZN7android4hidl7manager4V1_015IServiceManager21notifySyspropsChangedEv"
    },
    {
     "mangled_component_name":"_ZN7android4hidl7manager4V1_015IServiceManager13unlinkToDeathERKNS_2spINS_8hardware20hidl_death_recipientEEE"
    },
    {
     "kind":"complete_dtor_pointer",
     "mangled_component_name":"_ZN7android4hidl7manager4V1_015IServiceManagerD1Ev"
    },
    {
     "kind":"deleting_dtor_pointer",
     "mangled_component_name":"_ZN7android4hidl7manager4V1_015IServiceManagerD0Ev"
    },
    {
     "is_pure":true,
     "mangled_component_name":"_ZN7android4hidl7manager4V1_015IServiceManager3getERKNS_8hardware11hidl_stringES7_"
    },
    {
     "is_pure":true,
     "mangled_component_name":"_ZN7android4hidl7manager4V1_015IServiceManager3addERKNS_8hardware11hidl_stringERKNS_2spINS0_4base4V1_05IBaseEEE"
    },
    {
     "is_pure":true,
     "mangled_component_name":"_ZN7android4hidl7manager4V1_015IServiceManager12getTransportERKNS_8hardware11hidl_stringES7_"
    },
    {
     "is_pure":true,
     "mangled_component_name":"_ZN7android4hidl7manager4V1_015IServiceManager4listENSt3__18functionIFvRKNS_8hardware8hidl_vecINS6_11hidl_stringEEEEEE"
    },
    {
     "is_pure":true,
     "mangled_component_name":"_ZN7android4hidl7manager4V1_015IServiceManager15listByInterfaceERKNS_8hardware11hidl_stringENSt3__18functionIFvRKNS4_8hidl_vecIS5_EEEEE"
    },
    {
     "is_pure":true,
     "mangled_component_name":"_ZN7android4hidl7manager4V1_015IServiceManager24registerForNotificationsERKNS_8hardware11hidl_stringES7_RKNS_2spINS2_20IServiceNotificationEEE"
    },
    {
     "is_pure":true,
     "mangled_component_name":"_ZN7android4hidl7manager4V1_015IServiceManager9debugDumpENSt3__18functionIFvRKNS_8hardware8hidl_vecINS3_17InstanceDebugInfoEEEEEE"
    },
    {
     "is_pure":true,
     "mangled_component_name":"_ZN7android4hidl7manager4V1_015IServiceManager25registerPassthroughClientERKNS_8hardware11hidl_stringES7_"
    },
    {
     "kind":"vcall_offset"
    },
    {
     "kind":"vcall_offset"
    },
    {
     "kind":"vcall_offset"
    },
    {
     "kind":"vcall_offset"
    },
    {
     "kind":"vcall_offset",
     "component_value":-4
    },
    {
     "kind":"offset_to_top",
     "component_value":-4
    },
    {
     "kind":"rtti",
     "mangled_component_name":"_ZTIN7android4hidl7manager4V1_015IServiceManagerE"
    },
    {
     "kind":"complete_dtor_pointer",
     "mangled_component_name":"_ZTv0_n12_N7android4hidl7manager4V1_015IServiceManagerD1Ev"
    },
    {
     "kind":"deleting_dtor_pointer",
     "mangled_component_name":"_ZTv0_n12_N7android4hidl7manager4V1_015IServiceManagerD0Ev"
    },
    {
     "mangled_component_name":"_ZN7android7RefBase10onFirstRefEv"
    },
    {
     "mangled_component_name":"_ZN7android7RefBase15onLastStrongRefEPKv"
    },
    {
     "mangled_component_name":"_ZN7android7RefBase20onIncStrongAttemptedEjPKv"
    },
    {
     "mangled_component_name":"_ZN7android7RefBase13onLastWeakRefEPKv"
    }
   ],
   "unique_id":"_ZTSN7android4hidl7manager4V1_015IServiceManagerE"
  },
  {
   "vtable_components":[
    {
     "kind":"vbase_offset",
     "component_value":4
    },
    {
     "kind":"offset_to_top"
    },
    {
     "kind":"rtti",
     "mangled_component_name":"_ZTIN7android4hidl4base4V1_05IBaseE"
    },
    {
     "mangled_component_name":"_ZNK7android4hidl4base4V1_05IBase8isRemoteEv"
    },
    {
     "mangled_component_name":"_ZN7android4hidl4base4V1_05IBase14interfaceChainENSt3__18functionIFvRKNS_8hardware8hidl_vecINS6_11hidl_stringEEEEEE"
    },
    {
     "mangled_component_name":"_ZN7android4hidl4base4V1_05IBase5debugERKNS_8hardware11hidl_handleERKNS4_8hidl_vecINS4_11hidl_stringEEE"
    },
    {
     "mangled_component_name":"_ZN7android4hidl4base4V1_05IBase19interfaceDescriptorENSt3__18functionIFvRKNS_8hardware11hidl_stringEEEE"
    },
    {
     "mangled_component_name":"_ZN7android4hidl4base4V1_05IBase12getHashChainENSt3__18functionIFvRKNS_8hardware8hidl_vecINS6_10hidl_arrayIhLj32EJEEEEEEEE"
    },
    {
     "mangled_component_name":"_ZN7android4hidl4base4V1_05IBase21setHALInstrumentationEv"
    },
    {
     "mangled_component_name":"_ZN7android4hidl4base4V1_05IBase11linkToDeathERKNS_2spINS_8hardware20hidl_death_recipientEEEy"
    },
    {
     "mangled_component_name":"_ZN7android4hidl4base4V1_05IBase4pingEv"
    },
    {
     "mangled_component_name":"_ZN7android4hidl4base4V1_05IBase12getDebugInfoENSt3__18functionIFvRKNS2_9DebugInfoEEEE"
    },
    {
     "mangled_component_name":"_ZN7android4hidl4base4V1_05IBase21notifySyspropsChangedEv"
    },
    {
     "mangled_component_name":"_ZN7android4hidl4base4V1_05IBase13unlinkToDeathERKNS_2spINS_8hardware20hidl_death_recipientEEE"
    },
    {
     "kind":"complete_dtor_pointer",
     "mangled_component_name":"_ZN7android4hidl4base4V1_05IBaseD1Ev"
    },
    {
     "kind":"deleting_dtor_pointer",
     "mangled_component_name":"_ZN7android4hidl4base4V1_05IBaseD0Ev"
    },
    {
     "kind":"vcall_offset"
    },
    {
     "kind":"vcall_offset"
    },
    {
     "kind":"vcall_offset"
    },
    {
     "kind":"vcall_offset"
    },
    {
     "kind":"vcall_offset",
     "component_value":-4
    },
    {
     "kind":"offset_to_top",
     "component_value":-4
    },
    {
     "kind":"rtti",
     "mangled_component_name":"_ZTIN7android4hidl4base4V1_05IBaseE"
    },
    {
     "kind":"complete_dtor_pointer",
     "mangled_component_name":"_ZTv0_n12_N7android4hidl4base4V1_05IBaseD1Ev"
    },
    {
     "kind":"deleting_dtor_pointer",
     "mangled_component_name":"_ZTv0_n12_N7android4hidl4base4V1_05IBaseD0Ev"
    },
    {
     "mangled_component_name":"_ZN7android7RefBase10onFirstRefEv"
    },
    {
     "mangled_component_name":"_ZN7android7RefBase15onLastStrongRefEPKv"
    },
    {
     "mangled_component_name":"_ZN7android7RefBase20onIncStrongAttemptedEjPKv"
    },
    {
     "mangled_component_name":"_ZN7android7RefBase13onLastWeakRefEPKv"
    }
   ],
   "unique_id":"_ZTSN7android4hidl4base4V1_05IBaseE"
  },
  {
   "vtable_components":[
    {
     "kind":"vbase_offset",
     "component_value":68
    },
    {
     "kind":"offset_to_top"
    },
    {
     "kind":"rtti",
     "mangled_component_name":"_ZTIN7android4hidl4base4V1_08BnHwBaseE"
    },
    {
     "mangled_component_name":"_ZN7android8hardware9BHwBinder8transactEjRKNS0_6ParcelEPS2_jNSt3__18functionIFvRS2_EEE"
    },
    {
     "mangled_component_name":"_ZN7android8hardware9BHwBinder11linkToDeathERKNS_2spINS0_7IBinder14DeathRecipientEEEPvj"
    },
    {
     "mangled_component_name":"_ZN7android8hardware9BHwBinder13unlinkToDeathERKNS_2wpINS0_7IBinder14DeathRecipientEEEPvjPS5_"
    },
    {
     "mangled_component_name":"_ZNK7android8hardware7IBinder13checkSubclassEPKv"
    },
    {
     "mangled_component_name":"_ZN7android8hardware9BHwBinder12attachObjectEPKvPvS4_PFvS3_S4_S4_E"
    },
    {
     "mangled_component_name":"_ZNK7android8hardware9BHwBinder10findObjectEPKv"
    },
    {
     "mangled_component_name":"_ZN7android8hardware9BHwBinder12detachObjectEPKv"
    },
    {
     "mangled_component_name":"_ZN7android8hardware9BHwBinder11localBinderEv"
    },
    {
     "mangled_component_name":"_ZN7android8hardware7IBinder12remoteBinderEv"
    },
    {
     "kind":"complete_dtor_pointer",
     "mangled_component_name":"_ZN7android4hidl4base4V1_08BnHwBaseD1Ev"
    },
    {
     "kind":"deleting_dtor_pointer",
     "mangled_component_name":"_ZN7android4hidl4base4V1_08BnHwBaseD0Ev"
    },
    {
     "mangled_component_name":"_ZN7android4hidl4base4V1_08BnHwBase10onTransactEjRKNS_8hardware6ParcelEPS5_jNSt3__18functionIFvRS5_EEE"
    },
    {
     "kind":"offset_to_top",
     "component_value":-20
    },
    {
     "kind":"rtti",
     "mangled_component_name":"_ZTIN7android4hidl4base4V1_08BnHwBaseE"
    },
    {
     "kind":"complete_dtor_pointer",
     "mangled_component_name":"_ZThn20_N7android4hidl4base4V1_08BnHwBaseD1Ev"
    },
    {
     "kind":"deleting_dtor_pointer",
     "mangled_component_name":"_ZThn20_N7android4hidl4base4V1_08BnHwBaseD0Ev"
    },
    {
     "kind":"vcall_offset"
    },
    {
     "kind":"vcall_offset"
    },
    {
     "kind":"vcall_offset"
    },
    {
     "kind":"vcall_offset"
    },
    {
     "kind":"vcall_offset",
     "component_value":-68
    },
    {
     "kind":"offset_to_top",
     "component_value":-68
    },
    {
     "kind":"rtti",
     "mangled_component_name":"_ZTIN7android4hidl4base4V1_08BnHwBaseE"
    },
    {
     "kind":"complete_dtor_pointer",
     "mangled_component_name":"_ZTv0_n12_N7android4hidl4base4V1_08BnHwBaseD1Ev"
    },
    {
     "kind":"deleting_dtor_pointer",
     "mangled_component_name":"_ZTv0_n12_N7android4hidl4base4V1_08BnHwBaseD0Ev"
    },
    {
     "mangled_component_name":"_ZN7android7RefBase10onFirstRefEv"
    },
    {
     "mangled_component_name":"_ZN7android7RefBase15onLastStrongRefEPKv"
    },
    {
     "mangled_component_name":"_ZN7android7RefBase20onIncStrongAttemptedEjPKv"
    },
    {
     "mangled_component_name":"_ZN7android7RefBase13onLastWeakRefEPKv"
    }
   ],
   "unique_id":"_ZTSN7android4hidl4base4V1_08BnHwBaseE"
  },
  {
   "vtable_components":[
    {
     "kind":"vbase_offset",
     "component_value":84
    },
    {
     "kind":"offset_to_top"
    },
    {
     "kind":"rtti",
     "mangled_component_name":"_ZTIN7android4hidl4base4V1_08BpHwBaseE"
    },
    {
     "mangled_component_name":"_ZNK7android4hidl4base4V1_08BpHwBase8isRemoteEv"
    },
    {
     "mangled_component_name":"_ZN7android4hidl4base4V1_08BpHwBase14interfaceChainENSt3__18functionIFvRKNS_8hardware8hidl_vecINS6_11hidl_stringEEEEEE"
    },
    {
     "mangled_component_name":"_ZN7android4hidl4base4V1_08BpHwBase5debugERKNS_8hardware11hidl_handleERKNS4_8hidl_vecINS4_11hidl_stringEEE"
    },
    {
     "mangled_component_name":"_ZN7android4hidl4base4V1_08BpHwBase19interfaceDescriptorENSt3__18functionIFvRKNS_8hardware11hidl_stringEEEE"
    },
    {
     "mangled_component_name":"_ZN7android4hidl4base4V1_08BpHwBase12getHashChainENSt3__18functionIFvRKNS_8hardware8hidl_vecINS6_10hidl_arrayIhLj32EJEEEEEEEE"
    },
    {
     "mangled_component_name":"_ZN7android4hidl4base4V1_08BpHwBase21setHALInstrumentationEv"
    },
    {
     "mangled_component_name":"_ZN7android4hidl4base4V1_08BpHwBase11linkToDeathERKNS_2spINS_8hardware20hidl_death_recipientEEEy"
    },
    {
     "mangled_component_name":"_ZN7android4hidl4base4V1_08BpHwBase4pingEv"
    },
    {
     "mangled_component_name":"_ZN7android4hidl4base4V1_08BpHwBase12getDebugInfoENSt3__18functionIFvRKNS2_9DebugInfoEEEE"
    },
    {
     "mangled_component_name":"_ZN7android4hidl4base4V1_08BpHwBase21notifySyspropsChangedEv"
    },
    {
     "mangled_component_name":"_ZN7android4hidl4base4V1_08BpHwBase13unlinkToDeathERKNS_2spINS_8hardware20hidl_death_recipientEEE"
    },
    {
     "kind":"complete_dtor_pointer",
     "mangled_component_name":"_ZN7android4hidl4base4V1_08BpHwBaseD1Ev"
    },
    {
     "kind":"deleting_dtor_pointer",
     "mangled_component_name":"_ZN7android4hidl4base4V1_08BpHwBaseD0Ev"
    },
    {
     "mangled_component_name":"_ZN7android8hardware11BpInterfaceINS_4hidl4base4V1_05IBaseEE10onAsBinderEv"
    },
    {
     "kind":"vbase_offset",
     "component_value":80
    },
    {
     "kind":"offset_to_top",
     "component_value":-4
    },
    {
     "kind":"rtti",
     "mangled_component_name":"_ZTIN7android4hidl4base4V1_08BpHwBaseE"
    },
    {
     "kind":"complete_dtor_pointer",
     "mangled_component_name":"_ZThn4_N7android4hidl4base4V1_08BpHwBaseD1Ev"
    },
    {
     "kind":"deleting_dtor_pointer",
     "mangled_component_name":"_ZThn4_N7android4hidl4base4V1_08BpHwBaseD0Ev"
    },
    {
     "mangled_component_name":"_ZThn4_N7android8hardware11BpInterfaceINS_4hidl4base4V1_05IBaseEE10onAsBinderEv"
    },
    {
     "kind":"vbase_offset",
     "component_value":76
    },
    {
     "kind":"offset_to_top",
     "component_value":-8
    },
    {
     "kind":"rtti",
     "mangled_component_name":"_ZTIN7android4hidl4base4V1_08BpHwBaseE"
    },
    {
     "kind":"complete_dtor_pointer",
     "mangled_component_name":"_ZThn8_N7android4hidl4base4V1_08BpHwBaseD1Ev"
    },
    {
     "kind":"deleting_dtor_pointer",
     "mangled_component_name":"_ZThn8_N7android4hidl4base4V1_08BpHwBaseD0Ev"
    },
    {
     "mangled_component_name":"_ZN7android8hardware11BpHwRefBase10onFirstRefEv"
    },
    {
     "mangled_component_name":"_ZN7android8hardware11BpHwRefBase15onLastStrongRefEPKv"
    },
    {
     "mangled_component_name":"_ZN7android8hardware11BpHwRefBase20onIncStrongAttemptedEjPKv"
    },
    {
     "kind":"offset_to_top",
     "component_value":-24
    },
    {
     "kind":"rtti",
     "mangled_component_name":"_ZTIN7android4hidl4base4V1_08BpHwBaseE"
    },
    {
     "kind":"complete_dtor_pointer",
     "mangled_component_name":"_ZThn24_N7android4hidl4base4V1_08BpHwBaseD1Ev"
    },
    {
     "kind":"deleting_dtor_pointer",
     "mangled_component_name":"_ZThn24_N7android4hidl4base4V1_08BpHwBaseD0Ev"
    },
    {
     "kind":"vcall_offset"
    },
    {
     "kind":"vcall_offset",
     "component_value":-76
    },
    {
     "kind":"vcall_offset",
     "component_value":-76
    },
    {
     "kind":"vcall_offset",
     "component_value":-76
    },
    {
     "kind":"vcall_offset",
     "component_value":-84
    },
    {
     "kind":"offset_to_top",
     "component_value":-84
    },
    {
     "kind":"rtti",
     "mangled_component_name":"_ZTIN7android4hidl4base4V1_08BpHwBaseE"
    },
    {
     "kind":"complete_dtor_pointer",
     "mangled_component_name":"_ZTv0_n12_N7android4hidl4base4V1_08BpHwBaseD1Ev"
    },
    {
     "kind":"deleting_dtor_pointer",
     "mangled_component_name":"_ZTv0_n12_N7android4hidl4base4V1_08BpHwBaseD0Ev"
    },
    {
     "mangled_component_name":"_ZTv0_n16_N7android8hardware11BpHwRefBase10onFirstRefEv"
    },
    {
     "mangled_component_name":"_ZTv0_n20_N7android8hardware11BpHwRefBase15onLastStrongRefEPKv"
    },
    {
     "mangled_component_name":"_ZTv0_n24_N7android8hardware11BpHwRefBase20onIncStrongAttemptedEjPKv"
    },
    {
     "mangled_component_name":"_ZN7android7RefBase13onLastWeakRefEPKv"
    }
   ],
   "unique_id":"_ZTSN7android4hidl4base4V1_08BpHwBaseE"
  },
  {
   "vtable_components":[
    {
     "kind":"vbase_offset",
     "component_value":60
    },
    {
     "kind":"offset_to_top"
    },
    {
     "kind":"rtti",
     "mangled_component_name":"_ZTIN7android4hidl7manager4V1_021BsServiceNotificationE"
    },
    {
     "mangled_component_name":"_ZNK7android4hidl7manager4V1_020IServiceNotification8isRemoteEv"
    },
    {
     "mangled_component_name":"_ZN7android4hidl7manager4V1_021BsServiceNotification14interfaceChainENSt3__18functionIFvRKNS_8hardware8hidl_vecINS6_11hidl_stringEEEEEE"
    },
    {
     "mangled_component_name":"_ZN7android4hidl7manager4V1_021BsServiceNotification5debugERKNS_8hardware11hidl_handleERKNS4_8hidl_vecINS4_11hidl_stringEEE"
    },
    {
     "mangled_component_name":"_ZN7android4hidl7manager4V1_021BsServiceNotification19interfaceDescriptorENSt3__18functionIFvRKNS_8hardware11hidl_stringEEEE"
    },
    {
     "mangled_component_name":"_ZN7android4hidl7manager4V1_021BsServiceNotification12getHashChainENSt3__18functionIFvRKNS_8hardware8hidl_vecINS6_10hidl_arrayIhLj32EJEEEEEEEE"
    },
    {
     "mangled_component_name":"_ZN7android4hidl7manager4V1_021BsServiceNotification21setHALInstrumentationEv"
    },
    {
     "mangled_component_name":"_ZN7android4hidl7manager4V1_021BsServiceNotification11linkToDeathERKNS_2spINS_8hardware20hidl_death_recipientEEEy"
    },
    {
     "mangled_component_name":"_ZN7android4hidl7manager4V1_021BsServiceNotification4pingEv"
    },
    {
     "mangled_component_name":"_ZN7android4hidl7manager4V1_021BsServiceNotification12getDebugInfoENSt3__18functionIFvRKNS0_4base4V1_09DebugInfoEEEE"
    },
    {
     "mangled_component_name":"_ZN7android4hidl7manager4V1_021BsServiceNotification21notifySyspropsChangedEv"
    },
    {
     "mangled_component_name":"_ZN7android4hidl7manager4V1_021BsServiceNotification13unlinkToDeathERKNS_2spINS_8hardware20hidl_death_recipientEEE"
    },
    {
     "kind":"complete_dtor_pointer",
     "mangled_component_name":"_ZN7android4hidl7manager4V1_021BsServiceNotificationD1Ev"
    },
    {
     "kind":"deleting_dtor_pointer",
     "mangled_component_name":"_ZN7android4hidl7manager4V1_021BsServiceNotificationD0Ev"
    },
    {
     "mangled_component_name":"_ZN7android4hidl7manager4V1_021BsServiceNotification14onRegistrationERKNS_8hardware11hidl_stringES7_b"
    },
    {
     "kind":"offset_to_top",
     "component_value":-4
    },
    {
     "kind":"rtti",
     "mangled_component_name":"_ZTIN7android4hidl7manager4V1_021BsServiceNotificationE"
    },
    {
     "kind":"complete_dtor_pointer",
     "mangled_component_name":"_ZThn4_N7android4hidl7manager4V1_021BsServiceNotificationD1Ev"
    },
    {
     "kind":"deleting_dtor_pointer",
     "mangled_component_name":"_ZThn4_N7android4hidl7manager4V1_021BsServiceNotificationD0Ev"
    },
    {
     "kind":"vcall_offset"
    },
    {
     "kind":"vcall_offset"
    },
    {
     "kind":"vcall_offset"
    },
    {
     "kind":"vcall_offset"
    },
    {
     "kind":"vcall_offset",
     "component_value":-60
    },
    {
     "kind":"offset_to_top",
     "component_value":-60
    },
    {
     "kind":"rtti",
     "mangled_component_name":"_ZTIN7android4hidl7manager4V1_021BsServiceNotificationE"
    },
    {
     "kind":"complete_dtor_pointer",
     "mangled_component_name":"_ZTv0_n12_N7android4hidl7manager4V1_021BsServiceNotificationD1Ev"
    },
    {
     "kind":"deleting_dtor_pointer",
     "mangled_component_name":"_ZTv0_n12_N7android4hidl7manager4V1_021BsServiceNotificationD0Ev"
    },
    {
     "mangled_component_name":"_ZN7android7RefBase10onFirstRefEv"
    },
    {
     "mangled_component_name":"_ZN7android7RefBase15onLastStrongRefEPKv"
    },
    {
     "mangled_component_name":"_ZN7android7RefBase20onIncStrongAttemptedEjPKv"
    },
    {
     "mangled_component_name":"_ZN7android7RefBase13onLastWeakRefEPKv"
    }
   ],
   "unique_id":"_ZTSN7android4hidl7manager4V1_021BsServiceNotificationE"
  },
  {
   "vtable_components":[
    {
     "kind":"vbase_offset",
     "component_value":72
    },
    {
     "kind":"offset_to_top"
    },
    {
     "kind":"rtti",
     "mangled_component_name":"_ZTIN7android4hidl7manager4V1_023BnHwServiceNotificationE"
    },
    {
     "mangled_component_name":"_ZN7android8hardware9BHwBinder8transactEjRKNS0_6ParcelEPS2_jNSt3__18functionIFvRS2_EEE"
    },
    {
     "mangled_component_name":"_ZN7android8hardware9BHwBinder11linkToDeathERKNS_2spINS0_7IBinder14DeathRecipientEEEPvj"
    },
    {
     "mangled_component_name":"_ZN7android8hardware9BHwBinder13unlinkToDeathERKNS_2wpINS0_7IBinder14DeathRecipientEEEPvjPS5_"
    },
    {
     "mangled_component_name":"_ZNK7android8hardware7IBinder13checkSubclassEPKv"
    },
    {
     "mangled_component_name":"_ZN7android8hardware9BHwBinder12attachObjectEPKvPvS4_PFvS3_S4_S4_E"
    },
    {
     "mangled_component_name":"_ZNK7android8hardware9BHwBinder10findObjectEPKv"
    },
    {
     "mangled_component_name":"_ZN7android8hardware9BHwBinder12detachObjectEPKv"
    },
    {
     "mangled_component_name":"_ZN7android8hardware9BHwBinder11localBinderEv"
    },
    {
     "mangled_component_name":"_ZN7android8hardware7IBinder12remoteBinderEv"
    },
    {
     "kind":"complete_dtor_pointer",
     "mangled_component_name":"_ZN7android4hidl7manager4V1_023BnHwServiceNotificationD1Ev"
    },
    {
     "kind":"deleting_dtor_pointer",
     "mangled_component_name":"_ZN7android4hidl7manager4V1_023BnHwServiceNotificationD0Ev"
    },
    {
     "mangled_component_name":"_ZN7android4hidl7manager4V1_023BnHwServiceNotification10onTransactEjRKNS_8hardware6ParcelEPS5_jNSt3__18functionIFvRS5_EEE"
    },
    {
     "kind":"offset_to_top",
     "component_value":-20
    },
    {
     "kind":"rtti",
     "mangled_component_name":"_ZTIN7android4hidl7manager4V1_023BnHwServiceNotificationE"
    },
    {
     "kind":"complete_dtor_pointer",
     "mangled_component_name":"_ZThn20_N7android4hidl7manager4V1_023BnHwServiceNotificationD1Ev"
    },
    {
     "kind":"deleting_dtor_pointer",
     "mangled_component_name":"_ZThn20_N7android4hidl7manager4V1_023BnHwServiceNotificationD0Ev"
    },
    {
     "kind":"vcall_offset"
    },
    {
     "kind":"vcall_offset"
    },
    {
     "kind":"vcall_offset"
    },
    {
     "kind":"vcall_offset"
    },
    {
     "kind":"vcall_offset",
     "component_value":-72
    },
    {
     "kind":"offset_to_top",
     "component_value":-72
    },
    {
     "kind":"rtti",
     "mangled_component_name":"_ZTIN7android4hidl7manager4V1_023BnHwServiceNotificationE"
    },
    {
     "kind":"complete_dtor_pointer",
     "mangled_component_name":"_ZTv0_n12_N7android4hidl7manager4V1_023BnHwServiceNotificationD1Ev"
    },
    {
     "kind":"deleting_dtor_pointer",
     "mangled_component_name":"_ZTv0_n12_N7android4hidl7manager4V1_023BnHwServiceNotificationD0Ev"
    },
    {
     "mangled_component_name":"_ZN7android7RefBase10onFirstRefEv"
    },
    {
     "mangled_component_name":"_ZN7android7RefBase15onLastStrongRefEPKv"
    },
    {
     "mangled_component_name":"_ZN7android7RefBase20onIncStrongAttemptedEjPKv"
    },
    {
     "mangled_component_name":"_ZN7android7RefBase13onLastWeakRefEPKv"
    }
   ],
   "unique_id":"_ZTSN7android4hidl7manager4V1_023BnHwServiceNotificationE"
  },
  {
   "vtable_components":[
    {
     "kind":"vbase_offset",
     "component_value":4
    },
    {
     "kind":"offset_to_top"
    },
    {
     "kind":"rtti",
     "mangled_component_name":"_ZTIN7android4hidl7manager4V1_020IServiceNotificationE"
    },
    {
     "mangled_component_name":"_ZNK7android4hidl7manager4V1_020IServiceNotification8isRemoteEv"
    },
    {
     "mangled_component_name":"_ZN7android4hidl7manager4V1_020IServiceNotification14interfaceChainENSt3__18functionIFvRKNS_8hardware8hidl_vecINS6_11hidl_stringEEEEEE"
    },
    {
     "mangled_component_name":"_ZN7android4hidl7manager4V1_020IServiceNotification5debugERKNS_8hardware11hidl_handleERKNS4_8hidl_vecINS4_11hidl_stringEEE"
    },
    {
     "mangled_component_name":"_ZN7android4hidl7manager4V1_020IServiceNotification19interfaceDescriptorENSt3__18functionIFvRKNS_8hardware11hidl_stringEEEE"
    },
    {
     "mangled_component_name":"_ZN7android4hidl7manager4V1_020IServiceNotification12getHashChainENSt3__18functionIFvRKNS_8hardware8hidl_vecINS6_10hidl_arrayIhLj32EJEEEEEEEE"
    },
    {
     "mangled_component_name":"_ZN7android4hidl7manager4V1_020IServiceNotification21setHALInstrumentationEv"
    },
    {
     "mangled_component_name":"_ZN7android4hidl7manager4V1_020IServiceNotification11linkToDeathERKNS_2spINS_8hardware20hidl_death_recipientEEEy"
    },
    {
     "mangled_component_name":"_ZN7android4hidl7manager4V1_020IServiceNotification4pingEv"
    },
    {
     "mangled_component_name":"_ZN7android4hidl7manager4V1_020IServiceNotification12getDebugInfoENSt3__18functionIFvRKNS0_4base4V1_09DebugInfoEEEE"
    },
    {
     "mangled_component_name":"_ZN7android4hidl7manager4V1_020IServiceNotification21notifySyspropsChangedEv"
    },
    {
     "mangled_component_name":"_ZN7android4hidl7manager4V1_020IServiceNotification13unlinkToDeathERKNS_2spINS_8hardware20hidl_death_recipientEEE"
    },
    {
     "kind":"complete_dtor_pointer",
     "mangled_component_name":"_ZN7android4hidl7manager4V1_020IServiceNotificationD1Ev"
    },
    {
     "kind":"deleting_dtor_pointer",
     "mangled_component_name":"_ZN7android4hidl7manager4V1_020IServiceNotificationD0Ev"
    },
    {
     "is_pure":true,
     "mangled_component_name":"_ZN7android4hidl7manager4V1_020IServiceNotification14onRegistrationERKNS_8hardware11hidl_stringES7_b"
    },
    {
     "kind":"vcall_offset"
    },
    {
     "kind":"vcall_offset"
    },
    {
     "kind":"vcall_offset"
    },
    {
     "kind":"vcall_offset"
    },
    {
     "kind":"vcall_offset",
     "component_value":-4
    },
    {
     "kind":"offset_to_top",
     "component_value":-4
    },
    {
     "kind":"rtti",
     "mangled_component_name":"_ZTIN7android4hidl7manager4V1_020IServiceNotificationE"
    },
    {
     "kind":"complete_dtor_pointer",
     "mangled_component_name":"_ZTv0_n12_N7android4hidl7manager4V1_020IServiceNotificationD1Ev"
    },
    {
     "kind":"deleting_dtor_pointer",
     "mangled_component_name":"_ZTv0_n12_N7android4hidl7manager4V1_020IServiceNotificationD0Ev"
    },
    {
     "mangled_component_name":"_ZN7android7RefBase10onFirstRefEv"
    },
    {
     "mangled_component_name":"_ZN7android7RefBase15onLastStrongRefEPKv"
    },
    {
     "mangled_component_name":"_ZN7android7RefBase20onIncStrongAttemptedEjPKv"
    },
    {
     "mangled_component_name":"_ZN7android7RefBase13onLastWeakRefEPKv"
    }
   ],
   "unique_id":"_ZTSN7android4hidl7manager4V1_020IServiceNotificationE"
  },
  {
   "vtable_components":[
    {
     "kind":"vbase_offset",
     "component_value":60
    },
    {
     "kind":"offset_to_top"
    },
    {
     "kind":"rtti",
     "mangled_component_name":"_ZTIN7android4hidl7manager4V1_116BsServiceManagerE"
    },
    {
     "mangled_component_name":"_ZNK7android4hidl7manager4V1_115IServiceManager8isRemoteEv"
    },
    {
     "mangled_component_name":"_ZN7android4hidl7manager4V1_116BsServiceManager14interfaceChainENSt3__18functionIFvRKNS_8hardware8hidl_vecINS6_11hidl_stringEEEEEE"
    },
    {
     "mangled_component_name":"_ZN7android4hidl7manager4V1_116BsServiceManager5debugERKNS_8hardware11hidl_handleERKNS4_8hidl_vecINS4_11hidl_stringEEE"
    },
    {
     "mangled_component_name":"_ZN7android4hidl7manager4V1_116BsServiceManager19interfaceDescriptorENSt3__18functionIFvRKNS_8hardware11hidl_stringEEEE"
    },
    {
     "mangled_component_name":"_ZN7android4hidl7manager4V1_116BsServiceManager12getHashChainENSt3__18functionIFvRKNS_8hardware8hidl_vecINS6_10hidl_arrayIhLj32EJEEEEEEEE"
    },
    {
     "mangled_component_name":"_ZN7android4hidl7manager4V1_116BsServiceManager21setHALInstrumentationEv"
    },
    {
     "mangled_component_name":"_ZN7android4hidl7manager4V1_116BsServiceManager11linkToDeathERKNS_2spINS_8hardware20hidl_death_recipientEEEy"
    },
    {
     "mangled_component_name":"_ZN7android4hidl7manager4V1_116BsServiceManager4pingEv"
    },
    {
     "mangled_component_name":"_ZN7android4hidl7manager4V1_116BsServiceManager12getDebugInfoENSt3__18functionIFvRKNS0_4base4V1_09DebugInfoEEEE"
    },
    {
     "mangled_component_name":"_ZN7android4hidl7manager4V1_116BsServiceManager21notifySyspropsChangedEv"
    },
    {
     "mangled_component_name":"_ZN7android4hidl7manager4V1_116BsServiceManager13unlinkToDeathERKNS_2spINS_8hardware20hidl_death_recipientEEE"
    },
    {
     "kind":"complete_dtor_pointer",
     "mangled_component_name":"_ZN7android4hidl7manager4V1_116BsServiceManagerD1Ev"
    },
    {
     "kind":"deleting_dtor_pointer",
     "mangled_component_name":"_ZN7android4hidl7manager4V1_116BsServiceManagerD0Ev"
    },
    {
     "mangled_component_name":"_ZN7android4hidl7manager4V1_116BsServiceManager3getERKNS_8hardware11hidl_stringES7_"
    },
    {
     "mangled_component_name":"_ZN7android4hidl7manager4V1_116BsServiceManager3addERKNS_8hardware11hidl_stringERKNS_2spINS0_4base4V1_05IBaseEEE"
    },
    {
     "mangled_component_name":"_ZN7android4hidl7manager4V1_116BsServiceManager12getTransportERKNS_8hardware11hidl_stringES7_"
    },
    {
     "mangled_component_name":"_ZN7android4hidl7manager4V1_116BsServiceManager4listENSt3__18functionIFvRKNS_8hardware8hidl_vecINS6_11hidl_stringEEEEEE"
    },
    {
     "mangled_component_name":"_ZN7android4hidl7manager4V1_116BsServiceManager15listByInterfaceERKNS_8hardware11hidl_stringENSt3__18functionIFvRKNS4_8hidl_vecIS5_EEEEE"
    },
    {
     "mangled_component_name":"_ZN7android4hidl7manager4V1_116BsServiceManager24registerForNotificationsERKNS_8hardware11hidl_stringES7_RKNS_2spINS1_4V1_020IServiceNotificationEEE"
    },
    {
     "mangled_component_name":"_ZN7android4hidl7manager4V1_116BsServiceManager9debugDumpENSt3__18functionIFvRKNS_8hardware8hidl_vecINS1_4V1_015IServiceManager17InstanceDebugInfoEEEEEE"
    },
    {
     "mangled_component_name":"_ZN7android4hidl7manager4V1_116BsServiceManager25registerPassthroughClientERKNS_8hardware11hidl_stringES7_"
    },
    {
     "mangled_component_name":"_ZN7android4hidl7manager4V1_116BsServiceManager26unregisterForNotificationsERKNS_8hardware11hidl_stringES7_RKNS_2spINS1_4V1_020IServiceNotificationEEE"
    },
    {
     "kind":"offset_to_top",
     "component_value":-4
    },
    {
     "kind":"rtti",
     "mangled_component_name":"_ZTIN7android4hidl7manager4V1_116BsServiceManagerE"
    },
    {
     "kind":"complete_dtor_pointer",
     "mangled_component_name":"_ZThn4_N7android4hidl7manager4V1_116BsServiceManagerD1Ev"
    },
    {
     "kind":"deleting_dtor_pointer",
     "mangled_component_name":"_ZThn4_N7android4hidl7manager4V1_116BsServiceManagerD0Ev"
    },
    {
     "kind":"vcall_offset"
    },
    {
     "kind":"vcall_offset"
    },
    {
     "kind":"vcall_offset"
    },
    {
     "kind":"vcall_offset"
    },
    {
     "kind":"vcall_offset",
     "component_value":-60
    },
    {
     "kind":"offset_to_top",
     "component_value":-60
    },
    {
     "kind":"rtti",
     "mangled_component_name":"_ZTIN7android4hidl7manager4V1_116BsServiceManagerE"
    },
    {
     "kind":"complete_dtor_pointer",
     "mangled_component_name":"_ZTv0_n12_N7android4hidl7manager4V1_116BsServiceManagerD1Ev"
    },
    {
     "kind":"deleting_dtor_pointer",
     "mangled_component_name":"_ZTv0_n12_N7android4hidl7manager4V1_116BsServiceManagerD0Ev"
    },
    {
     "mangled_component_name":"_ZN7android7RefBase10onFirstRefEv"
    },
    {
     "mangled_component_name":"_ZN7android7RefBase15onLastStrongRefEPKv"
    },
    {
     "mangled_component_name":"_ZN7android7RefBase20onIncStrongAttemptedEjPKv"
    },
    {
     "mangled_component_name":"_ZN7android7RefBase13onLastWeakRefEPKv"
    }
   ],
   "unique_id":"_ZTSN7android4hidl7manager4V1_116BsServiceManagerE"
  },
  {
   "vtable_components":[
    {
     "kind":"vbase_offset",
     "component_value":84
    },
    {
     "kind":"offset_to_top"
    },
    {
     "kind":"rtti",
     "mangled_component_name":"_ZTIN7android4hidl7manager4V1_023BpHwServiceNotificationE"
    },
    {
     "mangled_component_name":"_ZNK7android4hidl7manager4V1_023BpHwServiceNotification8isRemoteEv"
    },
    {
     "mangled_component_name":"_ZN7android4hidl7manager4V1_023BpHwServiceNotification14interfaceChainENSt3__18functionIFvRKNS_8hardware8hidl_vecINS6_11hidl_stringEEEEEE"
    },
    {
     "mangled_component_name":"_ZN7android4hidl7manager4V1_023BpHwServiceNotification5debugERKNS_8hardware11hidl_handleERKNS4_8hidl_vecINS4_11hidl_stringEEE"
    },
    {
     "mangled_component_name":"_ZN7android4hidl7manager4V1_023BpHwServiceNotification19interfaceDescriptorENSt3__18functionIFvRKNS_8hardware11hidl_stringEEEE"
    },
    {
     "mangled_component_name":"_ZN7android4hidl7manager4V1_023BpHwServiceNotification12getHashChainENSt3__18functionIFvRKNS_8hardware8hidl_vecINS6_10hidl_arrayIhLj32EJEEEEEEEE"
    },
    {
     "mangled_component_name":"_ZN7android4hidl7manager4V1_023BpHwServiceNotification21setHALInstrumentationEv"
    },
    {
     "mangled_component_name":"_ZN7android4hidl7manager4V1_023BpHwServiceNotification11linkToDeathERKNS_2spINS_8hardware20hidl_death_recipientEEEy"
    },
    {
     "mangled_component_name":"_ZN7android4hidl7manager4V1_023BpHwServiceNotification4pingEv"
    },
    {
     "mangled_component_name":"_ZN7android4hidl7manager4V1_023BpHwServiceNotification12getDebugInfoENSt3__18functionIFvRKNS0_4base4V1_09DebugInfoEEEE"
    },
    {
     "mangled_component_name":"_ZN7android4hidl7manager4V1_023BpHwServiceNotification21notifySyspropsChangedEv"
    },
    {
     "mangled_component_name":"_ZN7android4hidl7manager4V1_023BpHwServiceNotification13unlinkToDeathERKNS_2spINS_8hardware20hidl_death_recipientEEE"
    },
    {
     "kind":"complete_dtor_pointer",
     "mangled_component_name":"_ZN7android4hidl7manager4V1_023BpHwServiceNotificationD1Ev"
    },
    {
     "kind":"deleting_dtor_pointer",
     "mangled_component_name":"_ZN7android4hidl7manager4V1_023BpHwServiceNotificationD0Ev"
    },
    {
     "mangled_component_name":"_ZN7android4hidl7manager4V1_023BpHwServiceNotification14onRegistrationERKNS_8hardware11hidl_stringES7_b"
    },
    {
     "mangled_component_name":"_ZN7android8hardware11BpInterfaceINS_4hidl7manager4V1_020IServiceNotificationEE10onAsBinderEv"
    },
    {
     "kind":"vbase_offset",
     "component_value":80
    },
    {
     "kind":"offset_to_top",
     "component_value":-4
    },
    {
     "kind":"rtti",
     "mangled_component_name":"_ZTIN7android4hidl7manager4V1_023BpHwServiceNotificationE"
    },
    {
     "kind":"complete_dtor_pointer",
     "mangled_component_name":"_ZThn4_N7android4hidl7manager4V1_023BpHwServiceNotificationD1Ev"
    },
    {
     "kind":"deleting_dtor_pointer",
     "mangled_component_name":"_ZThn4_N7android4hidl7manager4V1_023BpHwServiceNotificationD0Ev"
    },
    {
     "mangled_component_name":"_ZThn4_N7android8hardware11BpInterfaceINS_4hidl7manager4V1_020IServiceNotificationEE10onAsBinderEv"
    },
    {
     "kind":"vbase_offset",
     "component_value":76
    },
    {
     "kind":"offset_to_top",
     "component_value":-8
    },
    {
     "kind":"rtti",
     "mangled_component_name":"_ZTIN7android4hidl7manager4V1_023BpHwServiceNotificationE"
    },
    {
     "kind":"complete_dtor_pointer",
     "mangled_component_name":"_ZThn8_N7android4hidl7manager4V1_023BpHwServiceNotificationD1Ev"
    },
    {
     "kind":"deleting_dtor_pointer",
     "mangled_component_name":"_ZThn8_N7android4hidl7manager4V1_023BpHwServiceNotificationD0Ev"
    },
    {
     "mangled_component_name":"_ZN7android8hardware11BpHwRefBase10onFirstRefEv"
    },
    {
     "mangled_component_name":"_ZN7android8hardware11BpHwRefBase15onLastStrongRefEPKv"
    },
    {
     "mangled_component_name":"_ZN7android8hardware11BpHwRefBase20onIncStrongAttemptedEjPKv"
    },
    {
     "kind":"offset_to_top",
     "component_value":-24
    },
    {
     "kind":"rtti",
     "mangled_component_name":"_ZTIN7android4hidl7manager4V1_023BpHwServiceNotificationE"
    },
    {
     "kind":"complete_dtor_pointer",
     "mangled_component_name":"_ZThn24_N7android4hidl7manager4V1_023BpHwServiceNotificationD1Ev"
    },
    {
     "kind":"deleting_dtor_pointer",
     "mangled_component_name":"_ZThn24_N7android4hidl7manager4V1_023BpHwServiceNotificationD0Ev"
    },
    {
     "kind":"vcall_offset"
    },
    {
     "kind":"vcall_offset",
     "component_value":-76
    },
    {
     "kind":"vcall_offset",
     "component_value":-76
    },
    {
     "kind":"vcall_offset",
     "component_value":-76
    },
    {
     "kind":"vcall_offset",
     "component_value":-84
    },
    {
     "kind":"offset_to_top",
     "component_value":-84
    },
    {
     "kind":"rtti",
     "mangled_component_name":"_ZTIN7android4hidl7manager4V1_023BpHwServiceNotificationE"
    },
    {
     "kind":"complete_dtor_pointer",
     "mangled_component_name":"_ZTv0_n12_N7android4hidl7manager4V1_023BpHwServiceNotificationD1Ev"
    },
    {
     "kind":"deleting_dtor_pointer",
     "mangled_component_name":"_ZTv0_n12_N7android4hidl7manager4V1_023BpHwServiceNotificationD0Ev"
    },
    {
     "mangled_component_name":"_ZTv0_n16_N7android8hardware11BpHwRefBase10onFirstRefEv"
    },
    {
     "mangled_component_name":"_ZTv0_n20_N7android8hardware11BpHwRefBase15onLastStrongRefEPKv"
    },
    {
     "mangled_component_name":"_ZTv0_n24_N7android8hardware11BpHwRefBase20onIncStrongAttemptedEjPKv"
    },
    {
     "mangled_component_name":"_ZN7android7RefBase13onLastWeakRefEPKv"
    }
   ],
   "unique_id":"_ZTSN7android4hidl7manager4V1_023BpHwServiceNotificationE"
  },
  {
   "vtable_components":[
    {
     "kind":"vbase_offset",
     "component_value":60
    },
    {
     "kind":"offset_to_top"
    },
    {
     "kind":"rtti",
     "mangled_component_name":"_ZTIN7android4hidl4base4V1_06BsBaseE"
    },
    {
     "mangled_component_name":"_ZNK7android4hidl4base4V1_05IBase8isRemoteEv"
    },
    {
     "mangled_component_name":"_ZN7android4hidl4base4V1_06BsBase14interfaceChainENSt3__18functionIFvRKNS_8hardware8hidl_vecINS6_11hidl_stringEEEEEE"
    },
    {
     "mangled_component_name":"_ZN7android4hidl4base4V1_06BsBase5debugERKNS_8hardware11hidl_handleERKNS4_8hidl_vecINS4_11hidl_stringEEE"
    },
    {
     "mangled_component_name":"_ZN7android4hidl4base4V1_06BsBase19interfaceDescriptorENSt3__18functionIFvRKNS_8hardware11hidl_stringEEEE"
    },
    {
     "mangled_component_name":"_ZN7android4hidl4base4V1_06BsBase12getHashChainENSt3__18functionIFvRKNS_8hardware8hidl_vecINS6_10hidl_arrayIhLj32EJEEEEEEEE"
    },
    {
     "mangled_component_name":"_ZN7android4hidl4base4V1_06BsBase21setHALInstrumentationEv"
    },
    {
     "mangled_component_name":"_ZN7android4hidl4base4V1_06BsBase11linkToDeathERKNS_2spINS_8hardware20hidl_death_recipientEEEy"
    },
    {
     "mangled_component_name":"_ZN7android4hidl4base4V1_06BsBase4pingEv"
    },
    {
     "mangled_component_name":"_ZN7android4hidl4base4V1_06BsBase12getDebugInfoENSt3__18functionIFvRKNS2_9DebugInfoEEEE"
    },
    {
     "mangled_component_name":"_ZN7android4hidl4base4V1_06BsBase21notifySyspropsChangedEv"
    },
    {
     "mangled_component_name":"_ZN7android4hidl4base4V1_06BsBase13unlinkToDeathERKNS_2spINS_8hardware20hidl_death_recipientEEE"
    },
    {
     "kind":"complete_dtor_pointer",
     "mangled_component_name":"_ZN7android4hidl4base4V1_06BsBaseD1Ev"
    },
    {
     "kind":"deleting_dtor_pointer",
     "mangled_component_name":"_ZN7android4hidl4base4V1_06BsBaseD0Ev"
    },
    {
     "kind":"offset_to_top",
     "component_value":-4
    },
    {
     "kind":"rtti",
     "mangled_component_name":"_ZTIN7android4hidl4base4V1_06BsBaseE"
    },
    {
     "kind":"complete_dtor_pointer",
     "mangled_component_name":"_ZThn4_N7android4hidl4base4V1_06BsBaseD1Ev"
    },
    {
     "kind":"deleting_dtor_pointer",
     "mangled_component_name":"_ZThn4_N7android4hidl4base4V1_06BsBaseD0Ev"
    },
    {
     "kind":"vcall_offset"
    },
    {
     "kind":"vcall_offset"
    },
    {
     "kind":"vcall_offset"
    },
    {
     "kind":"vcall_offset"
    },
    {
     "kind":"vcall_offset",
     "component_value":-60
    },
    {
     "kind":"offset_to_top",
     "component_value":-60
    },
    {
     "kind":"rtti",
     "mangled_component_name":"_ZTIN7android4hidl4base4V1_06BsBaseE"
    },
    {
     "kind":"complete_dtor_pointer",
     "mangled_component_name":"_ZTv0_n12_N7android4hidl4base4V1_06BsBaseD1Ev"
    },
    {
     "kind":"deleting_dtor_pointer",
     "mangled_component_name":"_ZTv0_n12_N7android4hidl4base4V1_06BsBaseD0Ev"
    },
    {
     "mangled_component_name":"_ZN7android7RefBase10onFirstRefEv"
    },
    {
     "mangled_component_name":"_ZN7android7RefBase15onLastStrongRefEPKv"
    },
    {
     "mangled_component_name":"_ZN7android7RefBase20onIncStrongAttemptedEjPKv"
    },
    {
     "mangled_component_name":"_ZN7android7RefBase13onLastWeakRefEPKv"
    }
   ],
   "unique_id":"_ZTSN7android4hidl4base4V1_06BsBaseE"
  },
  {
   "vtable_components":[
    {
     "kind":"vbase_offset",
     "component_value":72
    },
    {
     "kind":"offset_to_top"
    },
    {
     "kind":"rtti",
     "mangled_component_name":"_ZTIN7android4hidl7manager4V1_018BnHwServiceManagerE"
    },
    {
     "mangled_component_name":"_ZN7android8hardware9BHwBinder8transactEjRKNS0_6ParcelEPS2_jNSt3__18functionIFvRS2_EEE"
    },
    {
     "mangled_component_name":"_ZN7android8hardware9BHwBinder11linkToDeathERKNS_2spINS0_7IBinder14DeathRecipientEEEPvj"
    },
    {
     "mangled_component_name":"_ZN7android8hardware9BHwBinder13unlinkToDeathERKNS_2wpINS0_7IBinder14DeathRecipientEEEPvjPS5_"
    },
    {
     "mangled_component_name":"_ZNK7android8hardware7IBinder13checkSubclassEPKv"
    },
    {
     "mangled_component_name":"_ZN7android8hardware9BHwBinder12attachObjectEPKvPvS4_PFvS3_S4_S4_E"
    },
    {
     "mangled_component_name":"_ZNK7android8hardware9BHwBinder10findObjectEPKv"
    },
    {
     "mangled_component_name":"_ZN7android8hardware9BHwBinder12detachObjectEPKv"
    },
    {
     "mangled_component_name":"_ZN7android8hardware9BHwBinder11localBinderEv"
    },
    {
     "mangled_component_name":"_ZN7android8hardware7IBinder12remoteBinderEv"
    },
    {
     "kind":"complete_dtor_pointer",
     "mangled_component_name":"_ZN7android4hidl7manager4V1_018BnHwServiceManagerD1Ev"
    },
    {
     "kind":"deleting_dtor_pointer",
     "mangled_component_name":"_ZN7android4hidl7manager4V1_018BnHwServiceManagerD0Ev"
    },
    {
     "mangled_component_name":"_ZN7android4hidl7manager4V1_018BnHwServiceManager10onTransactEjRKNS_8hardware6ParcelEPS5_jNSt3__18functionIFvRS5_EEE"
    },
    {
     "kind":"offset_to_top",
     "component_value":-20
    },
    {
     "kind":"rtti",
     "mangled_component_name":"_ZTIN7android4hidl7manager4V1_018BnHwServiceManagerE"
    },
    {
     "kind":"complete_dtor_pointer",
     "mangled_component_name":"_ZThn20_N7android4hidl7manager4V1_018BnHwServiceManagerD1Ev"
    },
    {
     "kind":"deleting_dtor_pointer",
     "mangled_component_name":"_ZThn20_N7android4hidl7manager4V1_018BnHwServiceManagerD0Ev"
    },
    {
     "kind":"vcall_offset"
    },
    {
     "kind":"vcall_offset"
    },
    {
     "kind":"vcall_offset"
    },
    {
     "kind":"vcall_offset"
    },
    {
     "kind":"vcall_offset",
     "component_value":-72
    },
    {
     "kind":"offset_to_top",
     "component_value":-72
    },
    {
     "kind":"rtti",
     "mangled_component_name":"_ZTIN7android4hidl7manager4V1_018BnHwServiceManagerE"
    },
    {
     "kind":"complete_dtor_pointer",
     "mangled_component_name":"_ZTv0_n12_N7android4hidl7manager4V1_018BnHwServiceManagerD1Ev"
    },
    {
     "kind":"deleting_dtor_pointer",
     "mangled_component_name":"_ZTv0_n12_N7android4hidl7manager4V1_018BnHwServiceManagerD0Ev"
    },
    {
     "mangled_component_name":"_ZN7android7RefBase10onFirstRefEv"
    },
    {
     "mangled_component_name":"_ZN7android7RefBase15onLastStrongRefEPKv"
    },
    {
     "mangled_component_name":"_ZN7android7RefBase20onIncStrongAttemptedEjPKv"
    },
    {
     "mangled_component_name":"_ZN7android7RefBase13onLastWeakRefEPKv"
    }
   ],
   "unique_id":"_ZTSN7android4hidl7manager4V1_018BnHwServiceManagerE"
  },
  {
   "vtable_components":[
    {
     "kind":"vbase_offset",
     "component_value":84
    },
    {
     "kind":"offset_to_top"
    },
    {
     "kind":"rtti",
     "mangled_component_name":"_ZTIN7android4hidl7manager4V1_018BpHwServiceManagerE"
    },
    {
     "mangled_component_name":"_ZNK7android4hidl7manager4V1_018BpHwServiceManager8isRemoteEv"
    },
    {
     "mangled_component_name":"_ZN7android4hidl7manager4V1_018BpHwServiceManager14interfaceChainENSt3__18functionIFvRKNS_8hardware8hidl_vecINS6_11hidl_stringEEEEEE"
    },
    {
     "mangled_component_name":"_ZN7android4hidl7manager4V1_018BpHwServiceManager5debugERKNS_8hardware11hidl_handleERKNS4_8hidl_vecINS4_11hidl_stringEEE"
    },
    {
     "mangled_component_name":"_ZN7android4hidl7manager4V1_018BpHwServiceManager19interfaceDescriptorENSt3__18functionIFvRKNS_8hardware11hidl_stringEEEE"
    },
    {
     "mangled_component_name":"_ZN7android4hidl7manager4V1_018BpHwServiceManager12getHashChainENSt3__18functionIFvRKNS_8hardware8hidl_vecINS6_10hidl_arrayIhLj32EJEEEEEEEE"
    },
    {
     "mangled_component_name":"_ZN7android4hidl7manager4V1_018BpHwServiceManager21setHALInstrumentationEv"
    },
    {
     "mangled_component_name":"_ZN7android4hidl7manager4V1_018BpHwServiceManager11linkToDeathERKNS_2spINS_8hardware20hidl_death_recipientEEEy"
    },
    {
     "mangled_component_name":"_ZN7android4hidl7manager4V1_018BpHwServiceManager4pingEv"
    },
    {
     "mangled_component_name":"_ZN7android4hidl7manager4V1_018BpHwServiceManager12getDebugInfoENSt3__18functionIFvRKNS0_4base4V1_09DebugInfoEEEE"
    },
    {
     "mangled_component_name":"_ZN7android4hidl7manager4V1_018BpHwServiceManager21notifySyspropsChangedEv"
    },
    {
     "mangled_component_name":"_ZN7android4hidl7manager4V1_018BpHwServiceManager13unlinkToDeathERKNS_2spINS_8hardware20hidl_death_recipientEEE"
    },
    {
     "kind":"complete_dtor_pointer",
     "mangled_component_name":"_ZN7android4hidl7manager4V1_018BpHwServiceManagerD1Ev"
    },
    {
     "kind":"deleting_dtor_pointer",
     "mangled_component_name":"_ZN7android4hidl7manager4V1_018BpHwServiceManagerD0Ev"
    },
    {
     "mangled_component_name":"_ZN7android4hidl7manager4V1_018BpHwServiceManager3getERKNS_8hardware11hidl_stringES7_"
    },
    {
     "mangled_component_name":"_ZN7android4hidl7manager4V1_018BpHwServiceManager3addERKNS_8hardware11hidl_stringERKNS_2spINS0_4base4V1_05IBaseEEE"
    },
    {
     "mangled_component_name":"_ZN7android4hidl7manager4V1_018BpHwServiceManager12getTransportERKNS_8hardware11hidl_stringES7_"
    },
    {
     "mangled_component_name":"_ZN7android4hidl7manager4V1_018BpHwServiceManager4listENSt3__18functionIFvRKNS_8hardware8hidl_vecINS6_11hidl_stringEEEEEE"
    },
    {
     "mangled_component_name":"_ZN7android4hidl7manager4V1_018BpHwServiceManager15listByInterfaceERKNS_8hardware11hidl_stringENSt3__18functionIFvRKNS4_8hidl_vecIS5_EEEEE"
    },
    {
     "mangled_component_name":"_ZN7android4hidl7manager4V1_018BpHwServiceManager24registerForNotificationsERKNS_8hardware11hidl_stringES7_RKNS_2spINS2_20IServiceNotificationEEE"
    },
    {
     "mangled_component_name":"_ZN7android4hidl7manager4V1_018BpHwServiceManager9debugDumpENSt3__18functionIFvRKNS_8hardware8hidl_vecINS2_15IServiceManager17InstanceDebugInfoEEEEEE"
    },
    {
     "mangled_component_name":"_ZN7android4hidl7manager4V1_018BpHwServiceManager25registerPassthroughClientERKNS_8hardware11hidl_stringES7_"
    },
    {
     "mangled_component_name":"_ZN7android8hardware11BpInterfaceINS_4hidl7manager4V1_015IServiceManagerEE10onAsBinderEv"
    },
    {
     "kind":"vbase_offset",
     "component_value":80
    },
    {
     "kind":"offset_to_top",
     "component_value":-4
    },
    {
     "kind":"rtti",
     "mangled_component_name":"_ZTIN7android4hidl7manager4V1_018BpHwServiceManagerE"
    },
    {
     "kind":"complete_dtor_pointer",
     "mangled_component_name":"_ZThn4_N7android4hidl7manager4V1_018BpHwServiceManagerD1Ev"
    },
    {
     "kind":"deleting_dtor_pointer",
     "mangled_component_name":"_ZThn4_N7android4hidl7manager4V1_018BpHwServiceManagerD0Ev"
    },
    {
     "mangled_component_name":"_ZThn4_N7android8hardware11BpInterfaceINS_4hidl7manager4V1_015IServiceManagerEE10onAsBinderEv"
    },
    {
     "kind":"vbase_offset",
     "component_value":76
    },
    {
     "kind":"offset_to_top",
     "component_value":-8
    },
    {
     "kind":"rtti",
     "mangled_component_name":"_ZTIN7android4hidl7manager4V1_018BpHwServiceManagerE"
    },
    {
     "kind":"complete_dtor_pointer",
     "mangled_component_name":"_ZThn8_N7android4hidl7manager4V1_018BpHwServiceManagerD1Ev"
    },
    {
     "kind":"deleting_dtor_pointer",
     "mangled_component_name":"_ZThn8_N7android4hidl7manager4V1_018BpHwServiceManagerD0Ev"
    },
    {
     "mangled_component_name":"_ZN7android8hardware11BpHwRefBase10onFirstRefEv"
    },
    {
     "mangled_component_name":"_ZN7android8hardware11BpHwRefBase15onLastStrongRefEPKv"
    },
    {
     "mangled_component_name":"_ZN7android8hardware11BpHwRefBase20onIncStrongAttemptedEjPKv"
    },
    {
     "kind":"offset_to_top",
     "component_value":-24
    },
    {
     "kind":"rtti",
     "mangled_component_name":"_ZTIN7android4hidl7manager4V1_018BpHwServiceManagerE"
    },
    {
     "kind":"complete_dtor_pointer",
     "mangled_component_name":"_ZThn24_N7android4hidl7manager4V1_018BpHwServiceManagerD1Ev"
    },
    {
     "kind":"deleting_dtor_pointer",
     "mangled_component_name":"_ZThn24_N7android4hidl7manager4V1_018BpHwServiceManagerD0Ev"
    },
    {
     "kind":"vcall_offset"
    },
    {
     "kind":"vcall_offset",
     "component_value":-76
    },
    {
     "kind":"vcall_offset",
     "component_value":-76
    },
    {
     "kind":"vcall_offset",
     "component_value":-76
    },
    {
     "kind":"vcall_offset",
     "component_value":-84
    },
    {
     "kind":"offset_to_top",
     "component_value":-84
    },
    {
     "kind":"rtti",
     "mangled_component_name":"_ZTIN7android4hidl7manager4V1_018BpHwServiceManagerE"
    },
    {
     "kind":"complete_dtor_pointer",
     "mangled_component_name":"_ZTv0_n12_N7android4hidl7manager4V1_018BpHwServiceManagerD1Ev"
    },
    {
     "kind":"deleting_dtor_pointer",
     "mangled_component_name":"_ZTv0_n12_N7android4hidl7manager4V1_018BpHwServiceManagerD0Ev"
    },
    {
     "mangled_component_name":"_ZTv0_n16_N7android8hardware11BpHwRefBase10onFirstRefEv"
    },
    {
     "mangled_component_name":"_ZTv0_n20_N7android8hardware11BpHwRefBase15onLastStrongRefEPKv"
    },
    {
     "mangled_component_name":"_ZTv0_n24_N7android8hardware11BpHwRefBase20onIncStrongAttemptedEjPKv"
    },
    {
     "mangled_component_name":"_ZN7android7RefBase13onLastWeakRefEPKv"
    }
   ],
   "unique_id":"_ZTSN7android4hidl7manager4V1_018BpHwServiceManagerE"
  },
  {
   "vtable_components":[
    {
     "kind":"vbase_offset",
     "component_value":84
    },
    {
     "kind":"offset_to_top"
    },
    {
     "kind":"rtti",
     "mangled_component_name":"_ZTIN7android4hidl7manager4V1_118BpHwServiceManagerE"
    },
    {
     "mangled_component_name":"_ZNK7android4hidl7manager4V1_118BpHwServiceManager8isRemoteEv"
    },
    {
     "mangled_component_name":"_ZN7android4hidl7manager4V1_118BpHwServiceManager14interfaceChainENSt3__18functionIFvRKNS_8hardware8hidl_vecINS6_11hidl_stringEEEEEE"
    },
    {
     "mangled_component_name":"_ZN7android4hidl7manager4V1_118BpHwServiceManager5debugERKNS_8hardware11hidl_handleERKNS4_8hidl_vecINS4_11hidl_stringEEE"
    },
    {
     "mangled_component_name":"_ZN7android4hidl7manager4V1_118BpHwServiceManager19interfaceDescriptorENSt3__18functionIFvRKNS_8hardware11hidl_stringEEEE"
    },
    {
     "mangled_component_name":"_ZN7android4hidl7manager4V1_118BpHwServiceManager12getHashChainENSt3__18functionIFvRKNS_8hardware8hidl_vecINS6_10hidl_arrayIhLj32EJEEEEEEEE"
    },
    {
     "mangled_component_name":"_ZN7android4hidl7manager4V1_118BpHwServiceManager21setHALInstrumentationEv"
    },
    {
     "mangled_component_name":"_ZN7android4hidl7manager4V1_118BpHwServiceManager11linkToDeathERKNS_2spINS_8hardware20hidl_death_recipientEEEy"
    },
    {
     "mangled_component_name":"_ZN7android4hidl7manager4V1_118BpHwServiceManager4pingEv"
    },
    {
     "mangled_component_name":"_ZN7android4hidl7manager4V1_118BpHwServiceManager12getDebugInfoENSt3__18functionIFvRKNS0_4base4V1_09DebugInfoEEEE"
    },
    {
     "mangled_component_name":"_ZN7android4hidl7manager4V1_118BpHwServiceManager21notifySyspropsChangedEv"
    },
    {
     "mangled_component_name":"_ZN7android4hidl7manager4V1_118BpHwServiceManager13unlinkToDeathERKNS_2spINS_8hardware20hidl_death_recipientEEE"
    },
    {
     "kind":"complete_dtor_pointer",
     "mangled_component_name":"_ZN7android4hidl7manager4V1_118BpHwServiceManagerD1Ev"
    },
    {
     "kind":"deleting_dtor_pointer",
     "mangled_component_name":"_ZN7android4hidl7manager4V1_118BpHwServiceManagerD0Ev"
    },
    {
     "mangled_component_name":"_ZN7android4hidl7manager4V1_118BpHwServiceManager3getERKNS_8hardware11hidl_stringES7_"
    },
    {
     "mangled_component_name":"_ZN7android4hidl7manager4V1_118BpHwServiceManager3addERKNS_8hardware11hidl_stringERKNS_2spINS0_4base4V1_05IBaseEEE"
    },
    {
     "mangled_component_name":"_ZN7android4hidl7manager4V1_118BpHwServiceManager12getTransportERKNS_8hardware11hidl_stringES7_"
    },
    {
     "mangled_component_name":"_ZN7android4hidl7manager4V1_118BpHwServiceManager4listENSt3__18functionIFvRKNS_8hardware8hidl_vecINS6_11hidl_stringEEEEEE"
    },
    {
     "mangled_component_name":"_ZN7android4hidl7manager4V1_118BpHwServiceManager15listByInterfaceERKNS_8hardware11hidl_stringENSt3__18functionIFvRKNS4_8hidl_vecIS5_EEEEE"
    },
    {
     "mangled_component_name":"_ZN7android4hidl7manager4V1_118BpHwServiceManager24registerForNotificationsERKNS_8hardware11hidl_stringES7_RKNS_2spINS1_4V1_020IServiceNotificationEEE"
    },
    {
     "mangled_component_name":"_ZN7android4hidl7manager4V1_118BpHwServiceManager9debugDumpENSt3__18functionIFvRKNS_8hardware8hidl_vecINS1_4V1_015IServiceManager17InstanceDebugInfoEEEEEE"
    },
    {
     "mangled_component_name":"_ZN7android4hidl7manager4V1_118BpHwServiceManager25registerPassthroughClientERKNS_8hardware11hidl_stringES7_"
    },
    {
     "mangled_component_name":"_ZN7android4hidl7manager4V1_118BpHwServiceManager26unregisterForNotificationsERKNS_8hardware11hidl_stringES7_RKNS_2spINS1_4V1_020IServiceNotificationEEE"
    },
    {
     "mangled_component_name":"_ZN7android8hardware11BpInterfaceINS_4hidl7manager4V1_115IServiceManagerEE10onAsBinderEv"
    },
    {
     "kind":"vbase_offset",
     "component_value":80
    },
    {
     "kind":"offset_to_top",
     "component_value":-4
    },
    {
     "kind":"rtti",
     "mangled_component_name":"_ZTIN7android4hidl7manager4V1_118BpHwServiceManagerE"
    },
    {
     "kind":"complete_dtor_pointer",
     "mangled_component_name":"_ZThn4_N7android4hidl7manager4V1_118BpHwServiceManagerD1Ev"
    },
    {
     "kind":"deleting_dtor_pointer",
     "mangled_component_name":"_ZThn4_N7android4hidl7manager4V1_118BpHwServiceManagerD0Ev"
    },
    {
     "mangled_component_name":"_ZThn4_N7android8hardware11BpInterfaceINS_4hidl7manager4V1_115IServiceManagerEE10onAsBinderEv"
    },
    {
     "kind":"vbase_offset",
     "component_value":76
    },
    {
     "kind":"offset_to_top",
     "component_value":-8
    },
    {
     "kind":"rtti",
     "mangled_component_name":"_ZTIN7android4hidl7manager4V1_118BpHwServiceManagerE"
    },
    {
     "kind":"complete_dtor_pointer",
     "mangled_component_name":"_ZThn8_N7android4hidl7manager4V1_118BpHwServiceManagerD1Ev"
    },
    {
     "kind":"deleting_dtor_pointer",
     "mangled_component_name":"_ZThn8_N7android4hidl7manager4V1_118BpHwServiceManagerD0Ev"
    },
    {
     "mangled_component_name":"_ZN7android8hardware11BpHwRefBase10onFirstRefEv"
    },
    {
     "mangled_component_name":"_ZN7android8hardware11BpHwRefBase15onLastStrongRefEPKv"
    },
    {
     "mangled_component_name":"_ZN7android8hardware11BpHwRefBase20onIncStrongAttemptedEjPKv"
    },
    {
     "kind":"offset_to_top",
     "component_value":-24
    },
    {
     "kind":"rtti",
     "mangled_component_name":"_ZTIN7android4hidl7manager4V1_118BpHwServiceManagerE"
    },
    {
     "kind":"complete_dtor_pointer",
     "mangled_component_name":"_ZThn24_N7android4hidl7manager4V1_118BpHwServiceManagerD1Ev"
    },
    {
     "kind":"deleting_dtor_pointer",
     "mangled_component_name":"_ZThn24_N7android4hidl7manager4V1_118BpHwServiceManagerD0Ev"
    },
    {
     "kind":"vcall_offset"
    },
    {
     "kind":"vcall_offset",
     "component_value":-76
    },
    {
     "kind":"vcall_offset",
     "component_value":-76
    },
    {
     "kind":"vcall_offset",
     "component_value":-76
    },
    {
     "kind":"vcall_offset",
     "component_value":-84
    },
    {
     "kind":"offset_to_top",
     "component_value":-84
    },
    {
     "kind":"rtti",
     "mangled_component_name":"_ZTIN7android4hidl7manager4V1_118BpHwServiceManagerE"
    },
    {
     "kind":"complete_dtor_pointer",
     "mangled_component_name":"_ZTv0_n12_N7android4hidl7manager4V1_118BpHwServiceManagerD1Ev"
    },
    {
     "kind":"deleting_dtor_pointer",
     "mangled_component_name":"_ZTv0_n12_N7android4hidl7manager4V1_118BpHwServiceManagerD0Ev"
    },
    {
     "mangled_component_name":"_ZTv0_n16_N7android8hardware11BpHwRefBase10onFirstRefEv"
    },
    {
     "mangled_component_name":"_ZTv0_n20_N7android8hardware11BpHwRefBase15onLastStrongRefEPKv"
    },
    {
     "mangled_component_name":"_ZTv0_n24_N7android8hardware11BpHwRefBase20onIncStrongAttemptedEjPKv"
    },
    {
     "mangled_component_name":"_ZN7android7RefBase13onLastWeakRefEPKv"
    }
   ],
   "unique_id":"_ZTSN7android4hidl7manager4V1_118BpHwServiceManagerE"
  }
 ],
 "elf_functions":[
  {
   "binding":"weak",
   "name":"_ZN7android2spINS_4hidl7manager4V1_015IServiceManagerEED2Ev"
  },
  {
   "binding":"weak",
   "name":"_ZN7android2spINS_8hardware25PassthroughServiceManagerEED2Ev"
  },
  {
   "name":"_ZN7android4hidl4base4V1_05IBase11linkToDeathERKNS_2spINS_8hardware20hidl_death_recipientEEEy"
  },
  {
   "name":"_ZN7android4hidl4base4V1_05IBase12getDebugInfoENSt3__18functionIFvRKNS2_9DebugInfoEEEE"
  },
  {
   "name":"_ZN7android4hidl4base4V1_05IBase12getHashChainENSt3__18functionIFvRKNS_8hardware8hidl_vecINS6_10hidl_arrayIhLj32EJEEEEEEEE"
  },
  {
   "name":"_ZN7android4hidl4base4V1_05IBase13unlinkToDeathERKNS_2spINS_8hardware20hidl_death_recipientEEE"
  },
  {
   "name":"_ZN7android4hidl4base4V1_05IBase14interfaceChainENSt3__18functionIFvRKNS_8hardware8hidl_vecINS6_11hidl_stringEEEEEE"
  },
  {
   "name":"_ZN7android4hidl4base4V1_05IBase19interfaceDescriptorENSt3__18functionIFvRKNS_8hardware11hidl_stringEEEE"
  },
  {
   "name":"_ZN7android4hidl4base4V1_05IBase21notifySyspropsChangedEv"
  },
  {
   "name":"_ZN7android4hidl4base4V1_05IBase21setHALInstrumentationEv"
  },
  {
   "name":"_ZN7android4hidl4base4V1_05IBase4pingEv"
  },
  {
   "name":"_ZN7android4hidl4base4V1_05IBase5debugERKNS_8hardware11hidl_handleERKNS4_8hidl_vecINS4_11hidl_stringEEE"
  },
  {
   "name":"_ZN7android4hidl4base4V1_05IBase8castFromERKNS_2spIS3_EEb"
  },
  {
   "name":"_ZN7android4hidl4base4V1_06BsBase13addOnewayTaskENSt3__18functionIFvvEEE"
  },
  {
   "name":"_ZN7android4hidl4base4V1_06BsBaseC1ENS_2spINS2_5IBaseEEE"
  },
  {
   "name":"_ZN7android4hidl4base4V1_06BsBaseC2ENS_2spINS2_5IBaseEEE"
  },
  {
   "name":"_ZN7android4hidl4base4V1_08BnHwBase10_hidl_pingEPS3_RKNS_8hardware6ParcelEPS6_NSt3__18functionIFvRS6_EEE"
  },
  {
   "name":"_ZN7android4hidl4base4V1_08BnHwBase10onTransactEjRKNS_8hardware6ParcelEPS5_jNSt3__18functionIFvRS5_EEE"
  },
  {
   "name":"_ZN7android4hidl4base4V1_08BnHwBase11_hidl_debugEPS3_RKNS_8hardware6ParcelEPS6_NSt3__18functionIFvRS6_EEE"
  },
  {
   "name":"_ZN7android4hidl4base4V1_08BnHwBase12getDebugInfoENSt3__18functionIFvRKNS2_9DebugInfoEEEE"
  },
  {
   "name":"_ZN7android4hidl4base4V1_08BnHwBase18_hidl_getDebugInfoEPS3_RKNS_8hardware6ParcelEPS6_NSt3__18functionIFvRS6_EEE"
  },
  {
   "name":"_ZN7android4hidl4base4V1_08BnHwBase18_hidl_getHashChainEPS3_RKNS_8hardware6ParcelEPS6_NSt3__18functionIFvRS6_EEE"
  },
  {
   "name":"_ZN7android4hidl4base4V1_08BnHwBase20_hidl_interfaceChainEPS3_RKNS_8hardware6ParcelEPS6_NSt3__18functionIFvRS6_EEE"
  },
  {
   "name":"_ZN7android4hidl4base4V1_08BnHwBase25_hidl_interfaceDescriptorEPS3_RKNS_8hardware6ParcelEPS6_NSt3__18functionIFvRS6_EEE"
  },
  {
   "name":"_ZN7android4hidl4base4V1_08BnHwBase27_hidl_notifySyspropsChangedEPS3_RKNS_8hardware6ParcelEPS6_NSt3__18functionIFvRS6_EEE"
  },
  {
   "name":"_ZN7android4hidl4base4V1_08BnHwBase4pingEv"
  },
  {
   "name":"_ZN7android4hidl4base4V1_08BnHwBaseC1ERKNS_2spINS2_5IBaseEEE"
  },
  {
   "name":"_ZN7android4hidl4base4V1_08BnHwBaseC1ERKNS_2spINS2_5IBaseEEERKNSt3__112basic_stringIcNS9_11char_traitsIcEENS9_9allocatorIcEEEESH_"
  },
  {
   "name":"_ZN7android4hidl4base4V1_08BnHwBaseC2ERKNS_2spINS2_5IBaseEEE"
  },
  {
   "name":"_ZN7android4hidl4base4V1_08BnHwBaseC2ERKNS_2spINS2_5IBaseEEERKNSt3__112basic_stringIcNS9_11char_traitsIcEENS9_9allocatorIcEEEESH_"
  },
  {
   "name":"_ZN7android4hidl4base4V1_08BnHwBaseD0Ev"
  },
  {
   "name":"_ZN7android4hidl4base4V1_08BnHwBaseD1Ev"
  },
  {
   "name":"_ZN7android4hidl4base4V1_08BnHwBaseD2Ev"
  },
  {
   "name":"_ZN7android4hidl4base4V1_08BpHwBase10_hidl_pingEPNS_8hardware10IInterfaceEPNS4_7details16HidlInstrumentorE"
  },
  {
   "name":"_ZN7android4hidl4base4V1_08BpHwBase11_hidl_debugEPNS_8hardware10IInterfaceEPNS4_7details16HidlInstrumentorERKNS4_11hidl_handleERKNS4_8hidl_vecINS4_11hidl_stringEEE"
  },
  {
   "name":"_ZN7android4hidl4base4V1_08BpHwBase11linkToDeathERKNS_2spINS_8hardware20hidl_death_recipientEEEy"
  },
  {
   "name":"_ZN7android4hidl4base4V1_08BpHwBase12getDebugInfoENSt3__18functionIFvRKNS2_9DebugInfoEEEE"
  },
  {
   "name":"_ZN7android4hidl4base4V1_08BpHwBase12getHashChainENSt3__18functionIFvRKNS_8hardware8hidl_vecINS6_10hidl_arrayIhLj32EJEEEEEEEE"
  },
  {
   "name":"_ZN7android4hidl4base4V1_08BpHwBase13unlinkToDeathERKNS_2spINS_8hardware20hidl_death_recipientEEE"
  },
  {
   "name":"_ZN7android4hidl4base4V1_08BpHwBase14interfaceChainENSt3__18functionIFvRKNS_8hardware8hidl_vecINS6_11hidl_stringEEEEEE"
  },
  {
   "name":"_ZN7android4hidl4base4V1_08BpHwBase18_hidl_getDebugInfoEPNS_8hardware10IInterfaceEPNS4_7details16HidlInstrumentorENSt3__18functionIFvRKNS2_9DebugInfoEEEE"
  },
  {
   "name":"_ZN7android4hidl4base4V1_08BpHwBase18_hidl_getHashChainEPNS_8hardware10IInterfaceEPNS4_7details16HidlInstrumentorENSt3__18functionIFvRKNS4_8hidl_vecINS4_10hidl_arrayIhLj32EJEEEEEEEE"
  },
  {
   "name":"_ZN7android4hidl4base4V1_08BpHwBase19interfaceDescriptorENSt3__18functionIFvRKNS_8hardware11hidl_stringEEEE"
  },
  {
   "name":"_ZN7android4hidl4base4V1_08BpHwBase20_hidl_interfaceChainEPNS_8hardware10IInterfaceEPNS4_7details16HidlInstrumentorENSt3__18functionIFvRKNS4_8hidl_vecINS4_11hidl_stringEEEEEE"
  },
  {
   "name":"_ZN7android4hidl4base4V1_08BpHwBase21notifySyspropsChangedEv"
  },
  {
   "name":"_ZN7android4hidl4base4V1_08BpHwBase21setHALInstrumentationEv"
  },
  {
   "name":"_ZN7android4hidl4base4V1_08BpHwBase25_hidl_interfaceDescriptorEPNS_8hardware10IInterfaceEPNS4_7details16HidlInstrumentorENSt3__18functionIFvRKNS4_11hidl_stringEEEE"
  },
  {
   "name":"_ZN7android4hidl4base4V1_08BpHwBase27_hidl_notifySyspropsChangedEPNS_8hardware10IInterfaceEPNS4_7details16HidlInstrumentorE"
  },
  {
   "name":"_ZN7android4hidl4base4V1_08BpHwBase27_hidl_setHALInstrumentationEPNS_8hardware10IInterfaceEPNS4_7details16HidlInstrumentorE"
  },
  {
   "name":"_ZN7android4hidl4base4V1_08BpHwBase4pingEv"
  },
  {
   "name":"_ZN7android4hidl4base4V1_08BpHwBase5debugERKNS_8hardware11hidl_handleERKNS4_8hidl_vecINS4_11hidl_stringEEE"
  },
  {
   "name":"_ZN7android4hidl4base4V1_08BpHwBaseC1ERKNS_2spINS_8hardware7IBinderEEE"
  },
  {
   "name":"_ZN7android4hidl4base4V1_08BpHwBaseC2ERKNS_2spINS_8hardware7IBinderEEE"
  },
  {
   "name":"_ZN7android4hidl7manager4V1_015IServiceManager10getServiceERKNSt3__112basic_stringIcNS4_11char_traitsIcEENS4_9allocatorIcEEEEb"
  },
  {
   "name":"_ZN7android4hidl7manager4V1_015IServiceManager11linkToDeathERKNS_2spINS_8hardware20hidl_death_recipientEEEy"
  },
  {
   "name":"_ZN7android4hidl7manager4V1_015IServiceManager12getDebugInfoENSt3__18functionIFvRKNS0_4base4V1_09DebugInfoEEEE"
  },
  {
   "name":"_ZN7android4hidl7manager4V1_015IServiceManager12getHashChainENSt3__18functionIFvRKNS_8hardware8hidl_vecINS6_10hidl_arrayIhLj32EJEEEEEEEE"
  },
  {
   "name":"_ZN7android4hidl7manager4V1_015IServiceManager13tryGetServiceERKNSt3__112basic_stringIcNS4_11char_traitsIcEENS4_9allocatorIcEEEEb"
  },
  {
   "name":"_ZN7android4hidl7manager4V1_015IServiceManager13unlinkToDeathERKNS_2spINS_8hardware20hidl_death_recipientEEE"
  },
  {
   "name":"_ZN7android4hidl7manager4V1_015IServiceManager14interfaceChainENSt3__18functionIFvRKNS_8hardware8hidl_vecINS6_11hidl_stringEEEEEE"
  },
  {
   "name":"_ZN7android4hidl7manager4V1_015IServiceManager17registerAsServiceERKNSt3__112basic_stringIcNS4_11char_traitsIcEENS4_9allocatorIcEEEE"
  },
  {
   "name":"_ZN7android4hidl7manager4V1_015IServiceManager19interfaceDescriptorENSt3__18functionIFvRKNS_8hardware11hidl_stringEEEE"
  },
  {
   "name":"_ZN7android4hidl7manager4V1_015IServiceManager21notifySyspropsChangedEv"
  },
  {
   "name":"_ZN7android4hidl7manager4V1_015IServiceManager21setHALInstrumentationEv"
  },
  {
   "name":"_ZN7android4hidl7manager4V1_015IServiceManager24registerForNotificationsERKNSt3__112basic_stringIcNS4_11char_traitsIcEENS4_9allocatorIcEEEERKNS_2spINS2_20IServiceNotificationEEE"
  },
  {
   "name":"_ZN7android4hidl7manager4V1_015IServiceManager4pingEv"
  },
  {
   "name":"_ZN7android4hidl7manager4V1_015IServiceManager5debugERKNS_8hardware11hidl_handleERKNS4_8hidl_vecINS4_11hidl_stringEEE"
  },
  {
   "name":"_ZN7android4hidl7manager4V1_015IServiceManager8castFromERKNS_2spINS0_4base4V1_05IBaseEEEb"
  },
  {
   "name":"_ZN7android4hidl7manager4V1_015IServiceManager8castFromERKNS_2spIS3_EEb"
  },
  {
   "name":"_ZN7android4hidl7manager4V1_016BsServiceManager13addOnewayTaskENSt3__18functionIFvvEEE"
  },
  {
   "name":"_ZN7android4hidl7manager4V1_016BsServiceManagerC1ENS_2spINS2_15IServiceManagerEEE"
  },
  {
   "name":"_ZN7android4hidl7manager4V1_016BsServiceManagerC2ENS_2spINS2_15IServiceManagerEEE"
  },
  {
   "name":"_ZN7android4hidl7manager4V1_018BnHwServiceManager10_hidl_listEPNS0_4base4V1_08BnHwBaseERKNS_8hardware6ParcelEPS9_NSt3__18functionIFvRS9_EEE"
  },
  {
   "name":"_ZN7android4hidl7manager4V1_018BnHwServiceManager10onTransactEjRKNS_8hardware6ParcelEPS5_jNSt3__18functionIFvRS5_EEE"
  },
  {
   "name":"_ZN7android4hidl7manager4V1_018BnHwServiceManager12getDebugInfoENSt3__18functionIFvRKNS0_4base4V1_09DebugInfoEEEE"
  },
  {
   "name":"_ZN7android4hidl7manager4V1_018BnHwServiceManager15_hidl_debugDumpEPNS0_4base4V1_08BnHwBaseERKNS_8hardware6ParcelEPS9_NSt3__18functionIFvRS9_EEE"
  },
  {
   "name":"_ZN7android4hidl7manager4V1_018BnHwServiceManager18_hidl_getTransportEPNS0_4base4V1_08BnHwBaseERKNS_8hardware6ParcelEPS9_NSt3__18functionIFvRS9_EEE"
  },
  {
   "name":"_ZN7android4hidl7manager4V1_018BnHwServiceManager21_hidl_listByInterfaceEPNS0_4base4V1_08BnHwBaseERKNS_8hardware6ParcelEPS9_NSt3__18functionIFvRS9_EEE"
  },
  {
   "name":"_ZN7android4hidl7manager4V1_018BnHwServiceManager30_hidl_registerForNotificationsEPNS0_4base4V1_08BnHwBaseERKNS_8hardware6ParcelEPS9_NSt3__18functionIFvRS9_EEE"
  },
  {
   "name":"_ZN7android4hidl7manager4V1_018BnHwServiceManager31_hidl_registerPassthroughClientEPNS0_4base4V1_08BnHwBaseERKNS_8hardware6ParcelEPS9_NSt3__18functionIFvRS9_EEE"
  },
  {
   "name":"_ZN7android4hidl7manager4V1_018BnHwServiceManager4pingEv"
  },
  {
   "name":"_ZN7android4hidl7manager4V1_018BnHwServiceManager9_hidl_addEPNS0_4base4V1_08BnHwBaseERKNS_8hardware6ParcelEPS9_NSt3__18functionIFvRS9_EEE"
  },
  {
   "name":"_ZN7android4hidl7manager4V1_018BnHwServiceManager9_hidl_getEPNS0_4base4V1_08BnHwBaseERKNS_8hardware6ParcelEPS9_NSt3__18functionIFvRS9_EEE"
  },
  {
   "name":"_ZN7android4hidl7manager4V1_018BnHwServiceManagerC1ERKNS_2spINS2_15IServiceManagerEEE"
  },
  {
   "name":"_ZN7android4hidl7manager4V1_018BnHwServiceManagerC2ERKNS_2spINS2_15IServiceManagerEEE"
  },
  {
   "name":"_ZN7android4hidl7manager4V1_018BnHwServiceManagerD0Ev"
  },
  {
   "name":"_ZN7android4hidl7manager4V1_018BnHwServiceManagerD1Ev"
  },
  {
   "name":"_ZN7android4hidl7manager4V1_018BnHwServiceManagerD2Ev"
  },
  {
   "name":"_ZN7android4hidl7manager4V1_018BpHwServiceManager10_hidl_listEPNS_8hardware10IInterfaceEPNS4_7details16HidlInstrumentorENSt3__18functionIFvRKNS4_8hidl_vecINS4_11hidl_stringEEEEEE"
  },
  {
   "name":"_ZN7android4hidl7manager4V1_018BpHwServiceManager11linkToDeathERKNS_2spINS_8hardware20hidl_death_recipientEEEy"
  },
  {
   "name":"_ZN7android4hidl7manager4V1_018BpHwServiceManager12getDebugInfoENSt3__18functionIFvRKNS0_4base4V1_09DebugInfoEEEE"
  },
  {
   "name":"_ZN7android4hidl7manager4V1_018BpHwServiceManager12getHashChainENSt3__18functionIFvRKNS_8hardware8hidl_vecINS6_10hidl_arrayIhLj32EJEEEEEEEE"
  },
  {
   "name":"_ZN7android4hidl7manager4V1_018BpHwServiceManager12getTransportERKNS_8hardware11hidl_stringES7_"
  },
  {
   "name":"_ZN7android4hidl7manager4V1_018BpHwServiceManager13unlinkToDeathERKNS_2spINS_8hardware20hidl_death_recipientEEE"
  },
  {
   "name":"_ZN7android4hidl7manager4V1_018BpHwServiceManager14interfaceChainENSt3__18functionIFvRKNS_8hardware8hidl_vecINS6_11hidl_stringEEEEEE"
  },
  {
   "name":"_ZN7android4hidl7manager4V1_018BpHwServiceManager15_hidl_debugDumpEPNS_8hardware10IInterfaceEPNS4_7details16HidlInstrumentorENSt3__18functionIFvRKNS4_8hidl_vecINS2_15IServiceManager17InstanceDebugInfoEEEEEE"
  },
  {
   "name":"_ZN7android4hidl7manager4V1_018BpHwServiceManager15listByInterfaceERKNS_8hardware11hidl_stringENSt3__18functionIFvRKNS4_8hidl_vecIS5_EEEEE"
  },
  {
   "name":"_ZN7android4hidl7manager4V1_018BpHwServiceManager18_hidl_getTransportEPNS_8hardware10IInterfaceEPNS4_7details16HidlInstrumentorERKNS4_11hidl_stringESC_"
  },
  {
   "name":"_ZN7android4hidl7manager4V1_018BpHwServiceManager19interfaceDescriptorENSt3__18functionIFvRKNS_8hardware11hidl_stringEEEE"
  },
  {
   "name":"_ZN7android4hidl7manager4V1_018BpHwServiceManager21_hidl_listByInterfaceEPNS_8hardware10IInterfaceEPNS4_7details16HidlInstrumentorERKNS4_11hidl_stringENSt3__18functionIFvRKNS4_8hidl_vecISA_EEEEE"
  },
  {
   "name":"_ZN7android4hidl7manager4V1_018BpHwServiceManager21notifySyspropsChangedEv"
  },
  {
   "name":"_ZN7android4hidl7manager4V1_018BpHwServiceManager21setHALInstrumentationEv"
  },
  {
   "name":"_ZN7android4hidl7manager4V1_018BpHwServiceManager24registerForNotificationsERKNS_8hardware11hidl_stringES7_RKNS_2spINS2_20IServiceNotificationEEE"
  },
  {
   "name":"_ZN7android4hidl7manager4V1_018BpHwServiceManager25registerPassthroughClientERKNS_8hardware11hidl_stringES7_"
  },
  {
   "name":"_ZN7android4hidl7manager4V1_018BpHwServiceManager30_hidl_registerForNotificationsEPNS_8hardware10IInterfaceEPNS4_7details16HidlInstrumentorERKNS4_11hidl_stringESC_RKNS_2spINS2_20IServiceNotificationEEE"
  },
  {
   "name":"_ZN7android4hidl7manager4V1_018BpHwServiceManager31_hidl_registerPassthroughClientEPNS_8hardware10IInterfaceEPNS4_7details16HidlInstrumentorERKNS4_11hidl_stringESC_"
  },
  {
   "name":"_ZN7android4hidl7manager4V1_018BpHwServiceManager3addERKNS_8hardware11hidl_stringERKNS_2spINS0_4base4V1_05IBaseEEE"
  },
  {
   "name":"_ZN7android4hidl7manager4V1_018BpHwServiceManager3getERKNS_8hardware11hidl_stringES7_"
  },
  {
   "name":"_ZN7android4hidl7manager4V1_018BpHwServiceManager4listENSt3__18functionIFvRKNS_8hardware8hidl_vecINS6_11hidl_stringEEEEEE"
  },
  {
   "name":"_ZN7android4hidl7manager4V1_018BpHwServiceManager4pingEv"
  },
  {
   "name":"_ZN7android4hidl7manager4V1_018BpHwServiceManager5debugERKNS_8hardware11hidl_handleERKNS4_8hidl_vecINS4_11hidl_stringEEE"
  },
  {
   "name":"_ZN7android4hidl7manager4V1_018BpHwServiceManager9_hidl_addEPNS_8hardware10IInterfaceEPNS4_7details16HidlInstrumentorERKNS4_11hidl_stringERKNS_2spINS0_4base4V1_05IBaseEEE"
  },
  {
   "name":"_ZN7android4hidl7manager4V1_018BpHwServiceManager9_hidl_getEPNS_8hardware10IInterfaceEPNS4_7details16HidlInstrumentorERKNS4_11hidl_stringESC_"
  },
  {
   "name":"_ZN7android4hidl7manager4V1_018BpHwServiceManager9debugDumpENSt3__18functionIFvRKNS_8hardware8hidl_vecINS2_15IServiceManager17InstanceDebugInfoEEEEEE"
  },
  {
   "name":"_ZN7android4hidl7manager4V1_018BpHwServiceManagerC1ERKNS_2spINS_8hardware7IBinderEEE"
  },
  {
   "name":"_ZN7android4hidl7manager4V1_018BpHwServiceManagerC2ERKNS_2spINS_8hardware7IBinderEEE"
  },
  {
   "name":"_ZN7android4hidl7manager4V1_020IServiceNotification10getServiceERKNSt3__112basic_stringIcNS4_11char_traitsIcEENS4_9allocatorIcEEEEb"
  },
  {
   "name":"_ZN7android4hidl7manager4V1_020IServiceNotification11linkToDeathERKNS_2spINS_8hardware20hidl_death_recipientEEEy"
  },
  {
   "name":"_ZN7android4hidl7manager4V1_020IServiceNotification12getDebugInfoENSt3__18functionIFvRKNS0_4base4V1_09DebugInfoEEEE"
  },
  {
   "name":"_ZN7android4hidl7manager4V1_020IServiceNotification12getHashChainENSt3__18functionIFvRKNS_8hardware8hidl_vecINS6_10hidl_arrayIhLj32EJEEEEEEEE"
  },
  {
   "name":"_ZN7android4hidl7manager4V1_020IServiceNotification13tryGetServiceERKNSt3__112basic_stringIcNS4_11char_traitsIcEENS4_9allocatorIcEEEEb"
  },
  {
   "name":"_ZN7android4hidl7manager4V1_020IServiceNotification13unlinkToDeathERKNS_2spINS_8hardware20hidl_death_recipientEEE"
  },
  {
   "name":"_ZN7android4hidl7manager4V1_020IServiceNotification14interfaceChainENSt3__18functionIFvRKNS_8hardware8hidl_vecINS6_11hidl_stringEEEEEE"
  },
  {
   "name":"_ZN7android4hidl7manager4V1_020IServiceNotification17registerAsServiceERKNSt3__112basic_stringIcNS4_11char_traitsIcEENS4_9allocatorIcEEEE"
  },
  {
   "name":"_ZN7android4hidl7manager4V1_020IServiceNotification19interfaceDescriptorENSt3__18functionIFvRKNS_8hardware11hidl_stringEEEE"
  },
  {
   "name":"_ZN7android4hidl7manager4V1_020IServiceNotification21notifySyspropsChangedEv"
  },
  {
   "name":"_ZN7android4hidl7manager4V1_020IServiceNotification21setHALInstrumentationEv"
  },
  {
   "name":"_ZN7android4hidl7manager4V1_020IServiceNotification24registerForNotificationsERKNSt3__112basic_stringIcNS4_11char_traitsIcEENS4_9allocatorIcEEEERKNS_2spIS3_EE"
  },
  {
   "name":"_ZN7android4hidl7manager4V1_020IServiceNotification4pingEv"
  },
  {
   "name":"_ZN7android4hidl7manager4V1_020IServiceNotification5debugERKNS_8hardware11hidl_handleERKNS4_8hidl_vecINS4_11hidl_stringEEE"
  },
  {
   "name":"_ZN7android4hidl7manager4V1_020IServiceNotification8castFromERKNS_2spINS0_4base4V1_05IBaseEEEb"
  },
  {
   "name":"_ZN7android4hidl7manager4V1_020IServiceNotification8castFromERKNS_2spIS3_EEb"
  },
  {
   "name":"_ZN7android4hidl7manager4V1_021BsServiceNotification13addOnewayTaskENSt3__18functionIFvvEEE"
  },
  {
   "name":"_ZN7android4hidl7manager4V1_021BsServiceNotificationC1ENS_2spINS2_20IServiceNotificationEEE"
  },
  {
   "name":"_ZN7android4hidl7manager4V1_021BsServiceNotificationC2ENS_2spINS2_20IServiceNotificationEEE"
  },
  {
   "name":"_ZN7android4hidl7manager4V1_021writeEmbeddedToParcelERKNS2_15IServiceManager17InstanceDebugInfoEPNS_8hardware6ParcelEjj"
  },
  {
   "name":"_ZN7android4hidl7manager4V1_022readEmbeddedFromParcelERKNS2_15IServiceManager17InstanceDebugInfoERKNS_8hardware6ParcelEjj"
  },
  {
   "name":"_ZN7android4hidl7manager4V1_023BnHwServiceNotification10onTransactEjRKNS_8hardware6ParcelEPS5_jNSt3__18functionIFvRS5_EEE"
  },
  {
   "name":"_ZN7android4hidl7manager4V1_023BnHwServiceNotification12getDebugInfoENSt3__18functionIFvRKNS0_4base4V1_09DebugInfoEEEE"
  },
  {
   "name":"_ZN7android4hidl7manager4V1_023BnHwServiceNotification20_hidl_onRegistrationEPNS0_4base4V1_08BnHwBaseERKNS_8hardware6ParcelEPS9_NSt3__18functionIFvRS9_EEE"
  },
  {
   "name":"_ZN7android4hidl7manager4V1_023BnHwServiceNotification4pingEv"
  },
  {
   "name":"_ZN7android4hidl7manager4V1_023BnHwServiceNotificationC1ERKNS_2spINS2_20IServiceNotificationEEE"
  },
  {
   "name":"_ZN7android4hidl7manager4V1_023BnHwServiceNotificationC2ERKNS_2spINS2_20IServiceNotificationEEE"
  },
  {
   "name":"_ZN7android4hidl7manager4V1_023BnHwServiceNotificationD0Ev"
  },
  {
   "name":"_ZN7android4hidl7manager4V1_023BnHwServiceNotificationD1Ev"
  },
  {
   "name":"_ZN7android4hidl7manager4V1_023BnHwServiceNotificationD2Ev"
  },
  {
   "name":"_ZN7android4hidl7manager4V1_023BpHwServiceNotification11linkToDeathERKNS_2spINS_8hardware20hidl_death_recipientEEEy"
  },
  {
   "name":"_ZN7android4hidl7manager4V1_023BpHwServiceNotification12getDebugInfoENSt3__18functionIFvRKNS0_4base4V1_09DebugInfoEEEE"
  },
  {
   "name":"_ZN7android4hidl7manager4V1_023BpHwServiceNotification12getHashChainENSt3__18functionIFvRKNS_8hardware8hidl_vecINS6_10hidl_arrayIhLj32EJEEEEEEEE"
  },
  {
   "name":"_ZN7android4hidl7manager4V1_023BpHwServiceNotification13unlinkToDeathERKNS_2spINS_8hardware20hidl_death_recipientEEE"
  },
  {
   "name":"_ZN7android4hidl7manager4V1_023BpHwServiceNotification14interfaceChainENSt3__18functionIFvRKNS_8hardware8hidl_vecINS6_11hidl_stringEEEEEE"
  },
  {
   "name":"_ZN7android4hidl7manager4V1_023BpHwServiceNotification14onRegistrationERKNS_8hardware11hidl_stringES7_b"
  },
  {
   "name":"_ZN7android4hidl7manager4V1_023BpHwServiceNotification19interfaceDescriptorENSt3__18functionIFvRKNS_8hardware11hidl_stringEEEE"
  },
  {
   "name":"_ZN7android4hidl7manager4V1_023BpHwServiceNotification20_hidl_onRegistrationEPNS_8hardware10IInterfaceEPNS4_7details16HidlInstrumentorERKNS4_11hidl_stringESC_b"
  },
  {
   "name":"_ZN7android4hidl7manager4V1_023BpHwServiceNotification21notifySyspropsChangedEv"
  },
  {
   "name":"_ZN7android4hidl7manager4V1_023BpHwServiceNotification21setHALInstrumentationEv"
  },
  {
   "name":"_ZN7android4hidl7manager4V1_023BpHwServiceNotification4pingEv"
  },
  {
   "name":"_ZN7android4hidl7manager4V1_023BpHwServiceNotification5debugERKNS_8hardware11hidl_handleERKNS4_8hidl_vecINS4_11hidl_stringEEE"
  },
  {
   "name":"_ZN7android4hidl7manager4V1_023BpHwServiceNotificationC1ERKNS_2spINS_8hardware7IBinderEEE"
  },
  {
   "name":"_ZN7android4hidl7manager4V1_023BpHwServiceNotificationC2ERKNS_2spINS_8hardware7IBinderEEE"
  },
  {
   "name":"_ZN7android4hidl7manager4V1_115IServiceManager10getServiceERKNSt3__112basic_stringIcNS4_11char_traitsIcEENS4_9allocatorIcEEEEb"
  },
  {
   "name":"_ZN7android4hidl7manager4V1_115IServiceManager11linkToDeathERKNS_2spINS_8hardware20hidl_death_recipientEEEy"
  },
  {
   "name":"_ZN7android4hidl7manager4V1_115IServiceManager12getDebugInfoENSt3__18functionIFvRKNS0_4base4V1_09DebugInfoEEEE"
  },
  {
   "name":"_ZN7android4hidl7manager4V1_115IServiceManager12getHashChainENSt3__18functionIFvRKNS_8hardware8hidl_vecINS6_10hidl_arrayIhLj32EJEEEEEEEE"
  },
  {
   "name":"_ZN7android4hidl7manager4V1_115IServiceManager13tryGetServiceERKNSt3__112basic_stringIcNS4_11char_traitsIcEENS4_9allocatorIcEEEEb"
  },
  {
   "name":"_ZN7android4hidl7manager4V1_115IServiceManager13unlinkToDeathERKNS_2spINS_8hardware20hidl_death_recipientEEE"
  },
  {
   "name":"_ZN7android4hidl7manager4V1_115IServiceManager14interfaceChainENSt3__18functionIFvRKNS_8hardware8hidl_vecINS6_11hidl_stringEEEEEE"
  },
  {
   "name":"_ZN7android4hidl7manager4V1_115IServiceManager17registerAsServiceERKNSt3__112basic_stringIcNS4_11char_traitsIcEENS4_9allocatorIcEEEE"
  },
  {
   "name":"_ZN7android4hidl7manager4V1_115IServiceManager19interfaceDescriptorENSt3__18functionIFvRKNS_8hardware11hidl_stringEEEE"
  },
  {
   "name":"_ZN7android4hidl7manager4V1_115IServiceManager21notifySyspropsChangedEv"
  },
  {
   "name":"_ZN7android4hidl7manager4V1_115IServiceManager21setHALInstrumentationEv"
  },
  {
   "name":"_ZN7android4hidl7manager4V1_115IServiceManager24registerForNotificationsERKNSt3__112basic_stringIcNS4_11char_traitsIcEENS4_9allocatorIcEEEERKNS_2spINS1_4V1_020IServiceNotificationEEE"
  },
  {
   "name":"_ZN7android4hidl7manager4V1_115IServiceManager4pingEv"
  },
  {
   "name":"_ZN7android4hidl7manager4V1_115IServiceManager5debugERKNS_8hardware11hidl_handleERKNS4_8hidl_vecINS4_11hidl_stringEEE"
  },
  {
   "name":"_ZN7android4hidl7manager4V1_115IServiceManager8castFromERKNS_2spINS0_4base4V1_05IBaseEEEb"
  },
  {
   "name":"_ZN7android4hidl7manager4V1_115IServiceManager8castFromERKNS_2spINS1_4V1_015IServiceManagerEEEb"
  },
  {
   "name":"_ZN7android4hidl7manager4V1_115IServiceManager8castFromERKNS_2spIS3_EEb"
  },
  {
   "name":"_ZN7android4hidl7manager4V1_116BsServiceManager13addOnewayTaskENSt3__18functionIFvvEEE"
  },
  {
   "name":"_ZN7android4hidl7manager4V1_116BsServiceManagerC1ENS_2spINS2_15IServiceManagerEEE"
  },
  {
   "name":"_ZN7android4hidl7manager4V1_116BsServiceManagerC2ENS_2spINS2_15IServiceManagerEEE"
  },
  {
   "name":"_ZN7android4hidl7manager4V1_118BnHwServiceManager10onTransactEjRKNS_8hardware6ParcelEPS5_jNSt3__18functionIFvRS5_EEE"
  },
  {
   "name":"_ZN7android4hidl7manager4V1_118BnHwServiceManager12getDebugInfoENSt3__18functionIFvRKNS0_4base4V1_09DebugInfoEEEE"
  },
  {
   "name":"_ZN7android4hidl7manager4V1_118BnHwServiceManager32_hidl_unregisterForNotificationsEPNS0_4base4V1_08BnHwBaseERKNS_8hardware6ParcelEPS9_NSt3__18functionIFvRS9_EEE"
  },
  {
   "name":"_ZN7android4hidl7manager4V1_118BnHwServiceManager4pingEv"
  },
  {
   "name":"_ZN7android4hidl7manager4V1_118BnHwServiceManagerC1ERKNS_2spINS2_15IServiceManagerEEE"
  },
  {
   "name":"_ZN7android4hidl7manager4V1_118BnHwServiceManagerC2ERKNS_2spINS2_15IServiceManagerEEE"
  },
  {
   "name":"_ZN7android4hidl7manager4V1_118BnHwServiceManagerD0Ev"
  },
  {
   "name":"_ZN7android4hidl7manager4V1_118BnHwServiceManagerD1Ev"
  },
  {
   "name":"_ZN7android4hidl7manager4V1_118BnHwServiceManagerD2Ev"
  },
  {
   "name":"_ZN7android4hidl7manager4V1_118BpHwServiceManager11linkToDeathERKNS_2spINS_8hardware20hidl_death_recipientEEEy"
  },
  {
   "name":"_ZN7android4hidl7manager4V1_118BpHwServiceManager12getDebugInfoENSt3__18functionIFvRKNS0_4base4V1_09DebugInfoEEEE"
  },
  {
   "name":"_ZN7android4hidl7manager4V1_118BpHwServiceManager12getHashChainENSt3__18functionIFvRKNS_8hardware8hidl_vecINS6_10hidl_arrayIhLj32EJEEEEEEEE"
  },
  {
   "name":"_ZN7android4hidl7manager4V1_118BpHwServiceManager12getTransportERKNS_8hardware11hidl_stringES7_"
  },
  {
   "name":"_ZN7android4hidl7manager4V1_118BpHwServiceManager13unlinkToDeathERKNS_2spINS_8hardware20hidl_death_recipientEEE"
  },
  {
   "name":"_ZN7android4hidl7manager4V1_118BpHwServiceManager14interfaceChainENSt3__18functionIFvRKNS_8hardware8hidl_vecINS6_11hidl_stringEEEEEE"
  },
  {
   "name":"_ZN7android4hidl7manager4V1_118BpHwServiceManager15listByInterfaceERKNS_8hardware11hidl_stringENSt3__18functionIFvRKNS4_8hidl_vecIS5_EEEEE"
  },
  {
   "name":"_ZN7android4hidl7manager4V1_118BpHwServiceManager19interfaceDescriptorENSt3__18functionIFvRKNS_8hardware11hidl_stringEEEE"
  },
  {
   "name":"_ZN7android4hidl7manager4V1_118BpHwServiceManager21notifySyspropsChangedEv"
  },
  {
   "name":"_ZN7android4hidl7manager4V1_118BpHwServiceManager21setHALInstrumentationEv"
  },
  {
   "name":"_ZN7android4hidl7manager4V1_118BpHwServiceManager24registerForNotificationsERKNS_8hardware11hidl_stringES7_RKNS_2spINS1_4V1_020IServiceNotificationEEE"
  },
  {
   "name":"_ZN7android4hidl7manager4V1_118BpHwServiceManager25registerPassthroughClientERKNS_8hardware11hidl_stringES7_"
  },
  {
   "name":"_ZN7android4hidl7manager4V1_118BpHwServiceManager26unregisterForNotificationsERKNS_8hardware11hidl_stringES7_RKNS_2spINS1_4V1_020IServiceNotificationEEE"
  },
  {
   "name":"_ZN7android4hidl7manager4V1_118BpHwServiceManager32_hidl_unregisterForNotificationsEPNS_8hardware10IInterfaceEPNS4_7details16HidlInstrumentorERKNS4_11hidl_stringESC_RKNS_2spINS1_4V1_020IServiceNotificationEEE"
  },
  {
   "name":"_ZN7android4hidl7manager4V1_118BpHwServiceManager3addERKNS_8hardware11hidl_stringERKNS_2spINS0_4base4V1_05IBaseEEE"
  },
  {
   "name":"_ZN7android4hidl7manager4V1_118BpHwServiceManager3getERKNS_8hardware11hidl_stringES7_"
  },
  {
   "name":"_ZN7android4hidl7manager4V1_118BpHwServiceManager4listENSt3__18functionIFvRKNS_8hardware8hidl_vecINS6_11hidl_stringEEEEEE"
  },
  {
   "name":"_ZN7android4hidl7manager4V1_118BpHwServiceManager4pingEv"
  },
  {
   "name":"_ZN7android4hidl7manager4V1_118BpHwServiceManager5debugERKNS_8hardware11hidl_handleERKNS4_8hidl_vecINS4_11hidl_stringEEE"
  },
  {
   "name":"_ZN7android4hidl7manager4V1_118BpHwServiceManager9debugDumpENSt3__18functionIFvRKNS_8hardware8hidl_vecINS1_4V1_015IServiceManager17InstanceDebugInfoEEEEEE"
  },
  {
   "name":"_ZN7android4hidl7manager4V1_118BpHwServiceManagerC1ERKNS_2spINS_8hardware7IBinderEEE"
  },
  {
   "name":"_ZN7android4hidl7manager4V1_118BpHwServiceManagerC2ERKNS_2spINS_8hardware7IBinderEEE"
  },
  {
   "binding":"weak",
   "name":"_ZN7android8hardware10fromBinderINS_4hidl4base4V1_05IBaseENS4_8BpHwBaseENS4_8BnHwBaseEEENS_2spIT_EERKNS8_INS0_7IBinderEEE"
  },
  {
   "binding":"weak",
   "name":"_ZN7android8hardware10fromBinderINS_4hidl7manager4V1_020IServiceNotificationENS4_23BpHwServiceNotificationENS4_23BnHwServiceNotificationEEENS_2spIT_EERKNS8_INS0_7IBinderEEE"
  },
  {
   "binding":"weak",
   "name":"_ZN7android8hardware10fromBinderINS_4hidl7manager4V1_115IServiceManagerENS4_18BpHwServiceManagerENS4_18BnHwServiceManagerEEENS_2spIT_EERKNS8_INS0_7IBinderEEE"
  },
  {
   "name":"_ZN7android8hardware13writeToParcelERKNS0_12hidl_versionERNS0_6ParcelE"
  },
  {
   "name":"_ZN7android8hardware13writeToParcelERKNS0_6StatusEPNS0_6ParcelE"
  },
  {
   "name":"_ZN7android8hardware14readFromParcelEPNS0_6StatusERKNS0_6ParcelE"
  },
  {
   "name":"_ZN7android8hardware14readFromParcelERKNS0_6ParcelE"
  },
  {
   "name":"_ZN7android8hardware16handleBinderPollEv"
  },
  {
   "name":"_ZN7android8hardware16setRequestingSidERKNS_2spINS_4hidl4base4V1_05IBaseEEEb"
  },
  {
   "name":"_ZN7android8hardware17joinRpcThreadpoolEv"
  },
  {
   "name":"_ZN7android8hardware18setupBinderPollingEv"
  },
  {
   "name":"_ZN7android8hardware19handleTransportPollEi"
  },
  {
   "name":"_ZN7android8hardware21defaultServiceManagerEv"
  },
  {
   "name":"_ZN7android8hardware21setMinSchedulerPolicyERKNS_2spINS_4hidl4base4V1_05IBaseEEEii"
  },
  {
   "name":"_ZN7android8hardware21setupTransportPollingEv"
  },
  {
   "name":"_ZN7android8hardware21writeEmbeddedToParcelERKNS0_11hidl_memoryEPNS0_6ParcelEjj"
  },
  {
   "name":"_ZN7android8hardware21writeEmbeddedToParcelERKNS0_11hidl_stringEPNS0_6ParcelEjj"
  },
  {
   "name":"_ZN7android8hardware22configureRpcThreadpoolEjb"
  },
  {
   "name":"_ZN7android8hardware22readEmbeddedFromParcelERKNS0_11hidl_memoryERKNS0_6ParcelEjj"
  },
  {
   "name":"_ZN7android8hardware22readEmbeddedFromParcelERKNS0_11hidl_stringERKNS0_6ParcelEjj"
  },
  {
   "name":"_ZN7android8hardware23joinBinderRpcThreadpoolEv"
  },
  {
   "name":"_ZN7android8hardware24defaultServiceManager1_1Ev"
  },
  {
   "name":"_ZN7android8hardware27hidl_binder_death_recipient10binderDiedERKNS_2wpINS0_7IBinderEEE"
  },
  {
   "name":"_ZN7android8hardware27hidl_binder_death_recipient12getRecipientEv"
  },
  {
   "name":"_ZN7android8hardware27hidl_binder_death_recipientC1ERKNS_2spINS0_20hidl_death_recipientEEEyRKNS2_INS_4hidl4base4V1_05IBaseEEE"
  },
  {
   "name":"_ZN7android8hardware27hidl_binder_death_recipientC2ERKNS_2spINS0_20hidl_death_recipientEEEyRKNS2_INS_4hidl4base4V1_05IBaseEEE"
  },
  {
   "name":"_ZN7android8hardware28configureBinderRpcThreadpoolEjb"
  },
  {
   "name":"_ZN7android8hardware28getPassthroughServiceManagerEv"
  },
  {
   "name":"_ZN7android8hardware31getPassthroughServiceManager1_1Ev"
  },
  {
   "binding":"weak",
   "name":"_ZN7android8hardware7details13castInterfaceINS_4hidl7manager4V1_015IServiceManagerENS3_4base4V1_05IBaseENS5_18BpHwServiceManagerEEENS0_6ReturnINS_2spIT_EEEENSC_IT0_EEPKcb"
  },
  {
   "binding":"weak",
   "name":"_ZN7android8hardware7details13castInterfaceINS_4hidl7manager4V1_020IServiceNotificationENS3_4base4V1_05IBaseENS5_23BpHwServiceNotificationEEENS0_6ReturnINS_2spIT_EEEENSC_IT0_EEPKcb"
  },
  {
   "binding":"weak",
   "name":"_ZN7android8hardware7details13castInterfaceINS_4hidl7manager4V1_115IServiceManagerENS3_4base4V1_05IBaseENS5_18BpHwServiceManagerEEENS0_6ReturnINS_2spIT_EEEENSC_IT0_EEPKcb"
  },
  {
   "binding":"weak",
   "name":"_ZN7android8hardware7details13castInterfaceINS_4hidl7manager4V1_115IServiceManagerENS4_4V1_015IServiceManagerENS5_18BpHwServiceManagerEEENS0_6ReturnINS_2spIT_EEEENSB_IT0_EEPKcb"
  },
  {
   "name":"_ZN7android8hardware7details13getDescriptorEPNS_4hidl4base4V1_05IBaseE"
  },
  {
   "name":"_ZN7android8hardware7details14onRegistrationERKNSt3__112basic_stringIcNS2_11char_traitsIcEENS2_9allocatorIcEEEESA_SA_"
  },
  {
   "binding":"weak",
   "name":"_ZN7android8hardware7details15wrapPassthroughINS_4hidl4base4V1_05IBaseEvEENS_2spIT_EES9_"
  },
  {
   "binding":"weak",
   "name":"_ZN7android8hardware7details15wrapPassthroughINS_4hidl7manager4V1_020IServiceNotificationEvEENS_2spIT_EES9_"
  },
  {
   "name":"_ZN7android8hardware7details16canCastInterfaceEPNS_4hidl4base4V1_05IBaseEPKcb"
  },
  {
   "name":"_ZN7android8hardware7details16getPidIfSharableEv"
  },
  {
   "name":"_ZN7android8hardware7details16waitForHwServiceERKNSt3__112basic_stringIcNS2_11char_traitsIcEENS2_9allocatorIcEEEESA_"
  },
  {
   "binding":"weak",
   "name":"_ZN7android8hardware7details18getServiceInternalINS_4hidl7manager4V1_018BpHwServiceManagerENS5_15IServiceManagerEvvEENS_2spIT0_EERKNSt3__112basic_stringIcNSB_11char_traitsIcEENSB_9allocatorIcEEEEbb"
  },
  {
   "binding":"weak",
   "name":"_ZN7android8hardware7details18getServiceInternalINS_4hidl7manager4V1_023BpHwServiceNotificationENS5_20IServiceNotificationEvvEENS_2spIT0_EERKNSt3__112basic_stringIcNSB_11char_traitsIcEENSB_9allocatorIcEEEEbb"
  },
  {
   "binding":"weak",
   "name":"_ZN7android8hardware7details18getServiceInternalINS_4hidl7manager4V1_118BpHwServiceManagerENS5_15IServiceManagerEvvEENS_2spIT0_EERKNSt3__112basic_stringIcNSB_11char_traitsIcEENSB_9allocatorIcEEEEbb"
  },
  {
   "name":"_ZN7android8hardware7details19getBnConstructorMapEv"
  },
  {
   "name":"_ZN7android8hardware7details19getBsConstructorMapEv"
  },
  {
   "name":"_ZN7android8hardware7details21getRawServiceInternalERKNSt3__112basic_stringIcNS2_11char_traitsIcEENS2_9allocatorIcEEEESA_bb"
  },
  {
   "name":"_ZN7android8hardware7details23wrapPassthroughInternalENS_2spINS_4hidl4base4V1_05IBaseEEE"
  },
  {
   "name":"_ZN7android8hardware7details25preloadPassthroughServiceERKNSt3__112basic_stringIcNS2_11char_traitsIcEENS2_9allocatorIcEEEE"
  },
  {
   "binding":"weak",
   "name":"_ZN7android8hardware8toBinderINS_4hidl4base4V1_05IBaseEvEENS_2spINS0_7IBinderEEENS6_IT_EE"
  },
  {
   "binding":"weak",
   "name":"_ZN7android8hardware8toBinderINS_4hidl7manager4V1_015IServiceManagerEvEENS_2spINS0_7IBinderEEENS6_IT_EE"
  },
  {
   "binding":"weak",
   "name":"_ZN7android8hardware8toBinderINS_4hidl7manager4V1_020IServiceNotificationEvEENS_2spINS0_7IBinderEEENS6_IT_EE"
  },
  {
   "name":"_ZThn20_N7android4hidl4base4V1_08BnHwBaseD0Ev"
  },
  {
   "name":"_ZThn20_N7android4hidl4base4V1_08BnHwBaseD1Ev"
  },
  {
   "name":"_ZThn20_N7android4hidl7manager4V1_018BnHwServiceManagerD0Ev"
  },
  {
   "name":"_ZThn20_N7android4hidl7manager4V1_018BnHwServiceManagerD1Ev"
  },
  {
   "name":"_ZThn20_N7android4hidl7manager4V1_023BnHwServiceNotificationD0Ev"
  },
  {
   "name":"_ZThn20_N7android4hidl7manager4V1_023BnHwServiceNotificationD1Ev"
  },
  {
   "name":"_ZThn20_N7android4hidl7manager4V1_118BnHwServiceManagerD0Ev"
  },
  {
   "name":"_ZThn20_N7android4hidl7manager4V1_118BnHwServiceManagerD1Ev"
  },
  {
   "name":"_ZTv0_n12_N7android4hidl4base4V1_08BnHwBaseD0Ev"
  },
  {
   "name":"_ZTv0_n12_N7android4hidl4base4V1_08BnHwBaseD1Ev"
  },
  {
   "name":"_ZTv0_n12_N7android4hidl7manager4V1_018BnHwServiceManagerD0Ev"
  },
  {
   "name":"_ZTv0_n12_N7android4hidl7manager4V1_018BnHwServiceManagerD1Ev"
  },
  {
   "name":"_ZTv0_n12_N7android4hidl7manager4V1_023BnHwServiceNotificationD0Ev"
  },
  {
   "name":"_ZTv0_n12_N7android4hidl7manager4V1_023BnHwServiceNotificationD1Ev"
  },
  {
   "name":"_ZTv0_n12_N7android4hidl7manager4V1_118BnHwServiceManagerD0Ev"
  },
  {
   "name":"_ZTv0_n12_N7android4hidl7manager4V1_118BnHwServiceManagerD1Ev"
  }
 ],
 "elf_objects":[
  {
   "name":"_ZN7android4hidl4base4V1_05IBase10descriptorE"
  },
  {
   "name":"_ZN7android4hidl7manager4V1_015IServiceManager10descriptorE"
  },
  {
   "name":"_ZN7android4hidl7manager4V1_020IServiceNotification10descriptorE"
  },
  {
   "name":"_ZN7android4hidl7manager4V1_115IServiceManager10descriptorE"
  },
  {
   "name":"_ZN7android8hardware11hidl_memory13kOffsetOfNameE"
  },
  {
   "name":"_ZN7android8hardware11hidl_memory15kOffsetOfHandleE"
  },
  {
   "name":"_ZN7android8hardware11hidl_string15kOffsetOfBufferE"
  },
  {
   "name":"_ZN7android8hardware7details14gServiceSidMapE"
  },
  {
   "name":"_ZN7android8hardware7details15gServicePrioMapE"
  },
  {
   "name":"_ZN7android8hardware7details17gBnConstructorMapE"
  },
  {
   "name":"_ZN7android8hardware7details17gBsConstructorMapE"
  },
  {
   "name":"_ZN7android8hardware7details6gBnMapE"
  },
  {
   "name":"_ZTTN7android4hidl4base4V1_05IBaseE"
  },
  {
   "name":"_ZTTN7android4hidl4base4V1_08BnHwBaseE"
  },
  {
   "name":"_ZTTN7android4hidl4base4V1_08BpHwBaseE"
  },
  {
   "name":"_ZTTN7android4hidl7manager4V1_015IServiceManagerE"
  },
  {
   "name":"_ZTTN7android4hidl7manager4V1_018BnHwServiceManagerE"
  },
  {
   "name":"_ZTTN7android4hidl7manager4V1_018BpHwServiceManagerE"
  },
  {
   "name":"_ZTTN7android4hidl7manager4V1_020IServiceNotificationE"
  },
  {
   "name":"_ZTTN7android4hidl7manager4V1_023BnHwServiceNotificationE"
  },
  {
   "name":"_ZTTN7android4hidl7manager4V1_023BpHwServiceNotificationE"
  },
  {
   "name":"_ZTTN7android4hidl7manager4V1_115IServiceManagerE"
  },
  {
   "name":"_ZTTN7android4hidl7manager4V1_118BnHwServiceManagerE"
  },
  {
   "name":"_ZTTN7android4hidl7manager4V1_118BpHwServiceManagerE"
  },
  {
   "name":"_ZTTN7android8hardware27hidl_binder_death_recipientE"
  },
  {
   "name":"_ZTVN7android4hidl4base4V1_05IBaseE"
  },
  {
   "binding":"weak",
   "name":"_ZTVN7android4hidl4base4V1_06BsBaseE"
  },
  {
   "name":"_ZTVN7android4hidl4base4V1_08BnHwBaseE"
  },
  {
   "name":"_ZTVN7android4hidl4base4V1_08BpHwBaseE"
  },
  {
   "name":"_ZTVN7android4hidl7manager4V1_015IServiceManagerE"
  },
  {
   "binding":"weak",
   "name":"_ZTVN7android4hidl7manager4V1_016BsServiceManagerE"
  },
  {
   "name":"_ZTVN7android4hidl7manager4V1_018BnHwServiceManagerE"
  },
  {
   "name":"_ZTVN7android4hidl7manager4V1_018BpHwServiceManagerE"
  },
  {
   "name":"_ZTVN7android4hidl7manager4V1_020IServiceNotificationE"
  },
  {
   "binding":"weak",
   "name":"_ZTVN7android4hidl7manager4V1_021BsServiceNotificationE"
  },
  {
   "name":"_ZTVN7android4hidl7manager4V1_023BnHwServiceNotificationE"
  },
  {
   "name":"_ZTVN7android4hidl7manager4V1_023BpHwServiceNotificationE"
  },
  {
   "name":"_ZTVN7android4hidl7manager4V1_115IServiceManagerE"
  },
  {
   "binding":"weak",
   "name":"_ZTVN7android4hidl7manager4V1_116BsServiceManagerE"
  },
  {
   "name":"_ZTVN7android4hidl7manager4V1_118BnHwServiceManagerE"
  },
  {
   "name":"_ZTVN7android4hidl7manager4V1_118BpHwServiceManagerE"
  },
  {
   "name":"_ZTVN7android8hardware27hidl_binder_death_recipientE"
  }
 ]
}