{
 "record_types":[
  {
   "vtable_components":[
    {
     "kind":"offset_to_top"
    },
    {
     "kind":"rtti",
     "mangled_component_name":"_ZTIN7android12SortedVectorINS_16key_value_pair_tIiNS_2spINS_15ANetworkSession7SessionEEEEEEE"
    },
    {
     "kind":"complete_dtor_pointer",
     "mangled_component_name":"_ZN7android12SortedVectorINS_16key_value_pair_tIiNS_2spINS_15ANetworkSession7SessionEEEEEED1Ev"
    },
    {
     "kind":"deleting_dtor_pointer",
     "mangled_component_name":"_ZN7android12SortedVectorINS_16key_value_pair_tIiNS_2spINS_15ANetworkSession7SessionEEEEEED0Ev"
    },
    {
     "mangled_component_name":"_ZNK7android12SortedVectorINS_16key_value_pair_tIiNS_2spINS_15ANetworkSession7SessionEEEEEE12do_constructEPvj"
    },
    {
     "mangled_component_name":"_ZNK7android12SortedVectorINS_16key_value_pair_tIiNS_2spINS_15ANetworkSession7SessionEEEEEE10do_destroyEPvj"
    },
    {
     "mangled_component_name":"_ZNK7android12SortedVectorINS_16key_value_pair_tIiNS_2spINS_15ANetworkSession7SessionEEEEEE7do_copyEPvPKvj"
    },
    {
     "mangled_component_name":"_ZNK7android12SortedVectorINS_16key_value_pair_tIiNS_2spINS_15ANetworkSession7SessionEEEEEE8do_splatEPvPKvj"
    },
    {
     "mangled_component_name":"_ZNK7android12SortedVectorINS_16key_value_pair_tIiNS_2spINS_15ANetworkSession7SessionEEEEEE15do_move_forwardEPvPKvj"
    },
    {
     "mangled_component_name":"_ZNK7android12SortedVectorINS_16key_value_pair_tIiNS_2spINS_15ANetworkSession7SessionEEEEEE16do_move_backwardEPvPKvj"
    },
    {
     "mangled_component_name":"_ZNK7android12SortedVectorINS_16key_value_pair_tIiNS_2spINS_15ANetworkSession7SessionEEEEEE10do_compareEPKvS9_"
    }
   ],
   "unique_id":"_ZTSN7android12SortedVectorINS_16key_value_pair_tIiNS_2spINS_15ANetworkSession7SessionEEEEEEE"
  },
  {
   "vtable_components":[
    {
     "kind":"offset_to_top"
    },
    {
     "kind":"rtti",
     "mangled_component_name":"_ZTIN7android12SortedVectorINS_16key_value_pair_tINS_7AStringES2_EEEE"
    },
    {
     "kind":"complete_dtor_pointer",
     "mangled_component_name":"_ZN7android12SortedVectorINS_16key_value_pair_tINS_7AStringES2_EEED1Ev"
    },
    {
     "kind":"deleting_dtor_pointer",
     "mangled_component_name":"_ZN7android12SortedVectorINS_16key_value_pair_tINS_7AStringES2_EEED0Ev"
    },
    {
     "mangled_component_name":"_ZNK7android12SortedVectorINS_16key_value_pair_tINS_7AStringES2_EEE12do_constructEPvj"
    },
    {
     "mangled_component_name":"_ZNK7android12SortedVectorINS_16key_value_pair_tINS_7AStringES2_EEE10do_destroyEPvj"
    },
    {
     "mangled_component_name":"_ZNK7android12SortedVectorINS_16key_value_pair_tINS_7AStringES2_EEE7do_copyEPvPKvj"
    },
    {
     "mangled_component_name":"_ZNK7android12SortedVectorINS_16key_value_pair_tINS_7AStringES2_EEE8do_splatEPvPKvj"
    },
    {
     "mangled_component_name":"_ZNK7android12SortedVectorINS_16key_value_pair_tINS_7AStringES2_EEE15do_move_forwardEPvPKvj"
    },
    {
     "mangled_component_name":"_ZNK7android12SortedVectorINS_16key_value_pair_tINS_7AStringES2_EEE16do_move_backwardEPvPKvj"
    },
    {
     "mangled_component_name":"_ZNK7android12SortedVectorINS_16key_value_pair_tINS_7AStringES2_EEE10do_compareEPKvS6_"
    }
   ],
   "unique_id":"_ZTSN7android12SortedVectorINS_16key_value_pair_tINS_7AStringES2_EEEE"
  },
  {
   "vtable_components":[
    {
     "kind":"offset_to_top"
    },
    {
     "kind":"rtti",
     "mangled_component_name":"_ZTIN7android13ParsedMessageE"
    },
    {
     "kind":"complete_dtor_pointer",
     "mangled_component_name":"_ZN7android13ParsedMessageD1Ev"
    },
    {
     "kind":"deleting_dtor_pointer",
     "mangled_component_name":"_ZN7android13ParsedMessageD0Ev"
    },
    {
     "mangled_component_name":"_ZN7android7RefBase10onFirstRefEv"
    },
    {
     "mangled_component_name":"_ZN7android7RefBase15onLastStrongRefEPKv"
    },
    {
     "mangled_component_name":"_ZN7android7RefBase20onIncStrongAttemptedEjPKv"
    },
    {
     "mangled_component_name":"_ZN7android7RefBase13onLastWeakRefEPKv"
    }
   ],
   "unique_id":"_ZTSN7android13ParsedMessageE"
  },
  {
   "vtable_components":[
    {
     "kind":"offset_to_top"
    },
    {
     "kind":"rtti",
     "mangled_component_name":"_ZTIN7android15ANetworkSessionE"
    },
    {
     "kind":"complete_dtor_pointer",
     "mangled_component_name":"_ZN7android15ANetworkSessionD1Ev"
    },
    {
     "kind":"deleting_dtor_pointer",
     "mangled_component_name":"_ZN7android15ANetworkSessionD0Ev"
    },
    {
     "mangled_component_name":"_ZN7android7RefBase10onFirstRefEv"
    },
    {
     "mangled_component_name":"_ZN7android7RefBase15onLastStrongRefEPKv"
    },
    {
     "mangled_component_name":"_ZN7android7RefBase20onIncStrongAttemptedEjPKv"
    },
    {
     "mangled_component_name":"_ZN7android7RefBase13onLastWeakRefEPKv"
    }
   ],
   "unique_id":"_ZTSN7android15ANetworkSessionE"
  },
  {
   "vtable_components":[
    {
     "kind":"offset_to_top"
    },
    {
     "kind":"rtti",
     "mangled_component_name":"_ZTIN7android4ListINS_15ANetworkSession7Session8FragmentEEE"
    },
    {
     "kind":"complete_dtor_pointer",
     "mangled_component_name":"_ZN7android4ListINS_15ANetworkSession7Session8FragmentEED1Ev"
    },
    {
     "kind":"deleting_dtor_pointer",
     "mangled_component_name":"_ZN7android4ListINS_15ANetworkSession7Session8FragmentEED0Ev"
    }
   ],
   "unique_id":"_ZTSN7android4ListINS_15ANetworkSession7Session8FragmentEEE"
  },
  {
   "vtable_components":[
    {
     "kind":"offset_to_top"
    },
    {
     "kind":"rtti",
     "mangled_component_name":"_ZTIN7android10ABitReaderE"
    },
    {
     "kind":"complete_dtor_pointer",
     "mangled_component_name":"_ZN7android10ABitReaderD1Ev"
    },
    {
     "kind":"deleting_dtor_pointer",
     "mangled_component_name":"_ZN7android10ABitReaderD0Ev"
    },
    {
     "mangled_component_name":"_ZN7android10ABitReader13fillReservoirEv"
    }
   ],
   "unique_id":"_ZTSN7android10ABitReaderE"
  },
  {
   "vtable_components":[
    {
     "kind":"offset_to_top"
    },
    {
     "kind":"rtti",
     "mangled_component_name":"_ZTIN7android12NALBitReaderE"
    },
    {
     "kind":"complete_dtor_pointer",
     "mangled_component_name":"_ZN7android12NALBitReaderD1Ev"
    },
    {
     "kind":"deleting_dtor_pointer",
     "mangled_component_name":"_ZN7android12NALBitReaderD0Ev"
    },
    {
     "mangled_component_name":"_ZN7android12NALBitReader13fillReservoirEv"
    }
   ],
   "unique_id":"_ZTSN7android12NALBitReaderE"
  },
  {
   "vtable_components":[
    {
     "kind":"offset_to_top"
    },
    {
     "kind":"rtti",
     "mangled_component_name":"_ZTIN7android7ALooperE"
    },
    {
     "kind":"complete_dtor_pointer",
     "mangled_component_name":"_ZN7android7ALooperD1Ev"
    },
    {
     "kind":"deleting_dtor_pointer",
     "mangled_component_name":"_ZN7android7ALooperD0Ev"
    },
    {
     "mangled_component_name":"_ZN7android7RefBase10onFirstRefEv"
    },
    {
     "mangled_component_name":"_ZN7android7RefBase15onLastStrongRefEPKv"
    },
    {
     "mangled_component_name":"_ZN7android7RefBase20onIncStrongAttemptedEjPKv"
    },
    {
     "mangled_component_name":"_ZN7android7RefBase13onLastWeakRefEPKv"
    }
   ],
   "unique_id":"_ZTSN7android7ALooperE"
  },
  {
   "vtable_components":[
    {
     "kind":"offset_to_top"
    },
    {
     "kind":"rtti",
     "mangled_component_name":"_ZTIN7android4ListINS_7ALooper5EventEEE"
    },
    {
     "kind":"complete_dtor_pointer",
     "mangled_component_name":"_ZN7android4ListINS_7ALooper5EventEED1Ev"
    },
    {
     "kind":"deleting_dtor_pointer",
     "mangled_component_name":"_ZN7android4ListINS_7ALooper5EventEED0Ev"
    }
   ],
   "unique_id":"_ZTSN7android4ListINS_7ALooper5EventEEE"
  },
  {
   "vtable_components":[
    {
     "kind":"offset_to_top"
    },
    {
     "kind":"rtti",
     "mangled_component_name":"_ZTIN7android8AMessageE"
    },
    {
     "kind":"complete_dtor_pointer",
     "mangled_component_name":"_ZN7android8AMessageD1Ev"
    },
    {
     "kind":"deleting_dtor_pointer",
     "mangled_component_name":"_ZN7android8AMessageD0Ev"
    },
    {
     "mangled_component_name":"_ZN7android7RefBase10onFirstRefEv"
    },
    {
     "mangled_component_name":"_ZN7android7RefBase15onLastStrongRefEPKv"
    },
    {
     "mangled_component_name":"_ZN7android7RefBase20onIncStrongAttemptedEjPKv"
    },
    {
     "mangled_component_name":"_ZN7android7RefBase13onLastWeakRefEPKv"
    }
   ],
   "unique_id":"_ZTSN7android8AMessageE"
  },
  {
   "vtable_components":[
    {
     "kind":"offset_to_top"
    },
    {
     "kind":"rtti",
     "mangled_component_name":"_ZTIN7android7ABufferE"
    },
    {
     "kind":"complete_dtor_pointer",
     "mangled_component_name":"_ZN7android7ABufferD1Ev"
    },
    {
     "kind":"deleting_dtor_pointer",
     "mangled_component_name":"_ZN7android7ABufferD0Ev"
    },
    {
     "mangled_component_name":"_ZN7android7RefBase10onFirstRefEv"
    },
    {
     "mangled_component_name":"_ZN7android7RefBase15onLastStrongRefEPKv"
    },
    {
     "mangled_component_name":"_ZN7android7RefBase20onIncStrongAttemptedEjPKv"
    },
    {
     "mangled_component_name":"_ZN7android7RefBase13onLastWeakRefEPKv"
    }
   ],
   "unique_id":"_ZTSN7android7ABufferE"
  },
  {
   "vtable_components":[
    {
     "kind":"offset_to_top"
    },
    {
     "kind":"rtti",
     "mangled_component_name":"_ZTIN7android11AReplyTokenE"
    },
    {
     "kind":"complete_dtor_pointer",
     "mangled_component_name":"_ZN7android11AReplyTokenD1Ev"
    },
    {
     "kind":"deleting_dtor_pointer",
     "mangled_component_name":"_ZN7android11AReplyTokenD0Ev"
    },
    {
     "mangled_component_name":"_ZN7android7RefBase10onFirstRefEv"
    },
    {
     "mangled_component_name":"_ZN7android7RefBase15onLastStrongRefEPKv"
    },
    {
     "mangled_component_name":"_ZN7android7RefBase20onIncStrongAttemptedEjPKv"
    },
    {
     "mangled_component_name":"_ZN7android7RefBase13onLastWeakRefEPKv"
    }
   ],
   "unique_id":"_ZTSN7android11AReplyTokenE"
  },
  {
   "vtable_components":[
    {
     "kind":"offset_to_top"
    },
    {
     "kind":"rtti",
     "mangled_component_name":"_ZTIN7android6AStateE"
    },
    {
     "kind":"complete_dtor_pointer",
     "mangled_component_name":"_ZN7android6AStateD1Ev"
    },
    {
     "kind":"deleting_dtor_pointer",
     "mangled_component_name":"_ZN7android6AStateD0Ev"
    },
    {
     "mangled_component_name":"_ZN7android7RefBase10onFirstRefEv"
    },
    {
     "mangled_component_name":"_ZN7android7RefBase15onLastStrongRefEPKv"
    },
    {
     "mangled_component_name":"_ZN7android7RefBase20onIncStrongAttemptedEjPKv"
    },
    {
     "mangled_component_name":"_ZN7android7RefBase13onLastWeakRefEPKv"
    },
    {
     "mangled_component_name":"_ZN7android6AState12stateEnteredEv"
    },
    {
     "mangled_component_name":"_ZN7android6AState11stateExitedEv"
    },
    {
     "is_pure":true,
     "mangled_component_name":"_ZN7android6AState17onMessageReceivedERKNS_2spINS_8AMessageEEE"
    }
   ],
   "unique_id":"_ZTSN7android6AStateE"
  },
  {
   "vtable_components":[
    {
     "kind":"offset_to_top"
    },
    {
     "kind":"rtti",
     "mangled_component_name":"_ZTIN7android6VectorINS_2spINS_6AStateEEEEE"
    },
    {
     "kind":"complete_dtor_pointer",
     "mangled_component_name":"_ZN7android6VectorINS_2spINS_6AStateEEEED1Ev"
    },
    {
     "kind":"deleting_dtor_pointer",
     "mangled_component_name":"_ZN7android6VectorINS_2spINS_6AStateEEEED0Ev"
    },
    {
     "mangled_component_name":"_ZNK7android6VectorINS_2spINS_6AStateEEEE12do_constructEPvj"
    },
    {
     "mangled_component_name":"_ZNK7android6VectorINS_2spINS_6AStateEEEE10do_destroyEPvj"
    },
    {
     "mangled_component_name":"_ZNK7android6VectorINS_2spINS_6AStateEEEE7do_copyEPvPKvj"
    },
    {
     "mangled_component_name":"_ZNK7android6VectorINS_2spINS_6AStateEEEE8do_splatEPvPKvj"
    },
    {
     "mangled_component_name":"_ZNK7android6VectorINS_2spINS_6AStateEEEE15do_move_forwardEPvPKvj"
    },
    {
     "mangled_component_name":"_ZNK7android6VectorINS_2spINS_6AStateEEEE16do_move_backwardEPvPKvj"
    }
   ],
   "unique_id":"_ZTSN7android6VectorINS_2spINS_6AStateEEEEE"
  },
  {
   "vtable_components":[
    {
     "kind":"offset_to_top"
    },
    {
     "kind":"rtti",
     "mangled_component_name":"_ZTIN7android25AHierarchicalStateMachineE"
    },
    {
     "kind":"complete_dtor_pointer",
     "mangled_component_name":"_ZN7android25AHierarchicalStateMachineD1Ev"
    },
    {
     "kind":"deleting_dtor_pointer",
     "mangled_component_name":"_ZN7android25AHierarchicalStateMachineD0Ev"
    },
    {
     "mangled_component_name":"_ZN7android25AHierarchicalStateMachine13handleMessageERKNS_2spINS_8AMessageEEE"
    }
   ],
   "unique_id":"_ZTSN7android25AHierarchicalStateMachineE"
  },
  {
   "vtable_components":[
    {
     "kind":"offset_to_top"
    },
    {
     "kind":"rtti",
     "mangled_component_name":"_ZTIN7android12SortedVectorINS_16key_value_pair_tIiNS_13ALooperRoster11HandlerInfoEEEEE"
    },
    {
     "kind":"complete_dtor_pointer",
     "mangled_component_name":"_ZN7android12SortedVectorINS_16key_value_pair_tIiNS_13ALooperRoster11HandlerInfoEEEED1Ev"
    },
    {
     "kind":"deleting_dtor_pointer",
     "mangled_component_name":"_ZN7android12SortedVectorINS_16key_value_pair_tIiNS_13ALooperRoster11HandlerInfoEEEED0Ev"
    },
    {
     "mangled_component_name":"_ZNK7android12SortedVectorINS_16key_value_pair_tIiNS_13ALooperRoster11HandlerInfoEEEE12do_constructEPvj"
    },
    {
     "mangled_component_name":"_ZNK7android12SortedVectorINS_16key_value_pair_tIiNS_13ALooperRoster11HandlerInfoEEEE10do_destroyEPvj"
    },
    {
     "mangled_component_name":"_ZNK7android12SortedVectorINS_16key_value_pair_tIiNS_13ALooperRoster11HandlerInfoEEEE7do_copyEPvPKvj"
    },
    {
     "mangled_component_name":"_ZNK7android12SortedVectorINS_16key_value_pair_tIiNS_13ALooperRoster11HandlerInfoEEEE8do_splatEPvPKvj"
    },
    {
     "mangled_component_name":"_ZNK7android12SortedVectorINS_16key_value_pair_tIiNS_13ALooperRoster11HandlerInfoEEEE15do_move_forwardEPvPKvj"
    },
    {
     "mangled_component_name":"_ZNK7android12SortedVectorINS_16key_value_pair_tIiNS_13ALooperRoster11HandlerInfoEEEE16do_move_backwardEPvPKvj"
    },
    {
     "mangled_component_name":"_ZNK7android12SortedVectorINS_16key_value_pair_tIiNS_13ALooperRoster11HandlerInfoEEEE10do_compareEPKvS7_"
    }
   ],
   "unique_id":"_ZTSN7android12SortedVectorINS_16key_value_pair_tIiNS_13ALooperRoster11HandlerInfoEEEEE"
  },
  {
   "vtable_components":[
    {
     "kind":"offset_to_top"
    },
    {
     "kind":"rtti",
     "mangled_component_name":"_ZTIN7android6VectorINS_2spINS_7ALooperEEEEE"
    },
    {
     "kind":"complete_dtor_pointer",
     "mangled_component_name":"_ZN7android6VectorINS_2spINS_7ALooperEEEED1Ev"
    },
    {
     "kind":"deleting_dtor_pointer",
     "mangled_component_name":"_ZN7android6VectorINS_2spINS_7ALooperEEEED0Ev"
    },
    {
     "mangled_component_name":"_ZNK7android6VectorINS_2spINS_7ALooperEEEE12do_constructEPvj"
    },
    {
     "mangled_component_name":"_ZNK7android6VectorINS_2spINS_7ALooperEEEE10do_destroyEPvj"
    },
    {
     "mangled_component_name":"_ZNK7android6VectorINS_2spINS_7ALooperEEEE7do_copyEPvPKvj"
    },
    {
     "mangled_component_name":"_ZNK7android6VectorINS_2spINS_7ALooperEEEE8do_splatEPvPKvj"
    },
    {
     "mangled_component_name":"_ZNK7android6VectorINS_2spINS_7ALooperEEEE15do_move_forwardEPvPKvj"
    },
    {
     "mangled_component_name":"_ZNK7android6VectorINS_2spINS_7ALooperEEEE16do_move_backwardEPvPKvj"
    }
   ],
   "unique_id":"_ZTSN7android6VectorINS_2spINS_7ALooperEEEEE"
  },
  {
   "vtable_components":[
    {
     "kind":"offset_to_top"
    },
    {
     "kind":"rtti",
     "mangled_component_name":"_ZTIN7android6VectorINS_4ListINS_7AStringEEEEE"
    },
    {
     "kind":"complete_dtor_pointer",
     "mangled_component_name":"_ZN7android6VectorINS_4ListINS_7AStringEEEED1Ev"
    },
    {
     "kind":"deleting_dtor_pointer",
     "mangled_component_name":"_ZN7android6VectorINS_4ListINS_7AStringEEEED0Ev"
    },
    {
     "mangled_component_name":"_ZNK7android6VectorINS_4ListINS_7AStringEEEE12do_constructEPvj"
    },
    {
     "mangled_component_name":"_ZNK7android6VectorINS_4ListINS_7AStringEEEE10do_destroyEPvj"
    },
    {
     "mangled_component_name":"_ZNK7android6VectorINS_4ListINS_7AStringEEEE7do_copyEPvPKvj"
    },
    {
     "mangled_component_name":"_ZNK7android6VectorINS_4ListINS_7AStringEEEE8do_splatEPvPKvj"
    },
    {
     "mangled_component_name":"_ZNK7android6VectorINS_4ListINS_7AStringEEEE15do_move_forwardEPvPKvj"
    },
    {
     "mangled_component_name":"_ZNK7android6VectorINS_4ListINS_7AStringEEEE16do_move_backwardEPvPKvj"
    }
   ],
   "unique_id":"_ZTSN7android6VectorINS_4ListINS_7AStringEEEEE"
  },
  {
   "vtable_components":[
    {
     "kind":"offset_to_top"
    },
    {
     "kind":"rtti",
     "mangled_component_name":"_ZTIN7android4ListINS_7AStringEEE"
    },
    {
     "kind":"complete_dtor_pointer",
     "mangled_component_name":"_ZN7android4ListINS_7AStringEED1Ev"
    },
    {
     "kind":"deleting_dtor_pointer",
     "mangled_component_name":"_ZN7android4ListINS_7AStringEED0Ev"
    }
   ],
   "unique_id":"_ZTSN7android4ListINS_7AStringEEE"
  }
 ],
 "elf_functions":[
  {
   "name":"_ZN7android10ABitReader13fillReservoirEv"
  },
  {
   "name":"_ZN7android10ABitReader15getBitsGracefulEjPj"
  },
  {
   "name":"_ZN7android10ABitReader19getBitsWithFallbackEjj"
  },
  {
   "name":"_ZN7android10ABitReader7getBitsEj"
  },
  {
   "name":"_ZN7android10ABitReader7putBitsEjj"
  },
  {
   "name":"_ZN7android10ABitReader8skipBitsEj"
  },
  {
   "name":"_ZN7android10ABitReaderC1EPKhj"
  },
  {
   "name":"_ZN7android10ABitReaderC2EPKhj"
  },
  {
   "name":"_ZN7android10ABitReaderD0Ev"
  },
  {
   "name":"_ZN7android10ABitReaderD1Ev"
  },
  {
   "name":"_ZN7android10ABitReaderD2Ev"
  },
  {
   "name":"_ZN7android10ColorUtils15copyColorConfigERKNS_2spINS_8AMessageEEERS3_"
  },
  {
   "name":"_ZN7android10ColorUtils20convertDataSpaceToV0ER19android_dataspace_t"
  },
  {
   "name":"_ZN7android10ColorUtils20unpackToColorAspectsEj"
  },
  {
   "name":"_ZN7android10ColorUtils24getColorConfigFromFormatERKNS_2spINS_8AMessageEEEPiS6_S6_"
  },
  {
   "name":"_ZN7android10ColorUtils25getColorAspectsFromFormatERKNS_2spINS_8AMessageEEERNS_12ColorAspectsE"
  },
  {
   "name":"_ZN7android10ColorUtils25setColorAspectsIntoFormatERKNS_12ColorAspectsERNS_2spINS_8AMessageEEEb"
  },
  {
   "name":"_ZN7android10ColorUtils26getHDRStaticInfoFromFormatERKNS_2spINS_8AMessageEEEPNS_13HDRStaticInfoE"
  },
  {
   "name":"_ZN7android10ColorUtils26setHDRStaticInfoIntoFormatERKNS_13HDRStaticInfoERNS_2spINS_8AMessageEEE"
  },
  {
   "name":"_ZN7android10ColorUtils27getDataSpaceForColorAspectsERNS_12ColorAspectsEb"
  },
  {
   "name":"_ZN7android10ColorUtils30wrapColorAspectsIntoColorRangeENS_12ColorAspects5RangeE"
  },
  {
   "name":"_ZN7android10ColorUtils32unwrapColorAspectsFromColorRangeEiPNS_12ColorAspects5RangeE"
  },
  {
   "name":"_ZN7android10ColorUtils33wrapColorAspectsIntoColorStandardENS_12ColorAspects9PrimariesENS1_12MatrixCoeffsE"
  },
  {
   "name":"_ZN7android10ColorUtils33wrapColorAspectsIntoColorTransferENS_12ColorAspects8TransferE"
  },
  {
   "name":"_ZN7android10ColorUtils35setDefaultCodecColorAspectsIfNeededERNS_12ColorAspectsEii"
  },
  {
   "name":"_ZN7android10ColorUtils35unwrapColorAspectsFromColorStandardEiPNS_12ColorAspects9PrimariesEPNS1_12MatrixCoeffsE"
  },
  {
   "name":"_ZN7android10ColorUtils35unwrapColorAspectsFromColorTransferEiPNS_12ColorAspects8TransferE"
  },
  {
   "name":"_ZN7android10ColorUtils36convertCodecColorAspectsToIsoAspectsERKNS_12ColorAspectsEPiS4_S4_Pb"
  },
  {
   "name":"_ZN7android10ColorUtils36convertIsoColorAspectsToCodecAspectsEiiibRNS_12ColorAspectsE"
  },
  {
   "name":"_ZN7android10ColorUtils37checkIfAspectsChangedAndUnspecifyThemERNS_12ColorAspectsERKS1_b"
  },
  {
   "name":"_ZN7android10ColorUtils41convertCodecColorAspectsToPlatformAspectsERKNS_12ColorAspectsEPiS4_S4_"
  },
  {
   "name":"_ZN7android10ColorUtils41convertPlatformColorAspectsToCodecAspectsEiiiRNS_12ColorAspectsE"
  },
  {
   "name":"_ZN7android10ColorUtils9packToU32ERKNS_12ColorAspectsE"
  },
  {
   "binding":"weak",
   "name":"_ZN7android10Compare_GEIjjEENS_7AStringERKT_RKT0_"
  },
  {
   "binding":"weak",
   "name":"_ZN7android10Compare_LEIjjEENS_7AStringERKT_RKT0_"
  },
  {
   "binding":"weak",
   "name":"_ZN7android10Compare_LTIjjEENS_7AStringERKT_RKT0_"
  },
  {
   "name":"_ZN7android11AReplyToken8setReplyERKNS_2spINS_8AMessageEEE"
  },
  {
   "name":"_ZN7android12AStringUtils11MatchesGlobEPKcjS2_jb"
  },
  {
   "name":"_ZN7android12AStringUtils7CompareEPKcS2_jb"
  },
  {
   "name":"_ZN7android12NALBitReader13fillReservoirEv"
  },
  {
   "name":"_ZN7android12NALBitReaderC1EPKhj"
  },
  {
   "name":"_ZN7android12NALBitReaderC2EPKhj"
  },
  {
   "name":"_ZN7android12decodeBase64ERKNS_7AStringE"
  },
  {
   "name":"_ZN7android12encodeBase64EPKvjPNS_7AStringE"
  },
  {
   "name":"_ZN7android13ALooperRoster15registerHandlerERKNS_2spINS_7ALooperEEERKNS1_INS_8AHandlerEEE"
  },
  {
   "name":"_ZN7android13ALooperRoster17unregisterHandlerEi"
  },
  {
   "name":"_ZN7android13ALooperRoster23unregisterStaleHandlersEv"
  },
  {
   "name":"_ZN7android13ALooperRoster4dumpEiRKNS_6VectorINS_8String16EEE"
  },
  {
   "name":"_ZN7android13ALooperRosterC1Ev"
  },
  {
   "name":"_ZN7android13ALooperRosterC2Ev"
  },
  {
   "name":"_ZN7android13AStringPrintfEPKcz"
  },
  {
   "name":"_ZN7android13ParsedMessage12GetAttributeEPKcS2_PNS_7AStringE"
  },
  {
   "name":"_ZN7android13ParsedMessage17GetInt32AttributeEPKcS2_Pi"
  },
  {
   "name":"_ZN7android13ParsedMessage5ParseEPKcjbPj"
  },
  {
   "name":"_ZN7android13ParsedMessage5parseEPKcjb"
  },
  {
   "name":"_ZN7android13ParsedMessageC1Ev"
  },
  {
   "name":"_ZN7android13ParsedMessageC2Ev"
  },
  {
   "name":"_ZN7android13ParsedMessageD0Ev"
  },
  {
   "name":"_ZN7android13ParsedMessageD1Ev"
  },
  {
   "name":"_ZN7android13ParsedMessageD2Ev"
  },
  {
   "name":"_ZN7android14FindAVCLayerIdEPKhj"
  },
  {
   "name":"_ZN7android14getNextNALUnitEPPKhPjS2_S3_b"
  },
  {
   "name":"_ZN7android15ANetworkSession10threadLoopEv"
  },
  {
   "name":"_ZN7android15ANetworkSession11sendRequestEiPKvibx"
  },
  {
   "name":"_ZN7android15ANetworkSession14destroySessionEi"
  },
  {
   "name":"_ZN7android15ANetworkSession16createRTSPClientEPKcjRKNS_2spINS_8AMessageEEEPi"
  },
  {
   "name":"_ZN7android15ANetworkSession16createRTSPServerERK7in_addrjRKNS_2spINS_8AMessageEEEPi"
  },
  {
   "name":"_ZN7android15ANetworkSession16createUDPSessionEjPKcjRKNS_2spINS_8AMessageEEEPi"
  },
  {
   "name":"_ZN7android15ANetworkSession16createUDPSessionEjRKNS_2spINS_8AMessageEEEPi"
  },
  {
   "name":"_ZN7android15ANetworkSession17connectUDPSessionEiPKcj"
  },
  {
   "name":"_ZN7android15ANetworkSession20createClientOrServerENS0_4ModeEPK7in_addrjPKcjRKNS_2spINS_8AMessageEEEPi"
  },
  {
   "name":"_ZN7android15ANetworkSession21MakeSocketNonBlockingEi"
  },
  {
   "name":"_ZN7android15ANetworkSession21switchToWebSocketModeEi"
  },
  {
   "name":"_ZN7android15ANetworkSession24createTCPDatagramSessionERK7in_addrjRKNS_2spINS_8AMessageEEEPi"
  },
  {
   "name":"_ZN7android15ANetworkSession24createTCPDatagramSessionEjPKcjRKNS_2spINS_8AMessageEEEPi"
  },
  {
   "name":"_ZN7android15ANetworkSession4stopEv"
  },
  {
   "name":"_ZN7android15ANetworkSession5startEv"
  },
  {
   "name":"_ZN7android15ANetworkSession9interruptEv"
  },
  {
   "name":"_ZN7android15ANetworkSessionC1Ev"
  },
  {
   "name":"_ZN7android15ANetworkSessionC2Ev"
  },
  {
   "name":"_ZN7android15ANetworkSessionD0Ev"
  },
  {
   "name":"_ZN7android15ANetworkSessionD1Ev"
  },
  {
   "name":"_ZN7android15ANetworkSessionD2Ev"
  },
  {
   "name":"_ZN7android15encodeBase64UrlEPKvjPNS_7AStringE"
  },
  {
   "name":"_ZN7android16MakeFourCCStringEjPc"
  },
  {
   "name":"_ZN7android17FindAVCDimensionsERKNS_2spINS_7ABufferEEEPiS5_S5_S5_"
  },
  {
   "name":"_ZN7android18AVCProfileToStringEh"
  },
  {
   "name":"_ZN7android19IsAVCReferenceFrameERKNS_2spINS_7ABufferEEE"
  },
  {
   "name":"_ZN7android19parseSEWithFallbackEPNS_10ABitReaderEi"
  },
  {
   "name":"_ZN7android19parseUEWithFallbackEPNS_10ABitReaderEj"
  },
  {
   "name":"_ZN7android21GetMPEGAudioFrameSizeEjPjPiS1_S1_S1_"
  },
  {
   "name":"_ZN7android24MakeAVCCodecSpecificDataERKNS_2spINS_7ABufferEEEPiS5_S5_S5_"
  },
  {
   "name":"_ZN7android25AHierarchicalStateMachine11changeStateERKNS_2spINS_6AStateEEE"
  },
  {
   "name":"_ZN7android25AHierarchicalStateMachine13handleMessageERKNS_2spINS_8AMessageEEE"
  },
  {
   "name":"_ZN7android25AHierarchicalStateMachineC1Ev"
  },
  {
   "name":"_ZN7android25AHierarchicalStateMachineC2Ev"
  },
  {
   "name":"_ZN7android25AHierarchicalStateMachineD0Ev"
  },
  {
   "name":"_ZN7android25AHierarchicalStateMachineD1Ev"
  },
  {
   "name":"_ZN7android25AHierarchicalStateMachineD2Ev"
  },
  {
   "name":"_ZN7android30ExtractDimensionsFromVOLHeaderEPKhjPiS2_"
  },
  {
   "name":"_ZN7android5IsIDREPKhj"
  },
  {
   "name":"_ZN7android6ADebug12GetDebugNameEPKc"
  },
  {
   "name":"_ZN7android6ADebug17getExperimentFlagEbPKcyyyy"
  },
  {
   "name":"_ZN7android6ADebug20GetLevelFromPropertyEPKcS2_l"
  },
  {
   "name":"_ZN7android6ADebug25GetDebugLevelFromPropertyEPKcS2_NS0_5LevelE"
  },
  {
   "name":"_ZN7android6ADebug26GetLevelFromSettingsStringEPKcS2_l"
  },
  {
   "name":"_ZN7android6AState11parentStateEv"
  },
  {
   "name":"_ZN7android6AState11stateExitedEv"
  },
  {
   "name":"_ZN7android6AState12stateEnteredEv"
  },
  {
   "name":"_ZN7android6AStateC2ERKNS_2spIS0_EE"
  },
  {
   "name":"_ZN7android6AStateD0Ev"
  },
  {
   "name":"_ZN7android6AStateD1Ev"
  },
  {
   "name":"_ZN7android6AStateD2Ev"
  },
  {
   "name":"_ZN7android6U16_ATEPKh"
  },
  {
   "name":"_ZN7android6U32_ATEPKh"
  },
  {
   "name":"_ZN7android6U64_ATEPKh"
  },
  {
   "name":"_ZN7android6hton64Ey"
  },
  {
   "name":"_ZN7android6ntoh64Ey"
  },
  {
   "name":"_ZN7android7ABuffer12CreateAsCopyEPKvj"
  },
  {
   "name":"_ZN7android7ABuffer4metaEv"
  },
  {
   "name":"_ZN7android7ABuffer8setRangeEjj"
  },
  {
   "name":"_ZN7android7ABufferC1EPvj"
  },
  {
   "name":"_ZN7android7ABufferC1Ej"
  },
  {
   "name":"_ZN7android7ABufferC2EPvj"
  },
  {
   "name":"_ZN7android7ABufferC2Ej"
  },
  {
   "name":"_ZN7android7ABufferD0Ev"
  },
  {
   "name":"_ZN7android7ABufferD1Ev"
  },
  {
   "name":"_ZN7android7ABufferD2Ev"
  },
  {
   "name":"_ZN7android7ALooper13awaitResponseERKNS_2spINS_11AReplyTokenEEEPNS1_INS_8AMessageEEE"
  },
  {
   "name":"_ZN7android7ALooper15registerHandlerERKNS_2spINS_8AHandlerEEE"
  },
  {
   "name":"_ZN7android7ALooper16createReplyTokenEv"
  },
  {
   "name":"_ZN7android7ALooper17unregisterHandlerEi"
  },
  {
   "name":"_ZN7android7ALooper4loopEv"
  },
  {
   "name":"_ZN7android7ALooper4postERKNS_2spINS_8AMessageEEEx"
  },
  {
   "name":"_ZN7android7ALooper4stopEv"
  },
  {
   "name":"_ZN7android7ALooper5startEbbi"
  },
  {
   "name":"_ZN7android7ALooper7setNameEPKc"
  },
  {
   "name":"_ZN7android7ALooper8GetNowUsEv"
  },
  {
   "name":"_ZN7android7ALooper9postReplyERKNS_2spINS_11AReplyTokenEEERKNS1_INS_8AMessageEEE"
  },
  {
   "name":"_ZN7android7ALooperC1Ev"
  },
  {
   "name":"_ZN7android7ALooperC2Ev"
  },
  {
   "name":"_ZN7android7ALooperD0Ev"
  },
  {
   "name":"_ZN7android7ALooperD1Ev"
  },
  {
   "name":"_ZN7android7ALooperD2Ev"
  },
  {
   "name":"_ZN7android7AString10FromParcelERKNS_6ParcelE"
  },
  {
   "name":"_ZN7android7AString11makeMutableEv"
  },
  {
   "name":"_ZN7android7AString4trimEv"
  },
  {
   "name":"_ZN7android7AString5clearEv"
  },
  {
   "name":"_ZN7android7AString5eraseEjj"
  },
  {
   "name":"_ZN7android7AString5setToEPKc"
  },
  {
   "name":"_ZN7android7AString5setToEPKcj"
  },
  {
   "name":"_ZN7android7AString5setToERKS0_jj"
  },
  {
   "name":"_ZN7android7AString6appendEPKc"
  },
  {
   "name":"_ZN7android7AString6appendEPKcj"
  },
  {
   "name":"_ZN7android7AString6appendEPv"
  },
  {
   "name":"_ZN7android7AString6appendERKS0_"
  },
  {
   "name":"_ZN7android7AString6appendERKS0_jj"
  },
  {
   "name":"_ZN7android7AString6appendEd"
  },
  {
   "name":"_ZN7android7AString6appendEf"
  },
  {
   "name":"_ZN7android7AString6appendEi"
  },
  {
   "name":"_ZN7android7AString6appendEj"
  },
  {
   "name":"_ZN7android7AString6appendEl"
  },
  {
   "name":"_ZN7android7AString6appendEm"
  },
  {
   "name":"_ZN7android7AString6appendEx"
  },
  {
   "name":"_ZN7android7AString6appendEy"
  },
  {
   "name":"_ZN7android7AString6insertEPKcjj"
  },
  {
   "name":"_ZN7android7AString6insertERKS0_j"
  },
  {
   "name":"_ZN7android7AString7tolowerEv"
  },
  {
   "name":"_ZN7android7AStringC1EPKc"
  },
  {
   "name":"_ZN7android7AStringC1EPKcj"
  },
  {
   "name":"_ZN7android7AStringC1ERKNS_7String8E"
  },
  {
   "name":"_ZN7android7AStringC1ERKS0_"
  },
  {
   "name":"_ZN7android7AStringC1ERKS0_jj"
  },
  {
   "name":"_ZN7android7AStringC1Ev"
  },
  {
   "name":"_ZN7android7AStringC2EPKc"
  },
  {
   "name":"_ZN7android7AStringC2EPKcj"
  },
  {
   "name":"_ZN7android7AStringC2ERKNS_7String8E"
  },
  {
   "name":"_ZN7android7AStringC2ERKS0_"
  },
  {
   "name":"_ZN7android7AStringC2ERKS0_jj"
  },
  {
   "name":"_ZN7android7AStringC2Ev"
  },
  {
   "name":"_ZN7android7AStringD1Ev"
  },
  {
   "name":"_ZN7android7AStringD2Ev"
  },
  {
   "name":"_ZN7android7AStringaSERKS0_"
  },
  {
   "name":"_ZN7android7hexdumpEPKvjjPNS_7AStringE"
  },
  {
   "name":"_ZN7android7parseSEEPNS_10ABitReaderE"
  },
  {
   "name":"_ZN7android7parseUEEPNS_10ABitReaderE"
  },
  {
   "name":"_ZN7android8AHandler14deliverMessageERKNS_2spINS_8AMessageEEE"
  },
  {
   "name":"_ZN7android8AMessage10FromParcelERKNS_6ParcelEj"
  },
  {
   "name":"_ZN7android8AMessage10setEntryAtEjRKNS_5ADataIJixjfdNS0_4RectENS_7AStringEPvNS_2spIS0_EENS5_INS_7ABufferEEENS5_INS_7RefBaseEEEEE6CustomINSB_7flaggerIjEEEE"
  },
  {
   "name":"_ZN7android8AMessage10setMessageEPKcRKNS_2spIS0_EE"
  },
  {
   "name":"_ZN7android8AMessage10setPointerEPKcPv"
  },
  {
   "name":"_ZN7android8AMessage12allocateItemEPKc"
  },
  {
   "name":"_ZN7android8AMessage13freeItemValueEPNS0_4ItemE"
  },
  {
   "name":"_ZN7android8AMessage13removeEntryAtEj"
  },
  {
   "name":"_ZN7android8AMessage14setEntryNameAtEjPKc"
  },
  {
   "name":"_ZN7android8AMessage17setObjectInternalEPKcRKNS_2spINS_7RefBaseEEENS0_4TypeE"
  },
  {
   "name":"_ZN7android8AMessage20postAndAwaitResponseEPNS_2spIS0_EE"
  },
  {
   "name":"_ZN7android8AMessage20senderAwaitsResponseEPNS_2spINS_11AReplyTokenEEE"
  },
  {
   "name":"_ZN7android8AMessage4Item7setNameEPKcj"
  },
  {
   "name":"_ZN7android8AMessage4postEx"
  },
  {
   "name":"_ZN7android8AMessage5clearEv"
  },
  {
   "name":"_ZN7android8AMessage6extendERKNS_2spIS0_EE"
  },
  {
   "name":"_ZN7android8AMessage7deliverEv"
  },
  {
   "name":"_ZN7android8AMessage7setItemEPKcRKNS_5ADataIJixjfdNS0_4RectENS_7AStringEPvNS_2spIS0_EENS7_INS_7ABufferEEENS7_INS_7RefBaseEEEEE6CustomINSD_7flaggerIjEEEE"
  },
  {
   "name":"_ZN7android8AMessage7setRectEPKciiii"
  },
  {
   "name":"_ZN7android8AMessage7setSizeEPKcj"
  },
  {
   "name":"_ZN7android8AMessage7setWhatEj"
  },
  {
   "name":"_ZN7android8AMessage8setFloatEPKcf"
  },
  {
   "name":"_ZN7android8AMessage8setInt32EPKci"
  },
  {
   "name":"_ZN7android8AMessage8setInt64EPKcx"
  },
  {
   "name":"_ZN7android8AMessage9postReplyERKNS_2spINS_11AReplyTokenEEE"
  },
  {
   "name":"_ZN7android8AMessage9setBufferEPKcRKNS_2spINS_7ABufferEEE"
  },
  {
   "name":"_ZN7android8AMessage9setDoubleEPKcd"
  },
  {
   "name":"_ZN7android8AMessage9setObjectEPKcRKNS_2spINS_7RefBaseEEE"
  },
  {
   "name":"_ZN7android8AMessage9setStringEPKcRKNS_7AStringE"
  },
  {
   "name":"_ZN7android8AMessage9setStringEPKcS2_i"
  },
  {
   "name":"_ZN7android8AMessage9setTargetERKNS_2spIKNS_8AHandlerEEE"
  },
  {
   "name":"_ZN7android8AMessageC1EjRKNS_2spIKNS_8AHandlerEEE"
  },
  {
   "name":"_ZN7android8AMessageC1Ev"
  },
  {
   "name":"_ZN7android8AMessageC2EjRKNS_2spIKNS_8AHandlerEEE"
  },
  {
   "name":"_ZN7android8AMessageC2Ev"
  },
  {
   "name":"_ZN7android8AMessageD0Ev"
  },
  {
   "name":"_ZN7android8AMessageD1Ev"
  },
  {
   "name":"_ZN7android8AMessageD2Ev"
  },
  {
   "name":"_ZN7android8U16LE_ATEPKh"
  },
  {
   "name":"_ZN7android8U32LE_ATEPKh"
  },
  {
   "name":"_ZN7android8U64LE_ATEPKh"
  },
  {
   "name":"_ZN7android9AAtomizer4HashEPKc"
  },
  {
   "name":"_ZN7android9AAtomizer7AtomizeEPKc"
  },
  {
   "name":"_ZN7android9AAtomizer7atomizeEPKc"
  },
  {
   "name":"_ZN7android9AAtomizerC1Ev"
  },
  {
   "name":"_ZN7android9AAtomizerC2Ev"
  },
  {
   "name":"_ZNK7android10ABitReader11numBitsLeftEv"
  },
  {
   "name":"_ZNK7android10ABitReader4dataEv"
  },
  {
   "name":"_ZNK7android12NALBitReader18atLeastNumBitsLeftEj"
  },
  {
   "binding":"weak",
   "name":"_ZNK7android12SortedVectorINS_16key_value_pair_tINS_7AStringES2_EEE10do_compareEPKvS6_"
  },
  {
   "binding":"weak",
   "name":"_ZNK7android12SortedVectorINS_16key_value_pair_tINS_7AStringES2_EEE10do_destroyEPvj"
  },
  {
   "binding":"weak",
   "name":"_ZNK7android12SortedVectorINS_16key_value_pair_tINS_7AStringES2_EEE12do_constructEPvj"
  },
  {
   "binding":"weak",
   "name":"_ZNK7android12SortedVectorINS_16key_value_pair_tINS_7AStringES2_EEE15do_move_forwardEPvPKvj"
  },
  {
   "binding":"weak",
   "name":"_ZNK7android12SortedVectorINS_16key_value_pair_tINS_7AStringES2_EEE16do_move_backwardEPvPKvj"
  },
  {
   "binding":"weak",
   "name":"_ZNK7android12SortedVectorINS_16key_value_pair_tINS_7AStringES2_EEE7do_copyEPvPKvj"
  },
  {
   "binding":"weak",
   "name":"_ZNK7android12SortedVectorINS_16key_value_pair_tINS_7AStringES2_EEE8do_splatEPvPKvj"
  },
  {
   "binding":"weak",
   "name":"_ZNK7android12SortedVectorINS_16key_value_pair_tIiNS_13ALooperRoster11HandlerInfoEEEE10do_compareEPKvS7_"
  },
  {
   "binding":"weak",
   "name":"_ZNK7android12SortedVectorINS_16key_value_pair_tIiNS_13ALooperRoster11HandlerInfoEEEE10do_destroyEPvj"
  },
  {
   "binding":"weak",
   "name":"_ZNK7android12SortedVectorINS_16key_value_pair_tIiNS_13ALooperRoster11HandlerInfoEEEE12do_constructEPvj"
  },
  {
   "binding":"weak",
   "name":"_ZNK7android12SortedVectorINS_16key_value_pair_tIiNS_13ALooperRoster11HandlerInfoEEEE15do_move_forwardEPvPKvj"
  },
  {
   "binding":"weak",
   "name":"_ZNK7android12SortedVectorINS_16key_value_pair_tIiNS_13ALooperRoster11HandlerInfoEEEE16do_move_backwardEPvPKvj"
  },
  {
   "binding":"weak",
   "name":"_ZNK7android12SortedVectorINS_16key_value_pair_tIiNS_13ALooperRoster11HandlerInfoEEEE7do_copyEPvPKvj"
  },
  {
   "binding":"weak",
   "name":"_ZNK7android12SortedVectorINS_16key_value_pair_tIiNS_13ALooperRoster11HandlerInfoEEEE8do_splatEPvPKvj"
  },
  {
   "binding":"weak",
   "name":"_ZNK7android12SortedVectorINS_16key_value_pair_tIiNS_2spINS_15ANetworkSession7SessionEEEEEE10do_compareEPKvS9_"
  },
  {
   "binding":"weak",
   "name":"_ZNK7android12SortedVectorINS_16key_value_pair_tIiNS_2spINS_15ANetworkSession7SessionEEEEEE10do_destroyEPvj"
  },
  {
   "binding":"weak",
   "name":"_ZNK7android12SortedVectorINS_16key_value_pair_tIiNS_2spINS_15ANetworkSession7SessionEEEEEE12do_constructEPvj"
  },
  {
   "binding":"weak",
   "name":"_ZNK7android12SortedVectorINS_16key_value_pair_tIiNS_2spINS_15ANetworkSession7SessionEEEEEE15do_move_forwardEPvPKvj"
  },
  {
   "binding":"weak",
   "name":"_ZNK7android12SortedVectorINS_16key_value_pair_tIiNS_2spINS_15ANetworkSession7SessionEEEEEE16do_move_backwardEPvPKvj"
  },
  {
   "binding":"weak",
   "name":"_ZNK7android12SortedVectorINS_16key_value_pair_tIiNS_2spINS_15ANetworkSession7SessionEEEEEE7do_copyEPvPKvj"
  },
  {
   "binding":"weak",
   "name":"_ZNK7android12SortedVectorINS_16key_value_pair_tIiNS_2spINS_15ANetworkSession7SessionEEEEEE8do_splatEPvPKvj"
  },
  {
   "name":"_ZNK7android13ParsedMessage10findStringEPKcPNS_7AStringE"
  },
  {
   "name":"_ZNK7android13ParsedMessage10getContentEv"
  },
  {
   "name":"_ZNK7android13ParsedMessage11debugStringEv"
  },
  {
   "name":"_ZNK7android13ParsedMessage13getStatusCodeEPi"
  },
  {
   "name":"_ZNK7android13ParsedMessage15getRequestFieldEjPNS_7AStringE"
  },
  {
   "name":"_ZNK7android13ParsedMessage9findInt32EPKcPi"
  },
  {
   "binding":"weak",
   "name":"_ZNK7android6VectorINS_2spINS_6AStateEEEE10do_destroyEPvj"
  },
  {
   "binding":"weak",
   "name":"_ZNK7android6VectorINS_2spINS_6AStateEEEE12do_constructEPvj"
  },
  {
   "binding":"weak",
   "name":"_ZNK7android6VectorINS_2spINS_6AStateEEEE15do_move_forwardEPvPKvj"
  },
  {
   "binding":"weak",
   "name":"_ZNK7android6VectorINS_2spINS_6AStateEEEE16do_move_backwardEPvPKvj"
  },
  {
   "binding":"weak",
   "name":"_ZNK7android6VectorINS_2spINS_6AStateEEEE7do_copyEPvPKvj"
  },
  {
   "binding":"weak",
   "name":"_ZNK7android6VectorINS_2spINS_6AStateEEEE8do_splatEPvPKvj"
  },
  {
   "binding":"weak",
   "name":"_ZNK7android6VectorINS_2spINS_7ALooperEEEE10do_destroyEPvj"
  },
  {
   "binding":"weak",
   "name":"_ZNK7android6VectorINS_2spINS_7ALooperEEEE12do_constructEPvj"
  },
  {
   "binding":"weak",
   "name":"_ZNK7android6VectorINS_2spINS_7ALooperEEEE15do_move_forwardEPvPKvj"
  },
  {
   "binding":"weak",
   "name":"_ZNK7android6VectorINS_2spINS_7ALooperEEEE16do_move_backwardEPvPKvj"
  },
  {
   "binding":"weak",
   "name":"_ZNK7android6VectorINS_2spINS_7ALooperEEEE7do_copyEPvPKvj"
  },
  {
   "binding":"weak",
   "name":"_ZNK7android6VectorINS_2spINS_7ALooperEEEE8do_splatEPvPKvj"
  },
  {
   "binding":"weak",
   "name":"_ZNK7android6VectorINS_4ListINS_7AStringEEEE10do_destroyEPvj"
  },
  {
   "binding":"weak",
   "name":"_ZNK7android6VectorINS_4ListINS_7AStringEEEE12do_constructEPvj"
  },
  {
   "binding":"weak",
   "name":"_ZNK7android6VectorINS_4ListINS_7AStringEEEE15do_move_forwardEPvPKvj"
  },
  {
   "binding":"weak",
   "name":"_ZNK7android6VectorINS_4ListINS_7AStringEEEE16do_move_backwardEPvPKvj"
  },
  {
   "binding":"weak",
   "name":"_ZNK7android6VectorINS_4ListINS_7AStringEEEE7do_copyEPvPKvj"
  },
  {
   "binding":"weak",
   "name":"_ZNK7android6VectorINS_4ListINS_7AStringEEEE8do_splatEPvPKvj"
  },
  {
   "name":"_ZNK7android7AString10startsWithEPKc"
  },
  {
   "name":"_ZNK7android7AString13writeToParcelEPNS_6ParcelE"
  },
  {
   "name":"_ZNK7android7AString16equalsIgnoreCaseERKS0_"
  },
  {
   "name":"_ZNK7android7AString17compareIgnoreCaseERKS0_"
  },
  {
   "name":"_ZNK7android7AString18endsWithIgnoreCaseEPKc"
  },
  {
   "name":"_ZNK7android7AString20startsWithIgnoreCaseEPKc"
  },
  {
   "name":"_ZNK7android7AString4findEPKcj"
  },
  {
   "name":"_ZNK7android7AString4hashEv"
  },
  {
   "name":"_ZNK7android7AString4sizeEv"
  },
  {
   "name":"_ZNK7android7AString5c_strEv"
  },
  {
   "name":"_ZNK7android7AString5emptyEv"
  },
  {
   "name":"_ZNK7android7AString7compareERKS0_"
  },
  {
   "name":"_ZNK7android7AString8endsWithEPKc"
  },
  {
   "name":"_ZNK7android7AStringeqERKS0_"
  },
  {
   "name":"_ZNK7android7AStringgtERKS0_"
  },
  {
   "name":"_ZNK7android7AStringltERKS0_"
  },
  {
   "name":"_ZNK7android8AMessage10findBufferEPKcPNS_2spINS_7ABufferEEE"
  },
  {
   "name":"_ZNK7android8AMessage10findDoubleEPKcPd"
  },
  {
   "name":"_ZNK7android8AMessage10findObjectEPKcPNS_2spINS_7RefBaseEEE"
  },
  {
   "name":"_ZNK7android8AMessage10findStringEPKcPNS_7AStringE"
  },
  {
   "name":"_ZNK7android8AMessage10getEntryAtEj"
  },
  {
   "name":"_ZNK7android8AMessage11changesFromERKNS_2spIKS0_EEb"
  },
  {
   "name":"_ZNK7android8AMessage11debugStringEi"
  },
  {
   "name":"_ZNK7android8AMessage11findAsFloatEPKcPf"
  },
  {
   "name":"_ZNK7android8AMessage11findAsInt64EPKcPx"
  },
  {
   "name":"_ZNK7android8AMessage11findMessageEPKcPNS_2spIS0_EE"
  },
  {
   "name":"_ZNK7android8AMessage11findPointerEPKcPPv"
  },
  {
   "name":"_ZNK7android8AMessage12countEntriesEv"
  },
  {
   "name":"_ZNK7android8AMessage13writeToParcelEPNS_6ParcelE"
  },
  {
   "name":"_ZNK7android8AMessage14getEntryNameAtEjPNS0_4TypeE"
  },
  {
   "name":"_ZNK7android8AMessage15findEntryByNameEPKc"
  },
  {
   "name":"_ZNK7android8AMessage3dupEv"
  },
  {
   "name":"_ZNK7android8AMessage4whatEv"
  },
  {
   "name":"_ZNK7android8AMessage8containsEPKc"
  },
  {
   "name":"_ZNK7android8AMessage8findItemEPKc"
  },
  {
   "name":"_ZNK7android8AMessage8findItemEPKcNS0_4TypeE"
  },
  {
   "name":"_ZNK7android8AMessage8findRectEPKcPiS3_S3_S3_"
  },
  {
   "name":"_ZNK7android8AMessage8findSizeEPKcPj"
  },
  {
   "name":"_ZNK7android8AMessage9findFloatEPKcPf"
  },
  {
   "name":"_ZNK7android8AMessage9findInt32EPKcPi"
  },
  {
   "name":"_ZNK7android8AMessage9findInt64EPKcPx"
  }
 ],
 "elf_objects":[
  {
   "name":"_ZN7android23MEDIA_MIMETYPE_TEXT_VTTE"
  },
  {
   "name":"_ZN7android24MEDIA_MIMETYPE_AUDIO_AACE"
  },
  {
   "name":"_ZN7android24MEDIA_MIMETYPE_AUDIO_AC3E"
  },
  {
   "name":"_ZN7android24MEDIA_MIMETYPE_AUDIO_RAWE"
  },
  {
   "name":"_ZN7android24MEDIA_MIMETYPE_TEXT_3GPPE"
  },
  {
   "name":"_ZN7android24MEDIA_MIMETYPE_VIDEO_AVCE"
  },
  {
   "name":"_ZN7android24MEDIA_MIMETYPE_VIDEO_RAWE"
  },
  {
   "name":"_ZN7android24MEDIA_MIMETYPE_VIDEO_VP8E"
  },
  {
   "name":"_ZN7android24MEDIA_MIMETYPE_VIDEO_VP9E"
  },
  {
   "name":"_ZN7android24kATSParserKeyMediaTimeUsE"
  },
  {
   "name":"_ZN7android24kATSParserKeyResumeAtPTSE"
  },
  {
   "name":"_ZN7android25MEDIA_MIMETYPE_AUDIO_EAC3E"
  },
  {
   "name":"_ZN7android25MEDIA_MIMETYPE_AUDIO_FLACE"
  },
  {
   "name":"_ZN7android25MEDIA_MIMETYPE_AUDIO_MIDIE"
  },
  {
   "name":"_ZN7android25MEDIA_MIMETYPE_AUDIO_MPEGE"
  },
  {
   "name":"_ZN7android25MEDIA_MIMETYPE_AUDIO_OPUSE"
  },
  {
   "name":"_ZN7android25MEDIA_MIMETYPE_IMAGE_JPEGE"
  },
  {
   "name":"_ZN7android25MEDIA_MIMETYPE_VIDEO_H263E"
  },
  {
   "name":"_ZN7android25MEDIA_MIMETYPE_VIDEO_HEVCE"
  },
  {
   "name":"_ZN7android26MEDIA_MIMETYPE_AUDIO_MSGSME"
  },
  {
   "name":"_ZN7android26MEDIA_MIMETYPE_AUDIO_QCELPE"
  },
  {
   "name":"_ZN7android26MEDIA_MIMETYPE_TEXT_SUBRIPE"
  },
  {
   "name":"_ZN7android26MEDIA_MIMETYPE_VIDEO_MPEG2E"
  },
  {
   "name":"_ZN7android26MEDIA_MIMETYPE_VIDEO_MPEG4E"
  },
  {
   "name":"_ZN7android27MEDIA_MIMETYPE_AUDIO_AMR_NBE"
  },
  {
   "name":"_ZN7android27MEDIA_MIMETYPE_AUDIO_AMR_WBE"
  },
  {
   "name":"_ZN7android27MEDIA_MIMETYPE_AUDIO_VORBISE"
  },
  {
   "name":"_ZN7android27MEDIA_MIMETYPE_TEXT_CEA_608E"
  },
  {
   "name":"_ZN7android27MEDIA_MIMETYPE_TEXT_CEA_708E"
  },
  {
   "name":"_ZN7android28MEDIA_MIMETYPE_CONTAINER_AVIE"
  },
  {
   "name":"_ZN7android28MEDIA_MIMETYPE_CONTAINER_OGGE"
  },
  {
   "name":"_ZN7android28MEDIA_MIMETYPE_CONTAINER_WAVE"
  },
  {
   "name":"_ZN7android29MEDIA_MIMETYPE_AUDIO_AAC_ADTSE"
  },
  {
   "name":"_ZN7android29MEDIA_MIMETYPE_CONTAINER_HEIFE"
  },
  {
   "name":"_ZN7android29MEDIA_MIMETYPE_DATA_TIMED_ID3E"
  },
  {
   "name":"_ZN7android30MEDIA_MIMETYPE_AUDIO_G711_ALAWE"
  },
  {
   "name":"_ZN7android30MEDIA_MIMETYPE_AUDIO_G711_MLAWE"
  },
  {
   "name":"_ZN7android30MEDIA_MIMETYPE_AUDIO_SCRAMBLEDE"
  },
  {
   "name":"_ZN7android30MEDIA_MIMETYPE_CONTAINER_MPEG4E"
  },
  {
   "name":"_ZN7android30MEDIA_MIMETYPE_VIDEO_SCRAMBLEDE"
  },
  {
   "name":"_ZN7android30kATSParserKeyRecentMediaTimeUsE"
  },
  {
   "name":"_ZN7android32MEDIA_MIMETYPE_CONTAINER_MPEG2PSE"
  },
  {
   "name":"_ZN7android32MEDIA_MIMETYPE_CONTAINER_MPEG2TSE"
  },
  {
   "name":"_ZN7android33MEDIA_MIMETYPE_AUDIO_MPEG_LAYER_IE"
  },
  {
   "name":"_ZN7android33MEDIA_MIMETYPE_CONTAINER_MATROSKAE"
  },
  {
   "name":"_ZN7android33MEDIA_MIMETYPE_IMAGE_ANDROID_HEICE"
  },
  {
   "name":"_ZN7android33MEDIA_MIMETYPE_VIDEO_DOLBY_VISIONE"
  },
  {
   "name":"_ZN7android34MEDIA_MIMETYPE_AUDIO_MPEG_LAYER_IIE"
  },
  {
   "name":"_ZN7android36kIStreamListenerKeyDiscontinuityMaskE"
  },
  {
   "name":"_ZN7android7AString12kEmptyStringE"
  },
  {
   "name":"_ZN7android9AAtomizer9gAtomizerE"
  },
  {
   "name":"_ZTVN7android10ABitReaderE"
  },
  {
   "binding":"weak",
   "name":"_ZTVN7android11AReplyTokenE"
  },
  {
   "name":"_ZTVN7android12NALBitReaderE"
  },
  {
   "binding":"weak",
   "name":"_ZTVN7android12SortedVectorINS_16key_value_pair_tINS_7AStringES2_EEEE"
  },
  {
   "binding":"weak",
   "name":"_ZTVN7android12SortedVectorINS_16key_value_pair_tIiNS_13ALooperRoster11HandlerInfoEEEEE"
  },
  {
   "binding":"weak",
   "name":"_ZTVN7android12SortedVectorINS_16key_value_pair_tIiNS_2spINS_15ANetworkSession7SessionEEEEEEE"
  },
  {
   "name":"_ZTVN7android13ParsedMessageE"
  },
  {
   "name":"_ZTVN7android15ANetworkSessionE"
  },
  {
   "name":"_ZTVN7android25AHierarchicalStateMachineE"
  },
  {
   "binding":"weak",
   "name":"_ZTVN7android4ListINS_15ANetworkSession7Session8FragmentEEE"
  },
  {
   "binding":"weak",
   "name":"_ZTVN7android4ListINS_7ALooper5EventEEE"
  },
  {
   "binding":"weak",
   "name":"_ZTVN7android4ListINS_7AStringEEE"
  },
  {
   "name":"_ZTVN7android6AStateE"
  },
  {
   "binding":"weak",
   "name":"_ZTVN7android6VectorINS_2spINS_6AStateEEEEE"
  },
  {
   "binding":"weak",
   "name":"_ZTVN7android6VectorINS_2spINS_7ALooperEEEEE"
  },
  {
   "binding":"weak",
   "name":"_ZTVN7android6VectorINS_4ListINS_7AStringEEEEE"
  },
  {
   "name":"_ZTVN7android7ABufferE"
  },
  {
   "name":"_ZTVN7android7ALooperE"
  },
  {
   "name":"_ZTVN7android8AMessageE"
  }
 ]
}