{
 "record_types":[
  {
   "vtable_components":[
    {
     "kind":"offset_to_top"
    },
    {
     "kind":"rtti",
     "mangled_component_name":"_ZTIN7android6VectorINS_22SimpleSoftOMXComponent8PortInfoEEE"
    },
    {
     "kind":"complete_dtor_pointer",
     "mangled_component_name":"_ZN7android6VectorINS_22SimpleSoftOMXComponent8PortInfoEED1Ev"
    },
    {
     "kind":"deleting_dtor_pointer",
     "mangled_component_name":"_ZN7android6VectorINS_22SimpleSoftOMXComponent8PortInfoEED0Ev"
    },
    {
     "mangled_component_name":"_ZNK7android6VectorINS_22SimpleSoftOMXComponent8PortInfoEE12do_constructEPvj"
    },
    {
     "mangled_component_name":"_ZNK7android6VectorINS_22SimpleSoftOMXComponent8PortInfoEE10do_destroyEPvj"
    },
    {
     "mangled_component_name":"_ZNK7android6VectorINS_22SimpleSoftOMXComponent8PortInfoEE7do_copyEPvPKvj"
    },
    {
     "mangled_component_name":"_ZNK7android6VectorINS_22SimpleSoftOMXComponent8PortInfoEE8do_splatEPvPKvj"
    },
    {
     "mangled_component_name":"_ZNK7android6VectorINS_22SimpleSoftOMXComponent8PortInfoEE15do_move_forwardEPvPKvj"
    },
    {
     "mangled_component_name":"_ZNK7android6VectorINS_22SimpleSoftOMXComponent8PortInfoEE16do_move_backwardEPvPKvj"
    }
   ],
   "unique_id":"_ZTSN7android6VectorINS_22SimpleSoftOMXComponent8PortInfoEEE"
  },
  {
   "vtable_components":[
    {
     "kind":"offset_to_top"
    },
    {
     "kind":"rtti",
     "mangled_component_name":"_ZTIN7android6VectorINS_22SimpleSoftOMXComponent10BufferInfoEEE"
    },
    {
     "kind":"complete_dtor_pointer",
     "mangled_component_name":"_ZN7android6VectorINS_22SimpleSoftOMXComponent10BufferInfoEED1Ev"
    },
    {
     "kind":"deleting_dtor_pointer",
     "mangled_component_name":"_ZN7android6VectorINS_22SimpleSoftOMXComponent10BufferInfoEED0Ev"
    },
    {
     "mangled_component_name":"_ZNK7android6VectorINS_22SimpleSoftOMXComponent10BufferInfoEE12do_constructEPvj"
    },
    {
     "mangled_component_name":"_ZNK7android6VectorINS_22SimpleSoftOMXComponent10BufferInfoEE10do_destroyEPvj"
    },
    {
     "mangled_component_name":"_ZNK7android6VectorINS_22SimpleSoftOMXComponent10BufferInfoEE7do_copyEPvPKvj"
    },
    {
     "mangled_component_name":"_ZNK7android6VectorINS_22SimpleSoftOMXComponent10BufferInfoEE8do_splatEPvPKvj"
    },
    {
     "mangled_component_name":"_ZNK7android6VectorINS_22SimpleSoftOMXComponent10BufferInfoEE15do_move_forwardEPvPKvj"
    },
    {
     "mangled_component_name":"_ZNK7android6VectorINS_22SimpleSoftOMXComponent10BufferInfoEE16do_move_backwardEPvPKvj"
    }
   ],
   "unique_id":"_ZTSN7android6VectorINS_22SimpleSoftOMXComponent10BufferInfoEEE"
  },
  {
   "vtable_components":[
    {
     "kind":"offset_to_top"
    },
    {
     "kind":"rtti",
     "mangled_component_name":"_ZTIN7android4ListIPNS_22SimpleSoftOMXComponent10BufferInfoEEE"
    },
    {
     "kind":"complete_dtor_pointer",
     "mangled_component_name":"_ZN7android4ListIPNS_22SimpleSoftOMXComponent10BufferInfoEED1Ev"
    },
    {
     "kind":"deleting_dtor_pointer",
     "mangled_component_name":"_ZN7android4ListIPNS_22SimpleSoftOMXComponent10BufferInfoEED0Ev"
    }
   ],
   "unique_id":"_ZTSN7android4ListIPNS_22SimpleSoftOMXComponent10BufferInfoEEE"
  },
  {
   "vtable_components":[
    {
     "kind":"offset_to_top"
    },
    {
     "kind":"rtti",
     "mangled_component_name":"_ZTIN7android16SoftAMRNBEncoderE"
    },
    {
     "kind":"complete_dtor_pointer",
     "mangled_component_name":"_ZN7android16SoftAMRNBEncoderD1Ev"
    },
    {
     "kind":"deleting_dtor_pointer",
     "mangled_component_name":"_ZN7android16SoftAMRNBEncoderD0Ev"
    },
    {
     "mangled_component_name":"_ZN7android7RefBase10onFirstRefEv"
    },
    {
     "mangled_component_name":"_ZN7android7RefBase15onLastStrongRefEPKv"
    },
    {
     "mangled_component_name":"_ZN7android7RefBase20onIncStrongAttemptedEjPKv"
    },
    {
     "mangled_component_name":"_ZN7android7RefBase13onLastWeakRefEPKv"
    },
    {
     "mangled_component_name":"_ZNK7android16SoftOMXComponent9initCheckEv"
    },
    {
     "mangled_component_name":"_ZN7android22SimpleSoftOMXComponent21prepareForDestructionEv"
    },
    {
     "mangled_component_name":"_ZN7android22SimpleSoftOMXComponent11sendCommandE15OMX_COMMANDTYPEjPv"
    },
    {
     "mangled_component_name":"_ZN7android22SimpleSoftOMXComponent12getParameterE13OMX_INDEXTYPEPv"
    },
    {
     "mangled_component_name":"_ZN7android22SimpleSoftOMXComponent12setParameterE13OMX_INDEXTYPEPv"
    },
    {
     "mangled_component_name":"_ZN7android16SoftOMXComponent9getConfigE13OMX_INDEXTYPEPv"
    },
    {
     "mangled_component_name":"_ZN7android16SoftOMXComponent9setConfigE13OMX_INDEXTYPEPv"
    },
    {
     "mangled_component_name":"_ZN7android16SoftOMXComponent17getExtensionIndexEPKcP13OMX_INDEXTYPE"
    },
    {
     "mangled_component_name":"_ZN7android22SimpleSoftOMXComponent9useBufferEPP20OMX_BUFFERHEADERTYPEjPvjPh"
    },
    {
     "mangled_component_name":"_ZN7android22SimpleSoftOMXComponent14allocateBufferEPP20OMX_BUFFERHEADERTYPEjPvj"
    },
    {
     "mangled_component_name":"_ZN7android22SimpleSoftOMXComponent10freeBufferEjP20OMX_BUFFERHEADERTYPE"
    },
    {
     "mangled_component_name":"_ZN7android22SimpleSoftOMXComponent15emptyThisBufferEP20OMX_BUFFERHEADERTYPE"
    },
    {
     "mangled_component_name":"_ZN7android22SimpleSoftOMXComponent14fillThisBufferEP20OMX_BUFFERHEADERTYPE"
    },
    {
     "mangled_component_name":"_ZN7android22SimpleSoftOMXComponent8getStateEP13OMX_STATETYPE"
    },
    {
     "mangled_component_name":"_ZN7android16SoftAMRNBEncoder20internalGetParameterE13OMX_INDEXTYPEPv"
    },
    {
     "mangled_component_name":"_ZN7android16SoftAMRNBEncoder20internalSetParameterE13OMX_INDEXTYPEPv"
    },
    {
     "mangled_component_name":"_ZN7android16SoftAMRNBEncoder13onQueueFilledEj"
    },
    {
     "mangled_component_name":"_ZN7android22SimpleSoftOMXComponent20onPortFlushCompletedEj"
    },
    {
     "mangled_component_name":"_ZN7android22SimpleSoftOMXComponent21onPortEnableCompletedEjb"
    },
    {
     "mangled_component_name":"_ZN7android22SimpleSoftOMXComponent7onResetEv"
    }
   ],
   "unique_id":"_ZTSN7android16SoftAMRNBEncoderE"
  }
 ],
 "elf_functions":[
  {
   "name":"AMREncode"
  },
  {
   "name":"AMREncodeExit"
  },
  {
   "name":"AMREncodeInit"
  },
  {
   "name":"AMREncodeReset"
  },
  {
   "name":"Autocorr"
  },
  {
   "name":"Convolve"
  },
  {
   "name":"Enc_lag3"
  },
  {
   "name":"Enc_lag6"
  },
  {
   "name":"GSMEncodeFrame"
  },
  {
   "name":"GSMEncodeFrameExit"
  },
  {
   "name":"GSMInitEncode"
  },
  {
   "name":"G_code"
  },
  {
   "name":"G_pitch"
  },
  {
   "name":"Interpol_3or6"
  },
  {
   "name":"Lag_window"
  },
  {
   "name":"Levinson"
  },
  {
   "name":"Levinson_exit"
  },
  {
   "name":"Levinson_init"
  },
  {
   "name":"Levinson_reset"
  },
  {
   "name":"MR475_gain_quant"
  },
  {
   "name":"MR475_update_unq_pred"
  },
  {
   "name":"MR795_gain_quant"
  },
  {
   "name":"Pitch_fr"
  },
  {
   "name":"Pitch_fr_exit"
  },
  {
   "name":"Pitch_fr_init"
  },
  {
   "name":"Pitch_fr_reset"
  },
  {
   "name":"Pitch_ol"
  },
  {
   "name":"Pre_Process"
  },
  {
   "name":"Pre_Process_exit"
  },
  {
   "name":"Pre_Process_init"
  },
  {
   "name":"Pre_Process_reset"
  },
  {
   "name":"Prm2bits"
  },
  {
   "name":"Speech_Encode_Frame_First"
  },
  {
   "name":"Speech_Encode_Frame_reset"
  },
  {
   "name":"_Z22createSoftOMXComponentPKcPK16OMX_CALLBACKTYPEPvPP17OMX_COMPONENTTYPE"
  },
  {
   "name":"_ZN7android16SoftAMRNBEncoder11initEncoderEv"
  },
  {
   "name":"_ZN7android16SoftAMRNBEncoder13onQueueFilledEj"
  },
  {
   "name":"_ZN7android16SoftAMRNBEncoder20internalGetParameterE13OMX_INDEXTYPEPv"
  },
  {
   "name":"_ZN7android16SoftAMRNBEncoder20internalSetParameterE13OMX_INDEXTYPEPv"
  },
  {
   "name":"_ZN7android16SoftAMRNBEncoder9initPortsEv"
  },
  {
   "name":"_ZN7android16SoftAMRNBEncoderC1EPKcPK16OMX_CALLBACKTYPEPvPP17OMX_COMPONENTTYPE"
  },
  {
   "name":"_ZN7android16SoftAMRNBEncoderC2EPKcPK16OMX_CALLBACKTYPEPvPP17OMX_COMPONENTTYPE"
  },
  {
   "name":"_ZN7android16SoftAMRNBEncoderD0Ev"
  },
  {
   "name":"_ZN7android16SoftAMRNBEncoderD1Ev"
  },
  {
   "name":"_ZN7android16SoftAMRNBEncoderD2Ev"
  },
  {
   "binding":"weak",
   "name":"_ZNK7android6VectorINS_22SimpleSoftOMXComponent10BufferInfoEE10do_destroyEPvj"
  },
  {
   "binding":"weak",
   "name":"_ZNK7android6VectorINS_22SimpleSoftOMXComponent10BufferInfoEE12do_constructEPvj"
  },
  {
   "binding":"weak",
   "name":"_ZNK7android6VectorINS_22SimpleSoftOMXComponent10BufferInfoEE15do_move_forwardEPvPKvj"
  },
  {
   "binding":"weak",
   "name":"_ZNK7android6VectorINS_22SimpleSoftOMXComponent10BufferInfoEE16do_move_backwardEPvPKvj"
  },
  {
   "binding":"weak",
   "name":"_ZNK7android6VectorINS_22SimpleSoftOMXComponent10BufferInfoEE7do_copyEPvPKvj"
  },
  {
   "binding":"weak",
   "name":"_ZNK7android6VectorINS_22SimpleSoftOMXComponent10BufferInfoEE8do_splatEPvPKvj"
  },
  {
   "binding":"weak",
   "name":"_ZNK7android6VectorINS_22SimpleSoftOMXComponent8PortInfoEE10do_destroyEPvj"
  },
  {
   "binding":"weak",
   "name":"_ZNK7android6VectorINS_22SimpleSoftOMXComponent8PortInfoEE12do_constructEPvj"
  },
  {
   "binding":"weak",
   "name":"_ZNK7android6VectorINS_22SimpleSoftOMXComponent8PortInfoEE15do_move_forwardEPvPKvj"
  },
  {
   "binding":"weak",
   "name":"_ZNK7android6VectorINS_22SimpleSoftOMXComponent8PortInfoEE16do_move_backwardEPvPKvj"
  },
  {
   "binding":"weak",
   "name":"_ZNK7android6VectorINS_22SimpleSoftOMXComponent8PortInfoEE7do_copyEPvPKvj"
  },
  {
   "binding":"weak",
   "name":"_ZNK7android6VectorINS_22SimpleSoftOMXComponent8PortInfoEE8do_splatEPvPKvj"
  },
  {
   "name":"calc_filt_energies"
  },
  {
   "name":"calc_target_energy"
  },
  {
   "name":"calc_unfilt_energies"
  },
  {
   "name":"cbsearch"
  },
  {
   "name":"check_gp_clipping"
  },
  {
   "name":"check_lsp"
  },
  {
   "name":"cl_ltp"
  },
  {
   "name":"cl_ltp_exit"
  },
  {
   "name":"cl_ltp_init"
  },
  {
   "name":"cl_ltp_reset"
  },
  {
   "name":"cod_amr"
  },
  {
   "name":"cod_amr_exit"
  },
  {
   "name":"cod_amr_first"
  },
  {
   "name":"cod_amr_init"
  },
  {
   "name":"cod_amr_reset"
  },
  {
   "name":"code_10i40_35bits"
  },
  {
   "name":"code_2i40_11bits"
  },
  {
   "name":"code_2i40_9bits"
  },
  {
   "name":"code_3i40_14bits"
  },
  {
   "name":"code_4i40_17bits"
  },
  {
   "name":"code_8i40_31bits"
  },
  {
   "name":"comp_corr"
  },
  {
   "name":"cor_h"
  },
  {
   "name":"cor_h_x"
  },
  {
   "name":"cor_h_x2"
  },
  {
   "name":"dtx_buffer"
  },
  {
   "name":"dtx_enc"
  },
  {
   "name":"dtx_enc_exit"
  },
  {
   "name":"dtx_enc_init"
  },
  {
   "name":"dtx_enc_reset"
  },
  {
   "name":"ets_to_if2"
  },
  {
   "name":"ets_to_wmf"
  },
  {
   "name":"gainQuant"
  },
  {
   "name":"gainQuant_exit"
  },
  {
   "name":"gainQuant_init"
  },
  {
   "name":"gainQuant_reset"
  },
  {
   "name":"gain_adapt"
  },
  {
   "name":"gain_adapt_exit"
  },
  {
   "name":"gain_adapt_init"
  },
  {
   "name":"gain_adapt_reset"
  },
  {
   "name":"hp_max"
  },
  {
   "name":"lpc"
  },
  {
   "name":"lpc_exit"
  },
  {
   "name":"lpc_init"
  },
  {
   "name":"lpc_reset"
  },
  {
   "name":"ol_ltp"
  },
  {
   "name":"pre_big"
  },
  {
   "name":"q_gain_code"
  },
  {
   "name":"q_gain_pitch"
  },
  {
   "name":"search_10and8i40"
  },
  {
   "name":"set_sign"
  },
  {
   "name":"set_sign12k2"
  },
  {
   "name":"sid_sync"
  },
  {
   "name":"sid_sync_exit"
  },
  {
   "name":"sid_sync_init"
  },
  {
   "name":"sid_sync_reset"
  },
  {
   "name":"sid_sync_set_handover_debt"
  },
  {
   "name":"subframePostProc"
  },
  {
   "name":"subframePreProc"
  },
  {
   "name":"ton_stab_exit"
  },
  {
   "name":"ton_stab_init"
  },
  {
   "name":"ton_stab_reset"
  },
  {
   "name":"tx_dtx_handler"
  },
  {
   "name":"update_gp_clipping"
  }
 ],
 "elf_objects":[
  {
   "name":"If2EncBytesPerFrame"
  },
  {
   "name":"WmfEncBytesPerFrame"
  },
  {
   "name":"_ZTVN7android16SoftAMRNBEncoderE"
  },
  {
   "binding":"weak",
   "name":"_ZTVN7android4ListIPNS_22SimpleSoftOMXComponent10BufferInfoEEE"
  },
  {
   "binding":"weak",
   "name":"_ZTVN7android6VectorINS_22SimpleSoftOMXComponent10BufferInfoEEE"
  },
  {
   "binding":"weak",
   "name":"_ZTVN7android6VectorINS_22SimpleSoftOMXComponent8PortInfoEEE"
  },
  {
   "name":"inter_6"
  },
  {
   "name":"lag_h"
  },
  {
   "name":"lag_l"
  }
 ]
}