{
 "record_types":[],
 "elf_functions":[
  {
   "name":"ABGRToARGB"
  },
  {
   "name":"ABGRToI420"
  },
  {
   "name":"ABGRToUVRow_Any_SSSE3"
  },
  {
   "name":"ABGRToUVRow_C"
  },
  {
   "name":"ABGRToUVRow_SSSE3"
  },
  {
   "name":"ABGRToYRow_Any_SSSE3"
  },
  {
   "name":"ABGRToYRow_C"
  },
  {
   "name":"ABGRToYRow_SSSE3"
  },
  {
   "name":"ARGB1555ToARGB"
  },
  {
   "name":"ARGB1555ToARGBRow_Any_SSE2"
  },
  {
   "name":"ARGB1555ToARGBRow_C"
  },
  {
   "name":"ARGB1555ToARGBRow_SSE2"
  },
  {
   "name":"ARGB1555ToI420"
  },
  {
   "name":"ARGB1555ToUVRow_C"
  },
  {
   "name":"ARGB1555ToYRow_C"
  },
  {
   "name":"ARGB4444ToARGB"
  },
  {
   "name":"ARGB4444ToARGBRow_Any_SSE2"
  },
  {
   "name":"ARGB4444ToARGBRow_C"
  },
  {
   "name":"ARGB4444ToARGBRow_SSE2"
  },
  {
   "name":"ARGB4444ToI420"
  },
  {
   "name":"ARGB4444ToUVRow_C"
  },
  {
   "name":"ARGB4444ToYRow_C"
  },
  {
   "name":"ARGBAdd"
  },
  {
   "name":"ARGBAddRow_AVX2"
  },
  {
   "name":"ARGBAddRow_Any_AVX2"
  },
  {
   "name":"ARGBAddRow_Any_SSE2"
  },
  {
   "name":"ARGBAddRow_C"
  },
  {
   "name":"ARGBAddRow_SSE2"
  },
  {
   "name":"ARGBAffineRow_C"
  },
  {
   "name":"ARGBAffineRow_SSE2"
  },
  {
   "name":"ARGBAttenuate"
  },
  {
   "name":"ARGBAttenuateRow_AVX2"
  },
  {
   "name":"ARGBAttenuateRow_Any_AVX2"
  },
  {
   "name":"ARGBAttenuateRow_Any_SSSE3"
  },
  {
   "name":"ARGBAttenuateRow_C"
  },
  {
   "name":"ARGBAttenuateRow_SSSE3"
  },
  {
   "name":"ARGBBlend"
  },
  {
   "name":"ARGBBlendRow_C"
  },
  {
   "name":"ARGBBlendRow_SSSE3"
  },
  {
   "name":"ARGBBlur"
  },
  {
   "name":"ARGBColorMatrix"
  },
  {
   "name":"ARGBColorMatrixRow_C"
  },
  {
   "name":"ARGBColorMatrixRow_SSSE3"
  },
  {
   "name":"ARGBColorTable"
  },
  {
   "name":"ARGBColorTableRow_C"
  },
  {
   "name":"ARGBColorTableRow_X86"
  },
  {
   "name":"ARGBComputeCumulativeSum"
  },
  {
   "name":"ARGBCopy"
  },
  {
   "name":"ARGBCopyAlpha"
  },
  {
   "name":"ARGBCopyAlphaRow_AVX2"
  },
  {
   "name":"ARGBCopyAlphaRow_Any_AVX2"
  },
  {
   "name":"ARGBCopyAlphaRow_Any_SSE2"
  },
  {
   "name":"ARGBCopyAlphaRow_C"
  },
  {
   "name":"ARGBCopyAlphaRow_SSE2"
  },
  {
   "name":"ARGBCopyYToAlpha"
  },
  {
   "name":"ARGBCopyYToAlphaRow_AVX2"
  },
  {
   "name":"ARGBCopyYToAlphaRow_Any_AVX2"
  },
  {
   "name":"ARGBCopyYToAlphaRow_Any_SSE2"
  },
  {
   "name":"ARGBCopyYToAlphaRow_C"
  },
  {
   "name":"ARGBCopyYToAlphaRow_SSE2"
  },
  {
   "name":"ARGBDetect"
  },
  {
   "name":"ARGBExtractAlpha"
  },
  {
   "name":"ARGBExtractAlphaRow_AVX2"
  },
  {
   "name":"ARGBExtractAlphaRow_Any_AVX2"
  },
  {
   "name":"ARGBExtractAlphaRow_Any_SSE2"
  },
  {
   "name":"ARGBExtractAlphaRow_C"
  },
  {
   "name":"ARGBExtractAlphaRow_SSE2"
  },
  {
   "name":"ARGBGray"
  },
  {
   "name":"ARGBGrayRow_C"
  },
  {
   "name":"ARGBGrayRow_SSSE3"
  },
  {
   "name":"ARGBGrayTo"
  },
  {
   "name":"ARGBInterpolate"
  },
  {
   "name":"ARGBLumaColorTable"
  },
  {
   "name":"ARGBLumaColorTableRow_C"
  },
  {
   "name":"ARGBLumaColorTableRow_SSSE3"
  },
  {
   "name":"ARGBMirror"
  },
  {
   "name":"ARGBMirrorRow_AVX2"
  },
  {
   "name":"ARGBMirrorRow_Any_AVX2"
  },
  {
   "name":"ARGBMirrorRow_Any_SSE2"
  },
  {
   "name":"ARGBMirrorRow_C"
  },
  {
   "name":"ARGBMirrorRow_SSE2"
  },
  {
   "name":"ARGBMultiply"
  },
  {
   "name":"ARGBMultiplyRow_AVX2"
  },
  {
   "name":"ARGBMultiplyRow_Any_AVX2"
  },
  {
   "name":"ARGBMultiplyRow_Any_SSE2"
  },
  {
   "name":"ARGBMultiplyRow_C"
  },
  {
   "name":"ARGBMultiplyRow_SSE2"
  },
  {
   "name":"ARGBPolynomial"
  },
  {
   "name":"ARGBPolynomialRow_AVX2"
  },
  {
   "name":"ARGBPolynomialRow_C"
  },
  {
   "name":"ARGBPolynomialRow_SSE2"
  },
  {
   "name":"ARGBQuantize"
  },
  {
   "name":"ARGBQuantizeRow_C"
  },
  {
   "name":"ARGBQuantizeRow_SSE2"
  },
  {
   "name":"ARGBRect"
  },
  {
   "name":"ARGBSepia"
  },
  {
   "name":"ARGBSepiaRow_C"
  },
  {
   "name":"ARGBSepiaRow_SSSE3"
  },
  {
   "name":"ARGBSetRow_C"
  },
  {
   "name":"ARGBSetRow_X86"
  },
  {
   "name":"ARGBShade"
  },
  {
   "name":"ARGBShadeRow_C"
  },
  {
   "name":"ARGBShadeRow_SSE2"
  },
  {
   "name":"ARGBShuffle"
  },
  {
   "name":"ARGBShuffleRow_AVX2"
  },
  {
   "name":"ARGBShuffleRow_Any_AVX2"
  },
  {
   "name":"ARGBShuffleRow_Any_SSE2"
  },
  {
   "name":"ARGBShuffleRow_Any_SSSE3"
  },
  {
   "name":"ARGBShuffleRow_C"
  },
  {
   "name":"ARGBShuffleRow_SSE2"
  },
  {
   "name":"ARGBShuffleRow_SSSE3"
  },
  {
   "name":"ARGBSobel"
  },
  {
   "name":"ARGBSobelToPlane"
  },
  {
   "name":"ARGBSobelXY"
  },
  {
   "name":"ARGBSubtract"
  },
  {
   "name":"ARGBSubtractRow_AVX2"
  },
  {
   "name":"ARGBSubtractRow_Any_AVX2"
  },
  {
   "name":"ARGBSubtractRow_Any_SSE2"
  },
  {
   "name":"ARGBSubtractRow_C"
  },
  {
   "name":"ARGBSubtractRow_SSE2"
  },
  {
   "name":"ARGBToARGB1555"
  },
  {
   "name":"ARGBToARGB1555Row_Any_SSE2"
  },
  {
   "name":"ARGBToARGB1555Row_C"
  },
  {
   "name":"ARGBToARGB1555Row_SSE2"
  },
  {
   "name":"ARGBToARGB4444"
  },
  {
   "name":"ARGBToARGB4444Row_Any_SSE2"
  },
  {
   "name":"ARGBToARGB4444Row_C"
  },
  {
   "name":"ARGBToARGB4444Row_SSE2"
  },
  {
   "name":"ARGBToI400"
  },
  {
   "name":"ARGBToI420"
  },
  {
   "name":"ARGBToI422"
  },
  {
   "name":"ARGBToI444"
  },
  {
   "name":"ARGBToJ400"
  },
  {
   "name":"ARGBToJ420"
  },
  {
   "name":"ARGBToJ422"
  },
  {
   "name":"ARGBToNV12"
  },
  {
   "name":"ARGBToNV21"
  },
  {
   "name":"ARGBToRAW"
  },
  {
   "name":"ARGBToRAWRow_Any_SSSE3"
  },
  {
   "name":"ARGBToRAWRow_C"
  },
  {
   "name":"ARGBToRAWRow_SSSE3"
  },
  {
   "name":"ARGBToRGB24"
  },
  {
   "name":"ARGBToRGB24Row_Any_SSSE3"
  },
  {
   "name":"ARGBToRGB24Row_C"
  },
  {
   "name":"ARGBToRGB24Row_SSSE3"
  },
  {
   "name":"ARGBToRGB565"
  },
  {
   "name":"ARGBToRGB565Dither"
  },
  {
   "name":"ARGBToRGB565DitherRow_AVX2"
  },
  {
   "name":"ARGBToRGB565DitherRow_Any_AVX2"
  },
  {
   "name":"ARGBToRGB565DitherRow_Any_SSE2"
  },
  {
   "name":"ARGBToRGB565DitherRow_C"
  },
  {
   "name":"ARGBToRGB565DitherRow_SSE2"
  },
  {
   "name":"ARGBToRGB565Row_Any_SSE2"
  },
  {
   "name":"ARGBToRGB565Row_C"
  },
  {
   "name":"ARGBToRGB565Row_SSE2"
  },
  {
   "name":"ARGBToRGBA"
  },
  {
   "name":"ARGBToUV444Row_Any_SSSE3"
  },
  {
   "name":"ARGBToUV444Row_C"
  },
  {
   "name":"ARGBToUV444Row_SSSE3"
  },
  {
   "name":"ARGBToUVJRow_AVX2"
  },
  {
   "name":"ARGBToUVJRow_Any_AVX2"
  },
  {
   "name":"ARGBToUVJRow_Any_SSSE3"
  },
  {
   "name":"ARGBToUVJRow_C"
  },
  {
   "name":"ARGBToUVJRow_SSSE3"
  },
  {
   "name":"ARGBToUVRow_AVX2"
  },
  {
   "name":"ARGBToUVRow_Any_AVX2"
  },
  {
   "name":"ARGBToUVRow_Any_SSSE3"
  },
  {
   "name":"ARGBToUVRow_C"
  },
  {
   "name":"ARGBToUVRow_SSSE3"
  },
  {
   "name":"ARGBToUYVY"
  },
  {
   "name":"ARGBToYJRow_AVX2"
  },
  {
   "name":"ARGBToYJRow_Any_AVX2"
  },
  {
   "name":"ARGBToYJRow_Any_SSSE3"
  },
  {
   "name":"ARGBToYJRow_C"
  },
  {
   "name":"ARGBToYJRow_SSSE3"
  },
  {
   "name":"ARGBToYRow_AVX2"
  },
  {
   "name":"ARGBToYRow_Any_AVX2"
  },
  {
   "name":"ARGBToYRow_Any_SSSE3"
  },
  {
   "name":"ARGBToYRow_C"
  },
  {
   "name":"ARGBToYRow_SSSE3"
  },
  {
   "name":"ARGBToYUY2"
  },
  {
   "name":"ARGBUnattenuate"
  },
  {
   "name":"ARGBUnattenuateRow_AVX2"
  },
  {
   "name":"ARGBUnattenuateRow_Any_AVX2"
  },
  {
   "name":"ARGBUnattenuateRow_Any_SSE2"
  },
  {
   "name":"ARGBUnattenuateRow_C"
  },
  {
   "name":"ARGBUnattenuateRow_SSE2"
  },
  {
   "name":"Android420ToI420"
  },
  {
   "name":"ArmCpuCaps"
  },
  {
   "name":"BGRAToARGB"
  },
  {
   "name":"BGRAToI420"
  },
  {
   "name":"BGRAToUVRow_Any_SSSE3"
  },
  {
   "name":"BGRAToUVRow_C"
  },
  {
   "name":"BGRAToUVRow_SSSE3"
  },
  {
   "name":"BGRAToYRow_Any_SSSE3"
  },
  {
   "name":"BGRAToYRow_C"
  },
  {
   "name":"BGRAToYRow_SSSE3"
  },
  {
   "name":"BlendPlane"
  },
  {
   "name":"BlendPlaneRow_AVX2"
  },
  {
   "name":"BlendPlaneRow_Any_AVX2"
  },
  {
   "name":"BlendPlaneRow_Any_SSSE3"
  },
  {
   "name":"BlendPlaneRow_C"
  },
  {
   "name":"BlendPlaneRow_SSSE3"
  },
  {
   "name":"CalcFramePsnr"
  },
  {
   "name":"CalcFrameSsim"
  },
  {
   "name":"CanonicalFourCC"
  },
  {
   "name":"ComputeCumulativeSumRow_C"
  },
  {
   "name":"ComputeCumulativeSumRow_SSE2"
  },
  {
   "name":"ComputeSumSquareError"
  },
  {
   "name":"ComputeSumSquareErrorPlane"
  },
  {
   "name":"ConvertFromI420"
  },
  {
   "name":"ConvertToARGB"
  },
  {
   "name":"ConvertToI420"
  },
  {
   "name":"CopyPlane"
  },
  {
   "name":"CopyPlane_16"
  },
  {
   "name":"CopyRow_16_C"
  },
  {
   "name":"CopyRow_AVX"
  },
  {
   "name":"CopyRow_Any_AVX"
  },
  {
   "name":"CopyRow_Any_SSE2"
  },
  {
   "name":"CopyRow_C"
  },
  {
   "name":"CopyRow_ERMS"
  },
  {
   "name":"CopyRow_SSE2"
  },
  {
   "name":"CpuId"
  },
  {
   "name":"CumulativeSumToAverageRow_C"
  },
  {
   "name":"CumulativeSumToAverageRow_SSE2"
  },
  {
   "name":"FixedDiv1_C"
  },
  {
   "name":"FixedDiv1_X86"
  },
  {
   "name":"FixedDiv_C"
  },
  {
   "name":"FixedDiv_X86"
  },
  {
   "name":"GetARGBBlend"
  },
  {
   "name":"H420ToABGR"
  },
  {
   "name":"H420ToARGB"
  },
  {
   "name":"H422ToABGR"
  },
  {
   "name":"H422ToARGB"
  },
  {
   "name":"HalfFloatPlane"
  },
  {
   "name":"HalfFloatRow_AVX2"
  },
  {
   "name":"HalfFloatRow_Any_AVX2"
  },
  {
   "name":"HalfFloatRow_Any_SSE2"
  },
  {
   "name":"HalfFloatRow_C"
  },
  {
   "name":"HalfFloatRow_SSE2"
  },
  {
   "name":"HashDjb2"
  },
  {
   "name":"HashDjb2_C"
  },
  {
   "name":"HashDjb2_SSE41"
  },
  {
   "name":"I400Copy"
  },
  {
   "name":"I400Mirror"
  },
  {
   "name":"I400ToARGB"
  },
  {
   "name":"I400ToARGBRow_AVX2"
  },
  {
   "name":"I400ToARGBRow_Any_AVX2"
  },
  {
   "name":"I400ToARGBRow_Any_SSE2"
  },
  {
   "name":"I400ToARGBRow_C"
  },
  {
   "name":"I400ToARGBRow_SSE2"
  },
  {
   "name":"I400ToI400"
  },
  {
   "name":"I400ToI420"
  },
  {
   "name":"I420AlphaToABGR"
  },
  {
   "name":"I420AlphaToARGB"
  },
  {
   "name":"I420Blend"
  },
  {
   "name":"I420Copy"
  },
  {
   "name":"I420Interpolate"
  },
  {
   "name":"I420Mirror"
  },
  {
   "name":"I420Psnr"
  },
  {
   "name":"I420Rect"
  },
  {
   "name":"I420Rotate"
  },
  {
   "name":"I420Scale"
  },
  {
   "name":"I420Scale_16"
  },
  {
   "name":"I420Ssim"
  },
  {
   "name":"I420ToABGR"
  },
  {
   "name":"I420ToARGB"
  },
  {
   "name":"I420ToARGB1555"
  },
  {
   "name":"I420ToARGB4444"
  },
  {
   "name":"I420ToBGRA"
  },
  {
   "name":"I420ToI400"
  },
  {
   "name":"I420ToI422"
  },
  {
   "name":"I420ToI444"
  },
  {
   "name":"I420ToNV12"
  },
  {
   "name":"I420ToNV21"
  },
  {
   "name":"I420ToRAW"
  },
  {
   "name":"I420ToRGB24"
  },
  {
   "name":"I420ToRGB565"
  },
  {
   "name":"I420ToRGB565Dither"
  },
  {
   "name":"I420ToRGBA"
  },
  {
   "name":"I420ToUYVY"
  },
  {
   "name":"I420ToYUY2"
  },
  {
   "name":"I422AlphaToARGBRow_AVX2"
  },
  {
   "name":"I422AlphaToARGBRow_Any_AVX2"
  },
  {
   "name":"I422AlphaToARGBRow_Any_SSSE3"
  },
  {
   "name":"I422AlphaToARGBRow_C"
  },
  {
   "name":"I422AlphaToARGBRow_SSSE3"
  },
  {
   "name":"I422Copy"
  },
  {
   "name":"I422ToABGR"
  },
  {
   "name":"I422ToARGB"
  },
  {
   "name":"I422ToARGB1555Row_AVX2"
  },
  {
   "name":"I422ToARGB1555Row_Any_AVX2"
  },
  {
   "name":"I422ToARGB1555Row_Any_SSSE3"
  },
  {
   "name":"I422ToARGB1555Row_C"
  },
  {
   "name":"I422ToARGB1555Row_SSSE3"
  },
  {
   "name":"I422ToARGB4444Row_AVX2"
  },
  {
   "name":"I422ToARGB4444Row_Any_AVX2"
  },
  {
   "name":"I422ToARGB4444Row_Any_SSSE3"
  },
  {
   "name":"I422ToARGB4444Row_C"
  },
  {
   "name":"I422ToARGB4444Row_SSSE3"
  },
  {
   "name":"I422ToARGBRow_AVX2"
  },
  {
   "name":"I422ToARGBRow_Any_AVX2"
  },
  {
   "name":"I422ToARGBRow_Any_SSSE3"
  },
  {
   "name":"I422ToARGBRow_C"
  },
  {
   "name":"I422ToARGBRow_SSSE3"
  },
  {
   "name":"I422ToBGRA"
  },
  {
   "name":"I422ToI420"
  },
  {
   "name":"I422ToRGB24Row_AVX2"
  },
  {
   "name":"I422ToRGB24Row_Any_AVX2"
  },
  {
   "name":"I422ToRGB24Row_Any_SSSE3"
  },
  {
   "name":"I422ToRGB24Row_C"
  },
  {
   "name":"I422ToRGB24Row_SSSE3"
  },
  {
   "name":"I422ToRGB565"
  },
  {
   "name":"I422ToRGB565Row_AVX2"
  },
  {
   "name":"I422ToRGB565Row_Any_AVX2"
  },
  {
   "name":"I422ToRGB565Row_Any_SSSE3"
  },
  {
   "name":"I422ToRGB565Row_C"
  },
  {
   "name":"I422ToRGB565Row_SSSE3"
  },
  {
   "name":"I422ToRGBA"
  },
  {
   "name":"I422ToRGBARow_AVX2"
  },
  {
   "name":"I422ToRGBARow_Any_AVX2"
  },
  {
   "name":"I422ToRGBARow_Any_SSSE3"
  },
  {
   "name":"I422ToRGBARow_C"
  },
  {
   "name":"I422ToRGBARow_SSSE3"
  },
  {
   "name":"I422ToUYVY"
  },
  {
   "name":"I422ToUYVYRow_Any_SSE2"
  },
  {
   "name":"I422ToUYVYRow_C"
  },
  {
   "name":"I422ToUYVYRow_SSE2"
  },
  {
   "name":"I422ToYUY2"
  },
  {
   "name":"I422ToYUY2Row_Any_SSE2"
  },
  {
   "name":"I422ToYUY2Row_C"
  },
  {
   "name":"I422ToYUY2Row_SSE2"
  },
  {
   "name":"I444Copy"
  },
  {
   "name":"I444ToABGR"
  },
  {
   "name":"I444ToARGB"
  },
  {
   "name":"I444ToARGBRow_AVX2"
  },
  {
   "name":"I444ToARGBRow_Any_AVX2"
  },
  {
   "name":"I444ToARGBRow_Any_SSSE3"
  },
  {
   "name":"I444ToARGBRow_C"
  },
  {
   "name":"I444ToARGBRow_SSSE3"
  },
  {
   "name":"I444ToI420"
  },
  {
   "name":"InitCpuFlags"
  },
  {
   "name":"InterpolatePlane"
  },
  {
   "name":"InterpolateRow_16_C"
  },
  {
   "name":"InterpolateRow_AVX2"
  },
  {
   "name":"InterpolateRow_Any_AVX2"
  },
  {
   "name":"InterpolateRow_Any_SSSE3"
  },
  {
   "name":"InterpolateRow_C"
  },
  {
   "name":"InterpolateRow_SSSE3"
  },
  {
   "name":"J400ToARGB"
  },
  {
   "name":"J400ToARGBRow_Any_SSE2"
  },
  {
   "name":"J400ToARGBRow_C"
  },
  {
   "name":"J400ToARGBRow_SSE2"
  },
  {
   "name":"J420ToABGR"
  },
  {
   "name":"J420ToARGB"
  },
  {
   "name":"J422ToABGR"
  },
  {
   "name":"J422ToARGB"
  },
  {
   "name":"J444ToARGB"
  },
  {
   "name":"M420ToARGB"
  },
  {
   "name":"M420ToI420"
  },
  {
   "name":"MJPGSize"
  },
  {
   "name":"MJPGToARGB"
  },
  {
   "name":"MJPGToI420"
  },
  {
   "name":"MaskCpuFlags"
  },
  {
   "name":"MergeUVPlane"
  },
  {
   "name":"MergeUVRow_AVX2"
  },
  {
   "name":"MergeUVRow_Any_AVX2"
  },
  {
   "name":"MergeUVRow_Any_SSE2"
  },
  {
   "name":"MergeUVRow_C"
  },
  {
   "name":"MergeUVRow_SSE2"
  },
  {
   "name":"MirrorRow_AVX2"
  },
  {
   "name":"MirrorRow_Any_AVX2"
  },
  {
   "name":"MirrorRow_Any_SSSE3"
  },
  {
   "name":"MirrorRow_C"
  },
  {
   "name":"MirrorRow_SSSE3"
  },
  {
   "name":"MirrorUVRow_C"
  },
  {
   "name":"MirrorUVRow_SSSE3"
  },
  {
   "name":"NV12ToARGB"
  },
  {
   "name":"NV12ToARGBRow_AVX2"
  },
  {
   "name":"NV12ToARGBRow_Any_AVX2"
  },
  {
   "name":"NV12ToARGBRow_Any_SSSE3"
  },
  {
   "name":"NV12ToARGBRow_C"
  },
  {
   "name":"NV12ToARGBRow_SSSE3"
  },
  {
   "name":"NV12ToI420"
  },
  {
   "name":"NV12ToI420Rotate"
  },
  {
   "name":"NV12ToRGB565"
  },
  {
   "name":"NV12ToRGB565Row_AVX2"
  },
  {
   "name":"NV12ToRGB565Row_Any_AVX2"
  },
  {
   "name":"NV12ToRGB565Row_Any_SSSE3"
  },
  {
   "name":"NV12ToRGB565Row_C"
  },
  {
   "name":"NV12ToRGB565Row_SSSE3"
  },
  {
   "name":"NV21ToARGB"
  },
  {
   "name":"NV21ToARGBRow_AVX2"
  },
  {
   "name":"NV21ToARGBRow_Any_AVX2"
  },
  {
   "name":"NV21ToARGBRow_Any_SSSE3"
  },
  {
   "name":"NV21ToARGBRow_C"
  },
  {
   "name":"NV21ToARGBRow_SSSE3"
  },
  {
   "name":"NV21ToI420"
  },
  {
   "name":"RAWToARGB"
  },
  {
   "name":"RAWToARGBRow_Any_SSSE3"
  },
  {
   "name":"RAWToARGBRow_C"
  },
  {
   "name":"RAWToARGBRow_SSSE3"
  },
  {
   "name":"RAWToI420"
  },
  {
   "name":"RAWToRGB24"
  },
  {
   "name":"RAWToRGB24Row_Any_SSSE3"
  },
  {
   "name":"RAWToRGB24Row_C"
  },
  {
   "name":"RAWToRGB24Row_SSSE3"
  },
  {
   "name":"RAWToUVRow_C"
  },
  {
   "name":"RAWToYRow_C"
  },
  {
   "name":"RGB24ToARGB"
  },
  {
   "name":"RGB24ToARGBRow_Any_SSSE3"
  },
  {
   "name":"RGB24ToARGBRow_C"
  },
  {
   "name":"RGB24ToARGBRow_SSSE3"
  },
  {
   "name":"RGB24ToI420"
  },
  {
   "name":"RGB24ToUVRow_C"
  },
  {
   "name":"RGB24ToYRow_C"
  },
  {
   "name":"RGB565ToARGB"
  },
  {
   "name":"RGB565ToARGBRow_Any_SSE2"
  },
  {
   "name":"RGB565ToARGBRow_C"
  },
  {
   "name":"RGB565ToARGBRow_SSE2"
  },
  {
   "name":"RGB565ToI420"
  },
  {
   "name":"RGB565ToUVRow_C"
  },
  {
   "name":"RGB565ToYRow_C"
  },
  {
   "name":"RGBAToARGB"
  },
  {
   "name":"RGBAToI420"
  },
  {
   "name":"RGBAToUVRow_Any_SSSE3"
  },
  {
   "name":"RGBAToUVRow_C"
  },
  {
   "name":"RGBAToUVRow_SSSE3"
  },
  {
   "name":"RGBAToYRow_Any_SSSE3"
  },
  {
   "name":"RGBAToYRow_C"
  },
  {
   "name":"RGBAToYRow_SSSE3"
  },
  {
   "name":"RGBColorMatrix"
  },
  {
   "name":"RGBColorTable"
  },
  {
   "name":"RGBColorTableRow_C"
  },
  {
   "name":"RGBColorTableRow_X86"
  },
  {
   "name":"RotatePlane"
  },
  {
   "name":"RotatePlane180"
  },
  {
   "name":"RotatePlane270"
  },
  {
   "name":"RotatePlane90"
  },
  {
   "name":"RotateUV180"
  },
  {
   "name":"RotateUV270"
  },
  {
   "name":"RotateUV90"
  },
  {
   "name":"Scale"
  },
  {
   "name":"ScaleARGBCols64_C"
  },
  {
   "name":"ScaleARGBColsUp2_C"
  },
  {
   "name":"ScaleARGBColsUp2_SSE2"
  },
  {
   "name":"ScaleARGBCols_C"
  },
  {
   "name":"ScaleARGBCols_SSE2"
  },
  {
   "name":"ScaleARGBFilterCols64_C"
  },
  {
   "name":"ScaleARGBFilterCols_C"
  },
  {
   "name":"ScaleARGBFilterCols_SSSE3"
  },
  {
   "name":"ScaleARGBRowDown2Box_Any_SSE2"
  },
  {
   "name":"ScaleARGBRowDown2Box_C"
  },
  {
   "name":"ScaleARGBRowDown2Box_SSE2"
  },
  {
   "name":"ScaleARGBRowDown2Linear_Any_SSE2"
  },
  {
   "name":"ScaleARGBRowDown2Linear_C"
  },
  {
   "name":"ScaleARGBRowDown2Linear_SSE2"
  },
  {
   "name":"ScaleARGBRowDown2_Any_SSE2"
  },
  {
   "name":"ScaleARGBRowDown2_C"
  },
  {
   "name":"ScaleARGBRowDown2_SSE2"
  },
  {
   "name":"ScaleARGBRowDownEvenBox_Any_SSE2"
  },
  {
   "name":"ScaleARGBRowDownEvenBox_C"
  },
  {
   "name":"ScaleARGBRowDownEvenBox_SSE2"
  },
  {
   "name":"ScaleARGBRowDownEven_Any_SSE2"
  },
  {
   "name":"ScaleARGBRowDownEven_C"
  },
  {
   "name":"ScaleARGBRowDownEven_SSE2"
  },
  {
   "name":"ScaleAddRow_16_C"
  },
  {
   "name":"ScaleAddRow_AVX2"
  },
  {
   "name":"ScaleAddRow_Any_AVX2"
  },
  {
   "name":"ScaleAddRow_Any_SSE2"
  },
  {
   "name":"ScaleAddRow_C"
  },
  {
   "name":"ScaleAddRow_SSE2"
  },
  {
   "name":"ScaleColsUp2_16_C"
  },
  {
   "name":"ScaleColsUp2_C"
  },
  {
   "name":"ScaleColsUp2_SSE2"
  },
  {
   "name":"ScaleCols_16_C"
  },
  {
   "name":"ScaleCols_C"
  },
  {
   "name":"ScaleFilterCols64_16_C"
  },
  {
   "name":"ScaleFilterCols64_C"
  },
  {
   "name":"ScaleFilterCols_16_C"
  },
  {
   "name":"ScaleFilterCols_C"
  },
  {
   "name":"ScaleFilterCols_SSSE3"
  },
  {
   "name":"ScaleFilterReduce"
  },
  {
   "name":"ScaleOffset"
  },
  {
   "name":"ScalePlane"
  },
  {
   "name":"ScalePlaneVertical"
  },
  {
   "name":"ScalePlaneVertical_16"
  },
  {
   "name":"ScalePlane_16"
  },
  {
   "name":"ScaleRowDown2Box_16_C"
  },
  {
   "name":"ScaleRowDown2Box_AVX2"
  },
  {
   "name":"ScaleRowDown2Box_Any_AVX2"
  },
  {
   "name":"ScaleRowDown2Box_Any_SSSE3"
  },
  {
   "name":"ScaleRowDown2Box_C"
  },
  {
   "name":"ScaleRowDown2Box_Odd_AVX2"
  },
  {
   "name":"ScaleRowDown2Box_Odd_C"
  },
  {
   "name":"ScaleRowDown2Box_Odd_SSSE3"
  },
  {
   "name":"ScaleRowDown2Box_SSSE3"
  },
  {
   "name":"ScaleRowDown2Linear_16_C"
  },
  {
   "name":"ScaleRowDown2Linear_AVX2"
  },
  {
   "name":"ScaleRowDown2Linear_Any_AVX2"
  },
  {
   "name":"ScaleRowDown2Linear_Any_SSSE3"
  },
  {
   "name":"ScaleRowDown2Linear_C"
  },
  {
   "name":"ScaleRowDown2Linear_SSSE3"
  },
  {
   "name":"ScaleRowDown2_16_C"
  },
  {
   "name":"ScaleRowDown2_AVX2"
  },
  {
   "name":"ScaleRowDown2_Any_AVX2"
  },
  {
   "name":"ScaleRowDown2_Any_SSSE3"
  },
  {
   "name":"ScaleRowDown2_C"
  },
  {
   "name":"ScaleRowDown2_SSSE3"
  },
  {
   "name":"ScaleRowDown34_0_Box_16_C"
  },
  {
   "name":"ScaleRowDown34_0_Box_Any_SSSE3"
  },
  {
   "name":"ScaleRowDown34_0_Box_C"
  },
  {
   "name":"ScaleRowDown34_0_Box_SSSE3"
  },
  {
   "name":"ScaleRowDown34_16_C"
  },
  {
   "name":"ScaleRowDown34_1_Box_16_C"
  },
  {
   "name":"ScaleRowDown34_1_Box_Any_SSSE3"
  },
  {
   "name":"ScaleRowDown34_1_Box_C"
  },
  {
   "name":"ScaleRowDown34_1_Box_SSSE3"
  },
  {
   "name":"ScaleRowDown34_Any_SSSE3"
  },
  {
   "name":"ScaleRowDown34_C"
  },
  {
   "name":"ScaleRowDown34_SSSE3"
  },
  {
   "name":"ScaleRowDown38_16_C"
  },
  {
   "name":"ScaleRowDown38_2_Box_16_C"
  },
  {
   "name":"ScaleRowDown38_2_Box_Any_SSSE3"
  },
  {
   "name":"ScaleRowDown38_2_Box_C"
  },
  {
   "name":"ScaleRowDown38_2_Box_SSSE3"
  },
  {
   "name":"ScaleRowDown38_3_Box_16_C"
  },
  {
   "name":"ScaleRowDown38_3_Box_Any_SSSE3"
  },
  {
   "name":"ScaleRowDown38_3_Box_C"
  },
  {
   "name":"ScaleRowDown38_3_Box_SSSE3"
  },
  {
   "name":"ScaleRowDown38_Any_SSSE3"
  },
  {
   "name":"ScaleRowDown38_C"
  },
  {
   "name":"ScaleRowDown38_SSSE3"
  },
  {
   "name":"ScaleRowDown4Box_16_C"
  },
  {
   "name":"ScaleRowDown4Box_AVX2"
  },
  {
   "name":"ScaleRowDown4Box_Any_AVX2"
  },
  {
   "name":"ScaleRowDown4Box_Any_SSSE3"
  },
  {
   "name":"ScaleRowDown4Box_C"
  },
  {
   "name":"ScaleRowDown4Box_SSSE3"
  },
  {
   "name":"ScaleRowDown4_16_C"
  },
  {
   "name":"ScaleRowDown4_AVX2"
  },
  {
   "name":"ScaleRowDown4_Any_AVX2"
  },
  {
   "name":"ScaleRowDown4_Any_SSSE3"
  },
  {
   "name":"ScaleRowDown4_C"
  },
  {
   "name":"ScaleRowDown4_SSSE3"
  },
  {
   "name":"ScaleSlope"
  },
  {
   "name":"SetPlane"
  },
  {
   "name":"SetRow_Any_X86"
  },
  {
   "name":"SetRow_C"
  },
  {
   "name":"SetRow_ERMS"
  },
  {
   "name":"SetRow_X86"
  },
  {
   "name":"SobelRow_Any_SSE2"
  },
  {
   "name":"SobelRow_C"
  },
  {
   "name":"SobelRow_SSE2"
  },
  {
   "name":"SobelToPlaneRow_Any_SSE2"
  },
  {
   "name":"SobelToPlaneRow_C"
  },
  {
   "name":"SobelToPlaneRow_SSE2"
  },
  {
   "name":"SobelXRow_C"
  },
  {
   "name":"SobelXRow_SSE2"
  },
  {
   "name":"SobelXYRow_Any_SSE2"
  },
  {
   "name":"SobelXYRow_C"
  },
  {
   "name":"SobelXYRow_SSE2"
  },
  {
   "name":"SobelYRow_C"
  },
  {
   "name":"SobelYRow_SSE2"
  },
  {
   "name":"SplitUVPlane"
  },
  {
   "name":"SplitUVRow_AVX2"
  },
  {
   "name":"SplitUVRow_Any_AVX2"
  },
  {
   "name":"SplitUVRow_Any_SSE2"
  },
  {
   "name":"SplitUVRow_C"
  },
  {
   "name":"SplitUVRow_SSE2"
  },
  {
   "name":"SumSquareErrorToPsnr"
  },
  {
   "name":"SumSquareError_C"
  },
  {
   "name":"SumSquareError_SSE2"
  },
  {
   "name":"TransposePlane"
  },
  {
   "name":"TransposeUV"
  },
  {
   "name":"TransposeUVWx8_C"
  },
  {
   "name":"TransposeUVWxH_C"
  },
  {
   "name":"TransposeWx8_Any_SSSE3"
  },
  {
   "name":"TransposeWx8_C"
  },
  {
   "name":"TransposeWx8_SSSE3"
  },
  {
   "name":"TransposeWxH_C"
  },
  {
   "name":"UYVYToARGB"
  },
  {
   "name":"UYVYToARGBRow_AVX2"
  },
  {
   "name":"UYVYToARGBRow_Any_AVX2"
  },
  {
   "name":"UYVYToARGBRow_Any_SSSE3"
  },
  {
   "name":"UYVYToARGBRow_C"
  },
  {
   "name":"UYVYToARGBRow_SSSE3"
  },
  {
   "name":"UYVYToI420"
  },
  {
   "name":"UYVYToI422"
  },
  {
   "name":"UYVYToNV12"
  },
  {
   "name":"UYVYToUV422Row_AVX2"
  },
  {
   "name":"UYVYToUV422Row_Any_AVX2"
  },
  {
   "name":"UYVYToUV422Row_Any_SSE2"
  },
  {
   "name":"UYVYToUV422Row_C"
  },
  {
   "name":"UYVYToUV422Row_SSE2"
  },
  {
   "name":"UYVYToUVRow_AVX2"
  },
  {
   "name":"UYVYToUVRow_Any_AVX2"
  },
  {
   "name":"UYVYToUVRow_Any_SSE2"
  },
  {
   "name":"UYVYToUVRow_C"
  },
  {
   "name":"UYVYToUVRow_SSE2"
  },
  {
   "name":"UYVYToYRow_AVX2"
  },
  {
   "name":"UYVYToYRow_Any_AVX2"
  },
  {
   "name":"UYVYToYRow_Any_SSE2"
  },
  {
   "name":"UYVYToYRow_C"
  },
  {
   "name":"UYVYToYRow_SSE2"
  },
  {
   "name":"ValidateJpeg"
  },
  {
   "name":"YUY2ToARGB"
  },
  {
   "name":"YUY2ToARGBRow_AVX2"
  },
  {
   "name":"YUY2ToARGBRow_Any_AVX2"
  },
  {
   "name":"YUY2ToARGBRow_Any_SSSE3"
  },
  {
   "name":"YUY2ToARGBRow_C"
  },
  {
   "name":"YUY2ToARGBRow_SSSE3"
  },
  {
   "name":"YUY2ToI420"
  },
  {
   "name":"YUY2ToI422"
  },
  {
   "name":"YUY2ToNV12"
  },
  {
   "name":"YUY2ToUV422Row_AVX2"
  },
  {
   "name":"YUY2ToUV422Row_Any_AVX2"
  },
  {
   "name":"YUY2ToUV422Row_Any_SSE2"
  },
  {
   "name":"YUY2ToUV422Row_C"
  },
  {
   "name":"YUY2ToUV422Row_SSE2"
  },
  {
   "name":"YUY2ToUVRow_AVX2"
  },
  {
   "name":"YUY2ToUVRow_Any_AVX2"
  },
  {
   "name":"YUY2ToUVRow_Any_SSE2"
  },
  {
   "name":"YUY2ToUVRow_C"
  },
  {
   "name":"YUY2ToUVRow_SSE2"
  },
  {
   "name":"YUY2ToY"
  },
  {
   "name":"YUY2ToYRow_AVX2"
  },
  {
   "name":"YUY2ToYRow_Any_AVX2"
  },
  {
   "name":"YUY2ToYRow_Any_SSE2"
  },
  {
   "name":"YUY2ToYRow_C"
  },
  {
   "name":"YUY2ToYRow_SSE2"
  },
  {
   "name":"_ZN6libyuv12MJpegDecoder11StartDecodeEv"
  },
  {
   "name":"_ZN6libyuv12MJpegDecoder11UnloadFrameEv"
  },
  {
   "name":"_ZN6libyuv12MJpegDecoder12FinishDecodeEv"
  },
  {
   "name":"_ZN6libyuv12MJpegDecoder13GetColorSpaceEv"
  },
  {
   "name":"_ZN6libyuv12MJpegDecoder15DecodeToBuffersEPPhii"
  },
  {
   "name":"_ZN6libyuv12MJpegDecoder16DecodeToCallbackEPFvPvPKPKhPKiiES1_ii"
  },
  {
   "name":"_ZN6libyuv12MJpegDecoder16GetComponentSizeEi"
  },
  {
   "name":"_ZN6libyuv12MJpegDecoder16GetNumComponentsEv"
  },
  {
   "name":"_ZN6libyuv12MJpegDecoder17GetComponentWidthEi"
  },
  {
   "name":"_ZN6libyuv12MJpegDecoder17GetVertSampFactorEi"
  },
  {
   "name":"_ZN6libyuv12MJpegDecoder18AllocOutputBuffersEi"
  },
  {
   "name":"_ZN6libyuv12MJpegDecoder18GetComponentHeightEi"
  },
  {
   "name":"_ZN6libyuv12MJpegDecoder18GetComponentStrideEi"
  },
  {
   "name":"_ZN6libyuv12MJpegDecoder18GetHorizSampFactorEi"
  },
  {
   "name":"_ZN6libyuv12MJpegDecoder19SetScanlinePointersEPPh"
  },
  {
   "name":"_ZN6libyuv12MJpegDecoder20DestroyOutputBuffersEv"
  },
  {
   "name":"_ZN6libyuv12MJpegDecoder20GetVertSubSampFactorEi"
  },
  {
   "name":"_ZN6libyuv12MJpegDecoder21GetHorizSubSampFactorEi"
  },
  {
   "name":"_ZN6libyuv12MJpegDecoder25JpegSubsamplingTypeHelperEPiS1_i"
  },
  {
   "name":"_ZN6libyuv12MJpegDecoder27GetImageScanlinesPerImcuRowEv"
  },
  {
   "name":"_ZN6libyuv12MJpegDecoder31GetComponentScanlinesPerImcuRowEi"
  },
  {
   "name":"_ZN6libyuv12MJpegDecoder8GetWidthEv"
  },
  {
   "name":"_ZN6libyuv12MJpegDecoder9GetHeightEv"
  },
  {
   "name":"_ZN6libyuv12MJpegDecoder9LoadFrameEPKhj"
  },
  {
   "name":"_ZN6libyuv12MJpegDecoderC1Ev"
  },
  {
   "name":"_ZN6libyuv12MJpegDecoderC2Ev"
  },
  {
   "name":"_ZN6libyuv12MJpegDecoderD1Ev"
  },
  {
   "name":"_ZN6libyuv12MJpegDecoderD2Ev"
  }
 ],
 "elf_objects":[
  {
   "name":"_ZN6libyuv12MJpegDecoder14kColorSpaceRgbE"
  },
  {
   "name":"_ZN6libyuv12MJpegDecoder15kColorSpaceCMYKE"
  },
  {
   "name":"_ZN6libyuv12MJpegDecoder15kColorSpaceYCCKE"
  },
  {
   "name":"_ZN6libyuv12MJpegDecoder16kColorSpaceYCbCrE"
  },
  {
   "name":"_ZN6libyuv12MJpegDecoder18kColorSpaceUnknownE"
  },
  {
   "name":"_ZN6libyuv12MJpegDecoder20kColorSpaceGrayscaleE"
  },
  {
   "name":"cpu_info_"
  },
  {
   "name":"fixed_invtbl8"
  },
  {
   "name":"kYuvH709Constants"
  },
  {
   "name":"kYuvI601Constants"
  },
  {
   "name":"kYuvJPEGConstants"
  },
  {
   "name":"kYvuH709Constants"
  },
  {
   "name":"kYvuI601Constants"
  },
  {
   "name":"kYvuJPEGConstants"
  }
 ]
}