c__builtin__
set
p0
((lp1
ccopy_reg
_reconstructor
p2
(ctest_finders.test_info
TestInfo
p3
c__builtin__
object
p4
Ntp5
Rp6
(dp7
S'install_locations'
p8
g0
((lp9
S'device'
p10
aS'host'
p11
atp12
Rp13
sS'test_runner'
p14
S'AtestTradefedTestRunner'
p15
sS'module_class'
p16
(lp17
VNATIVE_TESTS
p18
asS'from_test_mapping'
p19
I00
sS'build_targets'
p20
g0
((lp21
VMODULES-IN-platform_testing-tests-example-native
p22
atp23
Rp24
sg11
I00
sS'test_name'
p25
S'hello_world_test'
p26
sS'suite'
p27
NsS'data'
p28
(dp29
S'rel_config'
p30
Vplatform_testing/tests/example/native/AndroidTest.xml
p31
sS'filter'
p32
c__builtin__
frozenset
p33
((lp34
tp35
Rp36
ssbatp37
Rp38
.