{
 "record_types":[
  {
   "vtable_components":[
    {
     "kind":"vbase_offset",
     "component_value":72
    },
    {
     "kind":"offset_to_top"
    },
    {
     "kind":"rtti",
     "mangled_component_name":"_ZTIN7android8hardware7sensors4V1_011BnHwSensorsE"
    },
    {
     "mangled_component_name":"_ZN7android8hardware9BHwBinder8transactEjRKNS0_6ParcelEPS2_jNSt3__18functionIFvRS2_EEE"
    },
    {
     "mangled_component_name":"_ZN7android8hardware9BHwBinder11linkToDeathERKNS_2spINS0_7IBinder14DeathRecipientEEEPvj"
    },
    {
     "mangled_component_name":"_ZN7android8hardware9BHwBinder13unlinkToDeathERKNS_2wpINS0_7IBinder14DeathRecipientEEEPvjPS5_"
    },
    {
     "mangled_component_name":"_ZNK7android8hardware7IBinder13checkSubclassEPKv"
    },
    {
     "mangled_component_name":"_ZN7android8hardware9BHwBinder12attachObjectEPKvPvS4_PFvS3_S4_S4_E"
    },
    {
     "mangled_component_name":"_ZNK7android8hardware9BHwBinder10findObjectEPKv"
    },
    {
     "mangled_component_name":"_ZN7android8hardware9BHwBinder12detachObjectEPKv"
    },
    {
     "mangled_component_name":"_ZN7android8hardware9BHwBinder11localBinderEv"
    },
    {
     "mangled_component_name":"_ZN7android8hardware7IBinder12remoteBinderEv"
    },
    {
     "kind":"complete_dtor_pointer",
     "mangled_component_name":"_ZN7android8hardware7sensors4V1_011BnHwSensorsD1Ev"
    },
    {
     "kind":"deleting_dtor_pointer",
     "mangled_component_name":"_ZN7android8hardware7sensors4V1_011BnHwSensorsD0Ev"
    },
    {
     "mangled_component_name":"_ZN7android8hardware7sensors4V1_011BnHwSensors10onTransactEjRKNS0_6ParcelEPS4_jNSt3__18functionIFvRS4_EEE"
    },
    {
     "kind":"offset_to_top",
     "component_value":-20
    },
    {
     "kind":"rtti",
     "mangled_component_name":"_ZTIN7android8hardware7sensors4V1_011BnHwSensorsE"
    },
    {
     "kind":"complete_dtor_pointer",
     "mangled_component_name":"_ZThn20_N7android8hardware7sensors4V1_011BnHwSensorsD1Ev"
    },
    {
     "kind":"deleting_dtor_pointer",
     "mangled_component_name":"_ZThn20_N7android8hardware7sensors4V1_011BnHwSensorsD0Ev"
    },
    {
     "kind":"vcall_offset"
    },
    {
     "kind":"vcall_offset"
    },
    {
     "kind":"vcall_offset"
    },
    {
     "kind":"vcall_offset"
    },
    {
     "kind":"vcall_offset",
     "component_value":-72
    },
    {
     "kind":"offset_to_top",
     "component_value":-72
    },
    {
     "kind":"rtti",
     "mangled_component_name":"_ZTIN7android8hardware7sensors4V1_011BnHwSensorsE"
    },
    {
     "kind":"complete_dtor_pointer",
     "mangled_component_name":"_ZTv0_n12_N7android8hardware7sensors4V1_011BnHwSensorsD1Ev"
    },
    {
     "kind":"deleting_dtor_pointer",
     "mangled_component_name":"_ZTv0_n12_N7android8hardware7sensors4V1_011BnHwSensorsD0Ev"
    },
    {
     "mangled_component_name":"_ZN7android7RefBase10onFirstRefEv"
    },
    {
     "mangled_component_name":"_ZN7android7RefBase15onLastStrongRefEPKv"
    },
    {
     "mangled_component_name":"_ZN7android7RefBase20onIncStrongAttemptedEjPKv"
    },
    {
     "mangled_component_name":"_ZN7android7RefBase13onLastWeakRefEPKv"
    }
   ],
   "unique_id":"_ZTSN7android8hardware7sensors4V1_011BnHwSensorsE"
  },
  {
   "vtable_components":[
    {
     "kind":"vbase_offset",
     "component_value":84
    },
    {
     "kind":"offset_to_top"
    },
    {
     "kind":"rtti",
     "mangled_component_name":"_ZTIN7android8hardware7sensors4V1_011BpHwSensorsE"
    },
    {
     "mangled_component_name":"_ZNK7android8hardware7sensors4V1_011BpHwSensors8isRemoteEv"
    },
    {
     "mangled_component_name":"_ZN7android8hardware7sensors4V1_011BpHwSensors14interfaceChainENSt3__18functionIFvRKNS0_8hidl_vecINS0_11hidl_stringEEEEEE"
    },
    {
     "mangled_component_name":"_ZN7android8hardware7sensors4V1_011BpHwSensors5debugERKNS0_11hidl_handleERKNS0_8hidl_vecINS0_11hidl_stringEEE"
    },
    {
     "mangled_component_name":"_ZN7android8hardware7sensors4V1_011BpHwSensors19interfaceDescriptorENSt3__18functionIFvRKNS0_11hidl_stringEEEE"
    },
    {
     "mangled_component_name":"_ZN7android8hardware7sensors4V1_011BpHwSensors12getHashChainENSt3__18functionIFvRKNS0_8hidl_vecINS0_10hidl_arrayIhLj32EJEEEEEEEE"
    },
    {
     "mangled_component_name":"_ZN7android8hardware7sensors4V1_011BpHwSensors21setHALInstrumentationEv"
    },
    {
     "mangled_component_name":"_ZN7android8hardware7sensors4V1_011BpHwSensors11linkToDeathERKNS_2spINS0_20hidl_death_recipientEEEy"
    },
    {
     "mangled_component_name":"_ZN7android8hardware7sensors4V1_011BpHwSensors4pingEv"
    },
    {
     "mangled_component_name":"_ZN7android8hardware7sensors4V1_011BpHwSensors12getDebugInfoENSt3__18functionIFvRKNS_4hidl4base4V1_09DebugInfoEEEE"
    },
    {
     "mangled_component_name":"_ZN7android8hardware7sensors4V1_011BpHwSensors21notifySyspropsChangedEv"
    },
    {
     "mangled_component_name":"_ZN7android8hardware7sensors4V1_011BpHwSensors13unlinkToDeathERKNS_2spINS0_20hidl_death_recipientEEE"
    },
    {
     "kind":"complete_dtor_pointer",
     "mangled_component_name":"_ZN7android8hardware7sensors4V1_011BpHwSensorsD1Ev"
    },
    {
     "kind":"deleting_dtor_pointer",
     "mangled_component_name":"_ZN7android8hardware7sensors4V1_011BpHwSensorsD0Ev"
    },
    {
     "mangled_component_name":"_ZN7android8hardware7sensors4V1_011BpHwSensors14getSensorsListENSt3__18functionIFvRKNS0_8hidl_vecINS2_10SensorInfoEEEEEE"
    },
    {
     "mangled_component_name":"_ZN7android8hardware7sensors4V1_011BpHwSensors16setOperationModeENS2_13OperationModeE"
    },
    {
     "mangled_component_name":"_ZN7android8hardware7sensors4V1_011BpHwSensors8activateEib"
    },
    {
     "mangled_component_name":"_ZN7android8hardware7sensors4V1_011BpHwSensors4pollEiNSt3__18functionIFvNS2_6ResultERKNS0_8hidl_vecINS2_5EventEEERKNS7_INS2_10SensorInfoEEEEEE"
    },
    {
     "mangled_component_name":"_ZN7android8hardware7sensors4V1_011BpHwSensors5batchEixx"
    },
    {
     "mangled_component_name":"_ZN7android8hardware7sensors4V1_011BpHwSensors5flushEi"
    },
    {
     "mangled_component_name":"_ZN7android8hardware7sensors4V1_011BpHwSensors16injectSensorDataERKNS2_5EventE"
    },
    {
     "mangled_component_name":"_ZN7android8hardware7sensors4V1_011BpHwSensors21registerDirectChannelERKNS2_13SharedMemInfoENSt3__18functionIFvNS2_6ResultEiEEE"
    },
    {
     "mangled_component_name":"_ZN7android8hardware7sensors4V1_011BpHwSensors23unregisterDirectChannelEi"
    },
    {
     "mangled_component_name":"_ZN7android8hardware7sensors4V1_011BpHwSensors18configDirectReportEiiNS2_9RateLevelENSt3__18functionIFvNS2_6ResultEiEEE"
    },
    {
     "mangled_component_name":"_ZN7android8hardware11BpInterfaceINS0_7sensors4V1_08ISensorsEE10onAsBinderEv"
    },
    {
     "kind":"vbase_offset",
     "component_value":80
    },
    {
     "kind":"offset_to_top",
     "component_value":-4
    },
    {
     "kind":"rtti",
     "mangled_component_name":"_ZTIN7android8hardware7sensors4V1_011BpHwSensorsE"
    },
    {
     "kind":"complete_dtor_pointer",
     "mangled_component_name":"_ZThn4_N7android8hardware7sensors4V1_011BpHwSensorsD1Ev"
    },
    {
     "kind":"deleting_dtor_pointer",
     "mangled_component_name":"_ZThn4_N7android8hardware7sensors4V1_011BpHwSensorsD0Ev"
    },
    {
     "mangled_component_name":"_ZThn4_N7android8hardware11BpInterfaceINS0_7sensors4V1_08ISensorsEE10onAsBinderEv"
    },
    {
     "kind":"vbase_offset",
     "component_value":76
    },
    {
     "kind":"offset_to_top",
     "component_value":-8
    },
    {
     "kind":"rtti",
     "mangled_component_name":"_ZTIN7android8hardware7sensors4V1_011BpHwSensorsE"
    },
    {
     "kind":"complete_dtor_pointer",
     "mangled_component_name":"_ZThn8_N7android8hardware7sensors4V1_011BpHwSensorsD1Ev"
    },
    {
     "kind":"deleting_dtor_pointer",
     "mangled_component_name":"_ZThn8_N7android8hardware7sensors4V1_011BpHwSensorsD0Ev"
    },
    {
     "mangled_component_name":"_ZN7android8hardware11BpHwRefBase10onFirstRefEv"
    },
    {
     "mangled_component_name":"_ZN7android8hardware11BpHwRefBase15onLastStrongRefEPKv"
    },
    {
     "mangled_component_name":"_ZN7android8hardware11BpHwRefBase20onIncStrongAttemptedEjPKv"
    },
    {
     "kind":"offset_to_top",
     "component_value":-24
    },
    {
     "kind":"rtti",
     "mangled_component_name":"_ZTIN7android8hardware7sensors4V1_011BpHwSensorsE"
    },
    {
     "kind":"complete_dtor_pointer",
     "mangled_component_name":"_ZThn24_N7android8hardware7sensors4V1_011BpHwSensorsD1Ev"
    },
    {
     "kind":"deleting_dtor_pointer",
     "mangled_component_name":"_ZThn24_N7android8hardware7sensors4V1_011BpHwSensorsD0Ev"
    },
    {
     "kind":"vcall_offset"
    },
    {
     "kind":"vcall_offset",
     "component_value":-76
    },
    {
     "kind":"vcall_offset",
     "component_value":-76
    },
    {
     "kind":"vcall_offset",
     "component_value":-76
    },
    {
     "kind":"vcall_offset",
     "component_value":-84
    },
    {
     "kind":"offset_to_top",
     "component_value":-84
    },
    {
     "kind":"rtti",
     "mangled_component_name":"_ZTIN7android8hardware7sensors4V1_011BpHwSensorsE"
    },
    {
     "kind":"complete_dtor_pointer",
     "mangled_component_name":"_ZTv0_n12_N7android8hardware7sensors4V1_011BpHwSensorsD1Ev"
    },
    {
     "kind":"deleting_dtor_pointer",
     "mangled_component_name":"_ZTv0_n12_N7android8hardware7sensors4V1_011BpHwSensorsD0Ev"
    },
    {
     "mangled_component_name":"_ZTv0_n16_N7android8hardware11BpHwRefBase10onFirstRefEv"
    },
    {
     "mangled_component_name":"_ZTv0_n20_N7android8hardware11BpHwRefBase15onLastStrongRefEPKv"
    },
    {
     "mangled_component_name":"_ZTv0_n24_N7android8hardware11BpHwRefBase20onIncStrongAttemptedEjPKv"
    },
    {
     "mangled_component_name":"_ZN7android7RefBase13onLastWeakRefEPKv"
    }
   ],
   "unique_id":"_ZTSN7android8hardware7sensors4V1_011BpHwSensorsE"
  },
  {
   "vtable_components":[
    {
     "kind":"vbase_offset",
     "component_value":60
    },
    {
     "kind":"offset_to_top"
    },
    {
     "kind":"rtti",
     "mangled_component_name":"_ZTIN7android8hardware7sensors4V1_09BsSensorsE"
    },
    {
     "mangled_component_name":"_ZNK7android8hardware7sensors4V1_08ISensors8isRemoteEv"
    },
    {
     "mangled_component_name":"_ZN7android8hardware7sensors4V1_09BsSensors14interfaceChainENSt3__18functionIFvRKNS0_8hidl_vecINS0_11hidl_stringEEEEEE"
    },
    {
     "mangled_component_name":"_ZN7android8hardware7sensors4V1_09BsSensors5debugERKNS0_11hidl_handleERKNS0_8hidl_vecINS0_11hidl_stringEEE"
    },
    {
     "mangled_component_name":"_ZN7android8hardware7sensors4V1_09BsSensors19interfaceDescriptorENSt3__18functionIFvRKNS0_11hidl_stringEEEE"
    },
    {
     "mangled_component_name":"_ZN7android8hardware7sensors4V1_09BsSensors12getHashChainENSt3__18functionIFvRKNS0_8hidl_vecINS0_10hidl_arrayIhLj32EJEEEEEEEE"
    },
    {
     "mangled_component_name":"_ZN7android8hardware7sensors4V1_09BsSensors21setHALInstrumentationEv"
    },
    {
     "mangled_component_name":"_ZN7android8hardware7sensors4V1_09BsSensors11linkToDeathERKNS_2spINS0_20hidl_death_recipientEEEy"
    },
    {
     "mangled_component_name":"_ZN7android8hardware7sensors4V1_09BsSensors4pingEv"
    },
    {
     "mangled_component_name":"_ZN7android8hardware7sensors4V1_09BsSensors12getDebugInfoENSt3__18functionIFvRKNS_4hidl4base4V1_09DebugInfoEEEE"
    },
    {
     "mangled_component_name":"_ZN7android8hardware7sensors4V1_09BsSensors21notifySyspropsChangedEv"
    },
    {
     "mangled_component_name":"_ZN7android8hardware7sensors4V1_09BsSensors13unlinkToDeathERKNS_2spINS0_20hidl_death_recipientEEE"
    },
    {
     "kind":"complete_dtor_pointer",
     "mangled_component_name":"_ZN7android8hardware7sensors4V1_09BsSensorsD1Ev"
    },
    {
     "kind":"deleting_dtor_pointer",
     "mangled_component_name":"_ZN7android8hardware7sensors4V1_09BsSensorsD0Ev"
    },
    {
     "mangled_component_name":"_ZN7android8hardware7sensors4V1_09BsSensors14getSensorsListENSt3__18functionIFvRKNS0_8hidl_vecINS2_10SensorInfoEEEEEE"
    },
    {
     "mangled_component_name":"_ZN7android8hardware7sensors4V1_09BsSensors16setOperationModeENS2_13OperationModeE"
    },
    {
     "mangled_component_name":"_ZN7android8hardware7sensors4V1_09BsSensors8activateEib"
    },
    {
     "mangled_component_name":"_ZN7android8hardware7sensors4V1_09BsSensors4pollEiNSt3__18functionIFvNS2_6ResultERKNS0_8hidl_vecINS2_5EventEEERKNS7_INS2_10SensorInfoEEEEEE"
    },
    {
     "mangled_component_name":"_ZN7android8hardware7sensors4V1_09BsSensors5batchEixx"
    },
    {
     "mangled_component_name":"_ZN7android8hardware7sensors4V1_09BsSensors5flushEi"
    },
    {
     "mangled_component_name":"_ZN7android8hardware7sensors4V1_09BsSensors16injectSensorDataERKNS2_5EventE"
    },
    {
     "mangled_component_name":"_ZN7android8hardware7sensors4V1_09BsSensors21registerDirectChannelERKNS2_13SharedMemInfoENSt3__18functionIFvNS2_6ResultEiEEE"
    },
    {
     "mangled_component_name":"_ZN7android8hardware7sensors4V1_09BsSensors23unregisterDirectChannelEi"
    },
    {
     "mangled_component_name":"_ZN7android8hardware7sensors4V1_09BsSensors18configDirectReportEiiNS2_9RateLevelENSt3__18functionIFvNS2_6ResultEiEEE"
    },
    {
     "kind":"offset_to_top",
     "component_value":-4
    },
    {
     "kind":"rtti",
     "mangled_component_name":"_ZTIN7android8hardware7sensors4V1_09BsSensorsE"
    },
    {
     "kind":"complete_dtor_pointer",
     "mangled_component_name":"_ZThn4_N7android8hardware7sensors4V1_09BsSensorsD1Ev"
    },
    {
     "kind":"deleting_dtor_pointer",
     "mangled_component_name":"_ZThn4_N7android8hardware7sensors4V1_09BsSensorsD0Ev"
    },
    {
     "kind":"vcall_offset"
    },
    {
     "kind":"vcall_offset"
    },
    {
     "kind":"vcall_offset"
    },
    {
     "kind":"vcall_offset"
    },
    {
     "kind":"vcall_offset",
     "component_value":-60
    },
    {
     "kind":"offset_to_top",
     "component_value":-60
    },
    {
     "kind":"rtti",
     "mangled_component_name":"_ZTIN7android8hardware7sensors4V1_09BsSensorsE"
    },
    {
     "kind":"complete_dtor_pointer",
     "mangled_component_name":"_ZTv0_n12_N7android8hardware7sensors4V1_09BsSensorsD1Ev"
    },
    {
     "kind":"deleting_dtor_pointer",
     "mangled_component_name":"_ZTv0_n12_N7android8hardware7sensors4V1_09BsSensorsD0Ev"
    },
    {
     "mangled_component_name":"_ZN7android7RefBase10onFirstRefEv"
    },
    {
     "mangled_component_name":"_ZN7android7RefBase15onLastStrongRefEPKv"
    },
    {
     "mangled_component_name":"_ZN7android7RefBase20onIncStrongAttemptedEjPKv"
    },
    {
     "mangled_component_name":"_ZN7android7RefBase13onLastWeakRefEPKv"
    }
   ],
   "unique_id":"_ZTSN7android8hardware7sensors4V1_09BsSensorsE"
  },
  {
   "vtable_components":[
    {
     "kind":"vbase_offset",
     "component_value":4
    },
    {
     "kind":"offset_to_top"
    },
    {
     "kind":"rtti",
     "mangled_component_name":"_ZTIN7android8hardware7sensors4V1_08ISensorsE"
    },
    {
     "mangled_component_name":"_ZNK7android8hardware7sensors4V1_08ISensors8isRemoteEv"
    },
    {
     "mangled_component_name":"_ZN7android8hardware7sensors4V1_08ISensors14interfaceChainENSt3__18functionIFvRKNS0_8hidl_vecINS0_11hidl_stringEEEEEE"
    },
    {
     "mangled_component_name":"_ZN7android8hardware7sensors4V1_08ISensors5debugERKNS0_11hidl_handleERKNS0_8hidl_vecINS0_11hidl_stringEEE"
    },
    {
     "mangled_component_name":"_ZN7android8hardware7sensors4V1_08ISensors19interfaceDescriptorENSt3__18functionIFvRKNS0_11hidl_stringEEEE"
    },
    {
     "mangled_component_name":"_ZN7android8hardware7sensors4V1_08ISensors12getHashChainENSt3__18functionIFvRKNS0_8hidl_vecINS0_10hidl_arrayIhLj32EJEEEEEEEE"
    },
    {
     "mangled_component_name":"_ZN7android8hardware7sensors4V1_08ISensors21setHALInstrumentationEv"
    },
    {
     "mangled_component_name":"_ZN7android8hardware7sensors4V1_08ISensors11linkToDeathERKNS_2spINS0_20hidl_death_recipientEEEy"
    },
    {
     "mangled_component_name":"_ZN7android8hardware7sensors4V1_08ISensors4pingEv"
    },
    {
     "mangled_component_name":"_ZN7android8hardware7sensors4V1_08ISensors12getDebugInfoENSt3__18functionIFvRKNS_4hidl4base4V1_09DebugInfoEEEE"
    },
    {
     "mangled_component_name":"_ZN7android8hardware7sensors4V1_08ISensors21notifySyspropsChangedEv"
    },
    {
     "mangled_component_name":"_ZN7android8hardware7sensors4V1_08ISensors13unlinkToDeathERKNS_2spINS0_20hidl_death_recipientEEE"
    },
    {
     "kind":"complete_dtor_pointer",
     "mangled_component_name":"_ZN7android8hardware7sensors4V1_08ISensorsD1Ev"
    },
    {
     "kind":"deleting_dtor_pointer",
     "mangled_component_name":"_ZN7android8hardware7sensors4V1_08ISensorsD0Ev"
    },
    {
     "is_pure":true,
     "mangled_component_name":"_ZN7android8hardware7sensors4V1_08ISensors14getSensorsListENSt3__18functionIFvRKNS0_8hidl_vecINS2_10SensorInfoEEEEEE"
    },
    {
     "is_pure":true,
     "mangled_component_name":"_ZN7android8hardware7sensors4V1_08ISensors16setOperationModeENS2_13OperationModeE"
    },
    {
     "is_pure":true,
     "mangled_component_name":"_ZN7android8hardware7sensors4V1_08ISensors8activateEib"
    },
    {
     "is_pure":true,
     "mangled_component_name":"_ZN7android8hardware7sensors4V1_08ISensors4pollEiNSt3__18functionIFvNS2_6ResultERKNS0_8hidl_vecINS2_5EventEEERKNS7_INS2_10SensorInfoEEEEEE"
    },
    {
     "is_pure":true,
     "mangled_component_name":"_ZN7android8hardware7sensors4V1_08ISensors5batchEixx"
    },
    {
     "is_pure":true,
     "mangled_component_name":"_ZN7android8hardware7sensors4V1_08ISensors5flushEi"
    },
    {
     "is_pure":true,
     "mangled_component_name":"_ZN7android8hardware7sensors4V1_08ISensors16injectSensorDataERKNS2_5EventE"
    },
    {
     "is_pure":true,
     "mangled_component_name":"_ZN7android8hardware7sensors4V1_08ISensors21registerDirectChannelERKNS2_13SharedMemInfoENSt3__18functionIFvNS2_6ResultEiEEE"
    },
    {
     "is_pure":true,
     "mangled_component_name":"_ZN7android8hardware7sensors4V1_08ISensors23unregisterDirectChannelEi"
    },
    {
     "is_pure":true,
     "mangled_component_name":"_ZN7android8hardware7sensors4V1_08ISensors18configDirectReportEiiNS2_9RateLevelENSt3__18functionIFvNS2_6ResultEiEEE"
    },
    {
     "kind":"vcall_offset"
    },
    {
     "kind":"vcall_offset"
    },
    {
     "kind":"vcall_offset"
    },
    {
     "kind":"vcall_offset"
    },
    {
     "kind":"vcall_offset",
     "component_value":-4
    },
    {
     "kind":"offset_to_top",
     "component_value":-4
    },
    {
     "kind":"rtti",
     "mangled_component_name":"_ZTIN7android8hardware7sensors4V1_08ISensorsE"
    },
    {
     "kind":"complete_dtor_pointer",
     "mangled_component_name":"_ZTv0_n12_N7android8hardware7sensors4V1_08ISensorsD1Ev"
    },
    {
     "kind":"deleting_dtor_pointer",
     "mangled_component_name":"_ZTv0_n12_N7android8hardware7sensors4V1_08ISensorsD0Ev"
    },
    {
     "mangled_component_name":"_ZN7android7RefBase10onFirstRefEv"
    },
    {
     "mangled_component_name":"_ZN7android7RefBase15onLastStrongRefEPKv"
    },
    {
     "mangled_component_name":"_ZN7android7RefBase20onIncStrongAttemptedEjPKv"
    },
    {
     "mangled_component_name":"_ZN7android7RefBase13onLastWeakRefEPKv"
    }
   ],
   "unique_id":"_ZTSN7android8hardware7sensors4V1_08ISensorsE"
  }
 ],
 "elf_functions":[
  {
   "binding":"weak",
   "name":"_ZN7android8hardware7details13castInterfaceINS0_7sensors4V1_08ISensorsENS_4hidl4base4V1_05IBaseENS4_11BpHwSensorsEEENS0_6ReturnINS_2spIT_EEEENSC_IT0_EEPKcb"
  },
  {
   "binding":"weak",
   "name":"_ZN7android8hardware7details18getServiceInternalINS0_7sensors4V1_011BpHwSensorsENS4_8ISensorsEvvEENS_2spIT0_EERKNSt3__112basic_stringIcNSA_11char_traitsIcEENSA_9allocatorIcEEEEbb"
  },
  {
   "name":"_ZN7android8hardware7sensors4V1_011BnHwSensors10_hidl_pollEPNS_4hidl4base4V1_08BnHwBaseERKNS0_6ParcelEPS9_NSt3__18functionIFvRS9_EEE"
  },
  {
   "name":"_ZN7android8hardware7sensors4V1_011BnHwSensors10onTransactEjRKNS0_6ParcelEPS4_jNSt3__18functionIFvRS4_EEE"
  },
  {
   "name":"_ZN7android8hardware7sensors4V1_011BnHwSensors11_hidl_batchEPNS_4hidl4base4V1_08BnHwBaseERKNS0_6ParcelEPS9_NSt3__18functionIFvRS9_EEE"
  },
  {
   "name":"_ZN7android8hardware7sensors4V1_011BnHwSensors11_hidl_flushEPNS_4hidl4base4V1_08BnHwBaseERKNS0_6ParcelEPS9_NSt3__18functionIFvRS9_EEE"
  },
  {
   "name":"_ZN7android8hardware7sensors4V1_011BnHwSensors12getDebugInfoENSt3__18functionIFvRKNS_4hidl4base4V1_09DebugInfoEEEE"
  },
  {
   "name":"_ZN7android8hardware7sensors4V1_011BnHwSensors14_hidl_activateEPNS_4hidl4base4V1_08BnHwBaseERKNS0_6ParcelEPS9_NSt3__18functionIFvRS9_EEE"
  },
  {
   "name":"_ZN7android8hardware7sensors4V1_011BnHwSensors20_hidl_getSensorsListEPNS_4hidl4base4V1_08BnHwBaseERKNS0_6ParcelEPS9_NSt3__18functionIFvRS9_EEE"
  },
  {
   "name":"_ZN7android8hardware7sensors4V1_011BnHwSensors22_hidl_injectSensorDataEPNS_4hidl4base4V1_08BnHwBaseERKNS0_6ParcelEPS9_NSt3__18functionIFvRS9_EEE"
  },
  {
   "name":"_ZN7android8hardware7sensors4V1_011BnHwSensors22_hidl_setOperationModeEPNS_4hidl4base4V1_08BnHwBaseERKNS0_6ParcelEPS9_NSt3__18functionIFvRS9_EEE"
  },
  {
   "name":"_ZN7android8hardware7sensors4V1_011BnHwSensors24_hidl_configDirectReportEPNS_4hidl4base4V1_08BnHwBaseERKNS0_6ParcelEPS9_NSt3__18functionIFvRS9_EEE"
  },
  {
   "name":"_ZN7android8hardware7sensors4V1_011BnHwSensors27_hidl_registerDirectChannelEPNS_4hidl4base4V1_08BnHwBaseERKNS0_6ParcelEPS9_NSt3__18functionIFvRS9_EEE"
  },
  {
   "name":"_ZN7android8hardware7sensors4V1_011BnHwSensors29_hidl_unregisterDirectChannelEPNS_4hidl4base4V1_08BnHwBaseERKNS0_6ParcelEPS9_NSt3__18functionIFvRS9_EEE"
  },
  {
   "name":"_ZN7android8hardware7sensors4V1_011BnHwSensors4pingEv"
  },
  {
   "name":"_ZN7android8hardware7sensors4V1_011BnHwSensorsC1ERKNS_2spINS2_8ISensorsEEE"
  },
  {
   "name":"_ZN7android8hardware7sensors4V1_011BnHwSensorsC2ERKNS_2spINS2_8ISensorsEEE"
  },
  {
   "name":"_ZN7android8hardware7sensors4V1_011BnHwSensorsD0Ev"
  },
  {
   "name":"_ZN7android8hardware7sensors4V1_011BnHwSensorsD1Ev"
  },
  {
   "name":"_ZN7android8hardware7sensors4V1_011BnHwSensorsD2Ev"
  },
  {
   "name":"_ZN7android8hardware7sensors4V1_011BpHwSensors10_hidl_pollEPNS0_10IInterfaceEPNS0_7details16HidlInstrumentorEiNSt3__18functionIFvNS2_6ResultERKNS0_8hidl_vecINS2_5EventEEERKNSC_INS2_10SensorInfoEEEEEE"
  },
  {
   "name":"_ZN7android8hardware7sensors4V1_011BpHwSensors11_hidl_batchEPNS0_10IInterfaceEPNS0_7details16HidlInstrumentorEixx"
  },
  {
   "name":"_ZN7android8hardware7sensors4V1_011BpHwSensors11_hidl_flushEPNS0_10IInterfaceEPNS0_7details16HidlInstrumentorEi"
  },
  {
   "name":"_ZN7android8hardware7sensors4V1_011BpHwSensors11linkToDeathERKNS_2spINS0_20hidl_death_recipientEEEy"
  },
  {
   "name":"_ZN7android8hardware7sensors4V1_011BpHwSensors12getDebugInfoENSt3__18functionIFvRKNS_4hidl4base4V1_09DebugInfoEEEE"
  },
  {
   "name":"_ZN7android8hardware7sensors4V1_011BpHwSensors12getHashChainENSt3__18functionIFvRKNS0_8hidl_vecINS0_10hidl_arrayIhLj32EJEEEEEEEE"
  },
  {
   "name":"_ZN7android8hardware7sensors4V1_011BpHwSensors13unlinkToDeathERKNS_2spINS0_20hidl_death_recipientEEE"
  },
  {
   "name":"_ZN7android8hardware7sensors4V1_011BpHwSensors14_hidl_activateEPNS0_10IInterfaceEPNS0_7details16HidlInstrumentorEib"
  },
  {
   "name":"_ZN7android8hardware7sensors4V1_011BpHwSensors14getSensorsListENSt3__18functionIFvRKNS0_8hidl_vecINS2_10SensorInfoEEEEEE"
  },
  {
   "name":"_ZN7android8hardware7sensors4V1_011BpHwSensors14interfaceChainENSt3__18functionIFvRKNS0_8hidl_vecINS0_11hidl_stringEEEEEE"
  },
  {
   "name":"_ZN7android8hardware7sensors4V1_011BpHwSensors16injectSensorDataERKNS2_5EventE"
  },
  {
   "name":"_ZN7android8hardware7sensors4V1_011BpHwSensors16setOperationModeENS2_13OperationModeE"
  },
  {
   "name":"_ZN7android8hardware7sensors4V1_011BpHwSensors18configDirectReportEiiNS2_9RateLevelENSt3__18functionIFvNS2_6ResultEiEEE"
  },
  {
   "name":"_ZN7android8hardware7sensors4V1_011BpHwSensors19interfaceDescriptorENSt3__18functionIFvRKNS0_11hidl_stringEEEE"
  },
  {
   "name":"_ZN7android8hardware7sensors4V1_011BpHwSensors20_hidl_getSensorsListEPNS0_10IInterfaceEPNS0_7details16HidlInstrumentorENSt3__18functionIFvRKNS0_8hidl_vecINS2_10SensorInfoEEEEEE"
  },
  {
   "name":"_ZN7android8hardware7sensors4V1_011BpHwSensors21notifySyspropsChangedEv"
  },
  {
   "name":"_ZN7android8hardware7sensors4V1_011BpHwSensors21registerDirectChannelERKNS2_13SharedMemInfoENSt3__18functionIFvNS2_6ResultEiEEE"
  },
  {
   "name":"_ZN7android8hardware7sensors4V1_011BpHwSensors21setHALInstrumentationEv"
  },
  {
   "name":"_ZN7android8hardware7sensors4V1_011BpHwSensors22_hidl_injectSensorDataEPNS0_10IInterfaceEPNS0_7details16HidlInstrumentorERKNS2_5EventE"
  },
  {
   "name":"_ZN7android8hardware7sensors4V1_011BpHwSensors22_hidl_setOperationModeEPNS0_10IInterfaceEPNS0_7details16HidlInstrumentorENS2_13OperationModeE"
  },
  {
   "name":"_ZN7android8hardware7sensors4V1_011BpHwSensors23unregisterDirectChannelEi"
  },
  {
   "name":"_ZN7android8hardware7sensors4V1_011BpHwSensors24_hidl_configDirectReportEPNS0_10IInterfaceEPNS0_7details16HidlInstrumentorEiiNS2_9RateLevelENSt3__18functionIFvNS2_6ResultEiEEE"
  },
  {
   "name":"_ZN7android8hardware7sensors4V1_011BpHwSensors27_hidl_registerDirectChannelEPNS0_10IInterfaceEPNS0_7details16HidlInstrumentorERKNS2_13SharedMemInfoENSt3__18functionIFvNS2_6ResultEiEEE"
  },
  {
   "name":"_ZN7android8hardware7sensors4V1_011BpHwSensors29_hidl_unregisterDirectChannelEPNS0_10IInterfaceEPNS0_7details16HidlInstrumentorEi"
  },
  {
   "name":"_ZN7android8hardware7sensors4V1_011BpHwSensors4pingEv"
  },
  {
   "name":"_ZN7android8hardware7sensors4V1_011BpHwSensors4pollEiNSt3__18functionIFvNS2_6ResultERKNS0_8hidl_vecINS2_5EventEEERKNS7_INS2_10SensorInfoEEEEEE"
  },
  {
   "name":"_ZN7android8hardware7sensors4V1_011BpHwSensors5batchEixx"
  },
  {
   "name":"_ZN7android8hardware7sensors4V1_011BpHwSensors5debugERKNS0_11hidl_handleERKNS0_8hidl_vecINS0_11hidl_stringEEE"
  },
  {
   "name":"_ZN7android8hardware7sensors4V1_011BpHwSensors5flushEi"
  },
  {
   "name":"_ZN7android8hardware7sensors4V1_011BpHwSensors8activateEib"
  },
  {
   "name":"_ZN7android8hardware7sensors4V1_011BpHwSensorsC1ERKNS_2spINS0_7IBinderEEE"
  },
  {
   "name":"_ZN7android8hardware7sensors4V1_011BpHwSensorsC2ERKNS_2spINS0_7IBinderEEE"
  },
  {
   "name":"_ZN7android8hardware7sensors4V1_021writeEmbeddedToParcelERKNS2_10SensorInfoEPNS0_6ParcelEjj"
  },
  {
   "name":"_ZN7android8hardware7sensors4V1_021writeEmbeddedToParcelERKNS2_13SharedMemInfoEPNS0_6ParcelEjj"
  },
  {
   "name":"_ZN7android8hardware7sensors4V1_022readEmbeddedFromParcelERKNS2_10SensorInfoERKNS0_6ParcelEjj"
  },
  {
   "name":"_ZN7android8hardware7sensors4V1_022readEmbeddedFromParcelERKNS2_13SharedMemInfoERKNS0_6ParcelEjj"
  },
  {
   "name":"_ZN7android8hardware7sensors4V1_08ISensors10getServiceERKNSt3__112basic_stringIcNS4_11char_traitsIcEENS4_9allocatorIcEEEEb"
  },
  {
   "name":"_ZN7android8hardware7sensors4V1_08ISensors11linkToDeathERKNS_2spINS0_20hidl_death_recipientEEEy"
  },
  {
   "name":"_ZN7android8hardware7sensors4V1_08ISensors12getDebugInfoENSt3__18functionIFvRKNS_4hidl4base4V1_09DebugInfoEEEE"
  },
  {
   "name":"_ZN7android8hardware7sensors4V1_08ISensors12getHashChainENSt3__18functionIFvRKNS0_8hidl_vecINS0_10hidl_arrayIhLj32EJEEEEEEEE"
  },
  {
   "name":"_ZN7android8hardware7sensors4V1_08ISensors13tryGetServiceERKNSt3__112basic_stringIcNS4_11char_traitsIcEENS4_9allocatorIcEEEEb"
  },
  {
   "name":"_ZN7android8hardware7sensors4V1_08ISensors13unlinkToDeathERKNS_2spINS0_20hidl_death_recipientEEE"
  },
  {
   "name":"_ZN7android8hardware7sensors4V1_08ISensors14interfaceChainENSt3__18functionIFvRKNS0_8hidl_vecINS0_11hidl_stringEEEEEE"
  },
  {
   "name":"_ZN7android8hardware7sensors4V1_08ISensors17registerAsServiceERKNSt3__112basic_stringIcNS4_11char_traitsIcEENS4_9allocatorIcEEEE"
  },
  {
   "name":"_ZN7android8hardware7sensors4V1_08ISensors19interfaceDescriptorENSt3__18functionIFvRKNS0_11hidl_stringEEEE"
  },
  {
   "name":"_ZN7android8hardware7sensors4V1_08ISensors21notifySyspropsChangedEv"
  },
  {
   "name":"_ZN7android8hardware7sensors4V1_08ISensors21setHALInstrumentationEv"
  },
  {
   "name":"_ZN7android8hardware7sensors4V1_08ISensors24registerForNotificationsERKNSt3__112basic_stringIcNS4_11char_traitsIcEENS4_9allocatorIcEEEERKNS_2spINS_4hidl7manager4V1_020IServiceNotificationEEE"
  },
  {
   "name":"_ZN7android8hardware7sensors4V1_08ISensors4pingEv"
  },
  {
   "name":"_ZN7android8hardware7sensors4V1_08ISensors5debugERKNS0_11hidl_handleERKNS0_8hidl_vecINS0_11hidl_stringEEE"
  },
  {
   "name":"_ZN7android8hardware7sensors4V1_08ISensors8castFromERKNS_2spINS_4hidl4base4V1_05IBaseEEEb"
  },
  {
   "name":"_ZN7android8hardware7sensors4V1_08ISensors8castFromERKNS_2spIS3_EEb"
  },
  {
   "name":"_ZN7android8hardware7sensors4V1_09BsSensors13addOnewayTaskENSt3__18functionIFvvEEE"
  },
  {
   "name":"_ZN7android8hardware7sensors4V1_09BsSensorsC1ENS_2spINS2_8ISensorsEEE"
  },
  {
   "name":"_ZN7android8hardware7sensors4V1_09BsSensorsC2ENS_2spINS2_8ISensorsEEE"
  },
  {
   "binding":"weak",
   "name":"_ZN7android8hardware8toBinderINS_4hidl4base4V1_05IBaseEvEENS_2spINS0_7IBinderEEENS6_IT_EE"
  },
  {
   "name":"_ZThn20_N7android8hardware7sensors4V1_011BnHwSensorsD0Ev"
  },
  {
   "name":"_ZThn20_N7android8hardware7sensors4V1_011BnHwSensorsD1Ev"
  },
  {
   "name":"_ZTv0_n12_N7android8hardware7sensors4V1_011BnHwSensorsD0Ev"
  },
  {
   "name":"_ZTv0_n12_N7android8hardware7sensors4V1_011BnHwSensorsD1Ev"
  }
 ],
 "elf_objects":[
  {
   "name":"_ZN7android8hardware7sensors4V1_08ISensors10descriptorE"
  },
  {
   "name":"_ZTTN7android8hardware7sensors4V1_011BnHwSensorsE"
  },
  {
   "name":"_ZTTN7android8hardware7sensors4V1_011BpHwSensorsE"
  },
  {
   "name":"_ZTTN7android8hardware7sensors4V1_08ISensorsE"
  },
  {
   "name":"_ZTVN7android8hardware7sensors4V1_011BnHwSensorsE"
  },
  {
   "name":"_ZTVN7android8hardware7sensors4V1_011BpHwSensorsE"
  },
  {
   "name":"_ZTVN7android8hardware7sensors4V1_08ISensorsE"
  },
  {
   "binding":"weak",
   "name":"_ZTVN7android8hardware7sensors4V1_09BsSensorsE"
  }
 ]
}