{
 "record_types":[
  {
   "vtable_components":[
    {
     "kind":"vbase_offset",
     "component_value":72
    },
    {
     "kind":"offset_to_top"
    },
    {
     "kind":"rtti",
     "mangled_component_name":"_ZTIN7android8hardware2vr4V1_06BnHwVrE"
    },
    {
     "mangled_component_name":"_ZN7android8hardware9BHwBinder8transactEjRKNS0_6ParcelEPS2_jNSt3__18functionIFvRS2_EEE"
    },
    {
     "mangled_component_name":"_ZN7android8hardware9BHwBinder11linkToDeathERKNS_2spINS0_7IBinder14DeathRecipientEEEPvj"
    },
    {
     "mangled_component_name":"_ZN7android8hardware9BHwBinder13unlinkToDeathERKNS_2wpINS0_7IBinder14DeathRecipientEEEPvjPS5_"
    },
    {
     "mangled_component_name":"_ZNK7android8hardware7IBinder13checkSubclassEPKv"
    },
    {
     "mangled_component_name":"_ZN7android8hardware9BHwBinder12attachObjectEPKvPvS4_PFvS3_S4_S4_E"
    },
    {
     "mangled_component_name":"_ZNK7android8hardware9BHwBinder10findObjectEPKv"
    },
    {
     "mangled_component_name":"_ZN7android8hardware9BHwBinder12detachObjectEPKv"
    },
    {
     "mangled_component_name":"_ZN7android8hardware9BHwBinder11localBinderEv"
    },
    {
     "mangled_component_name":"_ZN7android8hardware7IBinder12remoteBinderEv"
    },
    {
     "kind":"complete_dtor_pointer",
     "mangled_component_name":"_ZN7android8hardware2vr4V1_06BnHwVrD1Ev"
    },
    {
     "kind":"deleting_dtor_pointer",
     "mangled_component_name":"_ZN7android8hardware2vr4V1_06BnHwVrD0Ev"
    },
    {
     "mangled_component_name":"_ZN7android8hardware2vr4V1_06BnHwVr10onTransactEjRKNS0_6ParcelEPS4_jNSt3__18functionIFvRS4_EEE"
    },
    {
     "kind":"offset_to_top",
     "component_value":-20
    },
    {
     "kind":"rtti",
     "mangled_component_name":"_ZTIN7android8hardware2vr4V1_06BnHwVrE"
    },
    {
     "kind":"complete_dtor_pointer",
     "mangled_component_name":"_ZThn20_N7android8hardware2vr4V1_06BnHwVrD1Ev"
    },
    {
     "kind":"deleting_dtor_pointer",
     "mangled_component_name":"_ZThn20_N7android8hardware2vr4V1_06BnHwVrD0Ev"
    },
    {
     "kind":"vcall_offset"
    },
    {
     "kind":"vcall_offset"
    },
    {
     "kind":"vcall_offset"
    },
    {
     "kind":"vcall_offset"
    },
    {
     "kind":"vcall_offset",
     "component_value":-72
    },
    {
     "kind":"offset_to_top",
     "component_value":-72
    },
    {
     "kind":"rtti",
     "mangled_component_name":"_ZTIN7android8hardware2vr4V1_06BnHwVrE"
    },
    {
     "kind":"complete_dtor_pointer",
     "mangled_component_name":"_ZTv0_n12_N7android8hardware2vr4V1_06BnHwVrD1Ev"
    },
    {
     "kind":"deleting_dtor_pointer",
     "mangled_component_name":"_ZTv0_n12_N7android8hardware2vr4V1_06BnHwVrD0Ev"
    },
    {
     "mangled_component_name":"_ZN7android7RefBase10onFirstRefEv"
    },
    {
     "mangled_component_name":"_ZN7android7RefBase15onLastStrongRefEPKv"
    },
    {
     "mangled_component_name":"_ZN7android7RefBase20onIncStrongAttemptedEjPKv"
    },
    {
     "mangled_component_name":"_ZN7android7RefBase13onLastWeakRefEPKv"
    }
   ],
   "unique_id":"_ZTSN7android8hardware2vr4V1_06BnHwVrE"
  },
  {
   "vtable_components":[
    {
     "kind":"vbase_offset",
     "component_value":60
    },
    {
     "kind":"offset_to_top"
    },
    {
     "kind":"rtti",
     "mangled_component_name":"_ZTIN7android8hardware2vr4V1_04BsVrE"
    },
    {
     "mangled_component_name":"_ZNK7android8hardware2vr4V1_03IVr8isRemoteEv"
    },
    {
     "mangled_component_name":"_ZN7android8hardware2vr4V1_04BsVr14interfaceChainENSt3__18functionIFvRKNS0_8hidl_vecINS0_11hidl_stringEEEEEE"
    },
    {
     "mangled_component_name":"_ZN7android8hardware2vr4V1_04BsVr5debugERKNS0_11hidl_handleERKNS0_8hidl_vecINS0_11hidl_stringEEE"
    },
    {
     "mangled_component_name":"_ZN7android8hardware2vr4V1_04BsVr19interfaceDescriptorENSt3__18functionIFvRKNS0_11hidl_stringEEEE"
    },
    {
     "mangled_component_name":"_ZN7android8hardware2vr4V1_04BsVr12getHashChainENSt3__18functionIFvRKNS0_8hidl_vecINS0_10hidl_arrayIhLj32EJEEEEEEEE"
    },
    {
     "mangled_component_name":"_ZN7android8hardware2vr4V1_04BsVr21setHALInstrumentationEv"
    },
    {
     "mangled_component_name":"_ZN7android8hardware2vr4V1_04BsVr11linkToDeathERKNS_2spINS0_20hidl_death_recipientEEEy"
    },
    {
     "mangled_component_name":"_ZN7android8hardware2vr4V1_04BsVr4pingEv"
    },
    {
     "mangled_component_name":"_ZN7android8hardware2vr4V1_04BsVr12getDebugInfoENSt3__18functionIFvRKNS_4hidl4base4V1_09DebugInfoEEEE"
    },
    {
     "mangled_component_name":"_ZN7android8hardware2vr4V1_04BsVr21notifySyspropsChangedEv"
    },
    {
     "mangled_component_name":"_ZN7android8hardware2vr4V1_04BsVr13unlinkToDeathERKNS_2spINS0_20hidl_death_recipientEEE"
    },
    {
     "kind":"complete_dtor_pointer",
     "mangled_component_name":"_ZN7android8hardware2vr4V1_04BsVrD1Ev"
    },
    {
     "kind":"deleting_dtor_pointer",
     "mangled_component_name":"_ZN7android8hardware2vr4V1_04BsVrD0Ev"
    },
    {
     "mangled_component_name":"_ZN7android8hardware2vr4V1_04BsVr4initEv"
    },
    {
     "mangled_component_name":"_ZN7android8hardware2vr4V1_04BsVr9setVrModeEb"
    },
    {
     "kind":"offset_to_top",
     "component_value":-4
    },
    {
     "kind":"rtti",
     "mangled_component_name":"_ZTIN7android8hardware2vr4V1_04BsVrE"
    },
    {
     "kind":"complete_dtor_pointer",
     "mangled_component_name":"_ZThn4_N7android8hardware2vr4V1_04BsVrD1Ev"
    },
    {
     "kind":"deleting_dtor_pointer",
     "mangled_component_name":"_ZThn4_N7android8hardware2vr4V1_04BsVrD0Ev"
    },
    {
     "kind":"vcall_offset"
    },
    {
     "kind":"vcall_offset"
    },
    {
     "kind":"vcall_offset"
    },
    {
     "kind":"vcall_offset"
    },
    {
     "kind":"vcall_offset",
     "component_value":-60
    },
    {
     "kind":"offset_to_top",
     "component_value":-60
    },
    {
     "kind":"rtti",
     "mangled_component_name":"_ZTIN7android8hardware2vr4V1_04BsVrE"
    },
    {
     "kind":"complete_dtor_pointer",
     "mangled_component_name":"_ZTv0_n12_N7android8hardware2vr4V1_04BsVrD1Ev"
    },
    {
     "kind":"deleting_dtor_pointer",
     "mangled_component_name":"_ZTv0_n12_N7android8hardware2vr4V1_04BsVrD0Ev"
    },
    {
     "mangled_component_name":"_ZN7android7RefBase10onFirstRefEv"
    },
    {
     "mangled_component_name":"_ZN7android7RefBase15onLastStrongRefEPKv"
    },
    {
     "mangled_component_name":"_ZN7android7RefBase20onIncStrongAttemptedEjPKv"
    },
    {
     "mangled_component_name":"_ZN7android7RefBase13onLastWeakRefEPKv"
    }
   ],
   "unique_id":"_ZTSN7android8hardware2vr4V1_04BsVrE"
  },
  {
   "vtable_components":[
    {
     "kind":"vbase_offset",
     "component_value":84
    },
    {
     "kind":"offset_to_top"
    },
    {
     "kind":"rtti",
     "mangled_component_name":"_ZTIN7android8hardware2vr4V1_06BpHwVrE"
    },
    {
     "mangled_component_name":"_ZNK7android8hardware2vr4V1_06BpHwVr8isRemoteEv"
    },
    {
     "mangled_component_name":"_ZN7android8hardware2vr4V1_06BpHwVr14interfaceChainENSt3__18functionIFvRKNS0_8hidl_vecINS0_11hidl_stringEEEEEE"
    },
    {
     "mangled_component_name":"_ZN7android8hardware2vr4V1_06BpHwVr5debugERKNS0_11hidl_handleERKNS0_8hidl_vecINS0_11hidl_stringEEE"
    },
    {
     "mangled_component_name":"_ZN7android8hardware2vr4V1_06BpHwVr19interfaceDescriptorENSt3__18functionIFvRKNS0_11hidl_stringEEEE"
    },
    {
     "mangled_component_name":"_ZN7android8hardware2vr4V1_06BpHwVr12getHashChainENSt3__18functionIFvRKNS0_8hidl_vecINS0_10hidl_arrayIhLj32EJEEEEEEEE"
    },
    {
     "mangled_component_name":"_ZN7android8hardware2vr4V1_06BpHwVr21setHALInstrumentationEv"
    },
    {
     "mangled_component_name":"_ZN7android8hardware2vr4V1_06BpHwVr11linkToDeathERKNS_2spINS0_20hidl_death_recipientEEEy"
    },
    {
     "mangled_component_name":"_ZN7android8hardware2vr4V1_06BpHwVr4pingEv"
    },
    {
     "mangled_component_name":"_ZN7android8hardware2vr4V1_06BpHwVr12getDebugInfoENSt3__18functionIFvRKNS_4hidl4base4V1_09DebugInfoEEEE"
    },
    {
     "mangled_component_name":"_ZN7android8hardware2vr4V1_06BpHwVr21notifySyspropsChangedEv"
    },
    {
     "mangled_component_name":"_ZN7android8hardware2vr4V1_06BpHwVr13unlinkToDeathERKNS_2spINS0_20hidl_death_recipientEEE"
    },
    {
     "kind":"complete_dtor_pointer",
     "mangled_component_name":"_ZN7android8hardware2vr4V1_06BpHwVrD1Ev"
    },
    {
     "kind":"deleting_dtor_pointer",
     "mangled_component_name":"_ZN7android8hardware2vr4V1_06BpHwVrD0Ev"
    },
    {
     "mangled_component_name":"_ZN7android8hardware2vr4V1_06BpHwVr4initEv"
    },
    {
     "mangled_component_name":"_ZN7android8hardware2vr4V1_06BpHwVr9setVrModeEb"
    },
    {
     "mangled_component_name":"_ZN7android8hardware11BpInterfaceINS0_2vr4V1_03IVrEE10onAsBinderEv"
    },
    {
     "kind":"vbase_offset",
     "component_value":80
    },
    {
     "kind":"offset_to_top",
     "component_value":-4
    },
    {
     "kind":"rtti",
     "mangled_component_name":"_ZTIN7android8hardware2vr4V1_06BpHwVrE"
    },
    {
     "kind":"complete_dtor_pointer",
     "mangled_component_name":"_ZThn4_N7android8hardware2vr4V1_06BpHwVrD1Ev"
    },
    {
     "kind":"deleting_dtor_pointer",
     "mangled_component_name":"_ZThn4_N7android8hardware2vr4V1_06BpHwVrD0Ev"
    },
    {
     "mangled_component_name":"_ZThn4_N7android8hardware11BpInterfaceINS0_2vr4V1_03IVrEE10onAsBinderEv"
    },
    {
     "kind":"vbase_offset",
     "component_value":76
    },
    {
     "kind":"offset_to_top",
     "component_value":-8
    },
    {
     "kind":"rtti",
     "mangled_component_name":"_ZTIN7android8hardware2vr4V1_06BpHwVrE"
    },
    {
     "kind":"complete_dtor_pointer",
     "mangled_component_name":"_ZThn8_N7android8hardware2vr4V1_06BpHwVrD1Ev"
    },
    {
     "kind":"deleting_dtor_pointer",
     "mangled_component_name":"_ZThn8_N7android8hardware2vr4V1_06BpHwVrD0Ev"
    },
    {
     "mangled_component_name":"_ZN7android8hardware11BpHwRefBase10onFirstRefEv"
    },
    {
     "mangled_component_name":"_ZN7android8hardware11BpHwRefBase15onLastStrongRefEPKv"
    },
    {
     "mangled_component_name":"_ZN7android8hardware11BpHwRefBase20onIncStrongAttemptedEjPKv"
    },
    {
     "kind":"offset_to_top",
     "component_value":-24
    },
    {
     "kind":"rtti",
     "mangled_component_name":"_ZTIN7android8hardware2vr4V1_06BpHwVrE"
    },
    {
     "kind":"complete_dtor_pointer",
     "mangled_component_name":"_ZThn24_N7android8hardware2vr4V1_06BpHwVrD1Ev"
    },
    {
     "kind":"deleting_dtor_pointer",
     "mangled_component_name":"_ZThn24_N7android8hardware2vr4V1_06BpHwVrD0Ev"
    },
    {
     "kind":"vcall_offset"
    },
    {
     "kind":"vcall_offset",
     "component_value":-76
    },
    {
     "kind":"vcall_offset",
     "component_value":-76
    },
    {
     "kind":"vcall_offset",
     "component_value":-76
    },
    {
     "kind":"vcall_offset",
     "component_value":-84
    },
    {
     "kind":"offset_to_top",
     "component_value":-84
    },
    {
     "kind":"rtti",
     "mangled_component_name":"_ZTIN7android8hardware2vr4V1_06BpHwVrE"
    },
    {
     "kind":"complete_dtor_pointer",
     "mangled_component_name":"_ZTv0_n12_N7android8hardware2vr4V1_06BpHwVrD1Ev"
    },
    {
     "kind":"deleting_dtor_pointer",
     "mangled_component_name":"_ZTv0_n12_N7android8hardware2vr4V1_06BpHwVrD0Ev"
    },
    {
     "mangled_component_name":"_ZTv0_n16_N7android8hardware11BpHwRefBase10onFirstRefEv"
    },
    {
     "mangled_component_name":"_ZTv0_n20_N7android8hardware11BpHwRefBase15onLastStrongRefEPKv"
    },
    {
     "mangled_component_name":"_ZTv0_n24_N7android8hardware11BpHwRefBase20onIncStrongAttemptedEjPKv"
    },
    {
     "mangled_component_name":"_ZN7android7RefBase13onLastWeakRefEPKv"
    }
   ],
   "unique_id":"_ZTSN7android8hardware2vr4V1_06BpHwVrE"
  },
  {
   "vtable_components":[
    {
     "kind":"vbase_offset",
     "component_value":4
    },
    {
     "kind":"offset_to_top"
    },
    {
     "kind":"rtti",
     "mangled_component_name":"_ZTIN7android8hardware2vr4V1_03IVrE"
    },
    {
     "mangled_component_name":"_ZNK7android8hardware2vr4V1_03IVr8isRemoteEv"
    },
    {
     "mangled_component_name":"_ZN7android8hardware2vr4V1_03IVr14interfaceChainENSt3__18functionIFvRKNS0_8hidl_vecINS0_11hidl_stringEEEEEE"
    },
    {
     "mangled_component_name":"_ZN7android8hardware2vr4V1_03IVr5debugERKNS0_11hidl_handleERKNS0_8hidl_vecINS0_11hidl_stringEEE"
    },
    {
     "mangled_component_name":"_ZN7android8hardware2vr4V1_03IVr19interfaceDescriptorENSt3__18functionIFvRKNS0_11hidl_stringEEEE"
    },
    {
     "mangled_component_name":"_ZN7android8hardware2vr4V1_03IVr12getHashChainENSt3__18functionIFvRKNS0_8hidl_vecINS0_10hidl_arrayIhLj32EJEEEEEEEE"
    },
    {
     "mangled_component_name":"_ZN7android8hardware2vr4V1_03IVr21setHALInstrumentationEv"
    },
    {
     "mangled_component_name":"_ZN7android8hardware2vr4V1_03IVr11linkToDeathERKNS_2spINS0_20hidl_death_recipientEEEy"
    },
    {
     "mangled_component_name":"_ZN7android8hardware2vr4V1_03IVr4pingEv"
    },
    {
     "mangled_component_name":"_ZN7android8hardware2vr4V1_03IVr12getDebugInfoENSt3__18functionIFvRKNS_4hidl4base4V1_09DebugInfoEEEE"
    },
    {
     "mangled_component_name":"_ZN7android8hardware2vr4V1_03IVr21notifySyspropsChangedEv"
    },
    {
     "mangled_component_name":"_ZN7android8hardware2vr4V1_03IVr13unlinkToDeathERKNS_2spINS0_20hidl_death_recipientEEE"
    },
    {
     "kind":"complete_dtor_pointer",
     "mangled_component_name":"_ZN7android8hardware2vr4V1_03IVrD1Ev"
    },
    {
     "kind":"deleting_dtor_pointer",
     "mangled_component_name":"_ZN7android8hardware2vr4V1_03IVrD0Ev"
    },
    {
     "is_pure":true,
     "mangled_component_name":"_ZN7android8hardware2vr4V1_03IVr4initEv"
    },
    {
     "is_pure":true,
     "mangled_component_name":"_ZN7android8hardware2vr4V1_03IVr9setVrModeEb"
    },
    {
     "kind":"vcall_offset"
    },
    {
     "kind":"vcall_offset"
    },
    {
     "kind":"vcall_offset"
    },
    {
     "kind":"vcall_offset"
    },
    {
     "kind":"vcall_offset",
     "component_value":-4
    },
    {
     "kind":"offset_to_top",
     "component_value":-4
    },
    {
     "kind":"rtti",
     "mangled_component_name":"_ZTIN7android8hardware2vr4V1_03IVrE"
    },
    {
     "kind":"complete_dtor_pointer",
     "mangled_component_name":"_ZTv0_n12_N7android8hardware2vr4V1_03IVrD1Ev"
    },
    {
     "kind":"deleting_dtor_pointer",
     "mangled_component_name":"_ZTv0_n12_N7android8hardware2vr4V1_03IVrD0Ev"
    },
    {
     "mangled_component_name":"_ZN7android7RefBase10onFirstRefEv"
    },
    {
     "mangled_component_name":"_ZN7android7RefBase15onLastStrongRefEPKv"
    },
    {
     "mangled_component_name":"_ZN7android7RefBase20onIncStrongAttemptedEjPKv"
    },
    {
     "mangled_component_name":"_ZN7android7RefBase13onLastWeakRefEPKv"
    }
   ],
   "unique_id":"_ZTSN7android8hardware2vr4V1_03IVrE"
  }
 ],
 "elf_functions":[
  {
   "name":"_ZN7android8hardware2vr4V1_03IVr10getServiceERKNSt3__112basic_stringIcNS4_11char_traitsIcEENS4_9allocatorIcEEEEb"
  },
  {
   "name":"_ZN7android8hardware2vr4V1_03IVr11linkToDeathERKNS_2spINS0_20hidl_death_recipientEEEy"
  },
  {
   "name":"_ZN7android8hardware2vr4V1_03IVr12getDebugInfoENSt3__18functionIFvRKNS_4hidl4base4V1_09DebugInfoEEEE"
  },
  {
   "name":"_ZN7android8hardware2vr4V1_03IVr12getHashChainENSt3__18functionIFvRKNS0_8hidl_vecINS0_10hidl_arrayIhLj32EJEEEEEEEE"
  },
  {
   "name":"_ZN7android8hardware2vr4V1_03IVr13tryGetServiceERKNSt3__112basic_stringIcNS4_11char_traitsIcEENS4_9allocatorIcEEEEb"
  },
  {
   "name":"_ZN7android8hardware2vr4V1_03IVr13unlinkToDeathERKNS_2spINS0_20hidl_death_recipientEEE"
  },
  {
   "name":"_ZN7android8hardware2vr4V1_03IVr14interfaceChainENSt3__18functionIFvRKNS0_8hidl_vecINS0_11hidl_stringEEEEEE"
  },
  {
   "name":"_ZN7android8hardware2vr4V1_03IVr17registerAsServiceERKNSt3__112basic_stringIcNS4_11char_traitsIcEENS4_9allocatorIcEEEE"
  },
  {
   "name":"_ZN7android8hardware2vr4V1_03IVr19interfaceDescriptorENSt3__18functionIFvRKNS0_11hidl_stringEEEE"
  },
  {
   "name":"_ZN7android8hardware2vr4V1_03IVr21notifySyspropsChangedEv"
  },
  {
   "name":"_ZN7android8hardware2vr4V1_03IVr21setHALInstrumentationEv"
  },
  {
   "name":"_ZN7android8hardware2vr4V1_03IVr24registerForNotificationsERKNSt3__112basic_stringIcNS4_11char_traitsIcEENS4_9allocatorIcEEEERKNS_2spINS_4hidl7manager4V1_020IServiceNotificationEEE"
  },
  {
   "name":"_ZN7android8hardware2vr4V1_03IVr4pingEv"
  },
  {
   "name":"_ZN7android8hardware2vr4V1_03IVr5debugERKNS0_11hidl_handleERKNS0_8hidl_vecINS0_11hidl_stringEEE"
  },
  {
   "name":"_ZN7android8hardware2vr4V1_03IVr8castFromERKNS_2spINS_4hidl4base4V1_05IBaseEEEb"
  },
  {
   "name":"_ZN7android8hardware2vr4V1_03IVr8castFromERKNS_2spIS3_EEb"
  },
  {
   "name":"_ZN7android8hardware2vr4V1_04BsVr13addOnewayTaskENSt3__18functionIFvvEEE"
  },
  {
   "name":"_ZN7android8hardware2vr4V1_04BsVrC1ENS_2spINS2_3IVrEEE"
  },
  {
   "name":"_ZN7android8hardware2vr4V1_04BsVrC2ENS_2spINS2_3IVrEEE"
  },
  {
   "name":"_ZN7android8hardware2vr4V1_06BnHwVr10_hidl_initEPNS_4hidl4base4V1_08BnHwBaseERKNS0_6ParcelEPS9_NSt3__18functionIFvRS9_EEE"
  },
  {
   "name":"_ZN7android8hardware2vr4V1_06BnHwVr10onTransactEjRKNS0_6ParcelEPS4_jNSt3__18functionIFvRS4_EEE"
  },
  {
   "name":"_ZN7android8hardware2vr4V1_06BnHwVr12getDebugInfoENSt3__18functionIFvRKNS_4hidl4base4V1_09DebugInfoEEEE"
  },
  {
   "name":"_ZN7android8hardware2vr4V1_06BnHwVr15_hidl_setVrModeEPNS_4hidl4base4V1_08BnHwBaseERKNS0_6ParcelEPS9_NSt3__18functionIFvRS9_EEE"
  },
  {
   "name":"_ZN7android8hardware2vr4V1_06BnHwVr4pingEv"
  },
  {
   "name":"_ZN7android8hardware2vr4V1_06BnHwVrC1ERKNS_2spINS2_3IVrEEE"
  },
  {
   "name":"_ZN7android8hardware2vr4V1_06BnHwVrC2ERKNS_2spINS2_3IVrEEE"
  },
  {
   "name":"_ZN7android8hardware2vr4V1_06BnHwVrD0Ev"
  },
  {
   "name":"_ZN7android8hardware2vr4V1_06BnHwVrD1Ev"
  },
  {
   "name":"_ZN7android8hardware2vr4V1_06BnHwVrD2Ev"
  },
  {
   "name":"_ZN7android8hardware2vr4V1_06BpHwVr10_hidl_initEPNS0_10IInterfaceEPNS0_7details16HidlInstrumentorE"
  },
  {
   "name":"_ZN7android8hardware2vr4V1_06BpHwVr11linkToDeathERKNS_2spINS0_20hidl_death_recipientEEEy"
  },
  {
   "name":"_ZN7android8hardware2vr4V1_06BpHwVr12getDebugInfoENSt3__18functionIFvRKNS_4hidl4base4V1_09DebugInfoEEEE"
  },
  {
   "name":"_ZN7android8hardware2vr4V1_06BpHwVr12getHashChainENSt3__18functionIFvRKNS0_8hidl_vecINS0_10hidl_arrayIhLj32EJEEEEEEEE"
  },
  {
   "name":"_ZN7android8hardware2vr4V1_06BpHwVr13unlinkToDeathERKNS_2spINS0_20hidl_death_recipientEEE"
  },
  {
   "name":"_ZN7android8hardware2vr4V1_06BpHwVr14interfaceChainENSt3__18functionIFvRKNS0_8hidl_vecINS0_11hidl_stringEEEEEE"
  },
  {
   "name":"_ZN7android8hardware2vr4V1_06BpHwVr15_hidl_setVrModeEPNS0_10IInterfaceEPNS0_7details16HidlInstrumentorEb"
  },
  {
   "name":"_ZN7android8hardware2vr4V1_06BpHwVr19interfaceDescriptorENSt3__18functionIFvRKNS0_11hidl_stringEEEE"
  },
  {
   "name":"_ZN7android8hardware2vr4V1_06BpHwVr21notifySyspropsChangedEv"
  },
  {
   "name":"_ZN7android8hardware2vr4V1_06BpHwVr21setHALInstrumentationEv"
  },
  {
   "name":"_ZN7android8hardware2vr4V1_06BpHwVr4initEv"
  },
  {
   "name":"_ZN7android8hardware2vr4V1_06BpHwVr4pingEv"
  },
  {
   "name":"_ZN7android8hardware2vr4V1_06BpHwVr5debugERKNS0_11hidl_handleERKNS0_8hidl_vecINS0_11hidl_stringEEE"
  },
  {
   "name":"_ZN7android8hardware2vr4V1_06BpHwVr9setVrModeEb"
  },
  {
   "name":"_ZN7android8hardware2vr4V1_06BpHwVrC1ERKNS_2spINS0_7IBinderEEE"
  },
  {
   "name":"_ZN7android8hardware2vr4V1_06BpHwVrC2ERKNS_2spINS0_7IBinderEEE"
  },
  {
   "binding":"weak",
   "name":"_ZN7android8hardware7details13castInterfaceINS0_2vr4V1_03IVrENS_4hidl4base4V1_05IBaseENS4_6BpHwVrEEENS0_6ReturnINS_2spIT_EEEENSC_IT0_EEPKcb"
  },
  {
   "binding":"weak",
   "name":"_ZN7android8hardware7details18getServiceInternalINS0_2vr4V1_06BpHwVrENS4_3IVrEvvEENS_2spIT0_EERKNSt3__112basic_stringIcNSA_11char_traitsIcEENSA_9allocatorIcEEEEbb"
  },
  {
   "binding":"weak",
   "name":"_ZN7android8hardware8toBinderINS_4hidl4base4V1_05IBaseEvEENS_2spINS0_7IBinderEEENS6_IT_EE"
  },
  {
   "name":"_ZThn20_N7android8hardware2vr4V1_06BnHwVrD0Ev"
  },
  {
   "name":"_ZThn20_N7android8hardware2vr4V1_06BnHwVrD1Ev"
  },
  {
   "name":"_ZTv0_n12_N7android8hardware2vr4V1_06BnHwVrD0Ev"
  },
  {
   "name":"_ZTv0_n12_N7android8hardware2vr4V1_06BnHwVrD1Ev"
  }
 ],
 "elf_objects":[
  {
   "name":"_ZN7android8hardware2vr4V1_03IVr10descriptorE"
  },
  {
   "name":"_ZTTN7android8hardware2vr4V1_03IVrE"
  },
  {
   "name":"_ZTTN7android8hardware2vr4V1_06BnHwVrE"
  },
  {
   "name":"_ZTTN7android8hardware2vr4V1_06BpHwVrE"
  },
  {
   "name":"_ZTVN7android8hardware2vr4V1_03IVrE"
  },
  {
   "binding":"weak",
   "name":"_ZTVN7android8hardware2vr4V1_04BsVrE"
  },
  {
   "name":"_ZTVN7android8hardware2vr4V1_06BnHwVrE"
  },
  {
   "name":"_ZTVN7android8hardware2vr4V1_06BpHwVrE"
  }
 ]
}