{
 "record_types":[
  {
   "vtable_components":[
    {
     "kind":"vbase_offset",
     "component_value":72
    },
    {
     "kind":"offset_to_top"
    },
    {
     "kind":"rtti",
     "mangled_component_name":"_ZTIN7android8hardware11configstore4V1_025BnHwSurfaceFlingerConfigsE"
    },
    {
     "mangled_component_name":"_ZN7android8hardware9BHwBinder8transactEjRKNS0_6ParcelEPS2_jNSt3__18functionIFvRS2_EEE"
    },
    {
     "mangled_component_name":"_ZN7android8hardware9BHwBinder11linkToDeathERKNS_2spINS0_7IBinder14DeathRecipientEEEPvj"
    },
    {
     "mangled_component_name":"_ZN7android8hardware9BHwBinder13unlinkToDeathERKNS_2wpINS0_7IBinder14DeathRecipientEEEPvjPS5_"
    },
    {
     "mangled_component_name":"_ZNK7android8hardware7IBinder13checkSubclassEPKv"
    },
    {
     "mangled_component_name":"_ZN7android8hardware9BHwBinder12attachObjectEPKvPvS4_PFvS3_S4_S4_E"
    },
    {
     "mangled_component_name":"_ZNK7android8hardware9BHwBinder10findObjectEPKv"
    },
    {
     "mangled_component_name":"_ZN7android8hardware9BHwBinder12detachObjectEPKv"
    },
    {
     "mangled_component_name":"_ZN7android8hardware9BHwBinder11localBinderEv"
    },
    {
     "mangled_component_name":"_ZN7android8hardware7IBinder12remoteBinderEv"
    },
    {
     "kind":"complete_dtor_pointer",
     "mangled_component_name":"_ZN7android8hardware11configstore4V1_025BnHwSurfaceFlingerConfigsD1Ev"
    },
    {
     "kind":"deleting_dtor_pointer",
     "mangled_component_name":"_ZN7android8hardware11configstore4V1_025BnHwSurfaceFlingerConfigsD0Ev"
    },
    {
     "mangled_component_name":"_ZN7android8hardware11configstore4V1_025BnHwSurfaceFlingerConfigs10onTransactEjRKNS0_6ParcelEPS4_jNSt3__18functionIFvRS4_EEE"
    },
    {
     "kind":"offset_to_top",
     "component_value":-20
    },
    {
     "kind":"rtti",
     "mangled_component_name":"_ZTIN7android8hardware11configstore4V1_025BnHwSurfaceFlingerConfigsE"
    },
    {
     "kind":"complete_dtor_pointer",
     "mangled_component_name":"_ZThn20_N7android8hardware11configstore4V1_025BnHwSurfaceFlingerConfigsD1Ev"
    },
    {
     "kind":"deleting_dtor_pointer",
     "mangled_component_name":"_ZThn20_N7android8hardware11configstore4V1_025BnHwSurfaceFlingerConfigsD0Ev"
    },
    {
     "kind":"vcall_offset"
    },
    {
     "kind":"vcall_offset"
    },
    {
     "kind":"vcall_offset"
    },
    {
     "kind":"vcall_offset"
    },
    {
     "kind":"vcall_offset",
     "component_value":-72
    },
    {
     "kind":"offset_to_top",
     "component_value":-72
    },
    {
     "kind":"rtti",
     "mangled_component_name":"_ZTIN7android8hardware11configstore4V1_025BnHwSurfaceFlingerConfigsE"
    },
    {
     "kind":"complete_dtor_pointer",
     "mangled_component_name":"_ZTv0_n12_N7android8hardware11configstore4V1_025BnHwSurfaceFlingerConfigsD1Ev"
    },
    {
     "kind":"deleting_dtor_pointer",
     "mangled_component_name":"_ZTv0_n12_N7android8hardware11configstore4V1_025BnHwSurfaceFlingerConfigsD0Ev"
    },
    {
     "mangled_component_name":"_ZN7android7RefBase10onFirstRefEv"
    },
    {
     "mangled_component_name":"_ZN7android7RefBase15onLastStrongRefEPKv"
    },
    {
     "mangled_component_name":"_ZN7android7RefBase20onIncStrongAttemptedEjPKv"
    },
    {
     "mangled_component_name":"_ZN7android7RefBase13onLastWeakRefEPKv"
    }
   ],
   "unique_id":"_ZTSN7android8hardware11configstore4V1_025BnHwSurfaceFlingerConfigsE"
  },
  {
   "vtable_components":[
    {
     "kind":"vbase_offset",
     "component_value":60
    },
    {
     "kind":"offset_to_top"
    },
    {
     "kind":"rtti",
     "mangled_component_name":"_ZTIN7android8hardware11configstore4V1_023BsSurfaceFlingerConfigsE"
    },
    {
     "mangled_component_name":"_ZNK7android8hardware11configstore4V1_022ISurfaceFlingerConfigs8isRemoteEv"
    },
    {
     "mangled_component_name":"_ZN7android8hardware11configstore4V1_023BsSurfaceFlingerConfigs14interfaceChainENSt3__18functionIFvRKNS0_8hidl_vecINS0_11hidl_stringEEEEEE"
    },
    {
     "mangled_component_name":"_ZN7android8hardware11configstore4V1_023BsSurfaceFlingerConfigs5debugERKNS0_11hidl_handleERKNS0_8hidl_vecINS0_11hidl_stringEEE"
    },
    {
     "mangled_component_name":"_ZN7android8hardware11configstore4V1_023BsSurfaceFlingerConfigs19interfaceDescriptorENSt3__18functionIFvRKNS0_11hidl_stringEEEE"
    },
    {
     "mangled_component_name":"_ZN7android8hardware11configstore4V1_023BsSurfaceFlingerConfigs12getHashChainENSt3__18functionIFvRKNS0_8hidl_vecINS0_10hidl_arrayIhLj32EJEEEEEEEE"
    },
    {
     "mangled_component_name":"_ZN7android8hardware11configstore4V1_023BsSurfaceFlingerConfigs21setHALInstrumentationEv"
    },
    {
     "mangled_component_name":"_ZN7android8hardware11configstore4V1_023BsSurfaceFlingerConfigs11linkToDeathERKNS_2spINS0_20hidl_death_recipientEEEy"
    },
    {
     "mangled_component_name":"_ZN7android8hardware11configstore4V1_023BsSurfaceFlingerConfigs4pingEv"
    },
    {
     "mangled_component_name":"_ZN7android8hardware11configstore4V1_023BsSurfaceFlingerConfigs12getDebugInfoENSt3__18functionIFvRKNS_4hidl4base4V1_09DebugInfoEEEE"
    },
    {
     "mangled_component_name":"_ZN7android8hardware11configstore4V1_023BsSurfaceFlingerConfigs21notifySyspropsChangedEv"
    },
    {
     "mangled_component_name":"_ZN7android8hardware11configstore4V1_023BsSurfaceFlingerConfigs13unlinkToDeathERKNS_2spINS0_20hidl_death_recipientEEE"
    },
    {
     "kind":"complete_dtor_pointer",
     "mangled_component_name":"_ZN7android8hardware11configstore4V1_023BsSurfaceFlingerConfigsD1Ev"
    },
    {
     "kind":"deleting_dtor_pointer",
     "mangled_component_name":"_ZN7android8hardware11configstore4V1_023BsSurfaceFlingerConfigsD0Ev"
    },
    {
     "mangled_component_name":"_ZN7android8hardware11configstore4V1_023BsSurfaceFlingerConfigs23vsyncEventPhaseOffsetNsENSt3__18functionIFvRKNS2_13OptionalInt64EEEE"
    },
    {
     "mangled_component_name":"_ZN7android8hardware11configstore4V1_023BsSurfaceFlingerConfigs25vsyncSfEventPhaseOffsetNsENSt3__18functionIFvRKNS2_13OptionalInt64EEEE"
    },
    {
     "mangled_component_name":"_ZN7android8hardware11configstore4V1_023BsSurfaceFlingerConfigs18useContextPriorityENSt3__18functionIFvRKNS2_12OptionalBoolEEEE"
    },
    {
     "mangled_component_name":"_ZN7android8hardware11configstore4V1_023BsSurfaceFlingerConfigs19hasWideColorDisplayENSt3__18functionIFvRKNS2_12OptionalBoolEEEE"
    },
    {
     "mangled_component_name":"_ZN7android8hardware11configstore4V1_023BsSurfaceFlingerConfigs13hasHDRDisplayENSt3__18functionIFvRKNS2_12OptionalBoolEEEE"
    },
    {
     "mangled_component_name":"_ZN7android8hardware11configstore4V1_023BsSurfaceFlingerConfigs28presentTimeOffsetFromVSyncNsENSt3__18functionIFvRKNS2_13OptionalInt64EEEE"
    },
    {
     "mangled_component_name":"_ZN7android8hardware11configstore4V1_023BsSurfaceFlingerConfigs17useHwcForRGBtoYUVENSt3__18functionIFvRKNS2_12OptionalBoolEEEE"
    },
    {
     "mangled_component_name":"_ZN7android8hardware11configstore4V1_023BsSurfaceFlingerConfigs21maxVirtualDisplaySizeENSt3__18functionIFvRKNS2_14OptionalUInt64EEEE"
    },
    {
     "mangled_component_name":"_ZN7android8hardware11configstore4V1_023BsSurfaceFlingerConfigs16hasSyncFrameworkENSt3__18functionIFvRKNS2_12OptionalBoolEEEE"
    },
    {
     "mangled_component_name":"_ZN7android8hardware11configstore4V1_023BsSurfaceFlingerConfigs12useVrFlingerENSt3__18functionIFvRKNS2_12OptionalBoolEEEE"
    },
    {
     "mangled_component_name":"_ZN7android8hardware11configstore4V1_023BsSurfaceFlingerConfigs29maxFrameBufferAcquiredBuffersENSt3__18functionIFvRKNS2_13OptionalInt64EEEE"
    },
    {
     "mangled_component_name":"_ZN7android8hardware11configstore4V1_023BsSurfaceFlingerConfigs29startGraphicsAllocatorServiceENSt3__18functionIFvRKNS2_12OptionalBoolEEEE"
    },
    {
     "kind":"offset_to_top",
     "component_value":-4
    },
    {
     "kind":"rtti",
     "mangled_component_name":"_ZTIN7android8hardware11configstore4V1_023BsSurfaceFlingerConfigsE"
    },
    {
     "kind":"complete_dtor_pointer",
     "mangled_component_name":"_ZThn4_N7android8hardware11configstore4V1_023BsSurfaceFlingerConfigsD1Ev"
    },
    {
     "kind":"deleting_dtor_pointer",
     "mangled_component_name":"_ZThn4_N7android8hardware11configstore4V1_023BsSurfaceFlingerConfigsD0Ev"
    },
    {
     "kind":"vcall_offset"
    },
    {
     "kind":"vcall_offset"
    },
    {
     "kind":"vcall_offset"
    },
    {
     "kind":"vcall_offset"
    },
    {
     "kind":"vcall_offset",
     "component_value":-60
    },
    {
     "kind":"offset_to_top",
     "component_value":-60
    },
    {
     "kind":"rtti",
     "mangled_component_name":"_ZTIN7android8hardware11configstore4V1_023BsSurfaceFlingerConfigsE"
    },
    {
     "kind":"complete_dtor_pointer",
     "mangled_component_name":"_ZTv0_n12_N7android8hardware11configstore4V1_023BsSurfaceFlingerConfigsD1Ev"
    },
    {
     "kind":"deleting_dtor_pointer",
     "mangled_component_name":"_ZTv0_n12_N7android8hardware11configstore4V1_023BsSurfaceFlingerConfigsD0Ev"
    },
    {
     "mangled_component_name":"_ZN7android7RefBase10onFirstRefEv"
    },
    {
     "mangled_component_name":"_ZN7android7RefBase15onLastStrongRefEPKv"
    },
    {
     "mangled_component_name":"_ZN7android7RefBase20onIncStrongAttemptedEjPKv"
    },
    {
     "mangled_component_name":"_ZN7android7RefBase13onLastWeakRefEPKv"
    }
   ],
   "unique_id":"_ZTSN7android8hardware11configstore4V1_023BsSurfaceFlingerConfigsE"
  },
  {
   "vtable_components":[
    {
     "kind":"vbase_offset",
     "component_value":84
    },
    {
     "kind":"offset_to_top"
    },
    {
     "kind":"rtti",
     "mangled_component_name":"_ZTIN7android8hardware11configstore4V1_025BpHwSurfaceFlingerConfigsE"
    },
    {
     "mangled_component_name":"_ZNK7android8hardware11configstore4V1_025BpHwSurfaceFlingerConfigs8isRemoteEv"
    },
    {
     "mangled_component_name":"_ZN7android8hardware11configstore4V1_025BpHwSurfaceFlingerConfigs14interfaceChainENSt3__18functionIFvRKNS0_8hidl_vecINS0_11hidl_stringEEEEEE"
    },
    {
     "mangled_component_name":"_ZN7android8hardware11configstore4V1_025BpHwSurfaceFlingerConfigs5debugERKNS0_11hidl_handleERKNS0_8hidl_vecINS0_11hidl_stringEEE"
    },
    {
     "mangled_component_name":"_ZN7android8hardware11configstore4V1_025BpHwSurfaceFlingerConfigs19interfaceDescriptorENSt3__18functionIFvRKNS0_11hidl_stringEEEE"
    },
    {
     "mangled_component_name":"_ZN7android8hardware11configstore4V1_025BpHwSurfaceFlingerConfigs12getHashChainENSt3__18functionIFvRKNS0_8hidl_vecINS0_10hidl_arrayIhLj32EJEEEEEEEE"
    },
    {
     "mangled_component_name":"_ZN7android8hardware11configstore4V1_025BpHwSurfaceFlingerConfigs21setHALInstrumentationEv"
    },
    {
     "mangled_component_name":"_ZN7android8hardware11configstore4V1_025BpHwSurfaceFlingerConfigs11linkToDeathERKNS_2spINS0_20hidl_death_recipientEEEy"
    },
    {
     "mangled_component_name":"_ZN7android8hardware11configstore4V1_025BpHwSurfaceFlingerConfigs4pingEv"
    },
    {
     "mangled_component_name":"_ZN7android8hardware11configstore4V1_025BpHwSurfaceFlingerConfigs12getDebugInfoENSt3__18functionIFvRKNS_4hidl4base4V1_09DebugInfoEEEE"
    },
    {
     "mangled_component_name":"_ZN7android8hardware11configstore4V1_025BpHwSurfaceFlingerConfigs21notifySyspropsChangedEv"
    },
    {
     "mangled_component_name":"_ZN7android8hardware11configstore4V1_025BpHwSurfaceFlingerConfigs13unlinkToDeathERKNS_2spINS0_20hidl_death_recipientEEE"
    },
    {
     "kind":"complete_dtor_pointer",
     "mangled_component_name":"_ZN7android8hardware11configstore4V1_025BpHwSurfaceFlingerConfigsD1Ev"
    },
    {
     "kind":"deleting_dtor_pointer",
     "mangled_component_name":"_ZN7android8hardware11configstore4V1_025BpHwSurfaceFlingerConfigsD0Ev"
    },
    {
     "mangled_component_name":"_ZN7android8hardware11configstore4V1_025BpHwSurfaceFlingerConfigs23vsyncEventPhaseOffsetNsENSt3__18functionIFvRKNS2_13OptionalInt64EEEE"
    },
    {
     "mangled_component_name":"_ZN7android8hardware11configstore4V1_025BpHwSurfaceFlingerConfigs25vsyncSfEventPhaseOffsetNsENSt3__18functionIFvRKNS2_13OptionalInt64EEEE"
    },
    {
     "mangled_component_name":"_ZN7android8hardware11configstore4V1_025BpHwSurfaceFlingerConfigs18useContextPriorityENSt3__18functionIFvRKNS2_12OptionalBoolEEEE"
    },
    {
     "mangled_component_name":"_ZN7android8hardware11configstore4V1_025BpHwSurfaceFlingerConfigs19hasWideColorDisplayENSt3__18functionIFvRKNS2_12OptionalBoolEEEE"
    },
    {
     "mangled_component_name":"_ZN7android8hardware11configstore4V1_025BpHwSurfaceFlingerConfigs13hasHDRDisplayENSt3__18functionIFvRKNS2_12OptionalBoolEEEE"
    },
    {
     "mangled_component_name":"_ZN7android8hardware11configstore4V1_025BpHwSurfaceFlingerConfigs28presentTimeOffsetFromVSyncNsENSt3__18functionIFvRKNS2_13OptionalInt64EEEE"
    },
    {
     "mangled_component_name":"_ZN7android8hardware11configstore4V1_025BpHwSurfaceFlingerConfigs17useHwcForRGBtoYUVENSt3__18functionIFvRKNS2_12OptionalBoolEEEE"
    },
    {
     "mangled_component_name":"_ZN7android8hardware11configstore4V1_025BpHwSurfaceFlingerConfigs21maxVirtualDisplaySizeENSt3__18functionIFvRKNS2_14OptionalUInt64EEEE"
    },
    {
     "mangled_component_name":"_ZN7android8hardware11configstore4V1_025BpHwSurfaceFlingerConfigs16hasSyncFrameworkENSt3__18functionIFvRKNS2_12OptionalBoolEEEE"
    },
    {
     "mangled_component_name":"_ZN7android8hardware11configstore4V1_025BpHwSurfaceFlingerConfigs12useVrFlingerENSt3__18functionIFvRKNS2_12OptionalBoolEEEE"
    },
    {
     "mangled_component_name":"_ZN7android8hardware11configstore4V1_025BpHwSurfaceFlingerConfigs29maxFrameBufferAcquiredBuffersENSt3__18functionIFvRKNS2_13OptionalInt64EEEE"
    },
    {
     "mangled_component_name":"_ZN7android8hardware11configstore4V1_025BpHwSurfaceFlingerConfigs29startGraphicsAllocatorServiceENSt3__18functionIFvRKNS2_12OptionalBoolEEEE"
    },
    {
     "mangled_component_name":"_ZN7android8hardware11BpInterfaceINS0_11configstore4V1_022ISurfaceFlingerConfigsEE10onAsBinderEv"
    },
    {
     "kind":"vbase_offset",
     "component_value":80
    },
    {
     "kind":"offset_to_top",
     "component_value":-4
    },
    {
     "kind":"rtti",
     "mangled_component_name":"_ZTIN7android8hardware11configstore4V1_025BpHwSurfaceFlingerConfigsE"
    },
    {
     "kind":"complete_dtor_pointer",
     "mangled_component_name":"_ZThn4_N7android8hardware11configstore4V1_025BpHwSurfaceFlingerConfigsD1Ev"
    },
    {
     "kind":"deleting_dtor_pointer",
     "mangled_component_name":"_ZThn4_N7android8hardware11configstore4V1_025BpHwSurfaceFlingerConfigsD0Ev"
    },
    {
     "mangled_component_name":"_ZThn4_N7android8hardware11BpInterfaceINS0_11configstore4V1_022ISurfaceFlingerConfigsEE10onAsBinderEv"
    },
    {
     "kind":"vbase_offset",
     "component_value":76
    },
    {
     "kind":"offset_to_top",
     "component_value":-8
    },
    {
     "kind":"rtti",
     "mangled_component_name":"_ZTIN7android8hardware11configstore4V1_025BpHwSurfaceFlingerConfigsE"
    },
    {
     "kind":"complete_dtor_pointer",
     "mangled_component_name":"_ZThn8_N7android8hardware11configstore4V1_025BpHwSurfaceFlingerConfigsD1Ev"
    },
    {
     "kind":"deleting_dtor_pointer",
     "mangled_component_name":"_ZThn8_N7android8hardware11configstore4V1_025BpHwSurfaceFlingerConfigsD0Ev"
    },
    {
     "mangled_component_name":"_ZN7android8hardware11BpHwRefBase10onFirstRefEv"
    },
    {
     "mangled_component_name":"_ZN7android8hardware11BpHwRefBase15onLastStrongRefEPKv"
    },
    {
     "mangled_component_name":"_ZN7android8hardware11BpHwRefBase20onIncStrongAttemptedEjPKv"
    },
    {
     "kind":"offset_to_top",
     "component_value":-24
    },
    {
     "kind":"rtti",
     "mangled_component_name":"_ZTIN7android8hardware11configstore4V1_025BpHwSurfaceFlingerConfigsE"
    },
    {
     "kind":"complete_dtor_pointer",
     "mangled_component_name":"_ZThn24_N7android8hardware11configstore4V1_025BpHwSurfaceFlingerConfigsD1Ev"
    },
    {
     "kind":"deleting_dtor_pointer",
     "mangled_component_name":"_ZThn24_N7android8hardware11configstore4V1_025BpHwSurfaceFlingerConfigsD0Ev"
    },
    {
     "kind":"vcall_offset"
    },
    {
     "kind":"vcall_offset",
     "component_value":-76
    },
    {
     "kind":"vcall_offset",
     "component_value":-76
    },
    {
     "kind":"vcall_offset",
     "component_value":-76
    },
    {
     "kind":"vcall_offset",
     "component_value":-84
    },
    {
     "kind":"offset_to_top",
     "component_value":-84
    },
    {
     "kind":"rtti",
     "mangled_component_name":"_ZTIN7android8hardware11configstore4V1_025BpHwSurfaceFlingerConfigsE"
    },
    {
     "kind":"complete_dtor_pointer",
     "mangled_component_name":"_ZTv0_n12_N7android8hardware11configstore4V1_025BpHwSurfaceFlingerConfigsD1Ev"
    },
    {
     "kind":"deleting_dtor_pointer",
     "mangled_component_name":"_ZTv0_n12_N7android8hardware11configstore4V1_025BpHwSurfaceFlingerConfigsD0Ev"
    },
    {
     "mangled_component_name":"_ZTv0_n16_N7android8hardware11BpHwRefBase10onFirstRefEv"
    },
    {
     "mangled_component_name":"_ZTv0_n20_N7android8hardware11BpHwRefBase15onLastStrongRefEPKv"
    },
    {
     "mangled_component_name":"_ZTv0_n24_N7android8hardware11BpHwRefBase20onIncStrongAttemptedEjPKv"
    },
    {
     "mangled_component_name":"_ZN7android7RefBase13onLastWeakRefEPKv"
    }
   ],
   "unique_id":"_ZTSN7android8hardware11configstore4V1_025BpHwSurfaceFlingerConfigsE"
  },
  {
   "vtable_components":[
    {
     "kind":"vbase_offset",
     "component_value":4
    },
    {
     "kind":"offset_to_top"
    },
    {
     "kind":"rtti",
     "mangled_component_name":"_ZTIN7android8hardware11configstore4V1_022ISurfaceFlingerConfigsE"
    },
    {
     "mangled_component_name":"_ZNK7android8hardware11configstore4V1_022ISurfaceFlingerConfigs8isRemoteEv"
    },
    {
     "mangled_component_name":"_ZN7android8hardware11configstore4V1_022ISurfaceFlingerConfigs14interfaceChainENSt3__18functionIFvRKNS0_8hidl_vecINS0_11hidl_stringEEEEEE"
    },
    {
     "mangled_component_name":"_ZN7android8hardware11configstore4V1_022ISurfaceFlingerConfigs5debugERKNS0_11hidl_handleERKNS0_8hidl_vecINS0_11hidl_stringEEE"
    },
    {
     "mangled_component_name":"_ZN7android8hardware11configstore4V1_022ISurfaceFlingerConfigs19interfaceDescriptorENSt3__18functionIFvRKNS0_11hidl_stringEEEE"
    },
    {
     "mangled_component_name":"_ZN7android8hardware11configstore4V1_022ISurfaceFlingerConfigs12getHashChainENSt3__18functionIFvRKNS0_8hidl_vecINS0_10hidl_arrayIhLj32EJEEEEEEEE"
    },
    {
     "mangled_component_name":"_ZN7android8hardware11configstore4V1_022ISurfaceFlingerConfigs21setHALInstrumentationEv"
    },
    {
     "mangled_component_name":"_ZN7android8hardware11configstore4V1_022ISurfaceFlingerConfigs11linkToDeathERKNS_2spINS0_20hidl_death_recipientEEEy"
    },
    {
     "mangled_component_name":"_ZN7android8hardware11configstore4V1_022ISurfaceFlingerConfigs4pingEv"
    },
    {
     "mangled_component_name":"_ZN7android8hardware11configstore4V1_022ISurfaceFlingerConfigs12getDebugInfoENSt3__18functionIFvRKNS_4hidl4base4V1_09DebugInfoEEEE"
    },
    {
     "mangled_component_name":"_ZN7android8hardware11configstore4V1_022ISurfaceFlingerConfigs21notifySyspropsChangedEv"
    },
    {
     "mangled_component_name":"_ZN7android8hardware11configstore4V1_022ISurfaceFlingerConfigs13unlinkToDeathERKNS_2spINS0_20hidl_death_recipientEEE"
    },
    {
     "kind":"complete_dtor_pointer",
     "mangled_component_name":"_ZN7android8hardware11configstore4V1_022ISurfaceFlingerConfigsD1Ev"
    },
    {
     "kind":"deleting_dtor_pointer",
     "mangled_component_name":"_ZN7android8hardware11configstore4V1_022ISurfaceFlingerConfigsD0Ev"
    },
    {
     "is_pure":true,
     "mangled_component_name":"_ZN7android8hardware11configstore4V1_022ISurfaceFlingerConfigs23vsyncEventPhaseOffsetNsENSt3__18functionIFvRKNS2_13OptionalInt64EEEE"
    },
    {
     "is_pure":true,
     "mangled_component_name":"_ZN7android8hardware11configstore4V1_022ISurfaceFlingerConfigs25vsyncSfEventPhaseOffsetNsENSt3__18functionIFvRKNS2_13OptionalInt64EEEE"
    },
    {
     "is_pure":true,
     "mangled_component_name":"_ZN7android8hardware11configstore4V1_022ISurfaceFlingerConfigs18useContextPriorityENSt3__18functionIFvRKNS2_12OptionalBoolEEEE"
    },
    {
     "is_pure":true,
     "mangled_component_name":"_ZN7android8hardware11configstore4V1_022ISurfaceFlingerConfigs19hasWideColorDisplayENSt3__18functionIFvRKNS2_12OptionalBoolEEEE"
    },
    {
     "is_pure":true,
     "mangled_component_name":"_ZN7android8hardware11configstore4V1_022ISurfaceFlingerConfigs13hasHDRDisplayENSt3__18functionIFvRKNS2_12OptionalBoolEEEE"
    },
    {
     "is_pure":true,
     "mangled_component_name":"_ZN7android8hardware11configstore4V1_022ISurfaceFlingerConfigs28presentTimeOffsetFromVSyncNsENSt3__18functionIFvRKNS2_13OptionalInt64EEEE"
    },
    {
     "is_pure":true,
     "mangled_component_name":"_ZN7android8hardware11configstore4V1_022ISurfaceFlingerConfigs17useHwcForRGBtoYUVENSt3__18functionIFvRKNS2_12OptionalBoolEEEE"
    },
    {
     "is_pure":true,
     "mangled_component_name":"_ZN7android8hardware11configstore4V1_022ISurfaceFlingerConfigs21maxVirtualDisplaySizeENSt3__18functionIFvRKNS2_14OptionalUInt64EEEE"
    },
    {
     "is_pure":true,
     "mangled_component_name":"_ZN7android8hardware11configstore4V1_022ISurfaceFlingerConfigs16hasSyncFrameworkENSt3__18functionIFvRKNS2_12OptionalBoolEEEE"
    },
    {
     "is_pure":true,
     "mangled_component_name":"_ZN7android8hardware11configstore4V1_022ISurfaceFlingerConfigs12useVrFlingerENSt3__18functionIFvRKNS2_12OptionalBoolEEEE"
    },
    {
     "is_pure":true,
     "mangled_component_name":"_ZN7android8hardware11configstore4V1_022ISurfaceFlingerConfigs29maxFrameBufferAcquiredBuffersENSt3__18functionIFvRKNS2_13OptionalInt64EEEE"
    },
    {
     "is_pure":true,
     "mangled_component_name":"_ZN7android8hardware11configstore4V1_022ISurfaceFlingerConfigs29startGraphicsAllocatorServiceENSt3__18functionIFvRKNS2_12OptionalBoolEEEE"
    },
    {
     "kind":"vcall_offset"
    },
    {
     "kind":"vcall_offset"
    },
    {
     "kind":"vcall_offset"
    },
    {
     "kind":"vcall_offset"
    },
    {
     "kind":"vcall_offset",
     "component_value":-4
    },
    {
     "kind":"offset_to_top",
     "component_value":-4
    },
    {
     "kind":"rtti",
     "mangled_component_name":"_ZTIN7android8hardware11configstore4V1_022ISurfaceFlingerConfigsE"
    },
    {
     "kind":"complete_dtor_pointer",
     "mangled_component_name":"_ZTv0_n12_N7android8hardware11configstore4V1_022ISurfaceFlingerConfigsD1Ev"
    },
    {
     "kind":"deleting_dtor_pointer",
     "mangled_component_name":"_ZTv0_n12_N7android8hardware11configstore4V1_022ISurfaceFlingerConfigsD0Ev"
    },
    {
     "mangled_component_name":"_ZN7android7RefBase10onFirstRefEv"
    },
    {
     "mangled_component_name":"_ZN7android7RefBase15onLastStrongRefEPKv"
    },
    {
     "mangled_component_name":"_ZN7android7RefBase20onIncStrongAttemptedEjPKv"
    },
    {
     "mangled_component_name":"_ZN7android7RefBase13onLastWeakRefEPKv"
    }
   ],
   "unique_id":"_ZTSN7android8hardware11configstore4V1_022ISurfaceFlingerConfigsE"
  }
 ],
 "elf_functions":[
  {
   "name":"_ZN7android8hardware11configstore4V1_021writeEmbeddedToParcelERKNS2_14OptionalStringEPNS0_6ParcelEjj"
  },
  {
   "name":"_ZN7android8hardware11configstore4V1_022ISurfaceFlingerConfigs10getServiceERKNSt3__112basic_stringIcNS4_11char_traitsIcEENS4_9allocatorIcEEEEb"
  },
  {
   "name":"_ZN7android8hardware11configstore4V1_022ISurfaceFlingerConfigs11linkToDeathERKNS_2spINS0_20hidl_death_recipientEEEy"
  },
  {
   "name":"_ZN7android8hardware11configstore4V1_022ISurfaceFlingerConfigs12getDebugInfoENSt3__18functionIFvRKNS_4hidl4base4V1_09DebugInfoEEEE"
  },
  {
   "name":"_ZN7android8hardware11configstore4V1_022ISurfaceFlingerConfigs12getHashChainENSt3__18functionIFvRKNS0_8hidl_vecINS0_10hidl_arrayIhLj32EJEEEEEEEE"
  },
  {
   "name":"_ZN7android8hardware11configstore4V1_022ISurfaceFlingerConfigs13tryGetServiceERKNSt3__112basic_stringIcNS4_11char_traitsIcEENS4_9allocatorIcEEEEb"
  },
  {
   "name":"_ZN7android8hardware11configstore4V1_022ISurfaceFlingerConfigs13unlinkToDeathERKNS_2spINS0_20hidl_death_recipientEEE"
  },
  {
   "name":"_ZN7android8hardware11configstore4V1_022ISurfaceFlingerConfigs14interfaceChainENSt3__18functionIFvRKNS0_8hidl_vecINS0_11hidl_stringEEEEEE"
  },
  {
   "name":"_ZN7android8hardware11configstore4V1_022ISurfaceFlingerConfigs17registerAsServiceERKNSt3__112basic_stringIcNS4_11char_traitsIcEENS4_9allocatorIcEEEE"
  },
  {
   "name":"_ZN7android8hardware11configstore4V1_022ISurfaceFlingerConfigs19interfaceDescriptorENSt3__18functionIFvRKNS0_11hidl_stringEEEE"
  },
  {
   "name":"_ZN7android8hardware11configstore4V1_022ISurfaceFlingerConfigs21notifySyspropsChangedEv"
  },
  {
   "name":"_ZN7android8hardware11configstore4V1_022ISurfaceFlingerConfigs21setHALInstrumentationEv"
  },
  {
   "name":"_ZN7android8hardware11configstore4V1_022ISurfaceFlingerConfigs24registerForNotificationsERKNSt3__112basic_stringIcNS4_11char_traitsIcEENS4_9allocatorIcEEEERKNS_2spINS_4hidl7manager4V1_020IServiceNotificationEEE"
  },
  {
   "name":"_ZN7android8hardware11configstore4V1_022ISurfaceFlingerConfigs4pingEv"
  },
  {
   "name":"_ZN7android8hardware11configstore4V1_022ISurfaceFlingerConfigs5debugERKNS0_11hidl_handleERKNS0_8hidl_vecINS0_11hidl_stringEEE"
  },
  {
   "name":"_ZN7android8hardware11configstore4V1_022ISurfaceFlingerConfigs8castFromERKNS_2spINS_4hidl4base4V1_05IBaseEEEb"
  },
  {
   "name":"_ZN7android8hardware11configstore4V1_022ISurfaceFlingerConfigs8castFromERKNS_2spIS3_EEb"
  },
  {
   "name":"_ZN7android8hardware11configstore4V1_022readEmbeddedFromParcelERKNS2_14OptionalStringERKNS0_6ParcelEjj"
  },
  {
   "name":"_ZN7android8hardware11configstore4V1_023BsSurfaceFlingerConfigs13addOnewayTaskENSt3__18functionIFvvEEE"
  },
  {
   "name":"_ZN7android8hardware11configstore4V1_023BsSurfaceFlingerConfigsC1ENS_2spINS2_22ISurfaceFlingerConfigsEEE"
  },
  {
   "name":"_ZN7android8hardware11configstore4V1_023BsSurfaceFlingerConfigsC2ENS_2spINS2_22ISurfaceFlingerConfigsEEE"
  },
  {
   "name":"_ZN7android8hardware11configstore4V1_025BnHwSurfaceFlingerConfigs10onTransactEjRKNS0_6ParcelEPS4_jNSt3__18functionIFvRS4_EEE"
  },
  {
   "name":"_ZN7android8hardware11configstore4V1_025BnHwSurfaceFlingerConfigs12getDebugInfoENSt3__18functionIFvRKNS_4hidl4base4V1_09DebugInfoEEEE"
  },
  {
   "name":"_ZN7android8hardware11configstore4V1_025BnHwSurfaceFlingerConfigs18_hidl_useVrFlingerEPNS_4hidl4base4V1_08BnHwBaseERKNS0_6ParcelEPS9_NSt3__18functionIFvRS9_EEE"
  },
  {
   "name":"_ZN7android8hardware11configstore4V1_025BnHwSurfaceFlingerConfigs19_hidl_hasHDRDisplayEPNS_4hidl4base4V1_08BnHwBaseERKNS0_6ParcelEPS9_NSt3__18functionIFvRS9_EEE"
  },
  {
   "name":"_ZN7android8hardware11configstore4V1_025BnHwSurfaceFlingerConfigs22_hidl_hasSyncFrameworkEPNS_4hidl4base4V1_08BnHwBaseERKNS0_6ParcelEPS9_NSt3__18functionIFvRS9_EEE"
  },
  {
   "name":"_ZN7android8hardware11configstore4V1_025BnHwSurfaceFlingerConfigs23_hidl_useHwcForRGBtoYUVEPNS_4hidl4base4V1_08BnHwBaseERKNS0_6ParcelEPS9_NSt3__18functionIFvRS9_EEE"
  },
  {
   "name":"_ZN7android8hardware11configstore4V1_025BnHwSurfaceFlingerConfigs24_hidl_useContextPriorityEPNS_4hidl4base4V1_08BnHwBaseERKNS0_6ParcelEPS9_NSt3__18functionIFvRS9_EEE"
  },
  {
   "name":"_ZN7android8hardware11configstore4V1_025BnHwSurfaceFlingerConfigs25_hidl_hasWideColorDisplayEPNS_4hidl4base4V1_08BnHwBaseERKNS0_6ParcelEPS9_NSt3__18functionIFvRS9_EEE"
  },
  {
   "name":"_ZN7android8hardware11configstore4V1_025BnHwSurfaceFlingerConfigs27_hidl_maxVirtualDisplaySizeEPNS_4hidl4base4V1_08BnHwBaseERKNS0_6ParcelEPS9_NSt3__18functionIFvRS9_EEE"
  },
  {
   "name":"_ZN7android8hardware11configstore4V1_025BnHwSurfaceFlingerConfigs29_hidl_vsyncEventPhaseOffsetNsEPNS_4hidl4base4V1_08BnHwBaseERKNS0_6ParcelEPS9_NSt3__18functionIFvRS9_EEE"
  },
  {
   "name":"_ZN7android8hardware11configstore4V1_025BnHwSurfaceFlingerConfigs31_hidl_vsyncSfEventPhaseOffsetNsEPNS_4hidl4base4V1_08BnHwBaseERKNS0_6ParcelEPS9_NSt3__18functionIFvRS9_EEE"
  },
  {
   "name":"_ZN7android8hardware11configstore4V1_025BnHwSurfaceFlingerConfigs34_hidl_presentTimeOffsetFromVSyncNsEPNS_4hidl4base4V1_08BnHwBaseERKNS0_6ParcelEPS9_NSt3__18functionIFvRS9_EEE"
  },
  {
   "name":"_ZN7android8hardware11configstore4V1_025BnHwSurfaceFlingerConfigs35_hidl_maxFrameBufferAcquiredBuffersEPNS_4hidl4base4V1_08BnHwBaseERKNS0_6ParcelEPS9_NSt3__18functionIFvRS9_EEE"
  },
  {
   "name":"_ZN7android8hardware11configstore4V1_025BnHwSurfaceFlingerConfigs35_hidl_startGraphicsAllocatorServiceEPNS_4hidl4base4V1_08BnHwBaseERKNS0_6ParcelEPS9_NSt3__18functionIFvRS9_EEE"
  },
  {
   "name":"_ZN7android8hardware11configstore4V1_025BnHwSurfaceFlingerConfigs4pingEv"
  },
  {
   "name":"_ZN7android8hardware11configstore4V1_025BnHwSurfaceFlingerConfigsC1ERKNS_2spINS2_22ISurfaceFlingerConfigsEEE"
  },
  {
   "name":"_ZN7android8hardware11configstore4V1_025BnHwSurfaceFlingerConfigsC2ERKNS_2spINS2_22ISurfaceFlingerConfigsEEE"
  },
  {
   "name":"_ZN7android8hardware11configstore4V1_025BnHwSurfaceFlingerConfigsD0Ev"
  },
  {
   "name":"_ZN7android8hardware11configstore4V1_025BnHwSurfaceFlingerConfigsD1Ev"
  },
  {
   "name":"_ZN7android8hardware11configstore4V1_025BnHwSurfaceFlingerConfigsD2Ev"
  },
  {
   "name":"_ZN7android8hardware11configstore4V1_025BpHwSurfaceFlingerConfigs11linkToDeathERKNS_2spINS0_20hidl_death_recipientEEEy"
  },
  {
   "name":"_ZN7android8hardware11configstore4V1_025BpHwSurfaceFlingerConfigs12getDebugInfoENSt3__18functionIFvRKNS_4hidl4base4V1_09DebugInfoEEEE"
  },
  {
   "name":"_ZN7android8hardware11configstore4V1_025BpHwSurfaceFlingerConfigs12getHashChainENSt3__18functionIFvRKNS0_8hidl_vecINS0_10hidl_arrayIhLj32EJEEEEEEEE"
  },
  {
   "name":"_ZN7android8hardware11configstore4V1_025BpHwSurfaceFlingerConfigs12useVrFlingerENSt3__18functionIFvRKNS2_12OptionalBoolEEEE"
  },
  {
   "name":"_ZN7android8hardware11configstore4V1_025BpHwSurfaceFlingerConfigs13hasHDRDisplayENSt3__18functionIFvRKNS2_12OptionalBoolEEEE"
  },
  {
   "name":"_ZN7android8hardware11configstore4V1_025BpHwSurfaceFlingerConfigs13unlinkToDeathERKNS_2spINS0_20hidl_death_recipientEEE"
  },
  {
   "name":"_ZN7android8hardware11configstore4V1_025BpHwSurfaceFlingerConfigs14interfaceChainENSt3__18functionIFvRKNS0_8hidl_vecINS0_11hidl_stringEEEEEE"
  },
  {
   "name":"_ZN7android8hardware11configstore4V1_025BpHwSurfaceFlingerConfigs16hasSyncFrameworkENSt3__18functionIFvRKNS2_12OptionalBoolEEEE"
  },
  {
   "name":"_ZN7android8hardware11configstore4V1_025BpHwSurfaceFlingerConfigs17useHwcForRGBtoYUVENSt3__18functionIFvRKNS2_12OptionalBoolEEEE"
  },
  {
   "name":"_ZN7android8hardware11configstore4V1_025BpHwSurfaceFlingerConfigs18_hidl_useVrFlingerEPNS0_10IInterfaceEPNS0_7details16HidlInstrumentorENSt3__18functionIFvRKNS2_12OptionalBoolEEEE"
  },
  {
   "name":"_ZN7android8hardware11configstore4V1_025BpHwSurfaceFlingerConfigs18useContextPriorityENSt3__18functionIFvRKNS2_12OptionalBoolEEEE"
  },
  {
   "name":"_ZN7android8hardware11configstore4V1_025BpHwSurfaceFlingerConfigs19_hidl_hasHDRDisplayEPNS0_10IInterfaceEPNS0_7details16HidlInstrumentorENSt3__18functionIFvRKNS2_12OptionalBoolEEEE"
  },
  {
   "name":"_ZN7android8hardware11configstore4V1_025BpHwSurfaceFlingerConfigs19hasWideColorDisplayENSt3__18functionIFvRKNS2_12OptionalBoolEEEE"
  },
  {
   "name":"_ZN7android8hardware11configstore4V1_025BpHwSurfaceFlingerConfigs19interfaceDescriptorENSt3__18functionIFvRKNS0_11hidl_stringEEEE"
  },
  {
   "name":"_ZN7android8hardware11configstore4V1_025BpHwSurfaceFlingerConfigs21maxVirtualDisplaySizeENSt3__18functionIFvRKNS2_14OptionalUInt64EEEE"
  },
  {
   "name":"_ZN7android8hardware11configstore4V1_025BpHwSurfaceFlingerConfigs21notifySyspropsChangedEv"
  },
  {
   "name":"_ZN7android8hardware11configstore4V1_025BpHwSurfaceFlingerConfigs21setHALInstrumentationEv"
  },
  {
   "name":"_ZN7android8hardware11configstore4V1_025BpHwSurfaceFlingerConfigs22_hidl_hasSyncFrameworkEPNS0_10IInterfaceEPNS0_7details16HidlInstrumentorENSt3__18functionIFvRKNS2_12OptionalBoolEEEE"
  },
  {
   "name":"_ZN7android8hardware11configstore4V1_025BpHwSurfaceFlingerConfigs23_hidl_useHwcForRGBtoYUVEPNS0_10IInterfaceEPNS0_7details16HidlInstrumentorENSt3__18functionIFvRKNS2_12OptionalBoolEEEE"
  },
  {
   "name":"_ZN7android8hardware11configstore4V1_025BpHwSurfaceFlingerConfigs23vsyncEventPhaseOffsetNsENSt3__18functionIFvRKNS2_13OptionalInt64EEEE"
  },
  {
   "name":"_ZN7android8hardware11configstore4V1_025BpHwSurfaceFlingerConfigs24_hidl_useContextPriorityEPNS0_10IInterfaceEPNS0_7details16HidlInstrumentorENSt3__18functionIFvRKNS2_12OptionalBoolEEEE"
  },
  {
   "name":"_ZN7android8hardware11configstore4V1_025BpHwSurfaceFlingerConfigs25_hidl_hasWideColorDisplayEPNS0_10IInterfaceEPNS0_7details16HidlInstrumentorENSt3__18functionIFvRKNS2_12OptionalBoolEEEE"
  },
  {
   "name":"_ZN7android8hardware11configstore4V1_025BpHwSurfaceFlingerConfigs25vsyncSfEventPhaseOffsetNsENSt3__18functionIFvRKNS2_13OptionalInt64EEEE"
  },
  {
   "name":"_ZN7android8hardware11configstore4V1_025BpHwSurfaceFlingerConfigs27_hidl_maxVirtualDisplaySizeEPNS0_10IInterfaceEPNS0_7details16HidlInstrumentorENSt3__18functionIFvRKNS2_14OptionalUInt64EEEE"
  },
  {
   "name":"_ZN7android8hardware11configstore4V1_025BpHwSurfaceFlingerConfigs28presentTimeOffsetFromVSyncNsENSt3__18functionIFvRKNS2_13OptionalInt64EEEE"
  },
  {
   "name":"_ZN7android8hardware11configstore4V1_025BpHwSurfaceFlingerConfigs29_hidl_vsyncEventPhaseOffsetNsEPNS0_10IInterfaceEPNS0_7details16HidlInstrumentorENSt3__18functionIFvRKNS2_13OptionalInt64EEEE"
  },
  {
   "name":"_ZN7android8hardware11configstore4V1_025BpHwSurfaceFlingerConfigs29maxFrameBufferAcquiredBuffersENSt3__18functionIFvRKNS2_13OptionalInt64EEEE"
  },
  {
   "name":"_ZN7android8hardware11configstore4V1_025BpHwSurfaceFlingerConfigs29startGraphicsAllocatorServiceENSt3__18functionIFvRKNS2_12OptionalBoolEEEE"
  },
  {
   "name":"_ZN7android8hardware11configstore4V1_025BpHwSurfaceFlingerConfigs31_hidl_vsyncSfEventPhaseOffsetNsEPNS0_10IInterfaceEPNS0_7details16HidlInstrumentorENSt3__18functionIFvRKNS2_13OptionalInt64EEEE"
  },
  {
   "name":"_ZN7android8hardware11configstore4V1_025BpHwSurfaceFlingerConfigs34_hidl_presentTimeOffsetFromVSyncNsEPNS0_10IInterfaceEPNS0_7details16HidlInstrumentorENSt3__18functionIFvRKNS2_13OptionalInt64EEEE"
  },
  {
   "name":"_ZN7android8hardware11configstore4V1_025BpHwSurfaceFlingerConfigs35_hidl_maxFrameBufferAcquiredBuffersEPNS0_10IInterfaceEPNS0_7details16HidlInstrumentorENSt3__18functionIFvRKNS2_13OptionalInt64EEEE"
  },
  {
   "name":"_ZN7android8hardware11configstore4V1_025BpHwSurfaceFlingerConfigs35_hidl_startGraphicsAllocatorServiceEPNS0_10IInterfaceEPNS0_7details16HidlInstrumentorENSt3__18functionIFvRKNS2_12OptionalBoolEEEE"
  },
  {
   "name":"_ZN7android8hardware11configstore4V1_025BpHwSurfaceFlingerConfigs4pingEv"
  },
  {
   "name":"_ZN7android8hardware11configstore4V1_025BpHwSurfaceFlingerConfigs5debugERKNS0_11hidl_handleERKNS0_8hidl_vecINS0_11hidl_stringEEE"
  },
  {
   "name":"_ZN7android8hardware11configstore4V1_025BpHwSurfaceFlingerConfigsC1ERKNS_2spINS0_7IBinderEEE"
  },
  {
   "name":"_ZN7android8hardware11configstore4V1_025BpHwSurfaceFlingerConfigsC2ERKNS_2spINS0_7IBinderEEE"
  },
  {
   "binding":"weak",
   "name":"_ZN7android8hardware7details13castInterfaceINS0_11configstore4V1_022ISurfaceFlingerConfigsENS_4hidl4base4V1_05IBaseENS4_25BpHwSurfaceFlingerConfigsEEENS0_6ReturnINS_2spIT_EEEENSC_IT0_EEPKcb"
  },
  {
   "binding":"weak",
   "name":"_ZN7android8hardware7details18getServiceInternalINS0_11configstore4V1_025BpHwSurfaceFlingerConfigsENS4_22ISurfaceFlingerConfigsEvvEENS_2spIT0_EERKNSt3__112basic_stringIcNSA_11char_traitsIcEENSA_9allocatorIcEEEEbb"
  },
  {
   "binding":"weak",
   "name":"_ZN7android8hardware8toBinderINS_4hidl4base4V1_05IBaseEvEENS_2spINS0_7IBinderEEENS6_IT_EE"
  },
  {
   "name":"_ZThn20_N7android8hardware11configstore4V1_025BnHwSurfaceFlingerConfigsD0Ev"
  },
  {
   "name":"_ZThn20_N7android8hardware11configstore4V1_025BnHwSurfaceFlingerConfigsD1Ev"
  },
  {
   "name":"_ZTv0_n12_N7android8hardware11configstore4V1_025BnHwSurfaceFlingerConfigsD0Ev"
  },
  {
   "name":"_ZTv0_n12_N7android8hardware11configstore4V1_025BnHwSurfaceFlingerConfigsD1Ev"
  }
 ],
 "elf_objects":[
  {
   "name":"_ZN7android8hardware11configstore4V1_022ISurfaceFlingerConfigs10descriptorE"
  },
  {
   "name":"_ZTTN7android8hardware11configstore4V1_022ISurfaceFlingerConfigsE"
  },
  {
   "name":"_ZTTN7android8hardware11configstore4V1_025BnHwSurfaceFlingerConfigsE"
  },
  {
   "name":"_ZTTN7android8hardware11configstore4V1_025BpHwSurfaceFlingerConfigsE"
  },
  {
   "name":"_ZTVN7android8hardware11configstore4V1_022ISurfaceFlingerConfigsE"
  },
  {
   "binding":"weak",
   "name":"_ZTVN7android8hardware11configstore4V1_023BsSurfaceFlingerConfigsE"
  },
  {
   "name":"_ZTVN7android8hardware11configstore4V1_025BnHwSurfaceFlingerConfigsE"
  },
  {
   "name":"_ZTVN7android8hardware11configstore4V1_025BpHwSurfaceFlingerConfigsE"
  }
 ]
}