{
 "record_types":[
  {
   "vtable_components":[
    {
     "kind":"vbase_offset",
     "component_value":4
    },
    {
     "kind":"offset_to_top"
    },
    {
     "kind":"rtti",
     "mangled_component_name":"_ZTIN7android8hardware14confirmationui4V1_015IConfirmationUIE"
    },
    {
     "mangled_component_name":"_ZNK7android8hardware14confirmationui4V1_015IConfirmationUI8isRemoteEv"
    },
    {
     "mangled_component_name":"_ZN7android8hardware14confirmationui4V1_015IConfirmationUI14interfaceChainENSt3__18functionIFvRKNS0_8hidl_vecINS0_11hidl_stringEEEEEE"
    },
    {
     "mangled_component_name":"_ZN7android8hardware14confirmationui4V1_015IConfirmationUI5debugERKNS0_11hidl_handleERKNS0_8hidl_vecINS0_11hidl_stringEEE"
    },
    {
     "mangled_component_name":"_ZN7android8hardware14confirmationui4V1_015IConfirmationUI19interfaceDescriptorENSt3__18functionIFvRKNS0_11hidl_stringEEEE"
    },
    {
     "mangled_component_name":"_ZN7android8hardware14confirmationui4V1_015IConfirmationUI12getHashChainENSt3__18functionIFvRKNS0_8hidl_vecINS0_10hidl_arrayIhLj32EJEEEEEEEE"
    },
    {
     "mangled_component_name":"_ZN7android8hardware14confirmationui4V1_015IConfirmationUI21setHALInstrumentationEv"
    },
    {
     "mangled_component_name":"_ZN7android8hardware14confirmationui4V1_015IConfirmationUI11linkToDeathERKNS_2spINS0_20hidl_death_recipientEEEy"
    },
    {
     "mangled_component_name":"_ZN7android8hardware14confirmationui4V1_015IConfirmationUI4pingEv"
    },
    {
     "mangled_component_name":"_ZN7android8hardware14confirmationui4V1_015IConfirmationUI12getDebugInfoENSt3__18functionIFvRKNS_4hidl4base4V1_09DebugInfoEEEE"
    },
    {
     "mangled_component_name":"_ZN7android8hardware14confirmationui4V1_015IConfirmationUI21notifySyspropsChangedEv"
    },
    {
     "mangled_component_name":"_ZN7android8hardware14confirmationui4V1_015IConfirmationUI13unlinkToDeathERKNS_2spINS0_20hidl_death_recipientEEE"
    },
    {
     "kind":"complete_dtor_pointer",
     "mangled_component_name":"_ZN7android8hardware14confirmationui4V1_015IConfirmationUID1Ev"
    },
    {
     "kind":"deleting_dtor_pointer",
     "mangled_component_name":"_ZN7android8hardware14confirmationui4V1_015IConfirmationUID0Ev"
    },
    {
     "is_pure":true,
     "mangled_component_name":"_ZN7android8hardware14confirmationui4V1_015IConfirmationUI22promptUserConfirmationERKNS_2spINS2_27IConfirmationResultCallbackEEERKNS0_11hidl_stringERKNS0_8hidl_vecIhEESB_RKNSC_INS2_8UIOptionEEE"
    },
    {
     "is_pure":true,
     "mangled_component_name":"_ZN7android8hardware14confirmationui4V1_015IConfirmationUI23deliverSecureInputEventERKNS0_9keymaster4V4_017HardwareAuthTokenE"
    },
    {
     "is_pure":true,
     "mangled_component_name":"_ZN7android8hardware14confirmationui4V1_015IConfirmationUI5abortEv"
    },
    {
     "kind":"vcall_offset"
    },
    {
     "kind":"vcall_offset"
    },
    {
     "kind":"vcall_offset"
    },
    {
     "kind":"vcall_offset"
    },
    {
     "kind":"vcall_offset",
     "component_value":-4
    },
    {
     "kind":"offset_to_top",
     "component_value":-4
    },
    {
     "kind":"rtti",
     "mangled_component_name":"_ZTIN7android8hardware14confirmationui4V1_015IConfirmationUIE"
    },
    {
     "kind":"complete_dtor_pointer",
     "mangled_component_name":"_ZTv0_n12_N7android8hardware14confirmationui4V1_015IConfirmationUID1Ev"
    },
    {
     "kind":"deleting_dtor_pointer",
     "mangled_component_name":"_ZTv0_n12_N7android8hardware14confirmationui4V1_015IConfirmationUID0Ev"
    },
    {
     "mangled_component_name":"_ZN7android7RefBase10onFirstRefEv"
    },
    {
     "mangled_component_name":"_ZN7android7RefBase15onLastStrongRefEPKv"
    },
    {
     "mangled_component_name":"_ZN7android7RefBase20onIncStrongAttemptedEjPKv"
    },
    {
     "mangled_component_name":"_ZN7android7RefBase13onLastWeakRefEPKv"
    }
   ],
   "unique_id":"_ZTSN7android8hardware14confirmationui4V1_015IConfirmationUIE"
  },
  {
   "vtable_components":[
    {
     "kind":"vbase_offset",
     "component_value":84
    },
    {
     "kind":"offset_to_top"
    },
    {
     "kind":"rtti",
     "mangled_component_name":"_ZTIN7android8hardware14confirmationui4V1_018BpHwConfirmationUIE"
    },
    {
     "mangled_component_name":"_ZNK7android8hardware14confirmationui4V1_018BpHwConfirmationUI8isRemoteEv"
    },
    {
     "mangled_component_name":"_ZN7android8hardware14confirmationui4V1_018BpHwConfirmationUI14interfaceChainENSt3__18functionIFvRKNS0_8hidl_vecINS0_11hidl_stringEEEEEE"
    },
    {
     "mangled_component_name":"_ZN7android8hardware14confirmationui4V1_018BpHwConfirmationUI5debugERKNS0_11hidl_handleERKNS0_8hidl_vecINS0_11hidl_stringEEE"
    },
    {
     "mangled_component_name":"_ZN7android8hardware14confirmationui4V1_018BpHwConfirmationUI19interfaceDescriptorENSt3__18functionIFvRKNS0_11hidl_stringEEEE"
    },
    {
     "mangled_component_name":"_ZN7android8hardware14confirmationui4V1_018BpHwConfirmationUI12getHashChainENSt3__18functionIFvRKNS0_8hidl_vecINS0_10hidl_arrayIhLj32EJEEEEEEEE"
    },
    {
     "mangled_component_name":"_ZN7android8hardware14confirmationui4V1_018BpHwConfirmationUI21setHALInstrumentationEv"
    },
    {
     "mangled_component_name":"_ZN7android8hardware14confirmationui4V1_018BpHwConfirmationUI11linkToDeathERKNS_2spINS0_20hidl_death_recipientEEEy"
    },
    {
     "mangled_component_name":"_ZN7android8hardware14confirmationui4V1_018BpHwConfirmationUI4pingEv"
    },
    {
     "mangled_component_name":"_ZN7android8hardware14confirmationui4V1_018BpHwConfirmationUI12getDebugInfoENSt3__18functionIFvRKNS_4hidl4base4V1_09DebugInfoEEEE"
    },
    {
     "mangled_component_name":"_ZN7android8hardware14confirmationui4V1_018BpHwConfirmationUI21notifySyspropsChangedEv"
    },
    {
     "mangled_component_name":"_ZN7android8hardware14confirmationui4V1_018BpHwConfirmationUI13unlinkToDeathERKNS_2spINS0_20hidl_death_recipientEEE"
    },
    {
     "kind":"complete_dtor_pointer",
     "mangled_component_name":"_ZN7android8hardware14confirmationui4V1_018BpHwConfirmationUID1Ev"
    },
    {
     "kind":"deleting_dtor_pointer",
     "mangled_component_name":"_ZN7android8hardware14confirmationui4V1_018BpHwConfirmationUID0Ev"
    },
    {
     "mangled_component_name":"_ZN7android8hardware14confirmationui4V1_018BpHwConfirmationUI22promptUserConfirmationERKNS_2spINS2_27IConfirmationResultCallbackEEERKNS0_11hidl_stringERKNS0_8hidl_vecIhEESB_RKNSC_INS2_8UIOptionEEE"
    },
    {
     "mangled_component_name":"_ZN7android8hardware14confirmationui4V1_018BpHwConfirmationUI23deliverSecureInputEventERKNS0_9keymaster4V4_017HardwareAuthTokenE"
    },
    {
     "mangled_component_name":"_ZN7android8hardware14confirmationui4V1_018BpHwConfirmationUI5abortEv"
    },
    {
     "mangled_component_name":"_ZN7android8hardware11BpInterfaceINS0_14confirmationui4V1_015IConfirmationUIEE10onAsBinderEv"
    },
    {
     "kind":"vbase_offset",
     "component_value":80
    },
    {
     "kind":"offset_to_top",
     "component_value":-4
    },
    {
     "kind":"rtti",
     "mangled_component_name":"_ZTIN7android8hardware14confirmationui4V1_018BpHwConfirmationUIE"
    },
    {
     "kind":"complete_dtor_pointer",
     "mangled_component_name":"_ZThn4_N7android8hardware14confirmationui4V1_018BpHwConfirmationUID1Ev"
    },
    {
     "kind":"deleting_dtor_pointer",
     "mangled_component_name":"_ZThn4_N7android8hardware14confirmationui4V1_018BpHwConfirmationUID0Ev"
    },
    {
     "mangled_component_name":"_ZThn4_N7android8hardware11BpInterfaceINS0_14confirmationui4V1_015IConfirmationUIEE10onAsBinderEv"
    },
    {
     "kind":"vbase_offset",
     "component_value":76
    },
    {
     "kind":"offset_to_top",
     "component_value":-8
    },
    {
     "kind":"rtti",
     "mangled_component_name":"_ZTIN7android8hardware14confirmationui4V1_018BpHwConfirmationUIE"
    },
    {
     "kind":"complete_dtor_pointer",
     "mangled_component_name":"_ZThn8_N7android8hardware14confirmationui4V1_018BpHwConfirmationUID1Ev"
    },
    {
     "kind":"deleting_dtor_pointer",
     "mangled_component_name":"_ZThn8_N7android8hardware14confirmationui4V1_018BpHwConfirmationUID0Ev"
    },
    {
     "mangled_component_name":"_ZN7android8hardware11BpHwRefBase10onFirstRefEv"
    },
    {
     "mangled_component_name":"_ZN7android8hardware11BpHwRefBase15onLastStrongRefEPKv"
    },
    {
     "mangled_component_name":"_ZN7android8hardware11BpHwRefBase20onIncStrongAttemptedEjPKv"
    },
    {
     "kind":"offset_to_top",
     "component_value":-24
    },
    {
     "kind":"rtti",
     "mangled_component_name":"_ZTIN7android8hardware14confirmationui4V1_018BpHwConfirmationUIE"
    },
    {
     "kind":"complete_dtor_pointer",
     "mangled_component_name":"_ZThn24_N7android8hardware14confirmationui4V1_018BpHwConfirmationUID1Ev"
    },
    {
     "kind":"deleting_dtor_pointer",
     "mangled_component_name":"_ZThn24_N7android8hardware14confirmationui4V1_018BpHwConfirmationUID0Ev"
    },
    {
     "kind":"vcall_offset"
    },
    {
     "kind":"vcall_offset",
     "component_value":-76
    },
    {
     "kind":"vcall_offset",
     "component_value":-76
    },
    {
     "kind":"vcall_offset",
     "component_value":-76
    },
    {
     "kind":"vcall_offset",
     "component_value":-84
    },
    {
     "kind":"offset_to_top",
     "component_value":-84
    },
    {
     "kind":"rtti",
     "mangled_component_name":"_ZTIN7android8hardware14confirmationui4V1_018BpHwConfirmationUIE"
    },
    {
     "kind":"complete_dtor_pointer",
     "mangled_component_name":"_ZTv0_n12_N7android8hardware14confirmationui4V1_018BpHwConfirmationUID1Ev"
    },
    {
     "kind":"deleting_dtor_pointer",
     "mangled_component_name":"_ZTv0_n12_N7android8hardware14confirmationui4V1_018BpHwConfirmationUID0Ev"
    },
    {
     "mangled_component_name":"_ZTv0_n16_N7android8hardware11BpHwRefBase10onFirstRefEv"
    },
    {
     "mangled_component_name":"_ZTv0_n20_N7android8hardware11BpHwRefBase15onLastStrongRefEPKv"
    },
    {
     "mangled_component_name":"_ZTv0_n24_N7android8hardware11BpHwRefBase20onIncStrongAttemptedEjPKv"
    },
    {
     "mangled_component_name":"_ZN7android7RefBase13onLastWeakRefEPKv"
    }
   ],
   "unique_id":"_ZTSN7android8hardware14confirmationui4V1_018BpHwConfirmationUIE"
  },
  {
   "vtable_components":[
    {
     "kind":"vbase_offset",
     "component_value":4
    },
    {
     "kind":"offset_to_top"
    },
    {
     "kind":"rtti",
     "mangled_component_name":"_ZTIN7android8hardware14confirmationui4V1_027IConfirmationResultCallbackE"
    },
    {
     "mangled_component_name":"_ZNK7android8hardware14confirmationui4V1_027IConfirmationResultCallback8isRemoteEv"
    },
    {
     "mangled_component_name":"_ZN7android8hardware14confirmationui4V1_027IConfirmationResultCallback14interfaceChainENSt3__18functionIFvRKNS0_8hidl_vecINS0_11hidl_stringEEEEEE"
    },
    {
     "mangled_component_name":"_ZN7android8hardware14confirmationui4V1_027IConfirmationResultCallback5debugERKNS0_11hidl_handleERKNS0_8hidl_vecINS0_11hidl_stringEEE"
    },
    {
     "mangled_component_name":"_ZN7android8hardware14confirmationui4V1_027IConfirmationResultCallback19interfaceDescriptorENSt3__18functionIFvRKNS0_11hidl_stringEEEE"
    },
    {
     "mangled_component_name":"_ZN7android8hardware14confirmationui4V1_027IConfirmationResultCallback12getHashChainENSt3__18functionIFvRKNS0_8hidl_vecINS0_10hidl_arrayIhLj32EJEEEEEEEE"
    },
    {
     "mangled_component_name":"_ZN7android8hardware14confirmationui4V1_027IConfirmationResultCallback21setHALInstrumentationEv"
    },
    {
     "mangled_component_name":"_ZN7android8hardware14confirmationui4V1_027IConfirmationResultCallback11linkToDeathERKNS_2spINS0_20hidl_death_recipientEEEy"
    },
    {
     "mangled_component_name":"_ZN7android8hardware14confirmationui4V1_027IConfirmationResultCallback4pingEv"
    },
    {
     "mangled_component_name":"_ZN7android8hardware14confirmationui4V1_027IConfirmationResultCallback12getDebugInfoENSt3__18functionIFvRKNS_4hidl4base4V1_09DebugInfoEEEE"
    },
    {
     "mangled_component_name":"_ZN7android8hardware14confirmationui4V1_027IConfirmationResultCallback21notifySyspropsChangedEv"
    },
    {
     "mangled_component_name":"_ZN7android8hardware14confirmationui4V1_027IConfirmationResultCallback13unlinkToDeathERKNS_2spINS0_20hidl_death_recipientEEE"
    },
    {
     "kind":"complete_dtor_pointer",
     "mangled_component_name":"_ZN7android8hardware14confirmationui4V1_027IConfirmationResultCallbackD1Ev"
    },
    {
     "kind":"deleting_dtor_pointer",
     "mangled_component_name":"_ZN7android8hardware14confirmationui4V1_027IConfirmationResultCallbackD0Ev"
    },
    {
     "is_pure":true,
     "mangled_component_name":"_ZN7android8hardware14confirmationui4V1_027IConfirmationResultCallback6resultENS2_12ResponseCodeERKNS0_8hidl_vecIhEES8_"
    },
    {
     "kind":"vcall_offset"
    },
    {
     "kind":"vcall_offset"
    },
    {
     "kind":"vcall_offset"
    },
    {
     "kind":"vcall_offset"
    },
    {
     "kind":"vcall_offset",
     "component_value":-4
    },
    {
     "kind":"offset_to_top",
     "component_value":-4
    },
    {
     "kind":"rtti",
     "mangled_component_name":"_ZTIN7android8hardware14confirmationui4V1_027IConfirmationResultCallbackE"
    },
    {
     "kind":"complete_dtor_pointer",
     "mangled_component_name":"_ZTv0_n12_N7android8hardware14confirmationui4V1_027IConfirmationResultCallbackD1Ev"
    },
    {
     "kind":"deleting_dtor_pointer",
     "mangled_component_name":"_ZTv0_n12_N7android8hardware14confirmationui4V1_027IConfirmationResultCallbackD0Ev"
    },
    {
     "mangled_component_name":"_ZN7android7RefBase10onFirstRefEv"
    },
    {
     "mangled_component_name":"_ZN7android7RefBase15onLastStrongRefEPKv"
    },
    {
     "mangled_component_name":"_ZN7android7RefBase20onIncStrongAttemptedEjPKv"
    },
    {
     "mangled_component_name":"_ZN7android7RefBase13onLastWeakRefEPKv"
    }
   ],
   "unique_id":"_ZTSN7android8hardware14confirmationui4V1_027IConfirmationResultCallbackE"
  },
  {
   "vtable_components":[
    {
     "kind":"vbase_offset",
     "component_value":72
    },
    {
     "kind":"offset_to_top"
    },
    {
     "kind":"rtti",
     "mangled_component_name":"_ZTIN7android8hardware14confirmationui4V1_030BnHwConfirmationResultCallbackE"
    },
    {
     "mangled_component_name":"_ZN7android8hardware9BHwBinder8transactEjRKNS0_6ParcelEPS2_jNSt3__18functionIFvRS2_EEE"
    },
    {
     "mangled_component_name":"_ZN7android8hardware9BHwBinder11linkToDeathERKNS_2spINS0_7IBinder14DeathRecipientEEEPvj"
    },
    {
     "mangled_component_name":"_ZN7android8hardware9BHwBinder13unlinkToDeathERKNS_2wpINS0_7IBinder14DeathRecipientEEEPvjPS5_"
    },
    {
     "mangled_component_name":"_ZNK7android8hardware7IBinder13checkSubclassEPKv"
    },
    {
     "mangled_component_name":"_ZN7android8hardware9BHwBinder12attachObjectEPKvPvS4_PFvS3_S4_S4_E"
    },
    {
     "mangled_component_name":"_ZNK7android8hardware9BHwBinder10findObjectEPKv"
    },
    {
     "mangled_component_name":"_ZN7android8hardware9BHwBinder12detachObjectEPKv"
    },
    {
     "mangled_component_name":"_ZN7android8hardware9BHwBinder11localBinderEv"
    },
    {
     "mangled_component_name":"_ZN7android8hardware7IBinder12remoteBinderEv"
    },
    {
     "kind":"complete_dtor_pointer",
     "mangled_component_name":"_ZN7android8hardware14confirmationui4V1_030BnHwConfirmationResultCallbackD1Ev"
    },
    {
     "kind":"deleting_dtor_pointer",
     "mangled_component_name":"_ZN7android8hardware14confirmationui4V1_030BnHwConfirmationResultCallbackD0Ev"
    },
    {
     "mangled_component_name":"_ZN7android8hardware14confirmationui4V1_030BnHwConfirmationResultCallback10onTransactEjRKNS0_6ParcelEPS4_jNSt3__18functionIFvRS4_EEE"
    },
    {
     "kind":"offset_to_top",
     "component_value":-20
    },
    {
     "kind":"rtti",
     "mangled_component_name":"_ZTIN7android8hardware14confirmationui4V1_030BnHwConfirmationResultCallbackE"
    },
    {
     "kind":"complete_dtor_pointer",
     "mangled_component_name":"_ZThn20_N7android8hardware14confirmationui4V1_030BnHwConfirmationResultCallbackD1Ev"
    },
    {
     "kind":"deleting_dtor_pointer",
     "mangled_component_name":"_ZThn20_N7android8hardware14confirmationui4V1_030BnHwConfirmationResultCallbackD0Ev"
    },
    {
     "kind":"vcall_offset"
    },
    {
     "kind":"vcall_offset"
    },
    {
     "kind":"vcall_offset"
    },
    {
     "kind":"vcall_offset"
    },
    {
     "kind":"vcall_offset",
     "component_value":-72
    },
    {
     "kind":"offset_to_top",
     "component_value":-72
    },
    {
     "kind":"rtti",
     "mangled_component_name":"_ZTIN7android8hardware14confirmationui4V1_030BnHwConfirmationResultCallbackE"
    },
    {
     "kind":"complete_dtor_pointer",
     "mangled_component_name":"_ZTv0_n12_N7android8hardware14confirmationui4V1_030BnHwConfirmationResultCallbackD1Ev"
    },
    {
     "kind":"deleting_dtor_pointer",
     "mangled_component_name":"_ZTv0_n12_N7android8hardware14confirmationui4V1_030BnHwConfirmationResultCallbackD0Ev"
    },
    {
     "mangled_component_name":"_ZN7android7RefBase10onFirstRefEv"
    },
    {
     "mangled_component_name":"_ZN7android7RefBase15onLastStrongRefEPKv"
    },
    {
     "mangled_component_name":"_ZN7android7RefBase20onIncStrongAttemptedEjPKv"
    },
    {
     "mangled_component_name":"_ZN7android7RefBase13onLastWeakRefEPKv"
    }
   ],
   "unique_id":"_ZTSN7android8hardware14confirmationui4V1_030BnHwConfirmationResultCallbackE"
  },
  {
   "vtable_components":[
    {
     "kind":"vbase_offset",
     "component_value":84
    },
    {
     "kind":"offset_to_top"
    },
    {
     "kind":"rtti",
     "mangled_component_name":"_ZTIN7android8hardware14confirmationui4V1_030BpHwConfirmationResultCallbackE"
    },
    {
     "mangled_component_name":"_ZNK7android8hardware14confirmationui4V1_030BpHwConfirmationResultCallback8isRemoteEv"
    },
    {
     "mangled_component_name":"_ZN7android8hardware14confirmationui4V1_030BpHwConfirmationResultCallback14interfaceChainENSt3__18functionIFvRKNS0_8hidl_vecINS0_11hidl_stringEEEEEE"
    },
    {
     "mangled_component_name":"_ZN7android8hardware14confirmationui4V1_030BpHwConfirmationResultCallback5debugERKNS0_11hidl_handleERKNS0_8hidl_vecINS0_11hidl_stringEEE"
    },
    {
     "mangled_component_name":"_ZN7android8hardware14confirmationui4V1_030BpHwConfirmationResultCallback19interfaceDescriptorENSt3__18functionIFvRKNS0_11hidl_stringEEEE"
    },
    {
     "mangled_component_name":"_ZN7android8hardware14confirmationui4V1_030BpHwConfirmationResultCallback12getHashChainENSt3__18functionIFvRKNS0_8hidl_vecINS0_10hidl_arrayIhLj32EJEEEEEEEE"
    },
    {
     "mangled_component_name":"_ZN7android8hardware14confirmationui4V1_030BpHwConfirmationResultCallback21setHALInstrumentationEv"
    },
    {
     "mangled_component_name":"_ZN7android8hardware14confirmationui4V1_030BpHwConfirmationResultCallback11linkToDeathERKNS_2spINS0_20hidl_death_recipientEEEy"
    },
    {
     "mangled_component_name":"_ZN7android8hardware14confirmationui4V1_030BpHwConfirmationResultCallback4pingEv"
    },
    {
     "mangled_component_name":"_ZN7android8hardware14confirmationui4V1_030BpHwConfirmationResultCallback12getDebugInfoENSt3__18functionIFvRKNS_4hidl4base4V1_09DebugInfoEEEE"
    },
    {
     "mangled_component_name":"_ZN7android8hardware14confirmationui4V1_030BpHwConfirmationResultCallback21notifySyspropsChangedEv"
    },
    {
     "mangled_component_name":"_ZN7android8hardware14confirmationui4V1_030BpHwConfirmationResultCallback13unlinkToDeathERKNS_2spINS0_20hidl_death_recipientEEE"
    },
    {
     "kind":"complete_dtor_pointer",
     "mangled_component_name":"_ZN7android8hardware14confirmationui4V1_030BpHwConfirmationResultCallbackD1Ev"
    },
    {
     "kind":"deleting_dtor_pointer",
     "mangled_component_name":"_ZN7android8hardware14confirmationui4V1_030BpHwConfirmationResultCallbackD0Ev"
    },
    {
     "mangled_component_name":"_ZN7android8hardware14confirmationui4V1_030BpHwConfirmationResultCallback6resultENS2_12ResponseCodeERKNS0_8hidl_vecIhEES8_"
    },
    {
     "mangled_component_name":"_ZN7android8hardware11BpInterfaceINS0_14confirmationui4V1_027IConfirmationResultCallbackEE10onAsBinderEv"
    },
    {
     "kind":"vbase_offset",
     "component_value":80
    },
    {
     "kind":"offset_to_top",
     "component_value":-4
    },
    {
     "kind":"rtti",
     "mangled_component_name":"_ZTIN7android8hardware14confirmationui4V1_030BpHwConfirmationResultCallbackE"
    },
    {
     "kind":"complete_dtor_pointer",
     "mangled_component_name":"_ZThn4_N7android8hardware14confirmationui4V1_030BpHwConfirmationResultCallbackD1Ev"
    },
    {
     "kind":"deleting_dtor_pointer",
     "mangled_component_name":"_ZThn4_N7android8hardware14confirmationui4V1_030BpHwConfirmationResultCallbackD0Ev"
    },
    {
     "mangled_component_name":"_ZThn4_N7android8hardware11BpInterfaceINS0_14confirmationui4V1_027IConfirmationResultCallbackEE10onAsBinderEv"
    },
    {
     "kind":"vbase_offset",
     "component_value":76
    },
    {
     "kind":"offset_to_top",
     "component_value":-8
    },
    {
     "kind":"rtti",
     "mangled_component_name":"_ZTIN7android8hardware14confirmationui4V1_030BpHwConfirmationResultCallbackE"
    },
    {
     "kind":"complete_dtor_pointer",
     "mangled_component_name":"_ZThn8_N7android8hardware14confirmationui4V1_030BpHwConfirmationResultCallbackD1Ev"
    },
    {
     "kind":"deleting_dtor_pointer",
     "mangled_component_name":"_ZThn8_N7android8hardware14confirmationui4V1_030BpHwConfirmationResultCallbackD0Ev"
    },
    {
     "mangled_component_name":"_ZN7android8hardware11BpHwRefBase10onFirstRefEv"
    },
    {
     "mangled_component_name":"_ZN7android8hardware11BpHwRefBase15onLastStrongRefEPKv"
    },
    {
     "mangled_component_name":"_ZN7android8hardware11BpHwRefBase20onIncStrongAttemptedEjPKv"
    },
    {
     "kind":"offset_to_top",
     "component_value":-24
    },
    {
     "kind":"rtti",
     "mangled_component_name":"_ZTIN7android8hardware14confirmationui4V1_030BpHwConfirmationResultCallbackE"
    },
    {
     "kind":"complete_dtor_pointer",
     "mangled_component_name":"_ZThn24_N7android8hardware14confirmationui4V1_030BpHwConfirmationResultCallbackD1Ev"
    },
    {
     "kind":"deleting_dtor_pointer",
     "mangled_component_name":"_ZThn24_N7android8hardware14confirmationui4V1_030BpHwConfirmationResultCallbackD0Ev"
    },
    {
     "kind":"vcall_offset"
    },
    {
     "kind":"vcall_offset",
     "component_value":-76
    },
    {
     "kind":"vcall_offset",
     "component_value":-76
    },
    {
     "kind":"vcall_offset",
     "component_value":-76
    },
    {
     "kind":"vcall_offset",
     "component_value":-84
    },
    {
     "kind":"offset_to_top",
     "component_value":-84
    },
    {
     "kind":"rtti",
     "mangled_component_name":"_ZTIN7android8hardware14confirmationui4V1_030BpHwConfirmationResultCallbackE"
    },
    {
     "kind":"complete_dtor_pointer",
     "mangled_component_name":"_ZTv0_n12_N7android8hardware14confirmationui4V1_030BpHwConfirmationResultCallbackD1Ev"
    },
    {
     "kind":"deleting_dtor_pointer",
     "mangled_component_name":"_ZTv0_n12_N7android8hardware14confirmationui4V1_030BpHwConfirmationResultCallbackD0Ev"
    },
    {
     "mangled_component_name":"_ZTv0_n16_N7android8hardware11BpHwRefBase10onFirstRefEv"
    },
    {
     "mangled_component_name":"_ZTv0_n20_N7android8hardware11BpHwRefBase15onLastStrongRefEPKv"
    },
    {
     "mangled_component_name":"_ZTv0_n24_N7android8hardware11BpHwRefBase20onIncStrongAttemptedEjPKv"
    },
    {
     "mangled_component_name":"_ZN7android7RefBase13onLastWeakRefEPKv"
    }
   ],
   "unique_id":"_ZTSN7android8hardware14confirmationui4V1_030BpHwConfirmationResultCallbackE"
  },
  {
   "vtable_components":[
    {
     "kind":"vbase_offset",
     "component_value":60
    },
    {
     "kind":"offset_to_top"
    },
    {
     "kind":"rtti",
     "mangled_component_name":"_ZTIN7android8hardware14confirmationui4V1_028BsConfirmationResultCallbackE"
    },
    {
     "mangled_component_name":"_ZNK7android8hardware14confirmationui4V1_027IConfirmationResultCallback8isRemoteEv"
    },
    {
     "mangled_component_name":"_ZN7android8hardware14confirmationui4V1_028BsConfirmationResultCallback14interfaceChainENSt3__18functionIFvRKNS0_8hidl_vecINS0_11hidl_stringEEEEEE"
    },
    {
     "mangled_component_name":"_ZN7android8hardware14confirmationui4V1_028BsConfirmationResultCallback5debugERKNS0_11hidl_handleERKNS0_8hidl_vecINS0_11hidl_stringEEE"
    },
    {
     "mangled_component_name":"_ZN7android8hardware14confirmationui4V1_028BsConfirmationResultCallback19interfaceDescriptorENSt3__18functionIFvRKNS0_11hidl_stringEEEE"
    },
    {
     "mangled_component_name":"_ZN7android8hardware14confirmationui4V1_028BsConfirmationResultCallback12getHashChainENSt3__18functionIFvRKNS0_8hidl_vecINS0_10hidl_arrayIhLj32EJEEEEEEEE"
    },
    {
     "mangled_component_name":"_ZN7android8hardware14confirmationui4V1_028BsConfirmationResultCallback21setHALInstrumentationEv"
    },
    {
     "mangled_component_name":"_ZN7android8hardware14confirmationui4V1_028BsConfirmationResultCallback11linkToDeathERKNS_2spINS0_20hidl_death_recipientEEEy"
    },
    {
     "mangled_component_name":"_ZN7android8hardware14confirmationui4V1_028BsConfirmationResultCallback4pingEv"
    },
    {
     "mangled_component_name":"_ZN7android8hardware14confirmationui4V1_028BsConfirmationResultCallback12getDebugInfoENSt3__18functionIFvRKNS_4hidl4base4V1_09DebugInfoEEEE"
    },
    {
     "mangled_component_name":"_ZN7android8hardware14confirmationui4V1_028BsConfirmationResultCallback21notifySyspropsChangedEv"
    },
    {
     "mangled_component_name":"_ZN7android8hardware14confirmationui4V1_028BsConfirmationResultCallback13unlinkToDeathERKNS_2spINS0_20hidl_death_recipientEEE"
    },
    {
     "kind":"complete_dtor_pointer",
     "mangled_component_name":"_ZN7android8hardware14confirmationui4V1_028BsConfirmationResultCallbackD1Ev"
    },
    {
     "kind":"deleting_dtor_pointer",
     "mangled_component_name":"_ZN7android8hardware14confirmationui4V1_028BsConfirmationResultCallbackD0Ev"
    },
    {
     "mangled_component_name":"_ZN7android8hardware14confirmationui4V1_028BsConfirmationResultCallback6resultENS2_12ResponseCodeERKNS0_8hidl_vecIhEES8_"
    },
    {
     "kind":"offset_to_top",
     "component_value":-4
    },
    {
     "kind":"rtti",
     "mangled_component_name":"_ZTIN7android8hardware14confirmationui4V1_028BsConfirmationResultCallbackE"
    },
    {
     "kind":"complete_dtor_pointer",
     "mangled_component_name":"_ZThn4_N7android8hardware14confirmationui4V1_028BsConfirmationResultCallbackD1Ev"
    },
    {
     "kind":"deleting_dtor_pointer",
     "mangled_component_name":"_ZThn4_N7android8hardware14confirmationui4V1_028BsConfirmationResultCallbackD0Ev"
    },
    {
     "kind":"vcall_offset"
    },
    {
     "kind":"vcall_offset"
    },
    {
     "kind":"vcall_offset"
    },
    {
     "kind":"vcall_offset"
    },
    {
     "kind":"vcall_offset",
     "component_value":-60
    },
    {
     "kind":"offset_to_top",
     "component_value":-60
    },
    {
     "kind":"rtti",
     "mangled_component_name":"_ZTIN7android8hardware14confirmationui4V1_028BsConfirmationResultCallbackE"
    },
    {
     "kind":"complete_dtor_pointer",
     "mangled_component_name":"_ZTv0_n12_N7android8hardware14confirmationui4V1_028BsConfirmationResultCallbackD1Ev"
    },
    {
     "kind":"deleting_dtor_pointer",
     "mangled_component_name":"_ZTv0_n12_N7android8hardware14confirmationui4V1_028BsConfirmationResultCallbackD0Ev"
    },
    {
     "mangled_component_name":"_ZN7android7RefBase10onFirstRefEv"
    },
    {
     "mangled_component_name":"_ZN7android7RefBase15onLastStrongRefEPKv"
    },
    {
     "mangled_component_name":"_ZN7android7RefBase20onIncStrongAttemptedEjPKv"
    },
    {
     "mangled_component_name":"_ZN7android7RefBase13onLastWeakRefEPKv"
    }
   ],
   "unique_id":"_ZTSN7android8hardware14confirmationui4V1_028BsConfirmationResultCallbackE"
  },
  {
   "vtable_components":[
    {
     "kind":"vbase_offset",
     "component_value":72
    },
    {
     "kind":"offset_to_top"
    },
    {
     "kind":"rtti",
     "mangled_component_name":"_ZTIN7android8hardware14confirmationui4V1_018BnHwConfirmationUIE"
    },
    {
     "mangled_component_name":"_ZN7android8hardware9BHwBinder8transactEjRKNS0_6ParcelEPS2_jNSt3__18functionIFvRS2_EEE"
    },
    {
     "mangled_component_name":"_ZN7android8hardware9BHwBinder11linkToDeathERKNS_2spINS0_7IBinder14DeathRecipientEEEPvj"
    },
    {
     "mangled_component_name":"_ZN7android8hardware9BHwBinder13unlinkToDeathERKNS_2wpINS0_7IBinder14DeathRecipientEEEPvjPS5_"
    },
    {
     "mangled_component_name":"_ZNK7android8hardware7IBinder13checkSubclassEPKv"
    },
    {
     "mangled_component_name":"_ZN7android8hardware9BHwBinder12attachObjectEPKvPvS4_PFvS3_S4_S4_E"
    },
    {
     "mangled_component_name":"_ZNK7android8hardware9BHwBinder10findObjectEPKv"
    },
    {
     "mangled_component_name":"_ZN7android8hardware9BHwBinder12detachObjectEPKv"
    },
    {
     "mangled_component_name":"_ZN7android8hardware9BHwBinder11localBinderEv"
    },
    {
     "mangled_component_name":"_ZN7android8hardware7IBinder12remoteBinderEv"
    },
    {
     "kind":"complete_dtor_pointer",
     "mangled_component_name":"_ZN7android8hardware14confirmationui4V1_018BnHwConfirmationUID1Ev"
    },
    {
     "kind":"deleting_dtor_pointer",
     "mangled_component_name":"_ZN7android8hardware14confirmationui4V1_018BnHwConfirmationUID0Ev"
    },
    {
     "mangled_component_name":"_ZN7android8hardware14confirmationui4V1_018BnHwConfirmationUI10onTransactEjRKNS0_6ParcelEPS4_jNSt3__18functionIFvRS4_EEE"
    },
    {
     "kind":"offset_to_top",
     "component_value":-20
    },
    {
     "kind":"rtti",
     "mangled_component_name":"_ZTIN7android8hardware14confirmationui4V1_018BnHwConfirmationUIE"
    },
    {
     "kind":"complete_dtor_pointer",
     "mangled_component_name":"_ZThn20_N7android8hardware14confirmationui4V1_018BnHwConfirmationUID1Ev"
    },
    {
     "kind":"deleting_dtor_pointer",
     "mangled_component_name":"_ZThn20_N7android8hardware14confirmationui4V1_018BnHwConfirmationUID0Ev"
    },
    {
     "kind":"vcall_offset"
    },
    {
     "kind":"vcall_offset"
    },
    {
     "kind":"vcall_offset"
    },
    {
     "kind":"vcall_offset"
    },
    {
     "kind":"vcall_offset",
     "component_value":-72
    },
    {
     "kind":"offset_to_top",
     "component_value":-72
    },
    {
     "kind":"rtti",
     "mangled_component_name":"_ZTIN7android8hardware14confirmationui4V1_018BnHwConfirmationUIE"
    },
    {
     "kind":"complete_dtor_pointer",
     "mangled_component_name":"_ZTv0_n12_N7android8hardware14confirmationui4V1_018BnHwConfirmationUID1Ev"
    },
    {
     "kind":"deleting_dtor_pointer",
     "mangled_component_name":"_ZTv0_n12_N7android8hardware14confirmationui4V1_018BnHwConfirmationUID0Ev"
    },
    {
     "mangled_component_name":"_ZN7android7RefBase10onFirstRefEv"
    },
    {
     "mangled_component_name":"_ZN7android7RefBase15onLastStrongRefEPKv"
    },
    {
     "mangled_component_name":"_ZN7android7RefBase20onIncStrongAttemptedEjPKv"
    },
    {
     "mangled_component_name":"_ZN7android7RefBase13onLastWeakRefEPKv"
    }
   ],
   "unique_id":"_ZTSN7android8hardware14confirmationui4V1_018BnHwConfirmationUIE"
  },
  {
   "vtable_components":[
    {
     "kind":"vbase_offset",
     "component_value":60
    },
    {
     "kind":"offset_to_top"
    },
    {
     "kind":"rtti",
     "mangled_component_name":"_ZTIN7android8hardware14confirmationui4V1_016BsConfirmationUIE"
    },
    {
     "mangled_component_name":"_ZNK7android8hardware14confirmationui4V1_015IConfirmationUI8isRemoteEv"
    },
    {
     "mangled_component_name":"_ZN7android8hardware14confirmationui4V1_016BsConfirmationUI14interfaceChainENSt3__18functionIFvRKNS0_8hidl_vecINS0_11hidl_stringEEEEEE"
    },
    {
     "mangled_component_name":"_ZN7android8hardware14confirmationui4V1_016BsConfirmationUI5debugERKNS0_11hidl_handleERKNS0_8hidl_vecINS0_11hidl_stringEEE"
    },
    {
     "mangled_component_name":"_ZN7android8hardware14confirmationui4V1_016BsConfirmationUI19interfaceDescriptorENSt3__18functionIFvRKNS0_11hidl_stringEEEE"
    },
    {
     "mangled_component_name":"_ZN7android8hardware14confirmationui4V1_016BsConfirmationUI12getHashChainENSt3__18functionIFvRKNS0_8hidl_vecINS0_10hidl_arrayIhLj32EJEEEEEEEE"
    },
    {
     "mangled_component_name":"_ZN7android8hardware14confirmationui4V1_016BsConfirmationUI21setHALInstrumentationEv"
    },
    {
     "mangled_component_name":"_ZN7android8hardware14confirmationui4V1_016BsConfirmationUI11linkToDeathERKNS_2spINS0_20hidl_death_recipientEEEy"
    },
    {
     "mangled_component_name":"_ZN7android8hardware14confirmationui4V1_016BsConfirmationUI4pingEv"
    },
    {
     "mangled_component_name":"_ZN7android8hardware14confirmationui4V1_016BsConfirmationUI12getDebugInfoENSt3__18functionIFvRKNS_4hidl4base4V1_09DebugInfoEEEE"
    },
    {
     "mangled_component_name":"_ZN7android8hardware14confirmationui4V1_016BsConfirmationUI21notifySyspropsChangedEv"
    },
    {
     "mangled_component_name":"_ZN7android8hardware14confirmationui4V1_016BsConfirmationUI13unlinkToDeathERKNS_2spINS0_20hidl_death_recipientEEE"
    },
    {
     "kind":"complete_dtor_pointer",
     "mangled_component_name":"_ZN7android8hardware14confirmationui4V1_016BsConfirmationUID1Ev"
    },
    {
     "kind":"deleting_dtor_pointer",
     "mangled_component_name":"_ZN7android8hardware14confirmationui4V1_016BsConfirmationUID0Ev"
    },
    {
     "mangled_component_name":"_ZN7android8hardware14confirmationui4V1_016BsConfirmationUI22promptUserConfirmationERKNS_2spINS2_27IConfirmationResultCallbackEEERKNS0_11hidl_stringERKNS0_8hidl_vecIhEESB_RKNSC_INS2_8UIOptionEEE"
    },
    {
     "mangled_component_name":"_ZN7android8hardware14confirmationui4V1_016BsConfirmationUI23deliverSecureInputEventERKNS0_9keymaster4V4_017HardwareAuthTokenE"
    },
    {
     "mangled_component_name":"_ZN7android8hardware14confirmationui4V1_016BsConfirmationUI5abortEv"
    },
    {
     "kind":"offset_to_top",
     "component_value":-4
    },
    {
     "kind":"rtti",
     "mangled_component_name":"_ZTIN7android8hardware14confirmationui4V1_016BsConfirmationUIE"
    },
    {
     "kind":"complete_dtor_pointer",
     "mangled_component_name":"_ZThn4_N7android8hardware14confirmationui4V1_016BsConfirmationUID1Ev"
    },
    {
     "kind":"deleting_dtor_pointer",
     "mangled_component_name":"_ZThn4_N7android8hardware14confirmationui4V1_016BsConfirmationUID0Ev"
    },
    {
     "kind":"vcall_offset"
    },
    {
     "kind":"vcall_offset"
    },
    {
     "kind":"vcall_offset"
    },
    {
     "kind":"vcall_offset"
    },
    {
     "kind":"vcall_offset",
     "component_value":-60
    },
    {
     "kind":"offset_to_top",
     "component_value":-60
    },
    {
     "kind":"rtti",
     "mangled_component_name":"_ZTIN7android8hardware14confirmationui4V1_016BsConfirmationUIE"
    },
    {
     "kind":"complete_dtor_pointer",
     "mangled_component_name":"_ZTv0_n12_N7android8hardware14confirmationui4V1_016BsConfirmationUID1Ev"
    },
    {
     "kind":"deleting_dtor_pointer",
     "mangled_component_name":"_ZTv0_n12_N7android8hardware14confirmationui4V1_016BsConfirmationUID0Ev"
    },
    {
     "mangled_component_name":"_ZN7android7RefBase10onFirstRefEv"
    },
    {
     "mangled_component_name":"_ZN7android7RefBase15onLastStrongRefEPKv"
    },
    {
     "mangled_component_name":"_ZN7android7RefBase20onIncStrongAttemptedEjPKv"
    },
    {
     "mangled_component_name":"_ZN7android7RefBase13onLastWeakRefEPKv"
    }
   ],
   "unique_id":"_ZTSN7android8hardware14confirmationui4V1_016BsConfirmationUIE"
  }
 ],
 "elf_functions":[
  {
   "binding":"weak",
   "name":"_ZN7android8hardware10fromBinderINS0_14confirmationui4V1_027IConfirmationResultCallbackENS3_30BpHwConfirmationResultCallbackENS3_30BnHwConfirmationResultCallbackEEENS_2spIT_EERKNS7_INS0_7IBinderEEE"
  },
  {
   "name":"_ZN7android8hardware14confirmationui4V1_015IConfirmationUI10getServiceERKNSt3__112basic_stringIcNS4_11char_traitsIcEENS4_9allocatorIcEEEEb"
  },
  {
   "name":"_ZN7android8hardware14confirmationui4V1_015IConfirmationUI11linkToDeathERKNS_2spINS0_20hidl_death_recipientEEEy"
  },
  {
   "name":"_ZN7android8hardware14confirmationui4V1_015IConfirmationUI12getDebugInfoENSt3__18functionIFvRKNS_4hidl4base4V1_09DebugInfoEEEE"
  },
  {
   "name":"_ZN7android8hardware14confirmationui4V1_015IConfirmationUI12getHashChainENSt3__18functionIFvRKNS0_8hidl_vecINS0_10hidl_arrayIhLj32EJEEEEEEEE"
  },
  {
   "name":"_ZN7android8hardware14confirmationui4V1_015IConfirmationUI13tryGetServiceERKNSt3__112basic_stringIcNS4_11char_traitsIcEENS4_9allocatorIcEEEEb"
  },
  {
   "name":"_ZN7android8hardware14confirmationui4V1_015IConfirmationUI13unlinkToDeathERKNS_2spINS0_20hidl_death_recipientEEE"
  },
  {
   "name":"_ZN7android8hardware14confirmationui4V1_015IConfirmationUI14interfaceChainENSt3__18functionIFvRKNS0_8hidl_vecINS0_11hidl_stringEEEEEE"
  },
  {
   "name":"_ZN7android8hardware14confirmationui4V1_015IConfirmationUI17registerAsServiceERKNSt3__112basic_stringIcNS4_11char_traitsIcEENS4_9allocatorIcEEEE"
  },
  {
   "name":"_ZN7android8hardware14confirmationui4V1_015IConfirmationUI19interfaceDescriptorENSt3__18functionIFvRKNS0_11hidl_stringEEEE"
  },
  {
   "name":"_ZN7android8hardware14confirmationui4V1_015IConfirmationUI21notifySyspropsChangedEv"
  },
  {
   "name":"_ZN7android8hardware14confirmationui4V1_015IConfirmationUI21setHALInstrumentationEv"
  },
  {
   "name":"_ZN7android8hardware14confirmationui4V1_015IConfirmationUI24registerForNotificationsERKNSt3__112basic_stringIcNS4_11char_traitsIcEENS4_9allocatorIcEEEERKNS_2spINS_4hidl7manager4V1_020IServiceNotificationEEE"
  },
  {
   "name":"_ZN7android8hardware14confirmationui4V1_015IConfirmationUI4pingEv"
  },
  {
   "name":"_ZN7android8hardware14confirmationui4V1_015IConfirmationUI5debugERKNS0_11hidl_handleERKNS0_8hidl_vecINS0_11hidl_stringEEE"
  },
  {
   "name":"_ZN7android8hardware14confirmationui4V1_015IConfirmationUI8castFromERKNS_2spINS_4hidl4base4V1_05IBaseEEEb"
  },
  {
   "name":"_ZN7android8hardware14confirmationui4V1_015IConfirmationUI8castFromERKNS_2spIS3_EEb"
  },
  {
   "name":"_ZN7android8hardware14confirmationui4V1_016BsConfirmationUI13addOnewayTaskENSt3__18functionIFvvEEE"
  },
  {
   "name":"_ZN7android8hardware14confirmationui4V1_016BsConfirmationUIC1ENS_2spINS2_15IConfirmationUIEEE"
  },
  {
   "name":"_ZN7android8hardware14confirmationui4V1_016BsConfirmationUIC2ENS_2spINS2_15IConfirmationUIEEE"
  },
  {
   "name":"_ZN7android8hardware14confirmationui4V1_018BnHwConfirmationUI10onTransactEjRKNS0_6ParcelEPS4_jNSt3__18functionIFvRS4_EEE"
  },
  {
   "name":"_ZN7android8hardware14confirmationui4V1_018BnHwConfirmationUI11_hidl_abortEPNS_4hidl4base4V1_08BnHwBaseERKNS0_6ParcelEPS9_NSt3__18functionIFvRS9_EEE"
  },
  {
   "name":"_ZN7android8hardware14confirmationui4V1_018BnHwConfirmationUI12getDebugInfoENSt3__18functionIFvRKNS_4hidl4base4V1_09DebugInfoEEEE"
  },
  {
   "name":"_ZN7android8hardware14confirmationui4V1_018BnHwConfirmationUI28_hidl_promptUserConfirmationEPNS_4hidl4base4V1_08BnHwBaseERKNS0_6ParcelEPS9_NSt3__18functionIFvRS9_EEE"
  },
  {
   "name":"_ZN7android8hardware14confirmationui4V1_018BnHwConfirmationUI29_hidl_deliverSecureInputEventEPNS_4hidl4base4V1_08BnHwBaseERKNS0_6ParcelEPS9_NSt3__18functionIFvRS9_EEE"
  },
  {
   "name":"_ZN7android8hardware14confirmationui4V1_018BnHwConfirmationUI4pingEv"
  },
  {
   "name":"_ZN7android8hardware14confirmationui4V1_018BnHwConfirmationUIC1ERKNS_2spINS2_15IConfirmationUIEEE"
  },
  {
   "name":"_ZN7android8hardware14confirmationui4V1_018BnHwConfirmationUIC2ERKNS_2spINS2_15IConfirmationUIEEE"
  },
  {
   "name":"_ZN7android8hardware14confirmationui4V1_018BnHwConfirmationUID0Ev"
  },
  {
   "name":"_ZN7android8hardware14confirmationui4V1_018BnHwConfirmationUID1Ev"
  },
  {
   "name":"_ZN7android8hardware14confirmationui4V1_018BnHwConfirmationUID2Ev"
  },
  {
   "name":"_ZN7android8hardware14confirmationui4V1_018BpHwConfirmationUI11_hidl_abortEPNS0_10IInterfaceEPNS0_7details16HidlInstrumentorE"
  },
  {
   "name":"_ZN7android8hardware14confirmationui4V1_018BpHwConfirmationUI11linkToDeathERKNS_2spINS0_20hidl_death_recipientEEEy"
  },
  {
   "name":"_ZN7android8hardware14confirmationui4V1_018BpHwConfirmationUI12getDebugInfoENSt3__18functionIFvRKNS_4hidl4base4V1_09DebugInfoEEEE"
  },
  {
   "name":"_ZN7android8hardware14confirmationui4V1_018BpHwConfirmationUI12getHashChainENSt3__18functionIFvRKNS0_8hidl_vecINS0_10hidl_arrayIhLj32EJEEEEEEEE"
  },
  {
   "name":"_ZN7android8hardware14confirmationui4V1_018BpHwConfirmationUI13unlinkToDeathERKNS_2spINS0_20hidl_death_recipientEEE"
  },
  {
   "name":"_ZN7android8hardware14confirmationui4V1_018BpHwConfirmationUI14interfaceChainENSt3__18functionIFvRKNS0_8hidl_vecINS0_11hidl_stringEEEEEE"
  },
  {
   "name":"_ZN7android8hardware14confirmationui4V1_018BpHwConfirmationUI19interfaceDescriptorENSt3__18functionIFvRKNS0_11hidl_stringEEEE"
  },
  {
   "name":"_ZN7android8hardware14confirmationui4V1_018BpHwConfirmationUI21notifySyspropsChangedEv"
  },
  {
   "name":"_ZN7android8hardware14confirmationui4V1_018BpHwConfirmationUI21setHALInstrumentationEv"
  },
  {
   "name":"_ZN7android8hardware14confirmationui4V1_018BpHwConfirmationUI22promptUserConfirmationERKNS_2spINS2_27IConfirmationResultCallbackEEERKNS0_11hidl_stringERKNS0_8hidl_vecIhEESB_RKNSC_INS2_8UIOptionEEE"
  },
  {
   "name":"_ZN7android8hardware14confirmationui4V1_018BpHwConfirmationUI23deliverSecureInputEventERKNS0_9keymaster4V4_017HardwareAuthTokenE"
  },
  {
   "name":"_ZN7android8hardware14confirmationui4V1_018BpHwConfirmationUI28_hidl_promptUserConfirmationEPNS0_10IInterfaceEPNS0_7details16HidlInstrumentorERKNS_2spINS2_27IConfirmationResultCallbackEEERKNS0_11hidl_stringERKNS0_8hidl_vecIhEESG_RKNSH_INS2_8UIOptionEEE"
  },
  {
   "name":"_ZN7android8hardware14confirmationui4V1_018BpHwConfirmationUI29_hidl_deliverSecureInputEventEPNS0_10IInterfaceEPNS0_7details16HidlInstrumentorERKNS0_9keymaster4V4_017HardwareAuthTokenE"
  },
  {
   "name":"_ZN7android8hardware14confirmationui4V1_018BpHwConfirmationUI4pingEv"
  },
  {
   "name":"_ZN7android8hardware14confirmationui4V1_018BpHwConfirmationUI5abortEv"
  },
  {
   "name":"_ZN7android8hardware14confirmationui4V1_018BpHwConfirmationUI5debugERKNS0_11hidl_handleERKNS0_8hidl_vecINS0_11hidl_stringEEE"
  },
  {
   "name":"_ZN7android8hardware14confirmationui4V1_018BpHwConfirmationUIC1ERKNS_2spINS0_7IBinderEEE"
  },
  {
   "name":"_ZN7android8hardware14confirmationui4V1_018BpHwConfirmationUIC2ERKNS_2spINS0_7IBinderEEE"
  },
  {
   "name":"_ZN7android8hardware14confirmationui4V1_027IConfirmationResultCallback10getServiceERKNSt3__112basic_stringIcNS4_11char_traitsIcEENS4_9allocatorIcEEEEb"
  },
  {
   "name":"_ZN7android8hardware14confirmationui4V1_027IConfirmationResultCallback11linkToDeathERKNS_2spINS0_20hidl_death_recipientEEEy"
  },
  {
   "name":"_ZN7android8hardware14confirmationui4V1_027IConfirmationResultCallback12getDebugInfoENSt3__18functionIFvRKNS_4hidl4base4V1_09DebugInfoEEEE"
  },
  {
   "name":"_ZN7android8hardware14confirmationui4V1_027IConfirmationResultCallback12getHashChainENSt3__18functionIFvRKNS0_8hidl_vecINS0_10hidl_arrayIhLj32EJEEEEEEEE"
  },
  {
   "name":"_ZN7android8hardware14confirmationui4V1_027IConfirmationResultCallback13tryGetServiceERKNSt3__112basic_stringIcNS4_11char_traitsIcEENS4_9allocatorIcEEEEb"
  },
  {
   "name":"_ZN7android8hardware14confirmationui4V1_027IConfirmationResultCallback13unlinkToDeathERKNS_2spINS0_20hidl_death_recipientEEE"
  },
  {
   "name":"_ZN7android8hardware14confirmationui4V1_027IConfirmationResultCallback14interfaceChainENSt3__18functionIFvRKNS0_8hidl_vecINS0_11hidl_stringEEEEEE"
  },
  {
   "name":"_ZN7android8hardware14confirmationui4V1_027IConfirmationResultCallback17registerAsServiceERKNSt3__112basic_stringIcNS4_11char_traitsIcEENS4_9allocatorIcEEEE"
  },
  {
   "name":"_ZN7android8hardware14confirmationui4V1_027IConfirmationResultCallback19interfaceDescriptorENSt3__18functionIFvRKNS0_11hidl_stringEEEE"
  },
  {
   "name":"_ZN7android8hardware14confirmationui4V1_027IConfirmationResultCallback21notifySyspropsChangedEv"
  },
  {
   "name":"_ZN7android8hardware14confirmationui4V1_027IConfirmationResultCallback21setHALInstrumentationEv"
  },
  {
   "name":"_ZN7android8hardware14confirmationui4V1_027IConfirmationResultCallback24registerForNotificationsERKNSt3__112basic_stringIcNS4_11char_traitsIcEENS4_9allocatorIcEEEERKNS_2spINS_4hidl7manager4V1_020IServiceNotificationEEE"
  },
  {
   "name":"_ZN7android8hardware14confirmationui4V1_027IConfirmationResultCallback4pingEv"
  },
  {
   "name":"_ZN7android8hardware14confirmationui4V1_027IConfirmationResultCallback5debugERKNS0_11hidl_handleERKNS0_8hidl_vecINS0_11hidl_stringEEE"
  },
  {
   "name":"_ZN7android8hardware14confirmationui4V1_027IConfirmationResultCallback8castFromERKNS_2spINS_4hidl4base4V1_05IBaseEEEb"
  },
  {
   "name":"_ZN7android8hardware14confirmationui4V1_027IConfirmationResultCallback8castFromERKNS_2spIS3_EEb"
  },
  {
   "name":"_ZN7android8hardware14confirmationui4V1_028BsConfirmationResultCallback13addOnewayTaskENSt3__18functionIFvvEEE"
  },
  {
   "name":"_ZN7android8hardware14confirmationui4V1_028BsConfirmationResultCallbackC1ENS_2spINS2_27IConfirmationResultCallbackEEE"
  },
  {
   "name":"_ZN7android8hardware14confirmationui4V1_028BsConfirmationResultCallbackC2ENS_2spINS2_27IConfirmationResultCallbackEEE"
  },
  {
   "name":"_ZN7android8hardware14confirmationui4V1_030BnHwConfirmationResultCallback10onTransactEjRKNS0_6ParcelEPS4_jNSt3__18functionIFvRS4_EEE"
  },
  {
   "name":"_ZN7android8hardware14confirmationui4V1_030BnHwConfirmationResultCallback12_hidl_resultEPNS_4hidl4base4V1_08BnHwBaseERKNS0_6ParcelEPS9_NSt3__18functionIFvRS9_EEE"
  },
  {
   "name":"_ZN7android8hardware14confirmationui4V1_030BnHwConfirmationResultCallback12getDebugInfoENSt3__18functionIFvRKNS_4hidl4base4V1_09DebugInfoEEEE"
  },
  {
   "name":"_ZN7android8hardware14confirmationui4V1_030BnHwConfirmationResultCallback4pingEv"
  },
  {
   "name":"_ZN7android8hardware14confirmationui4V1_030BnHwConfirmationResultCallbackC1ERKNS_2spINS2_27IConfirmationResultCallbackEEE"
  },
  {
   "name":"_ZN7android8hardware14confirmationui4V1_030BnHwConfirmationResultCallbackC2ERKNS_2spINS2_27IConfirmationResultCallbackEEE"
  },
  {
   "name":"_ZN7android8hardware14confirmationui4V1_030BnHwConfirmationResultCallbackD0Ev"
  },
  {
   "name":"_ZN7android8hardware14confirmationui4V1_030BnHwConfirmationResultCallbackD1Ev"
  },
  {
   "name":"_ZN7android8hardware14confirmationui4V1_030BnHwConfirmationResultCallbackD2Ev"
  },
  {
   "name":"_ZN7android8hardware14confirmationui4V1_030BpHwConfirmationResultCallback11linkToDeathERKNS_2spINS0_20hidl_death_recipientEEEy"
  },
  {
   "name":"_ZN7android8hardware14confirmationui4V1_030BpHwConfirmationResultCallback12_hidl_resultEPNS0_10IInterfaceEPNS0_7details16HidlInstrumentorENS2_12ResponseCodeERKNS0_8hidl_vecIhEESD_"
  },
  {
   "name":"_ZN7android8hardware14confirmationui4V1_030BpHwConfirmationResultCallback12getDebugInfoENSt3__18functionIFvRKNS_4hidl4base4V1_09DebugInfoEEEE"
  },
  {
   "name":"_ZN7android8hardware14confirmationui4V1_030BpHwConfirmationResultCallback12getHashChainENSt3__18functionIFvRKNS0_8hidl_vecINS0_10hidl_arrayIhLj32EJEEEEEEEE"
  },
  {
   "name":"_ZN7android8hardware14confirmationui4V1_030BpHwConfirmationResultCallback13unlinkToDeathERKNS_2spINS0_20hidl_death_recipientEEE"
  },
  {
   "name":"_ZN7android8hardware14confirmationui4V1_030BpHwConfirmationResultCallback14interfaceChainENSt3__18functionIFvRKNS0_8hidl_vecINS0_11hidl_stringEEEEEE"
  },
  {
   "name":"_ZN7android8hardware14confirmationui4V1_030BpHwConfirmationResultCallback19interfaceDescriptorENSt3__18functionIFvRKNS0_11hidl_stringEEEE"
  },
  {
   "name":"_ZN7android8hardware14confirmationui4V1_030BpHwConfirmationResultCallback21notifySyspropsChangedEv"
  },
  {
   "name":"_ZN7android8hardware14confirmationui4V1_030BpHwConfirmationResultCallback21setHALInstrumentationEv"
  },
  {
   "name":"_ZN7android8hardware14confirmationui4V1_030BpHwConfirmationResultCallback4pingEv"
  },
  {
   "name":"_ZN7android8hardware14confirmationui4V1_030BpHwConfirmationResultCallback5debugERKNS0_11hidl_handleERKNS0_8hidl_vecINS0_11hidl_stringEEE"
  },
  {
   "name":"_ZN7android8hardware14confirmationui4V1_030BpHwConfirmationResultCallback6resultENS2_12ResponseCodeERKNS0_8hidl_vecIhEES8_"
  },
  {
   "name":"_ZN7android8hardware14confirmationui4V1_030BpHwConfirmationResultCallbackC1ERKNS_2spINS0_7IBinderEEE"
  },
  {
   "name":"_ZN7android8hardware14confirmationui4V1_030BpHwConfirmationResultCallbackC2ERKNS_2spINS0_7IBinderEEE"
  },
  {
   "binding":"weak",
   "name":"_ZN7android8hardware7details13castInterfaceINS0_14confirmationui4V1_015IConfirmationUIENS_4hidl4base4V1_05IBaseENS4_18BpHwConfirmationUIEEENS0_6ReturnINS_2spIT_EEEENSC_IT0_EEPKcb"
  },
  {
   "binding":"weak",
   "name":"_ZN7android8hardware7details13castInterfaceINS0_14confirmationui4V1_027IConfirmationResultCallbackENS_4hidl4base4V1_05IBaseENS4_30BpHwConfirmationResultCallbackEEENS0_6ReturnINS_2spIT_EEEENSC_IT0_EEPKcb"
  },
  {
   "binding":"weak",
   "name":"_ZN7android8hardware7details15wrapPassthroughINS0_14confirmationui4V1_027IConfirmationResultCallbackEvEENS_2spIT_EES8_"
  },
  {
   "binding":"weak",
   "name":"_ZN7android8hardware7details18getServiceInternalINS0_14confirmationui4V1_018BpHwConfirmationUIENS4_15IConfirmationUIEvvEENS_2spIT0_EERKNSt3__112basic_stringIcNSA_11char_traitsIcEENSA_9allocatorIcEEEEbb"
  },
  {
   "binding":"weak",
   "name":"_ZN7android8hardware7details18getServiceInternalINS0_14confirmationui4V1_030BpHwConfirmationResultCallbackENS4_27IConfirmationResultCallbackEvvEENS_2spIT0_EERKNSt3__112basic_stringIcNSA_11char_traitsIcEENSA_9allocatorIcEEEEbb"
  },
  {
   "binding":"weak",
   "name":"_ZN7android8hardware8toBinderINS0_14confirmationui4V1_027IConfirmationResultCallbackEvEENS_2spINS0_7IBinderEEENS5_IT_EE"
  },
  {
   "binding":"weak",
   "name":"_ZN7android8hardware8toBinderINS_4hidl4base4V1_05IBaseEvEENS_2spINS0_7IBinderEEENS6_IT_EE"
  },
  {
   "name":"_ZThn20_N7android8hardware14confirmationui4V1_018BnHwConfirmationUID0Ev"
  },
  {
   "name":"_ZThn20_N7android8hardware14confirmationui4V1_018BnHwConfirmationUID1Ev"
  },
  {
   "name":"_ZThn20_N7android8hardware14confirmationui4V1_030BnHwConfirmationResultCallbackD0Ev"
  },
  {
   "name":"_ZThn20_N7android8hardware14confirmationui4V1_030BnHwConfirmationResultCallbackD1Ev"
  },
  {
   "name":"_ZTv0_n12_N7android8hardware14confirmationui4V1_018BnHwConfirmationUID0Ev"
  },
  {
   "name":"_ZTv0_n12_N7android8hardware14confirmationui4V1_018BnHwConfirmationUID1Ev"
  },
  {
   "name":"_ZTv0_n12_N7android8hardware14confirmationui4V1_030BnHwConfirmationResultCallbackD0Ev"
  },
  {
   "name":"_ZTv0_n12_N7android8hardware14confirmationui4V1_030BnHwConfirmationResultCallbackD1Ev"
  }
 ],
 "elf_objects":[
  {
   "name":"_ZN7android8hardware14confirmationui4V1_015IConfirmationUI10descriptorE"
  },
  {
   "name":"_ZN7android8hardware14confirmationui4V1_027IConfirmationResultCallback10descriptorE"
  },
  {
   "name":"_ZTTN7android8hardware14confirmationui4V1_015IConfirmationUIE"
  },
  {
   "name":"_ZTTN7android8hardware14confirmationui4V1_018BnHwConfirmationUIE"
  },
  {
   "name":"_ZTTN7android8hardware14confirmationui4V1_018BpHwConfirmationUIE"
  },
  {
   "name":"_ZTTN7android8hardware14confirmationui4V1_027IConfirmationResultCallbackE"
  },
  {
   "name":"_ZTTN7android8hardware14confirmationui4V1_030BnHwConfirmationResultCallbackE"
  },
  {
   "name":"_ZTTN7android8hardware14confirmationui4V1_030BpHwConfirmationResultCallbackE"
  },
  {
   "name":"_ZTVN7android8hardware14confirmationui4V1_015IConfirmationUIE"
  },
  {
   "binding":"weak",
   "name":"_ZTVN7android8hardware14confirmationui4V1_016BsConfirmationUIE"
  },
  {
   "name":"_ZTVN7android8hardware14confirmationui4V1_018BnHwConfirmationUIE"
  },
  {
   "name":"_ZTVN7android8hardware14confirmationui4V1_018BpHwConfirmationUIE"
  },
  {
   "name":"_ZTVN7android8hardware14confirmationui4V1_027IConfirmationResultCallbackE"
  },
  {
   "binding":"weak",
   "name":"_ZTVN7android8hardware14confirmationui4V1_028BsConfirmationResultCallbackE"
  },
  {
   "name":"_ZTVN7android8hardware14confirmationui4V1_030BnHwConfirmationResultCallbackE"
  },
  {
   "name":"_ZTVN7android8hardware14confirmationui4V1_030BpHwConfirmationResultCallbackE"
  }
 ]
}