{
 "record_types":[
  {
   "vtable_components":[
    {
     "kind":"vbase_offset",
     "component_value":4
    },
    {
     "kind":"offset_to_top"
    },
    {
     "kind":"rtti",
     "mangled_component_name":"_ZTIN7android8hardware8vibrator4V1_29IVibratorE"
    },
    {
     "mangled_component_name":"_ZNK7android8hardware8vibrator4V1_29IVibrator8isRemoteEv"
    },
    {
     "mangled_component_name":"_ZN7android8hardware8vibrator4V1_29IVibrator14interfaceChainENSt3__18functionIFvRKNS0_8hidl_vecINS0_11hidl_stringEEEEEE"
    },
    {
     "mangled_component_name":"_ZN7android8hardware8vibrator4V1_29IVibrator5debugERKNS0_11hidl_handleERKNS0_8hidl_vecINS0_11hidl_stringEEE"
    },
    {
     "mangled_component_name":"_ZN7android8hardware8vibrator4V1_29IVibrator19interfaceDescriptorENSt3__18functionIFvRKNS0_11hidl_stringEEEE"
    },
    {
     "mangled_component_name":"_ZN7android8hardware8vibrator4V1_29IVibrator12getHashChainENSt3__18functionIFvRKNS0_8hidl_vecINS0_10hidl_arrayIhLj32EJEEEEEEEE"
    },
    {
     "mangled_component_name":"_ZN7android8hardware8vibrator4V1_29IVibrator21setHALInstrumentationEv"
    },
    {
     "mangled_component_name":"_ZN7android8hardware8vibrator4V1_29IVibrator11linkToDeathERKNS_2spINS0_20hidl_death_recipientEEEy"
    },
    {
     "mangled_component_name":"_ZN7android8hardware8vibrator4V1_29IVibrator4pingEv"
    },
    {
     "mangled_component_name":"_ZN7android8hardware8vibrator4V1_29IVibrator12getDebugInfoENSt3__18functionIFvRKNS_4hidl4base4V1_09DebugInfoEEEE"
    },
    {
     "mangled_component_name":"_ZN7android8hardware8vibrator4V1_29IVibrator21notifySyspropsChangedEv"
    },
    {
     "mangled_component_name":"_ZN7android8hardware8vibrator4V1_29IVibrator13unlinkToDeathERKNS_2spINS0_20hidl_death_recipientEEE"
    },
    {
     "kind":"complete_dtor_pointer",
     "mangled_component_name":"_ZN7android8hardware8vibrator4V1_29IVibratorD1Ev"
    },
    {
     "kind":"deleting_dtor_pointer",
     "mangled_component_name":"_ZN7android8hardware8vibrator4V1_29IVibratorD0Ev"
    },
    {
     "is_pure":true,
     "mangled_component_name":"_ZN7android8hardware8vibrator4V1_29IVibrator2onEj"
    },
    {
     "is_pure":true,
     "mangled_component_name":"_ZN7android8hardware8vibrator4V1_29IVibrator3offEv"
    },
    {
     "is_pure":true,
     "mangled_component_name":"_ZN7android8hardware8vibrator4V1_29IVibrator24supportsAmplitudeControlEv"
    },
    {
     "is_pure":true,
     "mangled_component_name":"_ZN7android8hardware8vibrator4V1_29IVibrator12setAmplitudeEh"
    },
    {
     "is_pure":true,
     "mangled_component_name":"_ZN7android8hardware8vibrator4V1_29IVibrator7performENS1_4V1_06EffectENS4_14EffectStrengthENSt3__18functionIFvNS4_6StatusEjEEE"
    },
    {
     "is_pure":true,
     "mangled_component_name":"_ZN7android8hardware8vibrator4V1_29IVibrator11perform_1_1ENS1_4V1_110Effect_1_1ENS1_4V1_014EffectStrengthENSt3__18functionIFvNS6_6StatusEjEEE"
    },
    {
     "is_pure":true,
     "mangled_component_name":"_ZN7android8hardware8vibrator4V1_29IVibrator11perform_1_2ENS2_6EffectENS1_4V1_014EffectStrengthENSt3__18functionIFvNS5_6StatusEjEEE"
    },
    {
     "kind":"vcall_offset"
    },
    {
     "kind":"vcall_offset"
    },
    {
     "kind":"vcall_offset"
    },
    {
     "kind":"vcall_offset"
    },
    {
     "kind":"vcall_offset",
     "component_value":-4
    },
    {
     "kind":"offset_to_top",
     "component_value":-4
    },
    {
     "kind":"rtti",
     "mangled_component_name":"_ZTIN7android8hardware8vibrator4V1_29IVibratorE"
    },
    {
     "kind":"complete_dtor_pointer",
     "mangled_component_name":"_ZTv0_n12_N7android8hardware8vibrator4V1_29IVibratorD1Ev"
    },
    {
     "kind":"deleting_dtor_pointer",
     "mangled_component_name":"_ZTv0_n12_N7android8hardware8vibrator4V1_29IVibratorD0Ev"
    },
    {
     "mangled_component_name":"_ZN7android7RefBase10onFirstRefEv"
    },
    {
     "mangled_component_name":"_ZN7android7RefBase15onLastStrongRefEPKv"
    },
    {
     "mangled_component_name":"_ZN7android7RefBase20onIncStrongAttemptedEjPKv"
    },
    {
     "mangled_component_name":"_ZN7android7RefBase13onLastWeakRefEPKv"
    }
   ],
   "unique_id":"_ZTSN7android8hardware8vibrator4V1_29IVibratorE"
  },
  {
   "vtable_components":[
    {
     "kind":"vbase_offset",
     "component_value":72
    },
    {
     "kind":"offset_to_top"
    },
    {
     "kind":"rtti",
     "mangled_component_name":"_ZTIN7android8hardware8vibrator4V1_212BnHwVibratorE"
    },
    {
     "mangled_component_name":"_ZN7android8hardware9BHwBinder8transactEjRKNS0_6ParcelEPS2_jNSt3__18functionIFvRS2_EEE"
    },
    {
     "mangled_component_name":"_ZN7android8hardware9BHwBinder11linkToDeathERKNS_2spINS0_7IBinder14DeathRecipientEEEPvj"
    },
    {
     "mangled_component_name":"_ZN7android8hardware9BHwBinder13unlinkToDeathERKNS_2wpINS0_7IBinder14DeathRecipientEEEPvjPS5_"
    },
    {
     "mangled_component_name":"_ZNK7android8hardware7IBinder13checkSubclassEPKv"
    },
    {
     "mangled_component_name":"_ZN7android8hardware9BHwBinder12attachObjectEPKvPvS4_PFvS3_S4_S4_E"
    },
    {
     "mangled_component_name":"_ZNK7android8hardware9BHwBinder10findObjectEPKv"
    },
    {
     "mangled_component_name":"_ZN7android8hardware9BHwBinder12detachObjectEPKv"
    },
    {
     "mangled_component_name":"_ZN7android8hardware9BHwBinder11localBinderEv"
    },
    {
     "mangled_component_name":"_ZN7android8hardware7IBinder12remoteBinderEv"
    },
    {
     "kind":"complete_dtor_pointer",
     "mangled_component_name":"_ZN7android8hardware8vibrator4V1_212BnHwVibratorD1Ev"
    },
    {
     "kind":"deleting_dtor_pointer",
     "mangled_component_name":"_ZN7android8hardware8vibrator4V1_212BnHwVibratorD0Ev"
    },
    {
     "mangled_component_name":"_ZN7android8hardware8vibrator4V1_212BnHwVibrator10onTransactEjRKNS0_6ParcelEPS4_jNSt3__18functionIFvRS4_EEE"
    },
    {
     "kind":"offset_to_top",
     "component_value":-20
    },
    {
     "kind":"rtti",
     "mangled_component_name":"_ZTIN7android8hardware8vibrator4V1_212BnHwVibratorE"
    },
    {
     "kind":"complete_dtor_pointer",
     "mangled_component_name":"_ZThn20_N7android8hardware8vibrator4V1_212BnHwVibratorD1Ev"
    },
    {
     "kind":"deleting_dtor_pointer",
     "mangled_component_name":"_ZThn20_N7android8hardware8vibrator4V1_212BnHwVibratorD0Ev"
    },
    {
     "kind":"vcall_offset"
    },
    {
     "kind":"vcall_offset"
    },
    {
     "kind":"vcall_offset"
    },
    {
     "kind":"vcall_offset"
    },
    {
     "kind":"vcall_offset",
     "component_value":-72
    },
    {
     "kind":"offset_to_top",
     "component_value":-72
    },
    {
     "kind":"rtti",
     "mangled_component_name":"_ZTIN7android8hardware8vibrator4V1_212BnHwVibratorE"
    },
    {
     "kind":"complete_dtor_pointer",
     "mangled_component_name":"_ZTv0_n12_N7android8hardware8vibrator4V1_212BnHwVibratorD1Ev"
    },
    {
     "kind":"deleting_dtor_pointer",
     "mangled_component_name":"_ZTv0_n12_N7android8hardware8vibrator4V1_212BnHwVibratorD0Ev"
    },
    {
     "mangled_component_name":"_ZN7android7RefBase10onFirstRefEv"
    },
    {
     "mangled_component_name":"_ZN7android7RefBase15onLastStrongRefEPKv"
    },
    {
     "mangled_component_name":"_ZN7android7RefBase20onIncStrongAttemptedEjPKv"
    },
    {
     "mangled_component_name":"_ZN7android7RefBase13onLastWeakRefEPKv"
    }
   ],
   "unique_id":"_ZTSN7android8hardware8vibrator4V1_212BnHwVibratorE"
  },
  {
   "vtable_components":[
    {
     "kind":"vbase_offset",
     "component_value":60
    },
    {
     "kind":"offset_to_top"
    },
    {
     "kind":"rtti",
     "mangled_component_name":"_ZTIN7android8hardware8vibrator4V1_210BsVibratorE"
    },
    {
     "mangled_component_name":"_ZNK7android8hardware8vibrator4V1_29IVibrator8isRemoteEv"
    },
    {
     "mangled_component_name":"_ZN7android8hardware8vibrator4V1_210BsVibrator14interfaceChainENSt3__18functionIFvRKNS0_8hidl_vecINS0_11hidl_stringEEEEEE"
    },
    {
     "mangled_component_name":"_ZN7android8hardware8vibrator4V1_210BsVibrator5debugERKNS0_11hidl_handleERKNS0_8hidl_vecINS0_11hidl_stringEEE"
    },
    {
     "mangled_component_name":"_ZN7android8hardware8vibrator4V1_210BsVibrator19interfaceDescriptorENSt3__18functionIFvRKNS0_11hidl_stringEEEE"
    },
    {
     "mangled_component_name":"_ZN7android8hardware8vibrator4V1_210BsVibrator12getHashChainENSt3__18functionIFvRKNS0_8hidl_vecINS0_10hidl_arrayIhLj32EJEEEEEEEE"
    },
    {
     "mangled_component_name":"_ZN7android8hardware8vibrator4V1_210BsVibrator21setHALInstrumentationEv"
    },
    {
     "mangled_component_name":"_ZN7android8hardware8vibrator4V1_210BsVibrator11linkToDeathERKNS_2spINS0_20hidl_death_recipientEEEy"
    },
    {
     "mangled_component_name":"_ZN7android8hardware8vibrator4V1_210BsVibrator4pingEv"
    },
    {
     "mangled_component_name":"_ZN7android8hardware8vibrator4V1_210BsVibrator12getDebugInfoENSt3__18functionIFvRKNS_4hidl4base4V1_09DebugInfoEEEE"
    },
    {
     "mangled_component_name":"_ZN7android8hardware8vibrator4V1_210BsVibrator21notifySyspropsChangedEv"
    },
    {
     "mangled_component_name":"_ZN7android8hardware8vibrator4V1_210BsVibrator13unlinkToDeathERKNS_2spINS0_20hidl_death_recipientEEE"
    },
    {
     "kind":"complete_dtor_pointer",
     "mangled_component_name":"_ZN7android8hardware8vibrator4V1_210BsVibratorD1Ev"
    },
    {
     "kind":"deleting_dtor_pointer",
     "mangled_component_name":"_ZN7android8hardware8vibrator4V1_210BsVibratorD0Ev"
    },
    {
     "mangled_component_name":"_ZN7android8hardware8vibrator4V1_210BsVibrator2onEj"
    },
    {
     "mangled_component_name":"_ZN7android8hardware8vibrator4V1_210BsVibrator3offEv"
    },
    {
     "mangled_component_name":"_ZN7android8hardware8vibrator4V1_210BsVibrator24supportsAmplitudeControlEv"
    },
    {
     "mangled_component_name":"_ZN7android8hardware8vibrator4V1_210BsVibrator12setAmplitudeEh"
    },
    {
     "mangled_component_name":"_ZN7android8hardware8vibrator4V1_210BsVibrator7performENS1_4V1_06EffectENS4_14EffectStrengthENSt3__18functionIFvNS4_6StatusEjEEE"
    },
    {
     "mangled_component_name":"_ZN7android8hardware8vibrator4V1_210BsVibrator11perform_1_1ENS1_4V1_110Effect_1_1ENS1_4V1_014EffectStrengthENSt3__18functionIFvNS6_6StatusEjEEE"
    },
    {
     "mangled_component_name":"_ZN7android8hardware8vibrator4V1_210BsVibrator11perform_1_2ENS2_6EffectENS1_4V1_014EffectStrengthENSt3__18functionIFvNS5_6StatusEjEEE"
    },
    {
     "kind":"offset_to_top",
     "component_value":-4
    },
    {
     "kind":"rtti",
     "mangled_component_name":"_ZTIN7android8hardware8vibrator4V1_210BsVibratorE"
    },
    {
     "kind":"complete_dtor_pointer",
     "mangled_component_name":"_ZThn4_N7android8hardware8vibrator4V1_210BsVibratorD1Ev"
    },
    {
     "kind":"deleting_dtor_pointer",
     "mangled_component_name":"_ZThn4_N7android8hardware8vibrator4V1_210BsVibratorD0Ev"
    },
    {
     "kind":"vcall_offset"
    },
    {
     "kind":"vcall_offset"
    },
    {
     "kind":"vcall_offset"
    },
    {
     "kind":"vcall_offset"
    },
    {
     "kind":"vcall_offset",
     "component_value":-60
    },
    {
     "kind":"offset_to_top",
     "component_value":-60
    },
    {
     "kind":"rtti",
     "mangled_component_name":"_ZTIN7android8hardware8vibrator4V1_210BsVibratorE"
    },
    {
     "kind":"complete_dtor_pointer",
     "mangled_component_name":"_ZTv0_n12_N7android8hardware8vibrator4V1_210BsVibratorD1Ev"
    },
    {
     "kind":"deleting_dtor_pointer",
     "mangled_component_name":"_ZTv0_n12_N7android8hardware8vibrator4V1_210BsVibratorD0Ev"
    },
    {
     "mangled_component_name":"_ZN7android7RefBase10onFirstRefEv"
    },
    {
     "mangled_component_name":"_ZN7android7RefBase15onLastStrongRefEPKv"
    },
    {
     "mangled_component_name":"_ZN7android7RefBase20onIncStrongAttemptedEjPKv"
    },
    {
     "mangled_component_name":"_ZN7android7RefBase13onLastWeakRefEPKv"
    }
   ],
   "unique_id":"_ZTSN7android8hardware8vibrator4V1_210BsVibratorE"
  },
  {
   "vtable_components":[
    {
     "kind":"vbase_offset",
     "component_value":84
    },
    {
     "kind":"offset_to_top"
    },
    {
     "kind":"rtti",
     "mangled_component_name":"_ZTIN7android8hardware8vibrator4V1_212BpHwVibratorE"
    },
    {
     "mangled_component_name":"_ZNK7android8hardware8vibrator4V1_212BpHwVibrator8isRemoteEv"
    },
    {
     "mangled_component_name":"_ZN7android8hardware8vibrator4V1_212BpHwVibrator14interfaceChainENSt3__18functionIFvRKNS0_8hidl_vecINS0_11hidl_stringEEEEEE"
    },
    {
     "mangled_component_name":"_ZN7android8hardware8vibrator4V1_212BpHwVibrator5debugERKNS0_11hidl_handleERKNS0_8hidl_vecINS0_11hidl_stringEEE"
    },
    {
     "mangled_component_name":"_ZN7android8hardware8vibrator4V1_212BpHwVibrator19interfaceDescriptorENSt3__18functionIFvRKNS0_11hidl_stringEEEE"
    },
    {
     "mangled_component_name":"_ZN7android8hardware8vibrator4V1_212BpHwVibrator12getHashChainENSt3__18functionIFvRKNS0_8hidl_vecINS0_10hidl_arrayIhLj32EJEEEEEEEE"
    },
    {
     "mangled_component_name":"_ZN7android8hardware8vibrator4V1_212BpHwVibrator21setHALInstrumentationEv"
    },
    {
     "mangled_component_name":"_ZN7android8hardware8vibrator4V1_212BpHwVibrator11linkToDeathERKNS_2spINS0_20hidl_death_recipientEEEy"
    },
    {
     "mangled_component_name":"_ZN7android8hardware8vibrator4V1_212BpHwVibrator4pingEv"
    },
    {
     "mangled_component_name":"_ZN7android8hardware8vibrator4V1_212BpHwVibrator12getDebugInfoENSt3__18functionIFvRKNS_4hidl4base4V1_09DebugInfoEEEE"
    },
    {
     "mangled_component_name":"_ZN7android8hardware8vibrator4V1_212BpHwVibrator21notifySyspropsChangedEv"
    },
    {
     "mangled_component_name":"_ZN7android8hardware8vibrator4V1_212BpHwVibrator13unlinkToDeathERKNS_2spINS0_20hidl_death_recipientEEE"
    },
    {
     "kind":"complete_dtor_pointer",
     "mangled_component_name":"_ZN7android8hardware8vibrator4V1_212BpHwVibratorD1Ev"
    },
    {
     "kind":"deleting_dtor_pointer",
     "mangled_component_name":"_ZN7android8hardware8vibrator4V1_212BpHwVibratorD0Ev"
    },
    {
     "mangled_component_name":"_ZN7android8hardware8vibrator4V1_212BpHwVibrator2onEj"
    },
    {
     "mangled_component_name":"_ZN7android8hardware8vibrator4V1_212BpHwVibrator3offEv"
    },
    {
     "mangled_component_name":"_ZN7android8hardware8vibrator4V1_212BpHwVibrator24supportsAmplitudeControlEv"
    },
    {
     "mangled_component_name":"_ZN7android8hardware8vibrator4V1_212BpHwVibrator12setAmplitudeEh"
    },
    {
     "mangled_component_name":"_ZN7android8hardware8vibrator4V1_212BpHwVibrator7performENS1_4V1_06EffectENS4_14EffectStrengthENSt3__18functionIFvNS4_6StatusEjEEE"
    },
    {
     "mangled_component_name":"_ZN7android8hardware8vibrator4V1_212BpHwVibrator11perform_1_1ENS1_4V1_110Effect_1_1ENS1_4V1_014EffectStrengthENSt3__18functionIFvNS6_6StatusEjEEE"
    },
    {
     "mangled_component_name":"_ZN7android8hardware8vibrator4V1_212BpHwVibrator11perform_1_2ENS2_6EffectENS1_4V1_014EffectStrengthENSt3__18functionIFvNS5_6StatusEjEEE"
    },
    {
     "mangled_component_name":"_ZN7android8hardware11BpInterfaceINS0_8vibrator4V1_29IVibratorEE10onAsBinderEv"
    },
    {
     "kind":"vbase_offset",
     "component_value":80
    },
    {
     "kind":"offset_to_top",
     "component_value":-4
    },
    {
     "kind":"rtti",
     "mangled_component_name":"_ZTIN7android8hardware8vibrator4V1_212BpHwVibratorE"
    },
    {
     "kind":"complete_dtor_pointer",
     "mangled_component_name":"_ZThn4_N7android8hardware8vibrator4V1_212BpHwVibratorD1Ev"
    },
    {
     "kind":"deleting_dtor_pointer",
     "mangled_component_name":"_ZThn4_N7android8hardware8vibrator4V1_212BpHwVibratorD0Ev"
    },
    {
     "mangled_component_name":"_ZThn4_N7android8hardware11BpInterfaceINS0_8vibrator4V1_29IVibratorEE10onAsBinderEv"
    },
    {
     "kind":"vbase_offset",
     "component_value":76
    },
    {
     "kind":"offset_to_top",
     "component_value":-8
    },
    {
     "kind":"rtti",
     "mangled_component_name":"_ZTIN7android8hardware8vibrator4V1_212BpHwVibratorE"
    },
    {
     "kind":"complete_dtor_pointer",
     "mangled_component_name":"_ZThn8_N7android8hardware8vibrator4V1_212BpHwVibratorD1Ev"
    },
    {
     "kind":"deleting_dtor_pointer",
     "mangled_component_name":"_ZThn8_N7android8hardware8vibrator4V1_212BpHwVibratorD0Ev"
    },
    {
     "mangled_component_name":"_ZN7android8hardware11BpHwRefBase10onFirstRefEv"
    },
    {
     "mangled_component_name":"_ZN7android8hardware11BpHwRefBase15onLastStrongRefEPKv"
    },
    {
     "mangled_component_name":"_ZN7android8hardware11BpHwRefBase20onIncStrongAttemptedEjPKv"
    },
    {
     "kind":"offset_to_top",
     "component_value":-24
    },
    {
     "kind":"rtti",
     "mangled_component_name":"_ZTIN7android8hardware8vibrator4V1_212BpHwVibratorE"
    },
    {
     "kind":"complete_dtor_pointer",
     "mangled_component_name":"_ZThn24_N7android8hardware8vibrator4V1_212BpHwVibratorD1Ev"
    },
    {
     "kind":"deleting_dtor_pointer",
     "mangled_component_name":"_ZThn24_N7android8hardware8vibrator4V1_212BpHwVibratorD0Ev"
    },
    {
     "kind":"vcall_offset"
    },
    {
     "kind":"vcall_offset",
     "component_value":-76
    },
    {
     "kind":"vcall_offset",
     "component_value":-76
    },
    {
     "kind":"vcall_offset",
     "component_value":-76
    },
    {
     "kind":"vcall_offset",
     "component_value":-84
    },
    {
     "kind":"offset_to_top",
     "component_value":-84
    },
    {
     "kind":"rtti",
     "mangled_component_name":"_ZTIN7android8hardware8vibrator4V1_212BpHwVibratorE"
    },
    {
     "kind":"complete_dtor_pointer",
     "mangled_component_name":"_ZTv0_n12_N7android8hardware8vibrator4V1_212BpHwVibratorD1Ev"
    },
    {
     "kind":"deleting_dtor_pointer",
     "mangled_component_name":"_ZTv0_n12_N7android8hardware8vibrator4V1_212BpHwVibratorD0Ev"
    },
    {
     "mangled_component_name":"_ZTv0_n16_N7android8hardware11BpHwRefBase10onFirstRefEv"
    },
    {
     "mangled_component_name":"_ZTv0_n20_N7android8hardware11BpHwRefBase15onLastStrongRefEPKv"
    },
    {
     "mangled_component_name":"_ZTv0_n24_N7android8hardware11BpHwRefBase20onIncStrongAttemptedEjPKv"
    },
    {
     "mangled_component_name":"_ZN7android7RefBase13onLastWeakRefEPKv"
    }
   ],
   "unique_id":"_ZTSN7android8hardware8vibrator4V1_212BpHwVibratorE"
  }
 ],
 "elf_functions":[
  {
   "binding":"weak",
   "name":"_ZN7android8hardware7details13castInterfaceINS0_8vibrator4V1_29IVibratorENS3_4V1_09IVibratorENS4_12BpHwVibratorEEENS0_6ReturnINS_2spIT_EEEENSA_IT0_EEPKcb"
  },
  {
   "binding":"weak",
   "name":"_ZN7android8hardware7details13castInterfaceINS0_8vibrator4V1_29IVibratorENS3_4V1_19IVibratorENS4_12BpHwVibratorEEENS0_6ReturnINS_2spIT_EEEENSA_IT0_EEPKcb"
  },
  {
   "binding":"weak",
   "name":"_ZN7android8hardware7details13castInterfaceINS0_8vibrator4V1_29IVibratorENS_4hidl4base4V1_05IBaseENS4_12BpHwVibratorEEENS0_6ReturnINS_2spIT_EEEENSC_IT0_EEPKcb"
  },
  {
   "binding":"weak",
   "name":"_ZN7android8hardware7details18getServiceInternalINS0_8vibrator4V1_212BpHwVibratorENS4_9IVibratorEvvEENS_2spIT0_EERKNSt3__112basic_stringIcNSA_11char_traitsIcEENSA_9allocatorIcEEEEbb"
  },
  {
   "binding":"weak",
   "name":"_ZN7android8hardware8toBinderINS0_8vibrator4V1_09IVibratorEvEENS_2spINS0_7IBinderEEENS5_IT_EE"
  },
  {
   "binding":"weak",
   "name":"_ZN7android8hardware8toBinderINS0_8vibrator4V1_19IVibratorEvEENS_2spINS0_7IBinderEEENS5_IT_EE"
  },
  {
   "binding":"weak",
   "name":"_ZN7android8hardware8toBinderINS_4hidl4base4V1_05IBaseEvEENS_2spINS0_7IBinderEEENS6_IT_EE"
  },
  {
   "name":"_ZN7android8hardware8vibrator4V1_210BsVibrator13addOnewayTaskENSt3__18functionIFvvEEE"
  },
  {
   "name":"_ZN7android8hardware8vibrator4V1_210BsVibratorC1ENS_2spINS2_9IVibratorEEE"
  },
  {
   "name":"_ZN7android8hardware8vibrator4V1_210BsVibratorC2ENS_2spINS2_9IVibratorEEE"
  },
  {
   "name":"_ZN7android8hardware8vibrator4V1_212BnHwVibrator10onTransactEjRKNS0_6ParcelEPS4_jNSt3__18functionIFvRS4_EEE"
  },
  {
   "name":"_ZN7android8hardware8vibrator4V1_212BnHwVibrator12getDebugInfoENSt3__18functionIFvRKNS_4hidl4base4V1_09DebugInfoEEEE"
  },
  {
   "name":"_ZN7android8hardware8vibrator4V1_212BnHwVibrator17_hidl_perform_1_2EPNS_4hidl4base4V1_08BnHwBaseERKNS0_6ParcelEPS9_NSt3__18functionIFvRS9_EEE"
  },
  {
   "name":"_ZN7android8hardware8vibrator4V1_212BnHwVibrator4pingEv"
  },
  {
   "name":"_ZN7android8hardware8vibrator4V1_212BnHwVibratorC1ERKNS_2spINS2_9IVibratorEEE"
  },
  {
   "name":"_ZN7android8hardware8vibrator4V1_212BnHwVibratorC2ERKNS_2spINS2_9IVibratorEEE"
  },
  {
   "name":"_ZN7android8hardware8vibrator4V1_212BnHwVibratorD0Ev"
  },
  {
   "name":"_ZN7android8hardware8vibrator4V1_212BnHwVibratorD1Ev"
  },
  {
   "name":"_ZN7android8hardware8vibrator4V1_212BnHwVibratorD2Ev"
  },
  {
   "name":"_ZN7android8hardware8vibrator4V1_212BpHwVibrator11linkToDeathERKNS_2spINS0_20hidl_death_recipientEEEy"
  },
  {
   "name":"_ZN7android8hardware8vibrator4V1_212BpHwVibrator11perform_1_1ENS1_4V1_110Effect_1_1ENS1_4V1_014EffectStrengthENSt3__18functionIFvNS6_6StatusEjEEE"
  },
  {
   "name":"_ZN7android8hardware8vibrator4V1_212BpHwVibrator11perform_1_2ENS2_6EffectENS1_4V1_014EffectStrengthENSt3__18functionIFvNS5_6StatusEjEEE"
  },
  {
   "name":"_ZN7android8hardware8vibrator4V1_212BpHwVibrator12getDebugInfoENSt3__18functionIFvRKNS_4hidl4base4V1_09DebugInfoEEEE"
  },
  {
   "name":"_ZN7android8hardware8vibrator4V1_212BpHwVibrator12getHashChainENSt3__18functionIFvRKNS0_8hidl_vecINS0_10hidl_arrayIhLj32EJEEEEEEEE"
  },
  {
   "name":"_ZN7android8hardware8vibrator4V1_212BpHwVibrator12setAmplitudeEh"
  },
  {
   "name":"_ZN7android8hardware8vibrator4V1_212BpHwVibrator13unlinkToDeathERKNS_2spINS0_20hidl_death_recipientEEE"
  },
  {
   "name":"_ZN7android8hardware8vibrator4V1_212BpHwVibrator14interfaceChainENSt3__18functionIFvRKNS0_8hidl_vecINS0_11hidl_stringEEEEEE"
  },
  {
   "name":"_ZN7android8hardware8vibrator4V1_212BpHwVibrator17_hidl_perform_1_2EPNS0_10IInterfaceEPNS0_7details16HidlInstrumentorENS2_6EffectENS1_4V1_014EffectStrengthENSt3__18functionIFvNSA_6StatusEjEEE"
  },
  {
   "name":"_ZN7android8hardware8vibrator4V1_212BpHwVibrator19interfaceDescriptorENSt3__18functionIFvRKNS0_11hidl_stringEEEE"
  },
  {
   "name":"_ZN7android8hardware8vibrator4V1_212BpHwVibrator21notifySyspropsChangedEv"
  },
  {
   "name":"_ZN7android8hardware8vibrator4V1_212BpHwVibrator21setHALInstrumentationEv"
  },
  {
   "name":"_ZN7android8hardware8vibrator4V1_212BpHwVibrator24supportsAmplitudeControlEv"
  },
  {
   "name":"_ZN7android8hardware8vibrator4V1_212BpHwVibrator2onEj"
  },
  {
   "name":"_ZN7android8hardware8vibrator4V1_212BpHwVibrator3offEv"
  },
  {
   "name":"_ZN7android8hardware8vibrator4V1_212BpHwVibrator4pingEv"
  },
  {
   "name":"_ZN7android8hardware8vibrator4V1_212BpHwVibrator5debugERKNS0_11hidl_handleERKNS0_8hidl_vecINS0_11hidl_stringEEE"
  },
  {
   "name":"_ZN7android8hardware8vibrator4V1_212BpHwVibrator7performENS1_4V1_06EffectENS4_14EffectStrengthENSt3__18functionIFvNS4_6StatusEjEEE"
  },
  {
   "name":"_ZN7android8hardware8vibrator4V1_212BpHwVibratorC1ERKNS_2spINS0_7IBinderEEE"
  },
  {
   "name":"_ZN7android8hardware8vibrator4V1_212BpHwVibratorC2ERKNS_2spINS0_7IBinderEEE"
  },
  {
   "name":"_ZN7android8hardware8vibrator4V1_29IVibrator10getServiceERKNSt3__112basic_stringIcNS4_11char_traitsIcEENS4_9allocatorIcEEEEb"
  },
  {
   "name":"_ZN7android8hardware8vibrator4V1_29IVibrator11linkToDeathERKNS_2spINS0_20hidl_death_recipientEEEy"
  },
  {
   "name":"_ZN7android8hardware8vibrator4V1_29IVibrator12getDebugInfoENSt3__18functionIFvRKNS_4hidl4base4V1_09DebugInfoEEEE"
  },
  {
   "name":"_ZN7android8hardware8vibrator4V1_29IVibrator12getHashChainENSt3__18functionIFvRKNS0_8hidl_vecINS0_10hidl_arrayIhLj32EJEEEEEEEE"
  },
  {
   "name":"_ZN7android8hardware8vibrator4V1_29IVibrator13tryGetServiceERKNSt3__112basic_stringIcNS4_11char_traitsIcEENS4_9allocatorIcEEEEb"
  },
  {
   "name":"_ZN7android8hardware8vibrator4V1_29IVibrator13unlinkToDeathERKNS_2spINS0_20hidl_death_recipientEEE"
  },
  {
   "name":"_ZN7android8hardware8vibrator4V1_29IVibrator14interfaceChainENSt3__18functionIFvRKNS0_8hidl_vecINS0_11hidl_stringEEEEEE"
  },
  {
   "name":"_ZN7android8hardware8vibrator4V1_29IVibrator17registerAsServiceERKNSt3__112basic_stringIcNS4_11char_traitsIcEENS4_9allocatorIcEEEE"
  },
  {
   "name":"_ZN7android8hardware8vibrator4V1_29IVibrator19interfaceDescriptorENSt3__18functionIFvRKNS0_11hidl_stringEEEE"
  },
  {
   "name":"_ZN7android8hardware8vibrator4V1_29IVibrator21notifySyspropsChangedEv"
  },
  {
   "name":"_ZN7android8hardware8vibrator4V1_29IVibrator21setHALInstrumentationEv"
  },
  {
   "name":"_ZN7android8hardware8vibrator4V1_29IVibrator24registerForNotificationsERKNSt3__112basic_stringIcNS4_11char_traitsIcEENS4_9allocatorIcEEEERKNS_2spINS_4hidl7manager4V1_020IServiceNotificationEEE"
  },
  {
   "name":"_ZN7android8hardware8vibrator4V1_29IVibrator4pingEv"
  },
  {
   "name":"_ZN7android8hardware8vibrator4V1_29IVibrator5debugERKNS0_11hidl_handleERKNS0_8hidl_vecINS0_11hidl_stringEEE"
  },
  {
   "name":"_ZN7android8hardware8vibrator4V1_29IVibrator8castFromERKNS_2spINS1_4V1_09IVibratorEEEb"
  },
  {
   "name":"_ZN7android8hardware8vibrator4V1_29IVibrator8castFromERKNS_2spINS1_4V1_19IVibratorEEEb"
  },
  {
   "name":"_ZN7android8hardware8vibrator4V1_29IVibrator8castFromERKNS_2spINS_4hidl4base4V1_05IBaseEEEb"
  },
  {
   "name":"_ZN7android8hardware8vibrator4V1_29IVibrator8castFromERKNS_2spIS3_EEb"
  },
  {
   "name":"_ZThn20_N7android8hardware8vibrator4V1_212BnHwVibratorD0Ev"
  },
  {
   "name":"_ZThn20_N7android8hardware8vibrator4V1_212BnHwVibratorD1Ev"
  },
  {
   "name":"_ZTv0_n12_N7android8hardware8vibrator4V1_212BnHwVibratorD0Ev"
  },
  {
   "name":"_ZTv0_n12_N7android8hardware8vibrator4V1_212BnHwVibratorD1Ev"
  }
 ],
 "elf_objects":[
  {
   "name":"_ZN7android8hardware8vibrator4V1_29IVibrator10descriptorE"
  },
  {
   "name":"_ZTTN7android8hardware8vibrator4V1_212BnHwVibratorE"
  },
  {
   "name":"_ZTTN7android8hardware8vibrator4V1_212BpHwVibratorE"
  },
  {
   "name":"_ZTTN7android8hardware8vibrator4V1_29IVibratorE"
  },
  {
   "binding":"weak",
   "name":"_ZTVN7android8hardware8vibrator4V1_210BsVibratorE"
  },
  {
   "name":"_ZTVN7android8hardware8vibrator4V1_212BnHwVibratorE"
  },
  {
   "name":"_ZTVN7android8hardware8vibrator4V1_212BpHwVibratorE"
  },
  {
   "name":"_ZTVN7android8hardware8vibrator4V1_29IVibratorE"
  }
 ]
}