{
 "record_types":[
  {
   "vtable_components":[
    {
     "kind":"offset_to_top"
    },
    {
     "kind":"rtti",
     "mangled_component_name":"_ZTIN7android8sysutils4ListIP12SocketClientEE"
    },
    {
     "kind":"complete_dtor_pointer",
     "mangled_component_name":"_ZN7android8sysutils4ListIP12SocketClientED1Ev"
    },
    {
     "kind":"deleting_dtor_pointer",
     "mangled_component_name":"_ZN7android8sysutils4ListIP12SocketClientED0Ev"
    }
   ],
   "unique_id":"_ZTSN7android8sysutils4ListIP12SocketClientEE"
  },
  {
   "vtable_components":[
    {
     "kind":"offset_to_top"
    },
    {
     "kind":"rtti",
     "mangled_component_name":"_ZTI15NetlinkListener"
    },
    {
     "kind":"complete_dtor_pointer",
     "mangled_component_name":"_ZN15NetlinkListenerD1Ev"
    },
    {
     "kind":"deleting_dtor_pointer",
     "mangled_component_name":"_ZN15NetlinkListenerD0Ev"
    },
    {
     "mangled_component_name":"_ZN15NetlinkListener15onDataAvailableEP12SocketClient"
    },
    {
     "is_pure":true,
     "mangled_component_name":"_ZN15NetlinkListener7onEventEP12NetlinkEvent"
    }
   ],
   "unique_id":"_ZTS15NetlinkListener"
  },
  {
   "vtable_components":[
    {
     "kind":"offset_to_top"
    },
    {
     "kind":"rtti",
     "mangled_component_name":"_ZTI12NetlinkEvent"
    },
    {
     "kind":"complete_dtor_pointer",
     "mangled_component_name":"_ZN12NetlinkEventD1Ev"
    },
    {
     "kind":"deleting_dtor_pointer",
     "mangled_component_name":"_ZN12NetlinkEventD0Ev"
    }
   ],
   "unique_id":"_ZTS12NetlinkEvent"
  },
  {
   "vtable_components":[
    {
     "kind":"offset_to_top"
    },
    {
     "kind":"rtti",
     "mangled_component_name":"_ZTI14ServiceManager"
    },
    {
     "kind":"complete_dtor_pointer",
     "mangled_component_name":"_ZN14ServiceManagerD1Ev"
    },
    {
     "kind":"deleting_dtor_pointer",
     "mangled_component_name":"_ZN14ServiceManagerD0Ev"
    }
   ],
   "unique_id":"_ZTS14ServiceManager"
  },
  {
   "vtable_components":[
    {
     "kind":"offset_to_top"
    },
    {
     "kind":"rtti",
     "mangled_component_name":"_ZTI12SocketClient"
    },
    {
     "kind":"complete_dtor_pointer",
     "mangled_component_name":"_ZN12SocketClientD1Ev"
    },
    {
     "kind":"deleting_dtor_pointer",
     "mangled_component_name":"_ZN12SocketClientD0Ev"
    }
   ],
   "unique_id":"_ZTS12SocketClient"
  },
  {
   "vtable_components":[
    {
     "kind":"offset_to_top"
    },
    {
     "kind":"rtti",
     "mangled_component_name":"_ZTI14SocketListener"
    },
    {
     "kind":"complete_dtor_pointer",
     "mangled_component_name":"_ZN14SocketListenerD1Ev"
    },
    {
     "kind":"deleting_dtor_pointer",
     "mangled_component_name":"_ZN14SocketListenerD0Ev"
    },
    {
     "is_pure":true,
     "mangled_component_name":"_ZN14SocketListener15onDataAvailableEP12SocketClient"
    }
   ],
   "unique_id":"_ZTS14SocketListener"
  },
  {
   "vtable_components":[
    {
     "kind":"offset_to_top"
    },
    {
     "kind":"rtti",
     "mangled_component_name":"_ZTIN7android8sysutils4ListIP16FrameworkCommandEE"
    },
    {
     "kind":"complete_dtor_pointer",
     "mangled_component_name":"_ZN7android8sysutils4ListIP16FrameworkCommandED1Ev"
    },
    {
     "kind":"deleting_dtor_pointer",
     "mangled_component_name":"_ZN7android8sysutils4ListIP16FrameworkCommandED0Ev"
    }
   ],
   "unique_id":"_ZTSN7android8sysutils4ListIP16FrameworkCommandEE"
  },
  {
   "vtable_components":[
    {
     "kind":"offset_to_top"
    },
    {
     "kind":"rtti",
     "mangled_component_name":"_ZTI16FrameworkCommand"
    },
    {
     "kind":"complete_dtor_pointer",
     "mangled_component_name":"_ZN16FrameworkCommandD1Ev"
    },
    {
     "kind":"deleting_dtor_pointer",
     "mangled_component_name":"_ZN16FrameworkCommandD0Ev"
    },
    {
     "is_pure":true,
     "mangled_component_name":"_ZN16FrameworkCommand10runCommandEP12SocketClientiPPc"
    }
   ],
   "unique_id":"_ZTS16FrameworkCommand"
  },
  {
   "vtable_components":[
    {
     "kind":"offset_to_top"
    },
    {
     "kind":"rtti",
     "mangled_component_name":"_ZTI17FrameworkListener"
    },
    {
     "kind":"complete_dtor_pointer",
     "mangled_component_name":"_ZN17FrameworkListenerD1Ev"
    },
    {
     "kind":"deleting_dtor_pointer",
     "mangled_component_name":"_ZN17FrameworkListenerD0Ev"
    },
    {
     "mangled_component_name":"_ZN17FrameworkListener15onDataAvailableEP12SocketClient"
    }
   ],
   "unique_id":"_ZTS17FrameworkListener"
  }
 ],
 "elf_functions":[
  {
   "name":"_ZN12NetlinkEvent10findNlAttrEPK8nlmsghdrjt"
  },
  {
   "name":"_ZN12NetlinkEvent14parseRtMessageEPK8nlmsghdr"
  },
  {
   "name":"_ZN12NetlinkEvent18parseIfAddrMessageEPK8nlmsghdr"
  },
  {
   "name":"_ZN12NetlinkEvent18parseIfInfoMessageEPK8nlmsghdr"
  },
  {
   "name":"_ZN12NetlinkEvent20parseNfPacketMessageEP8nlmsghdr"
  },
  {
   "name":"_ZN12NetlinkEvent21parseNdUserOptMessageEPK8nlmsghdr"
  },
  {
   "name":"_ZN12NetlinkEvent22parseUlogPacketMessageEPK8nlmsghdr"
  },
  {
   "name":"_ZN12NetlinkEvent24parseAsciiNetlinkMessageEPci"
  },
  {
   "name":"_ZN12NetlinkEvent25parseBinaryNetlinkMessageEPci"
  },
  {
   "name":"_ZN12NetlinkEvent4dumpEv"
  },
  {
   "name":"_ZN12NetlinkEvent6decodeEPcii"
  },
  {
   "name":"_ZN12NetlinkEvent9findParamEPKc"
  },
  {
   "name":"_ZN12NetlinkEventC1Ev"
  },
  {
   "name":"_ZN12NetlinkEventC2Ev"
  },
  {
   "name":"_ZN12NetlinkEventD0Ev"
  },
  {
   "name":"_ZN12NetlinkEventD1Ev"
  },
  {
   "name":"_ZN12NetlinkEventD2Ev"
  },
  {
   "name":"_ZN12SocketClient13sendBinaryMsgEiPKvi"
  },
  {
   "name":"_ZN12SocketClient15sendDataLockedvEP5ioveci"
  },
  {
   "name":"_ZN12SocketClient4initEibb"
  },
  {
   "name":"_ZN12SocketClient6decRefEv"
  },
  {
   "name":"_ZN12SocketClient6incRefEv"
  },
  {
   "name":"_ZN12SocketClient7sendMsgEPKc"
  },
  {
   "name":"_ZN12SocketClient7sendMsgEiPKcb"
  },
  {
   "name":"_ZN12SocketClient7sendMsgEiPKcbb"
  },
  {
   "name":"_ZN12SocketClient8quoteArgEPKc"
  },
  {
   "name":"_ZN12SocketClient8sendCodeEi"
  },
  {
   "name":"_ZN12SocketClient8sendDataEPKvi"
  },
  {
   "name":"_ZN12SocketClient9sendDatavEP5ioveci"
  },
  {
   "name":"_ZN12SocketClientC1Eib"
  },
  {
   "name":"_ZN12SocketClientC1Eibb"
  },
  {
   "name":"_ZN12SocketClientC2Eib"
  },
  {
   "name":"_ZN12SocketClientC2Eibb"
  },
  {
   "name":"_ZN12SocketClientD0Ev"
  },
  {
   "name":"_ZN12SocketClientD1Ev"
  },
  {
   "name":"_ZN12SocketClientD2Ev"
  },
  {
   "name":"_ZN14ServiceManager4stopEPKc"
  },
  {
   "name":"_ZN14ServiceManager5startEPKc"
  },
  {
   "name":"_ZN14ServiceManager9isRunningEPKc"
  },
  {
   "name":"_ZN14ServiceManagerC1Ev"
  },
  {
   "name":"_ZN14ServiceManagerC2Ev"
  },
  {
   "name":"_ZN14SocketListener11runListenerEv"
  },
  {
   "name":"_ZN14SocketListener11threadStartEPv"
  },
  {
   "name":"_ZN14SocketListener12stopListenerEv"
  },
  {
   "name":"_ZN14SocketListener13sendBroadcastEiPKcb"
  },
  {
   "name":"_ZN14SocketListener13startListenerEi"
  },
  {
   "name":"_ZN14SocketListener13startListenerEv"
  },
  {
   "name":"_ZN14SocketListener15runOnEachSocketEP19SocketClientCommand"
  },
  {
   "name":"_ZN14SocketListener4initEPKcibb"
  },
  {
   "name":"_ZN14SocketListener7releaseEP12SocketClientb"
  },
  {
   "name":"_ZN14SocketListenerC2EPKcb"
  },
  {
   "name":"_ZN14SocketListenerC2EPKcbb"
  },
  {
   "name":"_ZN14SocketListenerC2Eib"
  },
  {
   "name":"_ZN14SocketListenerD0Ev"
  },
  {
   "name":"_ZN14SocketListenerD1Ev"
  },
  {
   "name":"_ZN14SocketListenerD2Ev"
  },
  {
   "name":"_ZN15NetlinkListener15onDataAvailableEP12SocketClient"
  },
  {
   "name":"_ZN15NetlinkListenerC2Ei"
  },
  {
   "name":"_ZN15NetlinkListenerC2Eii"
  },
  {
   "name":"_ZN16FrameworkCommand10runCommandEP12SocketClientiPPc"
  },
  {
   "name":"_ZN16FrameworkCommandC2EPKc"
  },
  {
   "name":"_ZN17FrameworkListener11registerCmdEP16FrameworkCommand"
  },
  {
   "name":"_ZN17FrameworkListener15dispatchCommandEP12SocketClientPc"
  },
  {
   "name":"_ZN17FrameworkListener15onDataAvailableEP12SocketClient"
  },
  {
   "name":"_ZN17FrameworkListener4initEPKcb"
  },
  {
   "name":"_ZN17FrameworkListenerC1EPKc"
  },
  {
   "name":"_ZN17FrameworkListenerC1EPKcb"
  },
  {
   "name":"_ZN17FrameworkListenerC1Ei"
  },
  {
   "name":"_ZN17FrameworkListenerC2EPKc"
  },
  {
   "name":"_ZN17FrameworkListenerC2EPKcb"
  },
  {
   "name":"_ZN17FrameworkListenerC2Ei"
  }
 ],
 "elf_objects":[
  {
   "name":"_ZTV12NetlinkEvent"
  },
  {
   "name":"_ZTV12SocketClient"
  },
  {
   "binding":"weak",
   "name":"_ZTV14ServiceManager"
  },
  {
   "name":"_ZTV14SocketListener"
  },
  {
   "name":"_ZTV15NetlinkListener"
  },
  {
   "binding":"weak",
   "name":"_ZTV16FrameworkCommand"
  },
  {
   "name":"_ZTV17FrameworkListener"
  },
  {
   "binding":"weak",
   "name":"_ZTVN7android8sysutils4ListIP12SocketClientEE"
  },
  {
   "binding":"weak",
   "name":"_ZTVN7android8sysutils4ListIP16FrameworkCommandEE"
  }
 ]
}