{
 "array_types" :
 [
  {
   "alignment" : 4,
   "linker_set_key" : "_ZTIA0_i",
   "name" : "int [0]",
   "referenced_type" : "_ZTIi",
   "self_type" : "_ZTIA0_i",
   "source_file" : "/system/core/libcutils/include/cutils/native_handle.h"
  },
  {
   "alignment" : 1,
   "linker_set_key" : "_ZTIA32_h",
   "name" : "unsigned char [32]",
   "referenced_type" : "_ZTIh",
   "self_type" : "_ZTIA32_h",
   "size" : 32,
   "source_file" : "/system/libhidl/base/include/hidl/HidlSupport.h"
  },
  {
   "alignment" : 1,
   "linker_set_key" : "_ZTIA3_h",
   "name" : "unsigned char [3]",
   "referenced_type" : "_ZTIh",
   "self_type" : "_ZTIA3_h",
   "size" : 3,
   "source_file" : "/system/libhidl/base/include/hidl/HidlSupport.h"
  },
  {
   "alignment" : 1,
   "linker_set_key" : "_ZTIA5121_h",
   "name" : "unsigned char [5121]",
   "referenced_type" : "_ZTIh",
   "self_type" : "_ZTIA5121_h",
   "size" : 5121,
   "source_file" : "/system/core/liblog/include/log/log_read.h"
  },
  {
   "alignment" : 1,
   "linker_set_key" : "_ZTIA64_c",
   "name" : "char [64]",
   "referenced_type" : "_ZTIc",
   "self_type" : "_ZTIA64_c",
   "size" : 64,
   "source_file" : "/system/libhidl/transport/include/hidl/ConcurrentMap.h"
  },
  {
   "alignment" : 1,
   "linker_set_key" : "_ZTIA7_h",
   "name" : "unsigned char [7]",
   "referenced_type" : "_ZTIh",
   "self_type" : "_ZTIA7_h",
   "size" : 7,
   "source_file" : "/system/libhidl/base/include/hidl/HidlSupport.h"
  },
  {
   "alignment" : 4,
   "linker_set_key" : "_ZTIA8_j",
   "name" : "unsigned int [8]",
   "referenced_type" : "_ZTIj",
   "self_type" : "_ZTIA8_j",
   "size" : 32,
   "source_file" : "/system/core/libsystem/include/system/graphics.h"
  },
  {
   "linker_set_key" : "_ZTIA_f",
   "name" : "float []",
   "referenced_type" : "_ZTIf",
   "self_type" : "_ZTIA_f",
   "source_file" : "/system/core/libsystem/include/system/graphics.h"
  }
 ],
 "builtin_types" :
 [
  {
   "alignment" : 2,
   "is_integral" : true,
   "is_unsigned" : true,
   "linker_set_key" : "_ZTIDs",
   "name" : "char16_t",
   "referenced_type" : "_ZTIDs",
   "self_type" : "_ZTIDs",
   "size" : 2
  },
  {
   "alignment" : 1,
   "is_integral" : true,
   "linker_set_key" : "_ZTIa",
   "name" : "signed char",
   "referenced_type" : "_ZTIa",
   "self_type" : "_ZTIa",
   "size" : 1
  },
  {
   "alignment" : 1,
   "is_integral" : true,
   "is_unsigned" : true,
   "linker_set_key" : "_ZTIb",
   "name" : "bool",
   "referenced_type" : "_ZTIb",
   "self_type" : "_ZTIb",
   "size" : 1
  },
  {
   "alignment" : 1,
   "is_integral" : true,
   "linker_set_key" : "_ZTIc",
   "name" : "char",
   "referenced_type" : "_ZTIc",
   "self_type" : "_ZTIc",
   "size" : 1
  },
  {
   "alignment" : 8,
   "linker_set_key" : "_ZTId",
   "name" : "double",
   "referenced_type" : "_ZTId",
   "self_type" : "_ZTId",
   "size" : 8
  },
  {
   "alignment" : 4,
   "linker_set_key" : "_ZTIf",
   "name" : "float",
   "referenced_type" : "_ZTIf",
   "self_type" : "_ZTIf",
   "size" : 4
  },
  {
   "alignment" : 1,
   "is_integral" : true,
   "is_unsigned" : true,
   "linker_set_key" : "_ZTIh",
   "name" : "unsigned char",
   "referenced_type" : "_ZTIh",
   "self_type" : "_ZTIh",
   "size" : 1
  },
  {
   "alignment" : 4,
   "is_integral" : true,
   "linker_set_key" : "_ZTIi",
   "name" : "int",
   "referenced_type" : "_ZTIi",
   "self_type" : "_ZTIi",
   "size" : 4
  },
  {
   "alignment" : 4,
   "is_integral" : true,
   "is_unsigned" : true,
   "linker_set_key" : "_ZTIj",
   "name" : "unsigned int",
   "referenced_type" : "_ZTIj",
   "self_type" : "_ZTIj",
   "size" : 4
  },
  {
   "alignment" : 8,
   "is_integral" : true,
   "linker_set_key" : "_ZTIl",
   "name" : "long",
   "referenced_type" : "_ZTIl",
   "self_type" : "_ZTIl",
   "size" : 8
  },
  {
   "alignment" : 8,
   "is_integral" : true,
   "is_unsigned" : true,
   "linker_set_key" : "_ZTIm",
   "name" : "unsigned long",
   "referenced_type" : "_ZTIm",
   "self_type" : "_ZTIm",
   "size" : 8
  },
  {
   "alignment" : 2,
   "is_integral" : true,
   "linker_set_key" : "_ZTIs",
   "name" : "short",
   "referenced_type" : "_ZTIs",
   "self_type" : "_ZTIs",
   "size" : 2
  },
  {
   "alignment" : 2,
   "is_integral" : true,
   "is_unsigned" : true,
   "linker_set_key" : "_ZTIt",
   "name" : "unsigned short",
   "referenced_type" : "_ZTIt",
   "self_type" : "_ZTIt",
   "size" : 2
  },
  {
   "linker_set_key" : "_ZTIv",
   "name" : "void",
   "referenced_type" : "_ZTIv",
   "self_type" : "_ZTIv"
  },
  {
   "alignment" : 8,
   "is_integral" : true,
   "linker_set_key" : "_ZTIx",
   "name" : "long long",
   "referenced_type" : "_ZTIx",
   "self_type" : "_ZTIx",
   "size" : 8
  },
  {
   "alignment" : 8,
   "is_integral" : true,
   "is_unsigned" : true,
   "linker_set_key" : "_ZTIy",
   "name" : "unsigned long long",
   "referenced_type" : "_ZTIy",
   "self_type" : "_ZTIy",
   "size" : 8
  }
 ],
 "elf_functions" :
 [
  {
   "binding" : "weak",
   "name" : "_ZN7android8hardware10fromBinderINS0_14broadcastradio4V2_012ICloseHandleENS3_15BpHwCloseHandleENS3_15BnHwCloseHandleEEENS_2spIT_EERKNS7_INS0_7IBinderEEE"
  },
  {
   "binding" : "weak",
   "name" : "_ZN7android8hardware10fromBinderINS0_14broadcastradio4V2_013ITunerSessionENS3_16BpHwTunerSessionENS3_16BnHwTunerSessionEEENS_2spIT_EERKNS7_INS0_7IBinderEEE"
  },
  {
   "binding" : "weak",
   "name" : "_ZN7android8hardware10fromBinderINS0_14broadcastradio4V2_014ITunerCallbackENS3_17BpHwTunerCallbackENS3_17BnHwTunerCallbackEEENS_2spIT_EERKNS7_INS0_7IBinderEEE"
  },
  {
   "binding" : "weak",
   "name" : "_ZN7android8hardware10fromBinderINS0_14broadcastradio4V2_021IAnnouncementListenerENS3_24BpHwAnnouncementListenerENS3_24BnHwAnnouncementListenerEEENS_2spIT_EERKNS7_INS0_7IBinderEEE"
  },
  {
   "name" : "_ZN7android8hardware14broadcastradio4V2_012ICloseHandle10getServiceERKNSt3__112basic_stringIcNS4_11char_traitsIcEENS4_9allocatorIcEEEEb"
  },
  {
   "name" : "_ZN7android8hardware14broadcastradio4V2_012ICloseHandle11linkToDeathERKNS_2spINS0_20hidl_death_recipientEEEm"
  },
  {
   "name" : "_ZN7android8hardware14broadcastradio4V2_012ICloseHandle12getDebugInfoENSt3__18functionIFvRKNS_4hidl4base4V1_09DebugInfoEEEE"
  },
  {
   "name" : "_ZN7android8hardware14broadcastradio4V2_012ICloseHandle12getHashChainENSt3__18functionIFvRKNS0_8hidl_vecINS0_10hidl_arrayIhLm32EJEEEEEEEE"
  },
  {
   "name" : "_ZN7android8hardware14broadcastradio4V2_012ICloseHandle13tryGetServiceERKNSt3__112basic_stringIcNS4_11char_traitsIcEENS4_9allocatorIcEEEEb"
  },
  {
   "name" : "_ZN7android8hardware14broadcastradio4V2_012ICloseHandle13unlinkToDeathERKNS_2spINS0_20hidl_death_recipientEEE"
  },
  {
   "name" : "_ZN7android8hardware14broadcastradio4V2_012ICloseHandle14interfaceChainENSt3__18functionIFvRKNS0_8hidl_vecINS0_11hidl_stringEEEEEE"
  },
  {
   "name" : "_ZN7android8hardware14broadcastradio4V2_012ICloseHandle17registerAsServiceERKNSt3__112basic_stringIcNS4_11char_traitsIcEENS4_9allocatorIcEEEE"
  },
  {
   "name" : "_ZN7android8hardware14broadcastradio4V2_012ICloseHandle19interfaceDescriptorENSt3__18functionIFvRKNS0_11hidl_stringEEEE"
  },
  {
   "name" : "_ZN7android8hardware14broadcastradio4V2_012ICloseHandle21notifySyspropsChangedEv"
  },
  {
   "name" : "_ZN7android8hardware14broadcastradio4V2_012ICloseHandle21setHALInstrumentationEv"
  },
  {
   "name" : "_ZN7android8hardware14broadcastradio4V2_012ICloseHandle24registerForNotificationsERKNSt3__112basic_stringIcNS4_11char_traitsIcEENS4_9allocatorIcEEEERKNS_2spINS_4hidl7manager4V1_020IServiceNotificationEEE"
  },
  {
   "name" : "_ZN7android8hardware14broadcastradio4V2_012ICloseHandle4pingEv"
  },
  {
   "name" : "_ZN7android8hardware14broadcastradio4V2_012ICloseHandle5debugERKNS0_11hidl_handleERKNS0_8hidl_vecINS0_11hidl_stringEEE"
  },
  {
   "name" : "_ZN7android8hardware14broadcastradio4V2_012ICloseHandle8castFromERKNS_2spINS_4hidl4base4V1_05IBaseEEEb"
  },
  {
   "name" : "_ZN7android8hardware14broadcastradio4V2_012ICloseHandle8castFromERKNS_2spIS3_EEb"
  },
  {
   "name" : "_ZN7android8hardware14broadcastradio4V2_013BsCloseHandle13addOnewayTaskENSt3__18functionIFvvEEE"
  },
  {
   "name" : "_ZN7android8hardware14broadcastradio4V2_013BsCloseHandleC1ENS_2spINS2_12ICloseHandleEEE"
  },
  {
   "name" : "_ZN7android8hardware14broadcastradio4V2_013BsCloseHandleC2ENS_2spINS2_12ICloseHandleEEE"
  },
  {
   "name" : "_ZN7android8hardware14broadcastradio4V2_013ITunerSession10getServiceERKNSt3__112basic_stringIcNS4_11char_traitsIcEENS4_9allocatorIcEEEEb"
  },
  {
   "name" : "_ZN7android8hardware14broadcastradio4V2_013ITunerSession11linkToDeathERKNS_2spINS0_20hidl_death_recipientEEEm"
  },
  {
   "name" : "_ZN7android8hardware14broadcastradio4V2_013ITunerSession12getDebugInfoENSt3__18functionIFvRKNS_4hidl4base4V1_09DebugInfoEEEE"
  },
  {
   "name" : "_ZN7android8hardware14broadcastradio4V2_013ITunerSession12getHashChainENSt3__18functionIFvRKNS0_8hidl_vecINS0_10hidl_arrayIhLm32EJEEEEEEEE"
  },
  {
   "name" : "_ZN7android8hardware14broadcastradio4V2_013ITunerSession13tryGetServiceERKNSt3__112basic_stringIcNS4_11char_traitsIcEENS4_9allocatorIcEEEEb"
  },
  {
   "name" : "_ZN7android8hardware14broadcastradio4V2_013ITunerSession13unlinkToDeathERKNS_2spINS0_20hidl_death_recipientEEE"
  },
  {
   "name" : "_ZN7android8hardware14broadcastradio4V2_013ITunerSession14interfaceChainENSt3__18functionIFvRKNS0_8hidl_vecINS0_11hidl_stringEEEEEE"
  },
  {
   "name" : "_ZN7android8hardware14broadcastradio4V2_013ITunerSession17registerAsServiceERKNSt3__112basic_stringIcNS4_11char_traitsIcEENS4_9allocatorIcEEEE"
  },
  {
   "name" : "_ZN7android8hardware14broadcastradio4V2_013ITunerSession19interfaceDescriptorENSt3__18functionIFvRKNS0_11hidl_stringEEEE"
  },
  {
   "name" : "_ZN7android8hardware14broadcastradio4V2_013ITunerSession21notifySyspropsChangedEv"
  },
  {
   "name" : "_ZN7android8hardware14broadcastradio4V2_013ITunerSession21setHALInstrumentationEv"
  },
  {
   "name" : "_ZN7android8hardware14broadcastradio4V2_013ITunerSession24registerForNotificationsERKNSt3__112basic_stringIcNS4_11char_traitsIcEENS4_9allocatorIcEEEERKNS_2spINS_4hidl7manager4V1_020IServiceNotificationEEE"
  },
  {
   "name" : "_ZN7android8hardware14broadcastradio4V2_013ITunerSession4pingEv"
  },
  {
   "name" : "_ZN7android8hardware14broadcastradio4V2_013ITunerSession5debugERKNS0_11hidl_handleERKNS0_8hidl_vecINS0_11hidl_stringEEE"
  },
  {
   "name" : "_ZN7android8hardware14broadcastradio4V2_013ITunerSession8castFromERKNS_2spINS_4hidl4base4V1_05IBaseEEEb"
  },
  {
   "name" : "_ZN7android8hardware14broadcastradio4V2_013ITunerSession8castFromERKNS_2spIS3_EEb"
  },
  {
   "name" : "_ZN7android8hardware14broadcastradio4V2_014BsTunerSession13addOnewayTaskENSt3__18functionIFvvEEE"
  },
  {
   "name" : "_ZN7android8hardware14broadcastradio4V2_014BsTunerSessionC1ENS_2spINS2_13ITunerSessionEEE"
  },
  {
   "name" : "_ZN7android8hardware14broadcastradio4V2_014BsTunerSessionC2ENS_2spINS2_13ITunerSessionEEE"
  },
  {
   "name" : "_ZN7android8hardware14broadcastradio4V2_014ITunerCallback10getServiceERKNSt3__112basic_stringIcNS4_11char_traitsIcEENS4_9allocatorIcEEEEb"
  },
  {
   "name" : "_ZN7android8hardware14broadcastradio4V2_014ITunerCallback11linkToDeathERKNS_2spINS0_20hidl_death_recipientEEEm"
  },
  {
   "name" : "_ZN7android8hardware14broadcastradio4V2_014ITunerCallback12getDebugInfoENSt3__18functionIFvRKNS_4hidl4base4V1_09DebugInfoEEEE"
  },
  {
   "name" : "_ZN7android8hardware14broadcastradio4V2_014ITunerCallback12getHashChainENSt3__18functionIFvRKNS0_8hidl_vecINS0_10hidl_arrayIhLm32EJEEEEEEEE"
  },
  {
   "name" : "_ZN7android8hardware14broadcastradio4V2_014ITunerCallback13tryGetServiceERKNSt3__112basic_stringIcNS4_11char_traitsIcEENS4_9allocatorIcEEEEb"
  },
  {
   "name" : "_ZN7android8hardware14broadcastradio4V2_014ITunerCallback13unlinkToDeathERKNS_2spINS0_20hidl_death_recipientEEE"
  },
  {
   "name" : "_ZN7android8hardware14broadcastradio4V2_014ITunerCallback14interfaceChainENSt3__18functionIFvRKNS0_8hidl_vecINS0_11hidl_stringEEEEEE"
  },
  {
   "name" : "_ZN7android8hardware14broadcastradio4V2_014ITunerCallback17registerAsServiceERKNSt3__112basic_stringIcNS4_11char_traitsIcEENS4_9allocatorIcEEEE"
  },
  {
   "name" : "_ZN7android8hardware14broadcastradio4V2_014ITunerCallback19interfaceDescriptorENSt3__18functionIFvRKNS0_11hidl_stringEEEE"
  },
  {
   "name" : "_ZN7android8hardware14broadcastradio4V2_014ITunerCallback21notifySyspropsChangedEv"
  },
  {
   "name" : "_ZN7android8hardware14broadcastradio4V2_014ITunerCallback21setHALInstrumentationEv"
  },
  {
   "name" : "_ZN7android8hardware14broadcastradio4V2_014ITunerCallback24registerForNotificationsERKNSt3__112basic_stringIcNS4_11char_traitsIcEENS4_9allocatorIcEEEERKNS_2spINS_4hidl7manager4V1_020IServiceNotificationEEE"
  },
  {
   "name" : "_ZN7android8hardware14broadcastradio4V2_014ITunerCallback4pingEv"
  },
  {
   "name" : "_ZN7android8hardware14broadcastradio4V2_014ITunerCallback5debugERKNS0_11hidl_handleERKNS0_8hidl_vecINS0_11hidl_stringEEE"
  },
  {
   "name" : "_ZN7android8hardware14broadcastradio4V2_014ITunerCallback8castFromERKNS_2spINS_4hidl4base4V1_05IBaseEEEb"
  },
  {
   "name" : "_ZN7android8hardware14broadcastradio4V2_014ITunerCallback8castFromERKNS_2spIS3_EEb"
  },
  {
   "name" : "_ZN7android8hardware14broadcastradio4V2_015BnHwCloseHandle10onTransactEjRKNS0_6ParcelEPS4_jNSt3__18functionIFvRS4_EEE"
  },
  {
   "name" : "_ZN7android8hardware14broadcastradio4V2_015BnHwCloseHandle11_hidl_closeEPNS_4hidl4base4V1_08BnHwBaseERKNS0_6ParcelEPS9_NSt3__18functionIFvRS9_EEE"
  },
  {
   "name" : "_ZN7android8hardware14broadcastradio4V2_015BnHwCloseHandle12getDebugInfoENSt3__18functionIFvRKNS_4hidl4base4V1_09DebugInfoEEEE"
  },
  {
   "name" : "_ZN7android8hardware14broadcastradio4V2_015BnHwCloseHandle4pingEv"
  },
  {
   "name" : "_ZN7android8hardware14broadcastradio4V2_015BnHwCloseHandleC1ERKNS_2spINS2_12ICloseHandleEEE"
  },
  {
   "name" : "_ZN7android8hardware14broadcastradio4V2_015BnHwCloseHandleC2ERKNS_2spINS2_12ICloseHandleEEE"
  },
  {
   "name" : "_ZN7android8hardware14broadcastradio4V2_015BnHwCloseHandleD0Ev"
  },
  {
   "name" : "_ZN7android8hardware14broadcastradio4V2_015BnHwCloseHandleD1Ev"
  },
  {
   "name" : "_ZN7android8hardware14broadcastradio4V2_015BnHwCloseHandleD2Ev"
  },
  {
   "name" : "_ZN7android8hardware14broadcastradio4V2_015BpHwCloseHandle11_hidl_closeEPNS0_10IInterfaceEPNS0_7details16HidlInstrumentorE"
  },
  {
   "name" : "_ZN7android8hardware14broadcastradio4V2_015BpHwCloseHandle11linkToDeathERKNS_2spINS0_20hidl_death_recipientEEEm"
  },
  {
   "name" : "_ZN7android8hardware14broadcastradio4V2_015BpHwCloseHandle12getDebugInfoENSt3__18functionIFvRKNS_4hidl4base4V1_09DebugInfoEEEE"
  },
  {
   "name" : "_ZN7android8hardware14broadcastradio4V2_015BpHwCloseHandle12getHashChainENSt3__18functionIFvRKNS0_8hidl_vecINS0_10hidl_arrayIhLm32EJEEEEEEEE"
  },
  {
   "name" : "_ZN7android8hardware14broadcastradio4V2_015BpHwCloseHandle13unlinkToDeathERKNS_2spINS0_20hidl_death_recipientEEE"
  },
  {
   "name" : "_ZN7android8hardware14broadcastradio4V2_015BpHwCloseHandle14interfaceChainENSt3__18functionIFvRKNS0_8hidl_vecINS0_11hidl_stringEEEEEE"
  },
  {
   "name" : "_ZN7android8hardware14broadcastradio4V2_015BpHwCloseHandle15onLastStrongRefEPKv"
  },
  {
   "name" : "_ZN7android8hardware14broadcastradio4V2_015BpHwCloseHandle19interfaceDescriptorENSt3__18functionIFvRKNS0_11hidl_stringEEEE"
  },
  {
   "name" : "_ZN7android8hardware14broadcastradio4V2_015BpHwCloseHandle21notifySyspropsChangedEv"
  },
  {
   "name" : "_ZN7android8hardware14broadcastradio4V2_015BpHwCloseHandle21setHALInstrumentationEv"
  },
  {
   "name" : "_ZN7android8hardware14broadcastradio4V2_015BpHwCloseHandle4pingEv"
  },
  {
   "name" : "_ZN7android8hardware14broadcastradio4V2_015BpHwCloseHandle5closeEv"
  },
  {
   "name" : "_ZN7android8hardware14broadcastradio4V2_015BpHwCloseHandle5debugERKNS0_11hidl_handleERKNS0_8hidl_vecINS0_11hidl_stringEEE"
  },
  {
   "name" : "_ZN7android8hardware14broadcastradio4V2_015BpHwCloseHandleC1ERKNS_2spINS0_7IBinderEEE"
  },
  {
   "name" : "_ZN7android8hardware14broadcastradio4V2_015BpHwCloseHandleC2ERKNS_2spINS0_7IBinderEEE"
  },
  {
   "name" : "_ZN7android8hardware14broadcastradio4V2_015BsTunerCallback13addOnewayTaskENSt3__18functionIFvvEEE"
  },
  {
   "name" : "_ZN7android8hardware14broadcastradio4V2_015BsTunerCallbackC1ENS_2spINS2_14ITunerCallbackEEE"
  },
  {
   "name" : "_ZN7android8hardware14broadcastradio4V2_015BsTunerCallbackC2ENS_2spINS2_14ITunerCallbackEEE"
  },
  {
   "name" : "_ZN7android8hardware14broadcastradio4V2_015IBroadcastRadio10getServiceERKNSt3__112basic_stringIcNS4_11char_traitsIcEENS4_9allocatorIcEEEEb"
  },
  {
   "name" : "_ZN7android8hardware14broadcastradio4V2_015IBroadcastRadio11linkToDeathERKNS_2spINS0_20hidl_death_recipientEEEm"
  },
  {
   "name" : "_ZN7android8hardware14broadcastradio4V2_015IBroadcastRadio12getDebugInfoENSt3__18functionIFvRKNS_4hidl4base4V1_09DebugInfoEEEE"
  },
  {
   "name" : "_ZN7android8hardware14broadcastradio4V2_015IBroadcastRadio12getHashChainENSt3__18functionIFvRKNS0_8hidl_vecINS0_10hidl_arrayIhLm32EJEEEEEEEE"
  },
  {
   "name" : "_ZN7android8hardware14broadcastradio4V2_015IBroadcastRadio13tryGetServiceERKNSt3__112basic_stringIcNS4_11char_traitsIcEENS4_9allocatorIcEEEEb"
  },
  {
   "name" : "_ZN7android8hardware14broadcastradio4V2_015IBroadcastRadio13unlinkToDeathERKNS_2spINS0_20hidl_death_recipientEEE"
  },
  {
   "name" : "_ZN7android8hardware14broadcastradio4V2_015IBroadcastRadio14interfaceChainENSt3__18functionIFvRKNS0_8hidl_vecINS0_11hidl_stringEEEEEE"
  },
  {
   "name" : "_ZN7android8hardware14broadcastradio4V2_015IBroadcastRadio17registerAsServiceERKNSt3__112basic_stringIcNS4_11char_traitsIcEENS4_9allocatorIcEEEE"
  },
  {
   "name" : "_ZN7android8hardware14broadcastradio4V2_015IBroadcastRadio19interfaceDescriptorENSt3__18functionIFvRKNS0_11hidl_stringEEEE"
  },
  {
   "name" : "_ZN7android8hardware14broadcastradio4V2_015IBroadcastRadio21notifySyspropsChangedEv"
  },
  {
   "name" : "_ZN7android8hardware14broadcastradio4V2_015IBroadcastRadio21setHALInstrumentationEv"
  },
  {
   "name" : "_ZN7android8hardware14broadcastradio4V2_015IBroadcastRadio24registerForNotificationsERKNSt3__112basic_stringIcNS4_11char_traitsIcEENS4_9allocatorIcEEEERKNS_2spINS_4hidl7manager4V1_020IServiceNotificationEEE"
  },
  {
   "name" : "_ZN7android8hardware14broadcastradio4V2_015IBroadcastRadio4pingEv"
  },
  {
   "name" : "_ZN7android8hardware14broadcastradio4V2_015IBroadcastRadio5debugERKNS0_11hidl_handleERKNS0_8hidl_vecINS0_11hidl_stringEEE"
  },
  {
   "name" : "_ZN7android8hardware14broadcastradio4V2_015IBroadcastRadio8castFromERKNS_2spINS_4hidl4base4V1_05IBaseEEEb"
  },
  {
   "name" : "_ZN7android8hardware14broadcastradio4V2_015IBroadcastRadio8castFromERKNS_2spIS3_EEb"
  },
  {
   "name" : "_ZN7android8hardware14broadcastradio4V2_016BnHwTunerSession10_hidl_scanEPNS_4hidl4base4V1_08BnHwBaseERKNS0_6ParcelEPS9_NSt3__18functionIFvRS9_EEE"
  },
  {
   "name" : "_ZN7android8hardware14broadcastradio4V2_016BnHwTunerSession10_hidl_stepEPNS_4hidl4base4V1_08BnHwBaseERKNS0_6ParcelEPS9_NSt3__18functionIFvRS9_EEE"
  },
  {
   "name" : "_ZN7android8hardware14broadcastradio4V2_016BnHwTunerSession10_hidl_tuneEPNS_4hidl4base4V1_08BnHwBaseERKNS0_6ParcelEPS9_NSt3__18functionIFvRS9_EEE"
  },
  {
   "name" : "_ZN7android8hardware14broadcastradio4V2_016BnHwTunerSession10onTransactEjRKNS0_6ParcelEPS4_jNSt3__18functionIFvRS4_EEE"
  },
  {
   "name" : "_ZN7android8hardware14broadcastradio4V2_016BnHwTunerSession11_hidl_closeEPNS_4hidl4base4V1_08BnHwBaseERKNS0_6ParcelEPS9_NSt3__18functionIFvRS9_EEE"
  },
  {
   "name" : "_ZN7android8hardware14broadcastradio4V2_016BnHwTunerSession12_hidl_cancelEPNS_4hidl4base4V1_08BnHwBaseERKNS0_6ParcelEPS9_NSt3__18functionIFvRS9_EEE"
  },
  {
   "name" : "_ZN7android8hardware14broadcastradio4V2_016BnHwTunerSession12getDebugInfoENSt3__18functionIFvRKNS_4hidl4base4V1_09DebugInfoEEEE"
  },
  {
   "name" : "_ZN7android8hardware14broadcastradio4V2_016BnHwTunerSession19_hidl_getParametersEPNS_4hidl4base4V1_08BnHwBaseERKNS0_6ParcelEPS9_NSt3__18functionIFvRS9_EEE"
  },
  {
   "name" : "_ZN7android8hardware14broadcastradio4V2_016BnHwTunerSession19_hidl_setConfigFlagEPNS_4hidl4base4V1_08BnHwBaseERKNS0_6ParcelEPS9_NSt3__18functionIFvRS9_EEE"
  },
  {
   "name" : "_ZN7android8hardware14broadcastradio4V2_016BnHwTunerSession19_hidl_setParametersEPNS_4hidl4base4V1_08BnHwBaseERKNS0_6ParcelEPS9_NSt3__18functionIFvRS9_EEE"
  },
  {
   "name" : "_ZN7android8hardware14broadcastradio4V2_016BnHwTunerSession21_hidl_isConfigFlagSetEPNS_4hidl4base4V1_08BnHwBaseERKNS0_6ParcelEPS9_NSt3__18functionIFvRS9_EEE"
  },
  {
   "name" : "_ZN7android8hardware14broadcastradio4V2_016BnHwTunerSession28_hidl_stopProgramListUpdatesEPNS_4hidl4base4V1_08BnHwBaseERKNS0_6ParcelEPS9_NSt3__18functionIFvRS9_EEE"
  },
  {
   "name" : "_ZN7android8hardware14broadcastradio4V2_016BnHwTunerSession29_hidl_startProgramListUpdatesEPNS_4hidl4base4V1_08BnHwBaseERKNS0_6ParcelEPS9_NSt3__18functionIFvRS9_EEE"
  },
  {
   "name" : "_ZN7android8hardware14broadcastradio4V2_016BnHwTunerSession4pingEv"
  },
  {
   "name" : "_ZN7android8hardware14broadcastradio4V2_016BnHwTunerSessionC1ERKNS_2spINS2_13ITunerSessionEEE"
  },
  {
   "name" : "_ZN7android8hardware14broadcastradio4V2_016BnHwTunerSessionC2ERKNS_2spINS2_13ITunerSessionEEE"
  },
  {
   "name" : "_ZN7android8hardware14broadcastradio4V2_016BnHwTunerSessionD0Ev"
  },
  {
   "name" : "_ZN7android8hardware14broadcastradio4V2_016BnHwTunerSessionD1Ev"
  },
  {
   "name" : "_ZN7android8hardware14broadcastradio4V2_016BnHwTunerSessionD2Ev"
  },
  {
   "name" : "_ZN7android8hardware14broadcastradio4V2_016BpHwTunerSession10_hidl_scanEPNS0_10IInterfaceEPNS0_7details16HidlInstrumentorEbb"
  },
  {
   "name" : "_ZN7android8hardware14broadcastradio4V2_016BpHwTunerSession10_hidl_stepEPNS0_10IInterfaceEPNS0_7details16HidlInstrumentorEb"
  },
  {
   "name" : "_ZN7android8hardware14broadcastradio4V2_016BpHwTunerSession10_hidl_tuneEPNS0_10IInterfaceEPNS0_7details16HidlInstrumentorERKNS2_15ProgramSelectorE"
  },
  {
   "name" : "_ZN7android8hardware14broadcastradio4V2_016BpHwTunerSession11_hidl_closeEPNS0_10IInterfaceEPNS0_7details16HidlInstrumentorE"
  },
  {
   "name" : "_ZN7android8hardware14broadcastradio4V2_016BpHwTunerSession11linkToDeathERKNS_2spINS0_20hidl_death_recipientEEEm"
  },
  {
   "name" : "_ZN7android8hardware14broadcastradio4V2_016BpHwTunerSession12_hidl_cancelEPNS0_10IInterfaceEPNS0_7details16HidlInstrumentorE"
  },
  {
   "name" : "_ZN7android8hardware14broadcastradio4V2_016BpHwTunerSession12getDebugInfoENSt3__18functionIFvRKNS_4hidl4base4V1_09DebugInfoEEEE"
  },
  {
   "name" : "_ZN7android8hardware14broadcastradio4V2_016BpHwTunerSession12getHashChainENSt3__18functionIFvRKNS0_8hidl_vecINS0_10hidl_arrayIhLm32EJEEEEEEEE"
  },
  {
   "name" : "_ZN7android8hardware14broadcastradio4V2_016BpHwTunerSession13getParametersERKNS0_8hidl_vecINS0_11hidl_stringEEENSt3__18functionIFvRKNS4_INS2_14VendorKeyValueEEEEEE"
  },
  {
   "name" : "_ZN7android8hardware14broadcastradio4V2_016BpHwTunerSession13setConfigFlagENS2_10ConfigFlagEb"
  },
  {
   "name" : "_ZN7android8hardware14broadcastradio4V2_016BpHwTunerSession13setParametersERKNS0_8hidl_vecINS2_14VendorKeyValueEEENSt3__18functionIFvS8_EEE"
  },
  {
   "name" : "_ZN7android8hardware14broadcastradio4V2_016BpHwTunerSession13unlinkToDeathERKNS_2spINS0_20hidl_death_recipientEEE"
  },
  {
   "name" : "_ZN7android8hardware14broadcastradio4V2_016BpHwTunerSession14interfaceChainENSt3__18functionIFvRKNS0_8hidl_vecINS0_11hidl_stringEEEEEE"
  },
  {
   "name" : "_ZN7android8hardware14broadcastradio4V2_016BpHwTunerSession15isConfigFlagSetENS2_10ConfigFlagENSt3__18functionIFvNS2_6ResultEbEEE"
  },
  {
   "name" : "_ZN7android8hardware14broadcastradio4V2_016BpHwTunerSession15onLastStrongRefEPKv"
  },
  {
   "name" : "_ZN7android8hardware14broadcastradio4V2_016BpHwTunerSession19_hidl_getParametersEPNS0_10IInterfaceEPNS0_7details16HidlInstrumentorERKNS0_8hidl_vecINS0_11hidl_stringEEENSt3__18functionIFvRKNS9_INS2_14VendorKeyValueEEEEEE"
  },
  {
   "name" : "_ZN7android8hardware14broadcastradio4V2_016BpHwTunerSession19_hidl_setConfigFlagEPNS0_10IInterfaceEPNS0_7details16HidlInstrumentorENS2_10ConfigFlagEb"
  },
  {
   "name" : "_ZN7android8hardware14broadcastradio4V2_016BpHwTunerSession19_hidl_setParametersEPNS0_10IInterfaceEPNS0_7details16HidlInstrumentorERKNS0_8hidl_vecINS2_14VendorKeyValueEEENSt3__18functionIFvSD_EEE"
  },
  {
   "name" : "_ZN7android8hardware14broadcastradio4V2_016BpHwTunerSession19interfaceDescriptorENSt3__18functionIFvRKNS0_11hidl_stringEEEE"
  },
  {
   "name" : "_ZN7android8hardware14broadcastradio4V2_016BpHwTunerSession21_hidl_isConfigFlagSetEPNS0_10IInterfaceEPNS0_7details16HidlInstrumentorENS2_10ConfigFlagENSt3__18functionIFvNS2_6ResultEbEEE"
  },
  {
   "name" : "_ZN7android8hardware14broadcastradio4V2_016BpHwTunerSession21notifySyspropsChangedEv"
  },
  {
   "name" : "_ZN7android8hardware14broadcastradio4V2_016BpHwTunerSession21setHALInstrumentationEv"
  },
  {
   "name" : "_ZN7android8hardware14broadcastradio4V2_016BpHwTunerSession22stopProgramListUpdatesEv"
  },
  {
   "name" : "_ZN7android8hardware14broadcastradio4V2_016BpHwTunerSession23startProgramListUpdatesERKNS2_13ProgramFilterE"
  },
  {
   "name" : "_ZN7android8hardware14broadcastradio4V2_016BpHwTunerSession28_hidl_stopProgramListUpdatesEPNS0_10IInterfaceEPNS0_7details16HidlInstrumentorE"
  },
  {
   "name" : "_ZN7android8hardware14broadcastradio4V2_016BpHwTunerSession29_hidl_startProgramListUpdatesEPNS0_10IInterfaceEPNS0_7details16HidlInstrumentorERKNS2_13ProgramFilterE"
  },
  {
   "name" : "_ZN7android8hardware14broadcastradio4V2_016BpHwTunerSession4pingEv"
  },
  {
   "name" : "_ZN7android8hardware14broadcastradio4V2_016BpHwTunerSession4scanEbb"
  },
  {
   "name" : "_ZN7android8hardware14broadcastradio4V2_016BpHwTunerSession4stepEb"
  },
  {
   "name" : "_ZN7android8hardware14broadcastradio4V2_016BpHwTunerSession4tuneERKNS2_15ProgramSelectorE"
  },
  {
   "name" : "_ZN7android8hardware14broadcastradio4V2_016BpHwTunerSession5closeEv"
  },
  {
   "name" : "_ZN7android8hardware14broadcastradio4V2_016BpHwTunerSession5debugERKNS0_11hidl_handleERKNS0_8hidl_vecINS0_11hidl_stringEEE"
  },
  {
   "name" : "_ZN7android8hardware14broadcastradio4V2_016BpHwTunerSession6cancelEv"
  },
  {
   "name" : "_ZN7android8hardware14broadcastradio4V2_016BpHwTunerSessionC1ERKNS_2spINS0_7IBinderEEE"
  },
  {
   "name" : "_ZN7android8hardware14broadcastradio4V2_016BpHwTunerSessionC2ERKNS_2spINS0_7IBinderEEE"
  },
  {
   "name" : "_ZN7android8hardware14broadcastradio4V2_016BsBroadcastRadio13addOnewayTaskENSt3__18functionIFvvEEE"
  },
  {
   "name" : "_ZN7android8hardware14broadcastradio4V2_016BsBroadcastRadioC1ENS_2spINS2_15IBroadcastRadioEEE"
  },
  {
   "name" : "_ZN7android8hardware14broadcastradio4V2_016BsBroadcastRadioC2ENS_2spINS2_15IBroadcastRadioEEE"
  },
  {
   "name" : "_ZN7android8hardware14broadcastradio4V2_017BnHwTunerCallback10onTransactEjRKNS0_6ParcelEPS4_jNSt3__18functionIFvRS4_EEE"
  },
  {
   "name" : "_ZN7android8hardware14broadcastradio4V2_017BnHwTunerCallback12getDebugInfoENSt3__18functionIFvRKNS_4hidl4base4V1_09DebugInfoEEEE"
  },
  {
   "name" : "_ZN7android8hardware14broadcastradio4V2_017BnHwTunerCallback18_hidl_onTuneFailedEPNS_4hidl4base4V1_08BnHwBaseERKNS0_6ParcelEPS9_NSt3__18functionIFvRS9_EEE"
  },
  {
   "name" : "_ZN7android8hardware14broadcastradio4V2_017BnHwTunerCallback25_hidl_onParametersUpdatedEPNS_4hidl4base4V1_08BnHwBaseERKNS0_6ParcelEPS9_NSt3__18functionIFvRS9_EEE"
  },
  {
   "name" : "_ZN7android8hardware14broadcastradio4V2_017BnHwTunerCallback26_hidl_onAntennaStateChangeEPNS_4hidl4base4V1_08BnHwBaseERKNS0_6ParcelEPS9_NSt3__18functionIFvRS9_EEE"
  },
  {
   "name" : "_ZN7android8hardware14broadcastradio4V2_017BnHwTunerCallback26_hidl_onProgramListUpdatedEPNS_4hidl4base4V1_08BnHwBaseERKNS0_6ParcelEPS9_NSt3__18functionIFvRS9_EEE"
  },
  {
   "name" : "_ZN7android8hardware14broadcastradio4V2_017BnHwTunerCallback33_hidl_onCurrentProgramInfoChangedEPNS_4hidl4base4V1_08BnHwBaseERKNS0_6ParcelEPS9_NSt3__18functionIFvRS9_EEE"
  },
  {
   "name" : "_ZN7android8hardware14broadcastradio4V2_017BnHwTunerCallback4pingEv"
  },
  {
   "name" : "_ZN7android8hardware14broadcastradio4V2_017BnHwTunerCallbackC1ERKNS_2spINS2_14ITunerCallbackEEE"
  },
  {
   "name" : "_ZN7android8hardware14broadcastradio4V2_017BnHwTunerCallbackC2ERKNS_2spINS2_14ITunerCallbackEEE"
  },
  {
   "name" : "_ZN7android8hardware14broadcastradio4V2_017BnHwTunerCallbackD0Ev"
  },
  {
   "name" : "_ZN7android8hardware14broadcastradio4V2_017BnHwTunerCallbackD1Ev"
  },
  {
   "name" : "_ZN7android8hardware14broadcastradio4V2_017BnHwTunerCallbackD2Ev"
  },
  {
   "name" : "_ZN7android8hardware14broadcastradio4V2_017BpHwTunerCallback11linkToDeathERKNS_2spINS0_20hidl_death_recipientEEEm"
  },
  {
   "name" : "_ZN7android8hardware14broadcastradio4V2_017BpHwTunerCallback12getDebugInfoENSt3__18functionIFvRKNS_4hidl4base4V1_09DebugInfoEEEE"
  },
  {
   "name" : "_ZN7android8hardware14broadcastradio4V2_017BpHwTunerCallback12getHashChainENSt3__18functionIFvRKNS0_8hidl_vecINS0_10hidl_arrayIhLm32EJEEEEEEEE"
  },
  {
   "name" : "_ZN7android8hardware14broadcastradio4V2_017BpHwTunerCallback12onTuneFailedENS2_6ResultERKNS2_15ProgramSelectorE"
  },
  {
   "name" : "_ZN7android8hardware14broadcastradio4V2_017BpHwTunerCallback13unlinkToDeathERKNS_2spINS0_20hidl_death_recipientEEE"
  },
  {
   "name" : "_ZN7android8hardware14broadcastradio4V2_017BpHwTunerCallback14interfaceChainENSt3__18functionIFvRKNS0_8hidl_vecINS0_11hidl_stringEEEEEE"
  },
  {
   "name" : "_ZN7android8hardware14broadcastradio4V2_017BpHwTunerCallback15onLastStrongRefEPKv"
  },
  {
   "name" : "_ZN7android8hardware14broadcastradio4V2_017BpHwTunerCallback18_hidl_onTuneFailedEPNS0_10IInterfaceEPNS0_7details16HidlInstrumentorENS2_6ResultERKNS2_15ProgramSelectorE"
  },
  {
   "name" : "_ZN7android8hardware14broadcastradio4V2_017BpHwTunerCallback19interfaceDescriptorENSt3__18functionIFvRKNS0_11hidl_stringEEEE"
  },
  {
   "name" : "_ZN7android8hardware14broadcastradio4V2_017BpHwTunerCallback19onParametersUpdatedERKNS0_8hidl_vecINS2_14VendorKeyValueEEE"
  },
  {
   "name" : "_ZN7android8hardware14broadcastradio4V2_017BpHwTunerCallback20onAntennaStateChangeEb"
  },
  {
   "name" : "_ZN7android8hardware14broadcastradio4V2_017BpHwTunerCallback20onProgramListUpdatedERKNS2_16ProgramListChunkE"
  },
  {
   "name" : "_ZN7android8hardware14broadcastradio4V2_017BpHwTunerCallback21notifySyspropsChangedEv"
  },
  {
   "name" : "_ZN7android8hardware14broadcastradio4V2_017BpHwTunerCallback21setHALInstrumentationEv"
  },
  {
   "name" : "_ZN7android8hardware14broadcastradio4V2_017BpHwTunerCallback25_hidl_onParametersUpdatedEPNS0_10IInterfaceEPNS0_7details16HidlInstrumentorERKNS0_8hidl_vecINS2_14VendorKeyValueEEE"
  },
  {
   "name" : "_ZN7android8hardware14broadcastradio4V2_017BpHwTunerCallback26_hidl_onAntennaStateChangeEPNS0_10IInterfaceEPNS0_7details16HidlInstrumentorEb"
  },
  {
   "name" : "_ZN7android8hardware14broadcastradio4V2_017BpHwTunerCallback26_hidl_onProgramListUpdatedEPNS0_10IInterfaceEPNS0_7details16HidlInstrumentorERKNS2_16ProgramListChunkE"
  },
  {
   "name" : "_ZN7android8hardware14broadcastradio4V2_017BpHwTunerCallback27onCurrentProgramInfoChangedERKNS2_11ProgramInfoE"
  },
  {
   "name" : "_ZN7android8hardware14broadcastradio4V2_017BpHwTunerCallback33_hidl_onCurrentProgramInfoChangedEPNS0_10IInterfaceEPNS0_7details16HidlInstrumentorERKNS2_11ProgramInfoE"
  },
  {
   "name" : "_ZN7android8hardware14broadcastradio4V2_017BpHwTunerCallback4pingEv"
  },
  {
   "name" : "_ZN7android8hardware14broadcastradio4V2_017BpHwTunerCallback5debugERKNS0_11hidl_handleERKNS0_8hidl_vecINS0_11hidl_stringEEE"
  },
  {
   "name" : "_ZN7android8hardware14broadcastradio4V2_017BpHwTunerCallbackC1ERKNS_2spINS0_7IBinderEEE"
  },
  {
   "name" : "_ZN7android8hardware14broadcastradio4V2_017BpHwTunerCallbackC2ERKNS_2spINS0_7IBinderEEE"
  },
  {
   "name" : "_ZN7android8hardware14broadcastradio4V2_018BnHwBroadcastRadio10onTransactEjRKNS0_6ParcelEPS4_jNSt3__18functionIFvRS4_EEE"
  },
  {
   "name" : "_ZN7android8hardware14broadcastradio4V2_018BnHwBroadcastRadio12getDebugInfoENSt3__18functionIFvRKNS_4hidl4base4V1_09DebugInfoEEEE"
  },
  {
   "name" : "_ZN7android8hardware14broadcastradio4V2_018BnHwBroadcastRadio14_hidl_getImageEPNS_4hidl4base4V1_08BnHwBaseERKNS0_6ParcelEPS9_NSt3__18functionIFvRS9_EEE"
  },
  {
   "name" : "_ZN7android8hardware14broadcastradio4V2_018BnHwBroadcastRadio17_hidl_openSessionEPNS_4hidl4base4V1_08BnHwBaseERKNS0_6ParcelEPS9_NSt3__18functionIFvRS9_EEE"
  },
  {
   "name" : "_ZN7android8hardware14broadcastradio4V2_018BnHwBroadcastRadio19_hidl_getPropertiesEPNS_4hidl4base4V1_08BnHwBaseERKNS0_6ParcelEPS9_NSt3__18functionIFvRS9_EEE"
  },
  {
   "name" : "_ZN7android8hardware14broadcastradio4V2_018BnHwBroadcastRadio24_hidl_getDabRegionConfigEPNS_4hidl4base4V1_08BnHwBaseERKNS0_6ParcelEPS9_NSt3__18functionIFvRS9_EEE"
  },
  {
   "name" : "_ZN7android8hardware14broadcastradio4V2_018BnHwBroadcastRadio25_hidl_getAmFmRegionConfigEPNS_4hidl4base4V1_08BnHwBaseERKNS0_6ParcelEPS9_NSt3__18functionIFvRS9_EEE"
  },
  {
   "name" : "_ZN7android8hardware14broadcastradio4V2_018BnHwBroadcastRadio34_hidl_registerAnnouncementListenerEPNS_4hidl4base4V1_08BnHwBaseERKNS0_6ParcelEPS9_NSt3__18functionIFvRS9_EEE"
  },
  {
   "name" : "_ZN7android8hardware14broadcastradio4V2_018BnHwBroadcastRadio4pingEv"
  },
  {
   "name" : "_ZN7android8hardware14broadcastradio4V2_018BnHwBroadcastRadioC1ERKNS_2spINS2_15IBroadcastRadioEEE"
  },
  {
   "name" : "_ZN7android8hardware14broadcastradio4V2_018BnHwBroadcastRadioC2ERKNS_2spINS2_15IBroadcastRadioEEE"
  },
  {
   "name" : "_ZN7android8hardware14broadcastradio4V2_018BnHwBroadcastRadioD0Ev"
  },
  {
   "name" : "_ZN7android8hardware14broadcastradio4V2_018BnHwBroadcastRadioD1Ev"
  },
  {
   "name" : "_ZN7android8hardware14broadcastradio4V2_018BnHwBroadcastRadioD2Ev"
  },
  {
   "name" : "_ZN7android8hardware14broadcastradio4V2_018BpHwBroadcastRadio11linkToDeathERKNS_2spINS0_20hidl_death_recipientEEEm"
  },
  {
   "name" : "_ZN7android8hardware14broadcastradio4V2_018BpHwBroadcastRadio11openSessionERKNS_2spINS2_14ITunerCallbackEEENSt3__18functionIFvNS2_6ResultERKNS4_INS2_13ITunerSessionEEEEEE"
  },
  {
   "name" : "_ZN7android8hardware14broadcastradio4V2_018BpHwBroadcastRadio12getDebugInfoENSt3__18functionIFvRKNS_4hidl4base4V1_09DebugInfoEEEE"
  },
  {
   "name" : "_ZN7android8hardware14broadcastradio4V2_018BpHwBroadcastRadio12getHashChainENSt3__18functionIFvRKNS0_8hidl_vecINS0_10hidl_arrayIhLm32EJEEEEEEEE"
  },
  {
   "name" : "_ZN7android8hardware14broadcastradio4V2_018BpHwBroadcastRadio13getPropertiesENSt3__18functionIFvRKNS2_10PropertiesEEEE"
  },
  {
   "name" : "_ZN7android8hardware14broadcastradio4V2_018BpHwBroadcastRadio13unlinkToDeathERKNS_2spINS0_20hidl_death_recipientEEE"
  },
  {
   "name" : "_ZN7android8hardware14broadcastradio4V2_018BpHwBroadcastRadio14_hidl_getImageEPNS0_10IInterfaceEPNS0_7details16HidlInstrumentorEjNSt3__18functionIFvRKNS0_8hidl_vecIhEEEEE"
  },
  {
   "name" : "_ZN7android8hardware14broadcastradio4V2_018BpHwBroadcastRadio14interfaceChainENSt3__18functionIFvRKNS0_8hidl_vecINS0_11hidl_stringEEEEEE"
  },
  {
   "name" : "_ZN7android8hardware14broadcastradio4V2_018BpHwBroadcastRadio15onLastStrongRefEPKv"
  },
  {
   "name" : "_ZN7android8hardware14broadcastradio4V2_018BpHwBroadcastRadio17_hidl_openSessionEPNS0_10IInterfaceEPNS0_7details16HidlInstrumentorERKNS_2spINS2_14ITunerCallbackEEENSt3__18functionIFvNS2_6ResultERKNS9_INS2_13ITunerSessionEEEEEE"
  },
  {
   "name" : "_ZN7android8hardware14broadcastradio4V2_018BpHwBroadcastRadio18getDabRegionConfigENSt3__18functionIFvNS2_6ResultERKNS0_8hidl_vecINS2_13DabTableEntryEEEEEE"
  },
  {
   "name" : "_ZN7android8hardware14broadcastradio4V2_018BpHwBroadcastRadio19_hidl_getPropertiesEPNS0_10IInterfaceEPNS0_7details16HidlInstrumentorENSt3__18functionIFvRKNS2_10PropertiesEEEE"
  },
  {
   "name" : "_ZN7android8hardware14broadcastradio4V2_018BpHwBroadcastRadio19getAmFmRegionConfigEbNSt3__18functionIFvNS2_6ResultERKNS2_16AmFmRegionConfigEEEE"
  },
  {
   "name" : "_ZN7android8hardware14broadcastradio4V2_018BpHwBroadcastRadio19interfaceDescriptorENSt3__18functionIFvRKNS0_11hidl_stringEEEE"
  },
  {
   "name" : "_ZN7android8hardware14broadcastradio4V2_018BpHwBroadcastRadio21notifySyspropsChangedEv"
  },
  {
   "name" : "_ZN7android8hardware14broadcastradio4V2_018BpHwBroadcastRadio21setHALInstrumentationEv"
  },
  {
   "name" : "_ZN7android8hardware14broadcastradio4V2_018BpHwBroadcastRadio24_hidl_getDabRegionConfigEPNS0_10IInterfaceEPNS0_7details16HidlInstrumentorENSt3__18functionIFvNS2_6ResultERKNS0_8hidl_vecINS2_13DabTableEntryEEEEEE"
  },
  {
   "name" : "_ZN7android8hardware14broadcastradio4V2_018BpHwBroadcastRadio25_hidl_getAmFmRegionConfigEPNS0_10IInterfaceEPNS0_7details16HidlInstrumentorEbNSt3__18functionIFvNS2_6ResultERKNS2_16AmFmRegionConfigEEEE"
  },
  {
   "name" : "_ZN7android8hardware14broadcastradio4V2_018BpHwBroadcastRadio28registerAnnouncementListenerERKNS0_8hidl_vecINS2_16AnnouncementTypeEEERKNS_2spINS2_21IAnnouncementListenerEEENSt3__18functionIFvNS2_6ResultERKNS9_INS2_12ICloseHandleEEEEEE"
  },
  {
   "name" : "_ZN7android8hardware14broadcastradio4V2_018BpHwBroadcastRadio34_hidl_registerAnnouncementListenerEPNS0_10IInterfaceEPNS0_7details16HidlInstrumentorERKNS0_8hidl_vecINS2_16AnnouncementTypeEEERKNS_2spINS2_21IAnnouncementListenerEEENSt3__18functionIFvNS2_6ResultERKNSE_INS2_12ICloseHandleEEEEEE"
  },
  {
   "name" : "_ZN7android8hardware14broadcastradio4V2_018BpHwBroadcastRadio4pingEv"
  },
  {
   "name" : "_ZN7android8hardware14broadcastradio4V2_018BpHwBroadcastRadio5debugERKNS0_11hidl_handleERKNS0_8hidl_vecINS0_11hidl_stringEEE"
  },
  {
   "name" : "_ZN7android8hardware14broadcastradio4V2_018BpHwBroadcastRadio8getImageEjNSt3__18functionIFvRKNS0_8hidl_vecIhEEEEE"
  },
  {
   "name" : "_ZN7android8hardware14broadcastradio4V2_018BpHwBroadcastRadioC1ERKNS_2spINS0_7IBinderEEE"
  },
  {
   "name" : "_ZN7android8hardware14broadcastradio4V2_018BpHwBroadcastRadioC2ERKNS_2spINS0_7IBinderEEE"
  },
  {
   "name" : "_ZN7android8hardware14broadcastradio4V2_021IAnnouncementListener10getServiceERKNSt3__112basic_stringIcNS4_11char_traitsIcEENS4_9allocatorIcEEEEb"
  },
  {
   "name" : "_ZN7android8hardware14broadcastradio4V2_021IAnnouncementListener11linkToDeathERKNS_2spINS0_20hidl_death_recipientEEEm"
  },
  {
   "name" : "_ZN7android8hardware14broadcastradio4V2_021IAnnouncementListener12getDebugInfoENSt3__18functionIFvRKNS_4hidl4base4V1_09DebugInfoEEEE"
  },
  {
   "name" : "_ZN7android8hardware14broadcastradio4V2_021IAnnouncementListener12getHashChainENSt3__18functionIFvRKNS0_8hidl_vecINS0_10hidl_arrayIhLm32EJEEEEEEEE"
  },
  {
   "name" : "_ZN7android8hardware14broadcastradio4V2_021IAnnouncementListener13tryGetServiceERKNSt3__112basic_stringIcNS4_11char_traitsIcEENS4_9allocatorIcEEEEb"
  },
  {
   "name" : "_ZN7android8hardware14broadcastradio4V2_021IAnnouncementListener13unlinkToDeathERKNS_2spINS0_20hidl_death_recipientEEE"
  },
  {
   "name" : "_ZN7android8hardware14broadcastradio4V2_021IAnnouncementListener14interfaceChainENSt3__18functionIFvRKNS0_8hidl_vecINS0_11hidl_stringEEEEEE"
  },
  {
   "name" : "_ZN7android8hardware14broadcastradio4V2_021IAnnouncementListener17registerAsServiceERKNSt3__112basic_stringIcNS4_11char_traitsIcEENS4_9allocatorIcEEEE"
  },
  {
   "name" : "_ZN7android8hardware14broadcastradio4V2_021IAnnouncementListener19interfaceDescriptorENSt3__18functionIFvRKNS0_11hidl_stringEEEE"
  },
  {
   "name" : "_ZN7android8hardware14broadcastradio4V2_021IAnnouncementListener21notifySyspropsChangedEv"
  },
  {
   "name" : "_ZN7android8hardware14broadcastradio4V2_021IAnnouncementListener21setHALInstrumentationEv"
  },
  {
   "name" : "_ZN7android8hardware14broadcastradio4V2_021IAnnouncementListener24registerForNotificationsERKNSt3__112basic_stringIcNS4_11char_traitsIcEENS4_9allocatorIcEEEERKNS_2spINS_4hidl7manager4V1_020IServiceNotificationEEE"
  },
  {
   "name" : "_ZN7android8hardware14broadcastradio4V2_021IAnnouncementListener4pingEv"
  },
  {
   "name" : "_ZN7android8hardware14broadcastradio4V2_021IAnnouncementListener5debugERKNS0_11hidl_handleERKNS0_8hidl_vecINS0_11hidl_stringEEE"
  },
  {
   "name" : "_ZN7android8hardware14broadcastradio4V2_021IAnnouncementListener8castFromERKNS_2spINS_4hidl4base4V1_05IBaseEEEb"
  },
  {
   "name" : "_ZN7android8hardware14broadcastradio4V2_021IAnnouncementListener8castFromERKNS_2spIS3_EEb"
  },
  {
   "name" : "_ZN7android8hardware14broadcastradio4V2_021writeEmbeddedToParcelERKNS2_10PropertiesEPNS0_6ParcelEmm"
  },
  {
   "name" : "_ZN7android8hardware14broadcastradio4V2_021writeEmbeddedToParcelERKNS2_11ProgramInfoEPNS0_6ParcelEmm"
  },
  {
   "name" : "_ZN7android8hardware14broadcastradio4V2_021writeEmbeddedToParcelERKNS2_12AnnouncementEPNS0_6ParcelEmm"
  },
  {
   "name" : "_ZN7android8hardware14broadcastradio4V2_021writeEmbeddedToParcelERKNS2_13DabTableEntryEPNS0_6ParcelEmm"
  },
  {
   "name" : "_ZN7android8hardware14broadcastradio4V2_021writeEmbeddedToParcelERKNS2_13ProgramFilterEPNS0_6ParcelEmm"
  },
  {
   "name" : "_ZN7android8hardware14broadcastradio4V2_021writeEmbeddedToParcelERKNS2_14VendorKeyValueEPNS0_6ParcelEmm"
  },
  {
   "name" : "_ZN7android8hardware14broadcastradio4V2_021writeEmbeddedToParcelERKNS2_15ProgramSelectorEPNS0_6ParcelEmm"
  },
  {
   "name" : "_ZN7android8hardware14broadcastradio4V2_021writeEmbeddedToParcelERKNS2_16AmFmRegionConfigEPNS0_6ParcelEmm"
  },
  {
   "name" : "_ZN7android8hardware14broadcastradio4V2_021writeEmbeddedToParcelERKNS2_16ProgramListChunkEPNS0_6ParcelEmm"
  },
  {
   "name" : "_ZN7android8hardware14broadcastradio4V2_021writeEmbeddedToParcelERKNS2_8MetadataEPNS0_6ParcelEmm"
  },
  {
   "name" : "_ZN7android8hardware14broadcastradio4V2_022BsAnnouncementListener13addOnewayTaskENSt3__18functionIFvvEEE"
  },
  {
   "name" : "_ZN7android8hardware14broadcastradio4V2_022BsAnnouncementListenerC1ENS_2spINS2_21IAnnouncementListenerEEE"
  },
  {
   "name" : "_ZN7android8hardware14broadcastradio4V2_022BsAnnouncementListenerC2ENS_2spINS2_21IAnnouncementListenerEEE"
  },
  {
   "name" : "_ZN7android8hardware14broadcastradio4V2_022readEmbeddedFromParcelERKNS2_10PropertiesERKNS0_6ParcelEmm"
  },
  {
   "name" : "_ZN7android8hardware14broadcastradio4V2_022readEmbeddedFromParcelERKNS2_11ProgramInfoERKNS0_6ParcelEmm"
  },
  {
   "name" : "_ZN7android8hardware14broadcastradio4V2_022readEmbeddedFromParcelERKNS2_12AnnouncementERKNS0_6ParcelEmm"
  },
  {
   "name" : "_ZN7android8hardware14broadcastradio4V2_022readEmbeddedFromParcelERKNS2_13DabTableEntryERKNS0_6ParcelEmm"
  },
  {
   "name" : "_ZN7android8hardware14broadcastradio4V2_022readEmbeddedFromParcelERKNS2_13ProgramFilterERKNS0_6ParcelEmm"
  },
  {
   "name" : "_ZN7android8hardware14broadcastradio4V2_022readEmbeddedFromParcelERKNS2_14VendorKeyValueERKNS0_6ParcelEmm"
  },
  {
   "name" : "_ZN7android8hardware14broadcastradio4V2_022readEmbeddedFromParcelERKNS2_15ProgramSelectorERKNS0_6ParcelEmm"
  },
  {
   "name" : "_ZN7android8hardware14broadcastradio4V2_022readEmbeddedFromParcelERKNS2_16AmFmRegionConfigERKNS0_6ParcelEmm"
  },
  {
   "name" : "_ZN7android8hardware14broadcastradio4V2_022readEmbeddedFromParcelERKNS2_16ProgramListChunkERKNS0_6ParcelEmm"
  },
  {
   "name" : "_ZN7android8hardware14broadcastradio4V2_022readEmbeddedFromParcelERKNS2_8MetadataERKNS0_6ParcelEmm"
  },
  {
   "name" : "_ZN7android8hardware14broadcastradio4V2_024BnHwAnnouncementListener10onTransactEjRKNS0_6ParcelEPS4_jNSt3__18functionIFvRS4_EEE"
  },
  {
   "name" : "_ZN7android8hardware14broadcastradio4V2_024BnHwAnnouncementListener12getDebugInfoENSt3__18functionIFvRKNS_4hidl4base4V1_09DebugInfoEEEE"
  },
  {
   "name" : "_ZN7android8hardware14broadcastradio4V2_024BnHwAnnouncementListener19_hidl_onListUpdatedEPNS_4hidl4base4V1_08BnHwBaseERKNS0_6ParcelEPS9_NSt3__18functionIFvRS9_EEE"
  },
  {
   "name" : "_ZN7android8hardware14broadcastradio4V2_024BnHwAnnouncementListener4pingEv"
  },
  {
   "name" : "_ZN7android8hardware14broadcastradio4V2_024BnHwAnnouncementListenerC1ERKNS_2spINS2_21IAnnouncementListenerEEE"
  },
  {
   "name" : "_ZN7android8hardware14broadcastradio4V2_024BnHwAnnouncementListenerC2ERKNS_2spINS2_21IAnnouncementListenerEEE"
  },
  {
   "name" : "_ZN7android8hardware14broadcastradio4V2_024BnHwAnnouncementListenerD0Ev"
  },
  {
   "name" : "_ZN7android8hardware14broadcastradio4V2_024BnHwAnnouncementListenerD1Ev"
  },
  {
   "name" : "_ZN7android8hardware14broadcastradio4V2_024BnHwAnnouncementListenerD2Ev"
  },
  {
   "name" : "_ZN7android8hardware14broadcastradio4V2_024BpHwAnnouncementListener11linkToDeathERKNS_2spINS0_20hidl_death_recipientEEEm"
  },
  {
   "name" : "_ZN7android8hardware14broadcastradio4V2_024BpHwAnnouncementListener12getDebugInfoENSt3__18functionIFvRKNS_4hidl4base4V1_09DebugInfoEEEE"
  },
  {
   "name" : "_ZN7android8hardware14broadcastradio4V2_024BpHwAnnouncementListener12getHashChainENSt3__18functionIFvRKNS0_8hidl_vecINS0_10hidl_arrayIhLm32EJEEEEEEEE"
  },
  {
   "name" : "_ZN7android8hardware14broadcastradio4V2_024BpHwAnnouncementListener13onListUpdatedERKNS0_8hidl_vecINS2_12AnnouncementEEE"
  },
  {
   "name" : "_ZN7android8hardware14broadcastradio4V2_024BpHwAnnouncementListener13unlinkToDeathERKNS_2spINS0_20hidl_death_recipientEEE"
  },
  {
   "name" : "_ZN7android8hardware14broadcastradio4V2_024BpHwAnnouncementListener14interfaceChainENSt3__18functionIFvRKNS0_8hidl_vecINS0_11hidl_stringEEEEEE"
  },
  {
   "name" : "_ZN7android8hardware14broadcastradio4V2_024BpHwAnnouncementListener15onLastStrongRefEPKv"
  },
  {
   "name" : "_ZN7android8hardware14broadcastradio4V2_024BpHwAnnouncementListener19_hidl_onListUpdatedEPNS0_10IInterfaceEPNS0_7details16HidlInstrumentorERKNS0_8hidl_vecINS2_12AnnouncementEEE"
  },
  {
   "name" : "_ZN7android8hardware14broadcastradio4V2_024BpHwAnnouncementListener19interfaceDescriptorENSt3__18functionIFvRKNS0_11hidl_stringEEEE"
  },
  {
   "name" : "_ZN7android8hardware14broadcastradio4V2_024BpHwAnnouncementListener21notifySyspropsChangedEv"
  },
  {
   "name" : "_ZN7android8hardware14broadcastradio4V2_024BpHwAnnouncementListener21setHALInstrumentationEv"
  },
  {
   "name" : "_ZN7android8hardware14broadcastradio4V2_024BpHwAnnouncementListener4pingEv"
  },
  {
   "name" : "_ZN7android8hardware14broadcastradio4V2_024BpHwAnnouncementListener5debugERKNS0_11hidl_handleERKNS0_8hidl_vecINS0_11hidl_stringEEE"
  },
  {
   "name" : "_ZN7android8hardware14broadcastradio4V2_024BpHwAnnouncementListenerC1ERKNS_2spINS0_7IBinderEEE"
  },
  {
   "name" : "_ZN7android8hardware14broadcastradio4V2_024BpHwAnnouncementListenerC2ERKNS_2spINS0_7IBinderEEE"
  },
  {
   "binding" : "weak",
   "name" : "_ZN7android8hardware7details13castInterfaceINS0_14broadcastradio4V2_012ICloseHandleENS_4hidl4base4V1_05IBaseENS4_15BpHwCloseHandleEEENS0_6ReturnINS_2spIT_EEEENSC_IT0_EEPKcb"
  },
  {
   "binding" : "weak",
   "name" : "_ZN7android8hardware7details13castInterfaceINS0_14broadcastradio4V2_013ITunerSessionENS_4hidl4base4V1_05IBaseENS4_16BpHwTunerSessionEEENS0_6ReturnINS_2spIT_EEEENSC_IT0_EEPKcb"
  },
  {
   "binding" : "weak",
   "name" : "_ZN7android8hardware7details13castInterfaceINS0_14broadcastradio4V2_014ITunerCallbackENS_4hidl4base4V1_05IBaseENS4_17BpHwTunerCallbackEEENS0_6ReturnINS_2spIT_EEEENSC_IT0_EEPKcb"
  },
  {
   "binding" : "weak",
   "name" : "_ZN7android8hardware7details13castInterfaceINS0_14broadcastradio4V2_015IBroadcastRadioENS_4hidl4base4V1_05IBaseENS4_18BpHwBroadcastRadioEEENS0_6ReturnINS_2spIT_EEEENSC_IT0_EEPKcb"
  },
  {
   "binding" : "weak",
   "name" : "_ZN7android8hardware7details13castInterfaceINS0_14broadcastradio4V2_021IAnnouncementListenerENS_4hidl4base4V1_05IBaseENS4_24BpHwAnnouncementListenerEEENS0_6ReturnINS_2spIT_EEEENSC_IT0_EEPKcb"
  },
  {
   "binding" : "weak",
   "name" : "_ZN7android8hardware7details15wrapPassthroughINS0_14broadcastradio4V2_012ICloseHandleEvEENS_2spIT_EES8_"
  },
  {
   "binding" : "weak",
   "name" : "_ZN7android8hardware7details15wrapPassthroughINS0_14broadcastradio4V2_013ITunerSessionEvEENS_2spIT_EES8_"
  },
  {
   "binding" : "weak",
   "name" : "_ZN7android8hardware7details15wrapPassthroughINS0_14broadcastradio4V2_014ITunerCallbackEvEENS_2spIT_EES8_"
  },
  {
   "binding" : "weak",
   "name" : "_ZN7android8hardware7details15wrapPassthroughINS0_14broadcastradio4V2_021IAnnouncementListenerEvEENS_2spIT_EES8_"
  },
  {
   "binding" : "weak",
   "name" : "_ZN7android8hardware7details18getServiceInternalINS0_14broadcastradio4V2_015BpHwCloseHandleENS4_12ICloseHandleEvvEENS_2spIT0_EERKNSt3__112basic_stringIcNSA_11char_traitsIcEENSA_9allocatorIcEEEEbb"
  },
  {
   "binding" : "weak",
   "name" : "_ZN7android8hardware7details18getServiceInternalINS0_14broadcastradio4V2_016BpHwTunerSessionENS4_13ITunerSessionEvvEENS_2spIT0_EERKNSt3__112basic_stringIcNSA_11char_traitsIcEENSA_9allocatorIcEEEEbb"
  },
  {
   "binding" : "weak",
   "name" : "_ZN7android8hardware7details18getServiceInternalINS0_14broadcastradio4V2_017BpHwTunerCallbackENS4_14ITunerCallbackEvvEENS_2spIT0_EERKNSt3__112basic_stringIcNSA_11char_traitsIcEENSA_9allocatorIcEEEEbb"
  },
  {
   "binding" : "weak",
   "name" : "_ZN7android8hardware7details18getServiceInternalINS0_14broadcastradio4V2_018BpHwBroadcastRadioENS4_15IBroadcastRadioEvvEENS_2spIT0_EERKNSt3__112basic_stringIcNSA_11char_traitsIcEENSA_9allocatorIcEEEEbb"
  },
  {
   "binding" : "weak",
   "name" : "_ZN7android8hardware7details18getServiceInternalINS0_14broadcastradio4V2_024BpHwAnnouncementListenerENS4_21IAnnouncementListenerEvvEENS_2spIT0_EERKNSt3__112basic_stringIcNSA_11char_traitsIcEENSA_9allocatorIcEEEEbb"
  },
  {
   "binding" : "weak",
   "name" : "_ZNKSt3__18functionIFvN7android8hardware7details16HidlInstrumentor20InstrumentationEventEPKcS7_S7_S7_PNS_6vectorIPvNS_9allocatorIS9_EEEEEEclES5_S7_S7_S7_S7_SD_"
  },
  {
   "binding" : "weak",
   "name" : "_ZNSt3__113__tree_removeIPNS_16__tree_node_baseIPvEEEEvT_S5_"
  },
  {
   "binding" : "weak",
   "name" : "_ZNSt3__127__tree_balance_after_insertIPNS_16__tree_node_baseIPvEEEEvT_S5_"
  },
  {
   "binding" : "weak",
   "name" : "_ZNSt3__16__treeINS_12__value_typeINS_12basic_stringIcNS_11char_traitsIcEENS_9allocatorIcEEEENS_8functionIFN7android2spINS9_4hidl4base4V1_05IBaseEEEPvEEEEENS_19__map_value_compareIS7_SJ_NS_4lessIS7_EELb1EEENS5_ISJ_EEE12__find_equalIS7_EERPNS_16__tree_node_baseISG_EERPNS_15__tree_end_nodeIST_EERKT_"
  },
  {
   "binding" : "weak",
   "name" : "_ZNSt3__16__treeINS_12__value_typeINS_12basic_stringIcNS_11char_traitsIcEENS_9allocatorIcEEEENS_8functionIFN7android2spINS9_4hidl4base4V1_05IBaseEEEPvEEEEENS_19__map_value_compareIS7_SJ_NS_4lessIS7_EELb1EEENS5_ISJ_EEE4findIS7_EENS_15__tree_iteratorISJ_PNS_11__tree_nodeISJ_SG_EElEERKT_"
  },
  {
   "binding" : "weak",
   "name" : "_ZNSt3__16__treeINS_12__value_typeINS_12basic_stringIcNS_11char_traitsIcEENS_9allocatorIcEEEENS_8functionIFN7android2spINS9_4hidl4base4V1_05IBaseEEEPvEEEEENS_19__map_value_compareIS7_SJ_NS_4lessIS7_EELb1EEENS5_ISJ_EEE5eraseENS_21__tree_const_iteratorISJ_PNS_11__tree_nodeISJ_SG_EElEE"
  },
  {
   "binding" : "weak",
   "name" : "_ZNSt3__16__treeINS_12__value_typeINS_12basic_stringIcNS_11char_traitsIcEENS_9allocatorIcEEEENS_8functionIFN7android2spINS9_8hardware7IBinderEEEPvEEEEENS_19__map_value_compareIS7_SH_NS_4lessIS7_EELb1EEENS5_ISH_EEE12__find_equalIS7_EERPNS_16__tree_node_baseISE_EERPNS_15__tree_end_nodeISR_EERKT_"
  },
  {
   "binding" : "weak",
   "name" : "_ZNSt3__16__treeINS_12__value_typeINS_12basic_stringIcNS_11char_traitsIcEENS_9allocatorIcEEEENS_8functionIFN7android2spINS9_8hardware7IBinderEEEPvEEEEENS_19__map_value_compareIS7_SH_NS_4lessIS7_EELb1EEENS5_ISH_EEE4findIS7_EENS_15__tree_iteratorISH_PNS_11__tree_nodeISH_SE_EElEERKT_"
  },
  {
   "binding" : "weak",
   "name" : "_ZNSt3__16__treeINS_12__value_typeINS_12basic_stringIcNS_11char_traitsIcEENS_9allocatorIcEEEENS_8functionIFN7android2spINS9_8hardware7IBinderEEEPvEEEEENS_19__map_value_compareIS7_SH_NS_4lessIS7_EELb1EEENS5_ISH_EEE5eraseENS_21__tree_const_iteratorISH_PNS_11__tree_nodeISH_SE_EElEE"
  },
  {
   "binding" : "weak",
   "name" : "_ZNSt3__16vectorIN7android2spINS1_8hardware27hidl_binder_death_recipientEEENS_9allocatorIS5_EEE21__push_back_slow_pathIS5_EEvOT_"
  },
  {
   "binding" : "weak",
   "name" : "_ZNSt3__16vectorINS_8functionIFvN7android8hardware7details16HidlInstrumentor20InstrumentationEventEPKcS8_S8_S8_PNS0_IPvNS_9allocatorIS9_EEEEEEENSA_ISF_EEEC2ERKSH_"
  },
  {
   "binding" : "weak",
   "name" : "_ZNSt3__16vectorIPvNS_9allocatorIS1_EEE21__push_back_slow_pathIS1_EEvOT_"
  },
  {
   "name" : "_ZThn16_N7android8hardware14broadcastradio4V2_015BpHwCloseHandle15onLastStrongRefEPKv"
  },
  {
   "name" : "_ZThn16_N7android8hardware14broadcastradio4V2_016BpHwTunerSession15onLastStrongRefEPKv"
  },
  {
   "name" : "_ZThn16_N7android8hardware14broadcastradio4V2_017BpHwTunerCallback15onLastStrongRefEPKv"
  },
  {
   "name" : "_ZThn16_N7android8hardware14broadcastradio4V2_018BpHwBroadcastRadio15onLastStrongRefEPKv"
  },
  {
   "name" : "_ZThn16_N7android8hardware14broadcastradio4V2_024BpHwAnnouncementListener15onLastStrongRefEPKv"
  },
  {
   "name" : "_ZThn32_N7android8hardware14broadcastradio4V2_015BnHwCloseHandleD0Ev"
  },
  {
   "name" : "_ZThn32_N7android8hardware14broadcastradio4V2_015BnHwCloseHandleD1Ev"
  },
  {
   "name" : "_ZThn32_N7android8hardware14broadcastradio4V2_016BnHwTunerSessionD0Ev"
  },
  {
   "name" : "_ZThn32_N7android8hardware14broadcastradio4V2_016BnHwTunerSessionD1Ev"
  },
  {
   "name" : "_ZThn32_N7android8hardware14broadcastradio4V2_017BnHwTunerCallbackD0Ev"
  },
  {
   "name" : "_ZThn32_N7android8hardware14broadcastradio4V2_017BnHwTunerCallbackD1Ev"
  },
  {
   "name" : "_ZThn32_N7android8hardware14broadcastradio4V2_018BnHwBroadcastRadioD0Ev"
  },
  {
   "name" : "_ZThn32_N7android8hardware14broadcastradio4V2_018BnHwBroadcastRadioD1Ev"
  },
  {
   "name" : "_ZThn32_N7android8hardware14broadcastradio4V2_024BnHwAnnouncementListenerD0Ev"
  },
  {
   "name" : "_ZThn32_N7android8hardware14broadcastradio4V2_024BnHwAnnouncementListenerD1Ev"
  },
  {
   "name" : "_ZTv0_n24_N7android8hardware14broadcastradio4V2_015BnHwCloseHandleD0Ev"
  },
  {
   "name" : "_ZTv0_n24_N7android8hardware14broadcastradio4V2_015BnHwCloseHandleD1Ev"
  },
  {
   "name" : "_ZTv0_n24_N7android8hardware14broadcastradio4V2_016BnHwTunerSessionD0Ev"
  },
  {
   "name" : "_ZTv0_n24_N7android8hardware14broadcastradio4V2_016BnHwTunerSessionD1Ev"
  },
  {
   "name" : "_ZTv0_n24_N7android8hardware14broadcastradio4V2_017BnHwTunerCallbackD0Ev"
  },
  {
   "name" : "_ZTv0_n24_N7android8hardware14broadcastradio4V2_017BnHwTunerCallbackD1Ev"
  },
  {
   "name" : "_ZTv0_n24_N7android8hardware14broadcastradio4V2_018BnHwBroadcastRadioD0Ev"
  },
  {
   "name" : "_ZTv0_n24_N7android8hardware14broadcastradio4V2_018BnHwBroadcastRadioD1Ev"
  },
  {
   "name" : "_ZTv0_n24_N7android8hardware14broadcastradio4V2_024BnHwAnnouncementListenerD0Ev"
  },
  {
   "name" : "_ZTv0_n24_N7android8hardware14broadcastradio4V2_024BnHwAnnouncementListenerD1Ev"
  },
  {
   "name" : "_ZTv0_n40_N7android8hardware14broadcastradio4V2_015BpHwCloseHandle15onLastStrongRefEPKv"
  },
  {
   "name" : "_ZTv0_n40_N7android8hardware14broadcastradio4V2_016BpHwTunerSession15onLastStrongRefEPKv"
  },
  {
   "name" : "_ZTv0_n40_N7android8hardware14broadcastradio4V2_017BpHwTunerCallback15onLastStrongRefEPKv"
  },
  {
   "name" : "_ZTv0_n40_N7android8hardware14broadcastradio4V2_018BpHwBroadcastRadio15onLastStrongRefEPKv"
  },
  {
   "name" : "_ZTv0_n40_N7android8hardware14broadcastradio4V2_024BpHwAnnouncementListener15onLastStrongRefEPKv"
  }
 ],
 "elf_objects" :
 [
  {
   "name" : "_ZN7android8hardware14broadcastradio4V2_012ICloseHandle10descriptorE"
  },
  {
   "name" : "_ZN7android8hardware14broadcastradio4V2_013ITunerSession10descriptorE"
  },
  {
   "name" : "_ZN7android8hardware14broadcastradio4V2_014ITunerCallback10descriptorE"
  },
  {
   "name" : "_ZN7android8hardware14broadcastradio4V2_015IBroadcastRadio10descriptorE"
  },
  {
   "name" : "_ZN7android8hardware14broadcastradio4V2_021IAnnouncementListener10descriptorE"
  },
  {
   "name" : "_ZTCN7android8hardware14broadcastradio4V2_012ICloseHandleE0_NS_4hidl4base4V1_05IBaseE"
  },
  {
   "binding" : "weak",
   "name" : "_ZTCN7android8hardware14broadcastradio4V2_013BsCloseHandleE0_NS2_12ICloseHandleE"
  },
  {
   "name" : "_ZTCN7android8hardware14broadcastradio4V2_013ITunerSessionE0_NS_4hidl4base4V1_05IBaseE"
  },
  {
   "binding" : "weak",
   "name" : "_ZTCN7android8hardware14broadcastradio4V2_014BsTunerSessionE0_NS2_13ITunerSessionE"
  },
  {
   "name" : "_ZTCN7android8hardware14broadcastradio4V2_014ITunerCallbackE0_NS_4hidl4base4V1_05IBaseE"
  },
  {
   "name" : "_ZTCN7android8hardware14broadcastradio4V2_015BnHwCloseHandleE0_NS0_7IBinderE"
  },
  {
   "name" : "_ZTCN7android8hardware14broadcastradio4V2_015BnHwCloseHandleE0_NS0_9BHwBinderE"
  },
  {
   "name" : "_ZTCN7android8hardware14broadcastradio4V2_015BnHwCloseHandleE0_NS_4hidl4base4V1_08BnHwBaseE"
  },
  {
   "name" : "_ZTCN7android8hardware14broadcastradio4V2_015BpHwCloseHandleE0_NS0_11BpInterfaceINS2_12ICloseHandleEEE"
  },
  {
   "name" : "_ZTCN7android8hardware14broadcastradio4V2_015BpHwCloseHandleE0_NS2_12ICloseHandleE"
  },
  {
   "name" : "_ZTCN7android8hardware14broadcastradio4V2_015BpHwCloseHandleE0_NS_4hidl4base4V1_05IBaseE"
  },
  {
   "name" : "_ZTCN7android8hardware14broadcastradio4V2_015BpHwCloseHandleE16_NS0_11BpHwRefBaseE"
  },
  {
   "name" : "_ZTCN7android8hardware14broadcastradio4V2_015BpHwCloseHandleE8_NS0_10IInterfaceE"
  },
  {
   "binding" : "weak",
   "name" : "_ZTCN7android8hardware14broadcastradio4V2_015BsTunerCallbackE0_NS2_14ITunerCallbackE"
  },
  {
   "name" : "_ZTCN7android8hardware14broadcastradio4V2_015IBroadcastRadioE0_NS_4hidl4base4V1_05IBaseE"
  },
  {
   "name" : "_ZTCN7android8hardware14broadcastradio4V2_016BnHwTunerSessionE0_NS0_7IBinderE"
  },
  {
   "name" : "_ZTCN7android8hardware14broadcastradio4V2_016BnHwTunerSessionE0_NS0_9BHwBinderE"
  },
  {
   "name" : "_ZTCN7android8hardware14broadcastradio4V2_016BnHwTunerSessionE0_NS_4hidl4base4V1_08BnHwBaseE"
  },
  {
   "name" : "_ZTCN7android8hardware14broadcastradio4V2_016BpHwTunerSessionE0_NS0_11BpInterfaceINS2_13ITunerSessionEEE"
  },
  {
   "name" : "_ZTCN7android8hardware14broadcastradio4V2_016BpHwTunerSessionE0_NS2_13ITunerSessionE"
  },
  {
   "name" : "_ZTCN7android8hardware14broadcastradio4V2_016BpHwTunerSessionE0_NS_4hidl4base4V1_05IBaseE"
  },
  {
   "name" : "_ZTCN7android8hardware14broadcastradio4V2_016BpHwTunerSessionE16_NS0_11BpHwRefBaseE"
  },
  {
   "name" : "_ZTCN7android8hardware14broadcastradio4V2_016BpHwTunerSessionE8_NS0_10IInterfaceE"
  },
  {
   "binding" : "weak",
   "name" : "_ZTCN7android8hardware14broadcastradio4V2_016BsBroadcastRadioE0_NS2_15IBroadcastRadioE"
  },
  {
   "name" : "_ZTCN7android8hardware14broadcastradio4V2_017BnHwTunerCallbackE0_NS0_7IBinderE"
  },
  {
   "name" : "_ZTCN7android8hardware14broadcastradio4V2_017BnHwTunerCallbackE0_NS0_9BHwBinderE"
  },
  {
   "name" : "_ZTCN7android8hardware14broadcastradio4V2_017BnHwTunerCallbackE0_NS_4hidl4base4V1_08BnHwBaseE"
  },
  {
   "name" : "_ZTCN7android8hardware14broadcastradio4V2_017BpHwTunerCallbackE0_NS0_11BpInterfaceINS2_14ITunerCallbackEEE"
  },
  {
   "name" : "_ZTCN7android8hardware14broadcastradio4V2_017BpHwTunerCallbackE0_NS2_14ITunerCallbackE"
  },
  {
   "name" : "_ZTCN7android8hardware14broadcastradio4V2_017BpHwTunerCallbackE0_NS_4hidl4base4V1_05IBaseE"
  },
  {
   "name" : "_ZTCN7android8hardware14broadcastradio4V2_017BpHwTunerCallbackE16_NS0_11BpHwRefBaseE"
  },
  {
   "name" : "_ZTCN7android8hardware14broadcastradio4V2_017BpHwTunerCallbackE8_NS0_10IInterfaceE"
  },
  {
   "name" : "_ZTCN7android8hardware14broadcastradio4V2_018BnHwBroadcastRadioE0_NS0_7IBinderE"
  },
  {
   "name" : "_ZTCN7android8hardware14broadcastradio4V2_018BnHwBroadcastRadioE0_NS0_9BHwBinderE"
  },
  {
   "name" : "_ZTCN7android8hardware14broadcastradio4V2_018BnHwBroadcastRadioE0_NS_4hidl4base4V1_08BnHwBaseE"
  },
  {
   "name" : "_ZTCN7android8hardware14broadcastradio4V2_018BpHwBroadcastRadioE0_NS0_11BpInterfaceINS2_15IBroadcastRadioEEE"
  },
  {
   "name" : "_ZTCN7android8hardware14broadcastradio4V2_018BpHwBroadcastRadioE0_NS2_15IBroadcastRadioE"
  },
  {
   "name" : "_ZTCN7android8hardware14broadcastradio4V2_018BpHwBroadcastRadioE0_NS_4hidl4base4V1_05IBaseE"
  },
  {
   "name" : "_ZTCN7android8hardware14broadcastradio4V2_018BpHwBroadcastRadioE16_NS0_11BpHwRefBaseE"
  },
  {
   "name" : "_ZTCN7android8hardware14broadcastradio4V2_018BpHwBroadcastRadioE8_NS0_10IInterfaceE"
  },
  {
   "name" : "_ZTCN7android8hardware14broadcastradio4V2_021IAnnouncementListenerE0_NS_4hidl4base4V1_05IBaseE"
  },
  {
   "binding" : "weak",
   "name" : "_ZTCN7android8hardware14broadcastradio4V2_022BsAnnouncementListenerE0_NS2_21IAnnouncementListenerE"
  },
  {
   "name" : "_ZTCN7android8hardware14broadcastradio4V2_024BnHwAnnouncementListenerE0_NS0_7IBinderE"
  },
  {
   "name" : "_ZTCN7android8hardware14broadcastradio4V2_024BnHwAnnouncementListenerE0_NS0_9BHwBinderE"
  },
  {
   "name" : "_ZTCN7android8hardware14broadcastradio4V2_024BnHwAnnouncementListenerE0_NS_4hidl4base4V1_08BnHwBaseE"
  },
  {
   "name" : "_ZTCN7android8hardware14broadcastradio4V2_024BpHwAnnouncementListenerE0_NS0_11BpInterfaceINS2_21IAnnouncementListenerEEE"
  },
  {
   "name" : "_ZTCN7android8hardware14broadcastradio4V2_024BpHwAnnouncementListenerE0_NS2_21IAnnouncementListenerE"
  },
  {
   "name" : "_ZTCN7android8hardware14broadcastradio4V2_024BpHwAnnouncementListenerE0_NS_4hidl4base4V1_05IBaseE"
  },
  {
   "name" : "_ZTCN7android8hardware14broadcastradio4V2_024BpHwAnnouncementListenerE16_NS0_11BpHwRefBaseE"
  },
  {
   "name" : "_ZTCN7android8hardware14broadcastradio4V2_024BpHwAnnouncementListenerE8_NS0_10IInterfaceE"
  },
  {
   "name" : "_ZTTN7android8hardware14broadcastradio4V2_012ICloseHandleE"
  },
  {
   "name" : "_ZTTN7android8hardware14broadcastradio4V2_013ITunerSessionE"
  },
  {
   "name" : "_ZTTN7android8hardware14broadcastradio4V2_014ITunerCallbackE"
  },
  {
   "name" : "_ZTTN7android8hardware14broadcastradio4V2_015BnHwCloseHandleE"
  },
  {
   "name" : "_ZTTN7android8hardware14broadcastradio4V2_015BpHwCloseHandleE"
  },
  {
   "name" : "_ZTTN7android8hardware14broadcastradio4V2_015IBroadcastRadioE"
  },
  {
   "name" : "_ZTTN7android8hardware14broadcastradio4V2_016BnHwTunerSessionE"
  },
  {
   "name" : "_ZTTN7android8hardware14broadcastradio4V2_016BpHwTunerSessionE"
  },
  {
   "name" : "_ZTTN7android8hardware14broadcastradio4V2_017BnHwTunerCallbackE"
  },
  {
   "name" : "_ZTTN7android8hardware14broadcastradio4V2_017BpHwTunerCallbackE"
  },
  {
   "name" : "_ZTTN7android8hardware14broadcastradio4V2_018BnHwBroadcastRadioE"
  },
  {
   "name" : "_ZTTN7android8hardware14broadcastradio4V2_018BpHwBroadcastRadioE"
  },
  {
   "name" : "_ZTTN7android8hardware14broadcastradio4V2_021IAnnouncementListenerE"
  },
  {
   "name" : "_ZTTN7android8hardware14broadcastradio4V2_024BnHwAnnouncementListenerE"
  },
  {
   "name" : "_ZTTN7android8hardware14broadcastradio4V2_024BpHwAnnouncementListenerE"
  },
  {
   "name" : "_ZTVN7android8hardware14broadcastradio4V2_012ICloseHandleE"
  },
  {
   "binding" : "weak",
   "name" : "_ZTVN7android8hardware14broadcastradio4V2_013BsCloseHandleE"
  },
  {
   "name" : "_ZTVN7android8hardware14broadcastradio4V2_013ITunerSessionE"
  },
  {
   "binding" : "weak",
   "name" : "_ZTVN7android8hardware14broadcastradio4V2_014BsTunerSessionE"
  },
  {
   "name" : "_ZTVN7android8hardware14broadcastradio4V2_014ITunerCallbackE"
  },
  {
   "name" : "_ZTVN7android8hardware14broadcastradio4V2_015BnHwCloseHandleE"
  },
  {
   "name" : "_ZTVN7android8hardware14broadcastradio4V2_015BpHwCloseHandleE"
  },
  {
   "binding" : "weak",
   "name" : "_ZTVN7android8hardware14broadcastradio4V2_015BsTunerCallbackE"
  },
  {
   "name" : "_ZTVN7android8hardware14broadcastradio4V2_015IBroadcastRadioE"
  },
  {
   "name" : "_ZTVN7android8hardware14broadcastradio4V2_016BnHwTunerSessionE"
  },
  {
   "name" : "_ZTVN7android8hardware14broadcastradio4V2_016BpHwTunerSessionE"
  },
  {
   "binding" : "weak",
   "name" : "_ZTVN7android8hardware14broadcastradio4V2_016BsBroadcastRadioE"
  },
  {
   "name" : "_ZTVN7android8hardware14broadcastradio4V2_017BnHwTunerCallbackE"
  },
  {
   "name" : "_ZTVN7android8hardware14broadcastradio4V2_017BpHwTunerCallbackE"
  },
  {
   "name" : "_ZTVN7android8hardware14broadcastradio4V2_018BnHwBroadcastRadioE"
  },
  {
   "name" : "_ZTVN7android8hardware14broadcastradio4V2_018BpHwBroadcastRadioE"
  },
  {
   "name" : "_ZTVN7android8hardware14broadcastradio4V2_021IAnnouncementListenerE"
  },
  {
   "binding" : "weak",
   "name" : "_ZTVN7android8hardware14broadcastradio4V2_022BsAnnouncementListenerE"
  },
  {
   "name" : "_ZTVN7android8hardware14broadcastradio4V2_024BnHwAnnouncementListenerE"
  },
  {
   "name" : "_ZTVN7android8hardware14broadcastradio4V2_024BpHwAnnouncementListenerE"
  }
 ],
 "enum_types" :
 [
  {
   "alignment" : 4,
   "enum_fields" :
   [
    {
     "enum_field_value" : 1,
     "name" : "HAL_HDR_DOLBY_VISION"
    },
    {
     "enum_field_value" : 2,
     "name" : "HAL_HDR_HDR10"
    },
    {
     "enum_field_value" : 3,
     "name" : "HAL_HDR_HLG"
    }
   ],
   "linker_set_key" : "_ZTI13android_hdr_t",
   "name" : "android_hdr_t",
   "referenced_type" : "_ZTI13android_hdr_t",
   "self_type" : "_ZTI13android_hdr_t",
   "size" : 4,
   "source_file" : "/system/core/libsystem/include/system/graphics-base-v1.0.h",
   "underlying_type" : "_ZTIj"
  },
  {
   "alignment" : 4,
   "enum_fields" :
   [
    {
     "enum_field_value" : 4,
     "name" : "HAL_HDR_HDR10_PLUS"
    }
   ],
   "linker_set_key" : "_ZTI18android_hdr_v1_2_t",
   "name" : "android_hdr_v1_2_t",
   "referenced_type" : "_ZTI18android_hdr_v1_2_t",
   "self_type" : "_ZTI18android_hdr_v1_2_t",
   "size" : 4,
   "source_file" : "/system/core/libsystem/include/system/graphics-base-v1.2.h",
   "underlying_type" : "_ZTIj"
  },
  {
   "alignment" : 4,
   "enum_fields" :
   [
    {
     "enum_field_value" : 0,
     "name" : "ANDROID_LOG_UNKNOWN"
    },
    {
     "enum_field_value" : 1,
     "name" : "ANDROID_LOG_DEFAULT"
    },
    {
     "enum_field_value" : 2,
     "name" : "ANDROID_LOG_VERBOSE"
    },
    {
     "enum_field_value" : 3,
     "name" : "ANDROID_LOG_DEBUG"
    },
    {
     "enum_field_value" : 4,
     "name" : "ANDROID_LOG_INFO"
    },
    {
     "enum_field_value" : 5,
     "name" : "ANDROID_LOG_WARN"
    },
    {
     "enum_field_value" : 6,
     "name" : "ANDROID_LOG_ERROR"
    },
    {
     "enum_field_value" : 7,
     "name" : "ANDROID_LOG_FATAL"
    },
    {
     "enum_field_value" : 8,
     "name" : "ANDROID_LOG_SILENT"
    }
   ],
   "linker_set_key" : "_ZTI19android_LogPriority",
   "name" : "android_LogPriority",
   "referenced_type" : "_ZTI19android_LogPriority",
   "self_type" : "_ZTI19android_LogPriority",
   "size" : 4,
   "source_file" : "/system/core/liblog/include/android/log.h",
   "underlying_type" : "_ZTIj"
  },
  {
   "alignment" : 4,
   "enum_fields" :
   [
    {
     "enum_field_value" : 0,
     "name" : "HAL_DATASPACE_UNKNOWN"
    },
    {
     "enum_field_value" : 1,
     "name" : "HAL_DATASPACE_ARBITRARY"
    },
    {
     "enum_field_value" : 16,
     "name" : "HAL_DATASPACE_STANDARD_SHIFT"
    },
    {
     "enum_field_value" : 4128768,
     "name" : "HAL_DATASPACE_STANDARD_MASK"
    },
    {
     "enum_field_value" : 0,
     "name" : "HAL_DATASPACE_STANDARD_UNSPECIFIED"
    },
    {
     "enum_field_value" : 65536,
     "name" : "HAL_DATASPACE_STANDARD_BT709"
    },
    {
     "enum_field_value" : 131072,
     "name" : "HAL_DATASPACE_STANDARD_BT601_625"
    },
    {
     "enum_field_value" : 196608,
     "name" : "HAL_DATASPACE_STANDARD_BT601_625_UNADJUSTED"
    },
    {
     "enum_field_value" : 262144,
     "name" : "HAL_DATASPACE_STANDARD_BT601_525"
    },
    {
     "enum_field_value" : 327680,
     "name" : "HAL_DATASPACE_STANDARD_BT601_525_UNADJUSTED"
    },
    {
     "enum_field_value" : 393216,
     "name" : "HAL_DATASPACE_STANDARD_BT2020"
    },
    {
     "enum_field_value" : 458752,
     "name" : "HAL_DATASPACE_STANDARD_BT2020_CONSTANT_LUMINANCE"
    },
    {
     "enum_field_value" : 524288,
     "name" : "HAL_DATASPACE_STANDARD_BT470M"
    },
    {
     "enum_field_value" : 589824,
     "name" : "HAL_DATASPACE_STANDARD_FILM"
    },
    {
     "enum_field_value" : 655360,
     "name" : "HAL_DATASPACE_STANDARD_DCI_P3"
    },
    {
     "enum_field_value" : 720896,
     "name" : "HAL_DATASPACE_STANDARD_ADOBE_RGB"
    },
    {
     "enum_field_value" : 22,
     "name" : "HAL_DATASPACE_TRANSFER_SHIFT"
    },
    {
     "enum_field_value" : 130023424,
     "name" : "HAL_DATASPACE_TRANSFER_MASK"
    },
    {
     "enum_field_value" : 0,
     "name" : "HAL_DATASPACE_TRANSFER_UNSPECIFIED"
    },
    {
     "enum_field_value" : 4194304,
     "name" : "HAL_DATASPACE_TRANSFER_LINEAR"
    },
    {
     "enum_field_value" : 8388608,
     "name" : "HAL_DATASPACE_TRANSFER_SRGB"
    },
    {
     "enum_field_value" : 12582912,
     "name" : "HAL_DATASPACE_TRANSFER_SMPTE_170M"
    },
    {
     "enum_field_value" : 16777216,
     "name" : "HAL_DATASPACE_TRANSFER_GAMMA2_2"
    },
    {
     "enum_field_value" : 20971520,
     "name" : "HAL_DATASPACE_TRANSFER_GAMMA2_6"
    },
    {
     "enum_field_value" : 25165824,
     "name" : "HAL_DATASPACE_TRANSFER_GAMMA2_8"
    },
    {
     "enum_field_value" : 29360128,
     "name" : "HAL_DATASPACE_TRANSFER_ST2084"
    },
    {
     "enum_field_value" : 33554432,
     "name" : "HAL_DATASPACE_TRANSFER_HLG"
    },
    {
     "enum_field_value" : 27,
     "name" : "HAL_DATASPACE_RANGE_SHIFT"
    },
    {
     "enum_field_value" : 939524096,
     "name" : "HAL_DATASPACE_RANGE_MASK"
    },
    {
     "enum_field_value" : 0,
     "name" : "HAL_DATASPACE_RANGE_UNSPECIFIED"
    },
    {
     "enum_field_value" : 134217728,
     "name" : "HAL_DATASPACE_RANGE_FULL"
    },
    {
     "enum_field_value" : 268435456,
     "name" : "HAL_DATASPACE_RANGE_LIMITED"
    },
    {
     "enum_field_value" : 402653184,
     "name" : "HAL_DATASPACE_RANGE_EXTENDED"
    },
    {
     "enum_field_value" : 512,
     "name" : "HAL_DATASPACE_SRGB_LINEAR"
    },
    {
     "enum_field_value" : 138477568,
     "name" : "HAL_DATASPACE_V0_SRGB_LINEAR"
    },
    {
     "enum_field_value" : 406913024,
     "name" : "HAL_DATASPACE_V0_SCRGB_LINEAR"
    },
    {
     "enum_field_value" : 513,
     "name" : "HAL_DATASPACE_SRGB"
    },
    {
     "enum_field_value" : 142671872,
     "name" : "HAL_DATASPACE_V0_SRGB"
    },
    {
     "enum_field_value" : 411107328,
     "name" : "HAL_DATASPACE_V0_SCRGB"
    },
    {
     "enum_field_value" : 257,
     "name" : "HAL_DATASPACE_JFIF"
    },
    {
     "enum_field_value" : 146931712,
     "name" : "HAL_DATASPACE_V0_JFIF"
    },
    {
     "enum_field_value" : 258,
     "name" : "HAL_DATASPACE_BT601_625"
    },
    {
     "enum_field_value" : 281149440,
     "name" : "HAL_DATASPACE_V0_BT601_625"
    },
    {
     "enum_field_value" : 259,
     "name" : "HAL_DATASPACE_BT601_525"
    },
    {
     "enum_field_value" : 281280512,
     "name" : "HAL_DATASPACE_V0_BT601_525"
    },
    {
     "enum_field_value" : 260,
     "name" : "HAL_DATASPACE_BT709"
    },
    {
     "enum_field_value" : 281083904,
     "name" : "HAL_DATASPACE_V0_BT709"
    },
    {
     "enum_field_value" : 139067392,
     "name" : "HAL_DATASPACE_DCI_P3_LINEAR"
    },
    {
     "enum_field_value" : 155844608,
     "name" : "HAL_DATASPACE_DCI_P3"
    },
    {
     "enum_field_value" : 139067392,
     "name" : "HAL_DATASPACE_DISPLAY_P3_LINEAR"
    },
    {
     "enum_field_value" : 143261696,
     "name" : "HAL_DATASPACE_DISPLAY_P3"
    },
    {
     "enum_field_value" : 151715840,
     "name" : "HAL_DATASPACE_ADOBE_RGB"
    },
    {
     "enum_field_value" : 138805248,
     "name" : "HAL_DATASPACE_BT2020_LINEAR"
    },
    {
     "enum_field_value" : 147193856,
     "name" : "HAL_DATASPACE_BT2020"
    },
    {
     "enum_field_value" : 163971072,
     "name" : "HAL_DATASPACE_BT2020_PQ"
    },
    {
     "enum_field_value" : 4096,
     "name" : "HAL_DATASPACE_DEPTH"
    },
    {
     "enum_field_value" : 4097,
     "name" : "HAL_DATASPACE_SENSOR"
    }
   ],
   "linker_set_key" : "_ZTI19android_dataspace_t",
   "name" : "android_dataspace_t",
   "referenced_type" : "_ZTI19android_dataspace_t",
   "self_type" : "_ZTI19android_dataspace_t",
   "size" : 4,
   "source_file" : "/system/core/libsystem/include/system/graphics-base-v1.0.h",
   "underlying_type" : "_ZTIj"
  },
  {
   "alignment" : 4,
   "enum_fields" :
   [
    {
     "enum_field_value" : 0,
     "name" : "FLEX_FORMAT_INVALID"
    },
    {
     "enum_field_value" : 1,
     "name" : "FLEX_FORMAT_Y"
    },
    {
     "enum_field_value" : 7,
     "name" : "FLEX_FORMAT_YCbCr"
    },
    {
     "enum_field_value" : 1073741831,
     "name" : "FLEX_FORMAT_YCbCrA"
    },
    {
     "enum_field_value" : 7168,
     "name" : "FLEX_FORMAT_RGB"
    },
    {
     "enum_field_value" : 1073748992,
     "name" : "FLEX_FORMAT_RGBA"
    }
   ],
   "linker_set_key" : "_ZTI19android_flex_format",
   "name" : "android_flex_format",
   "referenced_type" : "_ZTI19android_flex_format",
   "self_type" : "_ZTI19android_flex_format",
   "size" : 4,
   "source_file" : "/system/core/libsystem/include/system/graphics.h",
   "underlying_type" : "_ZTIj"
  },
  {
   "alignment" : 4,
   "enum_fields" :
   [
    {
     "enum_field_value" : 1,
     "name" : "HAL_TRANSFORM_FLIP_H"
    },
    {
     "enum_field_value" : 2,
     "name" : "HAL_TRANSFORM_FLIP_V"
    },
    {
     "enum_field_value" : 4,
     "name" : "HAL_TRANSFORM_ROT_90"
    },
    {
     "enum_field_value" : 3,
     "name" : "HAL_TRANSFORM_ROT_180"
    },
    {
     "enum_field_value" : 7,
     "name" : "HAL_TRANSFORM_ROT_270"
    }
   ],
   "linker_set_key" : "_ZTI19android_transform_t",
   "name" : "android_transform_t",
   "referenced_type" : "_ZTI19android_transform_t",
   "self_type" : "_ZTI19android_transform_t",
   "size" : 4,
   "source_file" : "/system/core/libsystem/include/system/graphics-base-v1.0.h",
   "underlying_type" : "_ZTIj"
  },
  {
   "alignment" : 4,
   "enum_fields" :
   [
    {
     "enum_field_value" : 0,
     "name" : "HAL_COLOR_MODE_NATIVE"
    },
    {
     "enum_field_value" : 1,
     "name" : "HAL_COLOR_MODE_STANDARD_BT601_625"
    },
    {
     "enum_field_value" : 2,
     "name" : "HAL_COLOR_MODE_STANDARD_BT601_625_UNADJUSTED"
    },
    {
     "enum_field_value" : 3,
     "name" : "HAL_COLOR_MODE_STANDARD_BT601_525"
    },
    {
     "enum_field_value" : 4,
     "name" : "HAL_COLOR_MODE_STANDARD_BT601_525_UNADJUSTED"
    },
    {
     "enum_field_value" : 5,
     "name" : "HAL_COLOR_MODE_STANDARD_BT709"
    },
    {
     "enum_field_value" : 6,
     "name" : "HAL_COLOR_MODE_DCI_P3"
    },
    {
     "enum_field_value" : 7,
     "name" : "HAL_COLOR_MODE_SRGB"
    },
    {
     "enum_field_value" : 8,
     "name" : "HAL_COLOR_MODE_ADOBE_RGB"
    },
    {
     "enum_field_value" : 9,
     "name" : "HAL_COLOR_MODE_DISPLAY_P3"
    }
   ],
   "linker_set_key" : "_ZTI20android_color_mode_t",
   "name" : "android_color_mode_t",
   "referenced_type" : "_ZTI20android_color_mode_t",
   "self_type" : "_ZTI20android_color_mode_t",
   "size" : 4,
   "source_file" : "/system/core/libsystem/include/system/graphics-base-v1.0.h",
   "underlying_type" : "_ZTIj"
  },
  {
   "alignment" : 4,
   "enum_fields" :
   [
    {
     "enum_field_value" : 0,
     "name" : "SYSTEM_TIME_REALTIME"
    },
    {
     "enum_field_value" : 1,
     "name" : "SYSTEM_TIME_MONOTONIC"
    },
    {
     "enum_field_value" : 2,
     "name" : "SYSTEM_TIME_PROCESS"
    },
    {
     "enum_field_value" : 3,
     "name" : "SYSTEM_TIME_THREAD"
    },
    {
     "enum_field_value" : 4,
     "name" : "SYSTEM_TIME_BOOTTIME"
    }
   ],
   "linker_set_key" : "_ZTI21$SYSTEM_TIME_BOOTTIME",
   "name" : "(anonymous enum at system/core/libutils/include/utils/Timers.h:79:1)",
   "referenced_type" : "_ZTI21$SYSTEM_TIME_BOOTTIME",
   "self_type" : "_ZTI21$SYSTEM_TIME_BOOTTIME",
   "size" : 4,
   "source_file" : "/system/core/libutils/include/utils/Timers.h",
   "underlying_type" : "_ZTIj"
  },
  {
   "alignment" : 4,
   "enum_fields" :
   [
    {
     "enum_field_value" : 1,
     "name" : "FLEX_COMPONENT_Y"
    },
    {
     "enum_field_value" : 2,
     "name" : "FLEX_COMPONENT_Cb"
    },
    {
     "enum_field_value" : 4,
     "name" : "FLEX_COMPONENT_Cr"
    },
    {
     "enum_field_value" : 1024,
     "name" : "FLEX_COMPONENT_R"
    },
    {
     "enum_field_value" : 2048,
     "name" : "FLEX_COMPONENT_G"
    },
    {
     "enum_field_value" : 4096,
     "name" : "FLEX_COMPONENT_B"
    },
    {
     "enum_field_value" : 1073741824,
     "name" : "FLEX_COMPONENT_A"
    }
   ],
   "linker_set_key" : "_ZTI22android_flex_component",
   "name" : "android_flex_component",
   "referenced_type" : "_ZTI22android_flex_component",
   "self_type" : "_ZTI22android_flex_component",
   "size" : 4,
   "source_file" : "/system/core/libsystem/include/system/graphics.h",
   "underlying_type" : "_ZTIj"
  },
  {
   "alignment" : 4,
   "enum_fields" :
   [
    {
     "enum_field_value" : 1,
     "name" : "HAL_PIXEL_FORMAT_RGBA_8888"
    },
    {
     "enum_field_value" : 2,
     "name" : "HAL_PIXEL_FORMAT_RGBX_8888"
    },
    {
     "enum_field_value" : 3,
     "name" : "HAL_PIXEL_FORMAT_RGB_888"
    },
    {
     "enum_field_value" : 4,
     "name" : "HAL_PIXEL_FORMAT_RGB_565"
    },
    {
     "enum_field_value" : 5,
     "name" : "HAL_PIXEL_FORMAT_BGRA_8888"
    },
    {
     "enum_field_value" : 16,
     "name" : "HAL_PIXEL_FORMAT_YCBCR_422_SP"
    },
    {
     "enum_field_value" : 17,
     "name" : "HAL_PIXEL_FORMAT_YCRCB_420_SP"
    },
    {
     "enum_field_value" : 20,
     "name" : "HAL_PIXEL_FORMAT_YCBCR_422_I"
    },
    {
     "enum_field_value" : 22,
     "name" : "HAL_PIXEL_FORMAT_RGBA_FP16"
    },
    {
     "enum_field_value" : 32,
     "name" : "HAL_PIXEL_FORMAT_RAW16"
    },
    {
     "enum_field_value" : 33,
     "name" : "HAL_PIXEL_FORMAT_BLOB"
    },
    {
     "enum_field_value" : 34,
     "name" : "HAL_PIXEL_FORMAT_IMPLEMENTATION_DEFINED"
    },
    {
     "enum_field_value" : 35,
     "name" : "HAL_PIXEL_FORMAT_YCBCR_420_888"
    },
    {
     "enum_field_value" : 36,
     "name" : "HAL_PIXEL_FORMAT_RAW_OPAQUE"
    },
    {
     "enum_field_value" : 37,
     "name" : "HAL_PIXEL_FORMAT_RAW10"
    },
    {
     "enum_field_value" : 38,
     "name" : "HAL_PIXEL_FORMAT_RAW12"
    },
    {
     "enum_field_value" : 43,
     "name" : "HAL_PIXEL_FORMAT_RGBA_1010102"
    },
    {
     "enum_field_value" : 538982489,
     "name" : "HAL_PIXEL_FORMAT_Y8"
    },
    {
     "enum_field_value" : 540422489,
     "name" : "HAL_PIXEL_FORMAT_Y16"
    },
    {
     "enum_field_value" : 842094169,
     "name" : "HAL_PIXEL_FORMAT_YV12"
    }
   ],
   "linker_set_key" : "_ZTI22android_pixel_format_t",
   "name" : "android_pixel_format_t",
   "referenced_type" : "_ZTI22android_pixel_format_t",
   "self_type" : "_ZTI22android_pixel_format_t",
   "size" : 4,
   "source_file" : "/system/core/libsystem/include/system/graphics-base-v1.0.h",
   "underlying_type" : "_ZTIj"
  },
  {
   "alignment" : 4,
   "enum_fields" :
   [
    {
     "enum_field_value" : 19,
     "name" : "ANDROID_PRIORITY_LOWEST"
    },
    {
     "enum_field_value" : 10,
     "name" : "ANDROID_PRIORITY_BACKGROUND"
    },
    {
     "enum_field_value" : 0,
     "name" : "ANDROID_PRIORITY_NORMAL"
    },
    {
     "enum_field_value" : -2,
     "name" : "ANDROID_PRIORITY_FOREGROUND"
    },
    {
     "enum_field_value" : -4,
     "name" : "ANDROID_PRIORITY_DISPLAY"
    },
    {
     "enum_field_value" : -8,
     "name" : "ANDROID_PRIORITY_URGENT_DISPLAY"
    },
    {
     "enum_field_value" : -10,
     "name" : "ANDROID_PRIORITY_VIDEO"
    },
    {
     "enum_field_value" : -16,
     "name" : "ANDROID_PRIORITY_AUDIO"
    },
    {
     "enum_field_value" : -19,
     "name" : "ANDROID_PRIORITY_URGENT_AUDIO"
    },
    {
     "enum_field_value" : -20,
     "name" : "ANDROID_PRIORITY_HIGHEST"
    },
    {
     "enum_field_value" : 0,
     "name" : "ANDROID_PRIORITY_DEFAULT"
    },
    {
     "enum_field_value" : -1,
     "name" : "ANDROID_PRIORITY_MORE_FAVORABLE"
    },
    {
     "enum_field_value" : 1,
     "name" : "ANDROID_PRIORITY_LESS_FAVORABLE"
    }
   ],
   "linker_set_key" : "_ZTI23$ANDROID_PRIORITY_AUDIO",
   "name" : "(anonymous enum at system/core/libsystem/include/system/thread_defs.h:26:1)",
   "referenced_type" : "_ZTI23$ANDROID_PRIORITY_AUDIO",
   "self_type" : "_ZTI23$ANDROID_PRIORITY_AUDIO",
   "size" : 4,
   "source_file" : "/system/core/libsystem/include/system/thread_defs.h",
   "underlying_type" : "_ZTIi"
  },
  {
   "alignment" : 4,
   "enum_fields" :
   [
    {
     "enum_field_value" : 281411584,
     "name" : "HAL_DATASPACE_BT2020_ITU"
    },
    {
     "enum_field_value" : 298188800,
     "name" : "HAL_DATASPACE_BT2020_ITU_PQ"
    },
    {
     "enum_field_value" : 302383104,
     "name" : "HAL_DATASPACE_BT2020_ITU_HLG"
    },
    {
     "enum_field_value" : 168165376,
     "name" : "HAL_DATASPACE_BT2020_HLG"
    }
   ],
   "linker_set_key" : "_ZTI24android_dataspace_v1_1_t",
   "name" : "android_dataspace_v1_1_t",
   "referenced_type" : "_ZTI24android_dataspace_v1_1_t",
   "self_type" : "_ZTI24android_dataspace_v1_1_t",
   "size" : 4,
   "source_file" : "/system/core/libsystem/include/system/graphics-base-v1.1.h",
   "underlying_type" : "_ZTIj"
  },
  {
   "alignment" : 4,
   "enum_fields" :
   [
    {
     "enum_field_value" : 142999552,
     "name" : "HAL_DATASPACE_DISPLAY_BT2020"
    },
    {
     "enum_field_value" : 4098,
     "name" : "HAL_DATASPACE_DYNAMIC_DEPTH"
    },
    {
     "enum_field_value" : 4099,
     "name" : "HAL_DATASPACE_JPEG_APP_SEGMENTS"
    },
    {
     "enum_field_value" : 4100,
     "name" : "HAL_DATASPACE_HEIF"
    }
   ],
   "linker_set_key" : "_ZTI24android_dataspace_v1_2_t",
   "name" : "android_dataspace_v1_2_t",
   "referenced_type" : "_ZTI24android_dataspace_v1_2_t",
   "self_type" : "_ZTI24android_dataspace_v1_2_t",
   "size" : 4,
   "source_file" : "/system/core/libsystem/include/system/graphics-base-v1.2.h",
   "underlying_type" : "_ZTIj"
  },
  {
   "alignment" : 4,
   "enum_fields" :
   [
    {
     "enum_field_value" : 10,
     "name" : "HAL_COLOR_MODE_BT2020"
    },
    {
     "enum_field_value" : 11,
     "name" : "HAL_COLOR_MODE_BT2100_PQ"
    },
    {
     "enum_field_value" : 12,
     "name" : "HAL_COLOR_MODE_BT2100_HLG"
    }
   ],
   "linker_set_key" : "_ZTI25android_color_mode_v1_1_t",
   "name" : "android_color_mode_v1_1_t",
   "referenced_type" : "_ZTI25android_color_mode_v1_1_t",
   "self_type" : "_ZTI25android_color_mode_v1_1_t",
   "size" : 4,
   "source_file" : "/system/core/libsystem/include/system/graphics-base-v1.1.h",
   "underlying_type" : "_ZTIj"
  },
  {
   "alignment" : 4,
   "enum_fields" :
   [
    {
     "enum_field_value" : 0,
     "name" : "HAL_COLOR_TRANSFORM_IDENTITY"
    },
    {
     "enum_field_value" : 1,
     "name" : "HAL_COLOR_TRANSFORM_ARBITRARY_MATRIX"
    },
    {
     "enum_field_value" : 2,
     "name" : "HAL_COLOR_TRANSFORM_VALUE_INVERSE"
    },
    {
     "enum_field_value" : 3,
     "name" : "HAL_COLOR_TRANSFORM_GRAYSCALE"
    },
    {
     "enum_field_value" : 4,
     "name" : "HAL_COLOR_TRANSFORM_CORRECT_PROTANOPIA"
    },
    {
     "enum_field_value" : 5,
     "name" : "HAL_COLOR_TRANSFORM_CORRECT_DEUTERANOPIA"
    },
    {
     "enum_field_value" : 6,
     "name" : "HAL_COLOR_TRANSFORM_CORRECT_TRITANOPIA"
    }
   ],
   "linker_set_key" : "_ZTI25android_color_transform_t",
   "name" : "android_color_transform_t",
   "referenced_type" : "_ZTI25android_color_transform_t",
   "self_type" : "_ZTI25android_color_transform_t",
   "size" : 4,
   "source_file" : "/system/core/libsystem/include/system/graphics-base-v1.0.h",
   "underlying_type" : "_ZTIj"
  },
  {
   "alignment" : 4,
   "enum_fields" :
   [
    {
     "enum_field_value" : 39,
     "name" : "HAL_PIXEL_FORMAT_YCBCR_422_888"
    },
    {
     "enum_field_value" : 40,
     "name" : "HAL_PIXEL_FORMAT_YCBCR_444_888"
    },
    {
     "enum_field_value" : 41,
     "name" : "HAL_PIXEL_FORMAT_FLEX_RGB_888"
    },
    {
     "enum_field_value" : 42,
     "name" : "HAL_PIXEL_FORMAT_FLEX_RGBA_8888"
    }
   ],
   "linker_set_key" : "_ZTI25android_pixel_format_sw_t",
   "name" : "android_pixel_format_sw_t",
   "referenced_type" : "_ZTI25android_pixel_format_sw_t",
   "self_type" : "_ZTI25android_pixel_format_sw_t",
   "size" : 4,
   "source_file" : "/system/core/libsystem/include/system/graphics-sw.h",
   "underlying_type" : "_ZTIj"
  },
  {
   "alignment" : 4,
   "enum_fields" :
   [
    {
     "enum_field_value" : 48,
     "name" : "HAL_PIXEL_FORMAT_DEPTH_16"
    },
    {
     "enum_field_value" : 49,
     "name" : "HAL_PIXEL_FORMAT_DEPTH_24"
    },
    {
     "enum_field_value" : 50,
     "name" : "HAL_PIXEL_FORMAT_DEPTH_24_STENCIL_8"
    },
    {
     "enum_field_value" : 51,
     "name" : "HAL_PIXEL_FORMAT_DEPTH_32F"
    },
    {
     "enum_field_value" : 52,
     "name" : "HAL_PIXEL_FORMAT_DEPTH_32F_STENCIL_8"
    },
    {
     "enum_field_value" : 53,
     "name" : "HAL_PIXEL_FORMAT_STENCIL_8"
    },
    {
     "enum_field_value" : 54,
     "name" : "HAL_PIXEL_FORMAT_YCBCR_P010"
    }
   ],
   "linker_set_key" : "_ZTI27android_pixel_format_v1_1_t",
   "name" : "android_pixel_format_v1_1_t",
   "referenced_type" : "_ZTI27android_pixel_format_v1_1_t",
   "self_type" : "_ZTI27android_pixel_format_v1_1_t",
   "size" : 4,
   "source_file" : "/system/core/libsystem/include/system/graphics-base-v1.1.h",
   "underlying_type" : "_ZTIj"
  },
  {
   "alignment" : 4,
   "enum_fields" :
   [
    {
     "enum_field_value" : 55,
     "name" : "HAL_PIXEL_FORMAT_HSV_888"
    }
   ],
   "linker_set_key" : "_ZTI27android_pixel_format_v1_2_t",
   "name" : "android_pixel_format_v1_2_t",
   "referenced_type" : "_ZTI27android_pixel_format_v1_2_t",
   "self_type" : "_ZTI27android_pixel_format_v1_2_t",
   "size" : 4,
   "source_file" : "/system/core/libsystem/include/system/graphics-base-v1.2.h",
   "underlying_type" : "_ZTIj"
  },
  {
   "alignment" : 4,
   "enum_fields" :
   [
    {
     "enum_field_value" : 0,
     "name" : "HAL_RENDER_INTENT_COLORIMETRIC"
    },
    {
     "enum_field_value" : 1,
     "name" : "HAL_RENDER_INTENT_ENHANCE"
    },
    {
     "enum_field_value" : 2,
     "name" : "HAL_RENDER_INTENT_TONE_MAP_COLORIMETRIC"
    },
    {
     "enum_field_value" : 3,
     "name" : "HAL_RENDER_INTENT_TONE_MAP_ENHANCE"
    }
   ],
   "linker_set_key" : "_ZTI28android_render_intent_v1_1_t",
   "name" : "android_render_intent_v1_1_t",
   "referenced_type" : "_ZTI28android_render_intent_v1_1_t",
   "self_type" : "_ZTI28android_render_intent_v1_1_t",
   "size" : 4,
   "source_file" : "/system/core/libsystem/include/system/graphics-base-v1.1.h",
   "underlying_type" : "_ZTIj"
  },
  {
   "alignment" : 4,
   "enum_fields" :
   [
    {
     "enum_field_value" : 0,
     "name" : "LOG_ID_MIN"
    },
    {
     "enum_field_value" : 0,
     "name" : "LOG_ID_MAIN"
    },
    {
     "enum_field_value" : 1,
     "name" : "LOG_ID_RADIO"
    },
    {
     "enum_field_value" : 2,
     "name" : "LOG_ID_EVENTS"
    },
    {
     "enum_field_value" : 3,
     "name" : "LOG_ID_SYSTEM"
    },
    {
     "enum_field_value" : 4,
     "name" : "LOG_ID_CRASH"
    },
    {
     "enum_field_value" : 5,
     "name" : "LOG_ID_STATS"
    },
    {
     "enum_field_value" : 6,
     "name" : "LOG_ID_SECURITY"
    },
    {
     "enum_field_value" : 7,
     "name" : "LOG_ID_KERNEL"
    },
    {
     "enum_field_value" : 8,
     "name" : "LOG_ID_MAX"
    },
    {
     "enum_field_value" : 2147483647,
     "name" : "LOG_ID_DEFAULT"
    }
   ],
   "linker_set_key" : "_ZTI6log_id",
   "name" : "log_id",
   "referenced_type" : "_ZTI6log_id",
   "self_type" : "_ZTI6log_id",
   "size" : 4,
   "source_file" : "/system/core/liblog/include/android/log.h",
   "underlying_type" : "_ZTIj"
  },
  {
   "alignment" : 4,
   "enum_fields" :
   [
    {
     "enum_field_value" : 1,
     "name" : "android::VectorImpl::HAS_TRIVIAL_CTOR"
    },
    {
     "enum_field_value" : 2,
     "name" : "android::VectorImpl::HAS_TRIVIAL_DTOR"
    },
    {
     "enum_field_value" : 4,
     "name" : "android::VectorImpl::HAS_TRIVIAL_COPY"
    }
   ],
   "linker_set_key" : "_ZTIN7android10VectorImpl17$HAS_TRIVIAL_COPYE",
   "name" : "android::VectorImpl::(anonymous enum at system/core/libutils/include/utils/VectorImpl.h:43:5)",
   "referenced_type" : "_ZTIN7android10VectorImpl17$HAS_TRIVIAL_COPYE",
   "self_type" : "_ZTIN7android10VectorImpl17$HAS_TRIVIAL_COPYE",
   "size" : 4,
   "source_file" : "/system/core/libutils/include/utils/VectorImpl.h",
   "underlying_type" : "_ZTIj"
  },
  {
   "alignment" : 4,
   "enum_fields" :
   [
    {
     "enum_field_value" : 0,
     "name" : "android::OK"
    },
    {
     "enum_field_value" : 0,
     "name" : "android::NO_ERROR"
    },
    {
     "enum_field_value" : -2147483648,
     "name" : "android::UNKNOWN_ERROR"
    },
    {
     "enum_field_value" : -12,
     "name" : "android::NO_MEMORY"
    },
    {
     "enum_field_value" : -38,
     "name" : "android::INVALID_OPERATION"
    },
    {
     "enum_field_value" : -22,
     "name" : "android::BAD_VALUE"
    },
    {
     "enum_field_value" : -2147483647,
     "name" : "android::BAD_TYPE"
    },
    {
     "enum_field_value" : -2,
     "name" : "android::NAME_NOT_FOUND"
    },
    {
     "enum_field_value" : -1,
     "name" : "android::PERMISSION_DENIED"
    },
    {
     "enum_field_value" : -19,
     "name" : "android::NO_INIT"
    },
    {
     "enum_field_value" : -17,
     "name" : "android::ALREADY_EXISTS"
    },
    {
     "enum_field_value" : -32,
     "name" : "android::DEAD_OBJECT"
    },
    {
     "enum_field_value" : -2147483646,
     "name" : "android::FAILED_TRANSACTION"
    },
    {
     "enum_field_value" : -75,
     "name" : "android::BAD_INDEX"
    },
    {
     "enum_field_value" : -61,
     "name" : "android::NOT_ENOUGH_DATA"
    },
    {
     "enum_field_value" : -11,
     "name" : "android::WOULD_BLOCK"
    },
    {
     "enum_field_value" : -110,
     "name" : "android::TIMED_OUT"
    },
    {
     "enum_field_value" : -74,
     "name" : "android::UNKNOWN_TRANSACTION"
    },
    {
     "enum_field_value" : -2147483641,
     "name" : "android::FDS_NOT_ALLOWED"
    },
    {
     "enum_field_value" : -2147483640,
     "name" : "android::UNEXPECTED_NULL"
    }
   ],
   "linker_set_key" : "_ZTIN7android15$ALREADY_EXISTSE",
   "name" : "android::(anonymous enum at system/core/libutils/include/utils/Errors.h:43:1)",
   "referenced_type" : "_ZTIN7android15$ALREADY_EXISTSE",
   "self_type" : "_ZTIN7android15$ALREADY_EXISTSE",
   "size" : 4,
   "source_file" : "/system/core/libutils/include/utils/Errors.h",
   "underlying_type" : "_ZTIi"
  },
  {
   "alignment" : 4,
   "enum_fields" :
   [
    {
     "enum_field_value" : 19,
     "name" : "android::PRIORITY_LOWEST"
    },
    {
     "enum_field_value" : 10,
     "name" : "android::PRIORITY_BACKGROUND"
    },
    {
     "enum_field_value" : 0,
     "name" : "android::PRIORITY_NORMAL"
    },
    {
     "enum_field_value" : -2,
     "name" : "android::PRIORITY_FOREGROUND"
    },
    {
     "enum_field_value" : -4,
     "name" : "android::PRIORITY_DISPLAY"
    },
    {
     "enum_field_value" : -8,
     "name" : "android::PRIORITY_URGENT_DISPLAY"
    },
    {
     "enum_field_value" : -16,
     "name" : "android::PRIORITY_AUDIO"
    },
    {
     "enum_field_value" : -19,
     "name" : "android::PRIORITY_URGENT_AUDIO"
    },
    {
     "enum_field_value" : -20,
     "name" : "android::PRIORITY_HIGHEST"
    },
    {
     "enum_field_value" : 0,
     "name" : "android::PRIORITY_DEFAULT"
    },
    {
     "enum_field_value" : -1,
     "name" : "android::PRIORITY_MORE_FAVORABLE"
    },
    {
     "enum_field_value" : 1,
     "name" : "android::PRIORITY_LESS_FAVORABLE"
    }
   ],
   "linker_set_key" : "_ZTIN7android15$PRIORITY_AUDIOE",
   "name" : "android::(anonymous enum at system/core/libutils/include/utils/ThreadDefs.h:53:1)",
   "referenced_type" : "_ZTIN7android15$PRIORITY_AUDIOE",
   "self_type" : "_ZTIN7android15$PRIORITY_AUDIOE",
   "size" : 4,
   "source_file" : "/system/core/libutils/include/utils/ThreadDefs.h",
   "underlying_type" : "_ZTIi"
  },
  {
   "alignment" : 4,
   "enum_fields" :
   [
    {
     "enum_field_value" : 1,
     "name" : "android::trait_trivial_copy<bool>::value"
    }
   ],
   "linker_set_key" : "_ZTIN7android18trait_trivial_copyIbE6$valueE",
   "name" : "android::trait_trivial_copy<bool>::(anonymous enum at system/core/libutils/include/utils/TypeHelpers.h:98:1)",
   "referenced_type" : "_ZTIN7android18trait_trivial_copyIbE6$valueE",
   "self_type" : "_ZTIN7android18trait_trivial_copyIbE6$valueE",
   "size" : 4,
   "source_file" : "/system/core/libutils/include/utils/TypeHelpers.h",
   "underlying_type" : "_ZTIj"
  },
  {
   "alignment" : 4,
   "enum_fields" :
   [
    {
     "enum_field_value" : 1,
     "name" : "android::trait_trivial_copy<char>::value"
    }
   ],
   "linker_set_key" : "_ZTIN7android18trait_trivial_copyIcE6$valueE",
   "name" : "android::trait_trivial_copy<char>::(anonymous enum at system/core/libutils/include/utils/TypeHelpers.h:99:1)",
   "referenced_type" : "_ZTIN7android18trait_trivial_copyIcE6$valueE",
   "self_type" : "_ZTIN7android18trait_trivial_copyIcE6$valueE",
   "size" : 4,
   "source_file" : "/system/core/libutils/include/utils/TypeHelpers.h",
   "underlying_type" : "_ZTIj"
  },
  {
   "alignment" : 4,
   "enum_fields" :
   [
    {
     "enum_field_value" : 1,
     "name" : "android::trait_trivial_copy<double>::value"
    }
   ],
   "linker_set_key" : "_ZTIN7android18trait_trivial_copyIdE6$valueE",
   "name" : "android::trait_trivial_copy<double>::(anonymous enum at system/core/libutils/include/utils/TypeHelpers.h:110:1)",
   "referenced_type" : "_ZTIN7android18trait_trivial_copyIdE6$valueE",
   "self_type" : "_ZTIN7android18trait_trivial_copyIdE6$valueE",
   "size" : 4,
   "source_file" : "/system/core/libutils/include/utils/TypeHelpers.h",
   "underlying_type" : "_ZTIj"
  },
  {
   "alignment" : 4,
   "enum_fields" :
   [
    {
     "enum_field_value" : 1,
     "name" : "android::trait_trivial_copy<float>::value"
    }
   ],
   "linker_set_key" : "_ZTIN7android18trait_trivial_copyIfE6$valueE",
   "name" : "android::trait_trivial_copy<float>::(anonymous enum at system/core/libutils/include/utils/TypeHelpers.h:109:1)",
   "referenced_type" : "_ZTIN7android18trait_trivial_copyIfE6$valueE",
   "self_type" : "_ZTIN7android18trait_trivial_copyIfE6$valueE",
   "size" : 4,
   "source_file" : "/system/core/libutils/include/utils/TypeHelpers.h",
   "underlying_type" : "_ZTIj"
  },
  {
   "alignment" : 4,
   "enum_fields" :
   [
    {
     "enum_field_value" : 1,
     "name" : "android::trait_trivial_copy<unsigned char>::value"
    }
   ],
   "linker_set_key" : "_ZTIN7android18trait_trivial_copyIhE6$valueE",
   "name" : "android::trait_trivial_copy<unsigned char>::(anonymous enum at system/core/libutils/include/utils/TypeHelpers.h:100:1)",
   "referenced_type" : "_ZTIN7android18trait_trivial_copyIhE6$valueE",
   "self_type" : "_ZTIN7android18trait_trivial_copyIhE6$valueE",
   "size" : 4,
   "source_file" : "/system/core/libutils/include/utils/TypeHelpers.h",
   "underlying_type" : "_ZTIj"
  },
  {
   "alignment" : 4,
   "enum_fields" :
   [
    {
     "enum_field_value" : 1,
     "name" : "android::trait_trivial_copy<int>::value"
    }
   ],
   "linker_set_key" : "_ZTIN7android18trait_trivial_copyIiE6$valueE",
   "name" : "android::trait_trivial_copy<int>::(anonymous enum at system/core/libutils/include/utils/TypeHelpers.h:103:1)",
   "referenced_type" : "_ZTIN7android18trait_trivial_copyIiE6$valueE",
   "self_type" : "_ZTIN7android18trait_trivial_copyIiE6$valueE",
   "size" : 4,
   "source_file" : "/system/core/libutils/include/utils/TypeHelpers.h",
   "underlying_type" : "_ZTIj"
  },
  {
   "alignment" : 4,
   "enum_fields" :
   [
    {
     "enum_field_value" : 1,
     "name" : "android::trait_trivial_copy<unsigned int>::value"
    }
   ],
   "linker_set_key" : "_ZTIN7android18trait_trivial_copyIjE6$valueE",
   "name" : "android::trait_trivial_copy<unsigned int>::(anonymous enum at system/core/libutils/include/utils/TypeHelpers.h:104:1)",
   "referenced_type" : "_ZTIN7android18trait_trivial_copyIjE6$valueE",
   "self_type" : "_ZTIN7android18trait_trivial_copyIjE6$valueE",
   "size" : 4,
   "source_file" : "/system/core/libutils/include/utils/TypeHelpers.h",
   "underlying_type" : "_ZTIj"
  },
  {
   "alignment" : 4,
   "enum_fields" :
   [
    {
     "enum_field_value" : 1,
     "name" : "android::trait_trivial_copy<long>::value"
    }
   ],
   "linker_set_key" : "_ZTIN7android18trait_trivial_copyIlE6$valueE",
   "name" : "android::trait_trivial_copy<long>::(anonymous enum at system/core/libutils/include/utils/TypeHelpers.h:105:1)",
   "referenced_type" : "_ZTIN7android18trait_trivial_copyIlE6$valueE",
   "self_type" : "_ZTIN7android18trait_trivial_copyIlE6$valueE",
   "size" : 4,
   "source_file" : "/system/core/libutils/include/utils/TypeHelpers.h",
   "underlying_type" : "_ZTIj"
  },
  {
   "alignment" : 4,
   "enum_fields" :
   [
    {
     "enum_field_value" : 1,
     "name" : "android::trait_trivial_copy<unsigned long>::value"
    }
   ],
   "linker_set_key" : "_ZTIN7android18trait_trivial_copyImE6$valueE",
   "name" : "android::trait_trivial_copy<unsigned long>::(anonymous enum at system/core/libutils/include/utils/TypeHelpers.h:106:1)",
   "referenced_type" : "_ZTIN7android18trait_trivial_copyImE6$valueE",
   "self_type" : "_ZTIN7android18trait_trivial_copyImE6$valueE",
   "size" : 4,
   "source_file" : "/system/core/libutils/include/utils/TypeHelpers.h",
   "underlying_type" : "_ZTIj"
  },
  {
   "alignment" : 4,
   "enum_fields" :
   [
    {
     "enum_field_value" : 1,
     "name" : "android::trait_trivial_copy<short>::value"
    }
   ],
   "linker_set_key" : "_ZTIN7android18trait_trivial_copyIsE6$valueE",
   "name" : "android::trait_trivial_copy<short>::(anonymous enum at system/core/libutils/include/utils/TypeHelpers.h:101:1)",
   "referenced_type" : "_ZTIN7android18trait_trivial_copyIsE6$valueE",
   "self_type" : "_ZTIN7android18trait_trivial_copyIsE6$valueE",
   "size" : 4,
   "source_file" : "/system/core/libutils/include/utils/TypeHelpers.h",
   "underlying_type" : "_ZTIj"
  },
  {
   "alignment" : 4,
   "enum_fields" :
   [
    {
     "enum_field_value" : 1,
     "name" : "android::trait_trivial_copy<unsigned short>::value"
    }
   ],
   "linker_set_key" : "_ZTIN7android18trait_trivial_copyItE6$valueE",
   "name" : "android::trait_trivial_copy<unsigned short>::(anonymous enum at system/core/libutils/include/utils/TypeHelpers.h:102:1)",
   "referenced_type" : "_ZTIN7android18trait_trivial_copyItE6$valueE",
   "self_type" : "_ZTIN7android18trait_trivial_copyItE6$valueE",
   "size" : 4,
   "source_file" : "/system/core/libutils/include/utils/TypeHelpers.h",
   "underlying_type" : "_ZTIj"
  },
  {
   "alignment" : 4,
   "enum_fields" :
   [
    {
     "enum_field_value" : 1,
     "name" : "android::trait_trivial_copy<void>::value"
    }
   ],
   "linker_set_key" : "_ZTIN7android18trait_trivial_copyIvE6$valueE",
   "name" : "android::trait_trivial_copy<void>::(anonymous enum at system/core/libutils/include/utils/TypeHelpers.h:97:1)",
   "referenced_type" : "_ZTIN7android18trait_trivial_copyIvE6$valueE",
   "self_type" : "_ZTIN7android18trait_trivial_copyIvE6$valueE",
   "size" : 4,
   "source_file" : "/system/core/libutils/include/utils/TypeHelpers.h",
   "underlying_type" : "_ZTIj"
  },
  {
   "alignment" : 4,
   "enum_fields" :
   [
    {
     "enum_field_value" : 1,
     "name" : "android::trait_trivial_copy<long long>::value"
    }
   ],
   "linker_set_key" : "_ZTIN7android18trait_trivial_copyIxE6$valueE",
   "name" : "android::trait_trivial_copy<long long>::(anonymous enum at system/core/libutils/include/utils/TypeHelpers.h:107:1)",
   "referenced_type" : "_ZTIN7android18trait_trivial_copyIxE6$valueE",
   "self_type" : "_ZTIN7android18trait_trivial_copyIxE6$valueE",
   "size" : 4,
   "source_file" : "/system/core/libutils/include/utils/TypeHelpers.h",
   "underlying_type" : "_ZTIj"
  },
  {
   "alignment" : 4,
   "enum_fields" :
   [
    {
     "enum_field_value" : 1,
     "name" : "android::trait_trivial_copy<unsigned long long>::value"
    }
   ],
   "linker_set_key" : "_ZTIN7android18trait_trivial_copyIyE6$valueE",
   "name" : "android::trait_trivial_copy<unsigned long long>::(anonymous enum at system/core/libutils/include/utils/TypeHelpers.h:108:1)",
   "referenced_type" : "_ZTIN7android18trait_trivial_copyIyE6$valueE",
   "self_type" : "_ZTIN7android18trait_trivial_copyIyE6$valueE",
   "size" : 4,
   "source_file" : "/system/core/libutils/include/utils/TypeHelpers.h",
   "underlying_type" : "_ZTIj"
  },
  {
   "alignment" : 4,
   "enum_fields" :
   [
    {
     "enum_field_value" : 1,
     "name" : "android::trait_trivial_ctor<bool>::value"
    }
   ],
   "linker_set_key" : "_ZTIN7android18trait_trivial_ctorIbE6$valueE",
   "name" : "android::trait_trivial_ctor<bool>::(anonymous enum at system/core/libutils/include/utils/TypeHelpers.h:98:1)",
   "referenced_type" : "_ZTIN7android18trait_trivial_ctorIbE6$valueE",
   "self_type" : "_ZTIN7android18trait_trivial_ctorIbE6$valueE",
   "size" : 4,
   "source_file" : "/system/core/libutils/include/utils/TypeHelpers.h",
   "underlying_type" : "_ZTIj"
  },
  {
   "alignment" : 4,
   "enum_fields" :
   [
    {
     "enum_field_value" : 1,
     "name" : "android::trait_trivial_ctor<char>::value"
    }
   ],
   "linker_set_key" : "_ZTIN7android18trait_trivial_ctorIcE6$valueE",
   "name" : "android::trait_trivial_ctor<char>::(anonymous enum at system/core/libutils/include/utils/TypeHelpers.h:99:1)",
   "referenced_type" : "_ZTIN7android18trait_trivial_ctorIcE6$valueE",
   "self_type" : "_ZTIN7android18trait_trivial_ctorIcE6$valueE",
   "size" : 4,
   "source_file" : "/system/core/libutils/include/utils/TypeHelpers.h",
   "underlying_type" : "_ZTIj"
  },
  {
   "alignment" : 4,
   "enum_fields" :
   [
    {
     "enum_field_value" : 1,
     "name" : "android::trait_trivial_ctor<double>::value"
    }
   ],
   "linker_set_key" : "_ZTIN7android18trait_trivial_ctorIdE6$valueE",
   "name" : "android::trait_trivial_ctor<double>::(anonymous enum at system/core/libutils/include/utils/TypeHelpers.h:110:1)",
   "referenced_type" : "_ZTIN7android18trait_trivial_ctorIdE6$valueE",
   "self_type" : "_ZTIN7android18trait_trivial_ctorIdE6$valueE",
   "size" : 4,
   "source_file" : "/system/core/libutils/include/utils/TypeHelpers.h",
   "underlying_type" : "_ZTIj"
  },
  {
   "alignment" : 4,
   "enum_fields" :
   [
    {
     "enum_field_value" : 1,
     "name" : "android::trait_trivial_ctor<float>::value"
    }
   ],
   "linker_set_key" : "_ZTIN7android18trait_trivial_ctorIfE6$valueE",
   "name" : "android::trait_trivial_ctor<float>::(anonymous enum at system/core/libutils/include/utils/TypeHelpers.h:109:1)",
   "referenced_type" : "_ZTIN7android18trait_trivial_ctorIfE6$valueE",
   "self_type" : "_ZTIN7android18trait_trivial_ctorIfE6$valueE",
   "size" : 4,
   "source_file" : "/system/core/libutils/include/utils/TypeHelpers.h",
   "underlying_type" : "_ZTIj"
  },
  {
   "alignment" : 4,
   "enum_fields" :
   [
    {
     "enum_field_value" : 1,
     "name" : "android::trait_trivial_ctor<unsigned char>::value"
    }
   ],
   "linker_set_key" : "_ZTIN7android18trait_trivial_ctorIhE6$valueE",
   "name" : "android::trait_trivial_ctor<unsigned char>::(anonymous enum at system/core/libutils/include/utils/TypeHelpers.h:100:1)",
   "referenced_type" : "_ZTIN7android18trait_trivial_ctorIhE6$valueE",
   "self_type" : "_ZTIN7android18trait_trivial_ctorIhE6$valueE",
   "size" : 4,
   "source_file" : "/system/core/libutils/include/utils/TypeHelpers.h",
   "underlying_type" : "_ZTIj"
  },
  {
   "alignment" : 4,
   "enum_fields" :
   [
    {
     "enum_field_value" : 1,
     "name" : "android::trait_trivial_ctor<int>::value"
    }
   ],
   "linker_set_key" : "_ZTIN7android18trait_trivial_ctorIiE6$valueE",
   "name" : "android::trait_trivial_ctor<int>::(anonymous enum at system/core/libutils/include/utils/TypeHelpers.h:103:1)",
   "referenced_type" : "_ZTIN7android18trait_trivial_ctorIiE6$valueE",
   "self_type" : "_ZTIN7android18trait_trivial_ctorIiE6$valueE",
   "size" : 4,
   "source_file" : "/system/core/libutils/include/utils/TypeHelpers.h",
   "underlying_type" : "_ZTIj"
  },
  {
   "alignment" : 4,
   "enum_fields" :
   [
    {
     "enum_field_value" : 1,
     "name" : "android::trait_trivial_ctor<unsigned int>::value"
    }
   ],
   "linker_set_key" : "_ZTIN7android18trait_trivial_ctorIjE6$valueE",
   "name" : "android::trait_trivial_ctor<unsigned int>::(anonymous enum at system/core/libutils/include/utils/TypeHelpers.h:104:1)",
   "referenced_type" : "_ZTIN7android18trait_trivial_ctorIjE6$valueE",
   "self_type" : "_ZTIN7android18trait_trivial_ctorIjE6$valueE",
   "size" : 4,
   "source_file" : "/system/core/libutils/include/utils/TypeHelpers.h",
   "underlying_type" : "_ZTIj"
  },
  {
   "alignment" : 4,
   "enum_fields" :
   [
    {
     "enum_field_value" : 1,
     "name" : "android::trait_trivial_ctor<long>::value"
    }
   ],
   "linker_set_key" : "_ZTIN7android18trait_trivial_ctorIlE6$valueE",
   "name" : "android::trait_trivial_ctor<long>::(anonymous enum at system/core/libutils/include/utils/TypeHelpers.h:105:1)",
   "referenced_type" : "_ZTIN7android18trait_trivial_ctorIlE6$valueE",
   "self_type" : "_ZTIN7android18trait_trivial_ctorIlE6$valueE",
   "size" : 4,
   "source_file" : "/system/core/libutils/include/utils/TypeHelpers.h",
   "underlying_type" : "_ZTIj"
  },
  {
   "alignment" : 4,
   "enum_fields" :
   [
    {
     "enum_field_value" : 1,
     "name" : "android::trait_trivial_ctor<unsigned long>::value"
    }
   ],
   "linker_set_key" : "_ZTIN7android18trait_trivial_ctorImE6$valueE",
   "name" : "android::trait_trivial_ctor<unsigned long>::(anonymous enum at system/core/libutils/include/utils/TypeHelpers.h:106:1)",
   "referenced_type" : "_ZTIN7android18trait_trivial_ctorImE6$valueE",
   "self_type" : "_ZTIN7android18trait_trivial_ctorImE6$valueE",
   "size" : 4,
   "source_file" : "/system/core/libutils/include/utils/TypeHelpers.h",
   "underlying_type" : "_ZTIj"
  },
  {
   "alignment" : 4,
   "enum_fields" :
   [
    {
     "enum_field_value" : 1,
     "name" : "android::trait_trivial_ctor<short>::value"
    }
   ],
   "linker_set_key" : "_ZTIN7android18trait_trivial_ctorIsE6$valueE",
   "name" : "android::trait_trivial_ctor<short>::(anonymous enum at system/core/libutils/include/utils/TypeHelpers.h:101:1)",
   "referenced_type" : "_ZTIN7android18trait_trivial_ctorIsE6$valueE",
   "self_type" : "_ZTIN7android18trait_trivial_ctorIsE6$valueE",
   "size" : 4,
   "source_file" : "/system/core/libutils/include/utils/TypeHelpers.h",
   "underlying_type" : "_ZTIj"
  },
  {
   "alignment" : 4,
   "enum_fields" :
   [
    {
     "enum_field_value" : 1,
     "name" : "android::trait_trivial_ctor<unsigned short>::value"
    }
   ],
   "linker_set_key" : "_ZTIN7android18trait_trivial_ctorItE6$valueE",
   "name" : "android::trait_trivial_ctor<unsigned short>::(anonymous enum at system/core/libutils/include/utils/TypeHelpers.h:102:1)",
   "referenced_type" : "_ZTIN7android18trait_trivial_ctorItE6$valueE",
   "self_type" : "_ZTIN7android18trait_trivial_ctorItE6$valueE",
   "size" : 4,
   "source_file" : "/system/core/libutils/include/utils/TypeHelpers.h",
   "underlying_type" : "_ZTIj"
  },
  {
   "alignment" : 4,
   "enum_fields" :
   [
    {
     "enum_field_value" : 1,
     "name" : "android::trait_trivial_ctor<void>::value"
    }
   ],
   "linker_set_key" : "_ZTIN7android18trait_trivial_ctorIvE6$valueE",
   "name" : "android::trait_trivial_ctor<void>::(anonymous enum at system/core/libutils/include/utils/TypeHelpers.h:97:1)",
   "referenced_type" : "_ZTIN7android18trait_trivial_ctorIvE6$valueE",
   "self_type" : "_ZTIN7android18trait_trivial_ctorIvE6$valueE",
   "size" : 4,
   "source_file" : "/system/core/libutils/include/utils/TypeHelpers.h",
   "underlying_type" : "_ZTIj"
  },
  {
   "alignment" : 4,
   "enum_fields" :
   [
    {
     "enum_field_value" : 1,
     "name" : "android::trait_trivial_ctor<long long>::value"
    }
   ],
   "linker_set_key" : "_ZTIN7android18trait_trivial_ctorIxE6$valueE",
   "name" : "android::trait_trivial_ctor<long long>::(anonymous enum at system/core/libutils/include/utils/TypeHelpers.h:107:1)",
   "referenced_type" : "_ZTIN7android18trait_trivial_ctorIxE6$valueE",
   "self_type" : "_ZTIN7android18trait_trivial_ctorIxE6$valueE",
   "size" : 4,
   "source_file" : "/system/core/libutils/include/utils/TypeHelpers.h",
   "underlying_type" : "_ZTIj"
  },
  {
   "alignment" : 4,
   "enum_fields" :
   [
    {
     "enum_field_value" : 1,
     "name" : "android::trait_trivial_ctor<unsigned long long>::value"
    }
   ],
   "linker_set_key" : "_ZTIN7android18trait_trivial_ctorIyE6$valueE",
   "name" : "android::trait_trivial_ctor<unsigned long long>::(anonymous enum at system/core/libutils/include/utils/TypeHelpers.h:108:1)",
   "referenced_type" : "_ZTIN7android18trait_trivial_ctorIyE6$valueE",
   "self_type" : "_ZTIN7android18trait_trivial_ctorIyE6$valueE",
   "size" : 4,
   "source_file" : "/system/core/libutils/include/utils/TypeHelpers.h",
   "underlying_type" : "_ZTIj"
  },
  {
   "alignment" : 4,
   "enum_fields" :
   [
    {
     "enum_field_value" : 1,
     "name" : "android::trait_trivial_dtor<bool>::value"
    }
   ],
   "linker_set_key" : "_ZTIN7android18trait_trivial_dtorIbE6$valueE",
   "name" : "android::trait_trivial_dtor<bool>::(anonymous enum at system/core/libutils/include/utils/TypeHelpers.h:98:1)",
   "referenced_type" : "_ZTIN7android18trait_trivial_dtorIbE6$valueE",
   "self_type" : "_ZTIN7android18trait_trivial_dtorIbE6$valueE",
   "size" : 4,
   "source_file" : "/system/core/libutils/include/utils/TypeHelpers.h",
   "underlying_type" : "_ZTIj"
  },
  {
   "alignment" : 4,
   "enum_fields" :
   [
    {
     "enum_field_value" : 1,
     "name" : "android::trait_trivial_dtor<char>::value"
    }
   ],
   "linker_set_key" : "_ZTIN7android18trait_trivial_dtorIcE6$valueE",
   "name" : "android::trait_trivial_dtor<char>::(anonymous enum at system/core/libutils/include/utils/TypeHelpers.h:99:1)",
   "referenced_type" : "_ZTIN7android18trait_trivial_dtorIcE6$valueE",
   "self_type" : "_ZTIN7android18trait_trivial_dtorIcE6$valueE",
   "size" : 4,
   "source_file" : "/system/core/libutils/include/utils/TypeHelpers.h",
   "underlying_type" : "_ZTIj"
  },
  {
   "alignment" : 4,
   "enum_fields" :
   [
    {
     "enum_field_value" : 1,
     "name" : "android::trait_trivial_dtor<double>::value"
    }
   ],
   "linker_set_key" : "_ZTIN7android18trait_trivial_dtorIdE6$valueE",
   "name" : "android::trait_trivial_dtor<double>::(anonymous enum at system/core/libutils/include/utils/TypeHelpers.h:110:1)",
   "referenced_type" : "_ZTIN7android18trait_trivial_dtorIdE6$valueE",
   "self_type" : "_ZTIN7android18trait_trivial_dtorIdE6$valueE",
   "size" : 4,
   "source_file" : "/system/core/libutils/include/utils/TypeHelpers.h",
   "underlying_type" : "_ZTIj"
  },
  {
   "alignment" : 4,
   "enum_fields" :
   [
    {
     "enum_field_value" : 1,
     "name" : "android::trait_trivial_dtor<float>::value"
    }
   ],
   "linker_set_key" : "_ZTIN7android18trait_trivial_dtorIfE6$valueE",
   "name" : "android::trait_trivial_dtor<float>::(anonymous enum at system/core/libutils/include/utils/TypeHelpers.h:109:1)",
   "referenced_type" : "_ZTIN7android18trait_trivial_dtorIfE6$valueE",
   "self_type" : "_ZTIN7android18trait_trivial_dtorIfE6$valueE",
   "size" : 4,
   "source_file" : "/system/core/libutils/include/utils/TypeHelpers.h",
   "underlying_type" : "_ZTIj"
  },
  {
   "alignment" : 4,
   "enum_fields" :
   [
    {
     "enum_field_value" : 1,
     "name" : "android::trait_trivial_dtor<unsigned char>::value"
    }
   ],
   "linker_set_key" : "_ZTIN7android18trait_trivial_dtorIhE6$valueE",
   "name" : "android::trait_trivial_dtor<unsigned char>::(anonymous enum at system/core/libutils/include/utils/TypeHelpers.h:100:1)",
   "referenced_type" : "_ZTIN7android18trait_trivial_dtorIhE6$valueE",
   "self_type" : "_ZTIN7android18trait_trivial_dtorIhE6$valueE",
   "size" : 4,
   "source_file" : "/system/core/libutils/include/utils/TypeHelpers.h",
   "underlying_type" : "_ZTIj"
  },
  {
   "alignment" : 4,
   "enum_fields" :
   [
    {
     "enum_field_value" : 1,
     "name" : "android::trait_trivial_dtor<int>::value"
    }
   ],
   "linker_set_key" : "_ZTIN7android18trait_trivial_dtorIiE6$valueE",
   "name" : "android::trait_trivial_dtor<int>::(anonymous enum at system/core/libutils/include/utils/TypeHelpers.h:103:1)",
   "referenced_type" : "_ZTIN7android18trait_trivial_dtorIiE6$valueE",
   "self_type" : "_ZTIN7android18trait_trivial_dtorIiE6$valueE",
   "size" : 4,
   "source_file" : "/system/core/libutils/include/utils/TypeHelpers.h",
   "underlying_type" : "_ZTIj"
  },
  {
   "alignment" : 4,
   "enum_fields" :
   [
    {
     "enum_field_value" : 1,
     "name" : "android::trait_trivial_dtor<unsigned int>::value"
    }
   ],
   "linker_set_key" : "_ZTIN7android18trait_trivial_dtorIjE6$valueE",
   "name" : "android::trait_trivial_dtor<unsigned int>::(anonymous enum at system/core/libutils/include/utils/TypeHelpers.h:104:1)",
   "referenced_type" : "_ZTIN7android18trait_trivial_dtorIjE6$valueE",
   "self_type" : "_ZTIN7android18trait_trivial_dtorIjE6$valueE",
   "size" : 4,
   "source_file" : "/system/core/libutils/include/utils/TypeHelpers.h",
   "underlying_type" : "_ZTIj"
  },
  {
   "alignment" : 4,
   "enum_fields" :
   [
    {
     "enum_field_value" : 1,
     "name" : "android::trait_trivial_dtor<long>::value"
    }
   ],
   "linker_set_key" : "_ZTIN7android18trait_trivial_dtorIlE6$valueE",
   "name" : "android::trait_trivial_dtor<long>::(anonymous enum at system/core/libutils/include/utils/TypeHelpers.h:105:1)",
   "referenced_type" : "_ZTIN7android18trait_trivial_dtorIlE6$valueE",
   "self_type" : "_ZTIN7android18trait_trivial_dtorIlE6$valueE",
   "size" : 4,
   "source_file" : "/system/core/libutils/include/utils/TypeHelpers.h",
   "underlying_type" : "_ZTIj"
  },
  {
   "alignment" : 4,
   "enum_fields" :
   [
    {
     "enum_field_value" : 1,
     "name" : "android::trait_trivial_dtor<unsigned long>::value"
    }
   ],
   "linker_set_key" : "_ZTIN7android18trait_trivial_dtorImE6$valueE",
   "name" : "android::trait_trivial_dtor<unsigned long>::(anonymous enum at system/core/libutils/include/utils/TypeHelpers.h:106:1)",
   "referenced_type" : "_ZTIN7android18trait_trivial_dtorImE6$valueE",
   "self_type" : "_ZTIN7android18trait_trivial_dtorImE6$valueE",
   "size" : 4,
   "source_file" : "/system/core/libutils/include/utils/TypeHelpers.h",
   "underlying_type" : "_ZTIj"
  },
  {
   "alignment" : 4,
   "enum_fields" :
   [
    {
     "enum_field_value" : 1,
     "name" : "android::trait_trivial_dtor<short>::value"
    }
   ],
   "linker_set_key" : "_ZTIN7android18trait_trivial_dtorIsE6$valueE",
   "name" : "android::trait_trivial_dtor<short>::(anonymous enum at system/core/libutils/include/utils/TypeHelpers.h:101:1)",
   "referenced_type" : "_ZTIN7android18trait_trivial_dtorIsE6$valueE",
   "self_type" : "_ZTIN7android18trait_trivial_dtorIsE6$valueE",
   "size" : 4,
   "source_file" : "/system/core/libutils/include/utils/TypeHelpers.h",
   "underlying_type" : "_ZTIj"
  },
  {
   "alignment" : 4,
   "enum_fields" :
   [
    {
     "enum_field_value" : 1,
     "name" : "android::trait_trivial_dtor<unsigned short>::value"
    }
   ],
   "linker_set_key" : "_ZTIN7android18trait_trivial_dtorItE6$valueE",
   "name" : "android::trait_trivial_dtor<unsigned short>::(anonymous enum at system/core/libutils/include/utils/TypeHelpers.h:102:1)",
   "referenced_type" : "_ZTIN7android18trait_trivial_dtorItE6$valueE",
   "self_type" : "_ZTIN7android18trait_trivial_dtorItE6$valueE",
   "size" : 4,
   "source_file" : "/system/core/libutils/include/utils/TypeHelpers.h",
   "underlying_type" : "_ZTIj"
  },
  {
   "alignment" : 4,
   "enum_fields" :
   [
    {
     "enum_field_value" : 1,
     "name" : "android::trait_trivial_dtor<void>::value"
    }
   ],
   "linker_set_key" : "_ZTIN7android18trait_trivial_dtorIvE6$valueE",
   "name" : "android::trait_trivial_dtor<void>::(anonymous enum at system/core/libutils/include/utils/TypeHelpers.h:97:1)",
   "referenced_type" : "_ZTIN7android18trait_trivial_dtorIvE6$valueE",
   "self_type" : "_ZTIN7android18trait_trivial_dtorIvE6$valueE",
   "size" : 4,
   "source_file" : "/system/core/libutils/include/utils/TypeHelpers.h",
   "underlying_type" : "_ZTIj"
  },
  {
   "alignment" : 4,
   "enum_fields" :
   [
    {
     "enum_field_value" : 1,
     "name" : "android::trait_trivial_dtor<long long>::value"
    }
   ],
   "linker_set_key" : "_ZTIN7android18trait_trivial_dtorIxE6$valueE",
   "name" : "android::trait_trivial_dtor<long long>::(anonymous enum at system/core/libutils/include/utils/TypeHelpers.h:107:1)",
   "referenced_type" : "_ZTIN7android18trait_trivial_dtorIxE6$valueE",
   "self_type" : "_ZTIN7android18trait_trivial_dtorIxE6$valueE",
   "size" : 4,
   "source_file" : "/system/core/libutils/include/utils/TypeHelpers.h",
   "underlying_type" : "_ZTIj"
  },
  {
   "alignment" : 4,
   "enum_fields" :
   [
    {
     "enum_field_value" : 1,
     "name" : "android::trait_trivial_dtor<unsigned long long>::value"
    }
   ],
   "linker_set_key" : "_ZTIN7android18trait_trivial_dtorIyE6$valueE",
   "name" : "android::trait_trivial_dtor<unsigned long long>::(anonymous enum at system/core/libutils/include/utils/TypeHelpers.h:108:1)",
   "referenced_type" : "_ZTIN7android18trait_trivial_dtorIyE6$valueE",
   "self_type" : "_ZTIN7android18trait_trivial_dtorIyE6$valueE",
   "size" : 4,
   "source_file" : "/system/core/libutils/include/utils/TypeHelpers.h",
   "underlying_type" : "_ZTIj"
  },
  {
   "alignment" : 4,
   "enum_fields" :
   [
    {
     "enum_field_value" : 1,
     "name" : "android::trait_trivial_move<android::String8>::value"
    }
   ],
   "linker_set_key" : "_ZTIN7android18trait_trivial_moveINS_7String8EE6$valueE",
   "name" : "android::trait_trivial_move<String8>::(anonymous enum at system/core/libutils/include/utils/String8.h:242:1)",
   "referenced_type" : "_ZTIN7android18trait_trivial_moveINS_7String8EE6$valueE",
   "self_type" : "_ZTIN7android18trait_trivial_moveINS_7String8EE6$valueE",
   "size" : 4,
   "source_file" : "/system/core/libutils/include/utils/String8.h",
   "underlying_type" : "_ZTIj"
  },
  {
   "alignment" : 4,
   "enum_fields" :
   [
    {
     "enum_field_value" : 1,
     "name" : "android::trait_trivial_move<android::String16>::value"
    }
   ],
   "linker_set_key" : "_ZTIN7android18trait_trivial_moveINS_8String16EE6$valueE",
   "name" : "android::trait_trivial_move<String16>::(anonymous enum at system/core/libutils/include/utils/String16.h:197:1)",
   "referenced_type" : "_ZTIN7android18trait_trivial_moveINS_8String16EE6$valueE",
   "self_type" : "_ZTIN7android18trait_trivial_moveINS_8String16EE6$valueE",
   "size" : 4,
   "source_file" : "/system/core/libutils/include/utils/String16.h",
   "underlying_type" : "_ZTIj"
  },
  {
   "alignment" : 4,
   "enum_fields" :
   [
    {
     "enum_field_value" : 1,
     "name" : "android::trait_trivial_move<bool>::value"
    }
   ],
   "linker_set_key" : "_ZTIN7android18trait_trivial_moveIbE6$valueE",
   "name" : "android::trait_trivial_move<bool>::(anonymous enum at system/core/libutils/include/utils/TypeHelpers.h:98:1)",
   "referenced_type" : "_ZTIN7android18trait_trivial_moveIbE6$valueE",
   "self_type" : "_ZTIN7android18trait_trivial_moveIbE6$valueE",
   "size" : 4,
   "source_file" : "/system/core/libutils/include/utils/TypeHelpers.h",
   "underlying_type" : "_ZTIj"
  },
  {
   "alignment" : 4,
   "enum_fields" :
   [
    {
     "enum_field_value" : 1,
     "name" : "android::trait_trivial_move<char>::value"
    }
   ],
   "linker_set_key" : "_ZTIN7android18trait_trivial_moveIcE6$valueE",
   "name" : "android::trait_trivial_move<char>::(anonymous enum at system/core/libutils/include/utils/TypeHelpers.h:99:1)",
   "referenced_type" : "_ZTIN7android18trait_trivial_moveIcE6$valueE",
   "self_type" : "_ZTIN7android18trait_trivial_moveIcE6$valueE",
   "size" : 4,
   "source_file" : "/system/core/libutils/include/utils/TypeHelpers.h",
   "underlying_type" : "_ZTIj"
  },
  {
   "alignment" : 4,
   "enum_fields" :
   [
    {
     "enum_field_value" : 1,
     "name" : "android::trait_trivial_move<double>::value"
    }
   ],
   "linker_set_key" : "_ZTIN7android18trait_trivial_moveIdE6$valueE",
   "name" : "android::trait_trivial_move<double>::(anonymous enum at system/core/libutils/include/utils/TypeHelpers.h:110:1)",
   "referenced_type" : "_ZTIN7android18trait_trivial_moveIdE6$valueE",
   "self_type" : "_ZTIN7android18trait_trivial_moveIdE6$valueE",
   "size" : 4,
   "source_file" : "/system/core/libutils/include/utils/TypeHelpers.h",
   "underlying_type" : "_ZTIj"
  },
  {
   "alignment" : 4,
   "enum_fields" :
   [
    {
     "enum_field_value" : 1,
     "name" : "android::trait_trivial_move<float>::value"
    }
   ],
   "linker_set_key" : "_ZTIN7android18trait_trivial_moveIfE6$valueE",
   "name" : "android::trait_trivial_move<float>::(anonymous enum at system/core/libutils/include/utils/TypeHelpers.h:109:1)",
   "referenced_type" : "_ZTIN7android18trait_trivial_moveIfE6$valueE",
   "self_type" : "_ZTIN7android18trait_trivial_moveIfE6$valueE",
   "size" : 4,
   "source_file" : "/system/core/libutils/include/utils/TypeHelpers.h",
   "underlying_type" : "_ZTIj"
  },
  {
   "alignment" : 4,
   "enum_fields" :
   [
    {
     "enum_field_value" : 1,
     "name" : "android::trait_trivial_move<unsigned char>::value"
    }
   ],
   "linker_set_key" : "_ZTIN7android18trait_trivial_moveIhE6$valueE",
   "name" : "android::trait_trivial_move<unsigned char>::(anonymous enum at system/core/libutils/include/utils/TypeHelpers.h:100:1)",
   "referenced_type" : "_ZTIN7android18trait_trivial_moveIhE6$valueE",
   "self_type" : "_ZTIN7android18trait_trivial_moveIhE6$valueE",
   "size" : 4,
   "source_file" : "/system/core/libutils/include/utils/TypeHelpers.h",
   "underlying_type" : "_ZTIj"
  },
  {
   "alignment" : 4,
   "enum_fields" :
   [
    {
     "enum_field_value" : 1,
     "name" : "android::trait_trivial_move<int>::value"
    }
   ],
   "linker_set_key" : "_ZTIN7android18trait_trivial_moveIiE6$valueE",
   "name" : "android::trait_trivial_move<int>::(anonymous enum at system/core/libutils/include/utils/TypeHelpers.h:103:1)",
   "referenced_type" : "_ZTIN7android18trait_trivial_moveIiE6$valueE",
   "self_type" : "_ZTIN7android18trait_trivial_moveIiE6$valueE",
   "size" : 4,
   "source_file" : "/system/core/libutils/include/utils/TypeHelpers.h",
   "underlying_type" : "_ZTIj"
  },
  {
   "alignment" : 4,
   "enum_fields" :
   [
    {
     "enum_field_value" : 1,
     "name" : "android::trait_trivial_move<unsigned int>::value"
    }
   ],
   "linker_set_key" : "_ZTIN7android18trait_trivial_moveIjE6$valueE",
   "name" : "android::trait_trivial_move<unsigned int>::(anonymous enum at system/core/libutils/include/utils/TypeHelpers.h:104:1)",
   "referenced_type" : "_ZTIN7android18trait_trivial_moveIjE6$valueE",
   "self_type" : "_ZTIN7android18trait_trivial_moveIjE6$valueE",
   "size" : 4,
   "source_file" : "/system/core/libutils/include/utils/TypeHelpers.h",
   "underlying_type" : "_ZTIj"
  },
  {
   "alignment" : 4,
   "enum_fields" :
   [
    {
     "enum_field_value" : 1,
     "name" : "android::trait_trivial_move<long>::value"
    }
   ],
   "linker_set_key" : "_ZTIN7android18trait_trivial_moveIlE6$valueE",
   "name" : "android::trait_trivial_move<long>::(anonymous enum at system/core/libutils/include/utils/TypeHelpers.h:105:1)",
   "referenced_type" : "_ZTIN7android18trait_trivial_moveIlE6$valueE",
   "self_type" : "_ZTIN7android18trait_trivial_moveIlE6$valueE",
   "size" : 4,
   "source_file" : "/system/core/libutils/include/utils/TypeHelpers.h",
   "underlying_type" : "_ZTIj"
  },
  {
   "alignment" : 4,
   "enum_fields" :
   [
    {
     "enum_field_value" : 1,
     "name" : "android::trait_trivial_move<unsigned long>::value"
    }
   ],
   "linker_set_key" : "_ZTIN7android18trait_trivial_moveImE6$valueE",
   "name" : "android::trait_trivial_move<unsigned long>::(anonymous enum at system/core/libutils/include/utils/TypeHelpers.h:106:1)",
   "referenced_type" : "_ZTIN7android18trait_trivial_moveImE6$valueE",
   "self_type" : "_ZTIN7android18trait_trivial_moveImE6$valueE",
   "size" : 4,
   "source_file" : "/system/core/libutils/include/utils/TypeHelpers.h",
   "underlying_type" : "_ZTIj"
  },
  {
   "alignment" : 4,
   "enum_fields" :
   [
    {
     "enum_field_value" : 1,
     "name" : "android::trait_trivial_move<short>::value"
    }
   ],
   "linker_set_key" : "_ZTIN7android18trait_trivial_moveIsE6$valueE",
   "name" : "android::trait_trivial_move<short>::(anonymous enum at system/core/libutils/include/utils/TypeHelpers.h:101:1)",
   "referenced_type" : "_ZTIN7android18trait_trivial_moveIsE6$valueE",
   "self_type" : "_ZTIN7android18trait_trivial_moveIsE6$valueE",
   "size" : 4,
   "source_file" : "/system/core/libutils/include/utils/TypeHelpers.h",
   "underlying_type" : "_ZTIj"
  },
  {
   "alignment" : 4,
   "enum_fields" :
   [
    {
     "enum_field_value" : 1,
     "name" : "android::trait_trivial_move<unsigned short>::value"
    }
   ],
   "linker_set_key" : "_ZTIN7android18trait_trivial_moveItE6$valueE",
   "name" : "android::trait_trivial_move<unsigned short>::(anonymous enum at system/core/libutils/include/utils/TypeHelpers.h:102:1)",
   "referenced_type" : "_ZTIN7android18trait_trivial_moveItE6$valueE",
   "self_type" : "_ZTIN7android18trait_trivial_moveItE6$valueE",
   "size" : 4,
   "source_file" : "/system/core/libutils/include/utils/TypeHelpers.h",
   "underlying_type" : "_ZTIj"
  },
  {
   "alignment" : 4,
   "enum_fields" :
   [
    {
     "enum_field_value" : 1,
     "name" : "android::trait_trivial_move<void>::value"
    }
   ],
   "linker_set_key" : "_ZTIN7android18trait_trivial_moveIvE6$valueE",
   "name" : "android::trait_trivial_move<void>::(anonymous enum at system/core/libutils/include/utils/TypeHelpers.h:97:1)",
   "referenced_type" : "_ZTIN7android18trait_trivial_moveIvE6$valueE",
   "self_type" : "_ZTIN7android18trait_trivial_moveIvE6$valueE",
   "size" : 4,
   "source_file" : "/system/core/libutils/include/utils/TypeHelpers.h",
   "underlying_type" : "_ZTIj"
  },
  {
   "alignment" : 4,
   "enum_fields" :
   [
    {
     "enum_field_value" : 1,
     "name" : "android::trait_trivial_move<long long>::value"
    }
   ],
   "linker_set_key" : "_ZTIN7android18trait_trivial_moveIxE6$valueE",
   "name" : "android::trait_trivial_move<long long>::(anonymous enum at system/core/libutils/include/utils/TypeHelpers.h:107:1)",
   "referenced_type" : "_ZTIN7android18trait_trivial_moveIxE6$valueE",
   "self_type" : "_ZTIN7android18trait_trivial_moveIxE6$valueE",
   "size" : 4,
   "source_file" : "/system/core/libutils/include/utils/TypeHelpers.h",
   "underlying_type" : "_ZTIj"
  },
  {
   "alignment" : 4,
   "enum_fields" :
   [
    {
     "enum_field_value" : 1,
     "name" : "android::trait_trivial_move<unsigned long long>::value"
    }
   ],
   "linker_set_key" : "_ZTIN7android18trait_trivial_moveIyE6$valueE",
   "name" : "android::trait_trivial_move<unsigned long long>::(anonymous enum at system/core/libutils/include/utils/TypeHelpers.h:108:1)",
   "referenced_type" : "_ZTIN7android18trait_trivial_moveIyE6$valueE",
   "self_type" : "_ZTIN7android18trait_trivial_moveIyE6$valueE",
   "size" : 4,
   "source_file" : "/system/core/libutils/include/utils/TypeHelpers.h",
   "underlying_type" : "_ZTIj"
  },
  {
   "alignment" : 4,
   "enum_fields" :
   [
    {
     "enum_field_value" : 0,
     "name" : "android::hidl::base::V1_0::DebugInfo::Architecture::UNKNOWN"
    },
    {
     "enum_field_value" : 1,
     "name" : "android::hidl::base::V1_0::DebugInfo::Architecture::IS_64BIT"
    },
    {
     "enum_field_value" : 2,
     "name" : "android::hidl::base::V1_0::DebugInfo::Architecture::IS_32BIT"
    }
   ],
   "linker_set_key" : "_ZTIN7android4hidl4base4V1_09DebugInfo12ArchitectureE",
   "name" : "android::hidl::base::V1_0::DebugInfo::Architecture",
   "referenced_type" : "_ZTIN7android4hidl4base4V1_09DebugInfo12ArchitectureE",
   "self_type" : "_ZTIN7android4hidl4base4V1_09DebugInfo12ArchitectureE",
   "size" : 4,
   "source_file" : "/out/soong/.intermediates/system/libhidl/transport/base/1.0/android.hidl.base@1.0_genc++_headers/gen/android/hidl/base/1.0/types.h",
   "underlying_type" : "_ZTIi"
  },
  {
   "alignment" : 4,
   "enum_fields" :
   [
    {
     "enum_field_value" : -1,
     "name" : "android::hidl::manager::V1_0::IServiceManager::PidConstant::NO_PID"
    }
   ],
   "linker_set_key" : "_ZTIN7android4hidl7manager4V1_015IServiceManager11PidConstantE",
   "name" : "android::hidl::manager::V1_0::IServiceManager::PidConstant",
   "referenced_type" : "_ZTIN7android4hidl7manager4V1_015IServiceManager11PidConstantE",
   "self_type" : "_ZTIN7android4hidl7manager4V1_015IServiceManager11PidConstantE",
   "size" : 4,
   "source_file" : "/out/soong/.intermediates/system/libhidl/transport/manager/1.0/android.hidl.manager@1.0_genc++_headers/gen/android/hidl/manager/1.0/IServiceManager.h",
   "underlying_type" : "_ZTIi"
  },
  {
   "alignment" : 1,
   "enum_fields" :
   [
    {
     "enum_field_value" : 0,
     "name" : "android::hidl::manager::V1_0::IServiceManager::Transport::EMPTY"
    },
    {
     "enum_field_value" : 1,
     "name" : "android::hidl::manager::V1_0::IServiceManager::Transport::HWBINDER"
    },
    {
     "enum_field_value" : 2,
     "name" : "android::hidl::manager::V1_0::IServiceManager::Transport::PASSTHROUGH"
    }
   ],
   "linker_set_key" : "_ZTIN7android4hidl7manager4V1_015IServiceManager9TransportE",
   "name" : "android::hidl::manager::V1_0::IServiceManager::Transport",
   "referenced_type" : "_ZTIN7android4hidl7manager4V1_015IServiceManager9TransportE",
   "self_type" : "_ZTIN7android4hidl7manager4V1_015IServiceManager9TransportE",
   "size" : 1,
   "source_file" : "/out/soong/.intermediates/system/libhidl/transport/manager/1.0/android.hidl.manager@1.0_genc++_headers/gen/android/hidl/manager/1.0/IServiceManager.h",
   "underlying_type" : "_ZTIh"
  },
  {
   "alignment" : 4,
   "enum_fields" :
   [
    {
     "enum_field_value" : 0,
     "name" : "android::Mutex::PRIVATE"
    },
    {
     "enum_field_value" : 1,
     "name" : "android::Mutex::SHARED"
    }
   ],
   "linker_set_key" : "_ZTIN7android5Mutex8$PRIVATEE",
   "name" : "android::Mutex::(anonymous enum at system/core/libutils/include/utils/Mutex.h:96:5)",
   "referenced_type" : "_ZTIN7android5Mutex8$PRIVATEE",
   "self_type" : "_ZTIN7android5Mutex8$PRIVATEE",
   "size" : 4,
   "source_file" : "/system/core/libutils/include/utils/Mutex.h",
   "underlying_type" : "_ZTIj"
  },
  {
   "alignment" : 4,
   "enum_fields" :
   [
    {
     "enum_field_value" : 0,
     "name" : "android::RWLock::PRIVATE"
    },
    {
     "enum_field_value" : 1,
     "name" : "android::RWLock::SHARED"
    }
   ],
   "linker_set_key" : "_ZTIN7android6RWLock8$PRIVATEE",
   "name" : "android::RWLock::(anonymous enum at system/core/libutils/include/utils/RWLock.h:44:5)",
   "referenced_type" : "_ZTIN7android6RWLock8$PRIVATEE",
   "self_type" : "_ZTIN7android6RWLock8$PRIVATEE",
   "size" : 4,
   "source_file" : "/system/core/libutils/include/utils/RWLock.h",
   "underlying_type" : "_ZTIj"
  },
  {
   "access" : "protected",
   "alignment" : 4,
   "enum_fields" :
   [
    {
     "enum_field_value" : 1,
     "name" : "android::RefBase::FIRST_INC_STRONG"
    }
   ],
   "linker_set_key" : "_ZTIN7android7RefBase17$FIRST_INC_STRONGE",
   "name" : "android::RefBase::(anonymous enum at system/core/libutils/include/utils/RefBase.h:313:5)",
   "referenced_type" : "_ZTIN7android7RefBase17$FIRST_INC_STRONGE",
   "self_type" : "_ZTIN7android7RefBase17$FIRST_INC_STRONGE",
   "size" : 4,
   "source_file" : "/system/core/libutils/include/utils/RefBase.h",
   "underlying_type" : "_ZTIj"
  },
  {
   "access" : "protected",
   "alignment" : 4,
   "enum_fields" :
   [
    {
     "enum_field_value" : 0,
     "name" : "android::RefBase::OBJECT_LIFETIME_STRONG"
    },
    {
     "enum_field_value" : 1,
     "name" : "android::RefBase::OBJECT_LIFETIME_WEAK"
    },
    {
     "enum_field_value" : 1,
     "name" : "android::RefBase::OBJECT_LIFETIME_MASK"
    }
   ],
   "linker_set_key" : "_ZTIN7android7RefBase21$OBJECT_LIFETIME_MASKE",
   "name" : "android::RefBase::(anonymous enum at system/core/libutils/include/utils/RefBase.h:304:5)",
   "referenced_type" : "_ZTIN7android7RefBase21$OBJECT_LIFETIME_MASKE",
   "self_type" : "_ZTIN7android7RefBase21$OBJECT_LIFETIME_MASKE",
   "size" : 4,
   "source_file" : "/system/core/libutils/include/utils/RefBase.h",
   "underlying_type" : "_ZTIj"
  },
  {
   "alignment" : 4,
   "enum_fields" :
   [
    {
     "enum_field_value" : 0,
     "name" : "android::String8::kEmptyString"
    }
   ],
   "linker_set_key" : "_ZTIN7android7String813StaticLinkageE",
   "name" : "android::String8::StaticLinkage",
   "referenced_type" : "_ZTIN7android7String813StaticLinkageE",
   "self_type" : "_ZTIN7android7String813StaticLinkageE",
   "size" : 4,
   "source_file" : "/system/core/libutils/include/utils/String8.h",
   "underlying_type" : "_ZTIj"
  },
  {
   "alignment" : 4,
   "enum_fields" :
   [
    {
     "enum_field_value" : 0,
     "name" : "android::String16::kEmptyString"
    }
   ],
   "linker_set_key" : "_ZTIN7android8String1613StaticLinkageE",
   "name" : "android::String16::StaticLinkage",
   "referenced_type" : "_ZTIN7android8String1613StaticLinkageE",
   "self_type" : "_ZTIN7android8String1613StaticLinkageE",
   "size" : 4,
   "source_file" : "/system/core/libutils/include/utils/String16.h",
   "underlying_type" : "_ZTIj"
  },
  {
   "alignment" : 4,
   "enum_fields" :
   [
    {
     "enum_field_value" : 0,
     "name" : "android::hardware::MQDescriptor<char, android::hardware::kSynchronizedReadWrite>::READPTRPOS"
    },
    {
     "enum_field_value" : 1,
     "name" : "android::hardware::MQDescriptor<char, android::hardware::kSynchronizedReadWrite>::WRITEPTRPOS"
    },
    {
     "enum_field_value" : 2,
     "name" : "android::hardware::MQDescriptor<char, android::hardware::kSynchronizedReadWrite>::DATAPTRPOS"
    },
    {
     "enum_field_value" : 3,
     "name" : "android::hardware::MQDescriptor<char, android::hardware::kSynchronizedReadWrite>::EVFLAGWORDPOS"
    }
   ],
   "linker_set_key" : "_ZTIN7android8hardware12MQDescriptorIcLNS0_8MQFlavorE1EE11GrantorTypeE",
   "name" : "android::hardware::MQDescriptor<char, android::hardware::kSynchronizedReadWrite>::GrantorType",
   "referenced_type" : "_ZTIN7android8hardware12MQDescriptorIcLNS0_8MQFlavorE1EE11GrantorTypeE",
   "self_type" : "_ZTIN7android8hardware12MQDescriptorIcLNS0_8MQFlavorE1EE11GrantorTypeE",
   "size" : 4,
   "source_file" : "/system/libhidl/base/include/hidl/MQDescriptor.h",
   "underlying_type" : "_ZTIi"
  },
  {
   "alignment" : 4,
   "enum_fields" :
   [
    {
     "enum_field_value" : 0,
     "name" : "android::hardware::ProcessState::CallRestriction::NONE"
    },
    {
     "enum_field_value" : 1,
     "name" : "android::hardware::ProcessState::CallRestriction::ERROR_IF_NOT_ONEWAY"
    },
    {
     "enum_field_value" : 2,
     "name" : "android::hardware::ProcessState::CallRestriction::FATAL_IF_NOT_ONEWAY"
    }
   ],
   "linker_set_key" : "_ZTIN7android8hardware12ProcessState15CallRestrictionE",
   "name" : "android::hardware::ProcessState::CallRestriction",
   "referenced_type" : "_ZTIN7android8hardware12ProcessState15CallRestrictionE",
   "self_type" : "_ZTIN7android8hardware12ProcessState15CallRestrictionE",
   "size" : 4,
   "source_file" : "/system/libhwbinder/include/hwbinder/ProcessState.h",
   "underlying_type" : "_ZTIi"
  },
  {
   "alignment" : 4,
   "enum_fields" :
   [
    {
     "enum_field_value" : 1,
     "name" : "android::hardware::broadcastradio::V2_0::ConfigFlag::FORCE_MONO"
    },
    {
     "enum_field_value" : 2,
     "name" : "android::hardware::broadcastradio::V2_0::ConfigFlag::FORCE_ANALOG"
    },
    {
     "enum_field_value" : 3,
     "name" : "android::hardware::broadcastradio::V2_0::ConfigFlag::FORCE_DIGITAL"
    },
    {
     "enum_field_value" : 4,
     "name" : "android::hardware::broadcastradio::V2_0::ConfigFlag::RDS_AF"
    },
    {
     "enum_field_value" : 5,
     "name" : "android::hardware::broadcastradio::V2_0::ConfigFlag::RDS_REG"
    },
    {
     "enum_field_value" : 6,
     "name" : "android::hardware::broadcastradio::V2_0::ConfigFlag::DAB_DAB_LINKING"
    },
    {
     "enum_field_value" : 7,
     "name" : "android::hardware::broadcastradio::V2_0::ConfigFlag::DAB_FM_LINKING"
    },
    {
     "enum_field_value" : 8,
     "name" : "android::hardware::broadcastradio::V2_0::ConfigFlag::DAB_DAB_SOFT_LINKING"
    },
    {
     "enum_field_value" : 9,
     "name" : "android::hardware::broadcastradio::V2_0::ConfigFlag::DAB_FM_SOFT_LINKING"
    }
   ],
   "linker_set_key" : "_ZTIN7android8hardware14broadcastradio4V2_010ConfigFlagE",
   "name" : "android::hardware::broadcastradio::V2_0::ConfigFlag",
   "referenced_type" : "_ZTIN7android8hardware14broadcastradio4V2_010ConfigFlagE",
   "self_type" : "_ZTIN7android8hardware14broadcastradio4V2_010ConfigFlagE",
   "size" : 4,
   "source_file" : "/out/soong/.intermediates/hardware/interfaces/broadcastradio/2.0/android.hardware.broadcastradio@2.0_genc++_headers/gen/android/hardware/broadcastradio/2.0/types.h",
   "underlying_type" : "_ZTIj"
  },
  {
   "alignment" : 1,
   "enum_fields" :
   [
    {
     "enum_field_value" : 1,
     "name" : "android::hardware::broadcastradio::V2_0::Deemphasis::D50"
    },
    {
     "enum_field_value" : 2,
     "name" : "android::hardware::broadcastradio::V2_0::Deemphasis::D75"
    }
   ],
   "linker_set_key" : "_ZTIN7android8hardware14broadcastradio4V2_010DeemphasisE",
   "name" : "android::hardware::broadcastradio::V2_0::Deemphasis",
   "referenced_type" : "_ZTIN7android8hardware14broadcastradio4V2_010DeemphasisE",
   "self_type" : "_ZTIN7android8hardware14broadcastradio4V2_010DeemphasisE",
   "size" : 1,
   "source_file" : "/out/soong/.intermediates/hardware/interfaces/broadcastradio/2.0/android.hardware.broadcastradio@2.0_genc++_headers/gen/android/hardware/broadcastradio/2.0/types.h",
   "underlying_type" : "_ZTIh"
  },
  {
   "alignment" : 4,
   "enum_fields" :
   [
    {
     "enum_field_value" : 1,
     "name" : "android::hardware::broadcastradio::V2_0::MetadataKey::RDS_PS"
    },
    {
     "enum_field_value" : 2,
     "name" : "android::hardware::broadcastradio::V2_0::MetadataKey::RDS_PTY"
    },
    {
     "enum_field_value" : 3,
     "name" : "android::hardware::broadcastradio::V2_0::MetadataKey::RBDS_PTY"
    },
    {
     "enum_field_value" : 4,
     "name" : "android::hardware::broadcastradio::V2_0::MetadataKey::RDS_RT"
    },
    {
     "enum_field_value" : 5,
     "name" : "android::hardware::broadcastradio::V2_0::MetadataKey::SONG_TITLE"
    },
    {
     "enum_field_value" : 6,
     "name" : "android::hardware::broadcastradio::V2_0::MetadataKey::SONG_ARTIST"
    },
    {
     "enum_field_value" : 7,
     "name" : "android::hardware::broadcastradio::V2_0::MetadataKey::SONG_ALBUM"
    },
    {
     "enum_field_value" : 8,
     "name" : "android::hardware::broadcastradio::V2_0::MetadataKey::STATION_ICON"
    },
    {
     "enum_field_value" : 9,
     "name" : "android::hardware::broadcastradio::V2_0::MetadataKey::ALBUM_ART"
    },
    {
     "enum_field_value" : 10,
     "name" : "android::hardware::broadcastradio::V2_0::MetadataKey::PROGRAM_NAME"
    },
    {
     "enum_field_value" : 11,
     "name" : "android::hardware::broadcastradio::V2_0::MetadataKey::DAB_ENSEMBLE_NAME"
    },
    {
     "enum_field_value" : 12,
     "name" : "android::hardware::broadcastradio::V2_0::MetadataKey::DAB_ENSEMBLE_NAME_SHORT"
    },
    {
     "enum_field_value" : 13,
     "name" : "android::hardware::broadcastradio::V2_0::MetadataKey::DAB_SERVICE_NAME"
    },
    {
     "enum_field_value" : 14,
     "name" : "android::hardware::broadcastradio::V2_0::MetadataKey::DAB_SERVICE_NAME_SHORT"
    },
    {
     "enum_field_value" : 15,
     "name" : "android::hardware::broadcastradio::V2_0::MetadataKey::DAB_COMPONENT_NAME"
    },
    {
     "enum_field_value" : 16,
     "name" : "android::hardware::broadcastradio::V2_0::MetadataKey::DAB_COMPONENT_NAME_SHORT"
    }
   ],
   "linker_set_key" : "_ZTIN7android8hardware14broadcastradio4V2_011MetadataKeyE",
   "name" : "android::hardware::broadcastradio::V2_0::MetadataKey",
   "referenced_type" : "_ZTIN7android8hardware14broadcastradio4V2_011MetadataKeyE",
   "self_type" : "_ZTIN7android8hardware14broadcastradio4V2_011MetadataKeyE",
   "size" : 4,
   "source_file" : "/out/soong/.intermediates/hardware/interfaces/broadcastradio/2.0/android.hardware.broadcastradio@2.0_genc++_headers/gen/android/hardware/broadcastradio/2.0/types.h",
   "underlying_type" : "_ZTIi"
  },
  {
   "alignment" : 4,
   "enum_fields" :
   [
    {
     "enum_field_value" : 1000,
     "name" : "android::hardware::broadcastradio::V2_0::IdentifierType::VENDOR_START"
    },
    {
     "enum_field_value" : 1999,
     "name" : "android::hardware::broadcastradio::V2_0::IdentifierType::VENDOR_END"
    },
    {
     "enum_field_value" : 0,
     "name" : "android::hardware::broadcastradio::V2_0::IdentifierType::INVALID"
    },
    {
     "enum_field_value" : 1,
     "name" : "android::hardware::broadcastradio::V2_0::IdentifierType::AMFM_FREQUENCY"
    },
    {
     "enum_field_value" : 2,
     "name" : "android::hardware::broadcastradio::V2_0::IdentifierType::RDS_PI"
    },
    {
     "enum_field_value" : 3,
     "name" : "android::hardware::broadcastradio::V2_0::IdentifierType::HD_STATION_ID_EXT"
    },
    {
     "enum_field_value" : 4,
     "name" : "android::hardware::broadcastradio::V2_0::IdentifierType::HD_STATION_NAME"
    },
    {
     "enum_field_value" : 5,
     "name" : "android::hardware::broadcastradio::V2_0::IdentifierType::DAB_SID_EXT"
    },
    {
     "enum_field_value" : 6,
     "name" : "android::hardware::broadcastradio::V2_0::IdentifierType::DAB_ENSEMBLE"
    },
    {
     "enum_field_value" : 7,
     "name" : "android::hardware::broadcastradio::V2_0::IdentifierType::DAB_SCID"
    },
    {
     "enum_field_value" : 8,
     "name" : "android::hardware::broadcastradio::V2_0::IdentifierType::DAB_FREQUENCY"
    },
    {
     "enum_field_value" : 9,
     "name" : "android::hardware::broadcastradio::V2_0::IdentifierType::DRMO_SERVICE_ID"
    },
    {
     "enum_field_value" : 10,
     "name" : "android::hardware::broadcastradio::V2_0::IdentifierType::DRMO_FREQUENCY"
    },
    {
     "enum_field_value" : 12,
     "name" : "android::hardware::broadcastradio::V2_0::IdentifierType::SXM_SERVICE_ID"
    },
    {
     "enum_field_value" : 13,
     "name" : "android::hardware::broadcastradio::V2_0::IdentifierType::SXM_CHANNEL"
    }
   ],
   "linker_set_key" : "_ZTIN7android8hardware14broadcastradio4V2_014IdentifierTypeE",
   "name" : "android::hardware::broadcastradio::V2_0::IdentifierType",
   "referenced_type" : "_ZTIN7android8hardware14broadcastradio4V2_014IdentifierTypeE",
   "self_type" : "_ZTIN7android8hardware14broadcastradio4V2_014IdentifierTypeE",
   "size" : 4,
   "source_file" : "/out/soong/.intermediates/hardware/interfaces/broadcastradio/2.0/android.hardware.broadcastradio@2.0_genc++_headers/gen/android/hardware/broadcastradio/2.0/types.h",
   "underlying_type" : "_ZTIj"
  },
  {
   "alignment" : 1,
   "enum_fields" :
   [
    {
     "enum_field_value" : 1,
     "name" : "android::hardware::broadcastradio::V2_0::AnnouncementType::EMERGENCY"
    },
    {
     "enum_field_value" : 2,
     "name" : "android::hardware::broadcastradio::V2_0::AnnouncementType::WARNING"
    },
    {
     "enum_field_value" : 3,
     "name" : "android::hardware::broadcastradio::V2_0::AnnouncementType::TRAFFIC"
    },
    {
     "enum_field_value" : 4,
     "name" : "android::hardware::broadcastradio::V2_0::AnnouncementType::WEATHER"
    },
    {
     "enum_field_value" : 5,
     "name" : "android::hardware::broadcastradio::V2_0::AnnouncementType::NEWS"
    },
    {
     "enum_field_value" : 6,
     "name" : "android::hardware::broadcastradio::V2_0::AnnouncementType::EVENT"
    },
    {
     "enum_field_value" : 7,
     "name" : "android::hardware::broadcastradio::V2_0::AnnouncementType::SPORT"
    },
    {
     "enum_field_value" : 8,
     "name" : "android::hardware::broadcastradio::V2_0::AnnouncementType::MISC"
    }
   ],
   "linker_set_key" : "_ZTIN7android8hardware14broadcastradio4V2_016AnnouncementTypeE",
   "name" : "android::hardware::broadcastradio::V2_0::AnnouncementType",
   "referenced_type" : "_ZTIN7android8hardware14broadcastradio4V2_016AnnouncementTypeE",
   "self_type" : "_ZTIN7android8hardware14broadcastradio4V2_016AnnouncementTypeE",
   "size" : 1,
   "source_file" : "/out/soong/.intermediates/hardware/interfaces/broadcastradio/2.0/android.hardware.broadcastradio@2.0_genc++_headers/gen/android/hardware/broadcastradio/2.0/types.h",
   "underlying_type" : "_ZTIh"
  },
  {
   "alignment" : 4,
   "enum_fields" :
   [
    {
     "enum_field_value" : 1,
     "name" : "android::hardware::broadcastradio::V2_0::ProgramInfoFlags::LIVE"
    },
    {
     "enum_field_value" : 2,
     "name" : "android::hardware::broadcastradio::V2_0::ProgramInfoFlags::MUTED"
    },
    {
     "enum_field_value" : 4,
     "name" : "android::hardware::broadcastradio::V2_0::ProgramInfoFlags::TRAFFIC_PROGRAM"
    },
    {
     "enum_field_value" : 8,
     "name" : "android::hardware::broadcastradio::V2_0::ProgramInfoFlags::TRAFFIC_ANNOUNCEMENT"
    },
    {
     "enum_field_value" : 16,
     "name" : "android::hardware::broadcastradio::V2_0::ProgramInfoFlags::TUNED"
    },
    {
     "enum_field_value" : 32,
     "name" : "android::hardware::broadcastradio::V2_0::ProgramInfoFlags::STEREO"
    }
   ],
   "linker_set_key" : "_ZTIN7android8hardware14broadcastradio4V2_016ProgramInfoFlagsE",
   "name" : "android::hardware::broadcastradio::V2_0::ProgramInfoFlags",
   "referenced_type" : "_ZTIN7android8hardware14broadcastradio4V2_016ProgramInfoFlagsE",
   "self_type" : "_ZTIN7android8hardware14broadcastradio4V2_016ProgramInfoFlagsE",
   "size" : 4,
   "source_file" : "/out/soong/.intermediates/hardware/interfaces/broadcastradio/2.0/android.hardware.broadcastradio@2.0_genc++_headers/gen/android/hardware/broadcastradio/2.0/types.h",
   "underlying_type" : "_ZTIj"
  },
  {
   "alignment" : 1,
   "enum_fields" :
   [
    {
     "enum_field_value" : 1,
     "name" : "android::hardware::broadcastradio::V2_0::Rds::RDS"
    },
    {
     "enum_field_value" : 2,
     "name" : "android::hardware::broadcastradio::V2_0::Rds::RBDS"
    }
   ],
   "linker_set_key" : "_ZTIN7android8hardware14broadcastradio4V2_03RdsE",
   "name" : "android::hardware::broadcastradio::V2_0::Rds",
   "referenced_type" : "_ZTIN7android8hardware14broadcastradio4V2_03RdsE",
   "self_type" : "_ZTIN7android8hardware14broadcastradio4V2_03RdsE",
   "size" : 1,
   "source_file" : "/out/soong/.intermediates/hardware/interfaces/broadcastradio/2.0/android.hardware.broadcastradio@2.0_genc++_headers/gen/android/hardware/broadcastradio/2.0/types.h",
   "underlying_type" : "_ZTIh"
  },
  {
   "alignment" : 4,
   "enum_fields" :
   [
    {
     "enum_field_value" : 0,
     "name" : "android::hardware::broadcastradio::V2_0::Result::OK"
    },
    {
     "enum_field_value" : 1,
     "name" : "android::hardware::broadcastradio::V2_0::Result::UNKNOWN_ERROR"
    },
    {
     "enum_field_value" : 2,
     "name" : "android::hardware::broadcastradio::V2_0::Result::INTERNAL_ERROR"
    },
    {
     "enum_field_value" : 3,
     "name" : "android::hardware::broadcastradio::V2_0::Result::INVALID_ARGUMENTS"
    },
    {
     "enum_field_value" : 4,
     "name" : "android::hardware::broadcastradio::V2_0::Result::INVALID_STATE"
    },
    {
     "enum_field_value" : 5,
     "name" : "android::hardware::broadcastradio::V2_0::Result::NOT_SUPPORTED"
    },
    {
     "enum_field_value" : 6,
     "name" : "android::hardware::broadcastradio::V2_0::Result::TIMEOUT"
    }
   ],
   "linker_set_key" : "_ZTIN7android8hardware14broadcastradio4V2_06ResultE",
   "name" : "android::hardware::broadcastradio::V2_0::Result",
   "referenced_type" : "_ZTIN7android8hardware14broadcastradio4V2_06ResultE",
   "self_type" : "_ZTIN7android8hardware14broadcastradio4V2_06ResultE",
   "size" : 4,
   "source_file" : "/out/soong/.intermediates/hardware/interfaces/broadcastradio/2.0/android.hardware.broadcastradio@2.0_genc++_headers/gen/android/hardware/broadcastradio/2.0/types.h",
   "underlying_type" : "_ZTIi"
  },
  {
   "alignment" : 4,
   "enum_fields" :
   [
    {
     "enum_field_value" : 0,
     "name" : "android::hardware::broadcastradio::V2_0::Constants::INVALID_IMAGE"
    },
    {
     "enum_field_value" : 100,
     "name" : "android::hardware::broadcastradio::V2_0::Constants::ANTENNA_DISCONNECTED_TIMEOUT_MS"
    },
    {
     "enum_field_value" : 300000,
     "name" : "android::hardware::broadcastradio::V2_0::Constants::LIST_COMPLETE_TIMEOUT_MS"
    }
   ],
   "linker_set_key" : "_ZTIN7android8hardware14broadcastradio4V2_09ConstantsE",
   "name" : "android::hardware::broadcastradio::V2_0::Constants",
   "referenced_type" : "_ZTIN7android8hardware14broadcastradio4V2_09ConstantsE",
   "self_type" : "_ZTIN7android8hardware14broadcastradio4V2_09ConstantsE",
   "size" : 4,
   "source_file" : "/out/soong/.intermediates/hardware/interfaces/broadcastradio/2.0/android.hardware.broadcastradio@2.0_genc++_headers/gen/android/hardware/broadcastradio/2.0/types.h",
   "underlying_type" : "_ZTIi"
  },
  {
   "alignment" : 4,
   "enum_fields" :
   [
    {
     "enum_field_value" : 0,
     "name" : "android::hardware::HidlReturnRestriction::NONE"
    },
    {
     "enum_field_value" : 1,
     "name" : "android::hardware::HidlReturnRestriction::ERROR_IF_UNCHECKED"
    },
    {
     "enum_field_value" : 2,
     "name" : "android::hardware::HidlReturnRestriction::FATAL_IF_UNCHECKED"
    }
   ],
   "linker_set_key" : "_ZTIN7android8hardware21HidlReturnRestrictionE",
   "name" : "android::hardware::HidlReturnRestriction",
   "referenced_type" : "_ZTIN7android8hardware21HidlReturnRestrictionE",
   "self_type" : "_ZTIN7android8hardware21HidlReturnRestrictionE",
   "size" : 4,
   "source_file" : "/system/libhidl/base/include/hidl/Status.h",
   "underlying_type" : "_ZTIi"
  },
  {
   "alignment" : 4,
   "enum_fields" :
   [
    {
     "enum_field_value" : 0,
     "name" : "android::hardware::Status::EX_NONE"
    },
    {
     "enum_field_value" : -1,
     "name" : "android::hardware::Status::EX_SECURITY"
    },
    {
     "enum_field_value" : -2,
     "name" : "android::hardware::Status::EX_BAD_PARCELABLE"
    },
    {
     "enum_field_value" : -3,
     "name" : "android::hardware::Status::EX_ILLEGAL_ARGUMENT"
    },
    {
     "enum_field_value" : -4,
     "name" : "android::hardware::Status::EX_NULL_POINTER"
    },
    {
     "enum_field_value" : -5,
     "name" : "android::hardware::Status::EX_ILLEGAL_STATE"
    },
    {
     "enum_field_value" : -6,
     "name" : "android::hardware::Status::EX_NETWORK_MAIN_THREAD"
    },
    {
     "enum_field_value" : -7,
     "name" : "android::hardware::Status::EX_UNSUPPORTED_OPERATION"
    },
    {
     "enum_field_value" : -128,
     "name" : "android::hardware::Status::EX_HAS_REPLY_HEADER"
    },
    {
     "enum_field_value" : -129,
     "name" : "android::hardware::Status::EX_TRANSACTION_FAILED"
    }
   ],
   "linker_set_key" : "_ZTIN7android8hardware6Status9ExceptionE",
   "name" : "android::hardware::Status::Exception",
   "referenced_type" : "_ZTIN7android8hardware6Status9ExceptionE",
   "self_type" : "_ZTIN7android8hardware6Status9ExceptionE",
   "size" : 4,
   "source_file" : "/system/libhidl/base/include/hidl/Status.h",
   "underlying_type" : "_ZTIi"
  },
  {
   "alignment" : 4,
   "enum_fields" :
   [
    {
     "enum_field_value" : 1,
     "name" : "android::hardware::IBinder::FLAG_ONEWAY"
    }
   ],
   "linker_set_key" : "_ZTIN7android8hardware7IBinder12$FLAG_ONEWAYE",
   "name" : "android::hardware::IBinder::(anonymous enum at system/libhwbinder/include/hwbinder/IBinder.h:47:5)",
   "referenced_type" : "_ZTIN7android8hardware7IBinder12$FLAG_ONEWAYE",
   "self_type" : "_ZTIN7android8hardware7IBinder12$FLAG_ONEWAYE",
   "size" : 4,
   "source_file" : "/system/libhwbinder/include/hwbinder/IBinder.h",
   "underlying_type" : "_ZTIj"
  },
  {
   "alignment" : 4,
   "enum_fields" :
   [
    {
     "enum_field_value" : 0,
     "name" : "android::hardware::details::HidlInstrumentor::SERVER_API_ENTRY"
    },
    {
     "enum_field_value" : 1,
     "name" : "android::hardware::details::HidlInstrumentor::SERVER_API_EXIT"
    },
    {
     "enum_field_value" : 2,
     "name" : "android::hardware::details::HidlInstrumentor::CLIENT_API_ENTRY"
    },
    {
     "enum_field_value" : 3,
     "name" : "android::hardware::details::HidlInstrumentor::CLIENT_API_EXIT"
    },
    {
     "enum_field_value" : 4,
     "name" : "android::hardware::details::HidlInstrumentor::SYNC_CALLBACK_ENTRY"
    },
    {
     "enum_field_value" : 5,
     "name" : "android::hardware::details::HidlInstrumentor::SYNC_CALLBACK_EXIT"
    },
    {
     "enum_field_value" : 6,
     "name" : "android::hardware::details::HidlInstrumentor::ASYNC_CALLBACK_ENTRY"
    },
    {
     "enum_field_value" : 7,
     "name" : "android::hardware::details::HidlInstrumentor::ASYNC_CALLBACK_EXIT"
    },
    {
     "enum_field_value" : 8,
     "name" : "android::hardware::details::HidlInstrumentor::PASSTHROUGH_ENTRY"
    },
    {
     "enum_field_value" : 9,
     "name" : "android::hardware::details::HidlInstrumentor::PASSTHROUGH_EXIT"
    }
   ],
   "linker_set_key" : "_ZTIN7android8hardware7details16HidlInstrumentor20InstrumentationEventE",
   "name" : "android::hardware::details::HidlInstrumentor::InstrumentationEvent",
   "referenced_type" : "_ZTIN7android8hardware7details16HidlInstrumentor20InstrumentationEventE",
   "self_type" : "_ZTIN7android8hardware7details16HidlInstrumentor20InstrumentationEventE",
   "size" : 4,
   "source_file" : "/system/libhidl/base/include/hidl/HidlInternal.h",
   "underlying_type" : "_ZTIj"
  },
  {
   "alignment" : 4,
   "enum_fields" :
   [
    {
     "enum_field_value" : 1,
     "name" : "android::hardware::kSynchronizedReadWrite"
    },
    {
     "enum_field_value" : 2,
     "name" : "android::hardware::kUnsynchronizedWrite"
    }
   ],
   "linker_set_key" : "_ZTIN7android8hardware8MQFlavorE",
   "name" : "android::hardware::MQFlavor",
   "referenced_type" : "_ZTIN7android8hardware8MQFlavorE",
   "self_type" : "_ZTIN7android8hardware8MQFlavorE",
   "size" : 4,
   "source_file" : "/system/libhidl/base/include/hidl/MQDescriptor.h",
   "underlying_type" : "_ZTIj"
  },
  {
   "alignment" : 4,
   "enum_fields" :
   [
    {
     "enum_field_value" : 0,
     "name" : "android::Condition::WAKE_UP_ONE"
    },
    {
     "enum_field_value" : 1,
     "name" : "android::Condition::WAKE_UP_ALL"
    }
   ],
   "linker_set_key" : "_ZTIN7android9Condition10WakeUpTypeE",
   "name" : "android::Condition::WakeUpType",
   "referenced_type" : "_ZTIN7android9Condition10WakeUpTypeE",
   "self_type" : "_ZTIN7android9Condition10WakeUpTypeE",
   "size" : 4,
   "source_file" : "/system/core/libutils/include/utils/Condition.h",
   "underlying_type" : "_ZTIj"
  },
  {
   "alignment" : 4,
   "enum_fields" :
   [
    {
     "enum_field_value" : 0,
     "name" : "android::Condition::PRIVATE"
    },
    {
     "enum_field_value" : 1,
     "name" : "android::Condition::SHARED"
    }
   ],
   "linker_set_key" : "_ZTIN7android9Condition8$PRIVATEE",
   "name" : "android::Condition::(anonymous enum at system/core/libutils/include/utils/Condition.h:54:5)",
   "referenced_type" : "_ZTIN7android9Condition8$PRIVATEE",
   "self_type" : "_ZTIN7android9Condition8$PRIVATEE",
   "size" : 4,
   "source_file" : "/system/core/libutils/include/utils/Condition.h",
   "underlying_type" : "_ZTIj"
  }
 ],
 "function_types" :
 [
  {
   "alignment" : 4,
   "linker_set_key" : "_ZTIFbRKN7android8String16ERKNS_2spINS_8hardware7IBinderEEEPvE",
   "name" : "bool (const android::String16 &, const android::sp<android::hardware::IBinder> &, void *)",
   "parameters" :
   [
    {
     "referenced_type" : "_ZTIRKN7android8String16E"
    },
    {
     "referenced_type" : "_ZTIRKN7android2spINS_8hardware7IBinderEEE"
    },
    {
     "referenced_type" : "_ZTIPv"
    }
   ],
   "referenced_type" : "_ZTIFbRKN7android8String16ERKNS_2spINS_8hardware7IBinderEEEPvE",
   "return_type" : "_ZTIb",
   "self_type" : "_ZTIFbRKN7android8String16ERKNS_2spINS_8hardware7IBinderEEEPvE",
   "source_file" : "/system/libhwbinder/include/hwbinder/ProcessState.h"
  },
  {
   "alignment" : 4,
   "linker_set_key" : "_ZTIFiPvE",
   "name" : "int (void *)",
   "parameters" :
   [
    {
     "referenced_type" : "_ZTIPv"
    }
   ],
   "referenced_type" : "_ZTIFiPvE",
   "return_type" : "_ZTIi",
   "self_type" : "_ZTIFiPvE",
   "source_file" : "/system/core/libutils/include/utils/AndroidThreads.h"
  },
  {
   "alignment" : 4,
   "linker_set_key" : "_ZTIFvPN7android8hardware6ParcelEPKhmPKymPvE",
   "name" : "void (android::hardware::Parcel *, const unsigned char *, unsigned long, const unsigned long long *, unsigned long, void *)",
   "parameters" :
   [
    {
     "referenced_type" : "_ZTIPN7android8hardware6ParcelE"
    },
    {
     "referenced_type" : "_ZTIPKh"
    },
    {
     "referenced_type" : "_ZTIm"
    },
    {
     "referenced_type" : "_ZTIPKy"
    },
    {
     "referenced_type" : "_ZTIm"
    },
    {
     "referenced_type" : "_ZTIPv"
    }
   ],
   "referenced_type" : "_ZTIFvPN7android8hardware6ParcelEPKhmPKymPvE",
   "return_type" : "_ZTIv",
   "self_type" : "_ZTIFvPN7android8hardware6ParcelEPKhmPKymPvE",
   "source_file" : "/system/libhwbinder/include/hwbinder/Parcel.h"
  }
 ],
 "functions" :
 [
  {
   "function_name" : "android::hardware::fromBinder",
   "linker_set_key" : "_ZN7android8hardware10fromBinderINS0_14broadcastradio4V2_012ICloseHandleENS3_15BpHwCloseHandleENS3_15BnHwCloseHandleEEENS_2spIT_EERKNS7_INS0_7IBinderEEE",
   "parameters" :
   [
    {
     "referenced_type" : "_ZTIRKN7android2spINS_8hardware7IBinderEEE"
    }
   ],
   "return_type" : "_ZTIN7android2spINS_8hardware14broadcastradio4V2_012ICloseHandleEEE",
   "source_file" : "/system/libhidl/transport/include/hidl/HidlBinderSupport.h",
   "template_args" :
   [
    "_ZTIN7android8hardware14broadcastradio4V2_012ICloseHandleE",
    "_ZTIN7android8hardware14broadcastradio4V2_015BpHwCloseHandleE",
    "_ZTIN7android8hardware14broadcastradio4V2_015BnHwCloseHandleE"
   ]
  },
  {
   "function_name" : "android::hardware::fromBinder",
   "linker_set_key" : "_ZN7android8hardware10fromBinderINS0_14broadcastradio4V2_013ITunerSessionENS3_16BpHwTunerSessionENS3_16BnHwTunerSessionEEENS_2spIT_EERKNS7_INS0_7IBinderEEE",
   "parameters" :
   [
    {
     "referenced_type" : "_ZTIRKN7android2spINS_8hardware7IBinderEEE"
    }
   ],
   "return_type" : "_ZTIN7android2spINS_8hardware14broadcastradio4V2_013ITunerSessionEEE",
   "source_file" : "/system/libhidl/transport/include/hidl/HidlBinderSupport.h",
   "template_args" :
   [
    "_ZTIN7android8hardware14broadcastradio4V2_013ITunerSessionE",
    "_ZTIN7android8hardware14broadcastradio4V2_016BpHwTunerSessionE",
    "_ZTIN7android8hardware14broadcastradio4V2_016BnHwTunerSessionE"
   ]
  },
  {
   "function_name" : "android::hardware::fromBinder",
   "linker_set_key" : "_ZN7android8hardware10fromBinderINS0_14broadcastradio4V2_014ITunerCallbackENS3_17BpHwTunerCallbackENS3_17BnHwTunerCallbackEEENS_2spIT_EERKNS7_INS0_7IBinderEEE",
   "parameters" :
   [
    {
     "referenced_type" : "_ZTIRKN7android2spINS_8hardware7IBinderEEE"
    }
   ],
   "return_type" : "_ZTIN7android2spINS_8hardware14broadcastradio4V2_014ITunerCallbackEEE",
   "source_file" : "/system/libhidl/transport/include/hidl/HidlBinderSupport.h",
   "template_args" :
   [
    "_ZTIN7android8hardware14broadcastradio4V2_014ITunerCallbackE",
    "_ZTIN7android8hardware14broadcastradio4V2_017BpHwTunerCallbackE",
    "_ZTIN7android8hardware14broadcastradio4V2_017BnHwTunerCallbackE"
   ]
  },
  {
   "function_name" : "android::hardware::fromBinder",
   "linker_set_key" : "_ZN7android8hardware10fromBinderINS0_14broadcastradio4V2_021IAnnouncementListenerENS3_24BpHwAnnouncementListenerENS3_24BnHwAnnouncementListenerEEENS_2spIT_EERKNS7_INS0_7IBinderEEE",
   "parameters" :
   [
    {
     "referenced_type" : "_ZTIRKN7android2spINS_8hardware7IBinderEEE"
    }
   ],
   "return_type" : "_ZTIN7android2spINS_8hardware14broadcastradio4V2_021IAnnouncementListenerEEE",
   "source_file" : "/system/libhidl/transport/include/hidl/HidlBinderSupport.h",
   "template_args" :
   [
    "_ZTIN7android8hardware14broadcastradio4V2_021IAnnouncementListenerE",
    "_ZTIN7android8hardware14broadcastradio4V2_024BpHwAnnouncementListenerE",
    "_ZTIN7android8hardware14broadcastradio4V2_024BnHwAnnouncementListenerE"
   ]
  },
  {
   "function_name" : "android::hardware::broadcastradio::V2_0::ICloseHandle::getService",
   "linker_set_key" : "_ZN7android8hardware14broadcastradio4V2_012ICloseHandle10getServiceERKNSt3__112basic_stringIcNS4_11char_traitsIcEENS4_9allocatorIcEEEEb",
   "parameters" :
   [
    {
     "default_arg" : true,
     "referenced_type" : "_ZTIRKNSt3__112basic_stringIcNS_11char_traitsIcEENS_9allocatorIcEEEE"
    },
    {
     "default_arg" : true,
     "referenced_type" : "_ZTIb"
    }
   ],
   "return_type" : "_ZTIN7android2spINS_8hardware14broadcastradio4V2_012ICloseHandleEEE",
   "source_file" : "/out/soong/.intermediates/hardware/interfaces/broadcastradio/2.0/android.hardware.broadcastradio@2.0_genc++_headers/gen/android/hardware/broadcastradio/2.0/ICloseHandle.h"
  },
  {
   "function_name" : "android::hardware::broadcastradio::V2_0::ICloseHandle::linkToDeath",
   "linker_set_key" : "_ZN7android8hardware14broadcastradio4V2_012ICloseHandle11linkToDeathERKNS_2spINS0_20hidl_death_recipientEEEm",
   "parameters" :
   [
    {
     "is_this_ptr" : true,
     "referenced_type" : "_ZTIPN7android8hardware14broadcastradio4V2_012ICloseHandleE"
    },
    {
     "referenced_type" : "_ZTIRKN7android2spINS_8hardware20hidl_death_recipientEEE"
    },
    {
     "referenced_type" : "_ZTIm"
    }
   ],
   "return_type" : "_ZTIN7android8hardware6ReturnIbEE",
   "source_file" : "/out/soong/.intermediates/hardware/interfaces/broadcastradio/2.0/android.hardware.broadcastradio@2.0_genc++_headers/gen/android/hardware/broadcastradio/2.0/ICloseHandle.h"
  },
  {
   "function_name" : "android::hardware::broadcastradio::V2_0::ICloseHandle::getDebugInfo",
   "linker_set_key" : "_ZN7android8hardware14broadcastradio4V2_012ICloseHandle12getDebugInfoENSt3__18functionIFvRKNS_4hidl4base4V1_09DebugInfoEEEE",
   "parameters" :
   [
    {
     "is_this_ptr" : true,
     "referenced_type" : "_ZTIPN7android8hardware14broadcastradio4V2_012ICloseHandleE"
    },
    {
     "referenced_type" : "_ZTINSt3__18functionIFvRKN7android4hidl4base4V1_09DebugInfoEEEE"
    }
   ],
   "return_type" : "_ZTIN7android8hardware6ReturnIvEE",
   "source_file" : "/out/soong/.intermediates/hardware/interfaces/broadcastradio/2.0/android.hardware.broadcastradio@2.0_genc++_headers/gen/android/hardware/broadcastradio/2.0/ICloseHandle.h"
  },
  {
   "function_name" : "android::hardware::broadcastradio::V2_0::ICloseHandle::getHashChain",
   "linker_set_key" : "_ZN7android8hardware14broadcastradio4V2_012ICloseHandle12getHashChainENSt3__18functionIFvRKNS0_8hidl_vecINS0_10hidl_arrayIhLm32EJEEEEEEEE",
   "parameters" :
   [
    {
     "is_this_ptr" : true,
     "referenced_type" : "_ZTIPN7android8hardware14broadcastradio4V2_012ICloseHandleE"
    },
    {
     "referenced_type" : "_ZTINSt3__18functionIFvRKN7android8hardware8hidl_vecINS2_10hidl_arrayIhLm32EJEEEEEEEE"
    }
   ],
   "return_type" : "_ZTIN7android8hardware6ReturnIvEE",
   "source_file" : "/out/soong/.intermediates/hardware/interfaces/broadcastradio/2.0/android.hardware.broadcastradio@2.0_genc++_headers/gen/android/hardware/broadcastradio/2.0/ICloseHandle.h"
  },
  {
   "function_name" : "android::hardware::broadcastradio::V2_0::ICloseHandle::tryGetService",
   "linker_set_key" : "_ZN7android8hardware14broadcastradio4V2_012ICloseHandle13tryGetServiceERKNSt3__112basic_stringIcNS4_11char_traitsIcEENS4_9allocatorIcEEEEb",
   "parameters" :
   [
    {
     "default_arg" : true,
     "referenced_type" : "_ZTIRKNSt3__112basic_stringIcNS_11char_traitsIcEENS_9allocatorIcEEEE"
    },
    {
     "default_arg" : true,
     "referenced_type" : "_ZTIb"
    }
   ],
   "return_type" : "_ZTIN7android2spINS_8hardware14broadcastradio4V2_012ICloseHandleEEE",
   "source_file" : "/out/soong/.intermediates/hardware/interfaces/broadcastradio/2.0/android.hardware.broadcastradio@2.0_genc++_headers/gen/android/hardware/broadcastradio/2.0/ICloseHandle.h"
  },
  {
   "function_name" : "android::hardware::broadcastradio::V2_0::ICloseHandle::unlinkToDeath",
   "linker_set_key" : "_ZN7android8hardware14broadcastradio4V2_012ICloseHandle13unlinkToDeathERKNS_2spINS0_20hidl_death_recipientEEE",
   "parameters" :
   [
    {
     "is_this_ptr" : true,
     "referenced_type" : "_ZTIPN7android8hardware14broadcastradio4V2_012ICloseHandleE"
    },
    {
     "referenced_type" : "_ZTIRKN7android2spINS_8hardware20hidl_death_recipientEEE"
    }
   ],
   "return_type" : "_ZTIN7android8hardware6ReturnIbEE",
   "source_file" : "/out/soong/.intermediates/hardware/interfaces/broadcastradio/2.0/android.hardware.broadcastradio@2.0_genc++_headers/gen/android/hardware/broadcastradio/2.0/ICloseHandle.h"
  },
  {
   "function_name" : "android::hardware::broadcastradio::V2_0::ICloseHandle::interfaceChain",
   "linker_set_key" : "_ZN7android8hardware14broadcastradio4V2_012ICloseHandle14interfaceChainENSt3__18functionIFvRKNS0_8hidl_vecINS0_11hidl_stringEEEEEE",
   "parameters" :
   [
    {
     "is_this_ptr" : true,
     "referenced_type" : "_ZTIPN7android8hardware14broadcastradio4V2_012ICloseHandleE"
    },
    {
     "referenced_type" : "_ZTINSt3__18functionIFvRKN7android8hardware8hidl_vecINS2_11hidl_stringEEEEEE"
    }
   ],
   "return_type" : "_ZTIN7android8hardware6ReturnIvEE",
   "source_file" : "/out/soong/.intermediates/hardware/interfaces/broadcastradio/2.0/android.hardware.broadcastradio@2.0_genc++_headers/gen/android/hardware/broadcastradio/2.0/ICloseHandle.h"
  },
  {
   "function_name" : "android::hardware::broadcastradio::V2_0::ICloseHandle::registerAsService",
   "linker_set_key" : "_ZN7android8hardware14broadcastradio4V2_012ICloseHandle17registerAsServiceERKNSt3__112basic_stringIcNS4_11char_traitsIcEENS4_9allocatorIcEEEE",
   "parameters" :
   [
    {
     "is_this_ptr" : true,
     "referenced_type" : "_ZTIPN7android8hardware14broadcastradio4V2_012ICloseHandleE"
    },
    {
     "default_arg" : true,
     "referenced_type" : "_ZTIRKNSt3__112basic_stringIcNS_11char_traitsIcEENS_9allocatorIcEEEE"
    }
   ],
   "return_type" : "_ZTIi",
   "source_file" : "/out/soong/.intermediates/hardware/interfaces/broadcastradio/2.0/android.hardware.broadcastradio@2.0_genc++_headers/gen/android/hardware/broadcastradio/2.0/ICloseHandle.h"
  },
  {
   "function_name" : "android::hardware::broadcastradio::V2_0::ICloseHandle::interfaceDescriptor",
   "linker_set_key" : "_ZN7android8hardware14broadcastradio4V2_012ICloseHandle19interfaceDescriptorENSt3__18functionIFvRKNS0_11hidl_stringEEEE",
   "parameters" :
   [
    {
     "is_this_ptr" : true,
     "referenced_type" : "_ZTIPN7android8hardware14broadcastradio4V2_012ICloseHandleE"
    },
    {
     "referenced_type" : "_ZTINSt3__18functionIFvRKN7android8hardware11hidl_stringEEEE"
    }
   ],
   "return_type" : "_ZTIN7android8hardware6ReturnIvEE",
   "source_file" : "/out/soong/.intermediates/hardware/interfaces/broadcastradio/2.0/android.hardware.broadcastradio@2.0_genc++_headers/gen/android/hardware/broadcastradio/2.0/ICloseHandle.h"
  },
  {
   "function_name" : "android::hardware::broadcastradio::V2_0::ICloseHandle::notifySyspropsChanged",
   "linker_set_key" : "_ZN7android8hardware14broadcastradio4V2_012ICloseHandle21notifySyspropsChangedEv",
   "parameters" :
   [
    {
     "is_this_ptr" : true,
     "referenced_type" : "_ZTIPN7android8hardware14broadcastradio4V2_012ICloseHandleE"
    }
   ],
   "return_type" : "_ZTIN7android8hardware6ReturnIvEE",
   "source_file" : "/out/soong/.intermediates/hardware/interfaces/broadcastradio/2.0/android.hardware.broadcastradio@2.0_genc++_headers/gen/android/hardware/broadcastradio/2.0/ICloseHandle.h"
  },
  {
   "function_name" : "android::hardware::broadcastradio::V2_0::ICloseHandle::setHALInstrumentation",
   "linker_set_key" : "_ZN7android8hardware14broadcastradio4V2_012ICloseHandle21setHALInstrumentationEv",
   "parameters" :
   [
    {
     "is_this_ptr" : true,
     "referenced_type" : "_ZTIPN7android8hardware14broadcastradio4V2_012ICloseHandleE"
    }
   ],
   "return_type" : "_ZTIN7android8hardware6ReturnIvEE",
   "source_file" : "/out/soong/.intermediates/hardware/interfaces/broadcastradio/2.0/android.hardware.broadcastradio@2.0_genc++_headers/gen/android/hardware/broadcastradio/2.0/ICloseHandle.h"
  },
  {
   "function_name" : "android::hardware::broadcastradio::V2_0::ICloseHandle::registerForNotifications",
   "linker_set_key" : "_ZN7android8hardware14broadcastradio4V2_012ICloseHandle24registerForNotificationsERKNSt3__112basic_stringIcNS4_11char_traitsIcEENS4_9allocatorIcEEEERKNS_2spINS_4hidl7manager4V1_020IServiceNotificationEEE",
   "parameters" :
   [
    {
     "referenced_type" : "_ZTIRKNSt3__112basic_stringIcNS_11char_traitsIcEENS_9allocatorIcEEEE"
    },
    {
     "referenced_type" : "_ZTIRKN7android2spINS_4hidl7manager4V1_020IServiceNotificationEEE"
    }
   ],
   "return_type" : "_ZTIb",
   "source_file" : "/out/soong/.intermediates/hardware/interfaces/broadcastradio/2.0/android.hardware.broadcastradio@2.0_genc++_headers/gen/android/hardware/broadcastradio/2.0/ICloseHandle.h"
  },
  {
   "function_name" : "android::hardware::broadcastradio::V2_0::ICloseHandle::ping",
   "linker_set_key" : "_ZN7android8hardware14broadcastradio4V2_012ICloseHandle4pingEv",
   "parameters" :
   [
    {
     "is_this_ptr" : true,
     "referenced_type" : "_ZTIPN7android8hardware14broadcastradio4V2_012ICloseHandleE"
    }
   ],
   "return_type" : "_ZTIN7android8hardware6ReturnIvEE",
   "source_file" : "/out/soong/.intermediates/hardware/interfaces/broadcastradio/2.0/android.hardware.broadcastradio@2.0_genc++_headers/gen/android/hardware/broadcastradio/2.0/ICloseHandle.h"
  },
  {
   "function_name" : "android::hardware::broadcastradio::V2_0::ICloseHandle::debug",
   "linker_set_key" : "_ZN7android8hardware14broadcastradio4V2_012ICloseHandle5debugERKNS0_11hidl_handleERKNS0_8hidl_vecINS0_11hidl_stringEEE",
   "parameters" :
   [
    {
     "is_this_ptr" : true,
     "referenced_type" : "_ZTIPN7android8hardware14broadcastradio4V2_012ICloseHandleE"
    },
    {
     "referenced_type" : "_ZTIRKN7android8hardware11hidl_handleE"
    },
    {
     "referenced_type" : "_ZTIRKN7android8hardware8hidl_vecINS0_11hidl_stringEEE"
    }
   ],
   "return_type" : "_ZTIN7android8hardware6ReturnIvEE",
   "source_file" : "/out/soong/.intermediates/hardware/interfaces/broadcastradio/2.0/android.hardware.broadcastradio@2.0_genc++_headers/gen/android/hardware/broadcastradio/2.0/ICloseHandle.h"
  },
  {
   "function_name" : "android::hardware::broadcastradio::V2_0::ICloseHandle::castFrom",
   "linker_set_key" : "_ZN7android8hardware14broadcastradio4V2_012ICloseHandle8castFromERKNS_2spINS_4hidl4base4V1_05IBaseEEEb",
   "parameters" :
   [
    {
     "referenced_type" : "_ZTIRKN7android2spINS_4hidl4base4V1_05IBaseEEE"
    },
    {
     "default_arg" : true,
     "referenced_type" : "_ZTIb"
    }
   ],
   "return_type" : "_ZTIN7android8hardware6ReturnINS_2spINS0_14broadcastradio4V2_012ICloseHandleEEEEE",
   "source_file" : "/out/soong/.intermediates/hardware/interfaces/broadcastradio/2.0/android.hardware.broadcastradio@2.0_genc++_headers/gen/android/hardware/broadcastradio/2.0/ICloseHandle.h"
  },
  {
   "function_name" : "android::hardware::broadcastradio::V2_0::ICloseHandle::castFrom",
   "linker_set_key" : "_ZN7android8hardware14broadcastradio4V2_012ICloseHandle8castFromERKNS_2spIS3_EEb",
   "parameters" :
   [
    {
     "referenced_type" : "_ZTIRKN7android2spINS_8hardware14broadcastradio4V2_012ICloseHandleEEE"
    },
    {
     "default_arg" : true,
     "referenced_type" : "_ZTIb"
    }
   ],
   "return_type" : "_ZTIN7android8hardware6ReturnINS_2spINS0_14broadcastradio4V2_012ICloseHandleEEEEE",
   "source_file" : "/out/soong/.intermediates/hardware/interfaces/broadcastradio/2.0/android.hardware.broadcastradio@2.0_genc++_headers/gen/android/hardware/broadcastradio/2.0/ICloseHandle.h"
  },
  {
   "access" : "private",
   "function_name" : "android::hardware::broadcastradio::V2_0::BsCloseHandle::addOnewayTask",
   "linker_set_key" : "_ZN7android8hardware14broadcastradio4V2_013BsCloseHandle13addOnewayTaskENSt3__18functionIFvvEEE",
   "parameters" :
   [
    {
     "is_this_ptr" : true,
     "referenced_type" : "_ZTIPN7android8hardware14broadcastradio4V2_013BsCloseHandleE"
    },
    {
     "referenced_type" : "_ZTINSt3__18functionIFvvEEE"
    }
   ],
   "return_type" : "_ZTIN7android8hardware6ReturnIvEE",
   "source_file" : "/out/soong/.intermediates/hardware/interfaces/broadcastradio/2.0/android.hardware.broadcastradio@2.0_genc++_headers/gen/android/hardware/broadcastradio/2.0/BsCloseHandle.h"
  },
  {
   "function_name" : "android::hardware::broadcastradio::V2_0::BsCloseHandle::BsCloseHandle",
   "linker_set_key" : "_ZN7android8hardware14broadcastradio4V2_013BsCloseHandleC1ENS_2spINS2_12ICloseHandleEEE",
   "parameters" :
   [
    {
     "is_this_ptr" : true,
     "referenced_type" : "_ZTIPN7android8hardware14broadcastradio4V2_013BsCloseHandleE"
    },
    {
     "referenced_type" : "_ZTIKN7android2spINS_8hardware14broadcastradio4V2_012ICloseHandleEEE"
    }
   ],
   "return_type" : "_ZTIv",
   "source_file" : "/out/soong/.intermediates/hardware/interfaces/broadcastradio/2.0/android.hardware.broadcastradio@2.0_genc++_headers/gen/android/hardware/broadcastradio/2.0/BsCloseHandle.h"
  },
  {
   "function_name" : "android::hardware::broadcastradio::V2_0::BsCloseHandle::BsCloseHandle",
   "linker_set_key" : "_ZN7android8hardware14broadcastradio4V2_013BsCloseHandleC2ENS_2spINS2_12ICloseHandleEEE",
   "parameters" :
   [
    {
     "is_this_ptr" : true,
     "referenced_type" : "_ZTIPN7android8hardware14broadcastradio4V2_013BsCloseHandleE"
    },
    {
     "referenced_type" : "_ZTIKN7android2spINS_8hardware14broadcastradio4V2_012ICloseHandleEEE"
    }
   ],
   "return_type" : "_ZTIv",
   "source_file" : "/out/soong/.intermediates/hardware/interfaces/broadcastradio/2.0/android.hardware.broadcastradio@2.0_genc++_headers/gen/android/hardware/broadcastradio/2.0/BsCloseHandle.h"
  },
  {
   "function_name" : "android::hardware::broadcastradio::V2_0::ITunerSession::getService",
   "linker_set_key" : "_ZN7android8hardware14broadcastradio4V2_013ITunerSession10getServiceERKNSt3__112basic_stringIcNS4_11char_traitsIcEENS4_9allocatorIcEEEEb",
   "parameters" :
   [
    {
     "default_arg" : true,
     "referenced_type" : "_ZTIRKNSt3__112basic_stringIcNS_11char_traitsIcEENS_9allocatorIcEEEE"
    },
    {
     "default_arg" : true,
     "referenced_type" : "_ZTIb"
    }
   ],
   "return_type" : "_ZTIN7android2spINS_8hardware14broadcastradio4V2_013ITunerSessionEEE",
   "source_file" : "/out/soong/.intermediates/hardware/interfaces/broadcastradio/2.0/android.hardware.broadcastradio@2.0_genc++_headers/gen/android/hardware/broadcastradio/2.0/ITunerSession.h"
  },
  {
   "function_name" : "android::hardware::broadcastradio::V2_0::ITunerSession::linkToDeath",
   "linker_set_key" : "_ZN7android8hardware14broadcastradio4V2_013ITunerSession11linkToDeathERKNS_2spINS0_20hidl_death_recipientEEEm",
   "parameters" :
   [
    {
     "is_this_ptr" : true,
     "referenced_type" : "_ZTIPN7android8hardware14broadcastradio4V2_013ITunerSessionE"
    },
    {
     "referenced_type" : "_ZTIRKN7android2spINS_8hardware20hidl_death_recipientEEE"
    },
    {
     "referenced_type" : "_ZTIm"
    }
   ],
   "return_type" : "_ZTIN7android8hardware6ReturnIbEE",
   "source_file" : "/out/soong/.intermediates/hardware/interfaces/broadcastradio/2.0/android.hardware.broadcastradio@2.0_genc++_headers/gen/android/hardware/broadcastradio/2.0/ITunerSession.h"
  },
  {
   "function_name" : "android::hardware::broadcastradio::V2_0::ITunerSession::getDebugInfo",
   "linker_set_key" : "_ZN7android8hardware14broadcastradio4V2_013ITunerSession12getDebugInfoENSt3__18functionIFvRKNS_4hidl4base4V1_09DebugInfoEEEE",
   "parameters" :
   [
    {
     "is_this_ptr" : true,
     "referenced_type" : "_ZTIPN7android8hardware14broadcastradio4V2_013ITunerSessionE"
    },
    {
     "referenced_type" : "_ZTINSt3__18functionIFvRKN7android4hidl4base4V1_09DebugInfoEEEE"
    }
   ],
   "return_type" : "_ZTIN7android8hardware6ReturnIvEE",
   "source_file" : "/out/soong/.intermediates/hardware/interfaces/broadcastradio/2.0/android.hardware.broadcastradio@2.0_genc++_headers/gen/android/hardware/broadcastradio/2.0/ITunerSession.h"
  },
  {
   "function_name" : "android::hardware::broadcastradio::V2_0::ITunerSession::getHashChain",
   "linker_set_key" : "_ZN7android8hardware14broadcastradio4V2_013ITunerSession12getHashChainENSt3__18functionIFvRKNS0_8hidl_vecINS0_10hidl_arrayIhLm32EJEEEEEEEE",
   "parameters" :
   [
    {
     "is_this_ptr" : true,
     "referenced_type" : "_ZTIPN7android8hardware14broadcastradio4V2_013ITunerSessionE"
    },
    {
     "referenced_type" : "_ZTINSt3__18functionIFvRKN7android8hardware8hidl_vecINS2_10hidl_arrayIhLm32EJEEEEEEEE"
    }
   ],
   "return_type" : "_ZTIN7android8hardware6ReturnIvEE",
   "source_file" : "/out/soong/.intermediates/hardware/interfaces/broadcastradio/2.0/android.hardware.broadcastradio@2.0_genc++_headers/gen/android/hardware/broadcastradio/2.0/ITunerSession.h"
  },
  {
   "function_name" : "android::hardware::broadcastradio::V2_0::ITunerSession::tryGetService",
   "linker_set_key" : "_ZN7android8hardware14broadcastradio4V2_013ITunerSession13tryGetServiceERKNSt3__112basic_stringIcNS4_11char_traitsIcEENS4_9allocatorIcEEEEb",
   "parameters" :
   [
    {
     "default_arg" : true,
     "referenced_type" : "_ZTIRKNSt3__112basic_stringIcNS_11char_traitsIcEENS_9allocatorIcEEEE"
    },
    {
     "default_arg" : true,
     "referenced_type" : "_ZTIb"
    }
   ],
   "return_type" : "_ZTIN7android2spINS_8hardware14broadcastradio4V2_013ITunerSessionEEE",
   "source_file" : "/out/soong/.intermediates/hardware/interfaces/broadcastradio/2.0/android.hardware.broadcastradio@2.0_genc++_headers/gen/android/hardware/broadcastradio/2.0/ITunerSession.h"
  },
  {
   "function_name" : "android::hardware::broadcastradio::V2_0::ITunerSession::unlinkToDeath",
   "linker_set_key" : "_ZN7android8hardware14broadcastradio4V2_013ITunerSession13unlinkToDeathERKNS_2spINS0_20hidl_death_recipientEEE",
   "parameters" :
   [
    {
     "is_this_ptr" : true,
     "referenced_type" : "_ZTIPN7android8hardware14broadcastradio4V2_013ITunerSessionE"
    },
    {
     "referenced_type" : "_ZTIRKN7android2spINS_8hardware20hidl_death_recipientEEE"
    }
   ],
   "return_type" : "_ZTIN7android8hardware6ReturnIbEE",
   "source_file" : "/out/soong/.intermediates/hardware/interfaces/broadcastradio/2.0/android.hardware.broadcastradio@2.0_genc++_headers/gen/android/hardware/broadcastradio/2.0/ITunerSession.h"
  },
  {
   "function_name" : "android::hardware::broadcastradio::V2_0::ITunerSession::interfaceChain",
   "linker_set_key" : "_ZN7android8hardware14broadcastradio4V2_013ITunerSession14interfaceChainENSt3__18functionIFvRKNS0_8hidl_vecINS0_11hidl_stringEEEEEE",
   "parameters" :
   [
    {
     "is_this_ptr" : true,
     "referenced_type" : "_ZTIPN7android8hardware14broadcastradio4V2_013ITunerSessionE"
    },
    {
     "referenced_type" : "_ZTINSt3__18functionIFvRKN7android8hardware8hidl_vecINS2_11hidl_stringEEEEEE"
    }
   ],
   "return_type" : "_ZTIN7android8hardware6ReturnIvEE",
   "source_file" : "/out/soong/.intermediates/hardware/interfaces/broadcastradio/2.0/android.hardware.broadcastradio@2.0_genc++_headers/gen/android/hardware/broadcastradio/2.0/ITunerSession.h"
  },
  {
   "function_name" : "android::hardware::broadcastradio::V2_0::ITunerSession::registerAsService",
   "linker_set_key" : "_ZN7android8hardware14broadcastradio4V2_013ITunerSession17registerAsServiceERKNSt3__112basic_stringIcNS4_11char_traitsIcEENS4_9allocatorIcEEEE",
   "parameters" :
   [
    {
     "is_this_ptr" : true,
     "referenced_type" : "_ZTIPN7android8hardware14broadcastradio4V2_013ITunerSessionE"
    },
    {
     "default_arg" : true,
     "referenced_type" : "_ZTIRKNSt3__112basic_stringIcNS_11char_traitsIcEENS_9allocatorIcEEEE"
    }
   ],
   "return_type" : "_ZTIi",
   "source_file" : "/out/soong/.intermediates/hardware/interfaces/broadcastradio/2.0/android.hardware.broadcastradio@2.0_genc++_headers/gen/android/hardware/broadcastradio/2.0/ITunerSession.h"
  },
  {
   "function_name" : "android::hardware::broadcastradio::V2_0::ITunerSession::interfaceDescriptor",
   "linker_set_key" : "_ZN7android8hardware14broadcastradio4V2_013ITunerSession19interfaceDescriptorENSt3__18functionIFvRKNS0_11hidl_stringEEEE",
   "parameters" :
   [
    {
     "is_this_ptr" : true,
     "referenced_type" : "_ZTIPN7android8hardware14broadcastradio4V2_013ITunerSessionE"
    },
    {
     "referenced_type" : "_ZTINSt3__18functionIFvRKN7android8hardware11hidl_stringEEEE"
    }
   ],
   "return_type" : "_ZTIN7android8hardware6ReturnIvEE",
   "source_file" : "/out/soong/.intermediates/hardware/interfaces/broadcastradio/2.0/android.hardware.broadcastradio@2.0_genc++_headers/gen/android/hardware/broadcastradio/2.0/ITunerSession.h"
  },
  {
   "function_name" : "android::hardware::broadcastradio::V2_0::ITunerSession::notifySyspropsChanged",
   "linker_set_key" : "_ZN7android8hardware14broadcastradio4V2_013ITunerSession21notifySyspropsChangedEv",
   "parameters" :
   [
    {
     "is_this_ptr" : true,
     "referenced_type" : "_ZTIPN7android8hardware14broadcastradio4V2_013ITunerSessionE"
    }
   ],
   "return_type" : "_ZTIN7android8hardware6ReturnIvEE",
   "source_file" : "/out/soong/.intermediates/hardware/interfaces/broadcastradio/2.0/android.hardware.broadcastradio@2.0_genc++_headers/gen/android/hardware/broadcastradio/2.0/ITunerSession.h"
  },
  {
   "function_name" : "android::hardware::broadcastradio::V2_0::ITunerSession::setHALInstrumentation",
   "linker_set_key" : "_ZN7android8hardware14broadcastradio4V2_013ITunerSession21setHALInstrumentationEv",
   "parameters" :
   [
    {
     "is_this_ptr" : true,
     "referenced_type" : "_ZTIPN7android8hardware14broadcastradio4V2_013ITunerSessionE"
    }
   ],
   "return_type" : "_ZTIN7android8hardware6ReturnIvEE",
   "source_file" : "/out/soong/.intermediates/hardware/interfaces/broadcastradio/2.0/android.hardware.broadcastradio@2.0_genc++_headers/gen/android/hardware/broadcastradio/2.0/ITunerSession.h"
  },
  {
   "function_name" : "android::hardware::broadcastradio::V2_0::ITunerSession::registerForNotifications",
   "linker_set_key" : "_ZN7android8hardware14broadcastradio4V2_013ITunerSession24registerForNotificationsERKNSt3__112basic_stringIcNS4_11char_traitsIcEENS4_9allocatorIcEEEERKNS_2spINS_4hidl7manager4V1_020IServiceNotificationEEE",
   "parameters" :
   [
    {
     "referenced_type" : "_ZTIRKNSt3__112basic_stringIcNS_11char_traitsIcEENS_9allocatorIcEEEE"
    },
    {
     "referenced_type" : "_ZTIRKN7android2spINS_4hidl7manager4V1_020IServiceNotificationEEE"
    }
   ],
   "return_type" : "_ZTIb",
   "source_file" : "/out/soong/.intermediates/hardware/interfaces/broadcastradio/2.0/android.hardware.broadcastradio@2.0_genc++_headers/gen/android/hardware/broadcastradio/2.0/ITunerSession.h"
  },
  {
   "function_name" : "android::hardware::broadcastradio::V2_0::ITunerSession::ping",
   "linker_set_key" : "_ZN7android8hardware14broadcastradio4V2_013ITunerSession4pingEv",
   "parameters" :
   [
    {
     "is_this_ptr" : true,
     "referenced_type" : "_ZTIPN7android8hardware14broadcastradio4V2_013ITunerSessionE"
    }
   ],
   "return_type" : "_ZTIN7android8hardware6ReturnIvEE",
   "source_file" : "/out/soong/.intermediates/hardware/interfaces/broadcastradio/2.0/android.hardware.broadcastradio@2.0_genc++_headers/gen/android/hardware/broadcastradio/2.0/ITunerSession.h"
  },
  {
   "function_name" : "android::hardware::broadcastradio::V2_0::ITunerSession::debug",
   "linker_set_key" : "_ZN7android8hardware14broadcastradio4V2_013ITunerSession5debugERKNS0_11hidl_handleERKNS0_8hidl_vecINS0_11hidl_stringEEE",
   "parameters" :
   [
    {
     "is_this_ptr" : true,
     "referenced_type" : "_ZTIPN7android8hardware14broadcastradio4V2_013ITunerSessionE"
    },
    {
     "referenced_type" : "_ZTIRKN7android8hardware11hidl_handleE"
    },
    {
     "referenced_type" : "_ZTIRKN7android8hardware8hidl_vecINS0_11hidl_stringEEE"
    }
   ],
   "return_type" : "_ZTIN7android8hardware6ReturnIvEE",
   "source_file" : "/out/soong/.intermediates/hardware/interfaces/broadcastradio/2.0/android.hardware.broadcastradio@2.0_genc++_headers/gen/android/hardware/broadcastradio/2.0/ITunerSession.h"
  },
  {
   "function_name" : "android::hardware::broadcastradio::V2_0::ITunerSession::castFrom",
   "linker_set_key" : "_ZN7android8hardware14broadcastradio4V2_013ITunerSession8castFromERKNS_2spINS_4hidl4base4V1_05IBaseEEEb",
   "parameters" :
   [
    {
     "referenced_type" : "_ZTIRKN7android2spINS_4hidl4base4V1_05IBaseEEE"
    },
    {
     "default_arg" : true,
     "referenced_type" : "_ZTIb"
    }
   ],
   "return_type" : "_ZTIN7android8hardware6ReturnINS_2spINS0_14broadcastradio4V2_013ITunerSessionEEEEE",
   "source_file" : "/out/soong/.intermediates/hardware/interfaces/broadcastradio/2.0/android.hardware.broadcastradio@2.0_genc++_headers/gen/android/hardware/broadcastradio/2.0/ITunerSession.h"
  },
  {
   "function_name" : "android::hardware::broadcastradio::V2_0::ITunerSession::castFrom",
   "linker_set_key" : "_ZN7android8hardware14broadcastradio4V2_013ITunerSession8castFromERKNS_2spIS3_EEb",
   "parameters" :
   [
    {
     "referenced_type" : "_ZTIRKN7android2spINS_8hardware14broadcastradio4V2_013ITunerSessionEEE"
    },
    {
     "default_arg" : true,
     "referenced_type" : "_ZTIb"
    }
   ],
   "return_type" : "_ZTIN7android8hardware6ReturnINS_2spINS0_14broadcastradio4V2_013ITunerSessionEEEEE",
   "source_file" : "/out/soong/.intermediates/hardware/interfaces/broadcastradio/2.0/android.hardware.broadcastradio@2.0_genc++_headers/gen/android/hardware/broadcastradio/2.0/ITunerSession.h"
  },
  {
   "access" : "private",
   "function_name" : "android::hardware::broadcastradio::V2_0::BsTunerSession::addOnewayTask",
   "linker_set_key" : "_ZN7android8hardware14broadcastradio4V2_014BsTunerSession13addOnewayTaskENSt3__18functionIFvvEEE",
   "parameters" :
   [
    {
     "is_this_ptr" : true,
     "referenced_type" : "_ZTIPN7android8hardware14broadcastradio4V2_014BsTunerSessionE"
    },
    {
     "referenced_type" : "_ZTINSt3__18functionIFvvEEE"
    }
   ],
   "return_type" : "_ZTIN7android8hardware6ReturnIvEE",
   "source_file" : "/out/soong/.intermediates/hardware/interfaces/broadcastradio/2.0/android.hardware.broadcastradio@2.0_genc++_headers/gen/android/hardware/broadcastradio/2.0/BsTunerSession.h"
  },
  {
   "function_name" : "android::hardware::broadcastradio::V2_0::BsTunerSession::BsTunerSession",
   "linker_set_key" : "_ZN7android8hardware14broadcastradio4V2_014BsTunerSessionC1ENS_2spINS2_13ITunerSessionEEE",
   "parameters" :
   [
    {
     "is_this_ptr" : true,
     "referenced_type" : "_ZTIPN7android8hardware14broadcastradio4V2_014BsTunerSessionE"
    },
    {
     "referenced_type" : "_ZTIKN7android2spINS_8hardware14broadcastradio4V2_013ITunerSessionEEE"
    }
   ],
   "return_type" : "_ZTIv",
   "source_file" : "/out/soong/.intermediates/hardware/interfaces/broadcastradio/2.0/android.hardware.broadcastradio@2.0_genc++_headers/gen/android/hardware/broadcastradio/2.0/BsTunerSession.h"
  },
  {
   "function_name" : "android::hardware::broadcastradio::V2_0::BsTunerSession::BsTunerSession",
   "linker_set_key" : "_ZN7android8hardware14broadcastradio4V2_014BsTunerSessionC2ENS_2spINS2_13ITunerSessionEEE",
   "parameters" :
   [
    {
     "is_this_ptr" : true,
     "referenced_type" : "_ZTIPN7android8hardware14broadcastradio4V2_014BsTunerSessionE"
    },
    {
     "referenced_type" : "_ZTIKN7android2spINS_8hardware14broadcastradio4V2_013ITunerSessionEEE"
    }
   ],
   "return_type" : "_ZTIv",
   "source_file" : "/out/soong/.intermediates/hardware/interfaces/broadcastradio/2.0/android.hardware.broadcastradio@2.0_genc++_headers/gen/android/hardware/broadcastradio/2.0/BsTunerSession.h"
  },
  {
   "function_name" : "android::hardware::broadcastradio::V2_0::ITunerCallback::getService",
   "linker_set_key" : "_ZN7android8hardware14broadcastradio4V2_014ITunerCallback10getServiceERKNSt3__112basic_stringIcNS4_11char_traitsIcEENS4_9allocatorIcEEEEb",
   "parameters" :
   [
    {
     "default_arg" : true,
     "referenced_type" : "_ZTIRKNSt3__112basic_stringIcNS_11char_traitsIcEENS_9allocatorIcEEEE"
    },
    {
     "default_arg" : true,
     "referenced_type" : "_ZTIb"
    }
   ],
   "return_type" : "_ZTIN7android2spINS_8hardware14broadcastradio4V2_014ITunerCallbackEEE",
   "source_file" : "/out/soong/.intermediates/hardware/interfaces/broadcastradio/2.0/android.hardware.broadcastradio@2.0_genc++_headers/gen/android/hardware/broadcastradio/2.0/ITunerCallback.h"
  },
  {
   "function_name" : "android::hardware::broadcastradio::V2_0::ITunerCallback::linkToDeath",
   "linker_set_key" : "_ZN7android8hardware14broadcastradio4V2_014ITunerCallback11linkToDeathERKNS_2spINS0_20hidl_death_recipientEEEm",
   "parameters" :
   [
    {
     "is_this_ptr" : true,
     "referenced_type" : "_ZTIPN7android8hardware14broadcastradio4V2_014ITunerCallbackE"
    },
    {
     "referenced_type" : "_ZTIRKN7android2spINS_8hardware20hidl_death_recipientEEE"
    },
    {
     "referenced_type" : "_ZTIm"
    }
   ],
   "return_type" : "_ZTIN7android8hardware6ReturnIbEE",
   "source_file" : "/out/soong/.intermediates/hardware/interfaces/broadcastradio/2.0/android.hardware.broadcastradio@2.0_genc++_headers/gen/android/hardware/broadcastradio/2.0/ITunerCallback.h"
  },
  {
   "function_name" : "android::hardware::broadcastradio::V2_0::ITunerCallback::getDebugInfo",
   "linker_set_key" : "_ZN7android8hardware14broadcastradio4V2_014ITunerCallback12getDebugInfoENSt3__18functionIFvRKNS_4hidl4base4V1_09DebugInfoEEEE",
   "parameters" :
   [
    {
     "is_this_ptr" : true,
     "referenced_type" : "_ZTIPN7android8hardware14broadcastradio4V2_014ITunerCallbackE"
    },
    {
     "referenced_type" : "_ZTINSt3__18functionIFvRKN7android4hidl4base4V1_09DebugInfoEEEE"
    }
   ],
   "return_type" : "_ZTIN7android8hardware6ReturnIvEE",
   "source_file" : "/out/soong/.intermediates/hardware/interfaces/broadcastradio/2.0/android.hardware.broadcastradio@2.0_genc++_headers/gen/android/hardware/broadcastradio/2.0/ITunerCallback.h"
  },
  {
   "function_name" : "android::hardware::broadcastradio::V2_0::ITunerCallback::getHashChain",
   "linker_set_key" : "_ZN7android8hardware14broadcastradio4V2_014ITunerCallback12getHashChainENSt3__18functionIFvRKNS0_8hidl_vecINS0_10hidl_arrayIhLm32EJEEEEEEEE",
   "parameters" :
   [
    {
     "is_this_ptr" : true,
     "referenced_type" : "_ZTIPN7android8hardware14broadcastradio4V2_014ITunerCallbackE"
    },
    {
     "referenced_type" : "_ZTINSt3__18functionIFvRKN7android8hardware8hidl_vecINS2_10hidl_arrayIhLm32EJEEEEEEEE"
    }
   ],
   "return_type" : "_ZTIN7android8hardware6ReturnIvEE",
   "source_file" : "/out/soong/.intermediates/hardware/interfaces/broadcastradio/2.0/android.hardware.broadcastradio@2.0_genc++_headers/gen/android/hardware/broadcastradio/2.0/ITunerCallback.h"
  },
  {
   "function_name" : "android::hardware::broadcastradio::V2_0::ITunerCallback::tryGetService",
   "linker_set_key" : "_ZN7android8hardware14broadcastradio4V2_014ITunerCallback13tryGetServiceERKNSt3__112basic_stringIcNS4_11char_traitsIcEENS4_9allocatorIcEEEEb",
   "parameters" :
   [
    {
     "default_arg" : true,
     "referenced_type" : "_ZTIRKNSt3__112basic_stringIcNS_11char_traitsIcEENS_9allocatorIcEEEE"
    },
    {
     "default_arg" : true,
     "referenced_type" : "_ZTIb"
    }
   ],
   "return_type" : "_ZTIN7android2spINS_8hardware14broadcastradio4V2_014ITunerCallbackEEE",
   "source_file" : "/out/soong/.intermediates/hardware/interfaces/broadcastradio/2.0/android.hardware.broadcastradio@2.0_genc++_headers/gen/android/hardware/broadcastradio/2.0/ITunerCallback.h"
  },
  {
   "function_name" : "android::hardware::broadcastradio::V2_0::ITunerCallback::unlinkToDeath",
   "linker_set_key" : "_ZN7android8hardware14broadcastradio4V2_014ITunerCallback13unlinkToDeathERKNS_2spINS0_20hidl_death_recipientEEE",
   "parameters" :
   [
    {
     "is_this_ptr" : true,
     "referenced_type" : "_ZTIPN7android8hardware14broadcastradio4V2_014ITunerCallbackE"
    },
    {
     "referenced_type" : "_ZTIRKN7android2spINS_8hardware20hidl_death_recipientEEE"
    }
   ],
   "return_type" : "_ZTIN7android8hardware6ReturnIbEE",
   "source_file" : "/out/soong/.intermediates/hardware/interfaces/broadcastradio/2.0/android.hardware.broadcastradio@2.0_genc++_headers/gen/android/hardware/broadcastradio/2.0/ITunerCallback.h"
  },
  {
   "function_name" : "android::hardware::broadcastradio::V2_0::ITunerCallback::interfaceChain",
   "linker_set_key" : "_ZN7android8hardware14broadcastradio4V2_014ITunerCallback14interfaceChainENSt3__18functionIFvRKNS0_8hidl_vecINS0_11hidl_stringEEEEEE",
   "parameters" :
   [
    {
     "is_this_ptr" : true,
     "referenced_type" : "_ZTIPN7android8hardware14broadcastradio4V2_014ITunerCallbackE"
    },
    {
     "referenced_type" : "_ZTINSt3__18functionIFvRKN7android8hardware8hidl_vecINS2_11hidl_stringEEEEEE"
    }
   ],
   "return_type" : "_ZTIN7android8hardware6ReturnIvEE",
   "source_file" : "/out/soong/.intermediates/hardware/interfaces/broadcastradio/2.0/android.hardware.broadcastradio@2.0_genc++_headers/gen/android/hardware/broadcastradio/2.0/ITunerCallback.h"
  },
  {
   "function_name" : "android::hardware::broadcastradio::V2_0::ITunerCallback::registerAsService",
   "linker_set_key" : "_ZN7android8hardware14broadcastradio4V2_014ITunerCallback17registerAsServiceERKNSt3__112basic_stringIcNS4_11char_traitsIcEENS4_9allocatorIcEEEE",
   "parameters" :
   [
    {
     "is_this_ptr" : true,
     "referenced_type" : "_ZTIPN7android8hardware14broadcastradio4V2_014ITunerCallbackE"
    },
    {
     "default_arg" : true,
     "referenced_type" : "_ZTIRKNSt3__112basic_stringIcNS_11char_traitsIcEENS_9allocatorIcEEEE"
    }
   ],
   "return_type" : "_ZTIi",
   "source_file" : "/out/soong/.intermediates/hardware/interfaces/broadcastradio/2.0/android.hardware.broadcastradio@2.0_genc++_headers/gen/android/hardware/broadcastradio/2.0/ITunerCallback.h"
  },
  {
   "function_name" : "android::hardware::broadcastradio::V2_0::ITunerCallback::interfaceDescriptor",
   "linker_set_key" : "_ZN7android8hardware14broadcastradio4V2_014ITunerCallback19interfaceDescriptorENSt3__18functionIFvRKNS0_11hidl_stringEEEE",
   "parameters" :
   [
    {
     "is_this_ptr" : true,
     "referenced_type" : "_ZTIPN7android8hardware14broadcastradio4V2_014ITunerCallbackE"
    },
    {
     "referenced_type" : "_ZTINSt3__18functionIFvRKN7android8hardware11hidl_stringEEEE"
    }
   ],
   "return_type" : "_ZTIN7android8hardware6ReturnIvEE",
   "source_file" : "/out/soong/.intermediates/hardware/interfaces/broadcastradio/2.0/android.hardware.broadcastradio@2.0_genc++_headers/gen/android/hardware/broadcastradio/2.0/ITunerCallback.h"
  },
  {
   "function_name" : "android::hardware::broadcastradio::V2_0::ITunerCallback::notifySyspropsChanged",
   "linker_set_key" : "_ZN7android8hardware14broadcastradio4V2_014ITunerCallback21notifySyspropsChangedEv",
   "parameters" :
   [
    {
     "is_this_ptr" : true,
     "referenced_type" : "_ZTIPN7android8hardware14broadcastradio4V2_014ITunerCallbackE"
    }
   ],
   "return_type" : "_ZTIN7android8hardware6ReturnIvEE",
   "source_file" : "/out/soong/.intermediates/hardware/interfaces/broadcastradio/2.0/android.hardware.broadcastradio@2.0_genc++_headers/gen/android/hardware/broadcastradio/2.0/ITunerCallback.h"
  },
  {
   "function_name" : "android::hardware::broadcastradio::V2_0::ITunerCallback::setHALInstrumentation",
   "linker_set_key" : "_ZN7android8hardware14broadcastradio4V2_014ITunerCallback21setHALInstrumentationEv",
   "parameters" :
   [
    {
     "is_this_ptr" : true,
     "referenced_type" : "_ZTIPN7android8hardware14broadcastradio4V2_014ITunerCallbackE"
    }
   ],
   "return_type" : "_ZTIN7android8hardware6ReturnIvEE",
   "source_file" : "/out/soong/.intermediates/hardware/interfaces/broadcastradio/2.0/android.hardware.broadcastradio@2.0_genc++_headers/gen/android/hardware/broadcastradio/2.0/ITunerCallback.h"
  },
  {
   "function_name" : "android::hardware::broadcastradio::V2_0::ITunerCallback::registerForNotifications",
   "linker_set_key" : "_ZN7android8hardware14broadcastradio4V2_014ITunerCallback24registerForNotificationsERKNSt3__112basic_stringIcNS4_11char_traitsIcEENS4_9allocatorIcEEEERKNS_2spINS_4hidl7manager4V1_020IServiceNotificationEEE",
   "parameters" :
   [
    {
     "referenced_type" : "_ZTIRKNSt3__112basic_stringIcNS_11char_traitsIcEENS_9allocatorIcEEEE"
    },
    {
     "referenced_type" : "_ZTIRKN7android2spINS_4hidl7manager4V1_020IServiceNotificationEEE"
    }
   ],
   "return_type" : "_ZTIb",
   "source_file" : "/out/soong/.intermediates/hardware/interfaces/broadcastradio/2.0/android.hardware.broadcastradio@2.0_genc++_headers/gen/android/hardware/broadcastradio/2.0/ITunerCallback.h"
  },
  {
   "function_name" : "android::hardware::broadcastradio::V2_0::ITunerCallback::ping",
   "linker_set_key" : "_ZN7android8hardware14broadcastradio4V2_014ITunerCallback4pingEv",
   "parameters" :
   [
    {
     "is_this_ptr" : true,
     "referenced_type" : "_ZTIPN7android8hardware14broadcastradio4V2_014ITunerCallbackE"
    }
   ],
   "return_type" : "_ZTIN7android8hardware6ReturnIvEE",
   "source_file" : "/out/soong/.intermediates/hardware/interfaces/broadcastradio/2.0/android.hardware.broadcastradio@2.0_genc++_headers/gen/android/hardware/broadcastradio/2.0/ITunerCallback.h"
  },
  {
   "function_name" : "android::hardware::broadcastradio::V2_0::ITunerCallback::debug",
   "linker_set_key" : "_ZN7android8hardware14broadcastradio4V2_014ITunerCallback5debugERKNS0_11hidl_handleERKNS0_8hidl_vecINS0_11hidl_stringEEE",
   "parameters" :
   [
    {
     "is_this_ptr" : true,
     "referenced_type" : "_ZTIPN7android8hardware14broadcastradio4V2_014ITunerCallbackE"
    },
    {
     "referenced_type" : "_ZTIRKN7android8hardware11hidl_handleE"
    },
    {
     "referenced_type" : "_ZTIRKN7android8hardware8hidl_vecINS0_11hidl_stringEEE"
    }
   ],
   "return_type" : "_ZTIN7android8hardware6ReturnIvEE",
   "source_file" : "/out/soong/.intermediates/hardware/interfaces/broadcastradio/2.0/android.hardware.broadcastradio@2.0_genc++_headers/gen/android/hardware/broadcastradio/2.0/ITunerCallback.h"
  },
  {
   "function_name" : "android::hardware::broadcastradio::V2_0::ITunerCallback::castFrom",
   "linker_set_key" : "_ZN7android8hardware14broadcastradio4V2_014ITunerCallback8castFromERKNS_2spINS_4hidl4base4V1_05IBaseEEEb",
   "parameters" :
   [
    {
     "referenced_type" : "_ZTIRKN7android2spINS_4hidl4base4V1_05IBaseEEE"
    },
    {
     "default_arg" : true,
     "referenced_type" : "_ZTIb"
    }
   ],
   "return_type" : "_ZTIN7android8hardware6ReturnINS_2spINS0_14broadcastradio4V2_014ITunerCallbackEEEEE",
   "source_file" : "/out/soong/.intermediates/hardware/interfaces/broadcastradio/2.0/android.hardware.broadcastradio@2.0_genc++_headers/gen/android/hardware/broadcastradio/2.0/ITunerCallback.h"
  },
  {
   "function_name" : "android::hardware::broadcastradio::V2_0::ITunerCallback::castFrom",
   "linker_set_key" : "_ZN7android8hardware14broadcastradio4V2_014ITunerCallback8castFromERKNS_2spIS3_EEb",
   "parameters" :
   [
    {
     "referenced_type" : "_ZTIRKN7android2spINS_8hardware14broadcastradio4V2_014ITunerCallbackEEE"
    },
    {
     "default_arg" : true,
     "referenced_type" : "_ZTIb"
    }
   ],
   "return_type" : "_ZTIN7android8hardware6ReturnINS_2spINS0_14broadcastradio4V2_014ITunerCallbackEEEEE",
   "source_file" : "/out/soong/.intermediates/hardware/interfaces/broadcastradio/2.0/android.hardware.broadcastradio@2.0_genc++_headers/gen/android/hardware/broadcastradio/2.0/ITunerCallback.h"
  },
  {
   "function_name" : "android::hardware::broadcastradio::V2_0::BnHwCloseHandle::onTransact",
   "linker_set_key" : "_ZN7android8hardware14broadcastradio4V2_015BnHwCloseHandle10onTransactEjRKNS0_6ParcelEPS4_jNSt3__18functionIFvRS4_EEE",
   "parameters" :
   [
    {
     "is_this_ptr" : true,
     "referenced_type" : "_ZTIPN7android8hardware14broadcastradio4V2_015BnHwCloseHandleE"
    },
    {
     "referenced_type" : "_ZTIj"
    },
    {
     "referenced_type" : "_ZTIRKN7android8hardware6ParcelE"
    },
    {
     "referenced_type" : "_ZTIPN7android8hardware6ParcelE"
    },
    {
     "default_arg" : true,
     "referenced_type" : "_ZTIj"
    },
    {
     "default_arg" : true,
     "referenced_type" : "_ZTINSt3__18functionIFvRN7android8hardware6ParcelEEEE"
    }
   ],
   "return_type" : "_ZTIi",
   "source_file" : "/out/soong/.intermediates/hardware/interfaces/broadcastradio/2.0/android.hardware.broadcastradio@2.0_genc++_headers/gen/android/hardware/broadcastradio/2.0/BnHwCloseHandle.h"
  },
  {
   "function_name" : "android::hardware::broadcastradio::V2_0::BnHwCloseHandle::_hidl_close",
   "linker_set_key" : "_ZN7android8hardware14broadcastradio4V2_015BnHwCloseHandle11_hidl_closeEPNS_4hidl4base4V1_08BnHwBaseERKNS0_6ParcelEPS9_NSt3__18functionIFvRS9_EEE",
   "parameters" :
   [
    {
     "referenced_type" : "_ZTIPN7android4hidl4base4V1_08BnHwBaseE"
    },
    {
     "referenced_type" : "_ZTIRKN7android8hardware6ParcelE"
    },
    {
     "referenced_type" : "_ZTIPN7android8hardware6ParcelE"
    },
    {
     "referenced_type" : "_ZTINSt3__18functionIFvRN7android8hardware6ParcelEEEE"
    }
   ],
   "return_type" : "_ZTIi",
   "source_file" : "/out/soong/.intermediates/hardware/interfaces/broadcastradio/2.0/android.hardware.broadcastradio@2.0_genc++_headers/gen/android/hardware/broadcastradio/2.0/BnHwCloseHandle.h"
  },
  {
   "access" : "private",
   "function_name" : "android::hardware::broadcastradio::V2_0::BnHwCloseHandle::getDebugInfo",
   "linker_set_key" : "_ZN7android8hardware14broadcastradio4V2_015BnHwCloseHandle12getDebugInfoENSt3__18functionIFvRKNS_4hidl4base4V1_09DebugInfoEEEE",
   "parameters" :
   [
    {
     "is_this_ptr" : true,
     "referenced_type" : "_ZTIPN7android8hardware14broadcastradio4V2_015BnHwCloseHandleE"
    },
    {
     "referenced_type" : "_ZTINSt3__18functionIFvRKN7android4hidl4base4V1_09DebugInfoEEEE"
    }
   ],
   "return_type" : "_ZTIN7android8hardware6ReturnIvEE",
   "source_file" : "/out/soong/.intermediates/hardware/interfaces/broadcastradio/2.0/android.hardware.broadcastradio@2.0_genc++_headers/gen/android/hardware/broadcastradio/2.0/BnHwCloseHandle.h"
  },
  {
   "access" : "private",
   "function_name" : "android::hardware::broadcastradio::V2_0::BnHwCloseHandle::ping",
   "linker_set_key" : "_ZN7android8hardware14broadcastradio4V2_015BnHwCloseHandle4pingEv",
   "parameters" :
   [
    {
     "is_this_ptr" : true,
     "referenced_type" : "_ZTIPN7android8hardware14broadcastradio4V2_015BnHwCloseHandleE"
    }
   ],
   "return_type" : "_ZTIN7android8hardware6ReturnIvEE",
   "source_file" : "/out/soong/.intermediates/hardware/interfaces/broadcastradio/2.0/android.hardware.broadcastradio@2.0_genc++_headers/gen/android/hardware/broadcastradio/2.0/BnHwCloseHandle.h"
  },
  {
   "function_name" : "android::hardware::broadcastradio::V2_0::BnHwCloseHandle::BnHwCloseHandle",
   "linker_set_key" : "_ZN7android8hardware14broadcastradio4V2_015BnHwCloseHandleC1ERKNS_2spINS2_12ICloseHandleEEE",
   "parameters" :
   [
    {
     "is_this_ptr" : true,
     "referenced_type" : "_ZTIPN7android8hardware14broadcastradio4V2_015BnHwCloseHandleE"
    },
    {
     "referenced_type" : "_ZTIRKN7android2spINS_8hardware14broadcastradio4V2_012ICloseHandleEEE"
    }
   ],
   "return_type" : "_ZTIv",
   "source_file" : "/out/soong/.intermediates/hardware/interfaces/broadcastradio/2.0/android.hardware.broadcastradio@2.0_genc++_headers/gen/android/hardware/broadcastradio/2.0/BnHwCloseHandle.h"
  },
  {
   "function_name" : "android::hardware::broadcastradio::V2_0::BnHwCloseHandle::BnHwCloseHandle",
   "linker_set_key" : "_ZN7android8hardware14broadcastradio4V2_015BnHwCloseHandleC2ERKNS_2spINS2_12ICloseHandleEEE",
   "parameters" :
   [
    {
     "is_this_ptr" : true,
     "referenced_type" : "_ZTIPN7android8hardware14broadcastradio4V2_015BnHwCloseHandleE"
    },
    {
     "referenced_type" : "_ZTIRKN7android2spINS_8hardware14broadcastradio4V2_012ICloseHandleEEE"
    }
   ],
   "return_type" : "_ZTIv",
   "source_file" : "/out/soong/.intermediates/hardware/interfaces/broadcastradio/2.0/android.hardware.broadcastradio@2.0_genc++_headers/gen/android/hardware/broadcastradio/2.0/BnHwCloseHandle.h"
  },
  {
   "function_name" : "android::hardware::broadcastradio::V2_0::BnHwCloseHandle::~BnHwCloseHandle",
   "linker_set_key" : "_ZN7android8hardware14broadcastradio4V2_015BnHwCloseHandleD0Ev",
   "parameters" :
   [
    {
     "is_this_ptr" : true,
     "referenced_type" : "_ZTIPN7android8hardware14broadcastradio4V2_015BnHwCloseHandleE"
    }
   ],
   "return_type" : "_ZTIv",
   "source_file" : "/out/soong/.intermediates/hardware/interfaces/broadcastradio/2.0/android.hardware.broadcastradio@2.0_genc++_headers/gen/android/hardware/broadcastradio/2.0/BnHwCloseHandle.h"
  },
  {
   "function_name" : "android::hardware::broadcastradio::V2_0::BnHwCloseHandle::~BnHwCloseHandle",
   "linker_set_key" : "_ZN7android8hardware14broadcastradio4V2_015BnHwCloseHandleD1Ev",
   "parameters" :
   [
    {
     "is_this_ptr" : true,
     "referenced_type" : "_ZTIPN7android8hardware14broadcastradio4V2_015BnHwCloseHandleE"
    }
   ],
   "return_type" : "_ZTIv",
   "source_file" : "/out/soong/.intermediates/hardware/interfaces/broadcastradio/2.0/android.hardware.broadcastradio@2.0_genc++_headers/gen/android/hardware/broadcastradio/2.0/BnHwCloseHandle.h"
  },
  {
   "function_name" : "android::hardware::broadcastradio::V2_0::BnHwCloseHandle::~BnHwCloseHandle",
   "linker_set_key" : "_ZN7android8hardware14broadcastradio4V2_015BnHwCloseHandleD2Ev",
   "parameters" :
   [
    {
     "is_this_ptr" : true,
     "referenced_type" : "_ZTIPN7android8hardware14broadcastradio4V2_015BnHwCloseHandleE"
    }
   ],
   "return_type" : "_ZTIv",
   "source_file" : "/out/soong/.intermediates/hardware/interfaces/broadcastradio/2.0/android.hardware.broadcastradio@2.0_genc++_headers/gen/android/hardware/broadcastradio/2.0/BnHwCloseHandle.h"
  },
  {
   "function_name" : "android::hardware::broadcastradio::V2_0::BpHwCloseHandle::_hidl_close",
   "linker_set_key" : "_ZN7android8hardware14broadcastradio4V2_015BpHwCloseHandle11_hidl_closeEPNS0_10IInterfaceEPNS0_7details16HidlInstrumentorE",
   "parameters" :
   [
    {
     "referenced_type" : "_ZTIPN7android8hardware10IInterfaceE"
    },
    {
     "referenced_type" : "_ZTIPN7android8hardware7details16HidlInstrumentorE"
    }
   ],
   "return_type" : "_ZTIN7android8hardware6ReturnIvEE",
   "source_file" : "/out/soong/.intermediates/hardware/interfaces/broadcastradio/2.0/android.hardware.broadcastradio@2.0_genc++_headers/gen/android/hardware/broadcastradio/2.0/BpHwCloseHandle.h"
  },
  {
   "function_name" : "android::hardware::broadcastradio::V2_0::BpHwCloseHandle::linkToDeath",
   "linker_set_key" : "_ZN7android8hardware14broadcastradio4V2_015BpHwCloseHandle11linkToDeathERKNS_2spINS0_20hidl_death_recipientEEEm",
   "parameters" :
   [
    {
     "is_this_ptr" : true,
     "referenced_type" : "_ZTIPN7android8hardware14broadcastradio4V2_015BpHwCloseHandleE"
    },
    {
     "referenced_type" : "_ZTIRKN7android2spINS_8hardware20hidl_death_recipientEEE"
    },
    {
     "referenced_type" : "_ZTIm"
    }
   ],
   "return_type" : "_ZTIN7android8hardware6ReturnIbEE",
   "source_file" : "/out/soong/.intermediates/hardware/interfaces/broadcastradio/2.0/android.hardware.broadcastradio@2.0_genc++_headers/gen/android/hardware/broadcastradio/2.0/BpHwCloseHandle.h"
  },
  {
   "function_name" : "android::hardware::broadcastradio::V2_0::BpHwCloseHandle::getDebugInfo",
   "linker_set_key" : "_ZN7android8hardware14broadcastradio4V2_015BpHwCloseHandle12getDebugInfoENSt3__18functionIFvRKNS_4hidl4base4V1_09DebugInfoEEEE",
   "parameters" :
   [
    {
     "is_this_ptr" : true,
     "referenced_type" : "_ZTIPN7android8hardware14broadcastradio4V2_015BpHwCloseHandleE"
    },
    {
     "referenced_type" : "_ZTINSt3__18functionIFvRKN7android4hidl4base4V1_09DebugInfoEEEE"
    }
   ],
   "return_type" : "_ZTIN7android8hardware6ReturnIvEE",
   "source_file" : "/out/soong/.intermediates/hardware/interfaces/broadcastradio/2.0/android.hardware.broadcastradio@2.0_genc++_headers/gen/android/hardware/broadcastradio/2.0/BpHwCloseHandle.h"
  },
  {
   "function_name" : "android::hardware::broadcastradio::V2_0::BpHwCloseHandle::getHashChain",
   "linker_set_key" : "_ZN7android8hardware14broadcastradio4V2_015BpHwCloseHandle12getHashChainENSt3__18functionIFvRKNS0_8hidl_vecINS0_10hidl_arrayIhLm32EJEEEEEEEE",
   "parameters" :
   [
    {
     "is_this_ptr" : true,
     "referenced_type" : "_ZTIPN7android8hardware14broadcastradio4V2_015BpHwCloseHandleE"
    },
    {
     "referenced_type" : "_ZTINSt3__18functionIFvRKN7android8hardware8hidl_vecINS2_10hidl_arrayIhLm32EJEEEEEEEE"
    }
   ],
   "return_type" : "_ZTIN7android8hardware6ReturnIvEE",
   "source_file" : "/out/soong/.intermediates/hardware/interfaces/broadcastradio/2.0/android.hardware.broadcastradio@2.0_genc++_headers/gen/android/hardware/broadcastradio/2.0/BpHwCloseHandle.h"
  },
  {
   "function_name" : "android::hardware::broadcastradio::V2_0::BpHwCloseHandle::unlinkToDeath",
   "linker_set_key" : "_ZN7android8hardware14broadcastradio4V2_015BpHwCloseHandle13unlinkToDeathERKNS_2spINS0_20hidl_death_recipientEEE",
   "parameters" :
   [
    {
     "is_this_ptr" : true,
     "referenced_type" : "_ZTIPN7android8hardware14broadcastradio4V2_015BpHwCloseHandleE"
    },
    {
     "referenced_type" : "_ZTIRKN7android2spINS_8hardware20hidl_death_recipientEEE"
    }
   ],
   "return_type" : "_ZTIN7android8hardware6ReturnIbEE",
   "source_file" : "/out/soong/.intermediates/hardware/interfaces/broadcastradio/2.0/android.hardware.broadcastradio@2.0_genc++_headers/gen/android/hardware/broadcastradio/2.0/BpHwCloseHandle.h"
  },
  {
   "function_name" : "android::hardware::broadcastradio::V2_0::BpHwCloseHandle::interfaceChain",
   "linker_set_key" : "_ZN7android8hardware14broadcastradio4V2_015BpHwCloseHandle14interfaceChainENSt3__18functionIFvRKNS0_8hidl_vecINS0_11hidl_stringEEEEEE",
   "parameters" :
   [
    {
     "is_this_ptr" : true,
     "referenced_type" : "_ZTIPN7android8hardware14broadcastradio4V2_015BpHwCloseHandleE"
    },
    {
     "referenced_type" : "_ZTINSt3__18functionIFvRKN7android8hardware8hidl_vecINS2_11hidl_stringEEEEEE"
    }
   ],
   "return_type" : "_ZTIN7android8hardware6ReturnIvEE",
   "source_file" : "/out/soong/.intermediates/hardware/interfaces/broadcastradio/2.0/android.hardware.broadcastradio@2.0_genc++_headers/gen/android/hardware/broadcastradio/2.0/BpHwCloseHandle.h"
  },
  {
   "function_name" : "android::hardware::broadcastradio::V2_0::BpHwCloseHandle::onLastStrongRef",
   "linker_set_key" : "_ZN7android8hardware14broadcastradio4V2_015BpHwCloseHandle15onLastStrongRefEPKv",
   "parameters" :
   [
    {
     "is_this_ptr" : true,
     "referenced_type" : "_ZTIPN7android8hardware14broadcastradio4V2_015BpHwCloseHandleE"
    },
    {
     "referenced_type" : "_ZTIPKv"
    }
   ],
   "return_type" : "_ZTIv",
   "source_file" : "/out/soong/.intermediates/hardware/interfaces/broadcastradio/2.0/android.hardware.broadcastradio@2.0_genc++_headers/gen/android/hardware/broadcastradio/2.0/BpHwCloseHandle.h"
  },
  {
   "function_name" : "android::hardware::broadcastradio::V2_0::BpHwCloseHandle::interfaceDescriptor",
   "linker_set_key" : "_ZN7android8hardware14broadcastradio4V2_015BpHwCloseHandle19interfaceDescriptorENSt3__18functionIFvRKNS0_11hidl_stringEEEE",
   "parameters" :
   [
    {
     "is_this_ptr" : true,
     "referenced_type" : "_ZTIPN7android8hardware14broadcastradio4V2_015BpHwCloseHandleE"
    },
    {
     "referenced_type" : "_ZTINSt3__18functionIFvRKN7android8hardware11hidl_stringEEEE"
    }
   ],
   "return_type" : "_ZTIN7android8hardware6ReturnIvEE",
   "source_file" : "/out/soong/.intermediates/hardware/interfaces/broadcastradio/2.0/android.hardware.broadcastradio@2.0_genc++_headers/gen/android/hardware/broadcastradio/2.0/BpHwCloseHandle.h"
  },
  {
   "function_name" : "android::hardware::broadcastradio::V2_0::BpHwCloseHandle::notifySyspropsChanged",
   "linker_set_key" : "_ZN7android8hardware14broadcastradio4V2_015BpHwCloseHandle21notifySyspropsChangedEv",
   "parameters" :
   [
    {
     "is_this_ptr" : true,
     "referenced_type" : "_ZTIPN7android8hardware14broadcastradio4V2_015BpHwCloseHandleE"
    }
   ],
   "return_type" : "_ZTIN7android8hardware6ReturnIvEE",
   "source_file" : "/out/soong/.intermediates/hardware/interfaces/broadcastradio/2.0/android.hardware.broadcastradio@2.0_genc++_headers/gen/android/hardware/broadcastradio/2.0/BpHwCloseHandle.h"
  },
  {
   "function_name" : "android::hardware::broadcastradio::V2_0::BpHwCloseHandle::setHALInstrumentation",
   "linker_set_key" : "_ZN7android8hardware14broadcastradio4V2_015BpHwCloseHandle21setHALInstrumentationEv",
   "parameters" :
   [
    {
     "is_this_ptr" : true,
     "referenced_type" : "_ZTIPN7android8hardware14broadcastradio4V2_015BpHwCloseHandleE"
    }
   ],
   "return_type" : "_ZTIN7android8hardware6ReturnIvEE",
   "source_file" : "/out/soong/.intermediates/hardware/interfaces/broadcastradio/2.0/android.hardware.broadcastradio@2.0_genc++_headers/gen/android/hardware/broadcastradio/2.0/BpHwCloseHandle.h"
  },
  {
   "function_name" : "android::hardware::broadcastradio::V2_0::BpHwCloseHandle::ping",
   "linker_set_key" : "_ZN7android8hardware14broadcastradio4V2_015BpHwCloseHandle4pingEv",
   "parameters" :
   [
    {
     "is_this_ptr" : true,
     "referenced_type" : "_ZTIPN7android8hardware14broadcastradio4V2_015BpHwCloseHandleE"
    }
   ],
   "return_type" : "_ZTIN7android8hardware6ReturnIvEE",
   "source_file" : "/out/soong/.intermediates/hardware/interfaces/broadcastradio/2.0/android.hardware.broadcastradio@2.0_genc++_headers/gen/android/hardware/broadcastradio/2.0/BpHwCloseHandle.h"
  },
  {
   "function_name" : "android::hardware::broadcastradio::V2_0::BpHwCloseHandle::close",
   "linker_set_key" : "_ZN7android8hardware14broadcastradio4V2_015BpHwCloseHandle5closeEv",
   "parameters" :
   [
    {
     "is_this_ptr" : true,
     "referenced_type" : "_ZTIPN7android8hardware14broadcastradio4V2_015BpHwCloseHandleE"
    }
   ],
   "return_type" : "_ZTIN7android8hardware6ReturnIvEE",
   "source_file" : "/out/soong/.intermediates/hardware/interfaces/broadcastradio/2.0/android.hardware.broadcastradio@2.0_genc++_headers/gen/android/hardware/broadcastradio/2.0/BpHwCloseHandle.h"
  },
  {
   "function_name" : "android::hardware::broadcastradio::V2_0::BpHwCloseHandle::debug",
   "linker_set_key" : "_ZN7android8hardware14broadcastradio4V2_015BpHwCloseHandle5debugERKNS0_11hidl_handleERKNS0_8hidl_vecINS0_11hidl_stringEEE",
   "parameters" :
   [
    {
     "is_this_ptr" : true,
     "referenced_type" : "_ZTIPN7android8hardware14broadcastradio4V2_015BpHwCloseHandleE"
    },
    {
     "referenced_type" : "_ZTIRKN7android8hardware11hidl_handleE"
    },
    {
     "referenced_type" : "_ZTIRKN7android8hardware8hidl_vecINS0_11hidl_stringEEE"
    }
   ],
   "return_type" : "_ZTIN7android8hardware6ReturnIvEE",
   "source_file" : "/out/soong/.intermediates/hardware/interfaces/broadcastradio/2.0/android.hardware.broadcastradio@2.0_genc++_headers/gen/android/hardware/broadcastradio/2.0/BpHwCloseHandle.h"
  },
  {
   "function_name" : "android::hardware::broadcastradio::V2_0::BpHwCloseHandle::BpHwCloseHandle",
   "linker_set_key" : "_ZN7android8hardware14broadcastradio4V2_015BpHwCloseHandleC1ERKNS_2spINS0_7IBinderEEE",
   "parameters" :
   [
    {
     "is_this_ptr" : true,
     "referenced_type" : "_ZTIPN7android8hardware14broadcastradio4V2_015BpHwCloseHandleE"
    },
    {
     "referenced_type" : "_ZTIRKN7android2spINS_8hardware7IBinderEEE"
    }
   ],
   "return_type" : "_ZTIv",
   "source_file" : "/out/soong/.intermediates/hardware/interfaces/broadcastradio/2.0/android.hardware.broadcastradio@2.0_genc++_headers/gen/android/hardware/broadcastradio/2.0/BpHwCloseHandle.h"
  },
  {
   "function_name" : "android::hardware::broadcastradio::V2_0::BpHwCloseHandle::BpHwCloseHandle",
   "linker_set_key" : "_ZN7android8hardware14broadcastradio4V2_015BpHwCloseHandleC2ERKNS_2spINS0_7IBinderEEE",
   "parameters" :
   [
    {
     "is_this_ptr" : true,
     "referenced_type" : "_ZTIPN7android8hardware14broadcastradio4V2_015BpHwCloseHandleE"
    },
    {
     "referenced_type" : "_ZTIRKN7android2spINS_8hardware7IBinderEEE"
    }
   ],
   "return_type" : "_ZTIv",
   "source_file" : "/out/soong/.intermediates/hardware/interfaces/broadcastradio/2.0/android.hardware.broadcastradio@2.0_genc++_headers/gen/android/hardware/broadcastradio/2.0/BpHwCloseHandle.h"
  },
  {
   "access" : "private",
   "function_name" : "android::hardware::broadcastradio::V2_0::BsTunerCallback::addOnewayTask",
   "linker_set_key" : "_ZN7android8hardware14broadcastradio4V2_015BsTunerCallback13addOnewayTaskENSt3__18functionIFvvEEE",
   "parameters" :
   [
    {
     "is_this_ptr" : true,
     "referenced_type" : "_ZTIPN7android8hardware14broadcastradio4V2_015BsTunerCallbackE"
    },
    {
     "referenced_type" : "_ZTINSt3__18functionIFvvEEE"
    }
   ],
   "return_type" : "_ZTIN7android8hardware6ReturnIvEE",
   "source_file" : "/out/soong/.intermediates/hardware/interfaces/broadcastradio/2.0/android.hardware.broadcastradio@2.0_genc++_headers/gen/android/hardware/broadcastradio/2.0/BsTunerCallback.h"
  },
  {
   "function_name" : "android::hardware::broadcastradio::V2_0::BsTunerCallback::BsTunerCallback",
   "linker_set_key" : "_ZN7android8hardware14broadcastradio4V2_015BsTunerCallbackC1ENS_2spINS2_14ITunerCallbackEEE",
   "parameters" :
   [
    {
     "is_this_ptr" : true,
     "referenced_type" : "_ZTIPN7android8hardware14broadcastradio4V2_015BsTunerCallbackE"
    },
    {
     "referenced_type" : "_ZTIKN7android2spINS_8hardware14broadcastradio4V2_014ITunerCallbackEEE"
    }
   ],
   "return_type" : "_ZTIv",
   "source_file" : "/out/soong/.intermediates/hardware/interfaces/broadcastradio/2.0/android.hardware.broadcastradio@2.0_genc++_headers/gen/android/hardware/broadcastradio/2.0/BsTunerCallback.h"
  },
  {
   "function_name" : "android::hardware::broadcastradio::V2_0::BsTunerCallback::BsTunerCallback",
   "linker_set_key" : "_ZN7android8hardware14broadcastradio4V2_015BsTunerCallbackC2ENS_2spINS2_14ITunerCallbackEEE",
   "parameters" :
   [
    {
     "is_this_ptr" : true,
     "referenced_type" : "_ZTIPN7android8hardware14broadcastradio4V2_015BsTunerCallbackE"
    },
    {
     "referenced_type" : "_ZTIKN7android2spINS_8hardware14broadcastradio4V2_014ITunerCallbackEEE"
    }
   ],
   "return_type" : "_ZTIv",
   "source_file" : "/out/soong/.intermediates/hardware/interfaces/broadcastradio/2.0/android.hardware.broadcastradio@2.0_genc++_headers/gen/android/hardware/broadcastradio/2.0/BsTunerCallback.h"
  },
  {
   "function_name" : "android::hardware::broadcastradio::V2_0::IBroadcastRadio::getService",
   "linker_set_key" : "_ZN7android8hardware14broadcastradio4V2_015IBroadcastRadio10getServiceERKNSt3__112basic_stringIcNS4_11char_traitsIcEENS4_9allocatorIcEEEEb",
   "parameters" :
   [
    {
     "default_arg" : true,
     "referenced_type" : "_ZTIRKNSt3__112basic_stringIcNS_11char_traitsIcEENS_9allocatorIcEEEE"
    },
    {
     "default_arg" : true,
     "referenced_type" : "_ZTIb"
    }
   ],
   "return_type" : "_ZTIN7android2spINS_8hardware14broadcastradio4V2_015IBroadcastRadioEEE",
   "source_file" : "/out/soong/.intermediates/hardware/interfaces/broadcastradio/2.0/android.hardware.broadcastradio@2.0_genc++_headers/gen/android/hardware/broadcastradio/2.0/IBroadcastRadio.h"
  },
  {
   "function_name" : "android::hardware::broadcastradio::V2_0::IBroadcastRadio::linkToDeath",
   "linker_set_key" : "_ZN7android8hardware14broadcastradio4V2_015IBroadcastRadio11linkToDeathERKNS_2spINS0_20hidl_death_recipientEEEm",
   "parameters" :
   [
    {
     "is_this_ptr" : true,
     "referenced_type" : "_ZTIPN7android8hardware14broadcastradio4V2_015IBroadcastRadioE"
    },
    {
     "referenced_type" : "_ZTIRKN7android2spINS_8hardware20hidl_death_recipientEEE"
    },
    {
     "referenced_type" : "_ZTIm"
    }
   ],
   "return_type" : "_ZTIN7android8hardware6ReturnIbEE",
   "source_file" : "/out/soong/.intermediates/hardware/interfaces/broadcastradio/2.0/android.hardware.broadcastradio@2.0_genc++_headers/gen/android/hardware/broadcastradio/2.0/IBroadcastRadio.h"
  },
  {
   "function_name" : "android::hardware::broadcastradio::V2_0::IBroadcastRadio::getDebugInfo",
   "linker_set_key" : "_ZN7android8hardware14broadcastradio4V2_015IBroadcastRadio12getDebugInfoENSt3__18functionIFvRKNS_4hidl4base4V1_09DebugInfoEEEE",
   "parameters" :
   [
    {
     "is_this_ptr" : true,
     "referenced_type" : "_ZTIPN7android8hardware14broadcastradio4V2_015IBroadcastRadioE"
    },
    {
     "referenced_type" : "_ZTINSt3__18functionIFvRKN7android4hidl4base4V1_09DebugInfoEEEE"
    }
   ],
   "return_type" : "_ZTIN7android8hardware6ReturnIvEE",
   "source_file" : "/out/soong/.intermediates/hardware/interfaces/broadcastradio/2.0/android.hardware.broadcastradio@2.0_genc++_headers/gen/android/hardware/broadcastradio/2.0/IBroadcastRadio.h"
  },
  {
   "function_name" : "android::hardware::broadcastradio::V2_0::IBroadcastRadio::getHashChain",
   "linker_set_key" : "_ZN7android8hardware14broadcastradio4V2_015IBroadcastRadio12getHashChainENSt3__18functionIFvRKNS0_8hidl_vecINS0_10hidl_arrayIhLm32EJEEEEEEEE",
   "parameters" :
   [
    {
     "is_this_ptr" : true,
     "referenced_type" : "_ZTIPN7android8hardware14broadcastradio4V2_015IBroadcastRadioE"
    },
    {
     "referenced_type" : "_ZTINSt3__18functionIFvRKN7android8hardware8hidl_vecINS2_10hidl_arrayIhLm32EJEEEEEEEE"
    }
   ],
   "return_type" : "_ZTIN7android8hardware6ReturnIvEE",
   "source_file" : "/out/soong/.intermediates/hardware/interfaces/broadcastradio/2.0/android.hardware.broadcastradio@2.0_genc++_headers/gen/android/hardware/broadcastradio/2.0/IBroadcastRadio.h"
  },
  {
   "function_name" : "android::hardware::broadcastradio::V2_0::IBroadcastRadio::tryGetService",
   "linker_set_key" : "_ZN7android8hardware14broadcastradio4V2_015IBroadcastRadio13tryGetServiceERKNSt3__112basic_stringIcNS4_11char_traitsIcEENS4_9allocatorIcEEEEb",
   "parameters" :
   [
    {
     "default_arg" : true,
     "referenced_type" : "_ZTIRKNSt3__112basic_stringIcNS_11char_traitsIcEENS_9allocatorIcEEEE"
    },
    {
     "default_arg" : true,
     "referenced_type" : "_ZTIb"
    }
   ],
   "return_type" : "_ZTIN7android2spINS_8hardware14broadcastradio4V2_015IBroadcastRadioEEE",
   "source_file" : "/out/soong/.intermediates/hardware/interfaces/broadcastradio/2.0/android.hardware.broadcastradio@2.0_genc++_headers/gen/android/hardware/broadcastradio/2.0/IBroadcastRadio.h"
  },
  {
   "function_name" : "android::hardware::broadcastradio::V2_0::IBroadcastRadio::unlinkToDeath",
   "linker_set_key" : "_ZN7android8hardware14broadcastradio4V2_015IBroadcastRadio13unlinkToDeathERKNS_2spINS0_20hidl_death_recipientEEE",
   "parameters" :
   [
    {
     "is_this_ptr" : true,
     "referenced_type" : "_ZTIPN7android8hardware14broadcastradio4V2_015IBroadcastRadioE"
    },
    {
     "referenced_type" : "_ZTIRKN7android2spINS_8hardware20hidl_death_recipientEEE"
    }
   ],
   "return_type" : "_ZTIN7android8hardware6ReturnIbEE",
   "source_file" : "/out/soong/.intermediates/hardware/interfaces/broadcastradio/2.0/android.hardware.broadcastradio@2.0_genc++_headers/gen/android/hardware/broadcastradio/2.0/IBroadcastRadio.h"
  },
  {
   "function_name" : "android::hardware::broadcastradio::V2_0::IBroadcastRadio::interfaceChain",
   "linker_set_key" : "_ZN7android8hardware14broadcastradio4V2_015IBroadcastRadio14interfaceChainENSt3__18functionIFvRKNS0_8hidl_vecINS0_11hidl_stringEEEEEE",
   "parameters" :
   [
    {
     "is_this_ptr" : true,
     "referenced_type" : "_ZTIPN7android8hardware14broadcastradio4V2_015IBroadcastRadioE"
    },
    {
     "referenced_type" : "_ZTINSt3__18functionIFvRKN7android8hardware8hidl_vecINS2_11hidl_stringEEEEEE"
    }
   ],
   "return_type" : "_ZTIN7android8hardware6ReturnIvEE",
   "source_file" : "/out/soong/.intermediates/hardware/interfaces/broadcastradio/2.0/android.hardware.broadcastradio@2.0_genc++_headers/gen/android/hardware/broadcastradio/2.0/IBroadcastRadio.h"
  },
  {
   "function_name" : "android::hardware::broadcastradio::V2_0::IBroadcastRadio::registerAsService",
   "linker_set_key" : "_ZN7android8hardware14broadcastradio4V2_015IBroadcastRadio17registerAsServiceERKNSt3__112basic_stringIcNS4_11char_traitsIcEENS4_9allocatorIcEEEE",
   "parameters" :
   [
    {
     "is_this_ptr" : true,
     "referenced_type" : "_ZTIPN7android8hardware14broadcastradio4V2_015IBroadcastRadioE"
    },
    {
     "default_arg" : true,
     "referenced_type" : "_ZTIRKNSt3__112basic_stringIcNS_11char_traitsIcEENS_9allocatorIcEEEE"
    }
   ],
   "return_type" : "_ZTIi",
   "source_file" : "/out/soong/.intermediates/hardware/interfaces/broadcastradio/2.0/android.hardware.broadcastradio@2.0_genc++_headers/gen/android/hardware/broadcastradio/2.0/IBroadcastRadio.h"
  },
  {
   "function_name" : "android::hardware::broadcastradio::V2_0::IBroadcastRadio::interfaceDescriptor",
   "linker_set_key" : "_ZN7android8hardware14broadcastradio4V2_015IBroadcastRadio19interfaceDescriptorENSt3__18functionIFvRKNS0_11hidl_stringEEEE",
   "parameters" :
   [
    {
     "is_this_ptr" : true,
     "referenced_type" : "_ZTIPN7android8hardware14broadcastradio4V2_015IBroadcastRadioE"
    },
    {
     "referenced_type" : "_ZTINSt3__18functionIFvRKN7android8hardware11hidl_stringEEEE"
    }
   ],
   "return_type" : "_ZTIN7android8hardware6ReturnIvEE",
   "source_file" : "/out/soong/.intermediates/hardware/interfaces/broadcastradio/2.0/android.hardware.broadcastradio@2.0_genc++_headers/gen/android/hardware/broadcastradio/2.0/IBroadcastRadio.h"
  },
  {
   "function_name" : "android::hardware::broadcastradio::V2_0::IBroadcastRadio::notifySyspropsChanged",
   "linker_set_key" : "_ZN7android8hardware14broadcastradio4V2_015IBroadcastRadio21notifySyspropsChangedEv",
   "parameters" :
   [
    {
     "is_this_ptr" : true,
     "referenced_type" : "_ZTIPN7android8hardware14broadcastradio4V2_015IBroadcastRadioE"
    }
   ],
   "return_type" : "_ZTIN7android8hardware6ReturnIvEE",
   "source_file" : "/out/soong/.intermediates/hardware/interfaces/broadcastradio/2.0/android.hardware.broadcastradio@2.0_genc++_headers/gen/android/hardware/broadcastradio/2.0/IBroadcastRadio.h"
  },
  {
   "function_name" : "android::hardware::broadcastradio::V2_0::IBroadcastRadio::setHALInstrumentation",
   "linker_set_key" : "_ZN7android8hardware14broadcastradio4V2_015IBroadcastRadio21setHALInstrumentationEv",
   "parameters" :
   [
    {
     "is_this_ptr" : true,
     "referenced_type" : "_ZTIPN7android8hardware14broadcastradio4V2_015IBroadcastRadioE"
    }
   ],
   "return_type" : "_ZTIN7android8hardware6ReturnIvEE",
   "source_file" : "/out/soong/.intermediates/hardware/interfaces/broadcastradio/2.0/android.hardware.broadcastradio@2.0_genc++_headers/gen/android/hardware/broadcastradio/2.0/IBroadcastRadio.h"
  },
  {
   "function_name" : "android::hardware::broadcastradio::V2_0::IBroadcastRadio::registerForNotifications",
   "linker_set_key" : "_ZN7android8hardware14broadcastradio4V2_015IBroadcastRadio24registerForNotificationsERKNSt3__112basic_stringIcNS4_11char_traitsIcEENS4_9allocatorIcEEEERKNS_2spINS_4hidl7manager4V1_020IServiceNotificationEEE",
   "parameters" :
   [
    {
     "referenced_type" : "_ZTIRKNSt3__112basic_stringIcNS_11char_traitsIcEENS_9allocatorIcEEEE"
    },
    {
     "referenced_type" : "_ZTIRKN7android2spINS_4hidl7manager4V1_020IServiceNotificationEEE"
    }
   ],
   "return_type" : "_ZTIb",
   "source_file" : "/out/soong/.intermediates/hardware/interfaces/broadcastradio/2.0/android.hardware.broadcastradio@2.0_genc++_headers/gen/android/hardware/broadcastradio/2.0/IBroadcastRadio.h"
  },
  {
   "function_name" : "android::hardware::broadcastradio::V2_0::IBroadcastRadio::ping",
   "linker_set_key" : "_ZN7android8hardware14broadcastradio4V2_015IBroadcastRadio4pingEv",
   "parameters" :
   [
    {
     "is_this_ptr" : true,
     "referenced_type" : "_ZTIPN7android8hardware14broadcastradio4V2_015IBroadcastRadioE"
    }
   ],
   "return_type" : "_ZTIN7android8hardware6ReturnIvEE",
   "source_file" : "/out/soong/.intermediates/hardware/interfaces/broadcastradio/2.0/android.hardware.broadcastradio@2.0_genc++_headers/gen/android/hardware/broadcastradio/2.0/IBroadcastRadio.h"
  },
  {
   "function_name" : "android::hardware::broadcastradio::V2_0::IBroadcastRadio::debug",
   "linker_set_key" : "_ZN7android8hardware14broadcastradio4V2_015IBroadcastRadio5debugERKNS0_11hidl_handleERKNS0_8hidl_vecINS0_11hidl_stringEEE",
   "parameters" :
   [
    {
     "is_this_ptr" : true,
     "referenced_type" : "_ZTIPN7android8hardware14broadcastradio4V2_015IBroadcastRadioE"
    },
    {
     "referenced_type" : "_ZTIRKN7android8hardware11hidl_handleE"
    },
    {
     "referenced_type" : "_ZTIRKN7android8hardware8hidl_vecINS0_11hidl_stringEEE"
    }
   ],
   "return_type" : "_ZTIN7android8hardware6ReturnIvEE",
   "source_file" : "/out/soong/.intermediates/hardware/interfaces/broadcastradio/2.0/android.hardware.broadcastradio@2.0_genc++_headers/gen/android/hardware/broadcastradio/2.0/IBroadcastRadio.h"
  },
  {
   "function_name" : "android::hardware::broadcastradio::V2_0::IBroadcastRadio::castFrom",
   "linker_set_key" : "_ZN7android8hardware14broadcastradio4V2_015IBroadcastRadio8castFromERKNS_2spINS_4hidl4base4V1_05IBaseEEEb",
   "parameters" :
   [
    {
     "referenced_type" : "_ZTIRKN7android2spINS_4hidl4base4V1_05IBaseEEE"
    },
    {
     "default_arg" : true,
     "referenced_type" : "_ZTIb"
    }
   ],
   "return_type" : "_ZTIN7android8hardware6ReturnINS_2spINS0_14broadcastradio4V2_015IBroadcastRadioEEEEE",
   "source_file" : "/out/soong/.intermediates/hardware/interfaces/broadcastradio/2.0/android.hardware.broadcastradio@2.0_genc++_headers/gen/android/hardware/broadcastradio/2.0/IBroadcastRadio.h"
  },
  {
   "function_name" : "android::hardware::broadcastradio::V2_0::IBroadcastRadio::castFrom",
   "linker_set_key" : "_ZN7android8hardware14broadcastradio4V2_015IBroadcastRadio8castFromERKNS_2spIS3_EEb",
   "parameters" :
   [
    {
     "referenced_type" : "_ZTIRKN7android2spINS_8hardware14broadcastradio4V2_015IBroadcastRadioEEE"
    },
    {
     "default_arg" : true,
     "referenced_type" : "_ZTIb"
    }
   ],
   "return_type" : "_ZTIN7android8hardware6ReturnINS_2spINS0_14broadcastradio4V2_015IBroadcastRadioEEEEE",
   "source_file" : "/out/soong/.intermediates/hardware/interfaces/broadcastradio/2.0/android.hardware.broadcastradio@2.0_genc++_headers/gen/android/hardware/broadcastradio/2.0/IBroadcastRadio.h"
  },
  {
   "function_name" : "android::hardware::broadcastradio::V2_0::BnHwTunerSession::_hidl_scan",
   "linker_set_key" : "_ZN7android8hardware14broadcastradio4V2_016BnHwTunerSession10_hidl_scanEPNS_4hidl4base4V1_08BnHwBaseERKNS0_6ParcelEPS9_NSt3__18functionIFvRS9_EEE",
   "parameters" :
   [
    {
     "referenced_type" : "_ZTIPN7android4hidl4base4V1_08BnHwBaseE"
    },
    {
     "referenced_type" : "_ZTIRKN7android8hardware6ParcelE"
    },
    {
     "referenced_type" : "_ZTIPN7android8hardware6ParcelE"
    },
    {
     "referenced_type" : "_ZTINSt3__18functionIFvRN7android8hardware6ParcelEEEE"
    }
   ],
   "return_type" : "_ZTIi",
   "source_file" : "/out/soong/.intermediates/hardware/interfaces/broadcastradio/2.0/android.hardware.broadcastradio@2.0_genc++_headers/gen/android/hardware/broadcastradio/2.0/BnHwTunerSession.h"
  },
  {
   "function_name" : "android::hardware::broadcastradio::V2_0::BnHwTunerSession::_hidl_step",
   "linker_set_key" : "_ZN7android8hardware14broadcastradio4V2_016BnHwTunerSession10_hidl_stepEPNS_4hidl4base4V1_08BnHwBaseERKNS0_6ParcelEPS9_NSt3__18functionIFvRS9_EEE",
   "parameters" :
   [
    {
     "referenced_type" : "_ZTIPN7android4hidl4base4V1_08BnHwBaseE"
    },
    {
     "referenced_type" : "_ZTIRKN7android8hardware6ParcelE"
    },
    {
     "referenced_type" : "_ZTIPN7android8hardware6ParcelE"
    },
    {
     "referenced_type" : "_ZTINSt3__18functionIFvRN7android8hardware6ParcelEEEE"
    }
   ],
   "return_type" : "_ZTIi",
   "source_file" : "/out/soong/.intermediates/hardware/interfaces/broadcastradio/2.0/android.hardware.broadcastradio@2.0_genc++_headers/gen/android/hardware/broadcastradio/2.0/BnHwTunerSession.h"
  },
  {
   "function_name" : "android::hardware::broadcastradio::V2_0::BnHwTunerSession::_hidl_tune",
   "linker_set_key" : "_ZN7android8hardware14broadcastradio4V2_016BnHwTunerSession10_hidl_tuneEPNS_4hidl4base4V1_08BnHwBaseERKNS0_6ParcelEPS9_NSt3__18functionIFvRS9_EEE",
   "parameters" :
   [
    {
     "referenced_type" : "_ZTIPN7android4hidl4base4V1_08BnHwBaseE"
    },
    {
     "referenced_type" : "_ZTIRKN7android8hardware6ParcelE"
    },
    {
     "referenced_type" : "_ZTIPN7android8hardware6ParcelE"
    },
    {
     "referenced_type" : "_ZTINSt3__18functionIFvRN7android8hardware6ParcelEEEE"
    }
   ],
   "return_type" : "_ZTIi",
   "source_file" : "/out/soong/.intermediates/hardware/interfaces/broadcastradio/2.0/android.hardware.broadcastradio@2.0_genc++_headers/gen/android/hardware/broadcastradio/2.0/BnHwTunerSession.h"
  },
  {
   "function_name" : "android::hardware::broadcastradio::V2_0::BnHwTunerSession::onTransact",
   "linker_set_key" : "_ZN7android8hardware14broadcastradio4V2_016BnHwTunerSession10onTransactEjRKNS0_6ParcelEPS4_jNSt3__18functionIFvRS4_EEE",
   "parameters" :
   [
    {
     "is_this_ptr" : true,
     "referenced_type" : "_ZTIPN7android8hardware14broadcastradio4V2_016BnHwTunerSessionE"
    },
    {
     "referenced_type" : "_ZTIj"
    },
    {
     "referenced_type" : "_ZTIRKN7android8hardware6ParcelE"
    },
    {
     "referenced_type" : "_ZTIPN7android8hardware6ParcelE"
    },
    {
     "default_arg" : true,
     "referenced_type" : "_ZTIj"
    },
    {
     "default_arg" : true,
     "referenced_type" : "_ZTINSt3__18functionIFvRN7android8hardware6ParcelEEEE"
    }
   ],
   "return_type" : "_ZTIi",
   "source_file" : "/out/soong/.intermediates/hardware/interfaces/broadcastradio/2.0/android.hardware.broadcastradio@2.0_genc++_headers/gen/android/hardware/broadcastradio/2.0/BnHwTunerSession.h"
  },
  {
   "function_name" : "android::hardware::broadcastradio::V2_0::BnHwTunerSession::_hidl_close",
   "linker_set_key" : "_ZN7android8hardware14broadcastradio4V2_016BnHwTunerSession11_hidl_closeEPNS_4hidl4base4V1_08BnHwBaseERKNS0_6ParcelEPS9_NSt3__18functionIFvRS9_EEE",
   "parameters" :
   [
    {
     "referenced_type" : "_ZTIPN7android4hidl4base4V1_08BnHwBaseE"
    },
    {
     "referenced_type" : "_ZTIRKN7android8hardware6ParcelE"
    },
    {
     "referenced_type" : "_ZTIPN7android8hardware6ParcelE"
    },
    {
     "referenced_type" : "_ZTINSt3__18functionIFvRN7android8hardware6ParcelEEEE"
    }
   ],
   "return_type" : "_ZTIi",
   "source_file" : "/out/soong/.intermediates/hardware/interfaces/broadcastradio/2.0/android.hardware.broadcastradio@2.0_genc++_headers/gen/android/hardware/broadcastradio/2.0/BnHwTunerSession.h"
  },
  {
   "function_name" : "android::hardware::broadcastradio::V2_0::BnHwTunerSession::_hidl_cancel",
   "linker_set_key" : "_ZN7android8hardware14broadcastradio4V2_016BnHwTunerSession12_hidl_cancelEPNS_4hidl4base4V1_08BnHwBaseERKNS0_6ParcelEPS9_NSt3__18functionIFvRS9_EEE",
   "parameters" :
   [
    {
     "referenced_type" : "_ZTIPN7android4hidl4base4V1_08BnHwBaseE"
    },
    {
     "referenced_type" : "_ZTIRKN7android8hardware6ParcelE"
    },
    {
     "referenced_type" : "_ZTIPN7android8hardware6ParcelE"
    },
    {
     "referenced_type" : "_ZTINSt3__18functionIFvRN7android8hardware6ParcelEEEE"
    }
   ],
   "return_type" : "_ZTIi",
   "source_file" : "/out/soong/.intermediates/hardware/interfaces/broadcastradio/2.0/android.hardware.broadcastradio@2.0_genc++_headers/gen/android/hardware/broadcastradio/2.0/BnHwTunerSession.h"
  },
  {
   "access" : "private",
   "function_name" : "android::hardware::broadcastradio::V2_0::BnHwTunerSession::getDebugInfo",
   "linker_set_key" : "_ZN7android8hardware14broadcastradio4V2_016BnHwTunerSession12getDebugInfoENSt3__18functionIFvRKNS_4hidl4base4V1_09DebugInfoEEEE",
   "parameters" :
   [
    {
     "is_this_ptr" : true,
     "referenced_type" : "_ZTIPN7android8hardware14broadcastradio4V2_016BnHwTunerSessionE"
    },
    {
     "referenced_type" : "_ZTINSt3__18functionIFvRKN7android4hidl4base4V1_09DebugInfoEEEE"
    }
   ],
   "return_type" : "_ZTIN7android8hardware6ReturnIvEE",
   "source_file" : "/out/soong/.intermediates/hardware/interfaces/broadcastradio/2.0/android.hardware.broadcastradio@2.0_genc++_headers/gen/android/hardware/broadcastradio/2.0/BnHwTunerSession.h"
  },
  {
   "function_name" : "android::hardware::broadcastradio::V2_0::BnHwTunerSession::_hidl_getParameters",
   "linker_set_key" : "_ZN7android8hardware14broadcastradio4V2_016BnHwTunerSession19_hidl_getParametersEPNS_4hidl4base4V1_08BnHwBaseERKNS0_6ParcelEPS9_NSt3__18functionIFvRS9_EEE",
   "parameters" :
   [
    {
     "referenced_type" : "_ZTIPN7android4hidl4base4V1_08BnHwBaseE"
    },
    {
     "referenced_type" : "_ZTIRKN7android8hardware6ParcelE"
    },
    {
     "referenced_type" : "_ZTIPN7android8hardware6ParcelE"
    },
    {
     "referenced_type" : "_ZTINSt3__18functionIFvRN7android8hardware6ParcelEEEE"
    }
   ],
   "return_type" : "_ZTIi",
   "source_file" : "/out/soong/.intermediates/hardware/interfaces/broadcastradio/2.0/android.hardware.broadcastradio@2.0_genc++_headers/gen/android/hardware/broadcastradio/2.0/BnHwTunerSession.h"
  },
  {
   "function_name" : "android::hardware::broadcastradio::V2_0::BnHwTunerSession::_hidl_setConfigFlag",
   "linker_set_key" : "_ZN7android8hardware14broadcastradio4V2_016BnHwTunerSession19_hidl_setConfigFlagEPNS_4hidl4base4V1_08BnHwBaseERKNS0_6ParcelEPS9_NSt3__18functionIFvRS9_EEE",
   "parameters" :
   [
    {
     "referenced_type" : "_ZTIPN7android4hidl4base4V1_08BnHwBaseE"
    },
    {
     "referenced_type" : "_ZTIRKN7android8hardware6ParcelE"
    },
    {
     "referenced_type" : "_ZTIPN7android8hardware6ParcelE"
    },
    {
     "referenced_type" : "_ZTINSt3__18functionIFvRN7android8hardware6ParcelEEEE"
    }
   ],
   "return_type" : "_ZTIi",
   "source_file" : "/out/soong/.intermediates/hardware/interfaces/broadcastradio/2.0/android.hardware.broadcastradio@2.0_genc++_headers/gen/android/hardware/broadcastradio/2.0/BnHwTunerSession.h"
  },
  {
   "function_name" : "android::hardware::broadcastradio::V2_0::BnHwTunerSession::_hidl_setParameters",
   "linker_set_key" : "_ZN7android8hardware14broadcastradio4V2_016BnHwTunerSession19_hidl_setParametersEPNS_4hidl4base4V1_08BnHwBaseERKNS0_6ParcelEPS9_NSt3__18functionIFvRS9_EEE",
   "parameters" :
   [
    {
     "referenced_type" : "_ZTIPN7android4hidl4base4V1_08BnHwBaseE"
    },
    {
     "referenced_type" : "_ZTIRKN7android8hardware6ParcelE"
    },
    {
     "referenced_type" : "_ZTIPN7android8hardware6ParcelE"
    },
    {
     "referenced_type" : "_ZTINSt3__18functionIFvRN7android8hardware6ParcelEEEE"
    }
   ],
   "return_type" : "_ZTIi",
   "source_file" : "/out/soong/.intermediates/hardware/interfaces/broadcastradio/2.0/android.hardware.broadcastradio@2.0_genc++_headers/gen/android/hardware/broadcastradio/2.0/BnHwTunerSession.h"
  },
  {
   "function_name" : "android::hardware::broadcastradio::V2_0::BnHwTunerSession::_hidl_isConfigFlagSet",
   "linker_set_key" : "_ZN7android8hardware14broadcastradio4V2_016BnHwTunerSession21_hidl_isConfigFlagSetEPNS_4hidl4base4V1_08BnHwBaseERKNS0_6ParcelEPS9_NSt3__18functionIFvRS9_EEE",
   "parameters" :
   [
    {
     "referenced_type" : "_ZTIPN7android4hidl4base4V1_08BnHwBaseE"
    },
    {
     "referenced_type" : "_ZTIRKN7android8hardware6ParcelE"
    },
    {
     "referenced_type" : "_ZTIPN7android8hardware6ParcelE"
    },
    {
     "referenced_type" : "_ZTINSt3__18functionIFvRN7android8hardware6ParcelEEEE"
    }
   ],
   "return_type" : "_ZTIi",
   "source_file" : "/out/soong/.intermediates/hardware/interfaces/broadcastradio/2.0/android.hardware.broadcastradio@2.0_genc++_headers/gen/android/hardware/broadcastradio/2.0/BnHwTunerSession.h"
  },
  {
   "function_name" : "android::hardware::broadcastradio::V2_0::BnHwTunerSession::_hidl_stopProgramListUpdates",
   "linker_set_key" : "_ZN7android8hardware14broadcastradio4V2_016BnHwTunerSession28_hidl_stopProgramListUpdatesEPNS_4hidl4base4V1_08BnHwBaseERKNS0_6ParcelEPS9_NSt3__18functionIFvRS9_EEE",
   "parameters" :
   [
    {
     "referenced_type" : "_ZTIPN7android4hidl4base4V1_08BnHwBaseE"
    },
    {
     "referenced_type" : "_ZTIRKN7android8hardware6ParcelE"
    },
    {
     "referenced_type" : "_ZTIPN7android8hardware6ParcelE"
    },
    {
     "referenced_type" : "_ZTINSt3__18functionIFvRN7android8hardware6ParcelEEEE"
    }
   ],
   "return_type" : "_ZTIi",
   "source_file" : "/out/soong/.intermediates/hardware/interfaces/broadcastradio/2.0/android.hardware.broadcastradio@2.0_genc++_headers/gen/android/hardware/broadcastradio/2.0/BnHwTunerSession.h"
  },
  {
   "function_name" : "android::hardware::broadcastradio::V2_0::BnHwTunerSession::_hidl_startProgramListUpdates",
   "linker_set_key" : "_ZN7android8hardware14broadcastradio4V2_016BnHwTunerSession29_hidl_startProgramListUpdatesEPNS_4hidl4base4V1_08BnHwBaseERKNS0_6ParcelEPS9_NSt3__18functionIFvRS9_EEE",
   "parameters" :
   [
    {
     "referenced_type" : "_ZTIPN7android4hidl4base4V1_08BnHwBaseE"
    },
    {
     "referenced_type" : "_ZTIRKN7android8hardware6ParcelE"
    },
    {
     "referenced_type" : "_ZTIPN7android8hardware6ParcelE"
    },
    {
     "referenced_type" : "_ZTINSt3__18functionIFvRN7android8hardware6ParcelEEEE"
    }
   ],
   "return_type" : "_ZTIi",
   "source_file" : "/out/soong/.intermediates/hardware/interfaces/broadcastradio/2.0/android.hardware.broadcastradio@2.0_genc++_headers/gen/android/hardware/broadcastradio/2.0/BnHwTunerSession.h"
  },
  {
   "access" : "private",
   "function_name" : "android::hardware::broadcastradio::V2_0::BnHwTunerSession::ping",
   "linker_set_key" : "_ZN7android8hardware14broadcastradio4V2_016BnHwTunerSession4pingEv",
   "parameters" :
   [
    {
     "is_this_ptr" : true,
     "referenced_type" : "_ZTIPN7android8hardware14broadcastradio4V2_016BnHwTunerSessionE"
    }
   ],
   "return_type" : "_ZTIN7android8hardware6ReturnIvEE",
   "source_file" : "/out/soong/.intermediates/hardware/interfaces/broadcastradio/2.0/android.hardware.broadcastradio@2.0_genc++_headers/gen/android/hardware/broadcastradio/2.0/BnHwTunerSession.h"
  },
  {
   "function_name" : "android::hardware::broadcastradio::V2_0::BnHwTunerSession::BnHwTunerSession",
   "linker_set_key" : "_ZN7android8hardware14broadcastradio4V2_016BnHwTunerSessionC1ERKNS_2spINS2_13ITunerSessionEEE",
   "parameters" :
   [
    {
     "is_this_ptr" : true,
     "referenced_type" : "_ZTIPN7android8hardware14broadcastradio4V2_016BnHwTunerSessionE"
    },
    {
     "referenced_type" : "_ZTIRKN7android2spINS_8hardware14broadcastradio4V2_013ITunerSessionEEE"
    }
   ],
   "return_type" : "_ZTIv",
   "source_file" : "/out/soong/.intermediates/hardware/interfaces/broadcastradio/2.0/android.hardware.broadcastradio@2.0_genc++_headers/gen/android/hardware/broadcastradio/2.0/BnHwTunerSession.h"
  },
  {
   "function_name" : "android::hardware::broadcastradio::V2_0::BnHwTunerSession::BnHwTunerSession",
   "linker_set_key" : "_ZN7android8hardware14broadcastradio4V2_016BnHwTunerSessionC2ERKNS_2spINS2_13ITunerSessionEEE",
   "parameters" :
   [
    {
     "is_this_ptr" : true,
     "referenced_type" : "_ZTIPN7android8hardware14broadcastradio4V2_016BnHwTunerSessionE"
    },
    {
     "referenced_type" : "_ZTIRKN7android2spINS_8hardware14broadcastradio4V2_013ITunerSessionEEE"
    }
   ],
   "return_type" : "_ZTIv",
   "source_file" : "/out/soong/.intermediates/hardware/interfaces/broadcastradio/2.0/android.hardware.broadcastradio@2.0_genc++_headers/gen/android/hardware/broadcastradio/2.0/BnHwTunerSession.h"
  },
  {
   "function_name" : "android::hardware::broadcastradio::V2_0::BnHwTunerSession::~BnHwTunerSession",
   "linker_set_key" : "_ZN7android8hardware14broadcastradio4V2_016BnHwTunerSessionD0Ev",
   "parameters" :
   [
    {
     "is_this_ptr" : true,
     "referenced_type" : "_ZTIPN7android8hardware14broadcastradio4V2_016BnHwTunerSessionE"
    }
   ],
   "return_type" : "_ZTIv",
   "source_file" : "/out/soong/.intermediates/hardware/interfaces/broadcastradio/2.0/android.hardware.broadcastradio@2.0_genc++_headers/gen/android/hardware/broadcastradio/2.0/BnHwTunerSession.h"
  },
  {
   "function_name" : "android::hardware::broadcastradio::V2_0::BnHwTunerSession::~BnHwTunerSession",
   "linker_set_key" : "_ZN7android8hardware14broadcastradio4V2_016BnHwTunerSessionD1Ev",
   "parameters" :
   [
    {
     "is_this_ptr" : true,
     "referenced_type" : "_ZTIPN7android8hardware14broadcastradio4V2_016BnHwTunerSessionE"
    }
   ],
   "return_type" : "_ZTIv",
   "source_file" : "/out/soong/.intermediates/hardware/interfaces/broadcastradio/2.0/android.hardware.broadcastradio@2.0_genc++_headers/gen/android/hardware/broadcastradio/2.0/BnHwTunerSession.h"
  },
  {
   "function_name" : "android::hardware::broadcastradio::V2_0::BnHwTunerSession::~BnHwTunerSession",
   "linker_set_key" : "_ZN7android8hardware14broadcastradio4V2_016BnHwTunerSessionD2Ev",
   "parameters" :
   [
    {
     "is_this_ptr" : true,
     "referenced_type" : "_ZTIPN7android8hardware14broadcastradio4V2_016BnHwTunerSessionE"
    }
   ],
   "return_type" : "_ZTIv",
   "source_file" : "/out/soong/.intermediates/hardware/interfaces/broadcastradio/2.0/android.hardware.broadcastradio@2.0_genc++_headers/gen/android/hardware/broadcastradio/2.0/BnHwTunerSession.h"
  },
  {
   "function_name" : "android::hardware::broadcastradio::V2_0::BpHwTunerSession::_hidl_scan",
   "linker_set_key" : "_ZN7android8hardware14broadcastradio4V2_016BpHwTunerSession10_hidl_scanEPNS0_10IInterfaceEPNS0_7details16HidlInstrumentorEbb",
   "parameters" :
   [
    {
     "referenced_type" : "_ZTIPN7android8hardware10IInterfaceE"
    },
    {
     "referenced_type" : "_ZTIPN7android8hardware7details16HidlInstrumentorE"
    },
    {
     "referenced_type" : "_ZTIb"
    },
    {
     "referenced_type" : "_ZTIb"
    }
   ],
   "return_type" : "_ZTIN7android8hardware6ReturnINS0_14broadcastradio4V2_06ResultEEE",
   "source_file" : "/out/soong/.intermediates/hardware/interfaces/broadcastradio/2.0/android.hardware.broadcastradio@2.0_genc++_headers/gen/android/hardware/broadcastradio/2.0/BpHwTunerSession.h"
  },
  {
   "function_name" : "android::hardware::broadcastradio::V2_0::BpHwTunerSession::_hidl_step",
   "linker_set_key" : "_ZN7android8hardware14broadcastradio4V2_016BpHwTunerSession10_hidl_stepEPNS0_10IInterfaceEPNS0_7details16HidlInstrumentorEb",
   "parameters" :
   [
    {
     "referenced_type" : "_ZTIPN7android8hardware10IInterfaceE"
    },
    {
     "referenced_type" : "_ZTIPN7android8hardware7details16HidlInstrumentorE"
    },
    {
     "referenced_type" : "_ZTIb"
    }
   ],
   "return_type" : "_ZTIN7android8hardware6ReturnINS0_14broadcastradio4V2_06ResultEEE",
   "source_file" : "/out/soong/.intermediates/hardware/interfaces/broadcastradio/2.0/android.hardware.broadcastradio@2.0_genc++_headers/gen/android/hardware/broadcastradio/2.0/BpHwTunerSession.h"
  },
  {
   "function_name" : "android::hardware::broadcastradio::V2_0::BpHwTunerSession::_hidl_tune",
   "linker_set_key" : "_ZN7android8hardware14broadcastradio4V2_016BpHwTunerSession10_hidl_tuneEPNS0_10IInterfaceEPNS0_7details16HidlInstrumentorERKNS2_15ProgramSelectorE",
   "parameters" :
   [
    {
     "referenced_type" : "_ZTIPN7android8hardware10IInterfaceE"
    },
    {
     "referenced_type" : "_ZTIPN7android8hardware7details16HidlInstrumentorE"
    },
    {
     "referenced_type" : "_ZTIRKN7android8hardware14broadcastradio4V2_015ProgramSelectorE"
    }
   ],
   "return_type" : "_ZTIN7android8hardware6ReturnINS0_14broadcastradio4V2_06ResultEEE",
   "source_file" : "/out/soong/.intermediates/hardware/interfaces/broadcastradio/2.0/android.hardware.broadcastradio@2.0_genc++_headers/gen/android/hardware/broadcastradio/2.0/BpHwTunerSession.h"
  },
  {
   "function_name" : "android::hardware::broadcastradio::V2_0::BpHwTunerSession::_hidl_close",
   "linker_set_key" : "_ZN7android8hardware14broadcastradio4V2_016BpHwTunerSession11_hidl_closeEPNS0_10IInterfaceEPNS0_7details16HidlInstrumentorE",
   "parameters" :
   [
    {
     "referenced_type" : "_ZTIPN7android8hardware10IInterfaceE"
    },
    {
     "referenced_type" : "_ZTIPN7android8hardware7details16HidlInstrumentorE"
    }
   ],
   "return_type" : "_ZTIN7android8hardware6ReturnIvEE",
   "source_file" : "/out/soong/.intermediates/hardware/interfaces/broadcastradio/2.0/android.hardware.broadcastradio@2.0_genc++_headers/gen/android/hardware/broadcastradio/2.0/BpHwTunerSession.h"
  },
  {
   "function_name" : "android::hardware::broadcastradio::V2_0::BpHwTunerSession::linkToDeath",
   "linker_set_key" : "_ZN7android8hardware14broadcastradio4V2_016BpHwTunerSession11linkToDeathERKNS_2spINS0_20hidl_death_recipientEEEm",
   "parameters" :
   [
    {
     "is_this_ptr" : true,
     "referenced_type" : "_ZTIPN7android8hardware14broadcastradio4V2_016BpHwTunerSessionE"
    },
    {
     "referenced_type" : "_ZTIRKN7android2spINS_8hardware20hidl_death_recipientEEE"
    },
    {
     "referenced_type" : "_ZTIm"
    }
   ],
   "return_type" : "_ZTIN7android8hardware6ReturnIbEE",
   "source_file" : "/out/soong/.intermediates/hardware/interfaces/broadcastradio/2.0/android.hardware.broadcastradio@2.0_genc++_headers/gen/android/hardware/broadcastradio/2.0/BpHwTunerSession.h"
  },
  {
   "function_name" : "android::hardware::broadcastradio::V2_0::BpHwTunerSession::_hidl_cancel",
   "linker_set_key" : "_ZN7android8hardware14broadcastradio4V2_016BpHwTunerSession12_hidl_cancelEPNS0_10IInterfaceEPNS0_7details16HidlInstrumentorE",
   "parameters" :
   [
    {
     "referenced_type" : "_ZTIPN7android8hardware10IInterfaceE"
    },
    {
     "referenced_type" : "_ZTIPN7android8hardware7details16HidlInstrumentorE"
    }
   ],
   "return_type" : "_ZTIN7android8hardware6ReturnIvEE",
   "source_file" : "/out/soong/.intermediates/hardware/interfaces/broadcastradio/2.0/android.hardware.broadcastradio@2.0_genc++_headers/gen/android/hardware/broadcastradio/2.0/BpHwTunerSession.h"
  },
  {
   "function_name" : "android::hardware::broadcastradio::V2_0::BpHwTunerSession::getDebugInfo",
   "linker_set_key" : "_ZN7android8hardware14broadcastradio4V2_016BpHwTunerSession12getDebugInfoENSt3__18functionIFvRKNS_4hidl4base4V1_09DebugInfoEEEE",
   "parameters" :
   [
    {
     "is_this_ptr" : true,
     "referenced_type" : "_ZTIPN7android8hardware14broadcastradio4V2_016BpHwTunerSessionE"
    },
    {
     "referenced_type" : "_ZTINSt3__18functionIFvRKN7android4hidl4base4V1_09DebugInfoEEEE"
    }
   ],
   "return_type" : "_ZTIN7android8hardware6ReturnIvEE",
   "source_file" : "/out/soong/.intermediates/hardware/interfaces/broadcastradio/2.0/android.hardware.broadcastradio@2.0_genc++_headers/gen/android/hardware/broadcastradio/2.0/BpHwTunerSession.h"
  },
  {
   "function_name" : "android::hardware::broadcastradio::V2_0::BpHwTunerSession::getHashChain",
   "linker_set_key" : "_ZN7android8hardware14broadcastradio4V2_016BpHwTunerSession12getHashChainENSt3__18functionIFvRKNS0_8hidl_vecINS0_10hidl_arrayIhLm32EJEEEEEEEE",
   "parameters" :
   [
    {
     "is_this_ptr" : true,
     "referenced_type" : "_ZTIPN7android8hardware14broadcastradio4V2_016BpHwTunerSessionE"
    },
    {
     "referenced_type" : "_ZTINSt3__18functionIFvRKN7android8hardware8hidl_vecINS2_10hidl_arrayIhLm32EJEEEEEEEE"
    }
   ],
   "return_type" : "_ZTIN7android8hardware6ReturnIvEE",
   "source_file" : "/out/soong/.intermediates/hardware/interfaces/broadcastradio/2.0/android.hardware.broadcastradio@2.0_genc++_headers/gen/android/hardware/broadcastradio/2.0/BpHwTunerSession.h"
  },
  {
   "function_name" : "android::hardware::broadcastradio::V2_0::BpHwTunerSession::getParameters",
   "linker_set_key" : "_ZN7android8hardware14broadcastradio4V2_016BpHwTunerSession13getParametersERKNS0_8hidl_vecINS0_11hidl_stringEEENSt3__18functionIFvRKNS4_INS2_14VendorKeyValueEEEEEE",
   "parameters" :
   [
    {
     "is_this_ptr" : true,
     "referenced_type" : "_ZTIPN7android8hardware14broadcastradio4V2_016BpHwTunerSessionE"
    },
    {
     "referenced_type" : "_ZTIRKN7android8hardware8hidl_vecINS0_11hidl_stringEEE"
    },
    {
     "referenced_type" : "_ZTINSt3__18functionIFvRKN7android8hardware8hidl_vecINS2_14broadcastradio4V2_014VendorKeyValueEEEEEE"
    }
   ],
   "return_type" : "_ZTIN7android8hardware6ReturnIvEE",
   "source_file" : "/out/soong/.intermediates/hardware/interfaces/broadcastradio/2.0/android.hardware.broadcastradio@2.0_genc++_headers/gen/android/hardware/broadcastradio/2.0/BpHwTunerSession.h"
  },
  {
   "function_name" : "android::hardware::broadcastradio::V2_0::BpHwTunerSession::setConfigFlag",
   "linker_set_key" : "_ZN7android8hardware14broadcastradio4V2_016BpHwTunerSession13setConfigFlagENS2_10ConfigFlagEb",
   "parameters" :
   [
    {
     "is_this_ptr" : true,
     "referenced_type" : "_ZTIPN7android8hardware14broadcastradio4V2_016BpHwTunerSessionE"
    },
    {
     "referenced_type" : "_ZTIN7android8hardware14broadcastradio4V2_010ConfigFlagE"
    },
    {
     "referenced_type" : "_ZTIb"
    }
   ],
   "return_type" : "_ZTIN7android8hardware6ReturnINS0_14broadcastradio4V2_06ResultEEE",
   "source_file" : "/out/soong/.intermediates/hardware/interfaces/broadcastradio/2.0/android.hardware.broadcastradio@2.0_genc++_headers/gen/android/hardware/broadcastradio/2.0/BpHwTunerSession.h"
  },
  {
   "function_name" : "android::hardware::broadcastradio::V2_0::BpHwTunerSession::setParameters",
   "linker_set_key" : "_ZN7android8hardware14broadcastradio4V2_016BpHwTunerSession13setParametersERKNS0_8hidl_vecINS2_14VendorKeyValueEEENSt3__18functionIFvS8_EEE",
   "parameters" :
   [
    {
     "is_this_ptr" : true,
     "referenced_type" : "_ZTIPN7android8hardware14broadcastradio4V2_016BpHwTunerSessionE"
    },
    {
     "referenced_type" : "_ZTIRKN7android8hardware8hidl_vecINS0_14broadcastradio4V2_014VendorKeyValueEEE"
    },
    {
     "referenced_type" : "_ZTINSt3__18functionIFvRKN7android8hardware8hidl_vecINS2_14broadcastradio4V2_014VendorKeyValueEEEEEE"
    }
   ],
   "return_type" : "_ZTIN7android8hardware6ReturnIvEE",
   "source_file" : "/out/soong/.intermediates/hardware/interfaces/broadcastradio/2.0/android.hardware.broadcastradio@2.0_genc++_headers/gen/android/hardware/broadcastradio/2.0/BpHwTunerSession.h"
  },
  {
   "function_name" : "android::hardware::broadcastradio::V2_0::BpHwTunerSession::unlinkToDeath",
   "linker_set_key" : "_ZN7android8hardware14broadcastradio4V2_016BpHwTunerSession13unlinkToDeathERKNS_2spINS0_20hidl_death_recipientEEE",
   "parameters" :
   [
    {
     "is_this_ptr" : true,
     "referenced_type" : "_ZTIPN7android8hardware14broadcastradio4V2_016BpHwTunerSessionE"
    },
    {
     "referenced_type" : "_ZTIRKN7android2spINS_8hardware20hidl_death_recipientEEE"
    }
   ],
   "return_type" : "_ZTIN7android8hardware6ReturnIbEE",
   "source_file" : "/out/soong/.intermediates/hardware/interfaces/broadcastradio/2.0/android.hardware.broadcastradio@2.0_genc++_headers/gen/android/hardware/broadcastradio/2.0/BpHwTunerSession.h"
  },
  {
   "function_name" : "android::hardware::broadcastradio::V2_0::BpHwTunerSession::interfaceChain",
   "linker_set_key" : "_ZN7android8hardware14broadcastradio4V2_016BpHwTunerSession14interfaceChainENSt3__18functionIFvRKNS0_8hidl_vecINS0_11hidl_stringEEEEEE",
   "parameters" :
   [
    {
     "is_this_ptr" : true,
     "referenced_type" : "_ZTIPN7android8hardware14broadcastradio4V2_016BpHwTunerSessionE"
    },
    {
     "referenced_type" : "_ZTINSt3__18functionIFvRKN7android8hardware8hidl_vecINS2_11hidl_stringEEEEEE"
    }
   ],
   "return_type" : "_ZTIN7android8hardware6ReturnIvEE",
   "source_file" : "/out/soong/.intermediates/hardware/interfaces/broadcastradio/2.0/android.hardware.broadcastradio@2.0_genc++_headers/gen/android/hardware/broadcastradio/2.0/BpHwTunerSession.h"
  },
  {
   "function_name" : "android::hardware::broadcastradio::V2_0::BpHwTunerSession::isConfigFlagSet",
   "linker_set_key" : "_ZN7android8hardware14broadcastradio4V2_016BpHwTunerSession15isConfigFlagSetENS2_10ConfigFlagENSt3__18functionIFvNS2_6ResultEbEEE",
   "parameters" :
   [
    {
     "is_this_ptr" : true,
     "referenced_type" : "_ZTIPN7android8hardware14broadcastradio4V2_016BpHwTunerSessionE"
    },
    {
     "referenced_type" : "_ZTIN7android8hardware14broadcastradio4V2_010ConfigFlagE"
    },
    {
     "referenced_type" : "_ZTINSt3__18functionIFvN7android8hardware14broadcastradio4V2_06ResultEbEEE"
    }
   ],
   "return_type" : "_ZTIN7android8hardware6ReturnIvEE",
   "source_file" : "/out/soong/.intermediates/hardware/interfaces/broadcastradio/2.0/android.hardware.broadcastradio@2.0_genc++_headers/gen/android/hardware/broadcastradio/2.0/BpHwTunerSession.h"
  },
  {
   "function_name" : "android::hardware::broadcastradio::V2_0::BpHwTunerSession::onLastStrongRef",
   "linker_set_key" : "_ZN7android8hardware14broadcastradio4V2_016BpHwTunerSession15onLastStrongRefEPKv",
   "parameters" :
   [
    {
     "is_this_ptr" : true,
     "referenced_type" : "_ZTIPN7android8hardware14broadcastradio4V2_016BpHwTunerSessionE"
    },
    {
     "referenced_type" : "_ZTIPKv"
    }
   ],
   "return_type" : "_ZTIv",
   "source_file" : "/out/soong/.intermediates/hardware/interfaces/broadcastradio/2.0/android.hardware.broadcastradio@2.0_genc++_headers/gen/android/hardware/broadcastradio/2.0/BpHwTunerSession.h"
  },
  {
   "function_name" : "android::hardware::broadcastradio::V2_0::BpHwTunerSession::_hidl_getParameters",
   "linker_set_key" : "_ZN7android8hardware14broadcastradio4V2_016BpHwTunerSession19_hidl_getParametersEPNS0_10IInterfaceEPNS0_7details16HidlInstrumentorERKNS0_8hidl_vecINS0_11hidl_stringEEENSt3__18functionIFvRKNS9_INS2_14VendorKeyValueEEEEEE",
   "parameters" :
   [
    {
     "referenced_type" : "_ZTIPN7android8hardware10IInterfaceE"
    },
    {
     "referenced_type" : "_ZTIPN7android8hardware7details16HidlInstrumentorE"
    },
    {
     "referenced_type" : "_ZTIRKN7android8hardware8hidl_vecINS0_11hidl_stringEEE"
    },
    {
     "referenced_type" : "_ZTINSt3__18functionIFvRKN7android8hardware8hidl_vecINS2_14broadcastradio4V2_014VendorKeyValueEEEEEE"
    }
   ],
   "return_type" : "_ZTIN7android8hardware6ReturnIvEE",
   "source_file" : "/out/soong/.intermediates/hardware/interfaces/broadcastradio/2.0/android.hardware.broadcastradio@2.0_genc++_headers/gen/android/hardware/broadcastradio/2.0/BpHwTunerSession.h"
  },
  {
   "function_name" : "android::hardware::broadcastradio::V2_0::BpHwTunerSession::_hidl_setConfigFlag",
   "linker_set_key" : "_ZN7android8hardware14broadcastradio4V2_016BpHwTunerSession19_hidl_setConfigFlagEPNS0_10IInterfaceEPNS0_7details16HidlInstrumentorENS2_10ConfigFlagEb",
   "parameters" :
   [
    {
     "referenced_type" : "_ZTIPN7android8hardware10IInterfaceE"
    },
    {
     "referenced_type" : "_ZTIPN7android8hardware7details16HidlInstrumentorE"
    },
    {
     "referenced_type" : "_ZTIN7android8hardware14broadcastradio4V2_010ConfigFlagE"
    },
    {
     "referenced_type" : "_ZTIb"
    }
   ],
   "return_type" : "_ZTIN7android8hardware6ReturnINS0_14broadcastradio4V2_06ResultEEE",
   "source_file" : "/out/soong/.intermediates/hardware/interfaces/broadcastradio/2.0/android.hardware.broadcastradio@2.0_genc++_headers/gen/android/hardware/broadcastradio/2.0/BpHwTunerSession.h"
  },
  {
   "function_name" : "android::hardware::broadcastradio::V2_0::BpHwTunerSession::_hidl_setParameters",
   "linker_set_key" : "_ZN7android8hardware14broadcastradio4V2_016BpHwTunerSession19_hidl_setParametersEPNS0_10IInterfaceEPNS0_7details16HidlInstrumentorERKNS0_8hidl_vecINS2_14VendorKeyValueEEENSt3__18functionIFvSD_EEE",
   "parameters" :
   [
    {
     "referenced_type" : "_ZTIPN7android8hardware10IInterfaceE"
    },
    {
     "referenced_type" : "_ZTIPN7android8hardware7details16HidlInstrumentorE"
    },
    {
     "referenced_type" : "_ZTIRKN7android8hardware8hidl_vecINS0_14broadcastradio4V2_014VendorKeyValueEEE"
    },
    {
     "referenced_type" : "_ZTINSt3__18functionIFvRKN7android8hardware8hidl_vecINS2_14broadcastradio4V2_014VendorKeyValueEEEEEE"
    }
   ],
   "return_type" : "_ZTIN7android8hardware6ReturnIvEE",
   "source_file" : "/out/soong/.intermediates/hardware/interfaces/broadcastradio/2.0/android.hardware.broadcastradio@2.0_genc++_headers/gen/android/hardware/broadcastradio/2.0/BpHwTunerSession.h"
  },
  {
   "function_name" : "android::hardware::broadcastradio::V2_0::BpHwTunerSession::interfaceDescriptor",
   "linker_set_key" : "_ZN7android8hardware14broadcastradio4V2_016BpHwTunerSession19interfaceDescriptorENSt3__18functionIFvRKNS0_11hidl_stringEEEE",
   "parameters" :
   [
    {
     "is_this_ptr" : true,
     "referenced_type" : "_ZTIPN7android8hardware14broadcastradio4V2_016BpHwTunerSessionE"
    },
    {
     "referenced_type" : "_ZTINSt3__18functionIFvRKN7android8hardware11hidl_stringEEEE"
    }
   ],
   "return_type" : "_ZTIN7android8hardware6ReturnIvEE",
   "source_file" : "/out/soong/.intermediates/hardware/interfaces/broadcastradio/2.0/android.hardware.broadcastradio@2.0_genc++_headers/gen/android/hardware/broadcastradio/2.0/BpHwTunerSession.h"
  },
  {
   "function_name" : "android::hardware::broadcastradio::V2_0::BpHwTunerSession::_hidl_isConfigFlagSet",
   "linker_set_key" : "_ZN7android8hardware14broadcastradio4V2_016BpHwTunerSession21_hidl_isConfigFlagSetEPNS0_10IInterfaceEPNS0_7details16HidlInstrumentorENS2_10ConfigFlagENSt3__18functionIFvNS2_6ResultEbEEE",
   "parameters" :
   [
    {
     "referenced_type" : "_ZTIPN7android8hardware10IInterfaceE"
    },
    {
     "referenced_type" : "_ZTIPN7android8hardware7details16HidlInstrumentorE"
    },
    {
     "referenced_type" : "_ZTIN7android8hardware14broadcastradio4V2_010ConfigFlagE"
    },
    {
     "referenced_type" : "_ZTINSt3__18functionIFvN7android8hardware14broadcastradio4V2_06ResultEbEEE"
    }
   ],
   "return_type" : "_ZTIN7android8hardware6ReturnIvEE",
   "source_file" : "/out/soong/.intermediates/hardware/interfaces/broadcastradio/2.0/android.hardware.broadcastradio@2.0_genc++_headers/gen/android/hardware/broadcastradio/2.0/BpHwTunerSession.h"
  },
  {
   "function_name" : "android::hardware::broadcastradio::V2_0::BpHwTunerSession::notifySyspropsChanged",
   "linker_set_key" : "_ZN7android8hardware14broadcastradio4V2_016BpHwTunerSession21notifySyspropsChangedEv",
   "parameters" :
   [
    {
     "is_this_ptr" : true,
     "referenced_type" : "_ZTIPN7android8hardware14broadcastradio4V2_016BpHwTunerSessionE"
    }
   ],
   "return_type" : "_ZTIN7android8hardware6ReturnIvEE",
   "source_file" : "/out/soong/.intermediates/hardware/interfaces/broadcastradio/2.0/android.hardware.broadcastradio@2.0_genc++_headers/gen/android/hardware/broadcastradio/2.0/BpHwTunerSession.h"
  },
  {
   "function_name" : "android::hardware::broadcastradio::V2_0::BpHwTunerSession::setHALInstrumentation",
   "linker_set_key" : "_ZN7android8hardware14broadcastradio4V2_016BpHwTunerSession21setHALInstrumentationEv",
   "parameters" :
   [
    {
     "is_this_ptr" : true,
     "referenced_type" : "_ZTIPN7android8hardware14broadcastradio4V2_016BpHwTunerSessionE"
    }
   ],
   "return_type" : "_ZTIN7android8hardware6ReturnIvEE",
   "source_file" : "/out/soong/.intermediates/hardware/interfaces/broadcastradio/2.0/android.hardware.broadcastradio@2.0_genc++_headers/gen/android/hardware/broadcastradio/2.0/BpHwTunerSession.h"
  },
  {
   "function_name" : "android::hardware::broadcastradio::V2_0::BpHwTunerSession::stopProgramListUpdates",
   "linker_set_key" : "_ZN7android8hardware14broadcastradio4V2_016BpHwTunerSession22stopProgramListUpdatesEv",
   "parameters" :
   [
    {
     "is_this_ptr" : true,
     "referenced_type" : "_ZTIPN7android8hardware14broadcastradio4V2_016BpHwTunerSessionE"
    }
   ],
   "return_type" : "_ZTIN7android8hardware6ReturnIvEE",
   "source_file" : "/out/soong/.intermediates/hardware/interfaces/broadcastradio/2.0/android.hardware.broadcastradio@2.0_genc++_headers/gen/android/hardware/broadcastradio/2.0/BpHwTunerSession.h"
  },
  {
   "function_name" : "android::hardware::broadcastradio::V2_0::BpHwTunerSession::startProgramListUpdates",
   "linker_set_key" : "_ZN7android8hardware14broadcastradio4V2_016BpHwTunerSession23startProgramListUpdatesERKNS2_13ProgramFilterE",
   "parameters" :
   [
    {
     "is_this_ptr" : true,
     "referenced_type" : "_ZTIPN7android8hardware14broadcastradio4V2_016BpHwTunerSessionE"
    },
    {
     "referenced_type" : "_ZTIRKN7android8hardware14broadcastradio4V2_013ProgramFilterE"
    }
   ],
   "return_type" : "_ZTIN7android8hardware6ReturnINS0_14broadcastradio4V2_06ResultEEE",
   "source_file" : "/out/soong/.intermediates/hardware/interfaces/broadcastradio/2.0/android.hardware.broadcastradio@2.0_genc++_headers/gen/android/hardware/broadcastradio/2.0/BpHwTunerSession.h"
  },
  {
   "function_name" : "android::hardware::broadcastradio::V2_0::BpHwTunerSession::_hidl_stopProgramListUpdates",
   "linker_set_key" : "_ZN7android8hardware14broadcastradio4V2_016BpHwTunerSession28_hidl_stopProgramListUpdatesEPNS0_10IInterfaceEPNS0_7details16HidlInstrumentorE",
   "parameters" :
   [
    {
     "referenced_type" : "_ZTIPN7android8hardware10IInterfaceE"
    },
    {
     "referenced_type" : "_ZTIPN7android8hardware7details16HidlInstrumentorE"
    }
   ],
   "return_type" : "_ZTIN7android8hardware6ReturnIvEE",
   "source_file" : "/out/soong/.intermediates/hardware/interfaces/broadcastradio/2.0/android.hardware.broadcastradio@2.0_genc++_headers/gen/android/hardware/broadcastradio/2.0/BpHwTunerSession.h"
  },
  {
   "function_name" : "android::hardware::broadcastradio::V2_0::BpHwTunerSession::_hidl_startProgramListUpdates",
   "linker_set_key" : "_ZN7android8hardware14broadcastradio4V2_016BpHwTunerSession29_hidl_startProgramListUpdatesEPNS0_10IInterfaceEPNS0_7details16HidlInstrumentorERKNS2_13ProgramFilterE",
   "parameters" :
   [
    {
     "referenced_type" : "_ZTIPN7android8hardware10IInterfaceE"
    },
    {
     "referenced_type" : "_ZTIPN7android8hardware7details16HidlInstrumentorE"
    },
    {
     "referenced_type" : "_ZTIRKN7android8hardware14broadcastradio4V2_013ProgramFilterE"
    }
   ],
   "return_type" : "_ZTIN7android8hardware6ReturnINS0_14broadcastradio4V2_06ResultEEE",
   "source_file" : "/out/soong/.intermediates/hardware/interfaces/broadcastradio/2.0/android.hardware.broadcastradio@2.0_genc++_headers/gen/android/hardware/broadcastradio/2.0/BpHwTunerSession.h"
  },
  {
   "function_name" : "android::hardware::broadcastradio::V2_0::BpHwTunerSession::ping",
   "linker_set_key" : "_ZN7android8hardware14broadcastradio4V2_016BpHwTunerSession4pingEv",
   "parameters" :
   [
    {
     "is_this_ptr" : true,
     "referenced_type" : "_ZTIPN7android8hardware14broadcastradio4V2_016BpHwTunerSessionE"
    }
   ],
   "return_type" : "_ZTIN7android8hardware6ReturnIvEE",
   "source_file" : "/out/soong/.intermediates/hardware/interfaces/broadcastradio/2.0/android.hardware.broadcastradio@2.0_genc++_headers/gen/android/hardware/broadcastradio/2.0/BpHwTunerSession.h"
  },
  {
   "function_name" : "android::hardware::broadcastradio::V2_0::BpHwTunerSession::scan",
   "linker_set_key" : "_ZN7android8hardware14broadcastradio4V2_016BpHwTunerSession4scanEbb",
   "parameters" :
   [
    {
     "is_this_ptr" : true,
     "referenced_type" : "_ZTIPN7android8hardware14broadcastradio4V2_016BpHwTunerSessionE"
    },
    {
     "referenced_type" : "_ZTIb"
    },
    {
     "referenced_type" : "_ZTIb"
    }
   ],
   "return_type" : "_ZTIN7android8hardware6ReturnINS0_14broadcastradio4V2_06ResultEEE",
   "source_file" : "/out/soong/.intermediates/hardware/interfaces/broadcastradio/2.0/android.hardware.broadcastradio@2.0_genc++_headers/gen/android/hardware/broadcastradio/2.0/BpHwTunerSession.h"
  },
  {
   "function_name" : "android::hardware::broadcastradio::V2_0::BpHwTunerSession::step",
   "linker_set_key" : "_ZN7android8hardware14broadcastradio4V2_016BpHwTunerSession4stepEb",
   "parameters" :
   [
    {
     "is_this_ptr" : true,
     "referenced_type" : "_ZTIPN7android8hardware14broadcastradio4V2_016BpHwTunerSessionE"
    },
    {
     "referenced_type" : "_ZTIb"
    }
   ],
   "return_type" : "_ZTIN7android8hardware6ReturnINS0_14broadcastradio4V2_06ResultEEE",
   "source_file" : "/out/soong/.intermediates/hardware/interfaces/broadcastradio/2.0/android.hardware.broadcastradio@2.0_genc++_headers/gen/android/hardware/broadcastradio/2.0/BpHwTunerSession.h"
  },
  {
   "function_name" : "android::hardware::broadcastradio::V2_0::BpHwTunerSession::tune",
   "linker_set_key" : "_ZN7android8hardware14broadcastradio4V2_016BpHwTunerSession4tuneERKNS2_15ProgramSelectorE",
   "parameters" :
   [
    {
     "is_this_ptr" : true,
     "referenced_type" : "_ZTIPN7android8hardware14broadcastradio4V2_016BpHwTunerSessionE"
    },
    {
     "referenced_type" : "_ZTIRKN7android8hardware14broadcastradio4V2_015ProgramSelectorE"
    }
   ],
   "return_type" : "_ZTIN7android8hardware6ReturnINS0_14broadcastradio4V2_06ResultEEE",
   "source_file" : "/out/soong/.intermediates/hardware/interfaces/broadcastradio/2.0/android.hardware.broadcastradio@2.0_genc++_headers/gen/android/hardware/broadcastradio/2.0/BpHwTunerSession.h"
  },
  {
   "function_name" : "android::hardware::broadcastradio::V2_0::BpHwTunerSession::close",
   "linker_set_key" : "_ZN7android8hardware14broadcastradio4V2_016BpHwTunerSession5closeEv",
   "parameters" :
   [
    {
     "is_this_ptr" : true,
     "referenced_type" : "_ZTIPN7android8hardware14broadcastradio4V2_016BpHwTunerSessionE"
    }
   ],
   "return_type" : "_ZTIN7android8hardware6ReturnIvEE",
   "source_file" : "/out/soong/.intermediates/hardware/interfaces/broadcastradio/2.0/android.hardware.broadcastradio@2.0_genc++_headers/gen/android/hardware/broadcastradio/2.0/BpHwTunerSession.h"
  },
  {
   "function_name" : "android::hardware::broadcastradio::V2_0::BpHwTunerSession::debug",
   "linker_set_key" : "_ZN7android8hardware14broadcastradio4V2_016BpHwTunerSession5debugERKNS0_11hidl_handleERKNS0_8hidl_vecINS0_11hidl_stringEEE",
   "parameters" :
   [
    {
     "is_this_ptr" : true,
     "referenced_type" : "_ZTIPN7android8hardware14broadcastradio4V2_016BpHwTunerSessionE"
    },
    {
     "referenced_type" : "_ZTIRKN7android8hardware11hidl_handleE"
    },
    {
     "referenced_type" : "_ZTIRKN7android8hardware8hidl_vecINS0_11hidl_stringEEE"
    }
   ],
   "return_type" : "_ZTIN7android8hardware6ReturnIvEE",
   "source_file" : "/out/soong/.intermediates/hardware/interfaces/broadcastradio/2.0/android.hardware.broadcastradio@2.0_genc++_headers/gen/android/hardware/broadcastradio/2.0/BpHwTunerSession.h"
  },
  {
   "function_name" : "android::hardware::broadcastradio::V2_0::BpHwTunerSession::cancel",
   "linker_set_key" : "_ZN7android8hardware14broadcastradio4V2_016BpHwTunerSession6cancelEv",
   "parameters" :
   [
    {
     "is_this_ptr" : true,
     "referenced_type" : "_ZTIPN7android8hardware14broadcastradio4V2_016BpHwTunerSessionE"
    }
   ],
   "return_type" : "_ZTIN7android8hardware6ReturnIvEE",
   "source_file" : "/out/soong/.intermediates/hardware/interfaces/broadcastradio/2.0/android.hardware.broadcastradio@2.0_genc++_headers/gen/android/hardware/broadcastradio/2.0/BpHwTunerSession.h"
  },
  {
   "function_name" : "android::hardware::broadcastradio::V2_0::BpHwTunerSession::BpHwTunerSession",
   "linker_set_key" : "_ZN7android8hardware14broadcastradio4V2_016BpHwTunerSessionC1ERKNS_2spINS0_7IBinderEEE",
   "parameters" :
   [
    {
     "is_this_ptr" : true,
     "referenced_type" : "_ZTIPN7android8hardware14broadcastradio4V2_016BpHwTunerSessionE"
    },
    {
     "referenced_type" : "_ZTIRKN7android2spINS_8hardware7IBinderEEE"
    }
   ],
   "return_type" : "_ZTIv",
   "source_file" : "/out/soong/.intermediates/hardware/interfaces/broadcastradio/2.0/android.hardware.broadcastradio@2.0_genc++_headers/gen/android/hardware/broadcastradio/2.0/BpHwTunerSession.h"
  },
  {
   "function_name" : "android::hardware::broadcastradio::V2_0::BpHwTunerSession::BpHwTunerSession",
   "linker_set_key" : "_ZN7android8hardware14broadcastradio4V2_016BpHwTunerSessionC2ERKNS_2spINS0_7IBinderEEE",
   "parameters" :
   [
    {
     "is_this_ptr" : true,
     "referenced_type" : "_ZTIPN7android8hardware14broadcastradio4V2_016BpHwTunerSessionE"
    },
    {
     "referenced_type" : "_ZTIRKN7android2spINS_8hardware7IBinderEEE"
    }
   ],
   "return_type" : "_ZTIv",
   "source_file" : "/out/soong/.intermediates/hardware/interfaces/broadcastradio/2.0/android.hardware.broadcastradio@2.0_genc++_headers/gen/android/hardware/broadcastradio/2.0/BpHwTunerSession.h"
  },
  {
   "access" : "private",
   "function_name" : "android::hardware::broadcastradio::V2_0::BsBroadcastRadio::addOnewayTask",
   "linker_set_key" : "_ZN7android8hardware14broadcastradio4V2_016BsBroadcastRadio13addOnewayTaskENSt3__18functionIFvvEEE",
   "parameters" :
   [
    {
     "is_this_ptr" : true,
     "referenced_type" : "_ZTIPN7android8hardware14broadcastradio4V2_016BsBroadcastRadioE"
    },
    {
     "referenced_type" : "_ZTINSt3__18functionIFvvEEE"
    }
   ],
   "return_type" : "_ZTIN7android8hardware6ReturnIvEE",
   "source_file" : "/out/soong/.intermediates/hardware/interfaces/broadcastradio/2.0/android.hardware.broadcastradio@2.0_genc++_headers/gen/android/hardware/broadcastradio/2.0/BsBroadcastRadio.h"
  },
  {
   "function_name" : "android::hardware::broadcastradio::V2_0::BsBroadcastRadio::BsBroadcastRadio",
   "linker_set_key" : "_ZN7android8hardware14broadcastradio4V2_016BsBroadcastRadioC1ENS_2spINS2_15IBroadcastRadioEEE",
   "parameters" :
   [
    {
     "is_this_ptr" : true,
     "referenced_type" : "_ZTIPN7android8hardware14broadcastradio4V2_016BsBroadcastRadioE"
    },
    {
     "referenced_type" : "_ZTIKN7android2spINS_8hardware14broadcastradio4V2_015IBroadcastRadioEEE"
    }
   ],
   "return_type" : "_ZTIv",
   "source_file" : "/out/soong/.intermediates/hardware/interfaces/broadcastradio/2.0/android.hardware.broadcastradio@2.0_genc++_headers/gen/android/hardware/broadcastradio/2.0/BsBroadcastRadio.h"
  },
  {
   "function_name" : "android::hardware::broadcastradio::V2_0::BsBroadcastRadio::BsBroadcastRadio",
   "linker_set_key" : "_ZN7android8hardware14broadcastradio4V2_016BsBroadcastRadioC2ENS_2spINS2_15IBroadcastRadioEEE",
   "parameters" :
   [
    {
     "is_this_ptr" : true,
     "referenced_type" : "_ZTIPN7android8hardware14broadcastradio4V2_016BsBroadcastRadioE"
    },
    {
     "referenced_type" : "_ZTIKN7android2spINS_8hardware14broadcastradio4V2_015IBroadcastRadioEEE"
    }
   ],
   "return_type" : "_ZTIv",
   "source_file" : "/out/soong/.intermediates/hardware/interfaces/broadcastradio/2.0/android.hardware.broadcastradio@2.0_genc++_headers/gen/android/hardware/broadcastradio/2.0/BsBroadcastRadio.h"
  },
  {
   "function_name" : "android::hardware::broadcastradio::V2_0::BnHwTunerCallback::onTransact",
   "linker_set_key" : "_ZN7android8hardware14broadcastradio4V2_017BnHwTunerCallback10onTransactEjRKNS0_6ParcelEPS4_jNSt3__18functionIFvRS4_EEE",
   "parameters" :
   [
    {
     "is_this_ptr" : true,
     "referenced_type" : "_ZTIPN7android8hardware14broadcastradio4V2_017BnHwTunerCallbackE"
    },
    {
     "referenced_type" : "_ZTIj"
    },
    {
     "referenced_type" : "_ZTIRKN7android8hardware6ParcelE"
    },
    {
     "referenced_type" : "_ZTIPN7android8hardware6ParcelE"
    },
    {
     "default_arg" : true,
     "referenced_type" : "_ZTIj"
    },
    {
     "default_arg" : true,
     "referenced_type" : "_ZTINSt3__18functionIFvRN7android8hardware6ParcelEEEE"
    }
   ],
   "return_type" : "_ZTIi",
   "source_file" : "/out/soong/.intermediates/hardware/interfaces/broadcastradio/2.0/android.hardware.broadcastradio@2.0_genc++_headers/gen/android/hardware/broadcastradio/2.0/BnHwTunerCallback.h"
  },
  {
   "access" : "private",
   "function_name" : "android::hardware::broadcastradio::V2_0::BnHwTunerCallback::getDebugInfo",
   "linker_set_key" : "_ZN7android8hardware14broadcastradio4V2_017BnHwTunerCallback12getDebugInfoENSt3__18functionIFvRKNS_4hidl4base4V1_09DebugInfoEEEE",
   "parameters" :
   [
    {
     "is_this_ptr" : true,
     "referenced_type" : "_ZTIPN7android8hardware14broadcastradio4V2_017BnHwTunerCallbackE"
    },
    {
     "referenced_type" : "_ZTINSt3__18functionIFvRKN7android4hidl4base4V1_09DebugInfoEEEE"
    }
   ],
   "return_type" : "_ZTIN7android8hardware6ReturnIvEE",
   "source_file" : "/out/soong/.intermediates/hardware/interfaces/broadcastradio/2.0/android.hardware.broadcastradio@2.0_genc++_headers/gen/android/hardware/broadcastradio/2.0/BnHwTunerCallback.h"
  },
  {
   "function_name" : "android::hardware::broadcastradio::V2_0::BnHwTunerCallback::_hidl_onTuneFailed",
   "linker_set_key" : "_ZN7android8hardware14broadcastradio4V2_017BnHwTunerCallback18_hidl_onTuneFailedEPNS_4hidl4base4V1_08BnHwBaseERKNS0_6ParcelEPS9_NSt3__18functionIFvRS9_EEE",
   "parameters" :
   [
    {
     "referenced_type" : "_ZTIPN7android4hidl4base4V1_08BnHwBaseE"
    },
    {
     "referenced_type" : "_ZTIRKN7android8hardware6ParcelE"
    },
    {
     "referenced_type" : "_ZTIPN7android8hardware6ParcelE"
    },
    {
     "referenced_type" : "_ZTINSt3__18functionIFvRN7android8hardware6ParcelEEEE"
    }
   ],
   "return_type" : "_ZTIi",
   "source_file" : "/out/soong/.intermediates/hardware/interfaces/broadcastradio/2.0/android.hardware.broadcastradio@2.0_genc++_headers/gen/android/hardware/broadcastradio/2.0/BnHwTunerCallback.h"
  },
  {
   "function_name" : "android::hardware::broadcastradio::V2_0::BnHwTunerCallback::_hidl_onParametersUpdated",
   "linker_set_key" : "_ZN7android8hardware14broadcastradio4V2_017BnHwTunerCallback25_hidl_onParametersUpdatedEPNS_4hidl4base4V1_08BnHwBaseERKNS0_6ParcelEPS9_NSt3__18functionIFvRS9_EEE",
   "parameters" :
   [
    {
     "referenced_type" : "_ZTIPN7android4hidl4base4V1_08BnHwBaseE"
    },
    {
     "referenced_type" : "_ZTIRKN7android8hardware6ParcelE"
    },
    {
     "referenced_type" : "_ZTIPN7android8hardware6ParcelE"
    },
    {
     "referenced_type" : "_ZTINSt3__18functionIFvRN7android8hardware6ParcelEEEE"
    }
   ],
   "return_type" : "_ZTIi",
   "source_file" : "/out/soong/.intermediates/hardware/interfaces/broadcastradio/2.0/android.hardware.broadcastradio@2.0_genc++_headers/gen/android/hardware/broadcastradio/2.0/BnHwTunerCallback.h"
  },
  {
   "function_name" : "android::hardware::broadcastradio::V2_0::BnHwTunerCallback::_hidl_onAntennaStateChange",
   "linker_set_key" : "_ZN7android8hardware14broadcastradio4V2_017BnHwTunerCallback26_hidl_onAntennaStateChangeEPNS_4hidl4base4V1_08BnHwBaseERKNS0_6ParcelEPS9_NSt3__18functionIFvRS9_EEE",
   "parameters" :
   [
    {
     "referenced_type" : "_ZTIPN7android4hidl4base4V1_08BnHwBaseE"
    },
    {
     "referenced_type" : "_ZTIRKN7android8hardware6ParcelE"
    },
    {
     "referenced_type" : "_ZTIPN7android8hardware6ParcelE"
    },
    {
     "referenced_type" : "_ZTINSt3__18functionIFvRN7android8hardware6ParcelEEEE"
    }
   ],
   "return_type" : "_ZTIi",
   "source_file" : "/out/soong/.intermediates/hardware/interfaces/broadcastradio/2.0/android.hardware.broadcastradio@2.0_genc++_headers/gen/android/hardware/broadcastradio/2.0/BnHwTunerCallback.h"
  },
  {
   "function_name" : "android::hardware::broadcastradio::V2_0::BnHwTunerCallback::_hidl_onProgramListUpdated",
   "linker_set_key" : "_ZN7android8hardware14broadcastradio4V2_017BnHwTunerCallback26_hidl_onProgramListUpdatedEPNS_4hidl4base4V1_08BnHwBaseERKNS0_6ParcelEPS9_NSt3__18functionIFvRS9_EEE",
   "parameters" :
   [
    {
     "referenced_type" : "_ZTIPN7android4hidl4base4V1_08BnHwBaseE"
    },
    {
     "referenced_type" : "_ZTIRKN7android8hardware6ParcelE"
    },
    {
     "referenced_type" : "_ZTIPN7android8hardware6ParcelE"
    },
    {
     "referenced_type" : "_ZTINSt3__18functionIFvRN7android8hardware6ParcelEEEE"
    }
   ],
   "return_type" : "_ZTIi",
   "source_file" : "/out/soong/.intermediates/hardware/interfaces/broadcastradio/2.0/android.hardware.broadcastradio@2.0_genc++_headers/gen/android/hardware/broadcastradio/2.0/BnHwTunerCallback.h"
  },
  {
   "function_name" : "android::hardware::broadcastradio::V2_0::BnHwTunerCallback::_hidl_onCurrentProgramInfoChanged",
   "linker_set_key" : "_ZN7android8hardware14broadcastradio4V2_017BnHwTunerCallback33_hidl_onCurrentProgramInfoChangedEPNS_4hidl4base4V1_08BnHwBaseERKNS0_6ParcelEPS9_NSt3__18functionIFvRS9_EEE",
   "parameters" :
   [
    {
     "referenced_type" : "_ZTIPN7android4hidl4base4V1_08BnHwBaseE"
    },
    {
     "referenced_type" : "_ZTIRKN7android8hardware6ParcelE"
    },
    {
     "referenced_type" : "_ZTIPN7android8hardware6ParcelE"
    },
    {
     "referenced_type" : "_ZTINSt3__18functionIFvRN7android8hardware6ParcelEEEE"
    }
   ],
   "return_type" : "_ZTIi",
   "source_file" : "/out/soong/.intermediates/hardware/interfaces/broadcastradio/2.0/android.hardware.broadcastradio@2.0_genc++_headers/gen/android/hardware/broadcastradio/2.0/BnHwTunerCallback.h"
  },
  {
   "access" : "private",
   "function_name" : "android::hardware::broadcastradio::V2_0::BnHwTunerCallback::ping",
   "linker_set_key" : "_ZN7android8hardware14broadcastradio4V2_017BnHwTunerCallback4pingEv",
   "parameters" :
   [
    {
     "is_this_ptr" : true,
     "referenced_type" : "_ZTIPN7android8hardware14broadcastradio4V2_017BnHwTunerCallbackE"
    }
   ],
   "return_type" : "_ZTIN7android8hardware6ReturnIvEE",
   "source_file" : "/out/soong/.intermediates/hardware/interfaces/broadcastradio/2.0/android.hardware.broadcastradio@2.0_genc++_headers/gen/android/hardware/broadcastradio/2.0/BnHwTunerCallback.h"
  },
  {
   "function_name" : "android::hardware::broadcastradio::V2_0::BnHwTunerCallback::BnHwTunerCallback",
   "linker_set_key" : "_ZN7android8hardware14broadcastradio4V2_017BnHwTunerCallbackC1ERKNS_2spINS2_14ITunerCallbackEEE",
   "parameters" :
   [
    {
     "is_this_ptr" : true,
     "referenced_type" : "_ZTIPN7android8hardware14broadcastradio4V2_017BnHwTunerCallbackE"
    },
    {
     "referenced_type" : "_ZTIRKN7android2spINS_8hardware14broadcastradio4V2_014ITunerCallbackEEE"
    }
   ],
   "return_type" : "_ZTIv",
   "source_file" : "/out/soong/.intermediates/hardware/interfaces/broadcastradio/2.0/android.hardware.broadcastradio@2.0_genc++_headers/gen/android/hardware/broadcastradio/2.0/BnHwTunerCallback.h"
  },
  {
   "function_name" : "android::hardware::broadcastradio::V2_0::BnHwTunerCallback::BnHwTunerCallback",
   "linker_set_key" : "_ZN7android8hardware14broadcastradio4V2_017BnHwTunerCallbackC2ERKNS_2spINS2_14ITunerCallbackEEE",
   "parameters" :
   [
    {
     "is_this_ptr" : true,
     "referenced_type" : "_ZTIPN7android8hardware14broadcastradio4V2_017BnHwTunerCallbackE"
    },
    {
     "referenced_type" : "_ZTIRKN7android2spINS_8hardware14broadcastradio4V2_014ITunerCallbackEEE"
    }
   ],
   "return_type" : "_ZTIv",
   "source_file" : "/out/soong/.intermediates/hardware/interfaces/broadcastradio/2.0/android.hardware.broadcastradio@2.0_genc++_headers/gen/android/hardware/broadcastradio/2.0/BnHwTunerCallback.h"
  },
  {
   "function_name" : "android::hardware::broadcastradio::V2_0::BnHwTunerCallback::~BnHwTunerCallback",
   "linker_set_key" : "_ZN7android8hardware14broadcastradio4V2_017BnHwTunerCallbackD0Ev",
   "parameters" :
   [
    {
     "is_this_ptr" : true,
     "referenced_type" : "_ZTIPN7android8hardware14broadcastradio4V2_017BnHwTunerCallbackE"
    }
   ],
   "return_type" : "_ZTIv",
   "source_file" : "/out/soong/.intermediates/hardware/interfaces/broadcastradio/2.0/android.hardware.broadcastradio@2.0_genc++_headers/gen/android/hardware/broadcastradio/2.0/BnHwTunerCallback.h"
  },
  {
   "function_name" : "android::hardware::broadcastradio::V2_0::BnHwTunerCallback::~BnHwTunerCallback",
   "linker_set_key" : "_ZN7android8hardware14broadcastradio4V2_017BnHwTunerCallbackD1Ev",
   "parameters" :
   [
    {
     "is_this_ptr" : true,
     "referenced_type" : "_ZTIPN7android8hardware14broadcastradio4V2_017BnHwTunerCallbackE"
    }
   ],
   "return_type" : "_ZTIv",
   "source_file" : "/out/soong/.intermediates/hardware/interfaces/broadcastradio/2.0/android.hardware.broadcastradio@2.0_genc++_headers/gen/android/hardware/broadcastradio/2.0/BnHwTunerCallback.h"
  },
  {
   "function_name" : "android::hardware::broadcastradio::V2_0::BnHwTunerCallback::~BnHwTunerCallback",
   "linker_set_key" : "_ZN7android8hardware14broadcastradio4V2_017BnHwTunerCallbackD2Ev",
   "parameters" :
   [
    {
     "is_this_ptr" : true,
     "referenced_type" : "_ZTIPN7android8hardware14broadcastradio4V2_017BnHwTunerCallbackE"
    }
   ],
   "return_type" : "_ZTIv",
   "source_file" : "/out/soong/.intermediates/hardware/interfaces/broadcastradio/2.0/android.hardware.broadcastradio@2.0_genc++_headers/gen/android/hardware/broadcastradio/2.0/BnHwTunerCallback.h"
  },
  {
   "function_name" : "android::hardware::broadcastradio::V2_0::BpHwTunerCallback::linkToDeath",
   "linker_set_key" : "_ZN7android8hardware14broadcastradio4V2_017BpHwTunerCallback11linkToDeathERKNS_2spINS0_20hidl_death_recipientEEEm",
   "parameters" :
   [
    {
     "is_this_ptr" : true,
     "referenced_type" : "_ZTIPN7android8hardware14broadcastradio4V2_017BpHwTunerCallbackE"
    },
    {
     "referenced_type" : "_ZTIRKN7android2spINS_8hardware20hidl_death_recipientEEE"
    },
    {
     "referenced_type" : "_ZTIm"
    }
   ],
   "return_type" : "_ZTIN7android8hardware6ReturnIbEE",
   "source_file" : "/out/soong/.intermediates/hardware/interfaces/broadcastradio/2.0/android.hardware.broadcastradio@2.0_genc++_headers/gen/android/hardware/broadcastradio/2.0/BpHwTunerCallback.h"
  },
  {
   "function_name" : "android::hardware::broadcastradio::V2_0::BpHwTunerCallback::getDebugInfo",
   "linker_set_key" : "_ZN7android8hardware14broadcastradio4V2_017BpHwTunerCallback12getDebugInfoENSt3__18functionIFvRKNS_4hidl4base4V1_09DebugInfoEEEE",
   "parameters" :
   [
    {
     "is_this_ptr" : true,
     "referenced_type" : "_ZTIPN7android8hardware14broadcastradio4V2_017BpHwTunerCallbackE"
    },
    {
     "referenced_type" : "_ZTINSt3__18functionIFvRKN7android4hidl4base4V1_09DebugInfoEEEE"
    }
   ],
   "return_type" : "_ZTIN7android8hardware6ReturnIvEE",
   "source_file" : "/out/soong/.intermediates/hardware/interfaces/broadcastradio/2.0/android.hardware.broadcastradio@2.0_genc++_headers/gen/android/hardware/broadcastradio/2.0/BpHwTunerCallback.h"
  },
  {
   "function_name" : "android::hardware::broadcastradio::V2_0::BpHwTunerCallback::getHashChain",
   "linker_set_key" : "_ZN7android8hardware14broadcastradio4V2_017BpHwTunerCallback12getHashChainENSt3__18functionIFvRKNS0_8hidl_vecINS0_10hidl_arrayIhLm32EJEEEEEEEE",
   "parameters" :
   [
    {
     "is_this_ptr" : true,
     "referenced_type" : "_ZTIPN7android8hardware14broadcastradio4V2_017BpHwTunerCallbackE"
    },
    {
     "referenced_type" : "_ZTINSt3__18functionIFvRKN7android8hardware8hidl_vecINS2_10hidl_arrayIhLm32EJEEEEEEEE"
    }
   ],
   "return_type" : "_ZTIN7android8hardware6ReturnIvEE",
   "source_file" : "/out/soong/.intermediates/hardware/interfaces/broadcastradio/2.0/android.hardware.broadcastradio@2.0_genc++_headers/gen/android/hardware/broadcastradio/2.0/BpHwTunerCallback.h"
  },
  {
   "function_name" : "android::hardware::broadcastradio::V2_0::BpHwTunerCallback::onTuneFailed",
   "linker_set_key" : "_ZN7android8hardware14broadcastradio4V2_017BpHwTunerCallback12onTuneFailedENS2_6ResultERKNS2_15ProgramSelectorE",
   "parameters" :
   [
    {
     "is_this_ptr" : true,
     "referenced_type" : "_ZTIPN7android8hardware14broadcastradio4V2_017BpHwTunerCallbackE"
    },
    {
     "referenced_type" : "_ZTIN7android8hardware14broadcastradio4V2_06ResultE"
    },
    {
     "referenced_type" : "_ZTIRKN7android8hardware14broadcastradio4V2_015ProgramSelectorE"
    }
   ],
   "return_type" : "_ZTIN7android8hardware6ReturnIvEE",
   "source_file" : "/out/soong/.intermediates/hardware/interfaces/broadcastradio/2.0/android.hardware.broadcastradio@2.0_genc++_headers/gen/android/hardware/broadcastradio/2.0/BpHwTunerCallback.h"
  },
  {
   "function_name" : "android::hardware::broadcastradio::V2_0::BpHwTunerCallback::unlinkToDeath",
   "linker_set_key" : "_ZN7android8hardware14broadcastradio4V2_017BpHwTunerCallback13unlinkToDeathERKNS_2spINS0_20hidl_death_recipientEEE",
   "parameters" :
   [
    {
     "is_this_ptr" : true,
     "referenced_type" : "_ZTIPN7android8hardware14broadcastradio4V2_017BpHwTunerCallbackE"
    },
    {
     "referenced_type" : "_ZTIRKN7android2spINS_8hardware20hidl_death_recipientEEE"
    }
   ],
   "return_type" : "_ZTIN7android8hardware6ReturnIbEE",
   "source_file" : "/out/soong/.intermediates/hardware/interfaces/broadcastradio/2.0/android.hardware.broadcastradio@2.0_genc++_headers/gen/android/hardware/broadcastradio/2.0/BpHwTunerCallback.h"
  },
  {
   "function_name" : "android::hardware::broadcastradio::V2_0::BpHwTunerCallback::interfaceChain",
   "linker_set_key" : "_ZN7android8hardware14broadcastradio4V2_017BpHwTunerCallback14interfaceChainENSt3__18functionIFvRKNS0_8hidl_vecINS0_11hidl_stringEEEEEE",
   "parameters" :
   [
    {
     "is_this_ptr" : true,
     "referenced_type" : "_ZTIPN7android8hardware14broadcastradio4V2_017BpHwTunerCallbackE"
    },
    {
     "referenced_type" : "_ZTINSt3__18functionIFvRKN7android8hardware8hidl_vecINS2_11hidl_stringEEEEEE"
    }
   ],
   "return_type" : "_ZTIN7android8hardware6ReturnIvEE",
   "source_file" : "/out/soong/.intermediates/hardware/interfaces/broadcastradio/2.0/android.hardware.broadcastradio@2.0_genc++_headers/gen/android/hardware/broadcastradio/2.0/BpHwTunerCallback.h"
  },
  {
   "function_name" : "android::hardware::broadcastradio::V2_0::BpHwTunerCallback::onLastStrongRef",
   "linker_set_key" : "_ZN7android8hardware14broadcastradio4V2_017BpHwTunerCallback15onLastStrongRefEPKv",
   "parameters" :
   [
    {
     "is_this_ptr" : true,
     "referenced_type" : "_ZTIPN7android8hardware14broadcastradio4V2_017BpHwTunerCallbackE"
    },
    {
     "referenced_type" : "_ZTIPKv"
    }
   ],
   "return_type" : "_ZTIv",
   "source_file" : "/out/soong/.intermediates/hardware/interfaces/broadcastradio/2.0/android.hardware.broadcastradio@2.0_genc++_headers/gen/android/hardware/broadcastradio/2.0/BpHwTunerCallback.h"
  },
  {
   "function_name" : "android::hardware::broadcastradio::V2_0::BpHwTunerCallback::_hidl_onTuneFailed",
   "linker_set_key" : "_ZN7android8hardware14broadcastradio4V2_017BpHwTunerCallback18_hidl_onTuneFailedEPNS0_10IInterfaceEPNS0_7details16HidlInstrumentorENS2_6ResultERKNS2_15ProgramSelectorE",
   "parameters" :
   [
    {
     "referenced_type" : "_ZTIPN7android8hardware10IInterfaceE"
    },
    {
     "referenced_type" : "_ZTIPN7android8hardware7details16HidlInstrumentorE"
    },
    {
     "referenced_type" : "_ZTIN7android8hardware14broadcastradio4V2_06ResultE"
    },
    {
     "referenced_type" : "_ZTIRKN7android8hardware14broadcastradio4V2_015ProgramSelectorE"
    }
   ],
   "return_type" : "_ZTIN7android8hardware6ReturnIvEE",
   "source_file" : "/out/soong/.intermediates/hardware/interfaces/broadcastradio/2.0/android.hardware.broadcastradio@2.0_genc++_headers/gen/android/hardware/broadcastradio/2.0/BpHwTunerCallback.h"
  },
  {
   "function_name" : "android::hardware::broadcastradio::V2_0::BpHwTunerCallback::interfaceDescriptor",
   "linker_set_key" : "_ZN7android8hardware14broadcastradio4V2_017BpHwTunerCallback19interfaceDescriptorENSt3__18functionIFvRKNS0_11hidl_stringEEEE",
   "parameters" :
   [
    {
     "is_this_ptr" : true,
     "referenced_type" : "_ZTIPN7android8hardware14broadcastradio4V2_017BpHwTunerCallbackE"
    },
    {
     "referenced_type" : "_ZTINSt3__18functionIFvRKN7android8hardware11hidl_stringEEEE"
    }
   ],
   "return_type" : "_ZTIN7android8hardware6ReturnIvEE",
   "source_file" : "/out/soong/.intermediates/hardware/interfaces/broadcastradio/2.0/android.hardware.broadcastradio@2.0_genc++_headers/gen/android/hardware/broadcastradio/2.0/BpHwTunerCallback.h"
  },
  {
   "function_name" : "android::hardware::broadcastradio::V2_0::BpHwTunerCallback::onParametersUpdated",
   "linker_set_key" : "_ZN7android8hardware14broadcastradio4V2_017BpHwTunerCallback19onParametersUpdatedERKNS0_8hidl_vecINS2_14VendorKeyValueEEE",
   "parameters" :
   [
    {
     "is_this_ptr" : true,
     "referenced_type" : "_ZTIPN7android8hardware14broadcastradio4V2_017BpHwTunerCallbackE"
    },
    {
     "referenced_type" : "_ZTIRKN7android8hardware8hidl_vecINS0_14broadcastradio4V2_014VendorKeyValueEEE"
    }
   ],
   "return_type" : "_ZTIN7android8hardware6ReturnIvEE",
   "source_file" : "/out/soong/.intermediates/hardware/interfaces/broadcastradio/2.0/android.hardware.broadcastradio@2.0_genc++_headers/gen/android/hardware/broadcastradio/2.0/BpHwTunerCallback.h"
  },
  {
   "function_name" : "android::hardware::broadcastradio::V2_0::BpHwTunerCallback::onAntennaStateChange",
   "linker_set_key" : "_ZN7android8hardware14broadcastradio4V2_017BpHwTunerCallback20onAntennaStateChangeEb",
   "parameters" :
   [
    {
     "is_this_ptr" : true,
     "referenced_type" : "_ZTIPN7android8hardware14broadcastradio4V2_017BpHwTunerCallbackE"
    },
    {
     "referenced_type" : "_ZTIb"
    }
   ],
   "return_type" : "_ZTIN7android8hardware6ReturnIvEE",
   "source_file" : "/out/soong/.intermediates/hardware/interfaces/broadcastradio/2.0/android.hardware.broadcastradio@2.0_genc++_headers/gen/android/hardware/broadcastradio/2.0/BpHwTunerCallback.h"
  },
  {
   "function_name" : "android::hardware::broadcastradio::V2_0::BpHwTunerCallback::onProgramListUpdated",
   "linker_set_key" : "_ZN7android8hardware14broadcastradio4V2_017BpHwTunerCallback20onProgramListUpdatedERKNS2_16ProgramListChunkE",
   "parameters" :
   [
    {
     "is_this_ptr" : true,
     "referenced_type" : "_ZTIPN7android8hardware14broadcastradio4V2_017BpHwTunerCallbackE"
    },
    {
     "referenced_type" : "_ZTIRKN7android8hardware14broadcastradio4V2_016ProgramListChunkE"
    }
   ],
   "return_type" : "_ZTIN7android8hardware6ReturnIvEE",
   "source_file" : "/out/soong/.intermediates/hardware/interfaces/broadcastradio/2.0/android.hardware.broadcastradio@2.0_genc++_headers/gen/android/hardware/broadcastradio/2.0/BpHwTunerCallback.h"
  },
  {
   "function_name" : "android::hardware::broadcastradio::V2_0::BpHwTunerCallback::notifySyspropsChanged",
   "linker_set_key" : "_ZN7android8hardware14broadcastradio4V2_017BpHwTunerCallback21notifySyspropsChangedEv",
   "parameters" :
   [
    {
     "is_this_ptr" : true,
     "referenced_type" : "_ZTIPN7android8hardware14broadcastradio4V2_017BpHwTunerCallbackE"
    }
   ],
   "return_type" : "_ZTIN7android8hardware6ReturnIvEE",
   "source_file" : "/out/soong/.intermediates/hardware/interfaces/broadcastradio/2.0/android.hardware.broadcastradio@2.0_genc++_headers/gen/android/hardware/broadcastradio/2.0/BpHwTunerCallback.h"
  },
  {
   "function_name" : "android::hardware::broadcastradio::V2_0::BpHwTunerCallback::setHALInstrumentation",
   "linker_set_key" : "_ZN7android8hardware14broadcastradio4V2_017BpHwTunerCallback21setHALInstrumentationEv",
   "parameters" :
   [
    {
     "is_this_ptr" : true,
     "referenced_type" : "_ZTIPN7android8hardware14broadcastradio4V2_017BpHwTunerCallbackE"
    }
   ],
   "return_type" : "_ZTIN7android8hardware6ReturnIvEE",
   "source_file" : "/out/soong/.intermediates/hardware/interfaces/broadcastradio/2.0/android.hardware.broadcastradio@2.0_genc++_headers/gen/android/hardware/broadcastradio/2.0/BpHwTunerCallback.h"
  },
  {
   "function_name" : "android::hardware::broadcastradio::V2_0::BpHwTunerCallback::_hidl_onParametersUpdated",
   "linker_set_key" : "_ZN7android8hardware14broadcastradio4V2_017BpHwTunerCallback25_hidl_onParametersUpdatedEPNS0_10IInterfaceEPNS0_7details16HidlInstrumentorERKNS0_8hidl_vecINS2_14VendorKeyValueEEE",
   "parameters" :
   [
    {
     "referenced_type" : "_ZTIPN7android8hardware10IInterfaceE"
    },
    {
     "referenced_type" : "_ZTIPN7android8hardware7details16HidlInstrumentorE"
    },
    {
     "referenced_type" : "_ZTIRKN7android8hardware8hidl_vecINS0_14broadcastradio4V2_014VendorKeyValueEEE"
    }
   ],
   "return_type" : "_ZTIN7android8hardware6ReturnIvEE",
   "source_file" : "/out/soong/.intermediates/hardware/interfaces/broadcastradio/2.0/android.hardware.broadcastradio@2.0_genc++_headers/gen/android/hardware/broadcastradio/2.0/BpHwTunerCallback.h"
  },
  {
   "function_name" : "android::hardware::broadcastradio::V2_0::BpHwTunerCallback::_hidl_onAntennaStateChange",
   "linker_set_key" : "_ZN7android8hardware14broadcastradio4V2_017BpHwTunerCallback26_hidl_onAntennaStateChangeEPNS0_10IInterfaceEPNS0_7details16HidlInstrumentorEb",
   "parameters" :
   [
    {
     "referenced_type" : "_ZTIPN7android8hardware10IInterfaceE"
    },
    {
     "referenced_type" : "_ZTIPN7android8hardware7details16HidlInstrumentorE"
    },
    {
     "referenced_type" : "_ZTIb"
    }
   ],
   "return_type" : "_ZTIN7android8hardware6ReturnIvEE",
   "source_file" : "/out/soong/.intermediates/hardware/interfaces/broadcastradio/2.0/android.hardware.broadcastradio@2.0_genc++_headers/gen/android/hardware/broadcastradio/2.0/BpHwTunerCallback.h"
  },
  {
   "function_name" : "android::hardware::broadcastradio::V2_0::BpHwTunerCallback::_hidl_onProgramListUpdated",
   "linker_set_key" : "_ZN7android8hardware14broadcastradio4V2_017BpHwTunerCallback26_hidl_onProgramListUpdatedEPNS0_10IInterfaceEPNS0_7details16HidlInstrumentorERKNS2_16ProgramListChunkE",
   "parameters" :
   [
    {
     "referenced_type" : "_ZTIPN7android8hardware10IInterfaceE"
    },
    {
     "referenced_type" : "_ZTIPN7android8hardware7details16HidlInstrumentorE"
    },
    {
     "referenced_type" : "_ZTIRKN7android8hardware14broadcastradio4V2_016ProgramListChunkE"
    }
   ],
   "return_type" : "_ZTIN7android8hardware6ReturnIvEE",
   "source_file" : "/out/soong/.intermediates/hardware/interfaces/broadcastradio/2.0/android.hardware.broadcastradio@2.0_genc++_headers/gen/android/hardware/broadcastradio/2.0/BpHwTunerCallback.h"
  },
  {
   "function_name" : "android::hardware::broadcastradio::V2_0::BpHwTunerCallback::onCurrentProgramInfoChanged",
   "linker_set_key" : "_ZN7android8hardware14broadcastradio4V2_017BpHwTunerCallback27onCurrentProgramInfoChangedERKNS2_11ProgramInfoE",
   "parameters" :
   [
    {
     "is_this_ptr" : true,
     "referenced_type" : "_ZTIPN7android8hardware14broadcastradio4V2_017BpHwTunerCallbackE"
    },
    {
     "referenced_type" : "_ZTIRKN7android8hardware14broadcastradio4V2_011ProgramInfoE"
    }
   ],
   "return_type" : "_ZTIN7android8hardware6ReturnIvEE",
   "source_file" : "/out/soong/.intermediates/hardware/interfaces/broadcastradio/2.0/android.hardware.broadcastradio@2.0_genc++_headers/gen/android/hardware/broadcastradio/2.0/BpHwTunerCallback.h"
  },
  {
   "function_name" : "android::hardware::broadcastradio::V2_0::BpHwTunerCallback::_hidl_onCurrentProgramInfoChanged",
   "linker_set_key" : "_ZN7android8hardware14broadcastradio4V2_017BpHwTunerCallback33_hidl_onCurrentProgramInfoChangedEPNS0_10IInterfaceEPNS0_7details16HidlInstrumentorERKNS2_11ProgramInfoE",
   "parameters" :
   [
    {
     "referenced_type" : "_ZTIPN7android8hardware10IInterfaceE"
    },
    {
     "referenced_type" : "_ZTIPN7android8hardware7details16HidlInstrumentorE"
    },
    {
     "referenced_type" : "_ZTIRKN7android8hardware14broadcastradio4V2_011ProgramInfoE"
    }
   ],
   "return_type" : "_ZTIN7android8hardware6ReturnIvEE",
   "source_file" : "/out/soong/.intermediates/hardware/interfaces/broadcastradio/2.0/android.hardware.broadcastradio@2.0_genc++_headers/gen/android/hardware/broadcastradio/2.0/BpHwTunerCallback.h"
  },
  {
   "function_name" : "android::hardware::broadcastradio::V2_0::BpHwTunerCallback::ping",
   "linker_set_key" : "_ZN7android8hardware14broadcastradio4V2_017BpHwTunerCallback4pingEv",
   "parameters" :
   [
    {
     "is_this_ptr" : true,
     "referenced_type" : "_ZTIPN7android8hardware14broadcastradio4V2_017BpHwTunerCallbackE"
    }
   ],
   "return_type" : "_ZTIN7android8hardware6ReturnIvEE",
   "source_file" : "/out/soong/.intermediates/hardware/interfaces/broadcastradio/2.0/android.hardware.broadcastradio@2.0_genc++_headers/gen/android/hardware/broadcastradio/2.0/BpHwTunerCallback.h"
  },
  {
   "function_name" : "android::hardware::broadcastradio::V2_0::BpHwTunerCallback::debug",
   "linker_set_key" : "_ZN7android8hardware14broadcastradio4V2_017BpHwTunerCallback5debugERKNS0_11hidl_handleERKNS0_8hidl_vecINS0_11hidl_stringEEE",
   "parameters" :
   [
    {
     "is_this_ptr" : true,
     "referenced_type" : "_ZTIPN7android8hardware14broadcastradio4V2_017BpHwTunerCallbackE"
    },
    {
     "referenced_type" : "_ZTIRKN7android8hardware11hidl_handleE"
    },
    {
     "referenced_type" : "_ZTIRKN7android8hardware8hidl_vecINS0_11hidl_stringEEE"
    }
   ],
   "return_type" : "_ZTIN7android8hardware6ReturnIvEE",
   "source_file" : "/out/soong/.intermediates/hardware/interfaces/broadcastradio/2.0/android.hardware.broadcastradio@2.0_genc++_headers/gen/android/hardware/broadcastradio/2.0/BpHwTunerCallback.h"
  },
  {
   "function_name" : "android::hardware::broadcastradio::V2_0::BpHwTunerCallback::BpHwTunerCallback",
   "linker_set_key" : "_ZN7android8hardware14broadcastradio4V2_017BpHwTunerCallbackC1ERKNS_2spINS0_7IBinderEEE",
   "parameters" :
   [
    {
     "is_this_ptr" : true,
     "referenced_type" : "_ZTIPN7android8hardware14broadcastradio4V2_017BpHwTunerCallbackE"
    },
    {
     "referenced_type" : "_ZTIRKN7android2spINS_8hardware7IBinderEEE"
    }
   ],
   "return_type" : "_ZTIv",
   "source_file" : "/out/soong/.intermediates/hardware/interfaces/broadcastradio/2.0/android.hardware.broadcastradio@2.0_genc++_headers/gen/android/hardware/broadcastradio/2.0/BpHwTunerCallback.h"
  },
  {
   "function_name" : "android::hardware::broadcastradio::V2_0::BpHwTunerCallback::BpHwTunerCallback",
   "linker_set_key" : "_ZN7android8hardware14broadcastradio4V2_017BpHwTunerCallbackC2ERKNS_2spINS0_7IBinderEEE",
   "parameters" :
   [
    {
     "is_this_ptr" : true,
     "referenced_type" : "_ZTIPN7android8hardware14broadcastradio4V2_017BpHwTunerCallbackE"
    },
    {
     "referenced_type" : "_ZTIRKN7android2spINS_8hardware7IBinderEEE"
    }
   ],
   "return_type" : "_ZTIv",
   "source_file" : "/out/soong/.intermediates/hardware/interfaces/broadcastradio/2.0/android.hardware.broadcastradio@2.0_genc++_headers/gen/android/hardware/broadcastradio/2.0/BpHwTunerCallback.h"
  },
  {
   "function_name" : "android::hardware::broadcastradio::V2_0::BnHwBroadcastRadio::onTransact",
   "linker_set_key" : "_ZN7android8hardware14broadcastradio4V2_018BnHwBroadcastRadio10onTransactEjRKNS0_6ParcelEPS4_jNSt3__18functionIFvRS4_EEE",
   "parameters" :
   [
    {
     "is_this_ptr" : true,
     "referenced_type" : "_ZTIPN7android8hardware14broadcastradio4V2_018BnHwBroadcastRadioE"
    },
    {
     "referenced_type" : "_ZTIj"
    },
    {
     "referenced_type" : "_ZTIRKN7android8hardware6ParcelE"
    },
    {
     "referenced_type" : "_ZTIPN7android8hardware6ParcelE"
    },
    {
     "default_arg" : true,
     "referenced_type" : "_ZTIj"
    },
    {
     "default_arg" : true,
     "referenced_type" : "_ZTINSt3__18functionIFvRN7android8hardware6ParcelEEEE"
    }
   ],
   "return_type" : "_ZTIi",
   "source_file" : "/out/soong/.intermediates/hardware/interfaces/broadcastradio/2.0/android.hardware.broadcastradio@2.0_genc++_headers/gen/android/hardware/broadcastradio/2.0/BnHwBroadcastRadio.h"
  },
  {
   "access" : "private",
   "function_name" : "android::hardware::broadcastradio::V2_0::BnHwBroadcastRadio::getDebugInfo",
   "linker_set_key" : "_ZN7android8hardware14broadcastradio4V2_018BnHwBroadcastRadio12getDebugInfoENSt3__18functionIFvRKNS_4hidl4base4V1_09DebugInfoEEEE",
   "parameters" :
   [
    {
     "is_this_ptr" : true,
     "referenced_type" : "_ZTIPN7android8hardware14broadcastradio4V2_018BnHwBroadcastRadioE"
    },
    {
     "referenced_type" : "_ZTINSt3__18functionIFvRKN7android4hidl4base4V1_09DebugInfoEEEE"
    }
   ],
   "return_type" : "_ZTIN7android8hardware6ReturnIvEE",
   "source_file" : "/out/soong/.intermediates/hardware/interfaces/broadcastradio/2.0/android.hardware.broadcastradio@2.0_genc++_headers/gen/android/hardware/broadcastradio/2.0/BnHwBroadcastRadio.h"
  },
  {
   "function_name" : "android::hardware::broadcastradio::V2_0::BnHwBroadcastRadio::_hidl_getImage",
   "linker_set_key" : "_ZN7android8hardware14broadcastradio4V2_018BnHwBroadcastRadio14_hidl_getImageEPNS_4hidl4base4V1_08BnHwBaseERKNS0_6ParcelEPS9_NSt3__18functionIFvRS9_EEE",
   "parameters" :
   [
    {
     "referenced_type" : "_ZTIPN7android4hidl4base4V1_08BnHwBaseE"
    },
    {
     "referenced_type" : "_ZTIRKN7android8hardware6ParcelE"
    },
    {
     "referenced_type" : "_ZTIPN7android8hardware6ParcelE"
    },
    {
     "referenced_type" : "_ZTINSt3__18functionIFvRN7android8hardware6ParcelEEEE"
    }
   ],
   "return_type" : "_ZTIi",
   "source_file" : "/out/soong/.intermediates/hardware/interfaces/broadcastradio/2.0/android.hardware.broadcastradio@2.0_genc++_headers/gen/android/hardware/broadcastradio/2.0/BnHwBroadcastRadio.h"
  },
  {
   "function_name" : "android::hardware::broadcastradio::V2_0::BnHwBroadcastRadio::_hidl_openSession",
   "linker_set_key" : "_ZN7android8hardware14broadcastradio4V2_018BnHwBroadcastRadio17_hidl_openSessionEPNS_4hidl4base4V1_08BnHwBaseERKNS0_6ParcelEPS9_NSt3__18functionIFvRS9_EEE",
   "parameters" :
   [
    {
     "referenced_type" : "_ZTIPN7android4hidl4base4V1_08BnHwBaseE"
    },
    {
     "referenced_type" : "_ZTIRKN7android8hardware6ParcelE"
    },
    {
     "referenced_type" : "_ZTIPN7android8hardware6ParcelE"
    },
    {
     "referenced_type" : "_ZTINSt3__18functionIFvRN7android8hardware6ParcelEEEE"
    }
   ],
   "return_type" : "_ZTIi",
   "source_file" : "/out/soong/.intermediates/hardware/interfaces/broadcastradio/2.0/android.hardware.broadcastradio@2.0_genc++_headers/gen/android/hardware/broadcastradio/2.0/BnHwBroadcastRadio.h"
  },
  {
   "function_name" : "android::hardware::broadcastradio::V2_0::BnHwBroadcastRadio::_hidl_getProperties",
   "linker_set_key" : "_ZN7android8hardware14broadcastradio4V2_018BnHwBroadcastRadio19_hidl_getPropertiesEPNS_4hidl4base4V1_08BnHwBaseERKNS0_6ParcelEPS9_NSt3__18functionIFvRS9_EEE",
   "parameters" :
   [
    {
     "referenced_type" : "_ZTIPN7android4hidl4base4V1_08BnHwBaseE"
    },
    {
     "referenced_type" : "_ZTIRKN7android8hardware6ParcelE"
    },
    {
     "referenced_type" : "_ZTIPN7android8hardware6ParcelE"
    },
    {
     "referenced_type" : "_ZTINSt3__18functionIFvRN7android8hardware6ParcelEEEE"
    }
   ],
   "return_type" : "_ZTIi",
   "source_file" : "/out/soong/.intermediates/hardware/interfaces/broadcastradio/2.0/android.hardware.broadcastradio@2.0_genc++_headers/gen/android/hardware/broadcastradio/2.0/BnHwBroadcastRadio.h"
  },
  {
   "function_name" : "android::hardware::broadcastradio::V2_0::BnHwBroadcastRadio::_hidl_getDabRegionConfig",
   "linker_set_key" : "_ZN7android8hardware14broadcastradio4V2_018BnHwBroadcastRadio24_hidl_getDabRegionConfigEPNS_4hidl4base4V1_08BnHwBaseERKNS0_6ParcelEPS9_NSt3__18functionIFvRS9_EEE",
   "parameters" :
   [
    {
     "referenced_type" : "_ZTIPN7android4hidl4base4V1_08BnHwBaseE"
    },
    {
     "referenced_type" : "_ZTIRKN7android8hardware6ParcelE"
    },
    {
     "referenced_type" : "_ZTIPN7android8hardware6ParcelE"
    },
    {
     "referenced_type" : "_ZTINSt3__18functionIFvRN7android8hardware6ParcelEEEE"
    }
   ],
   "return_type" : "_ZTIi",
   "source_file" : "/out/soong/.intermediates/hardware/interfaces/broadcastradio/2.0/android.hardware.broadcastradio@2.0_genc++_headers/gen/android/hardware/broadcastradio/2.0/BnHwBroadcastRadio.h"
  },
  {
   "function_name" : "android::hardware::broadcastradio::V2_0::BnHwBroadcastRadio::_hidl_getAmFmRegionConfig",
   "linker_set_key" : "_ZN7android8hardware14broadcastradio4V2_018BnHwBroadcastRadio25_hidl_getAmFmRegionConfigEPNS_4hidl4base4V1_08BnHwBaseERKNS0_6ParcelEPS9_NSt3__18functionIFvRS9_EEE",
   "parameters" :
   [
    {
     "referenced_type" : "_ZTIPN7android4hidl4base4V1_08BnHwBaseE"
    },
    {
     "referenced_type" : "_ZTIRKN7android8hardware6ParcelE"
    },
    {
     "referenced_type" : "_ZTIPN7android8hardware6ParcelE"
    },
    {
     "referenced_type" : "_ZTINSt3__18functionIFvRN7android8hardware6ParcelEEEE"
    }
   ],
   "return_type" : "_ZTIi",
   "source_file" : "/out/soong/.intermediates/hardware/interfaces/broadcastradio/2.0/android.hardware.broadcastradio@2.0_genc++_headers/gen/android/hardware/broadcastradio/2.0/BnHwBroadcastRadio.h"
  },
  {
   "function_name" : "android::hardware::broadcastradio::V2_0::BnHwBroadcastRadio::_hidl_registerAnnouncementListener",
   "linker_set_key" : "_ZN7android8hardware14broadcastradio4V2_018BnHwBroadcastRadio34_hidl_registerAnnouncementListenerEPNS_4hidl4base4V1_08BnHwBaseERKNS0_6ParcelEPS9_NSt3__18functionIFvRS9_EEE",
   "parameters" :
   [
    {
     "referenced_type" : "_ZTIPN7android4hidl4base4V1_08BnHwBaseE"
    },
    {
     "referenced_type" : "_ZTIRKN7android8hardware6ParcelE"
    },
    {
     "referenced_type" : "_ZTIPN7android8hardware6ParcelE"
    },
    {
     "referenced_type" : "_ZTINSt3__18functionIFvRN7android8hardware6ParcelEEEE"
    }
   ],
   "return_type" : "_ZTIi",
   "source_file" : "/out/soong/.intermediates/hardware/interfaces/broadcastradio/2.0/android.hardware.broadcastradio@2.0_genc++_headers/gen/android/hardware/broadcastradio/2.0/BnHwBroadcastRadio.h"
  },
  {
   "access" : "private",
   "function_name" : "android::hardware::broadcastradio::V2_0::BnHwBroadcastRadio::ping",
   "linker_set_key" : "_ZN7android8hardware14broadcastradio4V2_018BnHwBroadcastRadio4pingEv",
   "parameters" :
   [
    {
     "is_this_ptr" : true,
     "referenced_type" : "_ZTIPN7android8hardware14broadcastradio4V2_018BnHwBroadcastRadioE"
    }
   ],
   "return_type" : "_ZTIN7android8hardware6ReturnIvEE",
   "source_file" : "/out/soong/.intermediates/hardware/interfaces/broadcastradio/2.0/android.hardware.broadcastradio@2.0_genc++_headers/gen/android/hardware/broadcastradio/2.0/BnHwBroadcastRadio.h"
  },
  {
   "function_name" : "android::hardware::broadcastradio::V2_0::BnHwBroadcastRadio::BnHwBroadcastRadio",
   "linker_set_key" : "_ZN7android8hardware14broadcastradio4V2_018BnHwBroadcastRadioC1ERKNS_2spINS2_15IBroadcastRadioEEE",
   "parameters" :
   [
    {
     "is_this_ptr" : true,
     "referenced_type" : "_ZTIPN7android8hardware14broadcastradio4V2_018BnHwBroadcastRadioE"
    },
    {
     "referenced_type" : "_ZTIRKN7android2spINS_8hardware14broadcastradio4V2_015IBroadcastRadioEEE"
    }
   ],
   "return_type" : "_ZTIv",
   "source_file" : "/out/soong/.intermediates/hardware/interfaces/broadcastradio/2.0/android.hardware.broadcastradio@2.0_genc++_headers/gen/android/hardware/broadcastradio/2.0/BnHwBroadcastRadio.h"
  },
  {
   "function_name" : "android::hardware::broadcastradio::V2_0::BnHwBroadcastRadio::BnHwBroadcastRadio",
   "linker_set_key" : "_ZN7android8hardware14broadcastradio4V2_018BnHwBroadcastRadioC2ERKNS_2spINS2_15IBroadcastRadioEEE",
   "parameters" :
   [
    {
     "is_this_ptr" : true,
     "referenced_type" : "_ZTIPN7android8hardware14broadcastradio4V2_018BnHwBroadcastRadioE"
    },
    {
     "referenced_type" : "_ZTIRKN7android2spINS_8hardware14broadcastradio4V2_015IBroadcastRadioEEE"
    }
   ],
   "return_type" : "_ZTIv",
   "source_file" : "/out/soong/.intermediates/hardware/interfaces/broadcastradio/2.0/android.hardware.broadcastradio@2.0_genc++_headers/gen/android/hardware/broadcastradio/2.0/BnHwBroadcastRadio.h"
  },
  {
   "function_name" : "android::hardware::broadcastradio::V2_0::BnHwBroadcastRadio::~BnHwBroadcastRadio",
   "linker_set_key" : "_ZN7android8hardware14broadcastradio4V2_018BnHwBroadcastRadioD0Ev",
   "parameters" :
   [
    {
     "is_this_ptr" : true,
     "referenced_type" : "_ZTIPN7android8hardware14broadcastradio4V2_018BnHwBroadcastRadioE"
    }
   ],
   "return_type" : "_ZTIv",
   "source_file" : "/out/soong/.intermediates/hardware/interfaces/broadcastradio/2.0/android.hardware.broadcastradio@2.0_genc++_headers/gen/android/hardware/broadcastradio/2.0/BnHwBroadcastRadio.h"
  },
  {
   "function_name" : "android::hardware::broadcastradio::V2_0::BnHwBroadcastRadio::~BnHwBroadcastRadio",
   "linker_set_key" : "_ZN7android8hardware14broadcastradio4V2_018BnHwBroadcastRadioD1Ev",
   "parameters" :
   [
    {
     "is_this_ptr" : true,
     "referenced_type" : "_ZTIPN7android8hardware14broadcastradio4V2_018BnHwBroadcastRadioE"
    }
   ],
   "return_type" : "_ZTIv",
   "source_file" : "/out/soong/.intermediates/hardware/interfaces/broadcastradio/2.0/android.hardware.broadcastradio@2.0_genc++_headers/gen/android/hardware/broadcastradio/2.0/BnHwBroadcastRadio.h"
  },
  {
   "function_name" : "android::hardware::broadcastradio::V2_0::BnHwBroadcastRadio::~BnHwBroadcastRadio",
   "linker_set_key" : "_ZN7android8hardware14broadcastradio4V2_018BnHwBroadcastRadioD2Ev",
   "parameters" :
   [
    {
     "is_this_ptr" : true,
     "referenced_type" : "_ZTIPN7android8hardware14broadcastradio4V2_018BnHwBroadcastRadioE"
    }
   ],
   "return_type" : "_ZTIv",
   "source_file" : "/out/soong/.intermediates/hardware/interfaces/broadcastradio/2.0/android.hardware.broadcastradio@2.0_genc++_headers/gen/android/hardware/broadcastradio/2.0/BnHwBroadcastRadio.h"
  },
  {
   "function_name" : "android::hardware::broadcastradio::V2_0::BpHwBroadcastRadio::linkToDeath",
   "linker_set_key" : "_ZN7android8hardware14broadcastradio4V2_018BpHwBroadcastRadio11linkToDeathERKNS_2spINS0_20hidl_death_recipientEEEm",
   "parameters" :
   [
    {
     "is_this_ptr" : true,
     "referenced_type" : "_ZTIPN7android8hardware14broadcastradio4V2_018BpHwBroadcastRadioE"
    },
    {
     "referenced_type" : "_ZTIRKN7android2spINS_8hardware20hidl_death_recipientEEE"
    },
    {
     "referenced_type" : "_ZTIm"
    }
   ],
   "return_type" : "_ZTIN7android8hardware6ReturnIbEE",
   "source_file" : "/out/soong/.intermediates/hardware/interfaces/broadcastradio/2.0/android.hardware.broadcastradio@2.0_genc++_headers/gen/android/hardware/broadcastradio/2.0/BpHwBroadcastRadio.h"
  },
  {
   "function_name" : "android::hardware::broadcastradio::V2_0::BpHwBroadcastRadio::openSession",
   "linker_set_key" : "_ZN7android8hardware14broadcastradio4V2_018BpHwBroadcastRadio11openSessionERKNS_2spINS2_14ITunerCallbackEEENSt3__18functionIFvNS2_6ResultERKNS4_INS2_13ITunerSessionEEEEEE",
   "parameters" :
   [
    {
     "is_this_ptr" : true,
     "referenced_type" : "_ZTIPN7android8hardware14broadcastradio4V2_018BpHwBroadcastRadioE"
    },
    {
     "referenced_type" : "_ZTIRKN7android2spINS_8hardware14broadcastradio4V2_014ITunerCallbackEEE"
    },
    {
     "referenced_type" : "_ZTINSt3__18functionIFvN7android8hardware14broadcastradio4V2_06ResultERKNS1_2spINS4_13ITunerSessionEEEEEE"
    }
   ],
   "return_type" : "_ZTIN7android8hardware6ReturnIvEE",
   "source_file" : "/out/soong/.intermediates/hardware/interfaces/broadcastradio/2.0/android.hardware.broadcastradio@2.0_genc++_headers/gen/android/hardware/broadcastradio/2.0/BpHwBroadcastRadio.h"
  },
  {
   "function_name" : "android::hardware::broadcastradio::V2_0::BpHwBroadcastRadio::getDebugInfo",
   "linker_set_key" : "_ZN7android8hardware14broadcastradio4V2_018BpHwBroadcastRadio12getDebugInfoENSt3__18functionIFvRKNS_4hidl4base4V1_09DebugInfoEEEE",
   "parameters" :
   [
    {
     "is_this_ptr" : true,
     "referenced_type" : "_ZTIPN7android8hardware14broadcastradio4V2_018BpHwBroadcastRadioE"
    },
    {
     "referenced_type" : "_ZTINSt3__18functionIFvRKN7android4hidl4base4V1_09DebugInfoEEEE"
    }
   ],
   "return_type" : "_ZTIN7android8hardware6ReturnIvEE",
   "source_file" : "/out/soong/.intermediates/hardware/interfaces/broadcastradio/2.0/android.hardware.broadcastradio@2.0_genc++_headers/gen/android/hardware/broadcastradio/2.0/BpHwBroadcastRadio.h"
  },
  {
   "function_name" : "android::hardware::broadcastradio::V2_0::BpHwBroadcastRadio::getHashChain",
   "linker_set_key" : "_ZN7android8hardware14broadcastradio4V2_018BpHwBroadcastRadio12getHashChainENSt3__18functionIFvRKNS0_8hidl_vecINS0_10hidl_arrayIhLm32EJEEEEEEEE",
   "parameters" :
   [
    {
     "is_this_ptr" : true,
     "referenced_type" : "_ZTIPN7android8hardware14broadcastradio4V2_018BpHwBroadcastRadioE"
    },
    {
     "referenced_type" : "_ZTINSt3__18functionIFvRKN7android8hardware8hidl_vecINS2_10hidl_arrayIhLm32EJEEEEEEEE"
    }
   ],
   "return_type" : "_ZTIN7android8hardware6ReturnIvEE",
   "source_file" : "/out/soong/.intermediates/hardware/interfaces/broadcastradio/2.0/android.hardware.broadcastradio@2.0_genc++_headers/gen/android/hardware/broadcastradio/2.0/BpHwBroadcastRadio.h"
  },
  {
   "function_name" : "android::hardware::broadcastradio::V2_0::BpHwBroadcastRadio::getProperties",
   "linker_set_key" : "_ZN7android8hardware14broadcastradio4V2_018BpHwBroadcastRadio13getPropertiesENSt3__18functionIFvRKNS2_10PropertiesEEEE",
   "parameters" :
   [
    {
     "is_this_ptr" : true,
     "referenced_type" : "_ZTIPN7android8hardware14broadcastradio4V2_018BpHwBroadcastRadioE"
    },
    {
     "referenced_type" : "_ZTINSt3__18functionIFvRKN7android8hardware14broadcastradio4V2_010PropertiesEEEE"
    }
   ],
   "return_type" : "_ZTIN7android8hardware6ReturnIvEE",
   "source_file" : "/out/soong/.intermediates/hardware/interfaces/broadcastradio/2.0/android.hardware.broadcastradio@2.0_genc++_headers/gen/android/hardware/broadcastradio/2.0/BpHwBroadcastRadio.h"
  },
  {
   "function_name" : "android::hardware::broadcastradio::V2_0::BpHwBroadcastRadio::unlinkToDeath",
   "linker_set_key" : "_ZN7android8hardware14broadcastradio4V2_018BpHwBroadcastRadio13unlinkToDeathERKNS_2spINS0_20hidl_death_recipientEEE",
   "parameters" :
   [
    {
     "is_this_ptr" : true,
     "referenced_type" : "_ZTIPN7android8hardware14broadcastradio4V2_018BpHwBroadcastRadioE"
    },
    {
     "referenced_type" : "_ZTIRKN7android2spINS_8hardware20hidl_death_recipientEEE"
    }
   ],
   "return_type" : "_ZTIN7android8hardware6ReturnIbEE",
   "source_file" : "/out/soong/.intermediates/hardware/interfaces/broadcastradio/2.0/android.hardware.broadcastradio@2.0_genc++_headers/gen/android/hardware/broadcastradio/2.0/BpHwBroadcastRadio.h"
  },
  {
   "function_name" : "android::hardware::broadcastradio::V2_0::BpHwBroadcastRadio::_hidl_getImage",
   "linker_set_key" : "_ZN7android8hardware14broadcastradio4V2_018BpHwBroadcastRadio14_hidl_getImageEPNS0_10IInterfaceEPNS0_7details16HidlInstrumentorEjNSt3__18functionIFvRKNS0_8hidl_vecIhEEEEE",
   "parameters" :
   [
    {
     "referenced_type" : "_ZTIPN7android8hardware10IInterfaceE"
    },
    {
     "referenced_type" : "_ZTIPN7android8hardware7details16HidlInstrumentorE"
    },
    {
     "referenced_type" : "_ZTIj"
    },
    {
     "referenced_type" : "_ZTINSt3__18functionIFvRKN7android8hardware8hidl_vecIhEEEEE"
    }
   ],
   "return_type" : "_ZTIN7android8hardware6ReturnIvEE",
   "source_file" : "/out/soong/.intermediates/hardware/interfaces/broadcastradio/2.0/android.hardware.broadcastradio@2.0_genc++_headers/gen/android/hardware/broadcastradio/2.0/BpHwBroadcastRadio.h"
  },
  {
   "function_name" : "android::hardware::broadcastradio::V2_0::BpHwBroadcastRadio::interfaceChain",
   "linker_set_key" : "_ZN7android8hardware14broadcastradio4V2_018BpHwBroadcastRadio14interfaceChainENSt3__18functionIFvRKNS0_8hidl_vecINS0_11hidl_stringEEEEEE",
   "parameters" :
   [
    {
     "is_this_ptr" : true,
     "referenced_type" : "_ZTIPN7android8hardware14broadcastradio4V2_018BpHwBroadcastRadioE"
    },
    {
     "referenced_type" : "_ZTINSt3__18functionIFvRKN7android8hardware8hidl_vecINS2_11hidl_stringEEEEEE"
    }
   ],
   "return_type" : "_ZTIN7android8hardware6ReturnIvEE",
   "source_file" : "/out/soong/.intermediates/hardware/interfaces/broadcastradio/2.0/android.hardware.broadcastradio@2.0_genc++_headers/gen/android/hardware/broadcastradio/2.0/BpHwBroadcastRadio.h"
  },
  {
   "function_name" : "android::hardware::broadcastradio::V2_0::BpHwBroadcastRadio::onLastStrongRef",
   "linker_set_key" : "_ZN7android8hardware14broadcastradio4V2_018BpHwBroadcastRadio15onLastStrongRefEPKv",
   "parameters" :
   [
    {
     "is_this_ptr" : true,
     "referenced_type" : "_ZTIPN7android8hardware14broadcastradio4V2_018BpHwBroadcastRadioE"
    },
    {
     "referenced_type" : "_ZTIPKv"
    }
   ],
   "return_type" : "_ZTIv",
   "source_file" : "/out/soong/.intermediates/hardware/interfaces/broadcastradio/2.0/android.hardware.broadcastradio@2.0_genc++_headers/gen/android/hardware/broadcastradio/2.0/BpHwBroadcastRadio.h"
  },
  {
   "function_name" : "android::hardware::broadcastradio::V2_0::BpHwBroadcastRadio::_hidl_openSession",
   "linker_set_key" : "_ZN7android8hardware14broadcastradio4V2_018BpHwBroadcastRadio17_hidl_openSessionEPNS0_10IInterfaceEPNS0_7details16HidlInstrumentorERKNS_2spINS2_14ITunerCallbackEEENSt3__18functionIFvNS2_6ResultERKNS9_INS2_13ITunerSessionEEEEEE",
   "parameters" :
   [
    {
     "referenced_type" : "_ZTIPN7android8hardware10IInterfaceE"
    },
    {
     "referenced_type" : "_ZTIPN7android8hardware7details16HidlInstrumentorE"
    },
    {
     "referenced_type" : "_ZTIRKN7android2spINS_8hardware14broadcastradio4V2_014ITunerCallbackEEE"
    },
    {
     "referenced_type" : "_ZTINSt3__18functionIFvN7android8hardware14broadcastradio4V2_06ResultERKNS1_2spINS4_13ITunerSessionEEEEEE"
    }
   ],
   "return_type" : "_ZTIN7android8hardware6ReturnIvEE",
   "source_file" : "/out/soong/.intermediates/hardware/interfaces/broadcastradio/2.0/android.hardware.broadcastradio@2.0_genc++_headers/gen/android/hardware/broadcastradio/2.0/BpHwBroadcastRadio.h"
  },
  {
   "function_name" : "android::hardware::broadcastradio::V2_0::BpHwBroadcastRadio::getDabRegionConfig",
   "linker_set_key" : "_ZN7android8hardware14broadcastradio4V2_018BpHwBroadcastRadio18getDabRegionConfigENSt3__18functionIFvNS2_6ResultERKNS0_8hidl_vecINS2_13DabTableEntryEEEEEE",
   "parameters" :
   [
    {
     "is_this_ptr" : true,
     "referenced_type" : "_ZTIPN7android8hardware14broadcastradio4V2_018BpHwBroadcastRadioE"
    },
    {
     "referenced_type" : "_ZTINSt3__18functionIFvN7android8hardware14broadcastradio4V2_06ResultERKNS2_8hidl_vecINS4_13DabTableEntryEEEEEE"
    }
   ],
   "return_type" : "_ZTIN7android8hardware6ReturnIvEE",
   "source_file" : "/out/soong/.intermediates/hardware/interfaces/broadcastradio/2.0/android.hardware.broadcastradio@2.0_genc++_headers/gen/android/hardware/broadcastradio/2.0/BpHwBroadcastRadio.h"
  },
  {
   "function_name" : "android::hardware::broadcastradio::V2_0::BpHwBroadcastRadio::_hidl_getProperties",
   "linker_set_key" : "_ZN7android8hardware14broadcastradio4V2_018BpHwBroadcastRadio19_hidl_getPropertiesEPNS0_10IInterfaceEPNS0_7details16HidlInstrumentorENSt3__18functionIFvRKNS2_10PropertiesEEEE",
   "parameters" :
   [
    {
     "referenced_type" : "_ZTIPN7android8hardware10IInterfaceE"
    },
    {
     "referenced_type" : "_ZTIPN7android8hardware7details16HidlInstrumentorE"
    },
    {
     "referenced_type" : "_ZTINSt3__18functionIFvRKN7android8hardware14broadcastradio4V2_010PropertiesEEEE"
    }
   ],
   "return_type" : "_ZTIN7android8hardware6ReturnIvEE",
   "source_file" : "/out/soong/.intermediates/hardware/interfaces/broadcastradio/2.0/android.hardware.broadcastradio@2.0_genc++_headers/gen/android/hardware/broadcastradio/2.0/BpHwBroadcastRadio.h"
  },
  {
   "function_name" : "android::hardware::broadcastradio::V2_0::BpHwBroadcastRadio::getAmFmRegionConfig",
   "linker_set_key" : "_ZN7android8hardware14broadcastradio4V2_018BpHwBroadcastRadio19getAmFmRegionConfigEbNSt3__18functionIFvNS2_6ResultERKNS2_16AmFmRegionConfigEEEE",
   "parameters" :
   [
    {
     "is_this_ptr" : true,
     "referenced_type" : "_ZTIPN7android8hardware14broadcastradio4V2_018BpHwBroadcastRadioE"
    },
    {
     "referenced_type" : "_ZTIb"
    },
    {
     "referenced_type" : "_ZTINSt3__18functionIFvN7android8hardware14broadcastradio4V2_06ResultERKNS4_16AmFmRegionConfigEEEE"
    }
   ],
   "return_type" : "_ZTIN7android8hardware6ReturnIvEE",
   "source_file" : "/out/soong/.intermediates/hardware/interfaces/broadcastradio/2.0/android.hardware.broadcastradio@2.0_genc++_headers/gen/android/hardware/broadcastradio/2.0/BpHwBroadcastRadio.h"
  },
  {
   "function_name" : "android::hardware::broadcastradio::V2_0::BpHwBroadcastRadio::interfaceDescriptor",
   "linker_set_key" : "_ZN7android8hardware14broadcastradio4V2_018BpHwBroadcastRadio19interfaceDescriptorENSt3__18functionIFvRKNS0_11hidl_stringEEEE",
   "parameters" :
   [
    {
     "is_this_ptr" : true,
     "referenced_type" : "_ZTIPN7android8hardware14broadcastradio4V2_018BpHwBroadcastRadioE"
    },
    {
     "referenced_type" : "_ZTINSt3__18functionIFvRKN7android8hardware11hidl_stringEEEE"
    }
   ],
   "return_type" : "_ZTIN7android8hardware6ReturnIvEE",
   "source_file" : "/out/soong/.intermediates/hardware/interfaces/broadcastradio/2.0/android.hardware.broadcastradio@2.0_genc++_headers/gen/android/hardware/broadcastradio/2.0/BpHwBroadcastRadio.h"
  },
  {
   "function_name" : "android::hardware::broadcastradio::V2_0::BpHwBroadcastRadio::notifySyspropsChanged",
   "linker_set_key" : "_ZN7android8hardware14broadcastradio4V2_018BpHwBroadcastRadio21notifySyspropsChangedEv",
   "parameters" :
   [
    {
     "is_this_ptr" : true,
     "referenced_type" : "_ZTIPN7android8hardware14broadcastradio4V2_018BpHwBroadcastRadioE"
    }
   ],
   "return_type" : "_ZTIN7android8hardware6ReturnIvEE",
   "source_file" : "/out/soong/.intermediates/hardware/interfaces/broadcastradio/2.0/android.hardware.broadcastradio@2.0_genc++_headers/gen/android/hardware/broadcastradio/2.0/BpHwBroadcastRadio.h"
  },
  {
   "function_name" : "android::hardware::broadcastradio::V2_0::BpHwBroadcastRadio::setHALInstrumentation",
   "linker_set_key" : "_ZN7android8hardware14broadcastradio4V2_018BpHwBroadcastRadio21setHALInstrumentationEv",
   "parameters" :
   [
    {
     "is_this_ptr" : true,
     "referenced_type" : "_ZTIPN7android8hardware14broadcastradio4V2_018BpHwBroadcastRadioE"
    }
   ],
   "return_type" : "_ZTIN7android8hardware6ReturnIvEE",
   "source_file" : "/out/soong/.intermediates/hardware/interfaces/broadcastradio/2.0/android.hardware.broadcastradio@2.0_genc++_headers/gen/android/hardware/broadcastradio/2.0/BpHwBroadcastRadio.h"
  },
  {
   "function_name" : "android::hardware::broadcastradio::V2_0::BpHwBroadcastRadio::_hidl_getDabRegionConfig",
   "linker_set_key" : "_ZN7android8hardware14broadcastradio4V2_018BpHwBroadcastRadio24_hidl_getDabRegionConfigEPNS0_10IInterfaceEPNS0_7details16HidlInstrumentorENSt3__18functionIFvNS2_6ResultERKNS0_8hidl_vecINS2_13DabTableEntryEEEEEE",
   "parameters" :
   [
    {
     "referenced_type" : "_ZTIPN7android8hardware10IInterfaceE"
    },
    {
     "referenced_type" : "_ZTIPN7android8hardware7details16HidlInstrumentorE"
    },
    {
     "referenced_type" : "_ZTINSt3__18functionIFvN7android8hardware14broadcastradio4V2_06ResultERKNS2_8hidl_vecINS4_13DabTableEntryEEEEEE"
    }
   ],
   "return_type" : "_ZTIN7android8hardware6ReturnIvEE",
   "source_file" : "/out/soong/.intermediates/hardware/interfaces/broadcastradio/2.0/android.hardware.broadcastradio@2.0_genc++_headers/gen/android/hardware/broadcastradio/2.0/BpHwBroadcastRadio.h"
  },
  {
   "function_name" : "android::hardware::broadcastradio::V2_0::BpHwBroadcastRadio::_hidl_getAmFmRegionConfig",
   "linker_set_key" : "_ZN7android8hardware14broadcastradio4V2_018BpHwBroadcastRadio25_hidl_getAmFmRegionConfigEPNS0_10IInterfaceEPNS0_7details16HidlInstrumentorEbNSt3__18functionIFvNS2_6ResultERKNS2_16AmFmRegionConfigEEEE",
   "parameters" :
   [
    {
     "referenced_type" : "_ZTIPN7android8hardware10IInterfaceE"
    },
    {
     "referenced_type" : "_ZTIPN7android8hardware7details16HidlInstrumentorE"
    },
    {
     "referenced_type" : "_ZTIb"
    },
    {
     "referenced_type" : "_ZTINSt3__18functionIFvN7android8hardware14broadcastradio4V2_06ResultERKNS4_16AmFmRegionConfigEEEE"
    }
   ],
   "return_type" : "_ZTIN7android8hardware6ReturnIvEE",
   "source_file" : "/out/soong/.intermediates/hardware/interfaces/broadcastradio/2.0/android.hardware.broadcastradio@2.0_genc++_headers/gen/android/hardware/broadcastradio/2.0/BpHwBroadcastRadio.h"
  },
  {
   "function_name" : "android::hardware::broadcastradio::V2_0::BpHwBroadcastRadio::registerAnnouncementListener",
   "linker_set_key" : "_ZN7android8hardware14broadcastradio4V2_018BpHwBroadcastRadio28registerAnnouncementListenerERKNS0_8hidl_vecINS2_16AnnouncementTypeEEERKNS_2spINS2_21IAnnouncementListenerEEENSt3__18functionIFvNS2_6ResultERKNS9_INS2_12ICloseHandleEEEEEE",
   "parameters" :
   [
    {
     "is_this_ptr" : true,
     "referenced_type" : "_ZTIPN7android8hardware14broadcastradio4V2_018BpHwBroadcastRadioE"
    },
    {
     "referenced_type" : "_ZTIRKN7android8hardware8hidl_vecINS0_14broadcastradio4V2_016AnnouncementTypeEEE"
    },
    {
     "referenced_type" : "_ZTIRKN7android2spINS_8hardware14broadcastradio4V2_021IAnnouncementListenerEEE"
    },
    {
     "referenced_type" : "_ZTINSt3__18functionIFvN7android8hardware14broadcastradio4V2_06ResultERKNS1_2spINS4_12ICloseHandleEEEEEE"
    }
   ],
   "return_type" : "_ZTIN7android8hardware6ReturnIvEE",
   "source_file" : "/out/soong/.intermediates/hardware/interfaces/broadcastradio/2.0/android.hardware.broadcastradio@2.0_genc++_headers/gen/android/hardware/broadcastradio/2.0/BpHwBroadcastRadio.h"
  },
  {
   "function_name" : "android::hardware::broadcastradio::V2_0::BpHwBroadcastRadio::_hidl_registerAnnouncementListener",
   "linker_set_key" : "_ZN7android8hardware14broadcastradio4V2_018BpHwBroadcastRadio34_hidl_registerAnnouncementListenerEPNS0_10IInterfaceEPNS0_7details16HidlInstrumentorERKNS0_8hidl_vecINS2_16AnnouncementTypeEEERKNS_2spINS2_21IAnnouncementListenerEEENSt3__18functionIFvNS2_6ResultERKNSE_INS2_12ICloseHandleEEEEEE",
   "parameters" :
   [
    {
     "referenced_type" : "_ZTIPN7android8hardware10IInterfaceE"
    },
    {
     "referenced_type" : "_ZTIPN7android8hardware7details16HidlInstrumentorE"
    },
    {
     "referenced_type" : "_ZTIRKN7android8hardware8hidl_vecINS0_14broadcastradio4V2_016AnnouncementTypeEEE"
    },
    {
     "referenced_type" : "_ZTIRKN7android2spINS_8hardware14broadcastradio4V2_021IAnnouncementListenerEEE"
    },
    {
     "referenced_type" : "_ZTINSt3__18functionIFvN7android8hardware14broadcastradio4V2_06ResultERKNS1_2spINS4_12ICloseHandleEEEEEE"
    }
   ],
   "return_type" : "_ZTIN7android8hardware6ReturnIvEE",
   "source_file" : "/out/soong/.intermediates/hardware/interfaces/broadcastradio/2.0/android.hardware.broadcastradio@2.0_genc++_headers/gen/android/hardware/broadcastradio/2.0/BpHwBroadcastRadio.h"
  },
  {
   "function_name" : "android::hardware::broadcastradio::V2_0::BpHwBroadcastRadio::ping",
   "linker_set_key" : "_ZN7android8hardware14broadcastradio4V2_018BpHwBroadcastRadio4pingEv",
   "parameters" :
   [
    {
     "is_this_ptr" : true,
     "referenced_type" : "_ZTIPN7android8hardware14broadcastradio4V2_018BpHwBroadcastRadioE"
    }
   ],
   "return_type" : "_ZTIN7android8hardware6ReturnIvEE",
   "source_file" : "/out/soong/.intermediates/hardware/interfaces/broadcastradio/2.0/android.hardware.broadcastradio@2.0_genc++_headers/gen/android/hardware/broadcastradio/2.0/BpHwBroadcastRadio.h"
  },
  {
   "function_name" : "android::hardware::broadcastradio::V2_0::BpHwBroadcastRadio::debug",
   "linker_set_key" : "_ZN7android8hardware14broadcastradio4V2_018BpHwBroadcastRadio5debugERKNS0_11hidl_handleERKNS0_8hidl_vecINS0_11hidl_stringEEE",
   "parameters" :
   [
    {
     "is_this_ptr" : true,
     "referenced_type" : "_ZTIPN7android8hardware14broadcastradio4V2_018BpHwBroadcastRadioE"
    },
    {
     "referenced_type" : "_ZTIRKN7android8hardware11hidl_handleE"
    },
    {
     "referenced_type" : "_ZTIRKN7android8hardware8hidl_vecINS0_11hidl_stringEEE"
    }
   ],
   "return_type" : "_ZTIN7android8hardware6ReturnIvEE",
   "source_file" : "/out/soong/.intermediates/hardware/interfaces/broadcastradio/2.0/android.hardware.broadcastradio@2.0_genc++_headers/gen/android/hardware/broadcastradio/2.0/BpHwBroadcastRadio.h"
  },
  {
   "function_name" : "android::hardware::broadcastradio::V2_0::BpHwBroadcastRadio::getImage",
   "linker_set_key" : "_ZN7android8hardware14broadcastradio4V2_018BpHwBroadcastRadio8getImageEjNSt3__18functionIFvRKNS0_8hidl_vecIhEEEEE",
   "parameters" :
   [
    {
     "is_this_ptr" : true,
     "referenced_type" : "_ZTIPN7android8hardware14broadcastradio4V2_018BpHwBroadcastRadioE"
    },
    {
     "referenced_type" : "_ZTIj"
    },
    {
     "referenced_type" : "_ZTINSt3__18functionIFvRKN7android8hardware8hidl_vecIhEEEEE"
    }
   ],
   "return_type" : "_ZTIN7android8hardware6ReturnIvEE",
   "source_file" : "/out/soong/.intermediates/hardware/interfaces/broadcastradio/2.0/android.hardware.broadcastradio@2.0_genc++_headers/gen/android/hardware/broadcastradio/2.0/BpHwBroadcastRadio.h"
  },
  {
   "function_name" : "android::hardware::broadcastradio::V2_0::BpHwBroadcastRadio::BpHwBroadcastRadio",
   "linker_set_key" : "_ZN7android8hardware14broadcastradio4V2_018BpHwBroadcastRadioC1ERKNS_2spINS0_7IBinderEEE",
   "parameters" :
   [
    {
     "is_this_ptr" : true,
     "referenced_type" : "_ZTIPN7android8hardware14broadcastradio4V2_018BpHwBroadcastRadioE"
    },
    {
     "referenced_type" : "_ZTIRKN7android2spINS_8hardware7IBinderEEE"
    }
   ],
   "return_type" : "_ZTIv",
   "source_file" : "/out/soong/.intermediates/hardware/interfaces/broadcastradio/2.0/android.hardware.broadcastradio@2.0_genc++_headers/gen/android/hardware/broadcastradio/2.0/BpHwBroadcastRadio.h"
  },
  {
   "function_name" : "android::hardware::broadcastradio::V2_0::BpHwBroadcastRadio::BpHwBroadcastRadio",
   "linker_set_key" : "_ZN7android8hardware14broadcastradio4V2_018BpHwBroadcastRadioC2ERKNS_2spINS0_7IBinderEEE",
   "parameters" :
   [
    {
     "is_this_ptr" : true,
     "referenced_type" : "_ZTIPN7android8hardware14broadcastradio4V2_018BpHwBroadcastRadioE"
    },
    {
     "referenced_type" : "_ZTIRKN7android2spINS_8hardware7IBinderEEE"
    }
   ],
   "return_type" : "_ZTIv",
   "source_file" : "/out/soong/.intermediates/hardware/interfaces/broadcastradio/2.0/android.hardware.broadcastradio@2.0_genc++_headers/gen/android/hardware/broadcastradio/2.0/BpHwBroadcastRadio.h"
  },
  {
   "function_name" : "android::hardware::broadcastradio::V2_0::IAnnouncementListener::getService",
   "linker_set_key" : "_ZN7android8hardware14broadcastradio4V2_021IAnnouncementListener10getServiceERKNSt3__112basic_stringIcNS4_11char_traitsIcEENS4_9allocatorIcEEEEb",
   "parameters" :
   [
    {
     "default_arg" : true,
     "referenced_type" : "_ZTIRKNSt3__112basic_stringIcNS_11char_traitsIcEENS_9allocatorIcEEEE"
    },
    {
     "default_arg" : true,
     "referenced_type" : "_ZTIb"
    }
   ],
   "return_type" : "_ZTIN7android2spINS_8hardware14broadcastradio4V2_021IAnnouncementListenerEEE",
   "source_file" : "/out/soong/.intermediates/hardware/interfaces/broadcastradio/2.0/android.hardware.broadcastradio@2.0_genc++_headers/gen/android/hardware/broadcastradio/2.0/IAnnouncementListener.h"
  },
  {
   "function_name" : "android::hardware::broadcastradio::V2_0::IAnnouncementListener::linkToDeath",
   "linker_set_key" : "_ZN7android8hardware14broadcastradio4V2_021IAnnouncementListener11linkToDeathERKNS_2spINS0_20hidl_death_recipientEEEm",
   "parameters" :
   [
    {
     "is_this_ptr" : true,
     "referenced_type" : "_ZTIPN7android8hardware14broadcastradio4V2_021IAnnouncementListenerE"
    },
    {
     "referenced_type" : "_ZTIRKN7android2spINS_8hardware20hidl_death_recipientEEE"
    },
    {
     "referenced_type" : "_ZTIm"
    }
   ],
   "return_type" : "_ZTIN7android8hardware6ReturnIbEE",
   "source_file" : "/out/soong/.intermediates/hardware/interfaces/broadcastradio/2.0/android.hardware.broadcastradio@2.0_genc++_headers/gen/android/hardware/broadcastradio/2.0/IAnnouncementListener.h"
  },
  {
   "function_name" : "android::hardware::broadcastradio::V2_0::IAnnouncementListener::getDebugInfo",
   "linker_set_key" : "_ZN7android8hardware14broadcastradio4V2_021IAnnouncementListener12getDebugInfoENSt3__18functionIFvRKNS_4hidl4base4V1_09DebugInfoEEEE",
   "parameters" :
   [
    {
     "is_this_ptr" : true,
     "referenced_type" : "_ZTIPN7android8hardware14broadcastradio4V2_021IAnnouncementListenerE"
    },
    {
     "referenced_type" : "_ZTINSt3__18functionIFvRKN7android4hidl4base4V1_09DebugInfoEEEE"
    }
   ],
   "return_type" : "_ZTIN7android8hardware6ReturnIvEE",
   "source_file" : "/out/soong/.intermediates/hardware/interfaces/broadcastradio/2.0/android.hardware.broadcastradio@2.0_genc++_headers/gen/android/hardware/broadcastradio/2.0/IAnnouncementListener.h"
  },
  {
   "function_name" : "android::hardware::broadcastradio::V2_0::IAnnouncementListener::getHashChain",
   "linker_set_key" : "_ZN7android8hardware14broadcastradio4V2_021IAnnouncementListener12getHashChainENSt3__18functionIFvRKNS0_8hidl_vecINS0_10hidl_arrayIhLm32EJEEEEEEEE",
   "parameters" :
   [
    {
     "is_this_ptr" : true,
     "referenced_type" : "_ZTIPN7android8hardware14broadcastradio4V2_021IAnnouncementListenerE"
    },
    {
     "referenced_type" : "_ZTINSt3__18functionIFvRKN7android8hardware8hidl_vecINS2_10hidl_arrayIhLm32EJEEEEEEEE"
    }
   ],
   "return_type" : "_ZTIN7android8hardware6ReturnIvEE",
   "source_file" : "/out/soong/.intermediates/hardware/interfaces/broadcastradio/2.0/android.hardware.broadcastradio@2.0_genc++_headers/gen/android/hardware/broadcastradio/2.0/IAnnouncementListener.h"
  },
  {
   "function_name" : "android::hardware::broadcastradio::V2_0::IAnnouncementListener::tryGetService",
   "linker_set_key" : "_ZN7android8hardware14broadcastradio4V2_021IAnnouncementListener13tryGetServiceERKNSt3__112basic_stringIcNS4_11char_traitsIcEENS4_9allocatorIcEEEEb",
   "parameters" :
   [
    {
     "default_arg" : true,
     "referenced_type" : "_ZTIRKNSt3__112basic_stringIcNS_11char_traitsIcEENS_9allocatorIcEEEE"
    },
    {
     "default_arg" : true,
     "referenced_type" : "_ZTIb"
    }
   ],
   "return_type" : "_ZTIN7android2spINS_8hardware14broadcastradio4V2_021IAnnouncementListenerEEE",
   "source_file" : "/out/soong/.intermediates/hardware/interfaces/broadcastradio/2.0/android.hardware.broadcastradio@2.0_genc++_headers/gen/android/hardware/broadcastradio/2.0/IAnnouncementListener.h"
  },
  {
   "function_name" : "android::hardware::broadcastradio::V2_0::IAnnouncementListener::unlinkToDeath",
   "linker_set_key" : "_ZN7android8hardware14broadcastradio4V2_021IAnnouncementListener13unlinkToDeathERKNS_2spINS0_20hidl_death_recipientEEE",
   "parameters" :
   [
    {
     "is_this_ptr" : true,
     "referenced_type" : "_ZTIPN7android8hardware14broadcastradio4V2_021IAnnouncementListenerE"
    },
    {
     "referenced_type" : "_ZTIRKN7android2spINS_8hardware20hidl_death_recipientEEE"
    }
   ],
   "return_type" : "_ZTIN7android8hardware6ReturnIbEE",
   "source_file" : "/out/soong/.intermediates/hardware/interfaces/broadcastradio/2.0/android.hardware.broadcastradio@2.0_genc++_headers/gen/android/hardware/broadcastradio/2.0/IAnnouncementListener.h"
  },
  {
   "function_name" : "android::hardware::broadcastradio::V2_0::IAnnouncementListener::interfaceChain",
   "linker_set_key" : "_ZN7android8hardware14broadcastradio4V2_021IAnnouncementListener14interfaceChainENSt3__18functionIFvRKNS0_8hidl_vecINS0_11hidl_stringEEEEEE",
   "parameters" :
   [
    {
     "is_this_ptr" : true,
     "referenced_type" : "_ZTIPN7android8hardware14broadcastradio4V2_021IAnnouncementListenerE"
    },
    {
     "referenced_type" : "_ZTINSt3__18functionIFvRKN7android8hardware8hidl_vecINS2_11hidl_stringEEEEEE"
    }
   ],
   "return_type" : "_ZTIN7android8hardware6ReturnIvEE",
   "source_file" : "/out/soong/.intermediates/hardware/interfaces/broadcastradio/2.0/android.hardware.broadcastradio@2.0_genc++_headers/gen/android/hardware/broadcastradio/2.0/IAnnouncementListener.h"
  },
  {
   "function_name" : "android::hardware::broadcastradio::V2_0::IAnnouncementListener::registerAsService",
   "linker_set_key" : "_ZN7android8hardware14broadcastradio4V2_021IAnnouncementListener17registerAsServiceERKNSt3__112basic_stringIcNS4_11char_traitsIcEENS4_9allocatorIcEEEE",
   "parameters" :
   [
    {
     "is_this_ptr" : true,
     "referenced_type" : "_ZTIPN7android8hardware14broadcastradio4V2_021IAnnouncementListenerE"
    },
    {
     "default_arg" : true,
     "referenced_type" : "_ZTIRKNSt3__112basic_stringIcNS_11char_traitsIcEENS_9allocatorIcEEEE"
    }
   ],
   "return_type" : "_ZTIi",
   "source_file" : "/out/soong/.intermediates/hardware/interfaces/broadcastradio/2.0/android.hardware.broadcastradio@2.0_genc++_headers/gen/android/hardware/broadcastradio/2.0/IAnnouncementListener.h"
  },
  {
   "function_name" : "android::hardware::broadcastradio::V2_0::IAnnouncementListener::interfaceDescriptor",
   "linker_set_key" : "_ZN7android8hardware14broadcastradio4V2_021IAnnouncementListener19interfaceDescriptorENSt3__18functionIFvRKNS0_11hidl_stringEEEE",
   "parameters" :
   [
    {
     "is_this_ptr" : true,
     "referenced_type" : "_ZTIPN7android8hardware14broadcastradio4V2_021IAnnouncementListenerE"
    },
    {
     "referenced_type" : "_ZTINSt3__18functionIFvRKN7android8hardware11hidl_stringEEEE"
    }
   ],
   "return_type" : "_ZTIN7android8hardware6ReturnIvEE",
   "source_file" : "/out/soong/.intermediates/hardware/interfaces/broadcastradio/2.0/android.hardware.broadcastradio@2.0_genc++_headers/gen/android/hardware/broadcastradio/2.0/IAnnouncementListener.h"
  },
  {
   "function_name" : "android::hardware::broadcastradio::V2_0::IAnnouncementListener::notifySyspropsChanged",
   "linker_set_key" : "_ZN7android8hardware14broadcastradio4V2_021IAnnouncementListener21notifySyspropsChangedEv",
   "parameters" :
   [
    {
     "is_this_ptr" : true,
     "referenced_type" : "_ZTIPN7android8hardware14broadcastradio4V2_021IAnnouncementListenerE"
    }
   ],
   "return_type" : "_ZTIN7android8hardware6ReturnIvEE",
   "source_file" : "/out/soong/.intermediates/hardware/interfaces/broadcastradio/2.0/android.hardware.broadcastradio@2.0_genc++_headers/gen/android/hardware/broadcastradio/2.0/IAnnouncementListener.h"
  },
  {
   "function_name" : "android::hardware::broadcastradio::V2_0::IAnnouncementListener::setHALInstrumentation",
   "linker_set_key" : "_ZN7android8hardware14broadcastradio4V2_021IAnnouncementListener21setHALInstrumentationEv",
   "parameters" :
   [
    {
     "is_this_ptr" : true,
     "referenced_type" : "_ZTIPN7android8hardware14broadcastradio4V2_021IAnnouncementListenerE"
    }
   ],
   "return_type" : "_ZTIN7android8hardware6ReturnIvEE",
   "source_file" : "/out/soong/.intermediates/hardware/interfaces/broadcastradio/2.0/android.hardware.broadcastradio@2.0_genc++_headers/gen/android/hardware/broadcastradio/2.0/IAnnouncementListener.h"
  },
  {
   "function_name" : "android::hardware::broadcastradio::V2_0::IAnnouncementListener::registerForNotifications",
   "linker_set_key" : "_ZN7android8hardware14broadcastradio4V2_021IAnnouncementListener24registerForNotificationsERKNSt3__112basic_stringIcNS4_11char_traitsIcEENS4_9allocatorIcEEEERKNS_2spINS_4hidl7manager4V1_020IServiceNotificationEEE",
   "parameters" :
   [
    {
     "referenced_type" : "_ZTIRKNSt3__112basic_stringIcNS_11char_traitsIcEENS_9allocatorIcEEEE"
    },
    {
     "referenced_type" : "_ZTIRKN7android2spINS_4hidl7manager4V1_020IServiceNotificationEEE"
    }
   ],
   "return_type" : "_ZTIb",
   "source_file" : "/out/soong/.intermediates/hardware/interfaces/broadcastradio/2.0/android.hardware.broadcastradio@2.0_genc++_headers/gen/android/hardware/broadcastradio/2.0/IAnnouncementListener.h"
  },
  {
   "function_name" : "android::hardware::broadcastradio::V2_0::IAnnouncementListener::ping",
   "linker_set_key" : "_ZN7android8hardware14broadcastradio4V2_021IAnnouncementListener4pingEv",
   "parameters" :
   [
    {
     "is_this_ptr" : true,
     "referenced_type" : "_ZTIPN7android8hardware14broadcastradio4V2_021IAnnouncementListenerE"
    }
   ],
   "return_type" : "_ZTIN7android8hardware6ReturnIvEE",
   "source_file" : "/out/soong/.intermediates/hardware/interfaces/broadcastradio/2.0/android.hardware.broadcastradio@2.0_genc++_headers/gen/android/hardware/broadcastradio/2.0/IAnnouncementListener.h"
  },
  {
   "function_name" : "android::hardware::broadcastradio::V2_0::IAnnouncementListener::debug",
   "linker_set_key" : "_ZN7android8hardware14broadcastradio4V2_021IAnnouncementListener5debugERKNS0_11hidl_handleERKNS0_8hidl_vecINS0_11hidl_stringEEE",
   "parameters" :
   [
    {
     "is_this_ptr" : true,
     "referenced_type" : "_ZTIPN7android8hardware14broadcastradio4V2_021IAnnouncementListenerE"
    },
    {
     "referenced_type" : "_ZTIRKN7android8hardware11hidl_handleE"
    },
    {
     "referenced_type" : "_ZTIRKN7android8hardware8hidl_vecINS0_11hidl_stringEEE"
    }
   ],
   "return_type" : "_ZTIN7android8hardware6ReturnIvEE",
   "source_file" : "/out/soong/.intermediates/hardware/interfaces/broadcastradio/2.0/android.hardware.broadcastradio@2.0_genc++_headers/gen/android/hardware/broadcastradio/2.0/IAnnouncementListener.h"
  },
  {
   "function_name" : "android::hardware::broadcastradio::V2_0::IAnnouncementListener::castFrom",
   "linker_set_key" : "_ZN7android8hardware14broadcastradio4V2_021IAnnouncementListener8castFromERKNS_2spINS_4hidl4base4V1_05IBaseEEEb",
   "parameters" :
   [
    {
     "referenced_type" : "_ZTIRKN7android2spINS_4hidl4base4V1_05IBaseEEE"
    },
    {
     "default_arg" : true,
     "referenced_type" : "_ZTIb"
    }
   ],
   "return_type" : "_ZTIN7android8hardware6ReturnINS_2spINS0_14broadcastradio4V2_021IAnnouncementListenerEEEEE",
   "source_file" : "/out/soong/.intermediates/hardware/interfaces/broadcastradio/2.0/android.hardware.broadcastradio@2.0_genc++_headers/gen/android/hardware/broadcastradio/2.0/IAnnouncementListener.h"
  },
  {
   "function_name" : "android::hardware::broadcastradio::V2_0::IAnnouncementListener::castFrom",
   "linker_set_key" : "_ZN7android8hardware14broadcastradio4V2_021IAnnouncementListener8castFromERKNS_2spIS3_EEb",
   "parameters" :
   [
    {
     "referenced_type" : "_ZTIRKN7android2spINS_8hardware14broadcastradio4V2_021IAnnouncementListenerEEE"
    },
    {
     "default_arg" : true,
     "referenced_type" : "_ZTIb"
    }
   ],
   "return_type" : "_ZTIN7android8hardware6ReturnINS_2spINS0_14broadcastradio4V2_021IAnnouncementListenerEEEEE",
   "source_file" : "/out/soong/.intermediates/hardware/interfaces/broadcastradio/2.0/android.hardware.broadcastradio@2.0_genc++_headers/gen/android/hardware/broadcastradio/2.0/IAnnouncementListener.h"
  },
  {
   "function_name" : "android::hardware::broadcastradio::V2_0::writeEmbeddedToParcel",
   "linker_set_key" : "_ZN7android8hardware14broadcastradio4V2_021writeEmbeddedToParcelERKNS2_10PropertiesEPNS0_6ParcelEmm",
   "parameters" :
   [
    {
     "referenced_type" : "_ZTIRKN7android8hardware14broadcastradio4V2_010PropertiesE"
    },
    {
     "referenced_type" : "_ZTIPN7android8hardware6ParcelE"
    },
    {
     "referenced_type" : "_ZTIm"
    },
    {
     "referenced_type" : "_ZTIm"
    }
   ],
   "return_type" : "_ZTIi",
   "source_file" : "/out/soong/.intermediates/hardware/interfaces/broadcastradio/2.0/android.hardware.broadcastradio@2.0_genc++_headers/gen/android/hardware/broadcastradio/2.0/hwtypes.h"
  },
  {
   "function_name" : "android::hardware::broadcastradio::V2_0::writeEmbeddedToParcel",
   "linker_set_key" : "_ZN7android8hardware14broadcastradio4V2_021writeEmbeddedToParcelERKNS2_11ProgramInfoEPNS0_6ParcelEmm",
   "parameters" :
   [
    {
     "referenced_type" : "_ZTIRKN7android8hardware14broadcastradio4V2_011ProgramInfoE"
    },
    {
     "referenced_type" : "_ZTIPN7android8hardware6ParcelE"
    },
    {
     "referenced_type" : "_ZTIm"
    },
    {
     "referenced_type" : "_ZTIm"
    }
   ],
   "return_type" : "_ZTIi",
   "source_file" : "/out/soong/.intermediates/hardware/interfaces/broadcastradio/2.0/android.hardware.broadcastradio@2.0_genc++_headers/gen/android/hardware/broadcastradio/2.0/hwtypes.h"
  },
  {
   "function_name" : "android::hardware::broadcastradio::V2_0::writeEmbeddedToParcel",
   "linker_set_key" : "_ZN7android8hardware14broadcastradio4V2_021writeEmbeddedToParcelERKNS2_12AnnouncementEPNS0_6ParcelEmm",
   "parameters" :
   [
    {
     "referenced_type" : "_ZTIRKN7android8hardware14broadcastradio4V2_012AnnouncementE"
    },
    {
     "referenced_type" : "_ZTIPN7android8hardware6ParcelE"
    },
    {
     "referenced_type" : "_ZTIm"
    },
    {
     "referenced_type" : "_ZTIm"
    }
   ],
   "return_type" : "_ZTIi",
   "source_file" : "/out/soong/.intermediates/hardware/interfaces/broadcastradio/2.0/android.hardware.broadcastradio@2.0_genc++_headers/gen/android/hardware/broadcastradio/2.0/hwtypes.h"
  },
  {
   "function_name" : "android::hardware::broadcastradio::V2_0::writeEmbeddedToParcel",
   "linker_set_key" : "_ZN7android8hardware14broadcastradio4V2_021writeEmbeddedToParcelERKNS2_13DabTableEntryEPNS0_6ParcelEmm",
   "parameters" :
   [
    {
     "referenced_type" : "_ZTIRKN7android8hardware14broadcastradio4V2_013DabTableEntryE"
    },
    {
     "referenced_type" : "_ZTIPN7android8hardware6ParcelE"
    },
    {
     "referenced_type" : "_ZTIm"
    },
    {
     "referenced_type" : "_ZTIm"
    }
   ],
   "return_type" : "_ZTIi",
   "source_file" : "/out/soong/.intermediates/hardware/interfaces/broadcastradio/2.0/android.hardware.broadcastradio@2.0_genc++_headers/gen/android/hardware/broadcastradio/2.0/hwtypes.h"
  },
  {
   "function_name" : "android::hardware::broadcastradio::V2_0::writeEmbeddedToParcel",
   "linker_set_key" : "_ZN7android8hardware14broadcastradio4V2_021writeEmbeddedToParcelERKNS2_13ProgramFilterEPNS0_6ParcelEmm",
   "parameters" :
   [
    {
     "referenced_type" : "_ZTIRKN7android8hardware14broadcastradio4V2_013ProgramFilterE"
    },
    {
     "referenced_type" : "_ZTIPN7android8hardware6ParcelE"
    },
    {
     "referenced_type" : "_ZTIm"
    },
    {
     "referenced_type" : "_ZTIm"
    }
   ],
   "return_type" : "_ZTIi",
   "source_file" : "/out/soong/.intermediates/hardware/interfaces/broadcastradio/2.0/android.hardware.broadcastradio@2.0_genc++_headers/gen/android/hardware/broadcastradio/2.0/hwtypes.h"
  },
  {
   "function_name" : "android::hardware::broadcastradio::V2_0::writeEmbeddedToParcel",
   "linker_set_key" : "_ZN7android8hardware14broadcastradio4V2_021writeEmbeddedToParcelERKNS2_14VendorKeyValueEPNS0_6ParcelEmm",
   "parameters" :
   [
    {
     "referenced_type" : "_ZTIRKN7android8hardware14broadcastradio4V2_014VendorKeyValueE"
    },
    {
     "referenced_type" : "_ZTIPN7android8hardware6ParcelE"
    },
    {
     "referenced_type" : "_ZTIm"
    },
    {
     "referenced_type" : "_ZTIm"
    }
   ],
   "return_type" : "_ZTIi",
   "source_file" : "/out/soong/.intermediates/hardware/interfaces/broadcastradio/2.0/android.hardware.broadcastradio@2.0_genc++_headers/gen/android/hardware/broadcastradio/2.0/hwtypes.h"
  },
  {
   "function_name" : "android::hardware::broadcastradio::V2_0::writeEmbeddedToParcel",
   "linker_set_key" : "_ZN7android8hardware14broadcastradio4V2_021writeEmbeddedToParcelERKNS2_15ProgramSelectorEPNS0_6ParcelEmm",
   "parameters" :
   [
    {
     "referenced_type" : "_ZTIRKN7android8hardware14broadcastradio4V2_015ProgramSelectorE"
    },
    {
     "referenced_type" : "_ZTIPN7android8hardware6ParcelE"
    },
    {
     "referenced_type" : "_ZTIm"
    },
    {
     "referenced_type" : "_ZTIm"
    }
   ],
   "return_type" : "_ZTIi",
   "source_file" : "/out/soong/.intermediates/hardware/interfaces/broadcastradio/2.0/android.hardware.broadcastradio@2.0_genc++_headers/gen/android/hardware/broadcastradio/2.0/hwtypes.h"
  },
  {
   "function_name" : "android::hardware::broadcastradio::V2_0::writeEmbeddedToParcel",
   "linker_set_key" : "_ZN7android8hardware14broadcastradio4V2_021writeEmbeddedToParcelERKNS2_16AmFmRegionConfigEPNS0_6ParcelEmm",
   "parameters" :
   [
    {
     "referenced_type" : "_ZTIRKN7android8hardware14broadcastradio4V2_016AmFmRegionConfigE"
    },
    {
     "referenced_type" : "_ZTIPN7android8hardware6ParcelE"
    },
    {
     "referenced_type" : "_ZTIm"
    },
    {
     "referenced_type" : "_ZTIm"
    }
   ],
   "return_type" : "_ZTIi",
   "source_file" : "/out/soong/.intermediates/hardware/interfaces/broadcastradio/2.0/android.hardware.broadcastradio@2.0_genc++_headers/gen/android/hardware/broadcastradio/2.0/hwtypes.h"
  },
  {
   "function_name" : "android::hardware::broadcastradio::V2_0::writeEmbeddedToParcel",
   "linker_set_key" : "_ZN7android8hardware14broadcastradio4V2_021writeEmbeddedToParcelERKNS2_16ProgramListChunkEPNS0_6ParcelEmm",
   "parameters" :
   [
    {
     "referenced_type" : "_ZTIRKN7android8hardware14broadcastradio4V2_016ProgramListChunkE"
    },
    {
     "referenced_type" : "_ZTIPN7android8hardware6ParcelE"
    },
    {
     "referenced_type" : "_ZTIm"
    },
    {
     "referenced_type" : "_ZTIm"
    }
   ],
   "return_type" : "_ZTIi",
   "source_file" : "/out/soong/.intermediates/hardware/interfaces/broadcastradio/2.0/android.hardware.broadcastradio@2.0_genc++_headers/gen/android/hardware/broadcastradio/2.0/hwtypes.h"
  },
  {
   "function_name" : "android::hardware::broadcastradio::V2_0::writeEmbeddedToParcel",
   "linker_set_key" : "_ZN7android8hardware14broadcastradio4V2_021writeEmbeddedToParcelERKNS2_8MetadataEPNS0_6ParcelEmm",
   "parameters" :
   [
    {
     "referenced_type" : "_ZTIRKN7android8hardware14broadcastradio4V2_08MetadataE"
    },
    {
     "referenced_type" : "_ZTIPN7android8hardware6ParcelE"
    },
    {
     "referenced_type" : "_ZTIm"
    },
    {
     "referenced_type" : "_ZTIm"
    }
   ],
   "return_type" : "_ZTIi",
   "source_file" : "/out/soong/.intermediates/hardware/interfaces/broadcastradio/2.0/android.hardware.broadcastradio@2.0_genc++_headers/gen/android/hardware/broadcastradio/2.0/hwtypes.h"
  },
  {
   "access" : "private",
   "function_name" : "android::hardware::broadcastradio::V2_0::BsAnnouncementListener::addOnewayTask",
   "linker_set_key" : "_ZN7android8hardware14broadcastradio4V2_022BsAnnouncementListener13addOnewayTaskENSt3__18functionIFvvEEE",
   "parameters" :
   [
    {
     "is_this_ptr" : true,
     "referenced_type" : "_ZTIPN7android8hardware14broadcastradio4V2_022BsAnnouncementListenerE"
    },
    {
     "referenced_type" : "_ZTINSt3__18functionIFvvEEE"
    }
   ],
   "return_type" : "_ZTIN7android8hardware6ReturnIvEE",
   "source_file" : "/out/soong/.intermediates/hardware/interfaces/broadcastradio/2.0/android.hardware.broadcastradio@2.0_genc++_headers/gen/android/hardware/broadcastradio/2.0/BsAnnouncementListener.h"
  },
  {
   "function_name" : "android::hardware::broadcastradio::V2_0::BsAnnouncementListener::BsAnnouncementListener",
   "linker_set_key" : "_ZN7android8hardware14broadcastradio4V2_022BsAnnouncementListenerC1ENS_2spINS2_21IAnnouncementListenerEEE",
   "parameters" :
   [
    {
     "is_this_ptr" : true,
     "referenced_type" : "_ZTIPN7android8hardware14broadcastradio4V2_022BsAnnouncementListenerE"
    },
    {
     "referenced_type" : "_ZTIKN7android2spINS_8hardware14broadcastradio4V2_021IAnnouncementListenerEEE"
    }
   ],
   "return_type" : "_ZTIv",
   "source_file" : "/out/soong/.intermediates/hardware/interfaces/broadcastradio/2.0/android.hardware.broadcastradio@2.0_genc++_headers/gen/android/hardware/broadcastradio/2.0/BsAnnouncementListener.h"
  },
  {
   "function_name" : "android::hardware::broadcastradio::V2_0::BsAnnouncementListener::BsAnnouncementListener",
   "linker_set_key" : "_ZN7android8hardware14broadcastradio4V2_022BsAnnouncementListenerC2ENS_2spINS2_21IAnnouncementListenerEEE",
   "parameters" :
   [
    {
     "is_this_ptr" : true,
     "referenced_type" : "_ZTIPN7android8hardware14broadcastradio4V2_022BsAnnouncementListenerE"
    },
    {
     "referenced_type" : "_ZTIKN7android2spINS_8hardware14broadcastradio4V2_021IAnnouncementListenerEEE"
    }
   ],
   "return_type" : "_ZTIv",
   "source_file" : "/out/soong/.intermediates/hardware/interfaces/broadcastradio/2.0/android.hardware.broadcastradio@2.0_genc++_headers/gen/android/hardware/broadcastradio/2.0/BsAnnouncementListener.h"
  },
  {
   "function_name" : "android::hardware::broadcastradio::V2_0::readEmbeddedFromParcel",
   "linker_set_key" : "_ZN7android8hardware14broadcastradio4V2_022readEmbeddedFromParcelERKNS2_10PropertiesERKNS0_6ParcelEmm",
   "parameters" :
   [
    {
     "referenced_type" : "_ZTIRKN7android8hardware14broadcastradio4V2_010PropertiesE"
    },
    {
     "referenced_type" : "_ZTIRKN7android8hardware6ParcelE"
    },
    {
     "referenced_type" : "_ZTIm"
    },
    {
     "referenced_type" : "_ZTIm"
    }
   ],
   "return_type" : "_ZTIi",
   "source_file" : "/out/soong/.intermediates/hardware/interfaces/broadcastradio/2.0/android.hardware.broadcastradio@2.0_genc++_headers/gen/android/hardware/broadcastradio/2.0/hwtypes.h"
  },
  {
   "function_name" : "android::hardware::broadcastradio::V2_0::readEmbeddedFromParcel",
   "linker_set_key" : "_ZN7android8hardware14broadcastradio4V2_022readEmbeddedFromParcelERKNS2_11ProgramInfoERKNS0_6ParcelEmm",
   "parameters" :
   [
    {
     "referenced_type" : "_ZTIRKN7android8hardware14broadcastradio4V2_011ProgramInfoE"
    },
    {
     "referenced_type" : "_ZTIRKN7android8hardware6ParcelE"
    },
    {
     "referenced_type" : "_ZTIm"
    },
    {
     "referenced_type" : "_ZTIm"
    }
   ],
   "return_type" : "_ZTIi",
   "source_file" : "/out/soong/.intermediates/hardware/interfaces/broadcastradio/2.0/android.hardware.broadcastradio@2.0_genc++_headers/gen/android/hardware/broadcastradio/2.0/hwtypes.h"
  },
  {
   "function_name" : "android::hardware::broadcastradio::V2_0::readEmbeddedFromParcel",
   "linker_set_key" : "_ZN7android8hardware14broadcastradio4V2_022readEmbeddedFromParcelERKNS2_12AnnouncementERKNS0_6ParcelEmm",
   "parameters" :
   [
    {
     "referenced_type" : "_ZTIRKN7android8hardware14broadcastradio4V2_012AnnouncementE"
    },
    {
     "referenced_type" : "_ZTIRKN7android8hardware6ParcelE"
    },
    {
     "referenced_type" : "_ZTIm"
    },
    {
     "referenced_type" : "_ZTIm"
    }
   ],
   "return_type" : "_ZTIi",
   "source_file" : "/out/soong/.intermediates/hardware/interfaces/broadcastradio/2.0/android.hardware.broadcastradio@2.0_genc++_headers/gen/android/hardware/broadcastradio/2.0/hwtypes.h"
  },
  {
   "function_name" : "android::hardware::broadcastradio::V2_0::readEmbeddedFromParcel",
   "linker_set_key" : "_ZN7android8hardware14broadcastradio4V2_022readEmbeddedFromParcelERKNS2_13DabTableEntryERKNS0_6ParcelEmm",
   "parameters" :
   [
    {
     "referenced_type" : "_ZTIRKN7android8hardware14broadcastradio4V2_013DabTableEntryE"
    },
    {
     "referenced_type" : "_ZTIRKN7android8hardware6ParcelE"
    },
    {
     "referenced_type" : "_ZTIm"
    },
    {
     "referenced_type" : "_ZTIm"
    }
   ],
   "return_type" : "_ZTIi",
   "source_file" : "/out/soong/.intermediates/hardware/interfaces/broadcastradio/2.0/android.hardware.broadcastradio@2.0_genc++_headers/gen/android/hardware/broadcastradio/2.0/hwtypes.h"
  },
  {
   "function_name" : "android::hardware::broadcastradio::V2_0::readEmbeddedFromParcel",
   "linker_set_key" : "_ZN7android8hardware14broadcastradio4V2_022readEmbeddedFromParcelERKNS2_13ProgramFilterERKNS0_6ParcelEmm",
   "parameters" :
   [
    {
     "referenced_type" : "_ZTIRKN7android8hardware14broadcastradio4V2_013ProgramFilterE"
    },
    {
     "referenced_type" : "_ZTIRKN7android8hardware6ParcelE"
    },
    {
     "referenced_type" : "_ZTIm"
    },
    {
     "referenced_type" : "_ZTIm"
    }
   ],
   "return_type" : "_ZTIi",
   "source_file" : "/out/soong/.intermediates/hardware/interfaces/broadcastradio/2.0/android.hardware.broadcastradio@2.0_genc++_headers/gen/android/hardware/broadcastradio/2.0/hwtypes.h"
  },
  {
   "function_name" : "android::hardware::broadcastradio::V2_0::readEmbeddedFromParcel",
   "linker_set_key" : "_ZN7android8hardware14broadcastradio4V2_022readEmbeddedFromParcelERKNS2_14VendorKeyValueERKNS0_6ParcelEmm",
   "parameters" :
   [
    {
     "referenced_type" : "_ZTIRKN7android8hardware14broadcastradio4V2_014VendorKeyValueE"
    },
    {
     "referenced_type" : "_ZTIRKN7android8hardware6ParcelE"
    },
    {
     "referenced_type" : "_ZTIm"
    },
    {
     "referenced_type" : "_ZTIm"
    }
   ],
   "return_type" : "_ZTIi",
   "source_file" : "/out/soong/.intermediates/hardware/interfaces/broadcastradio/2.0/android.hardware.broadcastradio@2.0_genc++_headers/gen/android/hardware/broadcastradio/2.0/hwtypes.h"
  },
  {
   "function_name" : "android::hardware::broadcastradio::V2_0::readEmbeddedFromParcel",
   "linker_set_key" : "_ZN7android8hardware14broadcastradio4V2_022readEmbeddedFromParcelERKNS2_15ProgramSelectorERKNS0_6ParcelEmm",
   "parameters" :
   [
    {
     "referenced_type" : "_ZTIRKN7android8hardware14broadcastradio4V2_015ProgramSelectorE"
    },
    {
     "referenced_type" : "_ZTIRKN7android8hardware6ParcelE"
    },
    {
     "referenced_type" : "_ZTIm"
    },
    {
     "referenced_type" : "_ZTIm"
    }
   ],
   "return_type" : "_ZTIi",
   "source_file" : "/out/soong/.intermediates/hardware/interfaces/broadcastradio/2.0/android.hardware.broadcastradio@2.0_genc++_headers/gen/android/hardware/broadcastradio/2.0/hwtypes.h"
  },
  {
   "function_name" : "android::hardware::broadcastradio::V2_0::readEmbeddedFromParcel",
   "linker_set_key" : "_ZN7android8hardware14broadcastradio4V2_022readEmbeddedFromParcelERKNS2_16AmFmRegionConfigERKNS0_6ParcelEmm",
   "parameters" :
   [
    {
     "referenced_type" : "_ZTIRKN7android8hardware14broadcastradio4V2_016AmFmRegionConfigE"
    },
    {
     "referenced_type" : "_ZTIRKN7android8hardware6ParcelE"
    },
    {
     "referenced_type" : "_ZTIm"
    },
    {
     "referenced_type" : "_ZTIm"
    }
   ],
   "return_type" : "_ZTIi",
   "source_file" : "/out/soong/.intermediates/hardware/interfaces/broadcastradio/2.0/android.hardware.broadcastradio@2.0_genc++_headers/gen/android/hardware/broadcastradio/2.0/hwtypes.h"
  },
  {
   "function_name" : "android::hardware::broadcastradio::V2_0::readEmbeddedFromParcel",
   "linker_set_key" : "_ZN7android8hardware14broadcastradio4V2_022readEmbeddedFromParcelERKNS2_16ProgramListChunkERKNS0_6ParcelEmm",
   "parameters" :
   [
    {
     "referenced_type" : "_ZTIRKN7android8hardware14broadcastradio4V2_016ProgramListChunkE"
    },
    {
     "referenced_type" : "_ZTIRKN7android8hardware6ParcelE"
    },
    {
     "referenced_type" : "_ZTIm"
    },
    {
     "referenced_type" : "_ZTIm"
    }
   ],
   "return_type" : "_ZTIi",
   "source_file" : "/out/soong/.intermediates/hardware/interfaces/broadcastradio/2.0/android.hardware.broadcastradio@2.0_genc++_headers/gen/android/hardware/broadcastradio/2.0/hwtypes.h"
  },
  {
   "function_name" : "android::hardware::broadcastradio::V2_0::readEmbeddedFromParcel",
   "linker_set_key" : "_ZN7android8hardware14broadcastradio4V2_022readEmbeddedFromParcelERKNS2_8MetadataERKNS0_6ParcelEmm",
   "parameters" :
   [
    {
     "referenced_type" : "_ZTIRKN7android8hardware14broadcastradio4V2_08MetadataE"
    },
    {
     "referenced_type" : "_ZTIRKN7android8hardware6ParcelE"
    },
    {
     "referenced_type" : "_ZTIm"
    },
    {
     "referenced_type" : "_ZTIm"
    }
   ],
   "return_type" : "_ZTIi",
   "source_file" : "/out/soong/.intermediates/hardware/interfaces/broadcastradio/2.0/android.hardware.broadcastradio@2.0_genc++_headers/gen/android/hardware/broadcastradio/2.0/hwtypes.h"
  },
  {
   "function_name" : "android::hardware::broadcastradio::V2_0::BnHwAnnouncementListener::onTransact",
   "linker_set_key" : "_ZN7android8hardware14broadcastradio4V2_024BnHwAnnouncementListener10onTransactEjRKNS0_6ParcelEPS4_jNSt3__18functionIFvRS4_EEE",
   "parameters" :
   [
    {
     "is_this_ptr" : true,
     "referenced_type" : "_ZTIPN7android8hardware14broadcastradio4V2_024BnHwAnnouncementListenerE"
    },
    {
     "referenced_type" : "_ZTIj"
    },
    {
     "referenced_type" : "_ZTIRKN7android8hardware6ParcelE"
    },
    {
     "referenced_type" : "_ZTIPN7android8hardware6ParcelE"
    },
    {
     "default_arg" : true,
     "referenced_type" : "_ZTIj"
    },
    {
     "default_arg" : true,
     "referenced_type" : "_ZTINSt3__18functionIFvRN7android8hardware6ParcelEEEE"
    }
   ],
   "return_type" : "_ZTIi",
   "source_file" : "/out/soong/.intermediates/hardware/interfaces/broadcastradio/2.0/android.hardware.broadcastradio@2.0_genc++_headers/gen/android/hardware/broadcastradio/2.0/BnHwAnnouncementListener.h"
  },
  {
   "access" : "private",
   "function_name" : "android::hardware::broadcastradio::V2_0::BnHwAnnouncementListener::getDebugInfo",
   "linker_set_key" : "_ZN7android8hardware14broadcastradio4V2_024BnHwAnnouncementListener12getDebugInfoENSt3__18functionIFvRKNS_4hidl4base4V1_09DebugInfoEEEE",
   "parameters" :
   [
    {
     "is_this_ptr" : true,
     "referenced_type" : "_ZTIPN7android8hardware14broadcastradio4V2_024BnHwAnnouncementListenerE"
    },
    {
     "referenced_type" : "_ZTINSt3__18functionIFvRKN7android4hidl4base4V1_09DebugInfoEEEE"
    }
   ],
   "return_type" : "_ZTIN7android8hardware6ReturnIvEE",
   "source_file" : "/out/soong/.intermediates/hardware/interfaces/broadcastradio/2.0/android.hardware.broadcastradio@2.0_genc++_headers/gen/android/hardware/broadcastradio/2.0/BnHwAnnouncementListener.h"
  },
  {
   "function_name" : "android::hardware::broadcastradio::V2_0::BnHwAnnouncementListener::_hidl_onListUpdated",
   "linker_set_key" : "_ZN7android8hardware14broadcastradio4V2_024BnHwAnnouncementListener19_hidl_onListUpdatedEPNS_4hidl4base4V1_08BnHwBaseERKNS0_6ParcelEPS9_NSt3__18functionIFvRS9_EEE",
   "parameters" :
   [
    {
     "referenced_type" : "_ZTIPN7android4hidl4base4V1_08BnHwBaseE"
    },
    {
     "referenced_type" : "_ZTIRKN7android8hardware6ParcelE"
    },
    {
     "referenced_type" : "_ZTIPN7android8hardware6ParcelE"
    },
    {
     "referenced_type" : "_ZTINSt3__18functionIFvRN7android8hardware6ParcelEEEE"
    }
   ],
   "return_type" : "_ZTIi",
   "source_file" : "/out/soong/.intermediates/hardware/interfaces/broadcastradio/2.0/android.hardware.broadcastradio@2.0_genc++_headers/gen/android/hardware/broadcastradio/2.0/BnHwAnnouncementListener.h"
  },
  {
   "access" : "private",
   "function_name" : "android::hardware::broadcastradio::V2_0::BnHwAnnouncementListener::ping",
   "linker_set_key" : "_ZN7android8hardware14broadcastradio4V2_024BnHwAnnouncementListener4pingEv",
   "parameters" :
   [
    {
     "is_this_ptr" : true,
     "referenced_type" : "_ZTIPN7android8hardware14broadcastradio4V2_024BnHwAnnouncementListenerE"
    }
   ],
   "return_type" : "_ZTIN7android8hardware6ReturnIvEE",
   "source_file" : "/out/soong/.intermediates/hardware/interfaces/broadcastradio/2.0/android.hardware.broadcastradio@2.0_genc++_headers/gen/android/hardware/broadcastradio/2.0/BnHwAnnouncementListener.h"
  },
  {
   "function_name" : "android::hardware::broadcastradio::V2_0::BnHwAnnouncementListener::BnHwAnnouncementListener",
   "linker_set_key" : "_ZN7android8hardware14broadcastradio4V2_024BnHwAnnouncementListenerC1ERKNS_2spINS2_21IAnnouncementListenerEEE",
   "parameters" :
   [
    {
     "is_this_ptr" : true,
     "referenced_type" : "_ZTIPN7android8hardware14broadcastradio4V2_024BnHwAnnouncementListenerE"
    },
    {
     "referenced_type" : "_ZTIRKN7android2spINS_8hardware14broadcastradio4V2_021IAnnouncementListenerEEE"
    }
   ],
   "return_type" : "_ZTIv",
   "source_file" : "/out/soong/.intermediates/hardware/interfaces/broadcastradio/2.0/android.hardware.broadcastradio@2.0_genc++_headers/gen/android/hardware/broadcastradio/2.0/BnHwAnnouncementListener.h"
  },
  {
   "function_name" : "android::hardware::broadcastradio::V2_0::BnHwAnnouncementListener::BnHwAnnouncementListener",
   "linker_set_key" : "_ZN7android8hardware14broadcastradio4V2_024BnHwAnnouncementListenerC2ERKNS_2spINS2_21IAnnouncementListenerEEE",
   "parameters" :
   [
    {
     "is_this_ptr" : true,
     "referenced_type" : "_ZTIPN7android8hardware14broadcastradio4V2_024BnHwAnnouncementListenerE"
    },
    {
     "referenced_type" : "_ZTIRKN7android2spINS_8hardware14broadcastradio4V2_021IAnnouncementListenerEEE"
    }
   ],
   "return_type" : "_ZTIv",
   "source_file" : "/out/soong/.intermediates/hardware/interfaces/broadcastradio/2.0/android.hardware.broadcastradio@2.0_genc++_headers/gen/android/hardware/broadcastradio/2.0/BnHwAnnouncementListener.h"
  },
  {
   "function_name" : "android::hardware::broadcastradio::V2_0::BnHwAnnouncementListener::~BnHwAnnouncementListener",
   "linker_set_key" : "_ZN7android8hardware14broadcastradio4V2_024BnHwAnnouncementListenerD0Ev",
   "parameters" :
   [
    {
     "is_this_ptr" : true,
     "referenced_type" : "_ZTIPN7android8hardware14broadcastradio4V2_024BnHwAnnouncementListenerE"
    }
   ],
   "return_type" : "_ZTIv",
   "source_file" : "/out/soong/.intermediates/hardware/interfaces/broadcastradio/2.0/android.hardware.broadcastradio@2.0_genc++_headers/gen/android/hardware/broadcastradio/2.0/BnHwAnnouncementListener.h"
  },
  {
   "function_name" : "android::hardware::broadcastradio::V2_0::BnHwAnnouncementListener::~BnHwAnnouncementListener",
   "linker_set_key" : "_ZN7android8hardware14broadcastradio4V2_024BnHwAnnouncementListenerD1Ev",
   "parameters" :
   [
    {
     "is_this_ptr" : true,
     "referenced_type" : "_ZTIPN7android8hardware14broadcastradio4V2_024BnHwAnnouncementListenerE"
    }
   ],
   "return_type" : "_ZTIv",
   "source_file" : "/out/soong/.intermediates/hardware/interfaces/broadcastradio/2.0/android.hardware.broadcastradio@2.0_genc++_headers/gen/android/hardware/broadcastradio/2.0/BnHwAnnouncementListener.h"
  },
  {
   "function_name" : "android::hardware::broadcastradio::V2_0::BnHwAnnouncementListener::~BnHwAnnouncementListener",
   "linker_set_key" : "_ZN7android8hardware14broadcastradio4V2_024BnHwAnnouncementListenerD2Ev",
   "parameters" :
   [
    {
     "is_this_ptr" : true,
     "referenced_type" : "_ZTIPN7android8hardware14broadcastradio4V2_024BnHwAnnouncementListenerE"
    }
   ],
   "return_type" : "_ZTIv",
   "source_file" : "/out/soong/.intermediates/hardware/interfaces/broadcastradio/2.0/android.hardware.broadcastradio@2.0_genc++_headers/gen/android/hardware/broadcastradio/2.0/BnHwAnnouncementListener.h"
  },
  {
   "function_name" : "android::hardware::broadcastradio::V2_0::BpHwAnnouncementListener::linkToDeath",
   "linker_set_key" : "_ZN7android8hardware14broadcastradio4V2_024BpHwAnnouncementListener11linkToDeathERKNS_2spINS0_20hidl_death_recipientEEEm",
   "parameters" :
   [
    {
     "is_this_ptr" : true,
     "referenced_type" : "_ZTIPN7android8hardware14broadcastradio4V2_024BpHwAnnouncementListenerE"
    },
    {
     "referenced_type" : "_ZTIRKN7android2spINS_8hardware20hidl_death_recipientEEE"
    },
    {
     "referenced_type" : "_ZTIm"
    }
   ],
   "return_type" : "_ZTIN7android8hardware6ReturnIbEE",
   "source_file" : "/out/soong/.intermediates/hardware/interfaces/broadcastradio/2.0/android.hardware.broadcastradio@2.0_genc++_headers/gen/android/hardware/broadcastradio/2.0/BpHwAnnouncementListener.h"
  },
  {
   "function_name" : "android::hardware::broadcastradio::V2_0::BpHwAnnouncementListener::getDebugInfo",
   "linker_set_key" : "_ZN7android8hardware14broadcastradio4V2_024BpHwAnnouncementListener12getDebugInfoENSt3__18functionIFvRKNS_4hidl4base4V1_09DebugInfoEEEE",
   "parameters" :
   [
    {
     "is_this_ptr" : true,
     "referenced_type" : "_ZTIPN7android8hardware14broadcastradio4V2_024BpHwAnnouncementListenerE"
    },
    {
     "referenced_type" : "_ZTINSt3__18functionIFvRKN7android4hidl4base4V1_09DebugInfoEEEE"
    }
   ],
   "return_type" : "_ZTIN7android8hardware6ReturnIvEE",
   "source_file" : "/out/soong/.intermediates/hardware/interfaces/broadcastradio/2.0/android.hardware.broadcastradio@2.0_genc++_headers/gen/android/hardware/broadcastradio/2.0/BpHwAnnouncementListener.h"
  },
  {
   "function_name" : "android::hardware::broadcastradio::V2_0::BpHwAnnouncementListener::getHashChain",
   "linker_set_key" : "_ZN7android8hardware14broadcastradio4V2_024BpHwAnnouncementListener12getHashChainENSt3__18functionIFvRKNS0_8hidl_vecINS0_10hidl_arrayIhLm32EJEEEEEEEE",
   "parameters" :
   [
    {
     "is_this_ptr" : true,
     "referenced_type" : "_ZTIPN7android8hardware14broadcastradio4V2_024BpHwAnnouncementListenerE"
    },
    {
     "referenced_type" : "_ZTINSt3__18functionIFvRKN7android8hardware8hidl_vecINS2_10hidl_arrayIhLm32EJEEEEEEEE"
    }
   ],
   "return_type" : "_ZTIN7android8hardware6ReturnIvEE",
   "source_file" : "/out/soong/.intermediates/hardware/interfaces/broadcastradio/2.0/android.hardware.broadcastradio@2.0_genc++_headers/gen/android/hardware/broadcastradio/2.0/BpHwAnnouncementListener.h"
  },
  {
   "function_name" : "android::hardware::broadcastradio::V2_0::BpHwAnnouncementListener::onListUpdated",
   "linker_set_key" : "_ZN7android8hardware14broadcastradio4V2_024BpHwAnnouncementListener13onListUpdatedERKNS0_8hidl_vecINS2_12AnnouncementEEE",
   "parameters" :
   [
    {
     "is_this_ptr" : true,
     "referenced_type" : "_ZTIPN7android8hardware14broadcastradio4V2_024BpHwAnnouncementListenerE"
    },
    {
     "referenced_type" : "_ZTIRKN7android8hardware8hidl_vecINS0_14broadcastradio4V2_012AnnouncementEEE"
    }
   ],
   "return_type" : "_ZTIN7android8hardware6ReturnIvEE",
   "source_file" : "/out/soong/.intermediates/hardware/interfaces/broadcastradio/2.0/android.hardware.broadcastradio@2.0_genc++_headers/gen/android/hardware/broadcastradio/2.0/BpHwAnnouncementListener.h"
  },
  {
   "function_name" : "android::hardware::broadcastradio::V2_0::BpHwAnnouncementListener::unlinkToDeath",
   "linker_set_key" : "_ZN7android8hardware14broadcastradio4V2_024BpHwAnnouncementListener13unlinkToDeathERKNS_2spINS0_20hidl_death_recipientEEE",
   "parameters" :
   [
    {
     "is_this_ptr" : true,
     "referenced_type" : "_ZTIPN7android8hardware14broadcastradio4V2_024BpHwAnnouncementListenerE"
    },
    {
     "referenced_type" : "_ZTIRKN7android2spINS_8hardware20hidl_death_recipientEEE"
    }
   ],
   "return_type" : "_ZTIN7android8hardware6ReturnIbEE",
   "source_file" : "/out/soong/.intermediates/hardware/interfaces/broadcastradio/2.0/android.hardware.broadcastradio@2.0_genc++_headers/gen/android/hardware/broadcastradio/2.0/BpHwAnnouncementListener.h"
  },
  {
   "function_name" : "android::hardware::broadcastradio::V2_0::BpHwAnnouncementListener::interfaceChain",
   "linker_set_key" : "_ZN7android8hardware14broadcastradio4V2_024BpHwAnnouncementListener14interfaceChainENSt3__18functionIFvRKNS0_8hidl_vecINS0_11hidl_stringEEEEEE",
   "parameters" :
   [
    {
     "is_this_ptr" : true,
     "referenced_type" : "_ZTIPN7android8hardware14broadcastradio4V2_024BpHwAnnouncementListenerE"
    },
    {
     "referenced_type" : "_ZTINSt3__18functionIFvRKN7android8hardware8hidl_vecINS2_11hidl_stringEEEEEE"
    }
   ],
   "return_type" : "_ZTIN7android8hardware6ReturnIvEE",
   "source_file" : "/out/soong/.intermediates/hardware/interfaces/broadcastradio/2.0/android.hardware.broadcastradio@2.0_genc++_headers/gen/android/hardware/broadcastradio/2.0/BpHwAnnouncementListener.h"
  },
  {
   "function_name" : "android::hardware::broadcastradio::V2_0::BpHwAnnouncementListener::onLastStrongRef",
   "linker_set_key" : "_ZN7android8hardware14broadcastradio4V2_024BpHwAnnouncementListener15onLastStrongRefEPKv",
   "parameters" :
   [
    {
     "is_this_ptr" : true,
     "referenced_type" : "_ZTIPN7android8hardware14broadcastradio4V2_024BpHwAnnouncementListenerE"
    },
    {
     "referenced_type" : "_ZTIPKv"
    }
   ],
   "return_type" : "_ZTIv",
   "source_file" : "/out/soong/.intermediates/hardware/interfaces/broadcastradio/2.0/android.hardware.broadcastradio@2.0_genc++_headers/gen/android/hardware/broadcastradio/2.0/BpHwAnnouncementListener.h"
  },
  {
   "function_name" : "android::hardware::broadcastradio::V2_0::BpHwAnnouncementListener::_hidl_onListUpdated",
   "linker_set_key" : "_ZN7android8hardware14broadcastradio4V2_024BpHwAnnouncementListener19_hidl_onListUpdatedEPNS0_10IInterfaceEPNS0_7details16HidlInstrumentorERKNS0_8hidl_vecINS2_12AnnouncementEEE",
   "parameters" :
   [
    {
     "referenced_type" : "_ZTIPN7android8hardware10IInterfaceE"
    },
    {
     "referenced_type" : "_ZTIPN7android8hardware7details16HidlInstrumentorE"
    },
    {
     "referenced_type" : "_ZTIRKN7android8hardware8hidl_vecINS0_14broadcastradio4V2_012AnnouncementEEE"
    }
   ],
   "return_type" : "_ZTIN7android8hardware6ReturnIvEE",
   "source_file" : "/out/soong/.intermediates/hardware/interfaces/broadcastradio/2.0/android.hardware.broadcastradio@2.0_genc++_headers/gen/android/hardware/broadcastradio/2.0/BpHwAnnouncementListener.h"
  },
  {
   "function_name" : "android::hardware::broadcastradio::V2_0::BpHwAnnouncementListener::interfaceDescriptor",
   "linker_set_key" : "_ZN7android8hardware14broadcastradio4V2_024BpHwAnnouncementListener19interfaceDescriptorENSt3__18functionIFvRKNS0_11hidl_stringEEEE",
   "parameters" :
   [
    {
     "is_this_ptr" : true,
     "referenced_type" : "_ZTIPN7android8hardware14broadcastradio4V2_024BpHwAnnouncementListenerE"
    },
    {
     "referenced_type" : "_ZTINSt3__18functionIFvRKN7android8hardware11hidl_stringEEEE"
    }
   ],
   "return_type" : "_ZTIN7android8hardware6ReturnIvEE",
   "source_file" : "/out/soong/.intermediates/hardware/interfaces/broadcastradio/2.0/android.hardware.broadcastradio@2.0_genc++_headers/gen/android/hardware/broadcastradio/2.0/BpHwAnnouncementListener.h"
  },
  {
   "function_name" : "android::hardware::broadcastradio::V2_0::BpHwAnnouncementListener::notifySyspropsChanged",
   "linker_set_key" : "_ZN7android8hardware14broadcastradio4V2_024BpHwAnnouncementListener21notifySyspropsChangedEv",
   "parameters" :
   [
    {
     "is_this_ptr" : true,
     "referenced_type" : "_ZTIPN7android8hardware14broadcastradio4V2_024BpHwAnnouncementListenerE"
    }
   ],
   "return_type" : "_ZTIN7android8hardware6ReturnIvEE",
   "source_file" : "/out/soong/.intermediates/hardware/interfaces/broadcastradio/2.0/android.hardware.broadcastradio@2.0_genc++_headers/gen/android/hardware/broadcastradio/2.0/BpHwAnnouncementListener.h"
  },
  {
   "function_name" : "android::hardware::broadcastradio::V2_0::BpHwAnnouncementListener::setHALInstrumentation",
   "linker_set_key" : "_ZN7android8hardware14broadcastradio4V2_024BpHwAnnouncementListener21setHALInstrumentationEv",
   "parameters" :
   [
    {
     "is_this_ptr" : true,
     "referenced_type" : "_ZTIPN7android8hardware14broadcastradio4V2_024BpHwAnnouncementListenerE"
    }
   ],
   "return_type" : "_ZTIN7android8hardware6ReturnIvEE",
   "source_file" : "/out/soong/.intermediates/hardware/interfaces/broadcastradio/2.0/android.hardware.broadcastradio@2.0_genc++_headers/gen/android/hardware/broadcastradio/2.0/BpHwAnnouncementListener.h"
  },
  {
   "function_name" : "android::hardware::broadcastradio::V2_0::BpHwAnnouncementListener::ping",
   "linker_set_key" : "_ZN7android8hardware14broadcastradio4V2_024BpHwAnnouncementListener4pingEv",
   "parameters" :
   [
    {
     "is_this_ptr" : true,
     "referenced_type" : "_ZTIPN7android8hardware14broadcastradio4V2_024BpHwAnnouncementListenerE"
    }
   ],
   "return_type" : "_ZTIN7android8hardware6ReturnIvEE",
   "source_file" : "/out/soong/.intermediates/hardware/interfaces/broadcastradio/2.0/android.hardware.broadcastradio@2.0_genc++_headers/gen/android/hardware/broadcastradio/2.0/BpHwAnnouncementListener.h"
  },
  {
   "function_name" : "android::hardware::broadcastradio::V2_0::BpHwAnnouncementListener::debug",
   "linker_set_key" : "_ZN7android8hardware14broadcastradio4V2_024BpHwAnnouncementListener5debugERKNS0_11hidl_handleERKNS0_8hidl_vecINS0_11hidl_stringEEE",
   "parameters" :
   [
    {
     "is_this_ptr" : true,
     "referenced_type" : "_ZTIPN7android8hardware14broadcastradio4V2_024BpHwAnnouncementListenerE"
    },
    {
     "referenced_type" : "_ZTIRKN7android8hardware11hidl_handleE"
    },
    {
     "referenced_type" : "_ZTIRKN7android8hardware8hidl_vecINS0_11hidl_stringEEE"
    }
   ],
   "return_type" : "_ZTIN7android8hardware6ReturnIvEE",
   "source_file" : "/out/soong/.intermediates/hardware/interfaces/broadcastradio/2.0/android.hardware.broadcastradio@2.0_genc++_headers/gen/android/hardware/broadcastradio/2.0/BpHwAnnouncementListener.h"
  },
  {
   "function_name" : "android::hardware::broadcastradio::V2_0::BpHwAnnouncementListener::BpHwAnnouncementListener",
   "linker_set_key" : "_ZN7android8hardware14broadcastradio4V2_024BpHwAnnouncementListenerC1ERKNS_2spINS0_7IBinderEEE",
   "parameters" :
   [
    {
     "is_this_ptr" : true,
     "referenced_type" : "_ZTIPN7android8hardware14broadcastradio4V2_024BpHwAnnouncementListenerE"
    },
    {
     "referenced_type" : "_ZTIRKN7android2spINS_8hardware7IBinderEEE"
    }
   ],
   "return_type" : "_ZTIv",
   "source_file" : "/out/soong/.intermediates/hardware/interfaces/broadcastradio/2.0/android.hardware.broadcastradio@2.0_genc++_headers/gen/android/hardware/broadcastradio/2.0/BpHwAnnouncementListener.h"
  },
  {
   "function_name" : "android::hardware::broadcastradio::V2_0::BpHwAnnouncementListener::BpHwAnnouncementListener",
   "linker_set_key" : "_ZN7android8hardware14broadcastradio4V2_024BpHwAnnouncementListenerC2ERKNS_2spINS0_7IBinderEEE",
   "parameters" :
   [
    {
     "is_this_ptr" : true,
     "referenced_type" : "_ZTIPN7android8hardware14broadcastradio4V2_024BpHwAnnouncementListenerE"
    },
    {
     "referenced_type" : "_ZTIRKN7android2spINS_8hardware7IBinderEEE"
    }
   ],
   "return_type" : "_ZTIv",
   "source_file" : "/out/soong/.intermediates/hardware/interfaces/broadcastradio/2.0/android.hardware.broadcastradio@2.0_genc++_headers/gen/android/hardware/broadcastradio/2.0/BpHwAnnouncementListener.h"
  },
  {
   "function_name" : "android::hardware::details::castInterface",
   "linker_set_key" : "_ZN7android8hardware7details13castInterfaceINS0_14broadcastradio4V2_012ICloseHandleENS_4hidl4base4V1_05IBaseENS4_15BpHwCloseHandleEEENS0_6ReturnINS_2spIT_EEEENSC_IT0_EEPKcb",
   "parameters" :
   [
    {
     "referenced_type" : "_ZTIN7android2spINS_4hidl4base4V1_05IBaseEEE"
    },
    {
     "referenced_type" : "_ZTIPKc"
    },
    {
     "referenced_type" : "_ZTIb"
    }
   ],
   "return_type" : "_ZTIN7android8hardware6ReturnINS_2spINS0_14broadcastradio4V2_012ICloseHandleEEEEE",
   "source_file" : "/system/libhidl/transport/include/hidl/HidlTransportSupport.h",
   "template_args" :
   [
    "_ZTIN7android8hardware14broadcastradio4V2_012ICloseHandleE",
    "_ZTIN7android4hidl4base4V1_05IBaseE",
    "_ZTIN7android8hardware14broadcastradio4V2_015BpHwCloseHandleE"
   ]
  },
  {
   "function_name" : "android::hardware::details::castInterface",
   "linker_set_key" : "_ZN7android8hardware7details13castInterfaceINS0_14broadcastradio4V2_013ITunerSessionENS_4hidl4base4V1_05IBaseENS4_16BpHwTunerSessionEEENS0_6ReturnINS_2spIT_EEEENSC_IT0_EEPKcb",
   "parameters" :
   [
    {
     "referenced_type" : "_ZTIN7android2spINS_4hidl4base4V1_05IBaseEEE"
    },
    {
     "referenced_type" : "_ZTIPKc"
    },
    {
     "referenced_type" : "_ZTIb"
    }
   ],
   "return_type" : "_ZTIN7android8hardware6ReturnINS_2spINS0_14broadcastradio4V2_013ITunerSessionEEEEE",
   "source_file" : "/system/libhidl/transport/include/hidl/HidlTransportSupport.h",
   "template_args" :
   [
    "_ZTIN7android8hardware14broadcastradio4V2_013ITunerSessionE",
    "_ZTIN7android4hidl4base4V1_05IBaseE",
    "_ZTIN7android8hardware14broadcastradio4V2_016BpHwTunerSessionE"
   ]
  },
  {
   "function_name" : "android::hardware::details::castInterface",
   "linker_set_key" : "_ZN7android8hardware7details13castInterfaceINS0_14broadcastradio4V2_014ITunerCallbackENS_4hidl4base4V1_05IBaseENS4_17BpHwTunerCallbackEEENS0_6ReturnINS_2spIT_EEEENSC_IT0_EEPKcb",
   "parameters" :
   [
    {
     "referenced_type" : "_ZTIN7android2spINS_4hidl4base4V1_05IBaseEEE"
    },
    {
     "referenced_type" : "_ZTIPKc"
    },
    {
     "referenced_type" : "_ZTIb"
    }
   ],
   "return_type" : "_ZTIN7android8hardware6ReturnINS_2spINS0_14broadcastradio4V2_014ITunerCallbackEEEEE",
   "source_file" : "/system/libhidl/transport/include/hidl/HidlTransportSupport.h",
   "template_args" :
   [
    "_ZTIN7android8hardware14broadcastradio4V2_014ITunerCallbackE",
    "_ZTIN7android4hidl4base4V1_05IBaseE",
    "_ZTIN7android8hardware14broadcastradio4V2_017BpHwTunerCallbackE"
   ]
  },
  {
   "function_name" : "android::hardware::details::castInterface",
   "linker_set_key" : "_ZN7android8hardware7details13castInterfaceINS0_14broadcastradio4V2_015IBroadcastRadioENS_4hidl4base4V1_05IBaseENS4_18BpHwBroadcastRadioEEENS0_6ReturnINS_2spIT_EEEENSC_IT0_EEPKcb",
   "parameters" :
   [
    {
     "referenced_type" : "_ZTIN7android2spINS_4hidl4base4V1_05IBaseEEE"
    },
    {
     "referenced_type" : "_ZTIPKc"
    },
    {
     "referenced_type" : "_ZTIb"
    }
   ],
   "return_type" : "_ZTIN7android8hardware6ReturnINS_2spINS0_14broadcastradio4V2_015IBroadcastRadioEEEEE",
   "source_file" : "/system/libhidl/transport/include/hidl/HidlTransportSupport.h",
   "template_args" :
   [
    "_ZTIN7android8hardware14broadcastradio4V2_015IBroadcastRadioE",
    "_ZTIN7android4hidl4base4V1_05IBaseE",
    "_ZTIN7android8hardware14broadcastradio4V2_018BpHwBroadcastRadioE"
   ]
  },
  {
   "function_name" : "android::hardware::details::castInterface",
   "linker_set_key" : "_ZN7android8hardware7details13castInterfaceINS0_14broadcastradio4V2_021IAnnouncementListenerENS_4hidl4base4V1_05IBaseENS4_24BpHwAnnouncementListenerEEENS0_6ReturnINS_2spIT_EEEENSC_IT0_EEPKcb",
   "parameters" :
   [
    {
     "referenced_type" : "_ZTIN7android2spINS_4hidl4base4V1_05IBaseEEE"
    },
    {
     "referenced_type" : "_ZTIPKc"
    },
    {
     "referenced_type" : "_ZTIb"
    }
   ],
   "return_type" : "_ZTIN7android8hardware6ReturnINS_2spINS0_14broadcastradio4V2_021IAnnouncementListenerEEEEE",
   "source_file" : "/system/libhidl/transport/include/hidl/HidlTransportSupport.h",
   "template_args" :
   [
    "_ZTIN7android8hardware14broadcastradio4V2_021IAnnouncementListenerE",
    "_ZTIN7android4hidl4base4V1_05IBaseE",
    "_ZTIN7android8hardware14broadcastradio4V2_024BpHwAnnouncementListenerE"
   ]
  },
  {
   "function_name" : "android::hardware::details::wrapPassthrough",
   "linker_set_key" : "_ZN7android8hardware7details15wrapPassthroughINS0_14broadcastradio4V2_012ICloseHandleEvEENS_2spIT_EES8_",
   "parameters" :
   [
    {
     "referenced_type" : "_ZTIN7android2spINS_8hardware14broadcastradio4V2_012ICloseHandleEEE"
    }
   ],
   "return_type" : "_ZTIN7android2spINS_8hardware14broadcastradio4V2_012ICloseHandleEEE",
   "source_file" : "/system/libhidl/transport/include/hidl/HidlPassthroughSupport.h",
   "template_args" : [ "_ZTIN7android8hardware14broadcastradio4V2_012ICloseHandleE", "_ZTIv" ]
  },
  {
   "function_name" : "android::hardware::details::wrapPassthrough",
   "linker_set_key" : "_ZN7android8hardware7details15wrapPassthroughINS0_14broadcastradio4V2_013ITunerSessionEvEENS_2spIT_EES8_",
   "parameters" :
   [
    {
     "referenced_type" : "_ZTIN7android2spINS_8hardware14broadcastradio4V2_013ITunerSessionEEE"
    }
   ],
   "return_type" : "_ZTIN7android2spINS_8hardware14broadcastradio4V2_013ITunerSessionEEE",
   "source_file" : "/system/libhidl/transport/include/hidl/HidlPassthroughSupport.h",
   "template_args" :
   [
    "_ZTIN7android8hardware14broadcastradio4V2_013ITunerSessionE",
    "_ZTIv"
   ]
  },
  {
   "function_name" : "android::hardware::details::wrapPassthrough",
   "linker_set_key" : "_ZN7android8hardware7details15wrapPassthroughINS0_14broadcastradio4V2_014ITunerCallbackEvEENS_2spIT_EES8_",
   "parameters" :
   [
    {
     "referenced_type" : "_ZTIN7android2spINS_8hardware14broadcastradio4V2_014ITunerCallbackEEE"
    }
   ],
   "return_type" : "_ZTIN7android2spINS_8hardware14broadcastradio4V2_014ITunerCallbackEEE",
   "source_file" : "/system/libhidl/transport/include/hidl/HidlPassthroughSupport.h",
   "template_args" :
   [
    "_ZTIN7android8hardware14broadcastradio4V2_014ITunerCallbackE",
    "_ZTIv"
   ]
  },
  {
   "function_name" : "android::hardware::details::wrapPassthrough",
   "linker_set_key" : "_ZN7android8hardware7details15wrapPassthroughINS0_14broadcastradio4V2_021IAnnouncementListenerEvEENS_2spIT_EES8_",
   "parameters" :
   [
    {
     "referenced_type" : "_ZTIN7android2spINS_8hardware14broadcastradio4V2_021IAnnouncementListenerEEE"
    }
   ],
   "return_type" : "_ZTIN7android2spINS_8hardware14broadcastradio4V2_021IAnnouncementListenerEEE",
   "source_file" : "/system/libhidl/transport/include/hidl/HidlPassthroughSupport.h",
   "template_args" :
   [
    "_ZTIN7android8hardware14broadcastradio4V2_021IAnnouncementListenerE",
    "_ZTIv"
   ]
  },
  {
   "function_name" : "android::hardware::details::getServiceInternal",
   "linker_set_key" : "_ZN7android8hardware7details18getServiceInternalINS0_14broadcastradio4V2_015BpHwCloseHandleENS4_12ICloseHandleEvvEENS_2spIT0_EERKNSt3__112basic_stringIcNSA_11char_traitsIcEENSA_9allocatorIcEEEEbb",
   "parameters" :
   [
    {
     "referenced_type" : "_ZTIRKNSt3__112basic_stringIcNS_11char_traitsIcEENS_9allocatorIcEEEE"
    },
    {
     "referenced_type" : "_ZTIb"
    },
    {
     "referenced_type" : "_ZTIb"
    }
   ],
   "return_type" : "_ZTIN7android2spINS_8hardware14broadcastradio4V2_012ICloseHandleEEE",
   "source_file" : "/system/libhidl/transport/include/hidl/HidlTransportSupport.h",
   "template_args" :
   [
    "_ZTIN7android8hardware14broadcastradio4V2_015BpHwCloseHandleE",
    "_ZTIN7android8hardware14broadcastradio4V2_012ICloseHandleE",
    "_ZTIv",
    "_ZTIv"
   ]
  },
  {
   "function_name" : "android::hardware::details::getServiceInternal",
   "linker_set_key" : "_ZN7android8hardware7details18getServiceInternalINS0_14broadcastradio4V2_016BpHwTunerSessionENS4_13ITunerSessionEvvEENS_2spIT0_EERKNSt3__112basic_stringIcNSA_11char_traitsIcEENSA_9allocatorIcEEEEbb",
   "parameters" :
   [
    {
     "referenced_type" : "_ZTIRKNSt3__112basic_stringIcNS_11char_traitsIcEENS_9allocatorIcEEEE"
    },
    {
     "referenced_type" : "_ZTIb"
    },
    {
     "referenced_type" : "_ZTIb"
    }
   ],
   "return_type" : "_ZTIN7android2spINS_8hardware14broadcastradio4V2_013ITunerSessionEEE",
   "source_file" : "/system/libhidl/transport/include/hidl/HidlTransportSupport.h",
   "template_args" :
   [
    "_ZTIN7android8hardware14broadcastradio4V2_016BpHwTunerSessionE",
    "_ZTIN7android8hardware14broadcastradio4V2_013ITunerSessionE",
    "_ZTIv",
    "_ZTIv"
   ]
  },
  {
   "function_name" : "android::hardware::details::getServiceInternal",
   "linker_set_key" : "_ZN7android8hardware7details18getServiceInternalINS0_14broadcastradio4V2_017BpHwTunerCallbackENS4_14ITunerCallbackEvvEENS_2spIT0_EERKNSt3__112basic_stringIcNSA_11char_traitsIcEENSA_9allocatorIcEEEEbb",
   "parameters" :
   [
    {
     "referenced_type" : "_ZTIRKNSt3__112basic_stringIcNS_11char_traitsIcEENS_9allocatorIcEEEE"
    },
    {
     "referenced_type" : "_ZTIb"
    },
    {
     "referenced_type" : "_ZTIb"
    }
   ],
   "return_type" : "_ZTIN7android2spINS_8hardware14broadcastradio4V2_014ITunerCallbackEEE",
   "source_file" : "/system/libhidl/transport/include/hidl/HidlTransportSupport.h",
   "template_args" :
   [
    "_ZTIN7android8hardware14broadcastradio4V2_017BpHwTunerCallbackE",
    "_ZTIN7android8hardware14broadcastradio4V2_014ITunerCallbackE",
    "_ZTIv",
    "_ZTIv"
   ]
  },
  {
   "function_name" : "android::hardware::details::getServiceInternal",
   "linker_set_key" : "_ZN7android8hardware7details18getServiceInternalINS0_14broadcastradio4V2_018BpHwBroadcastRadioENS4_15IBroadcastRadioEvvEENS_2spIT0_EERKNSt3__112basic_stringIcNSA_11char_traitsIcEENSA_9allocatorIcEEEEbb",
   "parameters" :
   [
    {
     "referenced_type" : "_ZTIRKNSt3__112basic_stringIcNS_11char_traitsIcEENS_9allocatorIcEEEE"
    },
    {
     "referenced_type" : "_ZTIb"
    },
    {
     "referenced_type" : "_ZTIb"
    }
   ],
   "return_type" : "_ZTIN7android2spINS_8hardware14broadcastradio4V2_015IBroadcastRadioEEE",
   "source_file" : "/system/libhidl/transport/include/hidl/HidlTransportSupport.h",
   "template_args" :
   [
    "_ZTIN7android8hardware14broadcastradio4V2_018BpHwBroadcastRadioE",
    "_ZTIN7android8hardware14broadcastradio4V2_015IBroadcastRadioE",
    "_ZTIv",
    "_ZTIv"
   ]
  },
  {
   "function_name" : "android::hardware::details::getServiceInternal",
   "linker_set_key" : "_ZN7android8hardware7details18getServiceInternalINS0_14broadcastradio4V2_024BpHwAnnouncementListenerENS4_21IAnnouncementListenerEvvEENS_2spIT0_EERKNSt3__112basic_stringIcNSA_11char_traitsIcEENSA_9allocatorIcEEEEbb",
   "parameters" :
   [
    {
     "referenced_type" : "_ZTIRKNSt3__112basic_stringIcNS_11char_traitsIcEENS_9allocatorIcEEEE"
    },
    {
     "referenced_type" : "_ZTIb"
    },
    {
     "referenced_type" : "_ZTIb"
    }
   ],
   "return_type" : "_ZTIN7android2spINS_8hardware14broadcastradio4V2_021IAnnouncementListenerEEE",
   "source_file" : "/system/libhidl/transport/include/hidl/HidlTransportSupport.h",
   "template_args" :
   [
    "_ZTIN7android8hardware14broadcastradio4V2_024BpHwAnnouncementListenerE",
    "_ZTIN7android8hardware14broadcastradio4V2_021IAnnouncementListenerE",
    "_ZTIv",
    "_ZTIv"
   ]
  },
  {
   "function_name" : "android::hardware::broadcastradio::V2_0::BpHwCloseHandle::onLastStrongRef",
   "linker_set_key" : "_ZThn16_N7android8hardware14broadcastradio4V2_015BpHwCloseHandle15onLastStrongRefEPKv",
   "parameters" :
   [
    {
     "is_this_ptr" : true,
     "referenced_type" : "_ZTIPN7android8hardware14broadcastradio4V2_015BpHwCloseHandleE"
    },
    {
     "referenced_type" : "_ZTIPKv"
    }
   ],
   "return_type" : "_ZTIv",
   "source_file" : "/out/soong/.intermediates/hardware/interfaces/broadcastradio/2.0/android.hardware.broadcastradio@2.0_genc++_headers/gen/android/hardware/broadcastradio/2.0/BpHwCloseHandle.h"
  },
  {
   "function_name" : "android::hardware::broadcastradio::V2_0::BpHwTunerSession::onLastStrongRef",
   "linker_set_key" : "_ZThn16_N7android8hardware14broadcastradio4V2_016BpHwTunerSession15onLastStrongRefEPKv",
   "parameters" :
   [
    {
     "is_this_ptr" : true,
     "referenced_type" : "_ZTIPN7android8hardware14broadcastradio4V2_016BpHwTunerSessionE"
    },
    {
     "referenced_type" : "_ZTIPKv"
    }
   ],
   "return_type" : "_ZTIv",
   "source_file" : "/out/soong/.intermediates/hardware/interfaces/broadcastradio/2.0/android.hardware.broadcastradio@2.0_genc++_headers/gen/android/hardware/broadcastradio/2.0/BpHwTunerSession.h"
  },
  {
   "function_name" : "android::hardware::broadcastradio::V2_0::BpHwTunerCallback::onLastStrongRef",
   "linker_set_key" : "_ZThn16_N7android8hardware14broadcastradio4V2_017BpHwTunerCallback15onLastStrongRefEPKv",
   "parameters" :
   [
    {
     "is_this_ptr" : true,
     "referenced_type" : "_ZTIPN7android8hardware14broadcastradio4V2_017BpHwTunerCallbackE"
    },
    {
     "referenced_type" : "_ZTIPKv"
    }
   ],
   "return_type" : "_ZTIv",
   "source_file" : "/out/soong/.intermediates/hardware/interfaces/broadcastradio/2.0/android.hardware.broadcastradio@2.0_genc++_headers/gen/android/hardware/broadcastradio/2.0/BpHwTunerCallback.h"
  },
  {
   "function_name" : "android::hardware::broadcastradio::V2_0::BpHwBroadcastRadio::onLastStrongRef",
   "linker_set_key" : "_ZThn16_N7android8hardware14broadcastradio4V2_018BpHwBroadcastRadio15onLastStrongRefEPKv",
   "parameters" :
   [
    {
     "is_this_ptr" : true,
     "referenced_type" : "_ZTIPN7android8hardware14broadcastradio4V2_018BpHwBroadcastRadioE"
    },
    {
     "referenced_type" : "_ZTIPKv"
    }
   ],
   "return_type" : "_ZTIv",
   "source_file" : "/out/soong/.intermediates/hardware/interfaces/broadcastradio/2.0/android.hardware.broadcastradio@2.0_genc++_headers/gen/android/hardware/broadcastradio/2.0/BpHwBroadcastRadio.h"
  },
  {
   "function_name" : "android::hardware::broadcastradio::V2_0::BpHwAnnouncementListener::onLastStrongRef",
   "linker_set_key" : "_ZThn16_N7android8hardware14broadcastradio4V2_024BpHwAnnouncementListener15onLastStrongRefEPKv",
   "parameters" :
   [
    {
     "is_this_ptr" : true,
     "referenced_type" : "_ZTIPN7android8hardware14broadcastradio4V2_024BpHwAnnouncementListenerE"
    },
    {
     "referenced_type" : "_ZTIPKv"
    }
   ],
   "return_type" : "_ZTIv",
   "source_file" : "/out/soong/.intermediates/hardware/interfaces/broadcastradio/2.0/android.hardware.broadcastradio@2.0_genc++_headers/gen/android/hardware/broadcastradio/2.0/BpHwAnnouncementListener.h"
  },
  {
   "function_name" : "android::hardware::broadcastradio::V2_0::BpHwCloseHandle::onLastStrongRef",
   "linker_set_key" : "_ZTv0_n40_N7android8hardware14broadcastradio4V2_015BpHwCloseHandle15onLastStrongRefEPKv",
   "parameters" :
   [
    {
     "is_this_ptr" : true,
     "referenced_type" : "_ZTIPN7android8hardware14broadcastradio4V2_015BpHwCloseHandleE"
    },
    {
     "referenced_type" : "_ZTIPKv"
    }
   ],
   "return_type" : "_ZTIv",
   "source_file" : "/out/soong/.intermediates/hardware/interfaces/broadcastradio/2.0/android.hardware.broadcastradio@2.0_genc++_headers/gen/android/hardware/broadcastradio/2.0/BpHwCloseHandle.h"
  },
  {
   "function_name" : "android::hardware::broadcastradio::V2_0::BpHwTunerSession::onLastStrongRef",
   "linker_set_key" : "_ZTv0_n40_N7android8hardware14broadcastradio4V2_016BpHwTunerSession15onLastStrongRefEPKv",
   "parameters" :
   [
    {
     "is_this_ptr" : true,
     "referenced_type" : "_ZTIPN7android8hardware14broadcastradio4V2_016BpHwTunerSessionE"
    },
    {
     "referenced_type" : "_ZTIPKv"
    }
   ],
   "return_type" : "_ZTIv",
   "source_file" : "/out/soong/.intermediates/hardware/interfaces/broadcastradio/2.0/android.hardware.broadcastradio@2.0_genc++_headers/gen/android/hardware/broadcastradio/2.0/BpHwTunerSession.h"
  },
  {
   "function_name" : "android::hardware::broadcastradio::V2_0::BpHwTunerCallback::onLastStrongRef",
   "linker_set_key" : "_ZTv0_n40_N7android8hardware14broadcastradio4V2_017BpHwTunerCallback15onLastStrongRefEPKv",
   "parameters" :
   [
    {
     "is_this_ptr" : true,
     "referenced_type" : "_ZTIPN7android8hardware14broadcastradio4V2_017BpHwTunerCallbackE"
    },
    {
     "referenced_type" : "_ZTIPKv"
    }
   ],
   "return_type" : "_ZTIv",
   "source_file" : "/out/soong/.intermediates/hardware/interfaces/broadcastradio/2.0/android.hardware.broadcastradio@2.0_genc++_headers/gen/android/hardware/broadcastradio/2.0/BpHwTunerCallback.h"
  },
  {
   "function_name" : "android::hardware::broadcastradio::V2_0::BpHwBroadcastRadio::onLastStrongRef",
   "linker_set_key" : "_ZTv0_n40_N7android8hardware14broadcastradio4V2_018BpHwBroadcastRadio15onLastStrongRefEPKv",
   "parameters" :
   [
    {
     "is_this_ptr" : true,
     "referenced_type" : "_ZTIPN7android8hardware14broadcastradio4V2_018BpHwBroadcastRadioE"
    },
    {
     "referenced_type" : "_ZTIPKv"
    }
   ],
   "return_type" : "_ZTIv",
   "source_file" : "/out/soong/.intermediates/hardware/interfaces/broadcastradio/2.0/android.hardware.broadcastradio@2.0_genc++_headers/gen/android/hardware/broadcastradio/2.0/BpHwBroadcastRadio.h"
  },
  {
   "function_name" : "android::hardware::broadcastradio::V2_0::BpHwAnnouncementListener::onLastStrongRef",
   "linker_set_key" : "_ZTv0_n40_N7android8hardware14broadcastradio4V2_024BpHwAnnouncementListener15onLastStrongRefEPKv",
   "parameters" :
   [
    {
     "is_this_ptr" : true,
     "referenced_type" : "_ZTIPN7android8hardware14broadcastradio4V2_024BpHwAnnouncementListenerE"
    },
    {
     "referenced_type" : "_ZTIPKv"
    }
   ],
   "return_type" : "_ZTIv",
   "source_file" : "/out/soong/.intermediates/hardware/interfaces/broadcastradio/2.0/android.hardware.broadcastradio@2.0_genc++_headers/gen/android/hardware/broadcastradio/2.0/BpHwAnnouncementListener.h"
  }
 ],
 "global_vars" :
 [
  {
   "linker_set_key" : "_ZN7android8hardware14broadcastradio4V2_012ICloseHandle10descriptorE",
   "name" : "android::hardware::broadcastradio::V2_0::ICloseHandle::descriptor",
   "referenced_type" : "_ZTIPKc",
   "source_file" : "/out/soong/.intermediates/hardware/interfaces/broadcastradio/2.0/android.hardware.broadcastradio@2.0_genc++_headers/gen/android/hardware/broadcastradio/2.0/ICloseHandle.h"
  },
  {
   "linker_set_key" : "_ZN7android8hardware14broadcastradio4V2_013ITunerSession10descriptorE",
   "name" : "android::hardware::broadcastradio::V2_0::ITunerSession::descriptor",
   "referenced_type" : "_ZTIPKc",
   "source_file" : "/out/soong/.intermediates/hardware/interfaces/broadcastradio/2.0/android.hardware.broadcastradio@2.0_genc++_headers/gen/android/hardware/broadcastradio/2.0/ITunerSession.h"
  },
  {
   "linker_set_key" : "_ZN7android8hardware14broadcastradio4V2_014ITunerCallback10descriptorE",
   "name" : "android::hardware::broadcastradio::V2_0::ITunerCallback::descriptor",
   "referenced_type" : "_ZTIPKc",
   "source_file" : "/out/soong/.intermediates/hardware/interfaces/broadcastradio/2.0/android.hardware.broadcastradio@2.0_genc++_headers/gen/android/hardware/broadcastradio/2.0/ITunerCallback.h"
  },
  {
   "linker_set_key" : "_ZN7android8hardware14broadcastradio4V2_015IBroadcastRadio10descriptorE",
   "name" : "android::hardware::broadcastradio::V2_0::IBroadcastRadio::descriptor",
   "referenced_type" : "_ZTIPKc",
   "source_file" : "/out/soong/.intermediates/hardware/interfaces/broadcastradio/2.0/android.hardware.broadcastradio@2.0_genc++_headers/gen/android/hardware/broadcastradio/2.0/IBroadcastRadio.h"
  },
  {
   "linker_set_key" : "_ZN7android8hardware14broadcastradio4V2_021IAnnouncementListener10descriptorE",
   "name" : "android::hardware::broadcastradio::V2_0::IAnnouncementListener::descriptor",
   "referenced_type" : "_ZTIPKc",
   "source_file" : "/out/soong/.intermediates/hardware/interfaces/broadcastradio/2.0/android.hardware.broadcastradio@2.0_genc++_headers/gen/android/hardware/broadcastradio/2.0/IAnnouncementListener.h"
  }
 ],
 "lvalue_reference_types" :
 [
  {
   "alignment" : 8,
   "linker_set_key" : "_ZTIRK7log_msg",
   "name" : "const log_msg &",
   "referenced_type" : "_ZTIK7log_msg",
   "self_type" : "_ZTIRK7log_msg",
   "size" : 8,
   "source_file" : "/system/core/liblog/include/log/log_read.h"
  },
  {
   "alignment" : 8,
   "linker_set_key" : "_ZTIRKN7android2spINS_4hidl4base4V1_05IBaseEEE",
   "name" : "const android::sp<android::hidl::base::V1_0::IBase> &",
   "referenced_type" : "_ZTIKN7android2spINS_4hidl4base4V1_05IBaseEEE",
   "self_type" : "_ZTIRKN7android2spINS_4hidl4base4V1_05IBaseEEE",
   "size" : 8,
   "source_file" : "/system/core/libutils/include/utils/StrongPointer.h"
  },
  {
   "alignment" : 8,
   "linker_set_key" : "_ZTIRKN7android2spINS_4hidl7manager4V1_020IServiceNotificationEEE",
   "name" : "const android::sp<android::hidl::manager::V1_0::IServiceNotification> &",
   "referenced_type" : "_ZTIKN7android2spINS_4hidl7manager4V1_020IServiceNotificationEEE",
   "self_type" : "_ZTIRKN7android2spINS_4hidl7manager4V1_020IServiceNotificationEEE",
   "size" : 8,
   "source_file" : "/out/soong/.intermediates/hardware/interfaces/broadcastradio/2.0/android.hardware.broadcastradio@2.0_genc++_headers/gen/android/hardware/broadcastradio/2.0/IAnnouncementListener.h"
  },
  {
   "alignment" : 8,
   "linker_set_key" : "_ZTIRKN7android2spINS_8hardware14broadcastradio4V2_012ICloseHandleEEE",
   "name" : "const android::sp<android::hardware::broadcastradio::V2_0::ICloseHandle> &",
   "referenced_type" : "_ZTIKN7android2spINS_8hardware14broadcastradio4V2_012ICloseHandleEEE",
   "self_type" : "_ZTIRKN7android2spINS_8hardware14broadcastradio4V2_012ICloseHandleEEE",
   "size" : 8,
   "source_file" : "/system/core/libutils/include/utils/StrongPointer.h"
  },
  {
   "alignment" : 8,
   "linker_set_key" : "_ZTIRKN7android2spINS_8hardware14broadcastradio4V2_013ITunerSessionEEE",
   "name" : "const android::sp<android::hardware::broadcastradio::V2_0::ITunerSession> &",
   "referenced_type" : "_ZTIKN7android2spINS_8hardware14broadcastradio4V2_013ITunerSessionEEE",
   "self_type" : "_ZTIRKN7android2spINS_8hardware14broadcastradio4V2_013ITunerSessionEEE",
   "size" : 8,
   "source_file" : "/system/core/libutils/include/utils/StrongPointer.h"
  },
  {
   "alignment" : 8,
   "linker_set_key" : "_ZTIRKN7android2spINS_8hardware14broadcastradio4V2_014ITunerCallbackEEE",
   "name" : "const android::sp<android::hardware::broadcastradio::V2_0::ITunerCallback> &",
   "referenced_type" : "_ZTIKN7android2spINS_8hardware14broadcastradio4V2_014ITunerCallbackEEE",
   "self_type" : "_ZTIRKN7android2spINS_8hardware14broadcastradio4V2_014ITunerCallbackEEE",
   "size" : 8,
   "source_file" : "/system/core/libutils/include/utils/StrongPointer.h"
  },
  {
   "alignment" : 8,
   "linker_set_key" : "_ZTIRKN7android2spINS_8hardware14broadcastradio4V2_015IBroadcastRadioEEE",
   "name" : "const android::sp<android::hardware::broadcastradio::V2_0::IBroadcastRadio> &",
   "referenced_type" : "_ZTIKN7android2spINS_8hardware14broadcastradio4V2_015IBroadcastRadioEEE",
   "self_type" : "_ZTIRKN7android2spINS_8hardware14broadcastradio4V2_015IBroadcastRadioEEE",
   "size" : 8,
   "source_file" : "/system/core/libutils/include/utils/StrongPointer.h"
  },
  {
   "alignment" : 8,
   "linker_set_key" : "_ZTIRKN7android2spINS_8hardware14broadcastradio4V2_021IAnnouncementListenerEEE",
   "name" : "const android::sp<android::hardware::broadcastradio::V2_0::IAnnouncementListener> &",
   "referenced_type" : "_ZTIKN7android2spINS_8hardware14broadcastradio4V2_021IAnnouncementListenerEEE",
   "self_type" : "_ZTIRKN7android2spINS_8hardware14broadcastradio4V2_021IAnnouncementListenerEEE",
   "size" : 8,
   "source_file" : "/system/core/libutils/include/utils/StrongPointer.h"
  },
  {
   "alignment" : 8,
   "linker_set_key" : "_ZTIRKN7android2spINS_8hardware20hidl_death_recipientEEE",
   "name" : "const android::sp<android::hardware::hidl_death_recipient> &",
   "referenced_type" : "_ZTIKN7android2spINS_8hardware20hidl_death_recipientEEE",
   "self_type" : "_ZTIRKN7android2spINS_8hardware20hidl_death_recipientEEE",
   "size" : 8,
   "source_file" : "/system/core/libutils/include/utils/RefBase.h"
  },
  {
   "alignment" : 8,
   "linker_set_key" : "_ZTIRKN7android2spINS_8hardware27hidl_binder_death_recipientEEE",
   "name" : "const android::sp<android::hardware::hidl_binder_death_recipient> &",
   "referenced_type" : "_ZTIKN7android2spINS_8hardware27hidl_binder_death_recipientEEE",
   "self_type" : "_ZTIRKN7android2spINS_8hardware27hidl_binder_death_recipientEEE",
   "size" : 8,
   "source_file" : "/system/core/libutils/include/utils/RefBase.h"
  },
  {
   "alignment" : 8,
   "linker_set_key" : "_ZTIRKN7android2spINS_8hardware7IBinderEEE",
   "name" : "const android::sp<android::hardware::IBinder> &",
   "referenced_type" : "_ZTIKN7android2spINS_8hardware7IBinderEEE",
   "self_type" : "_ZTIRKN7android2spINS_8hardware7IBinderEEE",
   "size" : 8,
   "source_file" : "/system/libhwbinder/include/hwbinder/IInterface.h"
  },
  {
   "alignment" : 8,
   "linker_set_key" : "_ZTIRKN7android2wpINS_8hardware9BHwBinderEEE",
   "name" : "const android::wp<android::hardware::BHwBinder> &",
   "referenced_type" : "_ZTIKN7android2wpINS_8hardware9BHwBinderEEE",
   "self_type" : "_ZTIRKN7android2wpINS_8hardware9BHwBinderEEE",
   "size" : 8,
   "source_file" : "/system/core/libutils/include/utils/RefBase.h"
  },
  {
   "alignment" : 8,
   "linker_set_key" : "_ZTIRKN7android7String8E",
   "name" : "const android::String8 &",
   "referenced_type" : "_ZTIKN7android7String8E",
   "self_type" : "_ZTIRKN7android7String8E",
   "size" : 8,
   "source_file" : "/system/core/libutils/include/utils/String8.h"
  },
  {
   "alignment" : 8,
   "linker_set_key" : "_ZTIRKN7android8String16E",
   "name" : "const android::String16 &",
   "referenced_type" : "_ZTIKN7android8String16E",
   "self_type" : "_ZTIRKN7android8String16E",
   "size" : 8,
   "source_file" : "/system/core/libutils/include/utils/String16.h"
  },
  {
   "alignment" : 8,
   "linker_set_key" : "_ZTIRKN7android8hardware10hidl_arrayIhLm32EJEEE",
   "name" : "const android::hardware::hidl_array<unsigned char, 32> &",
   "referenced_type" : "_ZTIKN7android8hardware10hidl_arrayIhLm32EJEEE",
   "self_type" : "_ZTIRKN7android8hardware10hidl_arrayIhLm32EJEEE",
   "size" : 8,
   "source_file" : "/system/libhidl/base/include/hidl/HidlSupport.h"
  },
  {
   "alignment" : 8,
   "linker_set_key" : "_ZTIRKN7android8hardware11hidl_handleE",
   "name" : "const android::hardware::hidl_handle &",
   "referenced_type" : "_ZTIKN7android8hardware11hidl_handleE",
   "self_type" : "_ZTIRKN7android8hardware11hidl_handleE",
   "size" : 8,
   "source_file" : "/system/libhidl/base/include/hidl/HidlSupport.h"
  },
  {
   "alignment" : 8,
   "linker_set_key" : "_ZTIRKN7android8hardware11hidl_memoryE",
   "name" : "const android::hardware::hidl_memory &",
   "referenced_type" : "_ZTIKN7android8hardware11hidl_memoryE",
   "self_type" : "_ZTIRKN7android8hardware11hidl_memoryE",
   "size" : 8,
   "source_file" : "/system/libhidl/base/include/hidl/HidlSupport.h"
  },
  {
   "alignment" : 8,
   "linker_set_key" : "_ZTIRKN7android8hardware11hidl_stringE",
   "name" : "const android::hardware::hidl_string &",
   "referenced_type" : "_ZTIKN7android8hardware11hidl_stringE",
   "self_type" : "_ZTIRKN7android8hardware11hidl_stringE",
   "size" : 8,
   "source_file" : "/system/libhidl/base/include/hidl/HidlSupport.h"
  },
  {
   "alignment" : 8,
   "linker_set_key" : "_ZTIRKN7android8hardware12hidl_versionE",
   "name" : "const android::hardware::hidl_version &",
   "referenced_type" : "_ZTIKN7android8hardware12hidl_versionE",
   "self_type" : "_ZTIRKN7android8hardware12hidl_versionE",
   "size" : 8,
   "source_file" : "/system/libhidl/base/include/hidl/HidlSupport.h"
  },
  {
   "alignment" : 8,
   "linker_set_key" : "_ZTIRKN7android8hardware14broadcastradio4V2_010PropertiesE",
   "name" : "const android::hardware::broadcastradio::V2_0::Properties &",
   "referenced_type" : "_ZTIKN7android8hardware14broadcastradio4V2_010PropertiesE",
   "self_type" : "_ZTIRKN7android8hardware14broadcastradio4V2_010PropertiesE",
   "size" : 8,
   "source_file" : "/out/soong/.intermediates/hardware/interfaces/broadcastradio/2.0/android.hardware.broadcastradio@2.0_genc++_headers/gen/android/hardware/broadcastradio/2.0/hwtypes.h"
  },
  {
   "alignment" : 8,
   "linker_set_key" : "_ZTIRKN7android8hardware14broadcastradio4V2_011ProgramInfoE",
   "name" : "const android::hardware::broadcastradio::V2_0::ProgramInfo &",
   "referenced_type" : "_ZTIKN7android8hardware14broadcastradio4V2_011ProgramInfoE",
   "self_type" : "_ZTIRKN7android8hardware14broadcastradio4V2_011ProgramInfoE",
   "size" : 8,
   "source_file" : "/system/libhidl/base/include/hidl/HidlInternal.h"
  },
  {
   "alignment" : 8,
   "linker_set_key" : "_ZTIRKN7android8hardware14broadcastradio4V2_012AnnouncementE",
   "name" : "const android::hardware::broadcastradio::V2_0::Announcement &",
   "referenced_type" : "_ZTIKN7android8hardware14broadcastradio4V2_012AnnouncementE",
   "self_type" : "_ZTIRKN7android8hardware14broadcastradio4V2_012AnnouncementE",
   "size" : 8,
   "source_file" : "/system/libhidl/base/include/hidl/HidlInternal.h"
  },
  {
   "alignment" : 8,
   "linker_set_key" : "_ZTIRKN7android8hardware14broadcastradio4V2_013AmFmBandRangeE",
   "name" : "const android::hardware::broadcastradio::V2_0::AmFmBandRange &",
   "referenced_type" : "_ZTIKN7android8hardware14broadcastradio4V2_013AmFmBandRangeE",
   "self_type" : "_ZTIRKN7android8hardware14broadcastradio4V2_013AmFmBandRangeE",
   "size" : 8,
   "source_file" : "/system/libhidl/base/include/hidl/HidlInternal.h"
  },
  {
   "alignment" : 8,
   "linker_set_key" : "_ZTIRKN7android8hardware14broadcastradio4V2_013DabTableEntryE",
   "name" : "const android::hardware::broadcastradio::V2_0::DabTableEntry &",
   "referenced_type" : "_ZTIKN7android8hardware14broadcastradio4V2_013DabTableEntryE",
   "self_type" : "_ZTIRKN7android8hardware14broadcastradio4V2_013DabTableEntryE",
   "size" : 8,
   "source_file" : "/system/libhidl/base/include/hidl/HidlInternal.h"
  },
  {
   "alignment" : 8,
   "linker_set_key" : "_ZTIRKN7android8hardware14broadcastradio4V2_013ProgramFilterE",
   "name" : "const android::hardware::broadcastradio::V2_0::ProgramFilter &",
   "referenced_type" : "_ZTIKN7android8hardware14broadcastradio4V2_013ProgramFilterE",
   "self_type" : "_ZTIRKN7android8hardware14broadcastradio4V2_013ProgramFilterE",
   "size" : 8,
   "source_file" : "/out/soong/.intermediates/hardware/interfaces/broadcastradio/2.0/android.hardware.broadcastradio@2.0_genc++_headers/gen/android/hardware/broadcastradio/2.0/BpHwTunerSession.h"
  },
  {
   "alignment" : 8,
   "linker_set_key" : "_ZTIRKN7android8hardware14broadcastradio4V2_014VendorKeyValueE",
   "name" : "const android::hardware::broadcastradio::V2_0::VendorKeyValue &",
   "referenced_type" : "_ZTIKN7android8hardware14broadcastradio4V2_014VendorKeyValueE",
   "self_type" : "_ZTIRKN7android8hardware14broadcastradio4V2_014VendorKeyValueE",
   "size" : 8,
   "source_file" : "/system/libhidl/base/include/hidl/HidlInternal.h"
  },
  {
   "alignment" : 8,
   "linker_set_key" : "_ZTIRKN7android8hardware14broadcastradio4V2_015ProgramSelectorE",
   "name" : "const android::hardware::broadcastradio::V2_0::ProgramSelector &",
   "referenced_type" : "_ZTIKN7android8hardware14broadcastradio4V2_015ProgramSelectorE",
   "self_type" : "_ZTIRKN7android8hardware14broadcastradio4V2_015ProgramSelectorE",
   "size" : 8,
   "source_file" : "/out/soong/.intermediates/hardware/interfaces/broadcastradio/2.0/android.hardware.broadcastradio@2.0_genc++_headers/gen/android/hardware/broadcastradio/2.0/BpHwTunerCallback.h"
  },
  {
   "alignment" : 8,
   "linker_set_key" : "_ZTIRKN7android8hardware14broadcastradio4V2_016AmFmRegionConfigE",
   "name" : "const android::hardware::broadcastradio::V2_0::AmFmRegionConfig &",
   "referenced_type" : "_ZTIKN7android8hardware14broadcastradio4V2_016AmFmRegionConfigE",
   "self_type" : "_ZTIRKN7android8hardware14broadcastradio4V2_016AmFmRegionConfigE",
   "size" : 8,
   "source_file" : "/out/soong/.intermediates/hardware/interfaces/broadcastradio/2.0/android.hardware.broadcastradio@2.0_genc++_headers/gen/android/hardware/broadcastradio/2.0/hwtypes.h"
  },
  {
   "alignment" : 8,
   "linker_set_key" : "_ZTIRKN7android8hardware14broadcastradio4V2_016ProgramListChunkE",
   "name" : "const android::hardware::broadcastradio::V2_0::ProgramListChunk &",
   "referenced_type" : "_ZTIKN7android8hardware14broadcastradio4V2_016ProgramListChunkE",
   "self_type" : "_ZTIRKN7android8hardware14broadcastradio4V2_016ProgramListChunkE",
   "size" : 8,
   "source_file" : "/out/soong/.intermediates/hardware/interfaces/broadcastradio/2.0/android.hardware.broadcastradio@2.0_genc++_headers/gen/android/hardware/broadcastradio/2.0/BpHwTunerCallback.h"
  },
  {
   "alignment" : 8,
   "linker_set_key" : "_ZTIRKN7android8hardware14broadcastradio4V2_017ProgramIdentifierE",
   "name" : "const android::hardware::broadcastradio::V2_0::ProgramIdentifier &",
   "referenced_type" : "_ZTIKN7android8hardware14broadcastradio4V2_017ProgramIdentifierE",
   "self_type" : "_ZTIRKN7android8hardware14broadcastradio4V2_017ProgramIdentifierE",
   "size" : 8,
   "source_file" : "/system/libhidl/base/include/hidl/HidlInternal.h"
  },
  {
   "alignment" : 8,
   "linker_set_key" : "_ZTIRKN7android8hardware14broadcastradio4V2_08MetadataE",
   "name" : "const android::hardware::broadcastradio::V2_0::Metadata &",
   "referenced_type" : "_ZTIKN7android8hardware14broadcastradio4V2_08MetadataE",
   "self_type" : "_ZTIRKN7android8hardware14broadcastradio4V2_08MetadataE",
   "size" : 8,
   "source_file" : "/system/libhidl/base/include/hidl/HidlInternal.h"
  },
  {
   "alignment" : 8,
   "linker_set_key" : "_ZTIRKN7android8hardware6ParcelE",
   "name" : "const android::hardware::Parcel &",
   "referenced_type" : "_ZTIKN7android8hardware6ParcelE",
   "self_type" : "_ZTIRKN7android8hardware6ParcelE",
   "size" : 8,
   "source_file" : "/system/libhwbinder/include/hwbinder/Parcel.h"
  },
  {
   "alignment" : 8,
   "linker_set_key" : "_ZTIRKN7android8hardware6ReturnIbEE",
   "name" : "const android::hardware::Return<bool> &",
   "referenced_type" : "_ZTIKN7android8hardware6ReturnIbEE",
   "self_type" : "_ZTIRKN7android8hardware6ReturnIbEE",
   "size" : 8,
   "source_file" : "/system/libhidl/base/include/hidl/Status.h"
  },
  {
   "alignment" : 8,
   "linker_set_key" : "_ZTIRKN7android8hardware6StatusE",
   "name" : "const android::hardware::Status &",
   "referenced_type" : "_ZTIKN7android8hardware6StatusE",
   "self_type" : "_ZTIRKN7android8hardware6StatusE",
   "size" : 8,
   "source_file" : "/system/libhidl/base/include/hidl/Status.h"
  },
  {
   "linker_set_key" : "_ZTIRKN7android8hardware8hidl_vec4iterIXTL0__EEE",
   "name" : "const iter<is_const> &",
   "referenced_type" : "_ZTIKN7android8hardware8hidl_vec4iterIXTL0__EEE",
   "self_type" : "_ZTIRKN7android8hardware8hidl_vec4iterIXTL0__EEE",
   "source_file" : "/system/libhidl/base/include/hidl/HidlSupport.h"
  },
  {
   "alignment" : 8,
   "linker_set_key" : "_ZTIRKN7android8hardware8hidl_vecINS0_11hidl_stringEEE",
   "name" : "const android::hardware::hidl_vec<android::hardware::hidl_string> &",
   "referenced_type" : "_ZTIKN7android8hardware8hidl_vecINS0_11hidl_stringEEE",
   "self_type" : "_ZTIRKN7android8hardware8hidl_vecINS0_11hidl_stringEEE",
   "size" : 8,
   "source_file" : "/out/soong/.intermediates/hardware/interfaces/broadcastradio/2.0/android.hardware.broadcastradio@2.0_genc++_headers/gen/android/hardware/broadcastradio/2.0/IAnnouncementListener.h"
  },
  {
   "alignment" : 8,
   "linker_set_key" : "_ZTIRKN7android8hardware8hidl_vecINS0_14broadcastradio4V2_011ProgramInfoEEE",
   "name" : "const android::hardware::hidl_vec<android::hardware::broadcastradio::V2_0::ProgramInfo> &",
   "referenced_type" : "_ZTIKN7android8hardware8hidl_vecINS0_14broadcastradio4V2_011ProgramInfoEEE",
   "self_type" : "_ZTIRKN7android8hardware8hidl_vecINS0_14broadcastradio4V2_011ProgramInfoEEE",
   "size" : 8,
   "source_file" : "/system/libhidl/base/include/hidl/HidlSupport.h"
  },
  {
   "alignment" : 8,
   "linker_set_key" : "_ZTIRKN7android8hardware8hidl_vecINS0_14broadcastradio4V2_012AnnouncementEEE",
   "name" : "const android::hardware::hidl_vec<android::hardware::broadcastradio::V2_0::Announcement> &",
   "referenced_type" : "_ZTIKN7android8hardware8hidl_vecINS0_14broadcastradio4V2_012AnnouncementEEE",
   "self_type" : "_ZTIRKN7android8hardware8hidl_vecINS0_14broadcastradio4V2_012AnnouncementEEE",
   "size" : 8,
   "source_file" : "/system/libhidl/base/include/hidl/HidlSupport.h"
  },
  {
   "alignment" : 8,
   "linker_set_key" : "_ZTIRKN7android8hardware8hidl_vecINS0_14broadcastradio4V2_013AmFmBandRangeEEE",
   "name" : "const android::hardware::hidl_vec<android::hardware::broadcastradio::V2_0::AmFmBandRange> &",
   "referenced_type" : "_ZTIKN7android8hardware8hidl_vecINS0_14broadcastradio4V2_013AmFmBandRangeEEE",
   "self_type" : "_ZTIRKN7android8hardware8hidl_vecINS0_14broadcastradio4V2_013AmFmBandRangeEEE",
   "size" : 8,
   "source_file" : "/system/libhidl/base/include/hidl/HidlSupport.h"
  },
  {
   "alignment" : 8,
   "linker_set_key" : "_ZTIRKN7android8hardware8hidl_vecINS0_14broadcastradio4V2_013DabTableEntryEEE",
   "name" : "const android::hardware::hidl_vec<android::hardware::broadcastradio::V2_0::DabTableEntry> &",
   "referenced_type" : "_ZTIKN7android8hardware8hidl_vecINS0_14broadcastradio4V2_013DabTableEntryEEE",
   "self_type" : "_ZTIRKN7android8hardware8hidl_vecINS0_14broadcastradio4V2_013DabTableEntryEEE",
   "size" : 8,
   "source_file" : "/system/libhidl/transport/include/hidl/HidlBinderSupport.h"
  },
  {
   "alignment" : 8,
   "linker_set_key" : "_ZTIRKN7android8hardware8hidl_vecINS0_14broadcastradio4V2_014VendorKeyValueEEE",
   "name" : "const android::hardware::hidl_vec<android::hardware::broadcastradio::V2_0::VendorKeyValue> &",
   "referenced_type" : "_ZTIKN7android8hardware8hidl_vecINS0_14broadcastradio4V2_014VendorKeyValueEEE",
   "self_type" : "_ZTIRKN7android8hardware8hidl_vecINS0_14broadcastradio4V2_014VendorKeyValueEEE",
   "size" : 8,
   "source_file" : "/system/libhidl/base/include/hidl/HidlSupport.h"
  },
  {
   "alignment" : 8,
   "linker_set_key" : "_ZTIRKN7android8hardware8hidl_vecINS0_14broadcastradio4V2_016AnnouncementTypeEEE",
   "name" : "const android::hardware::hidl_vec<android::hardware::broadcastradio::V2_0::AnnouncementType> &",
   "referenced_type" : "_ZTIKN7android8hardware8hidl_vecINS0_14broadcastradio4V2_016AnnouncementTypeEEE",
   "self_type" : "_ZTIRKN7android8hardware8hidl_vecINS0_14broadcastradio4V2_016AnnouncementTypeEEE",
   "size" : 8,
   "source_file" : "/system/libhidl/transport/include/hidl/HidlBinderSupport.h"
  },
  {
   "alignment" : 8,
   "linker_set_key" : "_ZTIRKN7android8hardware8hidl_vecINS0_14broadcastradio4V2_017ProgramIdentifierEEE",
   "name" : "const android::hardware::hidl_vec<android::hardware::broadcastradio::V2_0::ProgramIdentifier> &",
   "referenced_type" : "_ZTIKN7android8hardware8hidl_vecINS0_14broadcastradio4V2_017ProgramIdentifierEEE",
   "self_type" : "_ZTIRKN7android8hardware8hidl_vecINS0_14broadcastradio4V2_017ProgramIdentifierEEE",
   "size" : 8,
   "source_file" : "/system/libhidl/base/include/hidl/HidlSupport.h"
  },
  {
   "alignment" : 8,
   "linker_set_key" : "_ZTIRKN7android8hardware8hidl_vecINS0_14broadcastradio4V2_08MetadataEEE",
   "name" : "const android::hardware::hidl_vec<android::hardware::broadcastradio::V2_0::Metadata> &",
   "referenced_type" : "_ZTIKN7android8hardware8hidl_vecINS0_14broadcastradio4V2_08MetadataEEE",
   "self_type" : "_ZTIRKN7android8hardware8hidl_vecINS0_14broadcastradio4V2_08MetadataEEE",
   "size" : 8,
   "source_file" : "/system/libhidl/base/include/hidl/HidlSupport.h"
  },
  {
   "alignment" : 8,
   "linker_set_key" : "_ZTIRKN7android8hardware8hidl_vecIhEE",
   "name" : "const android::hardware::hidl_vec<unsigned char> &",
   "referenced_type" : "_ZTIKN7android8hardware8hidl_vecIhEE",
   "self_type" : "_ZTIRKN7android8hardware8hidl_vecIhEE",
   "size" : 8,
   "source_file" : "/system/libhidl/transport/include/hidl/HidlBinderSupport.h"
  },
  {
   "alignment" : 8,
   "linker_set_key" : "_ZTIRKN7android8hardware8hidl_vecIiEE",
   "name" : "const android::hardware::hidl_vec<int> &",
   "referenced_type" : "_ZTIKN7android8hardware8hidl_vecIiEE",
   "self_type" : "_ZTIRKN7android8hardware8hidl_vecIiEE",
   "size" : 8,
   "source_file" : "/system/libhidl/base/include/hidl/HidlSupport.h"
  },
  {
   "alignment" : 8,
   "linker_set_key" : "_ZTIRKN7android8hardware8hidl_vecIjEE",
   "name" : "const android::hardware::hidl_vec<unsigned int> &",
   "referenced_type" : "_ZTIKN7android8hardware8hidl_vecIjEE",
   "self_type" : "_ZTIRKN7android8hardware8hidl_vecIjEE",
   "size" : 8,
   "source_file" : "/system/libhidl/base/include/hidl/HidlSupport.h"
  },
  {
   "alignment" : 8,
   "linker_set_key" : "_ZTIRKNSt3__112basic_stringIcNS_11char_traitsIcEENS_9allocatorIcEEEE",
   "name" : "const std::basic_string<char, std::char_traits<char>, std::allocator<char> > &",
   "referenced_type" : "_ZTIKNSt3__112basic_stringIcNS_11char_traitsIcEENS_9allocatorIcEEEE",
   "self_type" : "_ZTIRKNSt3__112basic_stringIcNS_11char_traitsIcEENS_9allocatorIcEEEE",
   "size" : 8,
   "source_file" : "/system/libhidl/transport/include/hidl/HidlTransportSupport.h"
  },
  {
   "alignment" : 8,
   "linker_set_key" : "_ZTIRKNSt3__16vectorINS_8functionIFvN7android8hardware7details16HidlInstrumentor20InstrumentationEventEPKcS8_S8_S8_PNS0_IPvNS_9allocatorIS9_EEEEEEENSA_ISF_EEEE",
   "name" : "const std::vector<std::function<void (InstrumentationEvent, const char *, const char *, const char *, const char *, vector<void *, allocator<void *> > *)>, std::allocator<std::function<void (InstrumentationEvent, const char *, const char *, const char *, const char *, vector<void *, allocator<void *> > *)> > > &",
   "referenced_type" : "_ZTIKNSt3__16vectorINS_8functionIFvN7android8hardware7details16HidlInstrumentor20InstrumentationEventEPKcS8_S8_S8_PNS0_IPvNS_9allocatorIS9_EEEEEEENSA_ISF_EEEE",
   "self_type" : "_ZTIRKNSt3__16vectorINS_8functionIFvN7android8hardware7details16HidlInstrumentor20InstrumentationEventEPKcS8_S8_S8_PNS0_IPvNS_9allocatorIS9_EEEEEEENSA_ISF_EEEE",
   "size" : 8,
   "source_file" : "/system/libhidl/base/include/hidl/HidlInternal.h"
  },
  {
   "alignment" : 8,
   "linker_set_key" : "_ZTIRKPKN7android4hidl4base4V1_05IBaseE",
   "name" : "const android::hidl::base::V1_0::IBase *const &",
   "referenced_type" : "_ZTIKPKN7android4hidl4base4V1_05IBaseE",
   "self_type" : "_ZTIRKPKN7android4hidl4base4V1_05IBaseE",
   "size" : 8,
   "source_file" : "/system/libhidl/transport/include/hidl/ConcurrentMap.h"
  },
  {
   "alignment" : 8,
   "linker_set_key" : "_ZTIRKa",
   "name" : "const signed char &",
   "referenced_type" : "_ZTIKa",
   "self_type" : "_ZTIRKa",
   "size" : 8,
   "source_file" : "/system/core/libutils/include/utils/TypeHelpers.h"
  },
  {
   "alignment" : 8,
   "linker_set_key" : "_ZTIRKb",
   "name" : "const bool &",
   "referenced_type" : "_ZTIKb",
   "self_type" : "_ZTIRKb",
   "size" : 8,
   "source_file" : "/system/core/libutils/include/utils/TypeHelpers.h"
  },
  {
   "alignment" : 8,
   "linker_set_key" : "_ZTIRKd",
   "name" : "const double &",
   "referenced_type" : "_ZTIKd",
   "self_type" : "_ZTIRKd",
   "size" : 8,
   "source_file" : "/system/core/libutils/include/utils/TypeHelpers.h"
  },
  {
   "alignment" : 8,
   "linker_set_key" : "_ZTIRKf",
   "name" : "const float &",
   "referenced_type" : "_ZTIKf",
   "self_type" : "_ZTIRKf",
   "size" : 8,
   "source_file" : "/system/core/libutils/include/utils/TypeHelpers.h"
  },
  {
   "alignment" : 8,
   "linker_set_key" : "_ZTIRKh",
   "name" : "const unsigned char &",
   "referenced_type" : "_ZTIKh",
   "self_type" : "_ZTIRKh",
   "size" : 8,
   "source_file" : "/system/core/libutils/include/utils/TypeHelpers.h"
  },
  {
   "alignment" : 8,
   "linker_set_key" : "_ZTIRKi",
   "name" : "const int &",
   "referenced_type" : "_ZTIKi",
   "self_type" : "_ZTIRKi",
   "size" : 8,
   "source_file" : "/system/libhidl/base/include/hidl/HidlInternal.h"
  },
  {
   "alignment" : 8,
   "linker_set_key" : "_ZTIRKj",
   "name" : "const unsigned int &",
   "referenced_type" : "_ZTIKj",
   "self_type" : "_ZTIRKj",
   "size" : 8,
   "source_file" : "/system/libhidl/base/include/hidl/HidlInternal.h"
  },
  {
   "alignment" : 8,
   "linker_set_key" : "_ZTIRKl",
   "name" : "const long &",
   "referenced_type" : "_ZTIKl",
   "self_type" : "_ZTIRKl",
   "size" : 8,
   "source_file" : "/system/core/libutils/include/utils/TypeHelpers.h"
  },
  {
   "alignment" : 8,
   "linker_set_key" : "_ZTIRKm",
   "name" : "const unsigned long &",
   "referenced_type" : "_ZTIKm",
   "self_type" : "_ZTIRKm",
   "size" : 8,
   "source_file" : "/system/core/libutils/include/utils/TypeHelpers.h"
  },
  {
   "alignment" : 8,
   "linker_set_key" : "_ZTIRKs",
   "name" : "const short &",
   "referenced_type" : "_ZTIKs",
   "self_type" : "_ZTIRKs",
   "size" : 8,
   "source_file" : "/system/core/libutils/include/utils/TypeHelpers.h"
  },
  {
   "alignment" : 8,
   "linker_set_key" : "_ZTIRKt",
   "name" : "const unsigned short &",
   "referenced_type" : "_ZTIKt",
   "self_type" : "_ZTIRKt",
   "size" : 8,
   "source_file" : "/system/core/libutils/include/utils/TypeHelpers.h"
  },
  {
   "alignment" : 8,
   "linker_set_key" : "_ZTIRN7android2spINS_8hardware14broadcastradio4V2_012ICloseHandleEEE",
   "name" : "android::sp<android::hardware::broadcastradio::V2_0::ICloseHandle> &",
   "referenced_type" : "_ZTIN7android2spINS_8hardware14broadcastradio4V2_012ICloseHandleEEE",
   "self_type" : "_ZTIRN7android2spINS_8hardware14broadcastradio4V2_012ICloseHandleEEE",
   "size" : 8,
   "source_file" : "/system/core/libutils/include/utils/StrongPointer.h"
  },
  {
   "alignment" : 8,
   "linker_set_key" : "_ZTIRN7android2spINS_8hardware14broadcastradio4V2_013ITunerSessionEEE",
   "name" : "android::sp<android::hardware::broadcastradio::V2_0::ITunerSession> &",
   "referenced_type" : "_ZTIN7android2spINS_8hardware14broadcastradio4V2_013ITunerSessionEEE",
   "self_type" : "_ZTIRN7android2spINS_8hardware14broadcastradio4V2_013ITunerSessionEEE",
   "size" : 8,
   "source_file" : "/system/core/libutils/include/utils/StrongPointer.h"
  },
  {
   "alignment" : 8,
   "linker_set_key" : "_ZTIRN7android2spINS_8hardware14broadcastradio4V2_014ITunerCallbackEEE",
   "name" : "android::sp<android::hardware::broadcastradio::V2_0::ITunerCallback> &",
   "referenced_type" : "_ZTIN7android2spINS_8hardware14broadcastradio4V2_014ITunerCallbackEEE",
   "self_type" : "_ZTIRN7android2spINS_8hardware14broadcastradio4V2_014ITunerCallbackEEE",
   "size" : 8,
   "source_file" : "/system/core/libutils/include/utils/StrongPointer.h"
  },
  {
   "alignment" : 8,
   "linker_set_key" : "_ZTIRN7android2spINS_8hardware14broadcastradio4V2_015IBroadcastRadioEEE",
   "name" : "android::sp<android::hardware::broadcastradio::V2_0::IBroadcastRadio> &",
   "referenced_type" : "_ZTIN7android2spINS_8hardware14broadcastradio4V2_015IBroadcastRadioEEE",
   "self_type" : "_ZTIRN7android2spINS_8hardware14broadcastradio4V2_015IBroadcastRadioEEE",
   "size" : 8,
   "source_file" : "/system/core/libutils/include/utils/StrongPointer.h"
  },
  {
   "alignment" : 8,
   "linker_set_key" : "_ZTIRN7android2spINS_8hardware14broadcastradio4V2_021IAnnouncementListenerEEE",
   "name" : "android::sp<android::hardware::broadcastradio::V2_0::IAnnouncementListener> &",
   "referenced_type" : "_ZTIN7android2spINS_8hardware14broadcastradio4V2_021IAnnouncementListenerEEE",
   "self_type" : "_ZTIRN7android2spINS_8hardware14broadcastradio4V2_021IAnnouncementListenerEEE",
   "size" : 8,
   "source_file" : "/system/core/libutils/include/utils/StrongPointer.h"
  },
  {
   "alignment" : 8,
   "linker_set_key" : "_ZTIRN7android2spINS_8hardware27hidl_binder_death_recipientEEE",
   "name" : "android::sp<android::hardware::hidl_binder_death_recipient> &",
   "referenced_type" : "_ZTIN7android2spINS_8hardware27hidl_binder_death_recipientEEE",
   "self_type" : "_ZTIRN7android2spINS_8hardware27hidl_binder_death_recipientEEE",
   "size" : 8,
   "source_file" : "/system/core/libutils/include/utils/StrongPointer.h"
  },
  {
   "alignment" : 8,
   "linker_set_key" : "_ZTIRN7android5MutexE",
   "name" : "android::Mutex &",
   "referenced_type" : "_ZTIN7android5MutexE",
   "self_type" : "_ZTIRN7android5MutexE",
   "size" : 8,
   "source_file" : "/system/core/libutils/include/utils/Mutex.h"
  },
  {
   "alignment" : 8,
   "linker_set_key" : "_ZTIRN7android6RWLockE",
   "name" : "android::RWLock &",
   "referenced_type" : "_ZTIN7android6RWLockE",
   "self_type" : "_ZTIRN7android6RWLockE",
   "size" : 8,
   "source_file" : "/system/core/libutils/include/utils/RWLock.h"
  },
  {
   "alignment" : 8,
   "linker_set_key" : "_ZTIRN7android7String8E",
   "name" : "android::String8 &",
   "referenced_type" : "_ZTIN7android7String8E",
   "self_type" : "_ZTIRN7android7String8E",
   "size" : 8,
   "source_file" : "/system/core/libutils/include/utils/String8.h"
  },
  {
   "alignment" : 8,
   "linker_set_key" : "_ZTIRN7android8String16E",
   "name" : "android::String16 &",
   "referenced_type" : "_ZTIN7android8String16E",
   "self_type" : "_ZTIRN7android8String16E",
   "size" : 8,
   "source_file" : "/system/core/libutils/include/utils/String16.h"
  },
  {
   "alignment" : 8,
   "linker_set_key" : "_ZTIRN7android8hardware10TextOutputE",
   "name" : "android::hardware::TextOutput &",
   "referenced_type" : "_ZTIN7android8hardware10TextOutputE",
   "self_type" : "_ZTIRN7android8hardware10TextOutputE",
   "size" : 8,
   "source_file" : "/system/libhwbinder/include/hwbinder/Parcel.h"
  },
  {
   "alignment" : 8,
   "linker_set_key" : "_ZTIRN7android8hardware10hidl_arrayIhLm32EJEEE",
   "name" : "android::hardware::hidl_array<unsigned char, 32> &",
   "referenced_type" : "_ZTIN7android8hardware10hidl_arrayIhLm32EJEEE",
   "self_type" : "_ZTIRN7android8hardware10hidl_arrayIhLm32EJEEE",
   "size" : 8,
   "source_file" : "/system/libhidl/base/include/hidl/HidlInternal.h"
  },
  {
   "alignment" : 8,
   "linker_set_key" : "_ZTIRN7android8hardware11hidl_memoryE",
   "name" : "android::hardware::hidl_memory &",
   "referenced_type" : "_ZTIN7android8hardware11hidl_memoryE",
   "self_type" : "_ZTIRN7android8hardware11hidl_memoryE",
   "size" : 8,
   "source_file" : "/system/libhidl/base/include/hidl/HidlSupport.h"
  },
  {
   "alignment" : 8,
   "linker_set_key" : "_ZTIRN7android8hardware11hidl_stringE",
   "name" : "android::hardware::hidl_string &",
   "referenced_type" : "_ZTIN7android8hardware11hidl_stringE",
   "self_type" : "_ZTIRN7android8hardware11hidl_stringE",
   "size" : 8,
   "source_file" : "/system/libhidl/base/include/hidl/HidlInternal.h"
  },
  {
   "alignment" : 8,
   "linker_set_key" : "_ZTIRN7android8hardware14broadcastradio4V2_011ProgramInfoE",
   "name" : "android::hardware::broadcastradio::V2_0::ProgramInfo &",
   "referenced_type" : "_ZTIN7android8hardware14broadcastradio4V2_011ProgramInfoE",
   "self_type" : "_ZTIRN7android8hardware14broadcastradio4V2_011ProgramInfoE",
   "size" : 8,
   "source_file" : "/system/libhidl/base/include/hidl/HidlInternal.h"
  },
  {
   "alignment" : 8,
   "linker_set_key" : "_ZTIRN7android8hardware14broadcastradio4V2_012AnnouncementE",
   "name" : "android::hardware::broadcastradio::V2_0::Announcement &",
   "referenced_type" : "_ZTIN7android8hardware14broadcastradio4V2_012AnnouncementE",
   "self_type" : "_ZTIRN7android8hardware14broadcastradio4V2_012AnnouncementE",
   "size" : 8,
   "source_file" : "/system/libhidl/base/include/hidl/HidlInternal.h"
  },
  {
   "alignment" : 8,
   "linker_set_key" : "_ZTIRN7android8hardware14broadcastradio4V2_014VendorKeyValueE",
   "name" : "android::hardware::broadcastradio::V2_0::VendorKeyValue &",
   "referenced_type" : "_ZTIN7android8hardware14broadcastradio4V2_014VendorKeyValueE",
   "self_type" : "_ZTIRN7android8hardware14broadcastradio4V2_014VendorKeyValueE",
   "size" : 8,
   "source_file" : "/system/libhidl/base/include/hidl/HidlInternal.h"
  },
  {
   "alignment" : 8,
   "linker_set_key" : "_ZTIRN7android8hardware14broadcastradio4V2_017ProgramIdentifierE",
   "name" : "android::hardware::broadcastradio::V2_0::ProgramIdentifier &",
   "referenced_type" : "_ZTIN7android8hardware14broadcastradio4V2_017ProgramIdentifierE",
   "self_type" : "_ZTIRN7android8hardware14broadcastradio4V2_017ProgramIdentifierE",
   "size" : 8,
   "source_file" : "/system/libhidl/base/include/hidl/HidlInternal.h"
  },
  {
   "alignment" : 8,
   "linker_set_key" : "_ZTIRN7android8hardware14broadcastradio4V2_08MetadataE",
   "name" : "android::hardware::broadcastradio::V2_0::Metadata &",
   "referenced_type" : "_ZTIN7android8hardware14broadcastradio4V2_08MetadataE",
   "self_type" : "_ZTIRN7android8hardware14broadcastradio4V2_08MetadataE",
   "size" : 8,
   "source_file" : "/system/libhidl/base/include/hidl/HidlInternal.h"
  },
  {
   "alignment" : 8,
   "linker_set_key" : "_ZTIRN7android8hardware6ReturnINS0_14broadcastradio4V2_06ResultEEE",
   "name" : "android::hardware::Return<android::hardware::broadcastradio::V2_0::Result> &",
   "referenced_type" : "_ZTIN7android8hardware6ReturnINS0_14broadcastradio4V2_06ResultEEE",
   "self_type" : "_ZTIRN7android8hardware6ReturnINS0_14broadcastradio4V2_06ResultEEE",
   "size" : 8,
   "source_file" : "/system/libhidl/base/include/hidl/Status.h"
  },
  {
   "alignment" : 8,
   "linker_set_key" : "_ZTIRN7android8hardware6ReturnINS_2spINS0_14broadcastradio4V2_012ICloseHandleEEEEE",
   "name" : "android::hardware::Return<android::sp<android::hardware::broadcastradio::V2_0::ICloseHandle> > &",
   "referenced_type" : "_ZTIN7android8hardware6ReturnINS_2spINS0_14broadcastradio4V2_012ICloseHandleEEEEE",
   "self_type" : "_ZTIRN7android8hardware6ReturnINS_2spINS0_14broadcastradio4V2_012ICloseHandleEEEEE",
   "size" : 8,
   "source_file" : "/system/libhidl/base/include/hidl/Status.h"
  },
  {
   "alignment" : 8,
   "linker_set_key" : "_ZTIRN7android8hardware6ReturnINS_2spINS0_14broadcastradio4V2_013ITunerSessionEEEEE",
   "name" : "android::hardware::Return<android::sp<android::hardware::broadcastradio::V2_0::ITunerSession> > &",
   "referenced_type" : "_ZTIN7android8hardware6ReturnINS_2spINS0_14broadcastradio4V2_013ITunerSessionEEEEE",
   "self_type" : "_ZTIRN7android8hardware6ReturnINS_2spINS0_14broadcastradio4V2_013ITunerSessionEEEEE",
   "size" : 8,
   "source_file" : "/system/libhidl/base/include/hidl/Status.h"
  },
  {
   "alignment" : 8,
   "linker_set_key" : "_ZTIRN7android8hardware6ReturnINS_2spINS0_14broadcastradio4V2_014ITunerCallbackEEEEE",
   "name" : "android::hardware::Return<android::sp<android::hardware::broadcastradio::V2_0::ITunerCallback> > &",
   "referenced_type" : "_ZTIN7android8hardware6ReturnINS_2spINS0_14broadcastradio4V2_014ITunerCallbackEEEEE",
   "self_type" : "_ZTIRN7android8hardware6ReturnINS_2spINS0_14broadcastradio4V2_014ITunerCallbackEEEEE",
   "size" : 8,
   "source_file" : "/system/libhidl/base/include/hidl/Status.h"
  },
  {
   "alignment" : 8,
   "linker_set_key" : "_ZTIRN7android8hardware6ReturnINS_2spINS0_14broadcastradio4V2_015IBroadcastRadioEEEEE",
   "name" : "android::hardware::Return<android::sp<android::hardware::broadcastradio::V2_0::IBroadcastRadio> > &",
   "referenced_type" : "_ZTIN7android8hardware6ReturnINS_2spINS0_14broadcastradio4V2_015IBroadcastRadioEEEEE",
   "self_type" : "_ZTIRN7android8hardware6ReturnINS_2spINS0_14broadcastradio4V2_015IBroadcastRadioEEEEE",
   "size" : 8,
   "source_file" : "/system/libhidl/base/include/hidl/Status.h"
  },
  {
   "alignment" : 8,
   "linker_set_key" : "_ZTIRN7android8hardware6ReturnINS_2spINS0_14broadcastradio4V2_021IAnnouncementListenerEEEEE",
   "name" : "android::hardware::Return<android::sp<android::hardware::broadcastradio::V2_0::IAnnouncementListener> > &",
   "referenced_type" : "_ZTIN7android8hardware6ReturnINS_2spINS0_14broadcastradio4V2_021IAnnouncementListenerEEEEE",
   "self_type" : "_ZTIRN7android8hardware6ReturnINS_2spINS0_14broadcastradio4V2_021IAnnouncementListenerEEEEE",
   "size" : 8,
   "source_file" : "/system/libhidl/base/include/hidl/Status.h"
  },
  {
   "alignment" : 8,
   "linker_set_key" : "_ZTIRN7android8hardware6ReturnIbEE",
   "name" : "android::hardware::Return<bool> &",
   "referenced_type" : "_ZTIN7android8hardware6ReturnIbEE",
   "self_type" : "_ZTIRN7android8hardware6ReturnIbEE",
   "size" : 8,
   "source_file" : "/system/libhidl/base/include/hidl/Status.h"
  },
  {
   "alignment" : 8,
   "linker_set_key" : "_ZTIRN7android8hardware6ReturnIvEE",
   "name" : "android::hardware::Return<void> &",
   "referenced_type" : "_ZTIN7android8hardware6ReturnIvEE",
   "self_type" : "_ZTIRN7android8hardware6ReturnIvEE",
   "size" : 8,
   "source_file" : "/system/libhidl/base/include/hidl/Status.h"
  },
  {
   "alignment" : 8,
   "linker_set_key" : "_ZTIRN7android8hardware6StatusE",
   "name" : "android::hardware::Status &",
   "referenced_type" : "_ZTIN7android8hardware6StatusE",
   "self_type" : "_ZTIRN7android8hardware6StatusE",
   "size" : 8,
   "source_file" : "/system/libhidl/base/include/hidl/Status.h"
  },
  {
   "alignment" : 8,
   "linker_set_key" : "_ZTIRN7android8hardware7details12hidl_pointerINS0_10hidl_arrayIhLm32EJEEEEE",
   "name" : "android::hardware::details::hidl_pointer<android::hardware::hidl_array<unsigned char, 32> > &",
   "referenced_type" : "_ZTIN7android8hardware7details12hidl_pointerINS0_10hidl_arrayIhLm32EJEEEEE",
   "self_type" : "_ZTIRN7android8hardware7details12hidl_pointerINS0_10hidl_arrayIhLm32EJEEEEE",
   "size" : 8,
   "source_file" : "/system/libhidl/base/include/hidl/HidlInternal.h"
  },
  {
   "alignment" : 8,
   "linker_set_key" : "_ZTIRN7android8hardware7details12hidl_pointerINS0_11hidl_stringEEE",
   "name" : "android::hardware::details::hidl_pointer<android::hardware::hidl_string> &",
   "referenced_type" : "_ZTIN7android8hardware7details12hidl_pointerINS0_11hidl_stringEEE",
   "self_type" : "_ZTIRN7android8hardware7details12hidl_pointerINS0_11hidl_stringEEE",
   "size" : 8,
   "source_file" : "/system/libhidl/base/include/hidl/HidlInternal.h"
  },
  {
   "alignment" : 8,
   "linker_set_key" : "_ZTIRN7android8hardware7details12hidl_pointerINS0_14broadcastradio4V2_011ProgramInfoEEE",
   "name" : "android::hardware::details::hidl_pointer<android::hardware::broadcastradio::V2_0::ProgramInfo> &",
   "referenced_type" : "_ZTIN7android8hardware7details12hidl_pointerINS0_14broadcastradio4V2_011ProgramInfoEEE",
   "self_type" : "_ZTIRN7android8hardware7details12hidl_pointerINS0_14broadcastradio4V2_011ProgramInfoEEE",
   "size" : 8,
   "source_file" : "/system/libhidl/base/include/hidl/HidlInternal.h"
  },
  {
   "alignment" : 8,
   "linker_set_key" : "_ZTIRN7android8hardware7details12hidl_pointerINS0_14broadcastradio4V2_012AnnouncementEEE",
   "name" : "android::hardware::details::hidl_pointer<android::hardware::broadcastradio::V2_0::Announcement> &",
   "referenced_type" : "_ZTIN7android8hardware7details12hidl_pointerINS0_14broadcastradio4V2_012AnnouncementEEE",
   "self_type" : "_ZTIRN7android8hardware7details12hidl_pointerINS0_14broadcastradio4V2_012AnnouncementEEE",
   "size" : 8,
   "source_file" : "/system/libhidl/base/include/hidl/HidlInternal.h"
  },
  {
   "alignment" : 8,
   "linker_set_key" : "_ZTIRN7android8hardware7details12hidl_pointerINS0_14broadcastradio4V2_014VendorKeyValueEEE",
   "name" : "android::hardware::details::hidl_pointer<android::hardware::broadcastradio::V2_0::VendorKeyValue> &",
   "referenced_type" : "_ZTIN7android8hardware7details12hidl_pointerINS0_14broadcastradio4V2_014VendorKeyValueEEE",
   "self_type" : "_ZTIRN7android8hardware7details12hidl_pointerINS0_14broadcastradio4V2_014VendorKeyValueEEE",
   "size" : 8,
   "source_file" : "/system/libhidl/base/include/hidl/HidlInternal.h"
  },
  {
   "alignment" : 8,
   "linker_set_key" : "_ZTIRN7android8hardware7details12hidl_pointerINS0_14broadcastradio4V2_017ProgramIdentifierEEE",
   "name" : "android::hardware::details::hidl_pointer<android::hardware::broadcastradio::V2_0::ProgramIdentifier> &",
   "referenced_type" : "_ZTIN7android8hardware7details12hidl_pointerINS0_14broadcastradio4V2_017ProgramIdentifierEEE",
   "self_type" : "_ZTIRN7android8hardware7details12hidl_pointerINS0_14broadcastradio4V2_017ProgramIdentifierEEE",
   "size" : 8,
   "source_file" : "/system/libhidl/base/include/hidl/HidlInternal.h"
  },
  {
   "alignment" : 8,
   "linker_set_key" : "_ZTIRN7android8hardware7details12hidl_pointerINS0_14broadcastradio4V2_08MetadataEEE",
   "name" : "android::hardware::details::hidl_pointer<android::hardware::broadcastradio::V2_0::Metadata> &",
   "referenced_type" : "_ZTIN7android8hardware7details12hidl_pointerINS0_14broadcastradio4V2_08MetadataEEE",
   "self_type" : "_ZTIRN7android8hardware7details12hidl_pointerINS0_14broadcastradio4V2_08MetadataEEE",
   "size" : 8,
   "source_file" : "/system/libhidl/base/include/hidl/HidlInternal.h"
  },
  {
   "alignment" : 8,
   "linker_set_key" : "_ZTIRN7android8hardware8hidl_vecINS0_10hidl_arrayIhLm32EJEEEEE",
   "name" : "android::hardware::hidl_vec<android::hardware::hidl_array<unsigned char, 32> > &",
   "referenced_type" : "_ZTIN7android8hardware8hidl_vecINS0_10hidl_arrayIhLm32EJEEEEE",
   "self_type" : "_ZTIRN7android8hardware8hidl_vecINS0_10hidl_arrayIhLm32EJEEEEE",
   "size" : 8,
   "source_file" : "/system/libhidl/base/include/hidl/HidlSupport.h"
  },
  {
   "alignment" : 8,
   "linker_set_key" : "_ZTIRN7android8hardware8hidl_vecINS0_11hidl_stringEEE",
   "name" : "android::hardware::hidl_vec<android::hardware::hidl_string> &",
   "referenced_type" : "_ZTIN7android8hardware8hidl_vecINS0_11hidl_stringEEE",
   "self_type" : "_ZTIRN7android8hardware8hidl_vecINS0_11hidl_stringEEE",
   "size" : 8,
   "source_file" : "/system/libhidl/base/include/hidl/HidlSupport.h"
  },
  {
   "alignment" : 8,
   "linker_set_key" : "_ZTIRN7android8hardware8hidl_vecINS0_14broadcastradio4V2_011ProgramInfoEEE",
   "name" : "android::hardware::hidl_vec<android::hardware::broadcastradio::V2_0::ProgramInfo> &",
   "referenced_type" : "_ZTIN7android8hardware8hidl_vecINS0_14broadcastradio4V2_011ProgramInfoEEE",
   "self_type" : "_ZTIRN7android8hardware8hidl_vecINS0_14broadcastradio4V2_011ProgramInfoEEE",
   "size" : 8,
   "source_file" : "/system/libhidl/base/include/hidl/HidlSupport.h"
  },
  {
   "alignment" : 8,
   "linker_set_key" : "_ZTIRN7android8hardware8hidl_vecINS0_14broadcastradio4V2_012AnnouncementEEE",
   "name" : "android::hardware::hidl_vec<android::hardware::broadcastradio::V2_0::Announcement> &",
   "referenced_type" : "_ZTIN7android8hardware8hidl_vecINS0_14broadcastradio4V2_012AnnouncementEEE",
   "self_type" : "_ZTIRN7android8hardware8hidl_vecINS0_14broadcastradio4V2_012AnnouncementEEE",
   "size" : 8,
   "source_file" : "/system/libhidl/base/include/hidl/HidlSupport.h"
  },
  {
   "alignment" : 8,
   "linker_set_key" : "_ZTIRN7android8hardware8hidl_vecINS0_14broadcastradio4V2_014VendorKeyValueEEE",
   "name" : "android::hardware::hidl_vec<android::hardware::broadcastradio::V2_0::VendorKeyValue> &",
   "referenced_type" : "_ZTIN7android8hardware8hidl_vecINS0_14broadcastradio4V2_014VendorKeyValueEEE",
   "self_type" : "_ZTIRN7android8hardware8hidl_vecINS0_14broadcastradio4V2_014VendorKeyValueEEE",
   "size" : 8,
   "source_file" : "/system/libhidl/base/include/hidl/HidlSupport.h"
  },
  {
   "alignment" : 8,
   "linker_set_key" : "_ZTIRN7android8hardware8hidl_vecINS0_14broadcastradio4V2_017ProgramIdentifierEEE",
   "name" : "android::hardware::hidl_vec<android::hardware::broadcastradio::V2_0::ProgramIdentifier> &",
   "referenced_type" : "_ZTIN7android8hardware8hidl_vecINS0_14broadcastradio4V2_017ProgramIdentifierEEE",
   "self_type" : "_ZTIRN7android8hardware8hidl_vecINS0_14broadcastradio4V2_017ProgramIdentifierEEE",
   "size" : 8,
   "source_file" : "/system/libhidl/base/include/hidl/HidlSupport.h"
  },
  {
   "alignment" : 8,
   "linker_set_key" : "_ZTIRN7android8hardware8hidl_vecINS0_14broadcastradio4V2_08MetadataEEE",
   "name" : "android::hardware::hidl_vec<android::hardware::broadcastradio::V2_0::Metadata> &",
   "referenced_type" : "_ZTIN7android8hardware8hidl_vecINS0_14broadcastradio4V2_08MetadataEEE",
   "self_type" : "_ZTIRN7android8hardware8hidl_vecINS0_14broadcastradio4V2_08MetadataEEE",
   "size" : 8,
   "source_file" : "/system/libhidl/base/include/hidl/HidlSupport.h"
  },
  {
   "alignment" : 8,
   "linker_set_key" : "_ZTIRh",
   "name" : "unsigned char &",
   "referenced_type" : "_ZTIh",
   "self_type" : "_ZTIRh",
   "size" : 8,
   "source_file" : "/out/soong/.intermediates/system/libhidl/transport/manager/1.0/android.hidl.manager@1.0_genc++_headers/gen/android/hidl/manager/1.0/IServiceManager.h"
  },
  {
   "alignment" : 8,
   "linker_set_key" : "_ZTIRi",
   "name" : "int &",
   "referenced_type" : "_ZTIi",
   "self_type" : "_ZTIRi",
   "size" : 8,
   "source_file" : "/out/soong/.intermediates/system/libhidl/transport/base/1.0/android.hidl.base@1.0_genc++_headers/gen/android/hidl/base/1.0/types.h"
  },
  {
   "alignment" : 8,
   "linker_set_key" : "_ZTIRj",
   "name" : "unsigned int &",
   "referenced_type" : "_ZTIj",
   "self_type" : "_ZTIRj",
   "size" : 8,
   "source_file" : "/out/soong/.intermediates/hardware/interfaces/broadcastradio/2.0/android.hardware.broadcastradio@2.0_genc++_headers/gen/android/hardware/broadcastradio/2.0/types.h"
  }
 ],
 "pointer_types" :
 [
  {
   "alignment" : 8,
   "linker_set_key" : "_ZTIP13native_handle",
   "name" : "native_handle *",
   "referenced_type" : "_ZTI13native_handle",
   "self_type" : "_ZTIP13native_handle",
   "size" : 8,
   "source_file" : "/system/libhidl/base/include/hidl/HidlInternal.h"
  },
  {
   "alignment" : 8,
   "linker_set_key" : "_ZTIP18android_flex_plane",
   "name" : "android_flex_plane *",
   "referenced_type" : "_ZTI18android_flex_plane",
   "self_type" : "_ZTIP18android_flex_plane",
   "size" : 8,
   "source_file" : "/system/core/libsystem/include/system/graphics.h"
  },
  {
   "alignment" : 8,
   "linker_set_key" : "_ZTIP7log_msg",
   "name" : "log_msg *",
   "referenced_type" : "_ZTI7log_msg",
   "self_type" : "_ZTIP7log_msg",
   "size" : 8,
   "source_file" : "/system/core/liblog/include/log/log_read.h"
  },
  {
   "alignment" : 8,
   "linker_set_key" : "_ZTIPFbRKN7android8String16ERKNS_2spINS_8hardware7IBinderEEEPvE",
   "name" : "bool (*)(const android::String16 &, const android::sp<android::hardware::IBinder> &, void *)",
   "referenced_type" : "_ZTIFbRKN7android8String16ERKNS_2spINS_8hardware7IBinderEEEPvE",
   "self_type" : "_ZTIPFbRKN7android8String16ERKNS_2spINS_8hardware7IBinderEEEPvE",
   "size" : 8,
   "source_file" : "/system/libhwbinder/include/hwbinder/ProcessState.h"
  },
  {
   "alignment" : 8,
   "linker_set_key" : "_ZTIPFiPvE",
   "name" : "int (*)(void *)",
   "referenced_type" : "_ZTIFiPvE",
   "self_type" : "_ZTIPFiPvE",
   "size" : 8,
   "source_file" : "/system/core/libutils/include/utils/AndroidThreads.h"
  },
  {
   "alignment" : 8,
   "linker_set_key" : "_ZTIPFvPN7android8hardware6ParcelEPKhmPKymPvE",
   "name" : "void (*)(android::hardware::Parcel *, const unsigned char *, unsigned long, const unsigned long long *, unsigned long, void *)",
   "referenced_type" : "_ZTIFvPN7android8hardware6ParcelEPKhmPKymPvE",
   "self_type" : "_ZTIPFvPN7android8hardware6ParcelEPKhmPKymPvE",
   "size" : 8,
   "source_file" : "/system/libhwbinder/include/hwbinder/Parcel.h"
  },
  {
   "alignment" : 8,
   "linker_set_key" : "_ZTIPK13native_handle",
   "name" : "const native_handle *",
   "referenced_type" : "_ZTIK13native_handle",
   "self_type" : "_ZTIPK13native_handle",
   "size" : 8,
   "source_file" : "/system/libhidl/base/include/hidl/HidlInternal.h"
  },
  {
   "alignment" : 8,
   "linker_set_key" : "_ZTIPK7log_msg",
   "name" : "const log_msg *",
   "referenced_type" : "_ZTIK7log_msg",
   "self_type" : "_ZTIPK7log_msg",
   "size" : 8,
   "source_file" : "/system/core/liblog/include/log/log_read.h"
  },
  {
   "alignment" : 8,
   "linker_set_key" : "_ZTIPKDs",
   "name" : "const char16_t *",
   "referenced_type" : "_ZTIKDs",
   "self_type" : "_ZTIPKDs",
   "size" : 8,
   "source_file" : "/system/core/libutils/include/utils/String16.h"
  },
  {
   "alignment" : 8,
   "linker_set_key" : "_ZTIPKN7android10VectorImplE",
   "name" : "const android::VectorImpl *",
   "referenced_type" : "_ZTIKN7android10VectorImplE",
   "self_type" : "_ZTIPKN7android10VectorImplE",
   "size" : 8,
   "source_file" : "/system/core/libutils/include/utils/VectorImpl.h"
  },
  {
   "alignment" : 8,
   "linker_set_key" : "_ZTIPKN7android12NativeHandleE",
   "name" : "const android::NativeHandle *",
   "referenced_type" : "_ZTIKN7android12NativeHandleE",
   "self_type" : "_ZTIPKN7android12NativeHandleE",
   "size" : 8,
   "source_file" : "/system/core/libutils/include/utils/NativeHandle.h"
  },
  {
   "alignment" : 8,
   "linker_set_key" : "_ZTIPKN7android2spINS_4hidl4base4V1_05IBaseEEE",
   "name" : "const android::sp<android::hidl::base::V1_0::IBase> *",
   "referenced_type" : "_ZTIKN7android2spINS_4hidl4base4V1_05IBaseEEE",
   "self_type" : "_ZTIPKN7android2spINS_4hidl4base4V1_05IBaseEEE",
   "size" : 8,
   "source_file" : "/system/core/libutils/include/utils/StrongPointer.h"
  },
  {
   "alignment" : 8,
   "linker_set_key" : "_ZTIPKN7android2spINS_4hidl7manager4V1_015IServiceManagerEEE",
   "name" : "const android::sp<android::hidl::manager::V1_0::IServiceManager> *",
   "referenced_type" : "_ZTIKN7android2spINS_4hidl7manager4V1_015IServiceManagerEEE",
   "self_type" : "_ZTIPKN7android2spINS_4hidl7manager4V1_015IServiceManagerEEE",
   "size" : 8,
   "source_file" : "/system/core/libutils/include/utils/StrongPointer.h"
  },
  {
   "alignment" : 8,
   "linker_set_key" : "_ZTIPKN7android2spINS_4hidl7manager4V1_020IServiceNotificationEEE",
   "name" : "const android::sp<android::hidl::manager::V1_0::IServiceNotification> *",
   "referenced_type" : "_ZTIKN7android2spINS_4hidl7manager4V1_020IServiceNotificationEEE",
   "self_type" : "_ZTIPKN7android2spINS_4hidl7manager4V1_020IServiceNotificationEEE",
   "size" : 8,
   "source_file" : "/system/core/libutils/include/utils/StrongPointer.h"
  },
  {
   "alignment" : 8,
   "linker_set_key" : "_ZTIPKN7android2spINS_8hardware12ProcessStateEEE",
   "name" : "const android::sp<android::hardware::ProcessState> *",
   "referenced_type" : "_ZTIKN7android2spINS_8hardware12ProcessStateEEE",
   "self_type" : "_ZTIPKN7android2spINS_8hardware12ProcessStateEEE",
   "size" : 8,
   "source_file" : "/system/core/libutils/include/utils/StrongPointer.h"
  },
  {
   "alignment" : 8,
   "linker_set_key" : "_ZTIPKN7android2spINS_8hardware14broadcastradio4V2_012ICloseHandleEEE",
   "name" : "const android::sp<android::hardware::broadcastradio::V2_0::ICloseHandle> *",
   "referenced_type" : "_ZTIKN7android2spINS_8hardware14broadcastradio4V2_012ICloseHandleEEE",
   "self_type" : "_ZTIPKN7android2spINS_8hardware14broadcastradio4V2_012ICloseHandleEEE",
   "size" : 8,
   "source_file" : "/system/core/libutils/include/utils/StrongPointer.h"
  },
  {
   "alignment" : 8,
   "linker_set_key" : "_ZTIPKN7android2spINS_8hardware14broadcastradio4V2_013ITunerSessionEEE",
   "name" : "const android::sp<android::hardware::broadcastradio::V2_0::ITunerSession> *",
   "referenced_type" : "_ZTIKN7android2spINS_8hardware14broadcastradio4V2_013ITunerSessionEEE",
   "self_type" : "_ZTIPKN7android2spINS_8hardware14broadcastradio4V2_013ITunerSessionEEE",
   "size" : 8,
   "source_file" : "/system/core/libutils/include/utils/StrongPointer.h"
  },
  {
   "alignment" : 8,
   "linker_set_key" : "_ZTIPKN7android2spINS_8hardware14broadcastradio4V2_014ITunerCallbackEEE",
   "name" : "const android::sp<android::hardware::broadcastradio::V2_0::ITunerCallback> *",
   "referenced_type" : "_ZTIKN7android2spINS_8hardware14broadcastradio4V2_014ITunerCallbackEEE",
   "self_type" : "_ZTIPKN7android2spINS_8hardware14broadcastradio4V2_014ITunerCallbackEEE",
   "size" : 8,
   "source_file" : "/system/core/libutils/include/utils/StrongPointer.h"
  },
  {
   "alignment" : 8,
   "linker_set_key" : "_ZTIPKN7android2spINS_8hardware14broadcastradio4V2_015IBroadcastRadioEEE",
   "name" : "const android::sp<android::hardware::broadcastradio::V2_0::IBroadcastRadio> *",
   "referenced_type" : "_ZTIKN7android2spINS_8hardware14broadcastradio4V2_015IBroadcastRadioEEE",
   "self_type" : "_ZTIPKN7android2spINS_8hardware14broadcastradio4V2_015IBroadcastRadioEEE",
   "size" : 8,
   "source_file" : "/system/core/libutils/include/utils/StrongPointer.h"
  },
  {
   "alignment" : 8,
   "linker_set_key" : "_ZTIPKN7android2spINS_8hardware14broadcastradio4V2_021IAnnouncementListenerEEE",
   "name" : "const android::sp<android::hardware::broadcastradio::V2_0::IAnnouncementListener> *",
   "referenced_type" : "_ZTIKN7android2spINS_8hardware14broadcastradio4V2_021IAnnouncementListenerEEE",
   "self_type" : "_ZTIPKN7android2spINS_8hardware14broadcastradio4V2_021IAnnouncementListenerEEE",
   "size" : 8,
   "source_file" : "/system/core/libutils/include/utils/StrongPointer.h"
  },
  {
   "alignment" : 8,
   "linker_set_key" : "_ZTIPKN7android2spINS_8hardware20hidl_death_recipientEEE",
   "name" : "const android::sp<android::hardware::hidl_death_recipient> *",
   "referenced_type" : "_ZTIKN7android2spINS_8hardware20hidl_death_recipientEEE",
   "self_type" : "_ZTIPKN7android2spINS_8hardware20hidl_death_recipientEEE",
   "size" : 8,
   "source_file" : "/system/core/libutils/include/utils/StrongPointer.h"
  },
  {
   "alignment" : 8,
   "linker_set_key" : "_ZTIPKN7android2spINS_8hardware27hidl_binder_death_recipientEEE",
   "name" : "const android::sp<android::hardware::hidl_binder_death_recipient> *",
   "referenced_type" : "_ZTIKN7android2spINS_8hardware27hidl_binder_death_recipientEEE",
   "self_type" : "_ZTIPKN7android2spINS_8hardware27hidl_binder_death_recipientEEE",
   "size" : 8,
   "source_file" : "/system/core/libutils/include/utils/StrongPointer.h"
  },
  {
   "alignment" : 8,
   "linker_set_key" : "_ZTIPKN7android2spINS_8hardware7IBinderEEE",
   "name" : "const android::sp<android::hardware::IBinder> *",
   "referenced_type" : "_ZTIKN7android2spINS_8hardware7IBinderEEE",
   "self_type" : "_ZTIPKN7android2spINS_8hardware7IBinderEEE",
   "size" : 8,
   "source_file" : "/system/core/libutils/include/utils/StrongPointer.h"
  },
  {
   "alignment" : 8,
   "linker_set_key" : "_ZTIPKN7android2wpINS_8hardware20hidl_death_recipientEEE",
   "name" : "const android::wp<android::hardware::hidl_death_recipient> *",
   "referenced_type" : "_ZTIKN7android2wpINS_8hardware20hidl_death_recipientEEE",
   "self_type" : "_ZTIPKN7android2wpINS_8hardware20hidl_death_recipientEEE",
   "size" : 8,
   "source_file" : "/system/core/libutils/include/utils/RefBase.h"
  },
  {
   "alignment" : 8,
   "linker_set_key" : "_ZTIPKN7android2wpINS_8hardware9BHwBinderEEE",
   "name" : "const android::wp<android::hardware::BHwBinder> *",
   "referenced_type" : "_ZTIKN7android2wpINS_8hardware9BHwBinderEEE",
   "self_type" : "_ZTIPKN7android2wpINS_8hardware9BHwBinderEEE",
   "size" : 8,
   "source_file" : "/system/core/libutils/include/utils/RefBase.h"
  },
  {
   "alignment" : 8,
   "linker_set_key" : "_ZTIPKN7android4hidl4base4V1_05IBaseE",
   "name" : "const android::hidl::base::V1_0::IBase *",
   "referenced_type" : "_ZTIKN7android4hidl4base4V1_05IBaseE",
   "self_type" : "_ZTIPKN7android4hidl4base4V1_05IBaseE",
   "size" : 8,
   "source_file" : "/out/soong/.intermediates/system/libhidl/transport/base/1.0/android.hidl.base@1.0_genc++_headers/gen/android/hidl/base/1.0/IBase.h"
  },
  {
   "alignment" : 8,
   "linker_set_key" : "_ZTIPKN7android4hidl4base4V1_08BpHwBaseE",
   "name" : "const android::hidl::base::V1_0::BpHwBase *",
   "referenced_type" : "_ZTIKN7android4hidl4base4V1_08BpHwBaseE",
   "self_type" : "_ZTIPKN7android4hidl4base4V1_08BpHwBaseE",
   "size" : 8,
   "source_file" : "/out/soong/.intermediates/system/libhidl/transport/base/1.0/android.hidl.base@1.0_genc++_headers/gen/android/hidl/base/1.0/BpHwBase.h"
  },
  {
   "alignment" : 8,
   "linker_set_key" : "_ZTIPKN7android4hidl7manager4V1_015IServiceManagerE",
   "name" : "const android::hidl::manager::V1_0::IServiceManager *",
   "referenced_type" : "_ZTIKN7android4hidl7manager4V1_015IServiceManagerE",
   "self_type" : "_ZTIPKN7android4hidl7manager4V1_015IServiceManagerE",
   "size" : 8,
   "source_file" : "/out/soong/.intermediates/system/libhidl/transport/manager/1.0/android.hidl.manager@1.0_genc++_headers/gen/android/hidl/manager/1.0/IServiceManager.h"
  },
  {
   "alignment" : 8,
   "linker_set_key" : "_ZTIPKN7android4hidl7manager4V1_020IServiceNotificationE",
   "name" : "const android::hidl::manager::V1_0::IServiceNotification *",
   "referenced_type" : "_ZTIKN7android4hidl7manager4V1_020IServiceNotificationE",
   "self_type" : "_ZTIPKN7android4hidl7manager4V1_020IServiceNotificationE",
   "size" : 8,
   "source_file" : "/out/soong/.intermediates/system/libhidl/transport/manager/1.0/android.hidl.manager@1.0_genc++_headers/gen/android/hidl/manager/1.0/IServiceNotification.h"
  },
  {
   "alignment" : 8,
   "linker_set_key" : "_ZTIPKN7android7RefBaseE",
   "name" : "const android::RefBase *",
   "referenced_type" : "_ZTIKN7android7RefBaseE",
   "self_type" : "_ZTIPKN7android7RefBaseE",
   "size" : 8,
   "source_file" : "/system/core/libutils/include/utils/RefBase.h"
  },
  {
   "alignment" : 8,
   "linker_set_key" : "_ZTIPKN7android7String8E",
   "name" : "const android::String8 *",
   "referenced_type" : "_ZTIKN7android7String8E",
   "self_type" : "_ZTIPKN7android7String8E",
   "size" : 8,
   "source_file" : "/system/core/libutils/include/utils/String8.h"
  },
  {
   "alignment" : 8,
   "linker_set_key" : "_ZTIPKN7android8String16E",
   "name" : "const android::String16 *",
   "referenced_type" : "_ZTIKN7android8String16E",
   "self_type" : "_ZTIPKN7android8String16E",
   "size" : 8,
   "source_file" : "/system/core/libutils/include/utils/String16.h"
  },
  {
   "alignment" : 8,
   "linker_set_key" : "_ZTIPKN7android8hardware11BpHwRefBaseE",
   "name" : "const android::hardware::BpHwRefBase *",
   "referenced_type" : "_ZTIKN7android8hardware11BpHwRefBaseE",
   "self_type" : "_ZTIPKN7android8hardware11BpHwRefBaseE",
   "size" : 8,
   "source_file" : "/system/libhwbinder/include/hwbinder/Binder.h"
  },
  {
   "alignment" : 8,
   "linker_set_key" : "_ZTIPKN7android8hardware11hidl_memoryE",
   "name" : "const android::hardware::hidl_memory *",
   "referenced_type" : "_ZTIKN7android8hardware11hidl_memoryE",
   "self_type" : "_ZTIPKN7android8hardware11hidl_memoryE",
   "size" : 8,
   "source_file" : "/system/libhidl/base/include/hidl/HidlSupport.h"
  },
  {
   "alignment" : 8,
   "linker_set_key" : "_ZTIPKN7android8hardware11hidl_stringE",
   "name" : "const android::hardware::hidl_string *",
   "referenced_type" : "_ZTIKN7android8hardware11hidl_stringE",
   "self_type" : "_ZTIPKN7android8hardware11hidl_stringE",
   "size" : 8,
   "source_file" : "/system/libhidl/base/include/hidl/HidlSupport.h"
  },
  {
   "alignment" : 8,
   "linker_set_key" : "_ZTIPKN7android8hardware12hidl_versionE",
   "name" : "const android::hardware::hidl_version *",
   "referenced_type" : "_ZTIKN7android8hardware12hidl_versionE",
   "self_type" : "_ZTIPKN7android8hardware12hidl_versionE",
   "size" : 8,
   "source_file" : "/system/libhidl/base/include/hidl/HidlSupport.h"
  },
  {
   "alignment" : 8,
   "linker_set_key" : "_ZTIPKN7android8hardware14broadcastradio4V2_011ProgramInfoE",
   "name" : "const android::hardware::broadcastradio::V2_0::ProgramInfo *",
   "referenced_type" : "_ZTIKN7android8hardware14broadcastradio4V2_011ProgramInfoE",
   "self_type" : "_ZTIPKN7android8hardware14broadcastradio4V2_011ProgramInfoE",
   "size" : 8,
   "source_file" : "/system/libhidl/base/include/hidl/HidlSupport.h"
  },
  {
   "alignment" : 8,
   "linker_set_key" : "_ZTIPKN7android8hardware14broadcastradio4V2_012AnnouncementE",
   "name" : "const android::hardware::broadcastradio::V2_0::Announcement *",
   "referenced_type" : "_ZTIKN7android8hardware14broadcastradio4V2_012AnnouncementE",
   "self_type" : "_ZTIPKN7android8hardware14broadcastradio4V2_012AnnouncementE",
   "size" : 8,
   "source_file" : "/system/libhidl/base/include/hidl/HidlSupport.h"
  },
  {
   "alignment" : 8,
   "linker_set_key" : "_ZTIPKN7android8hardware14broadcastradio4V2_012ICloseHandleE",
   "name" : "const android::hardware::broadcastradio::V2_0::ICloseHandle *",
   "referenced_type" : "_ZTIKN7android8hardware14broadcastradio4V2_012ICloseHandleE",
   "self_type" : "_ZTIPKN7android8hardware14broadcastradio4V2_012ICloseHandleE",
   "size" : 8,
   "source_file" : "/out/soong/.intermediates/hardware/interfaces/broadcastradio/2.0/android.hardware.broadcastradio@2.0_genc++_headers/gen/android/hardware/broadcastradio/2.0/ICloseHandle.h"
  },
  {
   "alignment" : 8,
   "linker_set_key" : "_ZTIPKN7android8hardware14broadcastradio4V2_013AmFmBandRangeE",
   "name" : "const android::hardware::broadcastradio::V2_0::AmFmBandRange *",
   "referenced_type" : "_ZTIKN7android8hardware14broadcastradio4V2_013AmFmBandRangeE",
   "self_type" : "_ZTIPKN7android8hardware14broadcastradio4V2_013AmFmBandRangeE",
   "size" : 8,
   "source_file" : "/system/libhidl/base/include/hidl/HidlSupport.h"
  },
  {
   "alignment" : 8,
   "linker_set_key" : "_ZTIPKN7android8hardware14broadcastradio4V2_013DabTableEntryE",
   "name" : "const android::hardware::broadcastradio::V2_0::DabTableEntry *",
   "referenced_type" : "_ZTIKN7android8hardware14broadcastradio4V2_013DabTableEntryE",
   "self_type" : "_ZTIPKN7android8hardware14broadcastradio4V2_013DabTableEntryE",
   "size" : 8,
   "source_file" : "/system/libhidl/base/include/hidl/HidlSupport.h"
  },
  {
   "alignment" : 8,
   "linker_set_key" : "_ZTIPKN7android8hardware14broadcastradio4V2_013ITunerSessionE",
   "name" : "const android::hardware::broadcastradio::V2_0::ITunerSession *",
   "referenced_type" : "_ZTIKN7android8hardware14broadcastradio4V2_013ITunerSessionE",
   "self_type" : "_ZTIPKN7android8hardware14broadcastradio4V2_013ITunerSessionE",
   "size" : 8,
   "source_file" : "/out/soong/.intermediates/hardware/interfaces/broadcastradio/2.0/android.hardware.broadcastradio@2.0_genc++_headers/gen/android/hardware/broadcastradio/2.0/ITunerSession.h"
  },
  {
   "alignment" : 8,
   "linker_set_key" : "_ZTIPKN7android8hardware14broadcastradio4V2_014ITunerCallbackE",
   "name" : "const android::hardware::broadcastradio::V2_0::ITunerCallback *",
   "referenced_type" : "_ZTIKN7android8hardware14broadcastradio4V2_014ITunerCallbackE",
   "self_type" : "_ZTIPKN7android8hardware14broadcastradio4V2_014ITunerCallbackE",
   "size" : 8,
   "source_file" : "/out/soong/.intermediates/hardware/interfaces/broadcastradio/2.0/android.hardware.broadcastradio@2.0_genc++_headers/gen/android/hardware/broadcastradio/2.0/ITunerCallback.h"
  },
  {
   "alignment" : 8,
   "linker_set_key" : "_ZTIPKN7android8hardware14broadcastradio4V2_014VendorKeyValueE",
   "name" : "const android::hardware::broadcastradio::V2_0::VendorKeyValue *",
   "referenced_type" : "_ZTIKN7android8hardware14broadcastradio4V2_014VendorKeyValueE",
   "self_type" : "_ZTIPKN7android8hardware14broadcastradio4V2_014VendorKeyValueE",
   "size" : 8,
   "source_file" : "/system/libhidl/base/include/hidl/HidlSupport.h"
  },
  {
   "alignment" : 8,
   "linker_set_key" : "_ZTIPKN7android8hardware14broadcastradio4V2_015BpHwCloseHandleE",
   "name" : "const android::hardware::broadcastradio::V2_0::BpHwCloseHandle *",
   "referenced_type" : "_ZTIKN7android8hardware14broadcastradio4V2_015BpHwCloseHandleE",
   "self_type" : "_ZTIPKN7android8hardware14broadcastradio4V2_015BpHwCloseHandleE",
   "size" : 8,
   "source_file" : "/out/soong/.intermediates/hardware/interfaces/broadcastradio/2.0/android.hardware.broadcastradio@2.0_genc++_headers/gen/android/hardware/broadcastradio/2.0/BpHwCloseHandle.h"
  },
  {
   "alignment" : 8,
   "linker_set_key" : "_ZTIPKN7android8hardware14broadcastradio4V2_015IBroadcastRadioE",
   "name" : "const android::hardware::broadcastradio::V2_0::IBroadcastRadio *",
   "referenced_type" : "_ZTIKN7android8hardware14broadcastradio4V2_015IBroadcastRadioE",
   "self_type" : "_ZTIPKN7android8hardware14broadcastradio4V2_015IBroadcastRadioE",
   "size" : 8,
   "source_file" : "/out/soong/.intermediates/hardware/interfaces/broadcastradio/2.0/android.hardware.broadcastradio@2.0_genc++_headers/gen/android/hardware/broadcastradio/2.0/IBroadcastRadio.h"
  },
  {
   "alignment" : 8,
   "linker_set_key" : "_ZTIPKN7android8hardware14broadcastradio4V2_016AnnouncementTypeE",
   "name" : "const android::hardware::broadcastradio::V2_0::AnnouncementType *",
   "referenced_type" : "_ZTIKN7android8hardware14broadcastradio4V2_016AnnouncementTypeE",
   "self_type" : "_ZTIPKN7android8hardware14broadcastradio4V2_016AnnouncementTypeE",
   "size" : 8,
   "source_file" : "/system/libhidl/base/include/hidl/HidlSupport.h"
  },
  {
   "alignment" : 8,
   "linker_set_key" : "_ZTIPKN7android8hardware14broadcastradio4V2_016BpHwTunerSessionE",
   "name" : "const android::hardware::broadcastradio::V2_0::BpHwTunerSession *",
   "referenced_type" : "_ZTIKN7android8hardware14broadcastradio4V2_016BpHwTunerSessionE",
   "self_type" : "_ZTIPKN7android8hardware14broadcastradio4V2_016BpHwTunerSessionE",
   "size" : 8,
   "source_file" : "/out/soong/.intermediates/hardware/interfaces/broadcastradio/2.0/android.hardware.broadcastradio@2.0_genc++_headers/gen/android/hardware/broadcastradio/2.0/BpHwTunerSession.h"
  },
  {
   "alignment" : 8,
   "linker_set_key" : "_ZTIPKN7android8hardware14broadcastradio4V2_017BpHwTunerCallbackE",
   "name" : "const android::hardware::broadcastradio::V2_0::BpHwTunerCallback *",
   "referenced_type" : "_ZTIKN7android8hardware14broadcastradio4V2_017BpHwTunerCallbackE",
   "self_type" : "_ZTIPKN7android8hardware14broadcastradio4V2_017BpHwTunerCallbackE",
   "size" : 8,
   "source_file" : "/out/soong/.intermediates/hardware/interfaces/broadcastradio/2.0/android.hardware.broadcastradio@2.0_genc++_headers/gen/android/hardware/broadcastradio/2.0/BpHwTunerCallback.h"
  },
  {
   "alignment" : 8,
   "linker_set_key" : "_ZTIPKN7android8hardware14broadcastradio4V2_017ProgramIdentifierE",
   "name" : "const android::hardware::broadcastradio::V2_0::ProgramIdentifier *",
   "referenced_type" : "_ZTIKN7android8hardware14broadcastradio4V2_017ProgramIdentifierE",
   "self_type" : "_ZTIPKN7android8hardware14broadcastradio4V2_017ProgramIdentifierE",
   "size" : 8,
   "source_file" : "/system/libhidl/base/include/hidl/HidlSupport.h"
  },
  {
   "alignment" : 8,
   "linker_set_key" : "_ZTIPKN7android8hardware14broadcastradio4V2_018BpHwBroadcastRadioE",
   "name" : "const android::hardware::broadcastradio::V2_0::BpHwBroadcastRadio *",
   "referenced_type" : "_ZTIKN7android8hardware14broadcastradio4V2_018BpHwBroadcastRadioE",
   "self_type" : "_ZTIPKN7android8hardware14broadcastradio4V2_018BpHwBroadcastRadioE",
   "size" : 8,
   "source_file" : "/out/soong/.intermediates/hardware/interfaces/broadcastradio/2.0/android.hardware.broadcastradio@2.0_genc++_headers/gen/android/hardware/broadcastradio/2.0/BpHwBroadcastRadio.h"
  },
  {
   "alignment" : 8,
   "linker_set_key" : "_ZTIPKN7android8hardware14broadcastradio4V2_021IAnnouncementListenerE",
   "name" : "const android::hardware::broadcastradio::V2_0::IAnnouncementListener *",
   "referenced_type" : "_ZTIKN7android8hardware14broadcastradio4V2_021IAnnouncementListenerE",
   "self_type" : "_ZTIPKN7android8hardware14broadcastradio4V2_021IAnnouncementListenerE",
   "size" : 8,
   "source_file" : "/out/soong/.intermediates/hardware/interfaces/broadcastradio/2.0/android.hardware.broadcastradio@2.0_genc++_headers/gen/android/hardware/broadcastradio/2.0/IAnnouncementListener.h"
  },
  {
   "alignment" : 8,
   "linker_set_key" : "_ZTIPKN7android8hardware14broadcastradio4V2_024BpHwAnnouncementListenerE",
   "name" : "const android::hardware::broadcastradio::V2_0::BpHwAnnouncementListener *",
   "referenced_type" : "_ZTIKN7android8hardware14broadcastradio4V2_024BpHwAnnouncementListenerE",
   "self_type" : "_ZTIPKN7android8hardware14broadcastradio4V2_024BpHwAnnouncementListenerE",
   "size" : 8,
   "source_file" : "/out/soong/.intermediates/hardware/interfaces/broadcastradio/2.0/android.hardware.broadcastradio@2.0_genc++_headers/gen/android/hardware/broadcastradio/2.0/BpHwAnnouncementListener.h"
  },
  {
   "alignment" : 8,
   "linker_set_key" : "_ZTIPKN7android8hardware14broadcastradio4V2_08MetadataE",
   "name" : "const android::hardware::broadcastradio::V2_0::Metadata *",
   "referenced_type" : "_ZTIKN7android8hardware14broadcastradio4V2_08MetadataE",
   "self_type" : "_ZTIPKN7android8hardware14broadcastradio4V2_08MetadataE",
   "size" : 8,
   "source_file" : "/system/libhidl/base/include/hidl/HidlSupport.h"
  },
  {
   "alignment" : 8,
   "linker_set_key" : "_ZTIPKN7android8hardware6ReturnINS0_14broadcastradio4V2_06ResultEEE",
   "name" : "const android::hardware::Return<android::hardware::broadcastradio::V2_0::Result> *",
   "referenced_type" : "_ZTIKN7android8hardware6ReturnINS0_14broadcastradio4V2_06ResultEEE",
   "self_type" : "_ZTIPKN7android8hardware6ReturnINS0_14broadcastradio4V2_06ResultEEE",
   "size" : 8,
   "source_file" : "/system/libhidl/base/include/hidl/Status.h"
  },
  {
   "alignment" : 8,
   "linker_set_key" : "_ZTIPKN7android8hardware6ReturnINS_2spINS0_14broadcastradio4V2_012ICloseHandleEEEEE",
   "name" : "const android::hardware::Return<android::sp<android::hardware::broadcastradio::V2_0::ICloseHandle> > *",
   "referenced_type" : "_ZTIKN7android8hardware6ReturnINS_2spINS0_14broadcastradio4V2_012ICloseHandleEEEEE",
   "self_type" : "_ZTIPKN7android8hardware6ReturnINS_2spINS0_14broadcastradio4V2_012ICloseHandleEEEEE",
   "size" : 8,
   "source_file" : "/system/libhidl/base/include/hidl/Status.h"
  },
  {
   "alignment" : 8,
   "linker_set_key" : "_ZTIPKN7android8hardware6ReturnINS_2spINS0_14broadcastradio4V2_013ITunerSessionEEEEE",
   "name" : "const android::hardware::Return<android::sp<android::hardware::broadcastradio::V2_0::ITunerSession> > *",
   "referenced_type" : "_ZTIKN7android8hardware6ReturnINS_2spINS0_14broadcastradio4V2_013ITunerSessionEEEEE",
   "self_type" : "_ZTIPKN7android8hardware6ReturnINS_2spINS0_14broadcastradio4V2_013ITunerSessionEEEEE",
   "size" : 8,
   "source_file" : "/system/libhidl/base/include/hidl/Status.h"
  },
  {
   "alignment" : 8,
   "linker_set_key" : "_ZTIPKN7android8hardware6ReturnINS_2spINS0_14broadcastradio4V2_014ITunerCallbackEEEEE",
   "name" : "const android::hardware::Return<android::sp<android::hardware::broadcastradio::V2_0::ITunerCallback> > *",
   "referenced_type" : "_ZTIKN7android8hardware6ReturnINS_2spINS0_14broadcastradio4V2_014ITunerCallbackEEEEE",
   "self_type" : "_ZTIPKN7android8hardware6ReturnINS_2spINS0_14broadcastradio4V2_014ITunerCallbackEEEEE",
   "size" : 8,
   "source_file" : "/system/libhidl/base/include/hidl/Status.h"
  },
  {
   "alignment" : 8,
   "linker_set_key" : "_ZTIPKN7android8hardware6ReturnINS_2spINS0_14broadcastradio4V2_015IBroadcastRadioEEEEE",
   "name" : "const android::hardware::Return<android::sp<android::hardware::broadcastradio::V2_0::IBroadcastRadio> > *",
   "referenced_type" : "_ZTIKN7android8hardware6ReturnINS_2spINS0_14broadcastradio4V2_015IBroadcastRadioEEEEE",
   "self_type" : "_ZTIPKN7android8hardware6ReturnINS_2spINS0_14broadcastradio4V2_015IBroadcastRadioEEEEE",
   "size" : 8,
   "source_file" : "/system/libhidl/base/include/hidl/Status.h"
  },
  {
   "alignment" : 8,
   "linker_set_key" : "_ZTIPKN7android8hardware6ReturnINS_2spINS0_14broadcastradio4V2_021IAnnouncementListenerEEEEE",
   "name" : "const android::hardware::Return<android::sp<android::hardware::broadcastradio::V2_0::IAnnouncementListener> > *",
   "referenced_type" : "_ZTIKN7android8hardware6ReturnINS_2spINS0_14broadcastradio4V2_021IAnnouncementListenerEEEEE",
   "self_type" : "_ZTIPKN7android8hardware6ReturnINS_2spINS0_14broadcastradio4V2_021IAnnouncementListenerEEEEE",
   "size" : 8,
   "source_file" : "/system/libhidl/base/include/hidl/Status.h"
  },
  {
   "alignment" : 8,
   "linker_set_key" : "_ZTIPKN7android8hardware6ReturnIbEE",
   "name" : "const android::hardware::Return<bool> *",
   "referenced_type" : "_ZTIKN7android8hardware6ReturnIbEE",
   "self_type" : "_ZTIPKN7android8hardware6ReturnIbEE",
   "size" : 8,
   "source_file" : "/system/libhidl/base/include/hidl/Status.h"
  },
  {
   "alignment" : 8,
   "linker_set_key" : "_ZTIPKN7android8hardware6StatusE",
   "name" : "const android::hardware::Status *",
   "referenced_type" : "_ZTIKN7android8hardware6StatusE",
   "self_type" : "_ZTIPKN7android8hardware6StatusE",
   "size" : 8,
   "source_file" : "/system/libhidl/base/include/hidl/Status.h"
  },
  {
   "alignment" : 8,
   "linker_set_key" : "_ZTIPKN7android8hardware7details12hidl_pointerINS0_10hidl_arrayIhLm32EJEEEEE",
   "name" : "const android::hardware::details::hidl_pointer<android::hardware::hidl_array<unsigned char, 32> > *",
   "referenced_type" : "_ZTIKN7android8hardware7details12hidl_pointerINS0_10hidl_arrayIhLm32EJEEEEE",
   "self_type" : "_ZTIPKN7android8hardware7details12hidl_pointerINS0_10hidl_arrayIhLm32EJEEEEE",
   "size" : 8,
   "source_file" : "/system/libhidl/base/include/hidl/HidlInternal.h"
  },
  {
   "alignment" : 8,
   "linker_set_key" : "_ZTIPKN7android8hardware7details12hidl_pointerINS0_11hidl_stringEEE",
   "name" : "const android::hardware::details::hidl_pointer<android::hardware::hidl_string> *",
   "referenced_type" : "_ZTIKN7android8hardware7details12hidl_pointerINS0_11hidl_stringEEE",
   "self_type" : "_ZTIPKN7android8hardware7details12hidl_pointerINS0_11hidl_stringEEE",
   "size" : 8,
   "source_file" : "/system/libhidl/base/include/hidl/HidlInternal.h"
  },
  {
   "alignment" : 8,
   "linker_set_key" : "_ZTIPKN7android8hardware7details12hidl_pointerINS0_14broadcastradio4V2_011ProgramInfoEEE",
   "name" : "const android::hardware::details::hidl_pointer<android::hardware::broadcastradio::V2_0::ProgramInfo> *",
   "referenced_type" : "_ZTIKN7android8hardware7details12hidl_pointerINS0_14broadcastradio4V2_011ProgramInfoEEE",
   "self_type" : "_ZTIPKN7android8hardware7details12hidl_pointerINS0_14broadcastradio4V2_011ProgramInfoEEE",
   "size" : 8,
   "source_file" : "/system/libhidl/base/include/hidl/HidlInternal.h"
  },
  {
   "alignment" : 8,
   "linker_set_key" : "_ZTIPKN7android8hardware7details12hidl_pointerINS0_14broadcastradio4V2_012AnnouncementEEE",
   "name" : "const android::hardware::details::hidl_pointer<android::hardware::broadcastradio::V2_0::Announcement> *",
   "referenced_type" : "_ZTIKN7android8hardware7details12hidl_pointerINS0_14broadcastradio4V2_012AnnouncementEEE",
   "self_type" : "_ZTIPKN7android8hardware7details12hidl_pointerINS0_14broadcastradio4V2_012AnnouncementEEE",
   "size" : 8,
   "source_file" : "/system/libhidl/base/include/hidl/HidlInternal.h"
  },
  {
   "alignment" : 8,
   "linker_set_key" : "_ZTIPKN7android8hardware7details12hidl_pointerINS0_14broadcastradio4V2_013AmFmBandRangeEEE",
   "name" : "const android::hardware::details::hidl_pointer<android::hardware::broadcastradio::V2_0::AmFmBandRange> *",
   "referenced_type" : "_ZTIKN7android8hardware7details12hidl_pointerINS0_14broadcastradio4V2_013AmFmBandRangeEEE",
   "self_type" : "_ZTIPKN7android8hardware7details12hidl_pointerINS0_14broadcastradio4V2_013AmFmBandRangeEEE",
   "size" : 8,
   "source_file" : "/system/libhidl/base/include/hidl/HidlInternal.h"
  },
  {
   "alignment" : 8,
   "linker_set_key" : "_ZTIPKN7android8hardware7details12hidl_pointerINS0_14broadcastradio4V2_013DabTableEntryEEE",
   "name" : "const android::hardware::details::hidl_pointer<android::hardware::broadcastradio::V2_0::DabTableEntry> *",
   "referenced_type" : "_ZTIKN7android8hardware7details12hidl_pointerINS0_14broadcastradio4V2_013DabTableEntryEEE",
   "self_type" : "_ZTIPKN7android8hardware7details12hidl_pointerINS0_14broadcastradio4V2_013DabTableEntryEEE",
   "size" : 8,
   "source_file" : "/system/libhidl/base/include/hidl/HidlInternal.h"
  },
  {
   "alignment" : 8,
   "linker_set_key" : "_ZTIPKN7android8hardware7details12hidl_pointerINS0_14broadcastradio4V2_014VendorKeyValueEEE",
   "name" : "const android::hardware::details::hidl_pointer<android::hardware::broadcastradio::V2_0::VendorKeyValue> *",
   "referenced_type" : "_ZTIKN7android8hardware7details12hidl_pointerINS0_14broadcastradio4V2_014VendorKeyValueEEE",
   "self_type" : "_ZTIPKN7android8hardware7details12hidl_pointerINS0_14broadcastradio4V2_014VendorKeyValueEEE",
   "size" : 8,
   "source_file" : "/system/libhidl/base/include/hidl/HidlInternal.h"
  },
  {
   "alignment" : 8,
   "linker_set_key" : "_ZTIPKN7android8hardware7details12hidl_pointerINS0_14broadcastradio4V2_016AnnouncementTypeEEE",
   "name" : "const android::hardware::details::hidl_pointer<android::hardware::broadcastradio::V2_0::AnnouncementType> *",
   "referenced_type" : "_ZTIKN7android8hardware7details12hidl_pointerINS0_14broadcastradio4V2_016AnnouncementTypeEEE",
   "self_type" : "_ZTIPKN7android8hardware7details12hidl_pointerINS0_14broadcastradio4V2_016AnnouncementTypeEEE",
   "size" : 8,
   "source_file" : "/system/libhidl/base/include/hidl/HidlInternal.h"
  },
  {
   "alignment" : 8,
   "linker_set_key" : "_ZTIPKN7android8hardware7details12hidl_pointerINS0_14broadcastradio4V2_017ProgramIdentifierEEE",
   "name" : "const android::hardware::details::hidl_pointer<android::hardware::broadcastradio::V2_0::ProgramIdentifier> *",
   "referenced_type" : "_ZTIKN7android8hardware7details12hidl_pointerINS0_14broadcastradio4V2_017ProgramIdentifierEEE",
   "self_type" : "_ZTIPKN7android8hardware7details12hidl_pointerINS0_14broadcastradio4V2_017ProgramIdentifierEEE",
   "size" : 8,
   "source_file" : "/system/libhidl/base/include/hidl/HidlInternal.h"
  },
  {
   "alignment" : 8,
   "linker_set_key" : "_ZTIPKN7android8hardware7details12hidl_pointerINS0_14broadcastradio4V2_08MetadataEEE",
   "name" : "const android::hardware::details::hidl_pointer<android::hardware::broadcastradio::V2_0::Metadata> *",
   "referenced_type" : "_ZTIKN7android8hardware7details12hidl_pointerINS0_14broadcastradio4V2_08MetadataEEE",
   "self_type" : "_ZTIPKN7android8hardware7details12hidl_pointerINS0_14broadcastradio4V2_08MetadataEEE",
   "size" : 8,
   "source_file" : "/system/libhidl/base/include/hidl/HidlInternal.h"
  },
  {
   "alignment" : 8,
   "linker_set_key" : "_ZTIPKN7android8hardware7details12hidl_pointerIhEE",
   "name" : "const android::hardware::details::hidl_pointer<unsigned char> *",
   "referenced_type" : "_ZTIKN7android8hardware7details12hidl_pointerIhEE",
   "self_type" : "_ZTIPKN7android8hardware7details12hidl_pointerIhEE",
   "size" : 8,
   "source_file" : "/system/libhidl/base/include/hidl/HidlInternal.h"
  },
  {
   "alignment" : 8,
   "linker_set_key" : "_ZTIPKN7android8hardware7details12hidl_pointerIiEE",
   "name" : "const android::hardware::details::hidl_pointer<int> *",
   "referenced_type" : "_ZTIKN7android8hardware7details12hidl_pointerIiEE",
   "self_type" : "_ZTIPKN7android8hardware7details12hidl_pointerIiEE",
   "size" : 8,
   "source_file" : "/system/libhidl/base/include/hidl/HidlInternal.h"
  },
  {
   "alignment" : 8,
   "linker_set_key" : "_ZTIPKN7android8hardware7details12hidl_pointerIjEE",
   "name" : "const android::hardware::details::hidl_pointer<unsigned int> *",
   "referenced_type" : "_ZTIKN7android8hardware7details12hidl_pointerIjEE",
   "self_type" : "_ZTIPKN7android8hardware7details12hidl_pointerIjEE",
   "size" : 8,
   "source_file" : "/system/libhidl/base/include/hidl/HidlInternal.h"
  },
  {
   "alignment" : 8,
   "linker_set_key" : "_ZTIPKN7android8hardware7details13return_statusE",
   "name" : "const android::hardware::details::return_status *",
   "referenced_type" : "_ZTIKN7android8hardware7details13return_statusE",
   "self_type" : "_ZTIPKN7android8hardware7details13return_statusE",
   "size" : 8,
   "source_file" : "/system/libhidl/base/include/hidl/Status.h"
  },
  {
   "alignment" : 8,
   "linker_set_key" : "_ZTIPKN7android8hardware8hidl_vecINS0_11hidl_stringEEE",
   "name" : "const android::hardware::hidl_vec<android::hardware::hidl_string> *",
   "referenced_type" : "_ZTIKN7android8hardware8hidl_vecINS0_11hidl_stringEEE",
   "self_type" : "_ZTIPKN7android8hardware8hidl_vecINS0_11hidl_stringEEE",
   "size" : 8,
   "source_file" : "/system/libhidl/base/include/hidl/HidlSupport.h"
  },
  {
   "alignment" : 8,
   "linker_set_key" : "_ZTIPKN7android8hardware8hidl_vecINS0_14broadcastradio4V2_011ProgramInfoEEE",
   "name" : "const android::hardware::hidl_vec<android::hardware::broadcastradio::V2_0::ProgramInfo> *",
   "referenced_type" : "_ZTIKN7android8hardware8hidl_vecINS0_14broadcastradio4V2_011ProgramInfoEEE",
   "self_type" : "_ZTIPKN7android8hardware8hidl_vecINS0_14broadcastradio4V2_011ProgramInfoEEE",
   "size" : 8,
   "source_file" : "/system/libhidl/base/include/hidl/HidlSupport.h"
  },
  {
   "alignment" : 8,
   "linker_set_key" : "_ZTIPKN7android8hardware8hidl_vecINS0_14broadcastradio4V2_012AnnouncementEEE",
   "name" : "const android::hardware::hidl_vec<android::hardware::broadcastradio::V2_0::Announcement> *",
   "referenced_type" : "_ZTIKN7android8hardware8hidl_vecINS0_14broadcastradio4V2_012AnnouncementEEE",
   "self_type" : "_ZTIPKN7android8hardware8hidl_vecINS0_14broadcastradio4V2_012AnnouncementEEE",
   "size" : 8,
   "source_file" : "/system/libhidl/base/include/hidl/HidlSupport.h"
  },
  {
   "alignment" : 8,
   "linker_set_key" : "_ZTIPKN7android8hardware8hidl_vecINS0_14broadcastradio4V2_013AmFmBandRangeEEE",
   "name" : "const android::hardware::hidl_vec<android::hardware::broadcastradio::V2_0::AmFmBandRange> *",
   "referenced_type" : "_ZTIKN7android8hardware8hidl_vecINS0_14broadcastradio4V2_013AmFmBandRangeEEE",
   "self_type" : "_ZTIPKN7android8hardware8hidl_vecINS0_14broadcastradio4V2_013AmFmBandRangeEEE",
   "size" : 8,
   "source_file" : "/system/libhidl/base/include/hidl/HidlSupport.h"
  },
  {
   "alignment" : 8,
   "linker_set_key" : "_ZTIPKN7android8hardware8hidl_vecINS0_14broadcastradio4V2_013DabTableEntryEEE",
   "name" : "const android::hardware::hidl_vec<android::hardware::broadcastradio::V2_0::DabTableEntry> *",
   "referenced_type" : "_ZTIKN7android8hardware8hidl_vecINS0_14broadcastradio4V2_013DabTableEntryEEE",
   "self_type" : "_ZTIPKN7android8hardware8hidl_vecINS0_14broadcastradio4V2_013DabTableEntryEEE",
   "size" : 8,
   "source_file" : "/system/libhidl/base/include/hidl/HidlSupport.h"
  },
  {
   "alignment" : 8,
   "linker_set_key" : "_ZTIPKN7android8hardware8hidl_vecINS0_14broadcastradio4V2_014VendorKeyValueEEE",
   "name" : "const android::hardware::hidl_vec<android::hardware::broadcastradio::V2_0::VendorKeyValue> *",
   "referenced_type" : "_ZTIKN7android8hardware8hidl_vecINS0_14broadcastradio4V2_014VendorKeyValueEEE",
   "self_type" : "_ZTIPKN7android8hardware8hidl_vecINS0_14broadcastradio4V2_014VendorKeyValueEEE",
   "size" : 8,
   "source_file" : "/system/libhidl/base/include/hidl/HidlSupport.h"
  },
  {
   "alignment" : 8,
   "linker_set_key" : "_ZTIPKN7android8hardware8hidl_vecINS0_14broadcastradio4V2_016AnnouncementTypeEEE",
   "name" : "const android::hardware::hidl_vec<android::hardware::broadcastradio::V2_0::AnnouncementType> *",
   "referenced_type" : "_ZTIKN7android8hardware8hidl_vecINS0_14broadcastradio4V2_016AnnouncementTypeEEE",
   "self_type" : "_ZTIPKN7android8hardware8hidl_vecINS0_14broadcastradio4V2_016AnnouncementTypeEEE",
   "size" : 8,
   "source_file" : "/system/libhidl/base/include/hidl/HidlSupport.h"
  },
  {
   "alignment" : 8,
   "linker_set_key" : "_ZTIPKN7android8hardware8hidl_vecINS0_14broadcastradio4V2_017ProgramIdentifierEEE",
   "name" : "const android::hardware::hidl_vec<android::hardware::broadcastradio::V2_0::ProgramIdentifier> *",
   "referenced_type" : "_ZTIKN7android8hardware8hidl_vecINS0_14broadcastradio4V2_017ProgramIdentifierEEE",
   "self_type" : "_ZTIPKN7android8hardware8hidl_vecINS0_14broadcastradio4V2_017ProgramIdentifierEEE",
   "size" : 8,
   "source_file" : "/system/libhidl/base/include/hidl/HidlSupport.h"
  },
  {
   "alignment" : 8,
   "linker_set_key" : "_ZTIPKN7android8hardware8hidl_vecINS0_14broadcastradio4V2_08MetadataEEE",
   "name" : "const android::hardware::hidl_vec<android::hardware::broadcastradio::V2_0::Metadata> *",
   "referenced_type" : "_ZTIKN7android8hardware8hidl_vecINS0_14broadcastradio4V2_08MetadataEEE",
   "self_type" : "_ZTIPKN7android8hardware8hidl_vecINS0_14broadcastradio4V2_08MetadataEEE",
   "size" : 8,
   "source_file" : "/system/libhidl/base/include/hidl/HidlSupport.h"
  },
  {
   "alignment" : 8,
   "linker_set_key" : "_ZTIPKN7android8hardware8hidl_vecIhEE",
   "name" : "const android::hardware::hidl_vec<unsigned char> *",
   "referenced_type" : "_ZTIKN7android8hardware8hidl_vecIhEE",
   "self_type" : "_ZTIPKN7android8hardware8hidl_vecIhEE",
   "size" : 8,
   "source_file" : "/system/libhidl/base/include/hidl/HidlSupport.h"
  },
  {
   "alignment" : 8,
   "linker_set_key" : "_ZTIPKN7android8hardware8hidl_vecIiEE",
   "name" : "const android::hardware::hidl_vec<int> *",
   "referenced_type" : "_ZTIKN7android8hardware8hidl_vecIiEE",
   "self_type" : "_ZTIPKN7android8hardware8hidl_vecIiEE",
   "size" : 8,
   "source_file" : "/system/libhidl/base/include/hidl/HidlSupport.h"
  },
  {
   "alignment" : 8,
   "linker_set_key" : "_ZTIPKN7android8hardware8hidl_vecIjEE",
   "name" : "const android::hardware::hidl_vec<unsigned int> *",
   "referenced_type" : "_ZTIKN7android8hardware8hidl_vecIjEE",
   "self_type" : "_ZTIPKN7android8hardware8hidl_vecIjEE",
   "size" : 8,
   "source_file" : "/system/libhidl/base/include/hidl/HidlSupport.h"
  },
  {
   "alignment" : 8,
   "linker_set_key" : "_ZTIPKc",
   "name" : "const char *",
   "referenced_type" : "_ZTIKc",
   "self_type" : "_ZTIPKc",
   "size" : 8,
   "source_file" : "/system/core/liblog/include/android/log.h"
  },
  {
   "alignment" : 8,
   "linker_set_key" : "_ZTIPKh",
   "name" : "const unsigned char *",
   "referenced_type" : "_ZTIKh",
   "self_type" : "_ZTIPKh",
   "size" : 8,
   "source_file" : "/system/libhidl/base/include/hidl/HidlSupport.h"
  },
  {
   "alignment" : 8,
   "linker_set_key" : "_ZTIPKj",
   "name" : "const unsigned int *",
   "referenced_type" : "_ZTIKj",
   "self_type" : "_ZTIPKj",
   "size" : 8,
   "source_file" : "/system/libhidl/base/include/hidl/HidlSupport.h"
  },
  {
   "alignment" : 8,
   "linker_set_key" : "_ZTIPKv",
   "name" : "const void *",
   "referenced_type" : "_ZTIKv",
   "self_type" : "_ZTIPKv",
   "size" : 8,
   "source_file" : "/system/core/libutils/include/utils/StrongPointer.h"
  },
  {
   "alignment" : 8,
   "linker_set_key" : "_ZTIPKy",
   "name" : "const unsigned long long *",
   "referenced_type" : "_ZTIKy",
   "self_type" : "_ZTIPKy",
   "size" : 8,
   "source_file" : "/system/libhwbinder/include/hwbinder/Parcel.h"
  },
  {
   "alignment" : 8,
   "linker_set_key" : "_ZTIPN7android11ScopedTraceE",
   "name" : "android::ScopedTrace *",
   "referenced_type" : "_ZTIN7android11ScopedTraceE",
   "self_type" : "_ZTIPN7android11ScopedTraceE",
   "size" : 8,
   "source_file" : "/system/core/libutils/include/utils/Trace.h"
  },
  {
   "alignment" : 8,
   "linker_set_key" : "_ZTIPN7android16ReferenceRenamerE",
   "name" : "android::ReferenceRenamer *",
   "referenced_type" : "_ZTIN7android16ReferenceRenamerE",
   "self_type" : "_ZTIPN7android16ReferenceRenamerE",
   "size" : 8,
   "source_file" : "/system/core/libutils/include/utils/RefBase.h"
  },
  {
   "alignment" : 8,
   "linker_set_key" : "_ZTIPN7android19VirtualLightRefBaseE",
   "name" : "android::VirtualLightRefBase *",
   "referenced_type" : "_ZTIN7android19VirtualLightRefBaseE",
   "self_type" : "_ZTIPN7android19VirtualLightRefBaseE",
   "size" : 8,
   "source_file" : "/system/core/libutils/include/utils/LightRefBase.h"
  },
  {
   "alignment" : 8,
   "linker_set_key" : "_ZTIPN7android2spINS_4hidl4base4V1_05IBaseEEE",
   "name" : "android::sp<android::hidl::base::V1_0::IBase> *",
   "referenced_type" : "_ZTIN7android2spINS_4hidl4base4V1_05IBaseEEE",
   "self_type" : "_ZTIPN7android2spINS_4hidl4base4V1_05IBaseEEE",
   "size" : 8,
   "source_file" : "/system/core/libutils/include/utils/StrongPointer.h"
  },
  {
   "alignment" : 8,
   "linker_set_key" : "_ZTIPN7android2spINS_4hidl7manager4V1_015IServiceManagerEEE",
   "name" : "android::sp<android::hidl::manager::V1_0::IServiceManager> *",
   "referenced_type" : "_ZTIN7android2spINS_4hidl7manager4V1_015IServiceManagerEEE",
   "self_type" : "_ZTIPN7android2spINS_4hidl7manager4V1_015IServiceManagerEEE",
   "size" : 8,
   "source_file" : "/system/core/libutils/include/utils/StrongPointer.h"
  },
  {
   "alignment" : 8,
   "linker_set_key" : "_ZTIPN7android2spINS_4hidl7manager4V1_020IServiceNotificationEEE",
   "name" : "android::sp<android::hidl::manager::V1_0::IServiceNotification> *",
   "referenced_type" : "_ZTIN7android2spINS_4hidl7manager4V1_020IServiceNotificationEEE",
   "self_type" : "_ZTIPN7android2spINS_4hidl7manager4V1_020IServiceNotificationEEE",
   "size" : 8,
   "source_file" : "/system/core/libutils/include/utils/StrongPointer.h"
  },
  {
   "alignment" : 8,
   "linker_set_key" : "_ZTIPN7android2spINS_8hardware12ProcessStateEEE",
   "name" : "android::sp<android::hardware::ProcessState> *",
   "referenced_type" : "_ZTIN7android2spINS_8hardware12ProcessStateEEE",
   "self_type" : "_ZTIPN7android2spINS_8hardware12ProcessStateEEE",
   "size" : 8,
   "source_file" : "/system/core/libutils/include/utils/StrongPointer.h"
  },
  {
   "alignment" : 8,
   "linker_set_key" : "_ZTIPN7android2spINS_8hardware14broadcastradio4V2_012ICloseHandleEEE",
   "name" : "android::sp<android::hardware::broadcastradio::V2_0::ICloseHandle> *",
   "referenced_type" : "_ZTIN7android2spINS_8hardware14broadcastradio4V2_012ICloseHandleEEE",
   "self_type" : "_ZTIPN7android2spINS_8hardware14broadcastradio4V2_012ICloseHandleEEE",
   "size" : 8,
   "source_file" : "/system/core/libutils/include/utils/StrongPointer.h"
  },
  {
   "alignment" : 8,
   "linker_set_key" : "_ZTIPN7android2spINS_8hardware14broadcastradio4V2_013ITunerSessionEEE",
   "name" : "android::sp<android::hardware::broadcastradio::V2_0::ITunerSession> *",
   "referenced_type" : "_ZTIN7android2spINS_8hardware14broadcastradio4V2_013ITunerSessionEEE",
   "self_type" : "_ZTIPN7android2spINS_8hardware14broadcastradio4V2_013ITunerSessionEEE",
   "size" : 8,
   "source_file" : "/system/core/libutils/include/utils/StrongPointer.h"
  },
  {
   "alignment" : 8,
   "linker_set_key" : "_ZTIPN7android2spINS_8hardware14broadcastradio4V2_014ITunerCallbackEEE",
   "name" : "android::sp<android::hardware::broadcastradio::V2_0::ITunerCallback> *",
   "referenced_type" : "_ZTIN7android2spINS_8hardware14broadcastradio4V2_014ITunerCallbackEEE",
   "self_type" : "_ZTIPN7android2spINS_8hardware14broadcastradio4V2_014ITunerCallbackEEE",
   "size" : 8,
   "source_file" : "/system/core/libutils/include/utils/StrongPointer.h"
  },
  {
   "alignment" : 8,
   "linker_set_key" : "_ZTIPN7android2spINS_8hardware14broadcastradio4V2_015IBroadcastRadioEEE",
   "name" : "android::sp<android::hardware::broadcastradio::V2_0::IBroadcastRadio> *",
   "referenced_type" : "_ZTIN7android2spINS_8hardware14broadcastradio4V2_015IBroadcastRadioEEE",
   "self_type" : "_ZTIPN7android2spINS_8hardware14broadcastradio4V2_015IBroadcastRadioEEE",
   "size" : 8,
   "source_file" : "/system/core/libutils/include/utils/StrongPointer.h"
  },
  {
   "alignment" : 8,
   "linker_set_key" : "_ZTIPN7android2spINS_8hardware14broadcastradio4V2_021IAnnouncementListenerEEE",
   "name" : "android::sp<android::hardware::broadcastradio::V2_0::IAnnouncementListener> *",
   "referenced_type" : "_ZTIN7android2spINS_8hardware14broadcastradio4V2_021IAnnouncementListenerEEE",
   "self_type" : "_ZTIPN7android2spINS_8hardware14broadcastradio4V2_021IAnnouncementListenerEEE",
   "size" : 8,
   "source_file" : "/system/core/libutils/include/utils/StrongPointer.h"
  },
  {
   "alignment" : 8,
   "linker_set_key" : "_ZTIPN7android2spINS_8hardware27hidl_binder_death_recipientEEE",
   "name" : "android::sp<android::hardware::hidl_binder_death_recipient> *",
   "referenced_type" : "_ZTIN7android2spINS_8hardware27hidl_binder_death_recipientEEE",
   "self_type" : "_ZTIPN7android2spINS_8hardware27hidl_binder_death_recipientEEE",
   "size" : 8,
   "source_file" : "/system/core/libutils/include/utils/StrongPointer.h"
  },
  {
   "alignment" : 8,
   "linker_set_key" : "_ZTIPN7android2spINS_8hardware7IBinder14DeathRecipientEEE",
   "name" : "android::sp<android::hardware::IBinder::DeathRecipient> *",
   "referenced_type" : "_ZTIN7android2spINS_8hardware7IBinder14DeathRecipientEEE",
   "self_type" : "_ZTIPN7android2spINS_8hardware7IBinder14DeathRecipientEEE",
   "size" : 8,
   "source_file" : "/system/core/libutils/include/utils/StrongPointer.h"
  },
  {
   "alignment" : 8,
   "linker_set_key" : "_ZTIPN7android2spINS_8hardware7IBinderEEE",
   "name" : "android::sp<android::hardware::IBinder> *",
   "referenced_type" : "_ZTIN7android2spINS_8hardware7IBinderEEE",
   "self_type" : "_ZTIPN7android2spINS_8hardware7IBinderEEE",
   "size" : 8,
   "source_file" : "/system/core/libutils/include/utils/StrongPointer.h"
  },
  {
   "alignment" : 8,
   "linker_set_key" : "_ZTIPN7android2wpINS_8hardware20hidl_death_recipientEEE",
   "name" : "android::wp<android::hardware::hidl_death_recipient> *",
   "referenced_type" : "_ZTIN7android2wpINS_8hardware20hidl_death_recipientEEE",
   "self_type" : "_ZTIPN7android2wpINS_8hardware20hidl_death_recipientEEE",
   "size" : 8,
   "source_file" : "/system/core/libutils/include/utils/RefBase.h"
  },
  {
   "alignment" : 8,
   "linker_set_key" : "_ZTIPN7android2wpINS_8hardware7IBinder14DeathRecipientEEE",
   "name" : "android::wp<android::hardware::IBinder::DeathRecipient> *",
   "referenced_type" : "_ZTIN7android2wpINS_8hardware7IBinder14DeathRecipientEEE",
   "self_type" : "_ZTIPN7android2wpINS_8hardware7IBinder14DeathRecipientEEE",
   "size" : 8,
   "source_file" : "/system/core/libutils/include/utils/RefBase.h"
  },
  {
   "alignment" : 8,
   "linker_set_key" : "_ZTIPN7android2wpINS_8hardware9BHwBinderEEE",
